ARM GAS  D:\Temp\ccwKYSvy.s 			page 1


   1              		.cpu cortex-m4
   2              		.eabi_attribute 27, 1
   3              		.eabi_attribute 28, 1
   4              		.eabi_attribute 20, 1
   5              		.eabi_attribute 21, 1
   6              		.eabi_attribute 23, 3
   7              		.eabi_attribute 24, 1
   8              		.eabi_attribute 25, 1
   9              		.eabi_attribute 26, 1
  10              		.eabi_attribute 30, 1
  11              		.eabi_attribute 34, 1
  12              		.eabi_attribute 18, 4
  13              		.file	"ILI9341_GFX.c"
  14              		.text
  15              	.Ltext0:
  16              		.cfi_sections	.debug_frame
  17              		.section	.text.Rnd,"ax",%progbits
  18              		.align	1
  19              		.global	Rnd
  20              		.arch armv7e-m
  21              		.syntax unified
  22              		.thumb
  23              		.thumb_func
  24              		.fpu fpv4-sp-d16
  26              	Rnd:
  27              	.LVL0:
  28              	.LFB131:
  29              		.file 1 "Drivers/LCD/ILI9341/ILI9341_GFX.c"
   1:Drivers/LCD/ILI9341/ILI9341_GFX.c **** //	MIT License
   2:Drivers/LCD/ILI9341/ILI9341_GFX.c **** //
   3:Drivers/LCD/ILI9341/ILI9341_GFX.c **** //	Copyright (c) 2017 Matej Artnak
   4:Drivers/LCD/ILI9341/ILI9341_GFX.c **** //
   5:Drivers/LCD/ILI9341/ILI9341_GFX.c **** //	Permission is hereby granted, free of charge, to any person obtaining a copy
   6:Drivers/LCD/ILI9341/ILI9341_GFX.c **** //	of this software and associated documentation files (the "Software"), to deal
   7:Drivers/LCD/ILI9341/ILI9341_GFX.c **** //	in the Software without restriction, including without limitation the rights
   8:Drivers/LCD/ILI9341/ILI9341_GFX.c **** //	to use, copy, modify, merge, publish, distribute, sublicense, and/or sell
   9:Drivers/LCD/ILI9341/ILI9341_GFX.c **** //	copies of the Software, and to permit persons to whom the Software is
  10:Drivers/LCD/ILI9341/ILI9341_GFX.c **** //	furnished to do so, subject to the following conditions:
  11:Drivers/LCD/ILI9341/ILI9341_GFX.c **** //
  12:Drivers/LCD/ILI9341/ILI9341_GFX.c **** //	The above copyright notice and this permission notice shall be included in all
  13:Drivers/LCD/ILI9341/ILI9341_GFX.c **** //	copies or substantial portions of the Software.
  14:Drivers/LCD/ILI9341/ILI9341_GFX.c **** //
  15:Drivers/LCD/ILI9341/ILI9341_GFX.c **** //	THE SOFTWARE IS PROVIDED "AS IS", WITHOUT WARRANTY OF ANY KIND, EXPRESS OR
  16:Drivers/LCD/ILI9341/ILI9341_GFX.c **** //	IMPLIED, INCLUDING BUT NOT LIMITED TO THE WARRANTIES OF MERCHANTABILITY,
  17:Drivers/LCD/ILI9341/ILI9341_GFX.c **** //	FITNESS FOR A PARTICULAR PURPOSE AND NONINFRINGEMENT. IN NO EVENT SHALL THE
  18:Drivers/LCD/ILI9341/ILI9341_GFX.c **** //	AUTHORS OR COPYRIGHT HOLDERS BE LIABLE FOR ANY CLAIM, DAMAGES OR OTHER
  19:Drivers/LCD/ILI9341/ILI9341_GFX.c **** //	LIABILITY, WHETHER IN AN ACTION OF CONTRACT, TORT OR OTHERWISE, ARISING FROM,
  20:Drivers/LCD/ILI9341/ILI9341_GFX.c **** //	OUT OF OR IN CONNECTION WITH THE SOFTWARE OR THE USE OR OTHER DEALINGS IN THE
  21:Drivers/LCD/ILI9341/ILI9341_GFX.c **** //	SOFTWARE.
  22:Drivers/LCD/ILI9341/ILI9341_GFX.c **** //
  23:Drivers/LCD/ILI9341/ILI9341_GFX.c **** //
  24:Drivers/LCD/ILI9341/ILI9341_GFX.c **** //
  25:Drivers/LCD/ILI9341/ILI9341_GFX.c **** //-----------------------------------
  26:Drivers/LCD/ILI9341/ILI9341_GFX.c **** //	ILI9341 GFX library for STM32
  27:Drivers/LCD/ILI9341/ILI9341_GFX.c **** //-----------------------------------
  28:Drivers/LCD/ILI9341/ILI9341_GFX.c **** //
  29:Drivers/LCD/ILI9341/ILI9341_GFX.c **** //	Very simple GFX library built upon ILI9342_STM32_Driver library.
ARM GAS  D:\Temp\ccwKYSvy.s 			page 2


  30:Drivers/LCD/ILI9341/ILI9341_GFX.c **** //	Adds basic shapes, image and font drawing capabilities to ILI9341
  31:Drivers/LCD/ILI9341/ILI9341_GFX.c **** //
  32:Drivers/LCD/ILI9341/ILI9341_GFX.c **** //	Library is written for STM32 HAL library and supports STM32CUBEMX. To use the library with Cube 
  33:Drivers/LCD/ILI9341/ILI9341_GFX.c **** //	you need to tick the box that generates peripheral initialization code in their own respective .
  34:Drivers/LCD/ILI9341/ILI9341_GFX.c **** //
  35:Drivers/LCD/ILI9341/ILI9341_GFX.c **** //
  36:Drivers/LCD/ILI9341/ILI9341_GFX.c **** //-----------------------------------
  37:Drivers/LCD/ILI9341/ILI9341_GFX.c **** //	How to use this library
  38:Drivers/LCD/ILI9341/ILI9341_GFX.c **** //-----------------------------------
  39:Drivers/LCD/ILI9341/ILI9341_GFX.c **** //
  40:Drivers/LCD/ILI9341/ILI9341_GFX.c **** //	-If using MCUs other than STM32F7 you will have to change the #include "stm32f4xx_hal.h" in the 
  41:Drivers/LCD/ILI9341/ILI9341_GFX.c **** //
  42:Drivers/LCD/ILI9341/ILI9341_GFX.c **** //	If using "ILI9341_STM32_Driver" then all other prequisites to use the library have allready been
  43:Drivers/LCD/ILI9341/ILI9341_GFX.c **** //	Simply include the library and it is ready to be used
  44:Drivers/LCD/ILI9341/ILI9341_GFX.c **** //
  45:Drivers/LCD/ILI9341/ILI9341_GFX.c **** //-----------------------------------
  46:Drivers/LCD/ILI9341/ILI9341_GFX.c **** 
  47:Drivers/LCD/ILI9341/ILI9341_GFX.c **** 
  48:Drivers/LCD/ILI9341/ILI9341_GFX.c **** #include "ILI9341_STM32_Driver.h"
  49:Drivers/LCD/ILI9341/ILI9341_GFX.c **** #include "ILI9341_GFX.h"
  50:Drivers/LCD/ILI9341/ILI9341_GFX.c **** #include "5x5_font.h"
  51:Drivers/LCD/ILI9341/ILI9341_GFX.c **** #include "config.h"
  52:Drivers/LCD/ILI9341/ILI9341_GFX.c **** #include <stdbool.h>
  53:Drivers/LCD/ILI9341/ILI9341_GFX.c **** 
  54:Drivers/LCD/ILI9341/ILI9341_GFX.c **** //#include "spi.h"
  55:Drivers/LCD/ILI9341/ILI9341_GFX.c **** extern RNG_HandleTypeDef hrng;
  56:Drivers/LCD/ILI9341/ILI9341_GFX.c **** extern uint16_t LCD_HEIGHT;
  57:Drivers/LCD/ILI9341/ILI9341_GFX.c **** extern uint16_t LCD_WIDTH;
  58:Drivers/LCD/ILI9341/ILI9341_GFX.c **** extern bool transferComplete;
  59:Drivers/LCD/ILI9341/ILI9341_GFX.c **** //_FB1 static lv_color_t buf[TFT_HOR_RES * 48];
  60:Drivers/LCD/ILI9341/ILI9341_GFX.c **** //_FB1 static uint16_t FrameBuf[15360];
  61:Drivers/LCD/ILI9341/ILI9341_GFX.c **** static uint16_t FrameBuf[15360];
  62:Drivers/LCD/ILI9341/ILI9341_GFX.c **** 
  63:Drivers/LCD/ILI9341/ILI9341_GFX.c **** 
  64:Drivers/LCD/ILI9341/ILI9341_GFX.c **** uint16_t ILI9341_RandColor(void)
  65:Drivers/LCD/ILI9341/ILI9341_GFX.c **** {
  66:Drivers/LCD/ILI9341/ILI9341_GFX.c ****   uint32_t rand = 0;
  67:Drivers/LCD/ILI9341/ILI9341_GFX.c ****   rand = Rnd(&hrng);
  68:Drivers/LCD/ILI9341/ILI9341_GFX.c ****   return rand&0x0000FFFF;
  69:Drivers/LCD/ILI9341/ILI9341_GFX.c **** }
  70:Drivers/LCD/ILI9341/ILI9341_GFX.c **** uint32_t Rnd(RNG_HandleTypeDef *hrng)
  71:Drivers/LCD/ILI9341/ILI9341_GFX.c **** {
  30              		.loc 1 71 1 view -0
  31              		.cfi_startproc
  32              		@ args = 0, pretend = 0, frame = 8
  33              		@ frame_needed = 0, uses_anonymous_args = 0
  34              		.loc 1 71 1 is_stmt 0 view .LVU1
  35 0000 10B5     		push	{r4, lr}
  36              	.LCFI0:
  37              		.cfi_def_cfa_offset 8
  38              		.cfi_offset 4, -8
  39              		.cfi_offset 14, -4
  40 0002 82B0     		sub	sp, sp, #8
  41              	.LCFI1:
  42              		.cfi_def_cfa_offset 16
  43 0004 0446     		mov	r4, r0
  72:Drivers/LCD/ILI9341/ILI9341_GFX.c **** 	uint32_t rand = 0;
ARM GAS  D:\Temp\ccwKYSvy.s 			page 3


  44              		.loc 1 72 2 is_stmt 1 view .LVU2
  45              		.loc 1 72 11 is_stmt 0 view .LVU3
  46 0006 0023     		movs	r3, #0
  47 0008 0193     		str	r3, [sp, #4]
  73:Drivers/LCD/ILI9341/ILI9341_GFX.c **** 	while(hrng->State == HAL_RNG_STATE_BUSY)
  48              		.loc 1 73 2 is_stmt 1 view .LVU4
  49              	.L2:
  74:Drivers/LCD/ILI9341/ILI9341_GFX.c **** 	{
  75:Drivers/LCD/ILI9341/ILI9341_GFX.c **** 
  76:Drivers/LCD/ILI9341/ILI9341_GFX.c **** 	}
  50              		.loc 1 76 2 discriminator 1 view .LVU5
  73:Drivers/LCD/ILI9341/ILI9341_GFX.c **** 	while(hrng->State == HAL_RNG_STATE_BUSY)
  51              		.loc 1 73 12 is_stmt 0 discriminator 1 view .LVU6
  52 000a 6379     		ldrb	r3, [r4, #5]	@ zero_extendqisi2
  53 000c DBB2     		uxtb	r3, r3
  73:Drivers/LCD/ILI9341/ILI9341_GFX.c **** 	while(hrng->State == HAL_RNG_STATE_BUSY)
  54              		.loc 1 73 7 discriminator 1 view .LVU7
  55 000e 022B     		cmp	r3, #2
  56 0010 FBD0     		beq	.L2
  77:Drivers/LCD/ILI9341/ILI9341_GFX.c **** 	HAL_RNG_GenerateRandomNumber(hrng, &rand);
  57              		.loc 1 77 2 is_stmt 1 view .LVU8
  58 0012 01A9     		add	r1, sp, #4
  59 0014 2046     		mov	r0, r4
  60              	.LVL1:
  61              		.loc 1 77 2 is_stmt 0 view .LVU9
  62 0016 FFF7FEFF 		bl	HAL_RNG_GenerateRandomNumber
  63              	.LVL2:
  78:Drivers/LCD/ILI9341/ILI9341_GFX.c **** 	while(hrng->State == HAL_RNG_STATE_BUSY)
  64              		.loc 1 78 2 is_stmt 1 view .LVU10
  65              	.L3:
  79:Drivers/LCD/ILI9341/ILI9341_GFX.c **** 	{
  80:Drivers/LCD/ILI9341/ILI9341_GFX.c **** 
  81:Drivers/LCD/ILI9341/ILI9341_GFX.c **** 	}
  66              		.loc 1 81 2 discriminator 1 view .LVU11
  78:Drivers/LCD/ILI9341/ILI9341_GFX.c **** 	while(hrng->State == HAL_RNG_STATE_BUSY)
  67              		.loc 1 78 12 is_stmt 0 discriminator 1 view .LVU12
  68 001a 6379     		ldrb	r3, [r4, #5]	@ zero_extendqisi2
  69 001c DBB2     		uxtb	r3, r3
  78:Drivers/LCD/ILI9341/ILI9341_GFX.c **** 	while(hrng->State == HAL_RNG_STATE_BUSY)
  70              		.loc 1 78 7 discriminator 1 view .LVU13
  71 001e 022B     		cmp	r3, #2
  72 0020 FBD0     		beq	.L3
  82:Drivers/LCD/ILI9341/ILI9341_GFX.c **** 	return rand;
  73              		.loc 1 82 2 is_stmt 1 view .LVU14
  83:Drivers/LCD/ILI9341/ILI9341_GFX.c **** }
  74              		.loc 1 83 1 is_stmt 0 view .LVU15
  75 0022 0198     		ldr	r0, [sp, #4]
  76 0024 02B0     		add	sp, sp, #8
  77              	.LCFI2:
  78              		.cfi_def_cfa_offset 8
  79              		@ sp needed
  80 0026 10BD     		pop	{r4, pc}
  81              		.loc 1 83 1 view .LVU16
  82              		.cfi_endproc
  83              	.LFE131:
  85              		.section	.text.ILI9341_RandColor,"ax",%progbits
  86              		.align	1
ARM GAS  D:\Temp\ccwKYSvy.s 			page 4


  87              		.global	ILI9341_RandColor
  88              		.syntax unified
  89              		.thumb
  90              		.thumb_func
  91              		.fpu fpv4-sp-d16
  93              	ILI9341_RandColor:
  94              	.LFB130:
  65:Drivers/LCD/ILI9341/ILI9341_GFX.c ****   uint32_t rand = 0;
  95              		.loc 1 65 1 is_stmt 1 view -0
  96              		.cfi_startproc
  97              		@ args = 0, pretend = 0, frame = 0
  98              		@ frame_needed = 0, uses_anonymous_args = 0
  99 0000 08B5     		push	{r3, lr}
 100              	.LCFI3:
 101              		.cfi_def_cfa_offset 8
 102              		.cfi_offset 3, -8
 103              		.cfi_offset 14, -4
  66:Drivers/LCD/ILI9341/ILI9341_GFX.c ****   rand = Rnd(&hrng);
 104              		.loc 1 66 3 view .LVU18
 105              	.LVL3:
  67:Drivers/LCD/ILI9341/ILI9341_GFX.c ****   return rand&0x0000FFFF;
 106              		.loc 1 67 3 view .LVU19
  67:Drivers/LCD/ILI9341/ILI9341_GFX.c ****   return rand&0x0000FFFF;
 107              		.loc 1 67 10 is_stmt 0 view .LVU20
 108 0002 0248     		ldr	r0, .L7
 109 0004 FFF7FEFF 		bl	Rnd
 110              	.LVL4:
  68:Drivers/LCD/ILI9341/ILI9341_GFX.c **** }
 111              		.loc 1 68 3 is_stmt 1 view .LVU21
  69:Drivers/LCD/ILI9341/ILI9341_GFX.c **** uint32_t Rnd(RNG_HandleTypeDef *hrng)
 112              		.loc 1 69 1 is_stmt 0 view .LVU22
 113 0008 80B2     		uxth	r0, r0
 114              	.LVL5:
  69:Drivers/LCD/ILI9341/ILI9341_GFX.c **** uint32_t Rnd(RNG_HandleTypeDef *hrng)
 115              		.loc 1 69 1 view .LVU23
 116 000a 08BD     		pop	{r3, pc}
 117              	.L8:
 118              		.align	2
 119              	.L7:
 120 000c 00000000 		.word	hrng
 121              		.cfi_endproc
 122              	.LFE130:
 124              		.section	.text.lcd_random_rectangles,"ax",%progbits
 125              		.align	1
 126              		.global	lcd_random_rectangles
 127              		.syntax unified
 128              		.thumb
 129              		.thumb_func
 130              		.fpu fpv4-sp-d16
 132              	lcd_random_rectangles:
 133              	.LFB132:
  84:Drivers/LCD/ILI9341/ILI9341_GFX.c **** void lcd_random_rectangles(void)
  85:Drivers/LCD/ILI9341/ILI9341_GFX.c **** {
 134              		.loc 1 85 1 is_stmt 1 view -0
 135              		.cfi_startproc
 136              		@ args = 0, pretend = 0, frame = 0
 137              		@ frame_needed = 0, uses_anonymous_args = 0
ARM GAS  D:\Temp\ccwKYSvy.s 			page 5


 138 0000 2DE9F043 		push	{r4, r5, r6, r7, r8, r9, lr}
 139              	.LCFI4:
 140              		.cfi_def_cfa_offset 28
 141              		.cfi_offset 4, -28
 142              		.cfi_offset 5, -24
 143              		.cfi_offset 6, -20
 144              		.cfi_offset 7, -16
 145              		.cfi_offset 8, -12
 146              		.cfi_offset 9, -8
 147              		.cfi_offset 14, -4
 148 0004 83B0     		sub	sp, sp, #12
 149              	.LCFI5:
 150              		.cfi_def_cfa_offset 40
  86:Drivers/LCD/ILI9341/ILI9341_GFX.c ****     ILI9341_Fill_Screen(BLACK);
 151              		.loc 1 86 5 view .LVU25
 152 0006 0020     		movs	r0, #0
 153 0008 FFF7FEFF 		bl	ILI9341_Fill_Screen
 154              	.LVL6:
  87:Drivers/LCD/ILI9341/ILI9341_GFX.c ****     
  88:Drivers/LCD/ILI9341/ILI9341_GFX.c ****   for(int i=0;i<5000;i++)
 155              		.loc 1 88 3 view .LVU26
 156              	.LBB2:
 157              		.loc 1 88 7 view .LVU27
 158              		.loc 1 88 11 is_stmt 0 view .LVU28
 159 000c 4FF00008 		mov	r8, #0
 160              	.LVL7:
 161              	.L10:
 162              		.loc 1 88 3 discriminator 1 view .LVU29
 163 0010 41F28733 		movw	r3, #4999
 164 0014 9845     		cmp	r8, r3
 165 0016 31DC     		bgt	.L13
  89:Drivers/LCD/ILI9341/ILI9341_GFX.c ****     {
  90:Drivers/LCD/ILI9341/ILI9341_GFX.c ****       /*
  91:Drivers/LCD/ILI9341/ILI9341_GFX.c **** 		if(transferComplete) {
  92:Drivers/LCD/ILI9341/ILI9341_GFX.c ****       ILI9341_FillRect_DMA(Rnd(&hrng)%LCD_WIDTH,
  93:Drivers/LCD/ILI9341/ILI9341_GFX.c ****               Rnd(&hrng)%LCD_HEIGHT,
  94:Drivers/LCD/ILI9341/ILI9341_GFX.c ****               Rnd(&hrng)%LCD_WIDTH,
  95:Drivers/LCD/ILI9341/ILI9341_GFX.c ****               Rnd(&hrng)%LCD_HEIGHT,
  96:Drivers/LCD/ILI9341/ILI9341_GFX.c ****               ILI9341_RandColor());
  97:Drivers/LCD/ILI9341/ILI9341_GFX.c **** 			  }
  98:Drivers/LCD/ILI9341/ILI9341_GFX.c **** 			  else
  99:Drivers/LCD/ILI9341/ILI9341_GFX.c **** 			  {
 100:Drivers/LCD/ILI9341/ILI9341_GFX.c **** 				  lcdDelay(1);
 101:Drivers/LCD/ILI9341/ILI9341_GFX.c **** 			  }
 102:Drivers/LCD/ILI9341/ILI9341_GFX.c **** 			  */
 103:Drivers/LCD/ILI9341/ILI9341_GFX.c **** 	
 104:Drivers/LCD/ILI9341/ILI9341_GFX.c **** 			  
 105:Drivers/LCD/ILI9341/ILI9341_GFX.c **** 	  ILI9341_Draw_Rectangle(Rnd(&hrng)%LCD_WIDTH,
 166              		.loc 1 105 4 is_stmt 1 discriminator 3 view .LVU30
 167              		.loc 1 105 27 is_stmt 0 discriminator 3 view .LVU31
 168 0018 1D4C     		ldr	r4, .L14
 169 001a 2046     		mov	r0, r4
 170 001c FFF7FEFF 		bl	Rnd
 171              	.LVL8:
 172              		.loc 1 105 37 discriminator 3 view .LVU32
 173 0020 1C4F     		ldr	r7, .L14+4
 174 0022 3B88     		ldrh	r3, [r7]
ARM GAS  D:\Temp\ccwKYSvy.s 			page 6


 175 0024 B0FBF3F5 		udiv	r5, r0, r3
 176 0028 03FB1505 		mls	r5, r3, r5, r0
 106:Drivers/LCD/ILI9341/ILI9341_GFX.c ****               Rnd(&hrng)%LCD_HEIGHT,
 177              		.loc 1 106 15 discriminator 3 view .LVU33
 178 002c 2046     		mov	r0, r4
 179 002e FFF7FEFF 		bl	Rnd
 180              	.LVL9:
 181              		.loc 1 106 25 discriminator 3 view .LVU34
 182 0032 DFF86490 		ldr	r9, .L14+8
 183 0036 B9F80030 		ldrh	r3, [r9]
 184 003a B0FBF3F6 		udiv	r6, r0, r3
 185 003e 03FB1606 		mls	r6, r3, r6, r0
 107:Drivers/LCD/ILI9341/ILI9341_GFX.c ****               Rnd(&hrng)%LCD_WIDTH,
 186              		.loc 1 107 15 discriminator 3 view .LVU35
 187 0042 2046     		mov	r0, r4
 188 0044 FFF7FEFF 		bl	Rnd
 189              	.LVL10:
 190              		.loc 1 107 25 discriminator 3 view .LVU36
 191 0048 3B88     		ldrh	r3, [r7]
 192 004a B0FBF3F7 		udiv	r7, r0, r3
 193 004e 03FB1707 		mls	r7, r3, r7, r0
 108:Drivers/LCD/ILI9341/ILI9341_GFX.c ****               Rnd(&hrng)%LCD_HEIGHT,
 194              		.loc 1 108 15 discriminator 3 view .LVU37
 195 0052 2046     		mov	r0, r4
 196 0054 FFF7FEFF 		bl	Rnd
 197              	.LVL11:
 198              		.loc 1 108 25 discriminator 3 view .LVU38
 199 0058 B9F80030 		ldrh	r3, [r9]
 200 005c B0FBF3F4 		udiv	r4, r0, r3
 201 0060 03FB1404 		mls	r4, r3, r4, r0
 105:Drivers/LCD/ILI9341/ILI9341_GFX.c ****               Rnd(&hrng)%LCD_HEIGHT,
 202              		.loc 1 105 4 discriminator 3 view .LVU39
 203 0064 FFF7FEFF 		bl	ILI9341_RandColor
 204              	.LVL12:
 205 0068 0090     		str	r0, [sp]
 206 006a A3B2     		uxth	r3, r4
 207 006c BAB2     		uxth	r2, r7
 208 006e B1B2     		uxth	r1, r6
 209 0070 A8B2     		uxth	r0, r5
 210 0072 FFF7FEFF 		bl	ILI9341_Draw_Rectangle
 211              	.LVL13:
  88:Drivers/LCD/ILI9341/ILI9341_GFX.c ****     {
 212              		.loc 1 88 23 discriminator 3 view .LVU40
 213 0076 08F10108 		add	r8, r8, #1
 214              	.LVL14:
  88:Drivers/LCD/ILI9341/ILI9341_GFX.c ****     {
 215              		.loc 1 88 23 discriminator 3 view .LVU41
 216 007a C9E7     		b	.L10
 217              	.L13:
  88:Drivers/LCD/ILI9341/ILI9341_GFX.c ****     {
 218              		.loc 1 88 23 discriminator 3 view .LVU42
 219              	.LBE2:
 109:Drivers/LCD/ILI9341/ILI9341_GFX.c ****               ILI9341_RandColor());
 110:Drivers/LCD/ILI9341/ILI9341_GFX.c **** 			  
 111:Drivers/LCD/ILI9341/ILI9341_GFX.c ****      //lcdDelay(1);
 112:Drivers/LCD/ILI9341/ILI9341_GFX.c ****     }
 113:Drivers/LCD/ILI9341/ILI9341_GFX.c ****     lcdDelay(500);
ARM GAS  D:\Temp\ccwKYSvy.s 			page 7


 220              		.loc 1 113 5 is_stmt 1 view .LVU43
 221 007c 4FF4FA70 		mov	r0, #500
 222 0080 FFF7FEFF 		bl	lcdDelay
 223              	.LVL15:
 114:Drivers/LCD/ILI9341/ILI9341_GFX.c ****     ILI9341_Fill_Screen(BLACK);
 224              		.loc 1 114 5 view .LVU44
 225 0084 0020     		movs	r0, #0
 226 0086 FFF7FEFF 		bl	ILI9341_Fill_Screen
 227              	.LVL16:
 115:Drivers/LCD/ILI9341/ILI9341_GFX.c **** }
 228              		.loc 1 115 1 is_stmt 0 view .LVU45
 229 008a 03B0     		add	sp, sp, #12
 230              	.LCFI6:
 231              		.cfi_def_cfa_offset 28
 232              		@ sp needed
 233 008c BDE8F083 		pop	{r4, r5, r6, r7, r8, r9, pc}
 234              	.LVL17:
 235              	.L15:
 236              		.loc 1 115 1 view .LVU46
 237              		.align	2
 238              	.L14:
 239 0090 00000000 		.word	hrng
 240 0094 00000000 		.word	LCD_WIDTH
 241 0098 00000000 		.word	LCD_HEIGHT
 242              		.cfi_endproc
 243              	.LFE132:
 245              		.section	.text.lcd_fill_rand_colors,"ax",%progbits
 246              		.align	1
 247              		.global	lcd_fill_rand_colors
 248              		.syntax unified
 249              		.thumb
 250              		.thumb_func
 251              		.fpu fpv4-sp-d16
 253              	lcd_fill_rand_colors:
 254              	.LFB134:
 116:Drivers/LCD/ILI9341/ILI9341_GFX.c **** 
 117:Drivers/LCD/ILI9341/ILI9341_GFX.c **** void lcd_random_circles(void)
 118:Drivers/LCD/ILI9341/ILI9341_GFX.c **** {
 119:Drivers/LCD/ILI9341/ILI9341_GFX.c ****     uint32_t x;
 120:Drivers/LCD/ILI9341/ILI9341_GFX.c ****     uint32_t y;
 121:Drivers/LCD/ILI9341/ILI9341_GFX.c **** 	ILI9341_Fill_Screen(BLACK);
 122:Drivers/LCD/ILI9341/ILI9341_GFX.c ****     for(int i=0;i<2000;i++)
 123:Drivers/LCD/ILI9341/ILI9341_GFX.c ****     {
 124:Drivers/LCD/ILI9341/ILI9341_GFX.c ****         HAL_RNG_GenerateRandomNumber(&hrng, &x);
 125:Drivers/LCD/ILI9341/ILI9341_GFX.c ****         HAL_RNG_GenerateRandomNumber(&hrng, &y);
 126:Drivers/LCD/ILI9341/ILI9341_GFX.c ****       ILI9341_Draw_Hollow_Circle(x%(LCD_WIDTH-20)+20, y%(LCD_HEIGHT-20)+20,  20,ILI9341_RandColor()
 127:Drivers/LCD/ILI9341/ILI9341_GFX.c ****       lcdDelay(1);
 128:Drivers/LCD/ILI9341/ILI9341_GFX.c ****     }
 129:Drivers/LCD/ILI9341/ILI9341_GFX.c ****     lcdDelay(500);
 130:Drivers/LCD/ILI9341/ILI9341_GFX.c ****     ILI9341_Fill_Screen(BLACK);
 131:Drivers/LCD/ILI9341/ILI9341_GFX.c **** }
 132:Drivers/LCD/ILI9341/ILI9341_GFX.c **** void lcd_fill_rand_colors(void)
 133:Drivers/LCD/ILI9341/ILI9341_GFX.c **** {	
 255              		.loc 1 133 1 is_stmt 1 view -0
 256              		.cfi_startproc
 257              		@ args = 0, pretend = 0, frame = 0
 258              		@ frame_needed = 0, uses_anonymous_args = 0
ARM GAS  D:\Temp\ccwKYSvy.s 			page 8


 259 0000 08B5     		push	{r3, lr}
 260              	.LCFI7:
 261              		.cfi_def_cfa_offset 8
 262              		.cfi_offset 3, -8
 263              		.cfi_offset 14, -4
 134:Drivers/LCD/ILI9341/ILI9341_GFX.c **** 	ILI9341_Fill_Screen(ILI9341_RandColor());
 264              		.loc 1 134 2 view .LVU48
 265 0002 FFF7FEFF 		bl	ILI9341_RandColor
 266              	.LVL18:
 267 0006 FFF7FEFF 		bl	ILI9341_Fill_Screen
 268              	.LVL19:
 135:Drivers/LCD/ILI9341/ILI9341_GFX.c **** 	lcdDelay(500);
 269              		.loc 1 135 2 view .LVU49
 270 000a 4FF4FA70 		mov	r0, #500
 271 000e FFF7FEFF 		bl	lcdDelay
 272              	.LVL20:
 136:Drivers/LCD/ILI9341/ILI9341_GFX.c **** }
 273              		.loc 1 136 1 is_stmt 0 view .LVU50
 274 0012 08BD     		pop	{r3, pc}
 275              		.cfi_endproc
 276              	.LFE134:
 278              		.section	.text.lcd_random_points,"ax",%progbits
 279              		.align	1
 280              		.global	lcd_random_points
 281              		.syntax unified
 282              		.thumb
 283              		.thumb_func
 284              		.fpu fpv4-sp-d16
 286              	lcd_random_points:
 287              	.LFB136:
 137:Drivers/LCD/ILI9341/ILI9341_GFX.c **** void lcd_random_lines(void)
 138:Drivers/LCD/ILI9341/ILI9341_GFX.c **** {
 139:Drivers/LCD/ILI9341/ILI9341_GFX.c ****      ILI9341_Fill_Screen(BLACK);    
 140:Drivers/LCD/ILI9341/ILI9341_GFX.c **** 
 141:Drivers/LCD/ILI9341/ILI9341_GFX.c ****   for(int i=0;i<4000;i++)
 142:Drivers/LCD/ILI9341/ILI9341_GFX.c ****     {
 143:Drivers/LCD/ILI9341/ILI9341_GFX.c **** 
 144:Drivers/LCD/ILI9341/ILI9341_GFX.c ****         ILI9341_DrawLine(Rnd(&hrng)%LCD_WIDTH,
 145:Drivers/LCD/ILI9341/ILI9341_GFX.c ****                                             Rnd(&hrng)%LCD_HEIGHT,
 146:Drivers/LCD/ILI9341/ILI9341_GFX.c ****                                            Rnd(&hrng)%LCD_WIDTH,
 147:Drivers/LCD/ILI9341/ILI9341_GFX.c ****                                             Rnd(&hrng)%LCD_HEIGHT, ILI9341_RandColor());
 148:Drivers/LCD/ILI9341/ILI9341_GFX.c ****     //  lcdDelay(10);
 149:Drivers/LCD/ILI9341/ILI9341_GFX.c ****     }
 150:Drivers/LCD/ILI9341/ILI9341_GFX.c ****     lcdDelay(500);
 151:Drivers/LCD/ILI9341/ILI9341_GFX.c ****     ILI9341_Fill_Screen(BLACK);  
 152:Drivers/LCD/ILI9341/ILI9341_GFX.c **** }
 153:Drivers/LCD/ILI9341/ILI9341_GFX.c **** 
 154:Drivers/LCD/ILI9341/ILI9341_GFX.c **** void lcd_random_points(void)
 155:Drivers/LCD/ILI9341/ILI9341_GFX.c **** {
 288              		.loc 1 155 1 is_stmt 1 view -0
 289              		.cfi_startproc
 290              		@ args = 0, pretend = 0, frame = 0
 291              		@ frame_needed = 0, uses_anonymous_args = 0
 292 0000 F8B5     		push	{r3, r4, r5, r6, r7, lr}
 293              	.LCFI8:
 294              		.cfi_def_cfa_offset 24
 295              		.cfi_offset 3, -24
ARM GAS  D:\Temp\ccwKYSvy.s 			page 9


 296              		.cfi_offset 4, -20
 297              		.cfi_offset 5, -16
 298              		.cfi_offset 6, -12
 299              		.cfi_offset 7, -8
 300              		.cfi_offset 14, -4
 156:Drivers/LCD/ILI9341/ILI9341_GFX.c **** 
 157:Drivers/LCD/ILI9341/ILI9341_GFX.c ****       for(int i=0;i<4000;i++)
 301              		.loc 1 157 7 view .LVU52
 302              	.LBB3:
 303              		.loc 1 157 11 view .LVU53
 304              	.LVL21:
 305              		.loc 1 157 15 is_stmt 0 view .LVU54
 306 0002 0027     		movs	r7, #0
 307              		.loc 1 157 7 view .LVU55
 308 0004 1AE0     		b	.L19
 309              	.LVL22:
 310              	.L25:
 158:Drivers/LCD/ILI9341/ILI9341_GFX.c ****     {
 159:Drivers/LCD/ILI9341/ILI9341_GFX.c ****       for(int j=0;j<100;j++)
 160:Drivers/LCD/ILI9341/ILI9341_GFX.c ****       {
 161:Drivers/LCD/ILI9341/ILI9341_GFX.c **** 
 162:Drivers/LCD/ILI9341/ILI9341_GFX.c ****          ILI9341_Draw_Pixel(Rnd(&hrng)%LCD_WIDTH, Rnd(&hrng)%LCD_HEIGHT, BLACK);
 163:Drivers/LCD/ILI9341/ILI9341_GFX.c ****       }     
 164:Drivers/LCD/ILI9341/ILI9341_GFX.c **** 
 165:Drivers/LCD/ILI9341/ILI9341_GFX.c ****       ILI9341_Draw_Pixel(Rnd(&hrng)%LCD_WIDTH, Rnd(&hrng)%LCD_HEIGHT, ILI9341_RandColor());
 311              		.loc 1 165 7 is_stmt 1 discriminator 2 view .LVU56
 312              		.loc 1 165 26 is_stmt 0 discriminator 2 view .LVU57
 313 0006 1E4D     		ldr	r5, .L26
 314              	.LVL23:
 315              		.loc 1 165 26 discriminator 2 view .LVU58
 316 0008 2846     		mov	r0, r5
 317 000a FFF7FEFF 		bl	Rnd
 318              	.LVL24:
 319              		.loc 1 165 36 discriminator 2 view .LVU59
 320 000e 1D4B     		ldr	r3, .L26+4
 321 0010 1B88     		ldrh	r3, [r3]
 322 0012 B0FBF3F4 		udiv	r4, r0, r3
 323 0016 03FB1404 		mls	r4, r3, r4, r0
 324              		.loc 1 165 48 discriminator 2 view .LVU60
 325 001a 2846     		mov	r0, r5
 326 001c FFF7FEFF 		bl	Rnd
 327              	.LVL25:
 328              		.loc 1 165 58 discriminator 2 view .LVU61
 329 0020 194B     		ldr	r3, .L26+8
 330 0022 1B88     		ldrh	r3, [r3]
 331 0024 B0FBF3F5 		udiv	r5, r0, r3
 332 0028 03FB1505 		mls	r5, r3, r5, r0
 333              		.loc 1 165 7 discriminator 2 view .LVU62
 334 002c FFF7FEFF 		bl	ILI9341_RandColor
 335              	.LVL26:
 336 0030 0246     		mov	r2, r0
 337 0032 A9B2     		uxth	r1, r5
 338 0034 A0B2     		uxth	r0, r4
 339 0036 FFF7FEFF 		bl	ILI9341_Draw_Pixel
 340              	.LVL27:
 157:Drivers/LCD/ILI9341/ILI9341_GFX.c ****     {
 341              		.loc 1 157 27 discriminator 2 view .LVU63
ARM GAS  D:\Temp\ccwKYSvy.s 			page 10


 342 003a 0137     		adds	r7, r7, #1
 343              	.LVL28:
 344              	.L19:
 157:Drivers/LCD/ILI9341/ILI9341_GFX.c ****     {
 345              		.loc 1 157 7 discriminator 1 view .LVU64
 346 003c B7F57A6F 		cmp	r7, #4000
 347 0040 1CDA     		bge	.L24
 348              	.LBB4:
 159:Drivers/LCD/ILI9341/ILI9341_GFX.c ****       {
 349              		.loc 1 159 15 view .LVU65
 350 0042 0025     		movs	r5, #0
 351              	.L21:
 352              	.LVL29:
 159:Drivers/LCD/ILI9341/ILI9341_GFX.c ****       {
 353              		.loc 1 159 7 discriminator 1 view .LVU66
 354 0044 632D     		cmp	r5, #99
 355 0046 DEDC     		bgt	.L25
 162:Drivers/LCD/ILI9341/ILI9341_GFX.c ****       }     
 356              		.loc 1 162 10 is_stmt 1 discriminator 3 view .LVU67
 162:Drivers/LCD/ILI9341/ILI9341_GFX.c ****       }     
 357              		.loc 1 162 29 is_stmt 0 discriminator 3 view .LVU68
 358 0048 0D4E     		ldr	r6, .L26
 359 004a 3046     		mov	r0, r6
 360 004c FFF7FEFF 		bl	Rnd
 361              	.LVL30:
 162:Drivers/LCD/ILI9341/ILI9341_GFX.c ****       }     
 362              		.loc 1 162 39 discriminator 3 view .LVU69
 363 0050 0C4B     		ldr	r3, .L26+4
 364 0052 1B88     		ldrh	r3, [r3]
 365 0054 B0FBF3F4 		udiv	r4, r0, r3
 366 0058 03FB1404 		mls	r4, r3, r4, r0
 162:Drivers/LCD/ILI9341/ILI9341_GFX.c ****       }     
 367              		.loc 1 162 51 discriminator 3 view .LVU70
 368 005c 3046     		mov	r0, r6
 369 005e FFF7FEFF 		bl	Rnd
 370              	.LVL31:
 162:Drivers/LCD/ILI9341/ILI9341_GFX.c ****       }     
 371              		.loc 1 162 61 discriminator 3 view .LVU71
 372 0062 094B     		ldr	r3, .L26+8
 373 0064 1B88     		ldrh	r3, [r3]
 374 0066 B0FBF3F1 		udiv	r1, r0, r3
 375 006a 03FB1101 		mls	r1, r3, r1, r0
 162:Drivers/LCD/ILI9341/ILI9341_GFX.c ****       }     
 376              		.loc 1 162 10 discriminator 3 view .LVU72
 377 006e 0022     		movs	r2, #0
 378 0070 89B2     		uxth	r1, r1
 379 0072 A0B2     		uxth	r0, r4
 380 0074 FFF7FEFF 		bl	ILI9341_Draw_Pixel
 381              	.LVL32:
 159:Drivers/LCD/ILI9341/ILI9341_GFX.c ****       {
 382              		.loc 1 159 26 discriminator 3 view .LVU73
 383 0078 0135     		adds	r5, r5, #1
 384              	.LVL33:
 159:Drivers/LCD/ILI9341/ILI9341_GFX.c ****       {
 385              		.loc 1 159 26 discriminator 3 view .LVU74
 386 007a E3E7     		b	.L21
 387              	.LVL34:
ARM GAS  D:\Temp\ccwKYSvy.s 			page 11


 388              	.L24:
 159:Drivers/LCD/ILI9341/ILI9341_GFX.c ****       {
 389              		.loc 1 159 26 discriminator 3 view .LVU75
 390              	.LBE4:
 391              	.LBE3:
 166:Drivers/LCD/ILI9341/ILI9341_GFX.c ****      // DelayMicro(100);
 167:Drivers/LCD/ILI9341/ILI9341_GFX.c ****     }
 168:Drivers/LCD/ILI9341/ILI9341_GFX.c ****    // lcdDelay(500);
 169:Drivers/LCD/ILI9341/ILI9341_GFX.c **** 
 170:Drivers/LCD/ILI9341/ILI9341_GFX.c **** }
 392              		.loc 1 170 1 view .LVU76
 393 007c F8BD     		pop	{r3, r4, r5, r6, r7, pc}
 394              	.LVL35:
 395              	.L27:
 396              		.loc 1 170 1 view .LVU77
 397 007e 00BF     		.align	2
 398              	.L26:
 399 0080 00000000 		.word	hrng
 400 0084 00000000 		.word	LCD_WIDTH
 401 0088 00000000 		.word	LCD_HEIGHT
 402              		.cfi_endproc
 403              	.LFE136:
 405              		.section	.text.ILI9341_DrawLine,"ax",%progbits
 406              		.align	1
 407              		.global	ILI9341_DrawLine
 408              		.syntax unified
 409              		.thumb
 410              		.thumb_func
 411              		.fpu fpv4-sp-d16
 413              	ILI9341_DrawLine:
 414              	.LVL36:
 415              	.LFB137:
 171:Drivers/LCD/ILI9341/ILI9341_GFX.c **** 
 172:Drivers/LCD/ILI9341/ILI9341_GFX.c **** 
 173:Drivers/LCD/ILI9341/ILI9341_GFX.c **** void ILI9341_DrawLine( uint16_t x1, uint16_t y1, uint16_t x2, uint16_t y2, uint16_t color)
 174:Drivers/LCD/ILI9341/ILI9341_GFX.c **** {
 416              		.loc 1 174 1 is_stmt 1 view -0
 417              		.cfi_startproc
 418              		@ args = 4, pretend = 0, frame = 8
 419              		@ frame_needed = 0, uses_anonymous_args = 0
 420              		.loc 1 174 1 is_stmt 0 view .LVU79
 421 0000 2DE9F04F 		push	{r4, r5, r6, r7, r8, r9, r10, fp, lr}
 422              	.LCFI9:
 423              		.cfi_def_cfa_offset 36
 424              		.cfi_offset 4, -36
 425              		.cfi_offset 5, -32
 426              		.cfi_offset 6, -28
 427              		.cfi_offset 7, -24
 428              		.cfi_offset 8, -20
 429              		.cfi_offset 9, -16
 430              		.cfi_offset 10, -12
 431              		.cfi_offset 11, -8
 432              		.cfi_offset 14, -4
 433 0004 83B0     		sub	sp, sp, #12
 434              	.LCFI10:
 435              		.cfi_def_cfa_offset 48
 436 0006 8846     		mov	r8, r1
ARM GAS  D:\Temp\ccwKYSvy.s 			page 12


 437 0008 1646     		mov	r6, r2
 438 000a 1C46     		mov	r4, r3
 439 000c BDF83030 		ldrh	r3, [sp, #48]
 440              	.LVL37:
 441              		.loc 1 174 1 view .LVU80
 442 0010 0093     		str	r3, [sp]
 175:Drivers/LCD/ILI9341/ILI9341_GFX.c ****   int steep = abs(y2-y1)>abs(x2-x1);
 443              		.loc 1 175 3 is_stmt 1 view .LVU81
 444              		.loc 1 175 15 is_stmt 0 view .LVU82
 445 0012 B4EB0109 		subs	r9, r4, r1
 446 0016 1FD4     		bmi	.L42
 447              	.L29:
 448              		.loc 1 175 26 discriminator 4 view .LVU83
 449 0018 B6EB000A 		subs	r10, r6, r0
 450 001c 21D4     		bmi	.L43
 451              	.L30:
 452              	.LVL38:
 176:Drivers/LCD/ILI9341/ILI9341_GFX.c ****   if(steep)
 453              		.loc 1 176 3 is_stmt 1 discriminator 8 view .LVU84
 454              		.loc 1 176 5 is_stmt 0 discriminator 8 view .LVU85
 455 001e D145     		cmp	r9, r10
 456 0020 05DC     		bgt	.L31
 457              		.loc 1 176 5 view .LVU86
 458 0022 2346     		mov	r3, r4
 459 0024 3446     		mov	r4, r6
 460 0026 1E46     		mov	r6, r3
 461 0028 4346     		mov	r3, r8
 462 002a 8046     		mov	r8, r0
 463 002c 1846     		mov	r0, r3
 464              	.LVL39:
 465              	.L31:
 177:Drivers/LCD/ILI9341/ILI9341_GFX.c ****   {
 178:Drivers/LCD/ILI9341/ILI9341_GFX.c ****     swap(x1,y1);
 179:Drivers/LCD/ILI9341/ILI9341_GFX.c ****     swap(x2,y2);
 466              		.loc 1 179 16 is_stmt 1 discriminator 1 view .LVU87
 180:Drivers/LCD/ILI9341/ILI9341_GFX.c ****   }
 181:Drivers/LCD/ILI9341/ILI9341_GFX.c ****   if(x1>x2)
 467              		.loc 1 181 3 discriminator 1 view .LVU88
 468              		.loc 1 181 5 is_stmt 0 discriminator 1 view .LVU89
 469 002e A045     		cmp	r8, r4
 470 0030 05D8     		bhi	.L32
 471              		.loc 1 181 5 view .LVU90
 472 0032 3346     		mov	r3, r6
 473 0034 0646     		mov	r6, r0
 474              	.LVL40:
 475              		.loc 1 181 5 view .LVU91
 476 0036 1846     		mov	r0, r3
 477              	.LVL41:
 478              		.loc 1 181 5 view .LVU92
 479 0038 2346     		mov	r3, r4
 480 003a 4446     		mov	r4, r8
 481              	.LVL42:
 482              		.loc 1 181 5 view .LVU93
 483 003c 9846     		mov	r8, r3
 484              	.LVL43:
 485              	.L32:
 182:Drivers/LCD/ILI9341/ILI9341_GFX.c ****   {
ARM GAS  D:\Temp\ccwKYSvy.s 			page 13


 183:Drivers/LCD/ILI9341/ILI9341_GFX.c ****     swap(x1,x2);
 184:Drivers/LCD/ILI9341/ILI9341_GFX.c ****     swap(y1,y2);
 486              		.loc 1 184 16 is_stmt 1 discriminator 1 view .LVU94
 185:Drivers/LCD/ILI9341/ILI9341_GFX.c ****   }
 186:Drivers/LCD/ILI9341/ILI9341_GFX.c ****   int dx,dy;
 487              		.loc 1 186 3 discriminator 1 view .LVU95
 187:Drivers/LCD/ILI9341/ILI9341_GFX.c ****   dx=x2-x1;
 488              		.loc 1 187 3 discriminator 1 view .LVU96
 489              		.loc 1 187 5 is_stmt 0 discriminator 1 view .LVU97
 490 003e A8EB040B 		sub	fp, r8, r4
 491              	.LVL44:
 188:Drivers/LCD/ILI9341/ILI9341_GFX.c ****   dy=abs(y2-y1);
 492              		.loc 1 188 3 is_stmt 1 discriminator 1 view .LVU98
 493              		.loc 1 188 6 is_stmt 0 discriminator 1 view .LVU99
 494 0042 871B     		subs	r7, r0, r6
 495 0044 12D4     		bmi	.L44
 496              	.L33:
 497              	.LVL45:
 189:Drivers/LCD/ILI9341/ILI9341_GFX.c ****   int err=dx/2;
 498              		.loc 1 189 3 is_stmt 1 discriminator 4 view .LVU100
 499              		.loc 1 189 7 is_stmt 0 discriminator 4 view .LVU101
 500 0046 0BEBDB75 		add	r5, fp, fp, lsr #31
 501 004a 6D10     		asrs	r5, r5, #1
 502              	.LVL46:
 190:Drivers/LCD/ILI9341/ILI9341_GFX.c ****   int ystep;
 503              		.loc 1 190 3 is_stmt 1 discriminator 4 view .LVU102
 191:Drivers/LCD/ILI9341/ILI9341_GFX.c ****   if(y1<y2) ystep=1;
 504              		.loc 1 191 3 discriminator 4 view .LVU103
 505              		.loc 1 191 5 is_stmt 0 discriminator 4 view .LVU104
 506 004c 8642     		cmp	r6, r0
 507 004e 28D3     		bcc	.L34
 192:Drivers/LCD/ILI9341/ILI9341_GFX.c ****   else ystep=-1;
 508              		.loc 1 192 13 view .LVU105
 509 0050 4FF0FF33 		mov	r3, #-1
 510 0054 0193     		str	r3, [sp, #4]
 511 0056 15E0     		b	.L39
 512              	.LVL47:
 513              	.L42:
 175:Drivers/LCD/ILI9341/ILI9341_GFX.c ****   if(steep)
 514              		.loc 1 175 15 discriminator 1 view .LVU106
 515 0058 C4F10009 		rsb	r9, r4, #0
 516 005c A9EB0109 		sub	r9, r9, r1
 517 0060 DAE7     		b	.L29
 518              	.L43:
 175:Drivers/LCD/ILI9341/ILI9341_GFX.c ****   if(steep)
 519              		.loc 1 175 26 discriminator 5 view .LVU107
 520 0062 C6F1000A 		rsb	r10, r6, #0
 521 0066 AAEB000A 		sub	r10, r10, r0
 522 006a D8E7     		b	.L30
 523              	.LVL48:
 524              	.L44:
 188:Drivers/LCD/ILI9341/ILI9341_GFX.c ****   int err=dx/2;
 525              		.loc 1 188 6 discriminator 1 view .LVU108
 526 006c 4742     		rsbs	r7, r0, #0
 527 006e BF1B     		subs	r7, r7, r6
 528 0070 E9E7     		b	.L33
 529              	.LVL49:
ARM GAS  D:\Temp\ccwKYSvy.s 			page 14


 530              	.L36:
 193:Drivers/LCD/ILI9341/ILI9341_GFX.c ****   for(;x1<=x2;x1++)
 194:Drivers/LCD/ILI9341/ILI9341_GFX.c ****   {
 195:Drivers/LCD/ILI9341/ILI9341_GFX.c ****     if(steep) ILI9341_Draw_Pixel(y1,x1,color);
 196:Drivers/LCD/ILI9341/ILI9341_GFX.c ****     else ILI9341_Draw_Pixel(x1,y1,color);
 531              		.loc 1 196 10 is_stmt 1 view .LVU109
 532 0072 009A     		ldr	r2, [sp]
 533 0074 3146     		mov	r1, r6
 534 0076 2046     		mov	r0, r4
 535 0078 FFF7FEFF 		bl	ILI9341_Draw_Pixel
 536              	.LVL50:
 537              	.L37:
 197:Drivers/LCD/ILI9341/ILI9341_GFX.c ****     err-=dy;
 538              		.loc 1 197 5 view .LVU110
 198:Drivers/LCD/ILI9341/ILI9341_GFX.c ****     if(err<0)
 539              		.loc 1 198 5 view .LVU111
 540              		.loc 1 198 7 is_stmt 0 view .LVU112
 541 007c ED1B     		subs	r5, r5, r7
 542              	.LVL51:
 543              		.loc 1 198 7 view .LVU113
 544 007e 0BD4     		bmi	.L45
 545              	.LVL52:
 546              	.L38:
 193:Drivers/LCD/ILI9341/ILI9341_GFX.c ****   for(;x1<=x2;x1++)
 547              		.loc 1 193 17 view .LVU114
 548 0080 0134     		adds	r4, r4, #1
 549              	.LVL53:
 193:Drivers/LCD/ILI9341/ILI9341_GFX.c ****   for(;x1<=x2;x1++)
 550              		.loc 1 193 17 view .LVU115
 551 0082 A4B2     		uxth	r4, r4
 552              	.LVL54:
 553              	.L39:
 193:Drivers/LCD/ILI9341/ILI9341_GFX.c ****   for(;x1<=x2;x1++)
 554              		.loc 1 193 3 discriminator 1 view .LVU116
 555 0084 4445     		cmp	r4, r8
 556 0086 0FD8     		bhi	.L46
 195:Drivers/LCD/ILI9341/ILI9341_GFX.c ****     else ILI9341_Draw_Pixel(x1,y1,color);
 557              		.loc 1 195 5 is_stmt 1 view .LVU117
 195:Drivers/LCD/ILI9341/ILI9341_GFX.c ****     else ILI9341_Draw_Pixel(x1,y1,color);
 558              		.loc 1 195 7 is_stmt 0 view .LVU118
 559 0088 D145     		cmp	r9, r10
 560 008a F2DD     		ble	.L36
 195:Drivers/LCD/ILI9341/ILI9341_GFX.c ****     else ILI9341_Draw_Pixel(x1,y1,color);
 561              		.loc 1 195 15 is_stmt 1 discriminator 1 view .LVU119
 562 008c 009A     		ldr	r2, [sp]
 563 008e 2146     		mov	r1, r4
 564 0090 3046     		mov	r0, r6
 565 0092 FFF7FEFF 		bl	ILI9341_Draw_Pixel
 566              	.LVL55:
 567 0096 F1E7     		b	.L37
 568              	.L45:
 199:Drivers/LCD/ILI9341/ILI9341_GFX.c ****     {
 200:Drivers/LCD/ILI9341/ILI9341_GFX.c ****       y1 += ystep;
 569              		.loc 1 200 7 view .LVU120
 570              		.loc 1 200 10 is_stmt 0 view .LVU121
 571 0098 019B     		ldr	r3, [sp, #4]
 572 009a 1E44     		add	r6, r6, r3
ARM GAS  D:\Temp\ccwKYSvy.s 			page 15


 573              	.LVL56:
 574              		.loc 1 200 10 view .LVU122
 575 009c B6B2     		uxth	r6, r6
 576              	.LVL57:
 201:Drivers/LCD/ILI9341/ILI9341_GFX.c ****       err+=dx;
 577              		.loc 1 201 7 is_stmt 1 view .LVU123
 578              		.loc 1 201 10 is_stmt 0 view .LVU124
 579 009e 5D44     		add	r5, r5, fp
 580              	.LVL58:
 581              		.loc 1 201 10 view .LVU125
 582 00a0 EEE7     		b	.L38
 583              	.LVL59:
 584              	.L34:
 191:Drivers/LCD/ILI9341/ILI9341_GFX.c ****   else ystep=-1;
 585              		.loc 1 191 18 view .LVU126
 586 00a2 0123     		movs	r3, #1
 587 00a4 0193     		str	r3, [sp, #4]
 588 00a6 EDE7     		b	.L39
 589              	.LVL60:
 590              	.L46:
 202:Drivers/LCD/ILI9341/ILI9341_GFX.c ****     }
 203:Drivers/LCD/ILI9341/ILI9341_GFX.c ****   }
 204:Drivers/LCD/ILI9341/ILI9341_GFX.c **** }
 591              		.loc 1 204 1 view .LVU127
 592 00a8 03B0     		add	sp, sp, #12
 593              	.LCFI11:
 594              		.cfi_def_cfa_offset 36
 595              		@ sp needed
 596 00aa BDE8F08F 		pop	{r4, r5, r6, r7, r8, r9, r10, fp, pc}
 597              		.loc 1 204 1 view .LVU128
 598              		.cfi_endproc
 599              	.LFE137:
 601              		.section	.text.lcd_random_lines,"ax",%progbits
 602              		.align	1
 603              		.global	lcd_random_lines
 604              		.syntax unified
 605              		.thumb
 606              		.thumb_func
 607              		.fpu fpv4-sp-d16
 609              	lcd_random_lines:
 610              	.LFB135:
 138:Drivers/LCD/ILI9341/ILI9341_GFX.c ****      ILI9341_Fill_Screen(BLACK);    
 611              		.loc 1 138 1 is_stmt 1 view -0
 612              		.cfi_startproc
 613              		@ args = 0, pretend = 0, frame = 0
 614              		@ frame_needed = 0, uses_anonymous_args = 0
 615 0000 2DE9F043 		push	{r4, r5, r6, r7, r8, r9, lr}
 616              	.LCFI12:
 617              		.cfi_def_cfa_offset 28
 618              		.cfi_offset 4, -28
 619              		.cfi_offset 5, -24
 620              		.cfi_offset 6, -20
 621              		.cfi_offset 7, -16
 622              		.cfi_offset 8, -12
 623              		.cfi_offset 9, -8
 624              		.cfi_offset 14, -4
 625 0004 83B0     		sub	sp, sp, #12
ARM GAS  D:\Temp\ccwKYSvy.s 			page 16


 626              	.LCFI13:
 627              		.cfi_def_cfa_offset 40
 139:Drivers/LCD/ILI9341/ILI9341_GFX.c **** 
 628              		.loc 1 139 6 view .LVU130
 629 0006 0020     		movs	r0, #0
 630 0008 FFF7FEFF 		bl	ILI9341_Fill_Screen
 631              	.LVL61:
 141:Drivers/LCD/ILI9341/ILI9341_GFX.c ****     {
 632              		.loc 1 141 3 view .LVU131
 633              	.LBB5:
 141:Drivers/LCD/ILI9341/ILI9341_GFX.c ****     {
 634              		.loc 1 141 7 view .LVU132
 141:Drivers/LCD/ILI9341/ILI9341_GFX.c ****     {
 635              		.loc 1 141 11 is_stmt 0 view .LVU133
 636 000c 4FF00008 		mov	r8, #0
 637              	.LVL62:
 638              	.L48:
 141:Drivers/LCD/ILI9341/ILI9341_GFX.c ****     {
 639              		.loc 1 141 3 discriminator 1 view .LVU134
 640 0010 B8F57A6F 		cmp	r8, #4000
 641 0014 31DA     		bge	.L51
 144:Drivers/LCD/ILI9341/ILI9341_GFX.c ****                                             Rnd(&hrng)%LCD_HEIGHT,
 642              		.loc 1 144 9 is_stmt 1 discriminator 3 view .LVU135
 144:Drivers/LCD/ILI9341/ILI9341_GFX.c ****                                             Rnd(&hrng)%LCD_HEIGHT,
 643              		.loc 1 144 26 is_stmt 0 discriminator 3 view .LVU136
 644 0016 1E4C     		ldr	r4, .L52
 645 0018 2046     		mov	r0, r4
 646 001a FFF7FEFF 		bl	Rnd
 647              	.LVL63:
 144:Drivers/LCD/ILI9341/ILI9341_GFX.c ****                                             Rnd(&hrng)%LCD_HEIGHT,
 648              		.loc 1 144 36 discriminator 3 view .LVU137
 649 001e 1D4F     		ldr	r7, .L52+4
 650 0020 3B88     		ldrh	r3, [r7]
 651 0022 B0FBF3F5 		udiv	r5, r0, r3
 652 0026 03FB1505 		mls	r5, r3, r5, r0
 145:Drivers/LCD/ILI9341/ILI9341_GFX.c ****                                            Rnd(&hrng)%LCD_WIDTH,
 653              		.loc 1 145 45 discriminator 3 view .LVU138
 654 002a 2046     		mov	r0, r4
 655 002c FFF7FEFF 		bl	Rnd
 656              	.LVL64:
 145:Drivers/LCD/ILI9341/ILI9341_GFX.c ****                                            Rnd(&hrng)%LCD_WIDTH,
 657              		.loc 1 145 55 discriminator 3 view .LVU139
 658 0030 DFF86490 		ldr	r9, .L52+8
 659 0034 B9F80030 		ldrh	r3, [r9]
 660 0038 B0FBF3F6 		udiv	r6, r0, r3
 661 003c 03FB1606 		mls	r6, r3, r6, r0
 146:Drivers/LCD/ILI9341/ILI9341_GFX.c ****                                             Rnd(&hrng)%LCD_HEIGHT, ILI9341_RandColor());
 662              		.loc 1 146 44 discriminator 3 view .LVU140
 663 0040 2046     		mov	r0, r4
 664 0042 FFF7FEFF 		bl	Rnd
 665              	.LVL65:
 146:Drivers/LCD/ILI9341/ILI9341_GFX.c ****                                             Rnd(&hrng)%LCD_HEIGHT, ILI9341_RandColor());
 666              		.loc 1 146 54 discriminator 3 view .LVU141
 667 0046 3B88     		ldrh	r3, [r7]
 668 0048 B0FBF3F7 		udiv	r7, r0, r3
 669 004c 03FB1707 		mls	r7, r3, r7, r0
 147:Drivers/LCD/ILI9341/ILI9341_GFX.c ****     //  lcdDelay(10);
ARM GAS  D:\Temp\ccwKYSvy.s 			page 17


 670              		.loc 1 147 45 discriminator 3 view .LVU142
 671 0050 2046     		mov	r0, r4
 672 0052 FFF7FEFF 		bl	Rnd
 673              	.LVL66:
 147:Drivers/LCD/ILI9341/ILI9341_GFX.c ****     //  lcdDelay(10);
 674              		.loc 1 147 55 discriminator 3 view .LVU143
 675 0056 B9F80030 		ldrh	r3, [r9]
 676 005a B0FBF3F4 		udiv	r4, r0, r3
 677 005e 03FB1404 		mls	r4, r3, r4, r0
 144:Drivers/LCD/ILI9341/ILI9341_GFX.c ****                                             Rnd(&hrng)%LCD_HEIGHT,
 678              		.loc 1 144 9 discriminator 3 view .LVU144
 679 0062 FFF7FEFF 		bl	ILI9341_RandColor
 680              	.LVL67:
 681 0066 0090     		str	r0, [sp]
 682 0068 A3B2     		uxth	r3, r4
 683 006a BAB2     		uxth	r2, r7
 684 006c B1B2     		uxth	r1, r6
 685 006e A8B2     		uxth	r0, r5
 686 0070 FFF7FEFF 		bl	ILI9341_DrawLine
 687              	.LVL68:
 141:Drivers/LCD/ILI9341/ILI9341_GFX.c ****     {
 688              		.loc 1 141 23 discriminator 3 view .LVU145
 689 0074 08F10108 		add	r8, r8, #1
 690              	.LVL69:
 141:Drivers/LCD/ILI9341/ILI9341_GFX.c ****     {
 691              		.loc 1 141 23 discriminator 3 view .LVU146
 692 0078 CAE7     		b	.L48
 693              	.L51:
 141:Drivers/LCD/ILI9341/ILI9341_GFX.c ****     {
 694              		.loc 1 141 23 discriminator 3 view .LVU147
 695              	.LBE5:
 150:Drivers/LCD/ILI9341/ILI9341_GFX.c ****     ILI9341_Fill_Screen(BLACK);  
 696              		.loc 1 150 5 is_stmt 1 view .LVU148
 697 007a 4FF4FA70 		mov	r0, #500
 698 007e FFF7FEFF 		bl	lcdDelay
 699              	.LVL70:
 151:Drivers/LCD/ILI9341/ILI9341_GFX.c **** }
 700              		.loc 1 151 5 view .LVU149
 701 0082 0020     		movs	r0, #0
 702 0084 FFF7FEFF 		bl	ILI9341_Fill_Screen
 703              	.LVL71:
 152:Drivers/LCD/ILI9341/ILI9341_GFX.c **** 
 704              		.loc 1 152 1 is_stmt 0 view .LVU150
 705 0088 03B0     		add	sp, sp, #12
 706              	.LCFI14:
 707              		.cfi_def_cfa_offset 28
 708              		@ sp needed
 709 008a BDE8F083 		pop	{r4, r5, r6, r7, r8, r9, pc}
 710              	.LVL72:
 711              	.L53:
 152:Drivers/LCD/ILI9341/ILI9341_GFX.c **** 
 712              		.loc 1 152 1 view .LVU151
 713 008e 00BF     		.align	2
 714              	.L52:
 715 0090 00000000 		.word	hrng
 716 0094 00000000 		.word	LCD_WIDTH
 717 0098 00000000 		.word	LCD_HEIGHT
ARM GAS  D:\Temp\ccwKYSvy.s 			page 18


 718              		.cfi_endproc
 719              	.LFE135:
 721              		.section	.text.ILI9341_Draw_Hollow_Circle,"ax",%progbits
 722              		.align	1
 723              		.global	ILI9341_Draw_Hollow_Circle
 724              		.syntax unified
 725              		.thumb
 726              		.thumb_func
 727              		.fpu fpv4-sp-d16
 729              	ILI9341_Draw_Hollow_Circle:
 730              	.LVL73:
 731              	.LFB138:
 205:Drivers/LCD/ILI9341/ILI9341_GFX.c **** 
 206:Drivers/LCD/ILI9341/ILI9341_GFX.c **** /*Draw hollow circle at X,Y location with specified radius and Color. X and Y represent circles cen
 207:Drivers/LCD/ILI9341/ILI9341_GFX.c **** void ILI9341_Draw_Hollow_Circle(uint16_t X, uint16_t Y, uint16_t Radius, uint16_t Color)
 208:Drivers/LCD/ILI9341/ILI9341_GFX.c **** {
 732              		.loc 1 208 1 is_stmt 1 view -0
 733              		.cfi_startproc
 734              		@ args = 0, pretend = 0, frame = 32
 735              		@ frame_needed = 0, uses_anonymous_args = 0
 736              		.loc 1 208 1 is_stmt 0 view .LVU153
 737 0000 2DE9F04F 		push	{r4, r5, r6, r7, r8, r9, r10, fp, lr}
 738              	.LCFI15:
 739              		.cfi_def_cfa_offset 36
 740              		.cfi_offset 4, -36
 741              		.cfi_offset 5, -32
 742              		.cfi_offset 6, -28
 743              		.cfi_offset 7, -24
 744              		.cfi_offset 8, -20
 745              		.cfi_offset 9, -16
 746              		.cfi_offset 10, -12
 747              		.cfi_offset 11, -8
 748              		.cfi_offset 14, -4
 749 0004 89B0     		sub	sp, sp, #36
 750              	.LCFI16:
 751              		.cfi_def_cfa_offset 72
 752 0006 8046     		mov	r8, r0
 753 0008 0F46     		mov	r7, r1
 754 000a 0093     		str	r3, [sp]
 209:Drivers/LCD/ILI9341/ILI9341_GFX.c **** 	int x = Radius-1;
 755              		.loc 1 209 2 is_stmt 1 view .LVU154
 756              		.loc 1 209 16 is_stmt 0 view .LVU155
 757 000c 0792     		str	r2, [sp, #28]
 758              		.loc 1 209 6 view .LVU156
 759 000e 561E     		subs	r6, r2, #1
 760              	.LVL74:
 210:Drivers/LCD/ILI9341/ILI9341_GFX.c ****     int y = 0;
 761              		.loc 1 210 5 is_stmt 1 view .LVU157
 211:Drivers/LCD/ILI9341/ILI9341_GFX.c ****     int dx = 1;
 762              		.loc 1 211 5 view .LVU158
 212:Drivers/LCD/ILI9341/ILI9341_GFX.c ****     int dy = 1;
 763              		.loc 1 212 5 view .LVU159
 213:Drivers/LCD/ILI9341/ILI9341_GFX.c ****     int err = dx - (Radius << 1);
 764              		.loc 1 213 5 view .LVU160
 765              		.loc 1 213 28 is_stmt 0 view .LVU161
 766 0010 5200     		lsls	r2, r2, #1
 767              	.LVL75:
ARM GAS  D:\Temp\ccwKYSvy.s 			page 19


 768              		.loc 1 213 9 view .LVU162
 769 0012 C2F1010B 		rsb	fp, r2, #1
 770              	.LVL76:
 214:Drivers/LCD/ILI9341/ILI9341_GFX.c **** 
 215:Drivers/LCD/ILI9341/ILI9341_GFX.c ****     while (x >= y)
 771              		.loc 1 215 5 is_stmt 1 view .LVU163
 212:Drivers/LCD/ILI9341/ILI9341_GFX.c ****     int err = dx - (Radius << 1);
 772              		.loc 1 212 9 is_stmt 0 view .LVU164
 773 0016 0123     		movs	r3, #1
 774              	.LVL77:
 212:Drivers/LCD/ILI9341/ILI9341_GFX.c ****     int err = dx - (Radius << 1);
 775              		.loc 1 212 9 view .LVU165
 776 0018 0693     		str	r3, [sp, #24]
 211:Drivers/LCD/ILI9341/ILI9341_GFX.c ****     int dy = 1;
 777              		.loc 1 211 9 view .LVU166
 778 001a 0593     		str	r3, [sp, #20]
 210:Drivers/LCD/ILI9341/ILI9341_GFX.c ****     int dx = 1;
 779              		.loc 1 210 9 view .LVU167
 780 001c 0023     		movs	r3, #0
 781 001e 0193     		str	r3, [sp, #4]
 782              	.LVL78:
 783              	.L55:
 784              		.loc 1 215 11 view .LVU168
 785 0020 019B     		ldr	r3, [sp, #4]
 786 0022 9E42     		cmp	r6, r3
 787 0024 60DB     		blt	.L60
 216:Drivers/LCD/ILI9341/ILI9341_GFX.c ****     {
 217:Drivers/LCD/ILI9341/ILI9341_GFX.c ****         ILI9341_Draw_Pixel(X + x, Y + y, Color);
 788              		.loc 1 217 9 is_stmt 1 view .LVU169
 789 0026 B5B2     		uxth	r5, r6
 790 0028 05EB0803 		add	r3, r5, r8
 791 002c 9BB2     		uxth	r3, r3
 792 002e BDF80440 		ldrh	r4, [sp, #4]
 793 0032 04EB070A 		add	r10, r4, r7
 794 0036 1FFA8AFA 		uxth	r10, r10
 795 003a 009A     		ldr	r2, [sp]
 796 003c 5146     		mov	r1, r10
 797 003e 0293     		str	r3, [sp, #8]
 798 0040 1846     		mov	r0, r3
 799 0042 FFF7FEFF 		bl	ILI9341_Draw_Pixel
 800              	.LVL79:
 218:Drivers/LCD/ILI9341/ILI9341_GFX.c ****         ILI9341_Draw_Pixel(X + y, Y + x, Color);
 801              		.loc 1 218 9 view .LVU170
 802 0046 04EB0803 		add	r3, r4, r8
 803 004a 9BB2     		uxth	r3, r3
 804 004c 05EB0709 		add	r9, r5, r7
 805 0050 1FFA89F9 		uxth	r9, r9
 806 0054 009A     		ldr	r2, [sp]
 807 0056 4946     		mov	r1, r9
 808 0058 0393     		str	r3, [sp, #12]
 809 005a 1846     		mov	r0, r3
 810 005c FFF7FEFF 		bl	ILI9341_Draw_Pixel
 811              	.LVL80:
 219:Drivers/LCD/ILI9341/ILI9341_GFX.c ****         ILI9341_Draw_Pixel(X - y, Y + x, Color);
 812              		.loc 1 219 9 view .LVU171
 813 0060 A8EB0403 		sub	r3, r8, r4
 814 0064 9AB2     		uxth	r2, r3
ARM GAS  D:\Temp\ccwKYSvy.s 			page 20


 815 0066 1346     		mov	r3, r2
 816 0068 009A     		ldr	r2, [sp]
 817 006a 4946     		mov	r1, r9
 818 006c 0493     		str	r3, [sp, #16]
 819 006e 1846     		mov	r0, r3
 820 0070 FFF7FEFF 		bl	ILI9341_Draw_Pixel
 821              	.LVL81:
 220:Drivers/LCD/ILI9341/ILI9341_GFX.c ****         ILI9341_Draw_Pixel(X - x, Y + y, Color);
 822              		.loc 1 220 9 view .LVU172
 823 0074 A8EB0509 		sub	r9, r8, r5
 824 0078 1FFA89F9 		uxth	r9, r9
 825 007c 009A     		ldr	r2, [sp]
 826 007e 5146     		mov	r1, r10
 827 0080 4846     		mov	r0, r9
 828 0082 FFF7FEFF 		bl	ILI9341_Draw_Pixel
 829              	.LVL82:
 221:Drivers/LCD/ILI9341/ILI9341_GFX.c ****         ILI9341_Draw_Pixel(X - x, Y - y, Color);
 830              		.loc 1 221 9 view .LVU173
 831 0086 3C1B     		subs	r4, r7, r4
 832 0088 A4B2     		uxth	r4, r4
 833 008a DDF800A0 		ldr	r10, [sp]
 834 008e 5246     		mov	r2, r10
 835 0090 2146     		mov	r1, r4
 836 0092 4846     		mov	r0, r9
 837 0094 FFF7FEFF 		bl	ILI9341_Draw_Pixel
 838              	.LVL83:
 222:Drivers/LCD/ILI9341/ILI9341_GFX.c ****         ILI9341_Draw_Pixel(X - y, Y - x, Color);
 839              		.loc 1 222 9 view .LVU174
 840 0098 7D1B     		subs	r5, r7, r5
 841 009a ADB2     		uxth	r5, r5
 842 009c 5246     		mov	r2, r10
 843 009e 2946     		mov	r1, r5
 844 00a0 0498     		ldr	r0, [sp, #16]
 845 00a2 FFF7FEFF 		bl	ILI9341_Draw_Pixel
 846              	.LVL84:
 223:Drivers/LCD/ILI9341/ILI9341_GFX.c ****         ILI9341_Draw_Pixel(X + y, Y - x, Color);
 847              		.loc 1 223 9 view .LVU175
 848 00a6 5246     		mov	r2, r10
 849 00a8 2946     		mov	r1, r5
 850 00aa 0398     		ldr	r0, [sp, #12]
 851 00ac FFF7FEFF 		bl	ILI9341_Draw_Pixel
 852              	.LVL85:
 224:Drivers/LCD/ILI9341/ILI9341_GFX.c ****         ILI9341_Draw_Pixel(X + x, Y - y, Color);
 853              		.loc 1 224 9 view .LVU176
 854 00b0 5246     		mov	r2, r10
 855 00b2 2146     		mov	r1, r4
 856 00b4 0298     		ldr	r0, [sp, #8]
 857 00b6 FFF7FEFF 		bl	ILI9341_Draw_Pixel
 858              	.LVL86:
 225:Drivers/LCD/ILI9341/ILI9341_GFX.c **** 
 226:Drivers/LCD/ILI9341/ILI9341_GFX.c ****         if (err <= 0)
 859              		.loc 1 226 9 view .LVU177
 860              		.loc 1 226 12 is_stmt 0 view .LVU178
 861 00ba BBF1000F 		cmp	fp, #0
 862 00be 0BDD     		ble	.L61
 863              	.L56:
 227:Drivers/LCD/ILI9341/ILI9341_GFX.c ****         {
ARM GAS  D:\Temp\ccwKYSvy.s 			page 21


 228:Drivers/LCD/ILI9341/ILI9341_GFX.c ****             y++;
 229:Drivers/LCD/ILI9341/ILI9341_GFX.c ****             err += dy;
 230:Drivers/LCD/ILI9341/ILI9341_GFX.c ****             dy += 2;
 231:Drivers/LCD/ILI9341/ILI9341_GFX.c ****         }
 232:Drivers/LCD/ILI9341/ILI9341_GFX.c ****         if (err > 0)
 864              		.loc 1 232 9 is_stmt 1 view .LVU179
 865              		.loc 1 232 12 is_stmt 0 view .LVU180
 866 00c0 BBF1000F 		cmp	fp, #0
 867 00c4 ACDD     		ble	.L55
 233:Drivers/LCD/ILI9341/ILI9341_GFX.c ****         {
 234:Drivers/LCD/ILI9341/ILI9341_GFX.c ****             x--;
 868              		.loc 1 234 13 is_stmt 1 view .LVU181
 869              		.loc 1 234 14 is_stmt 0 view .LVU182
 870 00c6 013E     		subs	r6, r6, #1
 871              	.LVL87:
 235:Drivers/LCD/ILI9341/ILI9341_GFX.c ****             dx += 2;
 872              		.loc 1 235 13 is_stmt 1 view .LVU183
 873              		.loc 1 235 16 is_stmt 0 view .LVU184
 874 00c8 059B     		ldr	r3, [sp, #20]
 875 00ca 0233     		adds	r3, r3, #2
 876 00cc 0593     		str	r3, [sp, #20]
 877              	.LVL88:
 236:Drivers/LCD/ILI9341/ILI9341_GFX.c ****             err += (-Radius << 1) + dx;
 878              		.loc 1 236 13 is_stmt 1 view .LVU185
 879              		.loc 1 236 35 is_stmt 0 view .LVU186
 880 00ce 079A     		ldr	r2, [sp, #28]
 881 00d0 A3EB4203 		sub	r3, r3, r2, lsl #1
 882              	.LVL89:
 883              		.loc 1 236 17 view .LVU187
 884 00d4 9B44     		add	fp, fp, r3
 885              	.LVL90:
 886              		.loc 1 236 17 view .LVU188
 887 00d6 A3E7     		b	.L55
 888              	.L61:
 228:Drivers/LCD/ILI9341/ILI9341_GFX.c ****             err += dy;
 889              		.loc 1 228 13 is_stmt 1 view .LVU189
 228:Drivers/LCD/ILI9341/ILI9341_GFX.c ****             err += dy;
 890              		.loc 1 228 14 is_stmt 0 view .LVU190
 891 00d8 019B     		ldr	r3, [sp, #4]
 892 00da 0133     		adds	r3, r3, #1
 893 00dc 0193     		str	r3, [sp, #4]
 894              	.LVL91:
 229:Drivers/LCD/ILI9341/ILI9341_GFX.c ****             dy += 2;
 895              		.loc 1 229 13 is_stmt 1 view .LVU191
 229:Drivers/LCD/ILI9341/ILI9341_GFX.c ****             dy += 2;
 896              		.loc 1 229 17 is_stmt 0 view .LVU192
 897 00de 069B     		ldr	r3, [sp, #24]
 898              	.LVL92:
 229:Drivers/LCD/ILI9341/ILI9341_GFX.c ****             dy += 2;
 899              		.loc 1 229 17 view .LVU193
 900 00e0 9B44     		add	fp, fp, r3
 901              	.LVL93:
 230:Drivers/LCD/ILI9341/ILI9341_GFX.c ****         }
 902              		.loc 1 230 13 is_stmt 1 view .LVU194
 230:Drivers/LCD/ILI9341/ILI9341_GFX.c ****         }
 903              		.loc 1 230 16 is_stmt 0 view .LVU195
 904 00e2 0233     		adds	r3, r3, #2
ARM GAS  D:\Temp\ccwKYSvy.s 			page 22


 905 00e4 0693     		str	r3, [sp, #24]
 906              	.LVL94:
 230:Drivers/LCD/ILI9341/ILI9341_GFX.c ****         }
 907              		.loc 1 230 16 view .LVU196
 908 00e6 EBE7     		b	.L56
 909              	.LVL95:
 910              	.L60:
 237:Drivers/LCD/ILI9341/ILI9341_GFX.c ****         }
 238:Drivers/LCD/ILI9341/ILI9341_GFX.c ****     }
 239:Drivers/LCD/ILI9341/ILI9341_GFX.c **** }
 911              		.loc 1 239 1 view .LVU197
 912 00e8 09B0     		add	sp, sp, #36
 913              	.LCFI17:
 914              		.cfi_def_cfa_offset 36
 915              		@ sp needed
 916 00ea BDE8F08F 		pop	{r4, r5, r6, r7, r8, r9, r10, fp, pc}
 917              		.loc 1 239 1 view .LVU198
 918              		.cfi_endproc
 919              	.LFE138:
 921              		.section	.text.lcd_random_circles,"ax",%progbits
 922              		.align	1
 923              		.global	lcd_random_circles
 924              		.syntax unified
 925              		.thumb
 926              		.thumb_func
 927              		.fpu fpv4-sp-d16
 929              	lcd_random_circles:
 930              	.LFB133:
 118:Drivers/LCD/ILI9341/ILI9341_GFX.c ****     uint32_t x;
 931              		.loc 1 118 1 is_stmt 1 view -0
 932              		.cfi_startproc
 933              		@ args = 0, pretend = 0, frame = 8
 934              		@ frame_needed = 0, uses_anonymous_args = 0
 935 0000 70B5     		push	{r4, r5, r6, lr}
 936              	.LCFI18:
 937              		.cfi_def_cfa_offset 16
 938              		.cfi_offset 4, -16
 939              		.cfi_offset 5, -12
 940              		.cfi_offset 6, -8
 941              		.cfi_offset 14, -4
 942 0002 82B0     		sub	sp, sp, #8
 943              	.LCFI19:
 944              		.cfi_def_cfa_offset 24
 119:Drivers/LCD/ILI9341/ILI9341_GFX.c ****     uint32_t y;
 945              		.loc 1 119 5 view .LVU200
 120:Drivers/LCD/ILI9341/ILI9341_GFX.c **** 	ILI9341_Fill_Screen(BLACK);
 946              		.loc 1 120 5 view .LVU201
 121:Drivers/LCD/ILI9341/ILI9341_GFX.c ****     for(int i=0;i<2000;i++)
 947              		.loc 1 121 2 view .LVU202
 948 0004 0020     		movs	r0, #0
 949 0006 FFF7FEFF 		bl	ILI9341_Fill_Screen
 950              	.LVL96:
 122:Drivers/LCD/ILI9341/ILI9341_GFX.c ****     {
 951              		.loc 1 122 5 view .LVU203
 952              	.LBB6:
 122:Drivers/LCD/ILI9341/ILI9341_GFX.c ****     {
 953              		.loc 1 122 9 view .LVU204
ARM GAS  D:\Temp\ccwKYSvy.s 			page 23


 122:Drivers/LCD/ILI9341/ILI9341_GFX.c ****     {
 954              		.loc 1 122 13 is_stmt 0 view .LVU205
 955 000a 0026     		movs	r6, #0
 956              	.LVL97:
 957              	.L63:
 122:Drivers/LCD/ILI9341/ILI9341_GFX.c ****     {
 958              		.loc 1 122 5 discriminator 1 view .LVU206
 959 000c B6F5FA6F 		cmp	r6, #2000
 960 0010 2ADA     		bge	.L66
 124:Drivers/LCD/ILI9341/ILI9341_GFX.c ****         HAL_RNG_GenerateRandomNumber(&hrng, &y);
 961              		.loc 1 124 9 is_stmt 1 discriminator 3 view .LVU207
 962 0012 1A4C     		ldr	r4, .L67
 963 0014 01A9     		add	r1, sp, #4
 964 0016 2046     		mov	r0, r4
 965 0018 FFF7FEFF 		bl	HAL_RNG_GenerateRandomNumber
 966              	.LVL98:
 125:Drivers/LCD/ILI9341/ILI9341_GFX.c ****       ILI9341_Draw_Hollow_Circle(x%(LCD_WIDTH-20)+20, y%(LCD_HEIGHT-20)+20,  20,ILI9341_RandColor()
 967              		.loc 1 125 9 discriminator 3 view .LVU208
 968 001c 6946     		mov	r1, sp
 969 001e 2046     		mov	r0, r4
 970 0020 FFF7FEFF 		bl	HAL_RNG_GenerateRandomNumber
 971              	.LVL99:
 126:Drivers/LCD/ILI9341/ILI9341_GFX.c ****       lcdDelay(1);
 972              		.loc 1 126 7 discriminator 3 view .LVU209
 126:Drivers/LCD/ILI9341/ILI9341_GFX.c ****       lcdDelay(1);
 973              		.loc 1 126 46 is_stmt 0 discriminator 3 view .LVU210
 974 0024 164B     		ldr	r3, .L67+4
 975 0026 1C88     		ldrh	r4, [r3]
 976 0028 A4F11403 		sub	r3, r4, #20
 126:Drivers/LCD/ILI9341/ILI9341_GFX.c ****       lcdDelay(1);
 977              		.loc 1 126 35 discriminator 3 view .LVU211
 978 002c 019A     		ldr	r2, [sp, #4]
 979 002e B2FBF3F4 		udiv	r4, r2, r3
 980 0032 03FB1424 		mls	r4, r3, r4, r2
 126:Drivers/LCD/ILI9341/ILI9341_GFX.c ****       lcdDelay(1);
 981              		.loc 1 126 68 discriminator 3 view .LVU212
 982 0036 134B     		ldr	r3, .L67+8
 983 0038 1D88     		ldrh	r5, [r3]
 984 003a A5F11401 		sub	r1, r5, #20
 126:Drivers/LCD/ILI9341/ILI9341_GFX.c ****       lcdDelay(1);
 985              		.loc 1 126 56 discriminator 3 view .LVU213
 986 003e 009B     		ldr	r3, [sp]
 987 0040 B3FBF1F5 		udiv	r5, r3, r1
 988 0044 01FB1535 		mls	r5, r1, r5, r3
 126:Drivers/LCD/ILI9341/ILI9341_GFX.c ****       lcdDelay(1);
 989              		.loc 1 126 7 discriminator 3 view .LVU214
 990 0048 FFF7FEFF 		bl	ILI9341_RandColor
 991              	.LVL100:
 992 004c 05F11401 		add	r1, r5, #20
 993 0050 1434     		adds	r4, r4, #20
 994 0052 0346     		mov	r3, r0
 995 0054 1422     		movs	r2, #20
 996 0056 89B2     		uxth	r1, r1
 997 0058 A0B2     		uxth	r0, r4
 998 005a FFF7FEFF 		bl	ILI9341_Draw_Hollow_Circle
 999              	.LVL101:
 127:Drivers/LCD/ILI9341/ILI9341_GFX.c ****     }
ARM GAS  D:\Temp\ccwKYSvy.s 			page 24


 1000              		.loc 1 127 7 is_stmt 1 discriminator 3 view .LVU215
 1001 005e 0120     		movs	r0, #1
 1002 0060 FFF7FEFF 		bl	lcdDelay
 1003              	.LVL102:
 122:Drivers/LCD/ILI9341/ILI9341_GFX.c ****     {
 1004              		.loc 1 122 25 is_stmt 0 discriminator 3 view .LVU216
 1005 0064 0136     		adds	r6, r6, #1
 1006              	.LVL103:
 122:Drivers/LCD/ILI9341/ILI9341_GFX.c ****     {
 1007              		.loc 1 122 25 discriminator 3 view .LVU217
 1008 0066 D1E7     		b	.L63
 1009              	.L66:
 122:Drivers/LCD/ILI9341/ILI9341_GFX.c ****     {
 1010              		.loc 1 122 25 discriminator 3 view .LVU218
 1011              	.LBE6:
 129:Drivers/LCD/ILI9341/ILI9341_GFX.c ****     ILI9341_Fill_Screen(BLACK);
 1012              		.loc 1 129 5 is_stmt 1 view .LVU219
 1013 0068 4FF4FA70 		mov	r0, #500
 1014 006c FFF7FEFF 		bl	lcdDelay
 1015              	.LVL104:
 130:Drivers/LCD/ILI9341/ILI9341_GFX.c **** }
 1016              		.loc 1 130 5 view .LVU220
 1017 0070 0020     		movs	r0, #0
 1018 0072 FFF7FEFF 		bl	ILI9341_Fill_Screen
 1019              	.LVL105:
 131:Drivers/LCD/ILI9341/ILI9341_GFX.c **** void lcd_fill_rand_colors(void)
 1020              		.loc 1 131 1 is_stmt 0 view .LVU221
 1021 0076 02B0     		add	sp, sp, #8
 1022              	.LCFI20:
 1023              		.cfi_def_cfa_offset 16
 1024              		@ sp needed
 1025 0078 70BD     		pop	{r4, r5, r6, pc}
 1026              	.LVL106:
 1027              	.L68:
 131:Drivers/LCD/ILI9341/ILI9341_GFX.c **** void lcd_fill_rand_colors(void)
 1028              		.loc 1 131 1 view .LVU222
 1029 007a 00BF     		.align	2
 1030              	.L67:
 1031 007c 00000000 		.word	hrng
 1032 0080 00000000 		.word	LCD_WIDTH
 1033 0084 00000000 		.word	LCD_HEIGHT
 1034              		.cfi_endproc
 1035              	.LFE133:
 1037              		.section	.text.ILI9341_Draw_Filled_Circle,"ax",%progbits
 1038              		.align	1
 1039              		.global	ILI9341_Draw_Filled_Circle
 1040              		.syntax unified
 1041              		.thumb
 1042              		.thumb_func
 1043              		.fpu fpv4-sp-d16
 1045              	ILI9341_Draw_Filled_Circle:
 1046              	.LVL107:
 1047              	.LFB139:
 240:Drivers/LCD/ILI9341/ILI9341_GFX.c **** 
 241:Drivers/LCD/ILI9341/ILI9341_GFX.c **** /*Draw filled circle at X,Y location with specified radius and Color. X and Y represent circles cen
 242:Drivers/LCD/ILI9341/ILI9341_GFX.c **** void ILI9341_Draw_Filled_Circle(uint16_t X, uint16_t Y, uint16_t Radius, uint16_t Color)
 243:Drivers/LCD/ILI9341/ILI9341_GFX.c **** {
ARM GAS  D:\Temp\ccwKYSvy.s 			page 25


 1048              		.loc 1 243 1 is_stmt 1 view -0
 1049              		.cfi_startproc
 1050              		@ args = 0, pretend = 0, frame = 16
 1051              		@ frame_needed = 0, uses_anonymous_args = 0
 1052              		.loc 1 243 1 is_stmt 0 view .LVU224
 1053 0000 2DE9F04F 		push	{r4, r5, r6, r7, r8, r9, r10, fp, lr}
 1054              	.LCFI21:
 1055              		.cfi_def_cfa_offset 36
 1056              		.cfi_offset 4, -36
 1057              		.cfi_offset 5, -32
 1058              		.cfi_offset 6, -28
 1059              		.cfi_offset 7, -24
 1060              		.cfi_offset 8, -20
 1061              		.cfi_offset 9, -16
 1062              		.cfi_offset 10, -12
 1063              		.cfi_offset 11, -8
 1064              		.cfi_offset 14, -4
 1065 0004 85B0     		sub	sp, sp, #20
 1066              	.LCFI22:
 1067              		.cfi_def_cfa_offset 56
 1068 0006 0290     		str	r0, [sp, #8]
 1069 0008 0E46     		mov	r6, r1
 1070 000a 0093     		str	r3, [sp]
 244:Drivers/LCD/ILI9341/ILI9341_GFX.c **** 	
 245:Drivers/LCD/ILI9341/ILI9341_GFX.c **** 		int x = Radius;
 1071              		.loc 1 245 3 is_stmt 1 view .LVU225
 1072              		.loc 1 245 7 is_stmt 0 view .LVU226
 1073 000c 9046     		mov	r8, r2
 1074              	.LVL108:
 246:Drivers/LCD/ILI9341/ILI9341_GFX.c ****     int y = 0;
 1075              		.loc 1 246 5 is_stmt 1 view .LVU227
 247:Drivers/LCD/ILI9341/ILI9341_GFX.c ****     int xChange = 1 - (Radius << 1);
 1076              		.loc 1 247 5 view .LVU228
 1077              		.loc 1 247 31 is_stmt 0 view .LVU229
 1078 000e 5200     		lsls	r2, r2, #1
 1079              	.LVL109:
 1080              		.loc 1 247 9 view .LVU230
 1081 0010 C2F10103 		rsb	r3, r2, #1
 1082              	.LVL110:
 1083              		.loc 1 247 9 view .LVU231
 1084 0014 0393     		str	r3, [sp, #12]
 1085              	.LVL111:
 248:Drivers/LCD/ILI9341/ILI9341_GFX.c ****     int yChange = 0;
 1086              		.loc 1 248 5 is_stmt 1 view .LVU232
 249:Drivers/LCD/ILI9341/ILI9341_GFX.c ****     int radiusError = 0;
 1087              		.loc 1 249 5 view .LVU233
 250:Drivers/LCD/ILI9341/ILI9341_GFX.c **** 
 251:Drivers/LCD/ILI9341/ILI9341_GFX.c ****     while (x >= y)
 1088              		.loc 1 251 5 view .LVU234
 249:Drivers/LCD/ILI9341/ILI9341_GFX.c ****     int radiusError = 0;
 1089              		.loc 1 249 9 is_stmt 0 view .LVU235
 1090 0016 4FF0000A 		mov	r10, #0
 248:Drivers/LCD/ILI9341/ILI9341_GFX.c ****     int radiusError = 0;
 1091              		.loc 1 248 9 view .LVU236
 1092 001a CDF804A0 		str	r10, [sp, #4]
 246:Drivers/LCD/ILI9341/ILI9341_GFX.c ****     int xChange = 1 - (Radius << 1);
 1093              		.loc 1 246 9 view .LVU237
ARM GAS  D:\Temp\ccwKYSvy.s 			page 26


 1094 001e 5746     		mov	r7, r10
 1095              		.loc 1 251 11 view .LVU238
 1096 0020 26E0     		b	.L70
 1097              	.LVL112:
 1098              	.L80:
 252:Drivers/LCD/ILI9341/ILI9341_GFX.c ****     {
 253:Drivers/LCD/ILI9341/ILI9341_GFX.c ****         for (int i = X - x; i <= X + x; i++)
 254:Drivers/LCD/ILI9341/ILI9341_GFX.c ****         {
 255:Drivers/LCD/ILI9341/ILI9341_GFX.c ****             ILI9341_Draw_Pixel(i, Y + y,Color);
 256:Drivers/LCD/ILI9341/ILI9341_GFX.c ****             ILI9341_Draw_Pixel(i, Y - y,Color);
 257:Drivers/LCD/ILI9341/ILI9341_GFX.c ****         }
 258:Drivers/LCD/ILI9341/ILI9341_GFX.c ****         for (int i = X - y; i <= X + y; i++)
 1099              		.loc 1 258 9 is_stmt 1 view .LVU239
 1100              	.LBB7:
 1101              		.loc 1 258 14 view .LVU240
 1102              		.loc 1 258 18 is_stmt 0 view .LVU241
 1103 0022 029B     		ldr	r3, [sp, #8]
 1104 0024 DD1B     		subs	r5, r3, r7
 1105              	.LVL113:
 1106              	.L73:
 1107              		.loc 1 258 36 discriminator 1 view .LVU242
 1108 0026 09EB0703 		add	r3, r9, r7
 1109              		.loc 1 258 9 discriminator 1 view .LVU243
 1110 002a AB42     		cmp	r3, r5
 1111 002c 11DB     		blt	.L78
 259:Drivers/LCD/ILI9341/ILI9341_GFX.c ****         {
 260:Drivers/LCD/ILI9341/ILI9341_GFX.c ****             ILI9341_Draw_Pixel(i, Y + x,Color);
 1112              		.loc 1 260 13 is_stmt 1 discriminator 3 view .LVU244
 1113 002e 1FFA85FB 		uxth	fp, r5
 1114 0032 1FFA88F4 		uxth	r4, r8
 1115 0036 A119     		adds	r1, r4, r6
 1116 0038 009A     		ldr	r2, [sp]
 1117 003a 89B2     		uxth	r1, r1
 1118 003c 5846     		mov	r0, fp
 1119 003e FFF7FEFF 		bl	ILI9341_Draw_Pixel
 1120              	.LVL114:
 261:Drivers/LCD/ILI9341/ILI9341_GFX.c ****             ILI9341_Draw_Pixel(i, Y - x,Color);
 1121              		.loc 1 261 13 discriminator 3 view .LVU245
 1122 0042 311B     		subs	r1, r6, r4
 1123 0044 009A     		ldr	r2, [sp]
 1124 0046 89B2     		uxth	r1, r1
 1125 0048 5846     		mov	r0, fp
 1126 004a FFF7FEFF 		bl	ILI9341_Draw_Pixel
 1127              	.LVL115:
 258:Drivers/LCD/ILI9341/ILI9341_GFX.c ****         {
 1128              		.loc 1 258 42 is_stmt 0 discriminator 3 view .LVU246
 1129 004e 0135     		adds	r5, r5, #1
 1130              	.LVL116:
 258:Drivers/LCD/ILI9341/ILI9341_GFX.c ****         {
 1131              		.loc 1 258 42 discriminator 3 view .LVU247
 1132 0050 E9E7     		b	.L73
 1133              	.L78:
 258:Drivers/LCD/ILI9341/ILI9341_GFX.c ****         {
 1134              		.loc 1 258 42 discriminator 3 view .LVU248
 1135              	.LBE7:
 262:Drivers/LCD/ILI9341/ILI9341_GFX.c ****         }
 263:Drivers/LCD/ILI9341/ILI9341_GFX.c **** 
ARM GAS  D:\Temp\ccwKYSvy.s 			page 27


 264:Drivers/LCD/ILI9341/ILI9341_GFX.c ****         y++;
 1136              		.loc 1 264 9 is_stmt 1 view .LVU249
 1137              		.loc 1 264 10 is_stmt 0 view .LVU250
 1138 0052 0137     		adds	r7, r7, #1
 1139              	.LVL117:
 265:Drivers/LCD/ILI9341/ILI9341_GFX.c ****         radiusError += yChange;
 1140              		.loc 1 265 9 is_stmt 1 view .LVU251
 1141              		.loc 1 265 21 is_stmt 0 view .LVU252
 1142 0054 019B     		ldr	r3, [sp, #4]
 1143 0056 9A44     		add	r10, r10, r3
 1144              	.LVL118:
 266:Drivers/LCD/ILI9341/ILI9341_GFX.c ****         yChange += 2;
 1145              		.loc 1 266 9 is_stmt 1 view .LVU253
 1146              		.loc 1 266 17 is_stmt 0 view .LVU254
 1147 0058 0233     		adds	r3, r3, #2
 1148 005a 0193     		str	r3, [sp, #4]
 1149              	.LVL119:
 267:Drivers/LCD/ILI9341/ILI9341_GFX.c ****         if (((radiusError << 1) + xChange) > 0)
 1150              		.loc 1 267 9 is_stmt 1 view .LVU255
 1151              		.loc 1 267 33 is_stmt 0 view .LVU256
 1152 005c 039A     		ldr	r2, [sp, #12]
 1153 005e 02EB4A03 		add	r3, r2, r10, lsl #1
 1154              	.LVL120:
 1155              		.loc 1 267 12 view .LVU257
 1156 0062 002B     		cmp	r3, #0
 1157 0064 04DD     		ble	.L70
 268:Drivers/LCD/ILI9341/ILI9341_GFX.c ****         {
 269:Drivers/LCD/ILI9341/ILI9341_GFX.c ****             x--;
 1158              		.loc 1 269 13 is_stmt 1 view .LVU258
 1159              		.loc 1 269 14 is_stmt 0 view .LVU259
 1160 0066 08F1FF38 		add	r8, r8, #-1
 1161              	.LVL121:
 270:Drivers/LCD/ILI9341/ILI9341_GFX.c ****             radiusError += xChange;
 1162              		.loc 1 270 13 is_stmt 1 view .LVU260
 1163              		.loc 1 270 25 is_stmt 0 view .LVU261
 1164 006a 9244     		add	r10, r10, r2
 1165              	.LVL122:
 271:Drivers/LCD/ILI9341/ILI9341_GFX.c ****             xChange += 2;
 1166              		.loc 1 271 13 is_stmt 1 view .LVU262
 1167              		.loc 1 271 21 is_stmt 0 view .LVU263
 1168 006c 931C     		adds	r3, r2, #2
 1169 006e 0393     		str	r3, [sp, #12]
 1170              	.LVL123:
 1171              	.L70:
 251:Drivers/LCD/ILI9341/ILI9341_GFX.c ****     {
 1172              		.loc 1 251 11 view .LVU264
 1173 0070 B845     		cmp	r8, r7
 1174 0072 18DB     		blt	.L79
 253:Drivers/LCD/ILI9341/ILI9341_GFX.c ****         {
 1175              		.loc 1 253 9 is_stmt 1 view .LVU265
 1176              	.LBB8:
 253:Drivers/LCD/ILI9341/ILI9341_GFX.c ****         {
 1177              		.loc 1 253 14 view .LVU266
 253:Drivers/LCD/ILI9341/ILI9341_GFX.c ****         {
 1178              		.loc 1 253 24 is_stmt 0 view .LVU267
 1179 0074 029B     		ldr	r3, [sp, #8]
 1180 0076 9946     		mov	r9, r3
ARM GAS  D:\Temp\ccwKYSvy.s 			page 28


 253:Drivers/LCD/ILI9341/ILI9341_GFX.c ****         {
 1181              		.loc 1 253 18 view .LVU268
 1182 0078 A3EB0805 		sub	r5, r3, r8
 1183              	.LVL124:
 1184              	.L71:
 253:Drivers/LCD/ILI9341/ILI9341_GFX.c ****         {
 1185              		.loc 1 253 36 discriminator 1 view .LVU269
 1186 007c 09EB0803 		add	r3, r9, r8
 253:Drivers/LCD/ILI9341/ILI9341_GFX.c ****         {
 1187              		.loc 1 253 9 discriminator 1 view .LVU270
 1188 0080 AB42     		cmp	r3, r5
 1189 0082 CEDB     		blt	.L80
 255:Drivers/LCD/ILI9341/ILI9341_GFX.c ****             ILI9341_Draw_Pixel(i, Y - y,Color);
 1190              		.loc 1 255 13 is_stmt 1 discriminator 3 view .LVU271
 1191 0084 1FFA85FB 		uxth	fp, r5
 1192 0088 BCB2     		uxth	r4, r7
 1193 008a A119     		adds	r1, r4, r6
 1194 008c 009A     		ldr	r2, [sp]
 1195 008e 89B2     		uxth	r1, r1
 1196 0090 5846     		mov	r0, fp
 1197 0092 FFF7FEFF 		bl	ILI9341_Draw_Pixel
 1198              	.LVL125:
 256:Drivers/LCD/ILI9341/ILI9341_GFX.c ****         }
 1199              		.loc 1 256 13 discriminator 3 view .LVU272
 1200 0096 311B     		subs	r1, r6, r4
 1201 0098 009A     		ldr	r2, [sp]
 1202 009a 89B2     		uxth	r1, r1
 1203 009c 5846     		mov	r0, fp
 1204 009e FFF7FEFF 		bl	ILI9341_Draw_Pixel
 1205              	.LVL126:
 253:Drivers/LCD/ILI9341/ILI9341_GFX.c ****         {
 1206              		.loc 1 253 42 is_stmt 0 discriminator 3 view .LVU273
 1207 00a2 0135     		adds	r5, r5, #1
 1208              	.LVL127:
 253:Drivers/LCD/ILI9341/ILI9341_GFX.c ****         {
 1209              		.loc 1 253 42 discriminator 3 view .LVU274
 1210 00a4 EAE7     		b	.L71
 1211              	.LVL128:
 1212              	.L79:
 253:Drivers/LCD/ILI9341/ILI9341_GFX.c ****         {
 1213              		.loc 1 253 42 discriminator 3 view .LVU275
 1214              	.LBE8:
 272:Drivers/LCD/ILI9341/ILI9341_GFX.c ****         }
 273:Drivers/LCD/ILI9341/ILI9341_GFX.c ****     }
 274:Drivers/LCD/ILI9341/ILI9341_GFX.c **** 		//Really slow implementation, will require future overhaul
 275:Drivers/LCD/ILI9341/ILI9341_GFX.c **** 		//TODO:	https://stackoverflow.com/questions/1201200/fast-algorithm-for-drawing-filled-circles	
 276:Drivers/LCD/ILI9341/ILI9341_GFX.c **** }
 1215              		.loc 1 276 1 view .LVU276
 1216 00a6 05B0     		add	sp, sp, #20
 1217              	.LCFI23:
 1218              		.cfi_def_cfa_offset 36
 1219              		@ sp needed
 1220 00a8 BDE8F08F 		pop	{r4, r5, r6, r7, r8, r9, r10, fp, pc}
 1221              		.loc 1 276 1 view .LVU277
 1222              		.cfi_endproc
 1223              	.LFE139:
 1225              		.section	.text.ILI9341_Draw_Hollow_Rectangle_Coord,"ax",%progbits
ARM GAS  D:\Temp\ccwKYSvy.s 			page 29


 1226              		.align	1
 1227              		.global	ILI9341_Draw_Hollow_Rectangle_Coord
 1228              		.syntax unified
 1229              		.thumb
 1230              		.thumb_func
 1231              		.fpu fpv4-sp-d16
 1233              	ILI9341_Draw_Hollow_Rectangle_Coord:
 1234              	.LVL129:
 1235              	.LFB140:
 277:Drivers/LCD/ILI9341/ILI9341_GFX.c **** 
 278:Drivers/LCD/ILI9341/ILI9341_GFX.c **** /*Draw a hollow rectangle between positions X0,Y0 and X1,Y1 with specified Color*/
 279:Drivers/LCD/ILI9341/ILI9341_GFX.c **** void ILI9341_Draw_Hollow_Rectangle_Coord(uint16_t X0, uint16_t Y0, uint16_t X1, uint16_t Y1, uint16
 280:Drivers/LCD/ILI9341/ILI9341_GFX.c **** {
 1236              		.loc 1 280 1 is_stmt 1 view -0
 1237              		.cfi_startproc
 1238              		@ args = 4, pretend = 0, frame = 0
 1239              		@ frame_needed = 0, uses_anonymous_args = 0
 1240              		.loc 1 280 1 is_stmt 0 view .LVU279
 1241 0000 2DE9F047 		push	{r4, r5, r6, r7, r8, r9, r10, lr}
 1242              	.LCFI24:
 1243              		.cfi_def_cfa_offset 32
 1244              		.cfi_offset 4, -32
 1245              		.cfi_offset 5, -28
 1246              		.cfi_offset 6, -24
 1247              		.cfi_offset 7, -20
 1248              		.cfi_offset 8, -16
 1249              		.cfi_offset 9, -12
 1250              		.cfi_offset 10, -8
 1251              		.cfi_offset 14, -4
 1252 0004 0646     		mov	r6, r0
 1253 0006 0D46     		mov	r5, r1
 1254 0008 9146     		mov	r9, r2
 1255 000a 9A46     		mov	r10, r3
 1256 000c BDF82080 		ldrh	r8, [sp, #32]
 281:Drivers/LCD/ILI9341/ILI9341_GFX.c **** 	uint16_t 	X_length = 0;
 1257              		.loc 1 281 2 is_stmt 1 view .LVU280
 1258              	.LVL130:
 282:Drivers/LCD/ILI9341/ILI9341_GFX.c **** 	uint16_t 	Y_length = 0;
 1259              		.loc 1 282 2 view .LVU281
 283:Drivers/LCD/ILI9341/ILI9341_GFX.c **** 	uint8_t		Negative_X = 0;
 1260              		.loc 1 283 2 view .LVU282
 284:Drivers/LCD/ILI9341/ILI9341_GFX.c **** 	uint8_t 	Negative_Y = 0;
 1261              		.loc 1 284 2 view .LVU283
 285:Drivers/LCD/ILI9341/ILI9341_GFX.c **** 	float 		Calc_Negative = 0;
 1262              		.loc 1 285 2 view .LVU284
 286:Drivers/LCD/ILI9341/ILI9341_GFX.c **** 	
 287:Drivers/LCD/ILI9341/ILI9341_GFX.c **** 	Calc_Negative = X1 - X0;
 1263              		.loc 1 287 2 view .LVU285
 1264              		.loc 1 287 21 is_stmt 0 view .LVU286
 1265 0010 131A     		subs	r3, r2, r0
 1266              	.LVL131:
 1267              		.loc 1 287 21 view .LVU287
 1268 0012 07EE903A 		vmov	s15, r3	@ int
 1269              		.loc 1 287 16 view .LVU288
 1270 0016 F8EEE77A 		vcvt.f32.s32	s15, s15
 1271              	.LVL132:
 288:Drivers/LCD/ILI9341/ILI9341_GFX.c **** 	if(Calc_Negative < 0) Negative_X = 1;
ARM GAS  D:\Temp\ccwKYSvy.s 			page 30


 1272              		.loc 1 288 2 is_stmt 1 view .LVU289
 1273              		.loc 1 288 4 is_stmt 0 view .LVU290
 1274 001a F5EEC07A 		vcmpe.f32	s15, #0
 1275 001e F1EE10FA 		vmrs	APSR_nzcv, FPSCR
 1276 0022 35D4     		bmi	.L90
 283:Drivers/LCD/ILI9341/ILI9341_GFX.c **** 	uint8_t 	Negative_Y = 0;
 1277              		.loc 1 283 11 view .LVU291
 1278 0024 0023     		movs	r3, #0
 1279              	.L82:
 1280              	.LVL133:
 289:Drivers/LCD/ILI9341/ILI9341_GFX.c **** 	Calc_Negative = 0;
 1281              		.loc 1 289 2 is_stmt 1 view .LVU292
 290:Drivers/LCD/ILI9341/ILI9341_GFX.c **** 	
 291:Drivers/LCD/ILI9341/ILI9341_GFX.c **** 	Calc_Negative = Y1 - Y0;
 1282              		.loc 1 291 2 view .LVU293
 1283              		.loc 1 291 21 is_stmt 0 view .LVU294
 1284 0026 AAEB0502 		sub	r2, r10, r5
 1285              	.LVL134:
 1286              		.loc 1 291 21 view .LVU295
 1287 002a 07EE902A 		vmov	s15, r2	@ int
 1288              		.loc 1 291 16 view .LVU296
 1289 002e F8EEE77A 		vcvt.f32.s32	s15, s15
 1290              	.LVL135:
 292:Drivers/LCD/ILI9341/ILI9341_GFX.c **** 	if(Calc_Negative < 0) Negative_Y = 1;
 1291              		.loc 1 292 2 is_stmt 1 view .LVU297
 1292              		.loc 1 292 4 is_stmt 0 view .LVU298
 1293 0032 F5EEC07A 		vcmpe.f32	s15, #0
 1294 0036 F1EE10FA 		vmrs	APSR_nzcv, FPSCR
 1295 003a 2BD4     		bmi	.L91
 284:Drivers/LCD/ILI9341/ILI9341_GFX.c **** 	float 		Calc_Negative = 0;
 1296              		.loc 1 284 11 view .LVU299
 1297 003c 0027     		movs	r7, #0
 1298              	.L83:
 1299              	.LVL136:
 293:Drivers/LCD/ILI9341/ILI9341_GFX.c **** 	
 294:Drivers/LCD/ILI9341/ILI9341_GFX.c **** 	
 295:Drivers/LCD/ILI9341/ILI9341_GFX.c **** 	//DRAW HORIZONTAL!
 296:Drivers/LCD/ILI9341/ILI9341_GFX.c **** 	if(!Negative_X)
 1300              		.loc 1 296 2 is_stmt 1 view .LVU300
 1301              		.loc 1 296 4 is_stmt 0 view .LVU301
 1302 003e 5BBB     		cbnz	r3, .L84
 297:Drivers/LCD/ILI9341/ILI9341_GFX.c **** 	{
 298:Drivers/LCD/ILI9341/ILI9341_GFX.c **** 		X_length = X1 - X0;		
 1303              		.loc 1 298 3 is_stmt 1 view .LVU302
 1304              		.loc 1 298 12 is_stmt 0 view .LVU303
 1305 0040 A9EB0604 		sub	r4, r9, r6
 1306 0044 A4B2     		uxth	r4, r4
 1307              	.LVL137:
 1308              	.L85:
 299:Drivers/LCD/ILI9341/ILI9341_GFX.c **** 	}
 300:Drivers/LCD/ILI9341/ILI9341_GFX.c **** 	else
 301:Drivers/LCD/ILI9341/ILI9341_GFX.c **** 	{
 302:Drivers/LCD/ILI9341/ILI9341_GFX.c **** 		X_length = X0 - X1;		
 303:Drivers/LCD/ILI9341/ILI9341_GFX.c **** 	}
 304:Drivers/LCD/ILI9341/ILI9341_GFX.c **** 	ILI9341_Draw_Horizontal_Line(X0, Y0, X_length, Color);
 1309              		.loc 1 304 2 is_stmt 1 view .LVU304
 1310 0046 4346     		mov	r3, r8
ARM GAS  D:\Temp\ccwKYSvy.s 			page 31


 1311              	.LVL138:
 1312              		.loc 1 304 2 is_stmt 0 view .LVU305
 1313 0048 2246     		mov	r2, r4
 1314 004a 2946     		mov	r1, r5
 1315              	.LVL139:
 1316              		.loc 1 304 2 view .LVU306
 1317 004c 3046     		mov	r0, r6
 1318              	.LVL140:
 1319              		.loc 1 304 2 view .LVU307
 1320 004e FFF7FEFF 		bl	ILI9341_Draw_Horizontal_Line
 1321              	.LVL141:
 305:Drivers/LCD/ILI9341/ILI9341_GFX.c **** 	ILI9341_Draw_Horizontal_Line(X0, Y1, X_length, Color);
 1322              		.loc 1 305 2 is_stmt 1 view .LVU308
 1323 0052 4346     		mov	r3, r8
 1324 0054 2246     		mov	r2, r4
 1325 0056 5146     		mov	r1, r10
 1326 0058 3046     		mov	r0, r6
 1327 005a FFF7FEFF 		bl	ILI9341_Draw_Horizontal_Line
 1328              	.LVL142:
 306:Drivers/LCD/ILI9341/ILI9341_GFX.c **** 	
 307:Drivers/LCD/ILI9341/ILI9341_GFX.c **** 	
 308:Drivers/LCD/ILI9341/ILI9341_GFX.c **** 	
 309:Drivers/LCD/ILI9341/ILI9341_GFX.c **** 	//DRAW VERTICAL!
 310:Drivers/LCD/ILI9341/ILI9341_GFX.c **** 	if(!Negative_Y)
 1329              		.loc 1 310 2 view .LVU309
 1330              		.loc 1 310 4 is_stmt 0 view .LVU310
 1331 005e FFB9     		cbnz	r7, .L86
 311:Drivers/LCD/ILI9341/ILI9341_GFX.c **** 	{
 312:Drivers/LCD/ILI9341/ILI9341_GFX.c **** 		Y_length = Y1 - Y0;		
 1332              		.loc 1 312 3 is_stmt 1 view .LVU311
 1333              		.loc 1 312 12 is_stmt 0 view .LVU312
 1334 0060 AAEB0507 		sub	r7, r10, r5
 1335              	.LVL143:
 1336              		.loc 1 312 12 view .LVU313
 1337 0064 BFB2     		uxth	r7, r7
 1338              	.LVL144:
 1339              	.L87:
 313:Drivers/LCD/ILI9341/ILI9341_GFX.c **** 	}
 314:Drivers/LCD/ILI9341/ILI9341_GFX.c **** 	else
 315:Drivers/LCD/ILI9341/ILI9341_GFX.c **** 	{
 316:Drivers/LCD/ILI9341/ILI9341_GFX.c **** 		Y_length = Y0 - Y1;		
 317:Drivers/LCD/ILI9341/ILI9341_GFX.c **** 	}
 318:Drivers/LCD/ILI9341/ILI9341_GFX.c **** 	ILI9341_Draw_Vertical_Line(X0, Y0, Y_length, Color);
 1340              		.loc 1 318 2 is_stmt 1 view .LVU314
 1341 0066 4346     		mov	r3, r8
 1342 0068 3A46     		mov	r2, r7
 1343 006a 2946     		mov	r1, r5
 1344 006c 3046     		mov	r0, r6
 1345 006e FFF7FEFF 		bl	ILI9341_Draw_Vertical_Line
 1346              	.LVL145:
 319:Drivers/LCD/ILI9341/ILI9341_GFX.c **** 	ILI9341_Draw_Vertical_Line(X1, Y0, Y_length, Color);
 1347              		.loc 1 319 2 view .LVU315
 1348 0072 4346     		mov	r3, r8
 1349 0074 3A46     		mov	r2, r7
 1350 0076 2946     		mov	r1, r5
 1351 0078 4846     		mov	r0, r9
 1352 007a FFF7FEFF 		bl	ILI9341_Draw_Vertical_Line
ARM GAS  D:\Temp\ccwKYSvy.s 			page 32


 1353              	.LVL146:
 320:Drivers/LCD/ILI9341/ILI9341_GFX.c **** 	
 321:Drivers/LCD/ILI9341/ILI9341_GFX.c **** 	if((X_length > 0)||(Y_length > 0)) 
 1354              		.loc 1 321 2 view .LVU316
 1355              		.loc 1 321 4 is_stmt 0 view .LVU317
 1356 007e 04B9     		cbnz	r4, .L88
 1357              		.loc 1 321 19 discriminator 1 view .LVU318
 1358 0080 27B1     		cbz	r7, .L81
 1359              	.L88:
 322:Drivers/LCD/ILI9341/ILI9341_GFX.c **** 	{
 323:Drivers/LCD/ILI9341/ILI9341_GFX.c **** 		ILI9341_Draw_Pixel(X1, Y1, Color);
 1360              		.loc 1 323 3 is_stmt 1 view .LVU319
 1361 0082 4246     		mov	r2, r8
 1362 0084 5146     		mov	r1, r10
 1363 0086 4846     		mov	r0, r9
 1364 0088 FFF7FEFF 		bl	ILI9341_Draw_Pixel
 1365              	.LVL147:
 1366              	.L81:
 324:Drivers/LCD/ILI9341/ILI9341_GFX.c **** 	}
 325:Drivers/LCD/ILI9341/ILI9341_GFX.c **** 	
 326:Drivers/LCD/ILI9341/ILI9341_GFX.c **** }
 1367              		.loc 1 326 1 is_stmt 0 view .LVU320
 1368 008c BDE8F087 		pop	{r4, r5, r6, r7, r8, r9, r10, pc}
 1369              	.LVL148:
 1370              	.L90:
 288:Drivers/LCD/ILI9341/ILI9341_GFX.c **** 	Calc_Negative = 0;
 1371              		.loc 1 288 35 view .LVU321
 1372 0090 0123     		movs	r3, #1
 1373 0092 C8E7     		b	.L82
 1374              	.LVL149:
 1375              	.L91:
 292:Drivers/LCD/ILI9341/ILI9341_GFX.c **** 	
 1376              		.loc 1 292 35 view .LVU322
 1377 0094 0127     		movs	r7, #1
 1378 0096 D2E7     		b	.L83
 1379              	.LVL150:
 1380              	.L84:
 302:Drivers/LCD/ILI9341/ILI9341_GFX.c **** 	}
 1381              		.loc 1 302 3 is_stmt 1 view .LVU323
 302:Drivers/LCD/ILI9341/ILI9341_GFX.c **** 	}
 1382              		.loc 1 302 12 is_stmt 0 view .LVU324
 1383 0098 A6EB0904 		sub	r4, r6, r9
 1384 009c A4B2     		uxth	r4, r4
 1385              	.LVL151:
 302:Drivers/LCD/ILI9341/ILI9341_GFX.c **** 	}
 1386              		.loc 1 302 12 view .LVU325
 1387 009e D2E7     		b	.L85
 1388              	.LVL152:
 1389              	.L86:
 316:Drivers/LCD/ILI9341/ILI9341_GFX.c **** 	}
 1390              		.loc 1 316 3 is_stmt 1 view .LVU326
 316:Drivers/LCD/ILI9341/ILI9341_GFX.c **** 	}
 1391              		.loc 1 316 12 is_stmt 0 view .LVU327
 1392 00a0 A5EB0A07 		sub	r7, r5, r10
 1393              	.LVL153:
 316:Drivers/LCD/ILI9341/ILI9341_GFX.c **** 	}
 1394              		.loc 1 316 12 view .LVU328
ARM GAS  D:\Temp\ccwKYSvy.s 			page 33


 1395 00a4 BFB2     		uxth	r7, r7
 1396              	.LVL154:
 316:Drivers/LCD/ILI9341/ILI9341_GFX.c **** 	}
 1397              		.loc 1 316 12 view .LVU329
 1398 00a6 DEE7     		b	.L87
 1399              		.cfi_endproc
 1400              	.LFE140:
 1402              		.section	.text.ILI9341_FillRect_DMA,"ax",%progbits
 1403              		.align	1
 1404              		.global	ILI9341_FillRect_DMA
 1405              		.syntax unified
 1406              		.thumb
 1407              		.thumb_func
 1408              		.fpu fpv4-sp-d16
 1410              	ILI9341_FillRect_DMA:
 1411              	.LVL155:
 1412              	.LFB141:
 327:Drivers/LCD/ILI9341/ILI9341_GFX.c **** 
 328:Drivers/LCD/ILI9341/ILI9341_GFX.c **** /*Draw a filled rectangle between positions X0,Y0 and X1,Y1 with specified Color*/
 329:Drivers/LCD/ILI9341/ILI9341_GFX.c **** void ILI9341_FillRect_DMA(uint16_t x1, uint16_t y1, uint16_t x2, uint16_t y2, uint16_t color)
 330:Drivers/LCD/ILI9341/ILI9341_GFX.c **** {
 1413              		.loc 1 330 1 is_stmt 1 view -0
 1414              		.cfi_startproc
 1415              		@ args = 4, pretend = 0, frame = 0
 1416              		@ frame_needed = 0, uses_anonymous_args = 0
 1417              		.loc 1 330 1 is_stmt 0 view .LVU331
 1418 0000 2DE9F041 		push	{r4, r5, r6, r7, r8, lr}
 1419              	.LCFI25:
 1420              		.cfi_def_cfa_offset 24
 1421              		.cfi_offset 4, -24
 1422              		.cfi_offset 5, -20
 1423              		.cfi_offset 6, -16
 1424              		.cfi_offset 7, -12
 1425              		.cfi_offset 8, -8
 1426              		.cfi_offset 14, -4
 1427 0004 0746     		mov	r7, r0
 1428 0006 0C46     		mov	r4, r1
 1429 0008 9046     		mov	r8, r2
 1430 000a 1D46     		mov	r5, r3
 1431 000c BDF81860 		ldrh	r6, [sp, #24]
 331:Drivers/LCD/ILI9341/ILI9341_GFX.c **** 
 332:Drivers/LCD/ILI9341/ILI9341_GFX.c **** 
 333:Drivers/LCD/ILI9341/ILI9341_GFX.c ****   uint32_t block_size;
 1432              		.loc 1 333 3 is_stmt 1 view .LVU332
 334:Drivers/LCD/ILI9341/ILI9341_GFX.c **** 	if(x1>x2) swap(x1,x2);
 1433              		.loc 1 334 2 view .LVU333
 1434              		.loc 1 334 4 is_stmt 0 view .LVU334
 1435 0010 9042     		cmp	r0, r2
 1436 0012 01D8     		bhi	.L94
 1437 0014 8046     		mov	r8, r0
 1438 0016 1746     		mov	r7, r2
 1439              	.L94:
 1440              	.LVL156:
 1441              		.loc 1 334 23 is_stmt 1 discriminator 3 view .LVU335
 335:Drivers/LCD/ILI9341/ILI9341_GFX.c **** 	if(y1>y2) swap(y1,y2);
 1442              		.loc 1 335 2 discriminator 3 view .LVU336
 1443              		.loc 1 335 4 is_stmt 0 discriminator 3 view .LVU337
ARM GAS  D:\Temp\ccwKYSvy.s 			page 34


 1444 0018 AC42     		cmp	r4, r5
 1445 001a 02D8     		bhi	.L95
 1446              		.loc 1 335 4 view .LVU338
 1447 001c 2B46     		mov	r3, r5
 1448              	.LVL157:
 1449              		.loc 1 335 4 view .LVU339
 1450 001e 2546     		mov	r5, r4
 1451 0020 1C46     		mov	r4, r3
 1452              	.L95:
 1453              	.LVL158:
 1454              		.loc 1 335 23 is_stmt 1 discriminator 3 view .LVU340
 336:Drivers/LCD/ILI9341/ILI9341_GFX.c ****    ILI9341_Set_Address(x1, y1, x2, y2);
 1455              		.loc 1 336 4 discriminator 3 view .LVU341
 1456 0022 2346     		mov	r3, r4
 1457 0024 3A46     		mov	r2, r7
 1458 0026 2946     		mov	r1, r5
 1459 0028 4046     		mov	r0, r8
 1460 002a FFF7FEFF 		bl	ILI9341_Set_Address
 1461              	.LVL159:
 337:Drivers/LCD/ILI9341/ILI9341_GFX.c ****   //buf_size = (x2-x1+1)*(y2-y1+1)*2;
 338:Drivers/LCD/ILI9341/ILI9341_GFX.c ****   block_size = (x2-x1+1)*(y2-y1+1);
 1462              		.loc 1 338 3 discriminator 3 view .LVU342
 1463              		.loc 1 338 19 is_stmt 0 discriminator 3 view .LVU343
 1464 002e A7EB0807 		sub	r7, r7, r8
 1465              	.LVL160:
 1466              		.loc 1 338 29 discriminator 3 view .LVU344
 1467 0032 651B     		subs	r5, r4, r5
 1468              	.LVL161:
 1469              		.loc 1 338 32 discriminator 3 view .LVU345
 1470 0034 0135     		adds	r5, r5, #1
 1471              		.loc 1 338 25 discriminator 3 view .LVU346
 1472 0036 07FB0555 		mla	r5, r7, r5, r5
 1473              	.LVL162:
 339:Drivers/LCD/ILI9341/ILI9341_GFX.c ****   /*
 340:Drivers/LCD/ILI9341/ILI9341_GFX.c ****   if(n<=307200)
 341:Drivers/LCD/ILI9341/ILI9341_GFX.c ****   {
 342:Drivers/LCD/ILI9341/ILI9341_GFX.c ****     cnt = 1;
 343:Drivers/LCD/ILI9341/ILI9341_GFX.c ****     buf_size = n;
 344:Drivers/LCD/ILI9341/ILI9341_GFX.c ****   }
 345:Drivers/LCD/ILI9341/ILI9341_GFX.c ****   else
 346:Drivers/LCD/ILI9341/ILI9341_GFX.c ****   {
 347:Drivers/LCD/ILI9341/ILI9341_GFX.c ****     cnt = n/2;
 348:Drivers/LCD/ILI9341/ILI9341_GFX.c ****     buf_size = 2;
 349:Drivers/LCD/ILI9341/ILI9341_GFX.c ****     for(i = 3; i < n/3; i++)
 350:Drivers/LCD/ILI9341/ILI9341_GFX.c ****     {
 351:Drivers/LCD/ILI9341/ILI9341_GFX.c ****       if(n%i == 0)
 352:Drivers/LCD/ILI9341/ILI9341_GFX.c ****       {
 353:Drivers/LCD/ILI9341/ILI9341_GFX.c ****         cnt = i;
 354:Drivers/LCD/ILI9341/ILI9341_GFX.c ****         buf_size = n/i;
 355:Drivers/LCD/ILI9341/ILI9341_GFX.c ****         break;
 356:Drivers/LCD/ILI9341/ILI9341_GFX.c ****       }
 357:Drivers/LCD/ILI9341/ILI9341_GFX.c ****     }
 358:Drivers/LCD/ILI9341/ILI9341_GFX.c ****   }
 359:Drivers/LCD/ILI9341/ILI9341_GFX.c ****   */
 360:Drivers/LCD/ILI9341/ILI9341_GFX.c ****  // uint16_t * lcdBuf = (uint16_t *)LCD_CMD_ADDRESS; //   = LCD_CMD_ADDRESS;
 361:Drivers/LCD/ILI9341/ILI9341_GFX.c ****  //SCB_DisableDCache();
 362:Drivers/LCD/ILI9341/ILI9341_GFX.c ****  // uint16_t lcdBuf = (uint16_t *)LCD_CMD_ADDRESS;
ARM GAS  D:\Temp\ccwKYSvy.s 			page 35


 363:Drivers/LCD/ILI9341/ILI9341_GFX.c ****   int len = sizeof(FrameBuf)/2;
 1474              		.loc 1 363 3 is_stmt 1 discriminator 3 view .LVU347
 364:Drivers/LCD/ILI9341/ILI9341_GFX.c ****   int cntr = 0;
 1475              		.loc 1 364 3 discriminator 3 view .LVU348
 365:Drivers/LCD/ILI9341/ILI9341_GFX.c ****   for(int i = 0; i < block_size; i++)
 1476              		.loc 1 365 3 discriminator 3 view .LVU349
 1477              	.LBB9:
 1478              		.loc 1 365 7 discriminator 3 view .LVU350
 1479              		.loc 1 365 11 is_stmt 0 discriminator 3 view .LVU351
 1480 003a 0024     		movs	r4, #0
 1481              	.LVL163:
 1482              		.loc 1 365 11 discriminator 3 view .LVU352
 1483              	.LBE9:
 364:Drivers/LCD/ILI9341/ILI9341_GFX.c ****   int cntr = 0;
 1484              		.loc 1 364 7 discriminator 3 view .LVU353
 1485 003c 2346     		mov	r3, r4
 1486              	.LBB10:
 1487              		.loc 1 365 3 discriminator 3 view .LVU354
 1488 003e 01E0     		b	.L96
 1489              	.LVL164:
 1490              	.L103:
 366:Drivers/LCD/ILI9341/ILI9341_GFX.c ****   {
 367:Drivers/LCD/ILI9341/ILI9341_GFX.c ****         FrameBuf[cntr] = color;
 368:Drivers/LCD/ILI9341/ILI9341_GFX.c **** 		cntr++;
 369:Drivers/LCD/ILI9341/ILI9341_GFX.c **** 		if(cntr == len - 1)
 370:Drivers/LCD/ILI9341/ILI9341_GFX.c **** 		{
 371:Drivers/LCD/ILI9341/ILI9341_GFX.c **** 			cntr = 0;
 1491              		.loc 1 371 9 view .LVU355
 1492 0040 0023     		movs	r3, #0
 1493              	.LVL165:
 1494              	.L97:
 365:Drivers/LCD/ILI9341/ILI9341_GFX.c ****   for(int i = 0; i < block_size; i++)
 1495              		.loc 1 365 35 discriminator 2 view .LVU356
 1496 0042 0134     		adds	r4, r4, #1
 1497              	.LVL166:
 1498              	.L96:
 365:Drivers/LCD/ILI9341/ILI9341_GFX.c ****   for(int i = 0; i < block_size; i++)
 1499              		.loc 1 365 3 discriminator 1 view .LVU357
 1500 0044 AC42     		cmp	r4, r5
 1501 0046 19D2     		bcs	.L102
 367:Drivers/LCD/ILI9341/ILI9341_GFX.c **** 		cntr++;
 1502              		.loc 1 367 9 is_stmt 1 view .LVU358
 367:Drivers/LCD/ILI9341/ILI9341_GFX.c **** 		cntr++;
 1503              		.loc 1 367 24 is_stmt 0 view .LVU359
 1504 0048 0D4A     		ldr	r2, .L104
 1505 004a 22F81360 		strh	r6, [r2, r3, lsl #1]	@ movhi
 368:Drivers/LCD/ILI9341/ILI9341_GFX.c **** 		if(cntr == len - 1)
 1506              		.loc 1 368 3 is_stmt 1 view .LVU360
 368:Drivers/LCD/ILI9341/ILI9341_GFX.c **** 		if(cntr == len - 1)
 1507              		.loc 1 368 7 is_stmt 0 view .LVU361
 1508 004e 0133     		adds	r3, r3, #1
 1509              	.LVL167:
 369:Drivers/LCD/ILI9341/ILI9341_GFX.c **** 		{
 1510              		.loc 1 369 3 is_stmt 1 view .LVU362
 369:Drivers/LCD/ILI9341/ILI9341_GFX.c **** 		{
 1511              		.loc 1 369 5 is_stmt 0 view .LVU363
 1512 0050 43F6FF32 		movw	r2, #15359
ARM GAS  D:\Temp\ccwKYSvy.s 			page 36


 1513 0054 9342     		cmp	r3, r2
 1514 0056 F4D1     		bne	.L97
 1515              		.loc 1 371 4 is_stmt 1 view .LVU364
 1516              	.LVL168:
 372:Drivers/LCD/ILI9341/ILI9341_GFX.c **** 			transferComplete = false;
 1517              		.loc 1 372 4 view .LVU365
 1518              		.loc 1 372 21 is_stmt 0 view .LVU366
 1519 0058 0A4B     		ldr	r3, .L104+4
 1520 005a 0022     		movs	r2, #0
 1521 005c 1A70     		strb	r2, [r3]
 373:Drivers/LCD/ILI9341/ILI9341_GFX.c **** 			HAL_DMA_Start_IT(&hdma_memtomem_dma2_stream0, (uint32_t)&FrameBuf[0] , /*(uint32_t)LCD->LCD_RAM*
 1522              		.loc 1 373 4 is_stmt 1 view .LVU367
 1523 005e 4FF47053 		mov	r3, #15360
 1524 0062 094A     		ldr	r2, .L104+8
 1525 0064 0649     		ldr	r1, .L104
 1526 0066 0948     		ldr	r0, .L104+12
 1527 0068 FFF7FEFF 		bl	HAL_DMA_Start_IT
 1528              	.LVL169:
 374:Drivers/LCD/ILI9341/ILI9341_GFX.c **** 			
 375:Drivers/LCD/ILI9341/ILI9341_GFX.c **** 			while(transferComplete == false)
 1529              		.loc 1 375 4 view .LVU368
 1530              	.L98:
 1531              		.loc 1 375 27 is_stmt 0 view .LVU369
 1532 006c 054B     		ldr	r3, .L104+4
 1533 006e 1B78     		ldrb	r3, [r3]	@ zero_extendqisi2
 1534              		.loc 1 375 9 view .LVU370
 1535 0070 002B     		cmp	r3, #0
 1536 0072 E5D1     		bne	.L103
 376:Drivers/LCD/ILI9341/ILI9341_GFX.c **** 			{				
 377:Drivers/LCD/ILI9341/ILI9341_GFX.c **** 				lcdDelay(1);
 1537              		.loc 1 377 5 is_stmt 1 view .LVU371
 1538 0074 0120     		movs	r0, #1
 1539 0076 FFF7FEFF 		bl	lcdDelay
 1540              	.LVL170:
 1541 007a F7E7     		b	.L98
 1542              	.LVL171:
 1543              	.L102:
 1544              		.loc 1 377 5 is_stmt 0 view .LVU372
 1545              	.LBE10:
 378:Drivers/LCD/ILI9341/ILI9341_GFX.c **** 			}
 379:Drivers/LCD/ILI9341/ILI9341_GFX.c **** 			
 380:Drivers/LCD/ILI9341/ILI9341_GFX.c **** 			continue;
 381:Drivers/LCD/ILI9341/ILI9341_GFX.c **** 		}		
 382:Drivers/LCD/ILI9341/ILI9341_GFX.c ****   }
 383:Drivers/LCD/ILI9341/ILI9341_GFX.c ****   //if(cntr != 0)
 384:Drivers/LCD/ILI9341/ILI9341_GFX.c ****  // transferComplete = false;
 385:Drivers/LCD/ILI9341/ILI9341_GFX.c ****   //  HAL_DMA_Start_IT(&hdma_memtomem_dma2_stream0, (uint32_t)&FrameBuf[0] , /*(uint32_t)LCD->LCD_R
 386:Drivers/LCD/ILI9341/ILI9341_GFX.c **** 	/*
 387:Drivers/LCD/ILI9341/ILI9341_GFX.c **** 				while(transferComplete == false)
 388:Drivers/LCD/ILI9341/ILI9341_GFX.c **** 			{
 389:Drivers/LCD/ILI9341/ILI9341_GFX.c **** 				
 390:Drivers/LCD/ILI9341/ILI9341_GFX.c **** 				lcdDelay(1);
 391:Drivers/LCD/ILI9341/ILI9341_GFX.c **** 			}
 392:Drivers/LCD/ILI9341/ILI9341_GFX.c ****  */
 393:Drivers/LCD/ILI9341/ILI9341_GFX.c **** }
 1546              		.loc 1 393 1 view .LVU373
 1547 007c BDE8F081 		pop	{r4, r5, r6, r7, r8, pc}
ARM GAS  D:\Temp\ccwKYSvy.s 			page 37


 1548              	.LVL172:
 1549              	.L105:
 1550              		.loc 1 393 1 view .LVU374
 1551              		.align	2
 1552              	.L104:
 1553 0080 00000000 		.word	FrameBuf
 1554 0084 00000000 		.word	transferComplete
 1555 0088 00000860 		.word	1611137024
 1556 008c 00000000 		.word	hdma_memtomem_dma2_stream0
 1557              		.cfi_endproc
 1558              	.LFE141:
 1560              		.section	.text.ILI9341_Draw_Filled_Rectangle_Coord,"ax",%progbits
 1561              		.align	1
 1562              		.global	ILI9341_Draw_Filled_Rectangle_Coord
 1563              		.syntax unified
 1564              		.thumb
 1565              		.thumb_func
 1566              		.fpu fpv4-sp-d16
 1568              	ILI9341_Draw_Filled_Rectangle_Coord:
 1569              	.LVL173:
 1570              	.LFB142:
 394:Drivers/LCD/ILI9341/ILI9341_GFX.c **** void ILI9341_Draw_Filled_Rectangle_Coord(uint16_t X0, uint16_t Y0, uint16_t X1, uint16_t Y1, uint16
 395:Drivers/LCD/ILI9341/ILI9341_GFX.c **** {
 1571              		.loc 1 395 1 is_stmt 1 view -0
 1572              		.cfi_startproc
 1573              		@ args = 4, pretend = 0, frame = 0
 1574              		@ frame_needed = 0, uses_anonymous_args = 0
 1575              		.loc 1 395 1 is_stmt 0 view .LVU376
 1576 0000 30B5     		push	{r4, r5, lr}
 1577              	.LCFI26:
 1578              		.cfi_def_cfa_offset 12
 1579              		.cfi_offset 4, -12
 1580              		.cfi_offset 5, -8
 1581              		.cfi_offset 14, -4
 1582 0002 83B0     		sub	sp, sp, #12
 1583              	.LCFI27:
 1584              		.cfi_def_cfa_offset 24
 1585 0004 1546     		mov	r5, r2
 1586 0006 1C46     		mov	r4, r3
 396:Drivers/LCD/ILI9341/ILI9341_GFX.c **** 	uint16_t 	X_length = 0;
 1587              		.loc 1 396 2 is_stmt 1 view .LVU377
 1588              	.LVL174:
 397:Drivers/LCD/ILI9341/ILI9341_GFX.c **** 	uint16_t 	Y_length = 0;
 1589              		.loc 1 397 2 view .LVU378
 398:Drivers/LCD/ILI9341/ILI9341_GFX.c **** 	uint8_t		Negative_X = 0;
 1590              		.loc 1 398 2 view .LVU379
 399:Drivers/LCD/ILI9341/ILI9341_GFX.c **** 	uint8_t 	Negative_Y = 0;
 1591              		.loc 1 399 2 view .LVU380
 400:Drivers/LCD/ILI9341/ILI9341_GFX.c **** 	int32_t 	Calc_Negative = 0;
 1592              		.loc 1 400 2 view .LVU381
 401:Drivers/LCD/ILI9341/ILI9341_GFX.c **** 	
 402:Drivers/LCD/ILI9341/ILI9341_GFX.c **** 	uint16_t X0_true = 0;
 1593              		.loc 1 402 2 view .LVU382
 403:Drivers/LCD/ILI9341/ILI9341_GFX.c **** 	uint16_t Y0_true = 0;
 1594              		.loc 1 403 2 view .LVU383
 404:Drivers/LCD/ILI9341/ILI9341_GFX.c **** 	
 405:Drivers/LCD/ILI9341/ILI9341_GFX.c **** 	Calc_Negative = X1 - X0;
ARM GAS  D:\Temp\ccwKYSvy.s 			page 38


 1595              		.loc 1 405 2 view .LVU384
 1596              		.loc 1 405 16 is_stmt 0 view .LVU385
 1597 0008 131A     		subs	r3, r2, r0
 1598              	.LVL175:
 406:Drivers/LCD/ILI9341/ILI9341_GFX.c **** 	if(Calc_Negative < 0) Negative_X = 1;
 1599              		.loc 1 406 2 is_stmt 1 view .LVU386
 1600              		.loc 1 406 4 is_stmt 0 view .LVU387
 1601 000a 002B     		cmp	r3, #0
 1602 000c 11DB     		blt	.L113
 398:Drivers/LCD/ILI9341/ILI9341_GFX.c **** 	uint8_t 	Negative_Y = 0;
 1603              		.loc 1 398 11 view .LVU388
 1604 000e 0022     		movs	r2, #0
 1605              	.LVL176:
 1606              	.L107:
 407:Drivers/LCD/ILI9341/ILI9341_GFX.c **** 	Calc_Negative = 0;
 1607              		.loc 1 407 2 is_stmt 1 view .LVU389
 408:Drivers/LCD/ILI9341/ILI9341_GFX.c **** 	
 409:Drivers/LCD/ILI9341/ILI9341_GFX.c **** 	Calc_Negative = Y1 - Y0;
 1608              		.loc 1 409 2 view .LVU390
 1609              		.loc 1 409 16 is_stmt 0 view .LVU391
 1610 0010 631A     		subs	r3, r4, r1
 1611              	.LVL177:
 410:Drivers/LCD/ILI9341/ILI9341_GFX.c **** 	if(Calc_Negative < 0) Negative_Y = 1;
 1612              		.loc 1 410 2 is_stmt 1 view .LVU392
 1613              		.loc 1 410 4 is_stmt 0 view .LVU393
 1614 0012 002B     		cmp	r3, #0
 1615 0014 0FDB     		blt	.L114
 399:Drivers/LCD/ILI9341/ILI9341_GFX.c **** 	int32_t 	Calc_Negative = 0;
 1616              		.loc 1 399 11 view .LVU394
 1617 0016 0023     		movs	r3, #0
 1618              	.LVL178:
 1619              	.L108:
 411:Drivers/LCD/ILI9341/ILI9341_GFX.c **** 	
 412:Drivers/LCD/ILI9341/ILI9341_GFX.c **** 	
 413:Drivers/LCD/ILI9341/ILI9341_GFX.c **** 	//DRAW HORIZONTAL!
 414:Drivers/LCD/ILI9341/ILI9341_GFX.c **** 	if(!Negative_X)
 1620              		.loc 1 414 2 is_stmt 1 view .LVU395
 1621              		.loc 1 414 4 is_stmt 0 view .LVU396
 1622 0018 7AB9     		cbnz	r2, .L109
 415:Drivers/LCD/ILI9341/ILI9341_GFX.c **** 	{
 416:Drivers/LCD/ILI9341/ILI9341_GFX.c **** 		X_length = X1 - X0;
 1623              		.loc 1 416 3 is_stmt 1 view .LVU397
 1624              		.loc 1 416 12 is_stmt 0 view .LVU398
 1625 001a 2D1A     		subs	r5, r5, r0
 1626 001c AAB2     		uxth	r2, r5
 1627              	.LVL179:
 417:Drivers/LCD/ILI9341/ILI9341_GFX.c **** 		X0_true = X0;
 1628              		.loc 1 417 3 is_stmt 1 view .LVU399
 1629              	.L110:
 418:Drivers/LCD/ILI9341/ILI9341_GFX.c **** 	}
 419:Drivers/LCD/ILI9341/ILI9341_GFX.c **** 	else
 420:Drivers/LCD/ILI9341/ILI9341_GFX.c **** 	{
 421:Drivers/LCD/ILI9341/ILI9341_GFX.c **** 		X_length = X0 - X1;
 422:Drivers/LCD/ILI9341/ILI9341_GFX.c **** 		X0_true = X1;
 423:Drivers/LCD/ILI9341/ILI9341_GFX.c **** 	}
 424:Drivers/LCD/ILI9341/ILI9341_GFX.c **** 	
 425:Drivers/LCD/ILI9341/ILI9341_GFX.c **** 	//DRAW VERTICAL!
ARM GAS  D:\Temp\ccwKYSvy.s 			page 39


 426:Drivers/LCD/ILI9341/ILI9341_GFX.c **** 	if(!Negative_Y)
 1630              		.loc 1 426 2 view .LVU400
 1631              		.loc 1 426 4 is_stmt 0 view .LVU401
 1632 001e 83B9     		cbnz	r3, .L111
 427:Drivers/LCD/ILI9341/ILI9341_GFX.c **** 	{
 428:Drivers/LCD/ILI9341/ILI9341_GFX.c **** 		Y_length = Y1 - Y0;
 1633              		.loc 1 428 3 is_stmt 1 view .LVU402
 1634              		.loc 1 428 12 is_stmt 0 view .LVU403
 1635 0020 641A     		subs	r4, r4, r1
 1636              	.LVL180:
 1637              		.loc 1 428 12 view .LVU404
 1638 0022 A3B2     		uxth	r3, r4
 1639              	.LVL181:
 429:Drivers/LCD/ILI9341/ILI9341_GFX.c **** 		Y0_true = Y0;		
 1640              		.loc 1 429 3 is_stmt 1 view .LVU405
 1641              	.L112:
 430:Drivers/LCD/ILI9341/ILI9341_GFX.c **** 	}
 431:Drivers/LCD/ILI9341/ILI9341_GFX.c **** 	else
 432:Drivers/LCD/ILI9341/ILI9341_GFX.c **** 	{
 433:Drivers/LCD/ILI9341/ILI9341_GFX.c **** 		Y_length = Y0 - Y1;
 434:Drivers/LCD/ILI9341/ILI9341_GFX.c **** 		Y0_true = Y1;	
 435:Drivers/LCD/ILI9341/ILI9341_GFX.c **** 	}
 436:Drivers/LCD/ILI9341/ILI9341_GFX.c **** 	
 437:Drivers/LCD/ILI9341/ILI9341_GFX.c **** 	ILI9341_Draw_Rectangle(X0_true, Y0_true, X_length, Y_length, Color);	
 1642              		.loc 1 437 2 view .LVU406
 1643 0024 BDF81840 		ldrh	r4, [sp, #24]
 1644 0028 0094     		str	r4, [sp]
 1645 002a FFF7FEFF 		bl	ILI9341_Draw_Rectangle
 1646              	.LVL182:
 438:Drivers/LCD/ILI9341/ILI9341_GFX.c **** }
 1647              		.loc 1 438 1 is_stmt 0 view .LVU407
 1648 002e 03B0     		add	sp, sp, #12
 1649              	.LCFI28:
 1650              		.cfi_remember_state
 1651              		.cfi_def_cfa_offset 12
 1652              		@ sp needed
 1653 0030 30BD     		pop	{r4, r5, pc}
 1654              	.LVL183:
 1655              	.L113:
 1656              	.LCFI29:
 1657              		.cfi_restore_state
 406:Drivers/LCD/ILI9341/ILI9341_GFX.c **** 	Calc_Negative = 0;
 1658              		.loc 1 406 35 view .LVU408
 1659 0032 0122     		movs	r2, #1
 1660              	.LVL184:
 406:Drivers/LCD/ILI9341/ILI9341_GFX.c **** 	Calc_Negative = 0;
 1661              		.loc 1 406 35 view .LVU409
 1662 0034 ECE7     		b	.L107
 1663              	.LVL185:
 1664              	.L114:
 410:Drivers/LCD/ILI9341/ILI9341_GFX.c **** 	
 1665              		.loc 1 410 35 view .LVU410
 1666 0036 0123     		movs	r3, #1
 1667              	.LVL186:
 410:Drivers/LCD/ILI9341/ILI9341_GFX.c **** 	
 1668              		.loc 1 410 35 view .LVU411
 1669 0038 EEE7     		b	.L108
ARM GAS  D:\Temp\ccwKYSvy.s 			page 40


 1670              	.LVL187:
 1671              	.L109:
 421:Drivers/LCD/ILI9341/ILI9341_GFX.c **** 		X0_true = X1;
 1672              		.loc 1 421 3 is_stmt 1 view .LVU412
 421:Drivers/LCD/ILI9341/ILI9341_GFX.c **** 		X0_true = X1;
 1673              		.loc 1 421 12 is_stmt 0 view .LVU413
 1674 003a 401B     		subs	r0, r0, r5
 1675              	.LVL188:
 421:Drivers/LCD/ILI9341/ILI9341_GFX.c **** 		X0_true = X1;
 1676              		.loc 1 421 12 view .LVU414
 1677 003c 82B2     		uxth	r2, r0
 1678              	.LVL189:
 422:Drivers/LCD/ILI9341/ILI9341_GFX.c **** 	}
 1679              		.loc 1 422 3 is_stmt 1 view .LVU415
 422:Drivers/LCD/ILI9341/ILI9341_GFX.c **** 	}
 1680              		.loc 1 422 11 is_stmt 0 view .LVU416
 1681 003e 2846     		mov	r0, r5
 1682 0040 EDE7     		b	.L110
 1683              	.LVL190:
 1684              	.L111:
 433:Drivers/LCD/ILI9341/ILI9341_GFX.c **** 		Y0_true = Y1;	
 1685              		.loc 1 433 3 is_stmt 1 view .LVU417
 433:Drivers/LCD/ILI9341/ILI9341_GFX.c **** 		Y0_true = Y1;	
 1686              		.loc 1 433 12 is_stmt 0 view .LVU418
 1687 0042 091B     		subs	r1, r1, r4
 1688              	.LVL191:
 433:Drivers/LCD/ILI9341/ILI9341_GFX.c **** 		Y0_true = Y1;	
 1689              		.loc 1 433 12 view .LVU419
 1690 0044 8BB2     		uxth	r3, r1
 1691              	.LVL192:
 434:Drivers/LCD/ILI9341/ILI9341_GFX.c **** 	}
 1692              		.loc 1 434 3 is_stmt 1 view .LVU420
 434:Drivers/LCD/ILI9341/ILI9341_GFX.c **** 	}
 1693              		.loc 1 434 11 is_stmt 0 view .LVU421
 1694 0046 2146     		mov	r1, r4
 1695 0048 ECE7     		b	.L112
 1696              		.cfi_endproc
 1697              	.LFE142:
 1699              		.section	.text.ILI9341_Draw_Char,"ax",%progbits
 1700              		.align	1
 1701              		.global	ILI9341_Draw_Char
 1702              		.syntax unified
 1703              		.thumb
 1704              		.thumb_func
 1705              		.fpu fpv4-sp-d16
 1707              	ILI9341_Draw_Char:
 1708              	.LVL193:
 1709              	.LFB143:
 439:Drivers/LCD/ILI9341/ILI9341_GFX.c **** 
 440:Drivers/LCD/ILI9341/ILI9341_GFX.c **** /*Draws a character (fonts imported from fonts.h) at X,Y location with specified font Color, size a
 441:Drivers/LCD/ILI9341/ILI9341_GFX.c **** /*See fonts.h implementation of font on what is required for changing to a different font when swit
 442:Drivers/LCD/ILI9341/ILI9341_GFX.c **** void ILI9341_Draw_Char(char Character, uint8_t X, uint8_t Y, uint16_t Color, uint16_t Size, uint16_
 443:Drivers/LCD/ILI9341/ILI9341_GFX.c **** {
 1710              		.loc 1 443 1 is_stmt 1 view -0
 1711              		.cfi_startproc
 1712              		@ args = 8, pretend = 0, frame = 8
 1713              		@ frame_needed = 0, uses_anonymous_args = 0
ARM GAS  D:\Temp\ccwKYSvy.s 			page 41


 1714              		.loc 1 443 1 is_stmt 0 view .LVU423
 1715 0000 2DE9F043 		push	{r4, r5, r6, r7, r8, r9, lr}
 1716              	.LCFI30:
 1717              		.cfi_def_cfa_offset 28
 1718              		.cfi_offset 4, -28
 1719              		.cfi_offset 5, -24
 1720              		.cfi_offset 6, -20
 1721              		.cfi_offset 7, -16
 1722              		.cfi_offset 8, -12
 1723              		.cfi_offset 9, -8
 1724              		.cfi_offset 14, -4
 1725 0004 85B0     		sub	sp, sp, #20
 1726              	.LCFI31:
 1727              		.cfi_def_cfa_offset 48
 1728 0006 9946     		mov	r9, r3
 1729 0008 BDF83060 		ldrh	r6, [sp, #48]
 444:Drivers/LCD/ILI9341/ILI9341_GFX.c **** 		uint8_t 	function_char;
 1730              		.loc 1 444 3 is_stmt 1 view .LVU424
 445:Drivers/LCD/ILI9341/ILI9341_GFX.c ****     uint8_t 	i,j;
 1731              		.loc 1 445 5 view .LVU425
 446:Drivers/LCD/ILI9341/ILI9341_GFX.c **** 		
 447:Drivers/LCD/ILI9341/ILI9341_GFX.c **** 		function_char = Character;
 1732              		.loc 1 447 3 view .LVU426
 1733              	.LVL194:
 448:Drivers/LCD/ILI9341/ILI9341_GFX.c **** 		
 449:Drivers/LCD/ILI9341/ILI9341_GFX.c ****     if (function_char < ' ') {
 1734              		.loc 1 449 5 view .LVU427
 1735              		.loc 1 449 8 is_stmt 0 view .LVU428
 1736 000c 1F28     		cmp	r0, #31
 1737 000e 01D9     		bls	.L117
 450:Drivers/LCD/ILI9341/ILI9341_GFX.c ****         Character = 0;
 451:Drivers/LCD/ILI9341/ILI9341_GFX.c ****     } else {
 452:Drivers/LCD/ILI9341/ILI9341_GFX.c ****         function_char -= 32;
 1738              		.loc 1 452 9 is_stmt 1 view .LVU429
 1739              		.loc 1 452 23 is_stmt 0 view .LVU430
 1740 0010 2038     		subs	r0, r0, #32
 1741              	.LVL195:
 1742              		.loc 1 452 23 view .LVU431
 1743 0012 C0B2     		uxtb	r0, r0
 1744              	.LVL196:
 1745              	.L117:
 453:Drivers/LCD/ILI9341/ILI9341_GFX.c **** 		}
 454:Drivers/LCD/ILI9341/ILI9341_GFX.c ****    	
 455:Drivers/LCD/ILI9341/ILI9341_GFX.c **** 		char temp[CHAR_WIDTH];
 1746              		.loc 1 455 3 is_stmt 1 view .LVU432
 456:Drivers/LCD/ILI9341/ILI9341_GFX.c **** 		for(uint8_t k = 0; k<CHAR_WIDTH; k++)
 1747              		.loc 1 456 3 view .LVU433
 1748              	.LBB11:
 1749              		.loc 1 456 7 view .LVU434
 1750              		.loc 1 456 15 is_stmt 0 view .LVU435
 1751 0014 0023     		movs	r3, #0
 1752              	.LVL197:
 1753              		.loc 1 456 3 view .LVU436
 1754 0016 0BE0     		b	.L118
 1755              	.LVL198:
 1756              	.L119:
 457:Drivers/LCD/ILI9341/ILI9341_GFX.c **** 		{
ARM GAS  D:\Temp\ccwKYSvy.s 			page 42


 458:Drivers/LCD/ILI9341/ILI9341_GFX.c **** 		temp[k] = font[function_char][k];
 1757              		.loc 1 458 3 is_stmt 1 discriminator 3 view .LVU437
 1758              		.loc 1 458 32 is_stmt 0 discriminator 3 view .LVU438
 1759 0018 00EB4004 		add	r4, r0, r0, lsl #1
 1760 001c 6500     		lsls	r5, r4, #1
 1761 001e 254C     		ldr	r4, .L129
 1762 0020 2C44     		add	r4, r4, r5
 1763 0022 E55C     		ldrb	r5, [r4, r3]	@ zero_extendqisi2
 1764              		.loc 1 458 11 discriminator 3 view .LVU439
 1765 0024 04AC     		add	r4, sp, #16
 1766 0026 1C44     		add	r4, r4, r3
 1767 0028 04F8085C 		strb	r5, [r4, #-8]
 456:Drivers/LCD/ILI9341/ILI9341_GFX.c **** 		for(uint8_t k = 0; k<CHAR_WIDTH; k++)
 1768              		.loc 1 456 37 discriminator 3 view .LVU440
 1769 002c 0133     		adds	r3, r3, #1
 1770              	.LVL199:
 456:Drivers/LCD/ILI9341/ILI9341_GFX.c **** 		for(uint8_t k = 0; k<CHAR_WIDTH; k++)
 1771              		.loc 1 456 37 discriminator 3 view .LVU441
 1772 002e DBB2     		uxtb	r3, r3
 1773              	.LVL200:
 1774              	.L118:
 456:Drivers/LCD/ILI9341/ILI9341_GFX.c **** 		for(uint8_t k = 0; k<CHAR_WIDTH; k++)
 1775              		.loc 1 456 3 discriminator 1 view .LVU442
 1776 0030 052B     		cmp	r3, #5
 1777 0032 F1D9     		bls	.L119
 1778              	.LBE11:
 459:Drivers/LCD/ILI9341/ILI9341_GFX.c **** 		}
 460:Drivers/LCD/ILI9341/ILI9341_GFX.c **** 		
 461:Drivers/LCD/ILI9341/ILI9341_GFX.c ****     // Draw pixels
 462:Drivers/LCD/ILI9341/ILI9341_GFX.c **** 		ILI9341_Draw_Rectangle(X, Y, CHAR_WIDTH*Size, CHAR_HEIGHT*Size, Background_Color);
 1779              		.loc 1 462 3 is_stmt 1 view .LVU443
 1780 0034 8FB2     		uxth	r7, r1
 1781 0036 1FFA82F8 		uxth	r8, r2
 1782 003a F300     		lsls	r3, r6, #3
 1783              	.LVL201:
 1784              		.loc 1 462 3 is_stmt 0 view .LVU444
 1785 003c 9BB2     		uxth	r3, r3
 1786 003e 06EB4601 		add	r1, r6, r6, lsl #1
 1787              	.LVL202:
 1788              		.loc 1 462 3 view .LVU445
 1789 0042 4A00     		lsls	r2, r1, #1
 1790              	.LVL203:
 1791              		.loc 1 462 3 view .LVU446
 1792 0044 92B2     		uxth	r2, r2
 1793 0046 BDF83410 		ldrh	r1, [sp, #52]
 1794 004a 0091     		str	r1, [sp]
 1795 004c 4146     		mov	r1, r8
 1796 004e 3846     		mov	r0, r7
 1797              	.LVL204:
 1798              		.loc 1 462 3 view .LVU447
 1799 0050 FFF7FEFF 		bl	ILI9341_Draw_Rectangle
 1800              	.LVL205:
 463:Drivers/LCD/ILI9341/ILI9341_GFX.c ****     for (j=0; j<CHAR_WIDTH; j++) {
 1801              		.loc 1 463 5 is_stmt 1 view .LVU448
 1802              		.loc 1 463 11 is_stmt 0 view .LVU449
 1803 0054 0025     		movs	r5, #0
 1804              		.loc 1 463 5 view .LVU450
ARM GAS  D:\Temp\ccwKYSvy.s 			page 43


 1805 0056 26E0     		b	.L120
 1806              	.LVL206:
 1807              	.L122:
 464:Drivers/LCD/ILI9341/ILI9341_GFX.c ****         for (i=0; i<CHAR_HEIGHT; i++) {
 465:Drivers/LCD/ILI9341/ILI9341_GFX.c ****             if (temp[j] & (1<<i)) {			
 466:Drivers/LCD/ILI9341/ILI9341_GFX.c **** 							if(Size == 1)
 467:Drivers/LCD/ILI9341/ILI9341_GFX.c **** 							{
 468:Drivers/LCD/ILI9341/ILI9341_GFX.c ****               ILI9341_Draw_Pixel(X+j, Y+i, Color);
 469:Drivers/LCD/ILI9341/ILI9341_GFX.c **** 							}
 470:Drivers/LCD/ILI9341/ILI9341_GFX.c **** 							else
 471:Drivers/LCD/ILI9341/ILI9341_GFX.c **** 							{
 472:Drivers/LCD/ILI9341/ILI9341_GFX.c **** 							ILI9341_Draw_Rectangle(X+(j*Size), Y+(i*Size), Size, Size, Color);
 1808              		.loc 1 472 8 is_stmt 1 view .LVU451
 1809              		.loc 1 472 35 is_stmt 0 view .LVU452
 1810 0058 15FB06F0 		smulbb	r0, r5, r6
 1811              		.loc 1 472 47 view .LVU453
 1812 005c 14FB06F1 		smulbb	r1, r4, r6
 1813              		.loc 1 472 8 view .LVU454
 1814 0060 18FA81F1 		uxtah	r1, r8, r1
 1815 0064 17FA80F0 		uxtah	r0, r7, r0
 1816 0068 CDF80090 		str	r9, [sp]
 1817 006c 3346     		mov	r3, r6
 1818 006e 3246     		mov	r2, r6
 1819 0070 89B2     		uxth	r1, r1
 1820 0072 80B2     		uxth	r0, r0
 1821 0074 FFF7FEFF 		bl	ILI9341_Draw_Rectangle
 1822              	.LVL207:
 1823              	.L121:
 464:Drivers/LCD/ILI9341/ILI9341_GFX.c ****         for (i=0; i<CHAR_HEIGHT; i++) {
 1824              		.loc 1 464 35 discriminator 2 view .LVU455
 1825 0078 0134     		adds	r4, r4, #1
 1826              	.LVL208:
 464:Drivers/LCD/ILI9341/ILI9341_GFX.c ****         for (i=0; i<CHAR_HEIGHT; i++) {
 1827              		.loc 1 464 35 discriminator 2 view .LVU456
 1828 007a E4B2     		uxtb	r4, r4
 1829              	.LVL209:
 1830              	.L124:
 464:Drivers/LCD/ILI9341/ILI9341_GFX.c ****         for (i=0; i<CHAR_HEIGHT; i++) {
 1831              		.loc 1 464 9 discriminator 1 view .LVU457
 1832 007c 072C     		cmp	r4, #7
 1833 007e 10D8     		bhi	.L127
 465:Drivers/LCD/ILI9341/ILI9341_GFX.c **** 							if(Size == 1)
 1834              		.loc 1 465 13 is_stmt 1 view .LVU458
 465:Drivers/LCD/ILI9341/ILI9341_GFX.c **** 							if(Size == 1)
 1835              		.loc 1 465 21 is_stmt 0 view .LVU459
 1836 0080 04AB     		add	r3, sp, #16
 1837 0082 2B44     		add	r3, r3, r5
 1838 0084 13F8083C 		ldrb	r3, [r3, #-8]	@ zero_extendqisi2
 465:Drivers/LCD/ILI9341/ILI9341_GFX.c **** 							if(Size == 1)
 1839              		.loc 1 465 17 view .LVU460
 1840 0088 2341     		asrs	r3, r3, r4
 465:Drivers/LCD/ILI9341/ILI9341_GFX.c **** 							if(Size == 1)
 1841              		.loc 1 465 16 view .LVU461
 1842 008a 13F0010F 		tst	r3, #1
 1843 008e F3D0     		beq	.L121
 466:Drivers/LCD/ILI9341/ILI9341_GFX.c **** 							{
 1844              		.loc 1 466 8 is_stmt 1 view .LVU462
ARM GAS  D:\Temp\ccwKYSvy.s 			page 44


 466:Drivers/LCD/ILI9341/ILI9341_GFX.c **** 							{
 1845              		.loc 1 466 10 is_stmt 0 view .LVU463
 1846 0090 012E     		cmp	r6, #1
 1847 0092 E1D1     		bne	.L122
 468:Drivers/LCD/ILI9341/ILI9341_GFX.c **** 							}
 1848              		.loc 1 468 15 is_stmt 1 view .LVU464
 1849 0094 4A46     		mov	r2, r9
 1850 0096 08EB0401 		add	r1, r8, r4
 1851 009a 7819     		adds	r0, r7, r5
 1852 009c FFF7FEFF 		bl	ILI9341_Draw_Pixel
 1853              	.LVL210:
 1854 00a0 EAE7     		b	.L121
 1855              	.L127:
 463:Drivers/LCD/ILI9341/ILI9341_GFX.c ****         for (i=0; i<CHAR_HEIGHT; i++) {
 1856              		.loc 1 463 30 is_stmt 0 discriminator 2 view .LVU465
 1857 00a2 0135     		adds	r5, r5, #1
 1858              	.LVL211:
 463:Drivers/LCD/ILI9341/ILI9341_GFX.c ****         for (i=0; i<CHAR_HEIGHT; i++) {
 1859              		.loc 1 463 30 discriminator 2 view .LVU466
 1860 00a4 EDB2     		uxtb	r5, r5
 1861              	.LVL212:
 1862              	.L120:
 463:Drivers/LCD/ILI9341/ILI9341_GFX.c ****         for (i=0; i<CHAR_HEIGHT; i++) {
 1863              		.loc 1 463 5 discriminator 1 view .LVU467
 1864 00a6 052D     		cmp	r5, #5
 1865 00a8 01D8     		bhi	.L128
 464:Drivers/LCD/ILI9341/ILI9341_GFX.c ****             if (temp[j] & (1<<i)) {			
 1866              		.loc 1 464 15 view .LVU468
 1867 00aa 0024     		movs	r4, #0
 1868 00ac E6E7     		b	.L124
 1869              	.L128:
 473:Drivers/LCD/ILI9341/ILI9341_GFX.c **** 							}
 474:Drivers/LCD/ILI9341/ILI9341_GFX.c ****             }						
 475:Drivers/LCD/ILI9341/ILI9341_GFX.c ****         }
 476:Drivers/LCD/ILI9341/ILI9341_GFX.c ****     }
 477:Drivers/LCD/ILI9341/ILI9341_GFX.c **** }
 1870              		.loc 1 477 1 view .LVU469
 1871 00ae 05B0     		add	sp, sp, #20
 1872              	.LCFI32:
 1873              		.cfi_def_cfa_offset 28
 1874              		@ sp needed
 1875 00b0 BDE8F083 		pop	{r4, r5, r6, r7, r8, r9, pc}
 1876              	.LVL213:
 1877              	.L130:
 1878              		.loc 1 477 1 view .LVU470
 1879              		.align	2
 1880              	.L129:
 1881 00b4 00000000 		.word	.LANCHOR0
 1882              		.cfi_endproc
 1883              	.LFE143:
 1885              		.section	.text.ILI9341_Draw_Text,"ax",%progbits
 1886              		.align	1
 1887              		.global	ILI9341_Draw_Text
 1888              		.syntax unified
 1889              		.thumb
 1890              		.thumb_func
 1891              		.fpu fpv4-sp-d16
ARM GAS  D:\Temp\ccwKYSvy.s 			page 45


 1893              	ILI9341_Draw_Text:
 1894              	.LVL214:
 1895              	.LFB144:
 478:Drivers/LCD/ILI9341/ILI9341_GFX.c **** 
 479:Drivers/LCD/ILI9341/ILI9341_GFX.c **** /*Draws an array of characters (fonts imported from fonts.h) at X,Y location with specified font Co
 480:Drivers/LCD/ILI9341/ILI9341_GFX.c **** /*See fonts.h implementation of font on what is required for changing to a different font when swit
 481:Drivers/LCD/ILI9341/ILI9341_GFX.c **** void ILI9341_Draw_Text(const char* Text, uint8_t X, uint8_t Y, uint16_t Color, uint16_t Size, uint1
 482:Drivers/LCD/ILI9341/ILI9341_GFX.c **** {
 1896              		.loc 1 482 1 is_stmt 1 view -0
 1897              		.cfi_startproc
 1898              		@ args = 8, pretend = 0, frame = 0
 1899              		@ frame_needed = 0, uses_anonymous_args = 0
 1900              		.loc 1 482 1 is_stmt 0 view .LVU472
 1901 0000 2DE9F043 		push	{r4, r5, r6, r7, r8, r9, lr}
 1902              	.LCFI33:
 1903              		.cfi_def_cfa_offset 28
 1904              		.cfi_offset 4, -28
 1905              		.cfi_offset 5, -24
 1906              		.cfi_offset 6, -20
 1907              		.cfi_offset 7, -16
 1908              		.cfi_offset 8, -12
 1909              		.cfi_offset 9, -8
 1910              		.cfi_offset 14, -4
 1911 0004 83B0     		sub	sp, sp, #12
 1912              	.LCFI34:
 1913              		.cfi_def_cfa_offset 40
 1914 0006 0446     		mov	r4, r0
 1915 0008 8946     		mov	r9, r1
 1916 000a 9046     		mov	r8, r2
 1917 000c 1F46     		mov	r7, r3
 1918 000e BDF82850 		ldrh	r5, [sp, #40]
 1919 0012 BDF82C60 		ldrh	r6, [sp, #44]
 483:Drivers/LCD/ILI9341/ILI9341_GFX.c ****     while (*Text) {
 1920              		.loc 1 483 5 is_stmt 1 view .LVU473
 1921              	.LVL215:
 1922              	.L132:
 1923              		.loc 1 483 12 is_stmt 0 view .LVU474
 1924 0016 2078     		ldrb	r0, [r4]	@ zero_extendqisi2
 1925              		.loc 1 483 11 view .LVU475
 1926 0018 70B1     		cbz	r0, .L135
 484:Drivers/LCD/ILI9341/ILI9341_GFX.c ****         ILI9341_Draw_Char(*Text++, X, Y, Color, Size, Background_Color);
 1927              		.loc 1 484 9 is_stmt 1 view .LVU476
 1928              		.loc 1 484 32 is_stmt 0 view .LVU477
 1929 001a 0134     		adds	r4, r4, #1
 1930              	.LVL216:
 1931              		.loc 1 484 9 view .LVU478
 1932 001c 0196     		str	r6, [sp, #4]
 1933 001e 0095     		str	r5, [sp]
 1934 0020 3B46     		mov	r3, r7
 1935 0022 4246     		mov	r2, r8
 1936 0024 4946     		mov	r1, r9
 1937 0026 FFF7FEFF 		bl	ILI9341_Draw_Char
 1938              	.LVL217:
 485:Drivers/LCD/ILI9341/ILI9341_GFX.c ****         X += CHAR_WIDTH*Size;
 1939              		.loc 1 485 9 is_stmt 1 view .LVU479
 1940              		.loc 1 485 11 is_stmt 0 view .LVU480
 1941 002a 05EB4503 		add	r3, r5, r5, lsl #1
ARM GAS  D:\Temp\ccwKYSvy.s 			page 46


 1942 002e 5900     		lsls	r1, r3, #1
 1943 0030 4944     		add	r1, r1, r9
 1944 0032 5FFA81F9 		uxtb	r9, r1
 1945              	.LVL218:
 1946              		.loc 1 485 11 view .LVU481
 1947 0036 EEE7     		b	.L132
 1948              	.L135:
 486:Drivers/LCD/ILI9341/ILI9341_GFX.c ****     }
 487:Drivers/LCD/ILI9341/ILI9341_GFX.c **** }
 1949              		.loc 1 487 1 view .LVU482
 1950 0038 03B0     		add	sp, sp, #12
 1951              	.LCFI35:
 1952              		.cfi_def_cfa_offset 28
 1953              		@ sp needed
 1954 003a BDE8F083 		pop	{r4, r5, r6, r7, r8, r9, pc}
 1955              		.loc 1 487 1 view .LVU483
 1956              		.cfi_endproc
 1957              	.LFE144:
 1959              		.section	.text.ILI9341_Draw_Image,"ax",%progbits
 1960              		.align	1
 1961              		.global	ILI9341_Draw_Image
 1962              		.syntax unified
 1963              		.thumb
 1964              		.thumb_func
 1965              		.fpu fpv4-sp-d16
 1967              	ILI9341_Draw_Image:
 1968              	.LVL219:
 1969              	.LFB145:
 488:Drivers/LCD/ILI9341/ILI9341_GFX.c **** 
 489:Drivers/LCD/ILI9341/ILI9341_GFX.c **** /*Draws a full screen picture from flash. Image converted from RGB .jpeg/other to C array using onl
 490:Drivers/LCD/ILI9341/ILI9341_GFX.c **** //USING CONVERTER: http://www.digole.com/tools/PicturetoC_Hex_converter.php
 491:Drivers/LCD/ILI9341/ILI9341_GFX.c **** //65K Color (2Bytes / Pixel)
 492:Drivers/LCD/ILI9341/ILI9341_GFX.c **** void ILI9341_Draw_Image(const char* Image_Array, uint8_t Orientation)
 493:Drivers/LCD/ILI9341/ILI9341_GFX.c **** {
 1970              		.loc 1 493 1 is_stmt 1 view -0
 1971              		.cfi_startproc
 1972              		@ args = 0, pretend = 0, frame = 0
 1973              		@ frame_needed = 0, uses_anonymous_args = 0
 1974              		.loc 1 493 1 is_stmt 0 view .LVU485
 1975 0000 38B5     		push	{r3, r4, r5, lr}
 1976              	.LCFI36:
 1977              		.cfi_def_cfa_offset 16
 1978              		.cfi_offset 3, -16
 1979              		.cfi_offset 4, -12
 1980              		.cfi_offset 5, -8
 1981              		.cfi_offset 14, -4
 1982 0002 0546     		mov	r5, r0
 494:Drivers/LCD/ILI9341/ILI9341_GFX.c **** 	
 495:Drivers/LCD/ILI9341/ILI9341_GFX.c **** 
 496:Drivers/LCD/ILI9341/ILI9341_GFX.c **** 		ILI9341_Set_Rotation(Orientation);
 1983              		.loc 1 496 3 is_stmt 1 view .LVU486
 1984 0004 0846     		mov	r0, r1
 1985              	.LVL220:
 1986              		.loc 1 496 3 is_stmt 0 view .LVU487
 1987 0006 FFF7FEFF 		bl	ILI9341_Set_Rotation
 1988              	.LVL221:
 497:Drivers/LCD/ILI9341/ILI9341_GFX.c **** 		ILI9341_Set_Address(0,0, LCD_WIDTH, LCD_HEIGHT);
ARM GAS  D:\Temp\ccwKYSvy.s 			page 47


 1989              		.loc 1 497 3 is_stmt 1 view .LVU488
 1990 000a 0E4B     		ldr	r3, .L141
 1991 000c 1B88     		ldrh	r3, [r3]
 1992 000e 0E4A     		ldr	r2, .L141+4
 1993 0010 1288     		ldrh	r2, [r2]
 1994 0012 0021     		movs	r1, #0
 1995 0014 0846     		mov	r0, r1
 1996 0016 FFF7FEFF 		bl	ILI9341_Set_Address
 1997              	.LVL222:
 498:Drivers/LCD/ILI9341/ILI9341_GFX.c **** 
 499:Drivers/LCD/ILI9341/ILI9341_GFX.c **** 
 500:Drivers/LCD/ILI9341/ILI9341_GFX.c **** 		for(uint32_t i = 0; i < LCD_HEIGHT*LCD_WIDTH*2; i+=2)
 1998              		.loc 1 500 3 view .LVU489
 1999              	.LBB12:
 2000              		.loc 1 500 7 view .LVU490
 2001              		.loc 1 500 16 is_stmt 0 view .LVU491
 2002 001a 0024     		movs	r4, #0
 2003              	.LVL223:
 2004              	.L137:
 2005              		.loc 1 500 37 discriminator 1 view .LVU492
 2006 001c 094B     		ldr	r3, .L141
 2007 001e 1A88     		ldrh	r2, [r3]
 2008 0020 094B     		ldr	r3, .L141+4
 2009 0022 1B88     		ldrh	r3, [r3]
 2010 0024 03FB02F3 		mul	r3, r3, r2
 2011              		.loc 1 500 3 discriminator 1 view .LVU493
 2012 0028 B4EB430F 		cmp	r4, r3, lsl #1
 2013 002c 09D2     		bcs	.L140
 2014              	.LBB13:
 501:Drivers/LCD/ILI9341/ILI9341_GFX.c **** 		{	
 502:Drivers/LCD/ILI9341/ILI9341_GFX.c **** 			uint16_t color = ((uint16_t)(Image_Array[i] << 8) + (uint16_t)Image_Array[i+1]);		
 2015              		.loc 1 502 4 is_stmt 1 discriminator 3 view .LVU494
 2016              		.loc 1 502 44 is_stmt 0 discriminator 3 view .LVU495
 2017 002e 2B5D     		ldrb	r3, [r5, r4]	@ zero_extendqisi2
 2018              		.loc 1 502 77 discriminator 3 view .LVU496
 2019 0030 2A19     		adds	r2, r5, r4
 2020 0032 5078     		ldrb	r0, [r2, #1]	@ zero_extendqisi2
 2021              		.loc 1 502 13 discriminator 3 view .LVU497
 2022 0034 00EB0320 		add	r0, r0, r3, lsl #8
 2023              	.LVL224:
 503:Drivers/LCD/ILI9341/ILI9341_GFX.c **** 			
 504:Drivers/LCD/ILI9341/ILI9341_GFX.c **** 			ILI9341_WriteData_16Bit(color);			
 2024              		.loc 1 504 4 is_stmt 1 discriminator 3 view .LVU498
 2025 0038 80B2     		uxth	r0, r0
 2026              		.loc 1 504 4 is_stmt 0 discriminator 3 view .LVU499
 2027 003a FFF7FEFF 		bl	ILI9341_WriteData_16Bit
 2028              	.LVL225:
 2029              		.loc 1 504 4 discriminator 3 view .LVU500
 2030              	.LBE13:
 500:Drivers/LCD/ILI9341/ILI9341_GFX.c **** 		{	
 2031              		.loc 1 500 52 discriminator 3 view .LVU501
 2032 003e 0234     		adds	r4, r4, #2
 2033              	.LVL226:
 500:Drivers/LCD/ILI9341/ILI9341_GFX.c **** 		{	
 2034              		.loc 1 500 52 discriminator 3 view .LVU502
 2035 0040 ECE7     		b	.L137
 2036              	.L140:
ARM GAS  D:\Temp\ccwKYSvy.s 			page 48


 500:Drivers/LCD/ILI9341/ILI9341_GFX.c **** 		{	
 2037              		.loc 1 500 52 discriminator 3 view .LVU503
 2038              	.LBE12:
 505:Drivers/LCD/ILI9341/ILI9341_GFX.c **** 
 506:Drivers/LCD/ILI9341/ILI9341_GFX.c **** 		}
 507:Drivers/LCD/ILI9341/ILI9341_GFX.c **** 	
 508:Drivers/LCD/ILI9341/ILI9341_GFX.c **** }
 2039              		.loc 1 508 1 view .LVU504
 2040 0042 38BD     		pop	{r3, r4, r5, pc}
 2041              	.LVL227:
 2042              	.L142:
 2043              		.loc 1 508 1 view .LVU505
 2044              		.align	2
 2045              	.L141:
 2046 0044 00000000 		.word	LCD_HEIGHT
 2047 0048 00000000 		.word	LCD_WIDTH
 2048              		.cfi_endproc
 2049              	.LFE145:
 2051              		.section	.bss.FrameBuf,"aw",%nobits
 2052              		.align	2
 2055              	FrameBuf:
 2056 0000 00000000 		.space	30720
 2056      00000000 
 2056      00000000 
 2056      00000000 
 2056      00000000 
 2057              		.section	.rodata.font,"a"
 2058              		.align	2
 2059              		.set	.LANCHOR0,. + 0
 2062              	font:
 2063 0000 00       		.byte	0
 2064 0001 00       		.byte	0
 2065 0002 00       		.byte	0
 2066 0003 00       		.byte	0
 2067 0004 00       		.byte	0
 2068 0005 00       		.byte	0
 2069 0006 5C       		.byte	92
 2070 0007 00       		.byte	0
 2071 0008 00       		.byte	0
 2072 0009 00       		.byte	0
 2073 000a 00       		.byte	0
 2074 000b 00       		.byte	0
 2075 000c 06       		.byte	6
 2076 000d 00       		.byte	0
 2077 000e 06       		.byte	6
 2078 000f 00       		.byte	0
 2079 0010 00       		.byte	0
 2080 0011 00       		.byte	0
 2081 0012 28       		.byte	40
 2082 0013 7C       		.byte	124
 2083 0014 28       		.byte	40
 2084 0015 7C       		.byte	124
 2085 0016 28       		.byte	40
 2086 0017 00       		.byte	0
 2087 0018 5C       		.byte	92
 2088 0019 54       		.byte	84
 2089 001a FE       		.byte	-2
ARM GAS  D:\Temp\ccwKYSvy.s 			page 49


 2090 001b 54       		.byte	84
 2091 001c 74       		.byte	116
 2092 001d 00       		.byte	0
 2093 001e 44       		.byte	68
 2094 001f 20       		.byte	32
 2095 0020 10       		.byte	16
 2096 0021 08       		.byte	8
 2097 0022 44       		.byte	68
 2098 0023 00       		.byte	0
 2099 0024 28       		.byte	40
 2100 0025 54       		.byte	84
 2101 0026 54       		.byte	84
 2102 0027 20       		.byte	32
 2103 0028 50       		.byte	80
 2104 0029 00       		.byte	0
 2105 002a 06       		.byte	6
 2106 002b 00       		.byte	0
 2107 002c 00       		.byte	0
 2108 002d 00       		.byte	0
 2109 002e 00       		.byte	0
 2110 002f 00       		.byte	0
 2111 0030 38       		.byte	56
 2112 0031 44       		.byte	68
 2113 0032 00       		.byte	0
 2114 0033 00       		.byte	0
 2115 0034 00       		.byte	0
 2116 0035 00       		.byte	0
 2117 0036 44       		.byte	68
 2118 0037 38       		.byte	56
 2119 0038 00       		.byte	0
 2120 0039 00       		.byte	0
 2121 003a 00       		.byte	0
 2122 003b 00       		.byte	0
 2123 003c 02       		.byte	2
 2124 003d 07       		.byte	7
 2125 003e 02       		.byte	2
 2126 003f 00       		.byte	0
 2127 0040 00       		.byte	0
 2128 0041 00       		.byte	0
 2129 0042 10       		.byte	16
 2130 0043 10       		.byte	16
 2131 0044 7C       		.byte	124
 2132 0045 10       		.byte	16
 2133 0046 10       		.byte	16
 2134 0047 00       		.byte	0
 2135 0048 C0       		.byte	-64
 2136 0049 00       		.byte	0
 2137 004a 00       		.byte	0
 2138 004b 00       		.byte	0
 2139 004c 00       		.byte	0
 2140 004d 00       		.byte	0
 2141 004e 10       		.byte	16
 2142 004f 10       		.byte	16
 2143 0050 10       		.byte	16
 2144 0051 10       		.byte	16
 2145 0052 10       		.byte	16
 2146 0053 00       		.byte	0
ARM GAS  D:\Temp\ccwKYSvy.s 			page 50


 2147 0054 40       		.byte	64
 2148 0055 00       		.byte	0
 2149 0056 00       		.byte	0
 2150 0057 00       		.byte	0
 2151 0058 00       		.byte	0
 2152 0059 00       		.byte	0
 2153 005a 60       		.byte	96
 2154 005b 10       		.byte	16
 2155 005c 0C       		.byte	12
 2156 005d 00       		.byte	0
 2157 005e 00       		.byte	0
 2158 005f 00       		.byte	0
 2159 0060 7C       		.byte	124
 2160 0061 64       		.byte	100
 2161 0062 54       		.byte	84
 2162 0063 4C       		.byte	76
 2163 0064 7C       		.byte	124
 2164 0065 00       		.byte	0
 2165 0066 48       		.byte	72
 2166 0067 7C       		.byte	124
 2167 0068 40       		.byte	64
 2168 0069 00       		.byte	0
 2169 006a 00       		.byte	0
 2170 006b 00       		.byte	0
 2171 006c 64       		.byte	100
 2172 006d 54       		.byte	84
 2173 006e 54       		.byte	84
 2174 006f 54       		.byte	84
 2175 0070 48       		.byte	72
 2176 0071 00       		.byte	0
 2177 0072 44       		.byte	68
 2178 0073 54       		.byte	84
 2179 0074 54       		.byte	84
 2180 0075 54       		.byte	84
 2181 0076 6C       		.byte	108
 2182 0077 00       		.byte	0
 2183 0078 3C       		.byte	60
 2184 0079 20       		.byte	32
 2185 007a 70       		.byte	112
 2186 007b 20       		.byte	32
 2187 007c 20       		.byte	32
 2188 007d 00       		.byte	0
 2189 007e 5C       		.byte	92
 2190 007f 54       		.byte	84
 2191 0080 54       		.byte	84
 2192 0081 54       		.byte	84
 2193 0082 24       		.byte	36
 2194 0083 00       		.byte	0
 2195 0084 7C       		.byte	124
 2196 0085 54       		.byte	84
 2197 0086 54       		.byte	84
 2198 0087 54       		.byte	84
 2199 0088 74       		.byte	116
 2200 0089 00       		.byte	0
 2201 008a 04       		.byte	4
 2202 008b 04       		.byte	4
 2203 008c 64       		.byte	100
ARM GAS  D:\Temp\ccwKYSvy.s 			page 51


 2204 008d 14       		.byte	20
 2205 008e 0C       		.byte	12
 2206 008f 00       		.byte	0
 2207 0090 7C       		.byte	124
 2208 0091 54       		.byte	84
 2209 0092 54       		.byte	84
 2210 0093 54       		.byte	84
 2211 0094 7C       		.byte	124
 2212 0095 00       		.byte	0
 2213 0096 5C       		.byte	92
 2214 0097 54       		.byte	84
 2215 0098 54       		.byte	84
 2216 0099 54       		.byte	84
 2217 009a 7C       		.byte	124
 2218 009b 00       		.byte	0
 2219 009c 44       		.byte	68
 2220 009d 00       		.byte	0
 2221 009e 00       		.byte	0
 2222 009f 00       		.byte	0
 2223 00a0 00       		.byte	0
 2224 00a1 00       		.byte	0
 2225 00a2 C4       		.byte	-60
 2226 00a3 00       		.byte	0
 2227 00a4 00       		.byte	0
 2228 00a5 00       		.byte	0
 2229 00a6 00       		.byte	0
 2230 00a7 00       		.byte	0
 2231 00a8 10       		.byte	16
 2232 00a9 28       		.byte	40
 2233 00aa 44       		.byte	68
 2234 00ab 00       		.byte	0
 2235 00ac 00       		.byte	0
 2236 00ad 00       		.byte	0
 2237 00ae 28       		.byte	40
 2238 00af 28       		.byte	40
 2239 00b0 28       		.byte	40
 2240 00b1 28       		.byte	40
 2241 00b2 28       		.byte	40
 2242 00b3 00       		.byte	0
 2243 00b4 44       		.byte	68
 2244 00b5 28       		.byte	40
 2245 00b6 10       		.byte	16
 2246 00b7 00       		.byte	0
 2247 00b8 00       		.byte	0
 2248 00b9 00       		.byte	0
 2249 00ba 08       		.byte	8
 2250 00bb 04       		.byte	4
 2251 00bc 54       		.byte	84
 2252 00bd 08       		.byte	8
 2253 00be 00       		.byte	0
 2254 00bf 00       		.byte	0
 2255 00c0 7C       		.byte	124
 2256 00c1 44       		.byte	68
 2257 00c2 54       		.byte	84
 2258 00c3 54       		.byte	84
 2259 00c4 5C       		.byte	92
 2260 00c5 00       		.byte	0
ARM GAS  D:\Temp\ccwKYSvy.s 			page 52


 2261 00c6 7C       		.byte	124
 2262 00c7 24       		.byte	36
 2263 00c8 24       		.byte	36
 2264 00c9 24       		.byte	36
 2265 00ca 7C       		.byte	124
 2266 00cb 00       		.byte	0
 2267 00cc 7C       		.byte	124
 2268 00cd 54       		.byte	84
 2269 00ce 54       		.byte	84
 2270 00cf 54       		.byte	84
 2271 00d0 6C       		.byte	108
 2272 00d1 00       		.byte	0
 2273 00d2 7C       		.byte	124
 2274 00d3 44       		.byte	68
 2275 00d4 44       		.byte	68
 2276 00d5 44       		.byte	68
 2277 00d6 44       		.byte	68
 2278 00d7 00       		.byte	0
 2279 00d8 7C       		.byte	124
 2280 00d9 44       		.byte	68
 2281 00da 44       		.byte	68
 2282 00db 44       		.byte	68
 2283 00dc 38       		.byte	56
 2284 00dd 00       		.byte	0
 2285 00de 7C       		.byte	124
 2286 00df 54       		.byte	84
 2287 00e0 54       		.byte	84
 2288 00e1 54       		.byte	84
 2289 00e2 44       		.byte	68
 2290 00e3 00       		.byte	0
 2291 00e4 7C       		.byte	124
 2292 00e5 14       		.byte	20
 2293 00e6 14       		.byte	20
 2294 00e7 14       		.byte	20
 2295 00e8 04       		.byte	4
 2296 00e9 00       		.byte	0
 2297 00ea 7C       		.byte	124
 2298 00eb 44       		.byte	68
 2299 00ec 44       		.byte	68
 2300 00ed 54       		.byte	84
 2301 00ee 74       		.byte	116
 2302 00ef 00       		.byte	0
 2303 00f0 7C       		.byte	124
 2304 00f1 10       		.byte	16
 2305 00f2 10       		.byte	16
 2306 00f3 10       		.byte	16
 2307 00f4 7C       		.byte	124
 2308 00f5 00       		.byte	0
 2309 00f6 44       		.byte	68
 2310 00f7 44       		.byte	68
 2311 00f8 7C       		.byte	124
 2312 00f9 44       		.byte	68
 2313 00fa 44       		.byte	68
 2314 00fb 00       		.byte	0
 2315 00fc 60       		.byte	96
 2316 00fd 40       		.byte	64
 2317 00fe 40       		.byte	64
ARM GAS  D:\Temp\ccwKYSvy.s 			page 53


 2318 00ff 44       		.byte	68
 2319 0100 7C       		.byte	124
 2320 0101 00       		.byte	0
 2321 0102 7C       		.byte	124
 2322 0103 10       		.byte	16
 2323 0104 10       		.byte	16
 2324 0105 28       		.byte	40
 2325 0106 44       		.byte	68
 2326 0107 00       		.byte	0
 2327 0108 7C       		.byte	124
 2328 0109 40       		.byte	64
 2329 010a 40       		.byte	64
 2330 010b 40       		.byte	64
 2331 010c 40       		.byte	64
 2332 010d 00       		.byte	0
 2333 010e 7C       		.byte	124
 2334 010f 08       		.byte	8
 2335 0110 10       		.byte	16
 2336 0111 08       		.byte	8
 2337 0112 7C       		.byte	124
 2338 0113 00       		.byte	0
 2339 0114 7C       		.byte	124
 2340 0115 08       		.byte	8
 2341 0116 10       		.byte	16
 2342 0117 20       		.byte	32
 2343 0118 7C       		.byte	124
 2344 0119 00       		.byte	0
 2345 011a 38       		.byte	56
 2346 011b 44       		.byte	68
 2347 011c 44       		.byte	68
 2348 011d 44       		.byte	68
 2349 011e 38       		.byte	56
 2350 011f 00       		.byte	0
 2351 0120 7C       		.byte	124
 2352 0121 14       		.byte	20
 2353 0122 14       		.byte	20
 2354 0123 14       		.byte	20
 2355 0124 08       		.byte	8
 2356 0125 00       		.byte	0
 2357 0126 3C       		.byte	60
 2358 0127 24       		.byte	36
 2359 0128 64       		.byte	100
 2360 0129 24       		.byte	36
 2361 012a 3C       		.byte	60
 2362 012b 00       		.byte	0
 2363 012c 7C       		.byte	124
 2364 012d 14       		.byte	20
 2365 012e 14       		.byte	20
 2366 012f 14       		.byte	20
 2367 0130 68       		.byte	104
 2368 0131 00       		.byte	0
 2369 0132 5C       		.byte	92
 2370 0133 54       		.byte	84
 2371 0134 54       		.byte	84
 2372 0135 54       		.byte	84
 2373 0136 74       		.byte	116
 2374 0137 00       		.byte	0
ARM GAS  D:\Temp\ccwKYSvy.s 			page 54


 2375 0138 04       		.byte	4
 2376 0139 04       		.byte	4
 2377 013a 7C       		.byte	124
 2378 013b 04       		.byte	4
 2379 013c 04       		.byte	4
 2380 013d 00       		.byte	0
 2381 013e 7C       		.byte	124
 2382 013f 40       		.byte	64
 2383 0140 40       		.byte	64
 2384 0141 40       		.byte	64
 2385 0142 7C       		.byte	124
 2386 0143 00       		.byte	0
 2387 0144 0C       		.byte	12
 2388 0145 30       		.byte	48
 2389 0146 40       		.byte	64
 2390 0147 30       		.byte	48
 2391 0148 0C       		.byte	12
 2392 0149 00       		.byte	0
 2393 014a 3C       		.byte	60
 2394 014b 40       		.byte	64
 2395 014c 30       		.byte	48
 2396 014d 40       		.byte	64
 2397 014e 3C       		.byte	60
 2398 014f 00       		.byte	0
 2399 0150 44       		.byte	68
 2400 0151 28       		.byte	40
 2401 0152 10       		.byte	16
 2402 0153 28       		.byte	40
 2403 0154 44       		.byte	68
 2404 0155 00       		.byte	0
 2405 0156 0C       		.byte	12
 2406 0157 10       		.byte	16
 2407 0158 60       		.byte	96
 2408 0159 10       		.byte	16
 2409 015a 0C       		.byte	12
 2410 015b 00       		.byte	0
 2411 015c 44       		.byte	68
 2412 015d 64       		.byte	100
 2413 015e 54       		.byte	84
 2414 015f 4C       		.byte	76
 2415 0160 44       		.byte	68
 2416 0161 00       		.byte	0
 2417 0162 7C       		.byte	124
 2418 0163 44       		.byte	68
 2419 0164 00       		.byte	0
 2420 0165 00       		.byte	0
 2421 0166 00       		.byte	0
 2422 0167 00       		.byte	0
 2423 0168 0C       		.byte	12
 2424 0169 10       		.byte	16
 2425 016a 60       		.byte	96
 2426 016b 00       		.byte	0
 2427 016c 00       		.byte	0
 2428 016d 00       		.byte	0
 2429 016e 44       		.byte	68
 2430 016f 7C       		.byte	124
 2431 0170 00       		.byte	0
ARM GAS  D:\Temp\ccwKYSvy.s 			page 55


 2432 0171 00       		.byte	0
 2433 0172 00       		.byte	0
 2434 0173 00       		.byte	0
 2435 0174 00       		.byte	0
 2436 0175 01       		.byte	1
 2437 0176 00       		.byte	0
 2438 0177 01       		.byte	1
 2439 0178 00       		.byte	0
 2440 0179 00       		.byte	0
 2441 017a 40       		.byte	64
 2442 017b 40       		.byte	64
 2443 017c 40       		.byte	64
 2444 017d 40       		.byte	64
 2445 017e 40       		.byte	64
 2446 017f 40       		.byte	64
 2447 0180 00       		.byte	0
 2448 0181 01       		.byte	1
 2449 0182 00       		.byte	0
 2450 0183 00       		.byte	0
 2451 0184 00       		.byte	0
 2452 0185 00       		.byte	0
 2453 0186 7C       		.byte	124
 2454 0187 24       		.byte	36
 2455 0188 24       		.byte	36
 2456 0189 24       		.byte	36
 2457 018a 7C       		.byte	124
 2458 018b 00       		.byte	0
 2459 018c 7C       		.byte	124
 2460 018d 54       		.byte	84
 2461 018e 54       		.byte	84
 2462 018f 54       		.byte	84
 2463 0190 6C       		.byte	108
 2464 0191 00       		.byte	0
 2465 0192 7C       		.byte	124
 2466 0193 44       		.byte	68
 2467 0194 44       		.byte	68
 2468 0195 44       		.byte	68
 2469 0196 44       		.byte	68
 2470 0197 00       		.byte	0
 2471 0198 7C       		.byte	124
 2472 0199 44       		.byte	68
 2473 019a 44       		.byte	68
 2474 019b 44       		.byte	68
 2475 019c 38       		.byte	56
 2476 019d 00       		.byte	0
 2477 019e 7C       		.byte	124
 2478 019f 54       		.byte	84
 2479 01a0 54       		.byte	84
 2480 01a1 54       		.byte	84
 2481 01a2 44       		.byte	68
 2482 01a3 00       		.byte	0
 2483 01a4 7C       		.byte	124
 2484 01a5 14       		.byte	20
 2485 01a6 14       		.byte	20
 2486 01a7 14       		.byte	20
 2487 01a8 04       		.byte	4
 2488 01a9 00       		.byte	0
ARM GAS  D:\Temp\ccwKYSvy.s 			page 56


 2489 01aa 7C       		.byte	124
 2490 01ab 44       		.byte	68
 2491 01ac 44       		.byte	68
 2492 01ad 54       		.byte	84
 2493 01ae 74       		.byte	116
 2494 01af 00       		.byte	0
 2495 01b0 7C       		.byte	124
 2496 01b1 10       		.byte	16
 2497 01b2 10       		.byte	16
 2498 01b3 10       		.byte	16
 2499 01b4 7C       		.byte	124
 2500 01b5 00       		.byte	0
 2501 01b6 44       		.byte	68
 2502 01b7 44       		.byte	68
 2503 01b8 7C       		.byte	124
 2504 01b9 44       		.byte	68
 2505 01ba 44       		.byte	68
 2506 01bb 00       		.byte	0
 2507 01bc 60       		.byte	96
 2508 01bd 40       		.byte	64
 2509 01be 40       		.byte	64
 2510 01bf 44       		.byte	68
 2511 01c0 7C       		.byte	124
 2512 01c1 00       		.byte	0
 2513 01c2 7C       		.byte	124
 2514 01c3 10       		.byte	16
 2515 01c4 10       		.byte	16
 2516 01c5 28       		.byte	40
 2517 01c6 44       		.byte	68
 2518 01c7 00       		.byte	0
 2519 01c8 7C       		.byte	124
 2520 01c9 40       		.byte	64
 2521 01ca 40       		.byte	64
 2522 01cb 40       		.byte	64
 2523 01cc 40       		.byte	64
 2524 01cd 00       		.byte	0
 2525 01ce 7C       		.byte	124
 2526 01cf 08       		.byte	8
 2527 01d0 10       		.byte	16
 2528 01d1 08       		.byte	8
 2529 01d2 7C       		.byte	124
 2530 01d3 00       		.byte	0
 2531 01d4 7C       		.byte	124
 2532 01d5 08       		.byte	8
 2533 01d6 10       		.byte	16
 2534 01d7 20       		.byte	32
 2535 01d8 7C       		.byte	124
 2536 01d9 00       		.byte	0
 2537 01da 38       		.byte	56
 2538 01db 44       		.byte	68
 2539 01dc 44       		.byte	68
 2540 01dd 44       		.byte	68
 2541 01de 38       		.byte	56
 2542 01df 00       		.byte	0
 2543 01e0 7C       		.byte	124
 2544 01e1 14       		.byte	20
 2545 01e2 14       		.byte	20
ARM GAS  D:\Temp\ccwKYSvy.s 			page 57


 2546 01e3 14       		.byte	20
 2547 01e4 08       		.byte	8
 2548 01e5 00       		.byte	0
 2549 01e6 3C       		.byte	60
 2550 01e7 24       		.byte	36
 2551 01e8 64       		.byte	100
 2552 01e9 24       		.byte	36
 2553 01ea 3C       		.byte	60
 2554 01eb 00       		.byte	0
 2555 01ec 7C       		.byte	124
 2556 01ed 14       		.byte	20
 2557 01ee 14       		.byte	20
 2558 01ef 14       		.byte	20
 2559 01f0 68       		.byte	104
 2560 01f1 00       		.byte	0
 2561 01f2 5C       		.byte	92
 2562 01f3 54       		.byte	84
 2563 01f4 54       		.byte	84
 2564 01f5 54       		.byte	84
 2565 01f6 74       		.byte	116
 2566 01f7 00       		.byte	0
 2567 01f8 04       		.byte	4
 2568 01f9 04       		.byte	4
 2569 01fa 7C       		.byte	124
 2570 01fb 04       		.byte	4
 2571 01fc 04       		.byte	4
 2572 01fd 00       		.byte	0
 2573 01fe 7C       		.byte	124
 2574 01ff 40       		.byte	64
 2575 0200 40       		.byte	64
 2576 0201 40       		.byte	64
 2577 0202 7C       		.byte	124
 2578 0203 00       		.byte	0
 2579 0204 0C       		.byte	12
 2580 0205 30       		.byte	48
 2581 0206 40       		.byte	64
 2582 0207 30       		.byte	48
 2583 0208 0C       		.byte	12
 2584 0209 00       		.byte	0
 2585 020a 3C       		.byte	60
 2586 020b 40       		.byte	64
 2587 020c 30       		.byte	48
 2588 020d 40       		.byte	64
 2589 020e 3C       		.byte	60
 2590 020f 00       		.byte	0
 2591 0210 44       		.byte	68
 2592 0211 28       		.byte	40
 2593 0212 10       		.byte	16
 2594 0213 28       		.byte	40
 2595 0214 44       		.byte	68
 2596 0215 00       		.byte	0
 2597 0216 0C       		.byte	12
 2598 0217 10       		.byte	16
 2599 0218 60       		.byte	96
 2600 0219 10       		.byte	16
 2601 021a 0C       		.byte	12
 2602 021b 00       		.byte	0
ARM GAS  D:\Temp\ccwKYSvy.s 			page 58


 2603 021c 44       		.byte	68
 2604 021d 64       		.byte	100
 2605 021e 54       		.byte	84
 2606 021f 4C       		.byte	76
 2607 0220 44       		.byte	68
 2608 0221 00       		.byte	0
 2609 0222 10       		.byte	16
 2610 0223 7C       		.byte	124
 2611 0224 44       		.byte	68
 2612 0225 00       		.byte	0
 2613 0226 00       		.byte	0
 2614 0227 00       		.byte	0
 2615 0228 6C       		.byte	108
 2616 0229 00       		.byte	0
 2617 022a 00       		.byte	0
 2618 022b 00       		.byte	0
 2619 022c 00       		.byte	0
 2620 022d 00       		.byte	0
 2621 022e 44       		.byte	68
 2622 022f 7C       		.byte	124
 2623 0230 10       		.byte	16
 2624 0231 00       		.byte	0
 2625 0232 00       		.byte	0
 2626 0233 00       		.byte	0
 2627 0234 02       		.byte	2
 2628 0235 01       		.byte	1
 2629 0236 02       		.byte	2
 2630 0237 01       		.byte	1
 2631 0238 00       		.byte	0
 2632 0239 00       		.byte	0
 2633 023a 00       		.byte	0
 2634 023b 00       		.byte	0
 2635 023c 00       		.byte	0
 2636 023d 00       		.byte	0
 2637 023e 00       		.byte	0
 2638 023f 00       		.byte	0
 2639              		.text
 2640              	.Letext0:
 2641              		.file 2 "c:\\stm32\\gnu mcu eclipse\\arm embedded gcc\\8.2.1-1.4-20190214-0604\\arm-none-eabi\\inc
 2642              		.file 3 "c:\\stm32\\gnu mcu eclipse\\arm embedded gcc\\8.2.1-1.4-20190214-0604\\arm-none-eabi\\inc
 2643              		.file 4 "Drivers/CMSIS/Include/core_cm4.h"
 2644              		.file 5 "Drivers/CMSIS/Device/ST/STM32F4xx/Include/system_stm32f4xx.h"
 2645              		.file 6 "Drivers/CMSIS/Device/ST/STM32F4xx/Include/stm32f407xx.h"
 2646              		.file 7 "Drivers/STM32F4xx_HAL_Driver/Inc/stm32f4xx_hal_def.h"
 2647              		.file 8 "Drivers/STM32F4xx_HAL_Driver/Inc/stm32f4xx_hal_dma.h"
 2648              		.file 9 "Drivers/STM32F4xx_HAL_Driver/Inc/stm32f4xx_hal_rng.h"
 2649              		.file 10 "Drivers/STM32F4xx_HAL_Driver/Inc/stm32f4xx_hal.h"
 2650              		.file 11 "Drivers/LCD/ILI9341/ILI9341_GFX.h"
 2651              		.file 12 "Drivers/LCD/ILI9341/5x5_font.h"
 2652              		.file 13 "Drivers/LCD/ILI9341/ILI9341_STM32_Driver.h"
ARM GAS  D:\Temp\ccwKYSvy.s 			page 59

