ARM GAS  D:\Temp\ccOOHxmt.s 			page 1


   1              		.cpu cortex-m4
   2              		.eabi_attribute 27, 1
   3              		.eabi_attribute 28, 1
   4              		.eabi_attribute 20, 1
   5              		.eabi_attribute 21, 1
   6              		.eabi_attribute 23, 3
   7              		.eabi_attribute 24, 1
   8              		.eabi_attribute 25, 1
   9              		.eabi_attribute 26, 1
  10              		.eabi_attribute 30, 1
  11              		.eabi_attribute 34, 1
  12              		.eabi_attribute 18, 4
  13              		.file	"lv_arc.c"
  14              		.text
  15              	.Ltext0:
  16              		.cfi_sections	.debug_frame
  17              		.section	.text.lv_arc_get_style,"ax",%progbits
  18              		.align	1
  19              		.arch armv7e-m
  20              		.syntax unified
  21              		.thumb
  22              		.thumb_func
  23              		.fpu fpv4-sp-d16
  25              	lv_arc_get_style:
  26              	.LVL0:
  27              	.LFB483:
  28              		.file 1 "lvgl/src/lv_widgets/lv_arc.c"
   1:lvgl/src/lv_widgets/lv_arc.c **** /**
   2:lvgl/src/lv_widgets/lv_arc.c ****  * @file lv_arc.c
   3:lvgl/src/lv_widgets/lv_arc.c ****  *
   4:lvgl/src/lv_widgets/lv_arc.c ****  */
   5:lvgl/src/lv_widgets/lv_arc.c **** 
   6:lvgl/src/lv_widgets/lv_arc.c **** /*********************
   7:lvgl/src/lv_widgets/lv_arc.c ****  *      INCLUDES
   8:lvgl/src/lv_widgets/lv_arc.c ****  *********************/
   9:lvgl/src/lv_widgets/lv_arc.c **** #include "lv_arc.h"
  10:lvgl/src/lv_widgets/lv_arc.c **** #if LV_USE_ARC != 0
  11:lvgl/src/lv_widgets/lv_arc.c **** 
  12:lvgl/src/lv_widgets/lv_arc.c **** #include "../lv_core/lv_group.h"
  13:lvgl/src/lv_widgets/lv_arc.c **** #include "../lv_core/lv_indev.h"
  14:lvgl/src/lv_widgets/lv_arc.c **** #include "../lv_misc/lv_debug.h"
  15:lvgl/src/lv_widgets/lv_arc.c **** #include "../lv_misc/lv_math.h"
  16:lvgl/src/lv_widgets/lv_arc.c **** #include "../lv_draw/lv_draw_arc.h"
  17:lvgl/src/lv_widgets/lv_arc.c **** #include "../lv_themes/lv_theme.h"
  18:lvgl/src/lv_widgets/lv_arc.c **** 
  19:lvgl/src/lv_widgets/lv_arc.c **** /*********************
  20:lvgl/src/lv_widgets/lv_arc.c ****  *      DEFINES
  21:lvgl/src/lv_widgets/lv_arc.c ****  *********************/
  22:lvgl/src/lv_widgets/lv_arc.c **** #define LV_OBJX_NAME "lv_arc"
  23:lvgl/src/lv_widgets/lv_arc.c **** 
  24:lvgl/src/lv_widgets/lv_arc.c **** /**********************
  25:lvgl/src/lv_widgets/lv_arc.c ****  *      TYPEDEFS
  26:lvgl/src/lv_widgets/lv_arc.c ****  **********************/
  27:lvgl/src/lv_widgets/lv_arc.c **** 
  28:lvgl/src/lv_widgets/lv_arc.c **** /**********************
  29:lvgl/src/lv_widgets/lv_arc.c ****  *  STATIC PROTOTYPES
  30:lvgl/src/lv_widgets/lv_arc.c ****  **********************/
ARM GAS  D:\Temp\ccOOHxmt.s 			page 2


  31:lvgl/src/lv_widgets/lv_arc.c **** static lv_design_res_t lv_arc_design(lv_obj_t * arc, const lv_area_t * clip_area, lv_design_mode_t 
  32:lvgl/src/lv_widgets/lv_arc.c **** static lv_res_t lv_arc_signal(lv_obj_t * arc, lv_signal_t sign, void * param);
  33:lvgl/src/lv_widgets/lv_arc.c **** static lv_style_list_t * lv_arc_get_style(lv_obj_t * arc, uint8_t part);
  34:lvgl/src/lv_widgets/lv_arc.c **** static void inv_arc_area(lv_obj_t * arc, uint16_t start_angle, uint16_t end_angle, lv_arc_part_t pa
  35:lvgl/src/lv_widgets/lv_arc.c **** static void get_center(lv_obj_t * arc, lv_point_t * center, lv_coord_t * arc_r);
  36:lvgl/src/lv_widgets/lv_arc.c **** static void get_knob_area(lv_obj_t * arc, const lv_point_t * center, lv_coord_t r, lv_area_t * knob
  37:lvgl/src/lv_widgets/lv_arc.c **** static void value_update(lv_obj_t * arc);
  38:lvgl/src/lv_widgets/lv_arc.c **** 
  39:lvgl/src/lv_widgets/lv_arc.c **** /**********************
  40:lvgl/src/lv_widgets/lv_arc.c ****  *  STATIC VARIABLES
  41:lvgl/src/lv_widgets/lv_arc.c ****  **********************/
  42:lvgl/src/lv_widgets/lv_arc.c **** static lv_signal_cb_t ancestor_signal;
  43:lvgl/src/lv_widgets/lv_arc.c **** static lv_design_cb_t ancestor_design;
  44:lvgl/src/lv_widgets/lv_arc.c **** 
  45:lvgl/src/lv_widgets/lv_arc.c **** /**********************
  46:lvgl/src/lv_widgets/lv_arc.c ****  *      MACROS
  47:lvgl/src/lv_widgets/lv_arc.c ****  **********************/
  48:lvgl/src/lv_widgets/lv_arc.c **** 
  49:lvgl/src/lv_widgets/lv_arc.c **** /**********************
  50:lvgl/src/lv_widgets/lv_arc.c ****  *   GLOBAL FUNCTIONS
  51:lvgl/src/lv_widgets/lv_arc.c ****  **********************/
  52:lvgl/src/lv_widgets/lv_arc.c **** 
  53:lvgl/src/lv_widgets/lv_arc.c **** /**
  54:lvgl/src/lv_widgets/lv_arc.c ****  * Create a arc object
  55:lvgl/src/lv_widgets/lv_arc.c ****  * @param par pointer to an object, it will be the parent of the new arc
  56:lvgl/src/lv_widgets/lv_arc.c ****  * @param copy pointer to a arc object, if not NULL then the new object will be copied from it
  57:lvgl/src/lv_widgets/lv_arc.c ****  * @return pointer to the created arc
  58:lvgl/src/lv_widgets/lv_arc.c ****  */
  59:lvgl/src/lv_widgets/lv_arc.c **** lv_obj_t * lv_arc_create(lv_obj_t * par, const lv_obj_t * copy)
  60:lvgl/src/lv_widgets/lv_arc.c **** {
  61:lvgl/src/lv_widgets/lv_arc.c **** 
  62:lvgl/src/lv_widgets/lv_arc.c ****     LV_LOG_TRACE("arc create started");
  63:lvgl/src/lv_widgets/lv_arc.c **** 
  64:lvgl/src/lv_widgets/lv_arc.c ****     /*Create the ancestor of arc*/
  65:lvgl/src/lv_widgets/lv_arc.c ****     lv_obj_t * arc = lv_obj_create(par, copy);
  66:lvgl/src/lv_widgets/lv_arc.c ****     LV_ASSERT_MEM(arc);
  67:lvgl/src/lv_widgets/lv_arc.c ****     if(arc == NULL) return NULL;
  68:lvgl/src/lv_widgets/lv_arc.c **** 
  69:lvgl/src/lv_widgets/lv_arc.c ****     /*Allocate the arc type specific extended data*/
  70:lvgl/src/lv_widgets/lv_arc.c ****     lv_arc_ext_t * ext = lv_obj_allocate_ext_attr(arc, sizeof(lv_arc_ext_t));
  71:lvgl/src/lv_widgets/lv_arc.c ****     LV_ASSERT_MEM(ext);
  72:lvgl/src/lv_widgets/lv_arc.c ****     if(ext == NULL) {
  73:lvgl/src/lv_widgets/lv_arc.c ****         lv_obj_del(arc);
  74:lvgl/src/lv_widgets/lv_arc.c ****         return NULL;
  75:lvgl/src/lv_widgets/lv_arc.c ****     }
  76:lvgl/src/lv_widgets/lv_arc.c **** 
  77:lvgl/src/lv_widgets/lv_arc.c ****     if(ancestor_signal == NULL) ancestor_signal = lv_obj_get_signal_cb(arc);
  78:lvgl/src/lv_widgets/lv_arc.c ****     if(ancestor_design == NULL) ancestor_design = lv_obj_get_design_cb(arc);
  79:lvgl/src/lv_widgets/lv_arc.c **** 
  80:lvgl/src/lv_widgets/lv_arc.c ****     /*Initialize the allocated 'ext' */
  81:lvgl/src/lv_widgets/lv_arc.c ****     ext->rotation_angle = 0;
  82:lvgl/src/lv_widgets/lv_arc.c ****     ext->bg_angle_start = 135;
  83:lvgl/src/lv_widgets/lv_arc.c ****     ext->bg_angle_end   = 45;
  84:lvgl/src/lv_widgets/lv_arc.c ****     ext->arc_angle_start = 135;
  85:lvgl/src/lv_widgets/lv_arc.c ****     ext->arc_angle_end   = 270;
  86:lvgl/src/lv_widgets/lv_arc.c ****     ext->type = LV_ARC_TYPE_NORMAL;
  87:lvgl/src/lv_widgets/lv_arc.c ****     ext->cur_value = -1;
ARM GAS  D:\Temp\ccOOHxmt.s 			page 3


  88:lvgl/src/lv_widgets/lv_arc.c ****     ext->min_close = 1;
  89:lvgl/src/lv_widgets/lv_arc.c ****     ext->min_value = 0;
  90:lvgl/src/lv_widgets/lv_arc.c ****     ext->max_value = 100;
  91:lvgl/src/lv_widgets/lv_arc.c ****     ext->dragging = false;
  92:lvgl/src/lv_widgets/lv_arc.c ****     ext->adjustable = false;
  93:lvgl/src/lv_widgets/lv_arc.c ****     ext->chg_rate = 540;
  94:lvgl/src/lv_widgets/lv_arc.c ****     ext->last_tick = lv_tick_get();
  95:lvgl/src/lv_widgets/lv_arc.c ****     ext->last_angle = ext->arc_angle_end;
  96:lvgl/src/lv_widgets/lv_arc.c ****     lv_style_list_init(&ext->style_arc);
  97:lvgl/src/lv_widgets/lv_arc.c ****     lv_style_list_init(&ext->style_knob);
  98:lvgl/src/lv_widgets/lv_arc.c **** 
  99:lvgl/src/lv_widgets/lv_arc.c ****     lv_obj_set_size(arc, LV_DPI, LV_DPI);
 100:lvgl/src/lv_widgets/lv_arc.c **** 
 101:lvgl/src/lv_widgets/lv_arc.c ****     /*The signal and design functions are not copied so set them here*/
 102:lvgl/src/lv_widgets/lv_arc.c ****     lv_obj_set_signal_cb(arc, lv_arc_signal);
 103:lvgl/src/lv_widgets/lv_arc.c ****     lv_obj_set_design_cb(arc, lv_arc_design);
 104:lvgl/src/lv_widgets/lv_arc.c **** 
 105:lvgl/src/lv_widgets/lv_arc.c ****     /*Init the new arc arc*/
 106:lvgl/src/lv_widgets/lv_arc.c ****     if(copy == NULL) {
 107:lvgl/src/lv_widgets/lv_arc.c ****         lv_obj_set_click(arc, true);
 108:lvgl/src/lv_widgets/lv_arc.c ****         lv_obj_add_protect(arc, LV_PROTECT_PRESS_LOST);
 109:lvgl/src/lv_widgets/lv_arc.c ****         lv_obj_set_ext_click_area(arc, LV_DPI / 10, LV_DPI / 10, LV_DPI / 10, LV_DPI / 10);
 110:lvgl/src/lv_widgets/lv_arc.c ****         lv_arc_set_value(arc, ext->min_value);
 111:lvgl/src/lv_widgets/lv_arc.c ****         lv_theme_apply(arc, LV_THEME_ARC);
 112:lvgl/src/lv_widgets/lv_arc.c ****     }
 113:lvgl/src/lv_widgets/lv_arc.c ****     /*Copy an existing arc*/
 114:lvgl/src/lv_widgets/lv_arc.c ****     else {
 115:lvgl/src/lv_widgets/lv_arc.c ****         lv_arc_ext_t * copy_ext = lv_obj_get_ext_attr(copy);
 116:lvgl/src/lv_widgets/lv_arc.c ****         ext->arc_angle_start = copy_ext->arc_angle_start;
 117:lvgl/src/lv_widgets/lv_arc.c ****         ext->arc_angle_end   = copy_ext->arc_angle_end;
 118:lvgl/src/lv_widgets/lv_arc.c ****         ext->bg_angle_start  = copy_ext->bg_angle_start;
 119:lvgl/src/lv_widgets/lv_arc.c ****         ext->bg_angle_end    = copy_ext->bg_angle_end;
 120:lvgl/src/lv_widgets/lv_arc.c ****         ext->type = copy_ext->type;
 121:lvgl/src/lv_widgets/lv_arc.c ****         ext->cur_value = copy_ext->cur_value;
 122:lvgl/src/lv_widgets/lv_arc.c ****         ext->min_value = copy_ext->min_value;
 123:lvgl/src/lv_widgets/lv_arc.c ****         ext->max_value = copy_ext->max_value;
 124:lvgl/src/lv_widgets/lv_arc.c ****         ext->dragging = copy_ext->dragging;
 125:lvgl/src/lv_widgets/lv_arc.c ****         ext->adjustable = copy_ext->adjustable;
 126:lvgl/src/lv_widgets/lv_arc.c ****         ext->chg_rate = copy_ext->chg_rate;
 127:lvgl/src/lv_widgets/lv_arc.c ****         ext->last_tick = copy_ext->last_tick;
 128:lvgl/src/lv_widgets/lv_arc.c ****         ext->last_angle = copy_ext->last_angle;
 129:lvgl/src/lv_widgets/lv_arc.c ****         lv_style_list_copy(&ext->style_knob, &copy_ext->style_knob);
 130:lvgl/src/lv_widgets/lv_arc.c ****         lv_style_list_copy(&ext->style_arc, &copy_ext->style_arc);
 131:lvgl/src/lv_widgets/lv_arc.c **** 
 132:lvgl/src/lv_widgets/lv_arc.c ****         /*Refresh the style with new signal function*/
 133:lvgl/src/lv_widgets/lv_arc.c ****         lv_obj_refresh_style(arc, LV_OBJ_PART_ALL, LV_STYLE_PROP_ALL);
 134:lvgl/src/lv_widgets/lv_arc.c ****     }
 135:lvgl/src/lv_widgets/lv_arc.c **** 
 136:lvgl/src/lv_widgets/lv_arc.c ****     LV_LOG_INFO("arc created");
 137:lvgl/src/lv_widgets/lv_arc.c **** 
 138:lvgl/src/lv_widgets/lv_arc.c ****     return arc;
 139:lvgl/src/lv_widgets/lv_arc.c **** }
 140:lvgl/src/lv_widgets/lv_arc.c **** 
 141:lvgl/src/lv_widgets/lv_arc.c **** /*======================
 142:lvgl/src/lv_widgets/lv_arc.c ****  * Add/remove functions
 143:lvgl/src/lv_widgets/lv_arc.c ****  *=====================*/
 144:lvgl/src/lv_widgets/lv_arc.c **** 
ARM GAS  D:\Temp\ccOOHxmt.s 			page 4


 145:lvgl/src/lv_widgets/lv_arc.c **** /*
 146:lvgl/src/lv_widgets/lv_arc.c ****  * New object specific "add" or "remove" functions come here
 147:lvgl/src/lv_widgets/lv_arc.c ****  */
 148:lvgl/src/lv_widgets/lv_arc.c **** 
 149:lvgl/src/lv_widgets/lv_arc.c **** /*=====================
 150:lvgl/src/lv_widgets/lv_arc.c ****  * Setter functions
 151:lvgl/src/lv_widgets/lv_arc.c ****  *====================*/
 152:lvgl/src/lv_widgets/lv_arc.c **** 
 153:lvgl/src/lv_widgets/lv_arc.c **** /**
 154:lvgl/src/lv_widgets/lv_arc.c ****  * Set the start angle of an arc. 0 deg: right, 90 bottom, etc.
 155:lvgl/src/lv_widgets/lv_arc.c ****  * @param arc pointer to an arc object
 156:lvgl/src/lv_widgets/lv_arc.c ****  * @param start the start angle [0..360]
 157:lvgl/src/lv_widgets/lv_arc.c ****  */
 158:lvgl/src/lv_widgets/lv_arc.c **** void lv_arc_set_start_angle(lv_obj_t * arc, uint16_t start)
 159:lvgl/src/lv_widgets/lv_arc.c **** {
 160:lvgl/src/lv_widgets/lv_arc.c ****     LV_ASSERT_OBJ(arc, LV_OBJX_NAME);
 161:lvgl/src/lv_widgets/lv_arc.c **** 
 162:lvgl/src/lv_widgets/lv_arc.c ****     lv_arc_ext_t * ext = lv_obj_get_ext_attr(arc);
 163:lvgl/src/lv_widgets/lv_arc.c **** 
 164:lvgl/src/lv_widgets/lv_arc.c ****     if(start > 360) start -= 360;
 165:lvgl/src/lv_widgets/lv_arc.c **** 
 166:lvgl/src/lv_widgets/lv_arc.c ****     /*Too large move, the whole arc need to be invalidated anyway*/
 167:lvgl/src/lv_widgets/lv_arc.c ****     if(LV_MATH_ABS(start - ext->arc_angle_start) >= 180) {
 168:lvgl/src/lv_widgets/lv_arc.c ****         lv_obj_invalidate(arc);
 169:lvgl/src/lv_widgets/lv_arc.c ****     }
 170:lvgl/src/lv_widgets/lv_arc.c ****     /*Only a smaller incremental move*/
 171:lvgl/src/lv_widgets/lv_arc.c ****     else if(ext->arc_angle_start > ext->arc_angle_end && start > ext->arc_angle_end) {
 172:lvgl/src/lv_widgets/lv_arc.c ****         inv_arc_area(arc, LV_MATH_MIN(ext->arc_angle_start, start), LV_MATH_MAX(ext->arc_angle_star
 173:lvgl/src/lv_widgets/lv_arc.c ****                      LV_ARC_PART_INDIC);
 174:lvgl/src/lv_widgets/lv_arc.c ****     }
 175:lvgl/src/lv_widgets/lv_arc.c ****     /*Only a smaller incremental move*/
 176:lvgl/src/lv_widgets/lv_arc.c ****     else if(ext->arc_angle_start < ext->arc_angle_end && start < ext->arc_angle_end) {
 177:lvgl/src/lv_widgets/lv_arc.c ****         inv_arc_area(arc, LV_MATH_MIN(ext->arc_angle_start, start), LV_MATH_MAX(ext->arc_angle_star
 178:lvgl/src/lv_widgets/lv_arc.c ****                      LV_ARC_PART_INDIC);
 179:lvgl/src/lv_widgets/lv_arc.c ****     }
 180:lvgl/src/lv_widgets/lv_arc.c ****     /*Crossing the start angle makes the whole arc change*/
 181:lvgl/src/lv_widgets/lv_arc.c ****     else {
 182:lvgl/src/lv_widgets/lv_arc.c ****         lv_obj_invalidate(arc);
 183:lvgl/src/lv_widgets/lv_arc.c ****     }
 184:lvgl/src/lv_widgets/lv_arc.c **** 
 185:lvgl/src/lv_widgets/lv_arc.c ****     ext->arc_angle_start = start;
 186:lvgl/src/lv_widgets/lv_arc.c **** }
 187:lvgl/src/lv_widgets/lv_arc.c **** 
 188:lvgl/src/lv_widgets/lv_arc.c **** /**
 189:lvgl/src/lv_widgets/lv_arc.c ****  * Set the start angle of an arc. 0 deg: right, 90 bottom, etc.
 190:lvgl/src/lv_widgets/lv_arc.c ****  * @param arc pointer to an arc object
 191:lvgl/src/lv_widgets/lv_arc.c ****  * @param start the start angle [0..360]
 192:lvgl/src/lv_widgets/lv_arc.c ****  */
 193:lvgl/src/lv_widgets/lv_arc.c **** void lv_arc_set_end_angle(lv_obj_t * arc, uint16_t end)
 194:lvgl/src/lv_widgets/lv_arc.c **** {
 195:lvgl/src/lv_widgets/lv_arc.c ****     LV_ASSERT_OBJ(arc, LV_OBJX_NAME);
 196:lvgl/src/lv_widgets/lv_arc.c **** 
 197:lvgl/src/lv_widgets/lv_arc.c ****     lv_arc_ext_t * ext = lv_obj_get_ext_attr(arc);
 198:lvgl/src/lv_widgets/lv_arc.c **** 
 199:lvgl/src/lv_widgets/lv_arc.c ****     if(end > (ext->arc_angle_start + 360)) end = ext->arc_angle_start + 360;
 200:lvgl/src/lv_widgets/lv_arc.c **** 
 201:lvgl/src/lv_widgets/lv_arc.c ****     /*Too large move, the whole arc need to be invalidated anyway*/
ARM GAS  D:\Temp\ccOOHxmt.s 			page 5


 202:lvgl/src/lv_widgets/lv_arc.c ****     if(LV_MATH_ABS(end - ext->arc_angle_end) >= 180) {
 203:lvgl/src/lv_widgets/lv_arc.c ****         lv_obj_invalidate(arc);
 204:lvgl/src/lv_widgets/lv_arc.c ****     }
 205:lvgl/src/lv_widgets/lv_arc.c ****     /*Only a smaller incremental move*/
 206:lvgl/src/lv_widgets/lv_arc.c ****     else if(ext->arc_angle_end > ext->arc_angle_start && end > ext->arc_angle_start) {
 207:lvgl/src/lv_widgets/lv_arc.c ****         inv_arc_area(arc, LV_MATH_MIN(ext->arc_angle_end, end), LV_MATH_MAX(ext->arc_angle_end, end
 208:lvgl/src/lv_widgets/lv_arc.c ****     }
 209:lvgl/src/lv_widgets/lv_arc.c ****     /*Only a smaller incremental move*/
 210:lvgl/src/lv_widgets/lv_arc.c ****     else if(ext->arc_angle_end < ext->arc_angle_start && end < ext->arc_angle_start) {
 211:lvgl/src/lv_widgets/lv_arc.c ****         inv_arc_area(arc, LV_MATH_MIN(ext->arc_angle_end, end), LV_MATH_MAX(ext->arc_angle_end, end
 212:lvgl/src/lv_widgets/lv_arc.c ****     }
 213:lvgl/src/lv_widgets/lv_arc.c ****     /*Crossing the end angle makes the whole arc change*/
 214:lvgl/src/lv_widgets/lv_arc.c ****     else {
 215:lvgl/src/lv_widgets/lv_arc.c ****         lv_obj_invalidate(arc);
 216:lvgl/src/lv_widgets/lv_arc.c ****     }
 217:lvgl/src/lv_widgets/lv_arc.c **** 
 218:lvgl/src/lv_widgets/lv_arc.c ****     ext->arc_angle_end = end;
 219:lvgl/src/lv_widgets/lv_arc.c **** }
 220:lvgl/src/lv_widgets/lv_arc.c **** 
 221:lvgl/src/lv_widgets/lv_arc.c **** /**
 222:lvgl/src/lv_widgets/lv_arc.c ****  * Set the start and end angles
 223:lvgl/src/lv_widgets/lv_arc.c ****  * @param arc pointer to an arc object
 224:lvgl/src/lv_widgets/lv_arc.c ****  * @param start the start angle
 225:lvgl/src/lv_widgets/lv_arc.c ****  * @param end the end angle
 226:lvgl/src/lv_widgets/lv_arc.c ****  */
 227:lvgl/src/lv_widgets/lv_arc.c **** void lv_arc_set_angles(lv_obj_t * arc, uint16_t start, uint16_t end)
 228:lvgl/src/lv_widgets/lv_arc.c **** {
 229:lvgl/src/lv_widgets/lv_arc.c ****     LV_ASSERT_OBJ(arc, LV_OBJX_NAME);
 230:lvgl/src/lv_widgets/lv_arc.c **** 
 231:lvgl/src/lv_widgets/lv_arc.c ****     lv_arc_ext_t * ext = lv_obj_get_ext_attr(arc);
 232:lvgl/src/lv_widgets/lv_arc.c **** 
 233:lvgl/src/lv_widgets/lv_arc.c ****     if(start > 360) start -= 360;
 234:lvgl/src/lv_widgets/lv_arc.c ****     if(end > (start + 360)) end = start + 360;
 235:lvgl/src/lv_widgets/lv_arc.c **** 
 236:lvgl/src/lv_widgets/lv_arc.c ****     inv_arc_area(arc, ext->arc_angle_start, ext->arc_angle_end, LV_ARC_PART_INDIC);
 237:lvgl/src/lv_widgets/lv_arc.c **** 
 238:lvgl/src/lv_widgets/lv_arc.c ****     ext->arc_angle_start = start;
 239:lvgl/src/lv_widgets/lv_arc.c ****     ext->arc_angle_end = end;
 240:lvgl/src/lv_widgets/lv_arc.c **** 
 241:lvgl/src/lv_widgets/lv_arc.c ****     inv_arc_area(arc, ext->arc_angle_start, ext->arc_angle_end, LV_ARC_PART_INDIC);
 242:lvgl/src/lv_widgets/lv_arc.c **** }
 243:lvgl/src/lv_widgets/lv_arc.c **** 
 244:lvgl/src/lv_widgets/lv_arc.c **** /**
 245:lvgl/src/lv_widgets/lv_arc.c ****  * Set the start angle of an arc background. 0 deg: right, 90 bottom, etc.
 246:lvgl/src/lv_widgets/lv_arc.c ****  * @param arc pointer to an arc object
 247:lvgl/src/lv_widgets/lv_arc.c ****  * @param start the start angle
 248:lvgl/src/lv_widgets/lv_arc.c ****  */
 249:lvgl/src/lv_widgets/lv_arc.c **** void lv_arc_set_bg_start_angle(lv_obj_t * arc, uint16_t start)
 250:lvgl/src/lv_widgets/lv_arc.c **** {
 251:lvgl/src/lv_widgets/lv_arc.c ****     LV_ASSERT_OBJ(arc, LV_OBJX_NAME);
 252:lvgl/src/lv_widgets/lv_arc.c **** 
 253:lvgl/src/lv_widgets/lv_arc.c ****     lv_arc_ext_t * ext = lv_obj_get_ext_attr(arc);
 254:lvgl/src/lv_widgets/lv_arc.c **** 
 255:lvgl/src/lv_widgets/lv_arc.c ****     if(start > 360) start -= 360;
 256:lvgl/src/lv_widgets/lv_arc.c **** 
 257:lvgl/src/lv_widgets/lv_arc.c ****     /*Too large move, the whole arc need to be invalidated anyway*/
 258:lvgl/src/lv_widgets/lv_arc.c ****     if(LV_MATH_ABS(start - ext->bg_angle_start) >= 180) {
ARM GAS  D:\Temp\ccOOHxmt.s 			page 6


 259:lvgl/src/lv_widgets/lv_arc.c ****         lv_obj_invalidate(arc);
 260:lvgl/src/lv_widgets/lv_arc.c ****     }
 261:lvgl/src/lv_widgets/lv_arc.c ****     /*Only a smaller incremental move*/
 262:lvgl/src/lv_widgets/lv_arc.c ****     else if(ext->bg_angle_start > ext->bg_angle_end && start > ext->bg_angle_end) {
 263:lvgl/src/lv_widgets/lv_arc.c ****         inv_arc_area(arc, LV_MATH_MIN(ext->bg_angle_start, start), LV_MATH_MAX(ext->bg_angle_start,
 264:lvgl/src/lv_widgets/lv_arc.c ****     }
 265:lvgl/src/lv_widgets/lv_arc.c ****     /*Only a smaller incremental move*/
 266:lvgl/src/lv_widgets/lv_arc.c ****     else if(ext->bg_angle_start < ext->bg_angle_end && start < ext->bg_angle_end) {
 267:lvgl/src/lv_widgets/lv_arc.c ****         inv_arc_area(arc, LV_MATH_MIN(ext->bg_angle_start, start), LV_MATH_MAX(ext->bg_angle_start,
 268:lvgl/src/lv_widgets/lv_arc.c ****     }
 269:lvgl/src/lv_widgets/lv_arc.c ****     /*Crossing the start angle makes the whole arc change*/
 270:lvgl/src/lv_widgets/lv_arc.c ****     else {
 271:lvgl/src/lv_widgets/lv_arc.c ****         lv_obj_invalidate(arc);
 272:lvgl/src/lv_widgets/lv_arc.c ****     }
 273:lvgl/src/lv_widgets/lv_arc.c **** 
 274:lvgl/src/lv_widgets/lv_arc.c ****     ext->bg_angle_start = start;
 275:lvgl/src/lv_widgets/lv_arc.c **** 
 276:lvgl/src/lv_widgets/lv_arc.c ****     value_update(arc);
 277:lvgl/src/lv_widgets/lv_arc.c **** }
 278:lvgl/src/lv_widgets/lv_arc.c **** 
 279:lvgl/src/lv_widgets/lv_arc.c **** /**
 280:lvgl/src/lv_widgets/lv_arc.c ****  * Set the start angle of an arc background. 0 deg: right, 90 bottom etc.
 281:lvgl/src/lv_widgets/lv_arc.c ****  * @param arc pointer to an arc object
 282:lvgl/src/lv_widgets/lv_arc.c ****  * @param end the end angle
 283:lvgl/src/lv_widgets/lv_arc.c ****  */
 284:lvgl/src/lv_widgets/lv_arc.c **** void lv_arc_set_bg_end_angle(lv_obj_t * arc, uint16_t end)
 285:lvgl/src/lv_widgets/lv_arc.c **** {
 286:lvgl/src/lv_widgets/lv_arc.c ****     LV_ASSERT_OBJ(arc, LV_OBJX_NAME);
 287:lvgl/src/lv_widgets/lv_arc.c **** 
 288:lvgl/src/lv_widgets/lv_arc.c ****     lv_arc_ext_t * ext = lv_obj_get_ext_attr(arc);
 289:lvgl/src/lv_widgets/lv_arc.c **** 
 290:lvgl/src/lv_widgets/lv_arc.c ****     if(end > (ext->bg_angle_start + 360)) end = ext->bg_angle_start + 360;
 291:lvgl/src/lv_widgets/lv_arc.c **** 
 292:lvgl/src/lv_widgets/lv_arc.c ****     /*Too large move, the whole arc need to be invalidated anyway*/
 293:lvgl/src/lv_widgets/lv_arc.c ****     if(LV_MATH_ABS(end - ext->bg_angle_end) >= 180) {
 294:lvgl/src/lv_widgets/lv_arc.c ****         lv_obj_invalidate(arc);
 295:lvgl/src/lv_widgets/lv_arc.c ****     }
 296:lvgl/src/lv_widgets/lv_arc.c ****     /*Only a smaller incremental move*/
 297:lvgl/src/lv_widgets/lv_arc.c ****     else if(ext->bg_angle_end > ext->bg_angle_start && end > ext->bg_angle_start) {
 298:lvgl/src/lv_widgets/lv_arc.c ****         inv_arc_area(arc, LV_MATH_MIN(ext->bg_angle_end, end), LV_MATH_MAX(ext->bg_angle_end, end),
 299:lvgl/src/lv_widgets/lv_arc.c ****     }
 300:lvgl/src/lv_widgets/lv_arc.c ****     /*Only a smaller incremental move*/
 301:lvgl/src/lv_widgets/lv_arc.c ****     else if(ext->bg_angle_end < ext->bg_angle_start && end < ext->bg_angle_start) {
 302:lvgl/src/lv_widgets/lv_arc.c ****         inv_arc_area(arc, LV_MATH_MIN(ext->bg_angle_end, end), LV_MATH_MAX(ext->bg_angle_end, end),
 303:lvgl/src/lv_widgets/lv_arc.c ****     }
 304:lvgl/src/lv_widgets/lv_arc.c ****     /*Crossing the end angle makes the whole arc change*/
 305:lvgl/src/lv_widgets/lv_arc.c ****     else {
 306:lvgl/src/lv_widgets/lv_arc.c ****         lv_obj_invalidate(arc);
 307:lvgl/src/lv_widgets/lv_arc.c ****     }
 308:lvgl/src/lv_widgets/lv_arc.c **** 
 309:lvgl/src/lv_widgets/lv_arc.c ****     value_update(arc);
 310:lvgl/src/lv_widgets/lv_arc.c **** 
 311:lvgl/src/lv_widgets/lv_arc.c ****     ext->bg_angle_end = end;
 312:lvgl/src/lv_widgets/lv_arc.c **** }
 313:lvgl/src/lv_widgets/lv_arc.c **** 
 314:lvgl/src/lv_widgets/lv_arc.c **** /**
 315:lvgl/src/lv_widgets/lv_arc.c ****  * Set the start and end angles of the arc background
ARM GAS  D:\Temp\ccOOHxmt.s 			page 7


 316:lvgl/src/lv_widgets/lv_arc.c ****  * @param arc pointer to an arc object
 317:lvgl/src/lv_widgets/lv_arc.c ****  * @param start the start angle
 318:lvgl/src/lv_widgets/lv_arc.c ****  * @param end the end angle
 319:lvgl/src/lv_widgets/lv_arc.c ****  */
 320:lvgl/src/lv_widgets/lv_arc.c **** void lv_arc_set_bg_angles(lv_obj_t * arc, uint16_t start, uint16_t end)
 321:lvgl/src/lv_widgets/lv_arc.c **** {
 322:lvgl/src/lv_widgets/lv_arc.c ****     LV_ASSERT_OBJ(arc, LV_OBJX_NAME);
 323:lvgl/src/lv_widgets/lv_arc.c **** 
 324:lvgl/src/lv_widgets/lv_arc.c ****     lv_arc_ext_t * ext = lv_obj_get_ext_attr(arc);
 325:lvgl/src/lv_widgets/lv_arc.c **** 
 326:lvgl/src/lv_widgets/lv_arc.c ****     if(start > 360) start -= 360;
 327:lvgl/src/lv_widgets/lv_arc.c ****     if(end > (start + 360)) end = start + 360;
 328:lvgl/src/lv_widgets/lv_arc.c **** 
 329:lvgl/src/lv_widgets/lv_arc.c ****     inv_arc_area(arc, ext->bg_angle_start, ext->bg_angle_end, LV_ARC_PART_BG);
 330:lvgl/src/lv_widgets/lv_arc.c **** 
 331:lvgl/src/lv_widgets/lv_arc.c ****     ext->bg_angle_start = start;
 332:lvgl/src/lv_widgets/lv_arc.c ****     ext->bg_angle_end = end;
 333:lvgl/src/lv_widgets/lv_arc.c **** 
 334:lvgl/src/lv_widgets/lv_arc.c ****     inv_arc_area(arc, ext->bg_angle_start, ext->bg_angle_end, LV_ARC_PART_BG);
 335:lvgl/src/lv_widgets/lv_arc.c **** 
 336:lvgl/src/lv_widgets/lv_arc.c ****     value_update(arc);
 337:lvgl/src/lv_widgets/lv_arc.c **** }
 338:lvgl/src/lv_widgets/lv_arc.c **** 
 339:lvgl/src/lv_widgets/lv_arc.c **** /**
 340:lvgl/src/lv_widgets/lv_arc.c ****  * Set the rotation for the whole arc
 341:lvgl/src/lv_widgets/lv_arc.c ****  * @param arc pointer to an arc object
 342:lvgl/src/lv_widgets/lv_arc.c ****  * @param rotation_angle rotation angle
 343:lvgl/src/lv_widgets/lv_arc.c ****  */
 344:lvgl/src/lv_widgets/lv_arc.c **** void lv_arc_set_rotation(lv_obj_t * arc, uint16_t rotation_angle)
 345:lvgl/src/lv_widgets/lv_arc.c **** {
 346:lvgl/src/lv_widgets/lv_arc.c ****     LV_ASSERT_OBJ(arc, LV_OBJX_NAME);
 347:lvgl/src/lv_widgets/lv_arc.c **** 
 348:lvgl/src/lv_widgets/lv_arc.c ****     lv_arc_ext_t * ext = lv_obj_get_ext_attr(arc);
 349:lvgl/src/lv_widgets/lv_arc.c **** 
 350:lvgl/src/lv_widgets/lv_arc.c ****     ext->rotation_angle = rotation_angle;
 351:lvgl/src/lv_widgets/lv_arc.c **** 
 352:lvgl/src/lv_widgets/lv_arc.c ****     lv_obj_invalidate(arc);
 353:lvgl/src/lv_widgets/lv_arc.c **** }
 354:lvgl/src/lv_widgets/lv_arc.c **** 
 355:lvgl/src/lv_widgets/lv_arc.c **** /**
 356:lvgl/src/lv_widgets/lv_arc.c ****  * Set the type of arc.
 357:lvgl/src/lv_widgets/lv_arc.c ****  * @param arc pointer to arc object
 358:lvgl/src/lv_widgets/lv_arc.c ****  * @param type arc type
 359:lvgl/src/lv_widgets/lv_arc.c ****  */
 360:lvgl/src/lv_widgets/lv_arc.c **** void lv_arc_set_type(lv_obj_t * arc, lv_arc_type_t type)
 361:lvgl/src/lv_widgets/lv_arc.c **** {
 362:lvgl/src/lv_widgets/lv_arc.c ****     LV_ASSERT_OBJ(arc, LV_OBJX_NAME);
 363:lvgl/src/lv_widgets/lv_arc.c **** 
 364:lvgl/src/lv_widgets/lv_arc.c ****     lv_arc_ext_t * ext = (lv_arc_ext_t *)lv_obj_get_ext_attr(arc);
 365:lvgl/src/lv_widgets/lv_arc.c ****     int16_t val = ext->cur_value;
 366:lvgl/src/lv_widgets/lv_arc.c **** 
 367:lvgl/src/lv_widgets/lv_arc.c ****     ext->type = type;
 368:lvgl/src/lv_widgets/lv_arc.c ****     ext->cur_value = -1; /** Force set_value handling*/
 369:lvgl/src/lv_widgets/lv_arc.c **** 
 370:lvgl/src/lv_widgets/lv_arc.c ****     int16_t bg_midpoint, bg_end = ext->bg_angle_end;
 371:lvgl/src/lv_widgets/lv_arc.c ****     if(ext->bg_angle_end < ext->bg_angle_start) bg_end = ext->bg_angle_end + 360;
 372:lvgl/src/lv_widgets/lv_arc.c **** 
ARM GAS  D:\Temp\ccOOHxmt.s 			page 8


 373:lvgl/src/lv_widgets/lv_arc.c ****     switch(ext->type) {
 374:lvgl/src/lv_widgets/lv_arc.c ****         case LV_ARC_TYPE_SYMMETRIC:
 375:lvgl/src/lv_widgets/lv_arc.c ****             bg_midpoint = (ext->bg_angle_start + bg_end) / 2;
 376:lvgl/src/lv_widgets/lv_arc.c ****             lv_arc_set_start_angle(arc, bg_midpoint);
 377:lvgl/src/lv_widgets/lv_arc.c ****             lv_arc_set_end_angle(arc, bg_midpoint);
 378:lvgl/src/lv_widgets/lv_arc.c ****             break;
 379:lvgl/src/lv_widgets/lv_arc.c ****         case LV_ARC_TYPE_REVERSE:
 380:lvgl/src/lv_widgets/lv_arc.c ****             lv_arc_set_end_angle(arc, ext->bg_angle_end);
 381:lvgl/src/lv_widgets/lv_arc.c ****             break;
 382:lvgl/src/lv_widgets/lv_arc.c ****         default: /** LV_ARC_TYPE_NORMAL*/
 383:lvgl/src/lv_widgets/lv_arc.c ****             lv_arc_set_start_angle(arc, ext->bg_angle_start);
 384:lvgl/src/lv_widgets/lv_arc.c ****     }
 385:lvgl/src/lv_widgets/lv_arc.c **** 
 386:lvgl/src/lv_widgets/lv_arc.c ****     lv_arc_set_value(arc, val);
 387:lvgl/src/lv_widgets/lv_arc.c **** }
 388:lvgl/src/lv_widgets/lv_arc.c **** 
 389:lvgl/src/lv_widgets/lv_arc.c **** /**
 390:lvgl/src/lv_widgets/lv_arc.c ****  * Set a new value on the arc
 391:lvgl/src/lv_widgets/lv_arc.c ****  * @param arc pointer to a arc object
 392:lvgl/src/lv_widgets/lv_arc.c ****  * @param value new value
 393:lvgl/src/lv_widgets/lv_arc.c ****  */
 394:lvgl/src/lv_widgets/lv_arc.c **** void lv_arc_set_value(lv_obj_t * arc, int16_t value)
 395:lvgl/src/lv_widgets/lv_arc.c **** {
 396:lvgl/src/lv_widgets/lv_arc.c ****     LV_ASSERT_OBJ(arc, LV_OBJX_NAME);
 397:lvgl/src/lv_widgets/lv_arc.c **** 
 398:lvgl/src/lv_widgets/lv_arc.c ****     lv_arc_ext_t * ext = (lv_arc_ext_t *)lv_obj_get_ext_attr(arc);
 399:lvgl/src/lv_widgets/lv_arc.c ****     if(ext->cur_value == value) return;
 400:lvgl/src/lv_widgets/lv_arc.c **** 
 401:lvgl/src/lv_widgets/lv_arc.c ****     int16_t new_value;
 402:lvgl/src/lv_widgets/lv_arc.c ****     new_value = value > ext->max_value ? ext->max_value : value;
 403:lvgl/src/lv_widgets/lv_arc.c ****     new_value = new_value < ext->min_value ? ext->min_value : new_value;
 404:lvgl/src/lv_widgets/lv_arc.c **** 
 405:lvgl/src/lv_widgets/lv_arc.c ****     if(ext->cur_value == new_value) return;
 406:lvgl/src/lv_widgets/lv_arc.c ****     ext->cur_value = new_value;
 407:lvgl/src/lv_widgets/lv_arc.c **** 
 408:lvgl/src/lv_widgets/lv_arc.c ****     value_update(arc);
 409:lvgl/src/lv_widgets/lv_arc.c **** }
 410:lvgl/src/lv_widgets/lv_arc.c **** 
 411:lvgl/src/lv_widgets/lv_arc.c **** /**
 412:lvgl/src/lv_widgets/lv_arc.c ****  * Set minimum and the maximum values of a arc
 413:lvgl/src/lv_widgets/lv_arc.c ****  * @param arc pointer to the arc object
 414:lvgl/src/lv_widgets/lv_arc.c ****  * @param min minimum value
 415:lvgl/src/lv_widgets/lv_arc.c ****  * @param max maximum value
 416:lvgl/src/lv_widgets/lv_arc.c ****  */
 417:lvgl/src/lv_widgets/lv_arc.c **** void lv_arc_set_range(lv_obj_t * arc, int16_t min, int16_t max)
 418:lvgl/src/lv_widgets/lv_arc.c **** {
 419:lvgl/src/lv_widgets/lv_arc.c ****     LV_ASSERT_OBJ(arc, LV_OBJX_NAME);
 420:lvgl/src/lv_widgets/lv_arc.c **** 
 421:lvgl/src/lv_widgets/lv_arc.c ****     lv_arc_ext_t * ext = (lv_arc_ext_t *)lv_obj_get_ext_attr(arc);
 422:lvgl/src/lv_widgets/lv_arc.c ****     if(ext->min_value == min && ext->max_value == max) return;
 423:lvgl/src/lv_widgets/lv_arc.c **** 
 424:lvgl/src/lv_widgets/lv_arc.c ****     ext->min_value = min;
 425:lvgl/src/lv_widgets/lv_arc.c ****     ext->max_value = max;
 426:lvgl/src/lv_widgets/lv_arc.c **** 
 427:lvgl/src/lv_widgets/lv_arc.c ****     if(ext->cur_value < min) {
 428:lvgl/src/lv_widgets/lv_arc.c ****         ext->cur_value = min;
 429:lvgl/src/lv_widgets/lv_arc.c ****     }
ARM GAS  D:\Temp\ccOOHxmt.s 			page 9


 430:lvgl/src/lv_widgets/lv_arc.c ****     if(ext->cur_value > max) {
 431:lvgl/src/lv_widgets/lv_arc.c ****         ext->cur_value = max;
 432:lvgl/src/lv_widgets/lv_arc.c ****     }
 433:lvgl/src/lv_widgets/lv_arc.c **** 
 434:lvgl/src/lv_widgets/lv_arc.c ****     value_update(arc); /* value has changed relative to the new range */
 435:lvgl/src/lv_widgets/lv_arc.c **** }
 436:lvgl/src/lv_widgets/lv_arc.c **** 
 437:lvgl/src/lv_widgets/lv_arc.c **** /**
 438:lvgl/src/lv_widgets/lv_arc.c ****  * Set the threshold of arc knob increments
 439:lvgl/src/lv_widgets/lv_arc.c ****  * position.
 440:lvgl/src/lv_widgets/lv_arc.c ****  * @param arc pointer to a arc object
 441:lvgl/src/lv_widgets/lv_arc.c ****  * @param threshold increment threshold
 442:lvgl/src/lv_widgets/lv_arc.c ****  */
 443:lvgl/src/lv_widgets/lv_arc.c **** void lv_arc_set_chg_rate(lv_obj_t * arc, uint16_t rate)
 444:lvgl/src/lv_widgets/lv_arc.c **** {
 445:lvgl/src/lv_widgets/lv_arc.c ****     LV_ASSERT_OBJ(arc, LV_OBJX_NAME);
 446:lvgl/src/lv_widgets/lv_arc.c **** 
 447:lvgl/src/lv_widgets/lv_arc.c ****     lv_arc_ext_t * ext = (lv_arc_ext_t *)lv_obj_get_ext_attr(arc);
 448:lvgl/src/lv_widgets/lv_arc.c ****     ext->chg_rate = rate;
 449:lvgl/src/lv_widgets/lv_arc.c **** }
 450:lvgl/src/lv_widgets/lv_arc.c **** 
 451:lvgl/src/lv_widgets/lv_arc.c **** /**
 452:lvgl/src/lv_widgets/lv_arc.c ****  * Set whether the arc is adjustable.
 453:lvgl/src/lv_widgets/lv_arc.c ****  * @param arc pointer to a arc object
 454:lvgl/src/lv_widgets/lv_arc.c ****  * @param adjustable whether the arc has a knob that can be dragged
 455:lvgl/src/lv_widgets/lv_arc.c ****  */
 456:lvgl/src/lv_widgets/lv_arc.c **** void lv_arc_set_adjustable(lv_obj_t * arc, bool adjustable)
 457:lvgl/src/lv_widgets/lv_arc.c **** {
 458:lvgl/src/lv_widgets/lv_arc.c ****     LV_ASSERT_OBJ(arc, LV_OBJX_NAME);
 459:lvgl/src/lv_widgets/lv_arc.c **** 
 460:lvgl/src/lv_widgets/lv_arc.c ****     lv_arc_ext_t * ext = (lv_arc_ext_t *)lv_obj_get_ext_attr(arc);
 461:lvgl/src/lv_widgets/lv_arc.c ****     if(ext->adjustable == adjustable)
 462:lvgl/src/lv_widgets/lv_arc.c ****         return;
 463:lvgl/src/lv_widgets/lv_arc.c **** 
 464:lvgl/src/lv_widgets/lv_arc.c ****     ext->adjustable = adjustable;
 465:lvgl/src/lv_widgets/lv_arc.c ****     if(!adjustable)
 466:lvgl/src/lv_widgets/lv_arc.c ****         ext->dragging = false;
 467:lvgl/src/lv_widgets/lv_arc.c ****     lv_obj_invalidate(arc);
 468:lvgl/src/lv_widgets/lv_arc.c **** }
 469:lvgl/src/lv_widgets/lv_arc.c **** 
 470:lvgl/src/lv_widgets/lv_arc.c **** /*=====================
 471:lvgl/src/lv_widgets/lv_arc.c ****  * Getter functions
 472:lvgl/src/lv_widgets/lv_arc.c ****  *====================*/
 473:lvgl/src/lv_widgets/lv_arc.c **** 
 474:lvgl/src/lv_widgets/lv_arc.c **** /**
 475:lvgl/src/lv_widgets/lv_arc.c ****  * Get the start angle of an arc.
 476:lvgl/src/lv_widgets/lv_arc.c ****  * @param arc pointer to an arc object
 477:lvgl/src/lv_widgets/lv_arc.c ****  * @return the start angle [0..360]
 478:lvgl/src/lv_widgets/lv_arc.c ****  */
 479:lvgl/src/lv_widgets/lv_arc.c **** uint16_t lv_arc_get_angle_start(lv_obj_t * arc)
 480:lvgl/src/lv_widgets/lv_arc.c **** {
 481:lvgl/src/lv_widgets/lv_arc.c ****     LV_ASSERT_OBJ(arc, LV_OBJX_NAME);
 482:lvgl/src/lv_widgets/lv_arc.c **** 
 483:lvgl/src/lv_widgets/lv_arc.c ****     lv_arc_ext_t * ext = lv_obj_get_ext_attr(arc);
 484:lvgl/src/lv_widgets/lv_arc.c **** 
 485:lvgl/src/lv_widgets/lv_arc.c ****     return ext->arc_angle_start;
 486:lvgl/src/lv_widgets/lv_arc.c **** }
ARM GAS  D:\Temp\ccOOHxmt.s 			page 10


 487:lvgl/src/lv_widgets/lv_arc.c **** 
 488:lvgl/src/lv_widgets/lv_arc.c **** /**
 489:lvgl/src/lv_widgets/lv_arc.c ****  * Get the end angle of an arc.
 490:lvgl/src/lv_widgets/lv_arc.c ****  * @param arc pointer to an arc object
 491:lvgl/src/lv_widgets/lv_arc.c ****  * @return the end angle [0..360]
 492:lvgl/src/lv_widgets/lv_arc.c ****  */
 493:lvgl/src/lv_widgets/lv_arc.c **** uint16_t lv_arc_get_angle_end(lv_obj_t * arc)
 494:lvgl/src/lv_widgets/lv_arc.c **** {
 495:lvgl/src/lv_widgets/lv_arc.c ****     LV_ASSERT_OBJ(arc, LV_OBJX_NAME);
 496:lvgl/src/lv_widgets/lv_arc.c **** 
 497:lvgl/src/lv_widgets/lv_arc.c ****     lv_arc_ext_t * ext = lv_obj_get_ext_attr(arc);
 498:lvgl/src/lv_widgets/lv_arc.c **** 
 499:lvgl/src/lv_widgets/lv_arc.c ****     return ext->arc_angle_end;
 500:lvgl/src/lv_widgets/lv_arc.c **** }
 501:lvgl/src/lv_widgets/lv_arc.c **** 
 502:lvgl/src/lv_widgets/lv_arc.c **** /**
 503:lvgl/src/lv_widgets/lv_arc.c ****  * Get the start angle of an arc background.
 504:lvgl/src/lv_widgets/lv_arc.c ****  * @param arc pointer to an arc object
 505:lvgl/src/lv_widgets/lv_arc.c ****  * @return the start angle [0..360]
 506:lvgl/src/lv_widgets/lv_arc.c ****  */
 507:lvgl/src/lv_widgets/lv_arc.c **** uint16_t lv_arc_get_bg_angle_start(lv_obj_t * arc)
 508:lvgl/src/lv_widgets/lv_arc.c **** {
 509:lvgl/src/lv_widgets/lv_arc.c ****     LV_ASSERT_OBJ(arc, LV_OBJX_NAME);
 510:lvgl/src/lv_widgets/lv_arc.c **** 
 511:lvgl/src/lv_widgets/lv_arc.c ****     lv_arc_ext_t * ext = lv_obj_get_ext_attr(arc);
 512:lvgl/src/lv_widgets/lv_arc.c **** 
 513:lvgl/src/lv_widgets/lv_arc.c ****     return ext->bg_angle_start;
 514:lvgl/src/lv_widgets/lv_arc.c **** }
 515:lvgl/src/lv_widgets/lv_arc.c **** 
 516:lvgl/src/lv_widgets/lv_arc.c **** /**
 517:lvgl/src/lv_widgets/lv_arc.c ****  * Get the end angle of an arc background.
 518:lvgl/src/lv_widgets/lv_arc.c ****  * @param arc pointer to an arc object
 519:lvgl/src/lv_widgets/lv_arc.c ****  * @return the end angle [0..360]
 520:lvgl/src/lv_widgets/lv_arc.c ****  */
 521:lvgl/src/lv_widgets/lv_arc.c **** uint16_t lv_arc_get_bg_angle_end(lv_obj_t * arc)
 522:lvgl/src/lv_widgets/lv_arc.c **** {
 523:lvgl/src/lv_widgets/lv_arc.c ****     LV_ASSERT_OBJ(arc, LV_OBJX_NAME);
 524:lvgl/src/lv_widgets/lv_arc.c **** 
 525:lvgl/src/lv_widgets/lv_arc.c ****     lv_arc_ext_t * ext = lv_obj_get_ext_attr(arc);
 526:lvgl/src/lv_widgets/lv_arc.c **** 
 527:lvgl/src/lv_widgets/lv_arc.c ****     return ext->bg_angle_end;
 528:lvgl/src/lv_widgets/lv_arc.c **** }
 529:lvgl/src/lv_widgets/lv_arc.c **** 
 530:lvgl/src/lv_widgets/lv_arc.c **** /**
 531:lvgl/src/lv_widgets/lv_arc.c ****  * Get the value of a arc
 532:lvgl/src/lv_widgets/lv_arc.c ****  * @param arc pointer to a arc object
 533:lvgl/src/lv_widgets/lv_arc.c ****  * @return the value of the arc
 534:lvgl/src/lv_widgets/lv_arc.c ****  */
 535:lvgl/src/lv_widgets/lv_arc.c **** int16_t lv_arc_get_value(const lv_obj_t * arc)
 536:lvgl/src/lv_widgets/lv_arc.c **** {
 537:lvgl/src/lv_widgets/lv_arc.c ****     LV_ASSERT_OBJ(arc, LV_OBJX_NAME);
 538:lvgl/src/lv_widgets/lv_arc.c **** 
 539:lvgl/src/lv_widgets/lv_arc.c ****     lv_arc_ext_t * ext = lv_obj_get_ext_attr(arc);
 540:lvgl/src/lv_widgets/lv_arc.c ****     return ext->cur_value;
 541:lvgl/src/lv_widgets/lv_arc.c **** }
 542:lvgl/src/lv_widgets/lv_arc.c **** 
 543:lvgl/src/lv_widgets/lv_arc.c **** /**
ARM GAS  D:\Temp\ccOOHxmt.s 			page 11


 544:lvgl/src/lv_widgets/lv_arc.c ****  * Get the minimum value of a arc
 545:lvgl/src/lv_widgets/lv_arc.c ****  * @param arc pointer to a arc object
 546:lvgl/src/lv_widgets/lv_arc.c ****  * @return the minimum value of the arc
 547:lvgl/src/lv_widgets/lv_arc.c ****  */
 548:lvgl/src/lv_widgets/lv_arc.c **** int16_t lv_arc_get_min_value(const lv_obj_t * arc)
 549:lvgl/src/lv_widgets/lv_arc.c **** {
 550:lvgl/src/lv_widgets/lv_arc.c ****     LV_ASSERT_OBJ(arc, LV_OBJX_NAME);
 551:lvgl/src/lv_widgets/lv_arc.c **** 
 552:lvgl/src/lv_widgets/lv_arc.c ****     lv_arc_ext_t * ext = (lv_arc_ext_t *)lv_obj_get_ext_attr(arc);
 553:lvgl/src/lv_widgets/lv_arc.c ****     return ext->min_value;
 554:lvgl/src/lv_widgets/lv_arc.c **** }
 555:lvgl/src/lv_widgets/lv_arc.c **** 
 556:lvgl/src/lv_widgets/lv_arc.c **** /**
 557:lvgl/src/lv_widgets/lv_arc.c ****  * Get the maximum value of a arc
 558:lvgl/src/lv_widgets/lv_arc.c ****  * @param arc pointer to a arc object
 559:lvgl/src/lv_widgets/lv_arc.c ****  * @return the maximum value of the arc
 560:lvgl/src/lv_widgets/lv_arc.c ****  */
 561:lvgl/src/lv_widgets/lv_arc.c **** int16_t lv_arc_get_max_value(const lv_obj_t * arc)
 562:lvgl/src/lv_widgets/lv_arc.c **** {
 563:lvgl/src/lv_widgets/lv_arc.c ****     LV_ASSERT_OBJ(arc, LV_OBJX_NAME);
 564:lvgl/src/lv_widgets/lv_arc.c **** 
 565:lvgl/src/lv_widgets/lv_arc.c ****     lv_arc_ext_t * ext = (lv_arc_ext_t *)lv_obj_get_ext_attr(arc);
 566:lvgl/src/lv_widgets/lv_arc.c ****     return ext->max_value;
 567:lvgl/src/lv_widgets/lv_arc.c **** }
 568:lvgl/src/lv_widgets/lv_arc.c **** 
 569:lvgl/src/lv_widgets/lv_arc.c **** /**
 570:lvgl/src/lv_widgets/lv_arc.c ****  * Give the arc is being dragged or not
 571:lvgl/src/lv_widgets/lv_arc.c ****  * @param arc pointer to a arc object
 572:lvgl/src/lv_widgets/lv_arc.c ****  * @return true: drag in progress false: not dragged
 573:lvgl/src/lv_widgets/lv_arc.c ****  */
 574:lvgl/src/lv_widgets/lv_arc.c **** bool lv_arc_is_dragged(const lv_obj_t * arc)
 575:lvgl/src/lv_widgets/lv_arc.c **** {
 576:lvgl/src/lv_widgets/lv_arc.c ****     LV_ASSERT_OBJ(arc, LV_OBJX_NAME);
 577:lvgl/src/lv_widgets/lv_arc.c **** 
 578:lvgl/src/lv_widgets/lv_arc.c ****     lv_arc_ext_t * ext = lv_obj_get_ext_attr(arc);
 579:lvgl/src/lv_widgets/lv_arc.c ****     return ext->dragging;
 580:lvgl/src/lv_widgets/lv_arc.c **** }
 581:lvgl/src/lv_widgets/lv_arc.c **** 
 582:lvgl/src/lv_widgets/lv_arc.c **** /**
 583:lvgl/src/lv_widgets/lv_arc.c ****  * Get whether the arc is type or not.
 584:lvgl/src/lv_widgets/lv_arc.c ****  * @param arc pointer to a arc object
 585:lvgl/src/lv_widgets/lv_arc.c ****  * @return arc type
 586:lvgl/src/lv_widgets/lv_arc.c ****  */
 587:lvgl/src/lv_widgets/lv_arc.c **** lv_arc_type_t lv_arc_get_type(const lv_obj_t * arc)
 588:lvgl/src/lv_widgets/lv_arc.c **** {
 589:lvgl/src/lv_widgets/lv_arc.c ****     LV_ASSERT_OBJ(arc, LV_OBJX_NAME);
 590:lvgl/src/lv_widgets/lv_arc.c **** 
 591:lvgl/src/lv_widgets/lv_arc.c ****     lv_arc_ext_t * ext = (lv_arc_ext_t *)lv_obj_get_ext_attr(arc);
 592:lvgl/src/lv_widgets/lv_arc.c ****     return ext->type;
 593:lvgl/src/lv_widgets/lv_arc.c **** }
 594:lvgl/src/lv_widgets/lv_arc.c **** 
 595:lvgl/src/lv_widgets/lv_arc.c **** /**
 596:lvgl/src/lv_widgets/lv_arc.c ****  * Get whether the arc is adjustable.
 597:lvgl/src/lv_widgets/lv_arc.c ****  * @param arc pointer to a arc object
 598:lvgl/src/lv_widgets/lv_arc.c ****  * @return whether the arc has a knob that can be dragged
 599:lvgl/src/lv_widgets/lv_arc.c ****  */
 600:lvgl/src/lv_widgets/lv_arc.c **** bool lv_arc_get_adjustable(lv_obj_t * arc)
ARM GAS  D:\Temp\ccOOHxmt.s 			page 12


 601:lvgl/src/lv_widgets/lv_arc.c **** {
 602:lvgl/src/lv_widgets/lv_arc.c ****     LV_ASSERT_OBJ(arc, LV_OBJX_NAME);
 603:lvgl/src/lv_widgets/lv_arc.c **** 
 604:lvgl/src/lv_widgets/lv_arc.c ****     lv_arc_ext_t * ext = (lv_arc_ext_t *)lv_obj_get_ext_attr(arc);
 605:lvgl/src/lv_widgets/lv_arc.c ****     return ext->adjustable;
 606:lvgl/src/lv_widgets/lv_arc.c **** }
 607:lvgl/src/lv_widgets/lv_arc.c **** 
 608:lvgl/src/lv_widgets/lv_arc.c **** /*=====================
 609:lvgl/src/lv_widgets/lv_arc.c ****  * Other functions
 610:lvgl/src/lv_widgets/lv_arc.c ****  *====================*/
 611:lvgl/src/lv_widgets/lv_arc.c **** 
 612:lvgl/src/lv_widgets/lv_arc.c **** /*
 613:lvgl/src/lv_widgets/lv_arc.c ****  * New object specific "other" functions come here
 614:lvgl/src/lv_widgets/lv_arc.c ****  */
 615:lvgl/src/lv_widgets/lv_arc.c **** 
 616:lvgl/src/lv_widgets/lv_arc.c **** /**********************
 617:lvgl/src/lv_widgets/lv_arc.c ****  *   STATIC FUNCTIONS
 618:lvgl/src/lv_widgets/lv_arc.c ****  **********************/
 619:lvgl/src/lv_widgets/lv_arc.c **** 
 620:lvgl/src/lv_widgets/lv_arc.c **** /**
 621:lvgl/src/lv_widgets/lv_arc.c ****  * Handle the drawing related tasks of the arcs
 622:lvgl/src/lv_widgets/lv_arc.c ****  * @param arc pointer to an object
 623:lvgl/src/lv_widgets/lv_arc.c ****  * @param clip_area the object will be drawn only in this area
 624:lvgl/src/lv_widgets/lv_arc.c ****  * @param mode LV_DESIGN_COVER_CHK: only check if the object fully covers the 'mask_p' area
 625:lvgl/src/lv_widgets/lv_arc.c ****  *                                  (return 'true' if yes)
 626:lvgl/src/lv_widgets/lv_arc.c ****  *             LV_DESIGN_DRAW: draw the object (always return 'true')
 627:lvgl/src/lv_widgets/lv_arc.c ****  *             LV_DESIGN_DRAW_POST: drawing after every children are drawn
 628:lvgl/src/lv_widgets/lv_arc.c ****  * @param return an element of `lv_design_res_t`
 629:lvgl/src/lv_widgets/lv_arc.c ****  */
 630:lvgl/src/lv_widgets/lv_arc.c **** static lv_design_res_t lv_arc_design(lv_obj_t * arc, const lv_area_t * clip_area, lv_design_mode_t 
 631:lvgl/src/lv_widgets/lv_arc.c **** {
 632:lvgl/src/lv_widgets/lv_arc.c ****     /*Return false if the object is not covers the mask_p area*/
 633:lvgl/src/lv_widgets/lv_arc.c ****     if(mode == LV_DESIGN_COVER_CHK) {
 634:lvgl/src/lv_widgets/lv_arc.c ****         return LV_DESIGN_RES_NOT_COVER;
 635:lvgl/src/lv_widgets/lv_arc.c ****     }
 636:lvgl/src/lv_widgets/lv_arc.c ****     /*Draw the object*/
 637:lvgl/src/lv_widgets/lv_arc.c ****     else if(mode == LV_DESIGN_DRAW_MAIN) {
 638:lvgl/src/lv_widgets/lv_arc.c ****         lv_arc_ext_t * ext       = lv_obj_get_ext_attr(arc);
 639:lvgl/src/lv_widgets/lv_arc.c **** 
 640:lvgl/src/lv_widgets/lv_arc.c ****         lv_draw_rect_dsc_t bg_dsc;
 641:lvgl/src/lv_widgets/lv_arc.c ****         lv_draw_rect_dsc_init(&bg_dsc);
 642:lvgl/src/lv_widgets/lv_arc.c ****         lv_obj_init_draw_rect_dsc(arc, LV_ARC_PART_BG, &bg_dsc);
 643:lvgl/src/lv_widgets/lv_arc.c **** 
 644:lvgl/src/lv_widgets/lv_arc.c ****         lv_draw_rect(&arc->coords, clip_area, &bg_dsc);
 645:lvgl/src/lv_widgets/lv_arc.c **** 
 646:lvgl/src/lv_widgets/lv_arc.c ****         lv_point_t center;
 647:lvgl/src/lv_widgets/lv_arc.c ****         lv_coord_t arc_r;
 648:lvgl/src/lv_widgets/lv_arc.c ****         get_center(arc, &center, &arc_r);
 649:lvgl/src/lv_widgets/lv_arc.c **** 
 650:lvgl/src/lv_widgets/lv_arc.c ****         /*Draw the background arc*/
 651:lvgl/src/lv_widgets/lv_arc.c ****         lv_draw_line_dsc_t arc_dsc;
 652:lvgl/src/lv_widgets/lv_arc.c ****         if(arc_r > 0) {
 653:lvgl/src/lv_widgets/lv_arc.c ****             lv_draw_line_dsc_init(&arc_dsc);
 654:lvgl/src/lv_widgets/lv_arc.c ****             lv_obj_init_draw_line_dsc(arc, LV_ARC_PART_BG, &arc_dsc);
 655:lvgl/src/lv_widgets/lv_arc.c **** 
 656:lvgl/src/lv_widgets/lv_arc.c ****             lv_draw_arc(center.x, center.y, arc_r, ext->bg_angle_start + ext->rotation_angle,
 657:lvgl/src/lv_widgets/lv_arc.c ****                         ext->bg_angle_end + ext->rotation_angle, clip_area,
ARM GAS  D:\Temp\ccOOHxmt.s 			page 13


 658:lvgl/src/lv_widgets/lv_arc.c ****                         &arc_dsc);
 659:lvgl/src/lv_widgets/lv_arc.c ****         }
 660:lvgl/src/lv_widgets/lv_arc.c **** 
 661:lvgl/src/lv_widgets/lv_arc.c ****         /*make the indicator arc smaller or larger according to its greatest padding value*/
 662:lvgl/src/lv_widgets/lv_arc.c ****         lv_coord_t left_indic = lv_obj_get_style_pad_left(arc, LV_ARC_PART_INDIC);
 663:lvgl/src/lv_widgets/lv_arc.c ****         lv_coord_t right_indic = lv_obj_get_style_pad_right(arc, LV_ARC_PART_INDIC);
 664:lvgl/src/lv_widgets/lv_arc.c ****         lv_coord_t top_indic = lv_obj_get_style_pad_top(arc, LV_ARC_PART_INDIC);
 665:lvgl/src/lv_widgets/lv_arc.c ****         lv_coord_t bottom_indic = lv_obj_get_style_pad_bottom(arc, LV_ARC_PART_INDIC);
 666:lvgl/src/lv_widgets/lv_arc.c ****         lv_coord_t indic_r = arc_r - LV_MATH_MAX4(left_indic, right_indic, top_indic, bottom_indic)
 667:lvgl/src/lv_widgets/lv_arc.c **** 
 668:lvgl/src/lv_widgets/lv_arc.c ****         if(indic_r > 0) {
 669:lvgl/src/lv_widgets/lv_arc.c ****             lv_draw_line_dsc_init(&arc_dsc);
 670:lvgl/src/lv_widgets/lv_arc.c ****             lv_obj_init_draw_line_dsc(arc, LV_ARC_PART_INDIC, &arc_dsc);
 671:lvgl/src/lv_widgets/lv_arc.c **** 
 672:lvgl/src/lv_widgets/lv_arc.c ****             lv_draw_arc(center.x, center.y, indic_r, ext->arc_angle_start + ext->rotation_angle,
 673:lvgl/src/lv_widgets/lv_arc.c ****                         ext->arc_angle_end + ext->rotation_angle, clip_area,
 674:lvgl/src/lv_widgets/lv_arc.c ****                         &arc_dsc);
 675:lvgl/src/lv_widgets/lv_arc.c ****         }
 676:lvgl/src/lv_widgets/lv_arc.c **** 
 677:lvgl/src/lv_widgets/lv_arc.c ****         if(ext->adjustable) {
 678:lvgl/src/lv_widgets/lv_arc.c ****             lv_area_t knob_area;
 679:lvgl/src/lv_widgets/lv_arc.c ****             get_knob_area(arc, &center, arc_r, &knob_area);
 680:lvgl/src/lv_widgets/lv_arc.c **** 
 681:lvgl/src/lv_widgets/lv_arc.c ****             lv_draw_rect_dsc_t knob_rect_dsc;
 682:lvgl/src/lv_widgets/lv_arc.c ****             lv_draw_rect_dsc_init(&knob_rect_dsc);
 683:lvgl/src/lv_widgets/lv_arc.c ****             lv_obj_init_draw_rect_dsc(arc, LV_ARC_PART_KNOB, &knob_rect_dsc);
 684:lvgl/src/lv_widgets/lv_arc.c **** 
 685:lvgl/src/lv_widgets/lv_arc.c ****             lv_draw_rect(&knob_area, clip_area, &knob_rect_dsc);
 686:lvgl/src/lv_widgets/lv_arc.c ****         }
 687:lvgl/src/lv_widgets/lv_arc.c **** 
 688:lvgl/src/lv_widgets/lv_arc.c ****     }
 689:lvgl/src/lv_widgets/lv_arc.c ****     /*Post draw when the children are drawn*/
 690:lvgl/src/lv_widgets/lv_arc.c ****     else if(mode == LV_DESIGN_DRAW_POST) {
 691:lvgl/src/lv_widgets/lv_arc.c ****     }
 692:lvgl/src/lv_widgets/lv_arc.c **** 
 693:lvgl/src/lv_widgets/lv_arc.c ****     return LV_DESIGN_RES_OK;
 694:lvgl/src/lv_widgets/lv_arc.c **** }
 695:lvgl/src/lv_widgets/lv_arc.c **** 
 696:lvgl/src/lv_widgets/lv_arc.c **** /**
 697:lvgl/src/lv_widgets/lv_arc.c ****  * Signal function of the arc
 698:lvgl/src/lv_widgets/lv_arc.c ****  * @param arc pointer to a arc object
 699:lvgl/src/lv_widgets/lv_arc.c ****  * @param sign a signal type from lv_signal_t enum
 700:lvgl/src/lv_widgets/lv_arc.c ****  * @param param pointer to a signal specific variable
 701:lvgl/src/lv_widgets/lv_arc.c ****  * @return LV_RES_OK: the object is not deleted in the function; LV_RES_INV: the object is deleted
 702:lvgl/src/lv_widgets/lv_arc.c ****  */
 703:lvgl/src/lv_widgets/lv_arc.c **** static lv_res_t lv_arc_signal(lv_obj_t * arc, lv_signal_t sign, void * param)
 704:lvgl/src/lv_widgets/lv_arc.c **** {
 705:lvgl/src/lv_widgets/lv_arc.c ****     lv_res_t res;
 706:lvgl/src/lv_widgets/lv_arc.c ****     if(sign == LV_SIGNAL_GET_STYLE) {
 707:lvgl/src/lv_widgets/lv_arc.c ****         lv_get_style_info_t * info = param;
 708:lvgl/src/lv_widgets/lv_arc.c ****         info->result = lv_arc_get_style(arc, info->part);
 709:lvgl/src/lv_widgets/lv_arc.c ****         if(info->result != NULL) return LV_RES_OK;
 710:lvgl/src/lv_widgets/lv_arc.c ****         else return ancestor_signal(arc, sign, param);
 711:lvgl/src/lv_widgets/lv_arc.c ****     }
 712:lvgl/src/lv_widgets/lv_arc.c **** 
 713:lvgl/src/lv_widgets/lv_arc.c ****     /* Include the ancient signal function */
 714:lvgl/src/lv_widgets/lv_arc.c ****     res = ancestor_signal(arc, sign, param);
ARM GAS  D:\Temp\ccOOHxmt.s 			page 14


 715:lvgl/src/lv_widgets/lv_arc.c ****     if(res != LV_RES_OK) return res;
 716:lvgl/src/lv_widgets/lv_arc.c **** 
 717:lvgl/src/lv_widgets/lv_arc.c ****     if(sign == LV_SIGNAL_GET_TYPE) return lv_obj_handle_get_type_signal(param, LV_OBJX_NAME);
 718:lvgl/src/lv_widgets/lv_arc.c **** 
 719:lvgl/src/lv_widgets/lv_arc.c ****     lv_arc_ext_t * ext = lv_obj_get_ext_attr(arc);
 720:lvgl/src/lv_widgets/lv_arc.c **** 
 721:lvgl/src/lv_widgets/lv_arc.c ****     if(sign == LV_SIGNAL_PRESSING) {
 722:lvgl/src/lv_widgets/lv_arc.c ****         /* Only adjustable arcs can be dragged */
 723:lvgl/src/lv_widgets/lv_arc.c ****         if(!ext->adjustable) return res;
 724:lvgl/src/lv_widgets/lv_arc.c **** 
 725:lvgl/src/lv_widgets/lv_arc.c ****         lv_indev_t * indev = lv_indev_get_act();
 726:lvgl/src/lv_widgets/lv_arc.c ****         if(indev == NULL) return res;
 727:lvgl/src/lv_widgets/lv_arc.c **** 
 728:lvgl/src/lv_widgets/lv_arc.c ****         /*Handle only pointers here*/
 729:lvgl/src/lv_widgets/lv_arc.c ****         lv_indev_type_t indev_type = lv_indev_get_type(indev);
 730:lvgl/src/lv_widgets/lv_arc.c ****         if(indev_type != LV_INDEV_TYPE_POINTER) return res;
 731:lvgl/src/lv_widgets/lv_arc.c **** 
 732:lvgl/src/lv_widgets/lv_arc.c ****         lv_point_t p;
 733:lvgl/src/lv_widgets/lv_arc.c ****         lv_indev_get_point(indev, &p);
 734:lvgl/src/lv_widgets/lv_arc.c **** 
 735:lvgl/src/lv_widgets/lv_arc.c ****         /*Make point relative to the arc's center*/
 736:lvgl/src/lv_widgets/lv_arc.c ****         lv_point_t center;
 737:lvgl/src/lv_widgets/lv_arc.c ****         lv_coord_t r;
 738:lvgl/src/lv_widgets/lv_arc.c ****         get_center(arc, &center, &r);
 739:lvgl/src/lv_widgets/lv_arc.c **** 
 740:lvgl/src/lv_widgets/lv_arc.c ****         p.x -=  center.x;
 741:lvgl/src/lv_widgets/lv_arc.c ****         p.y -=  center.y;
 742:lvgl/src/lv_widgets/lv_arc.c **** 
 743:lvgl/src/lv_widgets/lv_arc.c ****         /*Enter dragging mode if pressed out of the knob*/
 744:lvgl/src/lv_widgets/lv_arc.c ****         if(ext->dragging == false) {
 745:lvgl/src/lv_widgets/lv_arc.c ****             lv_coord_t indic_width = lv_obj_get_style_line_width(arc, LV_ARC_PART_INDIC);
 746:lvgl/src/lv_widgets/lv_arc.c ****             r -=  indic_width;
 747:lvgl/src/lv_widgets/lv_arc.c ****             r -= r / 2; /*Add some more sensitive area*/
 748:lvgl/src/lv_widgets/lv_arc.c ****             if(p.x * p.x + p.y * p.y > r * r) {
 749:lvgl/src/lv_widgets/lv_arc.c ****                 ext->dragging = true;
 750:lvgl/src/lv_widgets/lv_arc.c ****                 ext->last_tick = lv_tick_get(); /*Capture timestamp at dragging start*/
 751:lvgl/src/lv_widgets/lv_arc.c ****             }
 752:lvgl/src/lv_widgets/lv_arc.c ****         }
 753:lvgl/src/lv_widgets/lv_arc.c **** 
 754:lvgl/src/lv_widgets/lv_arc.c ****         /*It must be in "dragging" mode to turn the arc*/
 755:lvgl/src/lv_widgets/lv_arc.c ****         if(ext->dragging == false) return res;
 756:lvgl/src/lv_widgets/lv_arc.c **** 
 757:lvgl/src/lv_widgets/lv_arc.c ****         /*No angle can be determined if exactly the middle of the arc is being pressed*/
 758:lvgl/src/lv_widgets/lv_arc.c ****         if(p.x == 0 && p.y == 0) return res;
 759:lvgl/src/lv_widgets/lv_arc.c **** 
 760:lvgl/src/lv_widgets/lv_arc.c ****         /*Calculate the angle of the pressed point*/
 761:lvgl/src/lv_widgets/lv_arc.c ****         int16_t angle;
 762:lvgl/src/lv_widgets/lv_arc.c ****         int16_t bg_end = ext->bg_angle_end;
 763:lvgl/src/lv_widgets/lv_arc.c ****         if(ext->bg_angle_end < ext->bg_angle_start) {
 764:lvgl/src/lv_widgets/lv_arc.c ****             bg_end = ext->bg_angle_end + 360;
 765:lvgl/src/lv_widgets/lv_arc.c ****         }
 766:lvgl/src/lv_widgets/lv_arc.c **** 
 767:lvgl/src/lv_widgets/lv_arc.c ****         angle = _lv_atan2(p.y, p.x);
 768:lvgl/src/lv_widgets/lv_arc.c ****         angle -= ext->rotation_angle;
 769:lvgl/src/lv_widgets/lv_arc.c ****         angle -= ext->bg_angle_start;   /*Make the angle relative to the start angle*/
 770:lvgl/src/lv_widgets/lv_arc.c ****         if(angle < 0) angle += 360;
 771:lvgl/src/lv_widgets/lv_arc.c **** 
ARM GAS  D:\Temp\ccOOHxmt.s 			page 15


 772:lvgl/src/lv_widgets/lv_arc.c ****         int16_t deg_range = bg_end - ext->bg_angle_start;
 773:lvgl/src/lv_widgets/lv_arc.c **** 
 774:lvgl/src/lv_widgets/lv_arc.c ****         int16_t last_angle_rel = ext->last_angle - ext->bg_angle_start;
 775:lvgl/src/lv_widgets/lv_arc.c ****         int16_t delta_angle = angle - last_angle_rel;
 776:lvgl/src/lv_widgets/lv_arc.c **** 
 777:lvgl/src/lv_widgets/lv_arc.c ****         /* Do not allow big jumps.
 778:lvgl/src/lv_widgets/lv_arc.c ****          * It's mainly to avoid jumping to the opposite end if the "dead" range between min. an max
 779:lvgl/src/lv_widgets/lv_arc.c ****          * Check which and was closer on the last valid press (ext->min_close) and prefer that end 
 780:lvgl/src/lv_widgets/lv_arc.c ****         if(LV_MATH_ABS(delta_angle) > 180) {
 781:lvgl/src/lv_widgets/lv_arc.c ****             if(ext->min_close) angle = 0;
 782:lvgl/src/lv_widgets/lv_arc.c ****             else angle = deg_range;
 783:lvgl/src/lv_widgets/lv_arc.c ****         }
 784:lvgl/src/lv_widgets/lv_arc.c ****         else {
 785:lvgl/src/lv_widgets/lv_arc.c ****             if(angle < deg_range / 2) ext->min_close = 1;
 786:lvgl/src/lv_widgets/lv_arc.c ****             else ext->min_close = 0;
 787:lvgl/src/lv_widgets/lv_arc.c ****         }
 788:lvgl/src/lv_widgets/lv_arc.c **** 
 789:lvgl/src/lv_widgets/lv_arc.c ****         /*Calculate the slew rate limited angle based on change rate (degrees/sec)*/
 790:lvgl/src/lv_widgets/lv_arc.c ****         delta_angle = angle - last_angle_rel;
 791:lvgl/src/lv_widgets/lv_arc.c ****         uint32_t delta_tick = lv_tick_elaps(ext->last_tick);
 792:lvgl/src/lv_widgets/lv_arc.c ****         int16_t delta_angle_max = (ext->chg_rate * delta_tick) / 1000;
 793:lvgl/src/lv_widgets/lv_arc.c **** 
 794:lvgl/src/lv_widgets/lv_arc.c ****         if(delta_angle > delta_angle_max) {
 795:lvgl/src/lv_widgets/lv_arc.c ****             delta_angle = delta_angle_max;
 796:lvgl/src/lv_widgets/lv_arc.c ****         }
 797:lvgl/src/lv_widgets/lv_arc.c ****         else if(delta_angle < -delta_angle_max) {
 798:lvgl/src/lv_widgets/lv_arc.c ****             delta_angle = -delta_angle_max;
 799:lvgl/src/lv_widgets/lv_arc.c ****         }
 800:lvgl/src/lv_widgets/lv_arc.c **** 
 801:lvgl/src/lv_widgets/lv_arc.c ****         angle = last_angle_rel + delta_angle; /*Apply the limited angle change*/
 802:lvgl/src/lv_widgets/lv_arc.c **** 
 803:lvgl/src/lv_widgets/lv_arc.c ****         /*Rounding for symmetry*/
 804:lvgl/src/lv_widgets/lv_arc.c ****         int32_t round = ((bg_end - ext->bg_angle_start) * 8) / (ext->max_value - ext->min_value);
 805:lvgl/src/lv_widgets/lv_arc.c ****         round = (round + 4) >> 4;
 806:lvgl/src/lv_widgets/lv_arc.c ****         angle += round;
 807:lvgl/src/lv_widgets/lv_arc.c **** 
 808:lvgl/src/lv_widgets/lv_arc.c ****         angle += ext->bg_angle_start;   /*Make the angle absolute again*/
 809:lvgl/src/lv_widgets/lv_arc.c **** 
 810:lvgl/src/lv_widgets/lv_arc.c ****         /*Set the new value*/
 811:lvgl/src/lv_widgets/lv_arc.c ****         int16_t old_value = ext->cur_value;
 812:lvgl/src/lv_widgets/lv_arc.c ****         int16_t new_value = _lv_map(angle, ext->bg_angle_start, bg_end, ext->min_value, ext->max_va
 813:lvgl/src/lv_widgets/lv_arc.c ****         if(new_value != lv_arc_get_value(arc)) {
 814:lvgl/src/lv_widgets/lv_arc.c ****             ext->last_tick = lv_tick_get(); /*Cache timestamp for the next iteration*/
 815:lvgl/src/lv_widgets/lv_arc.c ****             lv_arc_set_value(arc, new_value); /*set_value caches the last_angle for the next iterat
 816:lvgl/src/lv_widgets/lv_arc.c ****             if(new_value != old_value) {
 817:lvgl/src/lv_widgets/lv_arc.c ****                 res = lv_event_send(arc, LV_EVENT_VALUE_CHANGED, NULL);
 818:lvgl/src/lv_widgets/lv_arc.c ****                 if(res != LV_RES_OK) return res;
 819:lvgl/src/lv_widgets/lv_arc.c ****             }
 820:lvgl/src/lv_widgets/lv_arc.c ****         }
 821:lvgl/src/lv_widgets/lv_arc.c **** 
 822:lvgl/src/lv_widgets/lv_arc.c ****         /*Don1't let the elapsed time to big while sitting on an end point*/
 823:lvgl/src/lv_widgets/lv_arc.c ****         if(new_value == ext->min_value || new_value == ext->max_value) {
 824:lvgl/src/lv_widgets/lv_arc.c ****             ext->last_tick = lv_tick_get(); /*Cache timestamp for the next iteration*/
 825:lvgl/src/lv_widgets/lv_arc.c ****         }
 826:lvgl/src/lv_widgets/lv_arc.c ****     }
 827:lvgl/src/lv_widgets/lv_arc.c ****     else if(sign == LV_SIGNAL_RELEASED || sign == LV_SIGNAL_PRESS_LOST) {
 828:lvgl/src/lv_widgets/lv_arc.c ****         ext->dragging = false;
ARM GAS  D:\Temp\ccOOHxmt.s 			page 16


 829:lvgl/src/lv_widgets/lv_arc.c **** 
 830:lvgl/src/lv_widgets/lv_arc.c **** #if LV_USE_GROUP
 831:lvgl/src/lv_widgets/lv_arc.c ****         /*Leave edit mode if released. (No need to wait for LONG_PRESS) */
 832:lvgl/src/lv_widgets/lv_arc.c ****         lv_group_t * g             = lv_obj_get_group(arc);
 833:lvgl/src/lv_widgets/lv_arc.c ****         bool editing               = lv_group_get_editing(g);
 834:lvgl/src/lv_widgets/lv_arc.c ****         lv_indev_type_t indev_type = lv_indev_get_type(lv_indev_get_act());
 835:lvgl/src/lv_widgets/lv_arc.c ****         if(indev_type == LV_INDEV_TYPE_ENCODER) {
 836:lvgl/src/lv_widgets/lv_arc.c ****             if(editing) lv_group_set_editing(g, false);
 837:lvgl/src/lv_widgets/lv_arc.c ****         }
 838:lvgl/src/lv_widgets/lv_arc.c **** #endif
 839:lvgl/src/lv_widgets/lv_arc.c **** 
 840:lvgl/src/lv_widgets/lv_arc.c ****     }
 841:lvgl/src/lv_widgets/lv_arc.c ****     else if(sign == LV_SIGNAL_CONTROL) {
 842:lvgl/src/lv_widgets/lv_arc.c ****         if(!ext->adjustable) return res;
 843:lvgl/src/lv_widgets/lv_arc.c **** 
 844:lvgl/src/lv_widgets/lv_arc.c ****         char c = *((char *)param);
 845:lvgl/src/lv_widgets/lv_arc.c **** 
 846:lvgl/src/lv_widgets/lv_arc.c ****         int16_t old_value = ext->cur_value;
 847:lvgl/src/lv_widgets/lv_arc.c ****         if(c == LV_KEY_RIGHT || c == LV_KEY_UP) {
 848:lvgl/src/lv_widgets/lv_arc.c ****             lv_arc_set_value(arc, lv_arc_get_value(arc) + 1);
 849:lvgl/src/lv_widgets/lv_arc.c ****         }
 850:lvgl/src/lv_widgets/lv_arc.c ****         else if(c == LV_KEY_LEFT || c == LV_KEY_DOWN) {
 851:lvgl/src/lv_widgets/lv_arc.c ****             lv_arc_set_value(arc, lv_arc_get_value(arc) - 1);
 852:lvgl/src/lv_widgets/lv_arc.c ****         }
 853:lvgl/src/lv_widgets/lv_arc.c **** 
 854:lvgl/src/lv_widgets/lv_arc.c ****         if(old_value != ext->cur_value) {
 855:lvgl/src/lv_widgets/lv_arc.c ****             res = lv_event_send(arc, LV_EVENT_VALUE_CHANGED, NULL);
 856:lvgl/src/lv_widgets/lv_arc.c ****             if(res != LV_RES_OK) return res;
 857:lvgl/src/lv_widgets/lv_arc.c ****         }
 858:lvgl/src/lv_widgets/lv_arc.c ****     }
 859:lvgl/src/lv_widgets/lv_arc.c ****     else if(sign == LV_SIGNAL_GET_EDITABLE) {
 860:lvgl/src/lv_widgets/lv_arc.c **** #if LV_USE_GROUP
 861:lvgl/src/lv_widgets/lv_arc.c ****         bool * editable = (bool *)param;
 862:lvgl/src/lv_widgets/lv_arc.c ****         *editable = true;
 863:lvgl/src/lv_widgets/lv_arc.c **** #endif
 864:lvgl/src/lv_widgets/lv_arc.c ****     }
 865:lvgl/src/lv_widgets/lv_arc.c ****     else if(sign == LV_SIGNAL_CLEANUP) {
 866:lvgl/src/lv_widgets/lv_arc.c ****         lv_obj_clean_style_list(arc, LV_ARC_PART_KNOB);
 867:lvgl/src/lv_widgets/lv_arc.c ****         lv_obj_clean_style_list(arc, LV_ARC_PART_INDIC);
 868:lvgl/src/lv_widgets/lv_arc.c ****     }
 869:lvgl/src/lv_widgets/lv_arc.c **** 
 870:lvgl/src/lv_widgets/lv_arc.c ****     return res;
 871:lvgl/src/lv_widgets/lv_arc.c **** }
 872:lvgl/src/lv_widgets/lv_arc.c **** 
 873:lvgl/src/lv_widgets/lv_arc.c **** /**
 874:lvgl/src/lv_widgets/lv_arc.c ****  * Get the style descriptor of a part of the object
 875:lvgl/src/lv_widgets/lv_arc.c ****  * @param arc pointer the object
 876:lvgl/src/lv_widgets/lv_arc.c ****  * @param part the part of the object. (LV_ARC_PART_...)
 877:lvgl/src/lv_widgets/lv_arc.c ****  * @return pointer to the style descriptor of the specified part
 878:lvgl/src/lv_widgets/lv_arc.c ****  */
 879:lvgl/src/lv_widgets/lv_arc.c **** static lv_style_list_t * lv_arc_get_style(lv_obj_t * arc, uint8_t part)
 880:lvgl/src/lv_widgets/lv_arc.c **** {
  29              		.loc 1 880 1 view -0
  30              		.cfi_startproc
  31              		@ args = 0, pretend = 0, frame = 0
  32              		@ frame_needed = 0, uses_anonymous_args = 0
  33              		.loc 1 880 1 is_stmt 0 view .LVU1
ARM GAS  D:\Temp\ccOOHxmt.s 			page 17


  34 0000 38B5     		push	{r3, r4, r5, lr}
  35              	.LCFI0:
  36              		.cfi_def_cfa_offset 16
  37              		.cfi_offset 3, -16
  38              		.cfi_offset 4, -12
  39              		.cfi_offset 5, -8
  40              		.cfi_offset 14, -4
  41 0002 0446     		mov	r4, r0
  42 0004 0D46     		mov	r5, r1
 881:lvgl/src/lv_widgets/lv_arc.c ****     LV_ASSERT_OBJ(arc, LV_OBJX_NAME);
  43              		.loc 1 881 5 is_stmt 1 view .LVU2
  44              		.loc 1 881 5 view .LVU3
  45 0006 FFF7FEFF 		bl	lv_debug_check_null
  46              	.LVL1:
  47              		.loc 1 881 5 is_stmt 0 view .LVU4
  48 000a 28B9     		cbnz	r0, .L2
  49              		.loc 1 881 5 is_stmt 1 discriminator 1 view .LVU5
  50              		.loc 1 881 5 discriminator 1 view .LVU6
  51 000c 2246     		mov	r2, r4
  52 000e 0023     		movs	r3, #0
  53 0010 0A48     		ldr	r0, .L9
  54 0012 FFF7FEFF 		bl	lv_debug_log_error
  55              	.LVL2:
  56              	.L3:
  57              		.loc 1 881 5 discriminator 1 view .LVU7
  58              		.loc 1 881 5 discriminator 1 view .LVU8
  59 0016 FEE7     		b	.L3
  60              	.L2:
  61              		.loc 1 881 37 discriminator 2 view .LVU9
 882:lvgl/src/lv_widgets/lv_arc.c **** 
 883:lvgl/src/lv_widgets/lv_arc.c ****     lv_arc_ext_t * ext = lv_obj_get_ext_attr(arc);
  62              		.loc 1 883 5 discriminator 2 view .LVU10
  63              		.loc 1 883 26 is_stmt 0 discriminator 2 view .LVU11
  64 0018 2046     		mov	r0, r4
  65 001a FFF7FEFF 		bl	lv_obj_get_ext_attr
  66              	.LVL3:
 884:lvgl/src/lv_widgets/lv_arc.c **** 
 885:lvgl/src/lv_widgets/lv_arc.c ****     lv_style_list_t * style_dsc_p;
  67              		.loc 1 885 5 is_stmt 1 discriminator 2 view .LVU12
 886:lvgl/src/lv_widgets/lv_arc.c **** 
 887:lvgl/src/lv_widgets/lv_arc.c ****     switch(part) {
  68              		.loc 1 887 5 discriminator 2 view .LVU13
  69 001e 012D     		cmp	r5, #1
  70 0020 08D0     		beq	.L4
  71              		.loc 1 887 5 is_stmt 0 view .LVU14
  72 0022 6BB2     		sxtb	r3, r5
  73 0024 1BB1     		cbz	r3, .L5
  74 0026 022D     		cmp	r5, #2
  75 0028 06D0     		beq	.L6
 888:lvgl/src/lv_widgets/lv_arc.c ****         case LV_ARC_PART_BG:
 889:lvgl/src/lv_widgets/lv_arc.c ****             style_dsc_p = &arc->style_list;
 890:lvgl/src/lv_widgets/lv_arc.c ****             break;
 891:lvgl/src/lv_widgets/lv_arc.c ****         case LV_ARC_PART_INDIC:
 892:lvgl/src/lv_widgets/lv_arc.c ****             style_dsc_p = &ext->style_arc;
 893:lvgl/src/lv_widgets/lv_arc.c ****             break;
 894:lvgl/src/lv_widgets/lv_arc.c ****         case LV_ARC_PART_KNOB:
 895:lvgl/src/lv_widgets/lv_arc.c ****             style_dsc_p = &ext->style_knob;
ARM GAS  D:\Temp\ccOOHxmt.s 			page 18


 896:lvgl/src/lv_widgets/lv_arc.c ****             break;
 897:lvgl/src/lv_widgets/lv_arc.c ****         default:
 898:lvgl/src/lv_widgets/lv_arc.c ****             style_dsc_p = NULL;
  76              		.loc 1 898 25 view .LVU15
  77 002a 0020     		movs	r0, #0
  78              	.LVL4:
  79              	.L1:
 899:lvgl/src/lv_widgets/lv_arc.c ****     }
 900:lvgl/src/lv_widgets/lv_arc.c **** 
 901:lvgl/src/lv_widgets/lv_arc.c ****     return style_dsc_p;
 902:lvgl/src/lv_widgets/lv_arc.c **** }
  80              		.loc 1 902 1 view .LVU16
  81 002c 38BD     		pop	{r3, r4, r5, pc}
  82              	.LVL5:
  83              	.L5:
 889:lvgl/src/lv_widgets/lv_arc.c ****             break;
  84              		.loc 1 889 13 is_stmt 1 view .LVU17
 889:lvgl/src/lv_widgets/lv_arc.c ****             break;
  85              		.loc 1 889 25 is_stmt 0 view .LVU18
  86 002e 04F12800 		add	r0, r4, #40
  87              	.LVL6:
 890:lvgl/src/lv_widgets/lv_arc.c ****         case LV_ARC_PART_INDIC:
  88              		.loc 1 890 13 is_stmt 1 view .LVU19
  89 0032 FBE7     		b	.L1
  90              	.LVL7:
  91              	.L4:
 892:lvgl/src/lv_widgets/lv_arc.c ****             break;
  92              		.loc 1 892 13 view .LVU20
 892:lvgl/src/lv_widgets/lv_arc.c ****             break;
  93              		.loc 1 892 25 is_stmt 0 view .LVU21
  94 0034 0C30     		adds	r0, r0, #12
  95              	.LVL8:
 893:lvgl/src/lv_widgets/lv_arc.c ****         case LV_ARC_PART_KNOB:
  96              		.loc 1 893 13 is_stmt 1 view .LVU22
  97 0036 F9E7     		b	.L1
  98              	.LVL9:
  99              	.L6:
 895:lvgl/src/lv_widgets/lv_arc.c ****             break;
 100              		.loc 1 895 13 view .LVU23
 895:lvgl/src/lv_widgets/lv_arc.c ****             break;
 101              		.loc 1 895 25 is_stmt 0 view .LVU24
 102 0038 1430     		adds	r0, r0, #20
 103              	.LVL10:
 896:lvgl/src/lv_widgets/lv_arc.c ****         default:
 104              		.loc 1 896 13 is_stmt 1 view .LVU25
 901:lvgl/src/lv_widgets/lv_arc.c **** }
 105              		.loc 1 901 5 view .LVU26
 901:lvgl/src/lv_widgets/lv_arc.c **** }
 106              		.loc 1 901 12 is_stmt 0 view .LVU27
 107 003a F7E7     		b	.L1
 108              	.L10:
 109              		.align	2
 110              	.L9:
 111 003c 00000000 		.word	.LC0
 112              		.cfi_endproc
 113              	.LFE483:
 115              		.section	.text.get_center,"ax",%progbits
ARM GAS  D:\Temp\ccOOHxmt.s 			page 19


 116              		.align	1
 117              		.syntax unified
 118              		.thumb
 119              		.thumb_func
 120              		.fpu fpv4-sp-d16
 122              	get_center:
 123              	.LVL11:
 124              	.LFB485:
 903:lvgl/src/lv_widgets/lv_arc.c **** 
 904:lvgl/src/lv_widgets/lv_arc.c **** static void inv_arc_area(lv_obj_t * arc, uint16_t start_angle, uint16_t end_angle, lv_arc_part_t pa
 905:lvgl/src/lv_widgets/lv_arc.c **** {
 906:lvgl/src/lv_widgets/lv_arc.c ****     /*Skip this complicated invalidation if the arc is not visible*/
 907:lvgl/src/lv_widgets/lv_arc.c ****     if(lv_obj_is_visible(arc) == false) return;
 908:lvgl/src/lv_widgets/lv_arc.c **** 
 909:lvgl/src/lv_widgets/lv_arc.c ****     lv_arc_ext_t * ext = lv_obj_get_ext_attr(arc);
 910:lvgl/src/lv_widgets/lv_arc.c **** 
 911:lvgl/src/lv_widgets/lv_arc.c ****     start_angle += ext->rotation_angle;
 912:lvgl/src/lv_widgets/lv_arc.c ****     end_angle += ext->rotation_angle;
 913:lvgl/src/lv_widgets/lv_arc.c **** 
 914:lvgl/src/lv_widgets/lv_arc.c ****     if(start_angle >= 360) start_angle -= 360;
 915:lvgl/src/lv_widgets/lv_arc.c ****     if(end_angle >= 360) end_angle -= 360;
 916:lvgl/src/lv_widgets/lv_arc.c **** 
 917:lvgl/src/lv_widgets/lv_arc.c ****     uint8_t start_quarter = start_angle / 90;
 918:lvgl/src/lv_widgets/lv_arc.c ****     uint8_t end_quarter = end_angle / 90;
 919:lvgl/src/lv_widgets/lv_arc.c **** 
 920:lvgl/src/lv_widgets/lv_arc.c ****     lv_coord_t left = lv_obj_get_style_pad_left(arc, LV_ARC_PART_BG);
 921:lvgl/src/lv_widgets/lv_arc.c ****     lv_coord_t right = lv_obj_get_style_pad_right(arc, LV_ARC_PART_BG);
 922:lvgl/src/lv_widgets/lv_arc.c ****     lv_coord_t top = lv_obj_get_style_pad_top(arc, LV_ARC_PART_BG);
 923:lvgl/src/lv_widgets/lv_arc.c ****     lv_coord_t bottom = lv_obj_get_style_pad_bottom(arc, LV_ARC_PART_BG);
 924:lvgl/src/lv_widgets/lv_arc.c ****     lv_coord_t rout       = (LV_MATH_MIN(lv_obj_get_width(arc) - left - right, lv_obj_get_height(ar
 925:lvgl/src/lv_widgets/lv_arc.c ****     lv_coord_t x       = arc->coords.x1 + rout + left;
 926:lvgl/src/lv_widgets/lv_arc.c ****     lv_coord_t y       = arc->coords.y1 + rout + top;
 927:lvgl/src/lv_widgets/lv_arc.c ****     lv_style_int_t w = lv_obj_get_style_line_width(arc, part);
 928:lvgl/src/lv_widgets/lv_arc.c ****     lv_style_int_t rounded = lv_obj_get_style_line_rounded(arc, part);
 929:lvgl/src/lv_widgets/lv_arc.c ****     lv_coord_t rin       = rout - w;
 930:lvgl/src/lv_widgets/lv_arc.c ****     lv_coord_t extra_area = 0;
 931:lvgl/src/lv_widgets/lv_arc.c **** 
 932:lvgl/src/lv_widgets/lv_arc.c ****     extra_area = rounded ? w / 2 + 2 : 0;
 933:lvgl/src/lv_widgets/lv_arc.c **** 
 934:lvgl/src/lv_widgets/lv_arc.c ****     if(part == LV_ARC_PART_INDIC && lv_style_list_get_style(&ext->style_knob, 0) != NULL) {
 935:lvgl/src/lv_widgets/lv_arc.c ****         lv_coord_t knob_extra_size = lv_obj_get_draw_rect_ext_pad_size(arc, LV_ARC_PART_KNOB);
 936:lvgl/src/lv_widgets/lv_arc.c **** 
 937:lvgl/src/lv_widgets/lv_arc.c ****         lv_coord_t knob_left = lv_obj_get_style_pad_left(arc, LV_ARC_PART_KNOB);
 938:lvgl/src/lv_widgets/lv_arc.c ****         lv_coord_t knob_right = lv_obj_get_style_pad_right(arc, LV_ARC_PART_KNOB);
 939:lvgl/src/lv_widgets/lv_arc.c ****         lv_coord_t knob_top = lv_obj_get_style_pad_top(arc, LV_ARC_PART_KNOB);
 940:lvgl/src/lv_widgets/lv_arc.c ****         lv_coord_t knob_bottom = lv_obj_get_style_pad_bottom(arc, LV_ARC_PART_KNOB);
 941:lvgl/src/lv_widgets/lv_arc.c **** 
 942:lvgl/src/lv_widgets/lv_arc.c ****         knob_extra_size += LV_MATH_MAX4(knob_left, knob_right, knob_top, knob_bottom);
 943:lvgl/src/lv_widgets/lv_arc.c **** 
 944:lvgl/src/lv_widgets/lv_arc.c ****         extra_area = LV_MATH_MAX(extra_area, w / 2 + 2 + knob_extra_size);
 945:lvgl/src/lv_widgets/lv_arc.c **** 
 946:lvgl/src/lv_widgets/lv_arc.c ****     }
 947:lvgl/src/lv_widgets/lv_arc.c **** 
 948:lvgl/src/lv_widgets/lv_arc.c ****     lv_area_t inv_area;
 949:lvgl/src/lv_widgets/lv_arc.c **** 
 950:lvgl/src/lv_widgets/lv_arc.c ****     if(start_quarter == end_quarter && start_angle <= end_angle) {
 951:lvgl/src/lv_widgets/lv_arc.c ****         if(start_quarter == 0) {
ARM GAS  D:\Temp\ccOOHxmt.s 			page 20


 952:lvgl/src/lv_widgets/lv_arc.c ****             inv_area.y1 = y + ((_lv_trigo_sin(start_angle) * rin) >> LV_TRIGO_SHIFT) - extra_area;
 953:lvgl/src/lv_widgets/lv_arc.c ****             inv_area.x2 = x + ((_lv_trigo_sin(start_angle + 90) * rout) >> LV_TRIGO_SHIFT) + extra_
 954:lvgl/src/lv_widgets/lv_arc.c **** 
 955:lvgl/src/lv_widgets/lv_arc.c ****             inv_area.y2 = y + ((_lv_trigo_sin(end_angle) * rout) >> LV_TRIGO_SHIFT) + extra_area;
 956:lvgl/src/lv_widgets/lv_arc.c ****             inv_area.x1 = x + ((_lv_trigo_sin(end_angle + 90) * rin) >> LV_TRIGO_SHIFT) - extra_are
 957:lvgl/src/lv_widgets/lv_arc.c **** 
 958:lvgl/src/lv_widgets/lv_arc.c ****             lv_obj_invalidate_area(arc, &inv_area);
 959:lvgl/src/lv_widgets/lv_arc.c ****         }
 960:lvgl/src/lv_widgets/lv_arc.c ****         else if(start_quarter == 1) {
 961:lvgl/src/lv_widgets/lv_arc.c ****             inv_area.y2 = y + ((_lv_trigo_sin(start_angle) * rout) >> LV_TRIGO_SHIFT) + extra_area;
 962:lvgl/src/lv_widgets/lv_arc.c ****             inv_area.x2 = x + ((_lv_trigo_sin(start_angle + 90) * rin) >> LV_TRIGO_SHIFT) + extra_a
 963:lvgl/src/lv_widgets/lv_arc.c **** 
 964:lvgl/src/lv_widgets/lv_arc.c ****             inv_area.y1 = y + ((_lv_trigo_sin(end_angle) * rin) >> LV_TRIGO_SHIFT) - extra_area;
 965:lvgl/src/lv_widgets/lv_arc.c ****             inv_area.x1 = x + ((_lv_trigo_sin(end_angle + 90) * rout) >> LV_TRIGO_SHIFT) - extra_ar
 966:lvgl/src/lv_widgets/lv_arc.c **** 
 967:lvgl/src/lv_widgets/lv_arc.c ****             lv_obj_invalidate_area(arc, &inv_area);
 968:lvgl/src/lv_widgets/lv_arc.c ****         }
 969:lvgl/src/lv_widgets/lv_arc.c ****         else if(start_quarter == 2) {
 970:lvgl/src/lv_widgets/lv_arc.c ****             inv_area.x1 = x + ((_lv_trigo_sin(start_angle + 90) * rout) >> LV_TRIGO_SHIFT) - extra_
 971:lvgl/src/lv_widgets/lv_arc.c ****             inv_area.y2 = y + ((_lv_trigo_sin(start_angle) * rin) >> LV_TRIGO_SHIFT) + extra_area;
 972:lvgl/src/lv_widgets/lv_arc.c **** 
 973:lvgl/src/lv_widgets/lv_arc.c ****             inv_area.y1 = y + ((_lv_trigo_sin(end_angle) * rout) >> LV_TRIGO_SHIFT) - extra_area;
 974:lvgl/src/lv_widgets/lv_arc.c ****             inv_area.x2 = x + ((_lv_trigo_sin(end_angle + 90) * rin) >> LV_TRIGO_SHIFT) + extra_are
 975:lvgl/src/lv_widgets/lv_arc.c **** 
 976:lvgl/src/lv_widgets/lv_arc.c ****             lv_obj_invalidate_area(arc, &inv_area);
 977:lvgl/src/lv_widgets/lv_arc.c ****         }
 978:lvgl/src/lv_widgets/lv_arc.c ****         else if(start_quarter == 3) {
 979:lvgl/src/lv_widgets/lv_arc.c ****             /*Small arc here*/
 980:lvgl/src/lv_widgets/lv_arc.c ****             inv_area.x1 = x + ((_lv_trigo_sin(start_angle + 90) * rin) >> LV_TRIGO_SHIFT) - extra_a
 981:lvgl/src/lv_widgets/lv_arc.c ****             inv_area.y1 = y + ((_lv_trigo_sin(start_angle) * rout) >> LV_TRIGO_SHIFT) - extra_area;
 982:lvgl/src/lv_widgets/lv_arc.c **** 
 983:lvgl/src/lv_widgets/lv_arc.c ****             inv_area.x2 = x + ((_lv_trigo_sin(end_angle + 90) * rout) >> LV_TRIGO_SHIFT) + extra_ar
 984:lvgl/src/lv_widgets/lv_arc.c ****             inv_area.y2 = y + ((_lv_trigo_sin(end_angle) * rin) >> LV_TRIGO_SHIFT) + extra_area;
 985:lvgl/src/lv_widgets/lv_arc.c **** 
 986:lvgl/src/lv_widgets/lv_arc.c ****             lv_obj_invalidate_area(arc, &inv_area);
 987:lvgl/src/lv_widgets/lv_arc.c ****         }
 988:lvgl/src/lv_widgets/lv_arc.c **** 
 989:lvgl/src/lv_widgets/lv_arc.c ****     }
 990:lvgl/src/lv_widgets/lv_arc.c ****     else if(start_quarter == 0 && end_quarter == 1) {
 991:lvgl/src/lv_widgets/lv_arc.c ****         inv_area.x1 = x + ((_lv_trigo_sin(end_angle + 90) * rout) >> LV_TRIGO_SHIFT) - extra_area;
 992:lvgl/src/lv_widgets/lv_arc.c ****         inv_area.y1 = y + ((LV_MATH_MIN(_lv_trigo_sin(end_angle),
 993:lvgl/src/lv_widgets/lv_arc.c ****                                         _lv_trigo_sin(start_angle))  * rin) >> LV_TRIGO_SHIFT) - ex
 994:lvgl/src/lv_widgets/lv_arc.c ****         inv_area.x2 = x + ((_lv_trigo_sin(start_angle + 90) * rout) >> LV_TRIGO_SHIFT) + extra_area
 995:lvgl/src/lv_widgets/lv_arc.c ****         inv_area.y2 = y + rout + extra_area;
 996:lvgl/src/lv_widgets/lv_arc.c ****         lv_obj_invalidate_area(arc, &inv_area);
 997:lvgl/src/lv_widgets/lv_arc.c ****     }
 998:lvgl/src/lv_widgets/lv_arc.c ****     else if(start_quarter == 1 && end_quarter == 2) {
 999:lvgl/src/lv_widgets/lv_arc.c ****         inv_area.x1 = x - rout - extra_area;
1000:lvgl/src/lv_widgets/lv_arc.c ****         inv_area.y1 = y + ((_lv_trigo_sin(end_angle) * rout) >> LV_TRIGO_SHIFT) - extra_area;
1001:lvgl/src/lv_widgets/lv_arc.c ****         inv_area.x2 = x + ((LV_MATH_MAX(_lv_trigo_sin(start_angle + 90),
1002:lvgl/src/lv_widgets/lv_arc.c ****                                         _lv_trigo_sin(end_angle + 90)) * rin) >> LV_TRIGO_SHIFT) + 
1003:lvgl/src/lv_widgets/lv_arc.c ****         inv_area.y2 = y + ((_lv_trigo_sin(start_angle) * rout) >> LV_TRIGO_SHIFT) + extra_area;
1004:lvgl/src/lv_widgets/lv_arc.c ****         lv_obj_invalidate_area(arc, &inv_area);
1005:lvgl/src/lv_widgets/lv_arc.c ****     }
1006:lvgl/src/lv_widgets/lv_arc.c ****     else if(start_quarter == 2 && end_quarter == 3) {
1007:lvgl/src/lv_widgets/lv_arc.c ****         inv_area.x1 = x + ((_lv_trigo_sin(start_angle + 90) * rout) >> LV_TRIGO_SHIFT) - extra_area
1008:lvgl/src/lv_widgets/lv_arc.c ****         inv_area.y1 = y - rout - extra_area;
ARM GAS  D:\Temp\ccOOHxmt.s 			page 21


1009:lvgl/src/lv_widgets/lv_arc.c ****         inv_area.x2 = x + ((_lv_trigo_sin(end_angle + 90) * rout) >> LV_TRIGO_SHIFT) + extra_area;
1010:lvgl/src/lv_widgets/lv_arc.c ****         inv_area.y2 = y + (LV_MATH_MAX(_lv_trigo_sin(end_angle) * rin,
1011:lvgl/src/lv_widgets/lv_arc.c ****                                        _lv_trigo_sin(start_angle) * rin) >> LV_TRIGO_SHIFT) + extra
1012:lvgl/src/lv_widgets/lv_arc.c ****         lv_obj_invalidate_area(arc, &inv_area);
1013:lvgl/src/lv_widgets/lv_arc.c ****     }
1014:lvgl/src/lv_widgets/lv_arc.c ****     else if(start_quarter == 3 && end_quarter == 0) {
1015:lvgl/src/lv_widgets/lv_arc.c ****         inv_area.x1 = x + ((LV_MATH_MIN(_lv_trigo_sin(end_angle + 90),
1016:lvgl/src/lv_widgets/lv_arc.c ****                                         _lv_trigo_sin(start_angle + 90)) * rin) >> LV_TRIGO_SHIFT) 
1017:lvgl/src/lv_widgets/lv_arc.c ****         inv_area.y1 = y + ((_lv_trigo_sin(start_angle) * rout) >> LV_TRIGO_SHIFT) - extra_area;
1018:lvgl/src/lv_widgets/lv_arc.c ****         inv_area.x2 = x + rout + extra_area;
1019:lvgl/src/lv_widgets/lv_arc.c ****         inv_area.y2 = y + ((_lv_trigo_sin(end_angle) * rout) >> LV_TRIGO_SHIFT) + extra_area;
1020:lvgl/src/lv_widgets/lv_arc.c **** 
1021:lvgl/src/lv_widgets/lv_arc.c ****         lv_obj_invalidate_area(arc, &inv_area);
1022:lvgl/src/lv_widgets/lv_arc.c ****     }
1023:lvgl/src/lv_widgets/lv_arc.c ****     else {
1024:lvgl/src/lv_widgets/lv_arc.c ****         lv_obj_invalidate(arc);
1025:lvgl/src/lv_widgets/lv_arc.c ****     }
1026:lvgl/src/lv_widgets/lv_arc.c **** }
1027:lvgl/src/lv_widgets/lv_arc.c **** 
1028:lvgl/src/lv_widgets/lv_arc.c **** static void get_center(lv_obj_t * arc, lv_point_t * center, lv_coord_t * arc_r)
1029:lvgl/src/lv_widgets/lv_arc.c **** {
 125              		.loc 1 1029 1 is_stmt 1 view -0
 126              		.cfi_startproc
 127              		@ args = 0, pretend = 0, frame = 0
 128              		@ frame_needed = 0, uses_anonymous_args = 0
 129              		.loc 1 1029 1 is_stmt 0 view .LVU29
 130 0000 2DE9F84F 		push	{r3, r4, r5, r6, r7, r8, r9, r10, fp, lr}
 131              	.LCFI1:
 132              		.cfi_def_cfa_offset 40
 133              		.cfi_offset 3, -40
 134              		.cfi_offset 4, -36
 135              		.cfi_offset 5, -32
 136              		.cfi_offset 6, -28
 137              		.cfi_offset 7, -24
 138              		.cfi_offset 8, -20
 139              		.cfi_offset 9, -16
 140              		.cfi_offset 10, -12
 141              		.cfi_offset 11, -8
 142              		.cfi_offset 14, -4
 143 0004 0446     		mov	r4, r0
 144 0006 0D46     		mov	r5, r1
 145 0008 9046     		mov	r8, r2
1030:lvgl/src/lv_widgets/lv_arc.c ****     lv_coord_t left_bg = lv_obj_get_style_pad_left(arc, LV_ARC_PART_BG);
 146              		.loc 1 1030 5 is_stmt 1 view .LVU30
 147              	.LVL12:
 148              	.LBB64:
 149              	.LBI64:
 150              		.file 2 "lvgl/src/lv_widgets/../lv_core/lv_obj_style_dec.h"
   1:lvgl/src/lv_widgets/../lv_core/lv_obj_style_dec.h **** 
   2:lvgl/src/lv_widgets/../lv_core/lv_obj_style_dec.h **** /**
   3:lvgl/src/lv_widgets/../lv_core/lv_obj_style_dec.h ****  * @file lv_obj_style_dec.h
   4:lvgl/src/lv_widgets/../lv_core/lv_obj_style_dec.h ****  *
   5:lvgl/src/lv_widgets/../lv_core/lv_obj_style_dec.h ****  */
   6:lvgl/src/lv_widgets/../lv_core/lv_obj_style_dec.h **** 
   7:lvgl/src/lv_widgets/../lv_core/lv_obj_style_dec.h **** #ifndef LV_OBJ_STYLE_DEC_H
   8:lvgl/src/lv_widgets/../lv_core/lv_obj_style_dec.h **** #define LV_OBJ_STYLE_DEC_H
   9:lvgl/src/lv_widgets/../lv_core/lv_obj_style_dec.h **** 
ARM GAS  D:\Temp\ccOOHxmt.s 			page 22


  10:lvgl/src/lv_widgets/../lv_core/lv_obj_style_dec.h **** #ifdef __cplusplus
  11:lvgl/src/lv_widgets/../lv_core/lv_obj_style_dec.h **** extern "C" {
  12:lvgl/src/lv_widgets/../lv_core/lv_obj_style_dec.h **** #endif
  13:lvgl/src/lv_widgets/../lv_core/lv_obj_style_dec.h **** 
  14:lvgl/src/lv_widgets/../lv_core/lv_obj_style_dec.h **** /*********************
  15:lvgl/src/lv_widgets/../lv_core/lv_obj_style_dec.h ****  *      DEFINES
  16:lvgl/src/lv_widgets/../lv_core/lv_obj_style_dec.h ****  *********************/
  17:lvgl/src/lv_widgets/../lv_core/lv_obj_style_dec.h **** 
  18:lvgl/src/lv_widgets/../lv_core/lv_obj_style_dec.h **** /**
  19:lvgl/src/lv_widgets/../lv_core/lv_obj_style_dec.h ****  * Macro to declare the most important style set/get API functions.
  20:lvgl/src/lv_widgets/../lv_core/lv_obj_style_dec.h ****  *
  21:lvgl/src/lv_widgets/../lv_core/lv_obj_style_dec.h ****  * Get the value of a style property from an object in the object's current state
  22:lvgl/src/lv_widgets/../lv_core/lv_obj_style_dec.h ****  * -----------------------------------------------------------------------------
  23:lvgl/src/lv_widgets/../lv_core/lv_obj_style_dec.h ****  *  - Get the value of a style property from an object in the object's current state.
  24:lvgl/src/lv_widgets/../lv_core/lv_obj_style_dec.h ****  *  - Transition animation is taken into account.
  25:lvgl/src/lv_widgets/../lv_core/lv_obj_style_dec.h ****  *  - If the property is not set in the object's styles check the parent(s) if the property can be 
  26:lvgl/src/lv_widgets/../lv_core/lv_obj_style_dec.h ****  *  - If still not found return a default value.
  27:lvgl/src/lv_widgets/../lv_core/lv_obj_style_dec.h ****  *  - For example:
  28:lvgl/src/lv_widgets/../lv_core/lv_obj_style_dec.h ****  *      `lv_style_int_t w = lv_obj_get_style_border_width(btn1, LV_BTN_PART_MAIN);`
  29:lvgl/src/lv_widgets/../lv_core/lv_obj_style_dec.h ****  *
  30:lvgl/src/lv_widgets/../lv_core/lv_obj_style_dec.h ****  * Set a local style property for an object in a given state
  31:lvgl/src/lv_widgets/../lv_core/lv_obj_style_dec.h ****  * ---------------------------------------------------------
  32:lvgl/src/lv_widgets/../lv_core/lv_obj_style_dec.h ****  *  - For example:
  33:lvgl/src/lv_widgets/../lv_core/lv_obj_style_dec.h ****  *      `lv_obj_set_style_local_border_width(btn1, LV_BTN_PART_MAIN, LV_STATE_PRESSED, 2);`
  34:lvgl/src/lv_widgets/../lv_core/lv_obj_style_dec.h ****  *
  35:lvgl/src/lv_widgets/../lv_core/lv_obj_style_dec.h ****  * Get a local style property's value of an object in a given state
  36:lvgl/src/lv_widgets/../lv_core/lv_obj_style_dec.h ****  * ----------------------------------------------------------------
  37:lvgl/src/lv_widgets/../lv_core/lv_obj_style_dec.h ****  *  - Return the best matching property in the given state.
  38:lvgl/src/lv_widgets/../lv_core/lv_obj_style_dec.h ****  *  - E.g. if `state` parameter is LV_STATE_PRESSED | LV_STATE_CHECKED` but the property defined on
  39:lvgl/src/lv_widgets/../lv_core/lv_obj_style_dec.h ****  *    `LV_STATE_PRESSED` and `LV_STATE_DEFAULT` the best matching state is `LV_STATE_PRESSED`
  40:lvgl/src/lv_widgets/../lv_core/lv_obj_style_dec.h ****  *    (because it has higher precedence) and it will be returned.
  41:lvgl/src/lv_widgets/../lv_core/lv_obj_style_dec.h ****  *  - If the property is not found even in `LV_STATE_DEFAULT` `-1` is returned.
  42:lvgl/src/lv_widgets/../lv_core/lv_obj_style_dec.h ****  *  - For example:
  43:lvgl/src/lv_widgets/../lv_core/lv_obj_style_dec.h ****  *      `//Type of result should be lv_style_int_t/lv_opa_t/lv_color_t/const void * according to th
  44:lvgl/src/lv_widgets/../lv_core/lv_obj_style_dec.h ****  *      `lv_style_int_t result;`
  45:lvgl/src/lv_widgets/../lv_core/lv_obj_style_dec.h ****  *      `lv_obj_get_style_local_border_width(btn1, LV_BTN_PART_MAIN, LV_STATE_PRESSED, &result);`
  46:lvgl/src/lv_widgets/../lv_core/lv_obj_style_dec.h ****  *      `if(weight > 0) ...the property is found and loaded into result...`
  47:lvgl/src/lv_widgets/../lv_core/lv_obj_style_dec.h ****  *
  48:lvgl/src/lv_widgets/../lv_core/lv_obj_style_dec.h ****  * Get the value from a style in a given state
  49:lvgl/src/lv_widgets/../lv_core/lv_obj_style_dec.h ****  * -------------------------------------------
  50:lvgl/src/lv_widgets/../lv_core/lv_obj_style_dec.h ****  * - The same rules applies to the return value then for "lv_obj_get_style_local_...()" above
  51:lvgl/src/lv_widgets/../lv_core/lv_obj_style_dec.h ****  * - For example
  52:lvgl/src/lv_widgets/../lv_core/lv_obj_style_dec.h ****  *      `int16_t weight = lv_style_get_border_width(&style1, LV_STATE_PRESSED, &result);`
  53:lvgl/src/lv_widgets/../lv_core/lv_obj_style_dec.h ****  *      `if(weight > 0) ...the property is found and loaded into result...`
  54:lvgl/src/lv_widgets/../lv_core/lv_obj_style_dec.h **** 
  55:lvgl/src/lv_widgets/../lv_core/lv_obj_style_dec.h ****  * Set a value in a style in a given state
  56:lvgl/src/lv_widgets/../lv_core/lv_obj_style_dec.h ****  * ---------------------------------------
  57:lvgl/src/lv_widgets/../lv_core/lv_obj_style_dec.h ****  * - For example
  58:lvgl/src/lv_widgets/../lv_core/lv_obj_style_dec.h ****  *      `lv_style_set_border_width(&style1, LV_STATE_PRESSED, 2);`
  59:lvgl/src/lv_widgets/../lv_core/lv_obj_style_dec.h ****  */
  60:lvgl/src/lv_widgets/../lv_core/lv_obj_style_dec.h **** 
  61:lvgl/src/lv_widgets/../lv_core/lv_obj_style_dec.h **** #define _OBJ_GET_STYLE_scalar(prop_name, func_name, value_type, style_type)                        
  62:lvgl/src/lv_widgets/../lv_core/lv_obj_style_dec.h ****     static inline value_type lv_obj_get_style_##func_name (const lv_obj_t * obj, uint8_t part)     
  63:lvgl/src/lv_widgets/../lv_core/lv_obj_style_dec.h ****     {                                                                                              
  64:lvgl/src/lv_widgets/../lv_core/lv_obj_style_dec.h ****         return (value_type) _lv_obj_get_style##style_type (obj, part, LV_STYLE_##prop_name);       
  65:lvgl/src/lv_widgets/../lv_core/lv_obj_style_dec.h ****     }
  66:lvgl/src/lv_widgets/../lv_core/lv_obj_style_dec.h **** 
ARM GAS  D:\Temp\ccOOHxmt.s 			page 23


  67:lvgl/src/lv_widgets/../lv_core/lv_obj_style_dec.h **** #define _OBJ_GET_STYLE_nonscalar(prop_name, func_name, value_type, style_type)                     
  68:lvgl/src/lv_widgets/../lv_core/lv_obj_style_dec.h ****     static inline value_type lv_obj_get_style_##func_name (const lv_obj_t * obj, uint8_t part)     
  69:lvgl/src/lv_widgets/../lv_core/lv_obj_style_dec.h ****     {                                                                                              
  70:lvgl/src/lv_widgets/../lv_core/lv_obj_style_dec.h ****         return _lv_obj_get_style##style_type (obj, part, LV_STYLE_##prop_name);                    
  71:lvgl/src/lv_widgets/../lv_core/lv_obj_style_dec.h ****     }
  72:lvgl/src/lv_widgets/../lv_core/lv_obj_style_dec.h **** 
  73:lvgl/src/lv_widgets/../lv_core/lv_obj_style_dec.h **** #define _OBJ_SET_STYLE_LOCAL_scalar(prop_name, func_name, value_type, style_type)                  
  74:lvgl/src/lv_widgets/../lv_core/lv_obj_style_dec.h ****     static inline void lv_obj_set_style_local_##func_name (lv_obj_t * obj, uint8_t part, lv_state_t
  75:lvgl/src/lv_widgets/../lv_core/lv_obj_style_dec.h ****     {                                                                                              
  76:lvgl/src/lv_widgets/../lv_core/lv_obj_style_dec.h ****         _lv_obj_set_style_local##style_type (obj, part, LV_STYLE_##prop_name | (state << LV_STYLE_S
  77:lvgl/src/lv_widgets/../lv_core/lv_obj_style_dec.h ****     }
  78:lvgl/src/lv_widgets/../lv_core/lv_obj_style_dec.h **** 
  79:lvgl/src/lv_widgets/../lv_core/lv_obj_style_dec.h **** #define _OBJ_SET_STYLE_LOCAL_nonscalar(prop_name, func_name, value_type, style_type)               
  80:lvgl/src/lv_widgets/../lv_core/lv_obj_style_dec.h ****     static inline void lv_obj_set_style_local_##func_name (lv_obj_t * obj, uint8_t part, lv_state_t
  81:lvgl/src/lv_widgets/../lv_core/lv_obj_style_dec.h ****     {                                                                                              
  82:lvgl/src/lv_widgets/../lv_core/lv_obj_style_dec.h ****         _lv_obj_set_style_local##style_type (obj, part, LV_STYLE_##prop_name | (state << LV_STYLE_S
  83:lvgl/src/lv_widgets/../lv_core/lv_obj_style_dec.h ****     }
  84:lvgl/src/lv_widgets/../lv_core/lv_obj_style_dec.h **** 
  85:lvgl/src/lv_widgets/../lv_core/lv_obj_style_dec.h **** #define _OBJ_SET_STYLE_scalar(prop_name, func_name, value_type, style_type)                        
  86:lvgl/src/lv_widgets/../lv_core/lv_obj_style_dec.h ****     static inline void lv_style_set_##func_name (lv_style_t * style, lv_state_t state, value_type v
  87:lvgl/src/lv_widgets/../lv_core/lv_obj_style_dec.h ****     {                                                                                              
  88:lvgl/src/lv_widgets/../lv_core/lv_obj_style_dec.h ****         _lv_style_set##style_type (style, LV_STYLE_##prop_name | (state << LV_STYLE_STATE_POS), val
  89:lvgl/src/lv_widgets/../lv_core/lv_obj_style_dec.h ****     }
  90:lvgl/src/lv_widgets/../lv_core/lv_obj_style_dec.h **** 
  91:lvgl/src/lv_widgets/../lv_core/lv_obj_style_dec.h **** #define _OBJ_SET_STYLE_nonscalar(prop_name, func_name, value_type, style_type)                     
  92:lvgl/src/lv_widgets/../lv_core/lv_obj_style_dec.h ****     static inline void lv_style_set_##func_name (lv_style_t * style, lv_state_t state, value_type v
  93:lvgl/src/lv_widgets/../lv_core/lv_obj_style_dec.h ****     {                                                                                              
  94:lvgl/src/lv_widgets/../lv_core/lv_obj_style_dec.h ****         _lv_style_set##style_type (style, LV_STYLE_##prop_name | (state << LV_STYLE_STATE_POS), val
  95:lvgl/src/lv_widgets/../lv_core/lv_obj_style_dec.h ****     }
  96:lvgl/src/lv_widgets/../lv_core/lv_obj_style_dec.h **** 
  97:lvgl/src/lv_widgets/../lv_core/lv_obj_style_dec.h **** #define _LV_OBJ_STYLE_SET_GET_DECLARE(prop_name, func_name, value_type, style_type, scalar)        
  98:lvgl/src/lv_widgets/../lv_core/lv_obj_style_dec.h ****     _OBJ_GET_STYLE_##scalar(prop_name, func_name, value_type, style_type)                          
  99:lvgl/src/lv_widgets/../lv_core/lv_obj_style_dec.h ****     _OBJ_SET_STYLE_LOCAL_##scalar(prop_name, func_name, value_type, style_type)                    
 100:lvgl/src/lv_widgets/../lv_core/lv_obj_style_dec.h ****     _OBJ_SET_STYLE_##scalar(prop_name, func_name, value_type, style_type)
 101:lvgl/src/lv_widgets/../lv_core/lv_obj_style_dec.h **** 
 102:lvgl/src/lv_widgets/../lv_core/lv_obj_style_dec.h **** _LV_OBJ_STYLE_SET_GET_DECLARE(RADIUS, radius, lv_style_int_t, _int, scalar)
 103:lvgl/src/lv_widgets/../lv_core/lv_obj_style_dec.h **** _LV_OBJ_STYLE_SET_GET_DECLARE(CLIP_CORNER, clip_corner, bool, _int, scalar)
 104:lvgl/src/lv_widgets/../lv_core/lv_obj_style_dec.h **** _LV_OBJ_STYLE_SET_GET_DECLARE(SIZE, size, lv_style_int_t, _int, scalar)
 105:lvgl/src/lv_widgets/../lv_core/lv_obj_style_dec.h **** _LV_OBJ_STYLE_SET_GET_DECLARE(TRANSFORM_WIDTH, transform_width, lv_style_int_t, _int, scalar)
 106:lvgl/src/lv_widgets/../lv_core/lv_obj_style_dec.h **** _LV_OBJ_STYLE_SET_GET_DECLARE(TRANSFORM_HEIGHT, transform_height, lv_style_int_t, _int, scalar)
 107:lvgl/src/lv_widgets/../lv_core/lv_obj_style_dec.h **** _LV_OBJ_STYLE_SET_GET_DECLARE(TRANSFORM_ANGLE, transform_angle, lv_style_int_t, _int, scalar)
 108:lvgl/src/lv_widgets/../lv_core/lv_obj_style_dec.h **** _LV_OBJ_STYLE_SET_GET_DECLARE(TRANSFORM_ZOOM, transform_zoom, lv_style_int_t, _int, scalar)
 109:lvgl/src/lv_widgets/../lv_core/lv_obj_style_dec.h **** _LV_OBJ_STYLE_SET_GET_DECLARE(OPA_SCALE, opa_scale, lv_opa_t, _opa, scalar)
 110:lvgl/src/lv_widgets/../lv_core/lv_obj_style_dec.h **** _LV_OBJ_STYLE_SET_GET_DECLARE(PAD_TOP, pad_top, lv_style_int_t, _int, scalar)
 111:lvgl/src/lv_widgets/../lv_core/lv_obj_style_dec.h **** _LV_OBJ_STYLE_SET_GET_DECLARE(PAD_BOTTOM, pad_bottom, lv_style_int_t, _int, scalar)
 112:lvgl/src/lv_widgets/../lv_core/lv_obj_style_dec.h **** _LV_OBJ_STYLE_SET_GET_DECLARE(PAD_LEFT, pad_left, lv_style_int_t, _int, scalar)
 151              		.loc 2 112 1 view .LVU31
 152              	.LBB65:
 153              		.loc 2 112 1 view .LVU32
 154 000a 1222     		movs	r2, #18
 155              	.LVL13:
 156              		.loc 2 112 1 is_stmt 0 view .LVU33
 157 000c 0021     		movs	r1, #0
 158              	.LVL14:
 159              		.loc 2 112 1 view .LVU34
 160 000e FFF7FEFF 		bl	_lv_obj_get_style_int
 161              	.LVL15:
ARM GAS  D:\Temp\ccOOHxmt.s 			page 24


 162              		.loc 2 112 1 view .LVU35
 163 0012 0746     		mov	r7, r0
 164              	.LVL16:
 165              		.loc 2 112 1 view .LVU36
 166              	.LBE65:
 167              	.LBE64:
1031:lvgl/src/lv_widgets/lv_arc.c ****     lv_coord_t right_bg = lv_obj_get_style_pad_right(arc, LV_ARC_PART_BG);
 168              		.loc 1 1031 5 is_stmt 1 view .LVU37
 169              	.LBB66:
 170              	.LBI66:
 113:lvgl/src/lv_widgets/../lv_core/lv_obj_style_dec.h **** _LV_OBJ_STYLE_SET_GET_DECLARE(PAD_RIGHT, pad_right, lv_style_int_t, _int, scalar)
 171              		.loc 2 113 1 view .LVU38
 172              	.LBB67:
 173              		.loc 2 113 1 view .LVU39
 174 0014 1322     		movs	r2, #19
 175 0016 0021     		movs	r1, #0
 176 0018 2046     		mov	r0, r4
 177 001a FFF7FEFF 		bl	_lv_obj_get_style_int
 178              	.LVL17:
 179 001e 8246     		mov	r10, r0
 180              	.LVL18:
 181              		.loc 2 113 1 is_stmt 0 view .LVU40
 182              	.LBE67:
 183              	.LBE66:
1032:lvgl/src/lv_widgets/lv_arc.c ****     lv_coord_t top_bg = lv_obj_get_style_pad_top(arc, LV_ARC_PART_BG);
 184              		.loc 1 1032 5 is_stmt 1 view .LVU41
 185              	.LBB68:
 186              	.LBI68:
 110:lvgl/src/lv_widgets/../lv_core/lv_obj_style_dec.h **** _LV_OBJ_STYLE_SET_GET_DECLARE(PAD_BOTTOM, pad_bottom, lv_style_int_t, _int, scalar)
 187              		.loc 2 110 1 view .LVU42
 188              	.LBB69:
 110:lvgl/src/lv_widgets/../lv_core/lv_obj_style_dec.h **** _LV_OBJ_STYLE_SET_GET_DECLARE(PAD_BOTTOM, pad_bottom, lv_style_int_t, _int, scalar)
 189              		.loc 2 110 1 view .LVU43
 190 0020 1022     		movs	r2, #16
 191 0022 0021     		movs	r1, #0
 192 0024 2046     		mov	r0, r4
 193 0026 FFF7FEFF 		bl	_lv_obj_get_style_int
 194              	.LVL19:
 195 002a 0646     		mov	r6, r0
 196              	.LVL20:
 110:lvgl/src/lv_widgets/../lv_core/lv_obj_style_dec.h **** _LV_OBJ_STYLE_SET_GET_DECLARE(PAD_BOTTOM, pad_bottom, lv_style_int_t, _int, scalar)
 197              		.loc 2 110 1 is_stmt 0 view .LVU44
 198              	.LBE69:
 199              	.LBE68:
1033:lvgl/src/lv_widgets/lv_arc.c ****     lv_coord_t bottom_bg = lv_obj_get_style_pad_bottom(arc, LV_ARC_PART_BG);
 200              		.loc 1 1033 5 is_stmt 1 view .LVU45
 201              	.LBB70:
 202              	.LBI70:
 111:lvgl/src/lv_widgets/../lv_core/lv_obj_style_dec.h **** _LV_OBJ_STYLE_SET_GET_DECLARE(PAD_LEFT, pad_left, lv_style_int_t, _int, scalar)
 203              		.loc 2 111 1 view .LVU46
 204              	.LBB71:
 111:lvgl/src/lv_widgets/../lv_core/lv_obj_style_dec.h **** _LV_OBJ_STYLE_SET_GET_DECLARE(PAD_LEFT, pad_left, lv_style_int_t, _int, scalar)
 205              		.loc 2 111 1 view .LVU47
 206 002c 1122     		movs	r2, #17
 207 002e 0021     		movs	r1, #0
 208 0030 2046     		mov	r0, r4
 209 0032 FFF7FEFF 		bl	_lv_obj_get_style_int
ARM GAS  D:\Temp\ccOOHxmt.s 			page 25


 210              	.LVL21:
 211 0036 8146     		mov	r9, r0
 212              	.LVL22:
 111:lvgl/src/lv_widgets/../lv_core/lv_obj_style_dec.h **** _LV_OBJ_STYLE_SET_GET_DECLARE(PAD_LEFT, pad_left, lv_style_int_t, _int, scalar)
 213              		.loc 2 111 1 is_stmt 0 view .LVU48
 214              	.LBE71:
 215              	.LBE70:
1034:lvgl/src/lv_widgets/lv_arc.c **** 
1035:lvgl/src/lv_widgets/lv_arc.c ****     lv_coord_t r = (LV_MATH_MIN(lv_obj_get_width(arc) - left_bg - right_bg,
 216              		.loc 1 1035 5 is_stmt 1 view .LVU49
 217              		.loc 1 1035 21 is_stmt 0 view .LVU50
 218 0038 2046     		mov	r0, r4
 219 003a FFF7FEFF 		bl	lv_obj_get_width
 220              	.LVL23:
 221 003e C01B     		subs	r0, r0, r7
 222 0040 A0EB0A0B 		sub	fp, r0, r10
 223 0044 2046     		mov	r0, r4
 224 0046 FFF7FEFF 		bl	lv_obj_get_height
 225              	.LVL24:
 226 004a 801B     		subs	r0, r0, r6
 227 004c A0EB0900 		sub	r0, r0, r9
 228              		.loc 1 1035 16 view .LVU51
 229 0050 8345     		cmp	fp, r0
 230 0052 1DDA     		bge	.L12
 231              		.loc 1 1035 21 discriminator 1 view .LVU52
 232 0054 2046     		mov	r0, r4
 233 0056 FFF7FEFF 		bl	lv_obj_get_width
 234              	.LVL25:
 235 005a C31B     		subs	r3, r0, r7
 236 005c A3EB0A03 		sub	r3, r3, r10
1036:lvgl/src/lv_widgets/lv_arc.c ****                                 lv_obj_get_height(arc) - top_bg - bottom_bg)) / 2;
 237              		.loc 1 1036 79 discriminator 1 view .LVU53
 238 0060 03EBD373 		add	r3, r3, r3, lsr #31
1035:lvgl/src/lv_widgets/lv_arc.c ****                                 lv_obj_get_height(arc) - top_bg - bottom_bg)) / 2;
 239              		.loc 1 1035 16 discriminator 1 view .LVU54
 240 0064 43F34F03 		sbfx	r3, r3, #1, #16
 241              	.L13:
 242              	.LVL26:
1037:lvgl/src/lv_widgets/lv_arc.c **** 
1038:lvgl/src/lv_widgets/lv_arc.c ****     *arc_r = r;
 243              		.loc 1 1038 5 is_stmt 1 discriminator 4 view .LVU55
 244              		.loc 1 1038 12 is_stmt 0 discriminator 4 view .LVU56
 245 0068 A8F80030 		strh	r3, [r8]	@ movhi
1039:lvgl/src/lv_widgets/lv_arc.c ****     center->x = arc->coords.x1 + r + left_bg;
 246              		.loc 1 1039 5 is_stmt 1 discriminator 4 view .LVU57
 247              		.loc 1 1039 28 is_stmt 0 discriminator 4 view .LVU58
 248 006c 228A     		ldrh	r2, [r4, #16]
 249              		.loc 1 1039 32 discriminator 4 view .LVU59
 250 006e 9BB2     		uxth	r3, r3
 251              	.LVL27:
 252              		.loc 1 1039 32 discriminator 4 view .LVU60
 253 0070 1A44     		add	r2, r2, r3
 254              		.loc 1 1039 36 discriminator 4 view .LVU61
 255 0072 17FA82F7 		uxtah	r7, r7, r2
 256              	.LVL28:
 257              		.loc 1 1039 15 discriminator 4 view .LVU62
 258 0076 2F80     		strh	r7, [r5]	@ movhi
ARM GAS  D:\Temp\ccOOHxmt.s 			page 26


 259              	.LVL29:
1040:lvgl/src/lv_widgets/lv_arc.c ****     center->y = arc->coords.y1 + r + top_bg;
 260              		.loc 1 1040 5 is_stmt 1 discriminator 4 view .LVU63
 261              		.loc 1 1040 28 is_stmt 0 discriminator 4 view .LVU64
 262 0078 628A     		ldrh	r2, [r4, #18]
 263              		.loc 1 1040 32 discriminator 4 view .LVU65
 264 007a 1344     		add	r3, r3, r2
 265              	.LVL30:
 266              		.loc 1 1040 36 discriminator 4 view .LVU66
 267 007c 16FA83F3 		uxtah	r3, r6, r3
 268              		.loc 1 1040 15 discriminator 4 view .LVU67
 269 0080 6B80     		strh	r3, [r5, #2]	@ movhi
1041:lvgl/src/lv_widgets/lv_arc.c **** 
1042:lvgl/src/lv_widgets/lv_arc.c ****     lv_coord_t indic_width = lv_obj_get_style_line_width(arc, LV_ARC_PART_INDIC);
 270              		.loc 1 1042 5 is_stmt 1 discriminator 4 view .LVU68
 271              	.LVL31:
 272              	.LBB72:
 273              	.LBI72:
 114:lvgl/src/lv_widgets/../lv_core/lv_obj_style_dec.h **** _LV_OBJ_STYLE_SET_GET_DECLARE(PAD_INNER, pad_inner, lv_style_int_t, _int, scalar)
 115:lvgl/src/lv_widgets/../lv_core/lv_obj_style_dec.h **** _LV_OBJ_STYLE_SET_GET_DECLARE(MARGIN_TOP, margin_top, lv_style_int_t, _int, scalar)
 116:lvgl/src/lv_widgets/../lv_core/lv_obj_style_dec.h **** _LV_OBJ_STYLE_SET_GET_DECLARE(MARGIN_BOTTOM, margin_bottom, lv_style_int_t, _int, scalar)
 117:lvgl/src/lv_widgets/../lv_core/lv_obj_style_dec.h **** _LV_OBJ_STYLE_SET_GET_DECLARE(MARGIN_LEFT, margin_left, lv_style_int_t, _int, scalar)
 118:lvgl/src/lv_widgets/../lv_core/lv_obj_style_dec.h **** _LV_OBJ_STYLE_SET_GET_DECLARE(MARGIN_RIGHT, margin_right, lv_style_int_t, _int, scalar)
 119:lvgl/src/lv_widgets/../lv_core/lv_obj_style_dec.h **** _LV_OBJ_STYLE_SET_GET_DECLARE(BG_BLEND_MODE, bg_blend_mode, lv_blend_mode_t, _int, scalar)
 120:lvgl/src/lv_widgets/../lv_core/lv_obj_style_dec.h **** _LV_OBJ_STYLE_SET_GET_DECLARE(BG_MAIN_STOP, bg_main_stop, lv_style_int_t, _int, scalar)
 121:lvgl/src/lv_widgets/../lv_core/lv_obj_style_dec.h **** _LV_OBJ_STYLE_SET_GET_DECLARE(BG_GRAD_STOP, bg_grad_stop, lv_style_int_t, _int, scalar)
 122:lvgl/src/lv_widgets/../lv_core/lv_obj_style_dec.h **** _LV_OBJ_STYLE_SET_GET_DECLARE(BG_GRAD_DIR, bg_grad_dir, lv_grad_dir_t, _int, scalar)
 123:lvgl/src/lv_widgets/../lv_core/lv_obj_style_dec.h **** _LV_OBJ_STYLE_SET_GET_DECLARE(BG_COLOR, bg_color, lv_color_t, _color, nonscalar)
 124:lvgl/src/lv_widgets/../lv_core/lv_obj_style_dec.h **** _LV_OBJ_STYLE_SET_GET_DECLARE(BG_GRAD_COLOR, bg_grad_color, lv_color_t, _color, nonscalar)
 125:lvgl/src/lv_widgets/../lv_core/lv_obj_style_dec.h **** _LV_OBJ_STYLE_SET_GET_DECLARE(BG_OPA, bg_opa, lv_opa_t, _opa, scalar)
 126:lvgl/src/lv_widgets/../lv_core/lv_obj_style_dec.h **** _LV_OBJ_STYLE_SET_GET_DECLARE(BORDER_WIDTH, border_width, lv_style_int_t, _int, scalar)
 127:lvgl/src/lv_widgets/../lv_core/lv_obj_style_dec.h **** _LV_OBJ_STYLE_SET_GET_DECLARE(BORDER_SIDE, border_side, lv_border_side_t, _int, scalar)
 128:lvgl/src/lv_widgets/../lv_core/lv_obj_style_dec.h **** _LV_OBJ_STYLE_SET_GET_DECLARE(BORDER_BLEND_MODE, border_blend_mode, lv_blend_mode_t, _int, scalar)
 129:lvgl/src/lv_widgets/../lv_core/lv_obj_style_dec.h **** _LV_OBJ_STYLE_SET_GET_DECLARE(BORDER_POST, border_post, bool, _int, scalar)
 130:lvgl/src/lv_widgets/../lv_core/lv_obj_style_dec.h **** _LV_OBJ_STYLE_SET_GET_DECLARE(BORDER_COLOR, border_color, lv_color_t, _color, nonscalar)
 131:lvgl/src/lv_widgets/../lv_core/lv_obj_style_dec.h **** _LV_OBJ_STYLE_SET_GET_DECLARE(BORDER_OPA, border_opa, lv_opa_t, _opa, scalar)
 132:lvgl/src/lv_widgets/../lv_core/lv_obj_style_dec.h **** _LV_OBJ_STYLE_SET_GET_DECLARE(OUTLINE_WIDTH, outline_width, lv_style_int_t, _int, scalar)
 133:lvgl/src/lv_widgets/../lv_core/lv_obj_style_dec.h **** _LV_OBJ_STYLE_SET_GET_DECLARE(OUTLINE_PAD, outline_pad, lv_style_int_t, _int, scalar)
 134:lvgl/src/lv_widgets/../lv_core/lv_obj_style_dec.h **** _LV_OBJ_STYLE_SET_GET_DECLARE(OUTLINE_BLEND_MODE, outline_blend_mode, lv_blend_mode_t, _int, scalar
 135:lvgl/src/lv_widgets/../lv_core/lv_obj_style_dec.h **** _LV_OBJ_STYLE_SET_GET_DECLARE(OUTLINE_COLOR, outline_color, lv_color_t, _color, nonscalar)
 136:lvgl/src/lv_widgets/../lv_core/lv_obj_style_dec.h **** _LV_OBJ_STYLE_SET_GET_DECLARE(OUTLINE_OPA, outline_opa, lv_opa_t, _opa, scalar)
 137:lvgl/src/lv_widgets/../lv_core/lv_obj_style_dec.h **** _LV_OBJ_STYLE_SET_GET_DECLARE(SHADOW_WIDTH, shadow_width, lv_style_int_t, _int, scalar)
 138:lvgl/src/lv_widgets/../lv_core/lv_obj_style_dec.h **** _LV_OBJ_STYLE_SET_GET_DECLARE(SHADOW_OFS_X, shadow_ofs_x, lv_style_int_t, _int, scalar)
 139:lvgl/src/lv_widgets/../lv_core/lv_obj_style_dec.h **** _LV_OBJ_STYLE_SET_GET_DECLARE(SHADOW_OFS_Y, shadow_ofs_y, lv_style_int_t, _int, scalar)
 140:lvgl/src/lv_widgets/../lv_core/lv_obj_style_dec.h **** _LV_OBJ_STYLE_SET_GET_DECLARE(SHADOW_SPREAD, shadow_spread, lv_style_int_t, _int, scalar)
 141:lvgl/src/lv_widgets/../lv_core/lv_obj_style_dec.h **** _LV_OBJ_STYLE_SET_GET_DECLARE(SHADOW_BLEND_MODE, shadow_blend_mode, lv_blend_mode_t, _int, scalar)
 142:lvgl/src/lv_widgets/../lv_core/lv_obj_style_dec.h **** _LV_OBJ_STYLE_SET_GET_DECLARE(SHADOW_COLOR, shadow_color, lv_color_t, _color, nonscalar)
 143:lvgl/src/lv_widgets/../lv_core/lv_obj_style_dec.h **** _LV_OBJ_STYLE_SET_GET_DECLARE(SHADOW_OPA, shadow_opa, lv_opa_t, _opa, scalar)
 144:lvgl/src/lv_widgets/../lv_core/lv_obj_style_dec.h **** _LV_OBJ_STYLE_SET_GET_DECLARE(PATTERN_REPEAT, pattern_repeat, bool, _int, scalar)
 145:lvgl/src/lv_widgets/../lv_core/lv_obj_style_dec.h **** _LV_OBJ_STYLE_SET_GET_DECLARE(PATTERN_BLEND_MODE, pattern_blend_mode, lv_blend_mode_t, _int, scalar
 146:lvgl/src/lv_widgets/../lv_core/lv_obj_style_dec.h **** _LV_OBJ_STYLE_SET_GET_DECLARE(PATTERN_RECOLOR, pattern_recolor, lv_color_t, _color, nonscalar)
 147:lvgl/src/lv_widgets/../lv_core/lv_obj_style_dec.h **** _LV_OBJ_STYLE_SET_GET_DECLARE(PATTERN_OPA, pattern_opa, lv_opa_t, _opa, scalar)
 148:lvgl/src/lv_widgets/../lv_core/lv_obj_style_dec.h **** _LV_OBJ_STYLE_SET_GET_DECLARE(PATTERN_RECOLOR_OPA, pattern_recolor_opa, lv_opa_t, _opa, scalar)
 149:lvgl/src/lv_widgets/../lv_core/lv_obj_style_dec.h **** _LV_OBJ_STYLE_SET_GET_DECLARE(PATTERN_IMAGE, pattern_image, const void *, _ptr, scalar)
 150:lvgl/src/lv_widgets/../lv_core/lv_obj_style_dec.h **** _LV_OBJ_STYLE_SET_GET_DECLARE(VALUE_LETTER_SPACE, value_letter_space, lv_style_int_t, _int, scalar)
 151:lvgl/src/lv_widgets/../lv_core/lv_obj_style_dec.h **** _LV_OBJ_STYLE_SET_GET_DECLARE(VALUE_LINE_SPACE, value_line_space, lv_style_int_t, _int, scalar)
 152:lvgl/src/lv_widgets/../lv_core/lv_obj_style_dec.h **** _LV_OBJ_STYLE_SET_GET_DECLARE(VALUE_BLEND_MODE, value_blend_mode, lv_blend_mode_t, _int, scalar)
ARM GAS  D:\Temp\ccOOHxmt.s 			page 27


 153:lvgl/src/lv_widgets/../lv_core/lv_obj_style_dec.h **** _LV_OBJ_STYLE_SET_GET_DECLARE(VALUE_OFS_X, value_ofs_x, lv_style_int_t, _int, scalar)
 154:lvgl/src/lv_widgets/../lv_core/lv_obj_style_dec.h **** _LV_OBJ_STYLE_SET_GET_DECLARE(VALUE_OFS_Y, value_ofs_y, lv_style_int_t, _int, scalar)
 155:lvgl/src/lv_widgets/../lv_core/lv_obj_style_dec.h **** _LV_OBJ_STYLE_SET_GET_DECLARE(VALUE_ALIGN, value_align, lv_align_t, _int, scalar)
 156:lvgl/src/lv_widgets/../lv_core/lv_obj_style_dec.h **** _LV_OBJ_STYLE_SET_GET_DECLARE(VALUE_COLOR, value_color, lv_color_t, _color, nonscalar)
 157:lvgl/src/lv_widgets/../lv_core/lv_obj_style_dec.h **** _LV_OBJ_STYLE_SET_GET_DECLARE(VALUE_OPA, value_opa, lv_opa_t, _opa, scalar)
 158:lvgl/src/lv_widgets/../lv_core/lv_obj_style_dec.h **** _LV_OBJ_STYLE_SET_GET_DECLARE(VALUE_FONT, value_font, const lv_font_t *, _ptr, scalar)
 159:lvgl/src/lv_widgets/../lv_core/lv_obj_style_dec.h **** _LV_OBJ_STYLE_SET_GET_DECLARE(VALUE_STR, value_str, const char *, _ptr, scalar)
 160:lvgl/src/lv_widgets/../lv_core/lv_obj_style_dec.h **** _LV_OBJ_STYLE_SET_GET_DECLARE(TEXT_LETTER_SPACE, text_letter_space, lv_style_int_t, _int, scalar)
 161:lvgl/src/lv_widgets/../lv_core/lv_obj_style_dec.h **** _LV_OBJ_STYLE_SET_GET_DECLARE(TEXT_LINE_SPACE, text_line_space, lv_style_int_t, _int, scalar)
 162:lvgl/src/lv_widgets/../lv_core/lv_obj_style_dec.h **** _LV_OBJ_STYLE_SET_GET_DECLARE(TEXT_DECOR, text_decor, lv_text_decor_t, _int, scalar)
 163:lvgl/src/lv_widgets/../lv_core/lv_obj_style_dec.h **** _LV_OBJ_STYLE_SET_GET_DECLARE(TEXT_BLEND_MODE, text_blend_mode, lv_blend_mode_t, _int, scalar)
 164:lvgl/src/lv_widgets/../lv_core/lv_obj_style_dec.h **** _LV_OBJ_STYLE_SET_GET_DECLARE(TEXT_COLOR, text_color, lv_color_t, _color, nonscalar)
 165:lvgl/src/lv_widgets/../lv_core/lv_obj_style_dec.h **** _LV_OBJ_STYLE_SET_GET_DECLARE(TEXT_SEL_COLOR, text_sel_color, lv_color_t, _color, nonscalar)
 166:lvgl/src/lv_widgets/../lv_core/lv_obj_style_dec.h **** _LV_OBJ_STYLE_SET_GET_DECLARE(TEXT_SEL_BG_COLOR, text_sel_bg_color, lv_color_t, _color, nonscalar)
 167:lvgl/src/lv_widgets/../lv_core/lv_obj_style_dec.h **** _LV_OBJ_STYLE_SET_GET_DECLARE(TEXT_OPA, text_opa, lv_opa_t, _opa, scalar)
 168:lvgl/src/lv_widgets/../lv_core/lv_obj_style_dec.h **** _LV_OBJ_STYLE_SET_GET_DECLARE(TEXT_FONT, text_font, const lv_font_t *, _ptr, scalar)
 169:lvgl/src/lv_widgets/../lv_core/lv_obj_style_dec.h **** _LV_OBJ_STYLE_SET_GET_DECLARE(LINE_WIDTH, line_width, lv_style_int_t, _int, scalar)
 274              		.loc 2 169 1 discriminator 4 view .LVU69
 275              	.LBB73:
 276              		.loc 2 169 1 discriminator 4 view .LVU70
 277 0082 9022     		movs	r2, #144
 278 0084 0121     		movs	r1, #1
 279 0086 2046     		mov	r0, r4
 280 0088 FFF7FEFF 		bl	_lv_obj_get_style_int
 281              	.LVL32:
 282              		.loc 2 169 1 is_stmt 0 discriminator 4 view .LVU71
 283              	.LBE73:
 284              	.LBE72:
1043:lvgl/src/lv_widgets/lv_arc.c ****     r -= indic_width;
 285              		.loc 1 1043 5 is_stmt 1 discriminator 4 view .LVU72
1044:lvgl/src/lv_widgets/lv_arc.c **** }
 286              		.loc 1 1044 1 is_stmt 0 discriminator 4 view .LVU73
 287 008c BDE8F88F 		pop	{r3, r4, r5, r6, r7, r8, r9, r10, fp, pc}
 288              	.LVL33:
 289              	.L12:
1035:lvgl/src/lv_widgets/lv_arc.c ****                                 lv_obj_get_height(arc) - top_bg - bottom_bg)) / 2;
 290              		.loc 1 1035 21 discriminator 2 view .LVU74
 291 0090 2046     		mov	r0, r4
 292 0092 FFF7FEFF 		bl	lv_obj_get_height
 293              	.LVL34:
 294 0096 831B     		subs	r3, r0, r6
 295 0098 A3EB0903 		sub	r3, r3, r9
1036:lvgl/src/lv_widgets/lv_arc.c **** 
 296              		.loc 1 1036 79 discriminator 2 view .LVU75
 297 009c 03EBD373 		add	r3, r3, r3, lsr #31
1035:lvgl/src/lv_widgets/lv_arc.c ****                                 lv_obj_get_height(arc) - top_bg - bottom_bg)) / 2;
 298              		.loc 1 1035 16 discriminator 2 view .LVU76
 299 00a0 43F34F03 		sbfx	r3, r3, #1, #16
 300 00a4 E0E7     		b	.L13
 301              		.cfi_endproc
 302              	.LFE485:
 304              		.section	.text.get_knob_area,"ax",%progbits
 305              		.align	1
 306              		.syntax unified
 307              		.thumb
 308              		.thumb_func
 309              		.fpu fpv4-sp-d16
ARM GAS  D:\Temp\ccOOHxmt.s 			page 28


 311              	get_knob_area:
 312              	.LVL35:
 313              	.LFB486:
1045:lvgl/src/lv_widgets/lv_arc.c **** 
1046:lvgl/src/lv_widgets/lv_arc.c **** static void get_knob_area(lv_obj_t * arc, const lv_point_t * center, lv_coord_t r, lv_area_t * knob
1047:lvgl/src/lv_widgets/lv_arc.c **** {
 314              		.loc 1 1047 1 is_stmt 1 view -0
 315              		.cfi_startproc
 316              		@ args = 0, pretend = 0, frame = 8
 317              		@ frame_needed = 0, uses_anonymous_args = 0
 318              		.loc 1 1047 1 is_stmt 0 view .LVU78
 319 0000 2DE9F04F 		push	{r4, r5, r6, r7, r8, r9, r10, fp, lr}
 320              	.LCFI2:
 321              		.cfi_def_cfa_offset 36
 322              		.cfi_offset 4, -36
 323              		.cfi_offset 5, -32
 324              		.cfi_offset 6, -28
 325              		.cfi_offset 7, -24
 326              		.cfi_offset 8, -20
 327              		.cfi_offset 9, -16
 328              		.cfi_offset 10, -12
 329              		.cfi_offset 11, -8
 330              		.cfi_offset 14, -4
 331 0004 83B0     		sub	sp, sp, #12
 332              	.LCFI3:
 333              		.cfi_def_cfa_offset 48
 334 0006 0546     		mov	r5, r0
 335 0008 0190     		str	r0, [sp, #4]
 336 000a 8846     		mov	r8, r1
 337 000c 9146     		mov	r9, r2
 338 000e 1F46     		mov	r7, r3
1048:lvgl/src/lv_widgets/lv_arc.c ****     lv_arc_ext_t * ext = lv_obj_get_ext_attr(arc);
 339              		.loc 1 1048 5 is_stmt 1 view .LVU79
 340              		.loc 1 1048 26 is_stmt 0 view .LVU80
 341 0010 FFF7FEFF 		bl	lv_obj_get_ext_attr
 342              	.LVL36:
 343              		.loc 1 1048 26 view .LVU81
 344 0014 0446     		mov	r4, r0
 345              	.LVL37:
1049:lvgl/src/lv_widgets/lv_arc.c **** 
1050:lvgl/src/lv_widgets/lv_arc.c ****     lv_coord_t indic_width = lv_obj_get_style_line_width(arc, LV_ARC_PART_INDIC);
 346              		.loc 1 1050 5 is_stmt 1 view .LVU82
 347              	.LBB74:
 348              	.LBI74:
 349              		.loc 2 169 1 view .LVU83
 350              	.LBB75:
 351              		.loc 2 169 1 view .LVU84
 352 0016 9022     		movs	r2, #144
 353 0018 0121     		movs	r1, #1
 354 001a 2846     		mov	r0, r5
 355              	.LVL38:
 356              		.loc 2 169 1 is_stmt 0 view .LVU85
 357 001c FFF7FEFF 		bl	_lv_obj_get_style_int
 358              	.LVL39:
 359              		.loc 2 169 1 view .LVU86
 360              	.LBE75:
 361              	.LBE74:
ARM GAS  D:\Temp\ccOOHxmt.s 			page 29


1051:lvgl/src/lv_widgets/lv_arc.c ****     lv_coord_t indic_width_half = indic_width / 2;
 362              		.loc 1 1051 5 is_stmt 1 view .LVU87
 363              		.loc 1 1051 16 is_stmt 0 view .LVU88
 364 0020 00EBD070 		add	r0, r0, r0, lsr #31
 365              	.LVL40:
1052:lvgl/src/lv_widgets/lv_arc.c ****     r -= indic_width_half;
 366              		.loc 1 1052 5 is_stmt 1 view .LVU89
 367              		.loc 1 1052 7 is_stmt 0 view .LVU90
 368 0024 C0F34F05 		ubfx	r5, r0, #1, #16
 369              	.LVL41:
 370              		.loc 1 1052 7 view .LVU91
 371 0028 A9EB0509 		sub	r9, r9, r5
 372 002c 0FFA89F9 		sxth	r9, r9
 373              	.LVL42:
1053:lvgl/src/lv_widgets/lv_arc.c **** 
1054:lvgl/src/lv_widgets/lv_arc.c ****     uint16_t angle = ext->rotation_angle;
 374              		.loc 1 1054 5 is_stmt 1 view .LVU92
 375              		.loc 1 1054 14 is_stmt 0 view .LVU93
 376 0030 B4F800A0 		ldrh	r10, [r4]
 377              	.LVL43:
1055:lvgl/src/lv_widgets/lv_arc.c ****     if(ext->type == LV_ARC_TYPE_NORMAL) {
 378              		.loc 1 1055 5 is_stmt 1 view .LVU94
 379              		.loc 1 1055 18 is_stmt 0 view .LVU95
 380 0034 94F82230 		ldrb	r3, [r4, #34]	@ zero_extendqisi2
 381              		.loc 1 1055 7 view .LVU96
 382 0038 13F00603 		ands	r3, r3, #6
 383 003c 5BD1     		bne	.L16
1056:lvgl/src/lv_widgets/lv_arc.c ****         angle += ext->arc_angle_end;
 384              		.loc 1 1056 9 is_stmt 1 view .LVU97
 385              		.loc 1 1056 21 is_stmt 0 view .LVU98
 386 003e A388     		ldrh	r3, [r4, #4]
 387              		.loc 1 1056 15 view .LVU99
 388 0040 9A44     		add	r10, r10, r3
 389              	.LVL44:
 390              		.loc 1 1056 15 view .LVU100
 391 0042 1FFA8AFA 		uxth	r10, r10
 392              	.LVL45:
 393              	.L17:
1057:lvgl/src/lv_widgets/lv_arc.c ****     }
1058:lvgl/src/lv_widgets/lv_arc.c ****     else if(ext->type == LV_ARC_TYPE_REVERSE) {
1059:lvgl/src/lv_widgets/lv_arc.c ****         angle += ext->arc_angle_start;
1060:lvgl/src/lv_widgets/lv_arc.c ****     }
1061:lvgl/src/lv_widgets/lv_arc.c ****     else if(ext->type == LV_ARC_TYPE_SYMMETRIC) {
1062:lvgl/src/lv_widgets/lv_arc.c ****         int32_t range_midpoint = (int32_t)(ext->min_value + ext->max_value) / 2;
1063:lvgl/src/lv_widgets/lv_arc.c ****         if(ext->cur_value < range_midpoint) angle += ext->arc_angle_start;
1064:lvgl/src/lv_widgets/lv_arc.c ****         else angle += ext->arc_angle_end;
1065:lvgl/src/lv_widgets/lv_arc.c ****     }
1066:lvgl/src/lv_widgets/lv_arc.c ****     lv_coord_t knob_x = (r * _lv_trigo_sin(angle + 90)) >> LV_TRIGO_SHIFT;
 394              		.loc 1 1066 5 is_stmt 1 view .LVU101
 395              		.loc 1 1066 50 is_stmt 0 view .LVU102
 396 0046 0AF15A00 		add	r0, r10, #90
 397              	.LVL46:
 398              		.loc 1 1066 30 view .LVU103
 399 004a 00B2     		sxth	r0, r0
 400 004c FFF7FEFF 		bl	_lv_trigo_sin
 401              	.LVL47:
 402              		.loc 1 1066 28 view .LVU104
ARM GAS  D:\Temp\ccOOHxmt.s 			page 30


 403 0050 00FB09F0 		mul	r0, r0, r9
 404              		.loc 1 1066 57 view .LVU105
 405 0054 C413     		asrs	r4, r0, #15
 406              	.LVL48:
1067:lvgl/src/lv_widgets/lv_arc.c ****     lv_coord_t knob_y = (r * _lv_trigo_sin(angle)) >> LV_TRIGO_SHIFT;
 407              		.loc 1 1067 5 is_stmt 1 view .LVU106
 408              		.loc 1 1067 30 is_stmt 0 view .LVU107
 409 0056 0FFA8AF0 		sxth	r0, r10
 410 005a FFF7FEFF 		bl	_lv_trigo_sin
 411              	.LVL49:
 412              		.loc 1 1067 28 view .LVU108
 413 005e 00FB09F0 		mul	r0, r0, r9
 414              		.loc 1 1067 52 view .LVU109
 415 0062 C613     		asrs	r6, r0, #15
 416              	.LVL50:
1068:lvgl/src/lv_widgets/lv_arc.c **** 
1069:lvgl/src/lv_widgets/lv_arc.c ****     lv_coord_t left_knob = lv_obj_get_style_pad_left(arc, LV_ARC_PART_KNOB);
 417              		.loc 1 1069 5 is_stmt 1 view .LVU110
 418              	.LBB76:
 419              	.LBI76:
 112:lvgl/src/lv_widgets/../lv_core/lv_obj_style_dec.h **** _LV_OBJ_STYLE_SET_GET_DECLARE(PAD_RIGHT, pad_right, lv_style_int_t, _int, scalar)
 420              		.loc 2 112 1 view .LVU111
 421              	.LBB77:
 112:lvgl/src/lv_widgets/../lv_core/lv_obj_style_dec.h **** _LV_OBJ_STYLE_SET_GET_DECLARE(PAD_RIGHT, pad_right, lv_style_int_t, _int, scalar)
 422              		.loc 2 112 1 view .LVU112
 423 0064 1222     		movs	r2, #18
 424 0066 0221     		movs	r1, #2
 425 0068 DDF80490 		ldr	r9, [sp, #4]
 426              	.LVL51:
 112:lvgl/src/lv_widgets/../lv_core/lv_obj_style_dec.h **** _LV_OBJ_STYLE_SET_GET_DECLARE(PAD_RIGHT, pad_right, lv_style_int_t, _int, scalar)
 427              		.loc 2 112 1 is_stmt 0 view .LVU113
 428 006c 4846     		mov	r0, r9
 429 006e FFF7FEFF 		bl	_lv_obj_get_style_int
 430              	.LVL52:
 431 0072 8346     		mov	fp, r0
 432              	.LVL53:
 112:lvgl/src/lv_widgets/../lv_core/lv_obj_style_dec.h **** _LV_OBJ_STYLE_SET_GET_DECLARE(PAD_RIGHT, pad_right, lv_style_int_t, _int, scalar)
 433              		.loc 2 112 1 view .LVU114
 434              	.LBE77:
 435              	.LBE76:
1070:lvgl/src/lv_widgets/lv_arc.c ****     lv_coord_t right_knob = lv_obj_get_style_pad_right(arc, LV_ARC_PART_KNOB);
 436              		.loc 1 1070 5 is_stmt 1 view .LVU115
 437              	.LBB78:
 438              	.LBI78:
 113:lvgl/src/lv_widgets/../lv_core/lv_obj_style_dec.h **** _LV_OBJ_STYLE_SET_GET_DECLARE(PAD_INNER, pad_inner, lv_style_int_t, _int, scalar)
 439              		.loc 2 113 1 view .LVU116
 440              	.LBB79:
 113:lvgl/src/lv_widgets/../lv_core/lv_obj_style_dec.h **** _LV_OBJ_STYLE_SET_GET_DECLARE(PAD_INNER, pad_inner, lv_style_int_t, _int, scalar)
 441              		.loc 2 113 1 view .LVU117
 442 0074 1322     		movs	r2, #19
 443 0076 0221     		movs	r1, #2
 444 0078 4846     		mov	r0, r9
 445 007a FFF7FEFF 		bl	_lv_obj_get_style_int
 446              	.LVL54:
 447 007e 8246     		mov	r10, r0
 448              	.LVL55:
 113:lvgl/src/lv_widgets/../lv_core/lv_obj_style_dec.h **** _LV_OBJ_STYLE_SET_GET_DECLARE(PAD_INNER, pad_inner, lv_style_int_t, _int, scalar)
ARM GAS  D:\Temp\ccOOHxmt.s 			page 31


 449              		.loc 2 113 1 is_stmt 0 view .LVU118
 450              	.LBE79:
 451              	.LBE78:
1071:lvgl/src/lv_widgets/lv_arc.c ****     lv_coord_t top_knob = lv_obj_get_style_pad_top(arc, LV_ARC_PART_KNOB);
 452              		.loc 1 1071 5 is_stmt 1 view .LVU119
 453              	.LBB80:
 454              	.LBI80:
 110:lvgl/src/lv_widgets/../lv_core/lv_obj_style_dec.h **** _LV_OBJ_STYLE_SET_GET_DECLARE(PAD_BOTTOM, pad_bottom, lv_style_int_t, _int, scalar)
 455              		.loc 2 110 1 view .LVU120
 456              	.LBB81:
 110:lvgl/src/lv_widgets/../lv_core/lv_obj_style_dec.h **** _LV_OBJ_STYLE_SET_GET_DECLARE(PAD_BOTTOM, pad_bottom, lv_style_int_t, _int, scalar)
 457              		.loc 2 110 1 view .LVU121
 458 0080 1022     		movs	r2, #16
 459 0082 0221     		movs	r1, #2
 460 0084 CDF80490 		str	r9, [sp, #4]
 461              	.LVL56:
 110:lvgl/src/lv_widgets/../lv_core/lv_obj_style_dec.h **** _LV_OBJ_STYLE_SET_GET_DECLARE(PAD_BOTTOM, pad_bottom, lv_style_int_t, _int, scalar)
 462              		.loc 2 110 1 is_stmt 0 view .LVU122
 463 0088 4846     		mov	r0, r9
 464 008a FFF7FEFF 		bl	_lv_obj_get_style_int
 465              	.LVL57:
 466 008e 8146     		mov	r9, r0
 467              	.LVL58:
 110:lvgl/src/lv_widgets/../lv_core/lv_obj_style_dec.h **** _LV_OBJ_STYLE_SET_GET_DECLARE(PAD_BOTTOM, pad_bottom, lv_style_int_t, _int, scalar)
 468              		.loc 2 110 1 view .LVU123
 469              	.LBE81:
 470              	.LBE80:
1072:lvgl/src/lv_widgets/lv_arc.c ****     lv_coord_t bottom_knob = lv_obj_get_style_pad_bottom(arc, LV_ARC_PART_KNOB);
 471              		.loc 1 1072 5 is_stmt 1 view .LVU124
 472              	.LBB82:
 473              	.LBI82:
 111:lvgl/src/lv_widgets/../lv_core/lv_obj_style_dec.h **** _LV_OBJ_STYLE_SET_GET_DECLARE(PAD_LEFT, pad_left, lv_style_int_t, _int, scalar)
 474              		.loc 2 111 1 view .LVU125
 475              	.LBB83:
 111:lvgl/src/lv_widgets/../lv_core/lv_obj_style_dec.h **** _LV_OBJ_STYLE_SET_GET_DECLARE(PAD_LEFT, pad_left, lv_style_int_t, _int, scalar)
 476              		.loc 2 111 1 view .LVU126
 477 0090 1122     		movs	r2, #17
 478 0092 0221     		movs	r1, #2
 479 0094 0198     		ldr	r0, [sp, #4]
 480 0096 FFF7FEFF 		bl	_lv_obj_get_style_int
 481              	.LVL59:
 111:lvgl/src/lv_widgets/../lv_core/lv_obj_style_dec.h **** _LV_OBJ_STYLE_SET_GET_DECLARE(PAD_LEFT, pad_left, lv_style_int_t, _int, scalar)
 482              		.loc 2 111 1 is_stmt 0 view .LVU127
 483              	.LBE83:
 484              	.LBE82:
1073:lvgl/src/lv_widgets/lv_arc.c **** 
1074:lvgl/src/lv_widgets/lv_arc.c ****     knob_area->x1 = center->x + knob_x - left_knob - indic_width_half;
 485              		.loc 1 1074 5 is_stmt 1 view .LVU128
 486              		.loc 1 1074 27 is_stmt 0 view .LVU129
 487 009a B8F80030 		ldrh	r3, [r8]
 488              		.loc 1 1074 31 view .LVU130
 489 009e A4B2     		uxth	r4, r4
 490              		.loc 1 1074 31 view .LVU131
 491 00a0 2344     		add	r3, r3, r4
 492 00a2 9BB2     		uxth	r3, r3
 493              		.loc 1 1074 40 view .LVU132
 494 00a4 A3EB0B0B 		sub	fp, r3, fp
ARM GAS  D:\Temp\ccOOHxmt.s 			page 32


 495              	.LVL60:
 496              		.loc 1 1074 40 view .LVU133
 497 00a8 1FFA8BFB 		uxth	fp, fp
 498              		.loc 1 1074 52 view .LVU134
 499 00ac ABEB050B 		sub	fp, fp, r5
 500              		.loc 1 1074 19 view .LVU135
 501 00b0 A7F800B0 		strh	fp, [r7]	@ movhi
1075:lvgl/src/lv_widgets/lv_arc.c ****     knob_area->x2 = center->x + knob_x + right_knob + indic_width_half;
 502              		.loc 1 1075 5 is_stmt 1 view .LVU136
 503              		.loc 1 1075 27 is_stmt 0 view .LVU137
 504 00b4 B8F80030 		ldrh	r3, [r8]
 505              		.loc 1 1075 31 view .LVU138
 506 00b8 1C44     		add	r4, r4, r3
 507              	.LVL61:
 508              		.loc 1 1075 40 view .LVU139
 509 00ba 1AFA84FA 		uxtah	r10, r10, r4
 510              	.LVL62:
 511              		.loc 1 1075 53 view .LVU140
 512 00be 15FA8AFA 		uxtah	r10, r5, r10
 513              		.loc 1 1075 19 view .LVU141
 514 00c2 A7F804A0 		strh	r10, [r7, #4]	@ movhi
1076:lvgl/src/lv_widgets/lv_arc.c ****     knob_area->y1 = center->y + knob_y - top_knob - indic_width_half;
 515              		.loc 1 1076 5 is_stmt 1 view .LVU142
 516              		.loc 1 1076 27 is_stmt 0 view .LVU143
 517 00c6 B8F80230 		ldrh	r3, [r8, #2]
 518              		.loc 1 1076 31 view .LVU144
 519 00ca B2B2     		uxth	r2, r6
 520 00cc 1344     		add	r3, r3, r2
 521 00ce 9BB2     		uxth	r3, r3
 522              		.loc 1 1076 40 view .LVU145
 523 00d0 A3EB0909 		sub	r9, r3, r9
 524              	.LVL63:
 525              		.loc 1 1076 40 view .LVU146
 526 00d4 1FFA89F9 		uxth	r9, r9
 527              		.loc 1 1076 51 view .LVU147
 528 00d8 A9EB0509 		sub	r9, r9, r5
 529              		.loc 1 1076 19 view .LVU148
 530 00dc A7F80290 		strh	r9, [r7, #2]	@ movhi
1077:lvgl/src/lv_widgets/lv_arc.c ****     knob_area->y2 = center->y + knob_y + bottom_knob + indic_width_half;
 531              		.loc 1 1077 5 is_stmt 1 view .LVU149
 532              		.loc 1 1077 27 is_stmt 0 view .LVU150
 533 00e0 B8F80230 		ldrh	r3, [r8, #2]
 534              		.loc 1 1077 31 view .LVU151
 535 00e4 1A44     		add	r2, r2, r3
 536              		.loc 1 1077 40 view .LVU152
 537 00e6 10FA82F2 		uxtah	r2, r0, r2
 538              		.loc 1 1077 54 view .LVU153
 539 00ea 15FA82F5 		uxtah	r5, r5, r2
 540              		.loc 1 1077 19 view .LVU154
 541 00ee FD80     		strh	r5, [r7, #6]	@ movhi
1078:lvgl/src/lv_widgets/lv_arc.c **** }
 542              		.loc 1 1078 1 view .LVU155
 543 00f0 03B0     		add	sp, sp, #12
 544              	.LCFI4:
 545              		.cfi_remember_state
 546              		.cfi_def_cfa_offset 36
 547              		@ sp needed
ARM GAS  D:\Temp\ccOOHxmt.s 			page 33


 548 00f2 BDE8F08F 		pop	{r4, r5, r6, r7, r8, r9, r10, fp, pc}
 549              	.LVL64:
 550              	.L16:
 551              	.LCFI5:
 552              		.cfi_restore_state
1058:lvgl/src/lv_widgets/lv_arc.c ****         angle += ext->arc_angle_start;
 553              		.loc 1 1058 10 is_stmt 1 view .LVU156
1058:lvgl/src/lv_widgets/lv_arc.c ****         angle += ext->arc_angle_start;
 554              		.loc 1 1058 12 is_stmt 0 view .LVU157
 555 00f6 042B     		cmp	r3, #4
 556 00f8 12D0     		beq	.L21
1061:lvgl/src/lv_widgets/lv_arc.c ****         int32_t range_midpoint = (int32_t)(ext->min_value + ext->max_value) / 2;
 557              		.loc 1 1061 10 is_stmt 1 view .LVU158
1061:lvgl/src/lv_widgets/lv_arc.c ****         int32_t range_midpoint = (int32_t)(ext->min_value + ext->max_value) / 2;
 558              		.loc 1 1061 12 is_stmt 0 view .LVU159
 559 00fa 022B     		cmp	r3, #2
 560 00fc A3D1     		bne	.L17
 561              	.LBB84:
1062:lvgl/src/lv_widgets/lv_arc.c ****         if(ext->cur_value < range_midpoint) angle += ext->arc_angle_start;
 562              		.loc 1 1062 9 is_stmt 1 view .LVU160
1062:lvgl/src/lv_widgets/lv_arc.c ****         if(ext->cur_value < range_midpoint) angle += ext->arc_angle_start;
 563              		.loc 1 1062 47 is_stmt 0 view .LVU161
 564 00fe B4F91E30 		ldrsh	r3, [r4, #30]
1062:lvgl/src/lv_widgets/lv_arc.c ****         if(ext->cur_value < range_midpoint) angle += ext->arc_angle_start;
 565              		.loc 1 1062 64 view .LVU162
 566 0102 B4F92020 		ldrsh	r2, [r4, #32]
1062:lvgl/src/lv_widgets/lv_arc.c ****         if(ext->cur_value < range_midpoint) angle += ext->arc_angle_start;
 567              		.loc 1 1062 59 view .LVU163
 568 0106 1344     		add	r3, r3, r2
1062:lvgl/src/lv_widgets/lv_arc.c ****         if(ext->cur_value < range_midpoint) angle += ext->arc_angle_start;
 569              		.loc 1 1062 17 view .LVU164
 570 0108 03EBD373 		add	r3, r3, r3, lsr #31
 571              	.LVL65:
1063:lvgl/src/lv_widgets/lv_arc.c ****         else angle += ext->arc_angle_end;
 572              		.loc 1 1063 9 is_stmt 1 view .LVU165
1063:lvgl/src/lv_widgets/lv_arc.c ****         else angle += ext->arc_angle_end;
 573              		.loc 1 1063 15 is_stmt 0 view .LVU166
 574 010c B4F91C20 		ldrsh	r2, [r4, #28]
1063:lvgl/src/lv_widgets/lv_arc.c ****         else angle += ext->arc_angle_end;
 575              		.loc 1 1063 11 view .LVU167
 576 0110 B2EB630F 		cmp	r2, r3, asr #1
 577 0114 09DA     		bge	.L19
1063:lvgl/src/lv_widgets/lv_arc.c ****         else angle += ext->arc_angle_end;
 578              		.loc 1 1063 45 is_stmt 1 discriminator 1 view .LVU168
1063:lvgl/src/lv_widgets/lv_arc.c ****         else angle += ext->arc_angle_end;
 579              		.loc 1 1063 57 is_stmt 0 discriminator 1 view .LVU169
 580 0116 6388     		ldrh	r3, [r4, #2]
 581              	.LVL66:
1063:lvgl/src/lv_widgets/lv_arc.c ****         else angle += ext->arc_angle_end;
 582              		.loc 1 1063 51 discriminator 1 view .LVU170
 583 0118 9A44     		add	r10, r10, r3
 584              	.LVL67:
1063:lvgl/src/lv_widgets/lv_arc.c ****         else angle += ext->arc_angle_end;
 585              		.loc 1 1063 51 discriminator 1 view .LVU171
 586 011a 1FFA8AFA 		uxth	r10, r10
 587              	.LVL68:
1063:lvgl/src/lv_widgets/lv_arc.c ****         else angle += ext->arc_angle_end;
ARM GAS  D:\Temp\ccOOHxmt.s 			page 34


 588              		.loc 1 1063 51 discriminator 1 view .LVU172
 589 011e 92E7     		b	.L17
 590              	.LVL69:
 591              	.L21:
1063:lvgl/src/lv_widgets/lv_arc.c ****         else angle += ext->arc_angle_end;
 592              		.loc 1 1063 51 discriminator 1 view .LVU173
 593              	.LBE84:
1059:lvgl/src/lv_widgets/lv_arc.c ****     }
 594              		.loc 1 1059 9 is_stmt 1 view .LVU174
1059:lvgl/src/lv_widgets/lv_arc.c ****     }
 595              		.loc 1 1059 21 is_stmt 0 view .LVU175
 596 0120 6388     		ldrh	r3, [r4, #2]
1059:lvgl/src/lv_widgets/lv_arc.c ****     }
 597              		.loc 1 1059 15 view .LVU176
 598 0122 9A44     		add	r10, r10, r3
 599              	.LVL70:
1059:lvgl/src/lv_widgets/lv_arc.c ****     }
 600              		.loc 1 1059 15 view .LVU177
 601 0124 1FFA8AFA 		uxth	r10, r10
 602              	.LVL71:
1059:lvgl/src/lv_widgets/lv_arc.c ****     }
 603              		.loc 1 1059 15 view .LVU178
 604 0128 8DE7     		b	.L17
 605              	.LVL72:
 606              	.L19:
 607              	.LBB85:
1064:lvgl/src/lv_widgets/lv_arc.c ****     }
 608              		.loc 1 1064 14 is_stmt 1 view .LVU179
1064:lvgl/src/lv_widgets/lv_arc.c ****     }
 609              		.loc 1 1064 26 is_stmt 0 view .LVU180
 610 012a A388     		ldrh	r3, [r4, #4]
 611              	.LVL73:
1064:lvgl/src/lv_widgets/lv_arc.c ****     }
 612              		.loc 1 1064 20 view .LVU181
 613 012c 9A44     		add	r10, r10, r3
 614              	.LVL74:
1064:lvgl/src/lv_widgets/lv_arc.c ****     }
 615              		.loc 1 1064 20 view .LVU182
 616 012e 1FFA8AFA 		uxth	r10, r10
 617              	.LVL75:
1064:lvgl/src/lv_widgets/lv_arc.c ****     }
 618              		.loc 1 1064 20 view .LVU183
 619 0132 88E7     		b	.L17
 620              	.LBE85:
 621              		.cfi_endproc
 622              	.LFE486:
 624              		.section	.text.lv_arc_design,"ax",%progbits
 625              		.align	1
 626              		.syntax unified
 627              		.thumb
 628              		.thumb_func
 629              		.fpu fpv4-sp-d16
 631              	lv_arc_design:
 632              	.LVL76:
 633              	.LFB481:
 631:lvgl/src/lv_widgets/lv_arc.c ****     /*Return false if the object is not covers the mask_p area*/
 634              		.loc 1 631 1 is_stmt 1 view -0
ARM GAS  D:\Temp\ccOOHxmt.s 			page 35


 635              		.cfi_startproc
 636              		@ args = 0, pretend = 0, frame = 200
 637              		@ frame_needed = 0, uses_anonymous_args = 0
 633:lvgl/src/lv_widgets/lv_arc.c ****         return LV_DESIGN_RES_NOT_COVER;
 638              		.loc 1 633 5 view .LVU185
 633:lvgl/src/lv_widgets/lv_arc.c ****         return LV_DESIGN_RES_NOT_COVER;
 639              		.loc 1 633 7 is_stmt 0 view .LVU186
 640 0000 022A     		cmp	r2, #2
 641 0002 00F0A580 		beq	.L27
 637:lvgl/src/lv_widgets/lv_arc.c ****         lv_arc_ext_t * ext       = lv_obj_get_ext_attr(arc);
 642              		.loc 1 637 10 is_stmt 1 view .LVU187
 637:lvgl/src/lv_widgets/lv_arc.c ****         lv_arc_ext_t * ext       = lv_obj_get_ext_attr(arc);
 643              		.loc 1 637 12 is_stmt 0 view .LVU188
 644 0006 0AB1     		cbz	r2, .L33
 693:lvgl/src/lv_widgets/lv_arc.c **** }
 645              		.loc 1 693 12 view .LVU189
 646 0008 0020     		movs	r0, #0
 647              	.LVL77:
 694:lvgl/src/lv_widgets/lv_arc.c **** 
 648              		.loc 1 694 1 view .LVU190
 649 000a 7047     		bx	lr
 650              	.LVL78:
 651              	.L33:
 631:lvgl/src/lv_widgets/lv_arc.c ****     /*Return false if the object is not covers the mask_p area*/
 652              		.loc 1 631 1 view .LVU191
 653 000c 2DE9F043 		push	{r4, r5, r6, r7, r8, r9, lr}
 654              	.LCFI6:
 655              		.cfi_def_cfa_offset 28
 656              		.cfi_offset 4, -28
 657              		.cfi_offset 5, -24
 658              		.cfi_offset 6, -20
 659              		.cfi_offset 7, -16
 660              		.cfi_offset 8, -12
 661              		.cfi_offset 9, -8
 662              		.cfi_offset 14, -4
 663 0010 B7B0     		sub	sp, sp, #220
 664              	.LCFI7:
 665              		.cfi_def_cfa_offset 248
 666 0012 0E46     		mov	r6, r1
 667 0014 0446     		mov	r4, r0
 668              	.LBB86:
 638:lvgl/src/lv_widgets/lv_arc.c **** 
 669              		.loc 1 638 9 is_stmt 1 view .LVU192
 638:lvgl/src/lv_widgets/lv_arc.c **** 
 670              		.loc 1 638 36 is_stmt 0 view .LVU193
 671 0016 FFF7FEFF 		bl	lv_obj_get_ext_attr
 672              	.LVL79:
 638:lvgl/src/lv_widgets/lv_arc.c **** 
 673              		.loc 1 638 36 view .LVU194
 674 001a 0746     		mov	r7, r0
 675              	.LVL80:
 640:lvgl/src/lv_widgets/lv_arc.c ****         lv_draw_rect_dsc_init(&bg_dsc);
 676              		.loc 1 640 9 is_stmt 1 view .LVU195
 641:lvgl/src/lv_widgets/lv_arc.c ****         lv_obj_init_draw_rect_dsc(arc, LV_ARC_PART_BG, &bg_dsc);
 677              		.loc 1 641 9 view .LVU196
 678 001c 0CA8     		add	r0, sp, #48
 679              	.LVL81:
ARM GAS  D:\Temp\ccOOHxmt.s 			page 36


 641:lvgl/src/lv_widgets/lv_arc.c ****         lv_obj_init_draw_rect_dsc(arc, LV_ARC_PART_BG, &bg_dsc);
 680              		.loc 1 641 9 is_stmt 0 view .LVU197
 681 001e FFF7FEFF 		bl	lv_draw_rect_dsc_init
 682              	.LVL82:
 642:lvgl/src/lv_widgets/lv_arc.c **** 
 683              		.loc 1 642 9 is_stmt 1 view .LVU198
 684 0022 0CAA     		add	r2, sp, #48
 685 0024 0021     		movs	r1, #0
 686 0026 2046     		mov	r0, r4
 687 0028 FFF7FEFF 		bl	lv_obj_init_draw_rect_dsc
 688              	.LVL83:
 644:lvgl/src/lv_widgets/lv_arc.c **** 
 689              		.loc 1 644 9 view .LVU199
 690 002c 0CAA     		add	r2, sp, #48
 691 002e 3146     		mov	r1, r6
 692 0030 04F11000 		add	r0, r4, #16
 693 0034 FFF7FEFF 		bl	lv_draw_rect
 694              	.LVL84:
 646:lvgl/src/lv_widgets/lv_arc.c ****         lv_coord_t arc_r;
 695              		.loc 1 646 9 view .LVU200
 647:lvgl/src/lv_widgets/lv_arc.c ****         get_center(arc, &center, &arc_r);
 696              		.loc 1 647 9 view .LVU201
 648:lvgl/src/lv_widgets/lv_arc.c **** 
 697              		.loc 1 648 9 view .LVU202
 698 0038 0DF11602 		add	r2, sp, #22
 699 003c 06A9     		add	r1, sp, #24
 700 003e 2046     		mov	r0, r4
 701 0040 FFF7FEFF 		bl	get_center
 702              	.LVL85:
 651:lvgl/src/lv_widgets/lv_arc.c ****         if(arc_r > 0) {
 703              		.loc 1 651 9 view .LVU203
 652:lvgl/src/lv_widgets/lv_arc.c ****             lv_draw_line_dsc_init(&arc_dsc);
 704              		.loc 1 652 9 view .LVU204
 652:lvgl/src/lv_widgets/lv_arc.c ****             lv_draw_line_dsc_init(&arc_dsc);
 705              		.loc 1 652 18 is_stmt 0 view .LVU205
 706 0044 BDF91630 		ldrsh	r3, [sp, #22]
 652:lvgl/src/lv_widgets/lv_arc.c ****             lv_draw_line_dsc_init(&arc_dsc);
 707              		.loc 1 652 11 view .LVU206
 708 0048 002B     		cmp	r3, #0
 709 004a 33DC     		bgt	.L34
 710              	.L24:
 662:lvgl/src/lv_widgets/lv_arc.c ****         lv_coord_t right_indic = lv_obj_get_style_pad_right(arc, LV_ARC_PART_INDIC);
 711              		.loc 1 662 9 is_stmt 1 view .LVU207
 712              	.LVL86:
 713              	.LBB87:
 714              	.LBI87:
 112:lvgl/src/lv_widgets/../lv_core/lv_obj_style_dec.h **** _LV_OBJ_STYLE_SET_GET_DECLARE(PAD_RIGHT, pad_right, lv_style_int_t, _int, scalar)
 715              		.loc 2 112 1 view .LVU208
 716              	.LBB88:
 112:lvgl/src/lv_widgets/../lv_core/lv_obj_style_dec.h **** _LV_OBJ_STYLE_SET_GET_DECLARE(PAD_RIGHT, pad_right, lv_style_int_t, _int, scalar)
 717              		.loc 2 112 1 view .LVU209
 718 004c 1222     		movs	r2, #18
 719 004e 0121     		movs	r1, #1
 720 0050 2046     		mov	r0, r4
 721 0052 FFF7FEFF 		bl	_lv_obj_get_style_int
 722              	.LVL87:
 723 0056 8146     		mov	r9, r0
ARM GAS  D:\Temp\ccOOHxmt.s 			page 37


 724              	.LVL88:
 112:lvgl/src/lv_widgets/../lv_core/lv_obj_style_dec.h **** _LV_OBJ_STYLE_SET_GET_DECLARE(PAD_RIGHT, pad_right, lv_style_int_t, _int, scalar)
 725              		.loc 2 112 1 is_stmt 0 view .LVU210
 726              	.LBE88:
 727              	.LBE87:
 663:lvgl/src/lv_widgets/lv_arc.c ****         lv_coord_t top_indic = lv_obj_get_style_pad_top(arc, LV_ARC_PART_INDIC);
 728              		.loc 1 663 9 is_stmt 1 view .LVU211
 729              	.LBB89:
 730              	.LBI89:
 113:lvgl/src/lv_widgets/../lv_core/lv_obj_style_dec.h **** _LV_OBJ_STYLE_SET_GET_DECLARE(PAD_INNER, pad_inner, lv_style_int_t, _int, scalar)
 731              		.loc 2 113 1 view .LVU212
 732              	.LBB90:
 113:lvgl/src/lv_widgets/../lv_core/lv_obj_style_dec.h **** _LV_OBJ_STYLE_SET_GET_DECLARE(PAD_INNER, pad_inner, lv_style_int_t, _int, scalar)
 733              		.loc 2 113 1 view .LVU213
 734 0058 1322     		movs	r2, #19
 735 005a 0121     		movs	r1, #1
 736 005c 2046     		mov	r0, r4
 737 005e FFF7FEFF 		bl	_lv_obj_get_style_int
 738              	.LVL89:
 739 0062 8046     		mov	r8, r0
 740              	.LVL90:
 113:lvgl/src/lv_widgets/../lv_core/lv_obj_style_dec.h **** _LV_OBJ_STYLE_SET_GET_DECLARE(PAD_INNER, pad_inner, lv_style_int_t, _int, scalar)
 741              		.loc 2 113 1 is_stmt 0 view .LVU214
 742              	.LBE90:
 743              	.LBE89:
 664:lvgl/src/lv_widgets/lv_arc.c ****         lv_coord_t bottom_indic = lv_obj_get_style_pad_bottom(arc, LV_ARC_PART_INDIC);
 744              		.loc 1 664 9 is_stmt 1 view .LVU215
 745              	.LBB91:
 746              	.LBI91:
 110:lvgl/src/lv_widgets/../lv_core/lv_obj_style_dec.h **** _LV_OBJ_STYLE_SET_GET_DECLARE(PAD_BOTTOM, pad_bottom, lv_style_int_t, _int, scalar)
 747              		.loc 2 110 1 view .LVU216
 748              	.LBB92:
 110:lvgl/src/lv_widgets/../lv_core/lv_obj_style_dec.h **** _LV_OBJ_STYLE_SET_GET_DECLARE(PAD_BOTTOM, pad_bottom, lv_style_int_t, _int, scalar)
 749              		.loc 2 110 1 view .LVU217
 750 0064 1022     		movs	r2, #16
 751 0066 0121     		movs	r1, #1
 752 0068 2046     		mov	r0, r4
 753 006a FFF7FEFF 		bl	_lv_obj_get_style_int
 754              	.LVL91:
 755 006e 0546     		mov	r5, r0
 756              	.LVL92:
 110:lvgl/src/lv_widgets/../lv_core/lv_obj_style_dec.h **** _LV_OBJ_STYLE_SET_GET_DECLARE(PAD_BOTTOM, pad_bottom, lv_style_int_t, _int, scalar)
 757              		.loc 2 110 1 is_stmt 0 view .LVU218
 758              	.LBE92:
 759              	.LBE91:
 665:lvgl/src/lv_widgets/lv_arc.c ****         lv_coord_t indic_r = arc_r - LV_MATH_MAX4(left_indic, right_indic, top_indic, bottom_indic)
 760              		.loc 1 665 9 is_stmt 1 view .LVU219
 761              	.LBB93:
 762              	.LBI93:
 111:lvgl/src/lv_widgets/../lv_core/lv_obj_style_dec.h **** _LV_OBJ_STYLE_SET_GET_DECLARE(PAD_LEFT, pad_left, lv_style_int_t, _int, scalar)
 763              		.loc 2 111 1 view .LVU220
 764              	.LBB94:
 111:lvgl/src/lv_widgets/../lv_core/lv_obj_style_dec.h **** _LV_OBJ_STYLE_SET_GET_DECLARE(PAD_LEFT, pad_left, lv_style_int_t, _int, scalar)
 765              		.loc 2 111 1 view .LVU221
 766 0070 1122     		movs	r2, #17
 767 0072 0121     		movs	r1, #1
 768 0074 2046     		mov	r0, r4
ARM GAS  D:\Temp\ccOOHxmt.s 			page 38


 769 0076 FFF7FEFF 		bl	_lv_obj_get_style_int
 770              	.LVL93:
 111:lvgl/src/lv_widgets/../lv_core/lv_obj_style_dec.h **** _LV_OBJ_STYLE_SET_GET_DECLARE(PAD_LEFT, pad_left, lv_style_int_t, _int, scalar)
 771              		.loc 2 111 1 is_stmt 0 view .LVU222
 772              	.LBE94:
 773              	.LBE93:
 666:lvgl/src/lv_widgets/lv_arc.c **** 
 774              		.loc 1 666 9 is_stmt 1 view .LVU223
 666:lvgl/src/lv_widgets/lv_arc.c **** 
 775              		.loc 1 666 38 is_stmt 0 view .LVU224
 776 007a A842     		cmp	r0, r5
 777 007c B8BF     		it	lt
 778 007e 2846     		movlt	r0, r5
 779              	.LVL94:
 666:lvgl/src/lv_widgets/lv_arc.c **** 
 780              		.loc 1 666 38 view .LVU225
 781 0080 00B2     		sxth	r0, r0
 782 0082 C845     		cmp	r8, r9
 783 0084 B8BF     		it	lt
 784 0086 C846     		movlt	r8, r9
 785              	.LVL95:
 666:lvgl/src/lv_widgets/lv_arc.c **** 
 786              		.loc 1 666 38 view .LVU226
 787 0088 0FFA88F5 		sxth	r5, r8
 788              	.LVL96:
 666:lvgl/src/lv_widgets/lv_arc.c **** 
 789              		.loc 1 666 38 view .LVU227
 790 008c A842     		cmp	r0, r5
 791 008e B8BF     		it	lt
 792 0090 2846     		movlt	r0, r5
 793 0092 80B2     		uxth	r0, r0
 666:lvgl/src/lv_widgets/lv_arc.c **** 
 794              		.loc 1 666 36 view .LVU228
 795 0094 BDF81650 		ldrh	r5, [sp, #22]
 796 0098 281A     		subs	r0, r5, r0
 797 009a 85B2     		uxth	r5, r0
 666:lvgl/src/lv_widgets/lv_arc.c **** 
 798              		.loc 1 666 20 view .LVU229
 799 009c 2BB2     		sxth	r3, r5
 800              	.LVL97:
 668:lvgl/src/lv_widgets/lv_arc.c ****             lv_draw_line_dsc_init(&arc_dsc);
 801              		.loc 1 668 9 is_stmt 1 view .LVU230
 668:lvgl/src/lv_widgets/lv_arc.c ****             lv_draw_line_dsc_init(&arc_dsc);
 802              		.loc 1 668 11 is_stmt 0 view .LVU231
 803 009e 002B     		cmp	r3, #0
 804 00a0 24DC     		bgt	.L35
 805              	.LVL98:
 806              	.L25:
 677:lvgl/src/lv_widgets/lv_arc.c ****             lv_area_t knob_area;
 807              		.loc 1 677 9 is_stmt 1 view .LVU232
 677:lvgl/src/lv_widgets/lv_arc.c ****             lv_area_t knob_area;
 808              		.loc 1 677 12 is_stmt 0 view .LVU233
 809 00a2 97F82230 		ldrb	r3, [r7, #34]	@ zero_extendqisi2
 677:lvgl/src/lv_widgets/lv_arc.c ****             lv_area_t knob_area;
 810              		.loc 1 677 11 view .LVU234
 811 00a6 13F0080F 		tst	r3, #8
 812 00aa 3CD1     		bne	.L36
ARM GAS  D:\Temp\ccOOHxmt.s 			page 39


 813              	.L26:
 814              	.LBE86:
 693:lvgl/src/lv_widgets/lv_arc.c **** }
 815              		.loc 1 693 12 discriminator 1 view .LVU235
 816 00ac 0020     		movs	r0, #0
 694:lvgl/src/lv_widgets/lv_arc.c **** 
 817              		.loc 1 694 1 discriminator 1 view .LVU236
 818 00ae 37B0     		add	sp, sp, #220
 819              	.LCFI8:
 820              		.cfi_remember_state
 821              		.cfi_def_cfa_offset 28
 822              		@ sp needed
 823 00b0 BDE8F083 		pop	{r4, r5, r6, r7, r8, r9, pc}
 824              	.LVL99:
 825              	.L34:
 826              	.LCFI9:
 827              		.cfi_restore_state
 828              	.LBB96:
 653:lvgl/src/lv_widgets/lv_arc.c ****             lv_obj_init_draw_line_dsc(arc, LV_ARC_PART_BG, &arc_dsc);
 829              		.loc 1 653 13 is_stmt 1 view .LVU237
 830 00b4 09AD     		add	r5, sp, #36
 831 00b6 2846     		mov	r0, r5
 832 00b8 FFF7FEFF 		bl	lv_draw_line_dsc_init
 833              	.LVL100:
 654:lvgl/src/lv_widgets/lv_arc.c **** 
 834              		.loc 1 654 13 view .LVU238
 835 00bc 2A46     		mov	r2, r5
 836 00be 0021     		movs	r1, #0
 837 00c0 2046     		mov	r0, r4
 838 00c2 FFF7FEFF 		bl	lv_obj_init_draw_line_dsc
 839              	.LVL101:
 656:lvgl/src/lv_widgets/lv_arc.c ****                         ext->bg_angle_end + ext->rotation_angle, clip_area,
 840              		.loc 1 656 13 view .LVU239
 656:lvgl/src/lv_widgets/lv_arc.c ****                         ext->bg_angle_end + ext->rotation_angle, clip_area,
 841              		.loc 1 656 55 is_stmt 0 view .LVU240
 842 00c6 FB88     		ldrh	r3, [r7, #6]
 656:lvgl/src/lv_widgets/lv_arc.c ****                         ext->bg_angle_end + ext->rotation_angle, clip_area,
 843              		.loc 1 656 77 view .LVU241
 844 00c8 3A88     		ldrh	r2, [r7]
 657:lvgl/src/lv_widgets/lv_arc.c ****                         &arc_dsc);
 845              		.loc 1 657 28 view .LVU242
 846 00ca 3989     		ldrh	r1, [r7, #8]
 656:lvgl/src/lv_widgets/lv_arc.c ****                         ext->bg_angle_end + ext->rotation_angle, clip_area,
 847              		.loc 1 656 13 view .LVU243
 848 00cc 1344     		add	r3, r3, r2
 849 00ce 0295     		str	r5, [sp, #8]
 850 00d0 0196     		str	r6, [sp, #4]
 851 00d2 0A44     		add	r2, r2, r1
 852 00d4 92B2     		uxth	r2, r2
 853 00d6 0092     		str	r2, [sp]
 854 00d8 9BB2     		uxth	r3, r3
 855 00da BDF81620 		ldrh	r2, [sp, #22]
 856 00de BDF91A10 		ldrsh	r1, [sp, #26]
 857 00e2 BDF91800 		ldrsh	r0, [sp, #24]
 858 00e6 FFF7FEFF 		bl	lv_draw_arc
 859              	.LVL102:
 860 00ea AFE7     		b	.L24
ARM GAS  D:\Temp\ccOOHxmt.s 			page 40


 861              	.LVL103:
 862              	.L35:
 669:lvgl/src/lv_widgets/lv_arc.c ****             lv_obj_init_draw_line_dsc(arc, LV_ARC_PART_INDIC, &arc_dsc);
 863              		.loc 1 669 13 is_stmt 1 view .LVU244
 864 00ec 0DF12408 		add	r8, sp, #36
 865 00f0 4046     		mov	r0, r8
 866 00f2 FFF7FEFF 		bl	lv_draw_line_dsc_init
 867              	.LVL104:
 670:lvgl/src/lv_widgets/lv_arc.c **** 
 868              		.loc 1 670 13 view .LVU245
 869 00f6 4246     		mov	r2, r8
 870 00f8 0121     		movs	r1, #1
 871 00fa 2046     		mov	r0, r4
 872 00fc FFF7FEFF 		bl	lv_obj_init_draw_line_dsc
 873              	.LVL105:
 672:lvgl/src/lv_widgets/lv_arc.c ****                         ext->arc_angle_end + ext->rotation_angle, clip_area,
 874              		.loc 1 672 13 view .LVU246
 672:lvgl/src/lv_widgets/lv_arc.c ****                         ext->arc_angle_end + ext->rotation_angle, clip_area,
 875              		.loc 1 672 57 is_stmt 0 view .LVU247
 876 0100 7B88     		ldrh	r3, [r7, #2]
 672:lvgl/src/lv_widgets/lv_arc.c ****                         ext->arc_angle_end + ext->rotation_angle, clip_area,
 877              		.loc 1 672 80 view .LVU248
 878 0102 3A88     		ldrh	r2, [r7]
 673:lvgl/src/lv_widgets/lv_arc.c ****                         &arc_dsc);
 879              		.loc 1 673 28 view .LVU249
 880 0104 B988     		ldrh	r1, [r7, #4]
 672:lvgl/src/lv_widgets/lv_arc.c ****                         ext->arc_angle_end + ext->rotation_angle, clip_area,
 881              		.loc 1 672 13 view .LVU250
 882 0106 1344     		add	r3, r3, r2
 883 0108 CDF80880 		str	r8, [sp, #8]
 884 010c 0196     		str	r6, [sp, #4]
 885 010e 0A44     		add	r2, r2, r1
 886 0110 92B2     		uxth	r2, r2
 887 0112 0092     		str	r2, [sp]
 888 0114 9BB2     		uxth	r3, r3
 889 0116 2A46     		mov	r2, r5
 890 0118 BDF91A10 		ldrsh	r1, [sp, #26]
 891 011c BDF91800 		ldrsh	r0, [sp, #24]
 892 0120 FFF7FEFF 		bl	lv_draw_arc
 893              	.LVL106:
 894 0124 BDE7     		b	.L25
 895              	.L36:
 896              	.LBB95:
 678:lvgl/src/lv_widgets/lv_arc.c ****             get_knob_area(arc, &center, arc_r, &knob_area);
 897              		.loc 1 678 13 is_stmt 1 view .LVU251
 679:lvgl/src/lv_widgets/lv_arc.c **** 
 898              		.loc 1 679 13 view .LVU252
 899 0126 07AB     		add	r3, sp, #28
 900 0128 BDF91620 		ldrsh	r2, [sp, #22]
 901 012c 06A9     		add	r1, sp, #24
 902 012e 2046     		mov	r0, r4
 903 0130 FFF7FEFF 		bl	get_knob_area
 904              	.LVL107:
 681:lvgl/src/lv_widgets/lv_arc.c ****             lv_draw_rect_dsc_init(&knob_rect_dsc);
 905              		.loc 1 681 13 view .LVU253
 682:lvgl/src/lv_widgets/lv_arc.c ****             lv_obj_init_draw_rect_dsc(arc, LV_ARC_PART_KNOB, &knob_rect_dsc);
 906              		.loc 1 682 13 view .LVU254
ARM GAS  D:\Temp\ccOOHxmt.s 			page 41


 907 0134 21A8     		add	r0, sp, #132
 908 0136 FFF7FEFF 		bl	lv_draw_rect_dsc_init
 909              	.LVL108:
 683:lvgl/src/lv_widgets/lv_arc.c **** 
 910              		.loc 1 683 13 view .LVU255
 911 013a 21AA     		add	r2, sp, #132
 912 013c 0221     		movs	r1, #2
 913 013e 2046     		mov	r0, r4
 914 0140 FFF7FEFF 		bl	lv_obj_init_draw_rect_dsc
 915              	.LVL109:
 685:lvgl/src/lv_widgets/lv_arc.c ****         }
 916              		.loc 1 685 13 view .LVU256
 917 0144 21AA     		add	r2, sp, #132
 918 0146 3146     		mov	r1, r6
 919 0148 07A8     		add	r0, sp, #28
 920 014a FFF7FEFF 		bl	lv_draw_rect
 921              	.LVL110:
 922 014e ADE7     		b	.L26
 923              	.LVL111:
 924              	.L27:
 925              	.LCFI10:
 926              		.cfi_def_cfa_offset 0
 927              		.cfi_restore 4
 928              		.cfi_restore 5
 929              		.cfi_restore 6
 930              		.cfi_restore 7
 931              		.cfi_restore 8
 932              		.cfi_restore 9
 933              		.cfi_restore 14
 685:lvgl/src/lv_widgets/lv_arc.c ****         }
 934              		.loc 1 685 13 is_stmt 0 view .LVU257
 935              	.LBE95:
 936              	.LBE96:
 634:lvgl/src/lv_widgets/lv_arc.c ****     }
 937              		.loc 1 634 16 view .LVU258
 938 0150 0220     		movs	r0, #2
 939              	.LVL112:
 634:lvgl/src/lv_widgets/lv_arc.c ****     }
 940              		.loc 1 634 16 view .LVU259
 941 0152 7047     		bx	lr
 942              		.cfi_endproc
 943              	.LFE481:
 945              		.section	.text.inv_arc_area,"ax",%progbits
 946              		.align	1
 947              		.syntax unified
 948              		.thumb
 949              		.thumb_func
 950              		.fpu fpv4-sp-d16
 952              	inv_arc_area:
 953              	.LVL113:
 954              	.LFB484:
 905:lvgl/src/lv_widgets/lv_arc.c ****     /*Skip this complicated invalidation if the arc is not visible*/
 955              		.loc 1 905 1 is_stmt 1 view -0
 956              		.cfi_startproc
 957              		@ args = 0, pretend = 0, frame = 40
 958              		@ frame_needed = 0, uses_anonymous_args = 0
 905:lvgl/src/lv_widgets/lv_arc.c ****     /*Skip this complicated invalidation if the arc is not visible*/
ARM GAS  D:\Temp\ccOOHxmt.s 			page 42


 959              		.loc 1 905 1 is_stmt 0 view .LVU261
 960 0000 2DE9F04F 		push	{r4, r5, r6, r7, r8, r9, r10, fp, lr}
 961              	.LCFI11:
 962              		.cfi_def_cfa_offset 36
 963              		.cfi_offset 4, -36
 964              		.cfi_offset 5, -32
 965              		.cfi_offset 6, -28
 966              		.cfi_offset 7, -24
 967              		.cfi_offset 8, -20
 968              		.cfi_offset 9, -16
 969              		.cfi_offset 10, -12
 970              		.cfi_offset 11, -8
 971              		.cfi_offset 14, -4
 972 0004 8BB0     		sub	sp, sp, #44
 973              	.LCFI12:
 974              		.cfi_def_cfa_offset 80
 975 0006 0446     		mov	r4, r0
 976 0008 0090     		str	r0, [sp]
 977 000a 0E46     		mov	r6, r1
 978 000c 1746     		mov	r7, r2
 979 000e 0193     		str	r3, [sp, #4]
 907:lvgl/src/lv_widgets/lv_arc.c **** 
 980              		.loc 1 907 5 is_stmt 1 view .LVU262
 907:lvgl/src/lv_widgets/lv_arc.c **** 
 981              		.loc 1 907 8 is_stmt 0 view .LVU263
 982 0010 FFF7FEFF 		bl	lv_obj_is_visible
 983              	.LVL114:
 907:lvgl/src/lv_widgets/lv_arc.c **** 
 984              		.loc 1 907 7 view .LVU264
 985 0014 10B9     		cbnz	r0, .L67
 986              	.LVL115:
 987              	.L37:
1026:lvgl/src/lv_widgets/lv_arc.c **** 
 988              		.loc 1 1026 1 view .LVU265
 989 0016 0BB0     		add	sp, sp, #44
 990              	.LCFI13:
 991              		.cfi_remember_state
 992              		.cfi_def_cfa_offset 36
 993              		@ sp needed
 994 0018 BDE8F08F 		pop	{r4, r5, r6, r7, r8, r9, r10, fp, pc}
 995              	.LVL116:
 996              	.L67:
 997              	.LCFI14:
 998              		.cfi_restore_state
 909:lvgl/src/lv_widgets/lv_arc.c **** 
 999              		.loc 1 909 5 is_stmt 1 view .LVU266
 909:lvgl/src/lv_widgets/lv_arc.c **** 
 1000              		.loc 1 909 26 is_stmt 0 view .LVU267
 1001 001c 2046     		mov	r0, r4
 1002 001e FFF7FEFF 		bl	lv_obj_get_ext_attr
 1003              	.LVL117:
 1004 0022 0390     		str	r0, [sp, #12]
 1005              	.LVL118:
 911:lvgl/src/lv_widgets/lv_arc.c ****     end_angle += ext->rotation_angle;
 1006              		.loc 1 911 5 is_stmt 1 view .LVU268
 911:lvgl/src/lv_widgets/lv_arc.c ****     end_angle += ext->rotation_angle;
 1007              		.loc 1 911 23 is_stmt 0 view .LVU269
ARM GAS  D:\Temp\ccOOHxmt.s 			page 43


 1008 0024 0088     		ldrh	r0, [r0]
 1009              	.LVL119:
 911:lvgl/src/lv_widgets/lv_arc.c ****     end_angle += ext->rotation_angle;
 1010              		.loc 1 911 17 view .LVU270
 1011 0026 0644     		add	r6, r6, r0
 1012 0028 1FFA86F9 		uxth	r9, r6
 1013              	.LVL120:
 912:lvgl/src/lv_widgets/lv_arc.c **** 
 1014              		.loc 1 912 5 is_stmt 1 view .LVU271
 912:lvgl/src/lv_widgets/lv_arc.c **** 
 1015              		.loc 1 912 15 is_stmt 0 view .LVU272
 1016 002c 3844     		add	r0, r0, r7
 1017 002e 85B2     		uxth	r5, r0
 1018              	.LVL121:
 914:lvgl/src/lv_widgets/lv_arc.c ****     if(end_angle >= 360) end_angle -= 360;
 1019              		.loc 1 914 5 is_stmt 1 view .LVU273
 914:lvgl/src/lv_widgets/lv_arc.c ****     if(end_angle >= 360) end_angle -= 360;
 1020              		.loc 1 914 7 is_stmt 0 view .LVU274
 1021 0030 B9F5B47F 		cmp	r9, #360
 1022 0034 03D3     		bcc	.L40
 914:lvgl/src/lv_widgets/lv_arc.c ****     if(end_angle >= 360) end_angle -= 360;
 1023              		.loc 1 914 28 is_stmt 1 discriminator 1 view .LVU275
 914:lvgl/src/lv_widgets/lv_arc.c ****     if(end_angle >= 360) end_angle -= 360;
 1024              		.loc 1 914 40 is_stmt 0 discriminator 1 view .LVU276
 1025 0036 A9F5B470 		sub	r0, r9, #360
 1026 003a 1FFA80F9 		uxth	r9, r0
 1027              	.LVL122:
 1028              	.L40:
 915:lvgl/src/lv_widgets/lv_arc.c **** 
 1029              		.loc 1 915 5 is_stmt 1 view .LVU277
 915:lvgl/src/lv_widgets/lv_arc.c **** 
 1030              		.loc 1 915 7 is_stmt 0 view .LVU278
 1031 003e B5F5B47F 		cmp	r5, #360
 1032 0042 02D3     		bcc	.L41
 915:lvgl/src/lv_widgets/lv_arc.c **** 
 1033              		.loc 1 915 26 is_stmt 1 discriminator 1 view .LVU279
 915:lvgl/src/lv_widgets/lv_arc.c **** 
 1034              		.loc 1 915 36 is_stmt 0 discriminator 1 view .LVU280
 1035 0044 A5F5B470 		sub	r0, r5, #360
 1036 0048 85B2     		uxth	r5, r0
 1037              	.LVL123:
 1038              	.L41:
 917:lvgl/src/lv_widgets/lv_arc.c ****     uint8_t end_quarter = end_angle / 90;
 1039              		.loc 1 917 5 is_stmt 1 view .LVU281
 917:lvgl/src/lv_widgets/lv_arc.c ****     uint8_t end_quarter = end_angle / 90;
 1040              		.loc 1 917 13 is_stmt 0 view .LVU282
 1041 004a 4FEA5902 		lsr	r2, r9, #1
 1042 004e B149     		ldr	r1, .L77
 1043 0050 A1FB0232 		umull	r3, r2, r1, r2
 1044 0054 C2F34714 		ubfx	r4, r2, #5, #8
 1045              	.LVL124:
 918:lvgl/src/lv_widgets/lv_arc.c **** 
 1046              		.loc 1 918 5 is_stmt 1 view .LVU283
 918:lvgl/src/lv_widgets/lv_arc.c **** 
 1047              		.loc 1 918 13 is_stmt 0 view .LVU284
 1048 0058 6B08     		lsrs	r3, r5, #1
 1049 005a A1FB0323 		umull	r2, r3, r1, r3
ARM GAS  D:\Temp\ccOOHxmt.s 			page 44


 1050 005e C3F34713 		ubfx	r3, r3, #5, #8
 1051 0062 0293     		str	r3, [sp, #8]
 1052              	.LVL125:
 920:lvgl/src/lv_widgets/lv_arc.c ****     lv_coord_t right = lv_obj_get_style_pad_right(arc, LV_ARC_PART_BG);
 1053              		.loc 1 920 5 is_stmt 1 view .LVU285
 1054              	.LBB97:
 1055              	.LBI97:
 112:lvgl/src/lv_widgets/../lv_core/lv_obj_style_dec.h **** _LV_OBJ_STYLE_SET_GET_DECLARE(PAD_RIGHT, pad_right, lv_style_int_t, _int, scalar)
 1056              		.loc 2 112 1 view .LVU286
 1057              	.LBB98:
 112:lvgl/src/lv_widgets/../lv_core/lv_obj_style_dec.h **** _LV_OBJ_STYLE_SET_GET_DECLARE(PAD_RIGHT, pad_right, lv_style_int_t, _int, scalar)
 1058              		.loc 2 112 1 view .LVU287
 1059 0064 1222     		movs	r2, #18
 1060 0066 0021     		movs	r1, #0
 1061 0068 009E     		ldr	r6, [sp]
 1062 006a 3046     		mov	r0, r6
 1063 006c FFF7FEFF 		bl	_lv_obj_get_style_int
 1064              	.LVL126:
 1065 0070 8046     		mov	r8, r0
 1066              	.LVL127:
 112:lvgl/src/lv_widgets/../lv_core/lv_obj_style_dec.h **** _LV_OBJ_STYLE_SET_GET_DECLARE(PAD_RIGHT, pad_right, lv_style_int_t, _int, scalar)
 1067              		.loc 2 112 1 is_stmt 0 view .LVU288
 1068              	.LBE98:
 1069              	.LBE97:
 921:lvgl/src/lv_widgets/lv_arc.c ****     lv_coord_t top = lv_obj_get_style_pad_top(arc, LV_ARC_PART_BG);
 1070              		.loc 1 921 5 is_stmt 1 view .LVU289
 1071              	.LBB99:
 1072              	.LBI99:
 113:lvgl/src/lv_widgets/../lv_core/lv_obj_style_dec.h **** _LV_OBJ_STYLE_SET_GET_DECLARE(PAD_INNER, pad_inner, lv_style_int_t, _int, scalar)
 1073              		.loc 2 113 1 view .LVU290
 1074              	.LBB100:
 113:lvgl/src/lv_widgets/../lv_core/lv_obj_style_dec.h **** _LV_OBJ_STYLE_SET_GET_DECLARE(PAD_INNER, pad_inner, lv_style_int_t, _int, scalar)
 1075              		.loc 2 113 1 view .LVU291
 1076 0072 1322     		movs	r2, #19
 1077 0074 0021     		movs	r1, #0
 1078 0076 3046     		mov	r0, r6
 1079 0078 FFF7FEFF 		bl	_lv_obj_get_style_int
 1080              	.LVL128:
 1081 007c 8346     		mov	fp, r0
 1082              	.LVL129:
 113:lvgl/src/lv_widgets/../lv_core/lv_obj_style_dec.h **** _LV_OBJ_STYLE_SET_GET_DECLARE(PAD_INNER, pad_inner, lv_style_int_t, _int, scalar)
 1083              		.loc 2 113 1 is_stmt 0 view .LVU292
 1084              	.LBE100:
 1085              	.LBE99:
 922:lvgl/src/lv_widgets/lv_arc.c ****     lv_coord_t bottom = lv_obj_get_style_pad_bottom(arc, LV_ARC_PART_BG);
 1086              		.loc 1 922 5 is_stmt 1 view .LVU293
 1087              	.LBB101:
 1088              	.LBI101:
 110:lvgl/src/lv_widgets/../lv_core/lv_obj_style_dec.h **** _LV_OBJ_STYLE_SET_GET_DECLARE(PAD_BOTTOM, pad_bottom, lv_style_int_t, _int, scalar)
 1089              		.loc 2 110 1 view .LVU294
 1090              	.LBB102:
 110:lvgl/src/lv_widgets/../lv_core/lv_obj_style_dec.h **** _LV_OBJ_STYLE_SET_GET_DECLARE(PAD_BOTTOM, pad_bottom, lv_style_int_t, _int, scalar)
 1091              		.loc 2 110 1 view .LVU295
 1092 007e 1022     		movs	r2, #16
 1093 0080 0021     		movs	r1, #0
 1094 0082 3046     		mov	r0, r6
 1095 0084 FFF7FEFF 		bl	_lv_obj_get_style_int
ARM GAS  D:\Temp\ccOOHxmt.s 			page 45


 1096              	.LVL130:
 1097 0088 0746     		mov	r7, r0
 1098              	.LVL131:
 110:lvgl/src/lv_widgets/../lv_core/lv_obj_style_dec.h **** _LV_OBJ_STYLE_SET_GET_DECLARE(PAD_BOTTOM, pad_bottom, lv_style_int_t, _int, scalar)
 1099              		.loc 2 110 1 is_stmt 0 view .LVU296
 1100              	.LBE102:
 1101              	.LBE101:
 923:lvgl/src/lv_widgets/lv_arc.c ****     lv_coord_t rout       = (LV_MATH_MIN(lv_obj_get_width(arc) - left - right, lv_obj_get_height(ar
 1102              		.loc 1 923 5 is_stmt 1 view .LVU297
 1103              	.LBB103:
 1104              	.LBI103:
 111:lvgl/src/lv_widgets/../lv_core/lv_obj_style_dec.h **** _LV_OBJ_STYLE_SET_GET_DECLARE(PAD_LEFT, pad_left, lv_style_int_t, _int, scalar)
 1105              		.loc 2 111 1 view .LVU298
 1106              	.LBB104:
 111:lvgl/src/lv_widgets/../lv_core/lv_obj_style_dec.h **** _LV_OBJ_STYLE_SET_GET_DECLARE(PAD_LEFT, pad_left, lv_style_int_t, _int, scalar)
 1107              		.loc 2 111 1 view .LVU299
 1108 008a 1122     		movs	r2, #17
 1109 008c 0021     		movs	r1, #0
 1110 008e 3046     		mov	r0, r6
 1111 0090 FFF7FEFF 		bl	_lv_obj_get_style_int
 1112              	.LVL132:
 1113 0094 8246     		mov	r10, r0
 1114              	.LVL133:
 111:lvgl/src/lv_widgets/../lv_core/lv_obj_style_dec.h **** _LV_OBJ_STYLE_SET_GET_DECLARE(PAD_LEFT, pad_left, lv_style_int_t, _int, scalar)
 1115              		.loc 2 111 1 is_stmt 0 view .LVU300
 1116              	.LBE104:
 1117              	.LBE103:
 924:lvgl/src/lv_widgets/lv_arc.c ****     lv_coord_t x       = arc->coords.x1 + rout + left;
 1118              		.loc 1 924 5 is_stmt 1 view .LVU301
 924:lvgl/src/lv_widgets/lv_arc.c ****     lv_coord_t x       = arc->coords.x1 + rout + left;
 1119              		.loc 1 924 30 is_stmt 0 view .LVU302
 1120 0096 0096     		str	r6, [sp]
 1121              	.LVL134:
 924:lvgl/src/lv_widgets/lv_arc.c ****     lv_coord_t x       = arc->coords.x1 + rout + left;
 1122              		.loc 1 924 30 view .LVU303
 1123 0098 3046     		mov	r0, r6
 1124 009a FFF7FEFF 		bl	lv_obj_get_width
 1125              	.LVL135:
 1126 009e A0EB0800 		sub	r0, r0, r8
 1127 00a2 A0EB0B06 		sub	r6, r0, fp
 1128 00a6 0098     		ldr	r0, [sp]
 1129 00a8 FFF7FEFF 		bl	lv_obj_get_height
 1130              	.LVL136:
 1131 00ac C01B     		subs	r0, r0, r7
 1132 00ae A0EB0A00 		sub	r0, r0, r10
 924:lvgl/src/lv_widgets/lv_arc.c ****     lv_coord_t x       = arc->coords.x1 + rout + left;
 1133              		.loc 1 924 16 view .LVU304
 1134 00b2 8642     		cmp	r6, r0
 1135 00b4 49DA     		bge	.L42
 924:lvgl/src/lv_widgets/lv_arc.c ****     lv_coord_t x       = arc->coords.x1 + rout + left;
 1136              		.loc 1 924 30 discriminator 1 view .LVU305
 1137 00b6 0098     		ldr	r0, [sp]
 1138 00b8 FFF7FEFF 		bl	lv_obj_get_width
 1139              	.LVL137:
 1140 00bc A0EB0800 		sub	r0, r0, r8
 1141 00c0 A0EB0B0B 		sub	fp, r0, fp
 1142              	.LVL138:
ARM GAS  D:\Temp\ccOOHxmt.s 			page 46


 924:lvgl/src/lv_widgets/lv_arc.c ****     lv_coord_t x       = arc->coords.x1 + rout + left;
 1143              		.loc 1 924 120 discriminator 1 view .LVU306
 1144 00c4 0BEBDB7B 		add	fp, fp, fp, lsr #31
 924:lvgl/src/lv_widgets/lv_arc.c ****     lv_coord_t x       = arc->coords.x1 + rout + left;
 1145              		.loc 1 924 16 discriminator 1 view .LVU307
 1146 00c8 4BF34F0A 		sbfx	r10, fp, #1, #16
 1147              	.LVL139:
 1148              	.L43:
 925:lvgl/src/lv_widgets/lv_arc.c ****     lv_coord_t y       = arc->coords.y1 + rout + top;
 1149              		.loc 1 925 5 is_stmt 1 discriminator 4 view .LVU308
 925:lvgl/src/lv_widgets/lv_arc.c ****     lv_coord_t y       = arc->coords.y1 + rout + top;
 1150              		.loc 1 925 37 is_stmt 0 discriminator 4 view .LVU309
 1151 00cc 0098     		ldr	r0, [sp]
 1152 00ce B0F810B0 		ldrh	fp, [r0, #16]
 925:lvgl/src/lv_widgets/lv_arc.c ****     lv_coord_t y       = arc->coords.y1 + rout + top;
 1153              		.loc 1 925 41 discriminator 4 view .LVU310
 1154 00d2 1FFA8AF6 		uxth	r6, r10
 1155 00d6 B344     		add	fp, fp, r6
 925:lvgl/src/lv_widgets/lv_arc.c ****     lv_coord_t y       = arc->coords.y1 + rout + top;
 1156              		.loc 1 925 48 discriminator 4 view .LVU311
 1157 00d8 18FA8BF8 		uxtah	r8, r8, fp
 1158              	.LVL140:
 925:lvgl/src/lv_widgets/lv_arc.c ****     lv_coord_t y       = arc->coords.y1 + rout + top;
 1159              		.loc 1 925 48 discriminator 4 view .LVU312
 1160 00dc 1FFA88FB 		uxth	fp, r8
 1161              	.LVL141:
 926:lvgl/src/lv_widgets/lv_arc.c ****     lv_style_int_t w = lv_obj_get_style_line_width(arc, part);
 1162              		.loc 1 926 5 is_stmt 1 discriminator 4 view .LVU313
 926:lvgl/src/lv_widgets/lv_arc.c ****     lv_style_int_t w = lv_obj_get_style_line_width(arc, part);
 1163              		.loc 1 926 37 is_stmt 0 discriminator 4 view .LVU314
 1164 00e0 438A     		ldrh	r3, [r0, #18]
 926:lvgl/src/lv_widgets/lv_arc.c ****     lv_style_int_t w = lv_obj_get_style_line_width(arc, part);
 1165              		.loc 1 926 41 discriminator 4 view .LVU315
 1166 00e2 3344     		add	r3, r3, r6
 926:lvgl/src/lv_widgets/lv_arc.c ****     lv_style_int_t w = lv_obj_get_style_line_width(arc, part);
 1167              		.loc 1 926 48 discriminator 4 view .LVU316
 1168 00e4 17FA83F7 		uxtah	r7, r7, r3
 1169              	.LVL142:
 926:lvgl/src/lv_widgets/lv_arc.c ****     lv_style_int_t w = lv_obj_get_style_line_width(arc, part);
 1170              		.loc 1 926 48 discriminator 4 view .LVU317
 1171 00e8 1FFA87F8 		uxth	r8, r7
 1172              	.LVL143:
 927:lvgl/src/lv_widgets/lv_arc.c ****     lv_style_int_t rounded = lv_obj_get_style_line_rounded(arc, part);
 1173              		.loc 1 927 5 is_stmt 1 discriminator 4 view .LVU318
 1174              	.LBB105:
 1175              	.LBI105:
 1176              		.loc 2 169 1 discriminator 4 view .LVU319
 1177              	.LBB106:
 1178              		.loc 2 169 1 discriminator 4 view .LVU320
 1179 00ec 9022     		movs	r2, #144
 1180 00ee 0199     		ldr	r1, [sp, #4]
 1181 00f0 FFF7FEFF 		bl	_lv_obj_get_style_int
 1182              	.LVL144:
 1183              		.loc 2 169 1 is_stmt 0 discriminator 4 view .LVU321
 1184 00f4 0746     		mov	r7, r0
 1185              	.LVL145:
 1186              		.loc 2 169 1 discriminator 4 view .LVU322
ARM GAS  D:\Temp\ccOOHxmt.s 			page 47


 1187              	.LBE106:
 1188              	.LBE105:
 928:lvgl/src/lv_widgets/lv_arc.c ****     lv_coord_t rin       = rout - w;
 1189              		.loc 1 928 5 is_stmt 1 discriminator 4 view .LVU323
 1190              	.LBB107:
 1191              	.LBI107:
 170:lvgl/src/lv_widgets/../lv_core/lv_obj_style_dec.h **** _LV_OBJ_STYLE_SET_GET_DECLARE(LINE_BLEND_MODE, line_blend_mode, lv_blend_mode_t, _int, scalar)
 171:lvgl/src/lv_widgets/../lv_core/lv_obj_style_dec.h **** _LV_OBJ_STYLE_SET_GET_DECLARE(LINE_DASH_WIDTH, line_dash_width, lv_style_int_t, _int, scalar)
 172:lvgl/src/lv_widgets/../lv_core/lv_obj_style_dec.h **** _LV_OBJ_STYLE_SET_GET_DECLARE(LINE_DASH_GAP, line_dash_gap, lv_style_int_t, _int, scalar)
 173:lvgl/src/lv_widgets/../lv_core/lv_obj_style_dec.h **** _LV_OBJ_STYLE_SET_GET_DECLARE(LINE_ROUNDED, line_rounded, bool, _int, scalar)
 1192              		.loc 2 173 1 discriminator 4 view .LVU324
 1193              	.LBB108:
 1194              		.loc 2 173 1 discriminator 4 view .LVU325
 1195 00f6 9422     		movs	r2, #148
 1196 00f8 0199     		ldr	r1, [sp, #4]
 1197 00fa 0098     		ldr	r0, [sp]
 1198 00fc FFF7FEFF 		bl	_lv_obj_get_style_int
 1199              	.LVL146:
 1200              		.loc 2 173 1 is_stmt 0 discriminator 4 view .LVU326
 1201              	.LBE108:
 1202              	.LBE107:
 929:lvgl/src/lv_widgets/lv_arc.c ****     lv_coord_t extra_area = 0;
 1203              		.loc 1 929 5 is_stmt 1 discriminator 4 view .LVU327
 929:lvgl/src/lv_widgets/lv_arc.c ****     lv_coord_t extra_area = 0;
 1204              		.loc 1 929 33 is_stmt 0 discriminator 4 view .LVU328
 1205 0100 F31B     		subs	r3, r6, r7
 929:lvgl/src/lv_widgets/lv_arc.c ****     lv_coord_t extra_area = 0;
 1206              		.loc 1 929 16 discriminator 4 view .LVU329
 1207 0102 1BB2     		sxth	r3, r3
 1208 0104 0593     		str	r3, [sp, #20]
 1209              	.LVL147:
 930:lvgl/src/lv_widgets/lv_arc.c **** 
 1210              		.loc 1 930 5 is_stmt 1 discriminator 4 view .LVU330
 932:lvgl/src/lv_widgets/lv_arc.c **** 
 1211              		.loc 1 932 5 discriminator 4 view .LVU331
 932:lvgl/src/lv_widgets/lv_arc.c **** 
 1212              		.loc 1 932 16 is_stmt 0 discriminator 4 view .LVU332
 1213 0106 58B3     		cbz	r0, .L64
 932:lvgl/src/lv_widgets/lv_arc.c **** 
 1214              		.loc 1 932 34 discriminator 1 view .LVU333
 1215 0108 07EBD773 		add	r3, r7, r7, lsr #31
 1216 010c 5B10     		asrs	r3, r3, #1
 1217 010e 0233     		adds	r3, r3, #2
 932:lvgl/src/lv_widgets/lv_arc.c **** 
 1218              		.loc 1 932 16 discriminator 1 view .LVU334
 1219 0110 1BB2     		sxth	r3, r3
 1220 0112 0493     		str	r3, [sp, #16]
 1221              	.L44:
 1222              	.LVL148:
 934:lvgl/src/lv_widgets/lv_arc.c ****         lv_coord_t knob_extra_size = lv_obj_get_draw_rect_ext_pad_size(arc, LV_ARC_PART_KNOB);
 1223              		.loc 1 934 5 is_stmt 1 discriminator 4 view .LVU335
 934:lvgl/src/lv_widgets/lv_arc.c ****         lv_coord_t knob_extra_size = lv_obj_get_draw_rect_ext_pad_size(arc, LV_ARC_PART_KNOB);
 1224              		.loc 1 934 7 is_stmt 0 discriminator 4 view .LVU336
 1225 0114 019B     		ldr	r3, [sp, #4]
 1226 0116 012B     		cmp	r3, #1
 1227 0118 25D0     		beq	.L68
 1228              	.LVL149:
ARM GAS  D:\Temp\ccOOHxmt.s 			page 48


 1229              	.L45:
 948:lvgl/src/lv_widgets/lv_arc.c **** 
 1230              		.loc 1 948 5 is_stmt 1 view .LVU337
 950:lvgl/src/lv_widgets/lv_arc.c ****         if(start_quarter == 0) {
 1231              		.loc 1 950 5 view .LVU338
 950:lvgl/src/lv_widgets/lv_arc.c ****         if(start_quarter == 0) {
 1232              		.loc 1 950 7 is_stmt 0 view .LVU339
 1233 011a 029B     		ldr	r3, [sp, #8]
 1234 011c 9C42     		cmp	r4, r3
 1235 011e 76D0     		beq	.L69
 1236              	.L47:
 990:lvgl/src/lv_widgets/lv_arc.c ****         inv_area.x1 = x + ((_lv_trigo_sin(end_angle + 90) * rout) >> LV_TRIGO_SHIFT) - extra_area;
 1237              		.loc 1 990 10 is_stmt 1 view .LVU340
 990:lvgl/src/lv_widgets/lv_arc.c ****         inv_area.x1 = x + ((_lv_trigo_sin(end_angle + 90) * rout) >> LV_TRIGO_SHIFT) - extra_area;
 1238              		.loc 1 990 12 is_stmt 0 view .LVU341
 1239 0120 1CB9     		cbnz	r4, .L52
 990:lvgl/src/lv_widgets/lv_arc.c ****         inv_area.x1 = x + ((_lv_trigo_sin(end_angle + 90) * rout) >> LV_TRIGO_SHIFT) - extra_area;
 1240              		.loc 1 990 32 discriminator 1 view .LVU342
 1241 0122 029B     		ldr	r3, [sp, #8]
 1242 0124 012B     		cmp	r3, #1
 1243 0126 00F06B81 		beq	.L70
 1244              	.L52:
 998:lvgl/src/lv_widgets/lv_arc.c ****         inv_area.x1 = x - rout - extra_area;
 1245              		.loc 1 998 10 is_stmt 1 view .LVU343
 998:lvgl/src/lv_widgets/lv_arc.c ****         inv_area.x1 = x - rout - extra_area;
 1246              		.loc 1 998 12 is_stmt 0 view .LVU344
 1247 012a 012C     		cmp	r4, #1
 1248 012c 00F0AD81 		beq	.L71
 1249              	.L55:
1006:lvgl/src/lv_widgets/lv_arc.c ****         inv_area.x1 = x + ((_lv_trigo_sin(start_angle + 90) * rout) >> LV_TRIGO_SHIFT) - extra_area
 1250              		.loc 1 1006 10 is_stmt 1 view .LVU345
1006:lvgl/src/lv_widgets/lv_arc.c ****         inv_area.x1 = x + ((_lv_trigo_sin(start_angle + 90) * rout) >> LV_TRIGO_SHIFT) - extra_area
 1251              		.loc 1 1006 12 is_stmt 0 view .LVU346
 1252 0130 022C     		cmp	r4, #2
 1253 0132 00F0F281 		beq	.L72
 1254              	.L58:
1014:lvgl/src/lv_widgets/lv_arc.c ****         inv_area.x1 = x + ((LV_MATH_MIN(_lv_trigo_sin(end_angle + 90),
 1255              		.loc 1 1014 10 is_stmt 1 view .LVU347
1014:lvgl/src/lv_widgets/lv_arc.c ****         inv_area.x1 = x + ((LV_MATH_MIN(_lv_trigo_sin(end_angle + 90),
 1256              		.loc 1 1014 12 is_stmt 0 view .LVU348
 1257 0136 032C     		cmp	r4, #3
 1258 0138 03D1     		bne	.L61
1014:lvgl/src/lv_widgets/lv_arc.c ****         inv_area.x1 = x + ((LV_MATH_MIN(_lv_trigo_sin(end_angle + 90),
 1259              		.loc 1 1014 32 discriminator 1 view .LVU349
 1260 013a 029B     		ldr	r3, [sp, #8]
 1261 013c 002B     		cmp	r3, #0
 1262 013e 00F03C82 		beq	.L73
 1263              	.L61:
1024:lvgl/src/lv_widgets/lv_arc.c ****     }
 1264              		.loc 1 1024 9 is_stmt 1 view .LVU350
 1265 0142 0098     		ldr	r0, [sp]
 1266 0144 FFF7FEFF 		bl	lv_obj_invalidate
 1267              	.LVL150:
 1268 0148 65E7     		b	.L37
 1269              	.LVL151:
 1270              	.L42:
 924:lvgl/src/lv_widgets/lv_arc.c ****     lv_coord_t x       = arc->coords.x1 + rout + left;
ARM GAS  D:\Temp\ccOOHxmt.s 			page 49


 1271              		.loc 1 924 30 is_stmt 0 discriminator 2 view .LVU351
 1272 014a 0098     		ldr	r0, [sp]
 1273 014c FFF7FEFF 		bl	lv_obj_get_height
 1274              	.LVL152:
 1275 0150 C01B     		subs	r0, r0, r7
 1276 0152 A0EB0A0A 		sub	r10, r0, r10
 1277              	.LVL153:
 924:lvgl/src/lv_widgets/lv_arc.c ****     lv_coord_t x       = arc->coords.x1 + rout + left;
 1278              		.loc 1 924 120 discriminator 2 view .LVU352
 1279 0156 0AEBDA7A 		add	r10, r10, r10, lsr #31
 924:lvgl/src/lv_widgets/lv_arc.c ****     lv_coord_t x       = arc->coords.x1 + rout + left;
 1280              		.loc 1 924 16 discriminator 2 view .LVU353
 1281 015a 4AF34F0A 		sbfx	r10, r10, #1, #16
 1282 015e B5E7     		b	.L43
 1283              	.LVL154:
 1284              	.L64:
 932:lvgl/src/lv_widgets/lv_arc.c **** 
 1285              		.loc 1 932 16 view .LVU354
 1286 0160 0023     		movs	r3, #0
 1287 0162 0493     		str	r3, [sp, #16]
 1288 0164 D6E7     		b	.L44
 1289              	.LVL155:
 1290              	.L68:
 1291              	.LBB109:
 1292              	.LBI109:
 1293              		.file 3 "lvgl/src/lv_widgets/../lv_core/lv_style.h"
   1:lvgl/src/lv_widgets/../lv_core/lv_style.h **** /**
   2:lvgl/src/lv_widgets/../lv_core/lv_style.h ****  * @file lv_style.h
   3:lvgl/src/lv_widgets/../lv_core/lv_style.h ****  *
   4:lvgl/src/lv_widgets/../lv_core/lv_style.h ****  */
   5:lvgl/src/lv_widgets/../lv_core/lv_style.h **** 
   6:lvgl/src/lv_widgets/../lv_core/lv_style.h **** #ifndef LV_STYLE_H
   7:lvgl/src/lv_widgets/../lv_core/lv_style.h **** #define LV_STYLE_H
   8:lvgl/src/lv_widgets/../lv_core/lv_style.h **** 
   9:lvgl/src/lv_widgets/../lv_core/lv_style.h **** #ifdef __cplusplus
  10:lvgl/src/lv_widgets/../lv_core/lv_style.h **** extern "C" {
  11:lvgl/src/lv_widgets/../lv_core/lv_style.h **** #endif
  12:lvgl/src/lv_widgets/../lv_core/lv_style.h **** 
  13:lvgl/src/lv_widgets/../lv_core/lv_style.h **** /*********************
  14:lvgl/src/lv_widgets/../lv_core/lv_style.h ****  *      INCLUDES
  15:lvgl/src/lv_widgets/../lv_core/lv_style.h ****  *********************/
  16:lvgl/src/lv_widgets/../lv_core/lv_style.h **** #include <stdbool.h>
  17:lvgl/src/lv_widgets/../lv_core/lv_style.h **** #include "../lv_font/lv_font.h"
  18:lvgl/src/lv_widgets/../lv_core/lv_style.h **** #include "../lv_misc/lv_color.h"
  19:lvgl/src/lv_widgets/../lv_core/lv_style.h **** #include "../lv_misc/lv_area.h"
  20:lvgl/src/lv_widgets/../lv_core/lv_style.h **** #include "../lv_misc/lv_anim.h"
  21:lvgl/src/lv_widgets/../lv_core/lv_style.h **** #include "../lv_misc/lv_types.h"
  22:lvgl/src/lv_widgets/../lv_core/lv_style.h **** #include "../lv_misc/lv_debug.h"
  23:lvgl/src/lv_widgets/../lv_core/lv_style.h **** #include "../lv_draw/lv_draw_blend.h"
  24:lvgl/src/lv_widgets/../lv_core/lv_style.h **** 
  25:lvgl/src/lv_widgets/../lv_core/lv_style.h **** /*********************
  26:lvgl/src/lv_widgets/../lv_core/lv_style.h ****  *      DEFINES
  27:lvgl/src/lv_widgets/../lv_core/lv_style.h ****  *********************/
  28:lvgl/src/lv_widgets/../lv_core/lv_style.h **** 
  29:lvgl/src/lv_widgets/../lv_core/lv_style.h **** #define LV_RADIUS_CIRCLE (0x7FFF) /**< A very big radius to always draw as circle*/
  30:lvgl/src/lv_widgets/../lv_core/lv_style.h **** LV_EXPORT_CONST_INT(LV_RADIUS_CIRCLE);
  31:lvgl/src/lv_widgets/../lv_core/lv_style.h **** 
ARM GAS  D:\Temp\ccOOHxmt.s 			page 50


  32:lvgl/src/lv_widgets/../lv_core/lv_style.h **** #define LV_DEBUG_STYLE_SENTINEL_VALUE      0x2288AAEE
  33:lvgl/src/lv_widgets/../lv_core/lv_style.h **** #define LV_DEBUG_STYLE_LIST_SENTINEL_VALUE 0x9977CCBB
  34:lvgl/src/lv_widgets/../lv_core/lv_style.h **** 
  35:lvgl/src/lv_widgets/../lv_core/lv_style.h **** #define LV_STYLE_PROP_INIT(name, group, id, attr)  name = (((group << 4) + id) | ((attr) << 8))
  36:lvgl/src/lv_widgets/../lv_core/lv_style.h **** 
  37:lvgl/src/lv_widgets/../lv_core/lv_style.h **** #define LV_STYLE_ID_MASK 0x00FF
  38:lvgl/src/lv_widgets/../lv_core/lv_style.h **** 
  39:lvgl/src/lv_widgets/../lv_core/lv_style.h **** #define LV_STYLE_ATTR_NONE          0
  40:lvgl/src/lv_widgets/../lv_core/lv_style.h **** #define LV_STYLE_ATTR_INHERIT       (1 << 7)
  41:lvgl/src/lv_widgets/../lv_core/lv_style.h **** 
  42:lvgl/src/lv_widgets/../lv_core/lv_style.h **** #define _LV_STYLE_CLOSING_PROP     0xFF
  43:lvgl/src/lv_widgets/../lv_core/lv_style.h **** 
  44:lvgl/src/lv_widgets/../lv_core/lv_style.h **** #define LV_STYLE_TRANS_NUM_MAX      6
  45:lvgl/src/lv_widgets/../lv_core/lv_style.h **** 
  46:lvgl/src/lv_widgets/../lv_core/lv_style.h **** #define LV_STYLE_PROP_ALL 0xFF
  47:lvgl/src/lv_widgets/../lv_core/lv_style.h **** 
  48:lvgl/src/lv_widgets/../lv_core/lv_style.h **** /**********************
  49:lvgl/src/lv_widgets/../lv_core/lv_style.h ****  *      TYPEDEFS
  50:lvgl/src/lv_widgets/../lv_core/lv_style.h ****  **********************/
  51:lvgl/src/lv_widgets/../lv_core/lv_style.h **** 
  52:lvgl/src/lv_widgets/../lv_core/lv_style.h **** /*Border types (Use 'OR'ed values)*/
  53:lvgl/src/lv_widgets/../lv_core/lv_style.h **** enum {
  54:lvgl/src/lv_widgets/../lv_core/lv_style.h ****     LV_BORDER_SIDE_NONE     = 0x00,
  55:lvgl/src/lv_widgets/../lv_core/lv_style.h ****     LV_BORDER_SIDE_BOTTOM   = 0x01,
  56:lvgl/src/lv_widgets/../lv_core/lv_style.h ****     LV_BORDER_SIDE_TOP      = 0x02,
  57:lvgl/src/lv_widgets/../lv_core/lv_style.h ****     LV_BORDER_SIDE_LEFT     = 0x04,
  58:lvgl/src/lv_widgets/../lv_core/lv_style.h ****     LV_BORDER_SIDE_RIGHT    = 0x08,
  59:lvgl/src/lv_widgets/../lv_core/lv_style.h ****     LV_BORDER_SIDE_FULL     = 0x0F,
  60:lvgl/src/lv_widgets/../lv_core/lv_style.h ****     LV_BORDER_SIDE_INTERNAL = 0x10, /**< FOR matrix-like objects (e.g. Button matrix)*/
  61:lvgl/src/lv_widgets/../lv_core/lv_style.h ****     _LV_BORDER_SIDE_LAST
  62:lvgl/src/lv_widgets/../lv_core/lv_style.h **** };
  63:lvgl/src/lv_widgets/../lv_core/lv_style.h **** typedef uint8_t lv_border_side_t;
  64:lvgl/src/lv_widgets/../lv_core/lv_style.h **** 
  65:lvgl/src/lv_widgets/../lv_core/lv_style.h **** enum {
  66:lvgl/src/lv_widgets/../lv_core/lv_style.h ****     LV_GRAD_DIR_NONE,
  67:lvgl/src/lv_widgets/../lv_core/lv_style.h ****     LV_GRAD_DIR_VER,
  68:lvgl/src/lv_widgets/../lv_core/lv_style.h ****     LV_GRAD_DIR_HOR,
  69:lvgl/src/lv_widgets/../lv_core/lv_style.h ****     _LV_GRAD_DIR_LAST
  70:lvgl/src/lv_widgets/../lv_core/lv_style.h **** };
  71:lvgl/src/lv_widgets/../lv_core/lv_style.h **** 
  72:lvgl/src/lv_widgets/../lv_core/lv_style.h **** typedef uint8_t lv_grad_dir_t;
  73:lvgl/src/lv_widgets/../lv_core/lv_style.h **** 
  74:lvgl/src/lv_widgets/../lv_core/lv_style.h **** /*Text decorations (Use 'OR'ed values)*/
  75:lvgl/src/lv_widgets/../lv_core/lv_style.h **** enum {
  76:lvgl/src/lv_widgets/../lv_core/lv_style.h ****     LV_TEXT_DECOR_NONE          = 0x00,
  77:lvgl/src/lv_widgets/../lv_core/lv_style.h ****     LV_TEXT_DECOR_UNDERLINE     = 0x01,
  78:lvgl/src/lv_widgets/../lv_core/lv_style.h ****     LV_TEXT_DECOR_STRIKETHROUGH = 0x02,
  79:lvgl/src/lv_widgets/../lv_core/lv_style.h ****     _LV_TEXT_DECOR_LAST
  80:lvgl/src/lv_widgets/../lv_core/lv_style.h **** };
  81:lvgl/src/lv_widgets/../lv_core/lv_style.h **** 
  82:lvgl/src/lv_widgets/../lv_core/lv_style.h **** typedef uint8_t lv_text_decor_t;
  83:lvgl/src/lv_widgets/../lv_core/lv_style.h **** 
  84:lvgl/src/lv_widgets/../lv_core/lv_style.h **** typedef uint8_t lv_style_attr_t;
  85:lvgl/src/lv_widgets/../lv_core/lv_style.h **** 
  86:lvgl/src/lv_widgets/../lv_core/lv_style.h **** #define LV_STYLE_ATTR_GET_INHERIT(f) ((f)&0x80)
  87:lvgl/src/lv_widgets/../lv_core/lv_style.h **** #define LV_STYLE_ATTR_GET_STATE(f) ((f)&0x7F)
  88:lvgl/src/lv_widgets/../lv_core/lv_style.h **** 
ARM GAS  D:\Temp\ccOOHxmt.s 			page 51


  89:lvgl/src/lv_widgets/../lv_core/lv_style.h **** #define LV_STYLE_ID_VALUE 0x0   /*max 9 pcs*/
  90:lvgl/src/lv_widgets/../lv_core/lv_style.h **** #define LV_STYLE_ID_COLOR 0x9   /*max 3 pcs*/
  91:lvgl/src/lv_widgets/../lv_core/lv_style.h **** #define LV_STYLE_ID_OPA   0xC   /*max 2 pcs*/
  92:lvgl/src/lv_widgets/../lv_core/lv_style.h **** #define LV_STYLE_ID_PTR   0xE   /*max 2 pcs*/
  93:lvgl/src/lv_widgets/../lv_core/lv_style.h **** 
  94:lvgl/src/lv_widgets/../lv_core/lv_style.h **** enum {
  95:lvgl/src/lv_widgets/../lv_core/lv_style.h ****     /*Skip 0th property*/
  96:lvgl/src/lv_widgets/../lv_core/lv_style.h ****     LV_STYLE_PROP_INIT(LV_STYLE_RADIUS,             0x0, LV_STYLE_ID_VALUE + 1, LV_STYLE_ATTR_NONE)
  97:lvgl/src/lv_widgets/../lv_core/lv_style.h ****     LV_STYLE_PROP_INIT(LV_STYLE_CLIP_CORNER,        0x0, LV_STYLE_ID_VALUE + 2, LV_STYLE_ATTR_NONE)
  98:lvgl/src/lv_widgets/../lv_core/lv_style.h ****     LV_STYLE_PROP_INIT(LV_STYLE_SIZE,               0x0, LV_STYLE_ID_VALUE + 3, LV_STYLE_ATTR_NONE)
  99:lvgl/src/lv_widgets/../lv_core/lv_style.h ****     LV_STYLE_PROP_INIT(LV_STYLE_TRANSFORM_WIDTH,    0x0, LV_STYLE_ID_VALUE + 4, LV_STYLE_ATTR_NONE)
 100:lvgl/src/lv_widgets/../lv_core/lv_style.h ****     LV_STYLE_PROP_INIT(LV_STYLE_TRANSFORM_HEIGHT,   0x0, LV_STYLE_ID_VALUE + 5, LV_STYLE_ATTR_NONE)
 101:lvgl/src/lv_widgets/../lv_core/lv_style.h ****     LV_STYLE_PROP_INIT(LV_STYLE_TRANSFORM_ANGLE,    0x0, LV_STYLE_ID_VALUE + 6, LV_STYLE_ATTR_NONE)
 102:lvgl/src/lv_widgets/../lv_core/lv_style.h ****     LV_STYLE_PROP_INIT(LV_STYLE_TRANSFORM_ZOOM,     0x0, LV_STYLE_ID_VALUE + 7, LV_STYLE_ATTR_NONE)
 103:lvgl/src/lv_widgets/../lv_core/lv_style.h ****     LV_STYLE_PROP_INIT(LV_STYLE_OPA_SCALE,          0x0, LV_STYLE_ID_OPA + 0,   LV_STYLE_ATTR_INHER
 104:lvgl/src/lv_widgets/../lv_core/lv_style.h **** 
 105:lvgl/src/lv_widgets/../lv_core/lv_style.h ****     LV_STYLE_PROP_INIT(LV_STYLE_PAD_TOP,            0x1, LV_STYLE_ID_VALUE + 0, LV_STYLE_ATTR_NONE)
 106:lvgl/src/lv_widgets/../lv_core/lv_style.h ****     LV_STYLE_PROP_INIT(LV_STYLE_PAD_BOTTOM,         0x1, LV_STYLE_ID_VALUE + 1, LV_STYLE_ATTR_NONE)
 107:lvgl/src/lv_widgets/../lv_core/lv_style.h ****     LV_STYLE_PROP_INIT(LV_STYLE_PAD_LEFT,           0x1, LV_STYLE_ID_VALUE + 2, LV_STYLE_ATTR_NONE)
 108:lvgl/src/lv_widgets/../lv_core/lv_style.h ****     LV_STYLE_PROP_INIT(LV_STYLE_PAD_RIGHT,          0x1, LV_STYLE_ID_VALUE + 3, LV_STYLE_ATTR_NONE)
 109:lvgl/src/lv_widgets/../lv_core/lv_style.h ****     LV_STYLE_PROP_INIT(LV_STYLE_PAD_INNER,          0x1, LV_STYLE_ID_VALUE + 4, LV_STYLE_ATTR_NONE)
 110:lvgl/src/lv_widgets/../lv_core/lv_style.h ****     LV_STYLE_PROP_INIT(LV_STYLE_MARGIN_TOP,         0x1, LV_STYLE_ID_VALUE + 5, LV_STYLE_ATTR_NONE)
 111:lvgl/src/lv_widgets/../lv_core/lv_style.h ****     LV_STYLE_PROP_INIT(LV_STYLE_MARGIN_BOTTOM,      0x1, LV_STYLE_ID_VALUE + 6, LV_STYLE_ATTR_NONE)
 112:lvgl/src/lv_widgets/../lv_core/lv_style.h ****     LV_STYLE_PROP_INIT(LV_STYLE_MARGIN_LEFT,        0x1, LV_STYLE_ID_VALUE + 7, LV_STYLE_ATTR_NONE)
 113:lvgl/src/lv_widgets/../lv_core/lv_style.h ****     LV_STYLE_PROP_INIT(LV_STYLE_MARGIN_RIGHT,       0x1, LV_STYLE_ID_VALUE + 8, LV_STYLE_ATTR_NONE)
 114:lvgl/src/lv_widgets/../lv_core/lv_style.h **** 
 115:lvgl/src/lv_widgets/../lv_core/lv_style.h ****     LV_STYLE_PROP_INIT(LV_STYLE_BG_BLEND_MODE,      0x2, LV_STYLE_ID_VALUE + 0, LV_STYLE_ATTR_NONE)
 116:lvgl/src/lv_widgets/../lv_core/lv_style.h ****     LV_STYLE_PROP_INIT(LV_STYLE_BG_MAIN_STOP,       0x2, LV_STYLE_ID_VALUE + 1, LV_STYLE_ATTR_NONE)
 117:lvgl/src/lv_widgets/../lv_core/lv_style.h ****     LV_STYLE_PROP_INIT(LV_STYLE_BG_GRAD_STOP,       0x2, LV_STYLE_ID_VALUE + 2, LV_STYLE_ATTR_NONE)
 118:lvgl/src/lv_widgets/../lv_core/lv_style.h ****     LV_STYLE_PROP_INIT(LV_STYLE_BG_GRAD_DIR,        0x2, LV_STYLE_ID_VALUE + 3, LV_STYLE_ATTR_NONE)
 119:lvgl/src/lv_widgets/../lv_core/lv_style.h ****     LV_STYLE_PROP_INIT(LV_STYLE_BG_COLOR,           0x2, LV_STYLE_ID_COLOR + 0, LV_STYLE_ATTR_NONE)
 120:lvgl/src/lv_widgets/../lv_core/lv_style.h ****     LV_STYLE_PROP_INIT(LV_STYLE_BG_GRAD_COLOR,      0x2, LV_STYLE_ID_COLOR + 1, LV_STYLE_ATTR_NONE)
 121:lvgl/src/lv_widgets/../lv_core/lv_style.h ****     LV_STYLE_PROP_INIT(LV_STYLE_BG_OPA,             0x2, LV_STYLE_ID_OPA   + 0, LV_STYLE_ATTR_NONE)
 122:lvgl/src/lv_widgets/../lv_core/lv_style.h **** 
 123:lvgl/src/lv_widgets/../lv_core/lv_style.h ****     LV_STYLE_PROP_INIT(LV_STYLE_BORDER_WIDTH,       0x3, LV_STYLE_ID_VALUE + 0, LV_STYLE_ATTR_NONE)
 124:lvgl/src/lv_widgets/../lv_core/lv_style.h ****     LV_STYLE_PROP_INIT(LV_STYLE_BORDER_SIDE,        0x3, LV_STYLE_ID_VALUE + 1, LV_STYLE_ATTR_NONE)
 125:lvgl/src/lv_widgets/../lv_core/lv_style.h ****     LV_STYLE_PROP_INIT(LV_STYLE_BORDER_BLEND_MODE,  0x3, LV_STYLE_ID_VALUE + 2, LV_STYLE_ATTR_NONE)
 126:lvgl/src/lv_widgets/../lv_core/lv_style.h ****     LV_STYLE_PROP_INIT(LV_STYLE_BORDER_POST,        0x3, LV_STYLE_ID_VALUE + 3, LV_STYLE_ATTR_NONE)
 127:lvgl/src/lv_widgets/../lv_core/lv_style.h ****     LV_STYLE_PROP_INIT(LV_STYLE_BORDER_COLOR,       0x3, LV_STYLE_ID_COLOR + 0, LV_STYLE_ATTR_NONE)
 128:lvgl/src/lv_widgets/../lv_core/lv_style.h ****     LV_STYLE_PROP_INIT(LV_STYLE_BORDER_OPA,         0x3, LV_STYLE_ID_OPA   + 0, LV_STYLE_ATTR_NONE)
 129:lvgl/src/lv_widgets/../lv_core/lv_style.h **** 
 130:lvgl/src/lv_widgets/../lv_core/lv_style.h ****     LV_STYLE_PROP_INIT(LV_STYLE_OUTLINE_WIDTH,       0x4, LV_STYLE_ID_VALUE + 0, LV_STYLE_ATTR_NONE
 131:lvgl/src/lv_widgets/../lv_core/lv_style.h ****     LV_STYLE_PROP_INIT(LV_STYLE_OUTLINE_PAD,         0x4, LV_STYLE_ID_VALUE + 1, LV_STYLE_ATTR_NONE
 132:lvgl/src/lv_widgets/../lv_core/lv_style.h ****     LV_STYLE_PROP_INIT(LV_STYLE_OUTLINE_BLEND_MODE,  0x4, LV_STYLE_ID_VALUE + 2, LV_STYLE_ATTR_NONE
 133:lvgl/src/lv_widgets/../lv_core/lv_style.h ****     LV_STYLE_PROP_INIT(LV_STYLE_OUTLINE_COLOR,       0x4, LV_STYLE_ID_COLOR + 0, LV_STYLE_ATTR_NONE
 134:lvgl/src/lv_widgets/../lv_core/lv_style.h ****     LV_STYLE_PROP_INIT(LV_STYLE_OUTLINE_OPA,         0x4, LV_STYLE_ID_OPA   + 0, LV_STYLE_ATTR_NONE
 135:lvgl/src/lv_widgets/../lv_core/lv_style.h **** 
 136:lvgl/src/lv_widgets/../lv_core/lv_style.h ****     LV_STYLE_PROP_INIT(LV_STYLE_SHADOW_WIDTH,       0x5, LV_STYLE_ID_VALUE + 0, LV_STYLE_ATTR_NONE)
 137:lvgl/src/lv_widgets/../lv_core/lv_style.h ****     LV_STYLE_PROP_INIT(LV_STYLE_SHADOW_OFS_X,       0x5, LV_STYLE_ID_VALUE + 1, LV_STYLE_ATTR_NONE)
 138:lvgl/src/lv_widgets/../lv_core/lv_style.h ****     LV_STYLE_PROP_INIT(LV_STYLE_SHADOW_OFS_Y,       0x5, LV_STYLE_ID_VALUE + 2, LV_STYLE_ATTR_NONE)
 139:lvgl/src/lv_widgets/../lv_core/lv_style.h ****     LV_STYLE_PROP_INIT(LV_STYLE_SHADOW_SPREAD,      0x5, LV_STYLE_ID_VALUE + 3, LV_STYLE_ATTR_NONE)
 140:lvgl/src/lv_widgets/../lv_core/lv_style.h ****     LV_STYLE_PROP_INIT(LV_STYLE_SHADOW_BLEND_MODE,  0x5, LV_STYLE_ID_VALUE + 4, LV_STYLE_ATTR_NONE)
 141:lvgl/src/lv_widgets/../lv_core/lv_style.h ****     LV_STYLE_PROP_INIT(LV_STYLE_SHADOW_COLOR,       0x5, LV_STYLE_ID_COLOR + 0, LV_STYLE_ATTR_NONE)
 142:lvgl/src/lv_widgets/../lv_core/lv_style.h ****     LV_STYLE_PROP_INIT(LV_STYLE_SHADOW_OPA,         0x5, LV_STYLE_ID_OPA   + 0, LV_STYLE_ATTR_NONE)
 143:lvgl/src/lv_widgets/../lv_core/lv_style.h **** 
 144:lvgl/src/lv_widgets/../lv_core/lv_style.h ****     LV_STYLE_PROP_INIT(LV_STYLE_PATTERN_BLEND_MODE,    0x6, LV_STYLE_ID_VALUE + 0, LV_STYLE_ATTR_NO
 145:lvgl/src/lv_widgets/../lv_core/lv_style.h ****     LV_STYLE_PROP_INIT(LV_STYLE_PATTERN_REPEAT,        0x6, LV_STYLE_ID_VALUE + 1, LV_STYLE_ATTR_NO
ARM GAS  D:\Temp\ccOOHxmt.s 			page 52


 146:lvgl/src/lv_widgets/../lv_core/lv_style.h ****     LV_STYLE_PROP_INIT(LV_STYLE_PATTERN_RECOLOR,       0x6, LV_STYLE_ID_COLOR + 0, LV_STYLE_ATTR_NO
 147:lvgl/src/lv_widgets/../lv_core/lv_style.h ****     LV_STYLE_PROP_INIT(LV_STYLE_PATTERN_OPA,           0x6, LV_STYLE_ID_OPA   + 0, LV_STYLE_ATTR_NO
 148:lvgl/src/lv_widgets/../lv_core/lv_style.h ****     LV_STYLE_PROP_INIT(LV_STYLE_PATTERN_RECOLOR_OPA,   0x6, LV_STYLE_ID_OPA   + 1, LV_STYLE_ATTR_NO
 149:lvgl/src/lv_widgets/../lv_core/lv_style.h ****     LV_STYLE_PROP_INIT(LV_STYLE_PATTERN_IMAGE,         0x6, LV_STYLE_ID_PTR   + 0, LV_STYLE_ATTR_NO
 150:lvgl/src/lv_widgets/../lv_core/lv_style.h **** 
 151:lvgl/src/lv_widgets/../lv_core/lv_style.h ****     LV_STYLE_PROP_INIT(LV_STYLE_VALUE_LETTER_SPACE,  0x7, LV_STYLE_ID_VALUE + 0, LV_STYLE_ATTR_NONE
 152:lvgl/src/lv_widgets/../lv_core/lv_style.h ****     LV_STYLE_PROP_INIT(LV_STYLE_VALUE_LINE_SPACE,    0x7, LV_STYLE_ID_VALUE + 1, LV_STYLE_ATTR_NONE
 153:lvgl/src/lv_widgets/../lv_core/lv_style.h ****     LV_STYLE_PROP_INIT(LV_STYLE_VALUE_BLEND_MODE,    0x7, LV_STYLE_ID_VALUE + 2, LV_STYLE_ATTR_NONE
 154:lvgl/src/lv_widgets/../lv_core/lv_style.h ****     LV_STYLE_PROP_INIT(LV_STYLE_VALUE_OFS_X,         0x7, LV_STYLE_ID_VALUE + 3, LV_STYLE_ATTR_NONE
 155:lvgl/src/lv_widgets/../lv_core/lv_style.h ****     LV_STYLE_PROP_INIT(LV_STYLE_VALUE_OFS_Y,         0x7, LV_STYLE_ID_VALUE + 4, LV_STYLE_ATTR_NONE
 156:lvgl/src/lv_widgets/../lv_core/lv_style.h ****     LV_STYLE_PROP_INIT(LV_STYLE_VALUE_ALIGN,         0x7, LV_STYLE_ID_VALUE + 5, LV_STYLE_ATTR_NONE
 157:lvgl/src/lv_widgets/../lv_core/lv_style.h ****     LV_STYLE_PROP_INIT(LV_STYLE_VALUE_COLOR,         0x7, LV_STYLE_ID_COLOR + 0, LV_STYLE_ATTR_NONE
 158:lvgl/src/lv_widgets/../lv_core/lv_style.h ****     LV_STYLE_PROP_INIT(LV_STYLE_VALUE_OPA,           0x7, LV_STYLE_ID_OPA   + 0, LV_STYLE_ATTR_NONE
 159:lvgl/src/lv_widgets/../lv_core/lv_style.h ****     LV_STYLE_PROP_INIT(LV_STYLE_VALUE_FONT,          0x7, LV_STYLE_ID_PTR   + 0, LV_STYLE_ATTR_NONE
 160:lvgl/src/lv_widgets/../lv_core/lv_style.h ****     LV_STYLE_PROP_INIT(LV_STYLE_VALUE_STR,           0x7, LV_STYLE_ID_PTR   + 1, LV_STYLE_ATTR_NONE
 161:lvgl/src/lv_widgets/../lv_core/lv_style.h **** 
 162:lvgl/src/lv_widgets/../lv_core/lv_style.h ****     LV_STYLE_PROP_INIT(LV_STYLE_TEXT_LETTER_SPACE,   0x8, LV_STYLE_ID_VALUE + 0, LV_STYLE_ATTR_INHE
 163:lvgl/src/lv_widgets/../lv_core/lv_style.h ****     LV_STYLE_PROP_INIT(LV_STYLE_TEXT_LINE_SPACE,     0x8, LV_STYLE_ID_VALUE + 1, LV_STYLE_ATTR_INHE
 164:lvgl/src/lv_widgets/../lv_core/lv_style.h ****     LV_STYLE_PROP_INIT(LV_STYLE_TEXT_DECOR,          0x8, LV_STYLE_ID_VALUE + 2, LV_STYLE_ATTR_INHE
 165:lvgl/src/lv_widgets/../lv_core/lv_style.h ****     LV_STYLE_PROP_INIT(LV_STYLE_TEXT_BLEND_MODE,     0x8, LV_STYLE_ID_VALUE + 3, LV_STYLE_ATTR_INHE
 166:lvgl/src/lv_widgets/../lv_core/lv_style.h ****     LV_STYLE_PROP_INIT(LV_STYLE_TEXT_COLOR,          0x8, LV_STYLE_ID_COLOR + 0, LV_STYLE_ATTR_INHE
 167:lvgl/src/lv_widgets/../lv_core/lv_style.h ****     LV_STYLE_PROP_INIT(LV_STYLE_TEXT_SEL_COLOR,      0x8, LV_STYLE_ID_COLOR + 1, LV_STYLE_ATTR_INHE
 168:lvgl/src/lv_widgets/../lv_core/lv_style.h ****     LV_STYLE_PROP_INIT(LV_STYLE_TEXT_SEL_BG_COLOR,   0x8, LV_STYLE_ID_COLOR + 2, LV_STYLE_ATTR_INHE
 169:lvgl/src/lv_widgets/../lv_core/lv_style.h ****     LV_STYLE_PROP_INIT(LV_STYLE_TEXT_OPA,            0x8, LV_STYLE_ID_OPA   + 0, LV_STYLE_ATTR_INHE
 170:lvgl/src/lv_widgets/../lv_core/lv_style.h ****     LV_STYLE_PROP_INIT(LV_STYLE_TEXT_FONT,           0x8, LV_STYLE_ID_PTR   + 0, LV_STYLE_ATTR_INHE
 171:lvgl/src/lv_widgets/../lv_core/lv_style.h **** 
 172:lvgl/src/lv_widgets/../lv_core/lv_style.h ****     LV_STYLE_PROP_INIT(LV_STYLE_LINE_WIDTH,         0x9, LV_STYLE_ID_VALUE + 0, LV_STYLE_ATTR_NONE)
 173:lvgl/src/lv_widgets/../lv_core/lv_style.h ****     LV_STYLE_PROP_INIT(LV_STYLE_LINE_BLEND_MODE,    0x9, LV_STYLE_ID_VALUE + 1, LV_STYLE_ATTR_NONE)
 174:lvgl/src/lv_widgets/../lv_core/lv_style.h ****     LV_STYLE_PROP_INIT(LV_STYLE_LINE_DASH_WIDTH,    0x9, LV_STYLE_ID_VALUE + 2, LV_STYLE_ATTR_NONE)
 175:lvgl/src/lv_widgets/../lv_core/lv_style.h ****     LV_STYLE_PROP_INIT(LV_STYLE_LINE_DASH_GAP,      0x9, LV_STYLE_ID_VALUE + 3, LV_STYLE_ATTR_NONE)
 176:lvgl/src/lv_widgets/../lv_core/lv_style.h ****     LV_STYLE_PROP_INIT(LV_STYLE_LINE_ROUNDED,       0x9, LV_STYLE_ID_VALUE + 4, LV_STYLE_ATTR_NONE)
 177:lvgl/src/lv_widgets/../lv_core/lv_style.h ****     LV_STYLE_PROP_INIT(LV_STYLE_LINE_COLOR,         0x9, LV_STYLE_ID_COLOR + 0, LV_STYLE_ATTR_NONE)
 178:lvgl/src/lv_widgets/../lv_core/lv_style.h ****     LV_STYLE_PROP_INIT(LV_STYLE_LINE_OPA,           0x9, LV_STYLE_ID_OPA   + 0, LV_STYLE_ATTR_NONE)
 179:lvgl/src/lv_widgets/../lv_core/lv_style.h **** 
 180:lvgl/src/lv_widgets/../lv_core/lv_style.h ****     LV_STYLE_PROP_INIT(LV_STYLE_IMAGE_BLEND_MODE,   0xA, LV_STYLE_ID_VALUE + 0, LV_STYLE_ATTR_INHER
 181:lvgl/src/lv_widgets/../lv_core/lv_style.h ****     LV_STYLE_PROP_INIT(LV_STYLE_IMAGE_RECOLOR,      0xA, LV_STYLE_ID_COLOR + 0, LV_STYLE_ATTR_INHER
 182:lvgl/src/lv_widgets/../lv_core/lv_style.h ****     LV_STYLE_PROP_INIT(LV_STYLE_IMAGE_OPA,          0xA, LV_STYLE_ID_OPA   + 0, LV_STYLE_ATTR_INHER
 183:lvgl/src/lv_widgets/../lv_core/lv_style.h ****     LV_STYLE_PROP_INIT(LV_STYLE_IMAGE_RECOLOR_OPA,  0xA, LV_STYLE_ID_OPA   + 1, LV_STYLE_ATTR_INHER
 184:lvgl/src/lv_widgets/../lv_core/lv_style.h **** 
 185:lvgl/src/lv_widgets/../lv_core/lv_style.h ****     LV_STYLE_PROP_INIT(LV_STYLE_TRANSITION_TIME,    0xB, LV_STYLE_ID_VALUE + 0, LV_STYLE_ATTR_NONE)
 186:lvgl/src/lv_widgets/../lv_core/lv_style.h ****     LV_STYLE_PROP_INIT(LV_STYLE_TRANSITION_DELAY,   0xB, LV_STYLE_ID_VALUE + 1, LV_STYLE_ATTR_NONE)
 187:lvgl/src/lv_widgets/../lv_core/lv_style.h ****     LV_STYLE_PROP_INIT(LV_STYLE_TRANSITION_PROP_1,  0xB, LV_STYLE_ID_VALUE + 2, LV_STYLE_ATTR_NONE)
 188:lvgl/src/lv_widgets/../lv_core/lv_style.h ****     LV_STYLE_PROP_INIT(LV_STYLE_TRANSITION_PROP_2,  0xB, LV_STYLE_ID_VALUE + 3, LV_STYLE_ATTR_NONE)
 189:lvgl/src/lv_widgets/../lv_core/lv_style.h ****     LV_STYLE_PROP_INIT(LV_STYLE_TRANSITION_PROP_3,  0xB, LV_STYLE_ID_VALUE + 4, LV_STYLE_ATTR_NONE)
 190:lvgl/src/lv_widgets/../lv_core/lv_style.h ****     LV_STYLE_PROP_INIT(LV_STYLE_TRANSITION_PROP_4,  0xB, LV_STYLE_ID_VALUE + 5, LV_STYLE_ATTR_NONE)
 191:lvgl/src/lv_widgets/../lv_core/lv_style.h ****     LV_STYLE_PROP_INIT(LV_STYLE_TRANSITION_PROP_5,  0xB, LV_STYLE_ID_VALUE + 6, LV_STYLE_ATTR_NONE)
 192:lvgl/src/lv_widgets/../lv_core/lv_style.h ****     LV_STYLE_PROP_INIT(LV_STYLE_TRANSITION_PROP_6,  0xB, LV_STYLE_ID_VALUE + 7, LV_STYLE_ATTR_NONE)
 193:lvgl/src/lv_widgets/../lv_core/lv_style.h ****     LV_STYLE_PROP_INIT(LV_STYLE_TRANSITION_PATH,    0xB, LV_STYLE_ID_PTR + 0, LV_STYLE_ATTR_NONE),
 194:lvgl/src/lv_widgets/../lv_core/lv_style.h **** 
 195:lvgl/src/lv_widgets/../lv_core/lv_style.h ****     LV_STYLE_PROP_INIT(LV_STYLE_SCALE_WIDTH,            0xC, LV_STYLE_ID_VALUE + 0, LV_STYLE_ATTR_N
 196:lvgl/src/lv_widgets/../lv_core/lv_style.h ****     LV_STYLE_PROP_INIT(LV_STYLE_SCALE_BORDER_WIDTH,     0xC, LV_STYLE_ID_VALUE + 1, LV_STYLE_ATTR_N
 197:lvgl/src/lv_widgets/../lv_core/lv_style.h ****     LV_STYLE_PROP_INIT(LV_STYLE_SCALE_END_BORDER_WIDTH, 0xC, LV_STYLE_ID_VALUE + 2, LV_STYLE_ATTR_N
 198:lvgl/src/lv_widgets/../lv_core/lv_style.h ****     LV_STYLE_PROP_INIT(LV_STYLE_SCALE_END_LINE_WIDTH,   0xC, LV_STYLE_ID_VALUE + 3, LV_STYLE_ATTR_N
 199:lvgl/src/lv_widgets/../lv_core/lv_style.h ****     LV_STYLE_PROP_INIT(LV_STYLE_SCALE_GRAD_COLOR,       0xC, LV_STYLE_ID_COLOR + 0, LV_STYLE_ATTR_N
 200:lvgl/src/lv_widgets/../lv_core/lv_style.h ****     LV_STYLE_PROP_INIT(LV_STYLE_SCALE_END_COLOR,        0xC, LV_STYLE_ID_COLOR + 1, LV_STYLE_ATTR_N
 201:lvgl/src/lv_widgets/../lv_core/lv_style.h **** };
 202:lvgl/src/lv_widgets/../lv_core/lv_style.h **** 
ARM GAS  D:\Temp\ccOOHxmt.s 			page 53


 203:lvgl/src/lv_widgets/../lv_core/lv_style.h **** typedef uint16_t lv_style_property_t;
 204:lvgl/src/lv_widgets/../lv_core/lv_style.h **** 
 205:lvgl/src/lv_widgets/../lv_core/lv_style.h **** #define LV_STYLE_STATE_POS       8
 206:lvgl/src/lv_widgets/../lv_core/lv_style.h **** #define LV_STYLE_STATE_MASK      0x7F00
 207:lvgl/src/lv_widgets/../lv_core/lv_style.h **** #define LV_STYLE_INHERIT_MASK    0x8000
 208:lvgl/src/lv_widgets/../lv_core/lv_style.h **** 
 209:lvgl/src/lv_widgets/../lv_core/lv_style.h **** typedef uint16_t lv_style_state_t;
 210:lvgl/src/lv_widgets/../lv_core/lv_style.h **** 
 211:lvgl/src/lv_widgets/../lv_core/lv_style.h **** typedef struct {
 212:lvgl/src/lv_widgets/../lv_core/lv_style.h ****     uint8_t * map;
 213:lvgl/src/lv_widgets/../lv_core/lv_style.h **** #if LV_USE_ASSERT_STYLE
 214:lvgl/src/lv_widgets/../lv_core/lv_style.h ****     uint32_t sentinel;
 215:lvgl/src/lv_widgets/../lv_core/lv_style.h **** #endif
 216:lvgl/src/lv_widgets/../lv_core/lv_style.h **** } lv_style_t;
 217:lvgl/src/lv_widgets/../lv_core/lv_style.h **** 
 218:lvgl/src/lv_widgets/../lv_core/lv_style.h **** typedef int16_t lv_style_int_t;
 219:lvgl/src/lv_widgets/../lv_core/lv_style.h **** 
 220:lvgl/src/lv_widgets/../lv_core/lv_style.h **** typedef struct {
 221:lvgl/src/lv_widgets/../lv_core/lv_style.h ****     lv_style_t ** style_list;
 222:lvgl/src/lv_widgets/../lv_core/lv_style.h **** #if LV_USE_ASSERT_STYLE
 223:lvgl/src/lv_widgets/../lv_core/lv_style.h ****     uint32_t sentinel;
 224:lvgl/src/lv_widgets/../lv_core/lv_style.h **** #endif
 225:lvgl/src/lv_widgets/../lv_core/lv_style.h ****     uint32_t style_cnt     : 6;
 226:lvgl/src/lv_widgets/../lv_core/lv_style.h ****     uint32_t has_local     : 1;
 227:lvgl/src/lv_widgets/../lv_core/lv_style.h ****     uint32_t has_trans     : 1;
 228:lvgl/src/lv_widgets/../lv_core/lv_style.h ****     uint32_t skip_trans    : 1;      /*1: Temporally skip the transition style if any*/
 229:lvgl/src/lv_widgets/../lv_core/lv_style.h ****     uint32_t ignore_trans  : 1;      /*1: Mark that this style list shouldn't receive transitions a
 230:lvgl/src/lv_widgets/../lv_core/lv_style.h ****     uint32_t valid_cache   : 1;      /*1: The cache is valid and can be used*/
 231:lvgl/src/lv_widgets/../lv_core/lv_style.h ****     uint32_t ignore_cache  : 1;      /*1: Ignore cache while getting value of properties*/
 232:lvgl/src/lv_widgets/../lv_core/lv_style.h **** 
 233:lvgl/src/lv_widgets/../lv_core/lv_style.h ****     uint32_t radius_zero : 1;
 234:lvgl/src/lv_widgets/../lv_core/lv_style.h ****     uint32_t opa_scale_cover      : 1;
 235:lvgl/src/lv_widgets/../lv_core/lv_style.h ****     uint32_t clip_corner_off       : 1;
 236:lvgl/src/lv_widgets/../lv_core/lv_style.h ****     uint32_t transform_all_zero  : 1;
 237:lvgl/src/lv_widgets/../lv_core/lv_style.h ****     uint32_t pad_all_zero : 1;
 238:lvgl/src/lv_widgets/../lv_core/lv_style.h ****     uint32_t margin_all_zero : 1;
 239:lvgl/src/lv_widgets/../lv_core/lv_style.h ****     uint32_t blend_mode_all_normal : 1;
 240:lvgl/src/lv_widgets/../lv_core/lv_style.h ****     uint32_t bg_opa_transp : 1;
 241:lvgl/src/lv_widgets/../lv_core/lv_style.h ****     uint32_t bg_opa_cover : 1;
 242:lvgl/src/lv_widgets/../lv_core/lv_style.h **** 
 243:lvgl/src/lv_widgets/../lv_core/lv_style.h ****     uint32_t border_width_zero : 1;
 244:lvgl/src/lv_widgets/../lv_core/lv_style.h ****     uint32_t border_side_full : 1;
 245:lvgl/src/lv_widgets/../lv_core/lv_style.h ****     uint32_t border_post_off : 1;
 246:lvgl/src/lv_widgets/../lv_core/lv_style.h **** 
 247:lvgl/src/lv_widgets/../lv_core/lv_style.h ****     uint32_t outline_width_zero : 1;
 248:lvgl/src/lv_widgets/../lv_core/lv_style.h ****     uint32_t pattern_img_null : 1;
 249:lvgl/src/lv_widgets/../lv_core/lv_style.h ****     uint32_t shadow_width_zero : 1;
 250:lvgl/src/lv_widgets/../lv_core/lv_style.h ****     uint32_t value_txt_str : 1;
 251:lvgl/src/lv_widgets/../lv_core/lv_style.h ****     uint32_t img_recolor_opa_transp : 1;
 252:lvgl/src/lv_widgets/../lv_core/lv_style.h **** 
 253:lvgl/src/lv_widgets/../lv_core/lv_style.h ****     uint32_t text_space_zero : 1;
 254:lvgl/src/lv_widgets/../lv_core/lv_style.h ****     uint32_t text_decor_none : 1;
 255:lvgl/src/lv_widgets/../lv_core/lv_style.h ****     uint32_t text_font_normal : 1;
 256:lvgl/src/lv_widgets/../lv_core/lv_style.h **** } lv_style_list_t;
 257:lvgl/src/lv_widgets/../lv_core/lv_style.h **** 
 258:lvgl/src/lv_widgets/../lv_core/lv_style.h **** /**********************
 259:lvgl/src/lv_widgets/../lv_core/lv_style.h ****  * GLOBAL PROTOTYPES
ARM GAS  D:\Temp\ccOOHxmt.s 			page 54


 260:lvgl/src/lv_widgets/../lv_core/lv_style.h ****  **********************/
 261:lvgl/src/lv_widgets/../lv_core/lv_style.h **** 
 262:lvgl/src/lv_widgets/../lv_core/lv_style.h **** /**
 263:lvgl/src/lv_widgets/../lv_core/lv_style.h ****  * Initialize a style
 264:lvgl/src/lv_widgets/../lv_core/lv_style.h ****  * @param style pointer to a style to initialize
 265:lvgl/src/lv_widgets/../lv_core/lv_style.h ****  */
 266:lvgl/src/lv_widgets/../lv_core/lv_style.h **** void lv_style_init(lv_style_t * style);
 267:lvgl/src/lv_widgets/../lv_core/lv_style.h **** 
 268:lvgl/src/lv_widgets/../lv_core/lv_style.h **** /**
 269:lvgl/src/lv_widgets/../lv_core/lv_style.h ****  * Copy a style with all its properties
 270:lvgl/src/lv_widgets/../lv_core/lv_style.h ****  * @param style_dest pointer to the destination style. (Should be initialized with `lv_style_init()
 271:lvgl/src/lv_widgets/../lv_core/lv_style.h ****  * @param style_src pointer to the source (to copy )style
 272:lvgl/src/lv_widgets/../lv_core/lv_style.h ****  */
 273:lvgl/src/lv_widgets/../lv_core/lv_style.h **** void lv_style_copy(lv_style_t * style_dest, const lv_style_t * style_src);
 274:lvgl/src/lv_widgets/../lv_core/lv_style.h **** 
 275:lvgl/src/lv_widgets/../lv_core/lv_style.h **** /**
 276:lvgl/src/lv_widgets/../lv_core/lv_style.h ****  * Initialize a style list
 277:lvgl/src/lv_widgets/../lv_core/lv_style.h ****  * @param list a style list to initialize
 278:lvgl/src/lv_widgets/../lv_core/lv_style.h ****  */
 279:lvgl/src/lv_widgets/../lv_core/lv_style.h **** void lv_style_list_init(lv_style_list_t * list);
 280:lvgl/src/lv_widgets/../lv_core/lv_style.h **** 
 281:lvgl/src/lv_widgets/../lv_core/lv_style.h **** /**
 282:lvgl/src/lv_widgets/../lv_core/lv_style.h ****  * Copy a style list with all its styles and local style properties
 283:lvgl/src/lv_widgets/../lv_core/lv_style.h ****  * @param list_dest pointer to the destination style list. (should be initialized with `lv_style_li
 284:lvgl/src/lv_widgets/../lv_core/lv_style.h ****  * @param list_src pointer to the source (to copy) style list.
 285:lvgl/src/lv_widgets/../lv_core/lv_style.h ****  */
 286:lvgl/src/lv_widgets/../lv_core/lv_style.h **** void lv_style_list_copy(lv_style_list_t * list_dest, const lv_style_list_t * list_src);
 287:lvgl/src/lv_widgets/../lv_core/lv_style.h **** 
 288:lvgl/src/lv_widgets/../lv_core/lv_style.h **** /**
 289:lvgl/src/lv_widgets/../lv_core/lv_style.h ****  * Add a style to a style list.
 290:lvgl/src/lv_widgets/../lv_core/lv_style.h ****  * Only the style pointer will be saved so the shouldn't be a local variable.
 291:lvgl/src/lv_widgets/../lv_core/lv_style.h ****  * (It should be static, global or dynamically allocated)
 292:lvgl/src/lv_widgets/../lv_core/lv_style.h ****  * @param list pointer to a style list
 293:lvgl/src/lv_widgets/../lv_core/lv_style.h ****  * @param style pointer to a style to add
 294:lvgl/src/lv_widgets/../lv_core/lv_style.h ****  */
 295:lvgl/src/lv_widgets/../lv_core/lv_style.h **** void _lv_style_list_add_style(lv_style_list_t * list, lv_style_t * style);
 296:lvgl/src/lv_widgets/../lv_core/lv_style.h **** 
 297:lvgl/src/lv_widgets/../lv_core/lv_style.h **** /**
 298:lvgl/src/lv_widgets/../lv_core/lv_style.h ****  * Remove a style from a style list
 299:lvgl/src/lv_widgets/../lv_core/lv_style.h ****  * @param style_list pointer to a style list
 300:lvgl/src/lv_widgets/../lv_core/lv_style.h ****  * @param style pointer to a style to remove
 301:lvgl/src/lv_widgets/../lv_core/lv_style.h ****  */
 302:lvgl/src/lv_widgets/../lv_core/lv_style.h **** void _lv_style_list_remove_style(lv_style_list_t * list, lv_style_t * style);
 303:lvgl/src/lv_widgets/../lv_core/lv_style.h **** 
 304:lvgl/src/lv_widgets/../lv_core/lv_style.h **** /**
 305:lvgl/src/lv_widgets/../lv_core/lv_style.h ****  * Remove all styles added from style list, clear the local style, transition style and free all al
 306:lvgl/src/lv_widgets/../lv_core/lv_style.h ****  * Leave `ignore_trans` flag as it is.
 307:lvgl/src/lv_widgets/../lv_core/lv_style.h ****  * @param list pointer to a style list.
 308:lvgl/src/lv_widgets/../lv_core/lv_style.h ****  */
 309:lvgl/src/lv_widgets/../lv_core/lv_style.h **** void _lv_style_list_reset(lv_style_list_t * style_list);
 310:lvgl/src/lv_widgets/../lv_core/lv_style.h **** 
 311:lvgl/src/lv_widgets/../lv_core/lv_style.h **** static inline lv_style_t * lv_style_list_get_style(lv_style_list_t * list, uint8_t id)
 1294              		.loc 3 311 28 is_stmt 1 discriminator 1 view .LVU355
 1295              	.LBB110:
 312:lvgl/src/lv_widgets/../lv_core/lv_style.h **** {
 313:lvgl/src/lv_widgets/../lv_core/lv_style.h ****     if(list->has_trans && list->skip_trans) id++;
 1296              		.loc 3 313 5 discriminator 1 view .LVU356
ARM GAS  D:\Temp\ccOOHxmt.s 			page 55


 1297              		.loc 3 313 24 is_stmt 0 discriminator 1 view .LVU357
 1298 0166 039B     		ldr	r3, [sp, #12]
 1299 0168 1B8B     		ldrh	r3, [r3, #24]
 1300 016a 03F4C073 		and	r3, r3, #384
 1301              		.loc 3 313 7 discriminator 1 view .LVU358
 1302 016e B3F5C07F 		cmp	r3, #384
 1303 0172 4AD0     		beq	.L65
 1304              		.loc 3 313 7 view .LVU359
 1305 0174 0022     		movs	r2, #0
 1306              	.L46:
 1307              	.LVL156:
 314:lvgl/src/lv_widgets/../lv_core/lv_style.h ****     if(list->style_cnt == 0 || id >= list->style_cnt) return NULL;
 1308              		.loc 3 314 5 is_stmt 1 view .LVU360
 1309              		.loc 3 314 24 is_stmt 0 view .LVU361
 1310 0176 0399     		ldr	r1, [sp, #12]
 1311 0178 0B7E     		ldrb	r3, [r1, #24]	@ zero_extendqisi2
 1312              		.loc 3 314 7 view .LVU362
 1313 017a 13F03F0F 		tst	r3, #63
 1314 017e CCD0     		beq	.L45
 1315              		.loc 3 314 42 view .LVU363
 1316 0180 0B7E     		ldrb	r3, [r1, #24]	@ zero_extendqisi2
 1317 0182 03F03F03 		and	r3, r3, #63
 1318              		.loc 3 314 29 view .LVU364
 1319 0186 9342     		cmp	r3, r2
 1320 0188 C7D9     		bls	.L45
 315:lvgl/src/lv_widgets/../lv_core/lv_style.h ****     return list->style_list[id];
 1321              		.loc 3 315 5 is_stmt 1 view .LVU365
 1322              		.loc 3 315 16 is_stmt 0 view .LVU366
 1323 018a 4B69     		ldr	r3, [r1, #20]
 1324              		.loc 3 315 28 view .LVU367
 1325 018c 53F82230 		ldr	r3, [r3, r2, lsl #2]
 1326              	.LVL157:
 1327              		.loc 3 315 28 view .LVU368
 1328              	.LBE110:
 1329              	.LBE109:
 934:lvgl/src/lv_widgets/lv_arc.c ****         lv_coord_t knob_extra_size = lv_obj_get_draw_rect_ext_pad_size(arc, LV_ARC_PART_KNOB);
 1330              		.loc 1 934 34 view .LVU369
 1331 0190 002B     		cmp	r3, #0
 1332 0192 C2D0     		beq	.L45
 1333              	.LBB112:
 935:lvgl/src/lv_widgets/lv_arc.c **** 
 1334              		.loc 1 935 9 is_stmt 1 view .LVU370
 935:lvgl/src/lv_widgets/lv_arc.c **** 
 1335              		.loc 1 935 38 is_stmt 0 view .LVU371
 1336 0194 0221     		movs	r1, #2
 1337 0196 0098     		ldr	r0, [sp]
 1338              	.LVL158:
 935:lvgl/src/lv_widgets/lv_arc.c **** 
 1339              		.loc 1 935 38 view .LVU372
 1340 0198 FFF7FEFF 		bl	lv_obj_get_draw_rect_ext_pad_size
 1341              	.LVL159:
 1342 019c 0190     		str	r0, [sp, #4]
 1343              	.LVL160:
 937:lvgl/src/lv_widgets/lv_arc.c ****         lv_coord_t knob_right = lv_obj_get_style_pad_right(arc, LV_ARC_PART_KNOB);
 1344              		.loc 1 937 9 is_stmt 1 view .LVU373
 1345              	.LBB113:
 1346              	.LBI113:
ARM GAS  D:\Temp\ccOOHxmt.s 			page 56


 112:lvgl/src/lv_widgets/../lv_core/lv_obj_style_dec.h **** _LV_OBJ_STYLE_SET_GET_DECLARE(PAD_RIGHT, pad_right, lv_style_int_t, _int, scalar)
 1347              		.loc 2 112 1 view .LVU374
 1348              	.LBB114:
 112:lvgl/src/lv_widgets/../lv_core/lv_obj_style_dec.h **** _LV_OBJ_STYLE_SET_GET_DECLARE(PAD_RIGHT, pad_right, lv_style_int_t, _int, scalar)
 1349              		.loc 2 112 1 view .LVU375
 1350 019e 1222     		movs	r2, #18
 1351 01a0 0221     		movs	r1, #2
 1352 01a2 0098     		ldr	r0, [sp]
 1353 01a4 FFF7FEFF 		bl	_lv_obj_get_style_int
 1354              	.LVL161:
 1355 01a8 0390     		str	r0, [sp, #12]
 1356              	.LVL162:
 112:lvgl/src/lv_widgets/../lv_core/lv_obj_style_dec.h **** _LV_OBJ_STYLE_SET_GET_DECLARE(PAD_RIGHT, pad_right, lv_style_int_t, _int, scalar)
 1357              		.loc 2 112 1 is_stmt 0 view .LVU376
 1358              	.LBE114:
 1359              	.LBE113:
 938:lvgl/src/lv_widgets/lv_arc.c ****         lv_coord_t knob_top = lv_obj_get_style_pad_top(arc, LV_ARC_PART_KNOB);
 1360              		.loc 1 938 9 is_stmt 1 view .LVU377
 1361              	.LBB115:
 1362              	.LBI115:
 113:lvgl/src/lv_widgets/../lv_core/lv_obj_style_dec.h **** _LV_OBJ_STYLE_SET_GET_DECLARE(PAD_INNER, pad_inner, lv_style_int_t, _int, scalar)
 1363              		.loc 2 113 1 view .LVU378
 1364              	.LBB116:
 113:lvgl/src/lv_widgets/../lv_core/lv_obj_style_dec.h **** _LV_OBJ_STYLE_SET_GET_DECLARE(PAD_INNER, pad_inner, lv_style_int_t, _int, scalar)
 1365              		.loc 2 113 1 view .LVU379
 1366 01aa 1322     		movs	r2, #19
 1367 01ac 0221     		movs	r1, #2
 1368 01ae 0098     		ldr	r0, [sp]
 1369 01b0 FFF7FEFF 		bl	_lv_obj_get_style_int
 1370              	.LVL163:
 1371 01b4 0690     		str	r0, [sp, #24]
 1372              	.LVL164:
 113:lvgl/src/lv_widgets/../lv_core/lv_obj_style_dec.h **** _LV_OBJ_STYLE_SET_GET_DECLARE(PAD_INNER, pad_inner, lv_style_int_t, _int, scalar)
 1373              		.loc 2 113 1 is_stmt 0 view .LVU380
 1374              	.LBE116:
 1375              	.LBE115:
 939:lvgl/src/lv_widgets/lv_arc.c ****         lv_coord_t knob_bottom = lv_obj_get_style_pad_bottom(arc, LV_ARC_PART_KNOB);
 1376              		.loc 1 939 9 is_stmt 1 view .LVU381
 1377              	.LBB117:
 1378              	.LBI117:
 110:lvgl/src/lv_widgets/../lv_core/lv_obj_style_dec.h **** _LV_OBJ_STYLE_SET_GET_DECLARE(PAD_BOTTOM, pad_bottom, lv_style_int_t, _int, scalar)
 1379              		.loc 2 110 1 view .LVU382
 1380              	.LBB118:
 110:lvgl/src/lv_widgets/../lv_core/lv_obj_style_dec.h **** _LV_OBJ_STYLE_SET_GET_DECLARE(PAD_BOTTOM, pad_bottom, lv_style_int_t, _int, scalar)
 1381              		.loc 2 110 1 view .LVU383
 1382 01b6 1022     		movs	r2, #16
 1383 01b8 0221     		movs	r1, #2
 1384 01ba 0098     		ldr	r0, [sp]
 1385 01bc FFF7FEFF 		bl	_lv_obj_get_style_int
 1386              	.LVL165:
 1387 01c0 0790     		str	r0, [sp, #28]
 1388              	.LVL166:
 110:lvgl/src/lv_widgets/../lv_core/lv_obj_style_dec.h **** _LV_OBJ_STYLE_SET_GET_DECLARE(PAD_BOTTOM, pad_bottom, lv_style_int_t, _int, scalar)
 1389              		.loc 2 110 1 is_stmt 0 view .LVU384
 1390              	.LBE118:
 1391              	.LBE117:
 940:lvgl/src/lv_widgets/lv_arc.c **** 
ARM GAS  D:\Temp\ccOOHxmt.s 			page 57


 1392              		.loc 1 940 9 is_stmt 1 view .LVU385
 1393              	.LBB119:
 1394              	.LBI119:
 111:lvgl/src/lv_widgets/../lv_core/lv_obj_style_dec.h **** _LV_OBJ_STYLE_SET_GET_DECLARE(PAD_LEFT, pad_left, lv_style_int_t, _int, scalar)
 1395              		.loc 2 111 1 view .LVU386
 1396              	.LBB120:
 111:lvgl/src/lv_widgets/../lv_core/lv_obj_style_dec.h **** _LV_OBJ_STYLE_SET_GET_DECLARE(PAD_LEFT, pad_left, lv_style_int_t, _int, scalar)
 1397              		.loc 2 111 1 view .LVU387
 1398 01c2 1122     		movs	r2, #17
 1399 01c4 0221     		movs	r1, #2
 1400 01c6 0098     		ldr	r0, [sp]
 1401 01c8 FFF7FEFF 		bl	_lv_obj_get_style_int
 1402              	.LVL167:
 111:lvgl/src/lv_widgets/../lv_core/lv_obj_style_dec.h **** _LV_OBJ_STYLE_SET_GET_DECLARE(PAD_LEFT, pad_left, lv_style_int_t, _int, scalar)
 1403              		.loc 2 111 1 is_stmt 0 view .LVU388
 1404              	.LBE120:
 1405              	.LBE119:
 942:lvgl/src/lv_widgets/lv_arc.c **** 
 1406              		.loc 1 942 9 is_stmt 1 view .LVU389
 942:lvgl/src/lv_widgets/lv_arc.c **** 
 1407              		.loc 1 942 28 is_stmt 0 view .LVU390
 1408 01cc 079B     		ldr	r3, [sp, #28]
 1409 01ce 9842     		cmp	r0, r3
 1410 01d0 B8BF     		it	lt
 1411 01d2 1846     		movlt	r0, r3
 1412              	.LVL168:
 942:lvgl/src/lv_widgets/lv_arc.c **** 
 1413              		.loc 1 942 28 view .LVU391
 1414 01d4 02B2     		sxth	r2, r0
 1415 01d6 069B     		ldr	r3, [sp, #24]
 1416 01d8 0399     		ldr	r1, [sp, #12]
 1417 01da 8B42     		cmp	r3, r1
 1418 01dc B8BF     		it	lt
 1419 01de 0B46     		movlt	r3, r1
 1420 01e0 1BB2     		sxth	r3, r3
 1421 01e2 9A42     		cmp	r2, r3
 1422 01e4 B8BF     		it	lt
 1423 01e6 1A46     		movlt	r2, r3
 942:lvgl/src/lv_widgets/lv_arc.c **** 
 1424              		.loc 1 942 25 view .LVU392
 1425 01e8 019B     		ldr	r3, [sp, #4]
 1426 01ea 13FA82F2 		uxtah	r2, r3, r2
 1427              	.LVL169:
 944:lvgl/src/lv_widgets/lv_arc.c **** 
 1428              		.loc 1 944 9 is_stmt 1 view .LVU393
 944:lvgl/src/lv_widgets/lv_arc.c **** 
 1429              		.loc 1 944 22 is_stmt 0 view .LVU394
 1430 01ee 07EBD777 		add	r7, r7, r7, lsr #31
 1431              	.LVL170:
 944:lvgl/src/lv_widgets/lv_arc.c **** 
 1432              		.loc 1 944 22 view .LVU395
 1433 01f2 47F34F03 		sbfx	r3, r7, #1, #16
 1434 01f6 0233     		adds	r3, r3, #2
 1435 01f8 03FA82F7 		sxtah	r7, r3, r2
 1436 01fc 049B     		ldr	r3, [sp, #16]
 1437 01fe BB42     		cmp	r3, r7
 1438 0200 B8BF     		it	lt
ARM GAS  D:\Temp\ccOOHxmt.s 			page 58


 1439 0202 3B46     		movlt	r3, r7
 944:lvgl/src/lv_widgets/lv_arc.c **** 
 1440              		.loc 1 944 20 view .LVU396
 1441 0204 1BB2     		sxth	r3, r3
 1442 0206 0493     		str	r3, [sp, #16]
 1443              	.LVL171:
 944:lvgl/src/lv_widgets/lv_arc.c **** 
 1444              		.loc 1 944 20 view .LVU397
 1445 0208 87E7     		b	.L45
 1446              	.LVL172:
 1447              	.L65:
 944:lvgl/src/lv_widgets/lv_arc.c **** 
 1448              		.loc 1 944 20 view .LVU398
 1449              	.LBE112:
 1450              	.LBB121:
 1451              	.LBB111:
 313:lvgl/src/lv_widgets/../lv_core/lv_style.h ****     if(list->style_cnt == 0 || id >= list->style_cnt) return NULL;
 1452              		.loc 3 313 47 view .LVU399
 1453 020a 0122     		movs	r2, #1
 1454 020c B3E7     		b	.L46
 1455              	.LVL173:
 1456              	.L69:
 313:lvgl/src/lv_widgets/../lv_core/lv_style.h ****     if(list->style_cnt == 0 || id >= list->style_cnt) return NULL;
 1457              		.loc 3 313 47 view .LVU400
 1458              	.LBE111:
 1459              	.LBE121:
 950:lvgl/src/lv_widgets/lv_arc.c ****         if(start_quarter == 0) {
 1460              		.loc 1 950 37 discriminator 1 view .LVU401
 1461 020e A945     		cmp	r9, r5
 1462 0210 86D8     		bhi	.L47
 951:lvgl/src/lv_widgets/lv_arc.c ****             inv_area.y1 = y + ((_lv_trigo_sin(start_angle) * rin) >> LV_TRIGO_SHIFT) - extra_area;
 1463              		.loc 1 951 9 is_stmt 1 view .LVU402
 951:lvgl/src/lv_widgets/lv_arc.c ****             inv_area.y1 = y + ((_lv_trigo_sin(start_angle) * rin) >> LV_TRIGO_SHIFT) - extra_area;
 1464              		.loc 1 951 11 is_stmt 0 view .LVU403
 1465 0212 002C     		cmp	r4, #0
 1466 0214 41D0     		beq	.L74
 960:lvgl/src/lv_widgets/lv_arc.c ****             inv_area.y2 = y + ((_lv_trigo_sin(start_angle) * rout) >> LV_TRIGO_SHIFT) + extra_area;
 1467              		.loc 1 960 14 is_stmt 1 view .LVU404
 960:lvgl/src/lv_widgets/lv_arc.c ****             inv_area.y2 = y + ((_lv_trigo_sin(start_angle) * rout) >> LV_TRIGO_SHIFT) + extra_area;
 1468              		.loc 1 960 16 is_stmt 0 view .LVU405
 1469 0216 012C     		cmp	r4, #1
 1470 0218 7ED0     		beq	.L75
 969:lvgl/src/lv_widgets/lv_arc.c ****             inv_area.x1 = x + ((_lv_trigo_sin(start_angle + 90) * rout) >> LV_TRIGO_SHIFT) - extra_
 1471              		.loc 1 969 14 is_stmt 1 view .LVU406
 969:lvgl/src/lv_widgets/lv_arc.c ****             inv_area.x1 = x + ((_lv_trigo_sin(start_angle + 90) * rout) >> LV_TRIGO_SHIFT) - extra_
 1472              		.loc 1 969 16 is_stmt 0 view .LVU407
 1473 021a 022C     		cmp	r4, #2
 1474 021c 00F0B680 		beq	.L76
 978:lvgl/src/lv_widgets/lv_arc.c ****             /*Small arc here*/
 1475              		.loc 1 978 14 is_stmt 1 view .LVU408
 978:lvgl/src/lv_widgets/lv_arc.c ****             /*Small arc here*/
 1476              		.loc 1 978 16 is_stmt 0 view .LVU409
 1477 0220 032C     		cmp	r4, #3
 1478 0222 7FF4F8AE 		bne	.L37
 980:lvgl/src/lv_widgets/lv_arc.c ****             inv_area.y1 = y + ((_lv_trigo_sin(start_angle) * rout) >> LV_TRIGO_SHIFT) - extra_area;
 1479              		.loc 1 980 13 is_stmt 1 view .LVU410
 980:lvgl/src/lv_widgets/lv_arc.c ****             inv_area.y1 = y + ((_lv_trigo_sin(start_angle) * rout) >> LV_TRIGO_SHIFT) - extra_area;
ARM GAS  D:\Temp\ccOOHxmt.s 			page 59


 1480              		.loc 1 980 59 is_stmt 0 view .LVU411
 1481 0226 09F15A00 		add	r0, r9, #90
 980:lvgl/src/lv_widgets/lv_arc.c ****             inv_area.y1 = y + ((_lv_trigo_sin(start_angle) * rout) >> LV_TRIGO_SHIFT) - extra_area;
 1482              		.loc 1 980 33 view .LVU412
 1483 022a 00B2     		sxth	r0, r0
 1484 022c FFF7FEFF 		bl	_lv_trigo_sin
 1485              	.LVL174:
 980:lvgl/src/lv_widgets/lv_arc.c ****             inv_area.y1 = y + ((_lv_trigo_sin(start_angle) * rout) >> LV_TRIGO_SHIFT) - extra_area;
 1486              		.loc 1 980 65 view .LVU413
 1487 0230 059C     		ldr	r4, [sp, #20]
 1488              	.LVL175:
 980:lvgl/src/lv_widgets/lv_arc.c ****             inv_area.y1 = y + ((_lv_trigo_sin(start_angle) * rout) >> LV_TRIGO_SHIFT) - extra_area;
 1489              		.loc 1 980 65 view .LVU414
 1490 0232 2346     		mov	r3, r4
 1491 0234 03FB00F3 		mul	r3, r3, r0
 980:lvgl/src/lv_widgets/lv_arc.c ****             inv_area.y1 = y + ((_lv_trigo_sin(start_angle) * rout) >> LV_TRIGO_SHIFT) - extra_area;
 1492              		.loc 1 980 29 view .LVU415
 1493 0238 0BEBE333 		add	r3, fp, r3, asr #15
 1494 023c 9BB2     		uxth	r3, r3
 980:lvgl/src/lv_widgets/lv_arc.c ****             inv_area.y1 = y + ((_lv_trigo_sin(start_angle) * rout) >> LV_TRIGO_SHIFT) - extra_area;
 1495              		.loc 1 980 91 view .LVU416
 1496 023e BDF81070 		ldrh	r7, [sp, #16]
 1497 0242 DB1B     		subs	r3, r3, r7
 980:lvgl/src/lv_widgets/lv_arc.c ****             inv_area.y1 = y + ((_lv_trigo_sin(start_angle) * rout) >> LV_TRIGO_SHIFT) - extra_area;
 1498              		.loc 1 980 25 view .LVU417
 1499 0244 ADF82030 		strh	r3, [sp, #32]	@ movhi
 981:lvgl/src/lv_widgets/lv_arc.c **** 
 1500              		.loc 1 981 13 is_stmt 1 view .LVU418
 981:lvgl/src/lv_widgets/lv_arc.c **** 
 1501              		.loc 1 981 33 is_stmt 0 view .LVU419
 1502 0248 0FFA89F0 		sxth	r0, r9
 1503 024c FFF7FEFF 		bl	_lv_trigo_sin
 1504              	.LVL176:
 981:lvgl/src/lv_widgets/lv_arc.c **** 
 1505              		.loc 1 981 60 view .LVU420
 1506 0250 0AFB00F3 		mul	r3, r10, r0
 981:lvgl/src/lv_widgets/lv_arc.c **** 
 1507              		.loc 1 981 29 view .LVU421
 1508 0254 08EBE333 		add	r3, r8, r3, asr #15
 1509 0258 9BB2     		uxth	r3, r3
 981:lvgl/src/lv_widgets/lv_arc.c **** 
 1510              		.loc 1 981 87 view .LVU422
 1511 025a DB1B     		subs	r3, r3, r7
 981:lvgl/src/lv_widgets/lv_arc.c **** 
 1512              		.loc 1 981 25 view .LVU423
 1513 025c ADF82230 		strh	r3, [sp, #34]	@ movhi
 983:lvgl/src/lv_widgets/lv_arc.c ****             inv_area.y2 = y + ((_lv_trigo_sin(end_angle) * rin) >> LV_TRIGO_SHIFT) + extra_area;
 1514              		.loc 1 983 13 is_stmt 1 view .LVU424
 983:lvgl/src/lv_widgets/lv_arc.c ****             inv_area.y2 = y + ((_lv_trigo_sin(end_angle) * rin) >> LV_TRIGO_SHIFT) + extra_area;
 1515              		.loc 1 983 57 is_stmt 0 view .LVU425
 1516 0260 05F15A00 		add	r0, r5, #90
 983:lvgl/src/lv_widgets/lv_arc.c ****             inv_area.y2 = y + ((_lv_trigo_sin(end_angle) * rin) >> LV_TRIGO_SHIFT) + extra_area;
 1517              		.loc 1 983 33 view .LVU426
 1518 0264 00B2     		sxth	r0, r0
 1519 0266 FFF7FEFF 		bl	_lv_trigo_sin
 1520              	.LVL177:
 983:lvgl/src/lv_widgets/lv_arc.c ****             inv_area.y2 = y + ((_lv_trigo_sin(end_angle) * rin) >> LV_TRIGO_SHIFT) + extra_area;
ARM GAS  D:\Temp\ccOOHxmt.s 			page 60


 1521              		.loc 1 983 63 view .LVU427
 1522 026a 00FB0AF3 		mul	r3, r0, r10
 983:lvgl/src/lv_widgets/lv_arc.c ****             inv_area.y2 = y + ((_lv_trigo_sin(end_angle) * rin) >> LV_TRIGO_SHIFT) + extra_area;
 1523              		.loc 1 983 29 view .LVU428
 1524 026e 0BEBE333 		add	r3, fp, r3, asr #15
 983:lvgl/src/lv_widgets/lv_arc.c ****             inv_area.y2 = y + ((_lv_trigo_sin(end_angle) * rin) >> LV_TRIGO_SHIFT) + extra_area;
 1525              		.loc 1 983 90 view .LVU429
 1526 0272 17FA83F3 		uxtah	r3, r7, r3
 983:lvgl/src/lv_widgets/lv_arc.c ****             inv_area.y2 = y + ((_lv_trigo_sin(end_angle) * rin) >> LV_TRIGO_SHIFT) + extra_area;
 1527              		.loc 1 983 25 view .LVU430
 1528 0276 ADF82430 		strh	r3, [sp, #36]	@ movhi
 984:lvgl/src/lv_widgets/lv_arc.c **** 
 1529              		.loc 1 984 13 is_stmt 1 view .LVU431
 984:lvgl/src/lv_widgets/lv_arc.c **** 
 1530              		.loc 1 984 33 is_stmt 0 view .LVU432
 1531 027a 28B2     		sxth	r0, r5
 1532 027c FFF7FEFF 		bl	_lv_trigo_sin
 1533              	.LVL178:
 984:lvgl/src/lv_widgets/lv_arc.c **** 
 1534              		.loc 1 984 58 view .LVU433
 1535 0280 00FB04F3 		mul	r3, r0, r4
 984:lvgl/src/lv_widgets/lv_arc.c **** 
 1536              		.loc 1 984 29 view .LVU434
 1537 0284 08EBE333 		add	r3, r8, r3, asr #15
 984:lvgl/src/lv_widgets/lv_arc.c **** 
 1538              		.loc 1 984 84 view .LVU435
 1539 0288 17FA83F7 		uxtah	r7, r7, r3
 984:lvgl/src/lv_widgets/lv_arc.c **** 
 1540              		.loc 1 984 25 view .LVU436
 1541 028c ADF82670 		strh	r7, [sp, #38]	@ movhi
 986:lvgl/src/lv_widgets/lv_arc.c ****         }
 1542              		.loc 1 986 13 is_stmt 1 view .LVU437
 1543 0290 08A9     		add	r1, sp, #32
 1544 0292 0098     		ldr	r0, [sp]
 1545 0294 FFF7FEFF 		bl	lv_obj_invalidate_area
 1546              	.LVL179:
 1547 0298 BDE6     		b	.L37
 1548              	.LVL180:
 1549              	.L74:
 952:lvgl/src/lv_widgets/lv_arc.c ****             inv_area.x2 = x + ((_lv_trigo_sin(start_angle + 90) * rout) >> LV_TRIGO_SHIFT) + extra_
 1550              		.loc 1 952 13 view .LVU438
 952:lvgl/src/lv_widgets/lv_arc.c ****             inv_area.x2 = x + ((_lv_trigo_sin(start_angle + 90) * rout) >> LV_TRIGO_SHIFT) + extra_
 1551              		.loc 1 952 33 is_stmt 0 view .LVU439
 1552 029a 0FFA89F0 		sxth	r0, r9
 1553 029e FFF7FEFF 		bl	_lv_trigo_sin
 1554              	.LVL181:
 952:lvgl/src/lv_widgets/lv_arc.c ****             inv_area.x2 = x + ((_lv_trigo_sin(start_angle + 90) * rout) >> LV_TRIGO_SHIFT) + extra_
 1555              		.loc 1 952 60 view .LVU440
 1556 02a2 059C     		ldr	r4, [sp, #20]
 1557              	.LVL182:
 952:lvgl/src/lv_widgets/lv_arc.c ****             inv_area.x2 = x + ((_lv_trigo_sin(start_angle + 90) * rout) >> LV_TRIGO_SHIFT) + extra_
 1558              		.loc 1 952 60 view .LVU441
 1559 02a4 2346     		mov	r3, r4
 1560 02a6 03FB00F3 		mul	r3, r3, r0
 952:lvgl/src/lv_widgets/lv_arc.c ****             inv_area.x2 = x + ((_lv_trigo_sin(start_angle + 90) * rout) >> LV_TRIGO_SHIFT) + extra_
 1561              		.loc 1 952 29 view .LVU442
 1562 02aa 08EBE333 		add	r3, r8, r3, asr #15
ARM GAS  D:\Temp\ccOOHxmt.s 			page 61


 1563 02ae 9BB2     		uxth	r3, r3
 952:lvgl/src/lv_widgets/lv_arc.c ****             inv_area.x2 = x + ((_lv_trigo_sin(start_angle + 90) * rout) >> LV_TRIGO_SHIFT) + extra_
 1564              		.loc 1 952 86 view .LVU443
 1565 02b0 BDF81070 		ldrh	r7, [sp, #16]
 1566 02b4 DB1B     		subs	r3, r3, r7
 952:lvgl/src/lv_widgets/lv_arc.c ****             inv_area.x2 = x + ((_lv_trigo_sin(start_angle + 90) * rout) >> LV_TRIGO_SHIFT) + extra_
 1567              		.loc 1 952 25 view .LVU444
 1568 02b6 ADF82230 		strh	r3, [sp, #34]	@ movhi
 953:lvgl/src/lv_widgets/lv_arc.c **** 
 1569              		.loc 1 953 13 is_stmt 1 view .LVU445
 953:lvgl/src/lv_widgets/lv_arc.c **** 
 1570              		.loc 1 953 59 is_stmt 0 view .LVU446
 1571 02ba 09F15A00 		add	r0, r9, #90
 953:lvgl/src/lv_widgets/lv_arc.c **** 
 1572              		.loc 1 953 33 view .LVU447
 1573 02be 00B2     		sxth	r0, r0
 1574 02c0 FFF7FEFF 		bl	_lv_trigo_sin
 1575              	.LVL183:
 953:lvgl/src/lv_widgets/lv_arc.c **** 
 1576              		.loc 1 953 65 view .LVU448
 1577 02c4 0AFB00F3 		mul	r3, r10, r0
 953:lvgl/src/lv_widgets/lv_arc.c **** 
 1578              		.loc 1 953 29 view .LVU449
 1579 02c8 0BEBE333 		add	r3, fp, r3, asr #15
 953:lvgl/src/lv_widgets/lv_arc.c **** 
 1580              		.loc 1 953 92 view .LVU450
 1581 02cc 17FA83F3 		uxtah	r3, r7, r3
 953:lvgl/src/lv_widgets/lv_arc.c **** 
 1582              		.loc 1 953 25 view .LVU451
 1583 02d0 ADF82430 		strh	r3, [sp, #36]	@ movhi
 955:lvgl/src/lv_widgets/lv_arc.c ****             inv_area.x1 = x + ((_lv_trigo_sin(end_angle + 90) * rin) >> LV_TRIGO_SHIFT) - extra_are
 1584              		.loc 1 955 13 is_stmt 1 view .LVU452
 955:lvgl/src/lv_widgets/lv_arc.c ****             inv_area.x1 = x + ((_lv_trigo_sin(end_angle + 90) * rin) >> LV_TRIGO_SHIFT) - extra_are
 1585              		.loc 1 955 33 is_stmt 0 view .LVU453
 1586 02d4 28B2     		sxth	r0, r5
 1587 02d6 FFF7FEFF 		bl	_lv_trigo_sin
 1588              	.LVL184:
 955:lvgl/src/lv_widgets/lv_arc.c ****             inv_area.x1 = x + ((_lv_trigo_sin(end_angle + 90) * rin) >> LV_TRIGO_SHIFT) - extra_are
 1589              		.loc 1 955 58 view .LVU454
 1590 02da 00FB0AF3 		mul	r3, r0, r10
 955:lvgl/src/lv_widgets/lv_arc.c ****             inv_area.x1 = x + ((_lv_trigo_sin(end_angle + 90) * rin) >> LV_TRIGO_SHIFT) - extra_are
 1591              		.loc 1 955 29 view .LVU455
 1592 02de 08EBE333 		add	r3, r8, r3, asr #15
 955:lvgl/src/lv_widgets/lv_arc.c ****             inv_area.x1 = x + ((_lv_trigo_sin(end_angle + 90) * rin) >> LV_TRIGO_SHIFT) - extra_are
 1593              		.loc 1 955 85 view .LVU456
 1594 02e2 17FA83F3 		uxtah	r3, r7, r3
 955:lvgl/src/lv_widgets/lv_arc.c ****             inv_area.x1 = x + ((_lv_trigo_sin(end_angle + 90) * rin) >> LV_TRIGO_SHIFT) - extra_are
 1595              		.loc 1 955 25 view .LVU457
 1596 02e6 ADF82630 		strh	r3, [sp, #38]	@ movhi
 956:lvgl/src/lv_widgets/lv_arc.c **** 
 1597              		.loc 1 956 13 is_stmt 1 view .LVU458
 956:lvgl/src/lv_widgets/lv_arc.c **** 
 1598              		.loc 1 956 57 is_stmt 0 view .LVU459
 1599 02ea 05F15A00 		add	r0, r5, #90
 956:lvgl/src/lv_widgets/lv_arc.c **** 
 1600              		.loc 1 956 33 view .LVU460
 1601 02ee 00B2     		sxth	r0, r0
ARM GAS  D:\Temp\ccOOHxmt.s 			page 62


 1602 02f0 FFF7FEFF 		bl	_lv_trigo_sin
 1603              	.LVL185:
 956:lvgl/src/lv_widgets/lv_arc.c **** 
 1604              		.loc 1 956 63 view .LVU461
 1605 02f4 00FB04F0 		mul	r0, r0, r4
 956:lvgl/src/lv_widgets/lv_arc.c **** 
 1606              		.loc 1 956 29 view .LVU462
 1607 02f8 0BEBE03B 		add	fp, fp, r0, asr #15
 1608              	.LVL186:
 956:lvgl/src/lv_widgets/lv_arc.c **** 
 1609              		.loc 1 956 29 view .LVU463
 1610 02fc 1FFA8BFB 		uxth	fp, fp
 956:lvgl/src/lv_widgets/lv_arc.c **** 
 1611              		.loc 1 956 89 view .LVU464
 1612 0300 ABEB0707 		sub	r7, fp, r7
 956:lvgl/src/lv_widgets/lv_arc.c **** 
 1613              		.loc 1 956 25 view .LVU465
 1614 0304 ADF82070 		strh	r7, [sp, #32]	@ movhi
 958:lvgl/src/lv_widgets/lv_arc.c ****         }
 1615              		.loc 1 958 13 is_stmt 1 view .LVU466
 1616 0308 08A9     		add	r1, sp, #32
 1617 030a 0098     		ldr	r0, [sp]
 1618 030c FFF7FEFF 		bl	lv_obj_invalidate_area
 1619              	.LVL187:
 1620 0310 81E6     		b	.L37
 1621              	.L78:
 1622 0312 00BF     		.align	2
 1623              	.L77:
 1624 0314 B7600BB6 		.word	-1240768329
 1625              	.LVL188:
 1626              	.L75:
 961:lvgl/src/lv_widgets/lv_arc.c ****             inv_area.x2 = x + ((_lv_trigo_sin(start_angle + 90) * rin) >> LV_TRIGO_SHIFT) + extra_a
 1627              		.loc 1 961 13 view .LVU467
 961:lvgl/src/lv_widgets/lv_arc.c ****             inv_area.x2 = x + ((_lv_trigo_sin(start_angle + 90) * rin) >> LV_TRIGO_SHIFT) + extra_a
 1628              		.loc 1 961 33 is_stmt 0 view .LVU468
 1629 0318 0FFA89F0 		sxth	r0, r9
 1630 031c FFF7FEFF 		bl	_lv_trigo_sin
 1631              	.LVL189:
 961:lvgl/src/lv_widgets/lv_arc.c ****             inv_area.x2 = x + ((_lv_trigo_sin(start_angle + 90) * rin) >> LV_TRIGO_SHIFT) + extra_a
 1632              		.loc 1 961 60 view .LVU469
 1633 0320 0AFB00F3 		mul	r3, r10, r0
 961:lvgl/src/lv_widgets/lv_arc.c ****             inv_area.x2 = x + ((_lv_trigo_sin(start_angle + 90) * rin) >> LV_TRIGO_SHIFT) + extra_a
 1634              		.loc 1 961 29 view .LVU470
 1635 0324 08EBE333 		add	r3, r8, r3, asr #15
 961:lvgl/src/lv_widgets/lv_arc.c ****             inv_area.x2 = x + ((_lv_trigo_sin(start_angle + 90) * rin) >> LV_TRIGO_SHIFT) + extra_a
 1636              		.loc 1 961 87 view .LVU471
 1637 0328 BDF81070 		ldrh	r7, [sp, #16]
 1638 032c 17FA83F3 		uxtah	r3, r7, r3
 961:lvgl/src/lv_widgets/lv_arc.c ****             inv_area.x2 = x + ((_lv_trigo_sin(start_angle + 90) * rin) >> LV_TRIGO_SHIFT) + extra_a
 1639              		.loc 1 961 25 view .LVU472
 1640 0330 ADF82630 		strh	r3, [sp, #38]	@ movhi
 962:lvgl/src/lv_widgets/lv_arc.c **** 
 1641              		.loc 1 962 13 is_stmt 1 view .LVU473
 962:lvgl/src/lv_widgets/lv_arc.c **** 
 1642              		.loc 1 962 59 is_stmt 0 view .LVU474
 1643 0334 09F15A00 		add	r0, r9, #90
 962:lvgl/src/lv_widgets/lv_arc.c **** 
ARM GAS  D:\Temp\ccOOHxmt.s 			page 63


 1644              		.loc 1 962 33 view .LVU475
 1645 0338 00B2     		sxth	r0, r0
 1646 033a FFF7FEFF 		bl	_lv_trigo_sin
 1647              	.LVL190:
 962:lvgl/src/lv_widgets/lv_arc.c **** 
 1648              		.loc 1 962 65 view .LVU476
 1649 033e 059C     		ldr	r4, [sp, #20]
 1650              	.LVL191:
 962:lvgl/src/lv_widgets/lv_arc.c **** 
 1651              		.loc 1 962 65 view .LVU477
 1652 0340 2346     		mov	r3, r4
 1653 0342 03FB00F3 		mul	r3, r3, r0
 962:lvgl/src/lv_widgets/lv_arc.c **** 
 1654              		.loc 1 962 29 view .LVU478
 1655 0346 0BEBE333 		add	r3, fp, r3, asr #15
 962:lvgl/src/lv_widgets/lv_arc.c **** 
 1656              		.loc 1 962 91 view .LVU479
 1657 034a 17FA83F3 		uxtah	r3, r7, r3
 962:lvgl/src/lv_widgets/lv_arc.c **** 
 1658              		.loc 1 962 25 view .LVU480
 1659 034e ADF82430 		strh	r3, [sp, #36]	@ movhi
 964:lvgl/src/lv_widgets/lv_arc.c ****             inv_area.x1 = x + ((_lv_trigo_sin(end_angle + 90) * rout) >> LV_TRIGO_SHIFT) - extra_ar
 1660              		.loc 1 964 13 is_stmt 1 view .LVU481
 964:lvgl/src/lv_widgets/lv_arc.c ****             inv_area.x1 = x + ((_lv_trigo_sin(end_angle + 90) * rout) >> LV_TRIGO_SHIFT) - extra_ar
 1661              		.loc 1 964 33 is_stmt 0 view .LVU482
 1662 0352 28B2     		sxth	r0, r5
 1663 0354 FFF7FEFF 		bl	_lv_trigo_sin
 1664              	.LVL192:
 964:lvgl/src/lv_widgets/lv_arc.c ****             inv_area.x1 = x + ((_lv_trigo_sin(end_angle + 90) * rout) >> LV_TRIGO_SHIFT) - extra_ar
 1665              		.loc 1 964 58 view .LVU483
 1666 0358 00FB04F3 		mul	r3, r0, r4
 964:lvgl/src/lv_widgets/lv_arc.c ****             inv_area.x1 = x + ((_lv_trigo_sin(end_angle + 90) * rout) >> LV_TRIGO_SHIFT) - extra_ar
 1667              		.loc 1 964 29 view .LVU484
 1668 035c 08EBE333 		add	r3, r8, r3, asr #15
 1669 0360 9BB2     		uxth	r3, r3
 964:lvgl/src/lv_widgets/lv_arc.c ****             inv_area.x1 = x + ((_lv_trigo_sin(end_angle + 90) * rout) >> LV_TRIGO_SHIFT) - extra_ar
 1670              		.loc 1 964 84 view .LVU485
 1671 0362 DB1B     		subs	r3, r3, r7
 964:lvgl/src/lv_widgets/lv_arc.c ****             inv_area.x1 = x + ((_lv_trigo_sin(end_angle + 90) * rout) >> LV_TRIGO_SHIFT) - extra_ar
 1672              		.loc 1 964 25 view .LVU486
 1673 0364 ADF82230 		strh	r3, [sp, #34]	@ movhi
 965:lvgl/src/lv_widgets/lv_arc.c **** 
 1674              		.loc 1 965 13 is_stmt 1 view .LVU487
 965:lvgl/src/lv_widgets/lv_arc.c **** 
 1675              		.loc 1 965 57 is_stmt 0 view .LVU488
 1676 0368 05F15A00 		add	r0, r5, #90
 965:lvgl/src/lv_widgets/lv_arc.c **** 
 1677              		.loc 1 965 33 view .LVU489
 1678 036c 00B2     		sxth	r0, r0
 1679 036e FFF7FEFF 		bl	_lv_trigo_sin
 1680              	.LVL193:
 965:lvgl/src/lv_widgets/lv_arc.c **** 
 1681              		.loc 1 965 63 view .LVU490
 1682 0372 00FB0AF3 		mul	r3, r0, r10
 965:lvgl/src/lv_widgets/lv_arc.c **** 
 1683              		.loc 1 965 29 view .LVU491
 1684 0376 0BEBE333 		add	r3, fp, r3, asr #15
ARM GAS  D:\Temp\ccOOHxmt.s 			page 64


 1685 037a 9BB2     		uxth	r3, r3
 965:lvgl/src/lv_widgets/lv_arc.c **** 
 1686              		.loc 1 965 90 view .LVU492
 1687 037c DB1B     		subs	r3, r3, r7
 965:lvgl/src/lv_widgets/lv_arc.c **** 
 1688              		.loc 1 965 25 view .LVU493
 1689 037e ADF82030 		strh	r3, [sp, #32]	@ movhi
 967:lvgl/src/lv_widgets/lv_arc.c ****         }
 1690              		.loc 1 967 13 is_stmt 1 view .LVU494
 1691 0382 08A9     		add	r1, sp, #32
 1692 0384 0098     		ldr	r0, [sp]
 1693 0386 FFF7FEFF 		bl	lv_obj_invalidate_area
 1694              	.LVL194:
 1695 038a 44E6     		b	.L37
 1696              	.LVL195:
 1697              	.L76:
 970:lvgl/src/lv_widgets/lv_arc.c ****             inv_area.y2 = y + ((_lv_trigo_sin(start_angle) * rin) >> LV_TRIGO_SHIFT) + extra_area;
 1698              		.loc 1 970 13 view .LVU495
 970:lvgl/src/lv_widgets/lv_arc.c ****             inv_area.y2 = y + ((_lv_trigo_sin(start_angle) * rin) >> LV_TRIGO_SHIFT) + extra_area;
 1699              		.loc 1 970 59 is_stmt 0 view .LVU496
 1700 038c 09F15A00 		add	r0, r9, #90
 970:lvgl/src/lv_widgets/lv_arc.c ****             inv_area.y2 = y + ((_lv_trigo_sin(start_angle) * rin) >> LV_TRIGO_SHIFT) + extra_area;
 1701              		.loc 1 970 33 view .LVU497
 1702 0390 00B2     		sxth	r0, r0
 1703 0392 FFF7FEFF 		bl	_lv_trigo_sin
 1704              	.LVL196:
 970:lvgl/src/lv_widgets/lv_arc.c ****             inv_area.y2 = y + ((_lv_trigo_sin(start_angle) * rin) >> LV_TRIGO_SHIFT) + extra_area;
 1705              		.loc 1 970 65 view .LVU498
 1706 0396 0AFB00F3 		mul	r3, r10, r0
 970:lvgl/src/lv_widgets/lv_arc.c ****             inv_area.y2 = y + ((_lv_trigo_sin(start_angle) * rin) >> LV_TRIGO_SHIFT) + extra_area;
 1707              		.loc 1 970 29 view .LVU499
 1708 039a 0BEBE333 		add	r3, fp, r3, asr #15
 1709 039e 9BB2     		uxth	r3, r3
 970:lvgl/src/lv_widgets/lv_arc.c ****             inv_area.y2 = y + ((_lv_trigo_sin(start_angle) * rin) >> LV_TRIGO_SHIFT) + extra_area;
 1710              		.loc 1 970 92 view .LVU500
 1711 03a0 BDF81070 		ldrh	r7, [sp, #16]
 1712 03a4 DB1B     		subs	r3, r3, r7
 970:lvgl/src/lv_widgets/lv_arc.c ****             inv_area.y2 = y + ((_lv_trigo_sin(start_angle) * rin) >> LV_TRIGO_SHIFT) + extra_area;
 1713              		.loc 1 970 25 view .LVU501
 1714 03a6 ADF82030 		strh	r3, [sp, #32]	@ movhi
 971:lvgl/src/lv_widgets/lv_arc.c **** 
 1715              		.loc 1 971 13 is_stmt 1 view .LVU502
 971:lvgl/src/lv_widgets/lv_arc.c **** 
 1716              		.loc 1 971 33 is_stmt 0 view .LVU503
 1717 03aa 0FFA89F0 		sxth	r0, r9
 1718 03ae FFF7FEFF 		bl	_lv_trigo_sin
 1719              	.LVL197:
 971:lvgl/src/lv_widgets/lv_arc.c **** 
 1720              		.loc 1 971 60 view .LVU504
 1721 03b2 059C     		ldr	r4, [sp, #20]
 1722              	.LVL198:
 971:lvgl/src/lv_widgets/lv_arc.c **** 
 1723              		.loc 1 971 60 view .LVU505
 1724 03b4 2346     		mov	r3, r4
 1725 03b6 03FB00F3 		mul	r3, r3, r0
 971:lvgl/src/lv_widgets/lv_arc.c **** 
 1726              		.loc 1 971 29 view .LVU506
ARM GAS  D:\Temp\ccOOHxmt.s 			page 65


 1727 03ba 08EBE333 		add	r3, r8, r3, asr #15
 971:lvgl/src/lv_widgets/lv_arc.c **** 
 1728              		.loc 1 971 86 view .LVU507
 1729 03be 17FA83F3 		uxtah	r3, r7, r3
 971:lvgl/src/lv_widgets/lv_arc.c **** 
 1730              		.loc 1 971 25 view .LVU508
 1731 03c2 ADF82630 		strh	r3, [sp, #38]	@ movhi
 973:lvgl/src/lv_widgets/lv_arc.c ****             inv_area.x2 = x + ((_lv_trigo_sin(end_angle + 90) * rin) >> LV_TRIGO_SHIFT) + extra_are
 1732              		.loc 1 973 13 is_stmt 1 view .LVU509
 973:lvgl/src/lv_widgets/lv_arc.c ****             inv_area.x2 = x + ((_lv_trigo_sin(end_angle + 90) * rin) >> LV_TRIGO_SHIFT) + extra_are
 1733              		.loc 1 973 33 is_stmt 0 view .LVU510
 1734 03c6 28B2     		sxth	r0, r5
 1735 03c8 FFF7FEFF 		bl	_lv_trigo_sin
 1736              	.LVL199:
 973:lvgl/src/lv_widgets/lv_arc.c ****             inv_area.x2 = x + ((_lv_trigo_sin(end_angle + 90) * rin) >> LV_TRIGO_SHIFT) + extra_are
 1737              		.loc 1 973 58 view .LVU511
 1738 03cc 00FB0AF3 		mul	r3, r0, r10
 973:lvgl/src/lv_widgets/lv_arc.c ****             inv_area.x2 = x + ((_lv_trigo_sin(end_angle + 90) * rin) >> LV_TRIGO_SHIFT) + extra_are
 1739              		.loc 1 973 29 view .LVU512
 1740 03d0 08EBE333 		add	r3, r8, r3, asr #15
 1741 03d4 9BB2     		uxth	r3, r3
 973:lvgl/src/lv_widgets/lv_arc.c ****             inv_area.x2 = x + ((_lv_trigo_sin(end_angle + 90) * rin) >> LV_TRIGO_SHIFT) + extra_are
 1742              		.loc 1 973 85 view .LVU513
 1743 03d6 DB1B     		subs	r3, r3, r7
 973:lvgl/src/lv_widgets/lv_arc.c ****             inv_area.x2 = x + ((_lv_trigo_sin(end_angle + 90) * rin) >> LV_TRIGO_SHIFT) + extra_are
 1744              		.loc 1 973 25 view .LVU514
 1745 03d8 ADF82230 		strh	r3, [sp, #34]	@ movhi
 974:lvgl/src/lv_widgets/lv_arc.c **** 
 1746              		.loc 1 974 13 is_stmt 1 view .LVU515
 974:lvgl/src/lv_widgets/lv_arc.c **** 
 1747              		.loc 1 974 57 is_stmt 0 view .LVU516
 1748 03dc 05F15A00 		add	r0, r5, #90
 974:lvgl/src/lv_widgets/lv_arc.c **** 
 1749              		.loc 1 974 33 view .LVU517
 1750 03e0 00B2     		sxth	r0, r0
 1751 03e2 FFF7FEFF 		bl	_lv_trigo_sin
 1752              	.LVL200:
 974:lvgl/src/lv_widgets/lv_arc.c **** 
 1753              		.loc 1 974 63 view .LVU518
 1754 03e6 00FB04F0 		mul	r0, r0, r4
 974:lvgl/src/lv_widgets/lv_arc.c **** 
 1755              		.loc 1 974 29 view .LVU519
 1756 03ea 0BEBE03B 		add	fp, fp, r0, asr #15
 1757              	.LVL201:
 974:lvgl/src/lv_widgets/lv_arc.c **** 
 1758              		.loc 1 974 89 view .LVU520
 1759 03ee 17FA8BF7 		uxtah	r7, r7, fp
 974:lvgl/src/lv_widgets/lv_arc.c **** 
 1760              		.loc 1 974 25 view .LVU521
 1761 03f2 ADF82470 		strh	r7, [sp, #36]	@ movhi
 976:lvgl/src/lv_widgets/lv_arc.c ****         }
 1762              		.loc 1 976 13 is_stmt 1 view .LVU522
 1763 03f6 08A9     		add	r1, sp, #32
 1764 03f8 0098     		ldr	r0, [sp]
 1765 03fa FFF7FEFF 		bl	lv_obj_invalidate_area
 1766              	.LVL202:
 1767 03fe 0AE6     		b	.L37
ARM GAS  D:\Temp\ccOOHxmt.s 			page 66


 1768              	.LVL203:
 1769              	.L70:
 991:lvgl/src/lv_widgets/lv_arc.c ****         inv_area.y1 = y + ((LV_MATH_MIN(_lv_trigo_sin(end_angle),
 1770              		.loc 1 991 9 view .LVU523
 991:lvgl/src/lv_widgets/lv_arc.c ****         inv_area.y1 = y + ((LV_MATH_MIN(_lv_trigo_sin(end_angle),
 1771              		.loc 1 991 53 is_stmt 0 view .LVU524
 1772 0400 05F15A00 		add	r0, r5, #90
 991:lvgl/src/lv_widgets/lv_arc.c ****         inv_area.y1 = y + ((LV_MATH_MIN(_lv_trigo_sin(end_angle),
 1773              		.loc 1 991 29 view .LVU525
 1774 0404 00B2     		sxth	r0, r0
 1775 0406 FFF7FEFF 		bl	_lv_trigo_sin
 1776              	.LVL204:
 991:lvgl/src/lv_widgets/lv_arc.c ****         inv_area.y1 = y + ((LV_MATH_MIN(_lv_trigo_sin(end_angle),
 1777              		.loc 1 991 59 view .LVU526
 1778 040a CDF804A0 		str	r10, [sp, #4]
 1779 040e 0AFB00F3 		mul	r3, r10, r0
 991:lvgl/src/lv_widgets/lv_arc.c ****         inv_area.y1 = y + ((LV_MATH_MIN(_lv_trigo_sin(end_angle),
 1780              		.loc 1 991 25 view .LVU527
 1781 0412 0BEBE333 		add	r3, fp, r3, asr #15
 1782 0416 9BB2     		uxth	r3, r3
 991:lvgl/src/lv_widgets/lv_arc.c ****         inv_area.y1 = y + ((LV_MATH_MIN(_lv_trigo_sin(end_angle),
 1783              		.loc 1 991 86 view .LVU528
 1784 0418 BDF81070 		ldrh	r7, [sp, #16]
 1785 041c DB1B     		subs	r3, r3, r7
 991:lvgl/src/lv_widgets/lv_arc.c ****         inv_area.y1 = y + ((LV_MATH_MIN(_lv_trigo_sin(end_angle),
 1786              		.loc 1 991 21 view .LVU529
 1787 041e ADF82030 		strh	r3, [sp, #32]	@ movhi
 992:lvgl/src/lv_widgets/lv_arc.c ****                                         _lv_trigo_sin(start_angle))  * rin) >> LV_TRIGO_SHIFT) - ex
 1788              		.loc 1 992 9 is_stmt 1 view .LVU530
 992:lvgl/src/lv_widgets/lv_arc.c ****                                         _lv_trigo_sin(start_angle))  * rin) >> LV_TRIGO_SHIFT) - ex
 1789              		.loc 1 992 29 is_stmt 0 view .LVU531
 1790 0422 2CB2     		sxth	r4, r5
 1791              	.LVL205:
 992:lvgl/src/lv_widgets/lv_arc.c ****                                         _lv_trigo_sin(start_angle))  * rin) >> LV_TRIGO_SHIFT) - ex
 1792              		.loc 1 992 29 view .LVU532
 1793 0424 2046     		mov	r0, r4
 1794 0426 FFF7FEFF 		bl	_lv_trigo_sin
 1795              	.LVL206:
 1796 042a 8246     		mov	r10, r0
 1797              	.LVL207:
 992:lvgl/src/lv_widgets/lv_arc.c ****                                         _lv_trigo_sin(start_angle))  * rin) >> LV_TRIGO_SHIFT) - ex
 1798              		.loc 1 992 29 view .LVU533
 1799 042c 0FFA89F5 		sxth	r5, r9
 1800              	.LVL208:
 992:lvgl/src/lv_widgets/lv_arc.c ****                                         _lv_trigo_sin(start_angle))  * rin) >> LV_TRIGO_SHIFT) - ex
 1801              		.loc 1 992 29 view .LVU534
 1802 0430 2846     		mov	r0, r5
 1803 0432 FFF7FEFF 		bl	_lv_trigo_sin
 1804              	.LVL209:
 1805 0436 8245     		cmp	r10, r0
 1806 0438 23DA     		bge	.L53
 992:lvgl/src/lv_widgets/lv_arc.c ****                                         _lv_trigo_sin(start_angle))  * rin) >> LV_TRIGO_SHIFT) - ex
 1807              		.loc 1 992 29 discriminator 1 view .LVU535
 1808 043a 2046     		mov	r0, r4
 1809 043c FFF7FEFF 		bl	_lv_trigo_sin
 1810              	.LVL210:
 1811              	.L54:
ARM GAS  D:\Temp\ccOOHxmt.s 			page 67


 993:lvgl/src/lv_widgets/lv_arc.c ****         inv_area.x2 = x + ((_lv_trigo_sin(start_angle + 90) * rout) >> LV_TRIGO_SHIFT) + extra_area
 1812              		.loc 1 993 70 view .LVU536
 1813 0440 059B     		ldr	r3, [sp, #20]
 1814 0442 00FB03F3 		mul	r3, r0, r3
 992:lvgl/src/lv_widgets/lv_arc.c ****                                         _lv_trigo_sin(start_angle))  * rin) >> LV_TRIGO_SHIFT) - ex
 1815              		.loc 1 992 25 view .LVU537
 1816 0446 08EBE333 		add	r3, r8, r3, asr #15
 1817 044a 9BB2     		uxth	r3, r3
 993:lvgl/src/lv_widgets/lv_arc.c ****         inv_area.x2 = x + ((_lv_trigo_sin(start_angle + 90) * rout) >> LV_TRIGO_SHIFT) + extra_area
 1818              		.loc 1 993 96 view .LVU538
 1819 044c DB1B     		subs	r3, r3, r7
 992:lvgl/src/lv_widgets/lv_arc.c ****                                         _lv_trigo_sin(start_angle))  * rin) >> LV_TRIGO_SHIFT) - ex
 1820              		.loc 1 992 21 view .LVU539
 1821 044e ADF82230 		strh	r3, [sp, #34]	@ movhi
 994:lvgl/src/lv_widgets/lv_arc.c ****         inv_area.y2 = y + rout + extra_area;
 1822              		.loc 1 994 9 is_stmt 1 view .LVU540
 994:lvgl/src/lv_widgets/lv_arc.c ****         inv_area.y2 = y + rout + extra_area;
 1823              		.loc 1 994 55 is_stmt 0 view .LVU541
 1824 0452 09F15A00 		add	r0, r9, #90
 994:lvgl/src/lv_widgets/lv_arc.c ****         inv_area.y2 = y + rout + extra_area;
 1825              		.loc 1 994 29 view .LVU542
 1826 0456 00B2     		sxth	r0, r0
 1827 0458 FFF7FEFF 		bl	_lv_trigo_sin
 1828              	.LVL211:
 994:lvgl/src/lv_widgets/lv_arc.c ****         inv_area.y2 = y + rout + extra_area;
 1829              		.loc 1 994 61 view .LVU543
 1830 045c 019B     		ldr	r3, [sp, #4]
 1831 045e 00FB03F0 		mul	r0, r0, r3
 994:lvgl/src/lv_widgets/lv_arc.c ****         inv_area.y2 = y + rout + extra_area;
 1832              		.loc 1 994 25 view .LVU544
 1833 0462 0BEBE03B 		add	fp, fp, r0, asr #15
 1834              	.LVL212:
 994:lvgl/src/lv_widgets/lv_arc.c ****         inv_area.y2 = y + rout + extra_area;
 1835              		.loc 1 994 88 view .LVU545
 1836 0466 17FA8BFB 		uxtah	fp, r7, fp
 994:lvgl/src/lv_widgets/lv_arc.c ****         inv_area.y2 = y + rout + extra_area;
 1837              		.loc 1 994 21 view .LVU546
 1838 046a ADF824B0 		strh	fp, [sp, #36]	@ movhi
 995:lvgl/src/lv_widgets/lv_arc.c ****         lv_obj_invalidate_area(arc, &inv_area);
 1839              		.loc 1 995 9 is_stmt 1 view .LVU547
 995:lvgl/src/lv_widgets/lv_arc.c ****         lv_obj_invalidate_area(arc, &inv_area);
 1840              		.loc 1 995 25 is_stmt 0 view .LVU548
 1841 046e 4644     		add	r6, r6, r8
 1842              	.LVL213:
 995:lvgl/src/lv_widgets/lv_arc.c ****         lv_obj_invalidate_area(arc, &inv_area);
 1843              		.loc 1 995 32 view .LVU549
 1844 0470 17FA86F7 		uxtah	r7, r7, r6
 995:lvgl/src/lv_widgets/lv_arc.c ****         lv_obj_invalidate_area(arc, &inv_area);
 1845              		.loc 1 995 21 view .LVU550
 1846 0474 ADF82670 		strh	r7, [sp, #38]	@ movhi
 996:lvgl/src/lv_widgets/lv_arc.c ****     }
 1847              		.loc 1 996 9 is_stmt 1 view .LVU551
 1848 0478 08A9     		add	r1, sp, #32
 1849 047a 0098     		ldr	r0, [sp]
 1850 047c FFF7FEFF 		bl	lv_obj_invalidate_area
 1851              	.LVL214:
 1852 0480 C9E5     		b	.L37
ARM GAS  D:\Temp\ccOOHxmt.s 			page 68


 1853              	.LVL215:
 1854              	.L53:
 992:lvgl/src/lv_widgets/lv_arc.c ****                                         _lv_trigo_sin(start_angle))  * rin) >> LV_TRIGO_SHIFT) - ex
 1855              		.loc 1 992 29 is_stmt 0 discriminator 2 view .LVU552
 1856 0482 2846     		mov	r0, r5
 1857 0484 FFF7FEFF 		bl	_lv_trigo_sin
 1858              	.LVL216:
 1859 0488 DAE7     		b	.L54
 1860              	.LVL217:
 1861              	.L71:
 998:lvgl/src/lv_widgets/lv_arc.c ****         inv_area.x1 = x - rout - extra_area;
 1862              		.loc 1 998 32 discriminator 1 view .LVU553
 1863 048a 029B     		ldr	r3, [sp, #8]
 1864 048c 022B     		cmp	r3, #2
 1865 048e 7FF44FAE 		bne	.L55
 999:lvgl/src/lv_widgets/lv_arc.c ****         inv_area.y1 = y + ((_lv_trigo_sin(end_angle) * rout) >> LV_TRIGO_SHIFT) - extra_area;
 1866              		.loc 1 999 9 is_stmt 1 view .LVU554
 999:lvgl/src/lv_widgets/lv_arc.c ****         inv_area.y1 = y + ((_lv_trigo_sin(end_angle) * rout) >> LV_TRIGO_SHIFT) - extra_area;
 1867              		.loc 1 999 25 is_stmt 0 view .LVU555
 1868 0492 ABEB0603 		sub	r3, fp, r6
 1869 0496 9BB2     		uxth	r3, r3
 999:lvgl/src/lv_widgets/lv_arc.c ****         inv_area.y1 = y + ((_lv_trigo_sin(end_angle) * rout) >> LV_TRIGO_SHIFT) - extra_area;
 1870              		.loc 1 999 32 view .LVU556
 1871 0498 BDF81070 		ldrh	r7, [sp, #16]
 1872 049c DB1B     		subs	r3, r3, r7
 999:lvgl/src/lv_widgets/lv_arc.c ****         inv_area.y1 = y + ((_lv_trigo_sin(end_angle) * rout) >> LV_TRIGO_SHIFT) - extra_area;
 1873              		.loc 1 999 21 view .LVU557
 1874 049e ADF82030 		strh	r3, [sp, #32]	@ movhi
1000:lvgl/src/lv_widgets/lv_arc.c ****         inv_area.x2 = x + ((LV_MATH_MAX(_lv_trigo_sin(start_angle + 90),
 1875              		.loc 1 1000 9 is_stmt 1 view .LVU558
1000:lvgl/src/lv_widgets/lv_arc.c ****         inv_area.x2 = x + ((LV_MATH_MAX(_lv_trigo_sin(start_angle + 90),
 1876              		.loc 1 1000 29 is_stmt 0 view .LVU559
 1877 04a2 28B2     		sxth	r0, r5
 1878 04a4 FFF7FEFF 		bl	_lv_trigo_sin
 1879              	.LVL218:
1000:lvgl/src/lv_widgets/lv_arc.c ****         inv_area.x2 = x + ((LV_MATH_MAX(_lv_trigo_sin(start_angle + 90),
 1880              		.loc 1 1000 54 view .LVU560
 1881 04a8 5446     		mov	r4, r10
 1882              	.LVL219:
1000:lvgl/src/lv_widgets/lv_arc.c ****         inv_area.x2 = x + ((LV_MATH_MAX(_lv_trigo_sin(start_angle + 90),
 1883              		.loc 1 1000 54 view .LVU561
 1884 04aa 0AFB00F3 		mul	r3, r10, r0
1000:lvgl/src/lv_widgets/lv_arc.c ****         inv_area.x2 = x + ((LV_MATH_MAX(_lv_trigo_sin(start_angle + 90),
 1885              		.loc 1 1000 25 view .LVU562
 1886 04ae 08EBE333 		add	r3, r8, r3, asr #15
 1887 04b2 9BB2     		uxth	r3, r3
1000:lvgl/src/lv_widgets/lv_arc.c ****         inv_area.x2 = x + ((LV_MATH_MAX(_lv_trigo_sin(start_angle + 90),
 1888              		.loc 1 1000 81 view .LVU563
 1889 04b4 DB1B     		subs	r3, r3, r7
1000:lvgl/src/lv_widgets/lv_arc.c ****         inv_area.x2 = x + ((LV_MATH_MAX(_lv_trigo_sin(start_angle + 90),
 1890              		.loc 1 1000 21 view .LVU564
 1891 04b6 ADF82230 		strh	r3, [sp, #34]	@ movhi
1001:lvgl/src/lv_widgets/lv_arc.c ****                                         _lv_trigo_sin(end_angle + 90)) * rin) >> LV_TRIGO_SHIFT) + 
 1892              		.loc 1 1001 9 is_stmt 1 view .LVU565
1001:lvgl/src/lv_widgets/lv_arc.c ****                                         _lv_trigo_sin(end_angle + 90)) * rin) >> LV_TRIGO_SHIFT) + 
 1893              		.loc 1 1001 29 is_stmt 0 view .LVU566
 1894 04ba 09F15A06 		add	r6, r9, #90
ARM GAS  D:\Temp\ccOOHxmt.s 			page 69


 1895 04be 36B2     		sxth	r6, r6
 1896 04c0 3046     		mov	r0, r6
 1897 04c2 FFF7FEFF 		bl	_lv_trigo_sin
 1898              	.LVL220:
 1899 04c6 8246     		mov	r10, r0
 1900              	.LVL221:
1001:lvgl/src/lv_widgets/lv_arc.c ****                                         _lv_trigo_sin(end_angle + 90)) * rin) >> LV_TRIGO_SHIFT) + 
 1901              		.loc 1 1001 29 view .LVU567
 1902 04c8 05F15A03 		add	r3, r5, #90
 1903 04cc 1DB2     		sxth	r5, r3
 1904              	.LVL222:
1001:lvgl/src/lv_widgets/lv_arc.c ****                                         _lv_trigo_sin(end_angle + 90)) * rin) >> LV_TRIGO_SHIFT) + 
 1905              		.loc 1 1001 29 view .LVU568
 1906 04ce 2846     		mov	r0, r5
 1907 04d0 FFF7FEFF 		bl	_lv_trigo_sin
 1908              	.LVL223:
 1909 04d4 8245     		cmp	r10, r0
 1910 04d6 1CDD     		ble	.L56
1001:lvgl/src/lv_widgets/lv_arc.c ****                                         _lv_trigo_sin(end_angle + 90)) * rin) >> LV_TRIGO_SHIFT) + 
 1911              		.loc 1 1001 29 discriminator 1 view .LVU569
 1912 04d8 3046     		mov	r0, r6
 1913 04da FFF7FEFF 		bl	_lv_trigo_sin
 1914              	.LVL224:
 1915              	.L57:
1002:lvgl/src/lv_widgets/lv_arc.c ****         inv_area.y2 = y + ((_lv_trigo_sin(start_angle) * rout) >> LV_TRIGO_SHIFT) + extra_area;
 1916              		.loc 1 1002 72 view .LVU570
 1917 04de 059B     		ldr	r3, [sp, #20]
 1918 04e0 00FB03F0 		mul	r0, r0, r3
1001:lvgl/src/lv_widgets/lv_arc.c ****                                         _lv_trigo_sin(end_angle + 90)) * rin) >> LV_TRIGO_SHIFT) + 
 1919              		.loc 1 1001 25 view .LVU571
 1920 04e4 0BEBE03B 		add	fp, fp, r0, asr #15
 1921              	.LVL225:
1002:lvgl/src/lv_widgets/lv_arc.c ****         inv_area.y2 = y + ((_lv_trigo_sin(start_angle) * rout) >> LV_TRIGO_SHIFT) + extra_area;
 1922              		.loc 1 1002 98 view .LVU572
 1923 04e8 17FA8BFB 		uxtah	fp, r7, fp
1001:lvgl/src/lv_widgets/lv_arc.c ****                                         _lv_trigo_sin(end_angle + 90)) * rin) >> LV_TRIGO_SHIFT) + 
 1924              		.loc 1 1001 21 view .LVU573
 1925 04ec ADF824B0 		strh	fp, [sp, #36]	@ movhi
1003:lvgl/src/lv_widgets/lv_arc.c ****         lv_obj_invalidate_area(arc, &inv_area);
 1926              		.loc 1 1003 9 is_stmt 1 view .LVU574
1003:lvgl/src/lv_widgets/lv_arc.c ****         lv_obj_invalidate_area(arc, &inv_area);
 1927              		.loc 1 1003 29 is_stmt 0 view .LVU575
 1928 04f0 0FFA89F0 		sxth	r0, r9
 1929 04f4 FFF7FEFF 		bl	_lv_trigo_sin
 1930              	.LVL226:
1003:lvgl/src/lv_widgets/lv_arc.c ****         lv_obj_invalidate_area(arc, &inv_area);
 1931              		.loc 1 1003 56 view .LVU576
 1932 04f8 00FB04F0 		mul	r0, r0, r4
1003:lvgl/src/lv_widgets/lv_arc.c ****         lv_obj_invalidate_area(arc, &inv_area);
 1933              		.loc 1 1003 25 view .LVU577
 1934 04fc 08EBE030 		add	r0, r8, r0, asr #15
1003:lvgl/src/lv_widgets/lv_arc.c ****         lv_obj_invalidate_area(arc, &inv_area);
 1935              		.loc 1 1003 83 view .LVU578
 1936 0500 17FA80F7 		uxtah	r7, r7, r0
1003:lvgl/src/lv_widgets/lv_arc.c ****         lv_obj_invalidate_area(arc, &inv_area);
 1937              		.loc 1 1003 21 view .LVU579
 1938 0504 ADF82670 		strh	r7, [sp, #38]	@ movhi
ARM GAS  D:\Temp\ccOOHxmt.s 			page 70


1004:lvgl/src/lv_widgets/lv_arc.c ****     }
 1939              		.loc 1 1004 9 is_stmt 1 view .LVU580
 1940 0508 08A9     		add	r1, sp, #32
 1941 050a 0098     		ldr	r0, [sp]
 1942 050c FFF7FEFF 		bl	lv_obj_invalidate_area
 1943              	.LVL227:
 1944 0510 81E5     		b	.L37
 1945              	.LVL228:
 1946              	.L56:
1001:lvgl/src/lv_widgets/lv_arc.c ****                                         _lv_trigo_sin(end_angle + 90)) * rin) >> LV_TRIGO_SHIFT) + 
 1947              		.loc 1 1001 29 is_stmt 0 discriminator 2 view .LVU581
 1948 0512 2846     		mov	r0, r5
 1949 0514 FFF7FEFF 		bl	_lv_trigo_sin
 1950              	.LVL229:
 1951 0518 E1E7     		b	.L57
 1952              	.LVL230:
 1953              	.L72:
1006:lvgl/src/lv_widgets/lv_arc.c ****         inv_area.x1 = x + ((_lv_trigo_sin(start_angle + 90) * rout) >> LV_TRIGO_SHIFT) - extra_area
 1954              		.loc 1 1006 32 discriminator 1 view .LVU582
 1955 051a 029B     		ldr	r3, [sp, #8]
 1956 051c 032B     		cmp	r3, #3
 1957 051e 7FF40AAE 		bne	.L58
1007:lvgl/src/lv_widgets/lv_arc.c ****         inv_area.y1 = y - rout - extra_area;
 1958              		.loc 1 1007 9 is_stmt 1 view .LVU583
1007:lvgl/src/lv_widgets/lv_arc.c ****         inv_area.y1 = y - rout - extra_area;
 1959              		.loc 1 1007 55 is_stmt 0 view .LVU584
 1960 0522 09F15A00 		add	r0, r9, #90
1007:lvgl/src/lv_widgets/lv_arc.c ****         inv_area.y1 = y - rout - extra_area;
 1961              		.loc 1 1007 29 view .LVU585
 1962 0526 00B2     		sxth	r0, r0
 1963 0528 FFF7FEFF 		bl	_lv_trigo_sin
 1964              	.LVL231:
1007:lvgl/src/lv_widgets/lv_arc.c ****         inv_area.y1 = y - rout - extra_area;
 1965              		.loc 1 1007 61 view .LVU586
 1966 052c 0AFB00F3 		mul	r3, r10, r0
1007:lvgl/src/lv_widgets/lv_arc.c ****         inv_area.y1 = y - rout - extra_area;
 1967              		.loc 1 1007 25 view .LVU587
 1968 0530 0BEBE333 		add	r3, fp, r3, asr #15
 1969 0534 9BB2     		uxth	r3, r3
1007:lvgl/src/lv_widgets/lv_arc.c ****         inv_area.y1 = y - rout - extra_area;
 1970              		.loc 1 1007 88 view .LVU588
 1971 0536 BDF81070 		ldrh	r7, [sp, #16]
 1972 053a DB1B     		subs	r3, r3, r7
1007:lvgl/src/lv_widgets/lv_arc.c ****         inv_area.y1 = y - rout - extra_area;
 1973              		.loc 1 1007 21 view .LVU589
 1974 053c ADF82030 		strh	r3, [sp, #32]	@ movhi
1008:lvgl/src/lv_widgets/lv_arc.c ****         inv_area.x2 = x + ((_lv_trigo_sin(end_angle + 90) * rout) >> LV_TRIGO_SHIFT) + extra_area;
 1975              		.loc 1 1008 9 is_stmt 1 view .LVU590
1008:lvgl/src/lv_widgets/lv_arc.c ****         inv_area.x2 = x + ((_lv_trigo_sin(end_angle + 90) * rout) >> LV_TRIGO_SHIFT) + extra_area;
 1976              		.loc 1 1008 25 is_stmt 0 view .LVU591
 1977 0540 A8EB0603 		sub	r3, r8, r6
 1978 0544 9BB2     		uxth	r3, r3
1008:lvgl/src/lv_widgets/lv_arc.c ****         inv_area.x2 = x + ((_lv_trigo_sin(end_angle + 90) * rout) >> LV_TRIGO_SHIFT) + extra_area;
 1979              		.loc 1 1008 32 view .LVU592
 1980 0546 DB1B     		subs	r3, r3, r7
1008:lvgl/src/lv_widgets/lv_arc.c ****         inv_area.x2 = x + ((_lv_trigo_sin(end_angle + 90) * rout) >> LV_TRIGO_SHIFT) + extra_area;
 1981              		.loc 1 1008 21 view .LVU593
ARM GAS  D:\Temp\ccOOHxmt.s 			page 71


 1982 0548 ADF82230 		strh	r3, [sp, #34]	@ movhi
1009:lvgl/src/lv_widgets/lv_arc.c ****         inv_area.y2 = y + (LV_MATH_MAX(_lv_trigo_sin(end_angle) * rin,
 1983              		.loc 1 1009 9 is_stmt 1 view .LVU594
1009:lvgl/src/lv_widgets/lv_arc.c ****         inv_area.y2 = y + (LV_MATH_MAX(_lv_trigo_sin(end_angle) * rin,
 1984              		.loc 1 1009 53 is_stmt 0 view .LVU595
 1985 054c 05F15A00 		add	r0, r5, #90
1009:lvgl/src/lv_widgets/lv_arc.c ****         inv_area.y2 = y + (LV_MATH_MAX(_lv_trigo_sin(end_angle) * rin,
 1986              		.loc 1 1009 29 view .LVU596
 1987 0550 00B2     		sxth	r0, r0
 1988 0552 FFF7FEFF 		bl	_lv_trigo_sin
 1989              	.LVL232:
1009:lvgl/src/lv_widgets/lv_arc.c ****         inv_area.y2 = y + (LV_MATH_MAX(_lv_trigo_sin(end_angle) * rin,
 1990              		.loc 1 1009 59 view .LVU597
 1991 0556 00FB0AF0 		mul	r0, r0, r10
1009:lvgl/src/lv_widgets/lv_arc.c ****         inv_area.y2 = y + (LV_MATH_MAX(_lv_trigo_sin(end_angle) * rin,
 1992              		.loc 1 1009 25 view .LVU598
 1993 055a 0BEBE03B 		add	fp, fp, r0, asr #15
 1994              	.LVL233:
1009:lvgl/src/lv_widgets/lv_arc.c ****         inv_area.y2 = y + (LV_MATH_MAX(_lv_trigo_sin(end_angle) * rin,
 1995              		.loc 1 1009 86 view .LVU599
 1996 055e 17FA8BFB 		uxtah	fp, r7, fp
1009:lvgl/src/lv_widgets/lv_arc.c ****         inv_area.y2 = y + (LV_MATH_MAX(_lv_trigo_sin(end_angle) * rin,
 1997              		.loc 1 1009 21 view .LVU600
 1998 0562 ADF824B0 		strh	fp, [sp, #36]	@ movhi
1010:lvgl/src/lv_widgets/lv_arc.c ****                                        _lv_trigo_sin(start_angle) * rin) >> LV_TRIGO_SHIFT) + extra
 1999              		.loc 1 1010 9 is_stmt 1 view .LVU601
1010:lvgl/src/lv_widgets/lv_arc.c ****                                        _lv_trigo_sin(start_angle) * rin) >> LV_TRIGO_SHIFT) + extra
 2000              		.loc 1 1010 28 is_stmt 0 view .LVU602
 2001 0566 2DB2     		sxth	r5, r5
1010:lvgl/src/lv_widgets/lv_arc.c ****                                        _lv_trigo_sin(start_angle) * rin) >> LV_TRIGO_SHIFT) + extra
 2002              		.loc 1 1010 28 view .LVU603
 2003 0568 2846     		mov	r0, r5
 2004 056a FFF7FEFF 		bl	_lv_trigo_sin
 2005              	.LVL234:
 2006 056e 059E     		ldr	r6, [sp, #20]
 2007 0570 06FB00F4 		mul	r4, r6, r0
 2008              	.LVL235:
1010:lvgl/src/lv_widgets/lv_arc.c ****                                        _lv_trigo_sin(start_angle) * rin) >> LV_TRIGO_SHIFT) + extra
 2009              		.loc 1 1010 28 view .LVU604
 2010 0574 0FFA89F9 		sxth	r9, r9
 2011              	.LVL236:
1010:lvgl/src/lv_widgets/lv_arc.c ****                                        _lv_trigo_sin(start_angle) * rin) >> LV_TRIGO_SHIFT) + extra
 2012              		.loc 1 1010 28 view .LVU605
 2013 0578 4846     		mov	r0, r9
 2014 057a FFF7FEFF 		bl	_lv_trigo_sin
 2015              	.LVL237:
 2016 057e 00FB06F0 		mul	r0, r0, r6
1010:lvgl/src/lv_widgets/lv_arc.c ****                                        _lv_trigo_sin(start_angle) * rin) >> LV_TRIGO_SHIFT) + extra
 2017              		.loc 1 1010 25 view .LVU606
 2018 0582 8442     		cmp	r4, r0
 2019 0584 10DD     		ble	.L59
1010:lvgl/src/lv_widgets/lv_arc.c ****                                        _lv_trigo_sin(start_angle) * rin) >> LV_TRIGO_SHIFT) + extra
 2020              		.loc 1 1010 28 discriminator 1 view .LVU607
 2021 0586 2846     		mov	r0, r5
 2022 0588 FFF7FEFF 		bl	_lv_trigo_sin
 2023              	.LVL238:
 2024 058c 00FB06F6 		mul	r6, r0, r6
ARM GAS  D:\Temp\ccOOHxmt.s 			page 72


1010:lvgl/src/lv_widgets/lv_arc.c ****                                        _lv_trigo_sin(start_angle) * rin) >> LV_TRIGO_SHIFT) + extra
 2025              		.loc 1 1010 25 discriminator 1 view .LVU608
 2026 0590 C6F3CF36 		ubfx	r6, r6, #15, #16
 2027              	.L60:
1010:lvgl/src/lv_widgets/lv_arc.c ****                                        _lv_trigo_sin(start_angle) * rin) >> LV_TRIGO_SHIFT) + extra
 2028              		.loc 1 1010 25 discriminator 4 view .LVU609
 2029 0594 4644     		add	r6, r6, r8
1011:lvgl/src/lv_widgets/lv_arc.c ****         lv_obj_invalidate_area(arc, &inv_area);
 2030              		.loc 1 1011 93 discriminator 4 view .LVU610
 2031 0596 17FA86F7 		uxtah	r7, r7, r6
1010:lvgl/src/lv_widgets/lv_arc.c ****                                        _lv_trigo_sin(start_angle) * rin) >> LV_TRIGO_SHIFT) + extra
 2032              		.loc 1 1010 21 discriminator 4 view .LVU611
 2033 059a ADF82670 		strh	r7, [sp, #38]	@ movhi
1012:lvgl/src/lv_widgets/lv_arc.c ****     }
 2034              		.loc 1 1012 9 is_stmt 1 discriminator 4 view .LVU612
 2035 059e 08A9     		add	r1, sp, #32
 2036 05a0 0098     		ldr	r0, [sp]
 2037 05a2 FFF7FEFF 		bl	lv_obj_invalidate_area
 2038              	.LVL239:
 2039 05a6 36E5     		b	.L37
 2040              	.L59:
1010:lvgl/src/lv_widgets/lv_arc.c ****                                        _lv_trigo_sin(start_angle) * rin) >> LV_TRIGO_SHIFT) + extra
 2041              		.loc 1 1010 28 is_stmt 0 discriminator 2 view .LVU613
 2042 05a8 4846     		mov	r0, r9
 2043 05aa FFF7FEFF 		bl	_lv_trigo_sin
 2044              	.LVL240:
 2045 05ae 059E     		ldr	r6, [sp, #20]
 2046 05b0 00FB06F6 		mul	r6, r0, r6
1010:lvgl/src/lv_widgets/lv_arc.c ****                                        _lv_trigo_sin(start_angle) * rin) >> LV_TRIGO_SHIFT) + extra
 2047              		.loc 1 1010 25 discriminator 2 view .LVU614
 2048 05b4 C6F3CF36 		ubfx	r6, r6, #15, #16
 2049 05b8 ECE7     		b	.L60
 2050              	.LVL241:
 2051              	.L73:
1015:lvgl/src/lv_widgets/lv_arc.c ****                                         _lv_trigo_sin(start_angle + 90)) * rin) >> LV_TRIGO_SHIFT) 
 2052              		.loc 1 1015 9 is_stmt 1 view .LVU615
1015:lvgl/src/lv_widgets/lv_arc.c ****                                         _lv_trigo_sin(start_angle + 90)) * rin) >> LV_TRIGO_SHIFT) 
 2053              		.loc 1 1015 29 is_stmt 0 view .LVU616
 2054 05ba 05F15A07 		add	r7, r5, #90
 2055 05be 3FB2     		sxth	r7, r7
 2056 05c0 3846     		mov	r0, r7
 2057 05c2 FFF7FEFF 		bl	_lv_trigo_sin
 2058              	.LVL242:
 2059 05c6 0446     		mov	r4, r0
 2060              	.LVL243:
1015:lvgl/src/lv_widgets/lv_arc.c ****                                         _lv_trigo_sin(start_angle + 90)) * rin) >> LV_TRIGO_SHIFT) 
 2061              		.loc 1 1015 29 view .LVU617
 2062 05c8 09F15A03 		add	r3, r9, #90
 2063 05cc 1BB2     		sxth	r3, r3
 2064 05ce 0193     		str	r3, [sp, #4]
 2065 05d0 1846     		mov	r0, r3
 2066 05d2 FFF7FEFF 		bl	_lv_trigo_sin
 2067              	.LVL244:
 2068 05d6 8442     		cmp	r4, r0
 2069 05d8 2EDA     		bge	.L62
1015:lvgl/src/lv_widgets/lv_arc.c ****                                         _lv_trigo_sin(start_angle + 90)) * rin) >> LV_TRIGO_SHIFT) 
 2070              		.loc 1 1015 29 discriminator 1 view .LVU618
ARM GAS  D:\Temp\ccOOHxmt.s 			page 73


 2071 05da 3846     		mov	r0, r7
 2072 05dc FFF7FEFF 		bl	_lv_trigo_sin
 2073              	.LVL245:
 2074              	.L63:
1016:lvgl/src/lv_widgets/lv_arc.c ****         inv_area.y1 = y + ((_lv_trigo_sin(start_angle) * rout) >> LV_TRIGO_SHIFT) - extra_area;
 2075              		.loc 1 1016 74 view .LVU619
 2076 05e0 059B     		ldr	r3, [sp, #20]
 2077 05e2 00FB03F3 		mul	r3, r0, r3
1015:lvgl/src/lv_widgets/lv_arc.c ****                                         _lv_trigo_sin(start_angle + 90)) * rin) >> LV_TRIGO_SHIFT) 
 2078              		.loc 1 1015 25 view .LVU620
 2079 05e6 0BEBE333 		add	r3, fp, r3, asr #15
 2080 05ea 9BB2     		uxth	r3, r3
1016:lvgl/src/lv_widgets/lv_arc.c ****         inv_area.y1 = y + ((_lv_trigo_sin(start_angle) * rout) >> LV_TRIGO_SHIFT) - extra_area;
 2081              		.loc 1 1016 100 view .LVU621
 2082 05ec BDF81070 		ldrh	r7, [sp, #16]
 2083 05f0 DB1B     		subs	r3, r3, r7
1015:lvgl/src/lv_widgets/lv_arc.c ****                                         _lv_trigo_sin(start_angle + 90)) * rin) >> LV_TRIGO_SHIFT) 
 2084              		.loc 1 1015 21 view .LVU622
 2085 05f2 ADF82030 		strh	r3, [sp, #32]	@ movhi
1017:lvgl/src/lv_widgets/lv_arc.c ****         inv_area.x2 = x + rout + extra_area;
 2086              		.loc 1 1017 9 is_stmt 1 view .LVU623
1017:lvgl/src/lv_widgets/lv_arc.c ****         inv_area.x2 = x + rout + extra_area;
 2087              		.loc 1 1017 29 is_stmt 0 view .LVU624
 2088 05f6 0FFA89F0 		sxth	r0, r9
 2089 05fa FFF7FEFF 		bl	_lv_trigo_sin
 2090              	.LVL246:
1017:lvgl/src/lv_widgets/lv_arc.c ****         inv_area.x2 = x + rout + extra_area;
 2091              		.loc 1 1017 56 view .LVU625
 2092 05fe 0AFB00F3 		mul	r3, r10, r0
1017:lvgl/src/lv_widgets/lv_arc.c ****         inv_area.x2 = x + rout + extra_area;
 2093              		.loc 1 1017 25 view .LVU626
 2094 0602 08EBE333 		add	r3, r8, r3, asr #15
 2095 0606 9BB2     		uxth	r3, r3
1017:lvgl/src/lv_widgets/lv_arc.c ****         inv_area.x2 = x + rout + extra_area;
 2096              		.loc 1 1017 83 view .LVU627
 2097 0608 DB1B     		subs	r3, r3, r7
1017:lvgl/src/lv_widgets/lv_arc.c ****         inv_area.x2 = x + rout + extra_area;
 2098              		.loc 1 1017 21 view .LVU628
 2099 060a ADF82230 		strh	r3, [sp, #34]	@ movhi
1018:lvgl/src/lv_widgets/lv_arc.c ****         inv_area.y2 = y + ((_lv_trigo_sin(end_angle) * rout) >> LV_TRIGO_SHIFT) + extra_area;
 2100              		.loc 1 1018 9 is_stmt 1 view .LVU629
1018:lvgl/src/lv_widgets/lv_arc.c ****         inv_area.y2 = y + ((_lv_trigo_sin(end_angle) * rout) >> LV_TRIGO_SHIFT) + extra_area;
 2101              		.loc 1 1018 25 is_stmt 0 view .LVU630
 2102 060e 5E44     		add	r6, r6, fp
1018:lvgl/src/lv_widgets/lv_arc.c ****         inv_area.y2 = y + ((_lv_trigo_sin(end_angle) * rout) >> LV_TRIGO_SHIFT) + extra_area;
 2103              		.loc 1 1018 32 view .LVU631
 2104 0610 17FA86F6 		uxtah	r6, r7, r6
1018:lvgl/src/lv_widgets/lv_arc.c ****         inv_area.y2 = y + ((_lv_trigo_sin(end_angle) * rout) >> LV_TRIGO_SHIFT) + extra_area;
 2105              		.loc 1 1018 21 view .LVU632
 2106 0614 ADF82460 		strh	r6, [sp, #36]	@ movhi
1019:lvgl/src/lv_widgets/lv_arc.c **** 
 2107              		.loc 1 1019 9 is_stmt 1 view .LVU633
1019:lvgl/src/lv_widgets/lv_arc.c **** 
 2108              		.loc 1 1019 29 is_stmt 0 view .LVU634
 2109 0618 28B2     		sxth	r0, r5
 2110 061a FFF7FEFF 		bl	_lv_trigo_sin
 2111              	.LVL247:
ARM GAS  D:\Temp\ccOOHxmt.s 			page 74


1019:lvgl/src/lv_widgets/lv_arc.c **** 
 2112              		.loc 1 1019 54 view .LVU635
 2113 061e 00FB0AF0 		mul	r0, r0, r10
1019:lvgl/src/lv_widgets/lv_arc.c **** 
 2114              		.loc 1 1019 25 view .LVU636
 2115 0622 08EBE030 		add	r0, r8, r0, asr #15
1019:lvgl/src/lv_widgets/lv_arc.c **** 
 2116              		.loc 1 1019 81 view .LVU637
 2117 0626 17FA80F7 		uxtah	r7, r7, r0
1019:lvgl/src/lv_widgets/lv_arc.c **** 
 2118              		.loc 1 1019 21 view .LVU638
 2119 062a ADF82670 		strh	r7, [sp, #38]	@ movhi
1021:lvgl/src/lv_widgets/lv_arc.c ****     }
 2120              		.loc 1 1021 9 is_stmt 1 view .LVU639
 2121 062e 08A9     		add	r1, sp, #32
 2122 0630 0098     		ldr	r0, [sp]
 2123 0632 FFF7FEFF 		bl	lv_obj_invalidate_area
 2124              	.LVL248:
 2125 0636 EEE4     		b	.L37
 2126              	.L62:
1015:lvgl/src/lv_widgets/lv_arc.c ****                                         _lv_trigo_sin(start_angle + 90)) * rin) >> LV_TRIGO_SHIFT) 
 2127              		.loc 1 1015 29 is_stmt 0 discriminator 2 view .LVU640
 2128 0638 0198     		ldr	r0, [sp, #4]
 2129 063a FFF7FEFF 		bl	_lv_trigo_sin
 2130              	.LVL249:
 2131 063e CFE7     		b	.L63
 2132              		.cfi_endproc
 2133              	.LFE484:
 2135              		.section	.text.lv_arc_set_start_angle,"ax",%progbits
 2136              		.align	1
 2137              		.global	lv_arc_set_start_angle
 2138              		.syntax unified
 2139              		.thumb
 2140              		.thumb_func
 2141              		.fpu fpv4-sp-d16
 2143              	lv_arc_set_start_angle:
 2144              	.LVL250:
 2145              	.LFB459:
 159:lvgl/src/lv_widgets/lv_arc.c ****     LV_ASSERT_OBJ(arc, LV_OBJX_NAME);
 2146              		.loc 1 159 1 is_stmt 1 view -0
 2147              		.cfi_startproc
 2148              		@ args = 0, pretend = 0, frame = 0
 2149              		@ frame_needed = 0, uses_anonymous_args = 0
 159:lvgl/src/lv_widgets/lv_arc.c ****     LV_ASSERT_OBJ(arc, LV_OBJX_NAME);
 2150              		.loc 1 159 1 is_stmt 0 view .LVU642
 2151 0000 70B5     		push	{r4, r5, r6, lr}
 2152              	.LCFI15:
 2153              		.cfi_def_cfa_offset 16
 2154              		.cfi_offset 4, -16
 2155              		.cfi_offset 5, -12
 2156              		.cfi_offset 6, -8
 2157              		.cfi_offset 14, -4
 2158 0002 0546     		mov	r5, r0
 2159 0004 0C46     		mov	r4, r1
 160:lvgl/src/lv_widgets/lv_arc.c **** 
 2160              		.loc 1 160 5 is_stmt 1 view .LVU643
 160:lvgl/src/lv_widgets/lv_arc.c **** 
ARM GAS  D:\Temp\ccOOHxmt.s 			page 75


 2161              		.loc 1 160 5 view .LVU644
 2162 0006 FFF7FEFF 		bl	lv_debug_check_null
 2163              	.LVL251:
 160:lvgl/src/lv_widgets/lv_arc.c **** 
 2164              		.loc 1 160 5 is_stmt 0 view .LVU645
 2165 000a 28B9     		cbnz	r0, .L80
 160:lvgl/src/lv_widgets/lv_arc.c **** 
 2166              		.loc 1 160 5 is_stmt 1 discriminator 1 view .LVU646
 160:lvgl/src/lv_widgets/lv_arc.c **** 
 2167              		.loc 1 160 5 discriminator 1 view .LVU647
 2168 000c 2A46     		mov	r2, r5
 2169 000e 0023     		movs	r3, #0
 2170 0010 1F48     		ldr	r0, .L91
 2171 0012 FFF7FEFF 		bl	lv_debug_log_error
 2172              	.LVL252:
 2173              	.L81:
 160:lvgl/src/lv_widgets/lv_arc.c **** 
 2174              		.loc 1 160 5 discriminator 1 view .LVU648
 160:lvgl/src/lv_widgets/lv_arc.c **** 
 2175              		.loc 1 160 5 discriminator 1 view .LVU649
 2176 0016 FEE7     		b	.L81
 2177              	.L80:
 160:lvgl/src/lv_widgets/lv_arc.c **** 
 2178              		.loc 1 160 37 discriminator 2 view .LVU650
 162:lvgl/src/lv_widgets/lv_arc.c **** 
 2179              		.loc 1 162 5 discriminator 2 view .LVU651
 162:lvgl/src/lv_widgets/lv_arc.c **** 
 2180              		.loc 1 162 26 is_stmt 0 discriminator 2 view .LVU652
 2181 0018 2846     		mov	r0, r5
 2182 001a FFF7FEFF 		bl	lv_obj_get_ext_attr
 2183              	.LVL253:
 2184 001e 0646     		mov	r6, r0
 2185              	.LVL254:
 164:lvgl/src/lv_widgets/lv_arc.c **** 
 2186              		.loc 1 164 5 is_stmt 1 discriminator 2 view .LVU653
 164:lvgl/src/lv_widgets/lv_arc.c **** 
 2187              		.loc 1 164 7 is_stmt 0 discriminator 2 view .LVU654
 2188 0020 B4F5B47F 		cmp	r4, #360
 2189 0024 02D9     		bls	.L82
 164:lvgl/src/lv_widgets/lv_arc.c **** 
 2190              		.loc 1 164 21 is_stmt 1 discriminator 1 view .LVU655
 164:lvgl/src/lv_widgets/lv_arc.c **** 
 2191              		.loc 1 164 27 is_stmt 0 discriminator 1 view .LVU656
 2192 0026 A4F5B474 		sub	r4, r4, #360
 2193 002a A4B2     		uxth	r4, r4
 2194              	.LVL255:
 2195              	.L82:
 167:lvgl/src/lv_widgets/lv_arc.c ****         lv_obj_invalidate(arc);
 2196              		.loc 1 167 5 is_stmt 1 view .LVU657
 167:lvgl/src/lv_widgets/lv_arc.c ****         lv_obj_invalidate(arc);
 2197              		.loc 1 167 8 is_stmt 0 view .LVU658
 2198 002c 7188     		ldrh	r1, [r6, #2]
 2199 002e 631A     		subs	r3, r4, r1
 2200 0030 002B     		cmp	r3, #0
 2201 0032 B8BF     		it	lt
 2202 0034 5B42     		rsblt	r3, r3, #0
 167:lvgl/src/lv_widgets/lv_arc.c ****         lv_obj_invalidate(arc);
ARM GAS  D:\Temp\ccOOHxmt.s 			page 76


 2203              		.loc 1 167 7 view .LVU659
 2204 0036 B32B     		cmp	r3, #179
 2205 0038 0DDC     		bgt	.L88
 171:lvgl/src/lv_widgets/lv_arc.c ****         inv_arc_area(arc, LV_MATH_MIN(ext->arc_angle_start, start), LV_MATH_MAX(ext->arc_angle_star
 2206              		.loc 1 171 10 is_stmt 1 view .LVU660
 171:lvgl/src/lv_widgets/lv_arc.c ****         inv_arc_area(arc, LV_MATH_MIN(ext->arc_angle_start, start), LV_MATH_MAX(ext->arc_angle_star
 2207              		.loc 1 171 39 is_stmt 0 view .LVU661
 2208 003a B388     		ldrh	r3, [r6, #4]
 171:lvgl/src/lv_widgets/lv_arc.c ****         inv_arc_area(arc, LV_MATH_MIN(ext->arc_angle_start, start), LV_MATH_MAX(ext->arc_angle_star
 2209              		.loc 1 171 12 view .LVU662
 2210 003c 9942     		cmp	r1, r3
 2211 003e 01D9     		bls	.L85
 171:lvgl/src/lv_widgets/lv_arc.c ****         inv_arc_area(arc, LV_MATH_MIN(ext->arc_angle_start, start), LV_MATH_MAX(ext->arc_angle_star
 2212              		.loc 1 171 55 discriminator 1 view .LVU663
 2213 0040 A342     		cmp	r3, r4
 2214 0042 0CD3     		bcc	.L89
 2215              	.L85:
 176:lvgl/src/lv_widgets/lv_arc.c ****         inv_arc_area(arc, LV_MATH_MIN(ext->arc_angle_start, start), LV_MATH_MAX(ext->arc_angle_star
 2216              		.loc 1 176 10 is_stmt 1 view .LVU664
 176:lvgl/src/lv_widgets/lv_arc.c ****         inv_arc_area(arc, LV_MATH_MIN(ext->arc_angle_start, start), LV_MATH_MAX(ext->arc_angle_star
 2217              		.loc 1 176 12 is_stmt 0 view .LVU665
 2218 0044 9942     		cmp	r1, r3
 2219 0046 01D2     		bcs	.L86
 176:lvgl/src/lv_widgets/lv_arc.c ****         inv_arc_area(arc, LV_MATH_MIN(ext->arc_angle_start, start), LV_MATH_MAX(ext->arc_angle_star
 2220              		.loc 1 176 55 discriminator 1 view .LVU666
 2221 0048 A342     		cmp	r3, r4
 2222 004a 14D8     		bhi	.L90
 2223              	.L86:
 182:lvgl/src/lv_widgets/lv_arc.c ****     }
 2224              		.loc 1 182 9 is_stmt 1 view .LVU667
 2225 004c 2846     		mov	r0, r5
 2226              	.LVL256:
 182:lvgl/src/lv_widgets/lv_arc.c ****     }
 2227              		.loc 1 182 9 is_stmt 0 view .LVU668
 2228 004e FFF7FEFF 		bl	lv_obj_invalidate
 2229              	.LVL257:
 2230              	.L84:
 185:lvgl/src/lv_widgets/lv_arc.c **** }
 2231              		.loc 1 185 5 is_stmt 1 view .LVU669
 185:lvgl/src/lv_widgets/lv_arc.c **** }
 2232              		.loc 1 185 26 is_stmt 0 view .LVU670
 2233 0052 7480     		strh	r4, [r6, #2]	@ movhi
 186:lvgl/src/lv_widgets/lv_arc.c **** 
 2234              		.loc 1 186 1 view .LVU671
 2235 0054 70BD     		pop	{r4, r5, r6, pc}
 2236              	.LVL258:
 2237              	.L88:
 168:lvgl/src/lv_widgets/lv_arc.c ****     }
 2238              		.loc 1 168 9 is_stmt 1 view .LVU672
 2239 0056 2846     		mov	r0, r5
 2240              	.LVL259:
 168:lvgl/src/lv_widgets/lv_arc.c ****     }
 2241              		.loc 1 168 9 is_stmt 0 view .LVU673
 2242 0058 FFF7FEFF 		bl	lv_obj_invalidate
 2243              	.LVL260:
 2244 005c F9E7     		b	.L84
 2245              	.LVL261:
ARM GAS  D:\Temp\ccOOHxmt.s 			page 77


 2246              	.L89:
 172:lvgl/src/lv_widgets/lv_arc.c ****                      LV_ARC_PART_INDIC);
 2247              		.loc 1 172 9 is_stmt 1 view .LVU674
 2248 005e 0123     		movs	r3, #1
 2249 0060 0A46     		mov	r2, r1
 2250 0062 A142     		cmp	r1, r4
 2251 0064 38BF     		it	cc
 2252 0066 2246     		movcc	r2, r4
 2253 0068 A142     		cmp	r1, r4
 2254 006a 28BF     		it	cs
 2255 006c 2146     		movcs	r1, r4
 2256 006e 2846     		mov	r0, r5
 2257              	.LVL262:
 172:lvgl/src/lv_widgets/lv_arc.c ****                      LV_ARC_PART_INDIC);
 2258              		.loc 1 172 9 is_stmt 0 view .LVU675
 2259 0070 FFF7FEFF 		bl	inv_arc_area
 2260              	.LVL263:
 2261 0074 EDE7     		b	.L84
 2262              	.LVL264:
 2263              	.L90:
 177:lvgl/src/lv_widgets/lv_arc.c ****                      LV_ARC_PART_INDIC);
 2264              		.loc 1 177 9 is_stmt 1 view .LVU676
 2265 0076 0123     		movs	r3, #1
 2266 0078 0A46     		mov	r2, r1
 2267 007a A142     		cmp	r1, r4
 2268 007c 38BF     		it	cc
 2269 007e 2246     		movcc	r2, r4
 2270 0080 A142     		cmp	r1, r4
 2271 0082 28BF     		it	cs
 2272 0084 2146     		movcs	r1, r4
 2273 0086 2846     		mov	r0, r5
 2274              	.LVL265:
 177:lvgl/src/lv_widgets/lv_arc.c ****                      LV_ARC_PART_INDIC);
 2275              		.loc 1 177 9 is_stmt 0 view .LVU677
 2276 0088 FFF7FEFF 		bl	inv_arc_area
 2277              	.LVL266:
 2278 008c E1E7     		b	.L84
 2279              	.L92:
 2280 008e 00BF     		.align	2
 2281              	.L91:
 2282 0090 00000000 		.word	.LC0
 2283              		.cfi_endproc
 2284              	.LFE459:
 2286              		.section	.text.lv_arc_set_end_angle,"ax",%progbits
 2287              		.align	1
 2288              		.global	lv_arc_set_end_angle
 2289              		.syntax unified
 2290              		.thumb
 2291              		.thumb_func
 2292              		.fpu fpv4-sp-d16
 2294              	lv_arc_set_end_angle:
 2295              	.LVL267:
 2296              	.LFB460:
 194:lvgl/src/lv_widgets/lv_arc.c ****     LV_ASSERT_OBJ(arc, LV_OBJX_NAME);
 2297              		.loc 1 194 1 is_stmt 1 view -0
 2298              		.cfi_startproc
 2299              		@ args = 0, pretend = 0, frame = 0
ARM GAS  D:\Temp\ccOOHxmt.s 			page 78


 2300              		@ frame_needed = 0, uses_anonymous_args = 0
 194:lvgl/src/lv_widgets/lv_arc.c ****     LV_ASSERT_OBJ(arc, LV_OBJX_NAME);
 2301              		.loc 1 194 1 is_stmt 0 view .LVU679
 2302 0000 70B5     		push	{r4, r5, r6, lr}
 2303              	.LCFI16:
 2304              		.cfi_def_cfa_offset 16
 2305              		.cfi_offset 4, -16
 2306              		.cfi_offset 5, -12
 2307              		.cfi_offset 6, -8
 2308              		.cfi_offset 14, -4
 2309 0002 0546     		mov	r5, r0
 2310 0004 0C46     		mov	r4, r1
 195:lvgl/src/lv_widgets/lv_arc.c **** 
 2311              		.loc 1 195 5 is_stmt 1 view .LVU680
 195:lvgl/src/lv_widgets/lv_arc.c **** 
 2312              		.loc 1 195 5 view .LVU681
 2313 0006 FFF7FEFF 		bl	lv_debug_check_null
 2314              	.LVL268:
 195:lvgl/src/lv_widgets/lv_arc.c **** 
 2315              		.loc 1 195 5 is_stmt 0 view .LVU682
 2316 000a 28B9     		cbnz	r0, .L94
 195:lvgl/src/lv_widgets/lv_arc.c **** 
 2317              		.loc 1 195 5 is_stmt 1 discriminator 1 view .LVU683
 195:lvgl/src/lv_widgets/lv_arc.c **** 
 2318              		.loc 1 195 5 discriminator 1 view .LVU684
 2319 000c 2A46     		mov	r2, r5
 2320 000e 0023     		movs	r3, #0
 2321 0010 1E48     		ldr	r0, .L105
 2322 0012 FFF7FEFF 		bl	lv_debug_log_error
 2323              	.LVL269:
 2324              	.L95:
 195:lvgl/src/lv_widgets/lv_arc.c **** 
 2325              		.loc 1 195 5 discriminator 1 view .LVU685
 195:lvgl/src/lv_widgets/lv_arc.c **** 
 2326              		.loc 1 195 5 discriminator 1 view .LVU686
 2327 0016 FEE7     		b	.L95
 2328              	.L94:
 195:lvgl/src/lv_widgets/lv_arc.c **** 
 2329              		.loc 1 195 37 discriminator 2 view .LVU687
 197:lvgl/src/lv_widgets/lv_arc.c **** 
 2330              		.loc 1 197 5 discriminator 2 view .LVU688
 197:lvgl/src/lv_widgets/lv_arc.c **** 
 2331              		.loc 1 197 26 is_stmt 0 discriminator 2 view .LVU689
 2332 0018 2846     		mov	r0, r5
 2333 001a FFF7FEFF 		bl	lv_obj_get_ext_attr
 2334              	.LVL270:
 2335 001e 0646     		mov	r6, r0
 2336              	.LVL271:
 199:lvgl/src/lv_widgets/lv_arc.c **** 
 2337              		.loc 1 199 5 is_stmt 1 discriminator 2 view .LVU690
 199:lvgl/src/lv_widgets/lv_arc.c **** 
 2338              		.loc 1 199 18 is_stmt 0 discriminator 2 view .LVU691
 2339 0020 4388     		ldrh	r3, [r0, #2]
 199:lvgl/src/lv_widgets/lv_arc.c **** 
 2340              		.loc 1 199 36 discriminator 2 view .LVU692
 2341 0022 03F5B472 		add	r2, r3, #360
 199:lvgl/src/lv_widgets/lv_arc.c **** 
ARM GAS  D:\Temp\ccOOHxmt.s 			page 79


 2342              		.loc 1 199 7 discriminator 2 view .LVU693
 2343 0026 9442     		cmp	r4, r2
 2344 0028 00DD     		ble	.L96
 199:lvgl/src/lv_widgets/lv_arc.c **** 
 2345              		.loc 1 199 44 is_stmt 1 discriminator 1 view .LVU694
 199:lvgl/src/lv_widgets/lv_arc.c **** 
 2346              		.loc 1 199 48 is_stmt 0 discriminator 1 view .LVU695
 2347 002a 94B2     		uxth	r4, r2
 2348              	.LVL272:
 2349              	.L96:
 202:lvgl/src/lv_widgets/lv_arc.c ****         lv_obj_invalidate(arc);
 2350              		.loc 1 202 5 is_stmt 1 view .LVU696
 202:lvgl/src/lv_widgets/lv_arc.c ****         lv_obj_invalidate(arc);
 2351              		.loc 1 202 8 is_stmt 0 view .LVU697
 2352 002c B188     		ldrh	r1, [r6, #4]
 2353 002e 621A     		subs	r2, r4, r1
 2354 0030 002A     		cmp	r2, #0
 2355 0032 B8BF     		it	lt
 2356 0034 5242     		rsblt	r2, r2, #0
 202:lvgl/src/lv_widgets/lv_arc.c ****         lv_obj_invalidate(arc);
 2357              		.loc 1 202 7 view .LVU698
 2358 0036 B32A     		cmp	r2, #179
 2359 0038 0CDC     		bgt	.L102
 206:lvgl/src/lv_widgets/lv_arc.c ****         inv_arc_area(arc, LV_MATH_MIN(ext->arc_angle_end, end), LV_MATH_MAX(ext->arc_angle_end, end
 2360              		.loc 1 206 10 is_stmt 1 view .LVU699
 206:lvgl/src/lv_widgets/lv_arc.c ****         inv_arc_area(arc, LV_MATH_MIN(ext->arc_angle_end, end), LV_MATH_MAX(ext->arc_angle_end, end
 2361              		.loc 1 206 12 is_stmt 0 view .LVU700
 2362 003a 8B42     		cmp	r3, r1
 2363 003c 01D2     		bcs	.L99
 206:lvgl/src/lv_widgets/lv_arc.c ****         inv_arc_area(arc, LV_MATH_MIN(ext->arc_angle_end, end), LV_MATH_MAX(ext->arc_angle_end, end
 2364              		.loc 1 206 55 discriminator 1 view .LVU701
 2365 003e A342     		cmp	r3, r4
 2366 0040 0CD3     		bcc	.L103
 2367              	.L99:
 210:lvgl/src/lv_widgets/lv_arc.c ****         inv_arc_area(arc, LV_MATH_MIN(ext->arc_angle_end, end), LV_MATH_MAX(ext->arc_angle_end, end
 2368              		.loc 1 210 10 is_stmt 1 view .LVU702
 210:lvgl/src/lv_widgets/lv_arc.c ****         inv_arc_area(arc, LV_MATH_MIN(ext->arc_angle_end, end), LV_MATH_MAX(ext->arc_angle_end, end
 2369              		.loc 1 210 12 is_stmt 0 view .LVU703
 2370 0042 8B42     		cmp	r3, r1
 2371 0044 01D9     		bls	.L100
 210:lvgl/src/lv_widgets/lv_arc.c ****         inv_arc_area(arc, LV_MATH_MIN(ext->arc_angle_end, end), LV_MATH_MAX(ext->arc_angle_end, end
 2372              		.loc 1 210 55 discriminator 1 view .LVU704
 2373 0046 A342     		cmp	r3, r4
 2374 0048 14D8     		bhi	.L104
 2375              	.L100:
 215:lvgl/src/lv_widgets/lv_arc.c ****     }
 2376              		.loc 1 215 9 is_stmt 1 view .LVU705
 2377 004a 2846     		mov	r0, r5
 2378              	.LVL273:
 215:lvgl/src/lv_widgets/lv_arc.c ****     }
 2379              		.loc 1 215 9 is_stmt 0 view .LVU706
 2380 004c FFF7FEFF 		bl	lv_obj_invalidate
 2381              	.LVL274:
 2382              	.L98:
 218:lvgl/src/lv_widgets/lv_arc.c **** }
 2383              		.loc 1 218 5 is_stmt 1 view .LVU707
 218:lvgl/src/lv_widgets/lv_arc.c **** }
ARM GAS  D:\Temp\ccOOHxmt.s 			page 80


 2384              		.loc 1 218 24 is_stmt 0 view .LVU708
 2385 0050 B480     		strh	r4, [r6, #4]	@ movhi
 219:lvgl/src/lv_widgets/lv_arc.c **** 
 2386              		.loc 1 219 1 view .LVU709
 2387 0052 70BD     		pop	{r4, r5, r6, pc}
 2388              	.LVL275:
 2389              	.L102:
 203:lvgl/src/lv_widgets/lv_arc.c ****     }
 2390              		.loc 1 203 9 is_stmt 1 view .LVU710
 2391 0054 2846     		mov	r0, r5
 2392              	.LVL276:
 203:lvgl/src/lv_widgets/lv_arc.c ****     }
 2393              		.loc 1 203 9 is_stmt 0 view .LVU711
 2394 0056 FFF7FEFF 		bl	lv_obj_invalidate
 2395              	.LVL277:
 2396 005a F9E7     		b	.L98
 2397              	.LVL278:
 2398              	.L103:
 207:lvgl/src/lv_widgets/lv_arc.c ****     }
 2399              		.loc 1 207 9 is_stmt 1 view .LVU712
 2400 005c 0123     		movs	r3, #1
 2401 005e 0A46     		mov	r2, r1
 2402 0060 A142     		cmp	r1, r4
 2403 0062 38BF     		it	cc
 2404 0064 2246     		movcc	r2, r4
 2405 0066 A142     		cmp	r1, r4
 2406 0068 28BF     		it	cs
 2407 006a 2146     		movcs	r1, r4
 2408 006c 2846     		mov	r0, r5
 2409              	.LVL279:
 207:lvgl/src/lv_widgets/lv_arc.c ****     }
 2410              		.loc 1 207 9 is_stmt 0 view .LVU713
 2411 006e FFF7FEFF 		bl	inv_arc_area
 2412              	.LVL280:
 2413 0072 EDE7     		b	.L98
 2414              	.LVL281:
 2415              	.L104:
 211:lvgl/src/lv_widgets/lv_arc.c ****     }
 2416              		.loc 1 211 9 is_stmt 1 view .LVU714
 2417 0074 0123     		movs	r3, #1
 2418 0076 0A46     		mov	r2, r1
 2419 0078 A142     		cmp	r1, r4
 2420 007a 38BF     		it	cc
 2421 007c 2246     		movcc	r2, r4
 2422 007e A142     		cmp	r1, r4
 2423 0080 28BF     		it	cs
 2424 0082 2146     		movcs	r1, r4
 2425 0084 2846     		mov	r0, r5
 2426              	.LVL282:
 211:lvgl/src/lv_widgets/lv_arc.c ****     }
 2427              		.loc 1 211 9 is_stmt 0 view .LVU715
 2428 0086 FFF7FEFF 		bl	inv_arc_area
 2429              	.LVL283:
 2430 008a E1E7     		b	.L98
 2431              	.L106:
 2432              		.align	2
 2433              	.L105:
ARM GAS  D:\Temp\ccOOHxmt.s 			page 81


 2434 008c 00000000 		.word	.LC0
 2435              		.cfi_endproc
 2436              	.LFE460:
 2438              		.section	.text.value_update,"ax",%progbits
 2439              		.align	1
 2440              		.syntax unified
 2441              		.thumb
 2442              		.thumb_func
 2443              		.fpu fpv4-sp-d16
 2445              	value_update:
 2446              	.LVL284:
 2447              	.LFB487:
1079:lvgl/src/lv_widgets/lv_arc.c **** 
1080:lvgl/src/lv_widgets/lv_arc.c **** /**
1081:lvgl/src/lv_widgets/lv_arc.c ****  * Used internally to update arc angles after a value change
1082:lvgl/src/lv_widgets/lv_arc.c ****  * @param arc pointer to a arc object
1083:lvgl/src/lv_widgets/lv_arc.c ****  */
1084:lvgl/src/lv_widgets/lv_arc.c **** static void value_update(lv_obj_t * arc)
1085:lvgl/src/lv_widgets/lv_arc.c **** {
 2448              		.loc 1 1085 1 is_stmt 1 view -0
 2449              		.cfi_startproc
 2450              		@ args = 0, pretend = 0, frame = 0
 2451              		@ frame_needed = 0, uses_anonymous_args = 0
 2452              		.loc 1 1085 1 is_stmt 0 view .LVU717
 2453 0000 2DE9F041 		push	{r4, r5, r6, r7, r8, lr}
 2454              	.LCFI17:
 2455              		.cfi_def_cfa_offset 24
 2456              		.cfi_offset 4, -24
 2457              		.cfi_offset 5, -20
 2458              		.cfi_offset 6, -16
 2459              		.cfi_offset 7, -12
 2460              		.cfi_offset 8, -8
 2461              		.cfi_offset 14, -4
 2462 0004 82B0     		sub	sp, sp, #8
 2463              	.LCFI18:
 2464              		.cfi_def_cfa_offset 32
 2465 0006 0646     		mov	r6, r0
1086:lvgl/src/lv_widgets/lv_arc.c ****     lv_arc_ext_t * ext = (lv_arc_ext_t *)lv_obj_get_ext_attr(arc);
 2466              		.loc 1 1086 5 is_stmt 1 view .LVU718
 2467              		.loc 1 1086 42 is_stmt 0 view .LVU719
 2468 0008 FFF7FEFF 		bl	lv_obj_get_ext_attr
 2469              	.LVL285:
 2470              		.loc 1 1086 42 view .LVU720
 2471 000c 0446     		mov	r4, r0
 2472              	.LVL286:
1087:lvgl/src/lv_widgets/lv_arc.c **** 
1088:lvgl/src/lv_widgets/lv_arc.c ****     int16_t bg_midpoint, range_midpoint, bg_end = ext->bg_angle_end;
 2473              		.loc 1 1088 5 is_stmt 1 view .LVU721
 2474              		.loc 1 1088 54 is_stmt 0 view .LVU722
 2475 000e 0289     		ldrh	r2, [r0, #8]
 2476              		.loc 1 1088 42 view .LVU723
 2477 0010 15B2     		sxth	r5, r2
 2478              	.LVL287:
1089:lvgl/src/lv_widgets/lv_arc.c ****     if(ext->bg_angle_end < ext->bg_angle_start) bg_end = ext->bg_angle_end + 360;
 2479              		.loc 1 1089 5 is_stmt 1 view .LVU724
 2480              		.loc 1 1089 31 is_stmt 0 view .LVU725
 2481 0012 C388     		ldrh	r3, [r0, #6]
ARM GAS  D:\Temp\ccOOHxmt.s 			page 82


 2482              		.loc 1 1089 7 view .LVU726
 2483 0014 9A42     		cmp	r2, r3
 2484 0016 02D2     		bcs	.L108
 2485              		.loc 1 1089 49 is_stmt 1 discriminator 1 view .LVU727
 2486              		.loc 1 1089 76 is_stmt 0 discriminator 1 view .LVU728
 2487 0018 02F5B472 		add	r2, r2, #360
 2488              		.loc 1 1089 56 discriminator 1 view .LVU729
 2489 001c 15B2     		sxth	r5, r2
 2490              	.LVL288:
 2491              	.L108:
1090:lvgl/src/lv_widgets/lv_arc.c **** 
1091:lvgl/src/lv_widgets/lv_arc.c ****     int16_t angle;
 2492              		.loc 1 1091 5 is_stmt 1 view .LVU730
1092:lvgl/src/lv_widgets/lv_arc.c ****     switch(ext->type) {
 2493              		.loc 1 1092 5 view .LVU731
 2494              		.loc 1 1092 15 is_stmt 0 view .LVU732
 2495 001e 94F82220 		ldrb	r2, [r4, #34]	@ zero_extendqisi2
 2496 0022 C2F34102 		ubfx	r2, r2, #1, #2
 2497              		.loc 1 1092 5 view .LVU733
 2498 0026 012A     		cmp	r2, #1
 2499 0028 14D0     		beq	.L109
 2500              		.loc 1 1092 5 view .LVU734
 2501 002a 022A     		cmp	r2, #2
 2502 002c 46D0     		beq	.L110
1093:lvgl/src/lv_widgets/lv_arc.c ****         case LV_ARC_TYPE_SYMMETRIC:
1094:lvgl/src/lv_widgets/lv_arc.c ****             bg_midpoint = (ext->bg_angle_start + bg_end) / 2;
1095:lvgl/src/lv_widgets/lv_arc.c ****             range_midpoint = (int32_t)(ext->min_value + ext->max_value) / 2;
1096:lvgl/src/lv_widgets/lv_arc.c **** 
1097:lvgl/src/lv_widgets/lv_arc.c ****             if(ext->cur_value < range_midpoint) {
1098:lvgl/src/lv_widgets/lv_arc.c ****                 angle = _lv_map(ext->cur_value, ext->min_value, range_midpoint, ext->bg_angle_start
1099:lvgl/src/lv_widgets/lv_arc.c ****                 lv_arc_set_start_angle(arc, angle);
1100:lvgl/src/lv_widgets/lv_arc.c ****                 lv_arc_set_end_angle(arc, bg_midpoint);
1101:lvgl/src/lv_widgets/lv_arc.c ****             }
1102:lvgl/src/lv_widgets/lv_arc.c ****             else {
1103:lvgl/src/lv_widgets/lv_arc.c ****                 angle = _lv_map(ext->cur_value, range_midpoint, ext->max_value, bg_midpoint, bg_end
1104:lvgl/src/lv_widgets/lv_arc.c ****                 lv_arc_set_start_angle(arc, bg_midpoint);
1105:lvgl/src/lv_widgets/lv_arc.c ****                 lv_arc_set_end_angle(arc, angle);
1106:lvgl/src/lv_widgets/lv_arc.c ****             }
1107:lvgl/src/lv_widgets/lv_arc.c ****             break;
1108:lvgl/src/lv_widgets/lv_arc.c ****         case LV_ARC_TYPE_REVERSE:
1109:lvgl/src/lv_widgets/lv_arc.c ****             angle = _lv_map(ext->cur_value, ext->min_value, ext->max_value, ext->bg_angle_start, bg
1110:lvgl/src/lv_widgets/lv_arc.c ****             lv_arc_set_start_angle(arc, angle);
1111:lvgl/src/lv_widgets/lv_arc.c ****             break;
1112:lvgl/src/lv_widgets/lv_arc.c ****         default: /** LV_ARC_TYPE_NORMAL*/
1113:lvgl/src/lv_widgets/lv_arc.c ****             angle = _lv_map(ext->cur_value, ext->min_value, ext->max_value, ext->bg_angle_start, bg
 2503              		.loc 1 1113 13 is_stmt 1 view .LVU735
 2504              		.loc 1 1113 32 is_stmt 0 view .LVU736
 2505 002e B4F91C00 		ldrsh	r0, [r4, #28]
 2506              	.LVL289:
 2507              		.loc 1 1113 48 view .LVU737
 2508 0032 B4F91E10 		ldrsh	r1, [r4, #30]
 2509              		.loc 1 1113 64 view .LVU738
 2510 0036 B4F92020 		ldrsh	r2, [r4, #32]
 2511              		.loc 1 1113 21 view .LVU739
 2512 003a 0095     		str	r5, [sp]
 2513 003c FFF7FEFF 		bl	_lv_map
 2514              	.LVL290:
ARM GAS  D:\Temp\ccOOHxmt.s 			page 83


 2515              		.loc 1 1113 19 view .LVU740
 2516 0040 05B2     		sxth	r5, r0
 2517              	.LVL291:
1114:lvgl/src/lv_widgets/lv_arc.c ****             lv_arc_set_end_angle(arc, angle);
 2518              		.loc 1 1114 13 is_stmt 1 view .LVU741
 2519 0042 81B2     		uxth	r1, r0
 2520 0044 3046     		mov	r0, r6
 2521 0046 FFF7FEFF 		bl	lv_arc_set_end_angle
 2522              	.LVL292:
1115:lvgl/src/lv_widgets/lv_arc.c ****             lv_arc_set_start_angle(arc, ext->bg_angle_start);
 2523              		.loc 1 1115 13 view .LVU742
 2524 004a E188     		ldrh	r1, [r4, #6]
 2525 004c 3046     		mov	r0, r6
 2526 004e FFF7FEFF 		bl	lv_arc_set_start_angle
 2527              	.LVL293:
 2528 0052 41E0     		b	.L113
 2529              	.LVL294:
 2530              	.L109:
1094:lvgl/src/lv_widgets/lv_arc.c ****             range_midpoint = (int32_t)(ext->min_value + ext->max_value) / 2;
 2531              		.loc 1 1094 13 view .LVU743
1094:lvgl/src/lv_widgets/lv_arc.c ****             range_midpoint = (int32_t)(ext->min_value + ext->max_value) / 2;
 2532              		.loc 1 1094 48 is_stmt 0 view .LVU744
 2533 0054 5F19     		adds	r7, r3, r5
1094:lvgl/src/lv_widgets/lv_arc.c ****             range_midpoint = (int32_t)(ext->min_value + ext->max_value) / 2;
 2534              		.loc 1 1094 58 view .LVU745
 2535 0056 07EBD777 		add	r7, r7, r7, lsr #31
 2536 005a 7F10     		asrs	r7, r7, #1
1094:lvgl/src/lv_widgets/lv_arc.c ****             range_midpoint = (int32_t)(ext->min_value + ext->max_value) / 2;
 2537              		.loc 1 1094 25 view .LVU746
 2538 005c 0FFA87FE 		sxth	lr, r7
 2539              	.LVL295:
1095:lvgl/src/lv_widgets/lv_arc.c **** 
 2540              		.loc 1 1095 13 is_stmt 1 view .LVU747
1095:lvgl/src/lv_widgets/lv_arc.c **** 
 2541              		.loc 1 1095 43 is_stmt 0 view .LVU748
 2542 0060 B4F91EC0 		ldrsh	ip, [r4, #30]
1095:lvgl/src/lv_widgets/lv_arc.c **** 
 2543              		.loc 1 1095 60 view .LVU749
 2544 0064 B4F92020 		ldrsh	r2, [r4, #32]
1095:lvgl/src/lv_widgets/lv_arc.c **** 
 2545              		.loc 1 1095 55 view .LVU750
 2546 0068 0CEB0200 		add	r0, ip, r2
 2547              	.LVL296:
1095:lvgl/src/lv_widgets/lv_arc.c **** 
 2548              		.loc 1 1095 73 view .LVU751
 2549 006c 00EBD070 		add	r0, r0, r0, lsr #31
1095:lvgl/src/lv_widgets/lv_arc.c **** 
 2550              		.loc 1 1095 28 view .LVU752
 2551 0070 40F34F01 		sbfx	r1, r0, #1, #16
 2552              	.LVL297:
1097:lvgl/src/lv_widgets/lv_arc.c ****                 angle = _lv_map(ext->cur_value, ext->min_value, range_midpoint, ext->bg_angle_start
 2553              		.loc 1 1097 13 is_stmt 1 view .LVU753
1097:lvgl/src/lv_widgets/lv_arc.c ****                 angle = _lv_map(ext->cur_value, ext->min_value, range_midpoint, ext->bg_angle_start
 2554              		.loc 1 1097 19 is_stmt 0 view .LVU754
 2555 0074 B4F91C00 		ldrsh	r0, [r4, #28]
1097:lvgl/src/lv_widgets/lv_arc.c ****                 angle = _lv_map(ext->cur_value, ext->min_value, range_midpoint, ext->bg_angle_start
 2556              		.loc 1 1097 15 view .LVU755
ARM GAS  D:\Temp\ccOOHxmt.s 			page 84


 2557 0078 8842     		cmp	r0, r1
 2558 007a 0FDA     		bge	.L112
1098:lvgl/src/lv_widgets/lv_arc.c ****                 lv_arc_set_start_angle(arc, angle);
 2559              		.loc 1 1098 17 is_stmt 1 view .LVU756
1098:lvgl/src/lv_widgets/lv_arc.c ****                 lv_arc_set_start_angle(arc, angle);
 2560              		.loc 1 1098 25 is_stmt 0 view .LVU757
 2561 007c CDF800E0 		str	lr, [sp]
 2562 0080 0A46     		mov	r2, r1
 2563 0082 6146     		mov	r1, ip
 2564              	.LVL298:
1098:lvgl/src/lv_widgets/lv_arc.c ****                 lv_arc_set_start_angle(arc, angle);
 2565              		.loc 1 1098 25 view .LVU758
 2566 0084 FFF7FEFF 		bl	_lv_map
 2567              	.LVL299:
1098:lvgl/src/lv_widgets/lv_arc.c ****                 lv_arc_set_start_angle(arc, angle);
 2568              		.loc 1 1098 23 view .LVU759
 2569 0088 05B2     		sxth	r5, r0
 2570              	.LVL300:
1099:lvgl/src/lv_widgets/lv_arc.c ****                 lv_arc_set_end_angle(arc, bg_midpoint);
 2571              		.loc 1 1099 17 is_stmt 1 view .LVU760
 2572 008a 81B2     		uxth	r1, r0
 2573 008c 3046     		mov	r0, r6
 2574 008e FFF7FEFF 		bl	lv_arc_set_start_angle
 2575              	.LVL301:
1100:lvgl/src/lv_widgets/lv_arc.c ****             }
 2576              		.loc 1 1100 17 view .LVU761
 2577 0092 B9B2     		uxth	r1, r7
 2578 0094 3046     		mov	r0, r6
 2579 0096 FFF7FEFF 		bl	lv_arc_set_end_angle
 2580              	.LVL302:
 2581 009a 1DE0     		b	.L113
 2582              	.LVL303:
 2583              	.L112:
1103:lvgl/src/lv_widgets/lv_arc.c ****                 lv_arc_set_start_angle(arc, bg_midpoint);
 2584              		.loc 1 1103 17 view .LVU762
1103:lvgl/src/lv_widgets/lv_arc.c ****                 lv_arc_set_start_angle(arc, bg_midpoint);
 2585              		.loc 1 1103 25 is_stmt 0 view .LVU763
 2586 009c 0095     		str	r5, [sp]
 2587 009e 7346     		mov	r3, lr
 2588 00a0 FFF7FEFF 		bl	_lv_map
 2589              	.LVL304:
1103:lvgl/src/lv_widgets/lv_arc.c ****                 lv_arc_set_start_angle(arc, bg_midpoint);
 2590              		.loc 1 1103 25 view .LVU764
 2591 00a4 8046     		mov	r8, r0
1103:lvgl/src/lv_widgets/lv_arc.c ****                 lv_arc_set_start_angle(arc, bg_midpoint);
 2592              		.loc 1 1103 23 view .LVU765
 2593 00a6 05B2     		sxth	r5, r0
 2594              	.LVL305:
1104:lvgl/src/lv_widgets/lv_arc.c ****                 lv_arc_set_end_angle(arc, angle);
 2595              		.loc 1 1104 17 is_stmt 1 view .LVU766
 2596 00a8 B9B2     		uxth	r1, r7
 2597 00aa 3046     		mov	r0, r6
 2598 00ac FFF7FEFF 		bl	lv_arc_set_start_angle
 2599              	.LVL306:
1105:lvgl/src/lv_widgets/lv_arc.c ****             }
 2600              		.loc 1 1105 17 view .LVU767
 2601 00b0 1FFA88F1 		uxth	r1, r8
ARM GAS  D:\Temp\ccOOHxmt.s 			page 85


 2602 00b4 3046     		mov	r0, r6
 2603 00b6 FFF7FEFF 		bl	lv_arc_set_end_angle
 2604              	.LVL307:
 2605 00ba 0DE0     		b	.L113
 2606              	.LVL308:
 2607              	.L110:
1109:lvgl/src/lv_widgets/lv_arc.c ****             lv_arc_set_start_angle(arc, angle);
 2608              		.loc 1 1109 13 view .LVU768
1109:lvgl/src/lv_widgets/lv_arc.c ****             lv_arc_set_start_angle(arc, angle);
 2609              		.loc 1 1109 32 is_stmt 0 view .LVU769
 2610 00bc B4F91C00 		ldrsh	r0, [r4, #28]
 2611              	.LVL309:
1109:lvgl/src/lv_widgets/lv_arc.c ****             lv_arc_set_start_angle(arc, angle);
 2612              		.loc 1 1109 48 view .LVU770
 2613 00c0 B4F91E10 		ldrsh	r1, [r4, #30]
1109:lvgl/src/lv_widgets/lv_arc.c ****             lv_arc_set_start_angle(arc, angle);
 2614              		.loc 1 1109 64 view .LVU771
 2615 00c4 B4F92020 		ldrsh	r2, [r4, #32]
1109:lvgl/src/lv_widgets/lv_arc.c ****             lv_arc_set_start_angle(arc, angle);
 2616              		.loc 1 1109 21 view .LVU772
 2617 00c8 0095     		str	r5, [sp]
 2618 00ca FFF7FEFF 		bl	_lv_map
 2619              	.LVL310:
1109:lvgl/src/lv_widgets/lv_arc.c ****             lv_arc_set_start_angle(arc, angle);
 2620              		.loc 1 1109 19 view .LVU773
 2621 00ce 05B2     		sxth	r5, r0
 2622              	.LVL311:
1110:lvgl/src/lv_widgets/lv_arc.c ****             break;
 2623              		.loc 1 1110 13 is_stmt 1 view .LVU774
 2624 00d0 81B2     		uxth	r1, r0
 2625 00d2 3046     		mov	r0, r6
 2626 00d4 FFF7FEFF 		bl	lv_arc_set_start_angle
 2627              	.LVL312:
1111:lvgl/src/lv_widgets/lv_arc.c ****         default: /** LV_ARC_TYPE_NORMAL*/
 2628              		.loc 1 1111 13 view .LVU775
 2629              	.L113:
1116:lvgl/src/lv_widgets/lv_arc.c ****     }
1117:lvgl/src/lv_widgets/lv_arc.c ****     ext->last_angle = angle; /*Cache angle for slew rate limiting*/
 2630              		.loc 1 1117 5 view .LVU776
 2631              		.loc 1 1117 21 is_stmt 0 view .LVU777
 2632 00d8 A585     		strh	r5, [r4, #44]	@ movhi
1118:lvgl/src/lv_widgets/lv_arc.c **** }
 2633              		.loc 1 1118 1 view .LVU778
 2634 00da 02B0     		add	sp, sp, #8
 2635              	.LCFI19:
 2636              		.cfi_def_cfa_offset 24
 2637              		@ sp needed
 2638 00dc BDE8F081 		pop	{r4, r5, r6, r7, r8, pc}
 2639              		.loc 1 1118 1 view .LVU779
 2640              		.cfi_endproc
 2641              	.LFE487:
 2643              		.section	.text.lv_arc_set_angles,"ax",%progbits
 2644              		.align	1
 2645              		.global	lv_arc_set_angles
 2646              		.syntax unified
 2647              		.thumb
 2648              		.thumb_func
ARM GAS  D:\Temp\ccOOHxmt.s 			page 86


 2649              		.fpu fpv4-sp-d16
 2651              	lv_arc_set_angles:
 2652              	.LVL313:
 2653              	.LFB461:
 228:lvgl/src/lv_widgets/lv_arc.c ****     LV_ASSERT_OBJ(arc, LV_OBJX_NAME);
 2654              		.loc 1 228 1 is_stmt 1 view -0
 2655              		.cfi_startproc
 2656              		@ args = 0, pretend = 0, frame = 0
 2657              		@ frame_needed = 0, uses_anonymous_args = 0
 228:lvgl/src/lv_widgets/lv_arc.c ****     LV_ASSERT_OBJ(arc, LV_OBJX_NAME);
 2658              		.loc 1 228 1 is_stmt 0 view .LVU781
 2659 0000 F8B5     		push	{r3, r4, r5, r6, r7, lr}
 2660              	.LCFI20:
 2661              		.cfi_def_cfa_offset 24
 2662              		.cfi_offset 3, -24
 2663              		.cfi_offset 4, -20
 2664              		.cfi_offset 5, -16
 2665              		.cfi_offset 6, -12
 2666              		.cfi_offset 7, -8
 2667              		.cfi_offset 14, -4
 2668 0002 0646     		mov	r6, r0
 2669 0004 0C46     		mov	r4, r1
 2670 0006 1546     		mov	r5, r2
 229:lvgl/src/lv_widgets/lv_arc.c **** 
 2671              		.loc 1 229 5 is_stmt 1 view .LVU782
 229:lvgl/src/lv_widgets/lv_arc.c **** 
 2672              		.loc 1 229 5 view .LVU783
 2673 0008 FFF7FEFF 		bl	lv_debug_check_null
 2674              	.LVL314:
 229:lvgl/src/lv_widgets/lv_arc.c **** 
 2675              		.loc 1 229 5 is_stmt 0 view .LVU784
 2676 000c 28B9     		cbnz	r0, .L117
 229:lvgl/src/lv_widgets/lv_arc.c **** 
 2677              		.loc 1 229 5 is_stmt 1 discriminator 1 view .LVU785
 229:lvgl/src/lv_widgets/lv_arc.c **** 
 2678              		.loc 1 229 5 discriminator 1 view .LVU786
 2679 000e 3246     		mov	r2, r6
 2680 0010 0023     		movs	r3, #0
 2681 0012 1148     		ldr	r0, .L122
 2682 0014 FFF7FEFF 		bl	lv_debug_log_error
 2683              	.LVL315:
 2684              	.L118:
 229:lvgl/src/lv_widgets/lv_arc.c **** 
 2685              		.loc 1 229 5 discriminator 1 view .LVU787
 229:lvgl/src/lv_widgets/lv_arc.c **** 
 2686              		.loc 1 229 5 discriminator 1 view .LVU788
 2687 0018 FEE7     		b	.L118
 2688              	.L117:
 229:lvgl/src/lv_widgets/lv_arc.c **** 
 2689              		.loc 1 229 37 discriminator 2 view .LVU789
 231:lvgl/src/lv_widgets/lv_arc.c **** 
 2690              		.loc 1 231 5 discriminator 2 view .LVU790
 231:lvgl/src/lv_widgets/lv_arc.c **** 
 2691              		.loc 1 231 26 is_stmt 0 discriminator 2 view .LVU791
 2692 001a 3046     		mov	r0, r6
 2693 001c FFF7FEFF 		bl	lv_obj_get_ext_attr
 2694              	.LVL316:
ARM GAS  D:\Temp\ccOOHxmt.s 			page 87


 2695 0020 0746     		mov	r7, r0
 2696              	.LVL317:
 233:lvgl/src/lv_widgets/lv_arc.c ****     if(end > (start + 360)) end = start + 360;
 2697              		.loc 1 233 5 is_stmt 1 discriminator 2 view .LVU792
 233:lvgl/src/lv_widgets/lv_arc.c ****     if(end > (start + 360)) end = start + 360;
 2698              		.loc 1 233 7 is_stmt 0 discriminator 2 view .LVU793
 2699 0022 B4F5B47F 		cmp	r4, #360
 2700 0026 02D9     		bls	.L119
 233:lvgl/src/lv_widgets/lv_arc.c ****     if(end > (start + 360)) end = start + 360;
 2701              		.loc 1 233 21 is_stmt 1 discriminator 1 view .LVU794
 233:lvgl/src/lv_widgets/lv_arc.c ****     if(end > (start + 360)) end = start + 360;
 2702              		.loc 1 233 27 is_stmt 0 discriminator 1 view .LVU795
 2703 0028 A4F5B474 		sub	r4, r4, #360
 2704 002c A4B2     		uxth	r4, r4
 2705              	.LVL318:
 2706              	.L119:
 234:lvgl/src/lv_widgets/lv_arc.c **** 
 2707              		.loc 1 234 5 is_stmt 1 view .LVU796
 234:lvgl/src/lv_widgets/lv_arc.c **** 
 2708              		.loc 1 234 21 is_stmt 0 view .LVU797
 2709 002e 04F5B473 		add	r3, r4, #360
 234:lvgl/src/lv_widgets/lv_arc.c **** 
 2710              		.loc 1 234 7 view .LVU798
 2711 0032 9D42     		cmp	r5, r3
 2712 0034 00DD     		ble	.L120
 234:lvgl/src/lv_widgets/lv_arc.c **** 
 2713              		.loc 1 234 29 is_stmt 1 discriminator 1 view .LVU799
 234:lvgl/src/lv_widgets/lv_arc.c **** 
 2714              		.loc 1 234 33 is_stmt 0 discriminator 1 view .LVU800
 2715 0036 9DB2     		uxth	r5, r3
 2716              	.LVL319:
 2717              	.L120:
 236:lvgl/src/lv_widgets/lv_arc.c **** 
 2718              		.loc 1 236 5 is_stmt 1 view .LVU801
 2719 0038 0123     		movs	r3, #1
 2720 003a BA88     		ldrh	r2, [r7, #4]
 2721 003c 7988     		ldrh	r1, [r7, #2]
 2722 003e 3046     		mov	r0, r6
 2723              	.LVL320:
 236:lvgl/src/lv_widgets/lv_arc.c **** 
 2724              		.loc 1 236 5 is_stmt 0 view .LVU802
 2725 0040 FFF7FEFF 		bl	inv_arc_area
 2726              	.LVL321:
 238:lvgl/src/lv_widgets/lv_arc.c ****     ext->arc_angle_end = end;
 2727              		.loc 1 238 5 is_stmt 1 view .LVU803
 238:lvgl/src/lv_widgets/lv_arc.c ****     ext->arc_angle_end = end;
 2728              		.loc 1 238 26 is_stmt 0 view .LVU804
 2729 0044 7C80     		strh	r4, [r7, #2]	@ movhi
 239:lvgl/src/lv_widgets/lv_arc.c **** 
 2730              		.loc 1 239 5 is_stmt 1 view .LVU805
 239:lvgl/src/lv_widgets/lv_arc.c **** 
 2731              		.loc 1 239 24 is_stmt 0 view .LVU806
 2732 0046 BD80     		strh	r5, [r7, #4]	@ movhi
 241:lvgl/src/lv_widgets/lv_arc.c **** }
 2733              		.loc 1 241 5 is_stmt 1 view .LVU807
 2734 0048 0123     		movs	r3, #1
 2735 004a 2A46     		mov	r2, r5
ARM GAS  D:\Temp\ccOOHxmt.s 			page 88


 2736 004c 2146     		mov	r1, r4
 2737 004e 3046     		mov	r0, r6
 2738 0050 FFF7FEFF 		bl	inv_arc_area
 2739              	.LVL322:
 242:lvgl/src/lv_widgets/lv_arc.c **** 
 2740              		.loc 1 242 1 is_stmt 0 view .LVU808
 2741 0054 F8BD     		pop	{r3, r4, r5, r6, r7, pc}
 2742              	.LVL323:
 2743              	.L123:
 242:lvgl/src/lv_widgets/lv_arc.c **** 
 2744              		.loc 1 242 1 view .LVU809
 2745 0056 00BF     		.align	2
 2746              	.L122:
 2747 0058 00000000 		.word	.LC0
 2748              		.cfi_endproc
 2749              	.LFE461:
 2751              		.section	.text.lv_arc_set_bg_start_angle,"ax",%progbits
 2752              		.align	1
 2753              		.global	lv_arc_set_bg_start_angle
 2754              		.syntax unified
 2755              		.thumb
 2756              		.thumb_func
 2757              		.fpu fpv4-sp-d16
 2759              	lv_arc_set_bg_start_angle:
 2760              	.LVL324:
 2761              	.LFB462:
 250:lvgl/src/lv_widgets/lv_arc.c ****     LV_ASSERT_OBJ(arc, LV_OBJX_NAME);
 2762              		.loc 1 250 1 is_stmt 1 view -0
 2763              		.cfi_startproc
 2764              		@ args = 0, pretend = 0, frame = 0
 2765              		@ frame_needed = 0, uses_anonymous_args = 0
 250:lvgl/src/lv_widgets/lv_arc.c ****     LV_ASSERT_OBJ(arc, LV_OBJX_NAME);
 2766              		.loc 1 250 1 is_stmt 0 view .LVU811
 2767 0000 70B5     		push	{r4, r5, r6, lr}
 2768              	.LCFI21:
 2769              		.cfi_def_cfa_offset 16
 2770              		.cfi_offset 4, -16
 2771              		.cfi_offset 5, -12
 2772              		.cfi_offset 6, -8
 2773              		.cfi_offset 14, -4
 2774 0002 0546     		mov	r5, r0
 2775 0004 0C46     		mov	r4, r1
 251:lvgl/src/lv_widgets/lv_arc.c **** 
 2776              		.loc 1 251 5 is_stmt 1 view .LVU812
 251:lvgl/src/lv_widgets/lv_arc.c **** 
 2777              		.loc 1 251 5 view .LVU813
 2778 0006 FFF7FEFF 		bl	lv_debug_check_null
 2779              	.LVL325:
 251:lvgl/src/lv_widgets/lv_arc.c **** 
 2780              		.loc 1 251 5 is_stmt 0 view .LVU814
 2781 000a 28B9     		cbnz	r0, .L125
 251:lvgl/src/lv_widgets/lv_arc.c **** 
 2782              		.loc 1 251 5 is_stmt 1 discriminator 1 view .LVU815
 251:lvgl/src/lv_widgets/lv_arc.c **** 
 2783              		.loc 1 251 5 discriminator 1 view .LVU816
 2784 000c 2A46     		mov	r2, r5
 2785 000e 0023     		movs	r3, #0
ARM GAS  D:\Temp\ccOOHxmt.s 			page 89


 2786 0010 2048     		ldr	r0, .L136
 2787 0012 FFF7FEFF 		bl	lv_debug_log_error
 2788              	.LVL326:
 2789              	.L126:
 251:lvgl/src/lv_widgets/lv_arc.c **** 
 2790              		.loc 1 251 5 discriminator 1 view .LVU817
 251:lvgl/src/lv_widgets/lv_arc.c **** 
 2791              		.loc 1 251 5 discriminator 1 view .LVU818
 2792 0016 FEE7     		b	.L126
 2793              	.L125:
 251:lvgl/src/lv_widgets/lv_arc.c **** 
 2794              		.loc 1 251 37 discriminator 2 view .LVU819
 253:lvgl/src/lv_widgets/lv_arc.c **** 
 2795              		.loc 1 253 5 discriminator 2 view .LVU820
 253:lvgl/src/lv_widgets/lv_arc.c **** 
 2796              		.loc 1 253 26 is_stmt 0 discriminator 2 view .LVU821
 2797 0018 2846     		mov	r0, r5
 2798 001a FFF7FEFF 		bl	lv_obj_get_ext_attr
 2799              	.LVL327:
 2800 001e 0646     		mov	r6, r0
 2801              	.LVL328:
 255:lvgl/src/lv_widgets/lv_arc.c **** 
 2802              		.loc 1 255 5 is_stmt 1 discriminator 2 view .LVU822
 255:lvgl/src/lv_widgets/lv_arc.c **** 
 2803              		.loc 1 255 7 is_stmt 0 discriminator 2 view .LVU823
 2804 0020 B4F5B47F 		cmp	r4, #360
 2805 0024 02D9     		bls	.L127
 255:lvgl/src/lv_widgets/lv_arc.c **** 
 2806              		.loc 1 255 21 is_stmt 1 discriminator 1 view .LVU824
 255:lvgl/src/lv_widgets/lv_arc.c **** 
 2807              		.loc 1 255 27 is_stmt 0 discriminator 1 view .LVU825
 2808 0026 A4F5B474 		sub	r4, r4, #360
 2809 002a A4B2     		uxth	r4, r4
 2810              	.LVL329:
 2811              	.L127:
 258:lvgl/src/lv_widgets/lv_arc.c ****         lv_obj_invalidate(arc);
 2812              		.loc 1 258 5 is_stmt 1 view .LVU826
 258:lvgl/src/lv_widgets/lv_arc.c ****         lv_obj_invalidate(arc);
 2813              		.loc 1 258 8 is_stmt 0 view .LVU827
 2814 002c F188     		ldrh	r1, [r6, #6]
 2815 002e 631A     		subs	r3, r4, r1
 2816 0030 002B     		cmp	r3, #0
 2817 0032 B8BF     		it	lt
 2818 0034 5B42     		rsblt	r3, r3, #0
 258:lvgl/src/lv_widgets/lv_arc.c ****         lv_obj_invalidate(arc);
 2819              		.loc 1 258 7 view .LVU828
 2820 0036 B32B     		cmp	r3, #179
 2821 0038 10DC     		bgt	.L133
 262:lvgl/src/lv_widgets/lv_arc.c ****         inv_arc_area(arc, LV_MATH_MIN(ext->bg_angle_start, start), LV_MATH_MAX(ext->bg_angle_start,
 2822              		.loc 1 262 10 is_stmt 1 view .LVU829
 262:lvgl/src/lv_widgets/lv_arc.c ****         inv_arc_area(arc, LV_MATH_MIN(ext->bg_angle_start, start), LV_MATH_MAX(ext->bg_angle_start,
 2823              		.loc 1 262 38 is_stmt 0 view .LVU830
 2824 003a 3389     		ldrh	r3, [r6, #8]
 262:lvgl/src/lv_widgets/lv_arc.c ****         inv_arc_area(arc, LV_MATH_MIN(ext->bg_angle_start, start), LV_MATH_MAX(ext->bg_angle_start,
 2825              		.loc 1 262 12 view .LVU831
 2826 003c 9942     		cmp	r1, r3
 2827 003e 01D9     		bls	.L130
ARM GAS  D:\Temp\ccOOHxmt.s 			page 90


 262:lvgl/src/lv_widgets/lv_arc.c ****         inv_arc_area(arc, LV_MATH_MIN(ext->bg_angle_start, start), LV_MATH_MAX(ext->bg_angle_start,
 2828              		.loc 1 262 53 discriminator 1 view .LVU832
 2829 0040 A342     		cmp	r3, r4
 2830 0042 0FD3     		bcc	.L134
 2831              	.L130:
 266:lvgl/src/lv_widgets/lv_arc.c ****         inv_arc_area(arc, LV_MATH_MIN(ext->bg_angle_start, start), LV_MATH_MAX(ext->bg_angle_start,
 2832              		.loc 1 266 10 is_stmt 1 view .LVU833
 266:lvgl/src/lv_widgets/lv_arc.c ****         inv_arc_area(arc, LV_MATH_MIN(ext->bg_angle_start, start), LV_MATH_MAX(ext->bg_angle_start,
 2833              		.loc 1 266 12 is_stmt 0 view .LVU834
 2834 0044 9942     		cmp	r1, r3
 2835 0046 01D2     		bcs	.L131
 266:lvgl/src/lv_widgets/lv_arc.c ****         inv_arc_area(arc, LV_MATH_MIN(ext->bg_angle_start, start), LV_MATH_MAX(ext->bg_angle_start,
 2836              		.loc 1 266 53 discriminator 1 view .LVU835
 2837 0048 A342     		cmp	r3, r4
 2838 004a 17D8     		bhi	.L135
 2839              	.L131:
 271:lvgl/src/lv_widgets/lv_arc.c ****     }
 2840              		.loc 1 271 9 is_stmt 1 view .LVU836
 2841 004c 2846     		mov	r0, r5
 2842              	.LVL330:
 271:lvgl/src/lv_widgets/lv_arc.c ****     }
 2843              		.loc 1 271 9 is_stmt 0 view .LVU837
 2844 004e FFF7FEFF 		bl	lv_obj_invalidate
 2845              	.LVL331:
 2846              	.L129:
 274:lvgl/src/lv_widgets/lv_arc.c **** 
 2847              		.loc 1 274 5 is_stmt 1 view .LVU838
 274:lvgl/src/lv_widgets/lv_arc.c **** 
 2848              		.loc 1 274 25 is_stmt 0 view .LVU839
 2849 0052 F480     		strh	r4, [r6, #6]	@ movhi
 276:lvgl/src/lv_widgets/lv_arc.c **** }
 2850              		.loc 1 276 5 is_stmt 1 view .LVU840
 2851 0054 2846     		mov	r0, r5
 2852 0056 FFF7FEFF 		bl	value_update
 2853              	.LVL332:
 277:lvgl/src/lv_widgets/lv_arc.c **** 
 2854              		.loc 1 277 1 is_stmt 0 view .LVU841
 2855 005a 70BD     		pop	{r4, r5, r6, pc}
 2856              	.LVL333:
 2857              	.L133:
 259:lvgl/src/lv_widgets/lv_arc.c ****     }
 2858              		.loc 1 259 9 is_stmt 1 view .LVU842
 2859 005c 2846     		mov	r0, r5
 2860              	.LVL334:
 259:lvgl/src/lv_widgets/lv_arc.c ****     }
 2861              		.loc 1 259 9 is_stmt 0 view .LVU843
 2862 005e FFF7FEFF 		bl	lv_obj_invalidate
 2863              	.LVL335:
 2864 0062 F6E7     		b	.L129
 2865              	.LVL336:
 2866              	.L134:
 263:lvgl/src/lv_widgets/lv_arc.c ****     }
 2867              		.loc 1 263 9 is_stmt 1 view .LVU844
 2868 0064 0023     		movs	r3, #0
 2869 0066 0A46     		mov	r2, r1
 2870 0068 A142     		cmp	r1, r4
 2871 006a 38BF     		it	cc
ARM GAS  D:\Temp\ccOOHxmt.s 			page 91


 2872 006c 2246     		movcc	r2, r4
 2873 006e A142     		cmp	r1, r4
 2874 0070 28BF     		it	cs
 2875 0072 2146     		movcs	r1, r4
 2876 0074 2846     		mov	r0, r5
 2877              	.LVL337:
 263:lvgl/src/lv_widgets/lv_arc.c ****     }
 2878              		.loc 1 263 9 is_stmt 0 view .LVU845
 2879 0076 FFF7FEFF 		bl	inv_arc_area
 2880              	.LVL338:
 2881 007a EAE7     		b	.L129
 2882              	.LVL339:
 2883              	.L135:
 267:lvgl/src/lv_widgets/lv_arc.c ****     }
 2884              		.loc 1 267 9 is_stmt 1 view .LVU846
 2885 007c 0023     		movs	r3, #0
 2886 007e 0A46     		mov	r2, r1
 2887 0080 A142     		cmp	r1, r4
 2888 0082 38BF     		it	cc
 2889 0084 2246     		movcc	r2, r4
 2890 0086 A142     		cmp	r1, r4
 2891 0088 28BF     		it	cs
 2892 008a 2146     		movcs	r1, r4
 2893 008c 2846     		mov	r0, r5
 2894              	.LVL340:
 267:lvgl/src/lv_widgets/lv_arc.c ****     }
 2895              		.loc 1 267 9 is_stmt 0 view .LVU847
 2896 008e FFF7FEFF 		bl	inv_arc_area
 2897              	.LVL341:
 2898 0092 DEE7     		b	.L129
 2899              	.L137:
 2900              		.align	2
 2901              	.L136:
 2902 0094 00000000 		.word	.LC0
 2903              		.cfi_endproc
 2904              	.LFE462:
 2906              		.section	.text.lv_arc_set_bg_end_angle,"ax",%progbits
 2907              		.align	1
 2908              		.global	lv_arc_set_bg_end_angle
 2909              		.syntax unified
 2910              		.thumb
 2911              		.thumb_func
 2912              		.fpu fpv4-sp-d16
 2914              	lv_arc_set_bg_end_angle:
 2915              	.LVL342:
 2916              	.LFB463:
 285:lvgl/src/lv_widgets/lv_arc.c ****     LV_ASSERT_OBJ(arc, LV_OBJX_NAME);
 2917              		.loc 1 285 1 is_stmt 1 view -0
 2918              		.cfi_startproc
 2919              		@ args = 0, pretend = 0, frame = 0
 2920              		@ frame_needed = 0, uses_anonymous_args = 0
 285:lvgl/src/lv_widgets/lv_arc.c ****     LV_ASSERT_OBJ(arc, LV_OBJX_NAME);
 2921              		.loc 1 285 1 is_stmt 0 view .LVU849
 2922 0000 70B5     		push	{r4, r5, r6, lr}
 2923              	.LCFI22:
 2924              		.cfi_def_cfa_offset 16
 2925              		.cfi_offset 4, -16
ARM GAS  D:\Temp\ccOOHxmt.s 			page 92


 2926              		.cfi_offset 5, -12
 2927              		.cfi_offset 6, -8
 2928              		.cfi_offset 14, -4
 2929 0002 0546     		mov	r5, r0
 2930 0004 0C46     		mov	r4, r1
 286:lvgl/src/lv_widgets/lv_arc.c **** 
 2931              		.loc 1 286 5 is_stmt 1 view .LVU850
 286:lvgl/src/lv_widgets/lv_arc.c **** 
 2932              		.loc 1 286 5 view .LVU851
 2933 0006 FFF7FEFF 		bl	lv_debug_check_null
 2934              	.LVL343:
 286:lvgl/src/lv_widgets/lv_arc.c **** 
 2935              		.loc 1 286 5 is_stmt 0 view .LVU852
 2936 000a 28B9     		cbnz	r0, .L139
 286:lvgl/src/lv_widgets/lv_arc.c **** 
 2937              		.loc 1 286 5 is_stmt 1 discriminator 1 view .LVU853
 286:lvgl/src/lv_widgets/lv_arc.c **** 
 2938              		.loc 1 286 5 discriminator 1 view .LVU854
 2939 000c 2A46     		mov	r2, r5
 2940 000e 0023     		movs	r3, #0
 2941 0010 2048     		ldr	r0, .L150
 2942 0012 FFF7FEFF 		bl	lv_debug_log_error
 2943              	.LVL344:
 2944              	.L140:
 286:lvgl/src/lv_widgets/lv_arc.c **** 
 2945              		.loc 1 286 5 discriminator 1 view .LVU855
 286:lvgl/src/lv_widgets/lv_arc.c **** 
 2946              		.loc 1 286 5 discriminator 1 view .LVU856
 2947 0016 FEE7     		b	.L140
 2948              	.L139:
 286:lvgl/src/lv_widgets/lv_arc.c **** 
 2949              		.loc 1 286 37 discriminator 2 view .LVU857
 288:lvgl/src/lv_widgets/lv_arc.c **** 
 2950              		.loc 1 288 5 discriminator 2 view .LVU858
 288:lvgl/src/lv_widgets/lv_arc.c **** 
 2951              		.loc 1 288 26 is_stmt 0 discriminator 2 view .LVU859
 2952 0018 2846     		mov	r0, r5
 2953 001a FFF7FEFF 		bl	lv_obj_get_ext_attr
 2954              	.LVL345:
 2955 001e 0646     		mov	r6, r0
 2956              	.LVL346:
 290:lvgl/src/lv_widgets/lv_arc.c **** 
 2957              		.loc 1 290 5 is_stmt 1 discriminator 2 view .LVU860
 290:lvgl/src/lv_widgets/lv_arc.c **** 
 2958              		.loc 1 290 18 is_stmt 0 discriminator 2 view .LVU861
 2959 0020 C388     		ldrh	r3, [r0, #6]
 290:lvgl/src/lv_widgets/lv_arc.c **** 
 2960              		.loc 1 290 35 discriminator 2 view .LVU862
 2961 0022 03F5B472 		add	r2, r3, #360
 290:lvgl/src/lv_widgets/lv_arc.c **** 
 2962              		.loc 1 290 7 discriminator 2 view .LVU863
 2963 0026 9442     		cmp	r4, r2
 2964 0028 00DD     		ble	.L141
 290:lvgl/src/lv_widgets/lv_arc.c **** 
 2965              		.loc 1 290 43 is_stmt 1 discriminator 1 view .LVU864
 290:lvgl/src/lv_widgets/lv_arc.c **** 
 2966              		.loc 1 290 47 is_stmt 0 discriminator 1 view .LVU865
ARM GAS  D:\Temp\ccOOHxmt.s 			page 93


 2967 002a 94B2     		uxth	r4, r2
 2968              	.LVL347:
 2969              	.L141:
 293:lvgl/src/lv_widgets/lv_arc.c ****         lv_obj_invalidate(arc);
 2970              		.loc 1 293 5 is_stmt 1 view .LVU866
 293:lvgl/src/lv_widgets/lv_arc.c ****         lv_obj_invalidate(arc);
 2971              		.loc 1 293 8 is_stmt 0 view .LVU867
 2972 002c 3189     		ldrh	r1, [r6, #8]
 2973 002e 621A     		subs	r2, r4, r1
 2974 0030 002A     		cmp	r2, #0
 2975 0032 B8BF     		it	lt
 2976 0034 5242     		rsblt	r2, r2, #0
 293:lvgl/src/lv_widgets/lv_arc.c ****         lv_obj_invalidate(arc);
 2977              		.loc 1 293 7 view .LVU868
 2978 0036 B32A     		cmp	r2, #179
 2979 0038 0FDC     		bgt	.L147
 297:lvgl/src/lv_widgets/lv_arc.c ****         inv_arc_area(arc, LV_MATH_MIN(ext->bg_angle_end, end), LV_MATH_MAX(ext->bg_angle_end, end),
 2980              		.loc 1 297 10 is_stmt 1 view .LVU869
 297:lvgl/src/lv_widgets/lv_arc.c ****         inv_arc_area(arc, LV_MATH_MIN(ext->bg_angle_end, end), LV_MATH_MAX(ext->bg_angle_end, end),
 2981              		.loc 1 297 12 is_stmt 0 view .LVU870
 2982 003a 8B42     		cmp	r3, r1
 2983 003c 01D2     		bcs	.L144
 297:lvgl/src/lv_widgets/lv_arc.c ****         inv_arc_area(arc, LV_MATH_MIN(ext->bg_angle_end, end), LV_MATH_MAX(ext->bg_angle_end, end),
 2984              		.loc 1 297 53 discriminator 1 view .LVU871
 2985 003e A342     		cmp	r3, r4
 2986 0040 0FD3     		bcc	.L148
 2987              	.L144:
 301:lvgl/src/lv_widgets/lv_arc.c ****         inv_arc_area(arc, LV_MATH_MIN(ext->bg_angle_end, end), LV_MATH_MAX(ext->bg_angle_end, end),
 2988              		.loc 1 301 10 is_stmt 1 view .LVU872
 301:lvgl/src/lv_widgets/lv_arc.c ****         inv_arc_area(arc, LV_MATH_MIN(ext->bg_angle_end, end), LV_MATH_MAX(ext->bg_angle_end, end),
 2989              		.loc 1 301 12 is_stmt 0 view .LVU873
 2990 0042 8B42     		cmp	r3, r1
 2991 0044 01D9     		bls	.L145
 301:lvgl/src/lv_widgets/lv_arc.c ****         inv_arc_area(arc, LV_MATH_MIN(ext->bg_angle_end, end), LV_MATH_MAX(ext->bg_angle_end, end),
 2992              		.loc 1 301 53 discriminator 1 view .LVU874
 2993 0046 A342     		cmp	r3, r4
 2994 0048 17D8     		bhi	.L149
 2995              	.L145:
 306:lvgl/src/lv_widgets/lv_arc.c ****     }
 2996              		.loc 1 306 9 is_stmt 1 view .LVU875
 2997 004a 2846     		mov	r0, r5
 2998              	.LVL348:
 306:lvgl/src/lv_widgets/lv_arc.c ****     }
 2999              		.loc 1 306 9 is_stmt 0 view .LVU876
 3000 004c FFF7FEFF 		bl	lv_obj_invalidate
 3001              	.LVL349:
 3002              	.L143:
 309:lvgl/src/lv_widgets/lv_arc.c **** 
 3003              		.loc 1 309 5 is_stmt 1 view .LVU877
 3004 0050 2846     		mov	r0, r5
 3005 0052 FFF7FEFF 		bl	value_update
 3006              	.LVL350:
 311:lvgl/src/lv_widgets/lv_arc.c **** }
 3007              		.loc 1 311 5 view .LVU878
 311:lvgl/src/lv_widgets/lv_arc.c **** }
 3008              		.loc 1 311 23 is_stmt 0 view .LVU879
 3009 0056 3481     		strh	r4, [r6, #8]	@ movhi
ARM GAS  D:\Temp\ccOOHxmt.s 			page 94


 312:lvgl/src/lv_widgets/lv_arc.c **** 
 3010              		.loc 1 312 1 view .LVU880
 3011 0058 70BD     		pop	{r4, r5, r6, pc}
 3012              	.LVL351:
 3013              	.L147:
 294:lvgl/src/lv_widgets/lv_arc.c ****     }
 3014              		.loc 1 294 9 is_stmt 1 view .LVU881
 3015 005a 2846     		mov	r0, r5
 3016              	.LVL352:
 294:lvgl/src/lv_widgets/lv_arc.c ****     }
 3017              		.loc 1 294 9 is_stmt 0 view .LVU882
 3018 005c FFF7FEFF 		bl	lv_obj_invalidate
 3019              	.LVL353:
 3020 0060 F6E7     		b	.L143
 3021              	.LVL354:
 3022              	.L148:
 298:lvgl/src/lv_widgets/lv_arc.c ****     }
 3023              		.loc 1 298 9 is_stmt 1 view .LVU883
 3024 0062 0023     		movs	r3, #0
 3025 0064 0A46     		mov	r2, r1
 3026 0066 A142     		cmp	r1, r4
 3027 0068 38BF     		it	cc
 3028 006a 2246     		movcc	r2, r4
 3029 006c A142     		cmp	r1, r4
 3030 006e 28BF     		it	cs
 3031 0070 2146     		movcs	r1, r4
 3032 0072 2846     		mov	r0, r5
 3033              	.LVL355:
 298:lvgl/src/lv_widgets/lv_arc.c ****     }
 3034              		.loc 1 298 9 is_stmt 0 view .LVU884
 3035 0074 FFF7FEFF 		bl	inv_arc_area
 3036              	.LVL356:
 3037 0078 EAE7     		b	.L143
 3038              	.LVL357:
 3039              	.L149:
 302:lvgl/src/lv_widgets/lv_arc.c ****     }
 3040              		.loc 1 302 9 is_stmt 1 view .LVU885
 3041 007a 0023     		movs	r3, #0
 3042 007c 0A46     		mov	r2, r1
 3043 007e A142     		cmp	r1, r4
 3044 0080 38BF     		it	cc
 3045 0082 2246     		movcc	r2, r4
 3046 0084 A142     		cmp	r1, r4
 3047 0086 28BF     		it	cs
 3048 0088 2146     		movcs	r1, r4
 3049 008a 2846     		mov	r0, r5
 3050              	.LVL358:
 302:lvgl/src/lv_widgets/lv_arc.c ****     }
 3051              		.loc 1 302 9 is_stmt 0 view .LVU886
 3052 008c FFF7FEFF 		bl	inv_arc_area
 3053              	.LVL359:
 3054 0090 DEE7     		b	.L143
 3055              	.L151:
 3056 0092 00BF     		.align	2
 3057              	.L150:
 3058 0094 00000000 		.word	.LC0
 3059              		.cfi_endproc
ARM GAS  D:\Temp\ccOOHxmt.s 			page 95


 3060              	.LFE463:
 3062              		.section	.text.lv_arc_set_bg_angles,"ax",%progbits
 3063              		.align	1
 3064              		.global	lv_arc_set_bg_angles
 3065              		.syntax unified
 3066              		.thumb
 3067              		.thumb_func
 3068              		.fpu fpv4-sp-d16
 3070              	lv_arc_set_bg_angles:
 3071              	.LVL360:
 3072              	.LFB464:
 321:lvgl/src/lv_widgets/lv_arc.c ****     LV_ASSERT_OBJ(arc, LV_OBJX_NAME);
 3073              		.loc 1 321 1 is_stmt 1 view -0
 3074              		.cfi_startproc
 3075              		@ args = 0, pretend = 0, frame = 0
 3076              		@ frame_needed = 0, uses_anonymous_args = 0
 321:lvgl/src/lv_widgets/lv_arc.c ****     LV_ASSERT_OBJ(arc, LV_OBJX_NAME);
 3077              		.loc 1 321 1 is_stmt 0 view .LVU888
 3078 0000 F8B5     		push	{r3, r4, r5, r6, r7, lr}
 3079              	.LCFI23:
 3080              		.cfi_def_cfa_offset 24
 3081              		.cfi_offset 3, -24
 3082              		.cfi_offset 4, -20
 3083              		.cfi_offset 5, -16
 3084              		.cfi_offset 6, -12
 3085              		.cfi_offset 7, -8
 3086              		.cfi_offset 14, -4
 3087 0002 0646     		mov	r6, r0
 3088 0004 0C46     		mov	r4, r1
 3089 0006 1546     		mov	r5, r2
 322:lvgl/src/lv_widgets/lv_arc.c **** 
 3090              		.loc 1 322 5 is_stmt 1 view .LVU889
 322:lvgl/src/lv_widgets/lv_arc.c **** 
 3091              		.loc 1 322 5 view .LVU890
 3092 0008 FFF7FEFF 		bl	lv_debug_check_null
 3093              	.LVL361:
 322:lvgl/src/lv_widgets/lv_arc.c **** 
 3094              		.loc 1 322 5 is_stmt 0 view .LVU891
 3095 000c 28B9     		cbnz	r0, .L153
 322:lvgl/src/lv_widgets/lv_arc.c **** 
 3096              		.loc 1 322 5 is_stmt 1 discriminator 1 view .LVU892
 322:lvgl/src/lv_widgets/lv_arc.c **** 
 3097              		.loc 1 322 5 discriminator 1 view .LVU893
 3098 000e 3246     		mov	r2, r6
 3099 0010 0023     		movs	r3, #0
 3100 0012 1248     		ldr	r0, .L158
 3101 0014 FFF7FEFF 		bl	lv_debug_log_error
 3102              	.LVL362:
 3103              	.L154:
 322:lvgl/src/lv_widgets/lv_arc.c **** 
 3104              		.loc 1 322 5 discriminator 1 view .LVU894
 322:lvgl/src/lv_widgets/lv_arc.c **** 
 3105              		.loc 1 322 5 discriminator 1 view .LVU895
 3106 0018 FEE7     		b	.L154
 3107              	.L153:
 322:lvgl/src/lv_widgets/lv_arc.c **** 
 3108              		.loc 1 322 37 discriminator 2 view .LVU896
ARM GAS  D:\Temp\ccOOHxmt.s 			page 96


 324:lvgl/src/lv_widgets/lv_arc.c **** 
 3109              		.loc 1 324 5 discriminator 2 view .LVU897
 324:lvgl/src/lv_widgets/lv_arc.c **** 
 3110              		.loc 1 324 26 is_stmt 0 discriminator 2 view .LVU898
 3111 001a 3046     		mov	r0, r6
 3112 001c FFF7FEFF 		bl	lv_obj_get_ext_attr
 3113              	.LVL363:
 3114 0020 0746     		mov	r7, r0
 3115              	.LVL364:
 326:lvgl/src/lv_widgets/lv_arc.c ****     if(end > (start + 360)) end = start + 360;
 3116              		.loc 1 326 5 is_stmt 1 discriminator 2 view .LVU899
 326:lvgl/src/lv_widgets/lv_arc.c ****     if(end > (start + 360)) end = start + 360;
 3117              		.loc 1 326 7 is_stmt 0 discriminator 2 view .LVU900
 3118 0022 B4F5B47F 		cmp	r4, #360
 3119 0026 02D9     		bls	.L155
 326:lvgl/src/lv_widgets/lv_arc.c ****     if(end > (start + 360)) end = start + 360;
 3120              		.loc 1 326 21 is_stmt 1 discriminator 1 view .LVU901
 326:lvgl/src/lv_widgets/lv_arc.c ****     if(end > (start + 360)) end = start + 360;
 3121              		.loc 1 326 27 is_stmt 0 discriminator 1 view .LVU902
 3122 0028 A4F5B474 		sub	r4, r4, #360
 3123 002c A4B2     		uxth	r4, r4
 3124              	.LVL365:
 3125              	.L155:
 327:lvgl/src/lv_widgets/lv_arc.c **** 
 3126              		.loc 1 327 5 is_stmt 1 view .LVU903
 327:lvgl/src/lv_widgets/lv_arc.c **** 
 3127              		.loc 1 327 21 is_stmt 0 view .LVU904
 3128 002e 04F5B473 		add	r3, r4, #360
 327:lvgl/src/lv_widgets/lv_arc.c **** 
 3129              		.loc 1 327 7 view .LVU905
 3130 0032 9D42     		cmp	r5, r3
 3131 0034 00DD     		ble	.L156
 327:lvgl/src/lv_widgets/lv_arc.c **** 
 3132              		.loc 1 327 29 is_stmt 1 discriminator 1 view .LVU906
 327:lvgl/src/lv_widgets/lv_arc.c **** 
 3133              		.loc 1 327 33 is_stmt 0 discriminator 1 view .LVU907
 3134 0036 9DB2     		uxth	r5, r3
 3135              	.LVL366:
 3136              	.L156:
 329:lvgl/src/lv_widgets/lv_arc.c **** 
 3137              		.loc 1 329 5 is_stmt 1 view .LVU908
 3138 0038 0023     		movs	r3, #0
 3139 003a 3A89     		ldrh	r2, [r7, #8]
 3140 003c F988     		ldrh	r1, [r7, #6]
 3141 003e 3046     		mov	r0, r6
 3142              	.LVL367:
 329:lvgl/src/lv_widgets/lv_arc.c **** 
 3143              		.loc 1 329 5 is_stmt 0 view .LVU909
 3144 0040 FFF7FEFF 		bl	inv_arc_area
 3145              	.LVL368:
 331:lvgl/src/lv_widgets/lv_arc.c ****     ext->bg_angle_end = end;
 3146              		.loc 1 331 5 is_stmt 1 view .LVU910
 331:lvgl/src/lv_widgets/lv_arc.c ****     ext->bg_angle_end = end;
 3147              		.loc 1 331 25 is_stmt 0 view .LVU911
 3148 0044 FC80     		strh	r4, [r7, #6]	@ movhi
 332:lvgl/src/lv_widgets/lv_arc.c **** 
 3149              		.loc 1 332 5 is_stmt 1 view .LVU912
ARM GAS  D:\Temp\ccOOHxmt.s 			page 97


 332:lvgl/src/lv_widgets/lv_arc.c **** 
 3150              		.loc 1 332 23 is_stmt 0 view .LVU913
 3151 0046 3D81     		strh	r5, [r7, #8]	@ movhi
 334:lvgl/src/lv_widgets/lv_arc.c **** 
 3152              		.loc 1 334 5 is_stmt 1 view .LVU914
 3153 0048 0023     		movs	r3, #0
 3154 004a 2A46     		mov	r2, r5
 3155 004c 2146     		mov	r1, r4
 3156 004e 3046     		mov	r0, r6
 3157 0050 FFF7FEFF 		bl	inv_arc_area
 3158              	.LVL369:
 336:lvgl/src/lv_widgets/lv_arc.c **** }
 3159              		.loc 1 336 5 view .LVU915
 3160 0054 3046     		mov	r0, r6
 3161 0056 FFF7FEFF 		bl	value_update
 3162              	.LVL370:
 337:lvgl/src/lv_widgets/lv_arc.c **** 
 3163              		.loc 1 337 1 is_stmt 0 view .LVU916
 3164 005a F8BD     		pop	{r3, r4, r5, r6, r7, pc}
 3165              	.LVL371:
 3166              	.L159:
 337:lvgl/src/lv_widgets/lv_arc.c **** 
 3167              		.loc 1 337 1 view .LVU917
 3168              		.align	2
 3169              	.L158:
 3170 005c 00000000 		.word	.LC0
 3171              		.cfi_endproc
 3172              	.LFE464:
 3174              		.section	.text.lv_arc_set_rotation,"ax",%progbits
 3175              		.align	1
 3176              		.global	lv_arc_set_rotation
 3177              		.syntax unified
 3178              		.thumb
 3179              		.thumb_func
 3180              		.fpu fpv4-sp-d16
 3182              	lv_arc_set_rotation:
 3183              	.LVL372:
 3184              	.LFB465:
 345:lvgl/src/lv_widgets/lv_arc.c ****     LV_ASSERT_OBJ(arc, LV_OBJX_NAME);
 3185              		.loc 1 345 1 is_stmt 1 view -0
 3186              		.cfi_startproc
 3187              		@ args = 0, pretend = 0, frame = 0
 3188              		@ frame_needed = 0, uses_anonymous_args = 0
 345:lvgl/src/lv_widgets/lv_arc.c ****     LV_ASSERT_OBJ(arc, LV_OBJX_NAME);
 3189              		.loc 1 345 1 is_stmt 0 view .LVU919
 3190 0000 38B5     		push	{r3, r4, r5, lr}
 3191              	.LCFI24:
 3192              		.cfi_def_cfa_offset 16
 3193              		.cfi_offset 3, -16
 3194              		.cfi_offset 4, -12
 3195              		.cfi_offset 5, -8
 3196              		.cfi_offset 14, -4
 3197 0002 0446     		mov	r4, r0
 3198 0004 0D46     		mov	r5, r1
 346:lvgl/src/lv_widgets/lv_arc.c **** 
 3199              		.loc 1 346 5 is_stmt 1 view .LVU920
 346:lvgl/src/lv_widgets/lv_arc.c **** 
ARM GAS  D:\Temp\ccOOHxmt.s 			page 98


 3200              		.loc 1 346 5 view .LVU921
 3201 0006 FFF7FEFF 		bl	lv_debug_check_null
 3202              	.LVL373:
 346:lvgl/src/lv_widgets/lv_arc.c **** 
 3203              		.loc 1 346 5 is_stmt 0 view .LVU922
 3204 000a 28B9     		cbnz	r0, .L161
 346:lvgl/src/lv_widgets/lv_arc.c **** 
 3205              		.loc 1 346 5 is_stmt 1 discriminator 1 view .LVU923
 346:lvgl/src/lv_widgets/lv_arc.c **** 
 3206              		.loc 1 346 5 discriminator 1 view .LVU924
 3207 000c 2246     		mov	r2, r4
 3208 000e 0023     		movs	r3, #0
 3209 0010 0548     		ldr	r0, .L164
 3210 0012 FFF7FEFF 		bl	lv_debug_log_error
 3211              	.LVL374:
 3212              	.L162:
 346:lvgl/src/lv_widgets/lv_arc.c **** 
 3213              		.loc 1 346 5 discriminator 1 view .LVU925
 346:lvgl/src/lv_widgets/lv_arc.c **** 
 3214              		.loc 1 346 5 discriminator 1 view .LVU926
 3215 0016 FEE7     		b	.L162
 3216              	.L161:
 346:lvgl/src/lv_widgets/lv_arc.c **** 
 3217              		.loc 1 346 37 discriminator 2 view .LVU927
 348:lvgl/src/lv_widgets/lv_arc.c **** 
 3218              		.loc 1 348 5 discriminator 2 view .LVU928
 348:lvgl/src/lv_widgets/lv_arc.c **** 
 3219              		.loc 1 348 26 is_stmt 0 discriminator 2 view .LVU929
 3220 0018 2046     		mov	r0, r4
 3221 001a FFF7FEFF 		bl	lv_obj_get_ext_attr
 3222              	.LVL375:
 350:lvgl/src/lv_widgets/lv_arc.c **** 
 3223              		.loc 1 350 5 is_stmt 1 discriminator 2 view .LVU930
 350:lvgl/src/lv_widgets/lv_arc.c **** 
 3224              		.loc 1 350 25 is_stmt 0 discriminator 2 view .LVU931
 3225 001e 0580     		strh	r5, [r0]	@ movhi
 352:lvgl/src/lv_widgets/lv_arc.c **** }
 3226              		.loc 1 352 5 is_stmt 1 discriminator 2 view .LVU932
 3227 0020 2046     		mov	r0, r4
 3228              	.LVL376:
 352:lvgl/src/lv_widgets/lv_arc.c **** }
 3229              		.loc 1 352 5 is_stmt 0 discriminator 2 view .LVU933
 3230 0022 FFF7FEFF 		bl	lv_obj_invalidate
 3231              	.LVL377:
 353:lvgl/src/lv_widgets/lv_arc.c **** 
 3232              		.loc 1 353 1 discriminator 2 view .LVU934
 3233 0026 38BD     		pop	{r3, r4, r5, pc}
 3234              	.LVL378:
 3235              	.L165:
 353:lvgl/src/lv_widgets/lv_arc.c **** 
 3236              		.loc 1 353 1 discriminator 2 view .LVU935
 3237              		.align	2
 3238              	.L164:
 3239 0028 00000000 		.word	.LC0
 3240              		.cfi_endproc
 3241              	.LFE465:
 3243              		.section	.text.lv_arc_set_value,"ax",%progbits
ARM GAS  D:\Temp\ccOOHxmt.s 			page 99


 3244              		.align	1
 3245              		.global	lv_arc_set_value
 3246              		.syntax unified
 3247              		.thumb
 3248              		.thumb_func
 3249              		.fpu fpv4-sp-d16
 3251              	lv_arc_set_value:
 3252              	.LVL379:
 3253              	.LFB467:
 395:lvgl/src/lv_widgets/lv_arc.c ****     LV_ASSERT_OBJ(arc, LV_OBJX_NAME);
 3254              		.loc 1 395 1 is_stmt 1 view -0
 3255              		.cfi_startproc
 3256              		@ args = 0, pretend = 0, frame = 0
 3257              		@ frame_needed = 0, uses_anonymous_args = 0
 395:lvgl/src/lv_widgets/lv_arc.c ****     LV_ASSERT_OBJ(arc, LV_OBJX_NAME);
 3258              		.loc 1 395 1 is_stmt 0 view .LVU937
 3259 0000 38B5     		push	{r3, r4, r5, lr}
 3260              	.LCFI25:
 3261              		.cfi_def_cfa_offset 16
 3262              		.cfi_offset 3, -16
 3263              		.cfi_offset 4, -12
 3264              		.cfi_offset 5, -8
 3265              		.cfi_offset 14, -4
 3266 0002 0446     		mov	r4, r0
 3267 0004 0D46     		mov	r5, r1
 396:lvgl/src/lv_widgets/lv_arc.c **** 
 3268              		.loc 1 396 5 is_stmt 1 view .LVU938
 396:lvgl/src/lv_widgets/lv_arc.c **** 
 3269              		.loc 1 396 5 view .LVU939
 3270 0006 FFF7FEFF 		bl	lv_debug_check_null
 3271              	.LVL380:
 396:lvgl/src/lv_widgets/lv_arc.c **** 
 3272              		.loc 1 396 5 is_stmt 0 view .LVU940
 3273 000a 28B9     		cbnz	r0, .L167
 396:lvgl/src/lv_widgets/lv_arc.c **** 
 3274              		.loc 1 396 5 is_stmt 1 discriminator 1 view .LVU941
 396:lvgl/src/lv_widgets/lv_arc.c **** 
 3275              		.loc 1 396 5 discriminator 1 view .LVU942
 3276 000c 2246     		mov	r2, r4
 3277 000e 0023     		movs	r3, #0
 3278 0010 0E48     		ldr	r0, .L171
 3279 0012 FFF7FEFF 		bl	lv_debug_log_error
 3280              	.LVL381:
 3281              	.L168:
 396:lvgl/src/lv_widgets/lv_arc.c **** 
 3282              		.loc 1 396 5 discriminator 1 view .LVU943
 396:lvgl/src/lv_widgets/lv_arc.c **** 
 3283              		.loc 1 396 5 discriminator 1 view .LVU944
 3284 0016 FEE7     		b	.L168
 3285              	.L167:
 396:lvgl/src/lv_widgets/lv_arc.c **** 
 3286              		.loc 1 396 37 discriminator 2 view .LVU945
 398:lvgl/src/lv_widgets/lv_arc.c ****     if(ext->cur_value == value) return;
 3287              		.loc 1 398 5 discriminator 2 view .LVU946
 398:lvgl/src/lv_widgets/lv_arc.c ****     if(ext->cur_value == value) return;
 3288              		.loc 1 398 42 is_stmt 0 discriminator 2 view .LVU947
 3289 0018 2046     		mov	r0, r4
ARM GAS  D:\Temp\ccOOHxmt.s 			page 100


 3290 001a FFF7FEFF 		bl	lv_obj_get_ext_attr
 3291              	.LVL382:
 399:lvgl/src/lv_widgets/lv_arc.c **** 
 3292              		.loc 1 399 5 is_stmt 1 discriminator 2 view .LVU948
 399:lvgl/src/lv_widgets/lv_arc.c **** 
 3293              		.loc 1 399 11 is_stmt 0 discriminator 2 view .LVU949
 3294 001e B0F91C10 		ldrsh	r1, [r0, #28]
 399:lvgl/src/lv_widgets/lv_arc.c **** 
 3295              		.loc 1 399 7 discriminator 2 view .LVU950
 3296 0022 A942     		cmp	r1, r5
 3297 0024 10D0     		beq	.L166
 401:lvgl/src/lv_widgets/lv_arc.c ****     new_value = value > ext->max_value ? ext->max_value : value;
 3298              		.loc 1 401 5 is_stmt 1 view .LVU951
 402:lvgl/src/lv_widgets/lv_arc.c ****     new_value = new_value < ext->min_value ? ext->min_value : new_value;
 3299              		.loc 1 402 5 view .LVU952
 402:lvgl/src/lv_widgets/lv_arc.c ****     new_value = new_value < ext->min_value ? ext->min_value : new_value;
 3300              		.loc 1 402 28 is_stmt 0 view .LVU953
 3301 0026 B0F92030 		ldrsh	r3, [r0, #32]
 402:lvgl/src/lv_widgets/lv_arc.c ****     new_value = new_value < ext->min_value ? ext->min_value : new_value;
 3302              		.loc 1 402 15 view .LVU954
 3303 002a AB42     		cmp	r3, r5
 3304 002c A8BF     		it	ge
 3305 002e 2B46     		movge	r3, r5
 3306 0030 1A46     		mov	r2, r3
 3307              	.LVL383:
 403:lvgl/src/lv_widgets/lv_arc.c **** 
 3308              		.loc 1 403 5 is_stmt 1 view .LVU955
 403:lvgl/src/lv_widgets/lv_arc.c **** 
 3309              		.loc 1 403 32 is_stmt 0 view .LVU956
 3310 0032 B0F91E30 		ldrsh	r3, [r0, #30]
 403:lvgl/src/lv_widgets/lv_arc.c **** 
 3311              		.loc 1 403 15 view .LVU957
 3312 0036 9342     		cmp	r3, r2
 3313 0038 B8BF     		it	lt
 3314 003a 1346     		movlt	r3, r2
 3315              	.LVL384:
 405:lvgl/src/lv_widgets/lv_arc.c ****     ext->cur_value = new_value;
 3316              		.loc 1 405 5 is_stmt 1 view .LVU958
 405:lvgl/src/lv_widgets/lv_arc.c ****     ext->cur_value = new_value;
 3317              		.loc 1 405 7 is_stmt 0 view .LVU959
 3318 003c 9942     		cmp	r1, r3
 3319 003e 03D0     		beq	.L166
 406:lvgl/src/lv_widgets/lv_arc.c **** 
 3320              		.loc 1 406 5 is_stmt 1 view .LVU960
 406:lvgl/src/lv_widgets/lv_arc.c **** 
 3321              		.loc 1 406 20 is_stmt 0 view .LVU961
 3322 0040 8383     		strh	r3, [r0, #28]	@ movhi
 408:lvgl/src/lv_widgets/lv_arc.c **** }
 3323              		.loc 1 408 5 is_stmt 1 view .LVU962
 3324 0042 2046     		mov	r0, r4
 3325              	.LVL385:
 408:lvgl/src/lv_widgets/lv_arc.c **** }
 3326              		.loc 1 408 5 is_stmt 0 view .LVU963
 3327 0044 FFF7FEFF 		bl	value_update
 3328              	.LVL386:
 3329              	.L166:
 409:lvgl/src/lv_widgets/lv_arc.c **** 
ARM GAS  D:\Temp\ccOOHxmt.s 			page 101


 3330              		.loc 1 409 1 view .LVU964
 3331 0048 38BD     		pop	{r3, r4, r5, pc}
 3332              	.LVL387:
 3333              	.L172:
 409:lvgl/src/lv_widgets/lv_arc.c **** 
 3334              		.loc 1 409 1 view .LVU965
 3335 004a 00BF     		.align	2
 3336              	.L171:
 3337 004c 00000000 		.word	.LC0
 3338              		.cfi_endproc
 3339              	.LFE467:
 3341              		.section	.text.lv_arc_create,"ax",%progbits
 3342              		.align	1
 3343              		.global	lv_arc_create
 3344              		.syntax unified
 3345              		.thumb
 3346              		.thumb_func
 3347              		.fpu fpv4-sp-d16
 3349              	lv_arc_create:
 3350              	.LVL388:
 3351              	.LFB458:
  60:lvgl/src/lv_widgets/lv_arc.c **** 
 3352              		.loc 1 60 1 is_stmt 1 view -0
 3353              		.cfi_startproc
 3354              		@ args = 0, pretend = 0, frame = 0
 3355              		@ frame_needed = 0, uses_anonymous_args = 0
  60:lvgl/src/lv_widgets/lv_arc.c **** 
 3356              		.loc 1 60 1 is_stmt 0 view .LVU967
 3357 0000 2DE9F041 		push	{r4, r5, r6, r7, r8, lr}
 3358              	.LCFI26:
 3359              		.cfi_def_cfa_offset 24
 3360              		.cfi_offset 4, -24
 3361              		.cfi_offset 5, -20
 3362              		.cfi_offset 6, -16
 3363              		.cfi_offset 7, -12
 3364              		.cfi_offset 8, -8
 3365              		.cfi_offset 14, -4
 3366 0004 82B0     		sub	sp, sp, #8
 3367              	.LCFI27:
 3368              		.cfi_def_cfa_offset 32
 3369 0006 0E46     		mov	r6, r1
  62:lvgl/src/lv_widgets/lv_arc.c **** 
 3370              		.loc 1 62 39 is_stmt 1 view .LVU968
  65:lvgl/src/lv_widgets/lv_arc.c ****     LV_ASSERT_MEM(arc);
 3371              		.loc 1 65 5 view .LVU969
  65:lvgl/src/lv_widgets/lv_arc.c ****     LV_ASSERT_MEM(arc);
 3372              		.loc 1 65 22 is_stmt 0 view .LVU970
 3373 0008 FFF7FEFF 		bl	lv_obj_create
 3374              	.LVL389:
  65:lvgl/src/lv_widgets/lv_arc.c ****     LV_ASSERT_MEM(arc);
 3375              		.loc 1 65 22 view .LVU971
 3376 000c 0546     		mov	r5, r0
 3377              	.LVL390:
  66:lvgl/src/lv_widgets/lv_arc.c ****     if(arc == NULL) return NULL;
 3378              		.loc 1 66 5 is_stmt 1 view .LVU972
  66:lvgl/src/lv_widgets/lv_arc.c ****     if(arc == NULL) return NULL;
 3379              		.loc 1 66 5 view .LVU973
ARM GAS  D:\Temp\ccOOHxmt.s 			page 102


 3380 000e FFF7FEFF 		bl	lv_debug_check_null
 3381              	.LVL391:
  66:lvgl/src/lv_widgets/lv_arc.c ****     if(arc == NULL) return NULL;
 3382              		.loc 1 66 5 is_stmt 0 view .LVU974
 3383 0012 0028     		cmp	r0, #0
 3384 0014 00F0A380 		beq	.L184
  66:lvgl/src/lv_widgets/lv_arc.c ****     if(arc == NULL) return NULL;
 3385              		.loc 1 66 23 is_stmt 1 discriminator 2 view .LVU975
  67:lvgl/src/lv_widgets/lv_arc.c **** 
 3386              		.loc 1 67 5 discriminator 2 view .LVU976
  67:lvgl/src/lv_widgets/lv_arc.c **** 
 3387              		.loc 1 67 7 is_stmt 0 discriminator 2 view .LVU977
 3388 0018 002D     		cmp	r5, #0
 3389 001a 00F09C80 		beq	.L173
  70:lvgl/src/lv_widgets/lv_arc.c ****     LV_ASSERT_MEM(ext);
 3390              		.loc 1 70 5 is_stmt 1 view .LVU978
  70:lvgl/src/lv_widgets/lv_arc.c ****     LV_ASSERT_MEM(ext);
 3391              		.loc 1 70 26 is_stmt 0 view .LVU979
 3392 001e 3021     		movs	r1, #48
 3393 0020 2846     		mov	r0, r5
 3394 0022 FFF7FEFF 		bl	lv_obj_allocate_ext_attr
 3395              	.LVL392:
 3396 0026 0446     		mov	r4, r0
 3397              	.LVL393:
  71:lvgl/src/lv_widgets/lv_arc.c ****     if(ext == NULL) {
 3398              		.loc 1 71 5 is_stmt 1 view .LVU980
  71:lvgl/src/lv_widgets/lv_arc.c ****     if(ext == NULL) {
 3399              		.loc 1 71 5 view .LVU981
 3400 0028 FFF7FEFF 		bl	lv_debug_check_null
 3401              	.LVL394:
  71:lvgl/src/lv_widgets/lv_arc.c ****     if(ext == NULL) {
 3402              		.loc 1 71 5 is_stmt 0 view .LVU982
 3403 002c 0028     		cmp	r0, #0
 3404 002e 00F09C80 		beq	.L185
  71:lvgl/src/lv_widgets/lv_arc.c ****     if(ext == NULL) {
 3405              		.loc 1 71 23 is_stmt 1 discriminator 2 view .LVU983
  72:lvgl/src/lv_widgets/lv_arc.c ****         lv_obj_del(arc);
 3406              		.loc 1 72 5 discriminator 2 view .LVU984
  72:lvgl/src/lv_widgets/lv_arc.c ****         lv_obj_del(arc);
 3407              		.loc 1 72 7 is_stmt 0 discriminator 2 view .LVU985
 3408 0032 002C     		cmp	r4, #0
 3409 0034 00F09F80 		beq	.L186
  77:lvgl/src/lv_widgets/lv_arc.c ****     if(ancestor_design == NULL) ancestor_design = lv_obj_get_design_cb(arc);
 3410              		.loc 1 77 5 is_stmt 1 view .LVU986
  77:lvgl/src/lv_widgets/lv_arc.c ****     if(ancestor_design == NULL) ancestor_design = lv_obj_get_design_cb(arc);
 3411              		.loc 1 77 24 is_stmt 0 view .LVU987
 3412 0038 644B     		ldr	r3, .L190
 3413 003a 1B68     		ldr	r3, [r3]
  77:lvgl/src/lv_widgets/lv_arc.c ****     if(ancestor_design == NULL) ancestor_design = lv_obj_get_design_cb(arc);
 3414              		.loc 1 77 7 view .LVU988
 3415 003c 002B     		cmp	r3, #0
 3416 003e 00F09F80 		beq	.L187
 3417              	.L180:
  78:lvgl/src/lv_widgets/lv_arc.c **** 
 3418              		.loc 1 78 5 is_stmt 1 view .LVU989
  78:lvgl/src/lv_widgets/lv_arc.c **** 
 3419              		.loc 1 78 24 is_stmt 0 view .LVU990
ARM GAS  D:\Temp\ccOOHxmt.s 			page 103


 3420 0042 634B     		ldr	r3, .L190+4
 3421 0044 1B68     		ldr	r3, [r3]
  78:lvgl/src/lv_widgets/lv_arc.c **** 
 3422              		.loc 1 78 7 view .LVU991
 3423 0046 002B     		cmp	r3, #0
 3424 0048 00F0A080 		beq	.L188
 3425              	.L181:
  81:lvgl/src/lv_widgets/lv_arc.c ****     ext->bg_angle_start = 135;
 3426              		.loc 1 81 5 is_stmt 1 view .LVU992
  81:lvgl/src/lv_widgets/lv_arc.c ****     ext->bg_angle_start = 135;
 3427              		.loc 1 81 25 is_stmt 0 view .LVU993
 3428 004c 0022     		movs	r2, #0
 3429 004e 2280     		strh	r2, [r4]	@ movhi
  82:lvgl/src/lv_widgets/lv_arc.c ****     ext->bg_angle_end   = 45;
 3430              		.loc 1 82 5 is_stmt 1 view .LVU994
  82:lvgl/src/lv_widgets/lv_arc.c ****     ext->bg_angle_end   = 45;
 3431              		.loc 1 82 25 is_stmt 0 view .LVU995
 3432 0050 8723     		movs	r3, #135
 3433 0052 E380     		strh	r3, [r4, #6]	@ movhi
  83:lvgl/src/lv_widgets/lv_arc.c ****     ext->arc_angle_start = 135;
 3434              		.loc 1 83 5 is_stmt 1 view .LVU996
  83:lvgl/src/lv_widgets/lv_arc.c ****     ext->arc_angle_start = 135;
 3435              		.loc 1 83 25 is_stmt 0 view .LVU997
 3436 0054 2D21     		movs	r1, #45
 3437 0056 2181     		strh	r1, [r4, #8]	@ movhi
  84:lvgl/src/lv_widgets/lv_arc.c ****     ext->arc_angle_end   = 270;
 3438              		.loc 1 84 5 is_stmt 1 view .LVU998
  84:lvgl/src/lv_widgets/lv_arc.c ****     ext->arc_angle_end   = 270;
 3439              		.loc 1 84 26 is_stmt 0 view .LVU999
 3440 0058 6380     		strh	r3, [r4, #2]	@ movhi
  85:lvgl/src/lv_widgets/lv_arc.c ****     ext->type = LV_ARC_TYPE_NORMAL;
 3441              		.loc 1 85 5 is_stmt 1 view .LVU1000
  85:lvgl/src/lv_widgets/lv_arc.c ****     ext->type = LV_ARC_TYPE_NORMAL;
 3442              		.loc 1 85 26 is_stmt 0 view .LVU1001
 3443 005a 4FF48773 		mov	r3, #270
 3444 005e A380     		strh	r3, [r4, #4]	@ movhi
  86:lvgl/src/lv_widgets/lv_arc.c ****     ext->cur_value = -1;
 3445              		.loc 1 86 5 is_stmt 1 view .LVU1002
  86:lvgl/src/lv_widgets/lv_arc.c ****     ext->cur_value = -1;
 3446              		.loc 1 86 15 is_stmt 0 view .LVU1003
 3447 0060 94F82230 		ldrb	r3, [r4, #34]	@ zero_extendqisi2
  87:lvgl/src/lv_widgets/lv_arc.c ****     ext->min_close = 1;
 3448              		.loc 1 87 5 is_stmt 1 view .LVU1004
  87:lvgl/src/lv_widgets/lv_arc.c ****     ext->min_close = 1;
 3449              		.loc 1 87 20 is_stmt 0 view .LVU1005
 3450 0064 4FF6FF71 		movw	r1, #65535
 3451 0068 A183     		strh	r1, [r4, #28]	@ movhi
  88:lvgl/src/lv_widgets/lv_arc.c ****     ext->min_value = 0;
 3452              		.loc 1 88 5 is_stmt 1 view .LVU1006
  88:lvgl/src/lv_widgets/lv_arc.c ****     ext->min_value = 0;
 3453              		.loc 1 88 20 is_stmt 0 view .LVU1007
 3454 006a 03F0F903 		and	r3, r3, #249
  89:lvgl/src/lv_widgets/lv_arc.c ****     ext->max_value = 100;
 3455              		.loc 1 89 5 is_stmt 1 view .LVU1008
  89:lvgl/src/lv_widgets/lv_arc.c ****     ext->max_value = 100;
 3456              		.loc 1 89 20 is_stmt 0 view .LVU1009
 3457 006e E283     		strh	r2, [r4, #30]	@ movhi
ARM GAS  D:\Temp\ccOOHxmt.s 			page 104


  90:lvgl/src/lv_widgets/lv_arc.c ****     ext->dragging = false;
 3458              		.loc 1 90 5 is_stmt 1 view .LVU1010
  90:lvgl/src/lv_widgets/lv_arc.c ****     ext->dragging = false;
 3459              		.loc 1 90 20 is_stmt 0 view .LVU1011
 3460 0070 6421     		movs	r1, #100
 3461 0072 2184     		strh	r1, [r4, #32]	@ movhi
  91:lvgl/src/lv_widgets/lv_arc.c ****     ext->adjustable = false;
 3462              		.loc 1 91 5 is_stmt 1 view .LVU1012
  91:lvgl/src/lv_widgets/lv_arc.c ****     ext->adjustable = false;
 3463              		.loc 1 91 19 is_stmt 0 view .LVU1013
 3464 0074 43F01003 		orr	r3, r3, #16
  92:lvgl/src/lv_widgets/lv_arc.c ****     ext->chg_rate = 540;
 3465              		.loc 1 92 5 is_stmt 1 view .LVU1014
  92:lvgl/src/lv_widgets/lv_arc.c ****     ext->chg_rate = 540;
 3466              		.loc 1 92 21 is_stmt 0 view .LVU1015
 3467 0078 03F0FE03 		and	r3, r3, #254
 3468 007c 62F3C303 		bfi	r3, r2, #3, #1
 3469 0080 84F82230 		strb	r3, [r4, #34]
  93:lvgl/src/lv_widgets/lv_arc.c ****     ext->last_tick = lv_tick_get();
 3470              		.loc 1 93 5 is_stmt 1 view .LVU1016
  93:lvgl/src/lv_widgets/lv_arc.c ****     ext->last_tick = lv_tick_get();
 3471              		.loc 1 93 19 is_stmt 0 view .LVU1017
 3472 0084 4FF40773 		mov	r3, #540
 3473 0088 A384     		strh	r3, [r4, #36]	@ movhi
  94:lvgl/src/lv_widgets/lv_arc.c ****     ext->last_angle = ext->arc_angle_end;
 3474              		.loc 1 94 5 is_stmt 1 view .LVU1018
  94:lvgl/src/lv_widgets/lv_arc.c ****     ext->last_angle = ext->arc_angle_end;
 3475              		.loc 1 94 22 is_stmt 0 view .LVU1019
 3476 008a FFF7FEFF 		bl	lv_tick_get
 3477              	.LVL395:
  94:lvgl/src/lv_widgets/lv_arc.c ****     ext->last_angle = ext->arc_angle_end;
 3478              		.loc 1 94 20 view .LVU1020
 3479 008e A062     		str	r0, [r4, #40]
  95:lvgl/src/lv_widgets/lv_arc.c ****     lv_style_list_init(&ext->style_arc);
 3480              		.loc 1 95 5 is_stmt 1 view .LVU1021
  95:lvgl/src/lv_widgets/lv_arc.c ****     lv_style_list_init(&ext->style_arc);
 3481              		.loc 1 95 26 is_stmt 0 view .LVU1022
 3482 0090 B4F90430 		ldrsh	r3, [r4, #4]
  95:lvgl/src/lv_widgets/lv_arc.c ****     lv_style_list_init(&ext->style_arc);
 3483              		.loc 1 95 21 view .LVU1023
 3484 0094 A385     		strh	r3, [r4, #44]	@ movhi
  96:lvgl/src/lv_widgets/lv_arc.c ****     lv_style_list_init(&ext->style_knob);
 3485              		.loc 1 96 5 is_stmt 1 view .LVU1024
 3486 0096 04F10C07 		add	r7, r4, #12
 3487 009a 3846     		mov	r0, r7
 3488 009c FFF7FEFF 		bl	lv_style_list_init
 3489              	.LVL396:
  97:lvgl/src/lv_widgets/lv_arc.c **** 
 3490              		.loc 1 97 5 view .LVU1025
 3491 00a0 04F11408 		add	r8, r4, #20
 3492 00a4 4046     		mov	r0, r8
 3493 00a6 FFF7FEFF 		bl	lv_style_list_init
 3494              	.LVL397:
  99:lvgl/src/lv_widgets/lv_arc.c **** 
 3495              		.loc 1 99 5 view .LVU1026
 3496 00aa 5022     		movs	r2, #80
 3497 00ac 1146     		mov	r1, r2
ARM GAS  D:\Temp\ccOOHxmt.s 			page 105


 3498 00ae 2846     		mov	r0, r5
 3499 00b0 FFF7FEFF 		bl	lv_obj_set_size
 3500              	.LVL398:
 102:lvgl/src/lv_widgets/lv_arc.c ****     lv_obj_set_design_cb(arc, lv_arc_design);
 3501              		.loc 1 102 5 view .LVU1027
 3502 00b4 4749     		ldr	r1, .L190+8
 3503 00b6 2846     		mov	r0, r5
 3504 00b8 FFF7FEFF 		bl	lv_obj_set_signal_cb
 3505              	.LVL399:
 103:lvgl/src/lv_widgets/lv_arc.c **** 
 3506              		.loc 1 103 5 view .LVU1028
 3507 00bc 4649     		ldr	r1, .L190+12
 3508 00be 2846     		mov	r0, r5
 3509 00c0 FFF7FEFF 		bl	lv_obj_set_design_cb
 3510              	.LVL400:
 106:lvgl/src/lv_widgets/lv_arc.c ****         lv_obj_set_click(arc, true);
 3511              		.loc 1 106 5 view .LVU1029
 106:lvgl/src/lv_widgets/lv_arc.c ****         lv_obj_set_click(arc, true);
 3512              		.loc 1 106 7 is_stmt 0 view .LVU1030
 3513 00c4 002E     		cmp	r6, #0
 3514 00c6 67D0     		beq	.L189
 3515              	.LBB122:
 115:lvgl/src/lv_widgets/lv_arc.c ****         ext->arc_angle_start = copy_ext->arc_angle_start;
 3516              		.loc 1 115 9 is_stmt 1 view .LVU1031
 115:lvgl/src/lv_widgets/lv_arc.c ****         ext->arc_angle_start = copy_ext->arc_angle_start;
 3517              		.loc 1 115 35 is_stmt 0 view .LVU1032
 3518 00c8 3046     		mov	r0, r6
 3519 00ca FFF7FEFF 		bl	lv_obj_get_ext_attr
 3520              	.LVL401:
 3521 00ce 0646     		mov	r6, r0
 3522              	.LVL402:
 116:lvgl/src/lv_widgets/lv_arc.c ****         ext->arc_angle_end   = copy_ext->arc_angle_end;
 3523              		.loc 1 116 9 is_stmt 1 view .LVU1033
 116:lvgl/src/lv_widgets/lv_arc.c ****         ext->arc_angle_end   = copy_ext->arc_angle_end;
 3524              		.loc 1 116 40 is_stmt 0 view .LVU1034
 3525 00d0 4388     		ldrh	r3, [r0, #2]
 116:lvgl/src/lv_widgets/lv_arc.c ****         ext->arc_angle_end   = copy_ext->arc_angle_end;
 3526              		.loc 1 116 30 view .LVU1035
 3527 00d2 6380     		strh	r3, [r4, #2]	@ movhi
 117:lvgl/src/lv_widgets/lv_arc.c ****         ext->bg_angle_start  = copy_ext->bg_angle_start;
 3528              		.loc 1 117 9 is_stmt 1 view .LVU1036
 117:lvgl/src/lv_widgets/lv_arc.c ****         ext->bg_angle_start  = copy_ext->bg_angle_start;
 3529              		.loc 1 117 40 is_stmt 0 view .LVU1037
 3530 00d4 8388     		ldrh	r3, [r0, #4]
 117:lvgl/src/lv_widgets/lv_arc.c ****         ext->bg_angle_start  = copy_ext->bg_angle_start;
 3531              		.loc 1 117 30 view .LVU1038
 3532 00d6 A380     		strh	r3, [r4, #4]	@ movhi
 118:lvgl/src/lv_widgets/lv_arc.c ****         ext->bg_angle_end    = copy_ext->bg_angle_end;
 3533              		.loc 1 118 9 is_stmt 1 view .LVU1039
 118:lvgl/src/lv_widgets/lv_arc.c ****         ext->bg_angle_end    = copy_ext->bg_angle_end;
 3534              		.loc 1 118 40 is_stmt 0 view .LVU1040
 3535 00d8 C388     		ldrh	r3, [r0, #6]
 118:lvgl/src/lv_widgets/lv_arc.c ****         ext->bg_angle_end    = copy_ext->bg_angle_end;
 3536              		.loc 1 118 30 view .LVU1041
 3537 00da E380     		strh	r3, [r4, #6]	@ movhi
 119:lvgl/src/lv_widgets/lv_arc.c ****         ext->type = copy_ext->type;
 3538              		.loc 1 119 9 is_stmt 1 view .LVU1042
ARM GAS  D:\Temp\ccOOHxmt.s 			page 106


 119:lvgl/src/lv_widgets/lv_arc.c ****         ext->type = copy_ext->type;
 3539              		.loc 1 119 40 is_stmt 0 view .LVU1043
 3540 00dc 0389     		ldrh	r3, [r0, #8]
 119:lvgl/src/lv_widgets/lv_arc.c ****         ext->type = copy_ext->type;
 3541              		.loc 1 119 30 view .LVU1044
 3542 00de 2381     		strh	r3, [r4, #8]	@ movhi
 120:lvgl/src/lv_widgets/lv_arc.c ****         ext->cur_value = copy_ext->cur_value;
 3543              		.loc 1 120 9 is_stmt 1 view .LVU1045
 120:lvgl/src/lv_widgets/lv_arc.c ****         ext->cur_value = copy_ext->cur_value;
 3544              		.loc 1 120 29 is_stmt 0 view .LVU1046
 3545 00e0 90F82230 		ldrb	r3, [r0, #34]	@ zero_extendqisi2
 3546 00e4 C3F34103 		ubfx	r3, r3, #1, #2
 120:lvgl/src/lv_widgets/lv_arc.c ****         ext->cur_value = copy_ext->cur_value;
 3547              		.loc 1 120 19 view .LVU1047
 3548 00e8 94F82220 		ldrb	r2, [r4, #34]	@ zero_extendqisi2
 3549 00ec 63F34202 		bfi	r2, r3, #1, #2
 3550 00f0 84F82220 		strb	r2, [r4, #34]
 121:lvgl/src/lv_widgets/lv_arc.c ****         ext->min_value = copy_ext->min_value;
 3551              		.loc 1 121 9 is_stmt 1 view .LVU1048
 121:lvgl/src/lv_widgets/lv_arc.c ****         ext->min_value = copy_ext->min_value;
 3552              		.loc 1 121 34 is_stmt 0 view .LVU1049
 3553 00f4 B0F91C30 		ldrsh	r3, [r0, #28]
 121:lvgl/src/lv_widgets/lv_arc.c ****         ext->min_value = copy_ext->min_value;
 3554              		.loc 1 121 24 view .LVU1050
 3555 00f8 A383     		strh	r3, [r4, #28]	@ movhi
 122:lvgl/src/lv_widgets/lv_arc.c ****         ext->max_value = copy_ext->max_value;
 3556              		.loc 1 122 9 is_stmt 1 view .LVU1051
 122:lvgl/src/lv_widgets/lv_arc.c ****         ext->max_value = copy_ext->max_value;
 3557              		.loc 1 122 34 is_stmt 0 view .LVU1052
 3558 00fa B0F91E30 		ldrsh	r3, [r0, #30]
 122:lvgl/src/lv_widgets/lv_arc.c ****         ext->max_value = copy_ext->max_value;
 3559              		.loc 1 122 24 view .LVU1053
 3560 00fe E383     		strh	r3, [r4, #30]	@ movhi
 123:lvgl/src/lv_widgets/lv_arc.c ****         ext->dragging = copy_ext->dragging;
 3561              		.loc 1 123 9 is_stmt 1 view .LVU1054
 123:lvgl/src/lv_widgets/lv_arc.c ****         ext->dragging = copy_ext->dragging;
 3562              		.loc 1 123 34 is_stmt 0 view .LVU1055
 3563 0100 B0F92030 		ldrsh	r3, [r0, #32]
 123:lvgl/src/lv_widgets/lv_arc.c ****         ext->dragging = copy_ext->dragging;
 3564              		.loc 1 123 24 view .LVU1056
 3565 0104 2384     		strh	r3, [r4, #32]	@ movhi
 124:lvgl/src/lv_widgets/lv_arc.c ****         ext->adjustable = copy_ext->adjustable;
 3566              		.loc 1 124 9 is_stmt 1 view .LVU1057
 124:lvgl/src/lv_widgets/lv_arc.c ****         ext->adjustable = copy_ext->adjustable;
 3567              		.loc 1 124 33 is_stmt 0 view .LVU1058
 3568 0106 90F82220 		ldrb	r2, [r0, #34]	@ zero_extendqisi2
 124:lvgl/src/lv_widgets/lv_arc.c ****         ext->adjustable = copy_ext->adjustable;
 3569              		.loc 1 124 23 view .LVU1059
 3570 010a 94F82230 		ldrb	r3, [r4, #34]	@ zero_extendqisi2
 3571 010e 62F30003 		bfi	r3, r2, #0, #1
 3572 0112 84F82230 		strb	r3, [r4, #34]
 125:lvgl/src/lv_widgets/lv_arc.c ****         ext->chg_rate = copy_ext->chg_rate;
 3573              		.loc 1 125 9 is_stmt 1 view .LVU1060
 125:lvgl/src/lv_widgets/lv_arc.c ****         ext->chg_rate = copy_ext->chg_rate;
 3574              		.loc 1 125 35 is_stmt 0 view .LVU1061
 3575 0116 90F82230 		ldrb	r3, [r0, #34]	@ zero_extendqisi2
 3576 011a C3F3C003 		ubfx	r3, r3, #3, #1
ARM GAS  D:\Temp\ccOOHxmt.s 			page 107


 125:lvgl/src/lv_widgets/lv_arc.c ****         ext->chg_rate = copy_ext->chg_rate;
 3577              		.loc 1 125 25 view .LVU1062
 3578 011e 94F82220 		ldrb	r2, [r4, #34]	@ zero_extendqisi2
 3579 0122 63F3C302 		bfi	r2, r3, #3, #1
 3580 0126 84F82220 		strb	r2, [r4, #34]
 126:lvgl/src/lv_widgets/lv_arc.c ****         ext->last_tick = copy_ext->last_tick;
 3581              		.loc 1 126 9 is_stmt 1 view .LVU1063
 126:lvgl/src/lv_widgets/lv_arc.c ****         ext->last_tick = copy_ext->last_tick;
 3582              		.loc 1 126 33 is_stmt 0 view .LVU1064
 3583 012a 838C     		ldrh	r3, [r0, #36]
 126:lvgl/src/lv_widgets/lv_arc.c ****         ext->last_tick = copy_ext->last_tick;
 3584              		.loc 1 126 23 view .LVU1065
 3585 012c A384     		strh	r3, [r4, #36]	@ movhi
 127:lvgl/src/lv_widgets/lv_arc.c ****         ext->last_angle = copy_ext->last_angle;
 3586              		.loc 1 127 9 is_stmt 1 view .LVU1066
 127:lvgl/src/lv_widgets/lv_arc.c ****         ext->last_angle = copy_ext->last_angle;
 3587              		.loc 1 127 34 is_stmt 0 view .LVU1067
 3588 012e 836A     		ldr	r3, [r0, #40]
 127:lvgl/src/lv_widgets/lv_arc.c ****         ext->last_angle = copy_ext->last_angle;
 3589              		.loc 1 127 24 view .LVU1068
 3590 0130 A362     		str	r3, [r4, #40]
 128:lvgl/src/lv_widgets/lv_arc.c ****         lv_style_list_copy(&ext->style_knob, &copy_ext->style_knob);
 3591              		.loc 1 128 9 is_stmt 1 view .LVU1069
 128:lvgl/src/lv_widgets/lv_arc.c ****         lv_style_list_copy(&ext->style_knob, &copy_ext->style_knob);
 3592              		.loc 1 128 35 is_stmt 0 view .LVU1070
 3593 0132 B0F92C30 		ldrsh	r3, [r0, #44]
 128:lvgl/src/lv_widgets/lv_arc.c ****         lv_style_list_copy(&ext->style_knob, &copy_ext->style_knob);
 3594              		.loc 1 128 25 view .LVU1071
 3595 0136 A385     		strh	r3, [r4, #44]	@ movhi
 129:lvgl/src/lv_widgets/lv_arc.c ****         lv_style_list_copy(&ext->style_arc, &copy_ext->style_arc);
 3596              		.loc 1 129 9 is_stmt 1 view .LVU1072
 3597 0138 00F11401 		add	r1, r0, #20
 3598 013c 4046     		mov	r0, r8
 3599              	.LVL403:
 129:lvgl/src/lv_widgets/lv_arc.c ****         lv_style_list_copy(&ext->style_arc, &copy_ext->style_arc);
 3600              		.loc 1 129 9 is_stmt 0 view .LVU1073
 3601 013e FFF7FEFF 		bl	lv_style_list_copy
 3602              	.LVL404:
 130:lvgl/src/lv_widgets/lv_arc.c **** 
 3603              		.loc 1 130 9 is_stmt 1 view .LVU1074
 3604 0142 06F10C01 		add	r1, r6, #12
 3605 0146 3846     		mov	r0, r7
 3606 0148 FFF7FEFF 		bl	lv_style_list_copy
 3607              	.LVL405:
 133:lvgl/src/lv_widgets/lv_arc.c ****     }
 3608              		.loc 1 133 9 view .LVU1075
 3609 014c FF22     		movs	r2, #255
 3610 014e 1146     		mov	r1, r2
 3611 0150 2846     		mov	r0, r5
 3612 0152 FFF7FEFF 		bl	lv_obj_refresh_style
 3613              	.LVL406:
 3614              	.L173:
 133:lvgl/src/lv_widgets/lv_arc.c ****     }
 3615              		.loc 1 133 9 is_stmt 0 view .LVU1076
 3616              	.LBE122:
 139:lvgl/src/lv_widgets/lv_arc.c **** 
 3617              		.loc 1 139 1 view .LVU1077
ARM GAS  D:\Temp\ccOOHxmt.s 			page 108


 3618 0156 2846     		mov	r0, r5
 3619 0158 02B0     		add	sp, sp, #8
 3620              	.LCFI28:
 3621              		.cfi_remember_state
 3622              		.cfi_def_cfa_offset 24
 3623              		@ sp needed
 3624 015a BDE8F081 		pop	{r4, r5, r6, r7, r8, pc}
 3625              	.LVL407:
 3626              	.L184:
 3627              	.LCFI29:
 3628              		.cfi_restore_state
  66:lvgl/src/lv_widgets/lv_arc.c ****     if(arc == NULL) return NULL;
 3629              		.loc 1 66 5 is_stmt 1 discriminator 1 view .LVU1078
  66:lvgl/src/lv_widgets/lv_arc.c ****     if(arc == NULL) return NULL;
 3630              		.loc 1 66 5 discriminator 1 view .LVU1079
 3631 015e 2A46     		mov	r2, r5
 3632 0160 0023     		movs	r3, #0
 3633 0162 1E48     		ldr	r0, .L190+16
 3634 0164 FFF7FEFF 		bl	lv_debug_log_error
 3635              	.LVL408:
 3636              	.L175:
  66:lvgl/src/lv_widgets/lv_arc.c ****     if(arc == NULL) return NULL;
 3637              		.loc 1 66 5 discriminator 1 view .LVU1080
  66:lvgl/src/lv_widgets/lv_arc.c ****     if(arc == NULL) return NULL;
 3638              		.loc 1 66 5 discriminator 1 view .LVU1081
 3639 0168 FEE7     		b	.L175
 3640              	.LVL409:
 3641              	.L185:
  71:lvgl/src/lv_widgets/lv_arc.c ****     if(ext == NULL) {
 3642              		.loc 1 71 5 discriminator 1 view .LVU1082
  71:lvgl/src/lv_widgets/lv_arc.c ****     if(ext == NULL) {
 3643              		.loc 1 71 5 discriminator 1 view .LVU1083
 3644 016a 2246     		mov	r2, r4
 3645 016c 0023     		movs	r3, #0
 3646 016e 1B48     		ldr	r0, .L190+16
 3647 0170 FFF7FEFF 		bl	lv_debug_log_error
 3648              	.LVL410:
 3649              	.L178:
  71:lvgl/src/lv_widgets/lv_arc.c ****     if(ext == NULL) {
 3650              		.loc 1 71 5 discriminator 2 view .LVU1084
  71:lvgl/src/lv_widgets/lv_arc.c ****     if(ext == NULL) {
 3651              		.loc 1 71 5 discriminator 2 view .LVU1085
 3652 0174 FEE7     		b	.L178
 3653              	.L186:
  73:lvgl/src/lv_widgets/lv_arc.c ****         return NULL;
 3654              		.loc 1 73 9 view .LVU1086
 3655 0176 2846     		mov	r0, r5
 3656 0178 FFF7FEFF 		bl	lv_obj_del
 3657              	.LVL411:
  74:lvgl/src/lv_widgets/lv_arc.c ****     }
 3658              		.loc 1 74 9 view .LVU1087
  74:lvgl/src/lv_widgets/lv_arc.c ****     }
 3659              		.loc 1 74 16 is_stmt 0 view .LVU1088
 3660 017c 0025     		movs	r5, #0
 3661              	.LVL412:
  74:lvgl/src/lv_widgets/lv_arc.c ****     }
 3662              		.loc 1 74 16 view .LVU1089
ARM GAS  D:\Temp\ccOOHxmt.s 			page 109


 3663 017e EAE7     		b	.L173
 3664              	.LVL413:
 3665              	.L187:
  77:lvgl/src/lv_widgets/lv_arc.c ****     if(ancestor_design == NULL) ancestor_design = lv_obj_get_design_cb(arc);
 3666              		.loc 1 77 33 is_stmt 1 discriminator 1 view .LVU1090
  77:lvgl/src/lv_widgets/lv_arc.c ****     if(ancestor_design == NULL) ancestor_design = lv_obj_get_design_cb(arc);
 3667              		.loc 1 77 51 is_stmt 0 discriminator 1 view .LVU1091
 3668 0180 2846     		mov	r0, r5
 3669 0182 FFF7FEFF 		bl	lv_obj_get_signal_cb
 3670              	.LVL414:
  77:lvgl/src/lv_widgets/lv_arc.c ****     if(ancestor_design == NULL) ancestor_design = lv_obj_get_design_cb(arc);
 3671              		.loc 1 77 49 discriminator 1 view .LVU1092
 3672 0186 114B     		ldr	r3, .L190
 3673 0188 1860     		str	r0, [r3]
 3674 018a 5AE7     		b	.L180
 3675              	.L188:
  78:lvgl/src/lv_widgets/lv_arc.c **** 
 3676              		.loc 1 78 33 is_stmt 1 discriminator 1 view .LVU1093
  78:lvgl/src/lv_widgets/lv_arc.c **** 
 3677              		.loc 1 78 51 is_stmt 0 discriminator 1 view .LVU1094
 3678 018c 2846     		mov	r0, r5
 3679 018e FFF7FEFF 		bl	lv_obj_get_design_cb
 3680              	.LVL415:
  78:lvgl/src/lv_widgets/lv_arc.c **** 
 3681              		.loc 1 78 49 discriminator 1 view .LVU1095
 3682 0192 0F4B     		ldr	r3, .L190+4
 3683 0194 1860     		str	r0, [r3]
 3684 0196 59E7     		b	.L181
 3685              	.L189:
 107:lvgl/src/lv_widgets/lv_arc.c ****         lv_obj_add_protect(arc, LV_PROTECT_PRESS_LOST);
 3686              		.loc 1 107 9 is_stmt 1 view .LVU1096
 3687 0198 0121     		movs	r1, #1
 3688 019a 2846     		mov	r0, r5
 3689 019c FFF7FEFF 		bl	lv_obj_set_click
 3690              	.LVL416:
 108:lvgl/src/lv_widgets/lv_arc.c ****         lv_obj_set_ext_click_area(arc, LV_DPI / 10, LV_DPI / 10, LV_DPI / 10, LV_DPI / 10);
 3691              		.loc 1 108 9 view .LVU1097
 3692 01a0 1021     		movs	r1, #16
 3693 01a2 2846     		mov	r0, r5
 3694 01a4 FFF7FEFF 		bl	lv_obj_add_protect
 3695              	.LVL417:
 109:lvgl/src/lv_widgets/lv_arc.c ****         lv_arc_set_value(arc, ext->min_value);
 3696              		.loc 1 109 9 view .LVU1098
 3697 01a8 0821     		movs	r1, #8
 3698 01aa 0091     		str	r1, [sp]
 3699 01ac 0B46     		mov	r3, r1
 3700 01ae 0A46     		mov	r2, r1
 3701 01b0 2846     		mov	r0, r5
 3702 01b2 FFF7FEFF 		bl	lv_obj_set_ext_click_area
 3703              	.LVL418:
 110:lvgl/src/lv_widgets/lv_arc.c ****         lv_theme_apply(arc, LV_THEME_ARC);
 3704              		.loc 1 110 9 view .LVU1099
 3705 01b6 B4F91E10 		ldrsh	r1, [r4, #30]
 3706 01ba 2846     		mov	r0, r5
 3707 01bc FFF7FEFF 		bl	lv_arc_set_value
 3708              	.LVL419:
 111:lvgl/src/lv_widgets/lv_arc.c ****     }
ARM GAS  D:\Temp\ccOOHxmt.s 			page 110


 3709              		.loc 1 111 9 view .LVU1100
 3710 01c0 0321     		movs	r1, #3
 3711 01c2 2846     		mov	r0, r5
 3712 01c4 FFF7FEFF 		bl	lv_theme_apply
 3713              	.LVL420:
 3714 01c8 C5E7     		b	.L173
 3715              	.L191:
 3716 01ca 00BF     		.align	2
 3717              	.L190:
 3718 01cc 00000000 		.word	.LANCHOR0
 3719 01d0 00000000 		.word	.LANCHOR1
 3720 01d4 00000000 		.word	lv_arc_signal
 3721 01d8 00000000 		.word	lv_arc_design
 3722 01dc 00000000 		.word	.LC1
 3723              		.cfi_endproc
 3724              	.LFE458:
 3726              		.section	.text.lv_arc_set_type,"ax",%progbits
 3727              		.align	1
 3728              		.global	lv_arc_set_type
 3729              		.syntax unified
 3730              		.thumb
 3731              		.thumb_func
 3732              		.fpu fpv4-sp-d16
 3734              	lv_arc_set_type:
 3735              	.LVL421:
 3736              	.LFB466:
 361:lvgl/src/lv_widgets/lv_arc.c ****     LV_ASSERT_OBJ(arc, LV_OBJX_NAME);
 3737              		.loc 1 361 1 view -0
 3738              		.cfi_startproc
 3739              		@ args = 0, pretend = 0, frame = 0
 3740              		@ frame_needed = 0, uses_anonymous_args = 0
 361:lvgl/src/lv_widgets/lv_arc.c ****     LV_ASSERT_OBJ(arc, LV_OBJX_NAME);
 3741              		.loc 1 361 1 is_stmt 0 view .LVU1102
 3742 0000 70B5     		push	{r4, r5, r6, lr}
 3743              	.LCFI30:
 3744              		.cfi_def_cfa_offset 16
 3745              		.cfi_offset 4, -16
 3746              		.cfi_offset 5, -12
 3747              		.cfi_offset 6, -8
 3748              		.cfi_offset 14, -4
 3749 0002 0546     		mov	r5, r0
 3750 0004 0C46     		mov	r4, r1
 362:lvgl/src/lv_widgets/lv_arc.c **** 
 3751              		.loc 1 362 5 is_stmt 1 view .LVU1103
 362:lvgl/src/lv_widgets/lv_arc.c **** 
 3752              		.loc 1 362 5 view .LVU1104
 3753 0006 FFF7FEFF 		bl	lv_debug_check_null
 3754              	.LVL422:
 362:lvgl/src/lv_widgets/lv_arc.c **** 
 3755              		.loc 1 362 5 is_stmt 0 view .LVU1105
 3756 000a 28B9     		cbnz	r0, .L193
 362:lvgl/src/lv_widgets/lv_arc.c **** 
 3757              		.loc 1 362 5 is_stmt 1 discriminator 1 view .LVU1106
 362:lvgl/src/lv_widgets/lv_arc.c **** 
 3758              		.loc 1 362 5 discriminator 1 view .LVU1107
 3759 000c 2A46     		mov	r2, r5
 3760 000e 0023     		movs	r3, #0
ARM GAS  D:\Temp\ccOOHxmt.s 			page 111


 3761 0010 1D48     		ldr	r0, .L202
 3762 0012 FFF7FEFF 		bl	lv_debug_log_error
 3763              	.LVL423:
 3764              	.L194:
 362:lvgl/src/lv_widgets/lv_arc.c **** 
 3765              		.loc 1 362 5 discriminator 1 view .LVU1108
 362:lvgl/src/lv_widgets/lv_arc.c **** 
 3766              		.loc 1 362 5 discriminator 1 view .LVU1109
 3767 0016 FEE7     		b	.L194
 3768              	.L193:
 362:lvgl/src/lv_widgets/lv_arc.c **** 
 3769              		.loc 1 362 37 discriminator 2 view .LVU1110
 364:lvgl/src/lv_widgets/lv_arc.c ****     int16_t val = ext->cur_value;
 3770              		.loc 1 364 5 discriminator 2 view .LVU1111
 364:lvgl/src/lv_widgets/lv_arc.c ****     int16_t val = ext->cur_value;
 3771              		.loc 1 364 42 is_stmt 0 discriminator 2 view .LVU1112
 3772 0018 2846     		mov	r0, r5
 3773 001a FFF7FEFF 		bl	lv_obj_get_ext_attr
 3774              	.LVL424:
 365:lvgl/src/lv_widgets/lv_arc.c **** 
 3775              		.loc 1 365 5 is_stmt 1 discriminator 2 view .LVU1113
 365:lvgl/src/lv_widgets/lv_arc.c **** 
 3776              		.loc 1 365 13 is_stmt 0 discriminator 2 view .LVU1114
 3777 001e B0F91C60 		ldrsh	r6, [r0, #28]
 3778              	.LVL425:
 367:lvgl/src/lv_widgets/lv_arc.c ****     ext->cur_value = -1; /** Force set_value handling*/
 3779              		.loc 1 367 5 is_stmt 1 discriminator 2 view .LVU1115
 367:lvgl/src/lv_widgets/lv_arc.c ****     ext->cur_value = -1; /** Force set_value handling*/
 3780              		.loc 1 367 15 is_stmt 0 discriminator 2 view .LVU1116
 3781 0022 04F00302 		and	r2, r4, #3
 3782 0026 90F82230 		ldrb	r3, [r0, #34]	@ zero_extendqisi2
 3783 002a 62F34203 		bfi	r3, r2, #1, #2
 3784 002e 80F82230 		strb	r3, [r0, #34]
 368:lvgl/src/lv_widgets/lv_arc.c **** 
 3785              		.loc 1 368 5 is_stmt 1 discriminator 2 view .LVU1117
 368:lvgl/src/lv_widgets/lv_arc.c **** 
 3786              		.loc 1 368 20 is_stmt 0 discriminator 2 view .LVU1118
 3787 0032 4FF6FF73 		movw	r3, #65535
 3788 0036 8383     		strh	r3, [r0, #28]	@ movhi
 370:lvgl/src/lv_widgets/lv_arc.c ****     if(ext->bg_angle_end < ext->bg_angle_start) bg_end = ext->bg_angle_end + 360;
 3789              		.loc 1 370 5 is_stmt 1 discriminator 2 view .LVU1119
 370:lvgl/src/lv_widgets/lv_arc.c ****     if(ext->bg_angle_end < ext->bg_angle_start) bg_end = ext->bg_angle_end + 360;
 3790              		.loc 1 370 38 is_stmt 0 discriminator 2 view .LVU1120
 3791 0038 0189     		ldrh	r1, [r0, #8]
 370:lvgl/src/lv_widgets/lv_arc.c ****     if(ext->bg_angle_end < ext->bg_angle_start) bg_end = ext->bg_angle_end + 360;
 3792              		.loc 1 370 26 discriminator 2 view .LVU1121
 3793 003a 0BB2     		sxth	r3, r1
 3794              	.LVL426:
 371:lvgl/src/lv_widgets/lv_arc.c **** 
 3795              		.loc 1 371 5 is_stmt 1 discriminator 2 view .LVU1122
 371:lvgl/src/lv_widgets/lv_arc.c **** 
 3796              		.loc 1 371 31 is_stmt 0 discriminator 2 view .LVU1123
 3797 003c C088     		ldrh	r0, [r0, #6]
 3798              	.LVL427:
 371:lvgl/src/lv_widgets/lv_arc.c **** 
 3799              		.loc 1 371 7 discriminator 2 view .LVU1124
 3800 003e 8142     		cmp	r1, r0
ARM GAS  D:\Temp\ccOOHxmt.s 			page 112


 3801 0040 02D2     		bcs	.L195
 371:lvgl/src/lv_widgets/lv_arc.c **** 
 3802              		.loc 1 371 49 is_stmt 1 discriminator 1 view .LVU1125
 371:lvgl/src/lv_widgets/lv_arc.c **** 
 3803              		.loc 1 371 76 is_stmt 0 discriminator 1 view .LVU1126
 3804 0042 01F5B473 		add	r3, r1, #360
 3805              	.LVL428:
 371:lvgl/src/lv_widgets/lv_arc.c **** 
 3806              		.loc 1 371 56 discriminator 1 view .LVU1127
 3807 0046 1BB2     		sxth	r3, r3
 3808              	.LVL429:
 3809              	.L195:
 373:lvgl/src/lv_widgets/lv_arc.c ****         case LV_ARC_TYPE_SYMMETRIC:
 3810              		.loc 1 373 5 is_stmt 1 view .LVU1128
 3811 0048 012A     		cmp	r2, #1
 3812 004a 06D0     		beq	.L196
 373:lvgl/src/lv_widgets/lv_arc.c ****         case LV_ARC_TYPE_SYMMETRIC:
 3813              		.loc 1 373 5 is_stmt 0 view .LVU1129
 3814 004c 022A     		cmp	r2, #2
 3815 004e 16D0     		beq	.L197
 383:lvgl/src/lv_widgets/lv_arc.c ****     }
 3816              		.loc 1 383 13 is_stmt 1 view .LVU1130
 3817 0050 0146     		mov	r1, r0
 3818 0052 2846     		mov	r0, r5
 3819 0054 FFF7FEFF 		bl	lv_arc_set_start_angle
 3820              	.LVL430:
 383:lvgl/src/lv_widgets/lv_arc.c ****     }
 3821              		.loc 1 383 13 is_stmt 0 view .LVU1131
 3822 0058 0CE0     		b	.L199
 3823              	.LVL431:
 3824              	.L196:
 375:lvgl/src/lv_widgets/lv_arc.c ****             lv_arc_set_start_angle(arc, bg_midpoint);
 3825              		.loc 1 375 13 is_stmt 1 view .LVU1132
 375:lvgl/src/lv_widgets/lv_arc.c ****             lv_arc_set_start_angle(arc, bg_midpoint);
 3826              		.loc 1 375 48 is_stmt 0 view .LVU1133
 3827 005a 0344     		add	r3, r3, r0
 3828              	.LVL432:
 375:lvgl/src/lv_widgets/lv_arc.c ****             lv_arc_set_start_angle(arc, bg_midpoint);
 3829              		.loc 1 375 58 view .LVU1134
 3830 005c 03EBD373 		add	r3, r3, r3, lsr #31
 3831              	.LVL433:
 376:lvgl/src/lv_widgets/lv_arc.c ****             lv_arc_set_end_angle(arc, bg_midpoint);
 3832              		.loc 1 376 13 is_stmt 1 view .LVU1135
 3833 0060 C3F34F04 		ubfx	r4, r3, #1, #16
 3834 0064 2146     		mov	r1, r4
 3835 0066 2846     		mov	r0, r5
 3836 0068 FFF7FEFF 		bl	lv_arc_set_start_angle
 3837              	.LVL434:
 377:lvgl/src/lv_widgets/lv_arc.c ****             break;
 3838              		.loc 1 377 13 view .LVU1136
 3839 006c 2146     		mov	r1, r4
 3840 006e 2846     		mov	r0, r5
 3841 0070 FFF7FEFF 		bl	lv_arc_set_end_angle
 3842              	.LVL435:
 378:lvgl/src/lv_widgets/lv_arc.c ****         case LV_ARC_TYPE_REVERSE:
 3843              		.loc 1 378 13 view .LVU1137
 3844              	.L199:
ARM GAS  D:\Temp\ccOOHxmt.s 			page 113


 386:lvgl/src/lv_widgets/lv_arc.c **** }
 3845              		.loc 1 386 5 view .LVU1138
 3846 0074 3146     		mov	r1, r6
 3847 0076 2846     		mov	r0, r5
 3848 0078 FFF7FEFF 		bl	lv_arc_set_value
 3849              	.LVL436:
 387:lvgl/src/lv_widgets/lv_arc.c **** 
 3850              		.loc 1 387 1 is_stmt 0 view .LVU1139
 3851 007c 70BD     		pop	{r4, r5, r6, pc}
 3852              	.LVL437:
 3853              	.L197:
 380:lvgl/src/lv_widgets/lv_arc.c ****             break;
 3854              		.loc 1 380 13 is_stmt 1 view .LVU1140
 3855 007e 2846     		mov	r0, r5
 3856 0080 FFF7FEFF 		bl	lv_arc_set_end_angle
 3857              	.LVL438:
 381:lvgl/src/lv_widgets/lv_arc.c ****         default: /** LV_ARC_TYPE_NORMAL*/
 3858              		.loc 1 381 13 view .LVU1141
 3859 0084 F6E7     		b	.L199
 3860              	.L203:
 3861 0086 00BF     		.align	2
 3862              	.L202:
 3863 0088 00000000 		.word	.LC0
 3864              		.cfi_endproc
 3865              	.LFE466:
 3867              		.section	.text.lv_arc_set_range,"ax",%progbits
 3868              		.align	1
 3869              		.global	lv_arc_set_range
 3870              		.syntax unified
 3871              		.thumb
 3872              		.thumb_func
 3873              		.fpu fpv4-sp-d16
 3875              	lv_arc_set_range:
 3876              	.LVL439:
 3877              	.LFB468:
 418:lvgl/src/lv_widgets/lv_arc.c ****     LV_ASSERT_OBJ(arc, LV_OBJX_NAME);
 3878              		.loc 1 418 1 view -0
 3879              		.cfi_startproc
 3880              		@ args = 0, pretend = 0, frame = 0
 3881              		@ frame_needed = 0, uses_anonymous_args = 0
 418:lvgl/src/lv_widgets/lv_arc.c ****     LV_ASSERT_OBJ(arc, LV_OBJX_NAME);
 3882              		.loc 1 418 1 is_stmt 0 view .LVU1143
 3883 0000 70B5     		push	{r4, r5, r6, lr}
 3884              	.LCFI31:
 3885              		.cfi_def_cfa_offset 16
 3886              		.cfi_offset 4, -16
 3887              		.cfi_offset 5, -12
 3888              		.cfi_offset 6, -8
 3889              		.cfi_offset 14, -4
 3890 0002 0646     		mov	r6, r0
 3891 0004 0D46     		mov	r5, r1
 3892 0006 1446     		mov	r4, r2
 419:lvgl/src/lv_widgets/lv_arc.c **** 
 3893              		.loc 1 419 5 is_stmt 1 view .LVU1144
 419:lvgl/src/lv_widgets/lv_arc.c **** 
 3894              		.loc 1 419 5 view .LVU1145
 3895 0008 FFF7FEFF 		bl	lv_debug_check_null
ARM GAS  D:\Temp\ccOOHxmt.s 			page 114


 3896              	.LVL440:
 419:lvgl/src/lv_widgets/lv_arc.c **** 
 3897              		.loc 1 419 5 is_stmt 0 view .LVU1146
 3898 000c 28B9     		cbnz	r0, .L205
 419:lvgl/src/lv_widgets/lv_arc.c **** 
 3899              		.loc 1 419 5 is_stmt 1 discriminator 1 view .LVU1147
 419:lvgl/src/lv_widgets/lv_arc.c **** 
 3900              		.loc 1 419 5 discriminator 1 view .LVU1148
 3901 000e 3246     		mov	r2, r6
 3902 0010 0023     		movs	r3, #0
 3903 0012 1048     		ldr	r0, .L213
 3904 0014 FFF7FEFF 		bl	lv_debug_log_error
 3905              	.LVL441:
 3906              	.L206:
 419:lvgl/src/lv_widgets/lv_arc.c **** 
 3907              		.loc 1 419 5 discriminator 1 view .LVU1149
 419:lvgl/src/lv_widgets/lv_arc.c **** 
 3908              		.loc 1 419 5 discriminator 1 view .LVU1150
 3909 0018 FEE7     		b	.L206
 3910              	.L205:
 419:lvgl/src/lv_widgets/lv_arc.c **** 
 3911              		.loc 1 419 37 discriminator 2 view .LVU1151
 421:lvgl/src/lv_widgets/lv_arc.c ****     if(ext->min_value == min && ext->max_value == max) return;
 3912              		.loc 1 421 5 discriminator 2 view .LVU1152
 421:lvgl/src/lv_widgets/lv_arc.c ****     if(ext->min_value == min && ext->max_value == max) return;
 3913              		.loc 1 421 42 is_stmt 0 discriminator 2 view .LVU1153
 3914 001a 3046     		mov	r0, r6
 3915 001c FFF7FEFF 		bl	lv_obj_get_ext_attr
 3916              	.LVL442:
 422:lvgl/src/lv_widgets/lv_arc.c **** 
 3917              		.loc 1 422 5 is_stmt 1 discriminator 2 view .LVU1154
 422:lvgl/src/lv_widgets/lv_arc.c **** 
 3918              		.loc 1 422 11 is_stmt 0 discriminator 2 view .LVU1155
 3919 0020 B0F91E30 		ldrsh	r3, [r0, #30]
 422:lvgl/src/lv_widgets/lv_arc.c **** 
 3920              		.loc 1 422 7 discriminator 2 view .LVU1156
 3921 0024 AB42     		cmp	r3, r5
 3922 0026 0FD0     		beq	.L212
 3923              	.L207:
 424:lvgl/src/lv_widgets/lv_arc.c ****     ext->max_value = max;
 3924              		.loc 1 424 5 is_stmt 1 view .LVU1157
 424:lvgl/src/lv_widgets/lv_arc.c ****     ext->max_value = max;
 3925              		.loc 1 424 20 is_stmt 0 view .LVU1158
 3926 0028 C583     		strh	r5, [r0, #30]	@ movhi
 425:lvgl/src/lv_widgets/lv_arc.c **** 
 3927              		.loc 1 425 5 is_stmt 1 view .LVU1159
 425:lvgl/src/lv_widgets/lv_arc.c **** 
 3928              		.loc 1 425 20 is_stmt 0 view .LVU1160
 3929 002a 0484     		strh	r4, [r0, #32]	@ movhi
 427:lvgl/src/lv_widgets/lv_arc.c ****         ext->cur_value = min;
 3930              		.loc 1 427 5 is_stmt 1 view .LVU1161
 427:lvgl/src/lv_widgets/lv_arc.c ****         ext->cur_value = min;
 3931              		.loc 1 427 11 is_stmt 0 view .LVU1162
 3932 002c B0F91C30 		ldrsh	r3, [r0, #28]
 427:lvgl/src/lv_widgets/lv_arc.c ****         ext->cur_value = min;
 3933              		.loc 1 427 7 view .LVU1163
 3934 0030 AB42     		cmp	r3, r5
ARM GAS  D:\Temp\ccOOHxmt.s 			page 115


 3935 0032 00DA     		bge	.L209
 428:lvgl/src/lv_widgets/lv_arc.c ****     }
 3936              		.loc 1 428 9 is_stmt 1 view .LVU1164
 428:lvgl/src/lv_widgets/lv_arc.c ****     }
 3937              		.loc 1 428 24 is_stmt 0 view .LVU1165
 3938 0034 8583     		strh	r5, [r0, #28]	@ movhi
 3939              	.L209:
 430:lvgl/src/lv_widgets/lv_arc.c ****         ext->cur_value = max;
 3940              		.loc 1 430 5 is_stmt 1 view .LVU1166
 430:lvgl/src/lv_widgets/lv_arc.c ****         ext->cur_value = max;
 3941              		.loc 1 430 11 is_stmt 0 view .LVU1167
 3942 0036 B0F91C30 		ldrsh	r3, [r0, #28]
 430:lvgl/src/lv_widgets/lv_arc.c ****         ext->cur_value = max;
 3943              		.loc 1 430 7 view .LVU1168
 3944 003a A342     		cmp	r3, r4
 3945 003c 00DD     		ble	.L210
 431:lvgl/src/lv_widgets/lv_arc.c ****     }
 3946              		.loc 1 431 9 is_stmt 1 view .LVU1169
 431:lvgl/src/lv_widgets/lv_arc.c ****     }
 3947              		.loc 1 431 24 is_stmt 0 view .LVU1170
 3948 003e 8483     		strh	r4, [r0, #28]	@ movhi
 3949              	.L210:
 434:lvgl/src/lv_widgets/lv_arc.c **** }
 3950              		.loc 1 434 5 is_stmt 1 view .LVU1171
 3951 0040 3046     		mov	r0, r6
 3952              	.LVL443:
 434:lvgl/src/lv_widgets/lv_arc.c **** }
 3953              		.loc 1 434 5 is_stmt 0 view .LVU1172
 3954 0042 FFF7FEFF 		bl	value_update
 3955              	.LVL444:
 3956              	.L204:
 435:lvgl/src/lv_widgets/lv_arc.c **** 
 3957              		.loc 1 435 1 view .LVU1173
 3958 0046 70BD     		pop	{r4, r5, r6, pc}
 3959              	.LVL445:
 3960              	.L212:
 422:lvgl/src/lv_widgets/lv_arc.c **** 
 3961              		.loc 1 422 36 discriminator 1 view .LVU1174
 3962 0048 B0F92030 		ldrsh	r3, [r0, #32]
 422:lvgl/src/lv_widgets/lv_arc.c **** 
 3963              		.loc 1 422 30 discriminator 1 view .LVU1175
 3964 004c A342     		cmp	r3, r4
 3965 004e EBD1     		bne	.L207
 3966 0050 F9E7     		b	.L204
 3967              	.L214:
 3968 0052 00BF     		.align	2
 3969              	.L213:
 3970 0054 00000000 		.word	.LC0
 3971              		.cfi_endproc
 3972              	.LFE468:
 3974              		.section	.text.lv_arc_set_chg_rate,"ax",%progbits
 3975              		.align	1
 3976              		.global	lv_arc_set_chg_rate
 3977              		.syntax unified
 3978              		.thumb
 3979              		.thumb_func
 3980              		.fpu fpv4-sp-d16
ARM GAS  D:\Temp\ccOOHxmt.s 			page 116


 3982              	lv_arc_set_chg_rate:
 3983              	.LVL446:
 3984              	.LFB469:
 444:lvgl/src/lv_widgets/lv_arc.c ****     LV_ASSERT_OBJ(arc, LV_OBJX_NAME);
 3985              		.loc 1 444 1 is_stmt 1 view -0
 3986              		.cfi_startproc
 3987              		@ args = 0, pretend = 0, frame = 0
 3988              		@ frame_needed = 0, uses_anonymous_args = 0
 444:lvgl/src/lv_widgets/lv_arc.c ****     LV_ASSERT_OBJ(arc, LV_OBJX_NAME);
 3989              		.loc 1 444 1 is_stmt 0 view .LVU1177
 3990 0000 38B5     		push	{r3, r4, r5, lr}
 3991              	.LCFI32:
 3992              		.cfi_def_cfa_offset 16
 3993              		.cfi_offset 3, -16
 3994              		.cfi_offset 4, -12
 3995              		.cfi_offset 5, -8
 3996              		.cfi_offset 14, -4
 3997 0002 0446     		mov	r4, r0
 3998 0004 0D46     		mov	r5, r1
 445:lvgl/src/lv_widgets/lv_arc.c **** 
 3999              		.loc 1 445 5 is_stmt 1 view .LVU1178
 445:lvgl/src/lv_widgets/lv_arc.c **** 
 4000              		.loc 1 445 5 view .LVU1179
 4001 0006 FFF7FEFF 		bl	lv_debug_check_null
 4002              	.LVL447:
 445:lvgl/src/lv_widgets/lv_arc.c **** 
 4003              		.loc 1 445 5 is_stmt 0 view .LVU1180
 4004 000a 28B9     		cbnz	r0, .L216
 445:lvgl/src/lv_widgets/lv_arc.c **** 
 4005              		.loc 1 445 5 is_stmt 1 discriminator 1 view .LVU1181
 445:lvgl/src/lv_widgets/lv_arc.c **** 
 4006              		.loc 1 445 5 discriminator 1 view .LVU1182
 4007 000c 2246     		mov	r2, r4
 4008 000e 0023     		movs	r3, #0
 4009 0010 0448     		ldr	r0, .L219
 4010 0012 FFF7FEFF 		bl	lv_debug_log_error
 4011              	.LVL448:
 4012              	.L217:
 445:lvgl/src/lv_widgets/lv_arc.c **** 
 4013              		.loc 1 445 5 discriminator 1 view .LVU1183
 445:lvgl/src/lv_widgets/lv_arc.c **** 
 4014              		.loc 1 445 5 discriminator 1 view .LVU1184
 4015 0016 FEE7     		b	.L217
 4016              	.L216:
 445:lvgl/src/lv_widgets/lv_arc.c **** 
 4017              		.loc 1 445 37 discriminator 2 view .LVU1185
 447:lvgl/src/lv_widgets/lv_arc.c ****     ext->chg_rate = rate;
 4018              		.loc 1 447 5 discriminator 2 view .LVU1186
 447:lvgl/src/lv_widgets/lv_arc.c ****     ext->chg_rate = rate;
 4019              		.loc 1 447 42 is_stmt 0 discriminator 2 view .LVU1187
 4020 0018 2046     		mov	r0, r4
 4021 001a FFF7FEFF 		bl	lv_obj_get_ext_attr
 4022              	.LVL449:
 448:lvgl/src/lv_widgets/lv_arc.c **** }
 4023              		.loc 1 448 5 is_stmt 1 discriminator 2 view .LVU1188
 448:lvgl/src/lv_widgets/lv_arc.c **** }
 4024              		.loc 1 448 19 is_stmt 0 discriminator 2 view .LVU1189
ARM GAS  D:\Temp\ccOOHxmt.s 			page 117


 4025 001e 8584     		strh	r5, [r0, #36]	@ movhi
 449:lvgl/src/lv_widgets/lv_arc.c **** 
 4026              		.loc 1 449 1 discriminator 2 view .LVU1190
 4027 0020 38BD     		pop	{r3, r4, r5, pc}
 4028              	.LVL450:
 4029              	.L220:
 449:lvgl/src/lv_widgets/lv_arc.c **** 
 4030              		.loc 1 449 1 discriminator 2 view .LVU1191
 4031 0022 00BF     		.align	2
 4032              	.L219:
 4033 0024 00000000 		.word	.LC0
 4034              		.cfi_endproc
 4035              	.LFE469:
 4037              		.section	.text.lv_arc_set_adjustable,"ax",%progbits
 4038              		.align	1
 4039              		.global	lv_arc_set_adjustable
 4040              		.syntax unified
 4041              		.thumb
 4042              		.thumb_func
 4043              		.fpu fpv4-sp-d16
 4045              	lv_arc_set_adjustable:
 4046              	.LVL451:
 4047              	.LFB470:
 457:lvgl/src/lv_widgets/lv_arc.c ****     LV_ASSERT_OBJ(arc, LV_OBJX_NAME);
 4048              		.loc 1 457 1 is_stmt 1 view -0
 4049              		.cfi_startproc
 4050              		@ args = 0, pretend = 0, frame = 0
 4051              		@ frame_needed = 0, uses_anonymous_args = 0
 457:lvgl/src/lv_widgets/lv_arc.c ****     LV_ASSERT_OBJ(arc, LV_OBJX_NAME);
 4052              		.loc 1 457 1 is_stmt 0 view .LVU1193
 4053 0000 38B5     		push	{r3, r4, r5, lr}
 4054              	.LCFI33:
 4055              		.cfi_def_cfa_offset 16
 4056              		.cfi_offset 3, -16
 4057              		.cfi_offset 4, -12
 4058              		.cfi_offset 5, -8
 4059              		.cfi_offset 14, -4
 4060 0002 0446     		mov	r4, r0
 4061 0004 0D46     		mov	r5, r1
 458:lvgl/src/lv_widgets/lv_arc.c **** 
 4062              		.loc 1 458 5 is_stmt 1 view .LVU1194
 458:lvgl/src/lv_widgets/lv_arc.c **** 
 4063              		.loc 1 458 5 view .LVU1195
 4064 0006 FFF7FEFF 		bl	lv_debug_check_null
 4065              	.LVL452:
 458:lvgl/src/lv_widgets/lv_arc.c **** 
 4066              		.loc 1 458 5 is_stmt 0 view .LVU1196
 4067 000a 28B9     		cbnz	r0, .L222
 458:lvgl/src/lv_widgets/lv_arc.c **** 
 4068              		.loc 1 458 5 is_stmt 1 discriminator 1 view .LVU1197
 458:lvgl/src/lv_widgets/lv_arc.c **** 
 4069              		.loc 1 458 5 discriminator 1 view .LVU1198
 4070 000c 2246     		mov	r2, r4
 4071 000e 0023     		movs	r3, #0
 4072 0010 0E48     		ldr	r0, .L227
 4073 0012 FFF7FEFF 		bl	lv_debug_log_error
 4074              	.LVL453:
ARM GAS  D:\Temp\ccOOHxmt.s 			page 118


 4075              	.L223:
 458:lvgl/src/lv_widgets/lv_arc.c **** 
 4076              		.loc 1 458 5 discriminator 1 view .LVU1199
 458:lvgl/src/lv_widgets/lv_arc.c **** 
 4077              		.loc 1 458 5 discriminator 1 view .LVU1200
 4078 0016 FEE7     		b	.L223
 4079              	.L222:
 458:lvgl/src/lv_widgets/lv_arc.c **** 
 4080              		.loc 1 458 37 discriminator 2 view .LVU1201
 460:lvgl/src/lv_widgets/lv_arc.c ****     if(ext->adjustable == adjustable)
 4081              		.loc 1 460 5 discriminator 2 view .LVU1202
 460:lvgl/src/lv_widgets/lv_arc.c ****     if(ext->adjustable == adjustable)
 4082              		.loc 1 460 42 is_stmt 0 discriminator 2 view .LVU1203
 4083 0018 2046     		mov	r0, r4
 4084 001a FFF7FEFF 		bl	lv_obj_get_ext_attr
 4085              	.LVL454:
 461:lvgl/src/lv_widgets/lv_arc.c ****         return;
 4086              		.loc 1 461 5 is_stmt 1 discriminator 2 view .LVU1204
 461:lvgl/src/lv_widgets/lv_arc.c ****         return;
 4087              		.loc 1 461 11 is_stmt 0 discriminator 2 view .LVU1205
 4088 001e 90F82230 		ldrb	r3, [r0, #34]	@ zero_extendqisi2
 4089 0022 C3F3C003 		ubfx	r3, r3, #3, #1
 461:lvgl/src/lv_widgets/lv_arc.c ****         return;
 4090              		.loc 1 461 7 discriminator 2 view .LVU1206
 4091 0026 AB42     		cmp	r3, r5
 4092 0028 0ED0     		beq	.L221
 464:lvgl/src/lv_widgets/lv_arc.c ****     if(!adjustable)
 4093              		.loc 1 464 5 is_stmt 1 view .LVU1207
 464:lvgl/src/lv_widgets/lv_arc.c ****     if(!adjustable)
 4094              		.loc 1 464 21 is_stmt 0 view .LVU1208
 4095 002a 90F82230 		ldrb	r3, [r0, #34]	@ zero_extendqisi2
 4096 002e 65F3C303 		bfi	r3, r5, #3, #1
 4097 0032 80F82230 		strb	r3, [r0, #34]
 465:lvgl/src/lv_widgets/lv_arc.c ****         ext->dragging = false;
 4098              		.loc 1 465 5 is_stmt 1 view .LVU1209
 465:lvgl/src/lv_widgets/lv_arc.c ****         ext->dragging = false;
 4099              		.loc 1 465 7 is_stmt 0 view .LVU1210
 4100 0036 25B9     		cbnz	r5, .L225
 466:lvgl/src/lv_widgets/lv_arc.c ****     lv_obj_invalidate(arc);
 4101              		.loc 1 466 9 is_stmt 1 view .LVU1211
 466:lvgl/src/lv_widgets/lv_arc.c ****     lv_obj_invalidate(arc);
 4102              		.loc 1 466 23 is_stmt 0 view .LVU1212
 4103 0038 DBB2     		uxtb	r3, r3
 4104 003a 6FF30003 		bfc	r3, #0, #1
 4105 003e 80F82230 		strb	r3, [r0, #34]
 4106              	.L225:
 467:lvgl/src/lv_widgets/lv_arc.c **** }
 4107              		.loc 1 467 5 is_stmt 1 view .LVU1213
 4108 0042 2046     		mov	r0, r4
 4109              	.LVL455:
 467:lvgl/src/lv_widgets/lv_arc.c **** }
 4110              		.loc 1 467 5 is_stmt 0 view .LVU1214
 4111 0044 FFF7FEFF 		bl	lv_obj_invalidate
 4112              	.LVL456:
 4113              	.L221:
 468:lvgl/src/lv_widgets/lv_arc.c **** 
 4114              		.loc 1 468 1 view .LVU1215
ARM GAS  D:\Temp\ccOOHxmt.s 			page 119


 4115 0048 38BD     		pop	{r3, r4, r5, pc}
 4116              	.LVL457:
 4117              	.L228:
 468:lvgl/src/lv_widgets/lv_arc.c **** 
 4118              		.loc 1 468 1 view .LVU1216
 4119 004a 00BF     		.align	2
 4120              	.L227:
 4121 004c 00000000 		.word	.LC0
 4122              		.cfi_endproc
 4123              	.LFE470:
 4125              		.section	.text.lv_arc_get_angle_start,"ax",%progbits
 4126              		.align	1
 4127              		.global	lv_arc_get_angle_start
 4128              		.syntax unified
 4129              		.thumb
 4130              		.thumb_func
 4131              		.fpu fpv4-sp-d16
 4133              	lv_arc_get_angle_start:
 4134              	.LVL458:
 4135              	.LFB471:
 480:lvgl/src/lv_widgets/lv_arc.c ****     LV_ASSERT_OBJ(arc, LV_OBJX_NAME);
 4136              		.loc 1 480 1 is_stmt 1 view -0
 4137              		.cfi_startproc
 4138              		@ args = 0, pretend = 0, frame = 0
 4139              		@ frame_needed = 0, uses_anonymous_args = 0
 480:lvgl/src/lv_widgets/lv_arc.c ****     LV_ASSERT_OBJ(arc, LV_OBJX_NAME);
 4140              		.loc 1 480 1 is_stmt 0 view .LVU1218
 4141 0000 10B5     		push	{r4, lr}
 4142              	.LCFI34:
 4143              		.cfi_def_cfa_offset 8
 4144              		.cfi_offset 4, -8
 4145              		.cfi_offset 14, -4
 4146 0002 0446     		mov	r4, r0
 481:lvgl/src/lv_widgets/lv_arc.c **** 
 4147              		.loc 1 481 5 is_stmt 1 view .LVU1219
 481:lvgl/src/lv_widgets/lv_arc.c **** 
 4148              		.loc 1 481 5 view .LVU1220
 4149 0004 FFF7FEFF 		bl	lv_debug_check_null
 4150              	.LVL459:
 481:lvgl/src/lv_widgets/lv_arc.c **** 
 4151              		.loc 1 481 5 is_stmt 0 view .LVU1221
 4152 0008 28B9     		cbnz	r0, .L230
 481:lvgl/src/lv_widgets/lv_arc.c **** 
 4153              		.loc 1 481 5 is_stmt 1 discriminator 1 view .LVU1222
 481:lvgl/src/lv_widgets/lv_arc.c **** 
 4154              		.loc 1 481 5 discriminator 1 view .LVU1223
 4155 000a 2246     		mov	r2, r4
 4156 000c 0023     		movs	r3, #0
 4157 000e 0448     		ldr	r0, .L233
 4158 0010 FFF7FEFF 		bl	lv_debug_log_error
 4159              	.LVL460:
 4160              	.L231:
 481:lvgl/src/lv_widgets/lv_arc.c **** 
 4161              		.loc 1 481 5 discriminator 1 view .LVU1224
 481:lvgl/src/lv_widgets/lv_arc.c **** 
 4162              		.loc 1 481 5 discriminator 1 view .LVU1225
 4163 0014 FEE7     		b	.L231
ARM GAS  D:\Temp\ccOOHxmt.s 			page 120


 4164              	.L230:
 481:lvgl/src/lv_widgets/lv_arc.c **** 
 4165              		.loc 1 481 37 discriminator 2 view .LVU1226
 483:lvgl/src/lv_widgets/lv_arc.c **** 
 4166              		.loc 1 483 5 discriminator 2 view .LVU1227
 483:lvgl/src/lv_widgets/lv_arc.c **** 
 4167              		.loc 1 483 26 is_stmt 0 discriminator 2 view .LVU1228
 4168 0016 2046     		mov	r0, r4
 4169 0018 FFF7FEFF 		bl	lv_obj_get_ext_attr
 4170              	.LVL461:
 485:lvgl/src/lv_widgets/lv_arc.c **** }
 4171              		.loc 1 485 5 is_stmt 1 discriminator 2 view .LVU1229
 486:lvgl/src/lv_widgets/lv_arc.c **** 
 4172              		.loc 1 486 1 is_stmt 0 discriminator 2 view .LVU1230
 4173 001c 4088     		ldrh	r0, [r0, #2]
 4174              	.LVL462:
 486:lvgl/src/lv_widgets/lv_arc.c **** 
 4175              		.loc 1 486 1 discriminator 2 view .LVU1231
 4176 001e 10BD     		pop	{r4, pc}
 4177              	.LVL463:
 4178              	.L234:
 486:lvgl/src/lv_widgets/lv_arc.c **** 
 4179              		.loc 1 486 1 discriminator 2 view .LVU1232
 4180              		.align	2
 4181              	.L233:
 4182 0020 00000000 		.word	.LC0
 4183              		.cfi_endproc
 4184              	.LFE471:
 4186              		.section	.text.lv_arc_get_angle_end,"ax",%progbits
 4187              		.align	1
 4188              		.global	lv_arc_get_angle_end
 4189              		.syntax unified
 4190              		.thumb
 4191              		.thumb_func
 4192              		.fpu fpv4-sp-d16
 4194              	lv_arc_get_angle_end:
 4195              	.LVL464:
 4196              	.LFB472:
 494:lvgl/src/lv_widgets/lv_arc.c ****     LV_ASSERT_OBJ(arc, LV_OBJX_NAME);
 4197              		.loc 1 494 1 is_stmt 1 view -0
 4198              		.cfi_startproc
 4199              		@ args = 0, pretend = 0, frame = 0
 4200              		@ frame_needed = 0, uses_anonymous_args = 0
 494:lvgl/src/lv_widgets/lv_arc.c ****     LV_ASSERT_OBJ(arc, LV_OBJX_NAME);
 4201              		.loc 1 494 1 is_stmt 0 view .LVU1234
 4202 0000 10B5     		push	{r4, lr}
 4203              	.LCFI35:
 4204              		.cfi_def_cfa_offset 8
 4205              		.cfi_offset 4, -8
 4206              		.cfi_offset 14, -4
 4207 0002 0446     		mov	r4, r0
 495:lvgl/src/lv_widgets/lv_arc.c **** 
 4208              		.loc 1 495 5 is_stmt 1 view .LVU1235
 495:lvgl/src/lv_widgets/lv_arc.c **** 
 4209              		.loc 1 495 5 view .LVU1236
 4210 0004 FFF7FEFF 		bl	lv_debug_check_null
 4211              	.LVL465:
ARM GAS  D:\Temp\ccOOHxmt.s 			page 121


 495:lvgl/src/lv_widgets/lv_arc.c **** 
 4212              		.loc 1 495 5 is_stmt 0 view .LVU1237
 4213 0008 28B9     		cbnz	r0, .L236
 495:lvgl/src/lv_widgets/lv_arc.c **** 
 4214              		.loc 1 495 5 is_stmt 1 discriminator 1 view .LVU1238
 495:lvgl/src/lv_widgets/lv_arc.c **** 
 4215              		.loc 1 495 5 discriminator 1 view .LVU1239
 4216 000a 2246     		mov	r2, r4
 4217 000c 0023     		movs	r3, #0
 4218 000e 0448     		ldr	r0, .L239
 4219 0010 FFF7FEFF 		bl	lv_debug_log_error
 4220              	.LVL466:
 4221              	.L237:
 495:lvgl/src/lv_widgets/lv_arc.c **** 
 4222              		.loc 1 495 5 discriminator 1 view .LVU1240
 495:lvgl/src/lv_widgets/lv_arc.c **** 
 4223              		.loc 1 495 5 discriminator 1 view .LVU1241
 4224 0014 FEE7     		b	.L237
 4225              	.L236:
 495:lvgl/src/lv_widgets/lv_arc.c **** 
 4226              		.loc 1 495 37 discriminator 2 view .LVU1242
 497:lvgl/src/lv_widgets/lv_arc.c **** 
 4227              		.loc 1 497 5 discriminator 2 view .LVU1243
 497:lvgl/src/lv_widgets/lv_arc.c **** 
 4228              		.loc 1 497 26 is_stmt 0 discriminator 2 view .LVU1244
 4229 0016 2046     		mov	r0, r4
 4230 0018 FFF7FEFF 		bl	lv_obj_get_ext_attr
 4231              	.LVL467:
 499:lvgl/src/lv_widgets/lv_arc.c **** }
 4232              		.loc 1 499 5 is_stmt 1 discriminator 2 view .LVU1245
 500:lvgl/src/lv_widgets/lv_arc.c **** 
 4233              		.loc 1 500 1 is_stmt 0 discriminator 2 view .LVU1246
 4234 001c 8088     		ldrh	r0, [r0, #4]
 4235              	.LVL468:
 500:lvgl/src/lv_widgets/lv_arc.c **** 
 4236              		.loc 1 500 1 discriminator 2 view .LVU1247
 4237 001e 10BD     		pop	{r4, pc}
 4238              	.LVL469:
 4239              	.L240:
 500:lvgl/src/lv_widgets/lv_arc.c **** 
 4240              		.loc 1 500 1 discriminator 2 view .LVU1248
 4241              		.align	2
 4242              	.L239:
 4243 0020 00000000 		.word	.LC0
 4244              		.cfi_endproc
 4245              	.LFE472:
 4247              		.section	.text.lv_arc_get_bg_angle_start,"ax",%progbits
 4248              		.align	1
 4249              		.global	lv_arc_get_bg_angle_start
 4250              		.syntax unified
 4251              		.thumb
 4252              		.thumb_func
 4253              		.fpu fpv4-sp-d16
 4255              	lv_arc_get_bg_angle_start:
 4256              	.LVL470:
 4257              	.LFB473:
 508:lvgl/src/lv_widgets/lv_arc.c ****     LV_ASSERT_OBJ(arc, LV_OBJX_NAME);
ARM GAS  D:\Temp\ccOOHxmt.s 			page 122


 4258              		.loc 1 508 1 is_stmt 1 view -0
 4259              		.cfi_startproc
 4260              		@ args = 0, pretend = 0, frame = 0
 4261              		@ frame_needed = 0, uses_anonymous_args = 0
 508:lvgl/src/lv_widgets/lv_arc.c ****     LV_ASSERT_OBJ(arc, LV_OBJX_NAME);
 4262              		.loc 1 508 1 is_stmt 0 view .LVU1250
 4263 0000 10B5     		push	{r4, lr}
 4264              	.LCFI36:
 4265              		.cfi_def_cfa_offset 8
 4266              		.cfi_offset 4, -8
 4267              		.cfi_offset 14, -4
 4268 0002 0446     		mov	r4, r0
 509:lvgl/src/lv_widgets/lv_arc.c **** 
 4269              		.loc 1 509 5 is_stmt 1 view .LVU1251
 509:lvgl/src/lv_widgets/lv_arc.c **** 
 4270              		.loc 1 509 5 view .LVU1252
 4271 0004 FFF7FEFF 		bl	lv_debug_check_null
 4272              	.LVL471:
 509:lvgl/src/lv_widgets/lv_arc.c **** 
 4273              		.loc 1 509 5 is_stmt 0 view .LVU1253
 4274 0008 28B9     		cbnz	r0, .L242
 509:lvgl/src/lv_widgets/lv_arc.c **** 
 4275              		.loc 1 509 5 is_stmt 1 discriminator 1 view .LVU1254
 509:lvgl/src/lv_widgets/lv_arc.c **** 
 4276              		.loc 1 509 5 discriminator 1 view .LVU1255
 4277 000a 2246     		mov	r2, r4
 4278 000c 0023     		movs	r3, #0
 4279 000e 0448     		ldr	r0, .L245
 4280 0010 FFF7FEFF 		bl	lv_debug_log_error
 4281              	.LVL472:
 4282              	.L243:
 509:lvgl/src/lv_widgets/lv_arc.c **** 
 4283              		.loc 1 509 5 discriminator 1 view .LVU1256
 509:lvgl/src/lv_widgets/lv_arc.c **** 
 4284              		.loc 1 509 5 discriminator 1 view .LVU1257
 4285 0014 FEE7     		b	.L243
 4286              	.L242:
 509:lvgl/src/lv_widgets/lv_arc.c **** 
 4287              		.loc 1 509 37 discriminator 2 view .LVU1258
 511:lvgl/src/lv_widgets/lv_arc.c **** 
 4288              		.loc 1 511 5 discriminator 2 view .LVU1259
 511:lvgl/src/lv_widgets/lv_arc.c **** 
 4289              		.loc 1 511 26 is_stmt 0 discriminator 2 view .LVU1260
 4290 0016 2046     		mov	r0, r4
 4291 0018 FFF7FEFF 		bl	lv_obj_get_ext_attr
 4292              	.LVL473:
 513:lvgl/src/lv_widgets/lv_arc.c **** }
 4293              		.loc 1 513 5 is_stmt 1 discriminator 2 view .LVU1261
 514:lvgl/src/lv_widgets/lv_arc.c **** 
 4294              		.loc 1 514 1 is_stmt 0 discriminator 2 view .LVU1262
 4295 001c C088     		ldrh	r0, [r0, #6]
 4296              	.LVL474:
 514:lvgl/src/lv_widgets/lv_arc.c **** 
 4297              		.loc 1 514 1 discriminator 2 view .LVU1263
 4298 001e 10BD     		pop	{r4, pc}
 4299              	.LVL475:
 4300              	.L246:
ARM GAS  D:\Temp\ccOOHxmt.s 			page 123


 514:lvgl/src/lv_widgets/lv_arc.c **** 
 4301              		.loc 1 514 1 discriminator 2 view .LVU1264
 4302              		.align	2
 4303              	.L245:
 4304 0020 00000000 		.word	.LC0
 4305              		.cfi_endproc
 4306              	.LFE473:
 4308              		.section	.text.lv_arc_get_bg_angle_end,"ax",%progbits
 4309              		.align	1
 4310              		.global	lv_arc_get_bg_angle_end
 4311              		.syntax unified
 4312              		.thumb
 4313              		.thumb_func
 4314              		.fpu fpv4-sp-d16
 4316              	lv_arc_get_bg_angle_end:
 4317              	.LVL476:
 4318              	.LFB474:
 522:lvgl/src/lv_widgets/lv_arc.c ****     LV_ASSERT_OBJ(arc, LV_OBJX_NAME);
 4319              		.loc 1 522 1 is_stmt 1 view -0
 4320              		.cfi_startproc
 4321              		@ args = 0, pretend = 0, frame = 0
 4322              		@ frame_needed = 0, uses_anonymous_args = 0
 522:lvgl/src/lv_widgets/lv_arc.c ****     LV_ASSERT_OBJ(arc, LV_OBJX_NAME);
 4323              		.loc 1 522 1 is_stmt 0 view .LVU1266
 4324 0000 10B5     		push	{r4, lr}
 4325              	.LCFI37:
 4326              		.cfi_def_cfa_offset 8
 4327              		.cfi_offset 4, -8
 4328              		.cfi_offset 14, -4
 4329 0002 0446     		mov	r4, r0
 523:lvgl/src/lv_widgets/lv_arc.c **** 
 4330              		.loc 1 523 5 is_stmt 1 view .LVU1267
 523:lvgl/src/lv_widgets/lv_arc.c **** 
 4331              		.loc 1 523 5 view .LVU1268
 4332 0004 FFF7FEFF 		bl	lv_debug_check_null
 4333              	.LVL477:
 523:lvgl/src/lv_widgets/lv_arc.c **** 
 4334              		.loc 1 523 5 is_stmt 0 view .LVU1269
 4335 0008 28B9     		cbnz	r0, .L248
 523:lvgl/src/lv_widgets/lv_arc.c **** 
 4336              		.loc 1 523 5 is_stmt 1 discriminator 1 view .LVU1270
 523:lvgl/src/lv_widgets/lv_arc.c **** 
 4337              		.loc 1 523 5 discriminator 1 view .LVU1271
 4338 000a 2246     		mov	r2, r4
 4339 000c 0023     		movs	r3, #0
 4340 000e 0448     		ldr	r0, .L251
 4341 0010 FFF7FEFF 		bl	lv_debug_log_error
 4342              	.LVL478:
 4343              	.L249:
 523:lvgl/src/lv_widgets/lv_arc.c **** 
 4344              		.loc 1 523 5 discriminator 1 view .LVU1272
 523:lvgl/src/lv_widgets/lv_arc.c **** 
 4345              		.loc 1 523 5 discriminator 1 view .LVU1273
 4346 0014 FEE7     		b	.L249
 4347              	.L248:
 523:lvgl/src/lv_widgets/lv_arc.c **** 
 4348              		.loc 1 523 37 discriminator 2 view .LVU1274
ARM GAS  D:\Temp\ccOOHxmt.s 			page 124


 525:lvgl/src/lv_widgets/lv_arc.c **** 
 4349              		.loc 1 525 5 discriminator 2 view .LVU1275
 525:lvgl/src/lv_widgets/lv_arc.c **** 
 4350              		.loc 1 525 26 is_stmt 0 discriminator 2 view .LVU1276
 4351 0016 2046     		mov	r0, r4
 4352 0018 FFF7FEFF 		bl	lv_obj_get_ext_attr
 4353              	.LVL479:
 527:lvgl/src/lv_widgets/lv_arc.c **** }
 4354              		.loc 1 527 5 is_stmt 1 discriminator 2 view .LVU1277
 528:lvgl/src/lv_widgets/lv_arc.c **** 
 4355              		.loc 1 528 1 is_stmt 0 discriminator 2 view .LVU1278
 4356 001c 0089     		ldrh	r0, [r0, #8]
 4357              	.LVL480:
 528:lvgl/src/lv_widgets/lv_arc.c **** 
 4358              		.loc 1 528 1 discriminator 2 view .LVU1279
 4359 001e 10BD     		pop	{r4, pc}
 4360              	.LVL481:
 4361              	.L252:
 528:lvgl/src/lv_widgets/lv_arc.c **** 
 4362              		.loc 1 528 1 discriminator 2 view .LVU1280
 4363              		.align	2
 4364              	.L251:
 4365 0020 00000000 		.word	.LC0
 4366              		.cfi_endproc
 4367              	.LFE474:
 4369              		.section	.text.lv_arc_get_value,"ax",%progbits
 4370              		.align	1
 4371              		.global	lv_arc_get_value
 4372              		.syntax unified
 4373              		.thumb
 4374              		.thumb_func
 4375              		.fpu fpv4-sp-d16
 4377              	lv_arc_get_value:
 4378              	.LVL482:
 4379              	.LFB475:
 536:lvgl/src/lv_widgets/lv_arc.c ****     LV_ASSERT_OBJ(arc, LV_OBJX_NAME);
 4380              		.loc 1 536 1 is_stmt 1 view -0
 4381              		.cfi_startproc
 4382              		@ args = 0, pretend = 0, frame = 0
 4383              		@ frame_needed = 0, uses_anonymous_args = 0
 536:lvgl/src/lv_widgets/lv_arc.c ****     LV_ASSERT_OBJ(arc, LV_OBJX_NAME);
 4384              		.loc 1 536 1 is_stmt 0 view .LVU1282
 4385 0000 10B5     		push	{r4, lr}
 4386              	.LCFI38:
 4387              		.cfi_def_cfa_offset 8
 4388              		.cfi_offset 4, -8
 4389              		.cfi_offset 14, -4
 4390 0002 0446     		mov	r4, r0
 537:lvgl/src/lv_widgets/lv_arc.c **** 
 4391              		.loc 1 537 5 is_stmt 1 view .LVU1283
 537:lvgl/src/lv_widgets/lv_arc.c **** 
 4392              		.loc 1 537 5 view .LVU1284
 4393 0004 FFF7FEFF 		bl	lv_debug_check_null
 4394              	.LVL483:
 537:lvgl/src/lv_widgets/lv_arc.c **** 
 4395              		.loc 1 537 5 is_stmt 0 view .LVU1285
 4396 0008 28B9     		cbnz	r0, .L254
ARM GAS  D:\Temp\ccOOHxmt.s 			page 125


 537:lvgl/src/lv_widgets/lv_arc.c **** 
 4397              		.loc 1 537 5 is_stmt 1 discriminator 1 view .LVU1286
 537:lvgl/src/lv_widgets/lv_arc.c **** 
 4398              		.loc 1 537 5 discriminator 1 view .LVU1287
 4399 000a 2246     		mov	r2, r4
 4400 000c 0023     		movs	r3, #0
 4401 000e 0548     		ldr	r0, .L257
 4402 0010 FFF7FEFF 		bl	lv_debug_log_error
 4403              	.LVL484:
 4404              	.L255:
 537:lvgl/src/lv_widgets/lv_arc.c **** 
 4405              		.loc 1 537 5 discriminator 1 view .LVU1288
 537:lvgl/src/lv_widgets/lv_arc.c **** 
 4406              		.loc 1 537 5 discriminator 1 view .LVU1289
 4407 0014 FEE7     		b	.L255
 4408              	.L254:
 537:lvgl/src/lv_widgets/lv_arc.c **** 
 4409              		.loc 1 537 37 discriminator 2 view .LVU1290
 539:lvgl/src/lv_widgets/lv_arc.c ****     return ext->cur_value;
 4410              		.loc 1 539 5 discriminator 2 view .LVU1291
 539:lvgl/src/lv_widgets/lv_arc.c ****     return ext->cur_value;
 4411              		.loc 1 539 26 is_stmt 0 discriminator 2 view .LVU1292
 4412 0016 2046     		mov	r0, r4
 4413 0018 FFF7FEFF 		bl	lv_obj_get_ext_attr
 4414              	.LVL485:
 540:lvgl/src/lv_widgets/lv_arc.c **** }
 4415              		.loc 1 540 5 is_stmt 1 discriminator 2 view .LVU1293
 541:lvgl/src/lv_widgets/lv_arc.c **** 
 4416              		.loc 1 541 1 is_stmt 0 discriminator 2 view .LVU1294
 4417 001c B0F91C00 		ldrsh	r0, [r0, #28]
 4418              	.LVL486:
 541:lvgl/src/lv_widgets/lv_arc.c **** 
 4419              		.loc 1 541 1 discriminator 2 view .LVU1295
 4420 0020 10BD     		pop	{r4, pc}
 4421              	.LVL487:
 4422              	.L258:
 541:lvgl/src/lv_widgets/lv_arc.c **** 
 4423              		.loc 1 541 1 discriminator 2 view .LVU1296
 4424 0022 00BF     		.align	2
 4425              	.L257:
 4426 0024 00000000 		.word	.LC0
 4427              		.cfi_endproc
 4428              	.LFE475:
 4430              		.section	.text.lv_arc_signal,"ax",%progbits
 4431              		.align	1
 4432              		.syntax unified
 4433              		.thumb
 4434              		.thumb_func
 4435              		.fpu fpv4-sp-d16
 4437              	lv_arc_signal:
 4438              	.LVL488:
 4439              	.LFB482:
 704:lvgl/src/lv_widgets/lv_arc.c ****     lv_res_t res;
 4440              		.loc 1 704 1 is_stmt 1 view -0
 4441              		.cfi_startproc
 4442              		@ args = 0, pretend = 0, frame = 16
 4443              		@ frame_needed = 0, uses_anonymous_args = 0
ARM GAS  D:\Temp\ccOOHxmt.s 			page 126


 704:lvgl/src/lv_widgets/lv_arc.c ****     lv_res_t res;
 4444              		.loc 1 704 1 is_stmt 0 view .LVU1298
 4445 0000 2DE9F043 		push	{r4, r5, r6, r7, r8, r9, lr}
 4446              	.LCFI39:
 4447              		.cfi_def_cfa_offset 28
 4448              		.cfi_offset 4, -28
 4449              		.cfi_offset 5, -24
 4450              		.cfi_offset 6, -20
 4451              		.cfi_offset 7, -16
 4452              		.cfi_offset 8, -12
 4453              		.cfi_offset 9, -8
 4454              		.cfi_offset 14, -4
 4455 0004 87B0     		sub	sp, sp, #28
 4456              	.LCFI40:
 4457              		.cfi_def_cfa_offset 56
 4458 0006 0646     		mov	r6, r0
 4459 0008 0C46     		mov	r4, r1
 4460 000a 1746     		mov	r7, r2
 705:lvgl/src/lv_widgets/lv_arc.c ****     if(sign == LV_SIGNAL_GET_STYLE) {
 4461              		.loc 1 705 5 is_stmt 1 view .LVU1299
 706:lvgl/src/lv_widgets/lv_arc.c ****         lv_get_style_info_t * info = param;
 4462              		.loc 1 706 5 view .LVU1300
 706:lvgl/src/lv_widgets/lv_arc.c ****         lv_get_style_info_t * info = param;
 4463              		.loc 1 706 7 is_stmt 0 view .LVU1301
 4464 000c 0829     		cmp	r1, #8
 4465 000e 23D0     		beq	.L286
 714:lvgl/src/lv_widgets/lv_arc.c ****     if(res != LV_RES_OK) return res;
 4466              		.loc 1 714 5 is_stmt 1 view .LVU1302
 714:lvgl/src/lv_widgets/lv_arc.c ****     if(res != LV_RES_OK) return res;
 4467              		.loc 1 714 11 is_stmt 0 view .LVU1303
 4468 0010 C74B     		ldr	r3, .L296
 4469 0012 1B68     		ldr	r3, [r3]
 4470 0014 9847     		blx	r3
 4471              	.LVL489:
 714:lvgl/src/lv_widgets/lv_arc.c ****     if(res != LV_RES_OK) return res;
 4472              		.loc 1 714 11 view .LVU1304
 4473 0016 0546     		mov	r5, r0
 4474              	.LVL490:
 715:lvgl/src/lv_widgets/lv_arc.c **** 
 4475              		.loc 1 715 5 is_stmt 1 view .LVU1305
 715:lvgl/src/lv_widgets/lv_arc.c **** 
 4476              		.loc 1 715 7 is_stmt 0 view .LVU1306
 4477 0018 0128     		cmp	r0, #1
 4478 001a 23D1     		bne	.L261
 717:lvgl/src/lv_widgets/lv_arc.c **** 
 4479              		.loc 1 717 5 is_stmt 1 view .LVU1307
 717:lvgl/src/lv_widgets/lv_arc.c **** 
 4480              		.loc 1 717 7 is_stmt 0 view .LVU1308
 4481 001c 072C     		cmp	r4, #7
 4482 001e 2DD0     		beq	.L287
 719:lvgl/src/lv_widgets/lv_arc.c **** 
 4483              		.loc 1 719 5 is_stmt 1 view .LVU1309
 719:lvgl/src/lv_widgets/lv_arc.c **** 
 4484              		.loc 1 719 26 is_stmt 0 view .LVU1310
 4485 0020 3046     		mov	r0, r6
 4486              	.LVL491:
 719:lvgl/src/lv_widgets/lv_arc.c **** 
ARM GAS  D:\Temp\ccOOHxmt.s 			page 127


 4487              		.loc 1 719 26 view .LVU1311
 4488 0022 FFF7FEFF 		bl	lv_obj_get_ext_attr
 4489              	.LVL492:
 4490 0026 8046     		mov	r8, r0
 4491              	.LVL493:
 721:lvgl/src/lv_widgets/lv_arc.c ****         /* Only adjustable arcs can be dragged */
 4492              		.loc 1 721 5 is_stmt 1 view .LVU1312
 721:lvgl/src/lv_widgets/lv_arc.c ****         /* Only adjustable arcs can be dragged */
 4493              		.loc 1 721 7 is_stmt 0 view .LVU1313
 4494 0028 0C2C     		cmp	r4, #12
 4495 002a 2DD0     		beq	.L288
 827:lvgl/src/lv_widgets/lv_arc.c ****         ext->dragging = false;
 4496              		.loc 1 827 10 is_stmt 1 view .LVU1314
 827:lvgl/src/lv_widgets/lv_arc.c ****         ext->dragging = false;
 4497              		.loc 1 827 40 is_stmt 0 view .LVU1315
 4498 002c A4F10D03 		sub	r3, r4, #13
 4499 0030 DBB2     		uxtb	r3, r3
 827:lvgl/src/lv_widgets/lv_arc.c ****         ext->dragging = false;
 4500              		.loc 1 827 12 view .LVU1316
 4501 0032 012B     		cmp	r3, #1
 4502 0034 40F22D81 		bls	.L289
 841:lvgl/src/lv_widgets/lv_arc.c ****         if(!ext->adjustable) return res;
 4503              		.loc 1 841 10 is_stmt 1 view .LVU1317
 841:lvgl/src/lv_widgets/lv_arc.c ****         if(!ext->adjustable) return res;
 4504              		.loc 1 841 12 is_stmt 0 view .LVU1318
 4505 0038 182C     		cmp	r4, #24
 4506 003a 00F04681 		beq	.L290
 859:lvgl/src/lv_widgets/lv_arc.c **** #if LV_USE_GROUP
 4507              		.loc 1 859 10 is_stmt 1 view .LVU1319
 859:lvgl/src/lv_widgets/lv_arc.c **** #if LV_USE_GROUP
 4508              		.loc 1 859 12 is_stmt 0 view .LVU1320
 4509 003e 192C     		cmp	r4, #25
 4510 0040 00F07381 		beq	.L291
 865:lvgl/src/lv_widgets/lv_arc.c ****         lv_obj_clean_style_list(arc, LV_ARC_PART_KNOB);
 4511              		.loc 1 865 10 is_stmt 1 view .LVU1321
 865:lvgl/src/lv_widgets/lv_arc.c ****         lv_obj_clean_style_list(arc, LV_ARC_PART_KNOB);
 4512              		.loc 1 865 12 is_stmt 0 view .LVU1322
 4513 0044 74B9     		cbnz	r4, .L261
 866:lvgl/src/lv_widgets/lv_arc.c ****         lv_obj_clean_style_list(arc, LV_ARC_PART_INDIC);
 4514              		.loc 1 866 9 is_stmt 1 view .LVU1323
 4515 0046 0221     		movs	r1, #2
 4516 0048 3046     		mov	r0, r6
 4517              	.LVL494:
 866:lvgl/src/lv_widgets/lv_arc.c ****         lv_obj_clean_style_list(arc, LV_ARC_PART_INDIC);
 4518              		.loc 1 866 9 is_stmt 0 view .LVU1324
 4519 004a FFF7FEFF 		bl	lv_obj_clean_style_list
 4520              	.LVL495:
 867:lvgl/src/lv_widgets/lv_arc.c ****     }
 4521              		.loc 1 867 9 is_stmt 1 view .LVU1325
 4522 004e 0121     		movs	r1, #1
 4523 0050 3046     		mov	r0, r6
 4524 0052 FFF7FEFF 		bl	lv_obj_clean_style_list
 4525              	.LVL496:
 4526 0056 05E0     		b	.L261
 4527              	.LVL497:
 4528              	.L286:
 4529              	.LBB123:
ARM GAS  D:\Temp\ccOOHxmt.s 			page 128


 707:lvgl/src/lv_widgets/lv_arc.c ****         info->result = lv_arc_get_style(arc, info->part);
 4530              		.loc 1 707 9 view .LVU1326
 708:lvgl/src/lv_widgets/lv_arc.c ****         if(info->result != NULL) return LV_RES_OK;
 4531              		.loc 1 708 9 view .LVU1327
 708:lvgl/src/lv_widgets/lv_arc.c ****         if(info->result != NULL) return LV_RES_OK;
 4532              		.loc 1 708 24 is_stmt 0 view .LVU1328
 4533 0058 1178     		ldrb	r1, [r2]	@ zero_extendqisi2
 4534              	.LVL498:
 708:lvgl/src/lv_widgets/lv_arc.c ****         if(info->result != NULL) return LV_RES_OK;
 4535              		.loc 1 708 24 view .LVU1329
 4536 005a FFF7FEFF 		bl	lv_arc_get_style
 4537              	.LVL499:
 708:lvgl/src/lv_widgets/lv_arc.c ****         if(info->result != NULL) return LV_RES_OK;
 4538              		.loc 1 708 22 view .LVU1330
 4539 005e 7860     		str	r0, [r7, #4]
 709:lvgl/src/lv_widgets/lv_arc.c ****         else return ancestor_signal(arc, sign, param);
 4540              		.loc 1 709 9 is_stmt 1 view .LVU1331
 709:lvgl/src/lv_widgets/lv_arc.c ****         else return ancestor_signal(arc, sign, param);
 4541              		.loc 1 709 11 is_stmt 0 view .LVU1332
 4542 0060 20B1     		cbz	r0, .L292
 709:lvgl/src/lv_widgets/lv_arc.c ****         else return ancestor_signal(arc, sign, param);
 4543              		.loc 1 709 41 view .LVU1333
 4544 0062 0125     		movs	r5, #1
 4545              	.LVL500:
 4546              	.L261:
 709:lvgl/src/lv_widgets/lv_arc.c ****         else return ancestor_signal(arc, sign, param);
 4547              		.loc 1 709 41 view .LVU1334
 4548              	.LBE123:
 871:lvgl/src/lv_widgets/lv_arc.c **** 
 4549              		.loc 1 871 1 view .LVU1335
 4550 0064 2846     		mov	r0, r5
 4551 0066 07B0     		add	sp, sp, #28
 4552              	.LCFI41:
 4553              		.cfi_remember_state
 4554              		.cfi_def_cfa_offset 28
 4555              		@ sp needed
 4556 0068 BDE8F083 		pop	{r4, r5, r6, r7, r8, r9, pc}
 4557              	.LVL501:
 4558              	.L292:
 4559              	.LCFI42:
 4560              		.cfi_restore_state
 4561              	.LBB124:
 710:lvgl/src/lv_widgets/lv_arc.c ****     }
 4562              		.loc 1 710 14 is_stmt 1 view .LVU1336
 710:lvgl/src/lv_widgets/lv_arc.c ****     }
 4563              		.loc 1 710 21 is_stmt 0 view .LVU1337
 4564 006c B04B     		ldr	r3, .L296
 4565 006e 1B68     		ldr	r3, [r3]
 4566 0070 3A46     		mov	r2, r7
 4567 0072 2146     		mov	r1, r4
 4568 0074 3046     		mov	r0, r6
 4569 0076 9847     		blx	r3
 4570              	.LVL502:
 4571 0078 0546     		mov	r5, r0
 4572 007a F3E7     		b	.L261
 4573              	.LVL503:
 4574              	.L287:
ARM GAS  D:\Temp\ccOOHxmt.s 			page 129


 710:lvgl/src/lv_widgets/lv_arc.c ****     }
 4575              		.loc 1 710 21 view .LVU1338
 4576              	.LBE124:
 717:lvgl/src/lv_widgets/lv_arc.c **** 
 4577              		.loc 1 717 36 is_stmt 1 discriminator 1 view .LVU1339
 717:lvgl/src/lv_widgets/lv_arc.c **** 
 4578              		.loc 1 717 43 is_stmt 0 discriminator 1 view .LVU1340
 4579 007c AD49     		ldr	r1, .L296+4
 4580 007e 3846     		mov	r0, r7
 4581              	.LVL504:
 717:lvgl/src/lv_widgets/lv_arc.c **** 
 4582              		.loc 1 717 43 discriminator 1 view .LVU1341
 4583 0080 FFF7FEFF 		bl	lv_obj_handle_get_type_signal
 4584              	.LVL505:
 4585 0084 0546     		mov	r5, r0
 4586 0086 EDE7     		b	.L261
 4587              	.LVL506:
 4588              	.L288:
 4589              	.LBB125:
 723:lvgl/src/lv_widgets/lv_arc.c **** 
 4590              		.loc 1 723 9 is_stmt 1 view .LVU1342
 723:lvgl/src/lv_widgets/lv_arc.c **** 
 4591              		.loc 1 723 12 is_stmt 0 view .LVU1343
 4592 0088 90F82230 		ldrb	r3, [r0, #34]	@ zero_extendqisi2
 723:lvgl/src/lv_widgets/lv_arc.c **** 
 4593              		.loc 1 723 11 view .LVU1344
 4594 008c 13F0080F 		tst	r3, #8
 4595 0090 E8D0     		beq	.L261
 725:lvgl/src/lv_widgets/lv_arc.c ****         if(indev == NULL) return res;
 4596              		.loc 1 725 9 is_stmt 1 view .LVU1345
 725:lvgl/src/lv_widgets/lv_arc.c ****         if(indev == NULL) return res;
 4597              		.loc 1 725 30 is_stmt 0 view .LVU1346
 4598 0092 FFF7FEFF 		bl	lv_indev_get_act
 4599              	.LVL507:
 726:lvgl/src/lv_widgets/lv_arc.c **** 
 4600              		.loc 1 726 9 is_stmt 1 view .LVU1347
 726:lvgl/src/lv_widgets/lv_arc.c **** 
 4601              		.loc 1 726 11 is_stmt 0 view .LVU1348
 4602 0096 0446     		mov	r4, r0
 4603 0098 0028     		cmp	r0, #0
 4604 009a E3D0     		beq	.L261
 729:lvgl/src/lv_widgets/lv_arc.c ****         if(indev_type != LV_INDEV_TYPE_POINTER) return res;
 4605              		.loc 1 729 9 is_stmt 1 view .LVU1349
 729:lvgl/src/lv_widgets/lv_arc.c ****         if(indev_type != LV_INDEV_TYPE_POINTER) return res;
 4606              		.loc 1 729 38 is_stmt 0 view .LVU1350
 4607 009c FFF7FEFF 		bl	lv_indev_get_type
 4608              	.LVL508:
 730:lvgl/src/lv_widgets/lv_arc.c **** 
 4609              		.loc 1 730 9 is_stmt 1 view .LVU1351
 730:lvgl/src/lv_widgets/lv_arc.c **** 
 4610              		.loc 1 730 11 is_stmt 0 view .LVU1352
 4611 00a0 0128     		cmp	r0, #1
 4612 00a2 DFD1     		bne	.L261
 732:lvgl/src/lv_widgets/lv_arc.c ****         lv_indev_get_point(indev, &p);
 4613              		.loc 1 732 9 is_stmt 1 view .LVU1353
 733:lvgl/src/lv_widgets/lv_arc.c **** 
 4614              		.loc 1 733 9 view .LVU1354
ARM GAS  D:\Temp\ccOOHxmt.s 			page 130


 4615 00a4 04A9     		add	r1, sp, #16
 4616 00a6 2046     		mov	r0, r4
 4617              	.LVL509:
 733:lvgl/src/lv_widgets/lv_arc.c **** 
 4618              		.loc 1 733 9 is_stmt 0 view .LVU1355
 4619 00a8 FFF7FEFF 		bl	lv_indev_get_point
 4620              	.LVL510:
 736:lvgl/src/lv_widgets/lv_arc.c ****         lv_coord_t r;
 4621              		.loc 1 736 9 is_stmt 1 view .LVU1356
 737:lvgl/src/lv_widgets/lv_arc.c ****         get_center(arc, &center, &r);
 4622              		.loc 1 737 9 view .LVU1357
 738:lvgl/src/lv_widgets/lv_arc.c **** 
 4623              		.loc 1 738 9 view .LVU1358
 4624 00ac 0DF10E02 		add	r2, sp, #14
 4625 00b0 05A9     		add	r1, sp, #20
 4626 00b2 3046     		mov	r0, r6
 4627 00b4 FFF7FEFF 		bl	get_center
 4628              	.LVL511:
 740:lvgl/src/lv_widgets/lv_arc.c ****         p.y -=  center.y;
 4629              		.loc 1 740 9 view .LVU1359
 740:lvgl/src/lv_widgets/lv_arc.c ****         p.y -=  center.y;
 4630              		.loc 1 740 23 is_stmt 0 view .LVU1360
 4631 00b8 BDF81420 		ldrh	r2, [sp, #20]
 740:lvgl/src/lv_widgets/lv_arc.c ****         p.y -=  center.y;
 4632              		.loc 1 740 13 view .LVU1361
 4633 00bc BDF81030 		ldrh	r3, [sp, #16]
 4634 00c0 9B1A     		subs	r3, r3, r2
 4635 00c2 ADF81030 		strh	r3, [sp, #16]	@ movhi
 741:lvgl/src/lv_widgets/lv_arc.c **** 
 4636              		.loc 1 741 9 is_stmt 1 view .LVU1362
 741:lvgl/src/lv_widgets/lv_arc.c **** 
 4637              		.loc 1 741 23 is_stmt 0 view .LVU1363
 4638 00c6 BDF81620 		ldrh	r2, [sp, #22]
 741:lvgl/src/lv_widgets/lv_arc.c **** 
 4639              		.loc 1 741 13 view .LVU1364
 4640 00ca BDF81230 		ldrh	r3, [sp, #18]
 4641 00ce 9B1A     		subs	r3, r3, r2
 4642 00d0 ADF81230 		strh	r3, [sp, #18]	@ movhi
 744:lvgl/src/lv_widgets/lv_arc.c ****             lv_coord_t indic_width = lv_obj_get_style_line_width(arc, LV_ARC_PART_INDIC);
 4643              		.loc 1 744 9 is_stmt 1 view .LVU1365
 744:lvgl/src/lv_widgets/lv_arc.c ****             lv_coord_t indic_width = lv_obj_get_style_line_width(arc, LV_ARC_PART_INDIC);
 4644              		.loc 1 744 26 is_stmt 0 view .LVU1366
 4645 00d4 98F82230 		ldrb	r3, [r8, #34]	@ zero_extendqisi2
 744:lvgl/src/lv_widgets/lv_arc.c ****             lv_coord_t indic_width = lv_obj_get_style_line_width(arc, LV_ARC_PART_INDIC);
 4646              		.loc 1 744 11 view .LVU1367
 4647 00d8 13F0010F 		tst	r3, #1
 4648 00dc 52D0     		beq	.L293
 4649              	.L265:
 755:lvgl/src/lv_widgets/lv_arc.c **** 
 4650              		.loc 1 755 9 is_stmt 1 view .LVU1368
 755:lvgl/src/lv_widgets/lv_arc.c **** 
 4651              		.loc 1 755 26 is_stmt 0 view .LVU1369
 4652 00de 98F82230 		ldrb	r3, [r8, #34]	@ zero_extendqisi2
 755:lvgl/src/lv_widgets/lv_arc.c **** 
 4653              		.loc 1 755 11 view .LVU1370
 4654 00e2 13F0010F 		tst	r3, #1
 4655 00e6 BDD0     		beq	.L261
ARM GAS  D:\Temp\ccOOHxmt.s 			page 131


 758:lvgl/src/lv_widgets/lv_arc.c **** 
 4656              		.loc 1 758 9 is_stmt 1 view .LVU1371
 758:lvgl/src/lv_widgets/lv_arc.c **** 
 4657              		.loc 1 758 13 is_stmt 0 view .LVU1372
 4658 00e8 BDF91010 		ldrsh	r1, [sp, #16]
 758:lvgl/src/lv_widgets/lv_arc.c **** 
 4659              		.loc 1 758 11 view .LVU1373
 4660 00ec 19B9     		cbnz	r1, .L266
 758:lvgl/src/lv_widgets/lv_arc.c **** 
 4661              		.loc 1 758 25 discriminator 1 view .LVU1374
 4662 00ee BDF91230 		ldrsh	r3, [sp, #18]
 758:lvgl/src/lv_widgets/lv_arc.c **** 
 4663              		.loc 1 758 21 discriminator 1 view .LVU1375
 4664 00f2 002B     		cmp	r3, #0
 4665 00f4 B6D0     		beq	.L261
 4666              	.L266:
 761:lvgl/src/lv_widgets/lv_arc.c ****         int16_t bg_end = ext->bg_angle_end;
 4667              		.loc 1 761 9 is_stmt 1 view .LVU1376
 762:lvgl/src/lv_widgets/lv_arc.c ****         if(ext->bg_angle_end < ext->bg_angle_start) {
 4668              		.loc 1 762 9 view .LVU1377
 762:lvgl/src/lv_widgets/lv_arc.c ****         if(ext->bg_angle_end < ext->bg_angle_start) {
 4669              		.loc 1 762 29 is_stmt 0 view .LVU1378
 4670 00f6 B8F80830 		ldrh	r3, [r8, #8]
 762:lvgl/src/lv_widgets/lv_arc.c ****         if(ext->bg_angle_end < ext->bg_angle_start) {
 4671              		.loc 1 762 17 view .LVU1379
 4672 00fa 1FB2     		sxth	r7, r3
 4673              	.LVL512:
 763:lvgl/src/lv_widgets/lv_arc.c ****             bg_end = ext->bg_angle_end + 360;
 4674              		.loc 1 763 9 is_stmt 1 view .LVU1380
 763:lvgl/src/lv_widgets/lv_arc.c ****             bg_end = ext->bg_angle_end + 360;
 4675              		.loc 1 763 35 is_stmt 0 view .LVU1381
 4676 00fc B8F80620 		ldrh	r2, [r8, #6]
 763:lvgl/src/lv_widgets/lv_arc.c ****             bg_end = ext->bg_angle_end + 360;
 4677              		.loc 1 763 11 view .LVU1382
 4678 0100 9342     		cmp	r3, r2
 4679 0102 02D2     		bcs	.L267
 764:lvgl/src/lv_widgets/lv_arc.c ****         }
 4680              		.loc 1 764 13 is_stmt 1 view .LVU1383
 764:lvgl/src/lv_widgets/lv_arc.c ****         }
 4681              		.loc 1 764 40 is_stmt 0 view .LVU1384
 4682 0104 03F5B473 		add	r3, r3, #360
 764:lvgl/src/lv_widgets/lv_arc.c ****         }
 4683              		.loc 1 764 20 view .LVU1385
 4684 0108 1FB2     		sxth	r7, r3
 4685              	.LVL513:
 4686              	.L267:
 767:lvgl/src/lv_widgets/lv_arc.c ****         angle -= ext->rotation_angle;
 4687              		.loc 1 767 9 is_stmt 1 view .LVU1386
 767:lvgl/src/lv_widgets/lv_arc.c ****         angle -= ext->rotation_angle;
 4688              		.loc 1 767 17 is_stmt 0 view .LVU1387
 4689 010a BDF91200 		ldrsh	r0, [sp, #18]
 4690 010e FFF7FEFF 		bl	_lv_atan2
 4691              	.LVL514:
 768:lvgl/src/lv_widgets/lv_arc.c ****         angle -= ext->bg_angle_start;   /*Make the angle relative to the start angle*/
 4692              		.loc 1 768 9 is_stmt 1 view .LVU1388
 768:lvgl/src/lv_widgets/lv_arc.c ****         angle -= ext->bg_angle_start;   /*Make the angle relative to the start angle*/
 4693              		.loc 1 768 21 is_stmt 0 view .LVU1389
ARM GAS  D:\Temp\ccOOHxmt.s 			page 132


 4694 0112 B8F80030 		ldrh	r3, [r8]
 768:lvgl/src/lv_widgets/lv_arc.c ****         angle -= ext->bg_angle_start;   /*Make the angle relative to the start angle*/
 4695              		.loc 1 768 15 view .LVU1390
 4696 0116 C21A     		subs	r2, r0, r3
 4697 0118 92B2     		uxth	r2, r2
 4698              	.LVL515:
 769:lvgl/src/lv_widgets/lv_arc.c ****         if(angle < 0) angle += 360;
 4699              		.loc 1 769 9 is_stmt 1 view .LVU1391
 769:lvgl/src/lv_widgets/lv_arc.c ****         if(angle < 0) angle += 360;
 4700              		.loc 1 769 21 is_stmt 0 view .LVU1392
 4701 011a B8F80630 		ldrh	r3, [r8, #6]
 769:lvgl/src/lv_widgets/lv_arc.c ****         if(angle < 0) angle += 360;
 4702              		.loc 1 769 15 view .LVU1393
 4703 011e D21A     		subs	r2, r2, r3
 4704              	.LVL516:
 769:lvgl/src/lv_widgets/lv_arc.c ****         if(angle < 0) angle += 360;
 4705              		.loc 1 769 15 view .LVU1394
 4706 0120 92B2     		uxth	r2, r2
 4707 0122 11B2     		sxth	r1, r2
 4708              	.LVL517:
 770:lvgl/src/lv_widgets/lv_arc.c **** 
 4709              		.loc 1 770 9 is_stmt 1 view .LVU1395
 770:lvgl/src/lv_widgets/lv_arc.c **** 
 4710              		.loc 1 770 11 is_stmt 0 view .LVU1396
 4711 0124 0029     		cmp	r1, #0
 4712 0126 55DB     		blt	.L294
 4713              	.L268:
 772:lvgl/src/lv_widgets/lv_arc.c **** 
 4714              		.loc 1 772 9 is_stmt 1 view .LVU1397
 772:lvgl/src/lv_widgets/lv_arc.c **** 
 4715              		.loc 1 772 36 is_stmt 0 view .LVU1398
 4716 0128 FC1A     		subs	r4, r7, r3
 4717              	.LVL518:
 772:lvgl/src/lv_widgets/lv_arc.c **** 
 4718              		.loc 1 772 17 view .LVU1399
 4719 012a 24B2     		sxth	r4, r4
 4720              	.LVL519:
 774:lvgl/src/lv_widgets/lv_arc.c ****         int16_t delta_angle = angle - last_angle_rel;
 4721              		.loc 1 774 9 is_stmt 1 view .LVU1400
 774:lvgl/src/lv_widgets/lv_arc.c ****         int16_t delta_angle = angle - last_angle_rel;
 4722              		.loc 1 774 37 is_stmt 0 view .LVU1401
 4723 012c B8F82C20 		ldrh	r2, [r8, #44]
 774:lvgl/src/lv_widgets/lv_arc.c ****         int16_t delta_angle = angle - last_angle_rel;
 4724              		.loc 1 774 50 view .LVU1402
 4725 0130 A2EB0309 		sub	r9, r2, r3
 4726 0134 1FFA89F9 		uxth	r9, r9
 4727              	.LVL520:
 775:lvgl/src/lv_widgets/lv_arc.c **** 
 4728              		.loc 1 775 9 is_stmt 1 view .LVU1403
 4729 0138 9B1A     		subs	r3, r3, r2
 4730 013a 9BB2     		uxth	r3, r3
 775:lvgl/src/lv_widgets/lv_arc.c **** 
 4731              		.loc 1 775 37 is_stmt 0 view .LVU1404
 4732 013c 5A18     		adds	r2, r3, r1
 775:lvgl/src/lv_widgets/lv_arc.c **** 
 4733              		.loc 1 775 17 view .LVU1405
 4734 013e 12B2     		sxth	r2, r2
ARM GAS  D:\Temp\ccOOHxmt.s 			page 133


 4735              	.LVL521:
 780:lvgl/src/lv_widgets/lv_arc.c ****             if(ext->min_close) angle = 0;
 4736              		.loc 1 780 9 is_stmt 1 view .LVU1406
 780:lvgl/src/lv_widgets/lv_arc.c ****             if(ext->min_close) angle = 0;
 4737              		.loc 1 780 12 is_stmt 0 view .LVU1407
 4738 0140 002A     		cmp	r2, #0
 4739 0142 B8BF     		it	lt
 4740 0144 5242     		rsblt	r2, r2, #0
 4741              	.LVL522:
 780:lvgl/src/lv_widgets/lv_arc.c ****             if(ext->min_close) angle = 0;
 4742              		.loc 1 780 11 view .LVU1408
 4743 0146 B42A     		cmp	r2, #180
 4744 0148 48DD     		ble	.L269
 781:lvgl/src/lv_widgets/lv_arc.c ****             else angle = deg_range;
 4745              		.loc 1 781 13 is_stmt 1 view .LVU1409
 781:lvgl/src/lv_widgets/lv_arc.c ****             else angle = deg_range;
 4746              		.loc 1 781 16 is_stmt 0 view .LVU1410
 4747 014a 98F82220 		ldrb	r2, [r8, #34]	@ zero_extendqisi2
 781:lvgl/src/lv_widgets/lv_arc.c ****             else angle = deg_range;
 4748              		.loc 1 781 15 view .LVU1411
 4749 014e 12F0100F 		tst	r2, #16
 4750 0152 00D0     		beq	.L270
 781:lvgl/src/lv_widgets/lv_arc.c ****             else angle = deg_range;
 4751              		.loc 1 781 38 view .LVU1412
 4752 0154 0024     		movs	r4, #0
 4753              	.LVL523:
 4754              	.L270:
 790:lvgl/src/lv_widgets/lv_arc.c ****         uint32_t delta_tick = lv_tick_elaps(ext->last_tick);
 4755              		.loc 1 790 9 is_stmt 1 view .LVU1413
 790:lvgl/src/lv_widgets/lv_arc.c ****         uint32_t delta_tick = lv_tick_elaps(ext->last_tick);
 4756              		.loc 1 790 29 is_stmt 0 view .LVU1414
 4757 0156 2344     		add	r3, r3, r4
 4758              	.LVL524:
 790:lvgl/src/lv_widgets/lv_arc.c ****         uint32_t delta_tick = lv_tick_elaps(ext->last_tick);
 4759              		.loc 1 790 21 view .LVU1415
 4760 0158 1CB2     		sxth	r4, r3
 4761              	.LVL525:
 791:lvgl/src/lv_widgets/lv_arc.c ****         int16_t delta_angle_max = (ext->chg_rate * delta_tick) / 1000;
 4762              		.loc 1 791 9 is_stmt 1 view .LVU1416
 791:lvgl/src/lv_widgets/lv_arc.c ****         int16_t delta_angle_max = (ext->chg_rate * delta_tick) / 1000;
 4763              		.loc 1 791 31 is_stmt 0 view .LVU1417
 4764 015a D8F82800 		ldr	r0, [r8, #40]
 4765 015e FFF7FEFF 		bl	lv_tick_elaps
 4766              	.LVL526:
 792:lvgl/src/lv_widgets/lv_arc.c **** 
 4767              		.loc 1 792 9 is_stmt 1 view .LVU1418
 792:lvgl/src/lv_widgets/lv_arc.c **** 
 4768              		.loc 1 792 39 is_stmt 0 view .LVU1419
 4769 0162 B8F82430 		ldrh	r3, [r8, #36]
 792:lvgl/src/lv_widgets/lv_arc.c **** 
 4770              		.loc 1 792 50 view .LVU1420
 4771 0166 00FB03F3 		mul	r3, r0, r3
 792:lvgl/src/lv_widgets/lv_arc.c **** 
 4772              		.loc 1 792 64 view .LVU1421
 4773 016a 734A     		ldr	r2, .L296+8
 4774 016c A2FB0323 		umull	r2, r3, r2, r3
 4775 0170 9B09     		lsrs	r3, r3, #6
ARM GAS  D:\Temp\ccOOHxmt.s 			page 134


 792:lvgl/src/lv_widgets/lv_arc.c **** 
 4776              		.loc 1 792 17 view .LVU1422
 4777 0172 1AB2     		sxth	r2, r3
 4778              	.LVL527:
 794:lvgl/src/lv_widgets/lv_arc.c ****             delta_angle = delta_angle_max;
 4779              		.loc 1 794 9 is_stmt 1 view .LVU1423
 794:lvgl/src/lv_widgets/lv_arc.c ****             delta_angle = delta_angle_max;
 4780              		.loc 1 794 11 is_stmt 0 view .LVU1424
 4781 0174 9442     		cmp	r4, r2
 4782 0176 48DC     		bgt	.L272
 797:lvgl/src/lv_widgets/lv_arc.c ****             delta_angle = -delta_angle_max;
 4783              		.loc 1 797 14 is_stmt 1 view .LVU1425
 797:lvgl/src/lv_widgets/lv_arc.c ****             delta_angle = -delta_angle_max;
 4784              		.loc 1 797 31 is_stmt 0 view .LVU1426
 4785 0178 5242     		rsbs	r2, r2, #0
 4786              	.LVL528:
 797:lvgl/src/lv_widgets/lv_arc.c ****             delta_angle = -delta_angle_max;
 4787              		.loc 1 797 16 view .LVU1427
 4788 017a 9442     		cmp	r4, r2
 4789 017c 44DA     		bge	.L284
 798:lvgl/src/lv_widgets/lv_arc.c ****         }
 4790              		.loc 1 798 13 is_stmt 1 view .LVU1428
 798:lvgl/src/lv_widgets/lv_arc.c ****         }
 4791              		.loc 1 798 25 is_stmt 0 view .LVU1429
 4792 017e 5B42     		rsbs	r3, r3, #0
 4793 0180 1AB2     		sxth	r2, r3
 4794              	.LVL529:
 798:lvgl/src/lv_widgets/lv_arc.c ****         }
 4795              		.loc 1 798 25 view .LVU1430
 4796 0182 42E0     		b	.L272
 4797              	.LVL530:
 4798              	.L293:
 4799              	.LBB126:
 745:lvgl/src/lv_widgets/lv_arc.c ****             r -=  indic_width;
 4800              		.loc 1 745 13 is_stmt 1 view .LVU1431
 4801              	.LBB127:
 4802              	.LBI127:
 169:lvgl/src/lv_widgets/../lv_core/lv_obj_style_dec.h **** _LV_OBJ_STYLE_SET_GET_DECLARE(LINE_BLEND_MODE, line_blend_mode, lv_blend_mode_t, _int, scalar)
 4803              		.loc 2 169 1 view .LVU1432
 4804              	.LBB128:
 169:lvgl/src/lv_widgets/../lv_core/lv_obj_style_dec.h **** _LV_OBJ_STYLE_SET_GET_DECLARE(LINE_BLEND_MODE, line_blend_mode, lv_blend_mode_t, _int, scalar)
 4805              		.loc 2 169 1 view .LVU1433
 4806 0184 9022     		movs	r2, #144
 4807 0186 0121     		movs	r1, #1
 4808 0188 3046     		mov	r0, r6
 4809 018a FFF7FEFF 		bl	_lv_obj_get_style_int
 4810              	.LVL531:
 169:lvgl/src/lv_widgets/../lv_core/lv_obj_style_dec.h **** _LV_OBJ_STYLE_SET_GET_DECLARE(LINE_BLEND_MODE, line_blend_mode, lv_blend_mode_t, _int, scalar)
 4811              		.loc 2 169 1 is_stmt 0 view .LVU1434
 4812              	.LBE128:
 4813              	.LBE127:
 746:lvgl/src/lv_widgets/lv_arc.c ****             r -= r / 2; /*Add some more sensitive area*/
 4814              		.loc 1 746 13 is_stmt 1 view .LVU1435
 746:lvgl/src/lv_widgets/lv_arc.c ****             r -= r / 2; /*Add some more sensitive area*/
 4815              		.loc 1 746 15 is_stmt 0 view .LVU1436
 4816 018e BDF80E30 		ldrh	r3, [sp, #14]
 4817 0192 1B1A     		subs	r3, r3, r0
ARM GAS  D:\Temp\ccOOHxmt.s 			page 135


 4818 0194 9BB2     		uxth	r3, r3
 4819 0196 1AB2     		sxth	r2, r3
 747:lvgl/src/lv_widgets/lv_arc.c ****             if(p.x * p.x + p.y * p.y > r * r) {
 4820              		.loc 1 747 13 is_stmt 1 view .LVU1437
 747:lvgl/src/lv_widgets/lv_arc.c ****             if(p.x * p.x + p.y * p.y > r * r) {
 4821              		.loc 1 747 15 is_stmt 0 view .LVU1438
 4822 0198 02EBD272 		add	r2, r2, r2, lsr #31
 4823 019c A3EB6203 		sub	r3, r3, r2, asr #1
 4824 01a0 1BB2     		sxth	r3, r3
 4825 01a2 ADF80E30 		strh	r3, [sp, #14]	@ movhi
 748:lvgl/src/lv_widgets/lv_arc.c ****                 ext->dragging = true;
 4826              		.loc 1 748 13 is_stmt 1 view .LVU1439
 748:lvgl/src/lv_widgets/lv_arc.c ****                 ext->dragging = true;
 4827              		.loc 1 748 17 is_stmt 0 view .LVU1440
 4828 01a6 BDF91020 		ldrsh	r2, [sp, #16]
 748:lvgl/src/lv_widgets/lv_arc.c ****                 ext->dragging = true;
 4829              		.loc 1 748 29 view .LVU1441
 4830 01aa BDF91210 		ldrsh	r1, [sp, #18]
 748:lvgl/src/lv_widgets/lv_arc.c ****                 ext->dragging = true;
 4831              		.loc 1 748 32 view .LVU1442
 4832 01ae 01FB01F1 		mul	r1, r1, r1
 748:lvgl/src/lv_widgets/lv_arc.c ****                 ext->dragging = true;
 4833              		.loc 1 748 26 view .LVU1443
 4834 01b2 02FB0212 		mla	r2, r2, r2, r1
 748:lvgl/src/lv_widgets/lv_arc.c ****                 ext->dragging = true;
 4835              		.loc 1 748 42 view .LVU1444
 4836 01b6 03FB03F3 		mul	r3, r3, r3
 748:lvgl/src/lv_widgets/lv_arc.c ****                 ext->dragging = true;
 4837              		.loc 1 748 15 view .LVU1445
 4838 01ba 9A42     		cmp	r2, r3
 4839 01bc 8FDD     		ble	.L265
 749:lvgl/src/lv_widgets/lv_arc.c ****                 ext->last_tick = lv_tick_get(); /*Capture timestamp at dragging start*/
 4840              		.loc 1 749 17 is_stmt 1 view .LVU1446
 749:lvgl/src/lv_widgets/lv_arc.c ****                 ext->last_tick = lv_tick_get(); /*Capture timestamp at dragging start*/
 4841              		.loc 1 749 31 is_stmt 0 view .LVU1447
 4842 01be 98F82230 		ldrb	r3, [r8, #34]	@ zero_extendqisi2
 4843 01c2 43F00103 		orr	r3, r3, #1
 4844 01c6 88F82230 		strb	r3, [r8, #34]
 750:lvgl/src/lv_widgets/lv_arc.c ****             }
 4845              		.loc 1 750 17 is_stmt 1 view .LVU1448
 750:lvgl/src/lv_widgets/lv_arc.c ****             }
 4846              		.loc 1 750 34 is_stmt 0 view .LVU1449
 4847 01ca FFF7FEFF 		bl	lv_tick_get
 4848              	.LVL532:
 750:lvgl/src/lv_widgets/lv_arc.c ****             }
 4849              		.loc 1 750 32 view .LVU1450
 4850 01ce C8F82800 		str	r0, [r8, #40]
 4851 01d2 84E7     		b	.L265
 4852              	.LVL533:
 4853              	.L294:
 750:lvgl/src/lv_widgets/lv_arc.c ****             }
 4854              		.loc 1 750 32 view .LVU1451
 4855              	.LBE126:
 770:lvgl/src/lv_widgets/lv_arc.c **** 
 4856              		.loc 1 770 23 is_stmt 1 discriminator 1 view .LVU1452
 770:lvgl/src/lv_widgets/lv_arc.c **** 
 4857              		.loc 1 770 29 is_stmt 0 discriminator 1 view .LVU1453
ARM GAS  D:\Temp\ccOOHxmt.s 			page 136


 4858 01d4 02F5B472 		add	r2, r2, #360
 4859 01d8 11B2     		sxth	r1, r2
 4860              	.LVL534:
 770:lvgl/src/lv_widgets/lv_arc.c **** 
 4861              		.loc 1 770 29 discriminator 1 view .LVU1454
 4862 01da A5E7     		b	.L268
 4863              	.LVL535:
 4864              	.L269:
 785:lvgl/src/lv_widgets/lv_arc.c ****             else ext->min_close = 0;
 4865              		.loc 1 785 13 is_stmt 1 view .LVU1455
 785:lvgl/src/lv_widgets/lv_arc.c ****             else ext->min_close = 0;
 4866              		.loc 1 785 22 is_stmt 0 view .LVU1456
 4867 01dc 04EBD474 		add	r4, r4, r4, lsr #31
 4868              	.LVL536:
 785:lvgl/src/lv_widgets/lv_arc.c ****             else ext->min_close = 0;
 4869              		.loc 1 785 22 view .LVU1457
 4870 01e0 44F34F02 		sbfx	r2, r4, #1, #16
 785:lvgl/src/lv_widgets/lv_arc.c ****             else ext->min_close = 0;
 4871              		.loc 1 785 15 view .LVU1458
 4872 01e4 8A42     		cmp	r2, r1
 4873 01e6 07DD     		ble	.L271
 785:lvgl/src/lv_widgets/lv_arc.c ****             else ext->min_close = 0;
 4874              		.loc 1 785 39 is_stmt 1 discriminator 1 view .LVU1459
 785:lvgl/src/lv_widgets/lv_arc.c ****             else ext->min_close = 0;
 4875              		.loc 1 785 54 is_stmt 0 discriminator 1 view .LVU1460
 4876 01e8 98F82220 		ldrb	r2, [r8, #34]	@ zero_extendqisi2
 4877 01ec 42F01002 		orr	r2, r2, #16
 4878 01f0 88F82220 		strb	r2, [r8, #34]
 4879 01f4 0C46     		mov	r4, r1
 4880 01f6 AEE7     		b	.L270
 4881              	.L271:
 786:lvgl/src/lv_widgets/lv_arc.c ****         }
 4882              		.loc 1 786 18 is_stmt 1 view .LVU1461
 786:lvgl/src/lv_widgets/lv_arc.c ****         }
 4883              		.loc 1 786 33 is_stmt 0 view .LVU1462
 4884 01f8 98F82220 		ldrb	r2, [r8, #34]	@ zero_extendqisi2
 4885 01fc 6FF30412 		bfc	r2, #4, #1
 4886 0200 88F82220 		strb	r2, [r8, #34]
 4887 0204 0C46     		mov	r4, r1
 4888 0206 A6E7     		b	.L270
 4889              	.LVL537:
 4890              	.L284:
 790:lvgl/src/lv_widgets/lv_arc.c ****         uint32_t delta_tick = lv_tick_elaps(ext->last_tick);
 4891              		.loc 1 790 21 view .LVU1463
 4892 0208 2246     		mov	r2, r4
 4893              	.LVL538:
 4894              	.L272:
 801:lvgl/src/lv_widgets/lv_arc.c **** 
 4895              		.loc 1 801 9 is_stmt 1 view .LVU1464
 801:lvgl/src/lv_widgets/lv_arc.c **** 
 4896              		.loc 1 801 32 is_stmt 0 view .LVU1465
 4897 020a 09EB0200 		add	r0, r9, r2
 4898              	.LVL539:
 804:lvgl/src/lv_widgets/lv_arc.c ****         round = (round + 4) >> 4;
 4899              		.loc 1 804 9 is_stmt 1 view .LVU1466
 804:lvgl/src/lv_widgets/lv_arc.c ****         round = (round + 4) >> 4;
 4900              		.loc 1 804 39 is_stmt 0 view .LVU1467
ARM GAS  D:\Temp\ccOOHxmt.s 			page 137


 4901 020e B8F80610 		ldrh	r1, [r8, #6]
 804:lvgl/src/lv_widgets/lv_arc.c ****         round = (round + 4) >> 4;
 4902              		.loc 1 804 34 view .LVU1468
 4903 0212 7A1A     		subs	r2, r7, r1
 4904              	.LVL540:
 804:lvgl/src/lv_widgets/lv_arc.c ****         round = (round + 4) >> 4;
 4905              		.loc 1 804 57 view .LVU1469
 4906 0214 D200     		lsls	r2, r2, #3
 804:lvgl/src/lv_widgets/lv_arc.c ****         round = (round + 4) >> 4;
 4907              		.loc 1 804 68 view .LVU1470
 4908 0216 B8F920C0 		ldrsh	ip, [r8, #32]
 804:lvgl/src/lv_widgets/lv_arc.c ****         round = (round + 4) >> 4;
 4909              		.loc 1 804 85 view .LVU1471
 4910 021a B8F91E30 		ldrsh	r3, [r8, #30]
 804:lvgl/src/lv_widgets/lv_arc.c ****         round = (round + 4) >> 4;
 4911              		.loc 1 804 80 view .LVU1472
 4912 021e ACEB0304 		sub	r4, ip, r3
 804:lvgl/src/lv_widgets/lv_arc.c ****         round = (round + 4) >> 4;
 4913              		.loc 1 804 17 view .LVU1473
 4914 0222 92FBF4F2 		sdiv	r2, r2, r4
 4915              	.LVL541:
 805:lvgl/src/lv_widgets/lv_arc.c ****         angle += round;
 4916              		.loc 1 805 9 is_stmt 1 view .LVU1474
 805:lvgl/src/lv_widgets/lv_arc.c ****         angle += round;
 4917              		.loc 1 805 24 is_stmt 0 view .LVU1475
 4918 0226 0432     		adds	r2, r2, #4
 4919              	.LVL542:
 805:lvgl/src/lv_widgets/lv_arc.c ****         angle += round;
 4920              		.loc 1 805 15 view .LVU1476
 4921 0228 1211     		asrs	r2, r2, #4
 4922              	.LVL543:
 806:lvgl/src/lv_widgets/lv_arc.c **** 
 4923              		.loc 1 806 9 is_stmt 1 view .LVU1477
 806:lvgl/src/lv_widgets/lv_arc.c **** 
 4924              		.loc 1 806 15 is_stmt 0 view .LVU1478
 4925 022a 12FA80F2 		uxtah	r2, r2, r0
 4926              	.LVL544:
 808:lvgl/src/lv_widgets/lv_arc.c **** 
 4927              		.loc 1 808 9 is_stmt 1 view .LVU1479
 808:lvgl/src/lv_widgets/lv_arc.c **** 
 4928              		.loc 1 808 15 is_stmt 0 view .LVU1480
 4929 022e 11FA82F0 		uxtah	r0, r1, r2
 4930              	.LVL545:
 811:lvgl/src/lv_widgets/lv_arc.c ****         int16_t new_value = _lv_map(angle, ext->bg_angle_start, bg_end, ext->min_value, ext->max_va
 4931              		.loc 1 811 9 is_stmt 1 view .LVU1481
 811:lvgl/src/lv_widgets/lv_arc.c ****         int16_t new_value = _lv_map(angle, ext->bg_angle_start, bg_end, ext->min_value, ext->max_va
 4932              		.loc 1 811 17 is_stmt 0 view .LVU1482
 4933 0232 B8F91C40 		ldrsh	r4, [r8, #28]
 4934              	.LVL546:
 812:lvgl/src/lv_widgets/lv_arc.c ****         if(new_value != lv_arc_get_value(arc)) {
 4935              		.loc 1 812 9 is_stmt 1 view .LVU1483
 812:lvgl/src/lv_widgets/lv_arc.c ****         if(new_value != lv_arc_get_value(arc)) {
 4936              		.loc 1 812 29 is_stmt 0 view .LVU1484
 4937 0236 CDF800C0 		str	ip, [sp]
 4938 023a 3A46     		mov	r2, r7
 4939 023c 00B2     		sxth	r0, r0
 812:lvgl/src/lv_widgets/lv_arc.c ****         if(new_value != lv_arc_get_value(arc)) {
ARM GAS  D:\Temp\ccOOHxmt.s 			page 138


 4940              		.loc 1 812 29 view .LVU1485
 4941 023e FFF7FEFF 		bl	_lv_map
 4942              	.LVL547:
 812:lvgl/src/lv_widgets/lv_arc.c ****         if(new_value != lv_arc_get_value(arc)) {
 4943              		.loc 1 812 17 view .LVU1486
 4944 0242 07B2     		sxth	r7, r0
 4945              	.LVL548:
 813:lvgl/src/lv_widgets/lv_arc.c ****             ext->last_tick = lv_tick_get(); /*Cache timestamp for the next iteration*/
 4946              		.loc 1 813 9 is_stmt 1 view .LVU1487
 813:lvgl/src/lv_widgets/lv_arc.c ****             ext->last_tick = lv_tick_get(); /*Cache timestamp for the next iteration*/
 4947              		.loc 1 813 25 is_stmt 0 view .LVU1488
 4948 0244 3046     		mov	r0, r6
 4949 0246 FFF7FEFF 		bl	lv_arc_get_value
 4950              	.LVL549:
 813:lvgl/src/lv_widgets/lv_arc.c ****             ext->last_tick = lv_tick_get(); /*Cache timestamp for the next iteration*/
 4951              		.loc 1 813 11 view .LVU1489
 4952 024a B842     		cmp	r0, r7
 4953 024c 0DD1     		bne	.L295
 4954              	.L273:
 4955              	.LVL550:
 823:lvgl/src/lv_widgets/lv_arc.c ****             ext->last_tick = lv_tick_get(); /*Cache timestamp for the next iteration*/
 4956              		.loc 1 823 9 is_stmt 1 view .LVU1490
 823:lvgl/src/lv_widgets/lv_arc.c ****             ext->last_tick = lv_tick_get(); /*Cache timestamp for the next iteration*/
 4957              		.loc 1 823 28 is_stmt 0 view .LVU1491
 4958 024e B8F91E30 		ldrsh	r3, [r8, #30]
 823:lvgl/src/lv_widgets/lv_arc.c ****             ext->last_tick = lv_tick_get(); /*Cache timestamp for the next iteration*/
 4959              		.loc 1 823 11 view .LVU1492
 4960 0252 BB42     		cmp	r3, r7
 4961 0254 04D0     		beq	.L274
 823:lvgl/src/lv_widgets/lv_arc.c ****             ext->last_tick = lv_tick_get(); /*Cache timestamp for the next iteration*/
 4962              		.loc 1 823 59 discriminator 1 view .LVU1493
 4963 0256 B8F92030 		ldrsh	r3, [r8, #32]
 823:lvgl/src/lv_widgets/lv_arc.c ****             ext->last_tick = lv_tick_get(); /*Cache timestamp for the next iteration*/
 4964              		.loc 1 823 40 discriminator 1 view .LVU1494
 4965 025a BB42     		cmp	r3, r7
 4966 025c 7FF402AF 		bne	.L261
 4967              	.L274:
 824:lvgl/src/lv_widgets/lv_arc.c ****         }
 4968              		.loc 1 824 13 is_stmt 1 view .LVU1495
 824:lvgl/src/lv_widgets/lv_arc.c ****         }
 4969              		.loc 1 824 30 is_stmt 0 view .LVU1496
 4970 0260 FFF7FEFF 		bl	lv_tick_get
 4971              	.LVL551:
 824:lvgl/src/lv_widgets/lv_arc.c ****         }
 4972              		.loc 1 824 28 view .LVU1497
 4973 0264 C8F82800 		str	r0, [r8, #40]
 4974 0268 FCE6     		b	.L261
 4975              	.LVL552:
 4976              	.L295:
 814:lvgl/src/lv_widgets/lv_arc.c ****             lv_arc_set_value(arc, new_value); /*set_value caches the last_angle for the next iterat
 4977              		.loc 1 814 13 is_stmt 1 view .LVU1498
 814:lvgl/src/lv_widgets/lv_arc.c ****             lv_arc_set_value(arc, new_value); /*set_value caches the last_angle for the next iterat
 4978              		.loc 1 814 30 is_stmt 0 view .LVU1499
 4979 026a FFF7FEFF 		bl	lv_tick_get
 4980              	.LVL553:
 814:lvgl/src/lv_widgets/lv_arc.c ****             lv_arc_set_value(arc, new_value); /*set_value caches the last_angle for the next iterat
 4981              		.loc 1 814 28 view .LVU1500
ARM GAS  D:\Temp\ccOOHxmt.s 			page 139


 4982 026e C8F82800 		str	r0, [r8, #40]
 815:lvgl/src/lv_widgets/lv_arc.c ****             if(new_value != old_value) {
 4983              		.loc 1 815 13 is_stmt 1 view .LVU1501
 4984 0272 3946     		mov	r1, r7
 4985 0274 3046     		mov	r0, r6
 4986 0276 FFF7FEFF 		bl	lv_arc_set_value
 4987              	.LVL554:
 816:lvgl/src/lv_widgets/lv_arc.c ****                 res = lv_event_send(arc, LV_EVENT_VALUE_CHANGED, NULL);
 4988              		.loc 1 816 13 view .LVU1502
 816:lvgl/src/lv_widgets/lv_arc.c ****                 res = lv_event_send(arc, LV_EVENT_VALUE_CHANGED, NULL);
 4989              		.loc 1 816 15 is_stmt 0 view .LVU1503
 4990 027a BC42     		cmp	r4, r7
 4991 027c E7D0     		beq	.L273
 817:lvgl/src/lv_widgets/lv_arc.c ****                 if(res != LV_RES_OK) return res;
 4992              		.loc 1 817 17 is_stmt 1 view .LVU1504
 817:lvgl/src/lv_widgets/lv_arc.c ****                 if(res != LV_RES_OK) return res;
 4993              		.loc 1 817 23 is_stmt 0 view .LVU1505
 4994 027e 0022     		movs	r2, #0
 4995 0280 1021     		movs	r1, #16
 4996 0282 3046     		mov	r0, r6
 4997 0284 FFF7FEFF 		bl	lv_event_send
 4998              	.LVL555:
 4999 0288 0546     		mov	r5, r0
 5000              	.LVL556:
 818:lvgl/src/lv_widgets/lv_arc.c ****             }
 5001              		.loc 1 818 17 is_stmt 1 view .LVU1506
 818:lvgl/src/lv_widgets/lv_arc.c ****             }
 5002              		.loc 1 818 19 is_stmt 0 view .LVU1507
 5003 028a 0128     		cmp	r0, #1
 5004 028c 7FF4EAAE 		bne	.L261
 5005 0290 DDE7     		b	.L273
 5006              	.LVL557:
 5007              	.L289:
 818:lvgl/src/lv_widgets/lv_arc.c ****             }
 5008              		.loc 1 818 19 view .LVU1508
 5009              	.LBE125:
 5010              	.LBB129:
 828:lvgl/src/lv_widgets/lv_arc.c **** 
 5011              		.loc 1 828 9 is_stmt 1 view .LVU1509
 828:lvgl/src/lv_widgets/lv_arc.c **** 
 5012              		.loc 1 828 23 is_stmt 0 view .LVU1510
 5013 0292 90F82230 		ldrb	r3, [r0, #34]	@ zero_extendqisi2
 5014 0296 6FF30003 		bfc	r3, #0, #1
 5015 029a 80F82230 		strb	r3, [r0, #34]
 832:lvgl/src/lv_widgets/lv_arc.c ****         bool editing               = lv_group_get_editing(g);
 5016              		.loc 1 832 9 is_stmt 1 view .LVU1511
 832:lvgl/src/lv_widgets/lv_arc.c ****         bool editing               = lv_group_get_editing(g);
 5017              		.loc 1 832 38 is_stmt 0 view .LVU1512
 5018 029e 3046     		mov	r0, r6
 5019              	.LVL558:
 832:lvgl/src/lv_widgets/lv_arc.c ****         bool editing               = lv_group_get_editing(g);
 5020              		.loc 1 832 38 view .LVU1513
 5021 02a0 FFF7FEFF 		bl	lv_obj_get_group
 5022              	.LVL559:
 5023 02a4 0646     		mov	r6, r0
 5024              	.LVL560:
 833:lvgl/src/lv_widgets/lv_arc.c ****         lv_indev_type_t indev_type = lv_indev_get_type(lv_indev_get_act());
ARM GAS  D:\Temp\ccOOHxmt.s 			page 140


 5025              		.loc 1 833 9 is_stmt 1 view .LVU1514
 833:lvgl/src/lv_widgets/lv_arc.c ****         lv_indev_type_t indev_type = lv_indev_get_type(lv_indev_get_act());
 5026              		.loc 1 833 38 is_stmt 0 view .LVU1515
 5027 02a6 FFF7FEFF 		bl	lv_group_get_editing
 5028              	.LVL561:
 833:lvgl/src/lv_widgets/lv_arc.c ****         lv_indev_type_t indev_type = lv_indev_get_type(lv_indev_get_act());
 5029              		.loc 1 833 38 view .LVU1516
 5030 02aa 0446     		mov	r4, r0
 5031              	.LVL562:
 834:lvgl/src/lv_widgets/lv_arc.c ****         if(indev_type == LV_INDEV_TYPE_ENCODER) {
 5032              		.loc 1 834 9 is_stmt 1 view .LVU1517
 834:lvgl/src/lv_widgets/lv_arc.c ****         if(indev_type == LV_INDEV_TYPE_ENCODER) {
 5033              		.loc 1 834 56 is_stmt 0 view .LVU1518
 5034 02ac FFF7FEFF 		bl	lv_indev_get_act
 5035              	.LVL563:
 834:lvgl/src/lv_widgets/lv_arc.c ****         if(indev_type == LV_INDEV_TYPE_ENCODER) {
 5036              		.loc 1 834 38 view .LVU1519
 5037 02b0 FFF7FEFF 		bl	lv_indev_get_type
 5038              	.LVL564:
 835:lvgl/src/lv_widgets/lv_arc.c ****             if(editing) lv_group_set_editing(g, false);
 5039              		.loc 1 835 9 is_stmt 1 view .LVU1520
 835:lvgl/src/lv_widgets/lv_arc.c ****             if(editing) lv_group_set_editing(g, false);
 5040              		.loc 1 835 11 is_stmt 0 view .LVU1521
 5041 02b4 0428     		cmp	r0, #4
 5042 02b6 7FF4D5AE 		bne	.L261
 836:lvgl/src/lv_widgets/lv_arc.c ****         }
 5043              		.loc 1 836 13 is_stmt 1 view .LVU1522
 836:lvgl/src/lv_widgets/lv_arc.c ****         }
 5044              		.loc 1 836 15 is_stmt 0 view .LVU1523
 5045 02ba 002C     		cmp	r4, #0
 5046 02bc 3FF4D2AE 		beq	.L261
 836:lvgl/src/lv_widgets/lv_arc.c ****         }
 5047              		.loc 1 836 25 is_stmt 1 discriminator 1 view .LVU1524
 5048 02c0 0021     		movs	r1, #0
 5049 02c2 3046     		mov	r0, r6
 5050              	.LVL565:
 836:lvgl/src/lv_widgets/lv_arc.c ****         }
 5051              		.loc 1 836 25 is_stmt 0 discriminator 1 view .LVU1525
 5052 02c4 FFF7FEFF 		bl	lv_group_set_editing
 5053              	.LVL566:
 5054 02c8 CCE6     		b	.L261
 5055              	.LVL567:
 5056              	.L290:
 836:lvgl/src/lv_widgets/lv_arc.c ****         }
 5057              		.loc 1 836 25 discriminator 1 view .LVU1526
 5058              	.LBE129:
 5059              	.LBB130:
 842:lvgl/src/lv_widgets/lv_arc.c **** 
 5060              		.loc 1 842 9 is_stmt 1 view .LVU1527
 842:lvgl/src/lv_widgets/lv_arc.c **** 
 5061              		.loc 1 842 12 is_stmt 0 view .LVU1528
 5062 02ca 90F82230 		ldrb	r3, [r0, #34]	@ zero_extendqisi2
 842:lvgl/src/lv_widgets/lv_arc.c **** 
 5063              		.loc 1 842 11 view .LVU1529
 5064 02ce 13F0080F 		tst	r3, #8
 5065 02d2 3FF4C7AE 		beq	.L261
 844:lvgl/src/lv_widgets/lv_arc.c **** 
ARM GAS  D:\Temp\ccOOHxmt.s 			page 141


 5066              		.loc 1 844 9 is_stmt 1 view .LVU1530
 844:lvgl/src/lv_widgets/lv_arc.c **** 
 5067              		.loc 1 844 14 is_stmt 0 view .LVU1531
 5068 02d6 3B78     		ldrb	r3, [r7]	@ zero_extendqisi2
 5069              	.LVL568:
 846:lvgl/src/lv_widgets/lv_arc.c ****         if(c == LV_KEY_RIGHT || c == LV_KEY_UP) {
 5070              		.loc 1 846 9 is_stmt 1 view .LVU1532
 846:lvgl/src/lv_widgets/lv_arc.c ****         if(c == LV_KEY_RIGHT || c == LV_KEY_UP) {
 5071              		.loc 1 846 17 is_stmt 0 view .LVU1533
 5072 02d8 B0F91C40 		ldrsh	r4, [r0, #28]
 5073              	.LVL569:
 847:lvgl/src/lv_widgets/lv_arc.c ****             lv_arc_set_value(arc, lv_arc_get_value(arc) + 1);
 5074              		.loc 1 847 9 is_stmt 1 view .LVU1534
 847:lvgl/src/lv_widgets/lv_arc.c ****             lv_arc_set_value(arc, lv_arc_get_value(arc) + 1);
 5075              		.loc 1 847 11 is_stmt 0 view .LVU1535
 5076 02dc 132B     		cmp	r3, #19
 5077 02de 0FD0     		beq	.L278
 847:lvgl/src/lv_widgets/lv_arc.c ****             lv_arc_set_value(arc, lv_arc_get_value(arc) + 1);
 5078              		.loc 1 847 30 discriminator 1 view .LVU1536
 5079 02e0 112B     		cmp	r3, #17
 5080 02e2 0DD0     		beq	.L278
 850:lvgl/src/lv_widgets/lv_arc.c ****             lv_arc_set_value(arc, lv_arc_get_value(arc) - 1);
 5081              		.loc 1 850 14 is_stmt 1 view .LVU1537
 850:lvgl/src/lv_widgets/lv_arc.c ****             lv_arc_set_value(arc, lv_arc_get_value(arc) - 1);
 5082              		.loc 1 850 16 is_stmt 0 view .LVU1538
 5083 02e4 142B     		cmp	r3, #20
 5084 02e6 01D0     		beq	.L281
 850:lvgl/src/lv_widgets/lv_arc.c ****             lv_arc_set_value(arc, lv_arc_get_value(arc) - 1);
 5085              		.loc 1 850 34 discriminator 1 view .LVU1539
 5086 02e8 122B     		cmp	r3, #18
 5087 02ea 12D1     		bne	.L280
 5088              	.L281:
 851:lvgl/src/lv_widgets/lv_arc.c ****         }
 5089              		.loc 1 851 13 is_stmt 1 view .LVU1540
 851:lvgl/src/lv_widgets/lv_arc.c ****         }
 5090              		.loc 1 851 35 is_stmt 0 view .LVU1541
 5091 02ec 3046     		mov	r0, r6
 5092              	.LVL570:
 851:lvgl/src/lv_widgets/lv_arc.c ****         }
 5093              		.loc 1 851 35 view .LVU1542
 5094 02ee FFF7FEFF 		bl	lv_arc_get_value
 5095              	.LVL571:
 851:lvgl/src/lv_widgets/lv_arc.c ****         }
 5096              		.loc 1 851 35 view .LVU1543
 5097 02f2 81B2     		uxth	r1, r0
 851:lvgl/src/lv_widgets/lv_arc.c ****         }
 5098              		.loc 1 851 57 view .LVU1544
 5099 02f4 0139     		subs	r1, r1, #1
 851:lvgl/src/lv_widgets/lv_arc.c ****         }
 5100              		.loc 1 851 13 view .LVU1545
 5101 02f6 09B2     		sxth	r1, r1
 5102 02f8 3046     		mov	r0, r6
 5103 02fa FFF7FEFF 		bl	lv_arc_set_value
 5104              	.LVL572:
 5105 02fe 08E0     		b	.L280
 5106              	.LVL573:
 5107              	.L278:
ARM GAS  D:\Temp\ccOOHxmt.s 			page 142


 848:lvgl/src/lv_widgets/lv_arc.c ****         }
 5108              		.loc 1 848 13 is_stmt 1 view .LVU1546
 848:lvgl/src/lv_widgets/lv_arc.c ****         }
 5109              		.loc 1 848 35 is_stmt 0 view .LVU1547
 5110 0300 3046     		mov	r0, r6
 5111              	.LVL574:
 848:lvgl/src/lv_widgets/lv_arc.c ****         }
 5112              		.loc 1 848 35 view .LVU1548
 5113 0302 FFF7FEFF 		bl	lv_arc_get_value
 5114              	.LVL575:
 848:lvgl/src/lv_widgets/lv_arc.c ****         }
 5115              		.loc 1 848 35 view .LVU1549
 5116 0306 81B2     		uxth	r1, r0
 848:lvgl/src/lv_widgets/lv_arc.c ****         }
 5117              		.loc 1 848 57 view .LVU1550
 5118 0308 0131     		adds	r1, r1, #1
 848:lvgl/src/lv_widgets/lv_arc.c ****         }
 5119              		.loc 1 848 13 view .LVU1551
 5120 030a 09B2     		sxth	r1, r1
 5121 030c 3046     		mov	r0, r6
 5122 030e FFF7FEFF 		bl	lv_arc_set_value
 5123              	.LVL576:
 5124              	.L280:
 854:lvgl/src/lv_widgets/lv_arc.c ****             res = lv_event_send(arc, LV_EVENT_VALUE_CHANGED, NULL);
 5125              		.loc 1 854 9 is_stmt 1 view .LVU1552
 854:lvgl/src/lv_widgets/lv_arc.c ****             res = lv_event_send(arc, LV_EVENT_VALUE_CHANGED, NULL);
 5126              		.loc 1 854 28 is_stmt 0 view .LVU1553
 5127 0312 B8F91C30 		ldrsh	r3, [r8, #28]
 854:lvgl/src/lv_widgets/lv_arc.c ****             res = lv_event_send(arc, LV_EVENT_VALUE_CHANGED, NULL);
 5128              		.loc 1 854 11 view .LVU1554
 5129 0316 A342     		cmp	r3, r4
 5130 0318 3FF4A4AE 		beq	.L261
 855:lvgl/src/lv_widgets/lv_arc.c ****             if(res != LV_RES_OK) return res;
 5131              		.loc 1 855 13 is_stmt 1 view .LVU1555
 855:lvgl/src/lv_widgets/lv_arc.c ****             if(res != LV_RES_OK) return res;
 5132              		.loc 1 855 19 is_stmt 0 view .LVU1556
 5133 031c 0022     		movs	r2, #0
 5134 031e 1021     		movs	r1, #16
 5135 0320 3046     		mov	r0, r6
 5136 0322 FFF7FEFF 		bl	lv_event_send
 5137              	.LVL577:
 5138 0326 0546     		mov	r5, r0
 5139              	.LVL578:
 856:lvgl/src/lv_widgets/lv_arc.c ****         }
 5140              		.loc 1 856 13 is_stmt 1 view .LVU1557
 5141 0328 9CE6     		b	.L261
 5142              	.LVL579:
 5143              	.L291:
 856:lvgl/src/lv_widgets/lv_arc.c ****         }
 5144              		.loc 1 856 13 is_stmt 0 view .LVU1558
 5145              	.LBE130:
 5146              	.LBB131:
 861:lvgl/src/lv_widgets/lv_arc.c ****         *editable = true;
 5147              		.loc 1 861 9 is_stmt 1 view .LVU1559
 862:lvgl/src/lv_widgets/lv_arc.c **** #endif
 5148              		.loc 1 862 9 view .LVU1560
 862:lvgl/src/lv_widgets/lv_arc.c **** #endif
ARM GAS  D:\Temp\ccOOHxmt.s 			page 143


 5149              		.loc 1 862 19 is_stmt 0 view .LVU1561
 5150 032a 0123     		movs	r3, #1
 5151 032c 3B70     		strb	r3, [r7]
 5152              	.LBE131:
 5153 032e 99E6     		b	.L261
 5154              	.L297:
 5155              		.align	2
 5156              	.L296:
 5157 0330 00000000 		.word	.LANCHOR0
 5158 0334 00000000 		.word	.LC2
 5159 0338 D34D6210 		.word	274877907
 5160              		.cfi_endproc
 5161              	.LFE482:
 5163              		.section	.text.lv_arc_get_min_value,"ax",%progbits
 5164              		.align	1
 5165              		.global	lv_arc_get_min_value
 5166              		.syntax unified
 5167              		.thumb
 5168              		.thumb_func
 5169              		.fpu fpv4-sp-d16
 5171              	lv_arc_get_min_value:
 5172              	.LVL580:
 5173              	.LFB476:
 549:lvgl/src/lv_widgets/lv_arc.c ****     LV_ASSERT_OBJ(arc, LV_OBJX_NAME);
 5174              		.loc 1 549 1 is_stmt 1 view -0
 5175              		.cfi_startproc
 5176              		@ args = 0, pretend = 0, frame = 0
 5177              		@ frame_needed = 0, uses_anonymous_args = 0
 549:lvgl/src/lv_widgets/lv_arc.c ****     LV_ASSERT_OBJ(arc, LV_OBJX_NAME);
 5178              		.loc 1 549 1 is_stmt 0 view .LVU1563
 5179 0000 10B5     		push	{r4, lr}
 5180              	.LCFI43:
 5181              		.cfi_def_cfa_offset 8
 5182              		.cfi_offset 4, -8
 5183              		.cfi_offset 14, -4
 5184 0002 0446     		mov	r4, r0
 550:lvgl/src/lv_widgets/lv_arc.c **** 
 5185              		.loc 1 550 5 is_stmt 1 view .LVU1564
 550:lvgl/src/lv_widgets/lv_arc.c **** 
 5186              		.loc 1 550 5 view .LVU1565
 5187 0004 FFF7FEFF 		bl	lv_debug_check_null
 5188              	.LVL581:
 550:lvgl/src/lv_widgets/lv_arc.c **** 
 5189              		.loc 1 550 5 is_stmt 0 view .LVU1566
 5190 0008 28B9     		cbnz	r0, .L299
 550:lvgl/src/lv_widgets/lv_arc.c **** 
 5191              		.loc 1 550 5 is_stmt 1 discriminator 1 view .LVU1567
 550:lvgl/src/lv_widgets/lv_arc.c **** 
 5192              		.loc 1 550 5 discriminator 1 view .LVU1568
 5193 000a 2246     		mov	r2, r4
 5194 000c 0023     		movs	r3, #0
 5195 000e 0548     		ldr	r0, .L302
 5196 0010 FFF7FEFF 		bl	lv_debug_log_error
 5197              	.LVL582:
 5198              	.L300:
 550:lvgl/src/lv_widgets/lv_arc.c **** 
 5199              		.loc 1 550 5 discriminator 1 view .LVU1569
ARM GAS  D:\Temp\ccOOHxmt.s 			page 144


 550:lvgl/src/lv_widgets/lv_arc.c **** 
 5200              		.loc 1 550 5 discriminator 1 view .LVU1570
 5201 0014 FEE7     		b	.L300
 5202              	.L299:
 550:lvgl/src/lv_widgets/lv_arc.c **** 
 5203              		.loc 1 550 37 discriminator 2 view .LVU1571
 552:lvgl/src/lv_widgets/lv_arc.c ****     return ext->min_value;
 5204              		.loc 1 552 5 discriminator 2 view .LVU1572
 552:lvgl/src/lv_widgets/lv_arc.c ****     return ext->min_value;
 5205              		.loc 1 552 42 is_stmt 0 discriminator 2 view .LVU1573
 5206 0016 2046     		mov	r0, r4
 5207 0018 FFF7FEFF 		bl	lv_obj_get_ext_attr
 5208              	.LVL583:
 553:lvgl/src/lv_widgets/lv_arc.c **** }
 5209              		.loc 1 553 5 is_stmt 1 discriminator 2 view .LVU1574
 554:lvgl/src/lv_widgets/lv_arc.c **** 
 5210              		.loc 1 554 1 is_stmt 0 discriminator 2 view .LVU1575
 5211 001c B0F91E00 		ldrsh	r0, [r0, #30]
 5212              	.LVL584:
 554:lvgl/src/lv_widgets/lv_arc.c **** 
 5213              		.loc 1 554 1 discriminator 2 view .LVU1576
 5214 0020 10BD     		pop	{r4, pc}
 5215              	.LVL585:
 5216              	.L303:
 554:lvgl/src/lv_widgets/lv_arc.c **** 
 5217              		.loc 1 554 1 discriminator 2 view .LVU1577
 5218 0022 00BF     		.align	2
 5219              	.L302:
 5220 0024 00000000 		.word	.LC0
 5221              		.cfi_endproc
 5222              	.LFE476:
 5224              		.section	.text.lv_arc_get_max_value,"ax",%progbits
 5225              		.align	1
 5226              		.global	lv_arc_get_max_value
 5227              		.syntax unified
 5228              		.thumb
 5229              		.thumb_func
 5230              		.fpu fpv4-sp-d16
 5232              	lv_arc_get_max_value:
 5233              	.LVL586:
 5234              	.LFB477:
 562:lvgl/src/lv_widgets/lv_arc.c ****     LV_ASSERT_OBJ(arc, LV_OBJX_NAME);
 5235              		.loc 1 562 1 is_stmt 1 view -0
 5236              		.cfi_startproc
 5237              		@ args = 0, pretend = 0, frame = 0
 5238              		@ frame_needed = 0, uses_anonymous_args = 0
 562:lvgl/src/lv_widgets/lv_arc.c ****     LV_ASSERT_OBJ(arc, LV_OBJX_NAME);
 5239              		.loc 1 562 1 is_stmt 0 view .LVU1579
 5240 0000 10B5     		push	{r4, lr}
 5241              	.LCFI44:
 5242              		.cfi_def_cfa_offset 8
 5243              		.cfi_offset 4, -8
 5244              		.cfi_offset 14, -4
 5245 0002 0446     		mov	r4, r0
 563:lvgl/src/lv_widgets/lv_arc.c **** 
 5246              		.loc 1 563 5 is_stmt 1 view .LVU1580
 563:lvgl/src/lv_widgets/lv_arc.c **** 
ARM GAS  D:\Temp\ccOOHxmt.s 			page 145


 5247              		.loc 1 563 5 view .LVU1581
 5248 0004 FFF7FEFF 		bl	lv_debug_check_null
 5249              	.LVL587:
 563:lvgl/src/lv_widgets/lv_arc.c **** 
 5250              		.loc 1 563 5 is_stmt 0 view .LVU1582
 5251 0008 28B9     		cbnz	r0, .L305
 563:lvgl/src/lv_widgets/lv_arc.c **** 
 5252              		.loc 1 563 5 is_stmt 1 discriminator 1 view .LVU1583
 563:lvgl/src/lv_widgets/lv_arc.c **** 
 5253              		.loc 1 563 5 discriminator 1 view .LVU1584
 5254 000a 2246     		mov	r2, r4
 5255 000c 0023     		movs	r3, #0
 5256 000e 0548     		ldr	r0, .L308
 5257 0010 FFF7FEFF 		bl	lv_debug_log_error
 5258              	.LVL588:
 5259              	.L306:
 563:lvgl/src/lv_widgets/lv_arc.c **** 
 5260              		.loc 1 563 5 discriminator 1 view .LVU1585
 563:lvgl/src/lv_widgets/lv_arc.c **** 
 5261              		.loc 1 563 5 discriminator 1 view .LVU1586
 5262 0014 FEE7     		b	.L306
 5263              	.L305:
 563:lvgl/src/lv_widgets/lv_arc.c **** 
 5264              		.loc 1 563 37 discriminator 2 view .LVU1587
 565:lvgl/src/lv_widgets/lv_arc.c ****     return ext->max_value;
 5265              		.loc 1 565 5 discriminator 2 view .LVU1588
 565:lvgl/src/lv_widgets/lv_arc.c ****     return ext->max_value;
 5266              		.loc 1 565 42 is_stmt 0 discriminator 2 view .LVU1589
 5267 0016 2046     		mov	r0, r4
 5268 0018 FFF7FEFF 		bl	lv_obj_get_ext_attr
 5269              	.LVL589:
 566:lvgl/src/lv_widgets/lv_arc.c **** }
 5270              		.loc 1 566 5 is_stmt 1 discriminator 2 view .LVU1590
 567:lvgl/src/lv_widgets/lv_arc.c **** 
 5271              		.loc 1 567 1 is_stmt 0 discriminator 2 view .LVU1591
 5272 001c B0F92000 		ldrsh	r0, [r0, #32]
 5273              	.LVL590:
 567:lvgl/src/lv_widgets/lv_arc.c **** 
 5274              		.loc 1 567 1 discriminator 2 view .LVU1592
 5275 0020 10BD     		pop	{r4, pc}
 5276              	.LVL591:
 5277              	.L309:
 567:lvgl/src/lv_widgets/lv_arc.c **** 
 5278              		.loc 1 567 1 discriminator 2 view .LVU1593
 5279 0022 00BF     		.align	2
 5280              	.L308:
 5281 0024 00000000 		.word	.LC0
 5282              		.cfi_endproc
 5283              	.LFE477:
 5285              		.section	.text.lv_arc_is_dragged,"ax",%progbits
 5286              		.align	1
 5287              		.global	lv_arc_is_dragged
 5288              		.syntax unified
 5289              		.thumb
 5290              		.thumb_func
 5291              		.fpu fpv4-sp-d16
 5293              	lv_arc_is_dragged:
ARM GAS  D:\Temp\ccOOHxmt.s 			page 146


 5294              	.LVL592:
 5295              	.LFB478:
 575:lvgl/src/lv_widgets/lv_arc.c ****     LV_ASSERT_OBJ(arc, LV_OBJX_NAME);
 5296              		.loc 1 575 1 is_stmt 1 view -0
 5297              		.cfi_startproc
 5298              		@ args = 0, pretend = 0, frame = 0
 5299              		@ frame_needed = 0, uses_anonymous_args = 0
 575:lvgl/src/lv_widgets/lv_arc.c ****     LV_ASSERT_OBJ(arc, LV_OBJX_NAME);
 5300              		.loc 1 575 1 is_stmt 0 view .LVU1595
 5301 0000 10B5     		push	{r4, lr}
 5302              	.LCFI45:
 5303              		.cfi_def_cfa_offset 8
 5304              		.cfi_offset 4, -8
 5305              		.cfi_offset 14, -4
 5306 0002 0446     		mov	r4, r0
 576:lvgl/src/lv_widgets/lv_arc.c **** 
 5307              		.loc 1 576 5 is_stmt 1 view .LVU1596
 576:lvgl/src/lv_widgets/lv_arc.c **** 
 5308              		.loc 1 576 5 view .LVU1597
 5309 0004 FFF7FEFF 		bl	lv_debug_check_null
 5310              	.LVL593:
 576:lvgl/src/lv_widgets/lv_arc.c **** 
 5311              		.loc 1 576 5 is_stmt 0 view .LVU1598
 5312 0008 28B9     		cbnz	r0, .L311
 576:lvgl/src/lv_widgets/lv_arc.c **** 
 5313              		.loc 1 576 5 is_stmt 1 discriminator 1 view .LVU1599
 576:lvgl/src/lv_widgets/lv_arc.c **** 
 5314              		.loc 1 576 5 discriminator 1 view .LVU1600
 5315 000a 2246     		mov	r2, r4
 5316 000c 0023     		movs	r3, #0
 5317 000e 0648     		ldr	r0, .L314
 5318 0010 FFF7FEFF 		bl	lv_debug_log_error
 5319              	.LVL594:
 5320              	.L312:
 576:lvgl/src/lv_widgets/lv_arc.c **** 
 5321              		.loc 1 576 5 discriminator 1 view .LVU1601
 576:lvgl/src/lv_widgets/lv_arc.c **** 
 5322              		.loc 1 576 5 discriminator 1 view .LVU1602
 5323 0014 FEE7     		b	.L312
 5324              	.L311:
 576:lvgl/src/lv_widgets/lv_arc.c **** 
 5325              		.loc 1 576 37 discriminator 2 view .LVU1603
 578:lvgl/src/lv_widgets/lv_arc.c ****     return ext->dragging;
 5326              		.loc 1 578 5 discriminator 2 view .LVU1604
 578:lvgl/src/lv_widgets/lv_arc.c ****     return ext->dragging;
 5327              		.loc 1 578 26 is_stmt 0 discriminator 2 view .LVU1605
 5328 0016 2046     		mov	r0, r4
 5329 0018 FFF7FEFF 		bl	lv_obj_get_ext_attr
 5330              	.LVL595:
 579:lvgl/src/lv_widgets/lv_arc.c **** }
 5331              		.loc 1 579 5 is_stmt 1 discriminator 2 view .LVU1606
 579:lvgl/src/lv_widgets/lv_arc.c **** }
 5332              		.loc 1 579 15 is_stmt 0 discriminator 2 view .LVU1607
 5333 001c 90F82200 		ldrb	r0, [r0, #34]	@ zero_extendqisi2
 5334              	.LVL596:
 580:lvgl/src/lv_widgets/lv_arc.c **** 
 5335              		.loc 1 580 1 discriminator 2 view .LVU1608
ARM GAS  D:\Temp\ccOOHxmt.s 			page 147


 5336 0020 00F00100 		and	r0, r0, #1
 5337 0024 10BD     		pop	{r4, pc}
 5338              	.LVL597:
 5339              	.L315:
 580:lvgl/src/lv_widgets/lv_arc.c **** 
 5340              		.loc 1 580 1 discriminator 2 view .LVU1609
 5341 0026 00BF     		.align	2
 5342              	.L314:
 5343 0028 00000000 		.word	.LC0
 5344              		.cfi_endproc
 5345              	.LFE478:
 5347              		.section	.text.lv_arc_get_type,"ax",%progbits
 5348              		.align	1
 5349              		.global	lv_arc_get_type
 5350              		.syntax unified
 5351              		.thumb
 5352              		.thumb_func
 5353              		.fpu fpv4-sp-d16
 5355              	lv_arc_get_type:
 5356              	.LVL598:
 5357              	.LFB479:
 588:lvgl/src/lv_widgets/lv_arc.c ****     LV_ASSERT_OBJ(arc, LV_OBJX_NAME);
 5358              		.loc 1 588 1 is_stmt 1 view -0
 5359              		.cfi_startproc
 5360              		@ args = 0, pretend = 0, frame = 0
 5361              		@ frame_needed = 0, uses_anonymous_args = 0
 588:lvgl/src/lv_widgets/lv_arc.c ****     LV_ASSERT_OBJ(arc, LV_OBJX_NAME);
 5362              		.loc 1 588 1 is_stmt 0 view .LVU1611
 5363 0000 10B5     		push	{r4, lr}
 5364              	.LCFI46:
 5365              		.cfi_def_cfa_offset 8
 5366              		.cfi_offset 4, -8
 5367              		.cfi_offset 14, -4
 5368 0002 0446     		mov	r4, r0
 589:lvgl/src/lv_widgets/lv_arc.c **** 
 5369              		.loc 1 589 5 is_stmt 1 view .LVU1612
 589:lvgl/src/lv_widgets/lv_arc.c **** 
 5370              		.loc 1 589 5 view .LVU1613
 5371 0004 FFF7FEFF 		bl	lv_debug_check_null
 5372              	.LVL599:
 589:lvgl/src/lv_widgets/lv_arc.c **** 
 5373              		.loc 1 589 5 is_stmt 0 view .LVU1614
 5374 0008 28B9     		cbnz	r0, .L317
 589:lvgl/src/lv_widgets/lv_arc.c **** 
 5375              		.loc 1 589 5 is_stmt 1 discriminator 1 view .LVU1615
 589:lvgl/src/lv_widgets/lv_arc.c **** 
 5376              		.loc 1 589 5 discriminator 1 view .LVU1616
 5377 000a 2246     		mov	r2, r4
 5378 000c 0023     		movs	r3, #0
 5379 000e 0648     		ldr	r0, .L320
 5380 0010 FFF7FEFF 		bl	lv_debug_log_error
 5381              	.LVL600:
 5382              	.L318:
 589:lvgl/src/lv_widgets/lv_arc.c **** 
 5383              		.loc 1 589 5 discriminator 1 view .LVU1617
 589:lvgl/src/lv_widgets/lv_arc.c **** 
 5384              		.loc 1 589 5 discriminator 1 view .LVU1618
ARM GAS  D:\Temp\ccOOHxmt.s 			page 148


 5385 0014 FEE7     		b	.L318
 5386              	.L317:
 589:lvgl/src/lv_widgets/lv_arc.c **** 
 5387              		.loc 1 589 37 discriminator 2 view .LVU1619
 591:lvgl/src/lv_widgets/lv_arc.c ****     return ext->type;
 5388              		.loc 1 591 5 discriminator 2 view .LVU1620
 591:lvgl/src/lv_widgets/lv_arc.c ****     return ext->type;
 5389              		.loc 1 591 42 is_stmt 0 discriminator 2 view .LVU1621
 5390 0016 2046     		mov	r0, r4
 5391 0018 FFF7FEFF 		bl	lv_obj_get_ext_attr
 5392              	.LVL601:
 592:lvgl/src/lv_widgets/lv_arc.c **** }
 5393              		.loc 1 592 5 is_stmt 1 discriminator 2 view .LVU1622
 592:lvgl/src/lv_widgets/lv_arc.c **** }
 5394              		.loc 1 592 15 is_stmt 0 discriminator 2 view .LVU1623
 5395 001c 90F82200 		ldrb	r0, [r0, #34]	@ zero_extendqisi2
 5396              	.LVL602:
 593:lvgl/src/lv_widgets/lv_arc.c **** 
 5397              		.loc 1 593 1 discriminator 2 view .LVU1624
 5398 0020 C0F34100 		ubfx	r0, r0, #1, #2
 5399 0024 10BD     		pop	{r4, pc}
 5400              	.LVL603:
 5401              	.L321:
 593:lvgl/src/lv_widgets/lv_arc.c **** 
 5402              		.loc 1 593 1 discriminator 2 view .LVU1625
 5403 0026 00BF     		.align	2
 5404              	.L320:
 5405 0028 00000000 		.word	.LC0
 5406              		.cfi_endproc
 5407              	.LFE479:
 5409              		.section	.text.lv_arc_get_adjustable,"ax",%progbits
 5410              		.align	1
 5411              		.global	lv_arc_get_adjustable
 5412              		.syntax unified
 5413              		.thumb
 5414              		.thumb_func
 5415              		.fpu fpv4-sp-d16
 5417              	lv_arc_get_adjustable:
 5418              	.LVL604:
 5419              	.LFB480:
 601:lvgl/src/lv_widgets/lv_arc.c ****     LV_ASSERT_OBJ(arc, LV_OBJX_NAME);
 5420              		.loc 1 601 1 is_stmt 1 view -0
 5421              		.cfi_startproc
 5422              		@ args = 0, pretend = 0, frame = 0
 5423              		@ frame_needed = 0, uses_anonymous_args = 0
 601:lvgl/src/lv_widgets/lv_arc.c ****     LV_ASSERT_OBJ(arc, LV_OBJX_NAME);
 5424              		.loc 1 601 1 is_stmt 0 view .LVU1627
 5425 0000 10B5     		push	{r4, lr}
 5426              	.LCFI47:
 5427              		.cfi_def_cfa_offset 8
 5428              		.cfi_offset 4, -8
 5429              		.cfi_offset 14, -4
 5430 0002 0446     		mov	r4, r0
 602:lvgl/src/lv_widgets/lv_arc.c **** 
 5431              		.loc 1 602 5 is_stmt 1 view .LVU1628
 602:lvgl/src/lv_widgets/lv_arc.c **** 
 5432              		.loc 1 602 5 view .LVU1629
ARM GAS  D:\Temp\ccOOHxmt.s 			page 149


 5433 0004 FFF7FEFF 		bl	lv_debug_check_null
 5434              	.LVL605:
 602:lvgl/src/lv_widgets/lv_arc.c **** 
 5435              		.loc 1 602 5 is_stmt 0 view .LVU1630
 5436 0008 28B9     		cbnz	r0, .L323
 602:lvgl/src/lv_widgets/lv_arc.c **** 
 5437              		.loc 1 602 5 is_stmt 1 discriminator 1 view .LVU1631
 602:lvgl/src/lv_widgets/lv_arc.c **** 
 5438              		.loc 1 602 5 discriminator 1 view .LVU1632
 5439 000a 2246     		mov	r2, r4
 5440 000c 0023     		movs	r3, #0
 5441 000e 0648     		ldr	r0, .L326
 5442 0010 FFF7FEFF 		bl	lv_debug_log_error
 5443              	.LVL606:
 5444              	.L324:
 602:lvgl/src/lv_widgets/lv_arc.c **** 
 5445              		.loc 1 602 5 discriminator 1 view .LVU1633
 602:lvgl/src/lv_widgets/lv_arc.c **** 
 5446              		.loc 1 602 5 discriminator 1 view .LVU1634
 5447 0014 FEE7     		b	.L324
 5448              	.L323:
 602:lvgl/src/lv_widgets/lv_arc.c **** 
 5449              		.loc 1 602 37 discriminator 2 view .LVU1635
 604:lvgl/src/lv_widgets/lv_arc.c ****     return ext->adjustable;
 5450              		.loc 1 604 5 discriminator 2 view .LVU1636
 604:lvgl/src/lv_widgets/lv_arc.c ****     return ext->adjustable;
 5451              		.loc 1 604 42 is_stmt 0 discriminator 2 view .LVU1637
 5452 0016 2046     		mov	r0, r4
 5453 0018 FFF7FEFF 		bl	lv_obj_get_ext_attr
 5454              	.LVL607:
 605:lvgl/src/lv_widgets/lv_arc.c **** }
 5455              		.loc 1 605 5 is_stmt 1 discriminator 2 view .LVU1638
 605:lvgl/src/lv_widgets/lv_arc.c **** }
 5456              		.loc 1 605 15 is_stmt 0 discriminator 2 view .LVU1639
 5457 001c 90F82200 		ldrb	r0, [r0, #34]	@ zero_extendqisi2
 5458              	.LVL608:
 606:lvgl/src/lv_widgets/lv_arc.c **** 
 5459              		.loc 1 606 1 discriminator 2 view .LVU1640
 5460 0020 C0F3C000 		ubfx	r0, r0, #3, #1
 5461 0024 10BD     		pop	{r4, pc}
 5462              	.LVL609:
 5463              	.L327:
 606:lvgl/src/lv_widgets/lv_arc.c **** 
 5464              		.loc 1 606 1 discriminator 2 view .LVU1641
 5465 0026 00BF     		.align	2
 5466              	.L326:
 5467 0028 00000000 		.word	.LC0
 5468              		.cfi_endproc
 5469              	.LFE480:
 5471              		.section	.bss.ancestor_design,"aw",%nobits
 5472              		.align	2
 5473              		.set	.LANCHOR1,. + 0
 5476              	ancestor_design:
 5477 0000 00000000 		.space	4
 5478              		.section	.bss.ancestor_signal,"aw",%nobits
 5479              		.align	2
 5480              		.set	.LANCHOR0,. + 0
ARM GAS  D:\Temp\ccOOHxmt.s 			page 150


 5483              	ancestor_signal:
 5484 0000 00000000 		.space	4
 5485              		.section	.rodata.lv_arc_create.str1.4,"aMS",%progbits,1
 5486              		.align	2
 5487              	.LC1:
 5488 0000 4F757420 		.ascii	"Out of memory\000"
 5488      6F66206D 
 5488      656D6F72 
 5488      7900
 5489              		.section	.rodata.lv_arc_get_style.str1.4,"aMS",%progbits,1
 5490              		.align	2
 5491              	.LC0:
 5492 0000 4E554C4C 		.ascii	"NULL pointer\000"
 5492      20706F69 
 5492      6E746572 
 5492      00
 5493              		.section	.rodata.lv_arc_signal.str1.4,"aMS",%progbits,1
 5494              		.align	2
 5495              	.LC2:
 5496 0000 6C765F61 		.ascii	"lv_arc\000"
 5496      726300
 5497              		.text
 5498              	.Letext0:
 5499              		.file 4 "c:\\stm32\\gnu mcu eclipse\\arm embedded gcc\\8.2.1-1.4-20190214-0604\\arm-none-eabi\\inc
 5500              		.file 5 "c:\\stm32\\gnu mcu eclipse\\arm embedded gcc\\8.2.1-1.4-20190214-0604\\arm-none-eabi\\inc
 5501              		.file 6 "Drivers/CMSIS/Include/core_cm4.h"
 5502              		.file 7 "Drivers/CMSIS/Device/ST/STM32F4xx/Include/system_stm32f4xx.h"
 5503              		.file 8 "Drivers/STM32F4xx_HAL_Driver/Inc/stm32f4xx_hal.h"
 5504              		.file 9 "lvgl/lv_conf.h"
 5505              		.file 10 "c:\\stm32\\gnu mcu eclipse\\arm embedded gcc\\8.2.1-1.4-20190214-0604\\arm-none-eabi\\in
 5506              		.file 11 "c:\\stm32\\gnu mcu eclipse\\arm embedded gcc\\8.2.1-1.4-20190214-0604\\arm-none-eabi\\in
 5507              		.file 12 "c:\\stm32\\gnu mcu eclipse\\arm embedded gcc\\8.2.1-1.4-20190214-0604\\lib\\gcc\\arm-non
 5508              		.file 13 "c:\\stm32\\gnu mcu eclipse\\arm embedded gcc\\8.2.1-1.4-20190214-0604\\arm-none-eabi\\in
 5509              		.file 14 "d:\\_project\\stm32\\f407\\hack_rf_new\\lvgl\\src\\lv_misc\\lv_types.h"
 5510              		.file 15 "d:\\_project\\stm32\\f407\\hack_rf_new\\lvgl\\src\\lv_misc\\lv_mem.h"
 5511              		.file 16 "d:\\_project\\stm32\\f407\\hack_rf_new\\lvgl\\src\\lv_misc\\lv_area.h"
 5512              		.file 17 "lvgl/src/lv_widgets/../lv_core/../lv_font/lv_font.h"
 5513              		.file 18 "lvgl/src/lv_widgets/../lv_core/../lv_misc/lv_color.h"
 5514              		.file 19 "lvgl/src/lv_widgets/../lv_core/../lv_misc/lv_anim.h"
 5515              		.file 20 "lvgl/src/lv_widgets/../lv_core/../lv_draw/lv_draw_blend.h"
 5516              		.file 21 "lvgl/src/lv_widgets/../lv_core/../lv_hal/../lv_misc/lv_ll.h"
 5517              		.file 22 "lvgl/src/lv_widgets/../lv_core/../lv_hal/../lv_misc/lv_task.h"
 5518              		.file 23 "lvgl/src/lv_widgets/../lv_core/../lv_hal/lv_hal_disp.h"
 5519              		.file 24 "lvgl/src/lv_widgets/../lv_core/lv_obj.h"
 5520              		.file 25 "lvgl/src/lv_widgets/../lv_core/../lv_hal/lv_hal_indev.h"
 5521              		.file 26 "lvgl/src/lv_widgets/../lv_core/lv_group.h"
 5522              		.file 27 "lvgl/src/lv_widgets/../lv_core/../lv_draw/lv_draw_rect.h"
 5523              		.file 28 "d:\\_project\\stm32\\f407\\hack_rf_new\\lvgl\\src\\lv_misc\\lv_bidi.h"
 5524              		.file 29 "d:\\_project\\stm32\\f407\\hack_rf_new\\lvgl\\src\\lv_misc\\lv_txt.h"
 5525              		.file 30 "lvgl/src/lv_widgets/../lv_core/../lv_draw/lv_draw_label.h"
 5526              		.file 31 "lvgl/src/lv_widgets/../lv_core/../lv_draw/lv_draw_line.h"
 5527              		.file 32 "lvgl/src/lv_widgets/lv_arc.h"
 5528              		.file 33 "lvgl/src/lv_widgets/../lv_themes/lv_theme.h"
 5529              		.file 34 "lvgl/src/lv_widgets/../lv_core/../lv_misc/lv_math.h"
 5530              		.file 35 "lvgl/src/lv_widgets/../lv_core/../lv_misc/lv_debug.h"
 5531              		.file 36 "lvgl/src/lv_widgets/../lv_core/../lv_hal/lv_hal_tick.h"
 5532              		.file 37 "lvgl/src/lv_widgets/../lv_core/lv_indev.h"
ARM GAS  D:\Temp\ccOOHxmt.s 			page 151


 5533              		.file 38 "lvgl/src/lv_widgets/../lv_draw/lv_draw_arc.h"
ARM GAS  D:\Temp\ccOOHxmt.s 			page 152


DEFINED SYMBOLS
                            *ABS*:0000000000000000 lv_arc.c
  D:\Temp\ccOOHxmt.s:18     .text.lv_arc_get_style:0000000000000000 $t
  D:\Temp\ccOOHxmt.s:25     .text.lv_arc_get_style:0000000000000000 lv_arc_get_style
  D:\Temp\ccOOHxmt.s:111    .text.lv_arc_get_style:000000000000003c $d
  D:\Temp\ccOOHxmt.s:116    .text.get_center:0000000000000000 $t
  D:\Temp\ccOOHxmt.s:122    .text.get_center:0000000000000000 get_center
  D:\Temp\ccOOHxmt.s:305    .text.get_knob_area:0000000000000000 $t
  D:\Temp\ccOOHxmt.s:311    .text.get_knob_area:0000000000000000 get_knob_area
  D:\Temp\ccOOHxmt.s:625    .text.lv_arc_design:0000000000000000 $t
  D:\Temp\ccOOHxmt.s:631    .text.lv_arc_design:0000000000000000 lv_arc_design
  D:\Temp\ccOOHxmt.s:946    .text.inv_arc_area:0000000000000000 $t
  D:\Temp\ccOOHxmt.s:952    .text.inv_arc_area:0000000000000000 inv_arc_area
  D:\Temp\ccOOHxmt.s:1624   .text.inv_arc_area:0000000000000314 $d
  D:\Temp\ccOOHxmt.s:1629   .text.inv_arc_area:0000000000000318 $t
  D:\Temp\ccOOHxmt.s:2136   .text.lv_arc_set_start_angle:0000000000000000 $t
  D:\Temp\ccOOHxmt.s:2143   .text.lv_arc_set_start_angle:0000000000000000 lv_arc_set_start_angle
  D:\Temp\ccOOHxmt.s:2282   .text.lv_arc_set_start_angle:0000000000000090 $d
  D:\Temp\ccOOHxmt.s:2287   .text.lv_arc_set_end_angle:0000000000000000 $t
  D:\Temp\ccOOHxmt.s:2294   .text.lv_arc_set_end_angle:0000000000000000 lv_arc_set_end_angle
  D:\Temp\ccOOHxmt.s:2434   .text.lv_arc_set_end_angle:000000000000008c $d
  D:\Temp\ccOOHxmt.s:2439   .text.value_update:0000000000000000 $t
  D:\Temp\ccOOHxmt.s:2445   .text.value_update:0000000000000000 value_update
  D:\Temp\ccOOHxmt.s:2644   .text.lv_arc_set_angles:0000000000000000 $t
  D:\Temp\ccOOHxmt.s:2651   .text.lv_arc_set_angles:0000000000000000 lv_arc_set_angles
  D:\Temp\ccOOHxmt.s:2747   .text.lv_arc_set_angles:0000000000000058 $d
  D:\Temp\ccOOHxmt.s:2752   .text.lv_arc_set_bg_start_angle:0000000000000000 $t
  D:\Temp\ccOOHxmt.s:2759   .text.lv_arc_set_bg_start_angle:0000000000000000 lv_arc_set_bg_start_angle
  D:\Temp\ccOOHxmt.s:2902   .text.lv_arc_set_bg_start_angle:0000000000000094 $d
  D:\Temp\ccOOHxmt.s:2907   .text.lv_arc_set_bg_end_angle:0000000000000000 $t
  D:\Temp\ccOOHxmt.s:2914   .text.lv_arc_set_bg_end_angle:0000000000000000 lv_arc_set_bg_end_angle
  D:\Temp\ccOOHxmt.s:3058   .text.lv_arc_set_bg_end_angle:0000000000000094 $d
  D:\Temp\ccOOHxmt.s:3063   .text.lv_arc_set_bg_angles:0000000000000000 $t
  D:\Temp\ccOOHxmt.s:3070   .text.lv_arc_set_bg_angles:0000000000000000 lv_arc_set_bg_angles
  D:\Temp\ccOOHxmt.s:3170   .text.lv_arc_set_bg_angles:000000000000005c $d
  D:\Temp\ccOOHxmt.s:3175   .text.lv_arc_set_rotation:0000000000000000 $t
  D:\Temp\ccOOHxmt.s:3182   .text.lv_arc_set_rotation:0000000000000000 lv_arc_set_rotation
  D:\Temp\ccOOHxmt.s:3239   .text.lv_arc_set_rotation:0000000000000028 $d
  D:\Temp\ccOOHxmt.s:3244   .text.lv_arc_set_value:0000000000000000 $t
  D:\Temp\ccOOHxmt.s:3251   .text.lv_arc_set_value:0000000000000000 lv_arc_set_value
  D:\Temp\ccOOHxmt.s:3337   .text.lv_arc_set_value:000000000000004c $d
  D:\Temp\ccOOHxmt.s:3342   .text.lv_arc_create:0000000000000000 $t
  D:\Temp\ccOOHxmt.s:3349   .text.lv_arc_create:0000000000000000 lv_arc_create
  D:\Temp\ccOOHxmt.s:3718   .text.lv_arc_create:00000000000001cc $d
  D:\Temp\ccOOHxmt.s:4437   .text.lv_arc_signal:0000000000000000 lv_arc_signal
  D:\Temp\ccOOHxmt.s:3727   .text.lv_arc_set_type:0000000000000000 $t
  D:\Temp\ccOOHxmt.s:3734   .text.lv_arc_set_type:0000000000000000 lv_arc_set_type
  D:\Temp\ccOOHxmt.s:3863   .text.lv_arc_set_type:0000000000000088 $d
  D:\Temp\ccOOHxmt.s:3868   .text.lv_arc_set_range:0000000000000000 $t
  D:\Temp\ccOOHxmt.s:3875   .text.lv_arc_set_range:0000000000000000 lv_arc_set_range
  D:\Temp\ccOOHxmt.s:3970   .text.lv_arc_set_range:0000000000000054 $d
  D:\Temp\ccOOHxmt.s:3975   .text.lv_arc_set_chg_rate:0000000000000000 $t
  D:\Temp\ccOOHxmt.s:3982   .text.lv_arc_set_chg_rate:0000000000000000 lv_arc_set_chg_rate
  D:\Temp\ccOOHxmt.s:4033   .text.lv_arc_set_chg_rate:0000000000000024 $d
  D:\Temp\ccOOHxmt.s:4038   .text.lv_arc_set_adjustable:0000000000000000 $t
  D:\Temp\ccOOHxmt.s:4045   .text.lv_arc_set_adjustable:0000000000000000 lv_arc_set_adjustable
  D:\Temp\ccOOHxmt.s:4121   .text.lv_arc_set_adjustable:000000000000004c $d
ARM GAS  D:\Temp\ccOOHxmt.s 			page 153


  D:\Temp\ccOOHxmt.s:4126   .text.lv_arc_get_angle_start:0000000000000000 $t
  D:\Temp\ccOOHxmt.s:4133   .text.lv_arc_get_angle_start:0000000000000000 lv_arc_get_angle_start
  D:\Temp\ccOOHxmt.s:4182   .text.lv_arc_get_angle_start:0000000000000020 $d
  D:\Temp\ccOOHxmt.s:4187   .text.lv_arc_get_angle_end:0000000000000000 $t
  D:\Temp\ccOOHxmt.s:4194   .text.lv_arc_get_angle_end:0000000000000000 lv_arc_get_angle_end
  D:\Temp\ccOOHxmt.s:4243   .text.lv_arc_get_angle_end:0000000000000020 $d
  D:\Temp\ccOOHxmt.s:4248   .text.lv_arc_get_bg_angle_start:0000000000000000 $t
  D:\Temp\ccOOHxmt.s:4255   .text.lv_arc_get_bg_angle_start:0000000000000000 lv_arc_get_bg_angle_start
  D:\Temp\ccOOHxmt.s:4304   .text.lv_arc_get_bg_angle_start:0000000000000020 $d
  D:\Temp\ccOOHxmt.s:4309   .text.lv_arc_get_bg_angle_end:0000000000000000 $t
  D:\Temp\ccOOHxmt.s:4316   .text.lv_arc_get_bg_angle_end:0000000000000000 lv_arc_get_bg_angle_end
  D:\Temp\ccOOHxmt.s:4365   .text.lv_arc_get_bg_angle_end:0000000000000020 $d
  D:\Temp\ccOOHxmt.s:4370   .text.lv_arc_get_value:0000000000000000 $t
  D:\Temp\ccOOHxmt.s:4377   .text.lv_arc_get_value:0000000000000000 lv_arc_get_value
  D:\Temp\ccOOHxmt.s:4426   .text.lv_arc_get_value:0000000000000024 $d
  D:\Temp\ccOOHxmt.s:4431   .text.lv_arc_signal:0000000000000000 $t
  D:\Temp\ccOOHxmt.s:5157   .text.lv_arc_signal:0000000000000330 $d
  D:\Temp\ccOOHxmt.s:5164   .text.lv_arc_get_min_value:0000000000000000 $t
  D:\Temp\ccOOHxmt.s:5171   .text.lv_arc_get_min_value:0000000000000000 lv_arc_get_min_value
  D:\Temp\ccOOHxmt.s:5220   .text.lv_arc_get_min_value:0000000000000024 $d
  D:\Temp\ccOOHxmt.s:5225   .text.lv_arc_get_max_value:0000000000000000 $t
  D:\Temp\ccOOHxmt.s:5232   .text.lv_arc_get_max_value:0000000000000000 lv_arc_get_max_value
  D:\Temp\ccOOHxmt.s:5281   .text.lv_arc_get_max_value:0000000000000024 $d
  D:\Temp\ccOOHxmt.s:5286   .text.lv_arc_is_dragged:0000000000000000 $t
  D:\Temp\ccOOHxmt.s:5293   .text.lv_arc_is_dragged:0000000000000000 lv_arc_is_dragged
  D:\Temp\ccOOHxmt.s:5343   .text.lv_arc_is_dragged:0000000000000028 $d
  D:\Temp\ccOOHxmt.s:5348   .text.lv_arc_get_type:0000000000000000 $t
  D:\Temp\ccOOHxmt.s:5355   .text.lv_arc_get_type:0000000000000000 lv_arc_get_type
  D:\Temp\ccOOHxmt.s:5405   .text.lv_arc_get_type:0000000000000028 $d
  D:\Temp\ccOOHxmt.s:5410   .text.lv_arc_get_adjustable:0000000000000000 $t
  D:\Temp\ccOOHxmt.s:5417   .text.lv_arc_get_adjustable:0000000000000000 lv_arc_get_adjustable
  D:\Temp\ccOOHxmt.s:5467   .text.lv_arc_get_adjustable:0000000000000028 $d
  D:\Temp\ccOOHxmt.s:5472   .bss.ancestor_design:0000000000000000 $d
  D:\Temp\ccOOHxmt.s:5476   .bss.ancestor_design:0000000000000000 ancestor_design
  D:\Temp\ccOOHxmt.s:5479   .bss.ancestor_signal:0000000000000000 $d
  D:\Temp\ccOOHxmt.s:5483   .bss.ancestor_signal:0000000000000000 ancestor_signal
  D:\Temp\ccOOHxmt.s:5486   .rodata.lv_arc_create.str1.4:0000000000000000 $d
  D:\Temp\ccOOHxmt.s:5490   .rodata.lv_arc_get_style.str1.4:0000000000000000 $d
  D:\Temp\ccOOHxmt.s:5494   .rodata.lv_arc_signal.str1.4:0000000000000000 $d

UNDEFINED SYMBOLS
lv_debug_check_null
lv_debug_log_error
lv_obj_get_ext_attr
_lv_obj_get_style_int
lv_obj_get_width
lv_obj_get_height
_lv_trigo_sin
lv_draw_rect_dsc_init
lv_obj_init_draw_rect_dsc
lv_draw_rect
lv_draw_line_dsc_init
lv_obj_init_draw_line_dsc
lv_draw_arc
lv_obj_is_visible
lv_obj_invalidate
lv_obj_get_draw_rect_ext_pad_size
ARM GAS  D:\Temp\ccOOHxmt.s 			page 154


lv_obj_invalidate_area
_lv_map
lv_obj_create
lv_obj_allocate_ext_attr
lv_tick_get
lv_style_list_init
lv_obj_set_size
lv_obj_set_signal_cb
lv_obj_set_design_cb
lv_style_list_copy
lv_obj_refresh_style
lv_obj_del
lv_obj_get_signal_cb
lv_obj_get_design_cb
lv_obj_set_click
lv_obj_add_protect
lv_obj_set_ext_click_area
lv_theme_apply
lv_obj_clean_style_list
lv_obj_handle_get_type_signal
lv_indev_get_act
lv_indev_get_type
lv_indev_get_point
_lv_atan2
lv_tick_elaps
lv_event_send
lv_obj_get_group
lv_group_get_editing
lv_group_set_editing
