ARM GAS  D:\Temp\ccOOHxmt.s 			page 1


   1              		.cpu cortex-m4
   2              		.eabi_attribute 27, 1
   3              		.eabi_attribute 28, 1
   4              		.eabi_attribute 20, 1
   5              		.eabi_attribute 21, 1
   6              		.eabi_attribute 23, 3
   7              		.eabi_attribute 24, 1
   8              		.eabi_attribute 25, 1
   9              		.eabi_attribute 26, 1
  10              		.eabi_attribute 30, 1
  11              		.eabi_attribute 34, 1
  12              		.eabi_attribute 18, 4
  13              		.file	"lv_arc.c"
  14              		.text
  15              	.Ltext0:
  16              		.cfi_sections	.debug_frame
  17              		.section	.text.lv_arc_get_style,"ax",%progbits
  18              		.align	1
  19              		.arch armv7e-m
  20              		.syntax unified
  21              		.thumb
  22              		.thumb_func
  23              		.fpu fpv4-sp-d16
  25              	lv_arc_get_style:
  26              	.LVL0:
  27              	.LFB483:
  28              		.file 1 "lvgl/src/lv_widgets/lv_arc.c"
   1:lvgl/src/lv_widgets/lv_arc.c **** /**
   2:lvgl/src/lv_widgets/lv_arc.c ****  * @file lv_arc.c
   3:lvgl/src/lv_widgets/lv_arc.c ****  *
   4:lvgl/src/lv_widgets/lv_arc.c ****  */
   5:lvgl/src/lv_widgets/lv_arc.c **** 
   6:lvgl/src/lv_widgets/lv_arc.c **** /*********************
   7:lvgl/src/lv_widgets/lv_arc.c ****  *      INCLUDES
   8:lvgl/src/lv_widgets/lv_arc.c ****  *********************/
   9:lvgl/src/lv_widgets/lv_arc.c **** #include "lv_arc.h"
  10:lvgl/src/lv_widgets/lv_arc.c **** #if LV_USE_ARC != 0
  11:lvgl/src/lv_widgets/lv_arc.c **** 
  12:lvgl/src/lv_widgets/lv_arc.c **** #include "../lv_core/lv_group.h"
  13:lvgl/src/lv_widgets/lv_arc.c **** #include "../lv_core/lv_indev.h"
  14:lvgl/src/lv_widgets/lv_arc.c **** #include "../lv_misc/lv_debug.h"
  15:lvgl/src/lv_widgets/lv_arc.c **** #include "../lv_misc/lv_math.h"
  16:lvgl/src/lv_widgets/lv_arc.c **** #include "../lv_draw/lv_draw_arc.h"
  17:lvgl/src/lv_widgets/lv_arc.c **** #include "../lv_themes/lv_theme.h"
  18:lvgl/src/lv_widgets/lv_arc.c **** 
  19:lvgl/src/lv_widgets/lv_arc.c **** /*********************
  20:lvgl/src/lv_widgets/lv_arc.c ****  *      DEFINES
  21:lvgl/src/lv_widgets/lv_arc.c ****  *********************/
  22:lvgl/src/lv_widgets/lv_arc.c **** #define LV_OBJX_NAME "lv_arc"
  23:lvgl/src/lv_widgets/lv_arc.c **** 
  24:lvgl/src/lv_widgets/lv_arc.c **** /**********************
  25:lvgl/src/lv_widgets/lv_arc.c ****  *      TYPEDEFS
  26:lvgl/src/lv_widgets/lv_arc.c ****  **********************/
  27:lvgl/src/lv_widgets/lv_arc.c **** 
  28:lvgl/src/lv_widgets/lv_arc.c **** /**********************
  29:lvgl/src/lv_widgets/lv_arc.c ****  *  STATIC PROTOTYPES
  30:lvgl/src/lv_widgets/lv_arc.c ****  **********************/
ARM GAS  D:\Temp\ccOOHxmt.s 			page 2


  31:lvgl/src/lv_widgets/lv_arc.c **** static lv_design_res_t lv_arc_design(lv_obj_t * arc, const lv_area_t * clip_area, lv_design_mode_t 
  32:lvgl/src/lv_widgets/lv_arc.c **** static lv_res_t lv_arc_signal(lv_obj_t * arc, lv_signal_t sign, void * param);
  33:lvgl/src/lv_widgets/lv_arc.c **** static lv_style_list_t * lv_arc_get_style(lv_obj_t * arc, uint8_t part);
  34:lvgl/src/lv_widgets/lv_arc.c **** static void inv_arc_area(lv_obj_t * arc, uint16_t start_angle, uint16_t end_angle, lv_arc_part_t pa
  35:lvgl/src/lv_widgets/lv_arc.c **** static void get_center(lv_obj_t * arc, lv_point_t * center, lv_coord_t * arc_r);
  36:lvgl/src/lv_widgets/lv_arc.c **** static void get_knob_area(lv_obj_t * arc, const lv_point_t * center, lv_coord_t r, lv_area_t * knob
  37:lvgl/src/lv_widgets/lv_arc.c **** static void value_update(lv_obj_t * arc);
  38:lvgl/src/lv_widgets/lv_arc.c **** 
  39:lvgl/src/lv_widgets/lv_arc.c **** /**********************
  40:lvgl/src/lv_widgets/lv_arc.c ****  *  STATIC VARIABLES
  41:lvgl/src/lv_widgets/lv_arc.c ****  **********************/
  42:lvgl/src/lv_widgets/lv_arc.c **** static lv_signal_cb_t ancestor_signal;
  43:lvgl/src/lv_widgets/lv_arc.c **** static lv_design_cb_t ancestor_design;
  44:lvgl/src/lv_widgets/lv_arc.c **** 
  45:lvgl/src/lv_widgets/lv_arc.c **** /**********************
  46:lvgl/src/lv_widgets/lv_arc.c ****  *      MACROS
  47:lvgl/src/lv_widgets/lv_arc.c ****  **********************/
  48:lvgl/src/lv_widgets/lv_arc.c **** 
  49:lvgl/src/lv_widgets/lv_arc.c **** /**********************
  50:lvgl/src/lv_widgets/lv_arc.c ****  *   GLOBAL FUNCTIONS
  51:lvgl/src/lv_widgets/lv_arc.c ****  **********************/
  52:lvgl/src/lv_widgets/lv_arc.c **** 
  53:lvgl/src/lv_widgets/lv_arc.c **** /**
  54:lvgl/src/lv_widgets/lv_arc.c ****  * Create a arc object
  55:lvgl/src/lv_widgets/lv_arc.c ****  * @param par pointer to an object, it will be the parent of the new arc
  56:lvgl/src/lv_widgets/lv_arc.c ****  * @param copy pointer to a arc object, if not NULL then the new object will be copied from it
  57:lvgl/src/lv_widgets/lv_arc.c ****  * @return pointer to the created arc
  58:lvgl/src/lv_widgets/lv_arc.c ****  */
  59:lvgl/src/lv_widgets/lv_arc.c **** lv_obj_t * lv_arc_create(lv_obj_t * par, const lv_obj_t * copy)
  60:lvgl/src/lv_widgets/lv_arc.c **** {
  61:lvgl/src/lv_widgets/lv_arc.c **** 
  62:lvgl/src/lv_widgets/lv_arc.c ****     LV_LOG_TRACE("arc create started");
  63:lvgl/src/lv_widgets/lv_arc.c **** 
  64:lvgl/src/lv_widgets/lv_arc.c ****     /*Create the ancestor of arc*/
  65:lvgl/src/lv_widgets/lv_arc.c ****     lv_obj_t * arc = lv_obj_create(par, copy);
  66:lvgl/src/lv_widgets/lv_arc.c ****     LV_ASSERT_MEM(arc);
  67:lvgl/src/lv_widgets/lv_arc.c ****     if(arc == NULL) return NULL;
  68:lvgl/src/lv_widgets/lv_arc.c **** 
  69:lvgl/src/lv_widgets/lv_arc.c ****     /*Allocate the arc type specific extended data*/
  70:lvgl/src/lv_widgets/lv_arc.c ****     lv_arc_ext_t * ext = lv_obj_allocate_ext_attr(arc, sizeof(lv_arc_ext_t));
  71:lvgl/src/lv_widgets/lv_arc.c ****     LV_ASSERT_MEM(ext);
  72:lvgl/src/lv_widgets/lv_arc.c ****     if(ext == NULL) {
  73:lvgl/src/lv_widgets/lv_arc.c ****         lv_obj_del(arc);
  74:lvgl/src/lv_widgets/lv_arc.c ****         return NULL;
  75:lvgl/src/lv_widgets/lv_arc.c ****     }
  76:lvgl/src/lv_widgets/lv_arc.c **** 
  77:lvgl/src/lv_widgets/lv_arc.c ****     if(ancestor_signal == NULL) ancestor_signal = lv_obj_get_signal_cb(arc);
  78:lvgl/src/lv_widgets/lv_arc.c ****     if(ancestor_design == NULL) ancestor_design = lv_obj_get_design_cb(arc);
  79:lvgl/src/lv_widgets/lv_arc.c **** 
  80:lvgl/src/lv_widgets/lv_arc.c ****     /*Initialize the allocated 'ext' */
  81:lvgl/src/lv_widgets/lv_arc.c ****     ext->rotation_angle = 0;
  82:lvgl/src/lv_widgets/lv_arc.c ****     ext->bg_angle_start = 135;
  83:lvgl/src/lv_widgets/lv_arc.c ****     ext->bg_angle_end   = 45;
  84:lvgl/src/lv_widgets/lv_arc.c ****     ext->arc_angle_start = 135;
  85:lvgl/src/lv_widgets/lv_arc.c ****     ext->arc_angle_end   = 270;
  86:lvgl/src/lv_widgets/lv_arc.c ****     ext->type = LV_ARC_TYPE_NORMAL;
  87:lvgl/src/lv_widgets/lv_arc.c ****     ext->cur_value = -1;
ARM GAS  D:\Temp\ccOOHxmt.s 			page 3


  88:lvgl/src/lv_widgets/lv_arc.c ****     ext->min_close = 1;
  89:lvgl/src/lv_widgets/lv_arc.c ****     ext->min_value = 0;
  90:lvgl/src/lv_widgets/lv_arc.c ****     ext->max_value = 100;
  91:lvgl/src/lv_widgets/lv_arc.c ****     ext->dragging = false;
  92:lvgl/src/lv_widgets/lv_arc.c ****     ext->adjustable = false;
  93:lvgl/src/lv_widgets/lv_arc.c ****     ext->chg_rate = 540;
  94:lvgl/src/lv_widgets/lv_arc.c ****     ext->last_tick = lv_tick_get();
  95:lvgl/src/lv_widgets/lv_arc.c ****     ext->last_angle = ext->arc_angle_end;
  96:lvgl/src/lv_widgets/lv_arc.c ****     lv_style_list_init(&ext->style_arc);
  97:lvgl/src/lv_widgets/lv_arc.c ****     lv_style_list_init(&ext->style_knob);
  98:lvgl/src/lv_widgets/lv_arc.c **** 
  99:lvgl/src/lv_widgets/lv_arc.c ****     lv_obj_set_size(arc, LV_DPI, LV_DPI);
 100:lvgl/src/lv_widgets/lv_arc.c **** 
 101:lvgl/src/lv_widgets/lv_arc.c ****     /*The signal and design functions are not copied so set them here*/
 102:lvgl/src/lv_widgets/lv_arc.c ****     lv_obj_set_signal_cb(arc, lv_arc_signal);
 103:lvgl/src/lv_widgets/lv_arc.c ****     lv_obj_set_design_cb(arc, lv_arc_design);
 104:lvgl/src/lv_widgets/lv_arc.c **** 
 105:lvgl/src/lv_widgets/lv_arc.c ****     /*Init the new arc arc*/
 106:lvgl/src/lv_widgets/lv_arc.c ****     if(copy == NULL) {
 107:lvgl/src/lv_widgets/lv_arc.c ****         lv_obj_set_click(arc, true);
 108:lvgl/src/lv_widgets/lv_arc.c ****         lv_obj_add_protect(arc, LV_PROTECT_PRESS_LOST);
 109:lvgl/src/lv_widgets/lv_arc.c ****         lv_obj_set_ext_click_area(arc, LV_DPI / 10, LV_DPI / 10, LV_DPI / 10, LV_DPI / 10);
 110:lvgl/src/lv_widgets/lv_arc.c ****         lv_arc_set_value(arc, ext->min_value);
 111:lvgl/src/lv_widgets/lv_arc.c ****         lv_theme_apply(arc, LV_THEME_ARC);
 112:lvgl/src/lv_widgets/lv_arc.c ****     }
 113:lvgl/src/lv_widgets/lv_arc.c ****     /*Copy an existing arc*/
 114:lvgl/src/lv_widgets/lv_arc.c ****     else {
 115:lvgl/src/lv_widgets/lv_arc.c ****         lv_arc_ext_t * copy_ext = lv_obj_get_ext_attr(copy);
 116:lvgl/src/lv_widgets/lv_arc.c ****         ext->arc_angle_start = copy_ext->arc_angle_start;
 117:lvgl/src/lv_widgets/lv_arc.c ****         ext->arc_angle_end   = copy_ext->arc_angle_end;
 118:lvgl/src/lv_widgets/lv_arc.c ****         ext->bg_angle_start  = copy_ext->bg_angle_start;
 119:lvgl/src/lv_widgets/lv_arc.c ****         ext->bg_angle_end    = copy_ext->bg_angle_end;
 120:lvgl/src/lv_widgets/lv_arc.c ****         ext->type = copy_ext->type;
 121:lvgl/src/lv_widgets/lv_arc.c ****         ext->cur_value = copy_ext->cur_value;
 122:lvgl/src/lv_widgets/lv_arc.c ****         ext->min_value = copy_ext->min_value;
 123:lvgl/src/lv_widgets/lv_arc.c ****         ext->max_value = copy_ext->max_value;
 124:lvgl/src/lv_widgets/lv_arc.c ****         ext->dragging = copy_ext->dragging;
 125:lvgl/src/lv_widgets/lv_arc.c ****         ext->adjustable = copy_ext->adjustable;
 126:lvgl/src/lv_widgets/lv_arc.c ****         ext->chg_rate = copy_ext->chg_rate;
 127:lvgl/src/lv_widgets/lv_arc.c ****         ext->last_tick = copy_ext->last_tick;
 128:lvgl/src/lv_widgets/lv_arc.c ****         ext->last_angle = copy_ext->last_angle;
 129:lvgl/src/lv_widgets/lv_arc.c ****         lv_style_list_copy(&ext->style_knob, &copy_ext->style_knob);
 130:lvgl/src/lv_widgets/lv_arc.c ****         lv_style_list_copy(&ext->style_arc, &copy_ext->style_arc);
 131:lvgl/src/lv_widgets/lv_arc.c **** 
 132:lvgl/src/lv_widgets/lv_arc.c ****         /*Refresh the style with new signal function*/
 133:lvgl/src/lv_widgets/lv_arc.c ****         lv_obj_refresh_style(arc, LV_OBJ_PART_ALL, LV_STYLE_PROP_ALL);
 134:lvgl/src/lv_widgets/lv_arc.c ****     }
 135:lvgl/src/lv_widgets/lv_arc.c **** 
 136:lvgl/src/lv_widgets/lv_arc.c ****     LV_LOG_INFO("arc created");
 137:lvgl/src/lv_widgets/lv_arc.c **** 
 138:lvgl/src/lv_widgets/lv_arc.c ****     return arc;
 139:lvgl/src/lv_widgets/lv_arc.c **** }
 140:lvgl/src/lv_widgets/lv_arc.c **** 
 141:lvgl/src/lv_widgets/lv_arc.c **** /*======================
 142:lvgl/src/lv_widgets/lv_arc.c ****  * Add/remove functions
 143:lvgl/src/lv_widgets/lv_arc.c ****  *=====================*/
 144:lvgl/src/lv_widgets/lv_arc.c **** 
ARM GAS  D:\Temp\ccOOHxmt.s 			page 4


 145:lvgl/src/lv_widgets/lv_arc.c **** /*
 146:lvgl/src/lv_widgets/lv_arc.c ****  * New object specific "add" or "remove" functions come here
 147:lvgl/src/lv_widgets/lv_arc.c ****  */
 148:lvgl/src/lv_widgets/lv_arc.c **** 
 149:lvgl/src/lv_widgets/lv_arc.c **** /*=====================
 150:lvgl/src/lv_widgets/lv_arc.c ****  * Setter functions
 151:lvgl/src/lv_widgets/lv_arc.c ****  *====================*/
 152:lvgl/src/lv_widgets/lv_arc.c **** 
 153:lvgl/src/lv_widgets/lv_arc.c **** /**
 154:lvgl/src/lv_widgets/lv_arc.c ****  * Set the start angle of an arc. 0 deg: right, 90 bottom, etc.
 155:lvgl/src/lv_widgets/lv_arc.c ****  * @param arc pointer to an arc object
 156:lvgl/src/lv_widgets/lv_arc.c ****  * @param start the start angle [0..360]
 157:lvgl/src/lv_widgets/lv_arc.c ****  */
 158:lvgl/src/lv_widgets/lv_arc.c **** void lv_arc_set_start_angle(lv_obj_t * arc, uint16_t start)
 159:lvgl/src/lv_widgets/lv_arc.c **** {
 160:lvgl/src/lv_widgets/lv_arc.c ****     LV_ASSERT_OBJ(arc, LV_OBJX_NAME);
 161:lvgl/src/lv_widgets/lv_arc.c **** 
 162:lvgl/src/lv_widgets/lv_arc.c ****     lv_arc_ext_t * ext = lv_obj_get_ext_attr(arc);
 163:lvgl/src/lv_widgets/lv_arc.c **** 
 164:lvgl/src/lv_widgets/lv_arc.c ****     if(start > 360) start -= 360;
 165:lvgl/src/lv_widgets/lv_arc.c **** 
 166:lvgl/src/lv_widgets/lv_arc.c ****     /*Too large move, the whole arc need to be invalidated anyway*/
 167:lvgl/src/lv_widgets/lv_arc.c ****     if(LV_MATH_ABS(start - ext->arc_angle_start) >= 180) {
 168:lvgl/src/lv_widgets/lv_arc.c ****         lv_obj_invalidate(arc);
 169:lvgl/src/lv_widgets/lv_arc.c ****     }
 170:lvgl/src/lv_widgets/lv_arc.c ****     /*Only a smaller incremental move*/
 171:lvgl/src/lv_widgets/lv_arc.c ****     else if(ext->arc_angle_start > ext->arc_angle_end && start > ext->arc_angle_end) {
 172:lvgl/src/lv_widgets/lv_arc.c ****         inv_arc_area(arc, LV_MATH_MIN(ext->arc_angle_start, start), LV_MATH_MAX(ext->arc_angle_star
 173:lvgl/src/lv_widgets/lv_arc.c ****                      LV_ARC_PART_INDIC);
 174:lvgl/src/lv_widgets/lv_arc.c ****     }
 175:lvgl/src/lv_widgets/lv_arc.c ****     /*Only a smaller incremental move*/
 176:lvgl/src/lv_widgets/lv_arc.c ****     else if(ext->arc_angle_start < ext->arc_angle_end && start < ext->arc_angle_end) {
 177:lvgl/src/lv_widgets/lv_arc.c ****         inv_arc_area(arc, LV_MATH_MIN(ext->arc_angle_start, start), LV_MATH_MAX(ext->arc_angle_star
 178:lvgl/src/lv_widgets/lv_arc.c ****                      LV_ARC_PART_INDIC);
 179:lvgl/src/lv_widgets/lv_arc.c ****     }
 180:lvgl/src/lv_widgets/lv_arc.c ****     /*Crossing the start angle makes the whole arc change*/
 181:lvgl/src/lv_widgets/lv_arc.c ****     else {
 182:lvgl/src/lv_widgets/lv_arc.c ****         lv_obj_invalidate(arc);
 183:lvgl/src/lv_widgets/lv_arc.c ****     }
 184:lvgl/src/lv_widgets/lv_arc.c **** 
 185:lvgl/src/lv_widgets/lv_arc.c ****     ext->arc_angle_start = start;
 186:lvgl/src/lv_widgets/lv_arc.c **** }
 187:lvgl/src/lv_widgets/lv_arc.c **** 
 188:lvgl/src/lv_widgets/lv_arc.c **** /**
 189:lvgl/src/lv_widgets/lv_arc.c ****  * Set the start angle of an arc. 0 deg: right, 90 bottom, etc.
 190:lvgl/src/lv_widgets/lv_arc.c ****  * @param arc pointer to an arc object
 191:lvgl/src/lv_widgets/lv_arc.c ****  * @param start the start angle [0..360]
 192:lvgl/src/lv_widgets/lv_arc.c ****  */
 193:lvgl/src/lv_widgets/lv_arc.c **** void lv_arc_set_end_angle(lv_obj_t * arc, uint16_t end)
 194:lvgl/src/lv_widgets/lv_arc.c **** {
 195:lvgl/src/lv_widgets/lv_arc.c ****     LV_ASSERT_OBJ(arc, LV_OBJX_NAME);
 196:lvgl/src/lv_widgets/lv_arc.c **** 
 197:lvgl/src/lv_widgets/lv_arc.c ****     lv_arc_ext_t * ext = lv_obj_get_ext_attr(arc);
 198:lvgl/src/lv_widgets/lv_arc.c **** 
 199:lvgl/src/lv_widgets/lv_arc.c ****     if(end > (ext->arc_angle_start + 360)) end = ext->arc_angle_start + 360;
 200:lvgl/src/lv_widgets/lv_arc.c **** 
 201:lvgl/src/lv_widgets/lv_arc.c ****     /*Too large move, the whole arc need to be invalidated anyway*/
ARM GAS  D:\Temp\ccOOHxmt.s 			page 5


 202:lvgl/src/lv_widgets/lv_arc.c ****     if(LV_MATH_ABS(end - ext->arc_angle_end) >= 180) {
 203:lvgl/src/lv_widgets/lv_arc.c ****         lv_obj_invalidate(arc);
 204:lvgl/src/lv_widgets/lv_arc.c ****     }
 205:lvgl/src/lv_widgets/lv_arc.c ****     /*Only a smaller incremental move*/
 206:lvgl/src/lv_widgets/lv_arc.c ****     else if(ext->arc_angle_end > ext->arc_angle_start && end > ext->arc_angle_start) {
 207:lvgl/src/lv_widgets/lv_arc.c ****         inv_arc_area(arc, LV_MATH_MIN(ext->arc_angle_end, end), LV_MATH_MAX(ext->arc_angle_end, end
 208:lvgl/src/lv_widgets/lv_arc.c ****     }
 209:lvgl/src/lv_widgets/lv_arc.c ****     /*Only a smaller incremental move*/
 210:lvgl/src/lv_widgets/lv_arc.c ****     else if(ext->arc_angle_end < ext->arc_angle_start && end < ext->arc_angle_start) {
 211:lvgl/src/lv_widgets/lv_arc.c ****         inv_arc_area(arc, LV_MATH_MIN(ext->arc_angle_end, end), LV_MATH_MAX(ext->arc_angle_end, end
 212:lvgl/src/lv_widgets/lv_arc.c ****     }
 213:lvgl/src/lv_widgets/lv_arc.c ****     /*Crossing the end angle makes the whole arc change*/
 214:lvgl/src/lv_widgets/lv_arc.c ****     else {
 215:lvgl/src/lv_widgets/lv_arc.c ****         lv_obj_invalidate(arc);
 216:lvgl/src/lv_widgets/lv_arc.c ****     }
 217:lvgl/src/lv_widgets/lv_arc.c **** 
 218:lvgl/src/lv_widgets/lv_arc.c ****     ext->arc_angle_end = end;
 219:lvgl/src/lv_widgets/lv_arc.c **** }
 220:lvgl/src/lv_widgets/lv_arc.c **** 
 221:lvgl/src/lv_widgets/lv_arc.c **** /**
 222:lvgl/src/lv_widgets/lv_arc.c ****  * Set the start and end angles
 223:lvgl/src/lv_widgets/lv_arc.c ****  * @param arc pointer to an arc object
 224:lvgl/src/lv_widgets/lv_arc.c ****  * @param start the start angle
 225:lvgl/src/lv_widgets/lv_arc.c ****  * @param end the end angle
 226:lvgl/src/lv_widgets/lv_arc.c ****  */
 227:lvgl/src/lv_widgets/lv_arc.c **** void lv_arc_set_angles(lv_obj_t * arc, uint16_t start, uint16_t end)
 228:lvgl/src/lv_widgets/lv_arc.c **** {
 229:lvgl/src/lv_widgets/lv_arc.c ****     LV_ASSERT_OBJ(arc, LV_OBJX_NAME);
 230:lvgl/src/lv_widgets/lv_arc.c **** 
 231:lvgl/src/lv_widgets/lv_arc.c ****     lv_arc_ext_t * ext = lv_obj_get_ext_attr(arc);
 232:lvgl/src/lv_widgets/lv_arc.c **** 
 233:lvgl/src/lv_widgets/lv_arc.c ****     if(start > 360) start -= 360;
 234:lvgl/src/lv_widgets/lv_arc.c ****     if(end > (start + 360)) end = start + 360;
 235:lvgl/src/lv_widgets/lv_arc.c **** 
 236:lvgl/src/lv_widgets/lv_arc.c ****     inv_arc_area(arc, ext->arc_angle_start, ext->arc_angle_end, LV_ARC_PART_INDIC);
 237:lvgl/src/lv_widgets/lv_arc.c **** 
 238:lvgl/src/lv_widgets/lv_arc.c ****     ext->arc_angle_start = start;
 239:lvgl/src/lv_widgets/lv_arc.c ****     ext->arc_angle_end = end;
 240:lvgl/src/lv_widgets/lv_arc.c **** 
 241:lvgl/src/lv_widgets/lv_arc.c ****     inv_arc_area(arc, ext->arc_angle_start, ext->arc_angle_end, LV_ARC_PART_INDIC);
 242:lvgl/src/lv_widgets/lv_arc.c **** }
 243:lvgl/src/lv_widgets/lv_arc.c **** 
 244:lvgl/src/lv_widgets/lv_arc.c **** /**
 245:lvgl/src/lv_widgets/lv_arc.c ****  * Set the start angle of an arc background. 0 deg: right, 90 bottom, etc.
 246:lvgl/src/lv_widgets/lv_arc.c ****  * @param arc pointer to an arc object
 247:lvgl/src/lv_widgets/lv_arc.c ****  * @param start the start angle
 248:lvgl/src/lv_widgets/lv_arc.c ****  */
 249:lvgl/src/lv_widgets/lv_arc.c **** void lv_arc_set_bg_start_angle(lv_obj_t * arc, uint16_t start)
 250:lvgl/src/lv_widgets/lv_arc.c **** {
 251:lvgl/src/lv_widgets/lv_arc.c ****     LV_ASSERT_OBJ(arc, LV_OBJX_NAME);
 252:lvgl/src/lv_widgets/lv_arc.c **** 
 253:lvgl/src/lv_widgets/lv_arc.c ****     lv_arc_ext_t * ext = lv_obj_get_ext_attr(arc);
 254:lvgl/src/lv_widgets/lv_arc.c **** 
 255:lvgl/src/lv_widgets/lv_arc.c ****     if(start > 360) start -= 360;
 256:lvgl/src/lv_widgets/lv_arc.c **** 
 257:lvgl/src/lv_widgets/lv_arc.c ****     /*Too large move, the whole arc need to be invalidated anyway*/
 258:lvgl/src/lv_widgets/lv_arc.c ****     if(LV_MATH_ABS(start - ext->bg_angle_start) >= 180) {
ARM GAS  D:\Temp\ccOOHxmt.s 			page 6


 259:lvgl/src/lv_widgets/lv_arc.c ****         lv_obj_invalidate(arc);
 260:lvgl/src/lv_widgets/lv_arc.c ****     }
 261:lvgl/src/lv_widgets/lv_arc.c ****     /*Only a smaller incremental move*/
 262:lvgl/src/lv_widgets/lv_arc.c ****     else if(ext->bg_angle_start > ext->bg_angle_end && start > ext->bg_angle_end) {
 263:lvgl/src/lv_widgets/lv_arc.c ****         inv_arc_area(arc, LV_MATH_MIN(ext->bg_angle_start, start), LV_MATH_MAX(ext->bg_angle_start,
 264:lvgl/src/lv_widgets/lv_arc.c ****     }
 265:lvgl/src/lv_widgets/lv_arc.c ****     /*Only a smaller incremental move*/
 266:lvgl/src/lv_widgets/lv_arc.c ****     else if(ext->bg_angle_start < ext->bg_angle_end && start < ext->bg_angle_end) {
 267:lvgl/src/lv_widgets/lv_arc.c ****         inv_arc_area(arc, LV_MATH_MIN(ext->bg_angle_start, start), LV_MATH_MAX(ext->bg_angle_start,
 268:lvgl/src/lv_widgets/lv_arc.c ****     }
 269:lvgl/src/lv_widgets/lv_arc.c ****     /*Crossing the start angle makes the whole arc change*/
 270:lvgl/src/lv_widgets/lv_arc.c ****     else {
 271:lvgl/src/lv_widgets/lv_arc.c ****         lv_obj_invalidate(arc);
 272:lvgl/src/lv_widgets/lv_arc.c ****     }
 273:lvgl/src/lv_widgets/lv_arc.c **** 
 274:lvgl/src/lv_widgets/lv_arc.c ****     ext->bg_angle_start = start;
 275:lvgl/src/lv_widgets/lv_arc.c **** 
 276:lvgl/src/lv_widgets/lv_arc.c ****     value_update(arc);
 277:lvgl/src/lv_widgets/lv_arc.c **** }
 278:lvgl/src/lv_widgets/lv_arc.c **** 
 279:lvgl/src/lv_widgets/lv_arc.c **** /**
 280:lvgl/src/lv_widgets/lv_arc.c ****  * Set the start angle of an arc background. 0 deg: right, 90 bottom etc.
 281:lvgl/src/lv_widgets/lv_arc.c ****  * @param arc pointer to an arc object
 282:lvgl/src/lv_widgets/lv_arc.c ****  * @param end the end angle
 283:lvgl/src/lv_widgets/lv_arc.c ****  */
 284:lvgl/src/lv_widgets/lv_arc.c **** void lv_arc_set_bg_end_angle(lv_obj_t * arc, uint16_t end)
 285:lvgl/src/lv_widgets/lv_arc.c **** {
 286:lvgl/src/lv_widgets/lv_arc.c ****     LV_ASSERT_OBJ(arc, LV_OBJX_NAME);
 287:lvgl/src/lv_widgets/lv_arc.c **** 
 288:lvgl/src/lv_widgets/lv_arc.c ****     lv_arc_ext_t * ext = lv_obj_get_ext_attr(arc);
 289:lvgl/src/lv_widgets/lv_arc.c **** 
 290:lvgl/src/lv_widgets/lv_arc.c ****     if(end > (ext->bg_angle_start + 360)) end = ext->bg_angle_start + 360;
 291:lvgl/src/lv_widgets/lv_arc.c **** 
 292:lvgl/src/lv_widgets/lv_arc.c ****     /*Too large move, the whole arc need to be invalidated anyway*/
 293:lvgl/src/lv_widgets/lv_arc.c ****     if(LV_MATH_ABS(end - ext->bg_angle_end) >= 180) {
 294:lvgl/src/lv_widgets/lv_arc.c ****         lv_obj_invalidate(arc);
 295:lvgl/src/lv_widgets/lv_arc.c ****     }
 296:lvgl/src/lv_widgets/lv_arc.c ****     /*Only a smaller incremental move*/
 297:lvgl/src/lv_widgets/lv_arc.c ****     else if(ext->bg_angle_end > ext->bg_angle_start && end > ext->bg_angle_start) {
 298:lvgl/src/lv_widgets/lv_arc.c ****         inv_arc_area(arc, LV_MATH_MIN(ext->bg_angle_end, end), LV_MATH_MAX(ext->bg_angle_end, end),
 299:lvgl/src/lv_widgets/lv_arc.c ****     }
 300:lvgl/src/lv_widgets/lv_arc.c ****     /*Only a smaller incremental move*/
 301:lvgl/src/lv_widgets/lv_arc.c ****     else if(ext->bg_angle_end < ext->bg_angle_start && end < ext->bg_angle_start) {
 302:lvgl/src/lv_widgets/lv_arc.c ****         inv_arc_area(arc, LV_MATH_MIN(ext->bg_angle_end, end), LV_MATH_MAX(ext->bg_angle_end, end),
 303:lvgl/src/lv_widgets/lv_arc.c ****     }
 304:lvgl/src/lv_widgets/lv_arc.c ****     /*Crossing the end angle makes the whole arc change*/
 305:lvgl/src/lv_widgets/lv_arc.c ****     else {
 306:lvgl/src/lv_widgets/lv_arc.c ****         lv_obj_invalidate(arc);
 307:lvgl/src/lv_widgets/lv_arc.c ****     }
 308:lvgl/src/lv_widgets/lv_arc.c **** 
 309:lvgl/src/lv_widgets/lv_arc.c ****     value_update(arc);
 310:lvgl/src/lv_widgets/lv_arc.c **** 
 311:lvgl/src/lv_widgets/lv_arc.c ****     ext->bg_angle_end = end;
 312:lvgl/src/lv_widgets/lv_arc.c **** }
 313:lvgl/src/lv_widgets/lv_arc.c **** 
 314:lvgl/src/lv_widgets/lv_arc.c **** /**
 315:lvgl/src/lv_widgets/lv_arc.c ****  * Set the start and end angles of the arc background
ARM GAS  D:\Temp\ccOOHxmt.s 			page 7


 316:lvgl/src/lv_widgets/lv_arc.c ****  * @param arc pointer to an arc object
 317:lvgl/src/lv_widgets/lv_arc.c ****  * @param start the start angle
 318:lvgl/src/lv_widgets/lv_arc.c ****  * @param end the end angle
 319:lvgl/src/lv_widgets/lv_arc.c ****  */
 320:lvgl/src/lv_widgets/lv_arc.c **** void lv_arc_set_bg_angles(lv_obj_t * arc, uint16_t start, uint16_t end)
 321:lvgl/src/lv_widgets/lv_arc.c **** {
 322:lvgl/src/lv_widgets/lv_arc.c ****     LV_ASSERT_OBJ(arc, LV_OBJX_NAME);
 323:lvgl/src/lv_widgets/lv_arc.c **** 
 324:lvgl/src/lv_widgets/lv_arc.c ****     lv_arc_ext_t * ext = lv_obj_get_ext_attr(arc);
 325:lvgl/src/lv_widgets/lv_arc.c **** 
 326:lvgl/src/lv_widgets/lv_arc.c ****     if(start > 360) start -= 360;
 327:lvgl/src/lv_widgets/lv_arc.c ****     if(end > (start + 360)) end = start + 360;
 328:lvgl/src/lv_widgets/lv_arc.c **** 
 329:lvgl/src/lv_widgets/lv_arc.c ****     inv_arc_area(arc, ext->bg_angle_start, ext->bg_angle_end, LV_ARC_PART_BG);
 330:lvgl/src/lv_widgets/lv_arc.c **** 
 331:lvgl/src/lv_widgets/lv_arc.c ****     ext->bg_angle_start = start;
 332:lvgl/src/lv_widgets/lv_arc.c ****     ext->bg_angle_end = end;
 333:lvgl/src/lv_widgets/lv_arc.c **** 
 334:lvgl/src/lv_widgets/lv_arc.c ****     inv_arc_area(arc, ext->bg_angle_start, ext->bg_angle_end, LV_ARC_PART_BG);
 335:lvgl/src/lv_widgets/lv_arc.c **** 
 336:lvgl/src/lv_widgets/lv_arc.c ****     value_update(arc);
 337:lvgl/src/lv_widgets/lv_arc.c **** }
 338:lvgl/src/lv_widgets/lv_arc.c **** 
 339:lvgl/src/lv_widgets/lv_arc.c **** /**
 340:lvgl/src/lv_widgets/lv_arc.c ****  * Set the rotation for the whole arc
 341:lvgl/src/lv_widgets/lv_arc.c ****  * @param arc pointer to an arc object
 342:lvgl/src/lv_widgets/lv_arc.c ****  * @param rotation_angle rotation angle
 343:lvgl/src/lv_widgets/lv_arc.c ****  */
 344:lvgl/src/lv_widgets/lv_arc.c **** void lv_arc_set_rotation(lv_obj_t * arc, uint16_t rotation_angle)
 345:lvgl/src/lv_widgets/lv_arc.c **** {
 346:lvgl/src/lv_widgets/lv_arc.c ****     LV_ASSERT_OBJ(arc, LV_OBJX_NAME);
 347:lvgl/src/lv_widgets/lv_arc.c **** 
 348:lvgl/src/lv_widgets/lv_arc.c ****     lv_arc_ext_t * ext = lv_obj_get_ext_attr(arc);
 349:lvgl/src/lv_widgets/lv_arc.c **** 
 350:lvgl/src/lv_widgets/lv_arc.c ****     ext->rotation_angle = rotation_angle;
 351:lvgl/src/lv_widgets/lv_arc.c **** 
 352:lvgl/src/lv_widgets/lv_arc.c ****     lv_obj_invalidate(arc);
 353:lvgl/src/lv_widgets/lv_arc.c **** }
 354:lvgl/src/lv_widgets/lv_arc.c **** 
 355:lvgl/src/lv_widgets/lv_arc.c **** /**
 356:lvgl/src/lv_widgets/lv_arc.c ****  * Set the type of arc.
 357:lvgl/src/lv_widgets/lv_arc.c ****  * @param arc pointer to arc object
 358:lvgl/src/lv_widgets/lv_arc.c ****  * @param type arc type
 359:lvgl/src/lv_widgets/lv_arc.c ****  */
 360:lvgl/src/lv_widgets/lv_arc.c **** void lv_arc_set_type(lv_obj_t * arc, lv_arc_type_t type)
 361:lvgl/src/lv_widgets/lv_arc.c **** {
 362:lvgl/src/lv_widgets/lv_arc.c ****     LV_ASSERT_OBJ(arc, LV_OBJX_NAME);
 363:lvgl/src/lv_widgets/lv_arc.c **** 
 364:lvgl/src/lv_widgets/lv_arc.c ****     lv_arc_ext_t * ext = (lv_arc_ext_t *)lv_obj_get_ext_attr(arc);
 365:lvgl/src/lv_widgets/lv_arc.c ****     int16_t val = ext->cur_value;
 366:lvgl/src/lv_widgets/lv_arc.c **** 
 367:lvgl/src/lv_widgets/lv_arc.c ****     ext->type = type;
 368:lvgl/src/lv_widgets/lv_arc.c ****     ext->cur_value = -1; /** Force set_value handling*/
 369:lvgl/src/lv_widgets/lv_arc.c **** 
 370:lvgl/src/lv_widgets/lv_arc.c ****     int16_t bg_midpoint, bg_end = ext->bg_angle_end;
 371:lvgl/src/lv_widgets/lv_arc.c ****     if(ext->bg_angle_end < ext->bg_angle_start) bg_end = ext->bg_angle_end + 360;
 372:lvgl/src/lv_widgets/lv_arc.c **** 
ARM GAS  D:\Temp\ccOOHxmt.s 			page 8


 373:lvgl/src/lv_widgets/lv_arc.c ****     switch(ext->type) {
 374:lvgl/src/lv_widgets/lv_arc.c ****         case LV_ARC_TYPE_SYMMETRIC:
 375:lvgl/src/lv_widgets/lv_arc.c ****             bg_midpoint = (ext->bg_angle_start + bg_end) / 2;
 376:lvgl/src/lv_widgets/lv_arc.c ****             lv_arc_set_start_angle(arc, bg_midpoint);
 377:lvgl/src/lv_widgets/lv_arc.c ****             lv_arc_set_end_angle(arc, bg_midpoint);
 378:lvgl/src/lv_widgets/lv_arc.c ****             break;
 379:lvgl/src/lv_widgets/lv_arc.c ****         case LV_ARC_TYPE_REVERSE:
 380:lvgl/src/lv_widgets/lv_arc.c ****             lv_arc_set_end_angle(arc, ext->bg_angle_end);
 381:lvgl/src/lv_widgets/lv_arc.c ****             break;
 382:lvgl/src/lv_widgets/lv_arc.c ****         default: /** LV_ARC_TYPE_NORMAL*/
 383:lvgl/src/lv_widgets/lv_arc.c ****             lv_arc_set_start_angle(arc, ext->bg_angle_start);
 384:lvgl/src/lv_widgets/lv_arc.c ****     }
 385:lvgl/src/lv_widgets/lv_arc.c **** 
 386:lvgl/src/lv_widgets/lv_arc.c ****     lv_arc_set_value(arc, val);
 387:lvgl/src/lv_widgets/lv_arc.c **** }
 388:lvgl/src/lv_widgets/lv_arc.c **** 
 389:lvgl/src/lv_widgets/lv_arc.c **** /**
 390:lvgl/src/lv_widgets/lv_arc.c ****  * Set a new value on the arc
 391:lvgl/src/lv_widgets/lv_arc.c ****  * @param arc pointer to a arc object
 392:lvgl/src/lv_widgets/lv_arc.c ****  * @param value new value
 393:lvgl/src/lv_widgets/lv_arc.c ****  */
 394:lvgl/src/lv_widgets/lv_arc.c **** void lv_arc_set_value(lv_obj_t * arc, int16_t value)
 395:lvgl/src/lv_widgets/lv_arc.c **** {
 396:lvgl/src/lv_widgets/lv_arc.c ****     LV_ASSERT_OBJ(arc, LV_OBJX_NAME);
 397:lvgl/src/lv_widgets/lv_arc.c **** 
 398:lvgl/src/lv_widgets/lv_arc.c ****     lv_arc_ext_t * ext = (lv_arc_ext_t *)lv_obj_get_ext_attr(arc);
 399:lvgl/src/lv_widgets/lv_arc.c ****     if(ext->cur_value == value) return;
 400:lvgl/src/lv_widgets/lv_arc.c **** 
 401:lvgl/src/lv_widgets/lv_arc.c ****     int16_t new_value;
 402:lvgl/src/lv_widgets/lv_arc.c ****     new_value = value > ext->max_value ? ext->max_value : value;
 403:lvgl/src/lv_widgets/lv_arc.c ****     new_value = new_value < ext->min_value ? ext->min_value : new_value;
 404:lvgl/src/lv_widgets/lv_arc.c **** 
 405:lvgl/src/lv_widgets/lv_arc.c ****     if(ext->cur_value == new_value) return;
 406:lvgl/src/lv_widgets/lv_arc.c ****     ext->cur_value = new_value;
 407:lvgl/src/lv_widgets/lv_arc.c **** 
 408:lvgl/src/lv_widgets/lv_arc.c ****     value_update(arc);
 409:lvgl/src/lv_widgets/lv_arc.c **** }
 410:lvgl/src/lv_widgets/lv_arc.c **** 
 411:lvgl/src/lv_widgets/lv_arc.c **** /**
 412:lvgl/src/lv_widgets/lv_arc.c ****  * Set minimum and the maximum values of a arc
 413:lvgl/src/lv_widgets/lv_arc.c ****  * @param arc pointer to the arc object
 414:lvgl/src/lv_widgets/lv_arc.c ****  * @param min minimum value
 415:lvgl/src/lv_widgets/lv_arc.c ****  * @param max maximum value
 416:lvgl/src/lv_widgets/lv_arc.c ****  */
 417:lvgl/src/lv_widgets/lv_arc.c **** void lv_arc_set_range(lv_obj_t * arc, int16_t min, int16_t max)
 418:lvgl/src/lv_widgets/lv_arc.c **** {
 419:lvgl/src/lv_widgets/lv_arc.c ****     LV_ASSERT_OBJ(arc, LV_OBJX_NAME);
 420:lvgl/src/lv_widgets/lv_arc.c **** 
 421:lvgl/src/lv_widgets/lv_arc.c ****     lv_arc_ext_t * ext = (lv_arc_ext_t *)lv_obj_get_ext_attr(arc);
 422:lvgl/src/lv_widgets/lv_arc.c ****     if(ext->min_value == min && ext->max_value == max) return;
 423:lvgl/src/lv_widgets/lv_arc.c **** 
 424:lvgl/src/lv_widgets/lv_arc.c ****     ext->min_value = min;
 425:lvgl/src/lv_widgets/lv_arc.c ****     ext->max_value = max;
 426:lvgl/src/lv_widgets/lv_arc.c **** 
 427:lvgl/src/lv_widgets/lv_arc.c ****     if(ext->cur_value < min) {
 428:lvgl/src/lv_widgets/lv_arc.c ****         ext->cur_value = min;
 429:lvgl/src/lv_widgets/lv_arc.c ****     }
ARM GAS  D:\Temp\ccOOHxmt.s 			page 9


 430:lvgl/src/lv_widgets/lv_arc.c ****     if(ext->cur_value > max) {
 431:lvgl/src/lv_widgets/lv_arc.c ****         ext->cur_value = max;
 432:lvgl/src/lv_widgets/lv_arc.c ****     }
 433:lvgl/src/lv_widgets/lv_arc.c **** 
 434:lvgl/src/lv_widgets/lv_arc.c ****     value_update(arc); /* value has changed relative to the new range */
 435:lvgl/src/lv_widgets/lv_arc.c **** }
 436:lvgl/src/lv_widgets/lv_arc.c **** 
 437:lvgl/src/lv_widgets/lv_arc.c **** /**
 438:lvgl/src/lv_widgets/lv_arc.c ****  * Set the threshold of arc knob increments
 439:lvgl/src/lv_widgets/lv_arc.c ****  * position.
 440:lvgl/src/lv_widgets/lv_arc.c ****  * @param arc pointer to a arc object
 441:lvgl/src/lv_widgets/lv_arc.c ****  * @param threshold increment threshold
 442:lvgl/src/lv_widgets/lv_arc.c ****  */
 443:lvgl/src/lv_widgets/lv_arc.c **** void lv_arc_set_chg_rate(lv_obj_t * arc, uint16_t rate)
 444:lvgl/src/lv_widgets/lv_arc.c **** {
 445:lvgl/src/lv_widgets/lv_arc.c ****     LV_ASSERT_OBJ(arc, LV_OBJX_NAME);
 446:lvgl/src/lv_widgets/lv_arc.c **** 
 447:lvgl/src/lv_widgets/lv_arc.c ****     lv_arc_ext_t * ext = (lv_arc_ext_t *)lv_obj_get_ext_attr(arc);
 448:lvgl/src/lv_widgets/lv_arc.c ****     ext->chg_rate = rate;
 449:lvgl/src/lv_widgets/lv_arc.c **** }
 450:lvgl/src/lv_widgets/lv_arc.c **** 
 451:lvgl/src/lv_widgets/lv_arc.c **** /**
 452:lvgl/src/lv_widgets/lv_arc.c ****  * Set whether the arc is adjustable.
 453:lvgl/src/lv_widgets/lv_arc.c ****  * @param arc pointer to a arc object
 454:lvgl/src/lv_widgets/lv_arc.c ****  * @param adjustable whether the arc has a knob that can be dragged
 455:lvgl/src/lv_widgets/lv_arc.c ****  */
 456:lvgl/src/lv_widgets/lv_arc.c **** void lv_arc_set_adjustable(lv_obj_t * arc, bool adjustable)
 457:lvgl/src/lv_widgets/lv_arc.c **** {
 458:lvgl/src/lv_widgets/lv_arc.c ****     LV_ASSERT_OBJ(arc, LV_OBJX_NAME);
 459:lvgl/src/lv_widgets/lv_arc.c **** 
 460:lvgl/src/lv_widgets/lv_arc.c ****     lv_arc_ext_t * ext = (lv_arc_ext_t *)lv_obj_get_ext_attr(arc);
 461:lvgl/src/lv_widgets/lv_arc.c ****     if(ext->adjustable == adjustable)
 462:lvgl/src/lv_widgets/lv_arc.c ****         return;
 463:lvgl/src/lv_widgets/lv_arc.c **** 
 464:lvgl/src/lv_widgets/lv_arc.c ****     ext->adjustable = adjustable;
 465:lvgl/src/lv_widgets/lv_arc.c ****     if(!adjustable)
 466:lvgl/src/lv_widgets/lv_arc.c ****         ext->dragging = false;
 467:lvgl/src/lv_widgets/lv_arc.c ****     lv_obj_invalidate(arc);
 468:lvgl/src/lv_widgets/lv_arc.c **** }
 469:lvgl/src/lv_widgets/lv_arc.c **** 
 470:lvgl/src/lv_widgets/lv_arc.c **** /*=====================
 471:lvgl/src/lv_widgets/lv_arc.c ****  * Getter functions
 472:lvgl/src/lv_widgets/lv_arc.c ****  *====================*/
 473:lvgl/src/lv_widgets/lv_arc.c **** 
 474:lvgl/src/lv_widgets/lv_arc.c **** /**
 475:lvgl/src/lv_widgets/lv_arc.c ****  * Get the start angle of an arc.
 476:lvgl/src/lv_widgets/lv_arc.c ****  * @param arc pointer to an arc object
 477:lvgl/src/lv_widgets/lv_arc.c ****  * @return the start angle [0..360]
 478:lvgl/src/lv_widgets/lv_arc.c ****  */
 479:lvgl/src/lv_widgets/lv_arc.c **** uint16_t lv_arc_get_angle_start(lv_obj_t * arc)
 480:lvgl/src/lv_widgets/lv_arc.c **** {
 481:lvgl/src/lv_widgets/lv_arc.c ****     LV_ASSERT_OBJ(arc, LV_OBJX_NAME);
 482:lvgl/src/lv_widgets/lv_arc.c **** 
 483:lvgl/src/lv_widgets/lv_arc.c ****     lv_arc_ext_t * ext = lv_obj_get_ext_attr(arc);
 484:lvgl/src/lv_widgets/lv_arc.c **** 
 485:lvgl/src/lv_widgets/lv_arc.c ****     return ext->arc_angle_start;
 486:lvgl/src/lv_widgets/lv_arc.c **** }
ARM GAS  D:\Temp\ccOOHxmt.s 			page 10


 487:lvgl/src/lv_widgets/lv_arc.c **** 
 488:lvgl/src/lv_widgets/lv_arc.c **** /**
 489:lvgl/src/lv_widgets/lv_arc.c ****  * Get the end angle of an arc.
 490:lvgl/src/lv_widgets/lv_arc.c ****  * @param arc pointer to an arc object
 491:lvgl/src/lv_widgets/lv_arc.c ****  * @return the end angle [0..360]
 492:lvgl/src/lv_widgets/lv_arc.c ****  */
 493:lvgl/src/lv_widgets/lv_arc.c **** uint16_t lv_arc_get_angle_end(lv_obj_t * arc)
 494:lvgl/src/lv_widgets/lv_arc.c **** {
 495:lvgl/src/lv_widgets/lv_arc.c ****     LV_ASSERT_OBJ(arc, LV_OBJX_NAME);
 496:lvgl/src/lv_widgets/lv_arc.c **** 
 497:lvgl/src/lv_widgets/lv_arc.c ****     lv_arc_ext_t * ext = lv_obj_get_ext_attr(arc);
 498:lvgl/src/lv_widgets/lv_arc.c **** 
 499:lvgl/src/lv_widgets/lv_arc.c ****     return ext->arc_angle_end;
 500:lvgl/src/lv_widgets/lv_arc.c **** }
 501:lvgl/src/lv_widgets/lv_arc.c **** 
 502:lvgl/src/lv_widgets/lv_arc.c **** /**
 503:lvgl/src/lv_widgets/lv_arc.c ****  * Get the start angle of an arc background.
 504:lvgl/src/lv_widgets/lv_arc.c ****  * @param arc pointer to an arc object
 505:lvgl/src/lv_widgets/lv_arc.c ****  * @return the start angle [0..360]
 506:lvgl/src/lv_widgets/lv_arc.c ****  */
 507:lvgl/src/lv_widgets/lv_arc.c **** uint16_t lv_arc_get_bg_angle_start(lv_obj_t * arc)
 508:lvgl/src/lv_widgets/lv_arc.c **** {
 509:lvgl/src/lv_widgets/lv_arc.c ****     LV_ASSERT_OBJ(arc, LV_OBJX_NAME);
 510:lvgl/src/lv_widgets/lv_arc.c **** 
 511:lvgl/src/lv_widgets/lv_arc.c ****     lv_arc_ext_t * ext = lv_obj_get_ext_attr(arc);
 512:lvgl/src/lv_widgets/lv_arc.c **** 
 513:lvgl/src/lv_widgets/lv_arc.c ****     return ext->bg_angle_start;
 514:lvgl/src/lv_widgets/lv_arc.c **** }
 515:lvgl/src/lv_widgets/lv_arc.c **** 
 516:lvgl/src/lv_widgets/lv_arc.c **** /**
 517:lvgl/src/lv_widgets/lv_arc.c ****  * Get the end angle of an arc background.
 518:lvgl/src/lv_widgets/lv_arc.c ****  * @param arc pointer to an arc object
 519:lvgl/src/lv_widgets/lv_arc.c ****  * @return the end angle [0..360]
 520:lvgl/src/lv_widgets/lv_arc.c ****  */
 521:lvgl/src/lv_widgets/lv_arc.c **** uint16_t lv_arc_get_bg_angle_end(lv_obj_t * arc)
 522:lvgl/src/lv_widgets/lv_arc.c **** {
 523:lvgl/src/lv_widgets/lv_arc.c ****     LV_ASSERT_OBJ(arc, LV_OBJX_NAME);
 524:lvgl/src/lv_widgets/lv_arc.c **** 
 525:lvgl/src/lv_widgets/lv_arc.c ****     lv_arc_ext_t * ext = lv_obj_get_ext_attr(arc);
 526:lvgl/src/lv_widgets/lv_arc.c **** 
 527:lvgl/src/lv_widgets/lv_arc.c ****     return ext->bg_angle_end;
 528:lvgl/src/lv_widgets/lv_arc.c **** }
 529:lvgl/src/lv_widgets/lv_arc.c **** 
 530:lvgl/src/lv_widgets/lv_arc.c **** /**
 531:lvgl/src/lv_widgets/lv_arc.c ****  * Get the value of a arc
 532:lvgl/src/lv_widgets/lv_arc.c ****  * @param arc pointer to a arc object
 533:lvgl/src/lv_widgets/lv_arc.c ****  * @return the value of the arc
 534:lvgl/src/lv_widgets/lv_arc.c ****  */
 535:lvgl/src/lv_widgets/lv_arc.c **** int16_t lv_arc_get_value(const lv_obj_t * arc)
 536:lvgl/src/lv_widgets/lv_arc.c **** {
 537:lvgl/src/lv_widgets/lv_arc.c ****     LV_ASSERT_OBJ(arc, LV_OBJX_NAME);
 538:lvgl/src/lv_widgets/lv_arc.c **** 
 539:lvgl/src/lv_widgets/lv_arc.c ****     lv_arc_ext_t * ext = lv_obj_get_ext_attr(arc);
 540:lvgl/src/lv_widgets/lv_arc.c ****     return ext->cur_value;
 541:lvgl/src/lv_widgets/lv_arc.c **** }
 542:lvgl/src/lv_widgets/lv_arc.c **** 
 543:lvgl/src/lv_widgets/lv_arc.c **** /**
ARM GAS  D:\Temp\ccOOHxmt.s 			page 11


 544:lvgl/src/lv_widgets/lv_arc.c ****  * Get the minimum value of a arc
 545:lvgl/src/lv_widgets/lv_arc.c ****  * @param arc pointer to a arc object
 546:lvgl/src/lv_widgets/lv_arc.c ****  * @return the minimum value of the arc
 547:lvgl/src/lv_widgets/lv_arc.c ****  */
 548:lvgl/src/lv_widgets/lv_arc.c **** int16_t lv_arc_get_min_value(const lv_obj_t * arc)
 549:lvgl/src/lv_widgets/lv_arc.c **** {
 550:lvgl/src/lv_widgets/lv_arc.c ****     LV_ASSERT_OBJ(arc, LV_OBJX_NAME);
 551:lvgl/src/lv_widgets/lv_arc.c **** 
 552:lvgl/src/lv_widgets/lv_arc.c ****     lv_arc_ext_t * ext = (lv_arc_ext_t *)lv_obj_get_ext_attr(arc);
 553:lvgl/src/lv_widgets/lv_arc.c ****     return ext->min_value;
 554:lvgl/src/lv_widgets/lv_arc.c **** }
 555:lvgl/src/lv_widgets/lv_arc.c **** 
 556:lvgl/src/lv_widgets/lv_arc.c **** /**
 557:lvgl/src/lv_widgets/lv_arc.c ****  * Get the maximum value of a arc
 558:lvgl/src/lv_widgets/lv_arc.c ****  * @param arc pointer to a arc object
 559:lvgl/src/lv_widgets/lv_arc.c ****  * @return the maximum value of the arc
 560:lvgl/src/lv_widgets/lv_arc.c ****  */
 561:lvgl/src/lv_widgets/lv_arc.c **** int16_t lv_arc_get_max_value(const lv_obj_t * arc)
 562:lvgl/src/lv_widgets/lv_arc.c **** {
 563:lvgl/src/lv_widgets/lv_arc.c ****     LV_ASSERT_OBJ(arc, LV_OBJX_NAME);
 564:lvgl/src/lv_widgets/lv_arc.c **** 
 565:lvgl/src/lv_widgets/lv_arc.c ****     lv_arc_ext_t * ext = (lv_arc_ext_t *)lv_obj_get_ext_attr(arc);
 566:lvgl/src/lv_widgets/lv_arc.c ****     return ext->max_value;
 567:lvgl/src/lv_widgets/lv_arc.c **** }
 568:lvgl/src/lv_widgets/lv_arc.c **** 
 569:lvgl/src/lv_widgets/lv_arc.c **** /**
 570:lvgl/src/lv_widgets/lv_arc.c ****  * Give the arc is being dragged or not
 571:lvgl/src/lv_widgets/lv_arc.c ****  * @param arc pointer to a arc object
 572:lvgl/src/lv_widgets/lv_arc.c ****  * @return true: drag in progress false: not dragged
 573:lvgl/src/lv_widgets/lv_arc.c ****  */
 574:lvgl/src/lv_widgets/lv_arc.c **** bool lv_arc_is_dragged(const lv_obj_t * arc)
 575:lvgl/src/lv_widgets/lv_arc.c **** {
 576:lvgl/src/lv_widgets/lv_arc.c ****     LV_ASSERT_OBJ(arc, LV_OBJX_NAME);
 577:lvgl/src/lv_widgets/lv_arc.c **** 
 578:lvgl/src/lv_widgets/lv_arc.c ****     lv_arc_ext_t * ext = lv_obj_get_ext_attr(arc);
 579:lvgl/src/lv_widgets/lv_arc.c ****     return ext->dragging;
 580:lvgl/src/lv_widgets/lv_arc.c **** }
 581:lvgl/src/lv_widgets/lv_arc.c **** 
 582:lvgl/src/lv_widgets/lv_arc.c **** /**
 583:lvgl/src/lv_widgets/lv_arc.c ****  * Get whether the arc is type or not.
 584:lvgl/src/lv_widgets/lv_arc.c ****  * @param arc pointer to a arc object
 585:lvgl/src/lv_widgets/lv_arc.c ****  * @return arc type
 586:lvgl/src/lv_widgets/lv_arc.c ****  */
 587:lvgl/src/lv_widgets/lv_arc.c **** lv_arc_type_t lv_arc_get_type(const lv_obj_t * arc)
 588:lvgl/src/lv_widgets/lv_arc.c **** {
 589:lvgl/src/lv_widgets/lv_arc.c ****     LV_ASSERT_OBJ(arc, LV_OBJX_NAME);
 590:lvgl/src/lv_widgets/lv_arc.c **** 
 591:lvgl/src/lv_widgets/lv_arc.c ****     lv_arc_ext_t * ext = (lv_arc_ext_t *)lv_obj_get_ext_attr(arc);
 592:lvgl/src/lv_widgets/lv_arc.c ****     return ext->type;
 593:lvgl/src/lv_widgets/lv_arc.c **** }
 594:lvgl/src/lv_widgets/lv_arc.c **** 
 595:lvgl/src/lv_widgets/lv_arc.c **** /**
 596:lvgl/src/lv_widgets/lv_arc.c ****  * Get whether the arc is adjustable.
 597:lvgl/src/lv_widgets/lv_arc.c ****  * @param arc pointer to a arc object
 598:lvgl/src/lv_widgets/lv_arc.c ****  * @return whether the arc has a knob that can be dragged
 599:lvgl/src/lv_widgets/lv_arc.c ****  */
 600:lvgl/src/lv_widgets/lv_arc.c **** bool lv_arc_get_adjustable(lv_obj_t * arc)
ARM GAS  D:\Temp\ccOOHxmt.s 			page 12


 601:lvgl/src/lv_widgets/lv_arc.c **** {
 602:lvgl/src/lv_widgets/lv_arc.c ****     LV_ASSERT_OBJ(arc, LV_OBJX_NAME);
 603:lvgl/src/lv_widgets/lv_arc.c **** 
 604:lvgl/src/lv_widgets/lv_arc.c ****     lv_arc_ext_t * ext = (lv_arc_ext_t *)lv_obj_get_ext_attr(arc);
 605:lvgl/src/lv_widgets/lv_arc.c ****     return ext->adjustable;
 606:lvgl/src/lv_widgets/lv_arc.c **** }
 607:lvgl/src/lv_widgets/lv_arc.c **** 
 608:lvgl/src/lv_widgets/lv_arc.c **** /*=====================
 609:lvgl/src/lv_widgets/lv_arc.c ****  * Other functions
 610:lvgl/src/lv_widgets/lv_arc.c ****  *====================*/
 611:lvgl/src/lv_widgets/lv_arc.c **** 
 612:lvgl/src/lv_widgets/lv_arc.c **** /*
 613:lvgl/src/lv_widgets/lv_arc.c ****  * New object specific "other" functions come here
 614:lvgl/src/lv_widgets/lv_arc.c ****  */
 615:lvgl/src/lv_widgets/lv_arc.c **** 
 616:lvgl/src/lv_widgets/lv_arc.c **** /**********************
 617:lvgl/src/lv_widgets/lv_arc.c ****  *   STATIC FUNCTIONS
 618:lvgl/src/lv_widgets/lv_arc.c ****  **********************/
 619:lvgl/src/lv_widgets/lv_arc.c **** 
 620:lvgl/src/lv_widgets/lv_arc.c **** /**
 621:lvgl/src/lv_widgets/lv_arc.c ****  * Handle the drawing related tasks of the arcs
 622:lvgl/src/lv_widgets/lv_arc.c ****  * @param arc pointer to an object
 623:lvgl/src/lv_widgets/lv_arc.c ****  * @param clip_area the object will be drawn only in this area
 624:lvgl/src/lv_widgets/lv_arc.c ****  * @param mode LV_DESIGN_COVER_CHK: only check if the object fully covers the 'mask_p' area
 625:lvgl/src/lv_widgets/lv_arc.c ****  *                                  (return 'true' if yes)
 626:lvgl/src/lv_widgets/lv_arc.c ****  *             LV_DESIGN_DRAW: draw the object (always return 'true')
 627:lvgl/src/lv_widgets/lv_arc.c ****  *             LV_DESIGN_DRAW_POST: drawing after every children are drawn
 628:lvgl/src/lv_widgets/lv_arc.c ****  * @param return an element of `lv_design_res_t`
 629:lvgl/src/lv_widgets/lv_arc.c ****  */
 630:lvgl/src/lv_widgets/lv_arc.c **** static lv_design_res_t lv_arc_design(lv_obj_t * arc, const lv_area_t * clip_area, lv_design_mode_t 
 631:lvgl/src/lv_widgets/lv_arc.c **** {
 632:lvgl/src/lv_widgets/lv_arc.c ****     /*Return false if the object is not covers the mask_p area*/
 633:lvgl/src/lv_widgets/lv_arc.c ****     if(mode == LV_DESIGN_COVER_CHK) {
 634:lvgl/src/lv_widgets/lv_arc.c ****         return LV_DESIGN_RES_NOT_COVER;
 635:lvgl/src/lv_widgets/lv_arc.c ****     }
 636:lvgl/src/lv_widgets/lv_arc.c ****     /*Draw the object*/
 637:lvgl/src/lv_widgets/lv_arc.c ****     else if(mode == LV_DESIGN_DRAW_MAIN) {
 638:lvgl/src/lv_widgets/lv_arc.c ****         lv_arc_ext_t * ext       = lv_obj_get_ext_attr(arc);
 639:lvgl/src/lv_widgets/lv_arc.c **** 
 640:lvgl/src/lv_widgets/lv_arc.c ****         lv_draw_rect_dsc_t bg_dsc;
 641:lvgl/src/lv_widgets/lv_arc.c ****         lv_draw_rect_dsc_init(&bg_dsc);
 642:lvgl/src/lv_widgets/lv_arc.c ****         lv_obj_init_draw_rect_dsc(arc, LV_ARC_PART_BG, &bg_dsc);
 643:lvgl/src/lv_widgets/lv_arc.c **** 
 644:lvgl/src/lv_widgets/lv_arc.c ****         lv_draw_rect(&arc->coords, clip_area, &bg_dsc);
 645:lvgl/src/lv_widgets/lv_arc.c **** 
 646:lvgl/src/lv_widgets/lv_arc.c ****         lv_point_t center;
 647:lvgl/src/lv_widgets/lv_arc.c ****         lv_coord_t arc_r;
 648:lvgl/src/lv_widgets/lv_arc.c ****         get_center(arc, &center, &arc_r);
 649:lvgl/src/lv_widgets/lv_arc.c **** 
 650:lvgl/src/lv_widgets/lv_arc.c ****         /*Draw the background arc*/
 651:lvgl/src/lv_widgets/lv_arc.c ****         lv_draw_line_dsc_t arc_dsc;
 652:lvgl/src/lv_widgets/lv_arc.c ****         if(arc_r > 0) {
 653:lvgl/src/lv_widgets/lv_arc.c ****             lv_draw_line_dsc_init(&arc_dsc);
 654:lvgl/src/lv_widgets/lv_arc.c ****             lv_obj_init_draw_line_dsc(arc, LV_ARC_PART_BG, &arc_dsc);
 655:lvgl/src/lv_widgets/lv_arc.c **** 
 656:lvgl/src/lv_widgets/lv_arc.c ****             lv_draw_arc(center.x, center.y, arc_r, ext->bg_angle_start + ext->rotation_angle,
 657:lvgl/src/lv_widgets/lv_arc.c ****                         ext->bg_angle_end + ext->rotation_angle, clip_area,
ARM GAS  D:\Temp\ccOOHxmt.s 			page 13


 658:lvgl/src/lv_widgets/lv_arc.c ****                         &arc_dsc);
 659:lvgl/src/lv_widgets/lv_arc.c ****         }
 660:lvgl/src/lv_widgets/lv_arc.c **** 
 661:lvgl/src/lv_widgets/lv_arc.c ****         /*make the indicator arc smaller or larger according to its greatest padding value*/
 662:lvgl/src/lv_widgets/lv_arc.c ****         lv_coord_t left_indic = lv_obj_get_style_pad_left(arc, LV_ARC_PART_INDIC);
 663:lvgl/src/lv_widgets/lv_arc.c ****         lv_coord_t right_indic = lv_obj_get_style_pad_right(arc, LV_ARC_PART_INDIC);
 664:lvgl/src/lv_widgets/lv_arc.c ****         lv_coord_t top_indic = lv_obj_get_style_pad_top(arc, LV_ARC_PART_INDIC);
 665:lvgl/src/lv_widgets/lv_arc.c ****         lv_coord_t bottom_indic = lv_obj_get_style_pad_bottom(arc, LV_ARC_PART_INDIC);
 666:lvgl/src/lv_widgets/lv_arc.c ****         lv_coord_t indic_r = arc_r - LV_MATH_MAX4(left_indic, right_indic, top_indic, bottom_indic)
 667:lvgl/src/lv_widgets/lv_arc.c **** 
 668:lvgl/src/lv_widgets/lv_arc.c ****         if(indic_r > 0) {
 669:lvgl/src/lv_widgets/lv_arc.c ****             lv_draw_line_dsc_init(&arc_dsc);
 670:lvgl/src/lv_widgets/lv_arc.c ****             lv_obj_init_draw_line_dsc(arc, LV_ARC_PART_INDIC, &arc_dsc);
 671:lvgl/src/lv_widgets/lv_arc.c **** 
 672:lvgl/src/lv_widgets/lv_arc.c ****             lv_draw_arc(center.x, center.y, indic_r, ext->arc_angle_start + ext->rotation_angle,
 673:lvgl/src/lv_widgets/lv_arc.c ****                         ext->arc_angle_end + ext->rotation_angle, clip_area,
 674:lvgl/src/lv_widgets/lv_arc.c ****                         &arc_dsc);
 675:lvgl/src/lv_widgets/lv_arc.c ****         }
 676:lvgl/src/lv_widgets/lv_arc.c **** 
 677:lvgl/src/lv_widgets/lv_arc.c ****         if(ext->adjustable) {
 678:lvgl/src/lv_widgets/lv_arc.c ****             lv_area_t knob_area;
 679:lvgl/src/lv_widgets/lv_arc.c ****             get_knob_area(arc, &center, arc_r, &knob_area);
 680:lvgl/src/lv_widgets/lv_arc.c **** 
 681:lvgl/src/lv_widgets/lv_arc.c ****             lv_draw_rect_dsc_t knob_rect_dsc;
 682:lvgl/src/lv_widgets/lv_arc.c ****             lv_draw_rect_dsc_init(&knob_rect_dsc);
 683:lvgl/src/lv_widgets/lv_arc.c ****             lv_obj_init_draw_rect_dsc(arc, LV_ARC_PART_KNOB, &knob_rect_dsc);
 684:lvgl/src/lv_widgets/lv_arc.c **** 
 685:lvgl/src/lv_widgets/lv_arc.c ****             lv_draw_rect(&knob_area, clip_area, &knob_rect_dsc);
 686:lvgl/src/lv_widgets/lv_arc.c ****         }
 687:lvgl/src/lv_widgets/lv_arc.c **** 
 688:lvgl/src/lv_widgets/lv_arc.c ****     }
 689:lvgl/src/lv_widgets/lv_arc.c ****     /*Post draw when the children are drawn*/
 690:lvgl/src/lv_widgets/lv_arc.c ****     else if(mode == LV_DESIGN_DRAW_POST) {
 691:lvgl/src/lv_widgets/lv_arc.c ****     }
 692:lvgl/src/lv_widgets/lv_arc.c **** 
 693:lvgl/src/lv_widgets/lv_arc.c ****     return LV_DESIGN_RES_OK;
 694:lvgl/src/lv_widgets/lv_arc.c **** }
 695:lvgl/src/lv_widgets/lv_arc.c **** 
 696:lvgl/src/lv_widgets/lv_arc.c **** /**
 697:lvgl/src/lv_widgets/lv_arc.c ****  * Signal function of the arc
 698:lvgl/src/lv_widgets/lv_arc.c ****  * @param arc pointer to a arc object
 699:lvgl/src/lv_widgets/lv_arc.c ****  * @param sign a signal type from lv_signal_t enum
 700:lvgl/src/lv_widgets/lv_arc.c ****  * @param param pointer to a signal specific variable
 701:lvgl/src/lv_widgets/lv_arc.c ****  * @return LV_RES_OK: the object is not deleted in the function; LV_RES_INV: the object is deleted
 702:lvgl/src/lv_widgets/lv_arc.c ****  */
 703:lvgl/src/lv_widgets/lv_arc.c **** static lv_res_t lv_arc_signal(lv_obj_t * arc, lv_signal_t sign, void * param)
 704:lvgl/src/lv_widgets/lv_arc.c **** {
 705:lvgl/src/lv_widgets/lv_arc.c ****     lv_res_t res;
 706:lvgl/src/lv_widgets/lv_arc.c ****     if(sign == LV_SIGNAL_GET_STYLE) {
 707:lvgl/src/lv_widgets/lv_arc.c ****         lv_get_style_info_t * info = param;
 708:lvgl/src/lv_widgets/lv_arc.c ****         info->result = lv_arc_get_style(arc, info->part);
 709:lvgl/src/lv_widgets/lv_arc.c ****         if(info->result != NULL) return LV_RES_OK;
 710:lvgl/src/lv_widgets/lv_arc.c ****         else return ancestor_signal(arc, sign, param);
 711:lvgl/src/lv_widgets/lv_arc.c ****     }
 712:lvgl/src/lv_widgets/lv_arc.c **** 
 713:lvgl/src/lv_widgets/lv_arc.c ****     /* Include the ancient signal function */
 714:lvgl/src/lv_widgets/lv_arc.c ****     res = ancestor_signal(arc, sign, param);
ARM GAS  D:\Temp\ccOOHxmt.s 			page 14


 715:lvgl/src/lv_widgets/lv_arc.c ****     if(res != LV_RES_OK) return res;
 716:lvgl/src/lv_widgets/lv_arc.c **** 
 717:lvgl/src/lv_widgets/lv_arc.c ****     if(sign == LV_SIGNAL_GET_TYPE) return lv_obj_handle_get_type_signal(param, LV_OBJX_NAME);
 718:lvgl/src/lv_widgets/lv_arc.c **** 
 719:lvgl/src/lv_widgets/lv_arc.c ****     lv_arc_ext_t * ext = lv_obj_get_ext_attr(arc);
 720:lvgl/src/lv_widgets/lv_arc.c **** 
 721:lvgl/src/lv_widgets/lv_arc.c ****     if(sign == LV_SIGNAL_PRESSING) {
 722:lvgl/src/lv_widgets/lv_arc.c ****         /* Only adjustable arcs can be dragged */
 723:lvgl/src/lv_widgets/lv_arc.c ****         if(!ext->adjustable) return res;
 724:lvgl/src/lv_widgets/lv_arc.c **** 
 725:lvgl/src/lv_widgets/lv_arc.c ****         lv_indev_t * indev = lv_indev_get_act();
 726:lvgl/src/lv_widgets/lv_arc.c ****         if(indev == NULL) return res;
 727:lvgl/src/lv_widgets/lv_arc.c **** 
 728:lvgl/src/lv_widgets/lv_arc.c ****         /*Handle only pointers here*/
 729:lvgl/src/lv_widgets/lv_arc.c ****         lv_indev_type_t indev_type = lv_indev_get_type(indev);
 730:lvgl/src/lv_widgets/lv_arc.c ****         if(indev_type != LV_INDEV_TYPE_POINTER) return res;
 731:lvgl/src/lv_widgets/lv_arc.c **** 
 732:lvgl/src/lv_widgets/lv_arc.c ****         lv_point_t p;
 733:lvgl/src/lv_widgets/lv_arc.c ****         lv_indev_get_point(indev, &p);
 734:lvgl/src/lv_widgets/lv_arc.c **** 
 735:lvgl/src/lv_widgets/lv_arc.c ****         /*Make point relative to the arc's center*/
 736:lvgl/src/lv_widgets/lv_arc.c ****         lv_point_t center;
 737:lvgl/src/lv_widgets/lv_arc.c ****         lv_coord_t r;
 738:lvgl/src/lv_widgets/lv_arc.c ****         get_center(arc, &center, &r);
 739:lvgl/src/lv_widgets/lv_arc.c **** 
 740:lvgl/src/lv_widgets/lv_arc.c ****         p.x -=  center.x;
 741:lvgl/src/lv_widgets/lv_arc.c ****         p.y -=  center.y;
 742:lvgl/src/lv_widgets/lv_arc.c **** 
 743:lvgl/src/lv_widgets/lv_arc.c ****         /*Enter dragging mode if pressed out of the knob*/
 744:lvgl/src/lv_widgets/lv_arc.c ****         if(ext->dragging == false) {
 745:lvgl/src/lv_widgets/lv_arc.c ****             lv_coord_t indic_width = lv_obj_get_style_line_width(arc, LV_ARC_PART_INDIC);
 746:lvgl/src/lv_widgets/lv_arc.c ****             r -=  indic_width;
 747:lvgl/src/lv_widgets/lv_arc.c ****             r -= r / 2; /*Add some more sensitive area*/
 748:lvgl/src/lv_widgets/lv_arc.c ****             if(p.x * p.x + p.y * p.y > r * r) {
 749:lvgl/src/lv_widgets/lv_arc.c ****                 ext->dragging = true;
 750:lvgl/src/lv_widgets/lv_arc.c ****                 ext->last_tick = lv_tick_get(); /*Capture timestamp at dragging start*/
 751:lvgl/src/lv_widgets/lv_arc.c ****             }
 752:lvgl/src/lv_widgets/lv_arc.c ****         }
 753:lvgl/src/lv_widgets/lv_arc.c **** 
 754:lvgl/src/lv_widgets/lv_arc.c ****         /*It must be in "dragging" mode to turn the arc*/
 755:lvgl/src/lv_widgets/lv_arc.c ****         if(ext->dragging == false) return res;
 756:lvgl/src/lv_widgets/lv_arc.c **** 
 757:lvgl/src/lv_widgets/lv_arc.c ****         /*No angle can be determined if exactly the middle of the arc is being pressed*/
 758:lvgl/src/lv_widgets/lv_arc.c ****         if(p.x == 0 && p.y == 0) return res;
 759:lvgl/src/lv_widgets/lv_arc.c **** 
 760:lvgl/src/lv_widgets/lv_arc.c ****         /*Calculate the angle of the pressed point*/
 761:lvgl/src/lv_widgets/lv_arc.c ****         int16_t angle;
 762:lvgl/src/lv_widgets/lv_arc.c ****         int16_t bg_end = ext->bg_angle_end;
 763:lvgl/src/lv_widgets/lv_arc.c ****         if(ext->bg_angle_end < ext->bg_angle_start) {
 764:lvgl/src/lv_widgets/lv_arc.c ****             bg_end = ext->bg_angle_end + 360;
 765:lvgl/src/lv_widgets/lv_arc.c ****         }
 766:lvgl/src/lv_widgets/lv_arc.c **** 
 767:lvgl/src/lv_widgets/lv_arc.c ****         angle = _lv_atan2(p.y, p.x);
 768:lvgl/src/lv_widgets/lv_arc.c ****         angle -= ext->rotation_angle;
 769:lvgl/src/lv_widgets/lv_arc.c ****         angle -= ext->bg_angle_start;   /*Make the angle relative to the start angle*/
 770:lvgl/src/lv_widgets/lv_arc.c ****         if(angle < 0) angle += 360;
 771:lvgl/src/lv_widgets/lv_arc.c **** 
ARM GAS  D:\Temp\ccOOHxmt.s 			page 15


 772:lvgl/src/lv_widgets/lv_arc.c ****         int16_t deg_range = bg_end - ext->bg_angle_start;
 773:lvgl/src/lv_widgets/lv_arc.c **** 
 774:lvgl/src/lv_widgets/lv_arc.c ****         int16_t last_angle_rel = ext->last_angle - ext->bg_angle_start;
 775:lvgl/src/lv_widgets/lv_arc.c ****         int16_t delta_angle = angle - last_angle_rel;
 776:lvgl/src/lv_widgets/lv_arc.c **** 
 777:lvgl/src/lv_widgets/lv_arc.c ****         /* Do not allow big jumps.
 778:lvgl/src/lv_widgets/lv_arc.c ****          * It's mainly to avoid jumping to the opposite end if the "dead" range between min. an max
 779:lvgl/src/lv_widgets/lv_arc.c ****          * Check which and was closer on the last valid press (ext->min_close) and prefer that end 
 780:lvgl/src/lv_widgets/lv_arc.c ****         if(LV_MATH_ABS(delta_angle) > 180) {
 781:lvgl/src/lv_widgets/lv_arc.c ****             if(ext->min_close) angle = 0;
 782:lvgl/src/lv_widgets/lv_arc.c ****             else angle = deg_range;
 783:lvgl/src/lv_widgets/lv_arc.c ****         }
 784:lvgl/src/lv_widgets/lv_arc.c ****         else {
 785:lvgl/src/lv_widgets/lv_arc.c ****             if(angle < deg_range / 2) ext->min_close = 1;
 786:lvgl/src/lv_widgets/lv_arc.c ****             else ext->min_close = 0;
 787:lvgl/src/lv_widgets/lv_arc.c ****         }
 788:lvgl/src/lv_widgets/lv_arc.c **** 
 789:lvgl/src/lv_widgets/lv_arc.c ****         /*Calculate the slew rate limited angle based on change rate (degrees/sec)*/
 790:lvgl/src/lv_widgets/lv_arc.c ****         delta_angle = angle - last_angle_rel;
 791:lvgl/src/lv_widgets/lv_arc.c ****         uint32_t delta_tick = lv_tick_elaps(ext->last_tick);
 792:lvgl/src/lv_widgets/lv_arc.c ****         int16_t delta_angle_max = (ext->chg_rate * delta_tick) / 1000;
 793:lvgl/src/lv_widgets/lv_arc.c **** 
 794:lvgl/src/lv_widgets/lv_arc.c ****         if(delta_angle > delta_angle_max) {
 795:lvgl/src/lv_widgets/lv_arc.c ****             delta_angle = delta_angle_max;
 796:lvgl/src/lv_widgets/lv_arc.c ****         }
 797:lvgl/src/lv_widgets/lv_arc.c ****         else if(delta_angle < -delta_angle_max) {
 798:lvgl/src/lv_widgets/lv_arc.c ****             delta_angle = -delta_angle_max;
 799:lvgl/src/lv_widgets/lv_arc.c ****         }
 800:lvgl/src/lv_widgets/lv_arc.c **** 
 801:lvgl/src/lv_widgets/lv_arc.c ****         angle = last_angle_rel + delta_angle; /*Apply the limited angle change*/
 802:lvgl/src/lv_widgets/lv_arc.c **** 
 803:lvgl/src/lv_widgets/lv_arc.c ****         /*Rounding for symmetry*/
 804:lvgl/src/lv_widgets/lv_arc.c ****         int32_t round = ((bg_end - ext->bg_angle_start) * 8) / (ext->max_value - ext->min_value);
 805:lvgl/src/lv_widgets/lv_arc.c ****         round = (round + 4) >> 4;
 806:lvgl/src/lv_widgets/lv_arc.c ****         angle += round;
 807:lvgl/src/lv_widgets/lv_arc.c **** 
 808:lvgl/src/lv_widgets/lv_arc.c ****         angle += ext->bg_angle_start;   /*Make the angle absolute again*/
 809:lvgl/src/lv_widgets/lv_arc.c **** 
 810:lvgl/src/lv_widgets/lv_arc.c ****         /*Set the new value*/
 811:lvgl/src/lv_widgets/lv_arc.c ****         int16_t old_value = ext->cur_value;
 812:lvgl/src/lv_widgets/lv_arc.c ****         int16_t new_value = _lv_map(angle, ext->bg_angle_start, bg_end, ext->min_value, ext->max_va
 813:lvgl/src/lv_widgets/lv_arc.c ****         if(new_value != lv_arc_get_value(arc)) {
 814:lvgl/src/lv_widgets/lv_arc.c ****             ext->last_tick = lv_tick_get(); /*Cache timestamp for the next iteration*/
 815:lvgl/src/lv_widgets/lv_arc.c ****             lv_arc_set_value(arc, new_value); /*set_value caches the last_angle for the next iterat
 816:lvgl/src/lv_widgets/lv_arc.c ****             if(new_value != old_value) {
 817:lvgl/src/lv_widgets/lv_arc.c ****                 res = lv_event_send(arc, LV_EVENT_VALUE_CHANGED, NULL);
 818:lvgl/src/lv_widgets/lv_arc.c ****                 if(res != LV_RES_OK) return res;
 819:lvgl/src/lv_widgets/lv_arc.c ****             }
 820:lvgl/src/lv_widgets/lv_arc.c ****         }
 821:lvgl/src/lv_widgets/lv_arc.c **** 
 822:lvgl/src/lv_widgets/lv_arc.c ****         /*Don1't let the elapsed time to big while sitting on an end point*/
 823:lvgl/src/lv_widgets/lv_arc.c ****         if(new_value == ext->min_value || new_value == ext->max_value) {
 824:lvgl/src/lv_widgets/lv_arc.c ****             ext->last_tick = lv_tick_get(); /*Cache timestamp for the next iteration*/
 825:lvgl/src/lv_widgets/lv_arc.c ****         }
 826:lvgl/src/lv_widgets/lv_arc.c ****     }
 827:lvgl/src/lv_widgets/lv_arc.c ****     else if(sign == LV_SIGNAL_RELEASED || sign == LV_SIGNAL_PRESS_LOST) {
 828:lvgl/src/lv_widgets/lv_arc.c ****         ext->dragging = false;
ARM GAS  D:\Temp\ccOOHxmt.s 			page 16


 829:lvgl/src/lv_widgets/lv_arc.c **** 
 830:lvgl/src/lv_widgets/lv_arc.c **** #if LV_USE_GROUP
 831:lvgl/src/lv_widgets/lv_arc.c ****         /*Leave edit mode if released. (No need to wait for LONG_PRESS) */
 832:lvgl/src/lv_widgets/lv_arc.c ****         lv_group_t * g             = lv_obj_get_group(arc);
 833:lvgl/src/lv_widgets/lv_arc.c ****         bool editing               = lv_group_get_editing(g);
 834:lvgl/src/lv_widgets/lv_arc.c ****         lv_indev_type_t indev_type = lv_indev_get_type(lv_indev_get_act());
 835:lvgl/src/lv_widgets/lv_arc.c ****         if(indev_type == LV_INDEV_TYPE_ENCODER) {
 836:lvgl/src/lv_widgets/lv_arc.c ****             if(editing) lv_group_set_editing(g, false);
 837:lvgl/src/lv_widgets/lv_arc.c ****         }
 838:lvgl/src/lv_widgets/lv_arc.c **** #endif
 839:lvgl/src/lv_widgets/lv_arc.c **** 
 840:lvgl/src/lv_widgets/lv_arc.c ****     }
 841:lvgl/src/lv_widgets/lv_arc.c ****     else if(sign == LV_SIGNAL_CONTROL) {
 842:lvgl/src/lv_widgets/lv_arc.c ****         if(!ext->adjustable) return res;
 843:lvgl/src/lv_widgets/lv_arc.c **** 
 844:lvgl/src/lv_widgets/lv_arc.c ****         char c = *((char *)param);
 845:lvgl/src/lv_widgets/lv_arc.c **** 
 846:lvgl/src/lv_widgets/lv_arc.c ****         int16_t old_value = ext->cur_value;
 847:lvgl/src/lv_widgets/lv_arc.c ****         if(c == LV_KEY_RIGHT || c == LV_KEY_UP) {
 848:lvgl/src/lv_widgets/lv_arc.c ****             lv_arc_set_value(arc, lv_arc_get_value(arc) + 1);
 849:lvgl/src/lv_widgets/lv_arc.c ****         }
 850:lvgl/src/lv_widgets/lv_arc.c ****         else if(c == LV_KEY_LEFT || c == LV_KEY_DOWN) {
 851:lvgl/src/lv_widgets/lv_arc.c ****             lv_arc_set_value(arc, lv_arc_get_value(arc) - 1);
 852:lvgl/src/lv_widgets/lv_arc.c ****         }
 853:lvgl/src/lv_widgets/lv_arc.c **** 
 854:lvgl/src/lv_widgets/lv_arc.c ****         if(old_value != ext->cur_value) {
 855:lvgl/src/lv_widgets/lv_arc.c ****             res = lv_event_send(arc, LV_EVENT_VALUE_CHANGED, NULL);
 856:lvgl/src/lv_widgets/lv_arc.c ****             if(res != LV_RES_OK) return res;
 857:lvgl/src/lv_widgets/lv_arc.c ****         }
 858:lvgl/src/lv_widgets/lv_arc.c ****     }
 859:lvgl/src/lv_widgets/lv_arc.c ****     else if(sign == LV_SIGNAL_GET_EDITABLE) {
 860:lvgl/src/lv_widgets/lv_arc.c **** #if LV_USE_GROUP
 861:lvgl/src/lv_widgets/lv_arc.c ****         bool * editable = (bool *)param;
 862:lvgl/src/lv_widgets/lv_arc.c ****         *editable = true;
 863:lvgl/src/lv_widgets/lv_arc.c **** #endif
 864:lvgl/src/lv_widgets/lv_arc.c ****     }
 865:lvgl/src/lv_widgets/lv_arc.c ****     else if(sign == LV_SIGNAL_CLEANUP) {
 866:lvgl/src/lv_widgets/lv_arc.c ****         lv_obj_clean_style_list(arc, LV_ARC_PART_KNOB);
 867:lvgl/src/lv_widgets/lv_arc.c ****         lv_obj_clean_style_list(arc, LV_ARC_PART_INDIC);
 868:lvgl/src/lv_widgets/lv_arc.c ****     }
 869:lvgl/src/lv_widgets/lv_arc.c **** 
 870:lvgl/src/lv_widgets/lv_arc.c ****     return res;
 871:lvgl/src/lv_widgets/lv_arc.c **** }
 872:lvgl/src/lv_widgets/lv_arc.c **** 
 873:lvgl/src/lv_widgets/lv_arc.c **** /**
 874:lvgl/src/lv_widgets/lv_arc.c ****  * Get the style descriptor of a part of the object
 875:lvgl/src/lv_widgets/lv_arc.c ****  * @param arc pointer the object
 876:lvgl/src/lv_widgets/lv_arc.c ****  * @param part the part of the object. (LV_ARC_PART_...)
 877:lvgl/src/lv_widgets/lv_arc.c ****  * @return pointer to the style descriptor of the specified part
 878:lvgl/src/lv_widgets/lv_arc.c ****  */
 879:lvgl/src/lv_widgets/lv_arc.c **** static lv_style_list_t * lv_arc_get_style(lv_obj_t * arc, uint8_t part)
 880:lvgl/src/lv_widgets/lv_arc.c **** {
  29              		.loc 1 880 1 view -0
  30              		.cfi_startproc
  31              		@ args = 0, pretend = 0, frame = 0
  32              		@ frame_needed = 0, uses_anonymous_args = 0
  33              		.loc 1 880 1 is_stmt 0 view .LVU1
ARM GAS  D:\Temp\ccOOHxmt.s 			page 17


  34 0000 38B5     		push	{r3, r4, r5, lr}
  35              	.LCFI0:
  36              		.cfi_def_cfa_offset 16
  37              		.cfi_offset 3, -16
  38              		.cfi_offset 4, -12
  39              		.cfi_offset 5, -8
  40              		.cfi_offset 14, -4
  41 0002 0446     		mov	r4, r0
  42 0004 0D46     		mov	r5, r1
 881:lvgl/src/lv_widgets/lv_arc.c ****     LV_ASSERT_OBJ(arc, LV_OBJX_NAME);
  43              		.loc 1 881 5 is_stmt 1 view .LVU2
  44              		.loc 1 881 5 view .LVU3
  45 0006 FFF7FEFF 		bl	lv_debug_check_null
  46              	.LVL1:
  47              		.loc 1 881 5 is_stmt 0 view .LVU4
  48 000a 28B9     		cbnz	r0, .L2
  49              		.loc 1 881 5 is_stmt 1 discriminator 1 view .LVU5
  50              		.loc 1 881 5 discriminator 1 view .LVU6
  51 000c 2246     		mov	r2, r4
  52 000e 0023     		movs	r3, #0
  53 0010 0A48     		ldr	r0, .L9
  54 0012 FFF7FEFF 		bl	lv_debug_log_error
  55              	.LVL2:
  56              	.L3:
  57              		.loc 1 881 5 discriminator 1 view .LVU7
  58              		.loc 1 881 5 discriminator 1 view .LVU8
  59 0016 FEE7     		b	.L3
  60              	.L2:
  61              		.loc 1 881 37 discriminator 2 view .LVU9
 882:lvgl/src/lv_widgets/lv_arc.c **** 
 883:lvgl/src/lv_widgets/lv_arc.c ****     lv_arc_ext_t * ext = lv_obj_get_ext_attr(arc);
  62              		.loc 1 883 5 discriminator 2 view .LVU10
  63              		.loc 1 883 26 is_stmt 0 discriminator 2 view .LVU11
  64 0018 2046     		mov	r0, r4
  65 001a FFF7FEFF 		bl	lv_obj_get_ext_attr
  66              	.LVL3:
 884:lvgl/src/lv_widgets/lv_arc.c **** 
 885:lvgl/src/lv_widgets/lv_arc.c ****     lv_style_list_t * style_dsc_p;
  67              		.loc 1 885 5 is_stmt 1 discriminator 2 view .LVU12
 886:lvgl/src/lv_widgets/lv_arc.c **** 
 887:lvgl/src/lv_widgets/lv_arc.c ****     switch(part) {
  68              		.loc 1 887 5 discriminator 2 view .LVU13
  69 001e 012D     		cmp	r5, #1
  70 0020 08D0     		beq	.L4
  71              		.loc 1 887 5 is_stmt 0 view .LVU14
  72 0022 6BB2     		sxtb	r3, r5
  73 0024 1BB1     		cbz	r3, .L5
  74 0026 022D     		cmp	r5, #2
  75 0028 06D0     		beq	.L6
 888:lvgl/src/lv_widgets/lv_arc.c ****         case LV_ARC_PART_BG:
 889:lvgl/src/lv_widgets/lv_arc.c ****             style_dsc_p = &arc->style_list;
 890:lvgl/src/lv_widgets/lv_arc.c ****             break;
 891:lvgl/src/lv_widgets/lv_arc.c ****         case LV_ARC_PART_INDIC:
 892:lvgl/src/lv_widgets/lv_arc.c ****             style_dsc_p = &ext->style_arc;
 893:lvgl/src/lv_widgets/lv_arc.c ****             break;
 894:lvgl/src/lv_widgets/lv_arc.c ****         case LV_ARC_PART_KNOB:
 895:lvgl/src/lv_widgets/lv_arc.c ****             style_dsc_p = &ext->style_knob;
ARM GAS  D:\Temp\ccOOHxmt.s 			page 18


 896:lvgl/src/lv_widgets/lv_arc.c ****             break;
 897:lvgl/src/lv_widgets/lv_arc.c ****         default:
 898:lvgl/src/lv_widgets/lv_arc.c ****             style_dsc_p = NULL;
  76              		.loc 1 898 25 view .LVU15
  77 002a 0020     		movs	r0, #0
  78              	.LVL4:
  79              	.L1:
 899:lvgl/src/lv_widgets/lv_arc.c ****     }
 900:lvgl/src/lv_widgets/lv_arc.c **** 
 901:lvgl/src/lv_widgets/lv_arc.c ****     return style_dsc_p;
 902:lvgl/src/lv_widgets/lv_arc.c **** }
  80              		.loc 1 902 1 view .LVU16
  81 002c 38BD     		pop	{r3, r4, r5, pc}
  82              	.LVL5:
  83              	.L5:
 889:lvgl/src/lv_widgets/lv_arc.c ****             break;
  84              		.loc 1 889 13 is_stmt 1 view .LVU17
 889:lvgl/src/lv_widgets/lv_arc.c ****             break;
  85              		.loc 1 889 25 is_stmt 0 view .LVU18
  86 002e 04F12800 		add	r0, r4, #40
  87              	.LVL6:
 890:lvgl/src/lv_widgets/lv_arc.c ****         case LV_ARC_PART_INDIC:
  88              		.loc 1 890 13 is_stmt 1 view .LVU19
  89 0032 FBE7     		b	.L1
  90              	.LVL7:
  91              	.L4:
 892:lvgl/src/lv_widgets/lv_arc.c ****             break;
  92              		.loc 1 892 13 view .LVU20
 892:lvgl/src/lv_widgets/lv_arc.c ****             break;
  93              		.loc 1 892 25 is_stmt 0 view .LVU21
  94 0034 0C30     		adds	r0, r0, #12
  95              	.LVL8:
 893:lvgl/src/lv_widgets/lv_arc.c ****         case LV_ARC_PART_KNOB:
  96              		.loc 1 893 13 is_stmt 1 view .LVU22
  97 0036 F9E7     		b	.L1
  98              	.LVL9:
  99              	.L6:
 895:lvgl/src/lv_widgets/lv_arc.c ****             break;
 100              		.loc 1 895 13 view .LVU23
 895:lvgl/src/lv_widgets/lv_arc.c ****             break;
 101              		.loc 1 895 25 is_stmt 0 view .LVU24
 102 0038 1430     		adds	r0, r0, #20
 103              	.LVL10:
 896:lvgl/src/lv_widgets/lv_arc.c ****         default:
 104              		.loc 1 896 13 is_stmt 1 view .LVU25
 901:lvgl/src/lv_widgets/lv_arc.c **** }
 105              		.loc 1 901 5 view .LVU26
 901:lvgl/src/lv_widgets/lv_arc.c **** }
 106              		.loc 1 901 12 is_stmt 0 view .LVU27
 107 003a F7E7     		b	.L1
 108              	.L10:
 109              		.align	2
 110              	.L9:
 111 003c 00000000 		.word	.LC0
 112              		.cfi_endproc
 113              	.LFE483:
 115              		.section	.text.get_center,"ax",%progbits
ARM GAS  D:\Temp\ccOOHxmt.s 			page 19


 116              		.align	1
 117              		.syntax unified
 118              		.thumb
 119              		.thumb_func
 120              		.fpu fpv4-sp-d16
 122              	get_center:
 123              	.LVL11:
 124              	.LFB485:
 903:lvgl/src/lv_widgets/lv_arc.c **** 
 904:lvgl/src/lv_widgets/lv_arc.c **** static void inv_arc_area(lv_obj_t * arc, uint16_t start_angle, uint16_t end_angle, lv_arc_part_t pa
 905:lvgl/src/lv_widgets/lv_arc.c **** {
 906:lvgl/src/lv_widgets/lv_arc.c ****     /*Skip this complicated invalidation if the arc is not visible*/
 907:lvgl/src/lv_widgets/lv_arc.c ****     if(lv_obj_is_visible(arc) == false) return;
 908:lvgl/src/lv_widgets/lv_arc.c **** 
 909:lvgl/src/lv_widgets/lv_arc.c ****     lv_arc_ext_t * ext = lv_obj_get_ext_attr(arc);
 910:lvgl/src/lv_widgets/lv_arc.c **** 
 911:lvgl/src/lv_widgets/lv_arc.c ****     start_angle += ext->rotation_angle;
 912:lvgl/src/lv_widgets/lv_arc.c ****     end_angle += ext->rotation_angle;
 913:lvgl/src/lv_widgets/lv_arc.c **** 
 914:lvgl/src/lv_widgets/lv_arc.c ****     if(start_angle >= 360) start_angle -= 360;
 915:lvgl/src/lv_widgets/lv_arc.c ****     if(end_angle >= 360) end_angle -= 360;
 916:lvgl/src/lv_widgets/lv_arc.c **** 
 917:lvgl/src/lv_widgets/lv_arc.c ****     uint8_t start_quarter = start_angle / 90;
 918:lvgl/src/lv_widgets/lv_arc.c ****     uint8_t end_quarter = end_angle / 90;
 919:lvgl/src/lv_widgets/lv_arc.c **** 
 920:lvgl/src/lv_widgets/lv_arc.c ****     lv_coord_t left = lv_obj_get_style_pad_left(arc, LV_ARC_PART_BG);
 921:lvgl/src/lv_widgets/lv_arc.c ****     lv_coord_t right = lv_obj_get_style_pad_right(arc, LV_ARC_PART_BG);
 922:lvgl/src/lv_widgets/lv_arc.c ****     lv_coord_t top = lv_obj_get_style_pad_top(arc, LV_ARC_PART_BG);
 923:lvgl/src/lv_widgets/lv_arc.c ****     lv_coord_t bottom = lv_obj_get_style_pad_bottom(arc, LV_ARC_PART_BG);
 924:lvgl/src/lv_widgets/lv_arc.c ****     lv_coord_t rout       = (LV_MATH_MIN(lv_obj_get_width(arc) - left - right, lv_obj_get_height(ar
 925:lvgl/src/lv_widgets/lv_arc.c ****     lv_coord_t x       = arc->coords.x1 + rout + left;
 926:lvgl/src/lv_widgets/lv_arc.c ****     lv_coord_t y       = arc->coords.y1 + rout + top;
 927:lvgl/src/lv_widgets/lv_arc.c ****     lv_style_int_t w = lv_obj_get_style_line_width(arc, part);
 928:lvgl/src/lv_widgets/lv_arc.c ****     lv_style_int_t rounded = lv_obj_get_style_line_rounded(arc, part);
 929:lvgl/src/lv_widgets/lv_arc.c ****     lv_coord_t rin       = rout - w;
 930:lvgl/src/lv_widgets/lv_arc.c ****     lv_coord_t extra_area = 0;
 931:lvgl/src/lv_widgets/lv_arc.c **** 
 932:lvgl/src/lv_widgets/lv_arc.c ****     extra_area = rounded ? w / 2 + 2 : 0;
 933:lvgl/src/lv_widgets/lv_arc.c **** 
 934:lvgl/src/lv_widgets/lv_arc.c ****     if(part == LV_ARC_PART_INDIC && lv_style_list_get_style(&ext->style_knob, 0) != NULL) {
 935:lvgl/src/lv_widgets/lv_arc.c ****         lv_coord_t knob_extra_size = lv_obj_get_draw_rect_ext_pad_size(arc, LV_ARC_PART_KNOB);
 936:lvgl/src/lv_widgets/lv_arc.c **** 
 937:lvgl/src/lv_widgets/lv_arc.c ****         lv_coord_t knob_left = lv_obj_get_style_pad_left(arc, LV_ARC_PART_KNOB);
 938:lvgl/src/lv_widgets/lv_arc.c ****         lv_coord_t knob_right = lv_obj_get_style_pad_right(arc, LV_ARC_PART_KNOB);
 939:lvgl/src/lv_widgets/lv_arc.c ****         lv_coord_t knob_top = lv_obj_get_style_pad_top(arc, LV_ARC_PART_KNOB);
 940:lvgl/src/lv_widgets/lv_arc.c ****         lv_coord_t knob_bottom = lv_obj_get_style_pad_bottom(arc, LV_ARC_PART_KNOB);
 941:lvgl/src/lv_widgets/lv_arc.c **** 
 942:lvgl/src/lv_widgets/lv_arc.c ****         knob_extra_size += LV_MATH_MAX4(knob_left, knob_right, knob_top, knob_bottom);
 943:lvgl/src/lv_widgets/lv_arc.c **** 
 944:lvgl/src/lv_widgets/lv_arc.c ****         extra_area = LV_MATH_MAX(extra_area, w / 2 + 2 + knob_extra_size);
 945:lvgl/src/lv_widgets/lv_arc.c **** 
 946:lvgl/src/lv_widgets/lv_arc.c ****     }
 947:lvgl/src/lv_widgets/lv_arc.c **** 
 948:lvgl/src/lv_widgets/lv_arc.c ****     lv_area_t inv_area;
 949:lvgl/src/lv_widgets/lv_arc.c **** 
 950:lvgl/src/lv_widgets/lv_arc.c ****     if(start_quarter == end_quarter && start_angle <= end_angle) {
 951:lvgl/src/lv_widgets/lv_arc.c ****         if(start_quarter == 0) {
ARM GAS  D:\Temp\ccOOHxmt.s 			page 20


 952:lvgl/src/lv_widgets/lv_arc.c ****             inv_area.y1 = y + ((_lv_trigo_sin(start_angle) * rin) >> LV_TRIGO_SHIFT) - extra_area;
 953:lvgl/src/lv_widgets/lv_arc.c ****             inv_area.x2 = x + ((_lv_trigo_sin(start_angle + 90) * rout) >> LV_TRIGO_SHIFT) + extra_
 954:lvgl/src/lv_widgets/lv_arc.c **** 
 955:lvgl/src/lv_widgets/lv_arc.c ****             inv_area.y2 = y + ((_lv_trigo_sin(end_angle) * rout) >> LV_TRIGO_SHIFT) + extra_area;
 956:lvgl/src/lv_widgets/lv_arc.c ****             inv_area.x1 = x + ((_lv_trigo_sin(end_angle + 90) * rin) >> LV_TRIGO_SHIFT) - extra_are
 957:lvgl/src/lv_widgets/lv_arc.c **** 
 958:lvgl/src/lv_widgets/lv_arc.c ****             lv_obj_invalidate_area(arc, &inv_area);
 959:lvgl/src/lv_widgets/lv_arc.c ****         }
 960:lvgl/src/lv_widgets/lv_arc.c ****         else if(start_quarter == 1) {
 961:lvgl/src/lv_widgets/lv_arc.c ****             inv_area.y2 = y + ((_lv_trigo_sin(start_angle) * rout) >> LV_TRIGO_SHIFT) + extra_area;
 962:lvgl/src/lv_widgets/lv_arc.c ****             inv_area.x2 = x + ((_lv_trigo_sin(start_angle + 90) * rin) >> LV_TRIGO_SHIFT) + extra_a
 963:lvgl/src/lv_widgets/lv_arc.c **** 
 964:lvgl/src/lv_widgets/lv_arc.c ****             inv_area.y1 = y + ((_lv_trigo_sin(end_angle) * rin) >> LV_TRIGO_SHIFT) - extra_area;
 965:lvgl/src/lv_widgets/lv_arc.c ****             inv_area.x1 = x + ((_lv_trigo_sin(end_angle + 90) * rout) >> LV_TRIGO_SHIFT) - extra_ar
 966:lvgl/src/lv_widgets/lv_arc.c **** 
 967:lvgl/src/lv_widgets/lv_arc.c ****             lv_obj_invalidate_area(arc, &inv_area);
 968:lvgl/src/lv_widgets/lv_arc.c ****         }
 969:lvgl/src/lv_widgets/lv_arc.c ****         else if(start_quarter == 2) {
 970:lvgl/src/lv_widgets/lv_arc.c ****             inv_area.x1 = x + ((_lv_trigo_sin(start_angle + 90) * rout) >> LV_TRIGO_SHIFT) - extra_
 971:lvgl/src/lv_widgets/lv_arc.c ****             inv_area.y2 = y + ((_lv_trigo_sin(start_angle) * rin) >> LV_TRIGO_SHIFT) + extra_area;
 972:lvgl/src/lv_widgets/lv_arc.c **** 
 973:lvgl/src/lv_widgets/lv_arc.c ****             inv_area.y1 = y + ((_lv_trigo_sin(end_angle) * rout) >> LV_TRIGO_SHIFT) - extra_area;
 974:lvgl/src/lv_widgets/lv_arc.c ****             inv_area.x2 = x + ((_lv_trigo_sin(end_angle + 90) * rin) >> LV_TRIGO_SHIFT) + extra_are
 975:lvgl/src/lv_widgets/lv_arc.c **** 
 976:lvgl/src/lv_widgets/lv_arc.c ****             lv_obj_invalidate_area(arc, &inv_area);
 977:lvgl/src/lv_widgets/lv_arc.c ****         }
 978:lvgl/src/lv_widgets/lv_arc.c ****         else if(start_quarter == 3) {
 979:lvgl/src/lv_widgets/lv_arc.c ****             /*Small arc here*/
 980:lvgl/src/lv_widgets/lv_arc.c ****             inv_area.x1 = x + ((_lv_trigo_sin(start_angle + 90) * rin) >> LV_TRIGO_SHIFT) - extra_a
 981:lvgl/src/lv_widgets/lv_arc.c ****             inv_area.y1 = y + ((_lv_trigo_sin(start_angle) * rout) >> LV_TRIGO_SHIFT) - extra_area;
 982:lvgl/src/lv_widgets/lv_arc.c **** 
 983:lvgl/src/lv_widgets/lv_arc.c ****             inv_area.x2 = x + ((_lv_trigo_sin(end_angle + 90) * rout) >> LV_TRIGO_SHIFT) + extra_ar
 984:lvgl/src/lv_widgets/lv_arc.c ****             inv_area.y2 = y + ((_lv_trigo_sin(end_angle) * rin) >> LV_TRIGO_SHIFT) + extra_area;
 985:lvgl/src/lv_widgets/lv_arc.c **** 
 986:lvgl/src/lv_widgets/lv_arc.c ****             lv_obj_invalidate_area(arc, &inv_area);
 987:lvgl/src/lv_widgets/lv_arc.c ****         }
 988:lvgl/src/lv_widgets/lv_arc.c **** 
 989:lvgl/src/lv_widgets/lv_arc.c ****     }
 990:lvgl/src/lv_widgets/lv_arc.c ****     else if(start_quarter == 0 && end_quarter == 1) {
 991:lvgl/src/lv_widgets/lv_arc.c ****         inv_area.x1 = x + ((_lv_trigo_sin(end_angle + 90) * rout) >> LV_TRIGO_SHIFT) - extra_area;
 992:lvgl/src/lv_widgets/lv_arc.c ****         inv_area.y1 = y + ((LV_MATH_MIN(_lv_trigo_sin(end_angle),
 993:lvgl/src/lv_widgets/lv_arc.c ****                                         _lv_trigo_sin(start_angle))  * rin) >> LV_TRIGO_SHIFT) - ex
 994:lvgl/src/lv_widgets/lv_arc.c ****         inv_area.x2 = x + ((_lv_trigo_sin(start_angle + 90) * rout) >> LV_TRIGO_SHIFT) + extra_area
 995:lvgl/src/lv_widgets/lv_arc.c ****         inv_area.y2 = y + rout + extra_area;
 996:lvgl/src/lv_widgets/lv_arc.c ****         lv_obj_invalidate_area(arc, &inv_area);
 997:lvgl/src/lv_widgets/lv_arc.c ****     }
 998:lvgl/src/lv_widgets/lv_arc.c ****     else if(start_quarter == 1 && end_quarter == 2) {
 999:lvgl/src/lv_widgets/lv_arc.c ****         inv_area.x1 = x - rout - extra_area;
1000:lvgl/src/lv_widgets/lv_arc.c ****         inv_area.y1 = y + ((_lv_trigo_sin(end_angle) * rout) >> LV_TRIGO_SHIFT) - extra_area;
1001:lvgl/src/lv_widgets/lv_arc.c ****         inv_area.x2 = x + ((LV_MATH_MAX(_lv_trigo_sin(start_angle + 90),
1002:lvgl/src/lv_widgets/lv_arc.c ****                                         _lv_trigo_sin(end_angle + 90)) * rin) >> LV_TRIGO_SHIFT) + 
1003:lvgl/src/lv_widgets/lv_arc.c ****         inv_area.y2 = y + ((_lv_trigo_sin(start_angle) * rout) >> LV_TRIGO_SHIFT) + extra_area;
1004:lvgl/src/lv_widgets/lv_arc.c ****         lv_obj_invalidate_area(arc, &inv_area);
1005:lvgl/src/lv_widgets/lv_arc.c ****     }
1006:lvgl/src/lv_widgets/lv_arc.c ****     else if(start_quarter == 2 && end_quarter == 3) {
1007:lvgl/src/lv_widgets/lv_arc.c ****         inv_area.x1 = x + ((_lv_trigo_sin(start_angle + 90) * rout) >> LV_TRIGO_SHIFT) - extra_area
1008:lvgl/src/lv_widgets/lv_arc.c ****         inv_area.y1 = y - rout - extra_area;
ARM GAS  D:\Temp\ccOOHxmt.s 			page 21


1009:lvgl/src/lv_widgets/lv_arc.c ****         inv_area.x2 = x + ((_lv_trigo_sin(end_angle + 90) * rout) >> LV_TRIGO_SHIFT) + extra_area;
1010:lvgl/src/lv_widgets/lv_arc.c ****         inv_area.y2 = y + (LV_MATH_MAX(_lv_trigo_sin(end_angle) * rin,
1011:lvgl/src/lv_widgets/lv_arc.c ****                                        _lv_trigo_sin(start_angle) * rin) >> LV_TRIGO_SHIFT) + extra
1012:lvgl/src/lv_widgets/lv_arc.c ****         lv_obj_invalidate_area(arc, &inv_area);
1013:lvgl/src/lv_widgets/lv_arc.c ****     }
1014:lvgl/src/lv_widgets/lv_arc.c ****     else if(start_quarter == 3 && end_quarter == 0) {
1015:lvgl/src/lv_widgets/lv_arc.c ****         inv_area.x1 = x + ((LV_MATH_MIN(_lv_trigo_sin(end_angle + 90),
1016:lvgl/src/lv_widgets/lv_arc.c ****                                         _lv_trigo_sin(start_angle + 90)) * rin) >> LV_TRIGO_SHIFT) 
1017:lvgl/src/lv_widgets/lv_arc.c ****         inv_area.y1 = y + ((_lv_trigo_sin(start_angle) * rout) >> LV_TRIGO_SHIFT) - extra_area;
1018:lvgl/src/lv_widgets/lv_arc.c ****         inv_area.x2 = x + rout + extra_area;
1019:lvgl/src/lv_widgets/lv_arc.c ****         inv_area.y2 = y + ((_lv_trigo_sin(end_angle) * rout) >> LV_TRIGO_SHIFT) + extra_area;
1020:lvgl/src/lv_widgets/lv_arc.c **** 
1021:lvgl/src/lv_widgets/lv_arc.c ****         lv_obj_invalidate_area(arc, &inv_area);
1022:lvgl/src/lv_widgets/lv_arc.c ****     }
1023:lvgl/src/lv_widgets/lv_arc.c ****     else {
1024:lvgl/src/lv_widgets/lv_arc.c ****         lv_obj_invalidate(arc);
1025:lvgl/src/lv_widgets/lv_arc.c ****     }
1026:lvgl/src/lv_widgets/lv_arc.c **** }
1027:lvgl/src/lv_widgets/lv_arc.c **** 
1028:lvgl/src/lv_widgets/lv_arc.c **** static void get_center(lv_obj_t * arc, lv_point_t * center, lv_coord_t * arc_r)
1029:lvgl/src/lv_widgets/lv_arc.c **** {
 125              		.loc 1 1029 1 is_stmt 1 view -0
 126              		.cfi_startproc
 127              		@ args = 0, pretend = 0, frame = 0
 128              		@ frame_needed = 0, uses_anonymous_args = 0
 129              		.loc 1 1029 1 is_stmt 0 view .LVU29
 130 0000 2DE9F84F 		push	{r3, r4, r5, r6, r7, r8, r9, r10, fp, lr}
 131              	.LCFI1:
 132              		.cfi_def_cfa_offset 40
 133              		.cfi_offset 3, -40
 134              		.cfi_offset 4, -36
 135              		.cfi_offset 5, -32
 136              		.cfi_offset 6, -28
 137              		.cfi_offset 7, -24
 138              		.cfi_offset 8, -20
 139              		.cfi_offset 9, -16
 140              		.cfi_offset 10, -12
 141              		.cfi_offset 11, -8
 142              		.cfi_offset 14, -4
 143 0004 0446     		mov	r4, r0
 144 0006 0D46     		mov	r5, r1
 145 0008 9046     		mov	r8, r2
1030:lvgl/src/lv_widgets/lv_arc.c ****     lv_coord_t left_bg = lv_obj_get_style_pad_left(arc, LV_ARC_PART_BG);
 146              		.loc 1 1030 5 is_stmt 1 view .LVU30
 147              	.LVL12:
 148              	.LBB64:
 149              	.LBI64:
 150              		.file 2 "lvgl/src/lv_widgets/../lv_core/lv_obj_style_dec.h"
   1:lvgl/src/lv_widgets/../lv_core/lv_obj_style_dec.h **** 
   2:lvgl/src/lv_widgets/../lv_core/lv_obj_style_dec.h **** /**
   3:lvgl/src/lv_widgets/../lv_core/lv_obj_style_dec.h ****  * @file lv_obj_style_dec.h
   4:lvgl/src/lv_widgets/../lv_core/lv_obj_style_dec.h ****  *
   5:lvgl/src/lv_widgets/../lv_core/lv_obj_style_dec.h ****  */
   6:lvgl/src/lv_widgets/../lv_core/lv_obj_style_dec.h **** 
   7:lvgl/src/lv_widgets/../lv_core/lv_obj_style_dec.h **** #ifndef LV_OBJ_STYLE_DEC_H
   8:lvgl/src/lv_widgets/../lv_core/lv_obj_style_dec.h **** #define LV_OBJ_STYLE_DEC_H
   9:lvgl/src/lv_widgets/../lv_core/lv_obj_style_dec.h **** 
ARM GAS  D:\Temp\ccOOHxmt.s 			page 22


  10:lvgl/src/lv_widgets/../lv_core/lv_obj_style_dec.h **** #ifdef __cplusplus
  11:lvgl/src/lv_widgets/../lv_core/lv_obj_style_dec.h **** extern "C" {
  12:lvgl/src/lv_widgets/../lv_core/lv_obj_style_dec.h **** #endif
  13:lvgl/src/lv_widgets/../lv_core/lv_obj_style_dec.h **** 
  14:lvgl/src/lv_widgets/../lv_core/lv_obj_style_dec.h **** /*********************
  15:lvgl/src/lv_widgets/../lv_core/lv_obj_style_dec.h ****  *      DEFINES
  16:lvgl/src/lv_widgets/../lv_core/lv_obj_style_dec.h ****  *********************/
  17:lvgl/src/lv_widgets/../lv_core/lv_obj_style_dec.h **** 
  18:lvgl/src/lv_widgets/../lv_core/lv_obj_style_dec.h **** /**
  19:lvgl/src/lv_widgets/../lv_core/lv_obj_style_dec.h ****  * Macro to declare the most important style set/get API functions.
  20:lvgl/src/lv_widgets/../lv_core/lv_obj_style_dec.h ****  *
  21:lvgl/src/lv_widgets/../lv_core/lv_obj_style_dec.h ****  * Get the value of a style property from an object in the object's current state
  22:lvgl/src/lv_widgets/../lv_core/lv_obj_style_dec.h ****  * -----------------------------------------------------------------------------
  23:lvgl/src/lv_widgets/../lv_core/lv_obj_style_dec.h ****  *  - Get the value of a style property from an object in the object's current state.
  24:lvgl/src/lv_widgets/../lv_core/lv_obj_style_dec.h ****  *  - Transition animation is taken into account.
  25:lvgl/src/lv_widgets/../lv_core/lv_obj_style_dec.h ****  *  - If the property is not set in the object's styles check the parent(s) if the property can be 
  26:lvgl/src/lv_widgets/../lv_core/lv_obj_style_dec.h ****  *  - If still not found return a default value.
  27:lvgl/src/lv_widgets/../lv_core/lv_obj_style_dec.h ****  *  - For example:
  28:lvgl/src/lv_widgets/../lv_core/lv_obj_style_dec.h ****  *      `lv_style_int_t w = lv_obj_get_style_border_width(btn1, LV_BTN_PART_MAIN);`
  29:lvgl/src/lv_widgets/../lv_core/lv_obj_style_dec.h ****  *
  30:lvgl/src/lv_widgets/../lv_core/lv_obj_style_dec.h ****  * Set a local style property for an object in a given state
  31:lvgl/src/lv_widgets/../lv_core/lv_obj_style_dec.h ****  * ---------------------------------------------------------
  32:lvgl/src/lv_widgets/../lv_core/lv_obj_style_dec.h ****  *  - For example:
  33:lvgl/src/lv_widgets/../lv_core/lv_obj_style_dec.h ****  *      `lv_obj_set_style_local_border_width(btn1, LV_BTN_PART_MAIN, LV_STATE_PRESSED, 2);`
  34:lvgl/src/lv_widgets/../lv_core/lv_obj_style_dec.h ****  *
  35:lvgl/src/lv_widgets/../lv_core/lv_obj_style_dec.h ****  * Get a local style property's value of an object in a given state
  36:lvgl/src/lv_widgets/../lv_core/lv_obj_style_dec.h ****  * ----------------------------------------------------------------
  37:lvgl/src/lv_widgets/../lv_core/lv_obj_style_dec.h ****  *  - Return the best matching property in the given state.
  38:lvgl/src/lv_widgets/../lv_core/lv_obj_style_dec.h ****  *  - E.g. if `state` parameter is LV_STATE_PRESSED | LV_STATE_CHECKED` but the property defined on
  39:lvgl/src/lv_widgets/../lv_core/lv_obj_style_dec.h ****  *    `LV_STATE_PRESSED` and `LV_STATE_DEFAULT` the best matching state is `LV_STATE_PRESSED`
  40:lvgl/src/lv_widgets/../lv_core/lv_obj_style_dec.h ****  *    (because it has higher precedence) and it will be returned.
  41:lvgl/src/lv_widgets/../lv_core/lv_obj_style_dec.h ****  *  - If the property is not found even in `LV_STATE_DEFAULT` `-1` is returned.
  42:lvgl/src/lv_widgets/../lv_core/lv_obj_style_dec.h ****  *  - For example:
  43:lvgl/src/lv_widgets/../lv_core/lv_obj_style_dec.h ****  *      `//Type of result should be lv_style_int_t/lv_opa_t/lv_color_t/const void * according to th
  44:lvgl/src/lv_widgets/../lv_core/lv_obj_style_dec.h ****  *      `lv_style_int_t result;`
  45:lvgl/src/lv_widgets/../lv_core/lv_obj_style_dec.h ****  *      `lv_obj_get_style_local_border_width(btn1, LV_BTN_PART_MAIN, LV_STATE_PRESSED, &result);`
  46:lvgl/src/lv_widgets/../lv_core/lv_obj_style_dec.h ****  *      `if(weight > 0) ...the property is found and loaded into result...`
  47:lvgl/src/lv_widgets/../lv_core/lv_obj_style_dec.h ****  *
  48:lvgl/src/lv_widgets/../lv_core/lv_obj_style_dec.h ****  * Get the value from a style in a given state
  49:lvgl/src/lv_widgets/../lv_core/lv_obj_style_dec.h ****  * -------------------------------------------
  50:lvgl/src/lv_widgets/../lv_core/lv_obj_style_dec.h ****  * - The same rules applies to the return value then for "lv_obj_get_style_local_...()" above
  51:lvgl/src/lv_widgets/../lv_core/lv_obj_style_dec.h ****  * - For example
  52:lvgl/src/lv_widgets/../lv_core/lv_obj_style_dec.h ****  *      `int16_t weight = lv_style_get_border_width(&style1, LV_STATE_PRESSED, &result);`
  53:lvgl/src/lv_widgets/../lv_core/lv_obj_style_dec.h ****  *      `if(weight > 0) ...the property is found and loaded into result...`
  54:lvgl/src/lv_widgets/../lv_core/lv_obj_style_dec.h **** 
  55:lvgl/src/lv_widgets/../lv_core/lv_obj_style_dec.h ****  * Set a value in a style in a given state
  56:lvgl/src/lv_widgets/../lv_core/lv_obj_style_dec.h ****  * ---------------------------------------
  57:lvgl/src/lv_widgets/../lv_core/lv_obj_style_dec.h ****  * - For example
  58:lvgl/src/lv_widgets/../lv_core/lv_obj_style_dec.h ****  *      `lv_style_set_border_width(&style1, LV_STATE_PRESSED, 2);`
  59:lvgl/src/lv_widgets/../lv_core/lv_obj_style_dec.h ****  */
  60:lvgl/src/lv_widgets/../lv_core/lv_obj_style_dec.h **** 
  61:lvgl/src/lv_widgets/../lv_core/lv_obj_style_dec.h **** #define _OBJ_GET_STYLE_scalar(prop_name, func_name, value_type, style_type)                        
  62:lvgl/src/lv_widgets/../lv_core/lv_obj_style_dec.h ****     static inline value_type lv_obj_get_style_##func_name (const lv_obj_t * obj, uint8_t part)     
  63:lvgl/src/lv_widgets/../lv_core/lv_obj_style_dec.h ****     {                                                                                              
  64:lvgl/src/lv_widgets/../lv_core/lv_obj_style_dec.h ****         return (value_type) _lv_obj_get_style##style_type (obj, part, LV_STYLE_##prop_name);       
  65:lvgl/src/lv_widgets/../lv_core/lv_obj_style_dec.h ****     }
  66:lvgl/src/lv_widgets/../lv_core/lv_obj_style_dec.h **** 
ARM GAS  D:\Temp\ccOOHxmt.s 			page 23


  67:lvgl/src/lv_widgets/../lv_core/lv_obj_style_dec.h **** #define _OBJ_GET_STYLE_nonscalar(prop_name, func_name, value_type, style_type)                     
  68:lvgl/src/lv_widgets/../lv_core/lv_obj_style_dec.h ****     static inline value_type lv_obj_get_style_##func_name (const lv_obj_t * obj, uint8_t part)     
  69:lvgl/src/lv_widgets/../lv_core/lv_obj_style_dec.h ****     {                                                                                              
  70:lvgl/src/lv_widgets/../lv_core/lv_obj_style_dec.h ****         return _lv_obj_get_style##style_type (obj, part, LV_STYLE_##prop_name);                    
  71:lvgl/src/lv_widgets/../lv_core/lv_obj_style_dec.h ****     }
  72:lvgl/src/lv_widgets/../lv_core/lv_obj_style_dec.h **** 
  73:lvgl/src/lv_widgets/../lv_core/lv_obj_style_dec.h **** #define _OBJ_SET_STYLE_LOCAL_scalar(prop_name, func_name, value_type, style_type)                  
  74:lvgl/src/lv_widgets/../lv_core/lv_obj_style_dec.h ****     static inline void lv_obj_set_style_local_##func_name (lv_obj_t * obj, uint8_t part, lv_state_t
  75:lvgl/src/lv_widgets/../lv_core/lv_obj_style_dec.h ****     {                                                                                              
  76:lvgl/src/lv_widgets/../lv_core/lv_obj_style_dec.h ****         _lv_obj_set_style_local##style_type (obj, part, LV_STYLE_##prop_name | (state << LV_STYLE_S
  77:lvgl/src/lv_widgets/../lv_core/lv_obj_style_dec.h ****     }
  78:lvgl/src/lv_widgets/../lv_core/lv_obj_style_dec.h **** 
  79:lvgl/src/lv_widgets/../lv_core/lv_obj_style_dec.h **** #define _OBJ_SET_STYLE_LOCAL_nonscalar(prop_name, func_name, value_type, style_type)               
  80:lvgl/src/lv_widgets/../lv_core/lv_obj_style_dec.h ****     static inline void lv_obj_set_style_local_##func_name (lv_obj_t * obj, uint8_t part, lv_state_t
  81:lvgl/src/lv_widgets/../lv_core/lv_obj_style_dec.h ****     {                                                                                              
  82:lvgl/src/lv_widgets/../lv_core/lv_obj_style_dec.h ****         _lv_obj_set_style_local##style_type (obj, part, LV_STYLE_##prop_name | (state << LV_STYLE_S
  83:lvgl/src/lv_widgets/../lv_core/lv_obj_style_dec.h ****     }
  84:lvgl/src/lv_widgets/../lv_core/lv_obj_style_dec.h **** 
  85:lvgl/src/lv_widgets/../lv_core/lv_obj_style_dec.h **** #define _OBJ_SET_STYLE_scalar(prop_name, func_name, value_type, style_type)                        
  86:lvgl/src/lv_widgets/../lv_core/lv_obj_style_dec.h ****     static inline void lv_style_set_##func_name (lv_style_t * style, lv_state_t state, value_type v
  87:lvgl/src/lv_widgets/../lv_core/lv_obj_style_dec.h ****     {                                                                                              
  88:lvgl/src/lv_widgets/../lv_core/lv_obj_style_dec.h ****         _lv_style_set##style_type (style, LV_STYLE_##prop_name | (state << LV_STYLE_STATE_POS), val
  89:lvgl/src/lv_widgets/../lv_core/lv_obj_style_dec.h ****     }
  90:lvgl/src/lv_widgets/../lv_core/lv_obj_style_dec.h **** 
  91:lvgl/src/lv_widgets/../lv_core/lv_obj_style_dec.h **** #define _OBJ_SET_STYLE_nonscalar(prop_name, func_name, value_type, style_type)                     
  92:lvgl/src/lv_widgets/../lv_core/lv_obj_style_dec.h ****     static inline void lv_style_set_##func_name (lv_style_t * style, lv_state_t state, value_type v
  93:lvgl/src/lv_widgets/../lv_core/lv_obj_style_dec.h ****     {                                                                                              
  94:lvgl/src/lv_widgets/../lv_core/lv_obj_style_dec.h ****         _lv_style_set##style_type (style, LV_STYLE_##prop_name | (state << LV_STYLE_STATE_POS), val
  95:lvgl/src/lv_widgets/../lv_core/lv_obj_style_dec.h ****     }
  96:lvgl/src/lv_widgets/../lv_core/lv_obj_style_dec.h **** 
  97:lvgl/src/lv_widgets/../lv_core/lv_obj_style_dec.h **** #define _LV_OBJ_STYLE_SET_GET_DECLARE(prop_name, func_name, value_type, style_type, scalar)        
  98:lvgl/src/lv_widgets/../lv_core/lv_obj_style_dec.h ****     _OBJ_GET_STYLE_##scalar(prop_name, func_name, value_type, style_type)                          
  99:lvgl/src/lv_widgets/../lv_core/lv_obj_style_dec.h ****     _OBJ_SET_STYLE_LOCAL_##scalar(prop_name, func_name, value_type, style_type)                    
 100:lvgl/src/lv_widgets/../lv_core/lv_obj_style_dec.h ****     _OBJ_SET_STYLE_##scalar(prop_name, func_name, value_type, style_type)
 101:lvgl/src/lv_widgets/../lv_core/lv_obj_style_dec.h **** 
 102:lvgl/src/lv_widgets/../lv_core/lv_obj_style_dec.h **** _LV_OBJ_STYLE_SET_GET_DECLARE(RADIUS, radius, lv_style_int_t, _int, scalar)
 103:lvgl/src/lv_widgets/../lv_core/lv_obj_style_dec.h **** _LV_OBJ_STYLE_SET_GET_DECLARE(CLIP_CORNER, clip_corner, bool, _int, scalar)
 104:lvgl/src/lv_widgets/../lv_core/lv_obj_style_dec.h **** _LV_OBJ_STYLE_SET_GET_DECLARE(SIZE, size, lv_style_int_t, _int, scalar)
 105:lvgl/src/lv_widgets/../lv_core/lv_obj_style_dec.h **** _LV_OBJ_STYLE_SET_GET_DECLARE(TRANSFORM_WIDTH, transform_width, lv_style_int_t, _int, scalar)
 106:lvgl/src/lv_widgets/../lv_core/lv_obj_style_dec.h **** _LV_OBJ_STYLE_SET_GET_DECLARE(TRANSFORM_HEIGHT, transform_height, lv_style_int_t, _int, scalar)
 107:lvgl/src/lv_widgets/../lv_core/lv_obj_style_dec.h **** _LV_OBJ_STYLE_SET_GET_DECLARE(TRANSFORM_ANGLE, transform_angle, lv_style_int_t, _int, scalar)
 108:lvgl/src/lv_widgets/../lv_core/lv_obj_style_dec.h **** _LV_OBJ_STYLE_SET_GET_DECLARE(TRANSFORM_ZOOM, transform_zoom, lv_style_int_t, _int, scalar)
 109:lvgl/src/lv_widgets/../lv_core/lv_obj_style_dec.h **** _LV_OBJ_STYLE_SET_GET_DECLARE(OPA_SCALE, opa_scale, lv_opa_t, _opa, scalar)
 110:lvgl/src/lv_widgets/../lv_core/lv_obj_style_dec.h **** _LV_OBJ_STYLE_SET_GET_DECLARE(PAD_TOP, pad_top, lv_style_int_t, _int, scalar)
 111:lvgl/src/lv_widgets/../lv_core/lv_obj_style_dec.h **** _LV_OBJ_STYLE_SET_GET_DECLARE(PAD_BOTTOM, pad_bottom, lv_style_int_t, _int, scalar)
 112:lvgl/src/lv_widgets/../lv_core/lv_obj_style_dec.h **** _LV_OBJ_STYLE_SET_GET_DECLARE(PAD_LEFT, pad_left, lv_style_int_t, _int, scalar)
 151              		.loc 2 112 1 view .LVU31
 152              	.LBB65:
 153              		.loc 2 112 1 view .LVU32
 154 000a 1222     		movs	r2, #18
 155              	.LVL13:
 156              		.loc 2 112 1 is_stmt 0 view .LVU33
 157 000c 0021     		movs	r1, #0
 158              	.LVL14:
 159              		.loc 2 112 1 view .LVU34
 160 000e FFF7FEFF 		bl	_lv_obj_get_style_int
 161              	.LVL15:
ARM GAS  D:\Temp\ccOOHxmt.s 			page 24


 162              		.loc 2 112 1 view .LVU35
 163 0012 0746     		mov	r7, r0
 164              	.LVL16:
 165              		.loc 2 112 1 view .LVU36
 166              	.LBE65:
 167              	.LBE64:
1031:lvgl/src/lv_widgets/lv_arc.c ****     lv_coord_t right_bg = lv_obj_get_style_pad_right(arc, LV_ARC_PART_BG);
 168              		.loc 1 1031 5 is_stmt 1 view .LVU37
 169              	.LBB66:
 170              	.LBI66:
 113:lvgl/src/lv_widgets/../lv_core/lv_obj_style_dec.h **** _LV_OBJ_STYLE_SET_GET_DECLARE(PAD_RIGHT, pad_right, lv_style_int_t, _int, scalar)
 171              		.loc 2 113 1 view .LVU38
 172              	.LBB67:
 173              		.loc 2 113 1 view .LVU39
 174 0014 1322     		movs	r2, #19
 175 0016 0021     		movs	r1, #0
 176 0018 2046     		mov	r0, r4
 177 001a FFF7FEFF 		bl	_lv_obj_get_style_int
 178              	.LVL17:
 179 001e 8246     		mov	r10, r0
 180              	.LVL18:
 181              		.loc 2 113 1 is_stmt 0 view .LVU40
 182              	.LBE67:
 183              	.LBE66:
1032:lvgl/src/lv_widgets/lv_arc.c ****     lv_coord_t top_bg = lv_obj_get_style_pad_top(arc, LV_ARC_PART_BG);
 184              		.loc 1 1032 5 is_stmt 1 view .LVU41
 185              	.LBB68:
 186              	.LBI68:
 110:lvgl/src/lv_widgets/../lv_core/lv_obj_style_dec.h **** _LV_OBJ_STYLE_SET_GET_DECLARE(PAD_BOTTOM, pad_bottom, lv_style_int_t, _int, scalar)
 187              		.loc 2 110 1 view .LVU42
 188              	.LBB69:
 110:lvgl/src/lv_widgets/../lv_core/lv_obj_style_dec.h **** _LV_OBJ_STYLE_SET_GET_DECLARE(PAD_BOTTOM, pad_bottom, lv_style_int_t, _int, scalar)
 189              		.loc 2 110 1 view .LVU43
 190 0020 1022     		movs	r2, #16
 191 0022 0021     		movs	r1, #0
 192 0024 2046     		mov	r0, r4
 193 0026 FFF7FEFF 		bl	_lv_obj_get_style_int
 194              	.LVL19:
 195 002a 0646     		mov	r6, r0
 196              	.LVL20:
 110:lvgl/src/lv_widgets/../lv_core/lv_obj_style_dec.h **** _LV_OBJ_STYLE_SET_GET_DECLARE(PAD_BOTTOM, pad_bottom, lv_style_int_t, _int, scalar)
 197              		.loc 2 110 1 is_stmt 0 view .LVU44
 198              	.LBE69:
 199              	.LBE68:
1033:lvgl/src/lv_widgets/lv_arc.c ****     lv_coord_t bottom_bg = lv_obj_get_style_pad_bottom(arc, LV_ARC_PART_BG);
 200              		.loc 1 1033 5 is_stmt 1 view .LVU45
 201              	.LBB70:
 202              	.LBI70:
 111:lvgl/src/lv_widgets/../lv_core/lv_obj_style_dec.h **** _LV_OBJ_STYLE_SET_GET_DECLARE(PAD_LEFT, pad_left, lv_style_int_t, _int, scalar)
 203              		.loc 2 111 1 view .LVU46
 204              	.LBB71:
 111:lvgl/src/lv_widgets/../lv_core/lv_obj_style_dec.h **** _LV_OBJ_STYLE_SET_GET_DECLARE(PAD_LEFT, pad_left, lv_style_int_t, _int, scalar)
 205              		.loc 2 111 1 view .LVU47
 206 002c 1122     		movs	r2, #17
 207 002e 0021     		movs	r1, #0
 208 0030 2046     		mov	r0, r4
 209 0032 FFF7FEFF 		bl	_lv_obj_get_style_int
ARM GAS  D:\Temp\ccOOHxmt.s 			page 25


 210              	.LVL21:
 211 0036 8146     		mov	r9, r0
 212              	.LVL22:
 111:lvgl/src/lv_widgets/../lv_core/lv_obj_style_dec.h **** _LV_OBJ_STYLE_SET_GET_DECLARE(PAD_LEFT, pad_left, lv_style_int_t, _int, scalar)
 213              		.loc 2 111 1 is_stmt 0 view .LVU48
 214              	.LBE71:
 215              	.LBE70:
1034:lvgl/src/lv_widgets/lv_arc.c **** 
1035:lvgl/src/lv_widgets/lv_arc.c ****     lv_coord_t r = (LV_MATH_MIN(lv_obj_get_width(arc) - left_bg - right_bg,
 216              		.loc 1 1035 5 is_stmt 1 view .LVU49
 217              		.loc 1 1035 21 is_stmt 0 view .LVU50
 218 0038 2046     		mov	r0, r4
 219 003a FFF7FEFF 		bl	lv_obj_get_width
 220              	.LVL23:
 221 003e C01B     		subs	r0, r0, r7
 222 0040 A0EB0A0B 		sub	fp, r0, r10
 223 0044 2046     		mov	r0, r4
 224 0046 FFF7FEFF 		bl	lv_obj_get_height
 225              	.LVL24:
 226 004a 801B     		subs	r0, r0, r6
 227 004c A0EB0900 		sub	r0, r0, r9
 228              		.loc 1 1035 16 view .LVU51
 229 0050 8345     		cmp	fp, r0
 230 0052 1DDA     		bge	.L12
 231              		.loc 1 1035 21 discriminator 1 view .LVU52
 232 0054 2046     		mov	r0, r4
 233 0056 FFF7FEFF 		bl	lv_obj_get_width
 234              	.LVL25:
 235 005a C31B     		subs	r3, r0, r7
 236 005c A3EB0A03 		sub	r3, r3, r10
1036:lvgl/src/lv_widgets/lv_arc.c ****                                 lv_obj_get_height(arc) - top_bg - bottom_bg)) / 2;
 237              		.loc 1 1036 79 discriminator 1 view .LVU53
 238 0060 03EBD373 		add	r3, r3, r3, lsr #31
1035:lvgl/src/lv_widgets/lv_arc.c ****                                 lv_obj_get_height(arc) - top_bg - bottom_bg)) / 2;
 239              		.loc 1 1035 16 discriminator 1 view .LVU54
 240 0064 43F34F03 		sbfx	r3, r3, #1, #16
 241              	.L13:
 242              	.LVL26:
1037:lvgl/src/lv_widgets/lv_arc.c **** 
1038:lvgl/src/lv_widgets/lv_arc.c ****     *arc_r = r;
 243              		.loc 1 1038 5 is_stmt 1 discriminator 4 view .LVU55
 244              		.loc 1 1038 12 is_stmt 0 discriminator 4 view .LVU56
 245 0068 A8F80030 		strh	r3, [r8]	@ movhi
1039:lvgl/src/lv_widgets/lv_arc.c ****     center->x = arc->coords.x1 + r + left_bg;
 246              		.loc 1 1039 5 is_stmt 1 discriminator 4 view .LVU57
 247              		.loc 1 1039 28 is_stmt 0 discriminator 4 view .LVU58
 248 006c 228A     		ldrh	r2, [r4, #16]
 249              		.loc 1 1039 32 discriminator 4 view .LVU59
 250 006e 9BB2     		uxth	r3, r3
 251              	.LVL27:
 252              		.loc 1 1039 32 discriminator 4 view .LVU60
 253 0070 1A44     		add	r2, r2, r3
 254              		.loc 1 1039 36 discriminator 4 view .LVU61
 255 0072 17FA82F7 		uxtah	r7, r7, r2
 256              	.LVL28:
 257              		.loc 1 1039 15 discriminator 4 view .LVU62
 258 0076 2F80     		strh	r7, [r5]	@ movhi
ARM GAS  D:\Temp\ccOOHxmt.s 			page 26


 259              	.LVL29:
1040:lvgl/src/lv_widgets/lv_arc.c ****     center->y = arc->coords.y1 + r + top_bg;
 260              		.loc 1 1040 5 is_stmt 1 discriminator 4 view .LVU63
 261              		.loc 1 1040 28 is_stmt 0 discriminator 4 view .LVU64
 262 0078 628A     		ldrh	r2, [r4, #18]
 263              		.loc 1 1040 32 discriminator 4 view .LVU65
 264 007a 1344     		add	r3, r3, r2
 265              	.LVL30:
 266              		.loc 1 1040 36 discriminator 4 view .LVU66
 267 007c 16FA83F3 		uxtah	r3, r6, r3
 268              		.loc 1 1040 15 discriminator 4 view .LVU67
 269 0080 6B80     		strh	r3, [r5, #2]	@ movhi
1041:lvgl/src/lv_widgets/lv_arc.c **** 
1042:lvgl/src/lv_widgets/lv_arc.c ****     lv_coord_t indic_width = lv_obj_get_style_line_width(arc, LV_ARC_PART_INDIC);
 270              		.loc 1 1042 5 is_stmt 1 discriminator 4 view .LVU68
 271              	.LVL31:
 272              	.LBB72:
 273              	.LBI72:
 114:lvgl/src/lv_widgets/../lv_core/lv_obj_style_dec.h **** _LV_OBJ_STYLE_SET_GET_DECLARE(PAD_INNER, pad_inner, lv_style_int_t, _int, scalar)
 115:lvgl/src/lv_widgets/../lv_core/lv_obj_style_dec.h **** _LV_OBJ_STYLE_SET_GET_DECLARE(MARGIN_TOP, margin_top, lv_style_int_t, _int, scalar)
 116:lvgl/src/lv_widgets/../lv_core/lv_obj_style_dec.h **** _LV_OBJ_STYLE_SET_GET_DECLARE(MARGIN_BOTTOM, margin_bottom, lv_style_int_t, _int, scalar)
 117:lvgl/src/lv_widgets/../lv_core/lv_obj_style_dec.h **** _LV_OBJ_STYLE_SET_GET_DECLARE(MARGIN_LEFT, margin_left, lv_style_int_t, _int, scalar)
 118:lvgl/src/lv_widgets/../lv_core/lv_obj_style_dec.h **** _LV_OBJ_STYLE_SET_GET_DECLARE(MARGIN_RIGHT, margin_right, lv_style_int_t, _int, scalar)
 119:lvgl/src/lv_widgets/../lv_core/lv_obj_style_dec.h **** _LV_OBJ_STYLE_SET_GET_DECLARE(BG_BLEND_MODE, bg_blend_mode, lv_blend_mode_t, _int, scalar)
 120:lvgl/src/lv_widgets/../lv_core/lv_obj_style_dec.h **** _LV_OBJ_STYLE_SET_GET_DECLARE(BG_MAIN_STOP, bg_main_stop, lv_style_int_t, _int, scalar)
 121:lvgl/src/lv_widgets/../lv_core/lv_obj_style_dec.h **** _LV_OBJ_STYLE_SET_GET_DECLARE(BG_GRAD_STOP, bg_grad_stop, lv_style_int_t, _int, scalar)
 122:lvgl/src/lv_widgets/../lv_core/lv_obj_style_dec.h **** _LV_OBJ_STYLE_SET_GET_DECLARE(BG_GRAD_DIR, bg_grad_dir, lv_grad_dir_t, _int, scalar)
 123:lvgl/src/lv_widgets/../lv_core/lv_obj_style_dec.h **** _LV_OBJ_STYLE_SET_GET_DECLARE(BG_COLOR, bg_color, lv_color_t, _color, nonscalar)
 124:lvgl/src/lv_widgets/../lv_core/lv_obj_style_dec.h **** _LV_OBJ_STYLE_SET_GET_DECLARE(BG_GRAD_COLOR, bg_grad_color, lv_color_t, _color, nonscalar)
 125:lvgl/src/lv_widgets/../lv_core/lv_obj_style_dec.h **** _LV_OBJ_STYLE_SET_GET_DECLARE(BG_OPA, bg_opa, lv_opa_t, _opa, scalar)
 126:lvgl/src/lv_widgets/../lv_core/lv_obj_style_dec.h **** _LV_OBJ_STYLE_SET_GET_DECLARE(BORDER_WIDTH, border_width, lv_style_int_t, _int, scalar)
 127:lvgl/src/lv_widgets/../lv_core/lv_obj_style_dec.h **** _LV_OBJ_STYLE_SET_GET_DECLARE(BORDER_SIDE, border_side, lv_border_side_t, _int, scalar)
 128:lvgl/src/lv_widgets/../lv_core/lv_obj_style_dec.h **** _LV_OBJ_STYLE_SET_GET_DECLARE(BORDER_BLEND_MODE, border_blend_mode, lv_blend_mode_t, _int, scalar)
 129:lvgl/src/lv_widgets/../lv_core/lv_obj_style_dec.h **** _LV_OBJ_STYLE_SET_GET_DECLARE(BORDER_POST, border_post, bool, _int, scalar)
 130:lvgl/src/lv_widgets/../lv_core/lv_obj_style_dec.h **** _LV_OBJ_STYLE_SET_GET_DECLARE(BORDER_COLOR, border_color, lv_color_t, _color, nonscalar)
 131:lvgl/src/lv_widgets/../lv_core/lv_obj_style_dec.h **** _LV_OBJ_STYLE_SET_GET_DECLARE(BORDER_OPA, border_opa, lv_opa_t, _opa, scalar)
 132:lvgl/src/lv_widgets/../lv_core/lv_obj_style_dec.h **** _LV_OBJ_STYLE_SET_GET_DECLARE(OUTLINE_WIDTH, outline_width, lv_style_int_t, _int, scalar)
 133:lvgl/src/lv_widgets/../lv_core/lv_obj_style_dec.h **** _LV_OBJ_STYLE_SET_GET_DECLARE(OUTLINE_PAD, outline_pad, lv_style_int_t, _int, scalar)
 134:lvgl/src/lv_widgets/../lv_core/lv_obj_style_dec.h **** _LV_OBJ_STYLE_SET_GET_DECLARE(OUTLINE_BLEND_MODE, outline_blend_mode, lv_blend_mode_t, _int, scalar
 135:lvgl/src/lv_widgets/../lv_core/lv_obj_style_dec.h **** _LV_OBJ_STYLE_SET_GET_DECLARE(OUTLINE_COLOR, outline_color, lv_color_t, _color, nonscalar)
 136:lvgl/src/lv_widgets/../lv_core/lv_obj_style_dec.h **** _LV_OBJ_STYLE_SET_GET_DECLARE(OUTLINE_OPA, outline_opa, lv_opa_t, _opa, scalar)
 137:lvgl/src/lv_widgets/../lv_core/lv_obj_style_dec.h **** _LV_OBJ_STYLE_SET_GET_DECLARE(SHADOW_WIDTH, shadow_width, lv_style_int_t, _int, scalar)
 138:lvgl/src/lv_widgets/../lv_core/lv_obj_style_dec.h **** _LV_OBJ_STYLE_SET_GET_DECLARE(SHADOW_OFS_X, shadow_ofs_x, lv_style_int_t, _int, scalar)
 139:lvgl/src/lv_widgets/../lv_core/lv_obj_style_dec.h **** _LV_OBJ_STYLE_SET_GET_DECLARE(SHADOW_OFS_Y, shadow_ofs_y, lv_style_int_t, _int, scalar)
 140:lvgl/src/lv_widgets/../lv_core/lv_obj_style_dec.h **** _LV_OBJ_STYLE_SET_GET_DECLARE(SHADOW_SPREAD, shadow_spread, lv_style_int_t, _int, scalar)
 141:lvgl/src/lv_widgets/../lv_core/lv_obj_style_dec.h **** _LV_OBJ_STYLE_SET_GET_DECLARE(SHADOW_BLEND_MODE, shadow_blend_mode, lv_blend_mode_t, _int, scalar)
 142:lvgl/src/lv_widgets/../lv_core/lv_obj_style_dec.h **** _LV_OBJ_STYLE_SET_GET_DECLARE(SHADOW_COLOR, shadow_color, lv_color_t, _color, nonscalar)
 143:lvgl/src/lv_widgets/../lv_core/lv_obj_style_dec.h **** _LV_OBJ_STYLE_SET_GET_DECLARE(SHADOW_OPA, shadow_opa, lv_opa_t, _opa, scalar)
 144:lvgl/src/lv_widgets/../lv_core/lv_obj_style_dec.h **** _LV_OBJ_STYLE_SET_GET_DECLARE(PATTERN_REPEAT, pattern_repeat, bool, _int, scalar)
 145:lvgl/src/lv_widgets/../lv_core/lv_obj_style_dec.h **** _LV_OBJ_STYLE_SET_GET_DECLARE(PATTERN_BLEND_MODE, pattern_blend_mode, lv_blend_mode_t, _int, scalar
 146:lvgl/src/lv_widgets/../lv_core/lv_obj_style_dec.h **** _LV_OBJ_STYLE_SET_GET_DECLARE(PATTERN_RECOLOR, pattern_recolor, lv_color_t, _color, nonscalar)
 147:lvgl/src/lv_widgets/../lv_core/lv_obj_style_dec.h **** _LV_OBJ_STYLE_SET_GET_DECLARE(PATTERN_OPA, pattern_opa, lv_opa_t, _opa, scalar)
 148:lvgl/src/lv_widgets/../lv_core/lv_obj_style_dec.h **** _LV_OBJ_STYLE_SET_GET_DECLARE(PATTERN_RECOLOR_OPA, pattern_recolor_opa, lv_opa_t, _opa, scalar)
 149:lvgl/src/lv_widgets/../lv_core/lv_obj_style_dec.h **** _LV_OBJ_STYLE_SET_GET_DECLARE(PATTERN_IMAGE, pattern_image, const void *, _ptr, scalar)
 150:lvgl/src/lv_widgets/../lv_core/lv_obj_style_dec.h **** _LV_OBJ_STYLE_SET_GET_DECLARE(VALUE_LETTER_SPACE, value_letter_space, lv_style_int_t, _int, scalar)
 151:lvgl/src/lv_widgets/../lv_core/lv_obj_style_dec.h **** _LV_OBJ_STYLE_SET_GET_DECLARE(VALUE_LINE_SPACE, value_line_space, lv_style_int_t, _int, scalar)
 152:lvgl/src/lv_widgets/../lv_core/lv_obj_style_dec.h **** _LV_OBJ_STYLE_SET_GET_DECLARE(VALUE_BLEND_MODE, value_blend_mode, lv_blend_mode_t, _int, scalar)
ARM GAS  D:\Temp\ccOOHxmt.s 			page 27


 153:lvgl/src/lv_widgets/../lv_core/lv_obj_style_dec.h **** _LV_OBJ_STYLE_SET_GET_DECLARE(VALUE_OFS_X, value_ofs_x, lv_style_int_t, _int, scalar)
 154:lvgl/src/lv_widgets/../lv_core/lv_obj_style_dec.h **** _LV_OBJ_STYLE_SET_GET_DECLARE(VALUE_OFS_Y, value_ofs_y, lv_style_int_t, _int, scalar)
 155:lvgl/src/lv_widgets/../lv_core/lv_obj_style_dec.h **** _LV_OBJ_STYLE_SET_GET_DECLARE(VALUE_ALIGN, value_align, lv_align_t, _int, scalar)
 156:lvgl/src/lv_widgets/../lv_core/lv_obj_style_dec.h **** _LV_OBJ_STYLE_SET_GET_DECLARE(VALUE_COLOR, value_color, lv_color_t, _color, nonscalar)
 157:lvgl/src/lv_widgets/../lv_core/lv_obj_style_dec.h **** _LV_OBJ_STYLE_SET_GET_DECLARE(VALUE_OPA, value_opa, lv_opa_t, _opa, scalar)
 158:lvgl/src/lv_widgets/../lv_core/lv_obj_style_dec.h **** _LV_OBJ_STYLE_SET_GET_DECLARE(VALUE_FONT, value_font, const lv_font_t *, _ptr, scalar)
 159:lvgl/src/lv_widgets/../lv_core/lv_obj_style_dec.h **** _LV_OBJ_STYLE_SET_GET_DECLARE(VALUE_STR, value_str, const char *, _ptr, scalar)
 160:lvgl/src/lv_widgets/../lv_core/lv_obj_style_dec.h **** _LV_OBJ_STYLE_SET_GET_DECLARE(TEXT_LETTER_SPACE, text_letter_space, lv_style_int_t, _int, scalar)
 161:lvgl/src/lv_widgets/../lv_core/lv_obj_style_dec.h **** _LV_OBJ_STYLE_SET_GET_DECLARE(TEXT_LINE_SPACE, text_line_space, lv_style_int_t, _int, scalar)
 162:lvgl/src/lv_widgets/../lv_core/lv_obj_style_dec.h **** _LV_OBJ_STYLE_SET_GET_DECLARE(TEXT_DECOR, text_decor, lv_text_decor_t, _int, scalar)
 163:lvgl/src/lv_widgets/../lv_core/lv_obj_style_dec.h **** _LV_OBJ_STYLE_SET_GET_DECLARE(TEXT_BLEND_MODE, text_blend_mode, lv_blend_mode_t, _int, scalar)
 164:lvgl/src/lv_widgets/../lv_core/lv_obj_style_dec.h **** _LV_OBJ_STYLE_SET_GET_DECLARE(TEXT_COLOR, text_color, lv_color_t, _color, nonscalar)
 165:lvgl/src/lv_widgets/../lv_core/lv_obj_style_dec.h **** _LV_OBJ_STYLE_SET_GET_DECLARE(TEXT_SEL_COLOR, text_sel_color, lv_color_t, _color, nonscalar)
 166:lvgl/src/lv_widgets/../lv_core/lv_obj_style_dec.h **** _LV_OBJ_STYLE_SET_GET_DECLARE(TEXT_SEL_BG_COLOR, text_sel_bg_color, lv_color_t, _color, nonscalar)
 167:lvgl/src/lv_widgets/../lv_core/lv_obj_style_dec.h **** _LV_OBJ_STYLE_SET_GET_DECLARE(TEXT_OPA, text_opa, lv_opa_t, _opa, scalar)
 168:lvgl/src/lv_widgets/../lv_core/lv_obj_style_dec.h **** _LV_OBJ_STYLE_SET_GET_DECLARE(TEXT_FONT, text_font, const lv_font_t *, _ptr, scalar)
 169:lvgl/src/lv_widgets/../lv_core/lv_obj_style_dec.h **** _LV_OBJ_STYLE_SET_GET_DECLARE(LINE_WIDTH, line_width, lv_style_int_t, _int, scalar)
 274              		.loc 2 169 1 discriminator 4 view .LVU69
 275              	.LBB73:
 276              		.loc 2 169 1 discriminator 4 view .LVU70
 277 0082 9022     		movs	r2, #144
 278 0084 0121     		movs	r1, #1
 279 0086 2046     		mov	r0, r4
 280 0088 FFF7FEFF 		bl	_lv_obj_get_style_int
 281              	.LVL32:
 282              		.loc 2 169 1 is_stmt 0 discriminator 4 view .LVU71
 283              	.LBE73:
 284              	.LBE72:
1043:lvgl/src/lv_widgets/lv_arc.c ****     r -= indic_width;
 285              		.loc 1 1043 5 is_stmt 1 discriminator 4 view .LVU72
1044:lvgl/src/lv_widgets/lv_arc.c **** }
 286              		.loc 1 1044 1 is_stmt 0 discriminator 4 view .LVU73
 287 008c BDE8F88F 		pop	{r3, r4, r5, r6, r7, r8, r9, r10, fp, pc}
 288              	.LVL33:
 289              	.L12:
1035:lvgl/src/lv_widgets/lv_arc.c ****                                 lv_obj_get_height(arc) - top_bg - bottom_bg)) / 2;
 290              		.loc 1 1035 21 discriminator 2 view .LVU74
 291 0090 2046     		mov	r0, r4
 292 0092 FFF7FEFF 		bl	lv_obj_get_height
 293              	.LVL34:
 294 0096 831B     		subs	r3, r0, r6
 295 0098 A3EB0903 		sub	r3, r3, r9
1036:lvgl/src/lv_widgets/lv_arc.c **** 
 296              		.loc 1 1036 79 discriminator 2 view .LVU75
 297 009c 03EBD373 		add	r3, r3, r3, lsr #31
1035:lvgl/src/lv_widgets/lv_arc.c ****                                 lv_obj_get_height(arc) - top_bg - bottom_bg)) / 2;
 298              		.loc 1 1035 16 discriminator 2 view .LVU76
 299 00a0 43F34F03 		sbfx	r3, r3, #1, #16
 300 00a4 E0E7     		b	.L13
 301              		.cfi_endproc
 302              	.LFE485:
 304              		.section	.text.get_knob_area,"ax",%progbits
 305              		.align	1
 306              		.syntax unified
 307              		.thumb
 308              		.thumb_func
 309              		.fpu fpv4-sp-d16
ARM GAS  D:\Temp\ccOOHxmt.s 			page 28


 311              	get_knob_area:
 312              	.LVL35:
 313              	.LFB486:
1045:lvgl/src/lv_widgets/lv_arc.c **** 
1046:lvgl/src/lv_widgets/lv_arc.c **** static void get_knob_area(lv_obj_t * arc, const lv_point_t * center, lv_coord_t r, lv_area_t * knob
1047:lvgl/src/lv_widgets/lv_arc.c **** {
 314              		.loc 1 1047 1 is_stmt 1 view -0
 315              		.cfi_startproc
 316              		@ args = 0, pretend = 0, frame = 8
 317              		@ frame_needed = 0, uses_anonymous_args = 0
 318              		.loc 1 1047 1 is_stmt 0 view .LVU78
 319 0000 2DE9F04F 		push	{r4, r5, r6, r7, r8, r9, r10, fp, lr}
 320              	.LCFI2:
 321              		.cfi_def_cfa_offset 36
 322              		.cfi_offset 4, -36
 323              		.cfi_offset 5, -32
 324              		.cfi_offset 6, -28
 325              		.cfi_offset 7, -24
 326              		.cfi_offset 8, -20
 327              		.cfi_offset 9, -16
 328              		.cfi_offset 10, -12
 329              		.cfi_offset 11, -8
 330              		.cfi_offset 14, -4
 331 0004 83B0     		sub	sp, sp, #12
 332              	.LCFI3:
 333              		.cfi_def_cfa_offset 48
 334 0006 0546     		mov	r5, r0
 335 0008 0190     		str	r0, [sp, #4]
 336 000a 8846     		mov	r8, r1
 337 000c 9146     		mov	r9, r2
 338 000e 1F46     		mov	r7, r3
1048:lvgl/src/lv_widgets/lv_arc.c ****     lv_arc_ext_t * ext = lv_obj_get_ext_attr(arc);
 339              		.loc 1 1048 5 is_stmt 1 view .LVU79
 340              		.loc 1 1048 26 is_stmt 0 view .LVU80
 341 0010 FFF7FEFF 		bl	lv_obj_get_ext_attr
 342              	.LVL36:
 343              		.loc 1 1048 26 view .LVU81
 344 0014 0446     		mov	r4, r0
 345              	.LVL37:
1049:lvgl/src/lv_widgets/lv_arc.c **** 
1050:lvgl/src/lv_widgets/lv_arc.c ****     lv_coord_t indic_width = lv_obj_get_style_line_width(arc, LV_ARC_PART_INDIC);
 346              		.loc 1 1050 5 is_stmt 1 view .LVU82
 347              	.LBB74:
 348              	.LBI74:
 349              		.loc 2 169 1 view .LVU83
 350              	.LBB75:
 351              		.loc 2 169 1 view .LVU84
 352 0016 9022     		movs	r2, #144
 353 0018 0121     		movs	r1, #1
 354 001a 2846     		mov	r0, r5
 355              	.LVL38:
 356              		.loc 2 169 1 is_stmt 0 view .LVU85
 357 001c FFF7FEFF 		bl	_lv_obj_get_style_int
 358              	.LVL39:
 359              		.loc 2 169 1 view .LVU86
 360              	.LBE75:
 361              	.LBE74:
ARM GAS  D:\Temp\ccOOHxmt.s 			page 29


1051:lvgl/src/lv_widgets/lv_arc.c ****     lv_coord_t indic_width_half = indic_width / 2;
 362              		.loc 1 1051 5 is_stmt 1 view .LVU87
 363              		.loc 1 1051 16 is_stmt 0 view .LVU88
 364 0020 00EBD070 		add	r0, r0, r0, lsr #31
 365              	.LVL40:
1052:lvgl/src/lv_widgets/lv_arc.c ****     r -= indic_width_half;
 366              		.loc 1 1052 5 is_stmt 1 view .LVU89
 367              		.loc 1 1052 7 is_stmt 0 view .LVU90
 368 0024 C0F34F05 		ubfx	r5, r0, #1, #16
 369              	.LVL41:
 370              		.loc 1 1052 7 view .LVU91
 371 0028 A9EB0509 		sub	r9, r9, r5
 372 002c 0FFA89F9 		sxth	r9, r9
 373              	.LVL42:
1053:lvgl/src/lv_widgets/lv_arc.c **** 
1054:lvgl/src/lv_widgets/lv_arc.c ****     uint16_t angle = ext->rotation_angle;
 374              		.loc 1 1054 5 is_stmt 1 view .LVU92
 375              		.loc 1 1054 14 is_stmt 0 view .LVU93
 376 0030 B4F800A0 		ldrh	r10, [r4]
 377              	.LVL43:
1055:lvgl/src/lv_widgets/lv_arc.c ****     if(ext->type == LV_ARC_TYPE_NORMAL) {
 378              		.loc 1 1055 5 is_stmt 1 view .LVU94
 379              		.loc 1 1055 18 is_stmt 0 view .LVU95
 380 0034 94F82230 		ldrb	r3, [r4, #34]	@ zero_extendqisi2
 381              		.loc 1 1055 7 view .LVU96
 382 0038 13F00603 		ands	r3, r3, #6
 383 003c 5BD1     		bne	.L16
1056:lvgl/src/lv_widgets/lv_arc.c ****         angle += ext->arc_angle_end;
 384              		.loc 1 1056 9 is_stmt 1 view .LVU97
 385              		.loc 1 1056 21 is_stmt 0 view .LVU98
 386 003e A388     		ldrh	r3, [r4, #4]
 387              		.loc 1 1056 15 view .LVU99
 388 0040 9A44     		add	r10, r10, r3
 389              	.LVL44:
 390              		.loc 1 1056 15 view .LVU100
 391 0042 1FFA8AFA 		uxth	r10, r10
 392              	.LVL45:
 393              	.L17:
1057:lvgl/src/lv_widgets/lv_arc.c ****     }
1058:lvgl/src/lv_widgets/lv_arc.c ****     else if(ext->type == LV_ARC_TYPE_REVERSE) {
1059:lvgl/src/lv_widgets/lv_arc.c ****         angle += ext->arc_angle_start;
1060:lvgl/src/lv_widgets/lv_arc.c ****     }
1061:lvgl/src/lv_widgets/lv_arc.c ****     else if(ext->type == LV_ARC_TYPE_SYMMETRIC) {
1062:lvgl/src/lv_widgets/lv_arc.c ****         int32_t range_midpoint = (int32_t)(ext->min_value + ext->max_value) / 2;
1063:lvgl/src/lv_widgets/lv_arc.c ****         if(ext->cur_value < range_midpoint) angle += ext->arc_angle_start;
1064:lvgl/src/lv_widgets/lv_arc.c ****         else angle += ext->arc_angle_end;
1065:lvgl/src/lv_widgets/lv_arc.c ****     }
1066:lvgl/src/lv_widgets/lv_arc.c ****     lv_coord_t knob_x = (r * _lv_trigo_sin(angle + 90)) >> LV_TRIGO_SHIFT;
 394              		.loc 1 1066 5 is_stmt 1 view .LVU101
 395              		.loc 1 1066 50 is_stmt 0 view .LVU102
 396 0046 0AF15A00 		add	r0, r10, #90
 397              	.LVL46:
 398              		.loc 1 1066 30 view .LVU103
 399 004a 00B2     		sxth	r0, r0
 400 004c FFF7FEFF 		bl	_lv_trigo_sin
 401              	.LVL47:
 402              		.loc 1 1066 28 view .LVU104
ARM GAS  D:\Temp\ccOOHxmt.s 			page 30


 403 0050 00FB09F0 		mul	r0, r0, r9
 404              		.loc 1 1066 57 view .LVU105
 405 0054 C413     		asrs	r4, r0, #15
 406              	.LVL48:
1067:lvgl/src/lv_widgets/lv_arc.c ****     lv_coord_t knob_y = (r * _lv_trigo_sin(angle)) >> LV_TRIGO_SHIFT;
 407              		.loc 1 1067 5 is_stmt 1 view .LVU106
 408              		.loc 1 1067 30 is_stmt 0 view .LVU107
 409 0056 0FFA8AF0 		sxth	r0, r10
 410 005a FFF7FEFF 		bl	_lv_trigo_sin
 411              	.LVL49:
 412              		.loc 1 1067 28 view .LVU108
 413 005e 00FB09F0 		mul	r0, r0, r9
 414              		.loc 1 1067 52 view .LVU109
 415 0062 C613     		asrs	r6, r0, #15
 416              	.LVL50:
1068:lvgl/src/lv_widgets/lv_arc.c **** 
1069:lvgl/src/lv_widgets/lv_arc.c ****     lv_coord_t left_knob = lv_obj_get_style_pad_left(arc, LV_ARC_PART_KNOB);
 417              		.loc 1 1069 5 is_stmt 1 view .LVU110
 418              	.LBB76:
 419              	.LBI76:
 112:lvgl/src/lv_widgets/../lv_core/lv_obj_style_dec.h **** _LV_OBJ_STYLE_SET_GET_DECLARE(PAD_RIGHT, pad_right, lv_style_int_t, _int, scalar)
 420              		.loc 2 112 1 view .LVU111
 421              	.LBB77:
 112:lvgl/src/lv_widgets/../lv_core/lv_obj_style_dec.h **** _LV_OBJ_STYLE_SET_GET_DECLARE(PAD_RIGHT, pad_right, lv_style_int_t, _int, scalar)
 422              		.loc 2 112 1 view .LVU112
 423 0064 1222     		movs	r2, #18
 424 0066 0221     		movs	r1, #2
 425 0068 DDF80490 		ldr	r9, [sp, #4]
 426              	.LVL51:
 112:lvgl/src/lv_widgets/../lv_core/lv_obj_style_dec.h **** _LV_OBJ_STYLE_SET_GET_DECLARE(PAD_RIGHT, pad_right, lv_style_int_t, _int, scalar)
 427              		.loc 2 112 1 is_stmt 0 view .LVU113
 428 006c 4846     		mov	r0, r9
 429 006e FFF7FEFF 		bl	_lv_obj_get_style_int
 430              	.LVL52:
 431 0072 8346     		mov	fp, r0
 432              	.LVL53:
 112:lvgl/src/lv_widgets/../lv_core/lv_obj_style_dec.h **** _LV_OBJ_STYLE_SET_GET_DECLARE(PAD_RIGHT, pad_right, lv_style_int_t, _int, scalar)
 433              		.loc 2 112 1 view .LVU114
 434              	.LBE77:
 435              	.LBE76:
1070:lvgl/src/lv_widgets/lv_arc.c ****     lv_coord_t right_knob = lv_obj_get_style_pad_right(arc, LV_ARC_PART_KNOB);
 436              		.loc 1 1070 5 is_stmt 1 view .LVU115
 437              	.LBB78:
 438              	.LBI78:
 113:lvgl/src/lv_widgets/../lv_core/lv_obj_style_dec.h **** _LV_OBJ_STYLE_SET_GET_DECLARE(PAD_INNER, pad_inner, lv_style_int_t, _int, scalar)
 439              		.loc 2 113 1 view .LVU116
 440              	.LBB79:
 113:lvgl/src/lv_widgets/../lv_core/lv_obj_style_dec.h **** _LV_OBJ_STYLE_SET_GET_DECLARE(PAD_INNER, pad_inner, lv_style_int_t, _int, scalar)
 441              		.loc 2 113 1 view .LVU117
 442 0074 1322     		movs	r2, #19
 443 0076 0221     		movs	r1, #2
 444 0078 4846     		mov	r0, r9
 445 007a FFF7FEFF 		bl	_lv_obj_get_style_int
 446              	.LVL54:
 447 007e 8246     		mov	r10, r0
 448              	.LVL55:
 113:lvgl/src/lv_widgets/../lv_core/lv_obj_style_dec.h **** _LV_OBJ_STYLE_SET_GET_DECLARE(PAD_INNER, pad_inner, lv_style_int_t, _int, scalar)
ARM GAS  D:\Temp\ccOOHxmt.s 			page 31


 449              		.loc 2 113 1 is_stmt 0 view .LVU118
 450              	.LBE79:
 451              	.LBE78:
1071:lvgl/src/lv_widgets/lv_arc.c ****     lv_coord_t top_knob = lv_obj_get_style_pad_top(arc, LV_ARC_PART_KNOB);
 452              		.loc 1 1071 5 is_stmt 1 view .LVU119
 453              	.LBB80:
 454              	.LBI80:
 110:lvgl/src/lv_widgets/../lv_core/lv_obj_style_dec.h **** _LV_OBJ_STYLE_SET_GET_DECLARE(PAD_BOTTOM, pad_bottom, lv_style_int_t, _int, scalar)
 455              		.loc 2 110 1 view .LVU120
 456              	.LBB81:
 110:lvgl/src/lv_widgets/../lv_core/lv_obj_style_dec.h **** _LV_OBJ_STYLE_SET_GET_DECLARE(PAD_BOTTOM, pad_bottom, lv_style_int_t, _int, scalar)
 457              		.loc 2 110 1 view .LVU121
 458 0080 1022     		movs	r2, #16
 459 0082 0221     		movs	r1, #2
 460 0084 CDF80490 		str	r9, [sp, #4]
 461              	.LVL56:
 110:lvgl/src/lv_widgets/../lv_core/lv_obj_style_dec.h **** _LV_OBJ_STYLE_SET_GET_DECLARE(PAD_BOTTOM, pad_bottom, lv_style_int_t, _int, scalar)
 462              		.loc 2 110 1 is_stmt 0 view .LVU122
 463 0088 4846     		mov	r0, r9
 464 008a FFF7FEFF 		bl	_lv_obj_get_style_int
 465              	.LVL57:
 466 008e 8146     		mov	r9, r0
 467              	.LVL58:
 110:lvgl/src/lv_widgets/../lv_core/lv_obj_style_dec.h **** _LV_OBJ_STYLE_SET_GET_DECLARE(PAD_BOTTOM, pad_bottom, lv_style_int_t, _int, scalar)
 468              		.loc 2 110 1 view .LVU123
 469              	.LBE81:
 470              	.LBE80:
1072:lvgl/src/lv_widgets/lv_arc.c ****     lv_coord_t bottom_knob = lv_obj_get_style_pad_bottom(arc, LV_ARC_PART_KNOB);
 471              		.loc 1 1072 5 is_stmt 1 view .LVU124
 472              	.LBB82:
 473              	.LBI82:
 111:lvgl/src/lv_widgets/../lv_core/lv_obj_style_dec.h **** _LV_OBJ_STYLE_SET_GET_DECLARE(PAD_LEFT, pad_left, lv_style_int_t, _int, scalar)
 474              		.loc 2 111 1 view .LVU125
 475              	.LBB83:
 111:lvgl/src/lv_widgets/../lv_core/lv_obj_style_dec.h **** _LV_OBJ_STYLE_SET_GET_DECLARE(PAD_LEFT, pad_left, lv_style_int_t, _int, scalar)
 476              		.loc 2 111 1 view .LVU126
 477 0090 1122     		movs	r2, #17
 478 0092 0221     		movs	r1, #2
 479 0094 0198     		ldr	r0, [sp, #4]
 480 0096 FFF7FEFF 		bl	_lv_obj_get_style_int
 481              	.LVL59:
 111:lvgl/src/lv_widgets/../lv_core/lv_obj_style_dec.h **** _LV_OBJ_STYLE_SET_GET_DECLARE(PAD_LEFT, pad_left, lv_style_int_t, _int, scalar)
 482              		.loc 2 111 1 is_stmt 0 view .LVU127
 483              	.LBE83:
 484              	.LBE82:
1073:lvgl/src/lv_widgets/lv_arc.c **** 
1074:lvgl/src/lv_widgets/lv_arc.c ****     knob_area->x1 = center->x + knob_x - left_knob - indic_width_half;
 485              		.loc 1 1074 5 is_stmt 1 view .LVU128
 486              		.loc 1 1074 27 is_stmt 0 view .LVU129
 487 009a B8F80030 		ldrh	r3, [r8]
 488              		.loc 1 1074 31 view .LVU130
 489 009e A4B2     		uxth	r4, r4
 490              		.loc 1 1074 31 view .LVU131
 491 00a0 2344     		add	r3, r3, r4
 492 00a2 9BB2     		uxth	r3, r3
 493              		.loc 1 1074 40 view .LVU132
 494 00a4 A3EB0B0B 		sub	fp, r3, fp
ARM GAS  D:\Temp\ccOOHxmt.s 			page 32


 495              	.LVL60:
 496              		.loc 1 1074 40 view .LVU133
 497 00a8 1FFA8BFB 		uxth	fp, fp
 498              		.loc 1 1074 52 view .LVU134
 499 00ac ABEB050B 		sub	fp, fp, r5
 500              		.loc 1 1074 19 view .LVU135
 501 00b0 A7F800B0 		strh	fp, [r7]	@ movhi
1075:lvgl/src/lv_widgets/lv_arc.c ****     knob_area->x2 = center->x + knob_x + right_knob + indic_width_half;
 502              		.loc 1 1075 5 is_stmt 1 view .LVU136
 503              		.loc 1 1075 27 is_stmt 0 view .LVU137
 504 00b4 B8F80030 		ldrh	r3, [r8]
 505              		.loc 1 1075 31 view .LVU138
 506 00b8 1C44     		add	r4, r4, r3
 507              	.LVL61:
 508              		.loc 1 1075 40 view .LVU139
 509 00ba 1AFA84FA 		uxtah	r10, r10, r4
 510              	.LVL62:
 511              		.loc 1 1075 53 view .LVU140
 512 00be 15FA8AFA 		uxtah	r10, r5, r10
 513              		.loc 1 1075 19 view .LVU141
 514 00c2 A7F804A0 		strh	r10, [r7, #4]	@ movhi
1076:lvgl/src/lv_widgets/lv_arc.c ****     knob_area->y1 = center->y + knob_y - top_knob - indic_width_half;
 515              		.loc 1 1076 5 is_stmt 1 view .LVU142
 516              		.loc 1 1076 27 is_stmt 0 view .LVU143
 517 00c6 B8F80230 		ldrh	r3, [r8, #2]
 518              		.loc 1 1076 31 view .LVU144
 519 00ca B2B2     		uxth	r2, r6
 520 00cc 1344     		add	r3, r3, r2
 521 00ce 9BB2     		uxth	r3, r3
 522              		.loc 1 1076 40 view .LVU145
 523 00d0 A3EB0909 		sub	r9, r3, r9
 524              	.LVL63:
 525              		.loc 1 1076 40 view .LVU146
 526 00d4 1FFA89F9 		uxth	r9, r9
 527              		.loc 1 1076 51 view .LVU147
 528 00d8 A9EB0509 		sub	r9, r9, r5
 529              		.loc 1 1076 19 view .LVU148
 530 00dc A7F80290 		strh	r9, [r7, #2]	@ movhi
1077:lvgl/src/lv_widgets/lv_arc.c ****     knob_area->y2 = center->y + knob_y + bottom_knob + indic_width_half;
 531              		.loc 1 1077 5 is_stmt 1 view .LVU149
 532              		.loc 1 1077 27 is_stmt 0 view .LVU150
 533 00e0 B8F80230 		ldrh	r3, [r8, #2]
 534              		.loc 1 1077 31 view .LVU151
 535 00e4 1A44     		add	r2, r2, r3
 536              		.loc 1 1077 40 view .LVU152
 537 00e6 10FA82F2 		uxtah	r2, r0, r2
 538              		.loc 1 1077 54 view .LVU153
 539 00ea 15FA82F5 		uxtah	r5, r5, r2
 540              		.loc 1 1077 19 view .LVU154
 541 00ee FD80     		strh	r5, [r7, #6]	@ movhi
1078:lvgl/src/lv_widgets/lv_arc.c **** }
 542              		.loc 1 1078 1 view .LVU155
 543 00f0 03B0     		add	sp, sp, #12
 544              	.LCFI4:
 545              		.cfi_remember_state
 546              		.cfi_def_cfa_offset 36
 547              		@ sp needed
ARM GAS  D:\Temp\ccOOHxmt.s 			page 33


 548 00f2 BDE8F08F 		pop	{r4, r5, r6, r7, r8, r9, r10, fp, pc}
 549              	.LVL64:
 550              	.L16:
 551              	.LCFI5:
 552              		.cfi_restore_state
1058:lvgl/src/lv_widgets/lv_arc.c ****         angle += ext->arc_angle_start;
 553              		.loc 1 1058 10 is_stmt 1 view .LVU156
1058:lvgl/src/lv_widgets/lv_arc.c ****         angle += ext->arc_angle_start;
 554              		.loc 1 1058 12 is_stmt 0 view .LVU157
 555 00f6 042B     		cmp	r3, #4
 556 00f8 12D0     		beq	.L21
1061:lvgl/src/lv_widgets/lv_arc.c ****         int32_t range_midpoint = (int32_t)(ext->min_value + ext->max_value) / 2;
 557              		.loc 1 1061 10 is_stmt 1 view .LVU158
1061:lvgl/src/lv_widgets/lv_arc.c ****         int32_t range_midpoint = (int32_t)(ext->min_value + ext->max_value) / 2;
 558              		.loc 1 1061 12 is_stmt 0 view .LVU159
 559 00fa 022B     		cmp	r3, #2
 560 00fc A3D1     		bne	.L17
 561              	.LBB84:
1062:lvgl/src/lv_widgets/lv_arc.c ****         if(ext->cur_value < range_midpoint) angle += ext->arc_angle_start;
 562              		.loc 1 1062 9 is_stmt 1 view .LVU160
1062:lvgl/src/lv_widgets/lv_arc.c ****         if(ext->cur_value < range_midpoint) angle += ext->arc_angle_start;
 563              		.loc 1 1062 47 is_stmt 0 view .LVU161
 564 00fe B4F91E30 		ldrsh	r3, [r4, #30]
1062:lvgl/src/lv_widgets/lv_arc.c ****         if(ext->cur_value < range_midpoint) angle += ext->arc_angle_start;
 565              		.loc 1 1062 64 view .LVU162
 566 0102 B4F92020 		ldrsh	r2, [r4, #32]
1062:lvgl/src/lv_widgets/lv_arc.c ****         if(ext->cur_value < range_midpoint) angle += ext->arc_angle_start;
 567              		.loc 1 1062 59 view .LVU163
 568 0106 1344     		add	r3, r3, r2
1062:lvgl/src/lv_widgets/lv_arc.c ****         if(ext->cur_value < range_midpoint) angle += ext->arc_angle_start;
 569              		.loc 1 1062 17 view .LVU164
 570 0108 03EBD373 		add	r3, r3, r3, lsr #31
 571              	.LVL65:
1063:lvgl/src/lv_widgets/lv_arc.c ****         else angle += ext->arc_angle_end;
 572              		.loc 1 1063 9 is_stmt 1 view .LVU165
1063:lvgl/src/lv_widgets/lv_arc.c ****         else angle += ext->arc_angle_end;
 573              		.loc 1 1063 15 is_stmt 0 view .LVU166
 574 010c B4F91C20 		ldrsh	r2, [r4, #28]
1063:lvgl/src/lv_widgets/lv_arc.c ****         else angle += ext->arc_angle_end;
 575              		.loc 1 1063 11 view .LVU167
 576 0110 B2EB630F 		cmp	r2, r3, asr #1
 577 0114 09DA     		bge	.L19
1063:lvgl/src/lv_widgets/lv_arc.c ****         else angle += ext->arc_angle_end;
 578              		.loc 1 1063 45 is_stmt 1 discriminator 1 view .LVU168
1063:lvgl/src/lv_widgets/lv_arc.c ****         else angle += ext->arc_angle_end;
 579              		.loc 1 1063 57 is_stmt 0 discriminator 1 view .LVU169
 580 0116 6388     		ldrh	r3, [r4, #2]
 581              	.LVL66:
1063:lvgl/src/lv_widgets/lv_arc.c ****         else angle += ext->arc_angle_end;
 582              		.loc 1 1063 51 discriminator 1 view .LVU170
 583 0118 9A44     		add	r10, r10, r3
 584              	.LVL67:
1063:lvgl/src/lv_widgets/lv_arc.c ****         else angle += ext->arc_angle_end;
 585              		.loc 1 1063 51 discriminator 1 view .LVU171
 586 011a 1FFA8AFA 		uxth	r10, r10
 587              	.LVL68:
1063:lvgl/src/lv_widgets/lv_arc.c ****         else angle += ext->arc_angle_end;
ARM GAS  D:\Temp\ccOOHxmt.s 			page 34


 588              		.loc 1 1063 51 discriminator 1 view .LVU172
 589 011e 92E7     		b	.L17
 590              	.LVL69:
 591              	.L21:
1063:lvgl/src/lv_widgets/lv_arc.c ****         else angle += ext->arc_angle_end;
 592              		.loc 1 1063 51 discriminator 1 view .LVU173
 593              	.LBE84:
1059:lvgl/src/lv_widgets/lv_arc.c ****     }
 594              		.loc 1 1059 9 is_stmt 1 view .LVU174
1059:lvgl/src/lv_widgets/lv_arc.c ****     }
 595              		.loc 1 1059 21 is_stmt 0 view .LVU175
 596 0120 6388     		ldrh	r3, [r4, #2]
1059:lvgl/src/lv_widgets/lv_arc.c ****     }
 597              		.loc 1 1059 15 view .LVU176
 598 0122 9A44     		add	r10, r10, r3
 599              	.LVL70:
1059:lvgl/src/lv_widgets/lv_arc.c ****     }
 600              		.loc 1 1059 15 view .LVU177
 601 0124 1FFA8AFA 		uxth	r10, r10
 602              	.LVL71:
1059:lvgl/src/lv_widgets/lv_arc.c ****     }
 603              		.loc 1 1059 15 view .LVU178
 604 0128 8DE7     		b	.L17
 605              	.LVL72:
 606              	.L19:
 607              	.LBB85:
1064:lvgl/src/lv_widgets/lv_arc.c ****     }
 608              		.loc 1 1064 14 is_stmt 1 view .LVU179
1064:lvgl/src/lv_widgets/lv_arc.c ****     }
 609              		.loc 1 1064 26 is_stmt 0 view .LVU180
 610 012a A388     		ldrh	r3, [r4, #4]
 611              	.LVL73:
1064:lvgl/src/lv_widgets/lv_arc.c ****     }
 612              		.loc 1 1064 20 view .LVU181
 613 012c 9A44     		add	r10, r10, r3
 614              	.LVL74:
1064:lvgl/src/lv_widgets/lv_arc.c ****     }
 615              		.loc 1 1064 20 view .LVU182
 616 012e 1FFA8AFA 		uxth	r10, r10
 617              	.LVL75:
1064:lvgl/src/lv_widgets/lv_arc.c ****     }
 618              		.loc 1 1064 20 view .LVU183
 619 0132 88E7     		b	.L17
 620              	.LBE85:
 621              		.cfi_endproc
 622              	.LFE486:
 624              		.section	.text.lv_arc_design,"ax",%progbits
 625              		.align	1
 626              		.syntax unified
 627              		.thumb
 628              		.thumb_func
 629              		.fpu fpv4-sp-d16
 631              	lv_arc_design:
 632              	.LVL76:
 633              	.LFB481:
 631:lvgl/src/lv_widgets/lv_arc.c ****     /*Return false if the object is not covers the mask_p area*/
 634              		.loc 1 631 1 is_stmt 1 view -0
ARM GAS  D:\Temp\ccOOHxmt.s 			page 35


 635              		.cfi_startproc
 636              		@ args = 0, pretend = 0, frame = 200
 637              		@ frame_needed = 0, uses_anonymous_args = 0
 633:lvgl/src/lv_widgets/lv_arc.c ****         return LV_DESIGN_RES_NOT_COVER;
 638              		.loc 1 633 5 view .LVU185
 633:lvgl/src/lv_widgets/lv_arc.c ****         return LV_DESIGN_RES_NOT_COVER;
 639              		.loc 1 633 7 is_stmt 0 view .LVU186
 640 0000 022A     		cmp	r2, #2
 641 0002 00F0A580 		beq	.L27
 637:lvgl/src/lv_widgets/lv_arc.c ****         lv_arc_ext_t * ext       = lv_obj_get_ext_attr(arc);
 642              		.loc 1 637 10 is_stmt 1 view .LVU187
 637:lvgl/src/lv_widgets/lv_arc.c ****         lv_arc_ext_t * ext       = lv_obj_get_ext_attr(arc);
 643              		.loc 1 637 12 is_stmt 0 view .LVU188
 644 0006 0AB1     		cbz	r2, .L33
 693:lvgl/src/lv_widgets/lv_arc.c **** }
 645              		.loc 1 693 12 view .LVU189
 646 0008 0020     		movs	r0, #0
 647              	.LVL77:
 694:lvgl/src/lv_widgets/lv_arc.c **** 
 648              		.loc 1 694 1 view .LVU190
 649 000a 7047     		bx	lr
 650              	.LVL78:
 651              	.L33:
 631:lvgl/src/lv_widgets/lv_arc.c ****     /*Return false if the object is not covers the mask_p area*/
 652              		.loc 1 631 1 view .LVU191
 653 000c 2DE9F043 		push	{r4, r5, r6, r7, r8, r9, lr}
 654              	.LCFI6:
 655              		.cfi_def_cfa_offset 28
 656              		.cfi_offset 4, -28
 657              		.cfi_offset 5, -24
 658              		.cfi_offset 6, -20
 659              		.cfi_offset 7, -16
 660              		.cfi_offset 8, -12
 661              		.cfi_offset 9, -8
 662              		.cfi_offset 14, -4
 663 0010 B7B0     		sub	sp, sp, #220
 664              	.LCFI7:
 665              		.cfi_def_cfa_offset 248
 666 0012 0E46     		mov	r6, r1
 667 0014 0446     		mov	r4, r0
 668              	.LBB86:
 638:lvgl/src/lv_widgets/lv_arc.c **** 
 669              		.loc 1 638 9 is_stmt 1 view .LVU192
 638:lvgl/src/lv_widgets/lv_arc.c **** 
 670              		.loc 1 638 36 is_stmt 0 view .LVU193
 671 0016 FFF7FEFF 		bl	lv_obj_get_ext_attr
 672              	.LVL79:
 638:lvgl/src/lv_widgets/lv_arc.c **** 
 673              		.loc 1 638 36 view .LVU194
 674 001a 0746     		mov	r7, r0
 675              	.LVL80:
 640:lvgl/src/lv_widgets/lv_arc.c ****         lv_draw_rect_dsc_init(&bg_dsc);
 676              		.loc 1 640 9 is_stmt 1 view .LVU195
 641:lvgl/src/lv_widgets/lv_arc.c ****         lv_obj_init_draw_rect_dsc(arc, LV_ARC_PART_BG, &bg_dsc);
 677              		.loc 1 641 9 view .LVU196
 678 001c 0CA8     		add	r0, sp, #48
 679              	.LVL81:
ARM GAS  D:\Temp\ccOOHxmt.s 			page 36


 641:lvgl/src/lv_widgets/lv_arc.c ****         lv_obj_init_draw_rect_dsc(arc, LV_ARC_PART_BG, &bg_dsc);
 680              		.loc 1 641 9 is_stmt 0 view .LVU197
 681 001e FFF7FEFF 		bl	lv_draw_rect_dsc_init
 682              	.LVL82:
 642:lvgl/src/lv_widgets/lv_arc.c **** 
 683              		.loc 1 642 9 is_stmt 1 view .LVU198
 684 0022 0CAA     		add	r2, sp, #48
 685 0024 0021     		movs	r1, #0
 686 0026 2046     		mov	r0, r4
 687 0028 FFF7FEFF 		bl	lv_obj_init_draw_rect_dsc
 688              	.LVL83:
 644:lvgl/src/lv_widgets/lv_arc.c **** 
 689              		.loc 1 644 9 view .LVU199
 690 002c 0CAA     		add	r2, sp, #48
 691 002e 3146     		mov	r1, r6
 692 0030 04F11000 		add	r0, r4, #16
 693 0034 FFF7FEFF 		bl	lv_draw_rect
 694              	.LVL84:
 646:lvgl/src/lv_widgets/lv_arc.c ****         lv_coord_t arc_r;
 695              		.loc 1 646 9 view .LVU200
 647:lvgl/src/lv_widgets/lv_arc.c ****         get_center(arc, &center, &arc_r);
 696              		.loc 1 647 9 view .LVU201
 648:lvgl/src/lv_widgets/lv_arc.c **** 
 697              		.loc 1 648 9 view .LVU202
 698 0038 0DF11602 		add	r2, sp, #22
 699 003c 06A9     		add	r1, sp, #24
 700 003e 2046     		mov	r0, r4
 701 0040 FFF7FEFF 		bl	get_center
 702              	.LVL85:
 651:lvgl/src/lv_widgets/lv_arc.c ****         if(arc_r > 0) {
 703              		.loc 1 651 9 view .LVU203
 652:lvgl/src/lv_widgets/lv_arc.c ****             lv_draw_line_dsc_init(&arc_dsc);
 704              		.loc 1 652 9 view .LVU204
 652:lvgl/src/lv_widgets/lv_arc.c ****             lv_draw_line_dsc_init(&arc_dsc);
 705              		.loc 1 652 18 is_stmt 0 view .LVU205
 706 0044 BDF91630 		ldrsh	r3, [sp, #22]
 652:lvgl/src/lv_widgets/lv_arc.c ****             lv_draw_line_dsc_init(&arc_dsc);
 707              		.loc 1 652 11 view .LVU206
 708 0048 002B     		cmp	r3, #0
 709 004a 33DC     		bgt	.L34
 710              	.L24:
 662:lvgl/src/lv_widgets/lv_arc.c ****         lv_coord_t right_indic = lv_obj_get_style_pad_right(arc, LV_ARC_PART_INDIC);
 711              		.loc 1 662 9 is_stmt 1 view .LVU207
 712              	.LVL86:
 713              	.LBB87:
 714              	.LBI87:
 112:lvgl/src/lv_widgets/../lv_core/lv_obj_style_dec.h **** _LV_OBJ_STYLE_SET_GET_DECLARE(PAD_RIGHT, pad_right, lv_style_int_t, _int, scalar)
 715              		.loc 2 112 1 view .LVU208
 716              	.LBB88:
 112:lvgl/src/lv_widgets/../lv_core/lv_obj_style_dec.h **** _LV_OBJ_STYLE_SET_GET_DECLARE(PAD_RIGHT, pad_right, lv_style_int_t, _int, scalar)
 717              		.loc 2 112 1 view .LVU209
 718 004c 1222     		movs	r2, #18
 719 004e 0121     		movs	r1, #1
 720 0050 2046     		mov	r0, r4
 721 0052 FFF7FEFF 		bl	_lv_obj_get_style_int
 722              	.LVL87:
 723 0056 8146     		mov	r9, r0
ARM GAS  D:\Temp\ccOOHxmt.s 			page 37


 724              	.LVL88:
 112:lvgl/src/lv_widgets/../lv_core/lv_obj_style_dec.h **** _LV_OBJ_STYLE_SET_GET_DECLARE(PAD_RIGHT, pad_right, lv_style_int_t, _int, scalar)
 725              		.loc 2 112 1 is_stmt 0 view .LVU210
 726              	.LBE88:
 727              	.LBE87:
 663:lvgl/src/lv_widgets/lv_arc.c ****         lv_coord_t top_indic = lv_obj_get_style_pad_top(arc, LV_ARC_PART_INDIC);
 728              		.loc 1 663 9 is_stmt 1 view .LVU211
 729              	.LBB89:
 730              	.LBI89:
 113:lvgl/src/lv_widgets/../lv_core/lv_obj_style_dec.h **** _LV_OBJ_STYLE_SET_GET_DECLARE(PAD_INNER, pad_inner, lv_style_int_t, _int, scalar)
 731              		.loc 2 113 1 view .LVU212
 732              	.LBB90:
 113:lvgl/src/lv_widgets/../lv_core/lv_obj_style_dec.h **** _LV_OBJ_STYLE_SET_GET_DECLARE(PAD_INNER, pad_inner, lv_style_int_t, _int, scalar)
 733              		.loc 2 113 1 view .LVU213
 734 0058 1322     		movs	r2, #19
 735 005a 0121     		movs	r1, #1
 736 005c 2046     		mov	r0, r4
 737 005e FFF7FEFF 		bl	_lv_obj_get_style_int
 738              	.LVL89:
 739 0062 8046     		mov	r8, r0
 740              	.LVL90:
 113:lvgl/src/lv_widgets/../lv_core/lv_obj_style_dec.h **** _LV_OBJ_STYLE_SET_GET_DECLARE(PAD_INNER, pad_inner, lv_style_int_t, _int, scalar)
 741              		.loc 2 113 1 is_stmt 0 view .LVU214
 742              	.LBE90:
 743              	.LBE89:
 664:lvgl/src/lv_widgets/lv_arc.c ****         lv_coord_t bottom_indic = lv_obj_get_style_pad_bottom(arc, LV_ARC_PART_INDIC);
 744              		.loc 1 664 9 is_stmt 1 view .LVU215
 745              	.LBB91:
 746              	.LBI91:
 110:lvgl/src/lv_widgets/../lv_core/lv_obj_style_dec.h **** _LV_OBJ_STYLE_SET_GET_DECLARE(PAD_BOTTOM, pad_bottom, lv_style_int_t, _int, scalar)
 747              		.loc 2 110 1 view .LVU216
 748              	.LBB92:
 110:lvgl/src/lv_widgets/../lv_core/lv_obj_style_dec.h **** _LV_OBJ_STYLE_SET_GET_DECLARE(PAD_BOTTOM, pad_bottom, lv_style_int_t, _int, scalar)
 749              		.loc 2 110 1 view .LVU217
 750 0064 1022     		movs	r2, #16
 751 0066 0121     		movs	r1, #1
 752 0068 2046     		mov	r0, r4
 753 006a FFF7FEFF 		bl	_lv_obj_get_style_int
 754              	.LVL91:
 755 006e 0546     		mov	r5, r0
 756              	.LVL92:
 110:lvgl/src/lv_widgets/../lv_core/lv_obj_style_dec.h **** _LV_OBJ_STYLE_SET_GET_DECLARE(PAD_BOTTOM, pad_bottom, lv_style_int_t, _int, scalar)
 757              		.loc 2 110 1 is_stmt 0 view .LVU218
 758              	.LBE92:
 759              	.LBE91:
 665:lvgl/src/lv_widgets/lv_arc.c ****         lv_coord_t indic_r = arc_r - LV_MATH_MAX4(left_indic, right_indic, top_indic, bottom_indic)
 760              		.loc 1 665 9 is_stmt 1 view .LVU219
 761              	.LBB93:
 762              	.LBI93:
 111:lvgl/src/lv_widgets/../lv_core/lv_obj_style_dec.h **** _LV_OBJ_STYLE_SET_GET_DECLARE(PAD_LEFT, pad_left, lv_style_int_t, _int, scalar)
 763              		.loc 2 111 1 view .LVU220
 764              	.LBB94:
 111:lvgl/src/lv_widgets/../lv_core/lv_obj_style_dec.h **** _LV_OBJ_STYLE_SET_GET_DECLARE(PAD_LEFT, pad_left, lv_style_int_t, _int, scalar)
 765              		.loc 2 111 1 view .LVU221
 766 0070 1122     		movs	r2, #17
 767 0072 0121     		movs	r1, #1
 768 0074 2046     		mov	r0, r4
ARM GAS  D:\Temp\ccOOHxmt.s 			page 38


 769 0076 FFF7FEFF 		bl	_lv_obj_get_style_int
 770              	.LVL93:
 111:lvgl/src/lv_widgets/../lv_core/lv_obj_style_dec.h **** _LV_OBJ_STYLE_SET_GET_DECLARE(PAD_LEFT, pad_left, lv_style_int_t, _int, scalar)
 771              		.loc 2 111 1 is_stmt 0 view .LVU222
 772              	.LBE94:
 773              	.LBE93:
 666:lvgl/src/lv_widgets/lv_arc.c **** 
 774              		.loc 1 666 9 is_stmt 1 view .LVU223
 666:lvgl/src/lv_widgets/lv_arc.c **** 
 775              		.loc 1 666 38 is_stmt 0 view .LVU224
 776 007a A842     		cmp	r0, r5
 777 007c B8BF     		it	lt
 778 007e 2846     		movlt	r0, r5
 779              	.LVL94:
 666:lvgl/src/lv_widgets/lv_arc.c **** 
 780              		.loc 1 666 38 view .LVU225
 781 0080 00B2     		sxth	r0, r0
 782 0082 C845     		cmp	r8, r9
 783 0084 B8BF     		it	lt
 784 0086 C846     		movlt	r8, r9
 785              	.LVL95:
 666:lvgl/src/lv_widgets/lv_arc.c **** 
 786              		.loc 1 666 38 view .LVU226
 787 0088 0FFA88F5 		sxth	r5, r8
 788              	.LVL96:
 666:lvgl/src/lv_widgets/lv_arc.c **** 
 789              		.loc 1 666 38 view .LVU227
 790 008c A842     		cmp	r0, r5
 791 008e B8BF     		it	lt
 792 0090 2846     		movlt	r0, r5
 793 0092 80B2     		uxth	r0, r0
 666:lvgl/src/lv_widgets/lv_arc.c **** 
 794              		.loc 1 666 36 view .LVU228
 795 0094 BDF81650 		ldrh	r5, [sp, #22]
 796 0098 281A     		subs	r0, r5, r0
 797 009a 85B2     		uxth	r5, r0
 666:lvgl/src/lv_widgets/lv_arc.c **** 
 798              		.loc 1 666 20 view .LVU229
 799 009c 2BB2     		sxth	r3, r5
 800              	.LVL97:
 668:lvgl/src/lv_widgets/lv_arc.c ****             lv_draw_line_dsc_init(&arc_dsc);
 801              		.loc 1 668 9 is_stmt 1 view .LVU230
 668:lvgl/src/lv_widgets/lv_arc.c ****             lv_draw_line_dsc_init(&arc_dsc);
 802              		.loc 1 668 11 is_stmt 0 view .LVU231
 803 009e 002B     		cmp	r3, #0
 804 00a0 24DC     		bgt	.L35
 805              	.LVL98:
 806              	.L25:
 677:lvgl/src/lv_widgets/lv_arc.c ****             lv_area_t knob_area;
 807              		.loc 1 677 9 is_stmt 1 view .LVU232
 677:lvgl/src/lv_widgets/lv_arc.c ****             lv_area_t knob_area;
 808              		.loc 1 677 12 is_stmt 0 view .LVU233
 809 00a2 97F82230 		ldrb	r3, [r7, #34]	@ zero_extendqisi2
 677:lvgl/src/lv_widgets/lv_arc.c ****             lv_area_t knob_area;
 810              		.loc 1 677 11 view .LVU234
 811 00a6 13F0080F 		tst	r3, #8
 812 00aa 3CD1     		bne	.L36
ARM GAS  D:\Temp\ccOOHxmt.s 			page 39


 813              	.L26:
 814              	.LBE86:
 693:lvgl/src/lv_widgets/lv_arc.c **** }
 815              		.loc 1 693 12 discriminator 1 view .LVU235
 816 00ac 0020     		movs	r0, #0
 694:lvgl/src/lv_widgets/lv_arc.c **** 
 817              		.loc 1 694 1 discriminator 1 view .LVU236
 818 00ae 37B0     		add	sp, sp, #220
 819              	.LCFI8:
 820              		.cfi_remember_state
 821              		.cfi_def_cfa_offset 28
 822              		@ sp needed
 823 00b0 BDE8F083 		pop	{r4, r5, r6, r7, r8, r9, pc}
 824              	.LVL99:
 825              	.L34:
 826              	.LCFI9:
 827              		.cfi_restore_state
 828              	.LBB96:
 653:lvgl/src/lv_widgets/lv_arc.c ****             lv_obj_init_draw_line_dsc(arc, LV_ARC_PART_BG, &arc_dsc);
 829              		.loc 1 653 13 is_stmt 1 view .LVU237
 830 00b4 09AD     		add	r5, sp, #36
 831 00b6 2846     		mov	r0, r5
 832 00b8 FFF7FEFF 		bl	lv_draw_line_dsc_init
 833              	.LVL100:
 654:lvgl/src/lv_widgets/lv_arc.c **** 
 834              		.loc 1 654 13 view .LVU238
 835 00bc 2A46     		mov	r2, r5
 836 00be 0021     		movs	r1, #0
 837 00c0 2046     		mov	r0, r4
 838 00c2 FFF7FEFF 		bl	lv_obj_init_draw_line_dsc
 839              	.LVL101:
 656:lvgl/src/lv_widgets/lv_arc.c ****                         ext->bg_angle_end + ext->rotation_angle, clip_area,
 840              		.loc 1 656 13 view .LVU239
 656:lvgl/src/lv_widgets/lv_arc.c ****                         ext->bg_angle_end + ext->rotation_angle, clip_area,
 841              		.loc 1 656 55 is_stmt 0 view .LVU240
 842 00c6 FB88     		ldrh	r3, [r7, #6]
 656:lvgl/src/lv_widgets/lv_arc.c ****                         ext->bg_angle_end + ext->rotation_angle, clip_area,
 843              		.loc 1 656 77 view .LVU241
 844 00c8 3A88     		ldrh	r2, [r7]
 657:lvgl/src/lv_widgets/lv_arc.c ****                         &arc_dsc);
 845              		.loc 1 657 28 view .LVU242
 846 00ca 3989     		ldrh	r1, [r7, #8]
 656:lvgl/src/lv_widgets/lv_arc.c ****                         ext->bg_angle_end + ext->rotation_angle, clip_area,
 847              		.loc 1 656 13 view .LVU243
 848 00cc 1344     		add	r3, r3, r2
 849 00ce 0295     		str	r5, [sp, #8]
 850 00d0 0196     		str	r6, [sp, #4]
 851 00d2 0A44     		add	r2, r2, r1
 852 00d4 92B2     		uxth	r2, r2
 853 00d6 0092     		str	r2, [sp]
 854 00d8 9BB2     		uxth	r3, r3
 855 00da BDF81620 		ldrh	r2, [sp, #22]
 856 00de BDF91A10 		ldrsh	r1, [sp, #26]
 857 00e2 BDF91800 		ldrsh	r0, [sp, #24]
 858 00e6 FFF7FEFF 		bl	lv_draw_arc
 859              	.LVL102:
 860 00ea AFE7     		b	.L24
ARM GAS  D:\Temp\ccOOHxmt.s 			page 40


 861              	.LVL103:
 862              	.L35:
 669:lvgl/src/lv_widgets/lv_arc.c ****             lv_obj_init_draw_line_dsc(arc, LV_ARC_PART_INDIC, &arc_dsc);
 863              		.loc 1 669 13 is_stmt 1 view .LVU244
 864 00ec 0DF12408 		add	r8, sp, #36
 865 00f0 4046     		mov	r0, r8
 866 00f2 FFF7FEFF 		bl	lv_draw_line_dsc_init
 867              	.LVL104:
 670:lvgl/src/lv_widgets/lv_arc.c **** 
 868              		.loc 1 670 13 view .LVU245
 869 00f6 4246     		mov	r2, r8
 870 00f8 0121     		movs	r1, #1
 871 00fa 2046     		mov	r0, r4
 872 00fc FFF7FEFF 		bl	lv_obj_init_draw_line_dsc
 873              	.LVL105:
 672:lvgl/src/lv_widgets/lv_arc.c ****                         ext->arc_angle_end + ext->rotation_angle, clip_area,
 874              		.loc 1 672 13 view .LVU246
 672:lvgl/src/lv_widgets/lv_arc.c ****                         ext->arc_angle_end + ext->rotation_angle, clip_area,
 875              		.loc 1 672 57 is_stmt 0 view .LVU247
 876 0100 7B88     		ldrh	r3, [r7, #2]
 672:lvgl/src/lv_widgets/lv_arc.c ****                         ext->arc_angle_end + ext->rotation_angle, clip_area,
 877              		.loc 1 672 80 view .LVU248
 878 0102 3A88     		ldrh	r2, [r7]
 673:lvgl/src/lv_widgets/lv_arc.c ****                         &arc_dsc);
 879              		.loc 1 673 28 view .LVU249
 880 0104 B988     		ldrh	r1, [r7, #4]
 672:lvgl/src/lv_widgets/lv_arc.c ****                         ext->arc_angle_end + ext->rotation_angle, clip_area,
 881              		.loc 1 672 13 view .LVU250
 882 0106 1344     		add	r3, r3, r2
 883 0108 CDF80880 		str	r8, [sp, #8]
 884 010c 0196     		str	r6, [sp, #4]
 885 010e 0A44     		add	r2, r2, r1
 886 0110 92B2     		uxth	r2, r2
 887 0112 0092     		str	r2, [sp]
 888 0114 9BB2     		uxth	r3, r3
 889 0116 2A46     		mov	r2, r5
 890 0118 BDF91A10 		ldrsh	r1, [sp, #26]
 891 011c BDF91800 		ldrsh	r0, [sp, #24]
 892 0120 FFF7FEFF 		bl	lv_draw_arc
 893              	.LVL106:
 894 0124 BDE7     		b	.L25
 895              	.L36:
 896              	.LBB95:
 678:lvgl/src/lv_widgets/lv_arc.c ****             get_knob_area(arc, &center, arc_r, &knob_area);
 897              		.loc 1 678 13 is_stmt 1 view .LVU251
 679:lvgl/src/lv_widgets/lv_arc.c **** 
 898              		.loc 1 679 13 view .LVU252
 899 0126 07AB     		add	r3, sp, #28
 900 0128 BDF91620 		ldrsh	r2, [sp, #22]
 901 012c 06A9     		add	r1, sp, #24
 902 012e 2046     		mov	r0, r4
 903 0130 FFF7FEFF 		bl	get_knob_area
 904              	.LVL107:
 681:lvgl/src/lv_widgets/lv_arc.c ****             lv_draw_rect_dsc_init(&knob_rect_dsc);
 905              		.loc 1 681 13 view .LVU253
 682:lvgl/src/lv_widgets/lv_arc.c ****             lv_obj_init_draw_rect_dsc(arc, LV_ARC_PART_KNOB, &knob_rect_dsc);
 906              		.loc 1 682 13 view .LVU254
ARM GAS  D:\Temp\ccOOHxmt.s 			page 41


 907 0134 21A8     		add	r0, sp, #132
 908 0136 FFF7FEFF 		bl	lv_draw_rect_dsc_init
 909              	.LVL108:
 683:lvgl/src/lv_widgets/lv_arc.c **** 
 910              		.loc 1 683 13 view .LVU255
 911 013a 21AA     		add	r2, sp, #132
 912 013c 0221     		movs	r1, #2
 913 013e 2046     		mov	r0, r4
 914 0140 FFF7FEFF 		bl	lv_obj_init_draw_rect_dsc
 915              	.LVL109:
 685:lvgl/src/lv_widgets/lv_arc.c ****         }
 916              		.loc 1 685 13 view .LVU256
 917 0144 21AA     		add	r2, sp, #132
 918 0146 3146     		mov	r1, r6
 919 0148 07A8     		add	r0, sp, #28
 920 014a FFF7FEFF 		bl	lv_draw_rect
 921              	.LVL110:
 922 014e ADE7     		b	.L26
 923              	.LVL111:
 924              	.L27:
 925              	.LCFI10:
 926              		.cfi_def_cfa_offset 0
 927              		.cfi_restore 4
 928              		.cfi_restore 5
 929              		.cfi_restore 6
 930              		.cfi_restore 7
 931              		.cfi_restore 8
 932              		.cfi_restore 9
 933              		.cfi_restore 14
 685:lvgl/src/lv_widgets/lv_arc.c ****         }
 934              		.loc 1 685 13 is_stmt 0 view .LVU257
 935              	.LBE95:
 936              	.LBE96:
 634:lvgl/src/lv_widgets/lv_arc.c ****     }
 937              		.loc 1 634 16 view .LVU258
 938 0150 0220     		movs	r0, #2
 939              	.LVL112:
 634:lvgl/src/lv_widgets/lv_arc.c ****     }
 940              		.loc 1 634 16 view .LVU259
 941 0152 7047     		bx	lr
 942              		.cfi_endproc
 943              	.LFE481:
 945              		.section	.text.inv_arc_area,"ax",%progbits
 946              		.align	1
 947              		.syntax unified
 948              		.thumb
 949              		.thumb_func
 950              		.fpu fpv4-sp-d16
 952              	inv_arc_area:
 953              	.LVL113:
 954              	.LFB484:
 905:lvgl/src/lv_widgets/lv_arc.c ****     /*Skip this complicated invalidation if the arc is not visible*/
 955              		.loc 1 905 1 is_stmt 1 view -0
 956              		.cfi_startproc
 957              		@ args = 0, pretend = 0, frame = 40
 958              		@ frame_needed = 0, uses_anonymous_args = 0
 905:lvgl/src/lv_widgets/lv_arc.c ****     /*Skip this complicated invalidation if the arc is not visible*/
ARM GAS  D:\Temp\ccOOHxmt.s 			page 42


 959              		.loc 1 905 1 is_stmt 0 view .LVU261
 960 0000 2DE9F04F 		push	{r4, r5, r6, r7, r8, r9, r10, fp, lr}
 961              	.LCFI11:
 962              		.cfi_def_cfa_offset 36
 963              		.cfi_offset 4, -36
 964              		.cfi_offset 5, -32
 965              		.cfi_offset 6, -28
 966              		.cfi_offset 7, -24
 967              		.cfi_offset 8, -20
 968              		.cfi_offset 9, -16
 969              		.cfi_offset 10, -12
 970              		.cfi_offset 11, -8
 971              		.cfi_offset 14, -4
 972 0004 8BB0     		sub	sp, sp, #44
 973              	.LCFI12:
 974              		.cfi_def_cfa_offset 80
 975 0006 0446     		mov	r4, r0
 976 0008 0090     		str	r0, [sp]
 977 000a 0E46     		mov	r6, r1
 978 000c 1746     		mov	r7, r2
 979 000e 0193     		str	r3, [sp, #4]
 907:lvgl/src/lv_widgets/lv_arc.c **** 
 980              		.loc 1 907 5 is_stmt 1 view .LVU262
 907:lvgl/src/lv_widgets/lv_arc.c **** 
 981              		.loc 1 907 8 is_stmt 0 view .LVU263
 982 0010 FFF7FEFF 		bl	lv_obj_is_visible
 983              	.LVL114:
 907:lvgl/src/lv_widgets/lv_arc.c **** 
 984              		.loc 1 907 7 view .LVU264
 985 0014 10B9     		cbnz	r0, .L67
 986              	.LVL115:
 987              	.L37:
1026:lvgl/src/lv_widgets/lv_arc.c **** 
 988              		.loc 1 1026 1 view .LVU265
 989 0016 0BB0     		add	sp, sp, #44
 990              	.LCFI13:
 991              		.cfi_remember_state
 992              		.cfi_def_cfa_offset 36
 993              		@ sp needed
 994 0018 BDE8F08F 		pop	{r4, r5, r6, r7, r8, r9, r10, fp, pc}
 995              	.LVL116:
 996              	.L67:
 997              	.LCFI14:
 998              		.cfi_restore_state
 909:lvgl/src/lv_widgets/lv_arc.c **** 
 999              		.loc 1 909 5 is_stmt 1 view .LVU266
 909:lvgl/src/lv_widgets/lv_arc.c **** 
 1000              		.loc 1 909 26 is_stmt 0 view .LVU267
 1001 001c 2046     		mov	r0, r4
 1002 001e FFF7FEFF 		bl	lv_obj_get_ext_attr
 1003              	.LVL117:
 1004 0022 0390     		str	r0, [sp, #12]
 1005              	.LVL118:
 911:lvgl/src/lv_widgets/lv_arc.c ****     end_angle += ext->rotation_angle;
 1006              		.loc 1 911 5 is_stmt 1 view .LVU268
 911:lvgl/src/lv_widgets/lv_arc.c ****     end_angle += ext->rotation_angle;
 1007              		.loc 1 911 23 is_stmt 0 view .LVU269
ARM GAS  D:\Temp\ccOOHxmt.s 			page 43


 1008 0024 0088     		ldrh	r0, [r0]
 1009              	.LVL119:
 911:lvgl/src/lv_widgets/lv_arc.c ****     end_angle += ext->rotation_angle;
 1010              		.loc 1 911 17 view .LVU270
 1011 0026 0644     		add	r6, r6, r0
 1012 0028 1FFA86F9 		uxth	r9, r6
 1013              	.LVL120:
 912:lvgl/src/lv_widgets/lv_arc.c **** 
 1014              		.loc 1 912 5 is_stmt 1 view .LVU271
 912:lvgl/src/lv_widgets/lv_arc.c **** 
 1015              		.loc 1 912 15 is_stmt 0 view .LVU272
 1016 002c 3844     		add	r0, r0, r7
 1017 002e 85B2     		uxth	r5, r0
 1018              	.LVL121:
 914:lvgl/src/lv_widgets/lv_arc.c ****     if(end_angle >= 360) end_angle -= 360;
 1019              		.loc 1 914 5 is_stmt 1 view .LVU273
 914:lvgl/src/lv_widgets/lv_arc.c ****     if(end_angle >= 360) end_angle -= 360;
 1020              		.loc 1 914 7 is_stmt 0 view .LVU274
 1021 0030 B9F5B47F 		cmp	r9, #360
 1022 0034 03D3     		bcc	.L40
 914:lvgl/src/lv_widgets/lv_arc.c ****     if(end_angle >= 360) end_angle -= 360;
 1023              		.loc 1 914 28 is_stmt 1 discriminator 1 view .LVU275
 914:lvgl/src/lv_widgets/lv_arc.c ****     if(end_angle >= 360) end_angle -= 360;
 1024              		.loc 1 914 40 is_stmt 0 discriminator 1 view .LVU276
 1025 0036 A9F5B470 		sub	r0, r9, #360
 1026 003a 1FFA80F9 		uxth	r9, r0
 1027              	.LVL122:
 1028              	.L40:
 915:lvgl/src/lv_widgets/lv_arc.c **** 
 1029              		.loc 1 915 5 is_stmt 1 view .LVU277
 915:lvgl/src/lv_widgets/lv_arc.c **** 
 1030              		.loc 1 915 7 is_stmt 0 view .LVU278
 1031 003e B5F5B47F 		cmp	r5, #360
 1032 0042 02D3     		bcc	.L41
 915:lvgl/src/lv_widgets/lv_arc.c **** 
 1033              		.loc 1 915 26 is_stmt 1 discriminator 1 view .LVU279
 915:lvgl/src/lv_widgets/lv_arc.c **** 
 1034              		.loc 1 915 36 is_stmt 0 discriminator 1 view .LVU280
 1035 0044 A5F5B470 		sub	r0, r5, #360
 1036 0048 85B2     		uxth	r5, r0
 1037              	.LVL123:
 1038              	.L41:
 917:lvgl/src/lv_widgets/lv_arc.c ****     uint8_t end_quarter = end_angle / 90;
 1039              		.loc 1 917 5 is_stmt 1 view .LVU281
 917:lvgl/src/lv_widgets/lv_arc.c ****     uint8_t end_quarter = end_angle / 90;
 1040              		.loc 1 917 13 is_stmt 0 view .LVU282
 1041 004a 4FEA5902 		lsr	r2, r9, #1
 1042 004e B149     		ldr	r1, .L77
 1043 0050 A1FB0232 		umull	r3, r2, r1, r2
 1044 0054 C2F34714 		ubfx	r4, r2, #5, #8
 1045              	.LVL124:
 918:lvgl/src/lv_widgets/lv_arc.c **** 
 1046              		.loc 1 918 5 is_stmt 1 view .LVU283
 918:lvgl/src/lv_widgets/lv_arc.c **** 
 1047              		.loc 1 918 13 is_stmt 0 view .LVU284
 1048 0058 6B08     		lsrs	r3, r5, #1
 1049 005a A1FB0323 		umull	r2, r3, r1, r3
ARM GAS  D:\Temp\ccOOHxmt.s 			page 44


 1050 005e C3F34713 		ubfx	r3, r3, #5, #8
 1051 0062 0293     		str	r3, [sp, #8]
 1052              	.LVL125:
 920:lvgl/src/lv_widgets/lv_arc.c ****     lv_coord_t right = lv_obj_get_style_pad_right(arc, LV_ARC_PART_BG);
 1053              		.loc 1 920 5 is_stmt 1 view .LVU285
 1054              	.LBB97:
 1055              	.LBI97:
 112:lvgl/src/lv_widgets/../lv_core/lv_obj_style_dec.h **** _LV_OBJ_STYLE_SET_GET_DECLARE(PAD_RIGHT, pad_right, lv_style_int_t, _int, scalar)
 1056              		.loc 2 112 1 view .LVU286
 1057              	.LBB98:
 112:lvgl/src/lv_widgets/../lv_core/lv_obj_style_dec.h **** _LV_OBJ_STYLE_SET_GET_DECLARE(PAD_RIGHT, pad_right, lv_style_int_t, _int, scalar)
 1058              		.loc 2 112 1 view .LVU287
 1059 0064 1222     		movs	r2, #18
 1060 0066 0021     		movs	r1, #0
 1061 0068 009E     		ldr	r6, [sp]
 1062 006a 3046     		mov	r0, r6
 1063 006c FFF7FEFF 		bl	_lv_obj_get_style_int
 1064              	.LVL126:
 1065 0070 8046     		mov	r8, r0
 1066              	.LVL127:
 112:lvgl/src/lv_widgets/../lv_core/lv_obj_style_dec.h **** _LV_OBJ_STYLE_SET_GET_DECLARE(PAD_RIGHT, pad_right, lv_style_int_t, _int, scalar)
 1067              		.loc 2 112 1 is_stmt 0 view .LVU288
 1068              	.LBE98:
 1069              	.LBE97:
 921:lvgl/src/lv_widgets/lv_arc.c ****     lv_coord_t top = lv_obj_get_style_pad_top(arc, LV_ARC_PART_BG);
 1070              		.loc 1 921 5 is_stmt 1 view .LVU289
 1071              	.LBB99:
 1072              	.LBI99:
 113:lvgl/src/lv_widgets/../lv_core/lv_obj_style_dec.h **** _LV_OBJ_STYLE_SET_GET_DECLARE(PAD_INNER, pad_inner, lv_style_int_t, _int, scalar)
 1073              		.loc 2 113 1 view .LVU290
 1074              	.LBB100:
 113:lvgl/src/lv_widgets/../lv_core/lv_obj_style_dec.h **** _LV_OBJ_STYLE_SET_GET_DECLARE(PAD_INNER, pad_inner, lv_style_int_t, _int, scalar)
 1075              		.loc 2 113 1 view .LVU291
 1076 0072 1322     		movs	r2, #19
 1077 0074 0021     		movs	r1, #0
 1078 0076 3046     		mov	r0, r6
 1079 0078 FFF7FEFF 		bl	_lv_obj_get_style_int
 1080              	.LVL128:
 1081 007c 8346     		mov	fp, r0
 1082              	.LVL129:
 113:lvgl/src/lv_widgets/../lv_core/lv_obj_style_dec.h **** _LV_OBJ_STYLE_SET_GET_DECLARE(PAD_INNER, pad_inner, lv_style_int_t, _int, scalar)
 1083              		.loc 2 113 1 is_stmt 0 view .LVU292
 1084              	.LBE100:
 1085              	.LBE99:
 922:lvgl/src/lv_widgets/lv_arc.c ****     lv_coord_t bottom = lv_obj_get_style_pad_bottom(arc, LV_ARC_PART_BG);
 1086              		.loc 1 922 5 is_stmt 1 view .LVU293
 1087              	.LBB101:
 1088              	.LBI101:
 110:lvgl/src/lv_widgets/../lv_core/lv_obj_style_dec.h **** _LV_OBJ_STYLE_SET_GET_DECLARE(PAD_BOTTOM, pad_bottom, lv_style_int_t, _int, scalar)
 1089              		.loc 2 110 1 view .LVU294
 1090              	.LBB102:
 110:lvgl/src/lv_widgets/../lv_core/lv_obj_style_dec.h **** _LV_OBJ_STYLE_SET_GET_DECLARE(PAD_BOTTOM, pad_bottom, lv_style_int_t, _int, scalar)
 1091              		.loc 2 110 1 view .LVU295
 1092 007e 1022     		movs	r2, #16
 1093 0080 0021     		movs	r1, #0
 1094 0082 3046     		mov	r0, r6
 1095 0084 FFF7FEFF 		bl	_lv_obj_get_style_int
ARM GAS  D:\Temp\ccOOHxmt.s 			page 45


 1096              	.LVL130:
 1097 0088 0746     		mov	r7, r0
 1098              	.LVL131:
 110:lvgl/src/lv_widgets/../lv_core/lv_obj_style_dec.h **** _LV_OBJ_STYLE_SET_GET_DECLARE(PAD_BOTTOM, pad_bottom, lv_style_int_t, _int, scalar)
 1099              		.loc 2 110 1 is_stmt 0 view .LVU296
 1100              	.LBE102:
 1101              	.LBE101:
 923:lvgl/src/lv_widgets/lv_arc.c ****     lv_coord_t rout       = (LV_MATH_MIN(lv_obj_get_width(arc) - left - right, lv_obj_get_height(ar
 1102              		.loc 1 923 5 is_stmt 1 view .LVU297
 1103              	.LBB103:
 1104              	.LBI103:
 111:lvgl/src/lv_widgets/../lv_core/lv_obj_style_dec.h **** _LV_OBJ_STYLE_SET_GET_DECLARE(PAD_LEFT, pad_left, lv_style_int_t, _int, scalar)
 1105              		.loc 2 111 1 view .LVU298
 1106              	.LBB104:
 111:lvgl/src/lv_widgets/../lv_core/lv_obj_style_dec.h **** _LV_OBJ_STYLE_SET_GET_DECLARE(PAD_LEFT, pad_left, lv_style_int_t, _int, scalar)
 1107              		.loc 2 111 1 view .LVU299
 1108 008a 1122     		movs	r2, #17
 1109 008c 0021     		movs	r1, #0
 1110 008e 3046     		mov	r0, r6
 1111 0090 FFF7FEFF 		bl	_lv_obj_get_style_int
 1112              	.LVL132:
 1113 0094 8246     		mov	r10, r0
 1114              	.LVL133:
 111:lvgl/src/lv_widgets/../lv_core/lv_obj_style_dec.h **** _LV_OBJ_STYLE_SET_GET_DECLARE(PAD_LEFT, pad_left, lv_style_int_t, _int, scalar)
 1115              		.loc 2 111 1 is_stmt 0 view .LVU300
 1116              	.LBE104:
 1117              	.LBE103:
 924:lvgl/src/lv_widgets/lv_arc.c ****     lv_coord_t x       = arc->coords.x1 + rout + left;
 1118              		.loc 1 924 5 is_stmt 1 view .LVU301
 924:lvgl/src/lv_widgets/lv_arc.c ****     lv_coord_t x       = arc->coords.x1 + rout + left;
 1119              		.loc 1 924 30 is_stmt 0 view .LVU302
 1120 0096 0096     		str	r6, [sp]
 1121              	.LVL134:
 924:lvgl/src/lv_widgets/lv_arc.c ****     lv_coord_t x       = arc->coords.x1 + rout + left;
 1122              		.loc 1 924 30 view .LVU303
 1123 0098 3046     		mov	r0, r6
 1124 009a FFF7FEFF 		bl	lv_obj_get_width
 1125              	.LVL135:
 1126 009e A0EB0800 		sub	r0, r0, r8
 1127 00a2 A0EB0B06 		sub	r6, r0, fp
 1128 00a6 0098     		ldr	r0, [sp]
 1129 00a8 FFF7FEFF 		bl	lv_obj_get_height
 1130              	.LVL136:
 1131 00ac C01B     		subs	r0, r0, r7
 1132 00ae A0EB0A00 		sub	r0, r0, r10
 924:lvgl/src/lv_widgets/lv_arc.c ****     lv_coord_t x       = arc->coords.x1 + rout + left;
 1133              		.loc 1 924 16 view .LVU304
 1134 00b2 8642     		cmp	r6, r0
 1135 00b4 49DA     		bge	.L42
 924:lvgl/src/lv_widgets/lv_arc.c ****     lv_coord_t x       = arc->coords.x1 + rout + left;
 1136              		.loc 1 924 30 discriminator 1 view .LVU305
 1137 00b6 0098     		ldr	r0, [sp]
 1138 00b8 FFF7FEFF 		bl	lv_obj_get_width
 1139              	.LVL137:
 1140 00bc A0EB0800 		sub	r0, r0, r8
 1141 00c0 A0EB0B0B 		sub	fp, r0, fp
 1142              	.LVL138:
ARM GAS  D:\Temp\ccOOHxmt.s 			page 46


 924:lvgl/src/lv_widgets/lv_arc.c ****     lv_coord_t x       = arc->coords.x1 + rout + left;
 1143              		.loc 1 924 120 discriminator 1 view .LVU306
 1144 00c4 0BEBDB7B 		add	fp, fp, fp, lsr #31
 924:lvgl/src/lv_widgets/lv_arc.c ****     lv_coord_t x       = arc->coords.x1 + rout + left;
 1145              		.loc 1 924 16 discriminator 1 view .LVU307
 1146 00c8 4BF34F0A 		sbfx	r10, fp, #1, #16
 1147              	.LVL139:
 1148              	.L43:
 925:lvgl/src/lv_widgets/lv_arc.c ****     lv_coord_t y       = arc->coords.y1 + rout + top;
 1149              		.loc 1 925 5 is_stmt 1 discriminator 4 view .LVU308
 925:lvgl/src/lv_widgets/lv_arc.c ****     lv_coord_t y       = arc->coords.y1 + rout + top;
 1150              		.loc 1 925 37 is_stmt 0 discriminator 4 view .LVU309
 1151 00cc 0098     		ldr	r0, [sp]
 1152 00ce B0F810B0 		ldrh	fp, [r0, #16]
 925:lvgl/src/lv_widgets/lv_arc.c ****     lv_coord_t y       = arc->coords.y1 + rout + top;
 1153              		.loc 1 925 41 discriminator 4 view .LVU310
 1154 00d2 1FFA8AF6 		uxth	r6, r10
 1155 00d6 B344     		add	fp, fp, r6
 925:lvgl/src/lv_widgets/lv_arc.c ****     lv_coord_t y       = arc->coords.y1 + rout + top;
 1156              		.loc 1 925 48 discriminator 4 view .LVU311
 1157 00d8 18FA8BF8 		uxtah	r8, r8, fp
 1158              	.LVL140:
 925:lvgl/src/lv_widgets/lv_arc.c ****     lv_coord_t y       = arc->coords.y1 + rout + top;
 1159              		.loc 1 925 48 discriminator 4 view .LVU312
 1160 00dc 1FFA88FB 		uxth	fp, r8
 1161              	.LVL141:
 926:lvgl/src/lv_widgets/lv_arc.c ****     lv_style_int_t w = lv_obj_get_style_line_width(arc, part);
 1162              		.loc 1 926 5 is_stmt 1 discriminator 4 view .LVU313
 926:lvgl/src/lv_widgets/lv_arc.c ****     lv_style_int_t w = lv_obj_get_style_line_width(arc, part);
 1163              		.loc 1 926 37 is_stmt 0 discriminator 4 view .LVU314
 1164 00e0 438A     		ldrh	r3, [r0, #18]
 926:lvgl/src/lv_widgets/lv_arc.c ****     lv_style_int_t w = lv_obj_get_style_line_width(arc, part);
 1165              		.loc 1 926 41 discriminator 4 view .LVU315
 1166 00e2 3344     		add	r3, r3, r6
 926:lvgl/src/lv_widgets/lv_arc.c ****     lv_style_int_t w = lv_obj_get_style_line_width(arc, part);
 1167              		.loc 1 926 48 discriminator 4 view .LVU316
 1168 00e4 17FA83F7 		uxtah	r7, r7, r3
 1169              	.LVL142:
 926:lvgl/src/lv_widgets/lv_arc.c ****     lv_style_int_t w = lv_obj_get_style_line_width(arc, part);
 1170              		.loc 1 926 48 discriminator 4 view .LVU317
 1171 00e8 1FFA87F8 		uxth	r8, r7
 1172              	.LVL143:
 927:lvgl/src/lv_widgets/lv_arc.c ****     lv_style_int_t rounded = lv_obj_get_style_line_rounded(arc, part);
 1173              		.loc 1 927 5 is_stmt 1 discriminator 4 view .LVU318
 1174              	.LBB105:
 1175              	.LBI105:
 1176              		.loc 2 169 1 discriminator 4 view .LVU319
 1177              	.LBB106:
 1178              		.loc 2 169 1 discriminator 4 view .LVU320
 1179 00ec 9022     		movs	r2, #144
 1180 00ee 0199     		ldr	r1, [sp, #4]
 1181 00f0 FFF7FEFF 		bl	_lv_obj_get_style_int
 1182              	.LVL144:
 1183              		.loc 2 169 1 is_stmt 0 discriminator 4 view .LVU321
 1184 00f4 0746     		mov	r7, r0
 1185              	.LVL145:
 1186              		.loc 2 169 1 discriminator 4 view .LVU322
ARM GAS  D:\Temp\ccOOHxmt.s 			page 47


 1187              	.LBE106:
 1188              	.LBE105:
 928:lvgl/src/lv_widgets/lv_arc.c ****     lv_coord_t rin       = rout - w;
 1189              		.loc 1 928 5 is_stmt 1 discriminator 4 view .LVU323
 1190              	.LBB107:
 1191              	.LBI107:
 170:lvgl/src/lv_widgets/../lv_core/lv_obj_style_dec.h **** _LV_OBJ_STYLE_SET_GET_DECLARE(LINE_BLEND_MODE, line_blend_mode, lv_blend_mode_t, _int, scalar)
 171:lvgl/src/lv_widgets/../lv_core/lv_obj_style_dec.h **** _LV_OBJ_STYLE_SET_GET_DECLARE(LINE_DASH_WIDTH, line_dash_width, lv_style_int_t, _int, scalar)
 172:lvgl/src/lv_widgets/../lv_core/lv_obj_style_dec.h **** _LV_OBJ_STYLE_SET_GET_DECLARE(LINE_DASH_GAP, line_dash_gap, lv_style_int_t, _int, scalar)
 173:lvgl/src/lv_widgets/../lv_core/lv_obj_style_dec.h **** _LV_OBJ_STYLE_SET_GET_DECLARE(LINE_ROUNDED, line_rounded, bool, _int, scalar)
 1192              		.loc 2 173 1 discriminator 4 view .LVU324
 1193              	.LBB108:
 1194              		.loc 2 173 1 discriminator 4 view .LVU325
 1195 00f6 9422     		movs	r2, #148
 1196 00f8 0199     		ldr	r1, [sp, #4]
 1197 00fa 0098     		ldr	r0, [sp]
 1198 00fc FFF7FEFF 		bl	_lv_obj_get_style_int
 1199              	.LVL146:
 1200              		.loc 2 173 1 is_stmt 0 discriminator 4 view .LVU326
 1201              	.LBE108:
 1202              	.LBE107:
 929:lvgl/src/lv_widgets/lv_arc.c ****     lv_coord_t extra_area = 0;
 1203              		.loc 1 929 5 is_stmt 1 discriminator 4 view .LVU327
 929:lvgl/src/lv_widgets/lv_arc.c ****     lv_coord_t extra_area = 0;
 1204              		.loc 1 929 33 is_stmt 0 discriminator 4 view .LVU328
 1205 0100 F31B     		subs	r3, r6, r7
 929:lvgl/src/lv_widgets/lv_arc.c ****     lv_coord_t extra_area = 0;
 1206              		.loc 1 929 16 discriminator 4 view .LVU329
 1207 0102 1BB2     		sxth	r3, r3
 1208 0104 0593     		str	r3, [sp, #20]
 1209              	.LVL147:
 930:lvgl/src/lv_widgets/lv_arc.c **** 
 1210              		.loc 1 930 5 is_stmt 1 discriminator 4 view .LVU330
 932:lvgl/src/lv_widgets/lv_arc.c **** 
 1211              		.loc 1 932 5 discriminator 4 view .LVU331
 932:lvgl/src/lv_widgets/lv_arc.c **** 
 1212              		.loc 1 932 16 is_stmt 0 discriminator 4 view .LVU332
 1213 0106 58B3     		cbz	r0, .L64
 932:lvgl/src/lv_widgets/lv_arc.c **** 
 1214              		.loc 1 932 34 discriminator 1 view .LVU333
 1215 0108 07EBD773 		add	r3, r7, r7, lsr #31
 1216 010c 5B10     		asrs	r3, r3, #1
 1217 010e 0233     		adds	r3, r3, #2
 932:lvgl/src/lv_widgets/lv_arc.c **** 
 1218              		.loc 1 932 16 discriminator 1 view .LVU334
 1219 0110 1BB2     		sxth	r3, r3
 1220 0112 0493     		str	r3, [sp, #16]
 1221              	.L44:
 1222              	.LVL148:
 934:lvgl/src/lv_widgets/lv_arc.c ****         lv_coord_t knob_extra_size = lv_obj_get_draw_rect_ext_pad_size(arc, LV_ARC_PART_KNOB);
 1223              		.loc 1 934 5 is_stmt 1 discriminator 4 view .LVU335
 934:lvgl/src/lv_widgets/lv_arc.c ****         lv_coord_t knob_extra_size = lv_obj_get_draw_rect_ext_pad_size(arc, LV_ARC_PART_KNOB);
 1224              		.loc 1 934 7 is_stmt 0 discriminator 4 view .LVU336
 1225 0114 019B     		ldr	r3, [sp, #4]
 1226 0116 012B     		cmp	r3, #1
 1227 0118 25D0     		beq	.L68
 1228              	.LVL149:
ARM GAS  D:\Temp\ccOOHxmt.s 			page 48


 1229              	.L45:
 948:lvgl/src/lv_widgets/lv_arc.c **** 
 1230              		.loc 1 948 5 is_stmt 1 view .LVU337
 950:lvgl/src/lv_widgets/lv_arc.c ****         if(start_quarter == 0) {
 1231              		.loc 1 950 5 view .LVU338
 950:lvgl/src/lv_widgets/lv_arc.c ****         if(start_quarter == 0) {
 1232              		.loc 1 950 7 is_stmt 0 view .LVU339
 1233 011a 029B     		ldr	r3, [sp, #8]
 1234 011c 9C42     		cmp	r4, r3
 1235 011e 76D0     		beq	.L69
 1236              	.L47:
 990:lvgl/src/lv_widgets/lv_arc.c ****         inv_area.x1 = x + ((_lv_trigo_sin(end_angle + 90) * rout) >> LV_TRIGO_SHIFT) - extra_area;
 1237              		.loc 1 990 10 is_stmt 1 view .LVU340
 990:lvgl/src/lv_widgets/lv_arc.c ****         inv_area.x1 = x + ((_lv_trigo_sin(end_angle + 90) * rout) >> LV_TRIGO_SHIFT) - extra_area;
 1238              		.loc 1 990 12 is_stmt 0 view .LVU341
 1239 0120 1CB9     		cbnz	r4, .L52
 990:lvgl/src/lv_widgets/lv_arc.c ****         inv_area.x1 = x + ((_lv_trigo_sin(end_angle + 90) * rout) >> LV_TRIGO_SHIFT) - extra_area;
 1240              		.loc 1 990 32 discriminator 1 view .LVU342
 1241 0122 029B     		ldr	r3, [sp, #8]
 1242 0124 012B     		cmp	r3, #1
 1243 0126 00F06B81 		beq	.L70
 1244              	.L52:
 998:lvgl/src/lv_widgets/lv_arc.c ****         inv_area.x1 = x - rout - extra_area;
 1245              		.loc 1 998 10 is_stmt 1 view .LVU343
 998:lvgl/src/lv_widgets/lv_arc.c ****         inv_area.x1 = x - rout - extra_area;
 1246              		.loc 1 998 12 is_stmt 0 view .LVU344
 1247 012a 012C     		cmp	r4, #1
 1248 012c 00F0AD81 		beq	.L71
 1249              	.L55:
1006:lvgl/src/lv_widgets/lv_arc.c ****         inv_area.x1 = x + ((_lv_trigo_sin(start_angle + 90) * rout) >> LV_TRIGO_SHIFT) - extra_area
 1250              		.loc 1 1006 10 is_stmt 1 view .LVU345
1006:lvgl/src/lv_widgets/lv_arc.c ****         inv_area.x1 = x + ((_lv_trigo_sin(start_angle + 90) * rout) >> LV_TRIGO_SHIFT) - extra_area
 1251              		.loc 1 1006 12 is_stmt 0 view .LVU346
 1252 0130 022C     		cmp	r4, #2
 1253 0132 00F0F281 		beq	.L72
 1254              	.L58:
1014:lvgl/src/lv_widgets/lv_arc.c ****         inv_area.x1 = x + ((LV_MATH_MIN(_lv_trigo_sin(end_angle + 90),
 1255              		.loc 1 1014 10 is_stmt 1 view .LVU347
1014:lvgl/src/lv_widgets/lv_arc.c ****         inv_area.x1 = x + ((LV_MATH_MIN(_lv_trigo_sin(end_angle + 90),
 1256              		.loc 1 1014 12 is_stmt 0 view .LVU348
 1257 0136 032C     		cmp	r4, #3
 1258 0138 03D1     		bne	.L61
1014:lvgl/src/lv_widgets/lv_arc.c ****         inv_area.x1 = x + ((LV_MATH_MIN(_lv_trigo_sin(end_angle + 90),
 1259              		.loc 1 1014 32 discriminator 1 view .LVU349
 1260 013a 029B     		ldr	r3, [sp, #8]
 1261 013c 002B     		cmp	r3, #0
 1262 013e 00F03C82 		beq	.L73
 1263              	.L61:
1024:lvgl/src/lv_widgets/lv_arc.c ****     }
 1264              		.loc 1 1024 9 is_stmt 1 view .LVU350
 1265 0142 0098     		ldr	r0, [sp]
 1266 0144 FFF7FEFF 		bl	lv_obj_invalidate
 1267              	.LVL150:
 1268 0148 65E7     		b	.L37
 1269              	.LVL151:
 1270              	.L42:
 924:lvgl/src/lv_widgets/lv_arc.c ****     lv_coord_t x       = arc->coords.x1 + rout + left;
ARM GAS  D:\Temp\ccOOHxmt.s 			page 49


 1271              		.loc 1 924 30 is_stmt 0 discriminator 2 view .LVU351
 1272 014a 0098     		ldr	r0, [sp]
 1273 014c FFF7FEFF 		bl	lv_obj_get_height
 1274              	.LVL152:
 1275 0150 C01B     		subs	r0, r0, r7
 1276 0152 A0EB0A0A 		sub	r10, r0, r10
 1277              	.LVL153:
 924:lvgl/src/lv_widgets/lv_arc.c ****     lv_coord_t x       = arc->coords.x1 + rout + left;
 1278              		.loc 1 924 120 discriminator 2 view .LVU352
 1279 0156 0AEBDA7A 		add	r10, r10, r10, lsr #31
 924:lvgl/src/lv_widgets/lv_arc.c ****     lv_coord_t x       = arc->coords.x1 + rout + left;
 1280              		.loc 1 924 16 discriminator 2 view .LVU353
 1281 015a 4AF34F0A 		sbfx	r10, r10, #1, #16
 1282 015e B5E7     		b	.L43
 1283              	.LVL154:
 1284              	.L64:
 932:lvgl/src/lv_widgets/lv_arc.c **** 
 1285              		.loc 1 932 16 view .LVU354
 1286 0160 0023     		movs	r3, #0
 1287 0162 0493     		str	r3, [sp, #16]
 1288 0164 D6E7     		b	.L44
 1289              	.LVL155:
 1290              	.L68:
 1291              	.LBB109:
 1292              	.LBI109:
 1293              		.file 3 "lvgl/src/lv_widgets/../lv_core/lv_style.h"
   1:lvgl/src/lv_widgets/../lv_core/lv_style.h **** /**
   2:lvgl/src/lv_widgets/../lv_core/lv_style.h ****  * @file lv_style.h
   3:lvgl/src/lv_widgets/../lv_core/lv_style.h ****  *
   4:lvgl/src/lv_widgets/../lv_core/lv_style.h ****  */
   5:lvgl/src/lv_widgets/../lv_core/lv_style.h **** 
   6:lvgl/src/lv_widgets/../lv_core/lv_style.h **** #ifndef LV_STYLE_H
   7:lvgl/src/lv_widgets/../lv_core/lv_style.h **** #define LV_STYLE_H
   8:lvgl/src/lv_widgets/../lv_core/lv_style.h **** 
   9:lvgl/src/lv_widgets/../lv_core/lv_style.h **** #ifdef __cplusplus
  10:lvgl/src/lv_widgets/../lv_core/lv_style.h **** extern "C" {
  11:lvgl/src/lv_widgets/../lv_core/lv_style.h **** #endif
  12:lvgl/src/lv_widgets/../lv_core/lv_style.h **** 
  13:lvgl/src/lv_widgets/../lv_core/lv_style.h **** /*********************
  14:lvgl/src/lv_widgets/../lv_core/lv_style.h ****  *      INCLUDES
  15:lvgl/src/lv_widgets/../lv_core/lv_style.h ****  *********************/
  16:lvgl/src/lv_widgets/../lv_core/lv_style.h **** #include <stdbool.h>
  17:lvgl/src/lv_widgets/../lv_core/lv_style.h **** #include "../lv_font/lv_font.h"
  18:lvgl/src/lv_widgets/../lv_core/lv_style.h **** #include "../lv_misc/lv_color.h"
  19:lvgl/src/lv_widgets/../lv_core/lv_style.h **** #include "../lv_misc/lv_area.h"
  20:lvgl/src/lv_widgets/../lv_core/lv_style.h **** #include "../lv_misc/lv_anim.h"
  21:lvgl/src/lv_widgets/../lv_core/lv_style.h **** #include "../lv_misc/lv_types.h"
  22:lvgl/src/lv_widgets/../lv_core/lv_style.h **** #include "../lv_misc/lv_debug.h"
  23:lvgl/src/lv_widgets/../lv_core/lv_style.h **** #include "../lv_draw/lv_draw_blend.h"
  24:lvgl/src/lv_widgets/../lv_core/lv_style.h **** 
  25:lvgl/src/lv_widgets/../lv_core/lv_style.h **** /*********************
  26:lvgl/src/lv_widgets/../lv_core/lv_style.h ****  *      DEFINES
  27:lvgl/src/lv_widgets/../lv_core/lv_style.h ****  *********************/
  28:lvgl/src/lv_widgets/../lv_core/lv_style.h **** 
  29:lvgl/src/lv_widgets/../lv_core/lv_style.h **** #define LV_RADIUS_CIRCLE (0x7FFF) /**< A very big radius to always draw as circle*/
  30:lvgl/src/lv_widgets/../lv_core/lv_style.h **** LV_EXPORT_CONST_INT(LV_RADIUS_CIRCLE);
  31:lvgl/src/lv_widgets/../lv_core/lv_style.h **** 
ARM GAS  D:\Temp\ccOOHxmt.s 			page 50


  32:lvgl/src/lv_widgets/../lv_core/lv_style.h **** #define LV_DEBUG_STYLE_SENTINEL_VALUE      0x2288AAEE
  33:lvgl/src/lv_widgets/../lv_core/lv_style.h **** #define LV_DEBUG_STYLE_LIST_SENTINEL_VALUE 0x9977CCBB
  34:lvgl/src/lv_widgets/../lv_core/lv_style.h **** 
  35:lvgl/src/lv_widgets/../lv_core/lv_style.h **** #define LV_STYLE_PROP_INIT(name, group, id, attr)  name = (((group << 4) + id) | ((attr) << 8))
  36:lvgl/src/lv_widgets/../lv_core/lv_style.h **** 
  37:lvgl/src/lv_widgets/../lv_core/lv_style.h **** #define LV_STYLE_ID_MASK 0x00FF
  38:lvgl/src/lv_widgets/../lv_core/lv_style.h **** 
  39:lvgl/src/lv_widgets/../lv_core/lv_style.h **** #define LV_STYLE_ATTR_NONE          0
  40:lvgl/src/lv_widgets/../lv_core/lv_style.h **** #define LV_STYLE_ATTR_INHERIT       (1 << 7)
  41:lvgl/src/lv_widgets/../lv_core/lv_style.h **** 
  42:lvgl/src/lv_widgets/../lv_core/lv_style.h **** #define _LV_STYLE_CLOSING_PROP     0xFF
  43:lvgl/src/lv_widgets/../lv_core/lv_style.h **** 
  44:lvgl/src/lv_widgets/../lv_core/lv_style.h **** #define LV_STYLE_TRANS_NUM_MAX      6
  45:lvgl/src/lv_widgets/../lv_core/lv_style.h **** 
  46:lvgl/src/lv_widgets/../lv_core/lv_style.h **** #define LV_STYLE_PROP_ALL 0xFF
  47:lvgl/src/lv_widgets/../lv_core/lv_style.h **** 
  48:lvgl/src/lv_widgets/../lv_core/lv_style.h **** /**********************
  49:lvgl/src/lv_widgets/../lv_core/lv_style.h ****  *      TYPEDEFS
  50:lvgl/src/lv_widgets/../lv_core/lv_style.h ****  **********************/
  51:lvgl/src/lv_widgets/../lv_core/lv_style.h **** 
  52:lvgl/src/lv_widgets/../lv_core/lv_style.h **** /*Border types (Use 'OR'ed values)*/
  53:lvgl/src/lv_widgets/../lv_core/lv_style.h **** enum {
  54:lvgl/src/lv_widgets/../lv_core/lv_style.h ****     LV_BORDER_SIDE_NONE     = 0x00,
  55:lvgl/src/lv_widgets/../lv_core/lv_style.h ****     LV_BORDER_SIDE_BOTTOM   = 0x01,
  56:lvgl/src/lv_widgets/../lv_core/lv_style.h ****     LV_BORDER_SIDE_TOP      = 0x02,
  57:lvgl/src/lv_widgets/../lv_core/lv_style.h ****     LV_BORDER_SIDE_LEFT     = 0x04,
  58:lvgl/src/lv_widgets/../lv_core/lv_style.h ****     LV_BORDER_SIDE_RIGHT    = 0x08,
  59:lvgl/src/lv_widgets/../lv_core/lv_style.h ****     LV_BORDER_SIDE_FULL     = 0x0F,
  60:lvgl/src/lv_widgets/../lv_core/lv_style.h ****     LV_BORDER_SIDE_INTERNAL = 0x10, /**< FOR matrix-like objects (e.g. Button matrix)*/
  61:lvgl/src/lv_widgets/../lv_core/lv_style.h ****     _LV_BORDER_SIDE_LAST
  62:lvgl/src/lv_widgets/../lv_core/lv_style.h **** };
  63:lvgl/src/lv_widgets/../lv_core/lv_style.h **** typedef uint8_t lv_border_side_t;
  64:lvgl/src/lv_widgets/../lv_core/lv_style.h **** 
  65:lvgl/src/lv_widgets/../lv_core/lv_style.h **** enum {
  66:lvgl/src/lv_widgets/../lv_core/lv_style.h ****     LV_GRAD_DIR_NONE,
  67:lvgl/src/lv_widgets/../lv_core/lv_style.h ****     LV_GRAD_DIR_VER,
  68:lvgl/src/lv_widgets/../lv_core/lv_style.h ****     LV_GRAD_DIR_HOR,
  69:lvgl/src/lv_widgets/../lv_core/lv_style.h ****     _LV_GRAD_DIR_LAST
  70:lvgl/src/lv_widgets/../lv_core/lv_style.h **** };
  71:lvgl/src/lv_widgets/../lv_core/lv_style.h **** 
  72:lvgl/src/lv_widgets/../lv_core/lv_style.h **** typedef uint8_t lv_grad_dir_t;
  73:lvgl/src/lv_widgets/../lv_core/lv_style.h **** 
  74:lvgl/src/lv_widgets/../lv_core/lv_style.h **** /*Text decorations (Use 'OR'ed values)*/
  75:lvgl/src/lv_widgets/../lv_core/lv_style.h **** enum {
  76:lvgl/src/lv_widgets/../lv_core/lv_style.h ****     LV_TEXT_DECOR_NONE          = 0x00,
  77:lvgl/src/lv_widgets/../lv_core/lv_style.h ****     LV_TEXT_DECOR_UNDERLINE     = 0x01,
  78:lvgl/src/lv_widgets/../lv_core/lv_style.h ****     LV_TEXT_DECOR_STRIKETHROUGH = 0x02,
  79:lvgl/src/lv_widgets/../lv_core/lv_style.h ****     _LV_TEXT_DECOR_LAST
  80:lvgl/src/lv_widgets/../lv_core/lv_style.h **** };
  81:lvgl/src/lv_widgets/../lv_core/lv_style.h **** 
  82:lvgl/src/lv_widgets/../lv_core/lv_style.h **** typedef uint8_t lv_text_decor_t;
  83:lvgl/src/lv_widgets/../lv_core/lv_style.h **** 
  84:lvgl/src/lv_widgets/../lv_core/lv_style.h **** typedef uint8_t lv_style_attr_t;
  85:lvgl/src/lv_widgets/../lv_core/lv_style.h **** 
  86:lvgl/src/lv_widgets/../lv_core/lv_style.h **** #define LV_STYLE_ATTR_GET_INHERIT(f) ((f)&0x80)
  87:lvgl/src/lv_widgets/../lv_core/lv_style.h **** #define LV_STYLE_ATTR_GET_STATE(f) ((f)&0x7F)
  88:lvgl/src/lv_widgets/../lv_core/lv_style.h **** 
ARM GAS  D:\Temp\ccOOHxmt.s 			page 51


  89:lvgl/src/lv_widgets/../lv_core/lv_style.h **** #define LV_STYLE_ID_VALUE 0x0   /*max 9 pcs*/
  90:lvgl/src/lv_widgets/../lv_core/lv_style.h **** #define LV_STYLE_ID_COLOR 0x9   /*max 3 pcs*/
  91:lvgl/src/lv_widgets/../lv_core/lv_style.h **** #define LV_STYLE_ID_OPA   0xC   /*max 2 pcs*/
  92:lvgl/src/lv_widgets/../lv_core/lv_style.h **** #define LV_STYLE_ID_PTR   0xE   /*max 2 pcs*/
  93:lvgl/src/lv_widgets/../lv_core/lv_style.h **** 
  94:lvgl/src/lv_widgets/../lv_core/lv_style.h **** enum {
  95:lvgl/src/lv_widgets/../lv_core/lv_style.h ****     /*Skip 0th property*/
  96:lvgl/src/lv_widgets/../lv_core/lv_style.h ****     LV_STYLE_PROP_INIT(LV_STYLE_RADIUS,             0x0, LV_STYLE_ID_VALUE + 1, LV_STYLE_ATTR_NONE)
  97:lvgl/src/lv_widgets/../lv_core/lv_style.h ****     LV_STYLE_PROP_INIT(LV_STYLE_CLIP_CORNER,        0x0, LV_STYLE_ID_VALUE + 2, LV_STYLE_ATTR_NONE)
  98:lvgl/src/lv_widgets/../lv_core/lv_style.h ****     LV_STYLE_PROP_INIT(LV_STYLE_SIZE,               0x0, LV_STYLE_ID_VALUE + 3, LV_STYLE_ATTR_NONE)
  99:lvgl/src/lv_widgets/../lv_core/lv_style.h ****     LV_STYLE_PROP_INIT(LV_STYLE_TRANSFORM_WIDTH,    0x0, LV_STYLE_ID_VALUE + 4, LV_STYLE_ATTR_NONE)
 100:lvgl/src/lv_widgets/../lv_core/lv_style.h ****     LV_STYLE_PROP_INIT(LV_STYLE_TRANSFORM_HEIGHT,   0x0, LV_STYLE_ID_VALUE + 5, LV_STYLE_ATTR_NONE)
 101:lvgl/src/lv_widgets/../lv_core/lv_style.h ****     LV_STYLE_PROP_INIT(LV_STYLE_TRANSFORM_ANGLE,    0x0, LV_STYLE_ID_VALUE + 6, LV_STYLE_ATTR_NONE)
 102:lvgl/src/lv_widgets/../lv_core/lv_style.h ****     LV_STYLE_PROP_INIT(LV_STYLE_TRANSFORM_ZOOM,     0x0, LV_STYLE_ID_VALUE + 7, LV_STYLE_ATTR_NONE)
 103:lvgl/src/lv_widgets/../lv_core/lv_style.h ****     LV_STYLE_PROP_INIT(LV_STYLE_OPA_SCALE,          0x0, LV_STYLE_ID_OPA + 0,   LV_STYLE_ATTR_INHER
 104:lvgl/src/lv_widgets/../lv_core/lv_style.h **** 
 105:lvgl/src/lv_widgets/../lv_core/lv_style.h ****     LV_STYLE_PROP_INIT(LV_STYLE_PAD_TOP,            0x1, LV_STYLE_ID_VALUE + 0, LV_STYLE_ATTR_NONE)
 106:lvgl/src/lv_widgets/../lv_core/lv_style.h ****     LV_STYLE_PROP_INIT(LV_STYLE_PAD_BOTTOM,         0x1, LV_STYLE_ID_VALUE + 1, LV_STYLE_ATTR_NONE)
 107:lvgl/src/lv_widgets/../lv_core/lv_style.h ****     LV_STYLE_PROP_INIT(LV_STYLE_PAD_LEFT,           0x1, LV_STYLE_ID_VALUE + 2, LV_STYLE_ATTR_NONE)
 108:lvgl/src/lv_widgets/../lv_core/lv_style.h ****     LV_STYLE_PROP_INIT(LV_STYLE_PAD_RIGHT,          0x1, LV_STYLE_ID_VALUE + 3, LV_STYLE_ATTR_NONE)
 109:lvgl/src/lv_widgets/../lv_core/lv_style.h ****     LV_STYLE_PROP_INIT(LV_STYLE_PAD_INNER,          0x1, LV_STYLE_ID_VALUE + 4, LV_STYLE_ATTR_NONE)
 110:lvgl/src/lv_widgets/../lv_core/lv_style.h ****     LV_STYLE_PROP_INIT(LV_STYLE_MARGIN_TOP,         0x1, LV_STYLE_ID_VALUE + 5, LV_STYLE_ATTR_NONE)
 111:lvgl/src/lv_widgets/../lv_core/lv_style.h ****     LV_STYLE_PROP_INIT(LV_STYLE_MARGIN_BOTTOM,      0x1, LV_STYLE_ID_VALUE + 6, LV_STYLE_ATTR_NONE)
 112:lvgl/src/lv_widgets/../lv_core/lv_style.h ****     LV_STYLE_PROP_INIT(LV_STYLE_MARGIN_LEFT,        0x1, LV_STYLE_ID_VALUE + 7, LV_STYLE_ATTR_NONE)
 113:lvgl/src/lv_widgets/../lv_core/lv_style.h ****     LV_STYLE_PROP_INIT(LV_STYLE_MARGIN_RIGHT,       0x1, LV_STYLE_ID_VALUE + 8, LV_STYLE_ATTR_NONE)
 114:lvgl/src/lv_widgets/../lv_core/lv_style.h **** 
 115:lvgl/src/lv_widgets/../lv_core/lv_style.h ****     LV_STYLE_PROP_INIT(LV_STYLE_BG_BLEND_MODE,      0x2, LV_STYLE_ID_VALUE + 0, LV_STYLE_ATTR_NONE)
 116:lvgl/src/lv_widgets/../lv_core/lv_style.h ****     LV_STYLE_PROP_INIT(LV_STYLE_BG_MAIN_STOP,       0x2, LV_STYLE_ID_VALUE + 1, LV_STYLE_ATTR_NONE)
 117:lvgl/src/lv_widgets/../lv_core/lv_style.h ****     LV_STYLE_PROP_INIT(LV_STYLE_BG_GRAD_STOP,       0x2, LV_STYLE_ID_VALUE + 2, LV_STYLE_ATTR_NONE)
 118:lvgl/src/lv_widgets/../lv_core/lv_style.h ****     LV_STYLE_PROP_INIT(LV_STYLE_BG_GRAD_DIR,        0x2, LV_STYLE_ID_VALUE + 3, LV_STYLE_ATTR_NONE)
 119:lvgl/src/lv_widgets/../lv_core/lv_style.h ****     LV_STYLE_PROP_INIT(LV_STYLE_BG_COLOR,           0x2, LV_STYLE_ID_COLOR + 0, LV_STYLE_ATTR_NONE)
 120:lvgl/src/lv_widgets/../lv_core/lv_style.h ****     LV_STYLE_PROP_INIT(LV_STYLE_BG_GRAD_COLOR,      0x2, LV_STYLE_ID_COLOR + 1, LV_STYLE_ATTR_NONE)
 121:lvgl/src/lv_widgets/../lv_core/lv_style.h ****     LV_STYLE_PROP_INIT(LV_STYLE_BG_OPA,             0x2, LV_STYLE_ID_OPA   + 0, LV_STYLE_ATTR_NONE)
 122:lvgl/src/lv_widgets/../lv_core/lv_style.h **** 
 123:lvgl/src/lv_widgets/../lv_core/lv_style.h ****     LV_STYLE_PROP_INIT(LV_STYLE_BORDER_WIDTH,       0x3, LV_STYLE_ID_VALUE + 0, LV_STYLE_ATTR_NONE)
 124:lvgl/src/lv_widgets/../lv_core/lv_style.h ****     LV_STYLE_PROP_INIT(LV_STYLE_BORDER_SIDE,        0x3, LV_STYLE_ID_VALUE + 1, LV_STYLE_ATTR_NONE)
 125:lvgl/src/lv_widgets/../lv_core/lv_style.h ****     LV_STYLE_PROP_INIT(LV_STYLE_BORDER_BLEND_MODE,  0x3, LV_STYLE_ID_VALUE + 2, LV_STYLE_ATTR_NONE)
 126:lvgl/src/lv_widgets/../lv_core/lv_style.h ****     LV_STYLE_PROP_INIT(LV_STYLE_BORDER_POST,        0x3, LV_STYLE_ID_VALUE + 3, LV_STYLE_ATTR_NONE)
 127:lvgl/src/lv_widgets/../lv_core/lv_style.h ****     LV_STYLE_PROP_INIT(LV_STYLE_BORDER_COLOR,       0x3, LV_STYLE_ID_COLOR + 0, LV_STYLE_ATTR_NONE)
 128:lvgl/src/lv_widgets/../lv_core/lv_style.h ****     LV_STYLE_PROP_INIT(LV_STYLE_BORDER_OPA,         0x3, LV_STYLE_ID_OPA   + 0, LV_STYLE_ATTR_NONE)
 129:lvgl/src/lv_widgets/../lv_core/lv_style.h **** 
 130:lvgl/src/lv_widgets/../lv_core/lv_style.h ****     LV_STYLE_PROP_INIT(LV_STYLE_OUTLINE_WIDTH,       0x4, LV_STYLE_ID_VALUE + 0, LV_STYLE_ATTR_NONE
 131:lvgl/src/lv_widgets/../lv_core/lv_style.h ****     LV_STYLE_PROP_INIT(LV_STYLE_OUTLINE_PAD,         0x4, LV_STYLE_ID_VALUE + 1, LV_STYLE_ATTR_NONE
 132:lvgl/src/lv_widgets/../lv_core/lv_style.h ****     LV_STYLE_PROP_INIT(LV_STYLE_OUTLINE_BLEND_MODE,  0x4, LV_STYLE_ID_VALUE + 2, LV_STYLE_ATTR_NONE
 133:lvgl/src/lv_widgets/../lv_core/lv_style.h ****     LV_STYLE_PROP_INIT(LV_STYLE_OUTLINE_COLOR,       0x4, LV_STYLE_ID_COLOR + 0, LV_STYLE_ATTR_NONE
 134:lvgl/src/lv_widgets/../lv_core/lv_style.h ****     LV_STYLE_PROP_INIT(LV_STYLE_OUTLINE_OPA,         0x4, LV_STYLE_ID_OPA   + 0, LV_STYLE_ATTR_NONE
 135:lvgl/src/lv_widgets/../lv_core/lv_style.h **** 
 136:lvgl/src/lv_widgets/../lv_core/lv_style.h ****     LV_STYLE_PROP_INIT(LV_STYLE_SHADOW_WIDTH,       0x5, LV_STYLE_ID_VALUE + 0, LV_STYLE_ATTR_NONE)
 137:lvgl/src/lv_widgets/../lv_core/lv_style.h ****     LV_STYLE_PROP_INIT(LV_STYLE_SHADOW_OFS_X,       0x5, LV_STYLE_ID_VALUE + 1, LV_STYLE_ATTR_NONE)
 138:lvgl/src/lv_widgets/../lv_core/lv_style.h ****     LV_STYLE_PROP_INIT(LV_STYLE_SHADOW_OFS_Y,       0x5, LV_STYLE_ID_VALUE + 2, LV_STYLE_ATTR_NONE)
 139:lvgl/src/lv_widgets/../lv_core/lv_style.h ****     LV_STYLE_PROP_INIT(LV_STYLE_SHADOW_SPREAD,      0x5, LV_STYLE_ID_VALUE + 3, LV_STYLE_ATTR_NONE)
 140:lvgl/src/lv_widgets/../lv_core/lv_style.h ****     LV_STYLE_PROP_INIT(LV_STYLE_SHADOW_BLEND_MODE,  0x5, LV_STYLE_ID_VALUE + 4, LV_STYLE_ATTR_NONE)
 141:lvgl/src/lv_widgets/../lv_core/lv_style.h ****     LV_STYLE_PROP_INIT(LV_STYLE_SHADOW_COLOR,       0x5, LV_STYLE_ID_COLOR + 0, LV_STYLE_ATTR_NONE)
 142:lvgl/src/lv_widgets/../lv_core/lv_style.h ****     LV_STYLE_PROP_INIT(LV_STYLE_SHADOW_OPA,         0x5, LV_STYLE_ID_OPA   + 0, LV_STYLE_ATTR_NONE)
 143:lvgl/src/lv_widgets/../lv_core/lv_style.h **** 
 144:lvgl/src/lv_widgets/../lv_core/lv_style.h ****     LV_STYLE_PROP_INIT(LV_STYLE_PATTERN_BLEND_MODE,    0x6, LV_STYLE_ID_VALUE + 0, LV_STYLE_ATTR_NO
 145:lvgl/src/lv_widgets/../lv_core/lv_style.h ****     LV_STYLE_PROP_INIT(LV_STYLE_PATTERN_REPEAT,        0x6, LV_STYLE_ID_VALUE + 1, LV_STYLE_ATTR_NO
ARM GAS  D:\Temp\ccOOHxmt.s 			page 52


 146:lvgl/src/lv_widgets/../lv_core/lv_style.h ****     LV_STYLE_PROP_INIT(LV_STYLE_PATTERN_RECOLOR,       0x6, LV_STYLE_ID_COLOR + 0, LV_STYLE_ATTR_NO
 147:lvgl/src/lv_widgets/../lv_core/lv_style.h ****     LV_STYLE_PROP_INIT(LV_STYLE_PATTERN_OPA,           0x6, LV_STYLE_ID_OPA   + 0, LV_STYLE_ATTR_NO
 148:lvgl/src/lv_widgets/../lv_core/lv_style.h ****     LV_STYLE_PROP_INIT(LV_STYLE_PATTERN_RECOLOR_OPA,   0x6, LV_STYLE_ID_OPA   + 1, LV_STYLE_ATTR_NO
 149:lvgl/src/lv_widgets/../lv_core/lv_style.h ****     LV_STYLE_PROP_INIT(LV_STYLE_PATTERN_IMAGE,         0x6, LV_STYLE_ID_PTR   + 0, LV_STYLE_ATTR_NO
 150:lvgl/src/lv_widgets/../lv_core/lv_style.h **** 
 151:lvgl/src/lv_widgets/../lv_core/lv_style.h ****     LV_STYLE_PROP_INIT(LV_STYLE_VALUE_LETTER_SPACE,  0x7, LV_STYLE_ID_VALUE + 0, LV_STYLE_ATTR_NONE
 152:lvgl/src/lv_widgets/../lv_core/lv_style.h ****     LV_STYLE_PROP_INIT(LV_STYLE_VALUE_LINE_SPACE,    0x7, LV_STYLE_ID_VALUE + 1, LV_STYLE_ATTR_NONE
 153:lvgl/src/lv_widgets/../lv_core/lv_style.h ****     LV_STYLE_PROP_INIT(LV_STYLE_VALUE_BLEND_MODE,    0x7, LV_STYLE_ID_VALUE + 2, LV_STYLE_ATTR_NONE
 154:lvgl/src/lv_widgets/../lv_core/lv_style.h ****     LV_STYLE_PROP_INIT(LV_STYLE_VALUE_OFS_X,         0x7, LV_STYLE_ID_VALUE + 3, LV_STYLE_ATTR_NONE
 155:lvgl/src/lv_widgets/../lv_core/lv_style.h ****     LV_STYLE_PROP_INIT(LV_STYLE_VALUE_OFS_Y,         0x7, LV_STYLE_ID_VALUE + 4, LV_STYLE_ATTR_NONE
 156:lvgl/src/lv_widgets/../lv_core/lv_style.h ****     LV_STYLE_PROP_INIT(LV_STYLE_VALUE_ALIGN,         0x7, LV_STYLE_ID_VALUE + 5, LV_STYLE_ATTR_NONE
 157:lvgl/src/lv_widgets/../lv_core/lv_style.h ****     LV_STYLE_PROP_INIT(LV_STYLE_VALUE_COLOR,         0x7, LV_STYLE_ID_COLOR + 0, LV_STYLE_ATTR_NONE
 158:lvgl/src/lv_widgets/../lv_core/lv_style.h ****     LV_STYLE_PROP_INIT(LV_STYLE_VALUE_OPA,           0x7, LV_STYLE_ID_OPA   + 0, LV_STYLE_ATTR_NONE
 159:lvgl/src/lv_widgets/../lv_core/lv_style.h ****     LV_STYLE_PROP_INIT(LV_STYLE_VALUE_FONT,          0x7, LV_STYLE_ID_PTR   + 0, LV_STYLE_ATTR_NONE
 160:lvgl/src/lv_widgets/../lv_core/lv_style.h ****     LV_STYLE_PROP_INIT(LV_STYLE_VALUE_STR,           0x7, LV_STYLE_ID_PTR   + 1, LV_STYLE_ATTR_NONE
 161:lvgl/src/lv_widgets/../lv_core/lv_style.h **** 
 162:lvgl/src/lv_widgets/../lv_core/lv_style.h ****     LV_STYLE_PROP_INIT(LV_STYLE_TEXT_LETTER_SPACE,   0x8, LV_STYLE_ID_VALUE + 0, LV_STYLE_ATTR_INHE
 163:lvgl/src/lv_widgets/../lv_core/lv_style.h ****     LV_STYLE_PROP_INIT(LV_STYLE_TEXT_LINE_SPACE,     0x8, LV_STYLE_ID_VALUE + 1, LV_STYLE_ATTR_INHE
 164:lvgl/src/lv_widgets/../lv_core/lv_style.h ****     LV_STYLE_PROP_INIT(LV_STYLE_TEXT_DECOR,          0x8, LV_STYLE_ID_VALUE + 2, LV_STYLE_ATTR_INHE
 165:lvgl/src/lv_widgets/../lv_core/lv_style.h ****     LV_STYLE_PROP_INIT(LV_STYLE_TEXT_BLEND_MODE,     0x8, LV_STYLE_ID_VALUE + 3, LV_STYLE_ATTR_INHE
 166:lvgl/src/lv_widgets/../lv_core/lv_style.h ****     LV_STYLE_PROP_INIT(LV_STYLE_TEXT_COLOR,          0x8, LV_STYLE_ID_COLOR + 0, LV_STYLE_ATTR_INHE
 167:lvgl/src/lv_widgets/../lv_core/lv_style.h ****     LV_STYLE_PROP_INIT(LV_STYLE_TEXT_SEL_COLOR,      0x8, LV_STYLE_ID_COLOR + 1, LV_STYLE_ATTR_INHE
 168:lvgl/src/lv_widgets/../lv_core/lv_style.h ****     LV_STYLE_PROP_INIT(LV_STYLE_TEXT_SEL_BG_COLOR,   0x8, LV_STYLE_ID_COLOR + 2, LV_STYLE_ATTR_INHE
 169:lvgl/src/lv_widgets/../lv_core/lv_style.h ****     LV_STYLE_PROP_INIT(LV_STYLE_TEXT_OPA,            0x8, LV_STYLE_ID_OPA   + 0, LV_STYLE_ATTR_INHE
 170:lvgl/src/lv_widgets/../lv_core/lv_style.h ****     LV_STYLE_PROP_INIT(LV_STYLE_TEXT_FONT,           0x8, LV_STYLE_ID_PTR   + 0, LV_STYLE_ATTR_INHE
 171:lvgl/src/lv_widgets/../lv_core/lv_style.h **** 
 172:lvgl/src/lv_widgets/../lv_core/lv_style.h ****     LV_STYLE_PROP_INIT(LV_STYLE_LINE_WIDTH,         0x9, LV_STYLE_ID_VALUE + 0, LV_STYLE_ATTR_NONE)
 173:lvgl/src/lv_widgets/../lv_core/lv_style.h ****     LV_STYLE_PROP_INIT(LV_STYLE_LINE_BLEND_MODE,    0x9, LV_STYLE_ID_VALUE + 1, LV_STYLE_ATTR_NONE)
 174:lvgl/src/lv_widgets/../lv_core/lv_style.h ****     LV_STYLE_PROP_INIT(LV_STYLE_LINE_DASH_WIDTH,    0x9, LV_STYLE_ID_VALUE + 2, LV_STYLE_ATTR_NONE)
 175:lvgl/src/lv_widgets/../lv_core/lv_style.h ****     LV_STYLE_PROP_INIT(LV_STYLE_LINE_DASH_GAP,      0x9, LV_STYLE_ID_VALUE + 3, LV_STYLE_ATTR_NONE)
 176:lvgl/src/lv_widgets/../lv_core/lv_style.h ****     LV_STYLE_PROP_INIT(LV_STYLE_LINE_ROUNDED,       0x9, LV_STYLE_ID_VALUE + 4, LV_STYLE_ATTR_NONE)
 177:lvgl/src/lv_widgets/../lv_core/lv_style.h ****     LV_STYLE_PROP_INIT(LV_STYLE_LINE_COLOR,         0x9, LV_STYLE_ID_COLOR + 0, LV_STYLE_ATTR_NONE)
 178:lvgl/src/lv_widgets/../lv_core/lv_style.h ****     LV_STYLE_PROP_INIT(LV_STYLE_LINE_OPA,           0x9, LV_STYLE_ID_OPA   + 0, LV_STYLE_ATTR_NONE)
 179:lvgl/src/lv_widgets/../lv_core/lv_style.h **** 
 180:lvgl/src/lv_widgets/../lv_core/lv_style.h ****     LV_STYLE_PROP_INIT(LV_STYLE_IMAGE_BLEND_MODE,   0xA, LV_STYLE_ID_VALUE + 0, LV_STYLE_ATTR_INHER
 181:lvgl/src/lv_widgets/../lv_core/lv_style.h ****     LV_STYLE_PROP_INIT(LV_STYLE_IMAGE_RECOLOR,      0xA, LV_STYLE_ID_COLOR + 0, LV_STYLE_ATTR_INHER
 182:lvgl/src/lv_widgets/../lv_core/lv_style.h ****     LV_STYLE_PROP_INIT(LV_STYLE_IMAGE_OPA,          0xA, LV_STYLE_ID_OPA   + 0, LV_STYLE_ATTR_INHER
 183:lvgl/src/lv_widgets/../lv_core/lv_style.h ****     LV_STYLE_PROP_INIT(LV_STYLE_IMAGE_RECOLOR_OPA,  0xA, LV_STYLE_ID_OPA   + 1, LV_STYLE_ATTR_INHER
 184:lvgl/src/lv_widgets/../lv_core/lv_style.h **** 
 185:lvgl/src/lv_widgets/../lv_core/lv_style.h ****     LV_STYLE_PROP_INIT(LV_STYLE_TRANSITION_TIME,    0xB, LV_STYLE_ID_VALUE + 0, LV_STYLE_ATTR_NONE)
 186:lvgl/src/lv_widgets/../lv_core/lv_style.h ****     LV_STYLE_PROP_INIT(LV_STYLE_TRANSITION_DELAY,   0xB, LV_STYLE_ID_VALUE + 1, LV_STYLE_ATTR_NONE)
 187:lvgl/src/lv_widgets/../lv_core/lv_style.h ****     LV_STYLE_PROP_INIT(LV_STYLE_TRANSITION_PROP_1,  0xB, LV_STYLE_ID_VALUE + 2, LV_STYLE_ATTR_NONE)
 188:lvgl/src/lv_widgets/../lv_core/lv_style.h ****     LV_STYLE_PROP_INIT(LV_STYLE_TRANSITION_PROP_2,  0xB, LV_STYLE_ID_VALUE + 3, LV_STYLE_ATTR_NONE)
 189:lvgl/src/lv_widgets/../lv_core/lv_style.h ****     LV_STYLE_PROP_INIT(LV_STYLE_TRANSITION_PROP_3,  0xB, LV_STYLE_ID_VALUE + 4, LV_STYLE_ATTR_NONE)
 190:lvgl/src/lv_widgets/../lv_core/lv_style.h ****     LV_STYLE_PROP_INIT(LV_STYLE_TRANSITION_PROP_4,  0xB, LV_STYLE_ID_VALUE + 5, LV_STYLE_ATTR_NONE)
 191:lvgl/src/lv_widgets/../lv_core/lv_style.h ****     LV_STYLE_PROP_INIT(LV_STYLE_TRANSITION_PROP_5,  0xB, LV_STYLE_ID_VALUE + 6, LV_STYLE_ATTR_NONE)
 192:lvgl/src/lv_widgets/../lv_core/lv_style.h ****     LV_STYLE_PROP_INIT(LV_STYLE_TRANSITION_PROP_6,  0xB, LV_STYLE_ID_VALUE + 7, LV_STYLE_ATTR_NONE)
 193:lvgl/src/lv_widgets/../lv_core/lv_style.h ****     LV_STYLE_PROP_INIT(LV_STYLE_TRANSITION_PATH,    0xB, LV_STYLE_ID_PTR + 0, LV_STYLE_ATTR_NONE),
 194:lvgl/src/lv_widgets/../lv_core/lv_style.h **** 
 195:lvgl/src/lv_widgets/../lv_core/lv_style.h ****     LV_STYLE_PROP_INIT(LV_STYLE_SCALE_WIDTH,            0xC, LV_STYLE_ID_VALUE + 0, LV_STYLE_ATTR_N
 196:lvgl/src/lv_widgets/../lv_core/lv_style.h ****     LV_STYLE_PROP_INIT(LV_STYLE_SCALE_BORDER_WIDTH,     0xC, LV_STYLE_ID_VALUE + 1, LV_STYLE_ATTR_N
 197:lvgl/src/lv_widgets/../lv_core/lv_style.h ****     LV_STYLE_PROP_INIT(LV_STYLE_SCALE_END_BORDER_WIDTH, 0xC, LV_STYLE_ID_VALUE + 2, LV_STYLE_ATTR_N
 198:lvgl/src/lv_widgets/../lv_core/lv_style.h ****     LV_STYLE_PROP_INIT(LV_STYLE_SCALE_END_LINE_WIDTH,   0xC, LV_STYLE_ID_VALUE + 3, LV_STYLE_ATTR_N
 199:lvgl/src/lv_widgets/../lv_core/lv_style.h ****     LV_STYLE_PROP_INIT(LV_STYLE_SCALE_GRAD_COLOR,       0xC, LV_STYLE_ID_COLOR + 0, LV_STYLE_ATTR_N
 200:lvgl/src/lv_widgets/../lv_core/lv_style.h ****     LV_STYLE_PROP_INIT(LV_STYLE_SCALE_END_COLOR,        0xC, LV_STYLE_ID_COLOR + 1, LV_STYLE_ATTR_N
 201:lvgl/src/lv_widgets/../lv_core/lv_style.h **** };
 202:lvgl/src/lv_widgets/../lv_core/lv_style.h **** 
ARM GAS  D:\Temp\ccOOHxmt.s 			page 53


 203:lvgl/src/lv_widgets/../lv_core/lv_style.h **** typedef uint16_t lv_style_property_t;
 204:lvgl/src/lv_widgets/../lv_core/lv_style.h **** 
 205:lvgl/src/lv_widgets/../lv_core/lv_style.h **** #define LV_STYLE_STATE_POS       8
 206:lvgl/src/lv_widgets/../lv_core/lv_style.h **** #define LV_STYLE_STATE_MASK      0x7F00
 207:lvgl/src/lv_widgets/../lv_core/lv_style.h **** #define LV_STYLE_INHERIT_MASK    0x8000
 208:lvgl/src/lv_widgets/../lv_core/lv_style.h **** 
 209:lvgl/src/lv_widgets/../lv_core/lv_style.h **** typedef uint16_t lv_style_state_t;
 210:lvgl/src/lv_widgets/../lv_core/lv_style.h **** 
 211:lvgl/src/lv_widgets/../lv_core/lv_style.h **** typedef struct {
 212:lvgl/src/lv_widgets/../lv_core/lv_style.h ****     uint8_t * map;
 213:lvgl/src/lv_widgets/../lv_core/lv_style.h **** #if LV_USE_ASSERT_STYLE
 214:lvgl/src/lv_widgets/../lv_core/lv_style.h ****     uint32_t sentinel;
 215:lvgl/src/lv_widgets/../lv_core/lv_style.h **** #endif
 216:lvgl/src/lv_widgets/../lv_core/lv_style.h **** } lv_style_t;
 217:lvgl/src/lv_widgets/../lv_core/lv_style.h **** 
 218:lvgl/src/lv_widgets/../lv_core/lv_style.h **** typedef int16_t lv_style_int_t;
 219:lvgl/src/lv_widgets/../lv_core/lv_style.h **** 
 220:lvgl/src/lv_widgets/../lv_core/lv_style.h **** typedef struct {
 221:lvgl/src/lv_widgets/../lv_core/lv_style.h ****     lv_style_t ** style_list;
 222:lvgl/src/lv_widgets/../lv_core/lv_style.h **** #if LV_USE_ASSERT_STYLE
 223:lvgl/src/lv_widgets/../lv_core/lv_style.h ****     uint32_t sentinel;
 224:lvgl/src/lv_widgets/../lv_core/lv_style.h **** #endif
 225:lvgl/src/lv_widgets/../lv_core/lv_style.h ****     uint32_t style_cnt     : 6;
 226:lvgl/src/lv_widgets/../lv_core/lv_style.h ****     uint32_t has_local     : 1;
 227:lvgl/src/lv_widgets/../lv_core/lv_style.h ****     uint32_t has_trans     : 1;
 228:lvgl/src/lv_widgets/../lv_core/lv_style.h ****     uint32_t skip_trans    : 1;      /*1: Temporally skip the transition style if any*/
 229:lvgl/src/lv_widgets/../lv_core/lv_style.h ****     uint32_t ignore_trans  : 1;      /*1: Mark that this style list shouldn't receive transitions a
 230:lvgl/src/lv_widgets/../lv_core/lv_style.h ****     uint32_t valid_cache   : 1;      /*1: The cache is valid and can be used*/
 231:lvgl/src/lv_widgets/../lv_core/lv_style.h ****     uint32_t ignore_cache  : 1;      /*1: Ignore cache while getting value of properties*/
 232:lvgl/src/lv_widgets/../lv_core/lv_style.h **** 
 233:lvgl/src/lv_widgets/../lv_core/lv_style.h ****     uint32_t radius_zero : 1;
 234:lvgl/src/lv_widgets/../lv_core/lv_style.h ****     uint32_t opa_scale_cover      : 1;
 235:lvgl/src/lv_widgets/../lv_core/lv_style.h ****     uint32_t clip_corner_off       : 1;
 236:lvgl/src/lv_widgets/../lv_core/lv_style.h ****     uint32_t transform_all_zero  : 1;
 237:lvgl/src/lv_widgets/../lv_core/lv_style.h ****     uint32_t pad_all_zero : 1;
 238:lvgl/src/lv_widgets/../lv_core/lv_style.h ****     uint32_t margin_all_zero : 1;
 239:lvgl/src/lv_widgets/../lv_core/lv_style.h ****     uint32_t blend_mode_all_normal : 1;
 240:lvgl/src/lv_widgets/../lv_core/lv_style.h ****     uint32_t bg_opa_transp : 1;
 241:lvgl/src/lv_widgets/../lv_core/lv_style.h ****     uint32_t bg_opa_cover : 1;
 242:lvgl/src/lv_widgets/../lv_core/lv_style.h **** 
 243:lvgl/src/lv_widgets/../lv_core/lv_style.h ****     uint32_t border_width_zero : 1;
 244:lvgl/src/lv_widgets/../lv_core/lv_style.h ****     uint32_t border_side_full : 1;
 245:lvgl/src/lv_widgets/../lv_core/lv_style.h ****     uint32_t border_post_off : 1;
 246:lvgl/src/lv_widgets/../lv_core/lv_style.h **** 
 247:lvgl/src/lv_widgets/../lv_core/lv_style.h ****     uint32_t outline_width_zero : 1;
 248:lvgl/src/lv_widgets/../lv_core/lv_style.h ****     uint32_t pattern_img_null : 1;
 249:lvgl/src/lv_widgets/../lv_core/lv_style.h ****     uint32_t shadow_width_zero : 1;
 250:lvgl/src/lv_widgets/../lv_core/lv_style.h ****     uint32_t value_txt_str : 1;
 251:lvgl/src/lv_widgets/../lv_core/lv_style.h ****     uint32_t img_recolor_opa_transp : 1;
 252:lvgl/src/lv_widgets/../lv_core/lv_style.h **** 
 253:lvgl/src/lv_widgets/../lv_core/lv_style.h ****     uint32_t text_space_zero : 1;
 254:lvgl/src/lv_widgets/../lv_core/lv_style.h ****     uint32_t text_decor_none : 1;
 255:lvgl/src/lv_widgets/../lv_core/lv_style.h ****     uint32_t text_font_normal : 1;
 256:lvgl/src/lv_widgets/../lv_core/lv_style.h **** } lv_style_list_t;
 257:lvgl/src/lv_widgets/../lv_core/lv_style.h **** 
 258:lvgl/src/lv_widgets/../lv_core/lv_style.h **** /**********************
 259:lvgl/src/lv_widgets/../lv_core/lv_style.h ****  * GLOBAL PROTOTYPES
ARM GAS  D:\Temp\ccOOHxmt.s 			page 54


 260:lvgl/src/lv_widgets/../lv_core/lv_style.h ****  **********************/
 261:lvgl/src/lv_widgets/../lv_core/lv_style.h **** 
 262:lvgl/src/lv_widgets/../lv_core/lv_style.h **** /**
 263:lvgl/src/lv_widgets/../lv_core/lv_style.h ****  * Initialize a style
 264:lvgl/src/lv_widgets/../lv_core/lv_style.h ****  * @param style pointer to a style to initialize
 265:lvgl/src/lv_widgets/../lv_core/lv_style.h ****  */
 266:lvgl/src/lv_widgets/../lv_core/lv_style.h **** void lv_style_init(lv_style_t * style);
 267:lvgl/src/lv_widgets/../lv_core/lv_style.h **** 
 268:lvgl/src/lv_widgets/../lv_core/lv_style.h **** /**
 269:lvgl/src/lv_widgets/../lv_core/lv_style.h ****  * Copy a style with all its properties
 270:lvgl/src/lv_widgets/../lv_core/lv_style.h ****  * @param style_dest pointer to the destination style. (Should be initialized with `lv_style_init()
 271:lvgl/src/lv_widgets/../lv_core/lv_style.h ****  * @param style_src pointer to the source (to copy )style
 272:lvgl/src/lv_widgets/../lv_core/lv_style.h ****  */
 273:lvgl/src/lv_widgets/../lv_core/lv_style.h **** void lv_style_copy(lv_style_t * style_dest, const lv_style_t * style_src);
 274:lvgl/src/lv_widgets/../lv_core/lv_style.h **** 
 275:lvgl/src/lv_widgets/../lv_core/lv_style.h **** /**
 276:lvgl/src/lv_widgets/../lv_core/lv_style.h ****  * Initialize a style list
 277:lvgl/src/lv_widgets/../lv_core/lv_style.h ****  * @param list a style list to initialize
 278:lvgl/src/lv_widgets/../lv_core/lv_style.h ****  */
 279:lvgl/src/lv_widgets/../lv_core/lv_style.h **** void lv_style_list_init(lv_style_list_t * list);
 280:lvgl/src/lv_widgets/../lv_core/lv_style.h **** 
 281:lvgl/src/lv_widgets/../lv_core/lv_style.h **** /**
 282:lvgl/src/lv_widgets/../lv_core/lv_style.h ****  * Copy a style list with all its styles and local style properties
 283:lvgl/src/lv_widgets/../lv_core/lv_style.h ****  * @param list_dest pointer to the destination style list. (should be initialized with `lv_style_li
 284:lvgl/src/lv_widgets/../lv_core/lv_style.h ****  * @param list_src pointer to the source (to copy) style list.
 285:lvgl/src/lv_widgets/../lv_core/lv_style.h ****  */
 286:lvgl/src/lv_widgets/../lv_core/lv_style.h **** void lv_style_list_copy(lv_style_list_t * list_dest, const lv_style_list_t * list_src);
 287:lvgl/src/lv_widgets/../lv_core/lv_style.h **** 
 288:lvgl/src/lv_widgets/../lv_core/lv_style.h **** /**
 289:lvgl/src/lv_widgets/../lv_core/lv_style.h ****  * Add a style to a style list.
 290:lvgl/src/lv_widgets/../lv_core/lv_style.h ****  * Only the style pointer will be saved so the shouldn't be a local variable.
 291:lvgl/src/lv_widgets/../lv_core/lv_style.h ****  * (It should be static, global or dynamically allocated)
 292:lvgl/src/lv_widgets/../lv_core/lv_style.h ****  * @param list pointer to a style list
 293:lvgl/src/lv_widgets/../lv_core/lv_style.h ****  * @param style pointer to a style to add
 294:lvgl/src/lv_widgets/../lv_core/lv_style.h ****  */
 295:lvgl/src/lv_widgets/../lv_core/lv_style.h **** void _lv_style_list_add_style(lv_style_list_t * list, lv_style_t * style);
 296:lvgl/src/lv_widgets/../lv_core/lv_style.h **** 
 297:lvgl/src/lv_widgets/../lv_core/lv_style.h **** /**
 298:lvgl/src/lv_widgets/../lv_core/lv_style.h ****  * Remove a style from a style list
 299:lvgl/src/lv_widgets/../lv_core/lv_style.h ****  * @param style_list pointer to a style list
 300:lvgl/src/lv_widgets/../lv_core/lv_style.h ****  * @param style pointer to a style to remove
 301:lvgl/src/lv_widgets/../lv_core/lv_style.h ****  */
 302:lvgl/src/lv_widgets/../lv_core/lv_style.h **** void _lv_style_list_remove_style(lv_style_list_t * list, lv_style_t * style);
 303:lvgl/src/lv_widgets/../lv_core/lv_style.h **** 
 304:lvgl/src/lv_widgets/../lv_core/lv_style.h **** /**
 305:lvgl/src/lv_widgets/../lv_core/lv_style.h ****  * Remove all styles added from style list, clear the local style, transition style and free all al
 306:lvgl/src/lv_widgets/../lv_core/lv_style.h ****  * Leave `ignore_trans` flag as it is.
 307:lvgl/src/lv_widgets/../lv_core/lv_style.h ****  * @param list pointer to a style list.
 308:lvgl/src/lv_widgets/../lv_core/lv_style.h ****  */
 309:lvgl/src/lv_widgets/../lv_core/lv_style.h **** void _lv_style_list_reset(lv_style_list_t * style_list);
 310:lvgl/src/lv_widgets/../lv_core/lv_style.h **** 
 311:lvgl/src/lv_widgets/../lv_core/lv_style.h **** static inline lv_style_t * lv_style_list_get_style(lv_style_list_t * list, uint8_t id)
 1294              		.loc 3 311 28 is_stmt 1 discriminator 1 view .LVU355
 1295              	.LBB110:
 312:lvgl/src/lv_widgets/../lv_core/lv_style.h **** {
 313:lvgl/src/lv_widgets/../lv_core/lv_style.h ****     if(list->has_trans && list->skip_trans) id++;
 1296              		.loc 3 313 5 discriminator 1 view .LVU356
ARM GAS  D:\Temp\ccOOHxmt.s 			page 55


 1297              		.loc 3 313 24 is_stmt 0 discriminator 1 view .LVU357
 1298 0166 039B     		ldr	r3, [sp, #12]
 1299 0168 1B8B     		ldrh	r3, [r3, #24]
 1300 016a 03F4C073 		and	r3, r3, #384
 1301              		.loc 3 313 7 discriminator 1 view .LVU358
 1302 016e B3F5C07F 		cmp	r3, #384
 1303 0172 4AD0     		beq	.L65
 1304              		.loc 3 313 7 view .LVU359
 1305 0174 0022     		movs	r2, #0
 1306              	.L46:
 1307              	.LVL156:
 314:lvgl/src/lv_widgets/../lv_core/lv_style.h ****     if(list->style_cnt == 0 || id >= list->style_cnt) return NULL;
 1308              		.loc 3 314 5 is_stmt 1 view .LVU360
 1309              		.loc 3 314 24 is_stmt 0 view .LVU361
 1310 0176 0399     		ldr	r1, [sp, #12]
 1311 0178 0B7E     		ldrb	r3, [r1, #24]	@ zero_extendqisi2
 1312              		.loc 3 314 7 view .LVU362
 1313 017a 13F03F0F 		tst	r3, #63
 1314 017e CCD0     		beq	.L45
 1315              		.loc 3 314 42 view .LVU363
 1316 0180 0B7E     		ldrb	r3, [r1, #24]	@ zero_extendqisi2
 1317 0182 03F03F03 		and	r3, r3, #63
 1318              		.loc 3 314 29 view .LVU364
 1319 0186 9342     		cmp	r3, r2
 1320 0188 C7D9     		bls	.L45
 315:lvgl/src/lv_widgets/../lv_core/lv_style.h ****     return list->style_list[id];
 1321              		.loc 3 315 5 is_stmt 1 view .LVU365
 1322              		.loc 3 315 16 is_stmt 0 view .LVU366
 1323 018a 4B69     		ldr	r3, [r1, #20]
 1324              		.loc 3 315 28 view .LVU367
 1325 018c 53F82230 		ldr	r3, [r3, r2, lsl #2]
 1326              	.LVL157:
 1327              		.loc 3 315 28 view .LVU368
 1328              	.LBE110:
 1329              	.LBE109:
 934:lvgl/src/lv_widgets/lv_arc.c ****         lv_coord_t knob_extra_size = lv_obj_get_draw_rect_ext_pad_size(arc, LV_ARC_PART_KNOB);
 1330              		.loc 1 934 34 view .LVU369
 1331 0190 002B     		cmp	r3, #0
 1332 0192 C2D0     		beq	.L45
 1333              	.LBB112:
 935:lvgl/src/lv_widgets/lv_arc.c **** 
 1334              		.loc 1 935 9 is_stmt 1 view .LVU370
 935:lvgl/src/lv_widgets/lv_arc.c **** 
 1335              		.loc 1 935 38 is_stmt 0 view .LVU371
 1336 0194 0221     		movs	r1, #2
 1337 0196 0098     		ldr	r0, [sp]
 1338              	.LVL158:
 935:lvgl/src/lv_widgets/lv_arc.c **** 
 1339              		.loc 1 935 38 view .LVU372
 1340 0198 FFF7FEFF 		bl	lv_obj_get_draw_rect_ext_pad_size
 1341              	.LVL159:
 1342 019c 0190     		str	r0, [sp, #4]
 1343              	.LVL160:
 937:lvgl/src/lv_widgets/lv_arc.c ****         lv_coord_t knob_right = lv_obj_get_style_pad_right(arc, LV_ARC_PART_KNOB);
 1344              		.loc 1 937 9 is_stmt 1 view .LVU373
 1345              	.LBB113:
 1346              	.LBI113:
ARM GAS  D:\Temp\ccOOHxmt.s 			page 56


 112:lvgl/src/lv_widgets/../lv_core/lv_obj_style_dec.h **** _LV_OBJ_STYLE_SET_GET_DECLARE(PAD_RIGHT, pad_right, lv_style_int_t, _int, scalar)
 1347              		.loc 2 112 1 view .LVU374
 1348              	.LBB114:
 112:lvgl/src/lv_widgets/../lv_core/lv_obj_style_dec.h **** _LV_OBJ_STYLE_SET_GET_DECLARE(PAD_RIGHT, pad_right, lv_style_int_t, _int, scalar)
 1349              		.loc 2 112 1 view .LVU375
 1350 019e 1222     		movs	r2, #18
 1351 01a0 0221     		movs	r1, #2
 1352 01a2 0098     		ldr	r0, [sp]
 1353 01a4 FFF7FEFF 		bl	_lv_obj_get_style_int
 1354              	.LVL161:
 1355 01a8 0390     		str	r0, [sp, #12]
 1356              	.LVL162:
 112:lvgl/src/lv_widgets/../lv_core/lv_obj_style_dec.h **** _LV_OBJ_STYLE_SET_GET_DECLARE(PAD_RIGHT, pad_right, lv_style_int_t, _int, scalar)
 1357              		.loc 2 112 1 is_stmt 0 view .LVU376
 1358              	.LBE114:
 1359              	.LBE113:
 938:lvgl/src/lv_widgets/lv_arc.c ****         lv_coord_t knob_top = lv_obj_get_style_pad_top(arc, LV_ARC_PART_KNOB);
 1360              		.loc 1 938 9 is_stmt 1 view .LVU377
 1361              	.LBB115:
 1362              	.LBI115:
 113:lvgl/src/lv_widgets/../lv_core/lv_obj_style_dec.h **** _LV_OBJ_STYLE_SET_GET_DECLARE(PAD_INNER, pad_inner, lv_style_int_t, _int, scalar)
 1363              		.loc 2 113 1 view .LVU378
 1364              	.LBB116:
 113:lvgl/src/lv_widgets/../lv_core/lv_obj_style_dec.h **** _LV_OBJ_STYLE_SET_GET_DECLARE(PAD_INNER, pad_inner, lv_style_int_t, _int, scalar)
 1365              		.loc 2 113 1 view .LVU379
 1366 01aa 1322     		movs	r2, #19
 1367 01ac 0221     		movs	r1, #2
 1368 01ae 0098     		ldr	r0, [sp]
 1369 01b0 FFF7FEFF 		bl	_lv_obj_get_style_int
 1370              	.LVL163:
 1371 01b4 0690     		str	r0, [sp, #24]
 1372              	.LVL164:
 113:lvgl/src/lv_widgets/../lv_core/lv_obj_style_dec.h **** _LV_OBJ_STYLE_SET_GET_DECLARE(PAD_INNER, pad_inner, lv_style_int_t, _int, scalar)
 1373              		.loc 2 113 1 is_stmt 0 view .LVU380
 1374              	.LBE116:
 1375              	.LBE115:
 939:lvgl/src/lv_widgets/lv_arc.c ****         lv_coord_t knob_bottom = lv_obj_get_style_pad_bottom(arc, LV_ARC_PART_KNOB);
 1376              		.loc 1 939 9 is_stmt 1 view .LVU381
 1377              	.LBB117:
 1378              	.LBI117:
 110:lvgl/src/lv_widgets/../lv_core/lv_obj_style_dec.h **** _LV_OBJ_STYLE_SET_GET_DECLARE(PAD_BOTTOM, pad_bottom, lv_style_int_t, _int, scalar)
 1379              		.loc 2 110 1 view .LVU382
 1380              	.LBB118:
 110:lvgl/src/lv_widgets/../lv_core/lv_obj_style_dec.h **** _LV_OBJ_STYLE_SET_GET_DECLARE(PAD_BOTTOM, pad_bottom, lv_style_int_t, _int, scalar)
 1381              		.loc 2 110 1 view .LVU383
 1382 01b6 1022     		movs	r2, #16
 1383 01b8 0221     		movs	r1, #2
 1384 01ba 0098     		ldr	r0, [sp]
 1385 01bc FFF7FEFF 		bl	_lv_obj_get_style_int
 1386              	.LVL165:
 1387 01c0 0790     		str	r0, [sp, #28]
 1388              	.LVL166:
 110:lvgl/src/lv_widgets/../lv_core/lv_obj_style_dec.h **** _LV_OBJ_STYLE_SET_GET_DECLARE(PAD_BOTTOM, pad_bottom, lv_style_int_t, _int, scalar)
 1389              		.loc 2 110 1 is_stmt 0 view .LVU384
 1390              	.LBE118:
 1391              	.LBE117:
 940:lvgl/src/lv_widgets/lv_arc.c **** 
ARM GAS  D:\Temp\ccOOHxmt.s 			page 57


 1392              		.loc 1 940 9 is_stmt 1 view .LVU385
 1393              	.LBB119:
 1394              	.LBI119:
 111:lvgl/src/lv_widgets/../lv_core/lv_obj_style_dec.h **** _LV_OBJ_STYLE_SET_GET_DECLARE(PAD_LEFT, pad_left, lv_style_int_t, _int, scalar)
 1395              		.loc 2 111 1 view .LVU386
 1396              	.LBB120:
 111:lvgl/src/lv_widgets/../lv_core/lv_obj_style_dec.h **** _LV_OBJ_STYLE_SET_GET_DECLARE(PAD_LEFT, pad_left, lv_style_int_t, _int, scalar)
 1397              		.loc 2 111 1 view .LVU387
 1398 01c2 1122     		movs	r2, #17
 1399 01c4 0221     		movs	r1, #2
 1400 01c6 0098     		ldr	r0, [sp]
 1401 01c8 FFF7FEFF 		bl	_lv_obj_get_style_int
 1402              	.LVL167:
 111:lvgl/src/lv_widgets/../lv_core/lv_obj_style_dec.h **** _LV_OBJ_STYLE_SET_GET_DECLARE(PAD_LEFT, pad_left, lv_style_int_t, _int, scalar)
 1403              		.loc 2 111 1 is_stmt 0 view .LVU388
 1404              	.LBE120:
 1405              	.LBE119:
 942:lvgl/src/lv_widgets/lv_arc.c **** 
 1406              		.loc 1 942 9 is_stmt 1 view .LVU389
 942:lvgl/src/lv_widgets/lv_arc.c **** 
 1407              		.loc 1 942 28 is_stmt 0 view .LVU390
 1408 01cc 079B     		ldr	r3, [sp, #28]
 1409 01ce 9842     		cmp	r0, r3
 1410 01d0 B8BF     		it	lt
 1411 01d2 1846     		movlt	r0, r3
 1412              	.LVL168:
 942:lvgl/src/lv_widgets/lv_arc.c **** 
 1413              		.loc 1 942 28 view .LVU391
 1414 01d4 02B2     		sxth	r2, r0
 1415 01d6 069B     		ldr	r3, [sp, #24]
 1416 01d8 0399     		ldr	r1, [sp, #12]
 1417 01da 8B42     		cmp	r3, r1
 1418 01dc B8BF     		it	lt
 1419 01de 0B46     		movlt	r3, r1
 1420 01e0 1BB2     		sxth	r3, r3
 1421 01e2 9A42     		cmp	r2, r3
 1422 01e4 B8BF     		it	lt
 1423 01e6 1A46     		movlt	r2, r3
 942:lvgl/src/lv_widgets/lv_arc.c **** 
 1424              		.loc 1 942 25 view .LVU392
 1425 01e8 019B     		ldr	r3, [sp, #4]
 1426 01ea 13FA82F2 		uxtah	r2, r3, r2
 1427              	.LVL169:
 944:lvgl/src/lv_widgets/lv_arc.c **** 
 1428              		.loc 1 944 9 is_stmt 1 view .LVU393
 944:lvgl/src/lv_widgets/lv_arc.c **** 
 1429              		.loc 1 944 22 is_stmt 0 view .LVU394
 1430 01ee 07EBD777 		add	r7, r7, r7, lsr #31
 1431              	.LVL170:
 944:lvgl/src/lv_widgets/lv_arc.c **** 
 1432              		.loc 1 944 22 view .LVU395
 1433 01f2 47F34F03 		sbfx	r3, r7, #1, #16
 1434 01f6 0233     		adds	r3, r3, #2
 1435 01f8 03FA82F7 		sxtah	r7, r3, r2
 1436 01fc 049B     		ldr	r3, [sp, #16]
 1437 01fe BB42     		cmp	r3, r7
 1438 0200 B8BF     		it	lt
ARM GAS  D:\Temp\ccOOHxmt.s 			page 58


 1439 0202 3B46     		movlt	r3, r7
 944:lvgl/src/lv_widgets/lv_arc.c **** 
 1440              		.loc 1 944 20 view .LVU396
 1441 0204 1BB2     		sxth	r3, r3
 1442 0206 0493     		str	r3, [sp, #16]
 1443              	.LVL171:
 944:lvgl/src/lv_widgets/lv_arc.c **** 
 1444              		.loc 1 944 20 view .LVU397
 1445 0208 87E7     		b	.L45
 1446              	.LVL172:
 1447              	.L65:
 944:lvgl/src/lv_widgets/lv_arc.c **** 
 1448              		.loc 1 944 20 view .LVU398
 1449              	.LBE112:
 1450              	.LBB121:
 1451              	.LBB111:
 313:lvgl/src/lv_widgets/../lv_core/lv_style.h ****     if(list->style_cnt == 0 || id >= list->style_cnt) return NULL;
 1452              		.loc 3 313 47 view .LVU399
 1453 020a 0122     		movs	r2, #1
 1454 020c B3E7     		b	.L46
 1455              	.LVL173:
 1456              	.L69:
 313:lvgl/src/lv_widgets/../lv_core/lv_style.h ****     if(list->style_cnt == 0 || id >= list->style_cnt) return NULL;
 1457              		.loc 3 313 47 view .LVU400
 1458              	.LBE111:
 1459              	.LBE121:
 950:lvgl/src/lv_widgets/lv_arc.c ****         if(start_quarter == 0) {
 1460              		.loc 1 950 37 discriminator 1 view .LVU401
 1461 020e A945     		cmp	r9, r5
 1462 0210 86D8     		bhi	.L47
 951:lvgl/src/lv_widgets/lv_arc.c ****             inv_area.y1 = y + ((_lv_trigo_sin(start_angle) * rin) >> LV_TRIGO_SHIFT) - extra_area;
 1463              		.loc 1 951 9 is_stmt 1 view .LVU402
 951:lvgl/src/lv_widgets/lv_arc.c ****             inv_area.y1 = y + ((_lv_trigo_sin(start_angle) * rin) >> LV_TRIGO_SHIFT) - extra_area;
 1464              		.loc 1 951 11 is_stmt 0 view .LVU403
 1465 0212 002C     		cmp	r4, #0
 1466 0214 41D0     		beq	.L74
 960:lvgl/src/lv_widgets/lv_arc.c ****             inv_area.y2 = y + ((_lv_trigo_sin(start_angle) * rout) >> LV_TRIGO_SHIFT) + extra_area;
 1467              		.loc 1 960 14 is_stmt 1 view .LVU404
 960:lvgl/src/lv_widgets/lv_arc.c ****             inv_area.y2 = y + ((_lv_trigo_sin(start_angle) * rout) >> LV_TRIGO_SHIFT) + extra_area;
 1468              		.loc 1 960 16 is_stmt 0 view .LVU405
 1469 0216 012C     		cmp	r4, #1
 1470 0218 7ED0     		beq	.L75
 969:lvgl/src/lv_widgets/lv_arc.c ****             inv_area.x1 = x + ((_lv_trigo_sin(start_angle + 90) * rout) >> LV_TRIGO_SHIFT) - extra_
 1471              		.loc 1 969 14 is_stmt 1 view .LVU406
 969:lvgl/src/lv_widgets/lv_arc.c ****             inv_area.x1 = x + ((_lv_trigo_sin(start_angle + 90) * rout) >> LV_TRIGO_SHIFT) - extra_
 1472              		.loc 1 969 16 is_stmt 0 view .LVU407
 1473 021a 022C     		cmp	r4, #2
 1474 021c 00F0B680 		beq	.L76
 978:lvgl/src/lv_widgets/lv_arc.c ****             /*Small arc here*/
 1475              		.loc 1 978 14 is_stmt 1 view .LVU408
 978:lvgl/src/lv_widgets/lv_arc.c ****             /*Small arc here*/
 1476              		.loc 1 978 16 is_stmt 0 view .LVU409
 1477 0220 032C     		cmp	r4, #3
 1478 0222 7FF4F8AE 		bne	.L37
 980:lvgl/src/lv_widgets/lv_arc.c ****             inv_area.y1 = y + ((_lv_trigo_sin(start_angle) * rout) >> LV_TRIGO_SHIFT) - extra_area;
 1479              		.loc 1 980 13 is_stmt 1 view .LVU410
 980:lvgl/src/lv_widgets/lv_arc.c ****             inv_area.y1 = y + ((_lv_trigo_sin(start_angle) * rout) >> LV_TRIGO_SHIFT) - extra_area;
ARM GAS  D:\Temp\ccOOHxmt.s 			page 59


 1480              		.loc 1 980 59 is_stmt 0 view .LVU411
 1481 0226 09F15A00 		add	r0, r9, #90
 980:lvgl/src/lv_widgets/lv_arc.c ****             inv_area.y1 = y + ((_lv_trigo_sin(start_angle) * rout) >> LV_TRIGO_SHIFT) - extra_area;
 1482              		.loc 1 980 33 view .LVU412
 1483 022a 00B2     		sxth	r0, r0
 1484 022c FFF7FEFF 		bl	_lv_trigo_sin
 1485              	.LVL174:
 980:lvgl/src/lv_widgets/lv_arc.c ****             inv_area.y1 = y + ((_lv_trigo_sin(start_angle) * rout) >> LV_TRIGO_SHIFT) - extra_area;
 1486              		.loc 1 980 65 view .LVU413
 1487 0230 059C     		ldr	r4, [sp, #20]
 1488              	.LVL175:
 980:lvgl/src/lv_widgets/lv_arc.c ****             inv_area.y1 = y + ((_lv_trigo_sin(start_angle) * rout) >> LV_TRIGO_SHIFT) - extra_area;
 1489              		.loc 1 980 65 view .LVU414
 1490 0232 2346     		mov	r3, r4
 1491 0234 03FB00F3 		mul	r3, r3, r0
 980:lvgl/src/lv_widgets/lv_arc.c ****             inv_area.y1 = y + ((_lv_trigo_sin(start_angle) * rout) >> LV_TRIGO_SHIFT) - extra_area;
 1492              		.loc 1 980 29 view .LVU415
 1493 0238 0BEBE333 		add	r3, fp, r3, asr #15
 1494 023c 9BB2     		uxth	r3, r3
 980:lvgl/src/lv_widgets/lv_arc.c ****             inv_area.y1 = y + ((_lv_trigo_sin(start_angle) * rout) >> LV_TRIGO_SHIFT) - extra_area;
 1495              		.loc 1 980 91 view .LVU416
 1496 023e BDF81070 		ldrh	r7, [sp, #16]
 1497 0242 DB1B     		subs	r3, r3, r7
 980:lvgl/src/lv_widgets/lv_arc.c ****             inv_area.y1 = y + ((_lv_trigo_sin(start_angle) * rout) >> LV_TRIGO_SHIFT) - extra_area;
 1498              		.loc 1 980 25 view .LVU417
 1499 0244 ADF82030 		strh	r3, [sp, #32]	@ movhi
 981:lvgl/src/lv_widgets/lv_arc.c **** 
 1500              		.loc 1 981 13 is_stmt 1 view .LVU418
 981:lvgl/src/lv_widgets/lv_arc.c **** 
 1501              		.loc 1 981 33 is_stmt 0 view .LVU419
 1502 0248 0FFA89F0 		sxth	r0, r9
 1503 024c FFF7FEFF 		bl	_lv_trigo_sin
 1504              	.LVL176:
 981:lvgl/src/lv_widgets/lv_arc.c **** 
 1505              		.loc 1 981 60 view .LVU420
 1506 0250 0AFB00F3 		mul	r3, r10, r0
 981:lvgl/src/lv_widgets/lv_arc.c **** 
 1507              		.loc 1 981 29 view .LVU421
 1508 0254 08EBE333 		add	r3, r8, r3, asr #15
 1509 0258 9BB2     		uxth	r3, r3
 981:lvgl/src/lv_widgets/lv_arc.c **** 
 1510              		.loc 1 981 87 view .LVU422
 1511 025a DB1B     		subs	r3, r3, r7
 981:lvgl/src/lv_widgets/lv_arc.c **** 
 1512              		.loc 1 981 25 view .LVU423
 1513 025c ADF82230 		strh	r3, [sp, #34]	@ movhi
 983:lvgl/src/lv_widgets/lv_arc.c ****             inv_area.y2 = y + ((_lv_trigo_sin(end_angle) * rin) >> LV_TRIGO_SHIFT) + extra_area;
 1514              		.loc 1 983 13 is_stmt 1 view .LVU424
 983:lvgl/src/lv_widgets/lv_arc.c ****             inv_area.y2 = y + ((_lv_trigo_sin(end_angle) * rin) >> LV_TRIGO_SHIFT) + extra_area;
 1515              		.loc 1 983 57 is_stmt 0 view .LVU425
 1516 0260 05F15A00 		add	r0, r5, #90
 983:lvgl/src/lv_widgets/lv_arc.c ****             inv_area.y2 = y + ((_lv_trigo_sin(end_angle) * rin) >> LV_TRIGO_SHIFT) + extra_area;
 1517              		.loc 1 983 33 view .LVU426
 1518 0264 00B2     		sxth	r0, r0
 1519 0266 FFF7FEFF 		bl	_lv_trigo_sin
 1520              	.LVL177:
 983:lvgl/src/lv_widgets/lv_arc.c ****             inv_area.y2 = y + ((_lv_trigo_sin(end_angle) * rin) >> LV_TRIGO_SHIFT) + extra_area;
ARM GAS  D:\Temp\ccOOHxmt.s 			page 60


 1521              		.loc 1 983 63 view .LVU427
 1522 026a 00FB0AF3 		mul	r3, r0, r10
 983:lvgl/src/lv_widgets/lv_arc.c ****             inv_area.y2 = y + ((_lv_trigo_sin(end_angle) * rin) >> LV_TRIGO_SHIFT) + extra_area;
 1523              		.loc 1 983 29 view .LVU428
 1524 026e 0BEBE333 		add	r3, fp, r3, asr #15
 983:lvgl/src/lv_widgets/lv_arc.c ****             inv_area.y2 = y + ((_lv_trigo_sin(end_angle) * rin) >> LV_TRIGO_SHIFT) + extra_area;
 1525              		.loc 1 983 90 view .LVU429
 1526 0272 17FA83F3 		uxtah	r3, r7, r3
 983:lvgl/src/lv_widgets/lv_arc.c ****             inv_area.y2 = y + ((_lv_trigo_sin(end_angle) * rin) >> LV_TRIGO_SHIFT) + extra_area;
 1527              		.loc 1 983 25 view .LVU430
 1528 0276 ADF82430 		strh	r3, [sp, #36]	@ movhi
 984:lvgl/src/lv_widgets/lv_arc.c **** 
 1529              		.loc 1 984 13 is_stmt 1 view .LVU431
 984:lvgl/src/lv_widgets/lv_arc.c **** 
 1530              		.loc 1 984 33 is_stmt 0 view .LVU432
 1531 027a 28B2     		sxth	r0, r5
 1532 027c FFF7FEFF 		bl	_lv_trigo_sin
 1533              	.LVL178:
 984:lvgl/src/lv_widgets/lv_arc.c **** 
 1534              		.loc 1 984 58 view .LVU433
 1535 0280 00FB04F3 		mul	r3, r0, r4
 984:lvgl/src/lv_widgets/lv_arc.c **** 
 1536              		.loc 1 984 29 view .LVU434
 1537 0284 08EBE333 		add	r3, r8, r3, asr #15
 984:lvgl/src/lv_widgets/lv_arc.c **** 
 1538              		.loc 1 984 84 view .LVU435
 1539 0288 17FA83F7 		uxtah	r7, r7, r3
 984:lvgl/src/lv_widgets/lv_arc.c **** 
 1540              		.loc 1 984 25 view .LVU436
 1541 028c ADF82670 		strh	r7, [sp, #38]	@ movhi
 986:lvgl/src/lv_widgets/lv_arc.c ****         }
 1542              		.loc 1 986 13 is_stmt 1 view .LVU437
 1543 0290 08A9     		add	r1, sp, #32
 1544 0292 0098     		ldr	r0, [sp]
 1545 0294 FFF7FEFF 		bl	lv_obj_invalidate_area
 1546              	.LVL179:
 1547 0298 BDE6     		b	.L37
 1548              	.LVL180:
 1549              	.L74:
 952:lvgl/src/lv_widgets/lv_arc.c ****             inv_area.x2 = x + ((_lv_trigo_sin(start_angle + 90) * rout) >> LV_TRIGO_SHIFT) + extra_
 1550              		.loc 1 952 13 view .LVU438
 952:lvgl/src/lv_widgets/lv_arc.c ****             inv_area.x2 = x + ((_lv_trigo_sin(start_angle + 90) * rout) >> LV_TRIGO_SHIFT) + extra_
 1551              		.loc 1 952 33 is_stmt 0 view .LVU439
 1552 029a 0FFA89F0 		sxth	r0, r9
 1553 029e FFF7FEFF 		bl	_lv_trigo_sin
 1554              	.LVL181:
 952:lvgl/src/lv_widgets/lv_arc.c ****             inv_area.x2 = x + ((_lv_trigo_sin(start_angle + 90) * rout) >> LV_TRIGO_SHIFT) + extra_
 1555              		.loc 1 952 60 view .LVU440
 1556 02a2 059C     		ldr	r4, [sp, #20]
 1557              	.LVL182:
 952:lvgl/src/lv_widgets/lv_arc.c ****             inv_area.x2 = x + ((_lv_trigo_sin(start_angle + 90) * rout) >> LV_TRIGO_SHIFT) + extra_
 1558              		.loc 1 952 60 view .LVU441
 1559 02a4 2346     		mov	r3, r4
 1560 02a6 03FB00F3 		mul	r3, r3, r0
 952:lvgl/src/lv_widgets/lv_arc.c ****             inv_area.x2 = x + ((_lv_trigo_sin(start_angle + 90) * rout) >> LV_TRIGO_SHIFT) + extra_
 1561              		.loc 1 952 29 view .LVU442
 1562 02aa 08EBE333 		add	r3, r8, r3, asr #15
ARM GAS  D:\Temp\ccOOHxmt.s 			page 61


 1563 02ae 9BB2     		uxth	r3, r3
 952:lvgl/src/lv_widgets/lv_arc.c ****             inv_area.x2 = x + ((_lv_trigo_sin(start_angle + 90) * rout) >> LV_TRIGO_SHIFT) + extra_
 1564              		.loc 1 952 86 view .LVU443
 1565 02b0 BDF81070 		ldrh	r7, [sp, #16]
 1566 02b4 DB1B     		subs	r3, r3, r7
 952:lvgl/src/lv_widgets/lv_arc.c ****             inv_area.x2 = x + ((_lv_trigo_sin(start_angle + 90) * rout) >> LV_TRIGO_SHIFT) + extra_
 1567              		.loc 1 952 25 view .LVU444
 1568 02b6 ADF82230 		strh	r3, [sp, #34]	@ movhi
 953:lvgl/src/lv_widgets/lv_arc.c **** 
 1569              		.loc 1 953 13 is_stmt 1 view .LVU445
 953:lvgl/src/lv_widgets/lv_arc.c **** 
 1570              		.loc 1 953 59 is_stmt 0 view .LVU446
 1571 02ba 09F15A00 		add	r0, r9, #90
 953:lvgl/src/lv_widgets/lv_arc.c **** 
 1572              		.loc 1 953 33 view .LVU447
 1573 02be 00B2     		sxth	r0, r0
 1574 02c0 FFF7FEFF 		bl	_lv_trigo_sin
 1575              	.LVL183:
 953:lvgl/src/lv_widgets/lv_arc.c **** 
 1576              		.loc 1 953 65 view .LVU448
 1577 02c4 0AFB00F3 		mul	r3, r10, r0
 953:lvgl/src/lv_widgets/lv_arc.c **** 
 1578              		.loc 1 953 29 view .LVU449
 1579 02c8 0BEBE333 		add	r3, fp, r3, asr #15
 953:lvgl/src/lv_widgets/lv_arc.c **** 
 1580              		.loc 1 953 92 view .LVU450
 1581 02cc 17FA83F3 		uxtah	r3, r7, r3
 953:lvgl/src/lv_widgets/lv_arc.c **** 
 1582              		.loc 1 953 25 view .LVU451
 1583 02d0 ADF82430 		strh	r3, [sp, #36]	@ movhi
 955:lvgl/src/lv_widgets/lv_arc.c ****             inv_area.x1 = x + ((_lv_trigo_sin(end_angle + 90) * rin) >> LV_TRIGO_SHIFT) - extra_are
 1584              		.loc 1 955 13 is_stmt 1 view .LVU452
 955:lvgl/src/lv_widgets/lv_arc.c ****             inv_area.x1 = x + ((_lv_trigo_sin(end_angle + 90) * rin) >> LV_TRIGO_SHIFT) - extra_are
 1585              		.loc 1 955 33 is_stmt 0 view .LVU453
 1586 02d4 28B2     		sxth	r0, r5
 1587 02d6 FFF7FEFF 		bl	_lv_trigo_sin
 1588              	.LVL184:
 955:lvgl/src/lv_widgets/lv_arc.c ****             inv_area.x1 = x + ((_lv_trigo_sin(end_angle + 90) * rin) >> LV_TRIGO_SHIFT) - extra_are
 1589              		.loc 1 955 58 view .LVU454
 1590 02da 00FB0AF3 		mul	r3, r0, r10
 955:lvgl/src/lv_widgets/lv_arc.c ****             inv_area.x1 = x + ((_lv_trigo_sin(end_angle + 90) * rin) >> LV_TRIGO_SHIFT) - extra_are
 1591              		.loc 1 955 29 view .LVU455
 1592 02de 08EBE333 		add	r3, r8, r3, asr #15
 955:lvgl/src/lv_widgets/lv_arc.c ****             inv_area.x1 = x + ((_lv_trigo_sin(end_angle + 90) * rin) >> LV_TRIGO_SHIFT) - extra_are
 1593              		.loc 1 955 85 view .LVU456
 1594 02e2 17FA83F3 		uxtah	r3, r7, r3
 955:lvgl/src/lv_widgets/lv_arc.c ****             inv_area.x1 = x + ((_lv_trigo_sin(end_angle + 90) * rin) >> LV_TRIGO_SHIFT) - extra_are
 1595              		.loc 1 955 25 view .LVU457
 1596 02e6 ADF82630 		strh	r3, [sp, #38]	@ movhi
 956:lvgl/src/lv_widgets/lv_arc.c **** 
 1597              		.loc 1 956 13 is_stmt 1 view .LVU458
 956:lvgl/src/lv_widgets/lv_arc.c **** 
 1598              		.loc 1 956 57 is_stmt 0 view .LVU459
 1599 02ea 05F15A00 		add	r0, r5, #90
 956:lvgl/src/lv_widgets/lv_arc.c **** 
 1600              		.loc 1 956 33 view .LVU460
 1601 02ee 00B2     		sxth	r0, r0
ARM GAS  D:\Temp\ccOOHxmt.s 			page 62


 1602 02f0 FFF7FEFF 		bl	_lv_trigo_sin
 1603              	.LVL185:
 956:lvgl/src/lv_widgets/lv_arc.c **** 
 1604              		.loc 1 956 63 view .LVU461
 1605 02f4 00FB04F0 		mul	r0, r0, r4
 956:lvgl/src/lv_widgets/lv_arc.c **** 
 1606              		.loc 1 956 29 view .LVU462
 1607 02f8 0BEBE03B 		add	fp, fp, r0, asr #15
 1608              	.LVL186:
 956:lvgl/src/lv_widgets/lv_arc.c **** 
 1609              		.loc 1 956 29 view .LVU463
 1610 02fc 1FFA8BFB 		uxth	fp, fp
 956:lvgl/src/lv_widgets/lv_arc.c **** 
 1611              		.loc 1 956 89 view .LVU464
 1612 0300 ABEB0707 		sub	r7, fp, r7
 956:lvgl/src/lv_widgets/lv_arc.c **** 
 1613              		.loc 1 956 25 view .LVU465
 1614 0304 ADF82070 		strh	r7, [sp, #32]	@ movhi
 958:lvgl/src/lv_widgets/lv_arc.c ****         }
 1615              		.loc 1 958 13 is_stmt 1 view .LVU466
 1616 0308 08A9     		add	r1, sp, #32
 1617 030a 0098     		ldr	r0, [sp]
 1618 030c FFF7FEFF 		bl	lv_obj_invalidate_area
 1619              	.LVL187:
 1620 0310 81E6     		b	.L37
 1621              	.L78:
 1622 0312 00BF     		.align	2
 1623              	.L77:
 1624 0314 B7600BB6 		.word	-1240768329
 1625              	.LVL188:
 1626              	.L75:
 961:lvgl/src/lv_widgets/lv_arc.c ****             inv_area.x2 = x + ((_lv_trigo_sin(start_angle + 90) * rin) >> LV_TRIGO_SHIFT) + extra_a
 1627              		.loc 1 961 13 view .LVU467
 961:lvgl/src/lv_widgets/lv_arc.c ****             inv_area.x2 = x + ((_lv_trigo_sin(start_angle + 90) * rin) >> LV_TRIGO_SHIFT) + extra_a
 1628              		.loc 1 961 33 is_stmt 0 view .LVU468
 1629 0318 0FFA89F0 		sxth	r0, r9
 1630 031c FFF7FEFF 		bl	_lv_trigo_sin
 1631              	.LVL189:
 961:lvgl/src/lv_widgets/lv_arc.c ****             inv_area.x2 = x + ((_lv_trigo_sin(start_angle + 90) * rin) >> LV_TRIGO_SHIFT) + extra_a
 1632              		.loc 1 961 60 view .LVU469
 1633 0320 0AFB00F3 		mul	r3, r10, r0
 961:lvgl/src/lv_widgets/lv_arc.c ****             inv_area.x2 = x + ((_lv_trigo_sin(start_angle + 90) * rin) >> LV_TRIGO_SHIFT) + extra_a
 1634              		.loc 1 961 29 view .LVU470
 1635 0324 08EBE333 		add	r3, r8, r3, asr #15
 961:lvgl/src/lv_widgets/lv_arc.c ****             inv_area.x2 = x + ((_lv_trigo_sin(start_angle + 90) * rin) >> LV_TRIGO_SHIFT) + extra_a
 1636              		.loc 1 961 87 view .LVU471
 1637 0328 BDF81070 		ldrh	r7, [sp, #16]
 1638 032c 17FA83F3 		uxtah	r3, r7, r3
 961:lvgl/src/lv_widgets/lv_arc.c ****             inv_area.x2 = x + ((_lv_trigo_sin(start_angle + 90) * rin) >> LV_TRIGO_SHIFT) + extra_a
 1639              		.loc 1 961 25 view .LVU472
 1640 0330 ADF82630 		strh	r3, [sp, #38]	@ movhi
 962:lvgl/src/lv_widgets/lv_arc.c **** 
 1641              		.loc 1 962 13 is_stmt 1 view .LVU473
 962:lvgl/src/lv_widgets/lv_arc.c **** 
 1642              		.loc 1 962 59 is_stmt 0 view .LVU474
 1643 0334 09F15A00 		add	r0, r9, #90
 962:lvgl/src/lv_widgets/lv_arc.c **** 
ARM GAS  D:\Temp\ccOOHxmt.s 			page 63


 1644              		.loc 1 962 33 view .LVU475
 1645 0338 00B2     		sxth	r0, r0
 1646 033a FFF7FEFF 		bl	_lv_trigo_sin
 1647              	.LVL190:
 962:lvgl/src/lv_widgets/lv_arc.c **** 
 1648              		.loc 1 962 65 view .LVU476
 1649 033e 059C     		ldr	r4, [sp, #20]
 1650              	.LVL191:
 962:lvgl/src/lv_widgets/lv_arc.c **** 
 1651              		.loc 1 962 65 view .LVU477
 1652 0340 2346     		mov	r3, r4
 1653 0342 03FB00F3 		mul	r3, r3, r0
 962:lvgl/src/lv_widgets/lv_arc.c **** 
 1654              		.loc 1 962 29 view .LVU478
 1655 0346 0BEBE333 		add	r3, fp, r3, asr #15
 962:lvgl/src/lv_widgets/lv_arc.c **** 
 1656              		.loc 1 962 91 view .LVU479
 1657 034a 17FA83F3 		uxtah	r3, r7, r3
 962:lvgl/src/lv_widgets/lv_arc.c **** 
 1658              		.loc 1 962 25 view .LVU480
 1659 034e ADF82430 		strh	r3, [sp, #36]	@ movhi
 964:lvgl/src/lv_widgets/lv_arc.c ****             inv_area.x1 = x + ((_lv_trigo_sin(end_angle + 90) * rout) >> LV_TRIGO_SHIFT) - extra_ar
 1660              		.loc 1 964 13 is_stmt 1 view .LVU481
 964:lvgl/src/lv_widgets/lv_arc.c ****             inv_area.x1 = x + ((_lv_trigo_sin(end_angle + 90) * rout) >> LV_TRIGO_SHIFT) - extra_ar
 1661              		.loc 1 964 33 is_stmt 0 view .LVU482
 1662 0352 28B2     		sxth	r0, r5
 1663 0354 FFF7FEFF 		bl	_lv_trigo_sin
 1664              	.LVL192:
 964:lvgl/src/lv_widgets/lv_arc.c ****             inv_area.x1 = x + ((_lv_trigo_sin(end_angle + 90) * rout) >> LV_TRIGO_SHIFT) - extra_ar
 1665              		.loc 1 964 58 view .LVU483
 1666 0358 00FB04F3 		mul	r3, r0, r4
 964:lvgl/src/lv_widgets/lv_arc.c ****             inv_area.x1 = x + ((_lv_trigo_sin(end_angle + 90) * rout) >> LV_TRIGO_SHIFT) - extra_ar
 1667              		.loc 1 964 29 view .LVU484
 1668 035c 08EBE333 		add	r3, r8, r3, asr #15
 1669 0360 9BB2     		uxth	r3, r3
 964:lvgl/src/lv_widgets/lv_arc.c ****             inv_area.x1 = x + ((_lv_trigo_sin(end_angle + 90) * rout) >> LV_TRIGO_SHIFT) - extra_ar
 1670              		.loc 1 964 84 view .LVU485
 1671 0362 DB1B     		subs	r3, r3, r7
 964:lvgl/src/lv_widgets/lv_arc.c ****             inv_area.x1 = x + ((_lv_trigo_sin(end_angle + 90) * rout) >> LV_TRIGO_SHIFT) - extra_ar
 1672              		.loc 1 964 25 view .LVU486
 1673 0364 ADF82230 		strh	r3, [sp, #34]	@ movhi
 965:lvgl/src/lv_widgets/lv_arc.c **** 
 1674              		.loc 1 965 13 is_stmt 1 view .LVU487
 965:lvgl/src/lv_widgets/lv_arc.c **** 
 1675              		.loc 1 965 57 is_stmt 0 view .LVU488
 1676 0368 05F15A00 		add	r0, r5, #90
 965:lvgl/src/lv_widgets/lv_arc.c **** 
 1677              		.loc 1 965 33 view .LVU489
 1678 036c 00B2     		sxth	r0, r0
 1679 036e FFF7FEFF 		bl	_lv_trigo_sin
 1680              	.LVL193:
 965:lvgl/src/lv_widgets/lv_arc.c **** 
 1681              		.loc 1 965 63 view .LVU490
 1682 0372 00FB0AF3 		mul	r3, r0, r10
 965:lvgl/src/lv_widgets/lv_arc.c **** 
 1683              		.loc 1 965 29 view .LVU491
 1684 0376 0BEBE333 		add	r3, fp, r3, asr #15
ARM GAS  D:\Temp\ccOOHxmt.s 			page 64


 1685 037a 9BB2     		uxth	r3, r3
 965:lvgl/src/lv_widgets/lv_arc.c **** 
 1686              		.loc 1 965 90 view .LVU492
 1687 037c DB1B     		subs	r3, r3, r7
 965:lvgl/src/lv_widgets/lv_arc.c **** 
 1688              		.loc 1 965 25 view .LVU493
 1689 037e ADF82030 		strh	r3, [sp, #32]	@ movhi
 967:lvgl/src/lv_widgets/lv_arc.c ****         }
 1690              		.loc 1 967 13 is_stmt 1 view .LVU494
 1691 0382 08A9     		add	r1, sp, #32
 1692 0384 0098     		ldr	r0, [sp]
 1693 0386 FFF7FEFF 		bl	lv_obj_invalidate_area
 1694              	.LVL194:
 1695 038a 44E6     		b	.L37
 1696              	.LVL195:
 1697              	.L76:
 970:lvgl/src/lv_widgets/lv_arc.c ****             inv_area.y2 = y + ((_lv_trigo_sin(start_angle) * rin) >> LV_TRIGO_SHIFT) + extra_area;
 1698              		.loc 1 970 13 view .LVU495
 970:lvgl/src/lv_widgets/lv_arc.c ****             inv_area.y2 = y + ((_lv_trigo_sin(start_angle) * rin) >> LV_TRIGO_SHIFT) + extra_area;
 1699              		.loc 1 970 59 is_stmt 0 view .LVU496
 1700 038c 09F15A00 		add	r0, r9, #90
 970:lvgl/src/lv_widgets/lv_arc.c ****             inv_area.y2 = y + ((_lv_trigo_sin(start_angle) * rin) >> LV_TRIGO_SHIFT) + extra_area;
 1701              		.loc 1 970 33 view .LVU497
 1702 0390 00B2     		sxth	r0, r0
 1703 0392 FFF7FEFF 		bl	_lv_trigo_sin
 1704              	.LVL196:
 970:lvgl/src/lv_widgets/lv_arc.c ****             inv_area.y2 = y + ((_lv_trigo_sin(start_angle) * rin) >> LV_TRIGO_SHIFT) + extra_area;
 1705              		.loc 1 970 65 view .LVU498
 1706 0396 0AFB00F3 		mul	r3, r10, r0
 970:lvgl/src/lv_widgets/lv_arc.c ****             inv_area.y2 = y + ((_lv_trigo_sin(start_angle) * rin) >> LV_TRIGO_SHIFT) + extra_area;
 1707              		.loc 1 970 29 view .LVU499
 1708 039a 0BEBE333 		add	r3, fp, r3, asr #15
 1709 039e 9BB2     		uxth	r3, r3
 970:lvgl/src/lv_widgets/lv_arc.c ****             inv_area.y2 = y + ((_lv_trigo_sin(start_angle) * rin) >> LV_TRIGO_SHIFT) + extra_area;
 1710              		.loc 1 970 92 view .LVU500
 1711 03a0 BDF81070 		ldrh	r7, [sp, #16]
 1712 03a4 DB1B     		subs	r3, r3, r7
 970:lvgl/src/lv_widgets/lv_arc.c ****             inv_area.y2 = y + ((_lv_trigo_sin(start_angle) * rin) >> LV_TRIGO_SHIFT) + extra_area;
 1713              		.loc 1 970 25 view .LVU501
 1714 03a6 ADF82030 		strh	r3, [sp, #32]	@ movhi
 971:lvgl/src/lv_widgets/lv_arc.c **** 
 1715              		.loc 1 971 13 is_stmt 1 view .LVU502
 971:lvgl/src/lv_widgets/lv_arc.c **** 
 1716              		.loc 1 971 33 is_stmt 0 view .LVU503
 1717 03aa 0FFA89F0 		sxth	r0, r9
 1718 03ae FFF7FEFF 		bl	_lv_trigo_sin
 1719              	.LVL197:
 971:lvgl/src/lv_widgets/lv_arc.c **** 
 1720              		.loc 1 971 60 view .LVU504
 1721 03b2 059C     		ldr	r4, [sp, #20]
 1722              	.LVL198:
 971:lvgl/src/lv_widgets/lv_arc.c **** 
 1723              		.loc 1 971 60 view .LVU505
 1724 03b4 2346     		mov	r3, r4
 1725 03b6 03FB00F3 		mul	r3, r3, r0
 971:lvgl/src/lv_widgets/lv_arc.c **** 
 1726              		.loc 1 971 29 view .LVU506
ARM GAS  D:\Temp\ccOOHxmt.s 			page 65


 1727 03ba 08EBE333 		add	r3, r8, r3, asr #15
 971:lvgl/src/lv_widgets/lv_arc.c **** 
 1728              		.loc 1 971 86 view .LVU507
 1729 03be 17FA83F3 		uxtah	r3, r7, r3
 971:lvgl/src/lv_widgets/lv_arc.c **** 
 1730              		.loc 1 971 25 view .LVU508
 1731 03c2 ADF82630 		strh	r3, [sp, #38]	@ movhi
 973:lvgl/src/lv_widgets/lv_arc.c ****             inv_area.x2 = x + ((_lv_trigo_sin(end_angle + 90) * rin) >> LV_TRIGO_SHIFT) + extra_are
 1732              		.loc 1 973 13 is_stmt 1 view .LVU509
 973:lvgl/src/lv_widgets/lv_arc.c ****             inv_area.x2 = x + ((_lv_trigo_sin(end_angle + 90) * rin) >> LV_TRIGO_SHIFT) + extra_are
 1733              		.loc 1 973 33 is_stmt 0 view .LVU510
 1734 03c6 28B2     		sxth	r0, r5
 1735 03c8 FFF7FEFF 		bl	_lv_trigo_sin
 1736              	.LVL199:
 973:lvgl/src/lv_widgets/lv_arc.c ****             inv_area.x2 = x + ((_lv_trigo_sin(end_angle + 90) * rin) >> LV_TRIGO_SHIFT) + extra_are
 1737              		.loc 1 973 58 view .LVU511
 1738 03cc 00FB0AF3 		mul	r3, r0, r10
 973:lvgl/src/lv_widgets/lv_arc.c ****             inv_area.x2 = x + ((_lv_trigo_sin(end_angle + 90) * rin) >> LV_TRIGO_SHIFT) + extra_are
 1739              		.loc 1 973 29 view .LVU512
 1740 03d0 08EBE333 		add	r3, r8, r3, asr #15
 1741 03d4 9BB2     		uxth	r3, r3
 973:lvgl/src/lv_widgets/lv_arc.c ****             inv_area.x2 = x + ((_lv_trigo_sin(end_angle + 90) * rin) >> LV_TRIGO_SHIFT) + extra_are
 1742              		.loc 1 973 85 view .LVU513
 1743 03d6 DB1B     		subs	r3, r3, r7
 973:lvgl/src/lv_widgets/lv_arc.c ****             inv_area.x2 = x + ((_lv_trigo_sin(end_angle + 90) * rin) >> LV_TRIGO_SHIFT) + extra_are
 1744              		.loc 1 973 25 view .LVU514
 1745 03d8 ADF82230 		strh	r3, [sp, #34]	@ movhi
 974:lvgl/src/lv_widgets/lv_arc.c **** 
 1746              		.loc 1 974 13 is_stmt 1 view .LVU515
 974:lvgl/src/lv_widgets/lv_arc.c **** 
 1747              		.loc 1 974 57 is_stmt 0 view .LVU516
 1748 03dc 05F15A00 		add	r0, r5, #90
 974:lvgl/src/lv_widgets/lv_arc.c **** 
 1749              		.loc 1 974 33 view .LVU517
 1750 03e0 00B2     		sxth	r0, r0
 1751 03e2 FFF7FEFF 		bl	_lv_trigo_sin
 1752              	.LVL200:
 974:lvgl/src/lv_widgets/lv_arc.c **** 
 1753              		.loc 1 974 63 view .LVU518
 1754 03e6 00FB04F0 		mul	r0, r0, r4
 974:lvgl/src/lv_widgets/lv_arc.c **** 
 1755              		.loc 1 974 29 view .LVU519
 1756 03ea 0BEBE03B 		add	fp, fp, r0, asr #15
 1757              	.LVL201:
 974:lvgl/src/lv_widgets/lv_arc.c **** 
 1758              		.loc 1 974 89 view .LVU520
 1759 03ee 17FA8BF7 		uxtah	r7, r7, fp
 974:lvgl/src/lv_widgets/lv_arc.c **** 
 1760              		.loc 1 974 25 view .LVU521
 1761 03f2 ADF82470 		strh	r7, [sp, #36]	@ movhi
 976:lvgl/src/lv_widgets/lv_arc.c ****         }
 1762              		.loc 1 976 13 is_stmt 1 view .LVU522
 1763 03f6 08A9     		add	r1, sp, #32
 1764 03f8 0098     		ldr	r0, [sp]
 1765 03fa FFF7FEFF 		bl	lv_obj_invalidate_area
 1766              	.LVL202:
 1767 03fe 0AE6     		b	.L37
ARM GAS  D:\Temp\ccOOHxmt.s 			page 66


 1768              	.LVL203:
 1769              	.L70:
 991:lvgl/src/lv_widgets/lv_arc.c ****         inv_area.y1 = y + ((LV_MATH_MIN(_lv_trigo_sin(end_angle),
 1770              		.loc 1 991 9 view .LVU523
 991:lvgl/src/lv_widgets/lv_arc.c ****         inv_area.y1 = y + ((LV_MATH_MIN(_lv_trigo_sin(end_angle),
 1771              		.loc 1 991 53 is_stmt 0 view .LVU524
 1772 0400 05F15A00 		add	r0, r5, #90
 991:lvgl/src/lv_widgets/lv_arc.c ****         inv_area.y1 = y + ((LV_MATH_MIN(_lv_trigo_sin(end_angle),
 1773              		.loc 1 991 29 view .LVU525
 1774 0404 00B2     		sxth	r0, r0
 1775 0406 FFF7FEFF 		bl	_lv_trigo_sin
 1776              	.LVL204:
 991:lvgl/src/lv_widgets/lv_arc.c ****         inv_area.y1 = y + ((LV_MATH_MIN(_lv_trigo_sin(end_angle),
 1777              		.loc 1 991 59 view .LVU526
 1778 040a CDF804A0 		str	r10, [sp, #4]
 1779 040e 0AFB00F3 		mul	r3, r10, r0
 991:lvgl/src/lv_widgets/lv_arc.c ****         inv_area.y1 = y + ((LV_MATH_MIN(_lv_trigo_sin(end_angle),
 1780              		.loc 1 991 25 view .LVU527
 1781 0412 0BEBE333 		add	r3, fp, r3, asr #15
 1782 0416 9BB2     		uxth	r3, r3
 991:lvgl/src/lv_widgets/lv_arc.c ****         inv_area.y1 = y + ((LV_MATH_MIN(_lv_trigo_sin(end_angle),
 1783              		.loc 1 991 86 view .LVU528
 1784 0418 BDF81070 		ldrh	r7, [sp, #16]
 1785 041c DB1B     		subs	r3, r3, r7
 991:lvgl/src/lv_widgets/lv_arc.c ****         inv_area.y1 = y + ((LV_MATH_MIN(_lv_trigo_sin(end_angle),
 1786              		.loc 1 991 21 view .LVU529
 1787 041e ADF82030 		strh	r3, [sp, #32]	@ movhi
 992:lvgl/src/lv_widgets/lv_arc.c ****                                         _lv_trigo_sin(start_angle))  * rin) >> LV_TRIGO_SHIFT) - ex
 1788              		.loc 1 992 9 is_stmt 1 view .LVU530
 992:lvgl/src/lv_widgets/lv_arc.c ****                                         _lv_trigo_sin(start_angle))  * rin) >> LV_TRIGO_SHIFT) - ex
 1789              		.loc 1 992 29 is_stmt 0 view .LVU531
 1790 0422 2CB2     		sxth	r4, r5
 1791              	.LVL205:
 992:lvgl/src/lv_widgets/lv_arc.c ****                                         _lv_trigo_sin(start_angle))  * rin) >> LV_TRIGO_SHIFT) - ex
 1792              		.loc 1 992 29 view .LVU532
 1793 0424 2046     		mov	r0, r4
 1794 0426 FFF7FEFF 		bl	_lv_trigo_sin
 1795              	.LVL206:
 1796 042a 8246     		mov	r10, r0
 1797              	.LVL207:
 992:lvgl/src/lv_widgets/lv_arc.c ****                                         _lv_trigo_sin(start_angle))  * rin) >> LV_TRIGO_SHIFT) - ex
 1798              		.loc 1 992 29 view .LVU533
 1799 042c 0FFA89F5 		sxth	r5, r9
 1800              	.LVL208:
 992:lvgl/src/lv_widgets/lv_arc.c ****                                         _lv_trigo_sin(start_angle))  * rin) >> LV_TRIGO_SHIFT) - ex
 1801              		.loc 1 992 29 view .LVU534
 1802 0430 2846     		mov	r0, r5
 1803 0432 FFF7FEFF 		bl	_lv_trigo_sin
 1804              	.LVL209:
 1805 0436 8245     		cmp	r10, r0
 1806 0438 23DA     		bge	.L53
 992:lvgl/src/lv_widgets/lv_arc.c ****                                         _lv_trigo_sin(start_angle))  * rin) >> LV_TRIGO_SHIFT) - ex
 1807              		.loc 1 992 29 discriminator 1 view .LVU535
 1808 043a 2046     		mov	r0, r4
 1809 043c FFF7FEFF 		bl	_lv_trigo_sin
 1810              	.LVL210:
 1811              	.L54:
ARM GAS  D:\Temp\ccOOHxmt.s 			page 67


 993:lvgl/src/lv_widgets/lv_arc.c ****         inv_area.x2 = x + ((_lv_trigo_sin(start_angle + 90) * rout) >> LV_TRIGO_SHIFT) + extra_area
 1812              		.loc 1 993 70 view .LVU536
 1813 0440 059B     		ldr	r3, [sp, #20]
 1814 0442 00FB03F3 		mul	r3, r0, r3
 992:lvgl/src/lv_widgets/lv_arc.c ****                                         _lv_trigo_sin(start_angle))  * rin) >> LV_TRIGO_SHIFT) - ex
 1815              		.loc 1 992 25 view .LVU537
 1816 0446 08EBE333 		add	r3, r8, r3, asr #15
 1817 044a 9BB2     		uxth	r3, r3
 993:lvgl/src/lv_widgets/lv_arc.c ****         inv_area.x2 = x + ((_lv_trigo_sin(start_angle + 90) * rout) >> LV_TRIGO_SHIFT) + extra_area
 1818              		.loc 1 993 96 view .LVU538
 1819 044c DB1B     		subs	r3, r3, r7
 992:lvgl/src/lv_widgets/lv_arc.c ****                                         _lv_trigo_sin(start_angle))  * rin) >> LV_TRIGO_SHIFT) - ex
 1820              		.loc 1 992 21 view .LVU539
 1821 044e ADF82230 		strh	r3, [sp, #34]	@ movhi
 994:lvgl/src/lv_widgets/lv_arc.c ****         inv_area.y2 = y + rout + extra_area;
 1822              		.loc 1 994 9 is_stmt 1 view .LVU540
 994:lvgl/src/lv_widgets/lv_arc.c ****         inv_area.y2 = y + rout + extra_area;
 1823              		.loc 1 994 55 is_stmt 0 view .LVU541
 1824 0452 09F15A00 		add	r0, r9, #90
 994:lvgl/src/lv_widgets/lv_arc.c ****         inv_area.y2 = y + rout + extra_area;
 1825              		.loc 1 994 29 view .LVU542
 1826 0456 00B2     		sxth	r0, r0
 1827 0458 FFF7FEFF 		bl	_lv_trigo_sin
 1828              	.LVL211:
 994:lvgl/src/lv_widgets/lv_arc.c ****         inv_area.y2 = y + rout + extra_area;
 1829              		.loc 1 994 61 view .LVU543
 1830 045c 019B     		ldr	r3, [sp, #4]
 1831 045e 00FB03F0 		mul	r0, r0, r3
 994:lvgl/src/lv_widgets/lv_arc.c ****         inv_area.y2 = y + rout + extra_area;
 1832              		.loc 1 994 25 view .LVU544
 1833 0462 0BEBE03B 		add	fp, fp, r0, asr #15
 1834              	.LVL212:
 994:lvgl/src/lv_widgets/lv_arc.c ****         inv_area.y2 = y + rout + extra_area;
 1835              		.loc 1 994 88 view .LVU545
 1836 0466 17FA8BFB 		uxtah	fp, r7, fp
 994:lvgl/src/lv_widgets/lv_arc.c ****         inv_area.y2 = y + rout + extra_area;
 1837              		.loc 1 994 21 view .LVU546
 1838 046a ADF824B0 		strh	fp, [sp, #36]	@ movhi
 995:lvgl/src/lv_widgets/lv_arc.c ****         lv_obj_invalidate_area(arc, &inv_area);
 1839              		.loc 1 995 9 is_stmt 1 view .LVU547
 995:lvgl/src/lv_widgets/lv_arc.c ****         lv_obj_invalidate_area(arc, &inv_area);
 1840              		.loc 1 995 25 is_stmt 0 view .LVU548
 1841 046e 4644     		add	r6, r6, r8
 1842              	.LVL213:
 995:lvgl/src/lv_widgets/lv_arc.c ****         lv_obj_invalidate_area(arc, &inv_area);
 1843              		.loc 1 995 32 view .LVU549
 1844 0470 17FA86F7 		uxtah	r7, r7, r6
 995:lvgl/src/lv_widgets/lv_arc.c ****         lv_obj_invalidate_area(arc, &inv_area);
 1845              		.loc 1 995 21 view .LVU550
 1846 0474 ADF82670 		strh	r7, [sp, #38]	@ movhi
 996:lvgl/src/lv_widgets/lv_arc.c ****     }
 1847              		.loc 1 996 9 is_stmt 1 view .LVU551
 1848 0478 08A9     		add	r1, sp, #32
 1849 047a 0098     		ldr	r0, [sp]
 1850 047c FFF7FEFF 		bl	lv_obj_invalidate_area
 1851              	.LVL214:
 1852 0480 C9E5     		b	.L37
ARM GAS  D:\Temp\ccOOHxmt.s 			page 68


 1853              	.LVL215:
 1854              	.L53:
 992:lvgl/src/lv_widgets/lv_arc.c ****                                         _lv_trigo_sin(start_angle))  * rin) >> LV_TRIGO_SHIFT) - ex
 1855              		.loc 1 992 29 is_stmt 0 discriminator 2 view .LVU552
 1856 0482 2846     		mov	r0, r5
 1857 0484 FFF7FEFF 		bl	_lv_trigo_sin
 1858              	.LVL216:
 1859 0488 DAE7     		b	.L54
 1860              	.LVL217:
 1861              	.L71:
 998:lvgl/src/lv_widgets/lv_arc.c ****         inv_area.x1 = x - rout - extra_area;
 1862              		.loc 1 998 32 discriminator 1 view .LVU553
 1863 048a 029B     		ldr	r3, [sp, #8]
 1864 048c 022B     		cmp	r3, #2
 1865 048e 7FF44FAE 		bne	.L55
 999:lvgl/src/lv_widgets/lv_arc.c ****         inv_area.y1 = y + ((_lv_trigo_sin(end_angle) * rout) >> LV_TRIGO_SHIFT) - extra_area;
 1866              		.loc 1 999 9 is_stmt 1 view .LVU554
 999:lvgl/src/lv_widgets/lv_arc.c ****         inv_area.y1 = y + ((_lv_trigo_sin(end_angle) * rout) >> LV_TRIGO_SHIFT) - extra_area;
 1867              		.loc 1 999 25 is_stmt 0 view .LVU555
 1868 0492 ABEB0603 		sub	r3, fp, r6
 1869 0496 9BB2     		uxth	r3, r3
 999:lvgl/src/lv_widgets/lv_arc.c ****         inv_area.y1 = y + ((_lv_trigo_sin(end_angle) * rout) >> LV_TRIGO_SHIFT) - extra_area;
 1870              		.loc 1 999 32 view .LVU556
 1871 0498 BDF81070 		ldrh	r7, [sp, #16]
 1872 049c DB1B     		subs	r3, r3, r7
 999:lvgl/src/lv_widgets/lv_arc.c ****         inv_area.y1 = y + ((_lv_trigo_sin(end_angle) * rout) >> LV_TRIGO_SHIFT) - extra_area;
 1873              		.loc 1 999 21 view .LVU557
 1874 049e ADF82030 		strh	r3, [sp, #32]	@ movhi
1000:lvgl/src/lv_widgets/lv_arc.c ****         inv_area.x2 = x + ((LV_MATH_MAX(_lv_trigo_sin(start_angle + 90),
 1875              		.loc 1 1000 9 is_stmt 1 view .LVU558
1000:lvgl/src/lv_widgets/lv_arc.c ****         inv_area.x2 = x + ((LV_MATH_MAX(_lv_trigo_sin(start_angle + 90),
 1876              		.loc 1 1000 29 is_stmt 0 view .LVU559
 1877 04a2 28B2     		sxth	r0, r5
 1878 04a4 FFF7FEFF 		bl	_lv_trigo_sin
 1879              	.LVL218:
1000:lvgl/src/lv_widgets/lv_arc.c ****         inv_area.x2 = x + ((LV_MATH_MAX(_lv_trigo_sin(start_angle + 90),
 1880              		.loc 1 1000 54 view .LVU560
 1881 04a8 5446     		mov	r4, r10
 1882              	.LVL219:
1000:lvgl/src/lv_widgets/lv_arc.c ****         inv_area.x2 = x + ((LV_MATH_MAX(_lv_trigo_sin(start_angle + 90),
 1883              		.loc 1 1000 54 view .LVU561
 1884 04aa 0AFB00F3 		mul	r3, r10, r0
1000:lvgl/src/lv_widgets/lv_arc.c ****         inv_area.x2 = x + ((LV_MATH_MAX(_lv_trigo_sin(start_angle + 90),
 1885              		.loc 1 1000 25 view .LVU562
 1886 04ae 08EBE333 		add	r3, r8, r3, asr #15
 1887 04b2 9BB2     		uxth	r3, r3
1000:lvgl/src/lv_widgets/lv_arc.c ****         inv_area.x2 = x + ((LV_MATH_MAX(_lv_trigo_sin(start_angle + 90),
 1888              		.loc 1 1000 81 view .LVU563
 1889 04b4 DB1B     		subs	r3, r3, r7
1000:lvgl/src/lv_widgets/lv_arc.c ****         inv_area.x2 = x + ((LV_MATH_MAX(_lv_trigo_sin(start_angle + 90),
 1890              		.loc 1 1000 21 view .LVU564
 1891 04b6 ADF82230 		strh	r3, [sp, #34]	@ movhi
1001:lvgl/src/lv_widgets/lv_arc.c ****                                         _lv_trigo_sin(end_angle + 90)) * rin) >> LV_TRIGO_SHIFT) + 
 1892              		.loc 1 1001 9 is_stmt 1 view .LVU565
1001:lvgl/src/lv_widgets/lv_arc.c ****                                         _lv_trigo_sin(end_angle + 90)) * rin) >> LV_TRIGO_SHIFT) + 
 1893              		.loc 1 1001 29 is_stmt 0 view .LVU566
 1894 04ba 09F15A06 		add	r6, r9, #90
ARM GAS  D:\Temp\ccOOHxmt.s 			page 69


 1895 04be 36B2     		sxth	r6, r6
 1896 04c0 3046     		mov	r0, r6
 1897 04c2 FFF7FEFF 		bl	_lv_trigo_sin
 1898              	.LVL220:
 1899 04c6 8246     		mov	r10, r0
 1900              	.LVL221:
