ARM GAS  D:\Temp\ccfvNLhk.s 			page 1


   1              		.cpu cortex-m4
   2              		.eabi_attribute 27, 1
   3              		.eabi_attribute 28, 1
   4              		.eabi_attribute 20, 1
   5              		.eabi_attribute 21, 1
   6              		.eabi_attribute 23, 3
   7              		.eabi_attribute 24, 1
   8              		.eabi_attribute 25, 1
   9              		.eabi_attribute 26, 1
  10              		.eabi_attribute 30, 1
  11              		.eabi_attribute 34, 1
  12              		.eabi_attribute 18, 4
  13              		.file	"lv_cpicker.c"
  14              		.text
  15              	.Ltext0:
  16              		.cfi_sections	.debug_frame
  17              		.section	.text.lv_cpicker_get_style,"ax",%progbits
  18              		.align	1
  19              		.arch armv7e-m
  20              		.syntax unified
  21              		.thumb
  22              		.thumb_func
  23              		.fpu fpv4-sp-d16
  25              	lv_cpicker_get_style:
  26              	.LVL0:
  27              	.LFB483:
  28              		.file 1 "lvgl/src/lv_widgets/lv_cpicker.c"
   1:lvgl/src/lv_widgets/lv_cpicker.c **** /**
   2:lvgl/src/lv_widgets/lv_cpicker.c ****  * @file lv_cpicker.c
   3:lvgl/src/lv_widgets/lv_cpicker.c ****  *
   4:lvgl/src/lv_widgets/lv_cpicker.c ****  * From @AloyseTech and @paulpv.
   5:lvgl/src/lv_widgets/lv_cpicker.c ****  */
   6:lvgl/src/lv_widgets/lv_cpicker.c **** 
   7:lvgl/src/lv_widgets/lv_cpicker.c **** /*********************
   8:lvgl/src/lv_widgets/lv_cpicker.c ****  *      INCLUDES
   9:lvgl/src/lv_widgets/lv_cpicker.c ****  *********************/
  10:lvgl/src/lv_widgets/lv_cpicker.c **** #include "lv_cpicker.h"
  11:lvgl/src/lv_widgets/lv_cpicker.c **** #if LV_USE_CPICKER != 0
  12:lvgl/src/lv_widgets/lv_cpicker.c **** 
  13:lvgl/src/lv_widgets/lv_cpicker.c **** #include "../lv_misc/lv_debug.h"
  14:lvgl/src/lv_widgets/lv_cpicker.c **** #include "../lv_draw/lv_draw_arc.h"
  15:lvgl/src/lv_widgets/lv_cpicker.c **** #include "../lv_themes/lv_theme.h"
  16:lvgl/src/lv_widgets/lv_cpicker.c **** #include "../lv_core/lv_indev.h"
  17:lvgl/src/lv_widgets/lv_cpicker.c **** #include "../lv_core/lv_refr.h"
  18:lvgl/src/lv_widgets/lv_cpicker.c **** #include "../lv_misc/lv_math.h"
  19:lvgl/src/lv_widgets/lv_cpicker.c **** 
  20:lvgl/src/lv_widgets/lv_cpicker.c **** /*********************
  21:lvgl/src/lv_widgets/lv_cpicker.c ****  *      DEFINES
  22:lvgl/src/lv_widgets/lv_cpicker.c ****  *********************/
  23:lvgl/src/lv_widgets/lv_cpicker.c **** #define LV_OBJX_NAME "lv_cpicker"
  24:lvgl/src/lv_widgets/lv_cpicker.c **** 
  25:lvgl/src/lv_widgets/lv_cpicker.c **** #ifndef LV_CPICKER_DEF_TYPE
  26:lvgl/src/lv_widgets/lv_cpicker.c ****     #define LV_CPICKER_DEF_TYPE LV_CPICKER_TYPE_DISC
  27:lvgl/src/lv_widgets/lv_cpicker.c **** #endif
  28:lvgl/src/lv_widgets/lv_cpicker.c **** 
  29:lvgl/src/lv_widgets/lv_cpicker.c **** #ifndef LV_CPICKER_DEF_HUE
  30:lvgl/src/lv_widgets/lv_cpicker.c ****     #define LV_CPICKER_DEF_HUE 0
ARM GAS  D:\Temp\ccfvNLhk.s 			page 2


  31:lvgl/src/lv_widgets/lv_cpicker.c **** #endif
  32:lvgl/src/lv_widgets/lv_cpicker.c **** 
  33:lvgl/src/lv_widgets/lv_cpicker.c **** #ifndef LV_CPICKER_DEF_SATURATION
  34:lvgl/src/lv_widgets/lv_cpicker.c ****     #define LV_CPICKER_DEF_SATURATION 100
  35:lvgl/src/lv_widgets/lv_cpicker.c **** #endif
  36:lvgl/src/lv_widgets/lv_cpicker.c **** 
  37:lvgl/src/lv_widgets/lv_cpicker.c **** #ifndef LV_CPICKER_DEF_VALUE
  38:lvgl/src/lv_widgets/lv_cpicker.c ****     #define LV_CPICKER_DEF_VALUE 100
  39:lvgl/src/lv_widgets/lv_cpicker.c **** #endif
  40:lvgl/src/lv_widgets/lv_cpicker.c **** 
  41:lvgl/src/lv_widgets/lv_cpicker.c **** #ifndef LV_CPICKER_DEF_HSV
  42:lvgl/src/lv_widgets/lv_cpicker.c ****     #define LV_CPICKER_DEF_HSV ((lv_color_hsv_t){LV_CPICKER_DEF_HUE, LV_CPICKER_DEF_SATURATION, LV_
  43:lvgl/src/lv_widgets/lv_cpicker.c **** #endif
  44:lvgl/src/lv_widgets/lv_cpicker.c **** 
  45:lvgl/src/lv_widgets/lv_cpicker.c **** #ifndef LV_CPICKER_DEF_QF /*quantization factor*/
  46:lvgl/src/lv_widgets/lv_cpicker.c ****     #define LV_CPICKER_DEF_QF 3
  47:lvgl/src/lv_widgets/lv_cpicker.c **** #endif
  48:lvgl/src/lv_widgets/lv_cpicker.c **** 
  49:lvgl/src/lv_widgets/lv_cpicker.c **** #define TRI_OFFSET 2
  50:lvgl/src/lv_widgets/lv_cpicker.c **** 
  51:lvgl/src/lv_widgets/lv_cpicker.c **** /* The OUTER_MASK_WIDTH define is required to assist with the placing of a mask over the outer ring
  52:lvgl/src/lv_widgets/lv_cpicker.c ****  * multiColored radial lines are calculated for the outer ring of the widget their lengths are jitt
  53:lvgl/src/lv_widgets/lv_cpicker.c ****  * integer based arithmetic. From tests the maximum delta was found to be 2 so the current value is
  54:lvgl/src/lv_widgets/lv_cpicker.c ****  * appropriate masking.
  55:lvgl/src/lv_widgets/lv_cpicker.c ****  */
  56:lvgl/src/lv_widgets/lv_cpicker.c **** #define OUTER_MASK_WIDTH 3
  57:lvgl/src/lv_widgets/lv_cpicker.c **** 
  58:lvgl/src/lv_widgets/lv_cpicker.c **** /**********************
  59:lvgl/src/lv_widgets/lv_cpicker.c ****  *      TYPEDEFS
  60:lvgl/src/lv_widgets/lv_cpicker.c ****  **********************/
  61:lvgl/src/lv_widgets/lv_cpicker.c **** 
  62:lvgl/src/lv_widgets/lv_cpicker.c **** /**********************
  63:lvgl/src/lv_widgets/lv_cpicker.c ****  *  STATIC PROTOTYPES
  64:lvgl/src/lv_widgets/lv_cpicker.c ****  **********************/
  65:lvgl/src/lv_widgets/lv_cpicker.c **** static lv_design_res_t lv_cpicker_design(lv_obj_t * cpicker, const lv_area_t * clip_area, lv_design
  66:lvgl/src/lv_widgets/lv_cpicker.c **** static lv_res_t lv_cpicker_signal(lv_obj_t * cpicker, lv_signal_t sign, void * param);
  67:lvgl/src/lv_widgets/lv_cpicker.c **** static lv_style_list_t * lv_cpicker_get_style(lv_obj_t * cpicker, uint8_t part);
  68:lvgl/src/lv_widgets/lv_cpicker.c **** static bool lv_cpicker_hit(lv_obj_t * cpicker, const lv_point_t * p);
  69:lvgl/src/lv_widgets/lv_cpicker.c **** 
  70:lvgl/src/lv_widgets/lv_cpicker.c **** static void draw_rect_grad(lv_obj_t * cpicker, const lv_area_t * mask);
  71:lvgl/src/lv_widgets/lv_cpicker.c **** static void draw_disc_grad(lv_obj_t * cpicker, const lv_area_t * mask);
  72:lvgl/src/lv_widgets/lv_cpicker.c **** static void draw_knob(lv_obj_t * cpicker, const lv_area_t * mask);
  73:lvgl/src/lv_widgets/lv_cpicker.c **** static void invalidate_knob(lv_obj_t * cpicker);
  74:lvgl/src/lv_widgets/lv_cpicker.c **** static lv_area_t get_knob_area(lv_obj_t * cpicker);
  75:lvgl/src/lv_widgets/lv_cpicker.c **** 
  76:lvgl/src/lv_widgets/lv_cpicker.c **** static void next_color_mode(lv_obj_t * cpicker);
  77:lvgl/src/lv_widgets/lv_cpicker.c **** static lv_res_t double_click_reset(lv_obj_t * cpicker);
  78:lvgl/src/lv_widgets/lv_cpicker.c **** static void refr_knob_pos(lv_obj_t * cpicker);
  79:lvgl/src/lv_widgets/lv_cpicker.c **** static lv_color_t angle_to_mode_color(lv_obj_t * cpicker, uint16_t angle);
  80:lvgl/src/lv_widgets/lv_cpicker.c **** static uint16_t get_angle(lv_obj_t * cpicker);
  81:lvgl/src/lv_widgets/lv_cpicker.c **** 
  82:lvgl/src/lv_widgets/lv_cpicker.c **** /**********************
  83:lvgl/src/lv_widgets/lv_cpicker.c ****  *  STATIC VARIABLES
  84:lvgl/src/lv_widgets/lv_cpicker.c ****  **********************/
  85:lvgl/src/lv_widgets/lv_cpicker.c **** static lv_signal_cb_t ancestor_signal;
  86:lvgl/src/lv_widgets/lv_cpicker.c **** static lv_design_cb_t ancestor_design;
  87:lvgl/src/lv_widgets/lv_cpicker.c **** 
ARM GAS  D:\Temp\ccfvNLhk.s 			page 3


  88:lvgl/src/lv_widgets/lv_cpicker.c **** /**********************
  89:lvgl/src/lv_widgets/lv_cpicker.c ****  *      MACROS
  90:lvgl/src/lv_widgets/lv_cpicker.c ****  **********************/
  91:lvgl/src/lv_widgets/lv_cpicker.c **** 
  92:lvgl/src/lv_widgets/lv_cpicker.c **** /**********************
  93:lvgl/src/lv_widgets/lv_cpicker.c ****  *   GLOBAL FUNCTIONS
  94:lvgl/src/lv_widgets/lv_cpicker.c ****  **********************/
  95:lvgl/src/lv_widgets/lv_cpicker.c **** 
  96:lvgl/src/lv_widgets/lv_cpicker.c **** /**
  97:lvgl/src/lv_widgets/lv_cpicker.c ****  * Create a color_picker object
  98:lvgl/src/lv_widgets/lv_cpicker.c ****  * @param par pointer to an object, it will be the parent of the new color_picker
  99:lvgl/src/lv_widgets/lv_cpicker.c ****  * @param copy pointer to a color_picker object, if not NULL then the new object will be copied fro
 100:lvgl/src/lv_widgets/lv_cpicker.c ****  * @return pointer to the created color_picker
 101:lvgl/src/lv_widgets/lv_cpicker.c ****  */
 102:lvgl/src/lv_widgets/lv_cpicker.c **** lv_obj_t * lv_cpicker_create(lv_obj_t * par, const lv_obj_t * copy)
 103:lvgl/src/lv_widgets/lv_cpicker.c **** {
 104:lvgl/src/lv_widgets/lv_cpicker.c ****     LV_LOG_TRACE("color_picker create started");
 105:lvgl/src/lv_widgets/lv_cpicker.c **** 
 106:lvgl/src/lv_widgets/lv_cpicker.c ****     lv_obj_t * cpicker = lv_obj_create(par, copy);
 107:lvgl/src/lv_widgets/lv_cpicker.c ****     LV_ASSERT_MEM(cpicker);
 108:lvgl/src/lv_widgets/lv_cpicker.c ****     if(cpicker == NULL) return NULL;
 109:lvgl/src/lv_widgets/lv_cpicker.c **** 
 110:lvgl/src/lv_widgets/lv_cpicker.c ****     if(ancestor_signal == NULL) ancestor_signal = lv_obj_get_signal_cb(cpicker);
 111:lvgl/src/lv_widgets/lv_cpicker.c ****     if(ancestor_design == NULL) ancestor_design = lv_obj_get_design_cb(cpicker);
 112:lvgl/src/lv_widgets/lv_cpicker.c **** 
 113:lvgl/src/lv_widgets/lv_cpicker.c ****     /*Allocate the extended data*/
 114:lvgl/src/lv_widgets/lv_cpicker.c ****     lv_cpicker_ext_t * ext = lv_obj_allocate_ext_attr(cpicker, sizeof(lv_cpicker_ext_t));
 115:lvgl/src/lv_widgets/lv_cpicker.c ****     LV_ASSERT_MEM(ext);
 116:lvgl/src/lv_widgets/lv_cpicker.c ****     if(ext == NULL) {
 117:lvgl/src/lv_widgets/lv_cpicker.c ****         lv_obj_del(cpicker);
 118:lvgl/src/lv_widgets/lv_cpicker.c ****         return NULL;
 119:lvgl/src/lv_widgets/lv_cpicker.c ****     }
 120:lvgl/src/lv_widgets/lv_cpicker.c **** 
 121:lvgl/src/lv_widgets/lv_cpicker.c ****     /*Initialize the allocated 'ext' */
 122:lvgl/src/lv_widgets/lv_cpicker.c ****     ext->type = LV_CPICKER_DEF_TYPE;
 123:lvgl/src/lv_widgets/lv_cpicker.c ****     ext->hsv = LV_CPICKER_DEF_HSV;
 124:lvgl/src/lv_widgets/lv_cpicker.c ****     ext->knob.colored = 1;
 125:lvgl/src/lv_widgets/lv_cpicker.c ****     ext->color_mode = LV_CPICKER_COLOR_MODE_HUE;
 126:lvgl/src/lv_widgets/lv_cpicker.c ****     ext->color_mode_fixed = 0;
 127:lvgl/src/lv_widgets/lv_cpicker.c ****     ext->last_click_time = 0;
 128:lvgl/src/lv_widgets/lv_cpicker.c ****     ext->last_change_time = 0;
 129:lvgl/src/lv_widgets/lv_cpicker.c **** 
 130:lvgl/src/lv_widgets/lv_cpicker.c ****     lv_style_list_init(&ext->knob.style_list);
 131:lvgl/src/lv_widgets/lv_cpicker.c **** 
 132:lvgl/src/lv_widgets/lv_cpicker.c ****     /*The signal and design functions are not copied so set them here*/
 133:lvgl/src/lv_widgets/lv_cpicker.c ****     lv_obj_set_signal_cb(cpicker, lv_cpicker_signal);
 134:lvgl/src/lv_widgets/lv_cpicker.c ****     lv_obj_set_design_cb(cpicker, lv_cpicker_design);
 135:lvgl/src/lv_widgets/lv_cpicker.c **** 
 136:lvgl/src/lv_widgets/lv_cpicker.c ****     /*If no copy do the basic initialization*/
 137:lvgl/src/lv_widgets/lv_cpicker.c ****     if(copy == NULL) {
 138:lvgl/src/lv_widgets/lv_cpicker.c ****         lv_obj_set_size(cpicker, LV_DPI * 2, LV_DPI * 2);
 139:lvgl/src/lv_widgets/lv_cpicker.c ****         lv_obj_add_protect(cpicker, LV_PROTECT_PRESS_LOST);
 140:lvgl/src/lv_widgets/lv_cpicker.c ****         lv_obj_set_adv_hittest(cpicker, true);
 141:lvgl/src/lv_widgets/lv_cpicker.c ****         lv_theme_apply(cpicker, LV_THEME_CPICKER);
 142:lvgl/src/lv_widgets/lv_cpicker.c ****     }
 143:lvgl/src/lv_widgets/lv_cpicker.c ****     /*Copy 'copy'*/
 144:lvgl/src/lv_widgets/lv_cpicker.c ****     else {
ARM GAS  D:\Temp\ccfvNLhk.s 			page 4


 145:lvgl/src/lv_widgets/lv_cpicker.c ****         lv_cpicker_ext_t * copy_ext = lv_obj_get_ext_attr(copy);
 146:lvgl/src/lv_widgets/lv_cpicker.c ****         ext->type = copy_ext->type;
 147:lvgl/src/lv_widgets/lv_cpicker.c ****         ext->color_mode = copy_ext->color_mode;
 148:lvgl/src/lv_widgets/lv_cpicker.c ****         ext->color_mode_fixed = copy_ext->color_mode_fixed;
 149:lvgl/src/lv_widgets/lv_cpicker.c ****         ext->hsv = copy_ext->hsv;
 150:lvgl/src/lv_widgets/lv_cpicker.c ****         ext->knob.colored = copy_ext->knob.colored;
 151:lvgl/src/lv_widgets/lv_cpicker.c **** 
 152:lvgl/src/lv_widgets/lv_cpicker.c ****         lv_style_list_copy(&ext->knob.style_list, &copy_ext->knob.style_list);
 153:lvgl/src/lv_widgets/lv_cpicker.c ****         /*Refresh the style with new signal function*/
 154:lvgl/src/lv_widgets/lv_cpicker.c ****         lv_obj_refresh_style(cpicker, LV_OBJ_PART_ALL, LV_STYLE_PROP_ALL);
 155:lvgl/src/lv_widgets/lv_cpicker.c ****     }
 156:lvgl/src/lv_widgets/lv_cpicker.c ****     refr_knob_pos(cpicker);
 157:lvgl/src/lv_widgets/lv_cpicker.c **** 
 158:lvgl/src/lv_widgets/lv_cpicker.c ****     LV_LOG_INFO("color_picker created");
 159:lvgl/src/lv_widgets/lv_cpicker.c **** 
 160:lvgl/src/lv_widgets/lv_cpicker.c ****     return cpicker;
 161:lvgl/src/lv_widgets/lv_cpicker.c **** }
 162:lvgl/src/lv_widgets/lv_cpicker.c **** 
 163:lvgl/src/lv_widgets/lv_cpicker.c **** /*=====================
 164:lvgl/src/lv_widgets/lv_cpicker.c ****  * Setter functions
 165:lvgl/src/lv_widgets/lv_cpicker.c ****  *====================*/
 166:lvgl/src/lv_widgets/lv_cpicker.c **** 
 167:lvgl/src/lv_widgets/lv_cpicker.c **** /**
 168:lvgl/src/lv_widgets/lv_cpicker.c ****  * Set a new type for a cpicker
 169:lvgl/src/lv_widgets/lv_cpicker.c ****  * @param cpicker pointer to a cpicker object
 170:lvgl/src/lv_widgets/lv_cpicker.c ****  * @param type new type of the cpicker (from 'lv_cpicker_type_t' enum)
 171:lvgl/src/lv_widgets/lv_cpicker.c ****  */
 172:lvgl/src/lv_widgets/lv_cpicker.c **** void lv_cpicker_set_type(lv_obj_t * cpicker, lv_cpicker_type_t type)
 173:lvgl/src/lv_widgets/lv_cpicker.c **** {
 174:lvgl/src/lv_widgets/lv_cpicker.c ****     LV_ASSERT_OBJ(cpicker, LV_OBJX_NAME);
 175:lvgl/src/lv_widgets/lv_cpicker.c **** 
 176:lvgl/src/lv_widgets/lv_cpicker.c ****     lv_cpicker_ext_t * ext = lv_obj_get_ext_attr(cpicker);
 177:lvgl/src/lv_widgets/lv_cpicker.c ****     if(ext->type == type) return;
 178:lvgl/src/lv_widgets/lv_cpicker.c **** 
 179:lvgl/src/lv_widgets/lv_cpicker.c ****     ext->type = type;
 180:lvgl/src/lv_widgets/lv_cpicker.c ****     lv_obj_refresh_ext_draw_pad(cpicker);
 181:lvgl/src/lv_widgets/lv_cpicker.c ****     refr_knob_pos(cpicker);
 182:lvgl/src/lv_widgets/lv_cpicker.c **** 
 183:lvgl/src/lv_widgets/lv_cpicker.c ****     lv_obj_invalidate(cpicker);
 184:lvgl/src/lv_widgets/lv_cpicker.c **** }
 185:lvgl/src/lv_widgets/lv_cpicker.c **** 
 186:lvgl/src/lv_widgets/lv_cpicker.c **** /**
 187:lvgl/src/lv_widgets/lv_cpicker.c ****  * Set the current hue of a colorpicker.
 188:lvgl/src/lv_widgets/lv_cpicker.c ****  * @param cpicker pointer to colorpicker object
 189:lvgl/src/lv_widgets/lv_cpicker.c ****  * @param hue current selected hue [0..360]
 190:lvgl/src/lv_widgets/lv_cpicker.c ****  * @return true if changed, otherwise false
 191:lvgl/src/lv_widgets/lv_cpicker.c ****  */
 192:lvgl/src/lv_widgets/lv_cpicker.c **** bool lv_cpicker_set_hue(lv_obj_t * cpicker, uint16_t hue)
 193:lvgl/src/lv_widgets/lv_cpicker.c **** {
 194:lvgl/src/lv_widgets/lv_cpicker.c ****     lv_color_hsv_t hsv = lv_cpicker_get_hsv(cpicker);
 195:lvgl/src/lv_widgets/lv_cpicker.c ****     hsv.h = hue;
 196:lvgl/src/lv_widgets/lv_cpicker.c ****     return lv_cpicker_set_hsv(cpicker, hsv);
 197:lvgl/src/lv_widgets/lv_cpicker.c **** }
 198:lvgl/src/lv_widgets/lv_cpicker.c **** 
 199:lvgl/src/lv_widgets/lv_cpicker.c **** /**
 200:lvgl/src/lv_widgets/lv_cpicker.c ****  * Set the current saturation of a colorpicker.
 201:lvgl/src/lv_widgets/lv_cpicker.c ****  * @param cpicker pointer to colorpicker object
ARM GAS  D:\Temp\ccfvNLhk.s 			page 5


 202:lvgl/src/lv_widgets/lv_cpicker.c ****  * @param saturation current selected saturation [0..100]
 203:lvgl/src/lv_widgets/lv_cpicker.c ****  * @return true if changed, otherwise false
 204:lvgl/src/lv_widgets/lv_cpicker.c ****  */
 205:lvgl/src/lv_widgets/lv_cpicker.c **** bool lv_cpicker_set_saturation(lv_obj_t * cpicker, uint8_t saturation)
 206:lvgl/src/lv_widgets/lv_cpicker.c **** {
 207:lvgl/src/lv_widgets/lv_cpicker.c ****     lv_color_hsv_t hsv = lv_cpicker_get_hsv(cpicker);
 208:lvgl/src/lv_widgets/lv_cpicker.c ****     hsv.s = saturation;
 209:lvgl/src/lv_widgets/lv_cpicker.c ****     return lv_cpicker_set_hsv(cpicker, hsv);
 210:lvgl/src/lv_widgets/lv_cpicker.c **** }
 211:lvgl/src/lv_widgets/lv_cpicker.c **** 
 212:lvgl/src/lv_widgets/lv_cpicker.c **** /**
 213:lvgl/src/lv_widgets/lv_cpicker.c ****  * Set the current value of a colorpicker.
 214:lvgl/src/lv_widgets/lv_cpicker.c ****  * @param cpicker pointer to colorpicker object
 215:lvgl/src/lv_widgets/lv_cpicker.c ****  * @param val current selected value [0..100]
 216:lvgl/src/lv_widgets/lv_cpicker.c ****  * @return true if changed, otherwise false
 217:lvgl/src/lv_widgets/lv_cpicker.c ****  */
 218:lvgl/src/lv_widgets/lv_cpicker.c **** bool lv_cpicker_set_value(lv_obj_t * cpicker, uint8_t val)
 219:lvgl/src/lv_widgets/lv_cpicker.c **** {
 220:lvgl/src/lv_widgets/lv_cpicker.c ****     lv_color_hsv_t hsv = lv_cpicker_get_hsv(cpicker);
 221:lvgl/src/lv_widgets/lv_cpicker.c ****     hsv.v = val;
 222:lvgl/src/lv_widgets/lv_cpicker.c ****     return lv_cpicker_set_hsv(cpicker, hsv);
 223:lvgl/src/lv_widgets/lv_cpicker.c **** }
 224:lvgl/src/lv_widgets/lv_cpicker.c **** 
 225:lvgl/src/lv_widgets/lv_cpicker.c **** /**
 226:lvgl/src/lv_widgets/lv_cpicker.c ****  * Set the current hsv of a colorpicker.
 227:lvgl/src/lv_widgets/lv_cpicker.c ****  * @param cpicker pointer to colorpicker object
 228:lvgl/src/lv_widgets/lv_cpicker.c ****  * @param color current selected hsv
 229:lvgl/src/lv_widgets/lv_cpicker.c ****  * @return true if changed, otherwise false
 230:lvgl/src/lv_widgets/lv_cpicker.c ****  */
 231:lvgl/src/lv_widgets/lv_cpicker.c **** bool lv_cpicker_set_hsv(lv_obj_t * cpicker, lv_color_hsv_t hsv)
 232:lvgl/src/lv_widgets/lv_cpicker.c **** {
 233:lvgl/src/lv_widgets/lv_cpicker.c ****     LV_ASSERT_OBJ(cpicker, LV_OBJX_NAME);
 234:lvgl/src/lv_widgets/lv_cpicker.c **** 
 235:lvgl/src/lv_widgets/lv_cpicker.c ****     if(hsv.h > 360) hsv.h %= 360;
 236:lvgl/src/lv_widgets/lv_cpicker.c ****     if(hsv.s > 100) hsv.s = 100;
 237:lvgl/src/lv_widgets/lv_cpicker.c ****     if(hsv.v > 100) hsv.v = 100;
 238:lvgl/src/lv_widgets/lv_cpicker.c **** 
 239:lvgl/src/lv_widgets/lv_cpicker.c ****     lv_cpicker_ext_t * ext = lv_obj_get_ext_attr(cpicker);
 240:lvgl/src/lv_widgets/lv_cpicker.c **** 
 241:lvgl/src/lv_widgets/lv_cpicker.c ****     if(ext->hsv.h == hsv.h && ext->hsv.s == hsv.s && ext->hsv.v == hsv.v) return false;
 242:lvgl/src/lv_widgets/lv_cpicker.c **** 
 243:lvgl/src/lv_widgets/lv_cpicker.c ****     ext->hsv = hsv;
 244:lvgl/src/lv_widgets/lv_cpicker.c **** 
 245:lvgl/src/lv_widgets/lv_cpicker.c ****     refr_knob_pos(cpicker);
 246:lvgl/src/lv_widgets/lv_cpicker.c **** 
 247:lvgl/src/lv_widgets/lv_cpicker.c ****     lv_obj_invalidate(cpicker);
 248:lvgl/src/lv_widgets/lv_cpicker.c **** 
 249:lvgl/src/lv_widgets/lv_cpicker.c ****     return true;
 250:lvgl/src/lv_widgets/lv_cpicker.c **** }
 251:lvgl/src/lv_widgets/lv_cpicker.c **** 
 252:lvgl/src/lv_widgets/lv_cpicker.c **** /**
 253:lvgl/src/lv_widgets/lv_cpicker.c ****  * Set the current color of a colorpicker.
 254:lvgl/src/lv_widgets/lv_cpicker.c ****  * @param cpicker pointer to colorpicker object
 255:lvgl/src/lv_widgets/lv_cpicker.c ****  * @param color current selected color
 256:lvgl/src/lv_widgets/lv_cpicker.c ****  * @return true if changed, otherwise false
 257:lvgl/src/lv_widgets/lv_cpicker.c ****  */
 258:lvgl/src/lv_widgets/lv_cpicker.c **** bool lv_cpicker_set_color(lv_obj_t * cpicker, lv_color_t color)
ARM GAS  D:\Temp\ccfvNLhk.s 			page 6


 259:lvgl/src/lv_widgets/lv_cpicker.c **** {
 260:lvgl/src/lv_widgets/lv_cpicker.c ****     LV_ASSERT_OBJ(cpicker, LV_OBJX_NAME);
 261:lvgl/src/lv_widgets/lv_cpicker.c **** 
 262:lvgl/src/lv_widgets/lv_cpicker.c ****     lv_color32_t c32;
 263:lvgl/src/lv_widgets/lv_cpicker.c ****     c32.full = lv_color_to32(color);
 264:lvgl/src/lv_widgets/lv_cpicker.c **** 
 265:lvgl/src/lv_widgets/lv_cpicker.c ****     return lv_cpicker_set_hsv(cpicker,
 266:lvgl/src/lv_widgets/lv_cpicker.c ****                               lv_color_rgb_to_hsv(c32.ch.red, c32.ch.green, c32.ch.blue));
 267:lvgl/src/lv_widgets/lv_cpicker.c **** }
 268:lvgl/src/lv_widgets/lv_cpicker.c **** 
 269:lvgl/src/lv_widgets/lv_cpicker.c **** /**
 270:lvgl/src/lv_widgets/lv_cpicker.c ****  * Set the current color mode.
 271:lvgl/src/lv_widgets/lv_cpicker.c ****  * @param cpicker pointer to colorpicker object
 272:lvgl/src/lv_widgets/lv_cpicker.c ****  * @param mode color mode (hue/sat/val)
 273:lvgl/src/lv_widgets/lv_cpicker.c ****  */
 274:lvgl/src/lv_widgets/lv_cpicker.c **** void lv_cpicker_set_color_mode(lv_obj_t * cpicker, lv_cpicker_color_mode_t mode)
 275:lvgl/src/lv_widgets/lv_cpicker.c **** {
 276:lvgl/src/lv_widgets/lv_cpicker.c ****     LV_ASSERT_OBJ(cpicker, LV_OBJX_NAME);
 277:lvgl/src/lv_widgets/lv_cpicker.c **** 
 278:lvgl/src/lv_widgets/lv_cpicker.c ****     lv_cpicker_ext_t * ext = lv_obj_get_ext_attr(cpicker);
 279:lvgl/src/lv_widgets/lv_cpicker.c **** 
 280:lvgl/src/lv_widgets/lv_cpicker.c ****     ext->color_mode = mode;
 281:lvgl/src/lv_widgets/lv_cpicker.c ****     refr_knob_pos(cpicker);
 282:lvgl/src/lv_widgets/lv_cpicker.c ****     lv_obj_invalidate(cpicker);
 283:lvgl/src/lv_widgets/lv_cpicker.c **** }
 284:lvgl/src/lv_widgets/lv_cpicker.c **** 
 285:lvgl/src/lv_widgets/lv_cpicker.c **** /**
 286:lvgl/src/lv_widgets/lv_cpicker.c ****  * Set if the color mode is changed on long press on center
 287:lvgl/src/lv_widgets/lv_cpicker.c ****  * @param cpicker pointer to colorpicker object
 288:lvgl/src/lv_widgets/lv_cpicker.c ****  * @param fixed color mode cannot be changed on long press
 289:lvgl/src/lv_widgets/lv_cpicker.c ****  */
 290:lvgl/src/lv_widgets/lv_cpicker.c **** void lv_cpicker_set_color_mode_fixed(lv_obj_t * cpicker, bool fixed)
 291:lvgl/src/lv_widgets/lv_cpicker.c **** {
 292:lvgl/src/lv_widgets/lv_cpicker.c ****     LV_ASSERT_OBJ(cpicker, LV_OBJX_NAME);
 293:lvgl/src/lv_widgets/lv_cpicker.c **** 
 294:lvgl/src/lv_widgets/lv_cpicker.c ****     lv_cpicker_ext_t * ext = lv_obj_get_ext_attr(cpicker);
 295:lvgl/src/lv_widgets/lv_cpicker.c **** 
 296:lvgl/src/lv_widgets/lv_cpicker.c ****     ext->color_mode_fixed = fixed;
 297:lvgl/src/lv_widgets/lv_cpicker.c **** }
 298:lvgl/src/lv_widgets/lv_cpicker.c **** 
 299:lvgl/src/lv_widgets/lv_cpicker.c **** /**
 300:lvgl/src/lv_widgets/lv_cpicker.c ****  * Make the knob to be colored to the current color
 301:lvgl/src/lv_widgets/lv_cpicker.c ****  * @param cpicker pointer to colorpicker object
 302:lvgl/src/lv_widgets/lv_cpicker.c ****  * @param en true: color the knob; false: not color the knob
 303:lvgl/src/lv_widgets/lv_cpicker.c ****  */
 304:lvgl/src/lv_widgets/lv_cpicker.c **** void lv_cpicker_set_knob_colored(lv_obj_t * cpicker, bool en)
 305:lvgl/src/lv_widgets/lv_cpicker.c **** {
 306:lvgl/src/lv_widgets/lv_cpicker.c ****     LV_ASSERT_OBJ(cpicker, LV_OBJX_NAME);
 307:lvgl/src/lv_widgets/lv_cpicker.c **** 
 308:lvgl/src/lv_widgets/lv_cpicker.c ****     lv_cpicker_ext_t * ext = lv_obj_get_ext_attr(cpicker);
 309:lvgl/src/lv_widgets/lv_cpicker.c ****     ext->knob.colored = en ? 1 : 0;
 310:lvgl/src/lv_widgets/lv_cpicker.c ****     invalidate_knob(cpicker);
 311:lvgl/src/lv_widgets/lv_cpicker.c **** }
 312:lvgl/src/lv_widgets/lv_cpicker.c **** 
 313:lvgl/src/lv_widgets/lv_cpicker.c **** /*=====================
 314:lvgl/src/lv_widgets/lv_cpicker.c ****  * Getter functions
 315:lvgl/src/lv_widgets/lv_cpicker.c ****  *====================*/
ARM GAS  D:\Temp\ccfvNLhk.s 			page 7


 316:lvgl/src/lv_widgets/lv_cpicker.c **** 
 317:lvgl/src/lv_widgets/lv_cpicker.c **** /**
 318:lvgl/src/lv_widgets/lv_cpicker.c ****  * Get the current color mode.
 319:lvgl/src/lv_widgets/lv_cpicker.c ****  * @param cpicker pointer to colorpicker object
 320:lvgl/src/lv_widgets/lv_cpicker.c ****  * @return color mode (hue/sat/val)
 321:lvgl/src/lv_widgets/lv_cpicker.c ****  */
 322:lvgl/src/lv_widgets/lv_cpicker.c **** lv_cpicker_color_mode_t lv_cpicker_get_color_mode(lv_obj_t * cpicker)
 323:lvgl/src/lv_widgets/lv_cpicker.c **** {
 324:lvgl/src/lv_widgets/lv_cpicker.c ****     LV_ASSERT_OBJ(cpicker, LV_OBJX_NAME);
 325:lvgl/src/lv_widgets/lv_cpicker.c **** 
 326:lvgl/src/lv_widgets/lv_cpicker.c ****     lv_cpicker_ext_t * ext = lv_obj_get_ext_attr(cpicker);
 327:lvgl/src/lv_widgets/lv_cpicker.c **** 
 328:lvgl/src/lv_widgets/lv_cpicker.c ****     return ext->color_mode;
 329:lvgl/src/lv_widgets/lv_cpicker.c **** }
 330:lvgl/src/lv_widgets/lv_cpicker.c **** 
 331:lvgl/src/lv_widgets/lv_cpicker.c **** /**
 332:lvgl/src/lv_widgets/lv_cpicker.c ****  * Get if the color mode is changed on long press on center
 333:lvgl/src/lv_widgets/lv_cpicker.c ****  * @param cpicker pointer to colorpicker object
 334:lvgl/src/lv_widgets/lv_cpicker.c ****  * @return mode cannot be changed on long press
 335:lvgl/src/lv_widgets/lv_cpicker.c ****  */
 336:lvgl/src/lv_widgets/lv_cpicker.c **** bool lv_cpicker_get_color_mode_fixed(lv_obj_t * cpicker)
 337:lvgl/src/lv_widgets/lv_cpicker.c **** {
 338:lvgl/src/lv_widgets/lv_cpicker.c ****     LV_ASSERT_OBJ(cpicker, LV_OBJX_NAME);
 339:lvgl/src/lv_widgets/lv_cpicker.c **** 
 340:lvgl/src/lv_widgets/lv_cpicker.c ****     lv_cpicker_ext_t * ext = lv_obj_get_ext_attr(cpicker);
 341:lvgl/src/lv_widgets/lv_cpicker.c **** 
 342:lvgl/src/lv_widgets/lv_cpicker.c ****     return ext->color_mode_fixed;
 343:lvgl/src/lv_widgets/lv_cpicker.c **** }
 344:lvgl/src/lv_widgets/lv_cpicker.c **** 
 345:lvgl/src/lv_widgets/lv_cpicker.c **** /**
 346:lvgl/src/lv_widgets/lv_cpicker.c ****  * Get the current selected hue of a colorpicker.
 347:lvgl/src/lv_widgets/lv_cpicker.c ****  * @param cpicker pointer to colorpicker object
 348:lvgl/src/lv_widgets/lv_cpicker.c ****  * @return hue current selected hue
 349:lvgl/src/lv_widgets/lv_cpicker.c ****  */
 350:lvgl/src/lv_widgets/lv_cpicker.c **** uint16_t lv_cpicker_get_hue(lv_obj_t * cpicker)
 351:lvgl/src/lv_widgets/lv_cpicker.c **** {
 352:lvgl/src/lv_widgets/lv_cpicker.c ****     LV_ASSERT_OBJ(cpicker, LV_OBJX_NAME);
 353:lvgl/src/lv_widgets/lv_cpicker.c **** 
 354:lvgl/src/lv_widgets/lv_cpicker.c ****     lv_cpicker_ext_t * ext = lv_obj_get_ext_attr(cpicker);
 355:lvgl/src/lv_widgets/lv_cpicker.c **** 
 356:lvgl/src/lv_widgets/lv_cpicker.c ****     return ext->hsv.h;
 357:lvgl/src/lv_widgets/lv_cpicker.c **** }
 358:lvgl/src/lv_widgets/lv_cpicker.c **** 
 359:lvgl/src/lv_widgets/lv_cpicker.c **** /**
 360:lvgl/src/lv_widgets/lv_cpicker.c ****  * Get the current selected saturation of a colorpicker.
 361:lvgl/src/lv_widgets/lv_cpicker.c ****  * @param cpicker pointer to colorpicker object
 362:lvgl/src/lv_widgets/lv_cpicker.c ****  * @return current selected saturation
 363:lvgl/src/lv_widgets/lv_cpicker.c ****  */
 364:lvgl/src/lv_widgets/lv_cpicker.c **** uint8_t lv_cpicker_get_saturation(lv_obj_t * cpicker)
 365:lvgl/src/lv_widgets/lv_cpicker.c **** {
 366:lvgl/src/lv_widgets/lv_cpicker.c ****     LV_ASSERT_OBJ(cpicker, LV_OBJX_NAME);
 367:lvgl/src/lv_widgets/lv_cpicker.c **** 
 368:lvgl/src/lv_widgets/lv_cpicker.c ****     lv_cpicker_ext_t * ext = lv_obj_get_ext_attr(cpicker);
 369:lvgl/src/lv_widgets/lv_cpicker.c **** 
 370:lvgl/src/lv_widgets/lv_cpicker.c ****     return ext->hsv.s;
 371:lvgl/src/lv_widgets/lv_cpicker.c **** }
 372:lvgl/src/lv_widgets/lv_cpicker.c **** 
ARM GAS  D:\Temp\ccfvNLhk.s 			page 8


 373:lvgl/src/lv_widgets/lv_cpicker.c **** /**
 374:lvgl/src/lv_widgets/lv_cpicker.c ****  * Get the current selected hue of a colorpicker.
 375:lvgl/src/lv_widgets/lv_cpicker.c ****  * @param cpicker pointer to colorpicker object
 376:lvgl/src/lv_widgets/lv_cpicker.c ****  * @return current selected value
 377:lvgl/src/lv_widgets/lv_cpicker.c ****  */
 378:lvgl/src/lv_widgets/lv_cpicker.c **** uint8_t lv_cpicker_get_value(lv_obj_t * cpicker)
 379:lvgl/src/lv_widgets/lv_cpicker.c **** {
 380:lvgl/src/lv_widgets/lv_cpicker.c ****     LV_ASSERT_OBJ(cpicker, LV_OBJX_NAME);
 381:lvgl/src/lv_widgets/lv_cpicker.c **** 
 382:lvgl/src/lv_widgets/lv_cpicker.c ****     lv_cpicker_ext_t * ext = lv_obj_get_ext_attr(cpicker);
 383:lvgl/src/lv_widgets/lv_cpicker.c **** 
 384:lvgl/src/lv_widgets/lv_cpicker.c ****     return ext->hsv.v;
 385:lvgl/src/lv_widgets/lv_cpicker.c **** }
 386:lvgl/src/lv_widgets/lv_cpicker.c **** 
 387:lvgl/src/lv_widgets/lv_cpicker.c **** /**
 388:lvgl/src/lv_widgets/lv_cpicker.c ****  * Get the current selected hsv of a colorpicker.
 389:lvgl/src/lv_widgets/lv_cpicker.c ****  * @param cpicker pointer to colorpicker object
 390:lvgl/src/lv_widgets/lv_cpicker.c ****  * @return current selected hsv
 391:lvgl/src/lv_widgets/lv_cpicker.c ****  */
 392:lvgl/src/lv_widgets/lv_cpicker.c **** lv_color_hsv_t lv_cpicker_get_hsv(lv_obj_t * cpicker)
 393:lvgl/src/lv_widgets/lv_cpicker.c **** {
 394:lvgl/src/lv_widgets/lv_cpicker.c ****     LV_ASSERT_OBJ(cpicker, LV_OBJX_NAME);
 395:lvgl/src/lv_widgets/lv_cpicker.c **** 
 396:lvgl/src/lv_widgets/lv_cpicker.c ****     lv_cpicker_ext_t * ext = lv_obj_get_ext_attr(cpicker);
 397:lvgl/src/lv_widgets/lv_cpicker.c **** 
 398:lvgl/src/lv_widgets/lv_cpicker.c ****     return ext->hsv;
 399:lvgl/src/lv_widgets/lv_cpicker.c **** }
 400:lvgl/src/lv_widgets/lv_cpicker.c **** 
 401:lvgl/src/lv_widgets/lv_cpicker.c **** /**
 402:lvgl/src/lv_widgets/lv_cpicker.c ****  * Get the current selected color of a colorpicker.
 403:lvgl/src/lv_widgets/lv_cpicker.c ****  * @param cpicker pointer to colorpicker object
 404:lvgl/src/lv_widgets/lv_cpicker.c ****  * @return color current selected color
 405:lvgl/src/lv_widgets/lv_cpicker.c ****  */
 406:lvgl/src/lv_widgets/lv_cpicker.c **** lv_color_t lv_cpicker_get_color(lv_obj_t * cpicker)
 407:lvgl/src/lv_widgets/lv_cpicker.c **** {
 408:lvgl/src/lv_widgets/lv_cpicker.c ****     LV_ASSERT_OBJ(cpicker, LV_OBJX_NAME);
 409:lvgl/src/lv_widgets/lv_cpicker.c **** 
 410:lvgl/src/lv_widgets/lv_cpicker.c ****     lv_cpicker_ext_t * ext = lv_obj_get_ext_attr(cpicker);
 411:lvgl/src/lv_widgets/lv_cpicker.c **** 
 412:lvgl/src/lv_widgets/lv_cpicker.c ****     return lv_color_hsv_to_rgb(ext->hsv.h, ext->hsv.s, ext->hsv.v);
 413:lvgl/src/lv_widgets/lv_cpicker.c **** }
 414:lvgl/src/lv_widgets/lv_cpicker.c **** 
 415:lvgl/src/lv_widgets/lv_cpicker.c **** /**
 416:lvgl/src/lv_widgets/lv_cpicker.c ****  * Whether the knob is colored to the current color or not
 417:lvgl/src/lv_widgets/lv_cpicker.c ****  * @param cpicker pointer to color picker object
 418:lvgl/src/lv_widgets/lv_cpicker.c ****  * @return true: color the knob; false: not color the knob
 419:lvgl/src/lv_widgets/lv_cpicker.c ****  */
 420:lvgl/src/lv_widgets/lv_cpicker.c **** bool lv_cpicker_get_knob_colored(lv_obj_t * cpicker)
 421:lvgl/src/lv_widgets/lv_cpicker.c **** {
 422:lvgl/src/lv_widgets/lv_cpicker.c ****     LV_ASSERT_OBJ(cpicker, LV_OBJX_NAME);
 423:lvgl/src/lv_widgets/lv_cpicker.c **** 
 424:lvgl/src/lv_widgets/lv_cpicker.c ****     lv_cpicker_ext_t * ext = lv_obj_get_ext_attr(cpicker);
 425:lvgl/src/lv_widgets/lv_cpicker.c **** 
 426:lvgl/src/lv_widgets/lv_cpicker.c ****     return ext->knob.colored ? true : false;
 427:lvgl/src/lv_widgets/lv_cpicker.c **** }
 428:lvgl/src/lv_widgets/lv_cpicker.c **** 
 429:lvgl/src/lv_widgets/lv_cpicker.c **** /*=====================
ARM GAS  D:\Temp\ccfvNLhk.s 			page 9


 430:lvgl/src/lv_widgets/lv_cpicker.c ****  * Other functions
 431:lvgl/src/lv_widgets/lv_cpicker.c ****  *====================*/
 432:lvgl/src/lv_widgets/lv_cpicker.c **** 
 433:lvgl/src/lv_widgets/lv_cpicker.c **** /**********************
 434:lvgl/src/lv_widgets/lv_cpicker.c ****  *   STATIC FUNCTIONS
 435:lvgl/src/lv_widgets/lv_cpicker.c ****  **********************/
 436:lvgl/src/lv_widgets/lv_cpicker.c **** 
 437:lvgl/src/lv_widgets/lv_cpicker.c **** /**
 438:lvgl/src/lv_widgets/lv_cpicker.c ****  * Handle the drawing related tasks of the color_picker
 439:lvgl/src/lv_widgets/lv_cpicker.c ****  * @param cpicker pointer to an object
 440:lvgl/src/lv_widgets/lv_cpicker.c ****  * @param mask the object will be drawn only in this area
 441:lvgl/src/lv_widgets/lv_cpicker.c ****  * @param mode LV_DESIGN_COVER_CHK: only check if the object fully covers the 'mask_p' area
 442:lvgl/src/lv_widgets/lv_cpicker.c ****  *                                  (return 'true' if yes)
 443:lvgl/src/lv_widgets/lv_cpicker.c ****  *             LV_DESIGN_DRAW: draw the object (always return 'true')
 444:lvgl/src/lv_widgets/lv_cpicker.c ****  *             LV_DESIGN_DRAW_POST: drawing after every children are drawn
 445:lvgl/src/lv_widgets/lv_cpicker.c ****  * @return return an element of `lv_design_res_t`
 446:lvgl/src/lv_widgets/lv_cpicker.c ****  */
 447:lvgl/src/lv_widgets/lv_cpicker.c **** static lv_design_res_t lv_cpicker_design(lv_obj_t * cpicker, const lv_area_t * clip_area, lv_design
 448:lvgl/src/lv_widgets/lv_cpicker.c **** {
 449:lvgl/src/lv_widgets/lv_cpicker.c ****     /*Return false if the object is not covers the mask_p area*/
 450:lvgl/src/lv_widgets/lv_cpicker.c ****     if(mode == LV_DESIGN_COVER_CHK)  {
 451:lvgl/src/lv_widgets/lv_cpicker.c ****         return LV_DESIGN_RES_NOT_COVER;
 452:lvgl/src/lv_widgets/lv_cpicker.c ****     }
 453:lvgl/src/lv_widgets/lv_cpicker.c ****     /*Draw the object*/
 454:lvgl/src/lv_widgets/lv_cpicker.c ****     else if(mode == LV_DESIGN_DRAW_MAIN) {
 455:lvgl/src/lv_widgets/lv_cpicker.c ****         lv_cpicker_ext_t * ext = lv_obj_get_ext_attr(cpicker);
 456:lvgl/src/lv_widgets/lv_cpicker.c **** 
 457:lvgl/src/lv_widgets/lv_cpicker.c ****         if(ext->type == LV_CPICKER_TYPE_DISC) {
 458:lvgl/src/lv_widgets/lv_cpicker.c ****             draw_disc_grad(cpicker, clip_area);
 459:lvgl/src/lv_widgets/lv_cpicker.c ****         }
 460:lvgl/src/lv_widgets/lv_cpicker.c ****         else if(ext->type == LV_CPICKER_TYPE_RECT) {
 461:lvgl/src/lv_widgets/lv_cpicker.c ****             draw_rect_grad(cpicker, clip_area);
 462:lvgl/src/lv_widgets/lv_cpicker.c ****         }
 463:lvgl/src/lv_widgets/lv_cpicker.c **** 
 464:lvgl/src/lv_widgets/lv_cpicker.c ****         draw_knob(cpicker, clip_area);
 465:lvgl/src/lv_widgets/lv_cpicker.c ****     }
 466:lvgl/src/lv_widgets/lv_cpicker.c ****     /*Post draw when the children are drawn*/
 467:lvgl/src/lv_widgets/lv_cpicker.c ****     else if(mode == LV_DESIGN_DRAW_POST) {
 468:lvgl/src/lv_widgets/lv_cpicker.c ****     }
 469:lvgl/src/lv_widgets/lv_cpicker.c **** 
 470:lvgl/src/lv_widgets/lv_cpicker.c ****     return LV_DESIGN_RES_OK;
 471:lvgl/src/lv_widgets/lv_cpicker.c **** }
 472:lvgl/src/lv_widgets/lv_cpicker.c **** 
 473:lvgl/src/lv_widgets/lv_cpicker.c **** static void draw_disc_grad(lv_obj_t * cpicker, const lv_area_t * mask)
 474:lvgl/src/lv_widgets/lv_cpicker.c **** {
 475:lvgl/src/lv_widgets/lv_cpicker.c ****     lv_coord_t w = lv_obj_get_width(cpicker);
 476:lvgl/src/lv_widgets/lv_cpicker.c ****     lv_coord_t h = lv_obj_get_height(cpicker);
 477:lvgl/src/lv_widgets/lv_cpicker.c ****     lv_coord_t cx = cpicker->coords.x1 + w / 2;
 478:lvgl/src/lv_widgets/lv_cpicker.c ****     lv_coord_t cy = cpicker->coords.y1 + h / 2;
 479:lvgl/src/lv_widgets/lv_cpicker.c ****     lv_coord_t r = w / 2;
 480:lvgl/src/lv_widgets/lv_cpicker.c **** 
 481:lvgl/src/lv_widgets/lv_cpicker.c ****     lv_draw_line_dsc_t line_dsc;
 482:lvgl/src/lv_widgets/lv_cpicker.c ****     lv_draw_line_dsc_init(&line_dsc);
 483:lvgl/src/lv_widgets/lv_cpicker.c ****     lv_obj_init_draw_line_dsc(cpicker, LV_CPICKER_PART_MAIN, &line_dsc);
 484:lvgl/src/lv_widgets/lv_cpicker.c **** 
 485:lvgl/src/lv_widgets/lv_cpicker.c ****     line_dsc.width = (r * 628 / (360 / LV_CPICKER_DEF_QF)) / 100;
 486:lvgl/src/lv_widgets/lv_cpicker.c ****     line_dsc.width += 2;
ARM GAS  D:\Temp\ccfvNLhk.s 			page 10


 487:lvgl/src/lv_widgets/lv_cpicker.c ****     uint16_t i;
 488:lvgl/src/lv_widgets/lv_cpicker.c ****     lv_coord_t cir_w = lv_obj_get_style_scale_width(cpicker, LV_CPICKER_PART_MAIN);
 489:lvgl/src/lv_widgets/lv_cpicker.c **** 
 490:lvgl/src/lv_widgets/lv_cpicker.c ****     /* Mask outer ring of widget to tidy up ragged edges of lines while drawing outer ring */
 491:lvgl/src/lv_widgets/lv_cpicker.c ****     lv_area_t mask_area_out;
 492:lvgl/src/lv_widgets/lv_cpicker.c ****     lv_area_copy(&mask_area_out, &cpicker->coords);
 493:lvgl/src/lv_widgets/lv_cpicker.c ****     mask_area_out.x1 += OUTER_MASK_WIDTH;
 494:lvgl/src/lv_widgets/lv_cpicker.c ****     mask_area_out.x2 -= OUTER_MASK_WIDTH;
 495:lvgl/src/lv_widgets/lv_cpicker.c ****     mask_area_out.y1 += OUTER_MASK_WIDTH;
 496:lvgl/src/lv_widgets/lv_cpicker.c ****     mask_area_out.y2 -= OUTER_MASK_WIDTH;
 497:lvgl/src/lv_widgets/lv_cpicker.c ****     lv_draw_mask_radius_param_t mask_out_param;
 498:lvgl/src/lv_widgets/lv_cpicker.c ****     lv_draw_mask_radius_init(&mask_out_param, &mask_area_out, LV_RADIUS_CIRCLE, false);
 499:lvgl/src/lv_widgets/lv_cpicker.c ****     int16_t mask_out_id = lv_draw_mask_add(&mask_out_param, 0);
 500:lvgl/src/lv_widgets/lv_cpicker.c **** 
 501:lvgl/src/lv_widgets/lv_cpicker.c ****     /* The inner line ends will be masked out.
 502:lvgl/src/lv_widgets/lv_cpicker.c ****      * So make lines a little bit longer because the masking makes a more even result */
 503:lvgl/src/lv_widgets/lv_cpicker.c ****     lv_coord_t cir_w_extra = cir_w + line_dsc.width;
 504:lvgl/src/lv_widgets/lv_cpicker.c **** 
 505:lvgl/src/lv_widgets/lv_cpicker.c ****     for(i = 0; i <= 360; i += LV_CPICKER_DEF_QF) {
 506:lvgl/src/lv_widgets/lv_cpicker.c ****         line_dsc.color = angle_to_mode_color(cpicker, i);
 507:lvgl/src/lv_widgets/lv_cpicker.c **** 
 508:lvgl/src/lv_widgets/lv_cpicker.c ****         lv_point_t p[2];
 509:lvgl/src/lv_widgets/lv_cpicker.c ****         p[0].x = cx + (r * _lv_trigo_sin(i) >> LV_TRIGO_SHIFT);
 510:lvgl/src/lv_widgets/lv_cpicker.c ****         p[0].y = cy + (r * _lv_trigo_sin(i + 90) >> LV_TRIGO_SHIFT);
 511:lvgl/src/lv_widgets/lv_cpicker.c ****         p[1].x = cx + ((r - cir_w_extra) * _lv_trigo_sin(i) >> LV_TRIGO_SHIFT);
 512:lvgl/src/lv_widgets/lv_cpicker.c ****         p[1].y = cy + ((r - cir_w_extra) * _lv_trigo_sin(i + 90) >> LV_TRIGO_SHIFT);
 513:lvgl/src/lv_widgets/lv_cpicker.c **** 
 514:lvgl/src/lv_widgets/lv_cpicker.c ****         lv_draw_line(&p[0], &p[1], mask, &line_dsc);
 515:lvgl/src/lv_widgets/lv_cpicker.c ****     }
 516:lvgl/src/lv_widgets/lv_cpicker.c ****     /* Now remove mask to continue with inner part */
 517:lvgl/src/lv_widgets/lv_cpicker.c ****     lv_draw_mask_remove_id(mask_out_id);
 518:lvgl/src/lv_widgets/lv_cpicker.c **** 
 519:lvgl/src/lv_widgets/lv_cpicker.c ****     /*Mask out the inner area*/
 520:lvgl/src/lv_widgets/lv_cpicker.c ****     lv_draw_rect_dsc_t bg_dsc;
 521:lvgl/src/lv_widgets/lv_cpicker.c ****     lv_draw_rect_dsc_init(&bg_dsc);
 522:lvgl/src/lv_widgets/lv_cpicker.c ****     lv_obj_init_draw_rect_dsc(cpicker, LV_CPICKER_PART_MAIN, &bg_dsc);
 523:lvgl/src/lv_widgets/lv_cpicker.c ****     bg_dsc.radius = LV_RADIUS_CIRCLE;
 524:lvgl/src/lv_widgets/lv_cpicker.c **** 
 525:lvgl/src/lv_widgets/lv_cpicker.c ****     lv_area_t area_mid;
 526:lvgl/src/lv_widgets/lv_cpicker.c ****     lv_area_copy(&area_mid, &cpicker->coords);
 527:lvgl/src/lv_widgets/lv_cpicker.c ****     area_mid.x1 += cir_w;
 528:lvgl/src/lv_widgets/lv_cpicker.c ****     area_mid.y1 += cir_w;
 529:lvgl/src/lv_widgets/lv_cpicker.c ****     area_mid.x2 -= cir_w;
 530:lvgl/src/lv_widgets/lv_cpicker.c ****     area_mid.y2 -= cir_w;
 531:lvgl/src/lv_widgets/lv_cpicker.c **** 
 532:lvgl/src/lv_widgets/lv_cpicker.c ****     lv_draw_rect(&area_mid, mask, &bg_dsc);
 533:lvgl/src/lv_widgets/lv_cpicker.c **** 
 534:lvgl/src/lv_widgets/lv_cpicker.c ****     lv_style_int_t inner = lv_obj_get_style_pad_inner(cpicker, LV_CPICKER_PART_MAIN);
 535:lvgl/src/lv_widgets/lv_cpicker.c ****     lv_color_t color = lv_cpicker_get_color(cpicker);
 536:lvgl/src/lv_widgets/lv_cpicker.c ****     bg_dsc.bg_color = color;
 537:lvgl/src/lv_widgets/lv_cpicker.c ****     area_mid.x1 += inner;
 538:lvgl/src/lv_widgets/lv_cpicker.c ****     area_mid.y1 += inner;
 539:lvgl/src/lv_widgets/lv_cpicker.c ****     area_mid.x2 -= inner;
 540:lvgl/src/lv_widgets/lv_cpicker.c ****     area_mid.y2 -= inner;
 541:lvgl/src/lv_widgets/lv_cpicker.c **** 
 542:lvgl/src/lv_widgets/lv_cpicker.c ****     lv_draw_rect(&area_mid, mask, &bg_dsc);
 543:lvgl/src/lv_widgets/lv_cpicker.c **** }
ARM GAS  D:\Temp\ccfvNLhk.s 			page 11


 544:lvgl/src/lv_widgets/lv_cpicker.c **** 
 545:lvgl/src/lv_widgets/lv_cpicker.c **** static void draw_rect_grad(lv_obj_t * cpicker, const lv_area_t * mask)
 546:lvgl/src/lv_widgets/lv_cpicker.c **** {
 547:lvgl/src/lv_widgets/lv_cpicker.c ****     lv_draw_rect_dsc_t bg_dsc;
 548:lvgl/src/lv_widgets/lv_cpicker.c ****     lv_draw_rect_dsc_init(&bg_dsc);
 549:lvgl/src/lv_widgets/lv_cpicker.c ****     lv_obj_init_draw_rect_dsc(cpicker, LV_CPICKER_PART_MAIN, &bg_dsc);
 550:lvgl/src/lv_widgets/lv_cpicker.c **** 
 551:lvgl/src/lv_widgets/lv_cpicker.c ****     lv_area_t grad_area;
 552:lvgl/src/lv_widgets/lv_cpicker.c ****     lv_obj_get_coords(cpicker, &grad_area);
 553:lvgl/src/lv_widgets/lv_cpicker.c **** 
 554:lvgl/src/lv_widgets/lv_cpicker.c ****     if(bg_dsc.radius) {
 555:lvgl/src/lv_widgets/lv_cpicker.c ****         lv_coord_t h = lv_obj_get_height(cpicker);
 556:lvgl/src/lv_widgets/lv_cpicker.c ****         lv_coord_t r = bg_dsc.radius;
 557:lvgl/src/lv_widgets/lv_cpicker.c ****         if(r > h / 2) r = h / 2;
 558:lvgl/src/lv_widgets/lv_cpicker.c ****         /*Make the gradient area smaller with a half circle on both ends*/
 559:lvgl/src/lv_widgets/lv_cpicker.c ****         grad_area.x1 += r;
 560:lvgl/src/lv_widgets/lv_cpicker.c ****         grad_area.x2 -= r;
 561:lvgl/src/lv_widgets/lv_cpicker.c **** 
 562:lvgl/src/lv_widgets/lv_cpicker.c ****         /*Draw the left rounded end*/
 563:lvgl/src/lv_widgets/lv_cpicker.c ****         lv_area_t rounded_edge_area;
 564:lvgl/src/lv_widgets/lv_cpicker.c ****         lv_obj_get_coords(cpicker, &rounded_edge_area);
 565:lvgl/src/lv_widgets/lv_cpicker.c ****         rounded_edge_area.x2 = rounded_edge_area.x1 + 2 * r;
 566:lvgl/src/lv_widgets/lv_cpicker.c **** 
 567:lvgl/src/lv_widgets/lv_cpicker.c ****         bg_dsc.bg_color = angle_to_mode_color(cpicker, 0);
 568:lvgl/src/lv_widgets/lv_cpicker.c **** 
 569:lvgl/src/lv_widgets/lv_cpicker.c ****         lv_draw_rect(&rounded_edge_area, mask, &bg_dsc);
 570:lvgl/src/lv_widgets/lv_cpicker.c **** 
 571:lvgl/src/lv_widgets/lv_cpicker.c ****         /*Draw the right rounded end*/
 572:lvgl/src/lv_widgets/lv_cpicker.c ****         lv_obj_get_coords(cpicker, &rounded_edge_area);
 573:lvgl/src/lv_widgets/lv_cpicker.c ****         rounded_edge_area.x1 = rounded_edge_area.x2 - 2 * r;
 574:lvgl/src/lv_widgets/lv_cpicker.c **** 
 575:lvgl/src/lv_widgets/lv_cpicker.c ****         bg_dsc.bg_color = angle_to_mode_color(cpicker, 359);
 576:lvgl/src/lv_widgets/lv_cpicker.c **** 
 577:lvgl/src/lv_widgets/lv_cpicker.c ****         lv_draw_rect(&rounded_edge_area, mask, &bg_dsc);
 578:lvgl/src/lv_widgets/lv_cpicker.c ****     }
 579:lvgl/src/lv_widgets/lv_cpicker.c **** 
 580:lvgl/src/lv_widgets/lv_cpicker.c ****     lv_coord_t grad_w = lv_area_get_width(&grad_area);
 581:lvgl/src/lv_widgets/lv_cpicker.c ****     if(grad_w < 1) return;
 582:lvgl/src/lv_widgets/lv_cpicker.c ****     uint16_t i_step = LV_MATH_MAX(LV_CPICKER_DEF_QF, 360 / grad_w);
 583:lvgl/src/lv_widgets/lv_cpicker.c ****     bg_dsc.radius = 0;
 584:lvgl/src/lv_widgets/lv_cpicker.c ****     bg_dsc.border_width = 0;
 585:lvgl/src/lv_widgets/lv_cpicker.c ****     bg_dsc.shadow_width = 0;
 586:lvgl/src/lv_widgets/lv_cpicker.c **** 
 587:lvgl/src/lv_widgets/lv_cpicker.c ****     uint16_t i;
 588:lvgl/src/lv_widgets/lv_cpicker.c ****     for(i = 0; i < 360; i += i_step) {
 589:lvgl/src/lv_widgets/lv_cpicker.c ****         bg_dsc.bg_color = angle_to_mode_color(cpicker, i);
 590:lvgl/src/lv_widgets/lv_cpicker.c **** 
 591:lvgl/src/lv_widgets/lv_cpicker.c ****         /*the following attribute might need changing between index to add border, shadow, radius e
 592:lvgl/src/lv_widgets/lv_cpicker.c ****         lv_area_t rect_area;
 593:lvgl/src/lv_widgets/lv_cpicker.c **** 
 594:lvgl/src/lv_widgets/lv_cpicker.c ****         /*scale angle (hue/sat/val) to linear coordinate*/
 595:lvgl/src/lv_widgets/lv_cpicker.c ****         lv_coord_t xi = (i * grad_w) / 360;
 596:lvgl/src/lv_widgets/lv_cpicker.c ****         lv_coord_t xi2 = ((i + i_step) * grad_w) / 360;
 597:lvgl/src/lv_widgets/lv_cpicker.c **** 
 598:lvgl/src/lv_widgets/lv_cpicker.c ****         rect_area.x1 = LV_MATH_MIN(grad_area.x1 + xi, grad_area.x1 + grad_w - i_step);
 599:lvgl/src/lv_widgets/lv_cpicker.c ****         rect_area.y1 = grad_area.y1;
 600:lvgl/src/lv_widgets/lv_cpicker.c ****         rect_area.x2 = LV_MATH_MIN(grad_area.x1 + xi2, grad_area.x1 + grad_w - i_step);
ARM GAS  D:\Temp\ccfvNLhk.s 			page 12


 601:lvgl/src/lv_widgets/lv_cpicker.c ****         rect_area.y2 = grad_area.y2;
 602:lvgl/src/lv_widgets/lv_cpicker.c **** 
 603:lvgl/src/lv_widgets/lv_cpicker.c ****         lv_draw_rect(&rect_area, mask, &bg_dsc);
 604:lvgl/src/lv_widgets/lv_cpicker.c ****     }
 605:lvgl/src/lv_widgets/lv_cpicker.c **** }
 606:lvgl/src/lv_widgets/lv_cpicker.c **** 
 607:lvgl/src/lv_widgets/lv_cpicker.c **** static void draw_knob(lv_obj_t * cpicker, const lv_area_t * mask)
 608:lvgl/src/lv_widgets/lv_cpicker.c **** {
 609:lvgl/src/lv_widgets/lv_cpicker.c ****     lv_cpicker_ext_t * ext = lv_obj_get_ext_attr(cpicker);
 610:lvgl/src/lv_widgets/lv_cpicker.c **** 
 611:lvgl/src/lv_widgets/lv_cpicker.c ****     lv_draw_rect_dsc_t cir_dsc;
 612:lvgl/src/lv_widgets/lv_cpicker.c ****     lv_draw_rect_dsc_init(&cir_dsc);
 613:lvgl/src/lv_widgets/lv_cpicker.c ****     lv_obj_init_draw_rect_dsc(cpicker, LV_CPICKER_PART_KNOB, &cir_dsc);
 614:lvgl/src/lv_widgets/lv_cpicker.c **** 
 615:lvgl/src/lv_widgets/lv_cpicker.c ****     cir_dsc.radius = LV_RADIUS_CIRCLE;
 616:lvgl/src/lv_widgets/lv_cpicker.c **** 
 617:lvgl/src/lv_widgets/lv_cpicker.c ****     if(ext->knob.colored) {
 618:lvgl/src/lv_widgets/lv_cpicker.c ****         cir_dsc.bg_color = lv_cpicker_get_color(cpicker);
 619:lvgl/src/lv_widgets/lv_cpicker.c ****     }
 620:lvgl/src/lv_widgets/lv_cpicker.c **** 
 621:lvgl/src/lv_widgets/lv_cpicker.c ****     lv_area_t knob_area = get_knob_area(cpicker);
 622:lvgl/src/lv_widgets/lv_cpicker.c **** 
 623:lvgl/src/lv_widgets/lv_cpicker.c ****     lv_draw_rect(&knob_area, mask, &cir_dsc);
 624:lvgl/src/lv_widgets/lv_cpicker.c **** }
 625:lvgl/src/lv_widgets/lv_cpicker.c **** 
 626:lvgl/src/lv_widgets/lv_cpicker.c **** static void invalidate_knob(lv_obj_t * cpicker)
 627:lvgl/src/lv_widgets/lv_cpicker.c **** {
 628:lvgl/src/lv_widgets/lv_cpicker.c ****     lv_area_t knob_area = get_knob_area(cpicker);
 629:lvgl/src/lv_widgets/lv_cpicker.c **** 
 630:lvgl/src/lv_widgets/lv_cpicker.c ****     lv_obj_invalidate_area(cpicker, &knob_area);
 631:lvgl/src/lv_widgets/lv_cpicker.c **** }
 632:lvgl/src/lv_widgets/lv_cpicker.c **** 
 633:lvgl/src/lv_widgets/lv_cpicker.c **** static lv_area_t get_knob_area(lv_obj_t * cpicker)
 634:lvgl/src/lv_widgets/lv_cpicker.c **** {
 635:lvgl/src/lv_widgets/lv_cpicker.c ****     lv_cpicker_ext_t * ext = lv_obj_get_ext_attr(cpicker);
 636:lvgl/src/lv_widgets/lv_cpicker.c **** 
 637:lvgl/src/lv_widgets/lv_cpicker.c ****     /*Get knob's radius*/
 638:lvgl/src/lv_widgets/lv_cpicker.c ****     uint16_t r = 0;
 639:lvgl/src/lv_widgets/lv_cpicker.c ****     if(ext->type == LV_CPICKER_TYPE_DISC) {
 640:lvgl/src/lv_widgets/lv_cpicker.c ****         r = lv_obj_get_style_scale_width(cpicker, LV_CPICKER_PART_MAIN) / 2;
 641:lvgl/src/lv_widgets/lv_cpicker.c ****     }
 642:lvgl/src/lv_widgets/lv_cpicker.c ****     else if(ext->type == LV_CPICKER_TYPE_RECT) {
 643:lvgl/src/lv_widgets/lv_cpicker.c ****         lv_coord_t h = lv_obj_get_height(cpicker);
 644:lvgl/src/lv_widgets/lv_cpicker.c ****         r = h / 2;
 645:lvgl/src/lv_widgets/lv_cpicker.c ****     }
 646:lvgl/src/lv_widgets/lv_cpicker.c **** 
 647:lvgl/src/lv_widgets/lv_cpicker.c ****     lv_style_int_t left = lv_obj_get_style_pad_left(cpicker, LV_CPICKER_PART_KNOB);
 648:lvgl/src/lv_widgets/lv_cpicker.c ****     lv_style_int_t right = lv_obj_get_style_pad_right(cpicker, LV_CPICKER_PART_KNOB);
 649:lvgl/src/lv_widgets/lv_cpicker.c ****     lv_style_int_t top = lv_obj_get_style_pad_top(cpicker, LV_CPICKER_PART_KNOB);
 650:lvgl/src/lv_widgets/lv_cpicker.c ****     lv_style_int_t bottom = lv_obj_get_style_pad_bottom(cpicker, LV_CPICKER_PART_KNOB);
 651:lvgl/src/lv_widgets/lv_cpicker.c **** 
 652:lvgl/src/lv_widgets/lv_cpicker.c ****     lv_area_t knob_area;
 653:lvgl/src/lv_widgets/lv_cpicker.c ****     knob_area.x1 = cpicker->coords.x1 + ext->knob.pos.x - r - left;
 654:lvgl/src/lv_widgets/lv_cpicker.c ****     knob_area.y1 = cpicker->coords.y1 + ext->knob.pos.y - r - right;
 655:lvgl/src/lv_widgets/lv_cpicker.c ****     knob_area.x2 = cpicker->coords.x1 + ext->knob.pos.x + r + top;
 656:lvgl/src/lv_widgets/lv_cpicker.c ****     knob_area.y2 = cpicker->coords.y1 + ext->knob.pos.y + r + bottom;
 657:lvgl/src/lv_widgets/lv_cpicker.c **** 
ARM GAS  D:\Temp\ccfvNLhk.s 			page 13


 658:lvgl/src/lv_widgets/lv_cpicker.c ****     return knob_area;
 659:lvgl/src/lv_widgets/lv_cpicker.c **** }
 660:lvgl/src/lv_widgets/lv_cpicker.c **** 
 661:lvgl/src/lv_widgets/lv_cpicker.c **** /**
 662:lvgl/src/lv_widgets/lv_cpicker.c ****  * Signal function of the color_picker
 663:lvgl/src/lv_widgets/lv_cpicker.c ****  * @param cpicker pointer to a color_picker object
 664:lvgl/src/lv_widgets/lv_cpicker.c ****  * @param sign a signal type from lv_signal_t enum
 665:lvgl/src/lv_widgets/lv_cpicker.c ****  * @param param pointer to a signal specific variable
 666:lvgl/src/lv_widgets/lv_cpicker.c ****  * @return LV_RES_OK: the object is not deleted in the function; LV_RES_INV: the object is deleted
 667:lvgl/src/lv_widgets/lv_cpicker.c ****  */
 668:lvgl/src/lv_widgets/lv_cpicker.c **** static lv_res_t lv_cpicker_signal(lv_obj_t * cpicker, lv_signal_t sign, void * param)
 669:lvgl/src/lv_widgets/lv_cpicker.c **** {
 670:lvgl/src/lv_widgets/lv_cpicker.c ****     /* Include the ancient signal function */
 671:lvgl/src/lv_widgets/lv_cpicker.c ****     lv_res_t res;
 672:lvgl/src/lv_widgets/lv_cpicker.c **** 
 673:lvgl/src/lv_widgets/lv_cpicker.c ****     if(sign == LV_SIGNAL_GET_STYLE) {
 674:lvgl/src/lv_widgets/lv_cpicker.c ****         lv_get_style_info_t * info = param;
 675:lvgl/src/lv_widgets/lv_cpicker.c ****         info->result = lv_cpicker_get_style(cpicker, info->part);
 676:lvgl/src/lv_widgets/lv_cpicker.c ****         if(info->result != NULL) return LV_RES_OK;
 677:lvgl/src/lv_widgets/lv_cpicker.c ****         else return ancestor_signal(cpicker, sign, param);
 678:lvgl/src/lv_widgets/lv_cpicker.c ****     }
 679:lvgl/src/lv_widgets/lv_cpicker.c **** 
 680:lvgl/src/lv_widgets/lv_cpicker.c ****     res = ancestor_signal(cpicker, sign, param);
 681:lvgl/src/lv_widgets/lv_cpicker.c ****     if(res != LV_RES_OK) return res;
 682:lvgl/src/lv_widgets/lv_cpicker.c ****     if(sign == LV_SIGNAL_GET_TYPE) return lv_obj_handle_get_type_signal(param, LV_OBJX_NAME);
 683:lvgl/src/lv_widgets/lv_cpicker.c **** 
 684:lvgl/src/lv_widgets/lv_cpicker.c ****     lv_cpicker_ext_t * ext = lv_obj_get_ext_attr(cpicker);
 685:lvgl/src/lv_widgets/lv_cpicker.c **** 
 686:lvgl/src/lv_widgets/lv_cpicker.c ****     if(sign == LV_SIGNAL_CLEANUP) {
 687:lvgl/src/lv_widgets/lv_cpicker.c ****         lv_obj_clean_style_list(cpicker, LV_CPICKER_PART_KNOB);
 688:lvgl/src/lv_widgets/lv_cpicker.c ****     }
 689:lvgl/src/lv_widgets/lv_cpicker.c ****     else if(sign == LV_SIGNAL_REFR_EXT_DRAW_PAD) {
 690:lvgl/src/lv_widgets/lv_cpicker.c ****         lv_style_int_t left = lv_obj_get_style_pad_left(cpicker, LV_CPICKER_PART_KNOB);
 691:lvgl/src/lv_widgets/lv_cpicker.c ****         lv_style_int_t right = lv_obj_get_style_pad_right(cpicker, LV_CPICKER_PART_KNOB);
 692:lvgl/src/lv_widgets/lv_cpicker.c ****         lv_style_int_t top = lv_obj_get_style_pad_top(cpicker, LV_CPICKER_PART_KNOB);
 693:lvgl/src/lv_widgets/lv_cpicker.c ****         lv_style_int_t bottom = lv_obj_get_style_pad_bottom(cpicker, LV_CPICKER_PART_KNOB);
 694:lvgl/src/lv_widgets/lv_cpicker.c **** 
 695:lvgl/src/lv_widgets/lv_cpicker.c ****         lv_coord_t knob_pad = LV_MATH_MAX4(left, right, top, bottom) + 2;
 696:lvgl/src/lv_widgets/lv_cpicker.c **** 
 697:lvgl/src/lv_widgets/lv_cpicker.c ****         if(ext->type == LV_CPICKER_TYPE_DISC) {
 698:lvgl/src/lv_widgets/lv_cpicker.c ****             cpicker->ext_draw_pad = LV_MATH_MAX(cpicker->ext_draw_pad, knob_pad);
 699:lvgl/src/lv_widgets/lv_cpicker.c ****         }
 700:lvgl/src/lv_widgets/lv_cpicker.c ****         else {
 701:lvgl/src/lv_widgets/lv_cpicker.c ****             knob_pad += lv_obj_get_height(cpicker) / 2;
 702:lvgl/src/lv_widgets/lv_cpicker.c ****             cpicker->ext_draw_pad = LV_MATH_MAX(cpicker->ext_draw_pad, knob_pad);
 703:lvgl/src/lv_widgets/lv_cpicker.c ****         }
 704:lvgl/src/lv_widgets/lv_cpicker.c ****     }
 705:lvgl/src/lv_widgets/lv_cpicker.c ****     else if(sign == LV_SIGNAL_COORD_CHG) {
 706:lvgl/src/lv_widgets/lv_cpicker.c ****         /*Refresh extended draw area to make knob visible*/
 707:lvgl/src/lv_widgets/lv_cpicker.c ****         if(lv_obj_get_width(cpicker) != lv_area_get_width(param) ||
 708:lvgl/src/lv_widgets/lv_cpicker.c ****            lv_obj_get_height(cpicker) != lv_area_get_height(param)) {
 709:lvgl/src/lv_widgets/lv_cpicker.c ****             lv_obj_refresh_ext_draw_pad(cpicker);
 710:lvgl/src/lv_widgets/lv_cpicker.c ****             refr_knob_pos(cpicker);
 711:lvgl/src/lv_widgets/lv_cpicker.c ****             lv_obj_invalidate(cpicker);
 712:lvgl/src/lv_widgets/lv_cpicker.c ****         }
 713:lvgl/src/lv_widgets/lv_cpicker.c ****     }
 714:lvgl/src/lv_widgets/lv_cpicker.c ****     else if(sign == LV_SIGNAL_STYLE_CHG) {
ARM GAS  D:\Temp\ccfvNLhk.s 			page 14


 715:lvgl/src/lv_widgets/lv_cpicker.c ****         /*Refresh extended draw area to make knob visible*/
 716:lvgl/src/lv_widgets/lv_cpicker.c ****         lv_obj_refresh_ext_draw_pad(cpicker);
 717:lvgl/src/lv_widgets/lv_cpicker.c ****         refr_knob_pos(cpicker);
 718:lvgl/src/lv_widgets/lv_cpicker.c ****         lv_obj_invalidate(cpicker);
 719:lvgl/src/lv_widgets/lv_cpicker.c ****     }
 720:lvgl/src/lv_widgets/lv_cpicker.c ****     else if(sign == LV_SIGNAL_CONTROL) {
 721:lvgl/src/lv_widgets/lv_cpicker.c **** #if LV_USE_GROUP
 722:lvgl/src/lv_widgets/lv_cpicker.c ****         uint32_t c = *((uint32_t *)param); /*uint32_t because can be UTF-8*/
 723:lvgl/src/lv_widgets/lv_cpicker.c **** 
 724:lvgl/src/lv_widgets/lv_cpicker.c ****         if(c == LV_KEY_RIGHT || c == LV_KEY_UP) {
 725:lvgl/src/lv_widgets/lv_cpicker.c ****             lv_color_hsv_t hsv_cur;
 726:lvgl/src/lv_widgets/lv_cpicker.c ****             hsv_cur = ext->hsv;
 727:lvgl/src/lv_widgets/lv_cpicker.c **** 
 728:lvgl/src/lv_widgets/lv_cpicker.c ****             switch(ext->color_mode) {
 729:lvgl/src/lv_widgets/lv_cpicker.c ****                 case LV_CPICKER_COLOR_MODE_HUE:
 730:lvgl/src/lv_widgets/lv_cpicker.c ****                     hsv_cur.h = (ext->hsv.h + 1) % 360;
 731:lvgl/src/lv_widgets/lv_cpicker.c ****                     break;
 732:lvgl/src/lv_widgets/lv_cpicker.c ****                 case LV_CPICKER_COLOR_MODE_SATURATION:
 733:lvgl/src/lv_widgets/lv_cpicker.c ****                     hsv_cur.s = (ext->hsv.s + 1) % 100;
 734:lvgl/src/lv_widgets/lv_cpicker.c ****                     break;
 735:lvgl/src/lv_widgets/lv_cpicker.c ****                 case LV_CPICKER_COLOR_MODE_VALUE:
 736:lvgl/src/lv_widgets/lv_cpicker.c ****                     hsv_cur.v = (ext->hsv.v + 1) % 100;
 737:lvgl/src/lv_widgets/lv_cpicker.c ****                     break;
 738:lvgl/src/lv_widgets/lv_cpicker.c ****             }
 739:lvgl/src/lv_widgets/lv_cpicker.c **** 
 740:lvgl/src/lv_widgets/lv_cpicker.c ****             if(lv_cpicker_set_hsv(cpicker, hsv_cur)) {
 741:lvgl/src/lv_widgets/lv_cpicker.c ****                 res = lv_event_send(cpicker, LV_EVENT_VALUE_CHANGED, NULL);
 742:lvgl/src/lv_widgets/lv_cpicker.c ****                 if(res != LV_RES_OK) return res;
 743:lvgl/src/lv_widgets/lv_cpicker.c ****             }
 744:lvgl/src/lv_widgets/lv_cpicker.c ****         }
 745:lvgl/src/lv_widgets/lv_cpicker.c ****         else if(c == LV_KEY_LEFT || c == LV_KEY_DOWN) {
 746:lvgl/src/lv_widgets/lv_cpicker.c ****             lv_color_hsv_t hsv_cur;
 747:lvgl/src/lv_widgets/lv_cpicker.c ****             hsv_cur = ext->hsv;
 748:lvgl/src/lv_widgets/lv_cpicker.c **** 
 749:lvgl/src/lv_widgets/lv_cpicker.c ****             switch(ext->color_mode) {
 750:lvgl/src/lv_widgets/lv_cpicker.c ****                 case LV_CPICKER_COLOR_MODE_HUE:
 751:lvgl/src/lv_widgets/lv_cpicker.c ****                     hsv_cur.h = ext->hsv.h > 0 ? (ext->hsv.h - 1) : 360;
 752:lvgl/src/lv_widgets/lv_cpicker.c ****                     break;
 753:lvgl/src/lv_widgets/lv_cpicker.c ****                 case LV_CPICKER_COLOR_MODE_SATURATION:
 754:lvgl/src/lv_widgets/lv_cpicker.c ****                     hsv_cur.s = ext->hsv.s > 0 ? (ext->hsv.s - 1) : 100;
 755:lvgl/src/lv_widgets/lv_cpicker.c ****                     break;
 756:lvgl/src/lv_widgets/lv_cpicker.c ****                 case LV_CPICKER_COLOR_MODE_VALUE:
 757:lvgl/src/lv_widgets/lv_cpicker.c ****                     hsv_cur.v = ext->hsv.v > 0 ? (ext->hsv.v - 1) : 100;
 758:lvgl/src/lv_widgets/lv_cpicker.c ****                     break;
 759:lvgl/src/lv_widgets/lv_cpicker.c ****             }
 760:lvgl/src/lv_widgets/lv_cpicker.c **** 
 761:lvgl/src/lv_widgets/lv_cpicker.c ****             if(lv_cpicker_set_hsv(cpicker, hsv_cur)) {
 762:lvgl/src/lv_widgets/lv_cpicker.c ****                 res = lv_event_send(cpicker, LV_EVENT_VALUE_CHANGED, NULL);
 763:lvgl/src/lv_widgets/lv_cpicker.c ****                 if(res != LV_RES_OK) return res;
 764:lvgl/src/lv_widgets/lv_cpicker.c ****             }
 765:lvgl/src/lv_widgets/lv_cpicker.c ****         }
 766:lvgl/src/lv_widgets/lv_cpicker.c **** #endif
 767:lvgl/src/lv_widgets/lv_cpicker.c ****     }
 768:lvgl/src/lv_widgets/lv_cpicker.c ****     else if(sign == LV_SIGNAL_PRESSED) {
 769:lvgl/src/lv_widgets/lv_cpicker.c ****         ext->last_change_time = lv_tick_get();
 770:lvgl/src/lv_widgets/lv_cpicker.c ****         lv_indev_get_point(lv_indev_get_act(), &ext->last_press_point);
 771:lvgl/src/lv_widgets/lv_cpicker.c ****         res = double_click_reset(cpicker);
ARM GAS  D:\Temp\ccfvNLhk.s 			page 15


 772:lvgl/src/lv_widgets/lv_cpicker.c ****         if(res != LV_RES_OK) return res;
 773:lvgl/src/lv_widgets/lv_cpicker.c ****     }
 774:lvgl/src/lv_widgets/lv_cpicker.c ****     else if(sign == LV_SIGNAL_PRESSING) {
 775:lvgl/src/lv_widgets/lv_cpicker.c ****         lv_indev_t * indev = lv_indev_get_act();
 776:lvgl/src/lv_widgets/lv_cpicker.c ****         if(indev == NULL) return res;
 777:lvgl/src/lv_widgets/lv_cpicker.c **** 
 778:lvgl/src/lv_widgets/lv_cpicker.c ****         lv_indev_type_t indev_type = lv_indev_get_type(indev);
 779:lvgl/src/lv_widgets/lv_cpicker.c ****         lv_point_t p;
 780:lvgl/src/lv_widgets/lv_cpicker.c ****         if(indev_type == LV_INDEV_TYPE_ENCODER || indev_type == LV_INDEV_TYPE_KEYPAD) {
 781:lvgl/src/lv_widgets/lv_cpicker.c ****             p.x = cpicker->coords.x1 + lv_obj_get_width(cpicker) / 2;
 782:lvgl/src/lv_widgets/lv_cpicker.c ****             p.y = cpicker->coords.y1 + lv_obj_get_height(cpicker) / 2;
 783:lvgl/src/lv_widgets/lv_cpicker.c ****         }
 784:lvgl/src/lv_widgets/lv_cpicker.c ****         else {
 785:lvgl/src/lv_widgets/lv_cpicker.c ****             lv_indev_get_point(indev, &p);
 786:lvgl/src/lv_widgets/lv_cpicker.c ****         }
 787:lvgl/src/lv_widgets/lv_cpicker.c **** 
 788:lvgl/src/lv_widgets/lv_cpicker.c ****         if((LV_MATH_ABS(p.x - ext->last_press_point.x) > indev->driver.drag_limit / 2) ||
 789:lvgl/src/lv_widgets/lv_cpicker.c ****            (LV_MATH_ABS(p.y - ext->last_press_point.y) > indev->driver.drag_limit / 2)) {
 790:lvgl/src/lv_widgets/lv_cpicker.c ****             ext->last_change_time = lv_tick_get();
 791:lvgl/src/lv_widgets/lv_cpicker.c ****             ext->last_press_point.x = p.x;
 792:lvgl/src/lv_widgets/lv_cpicker.c ****             ext->last_press_point.y = p.y;
 793:lvgl/src/lv_widgets/lv_cpicker.c ****         }
 794:lvgl/src/lv_widgets/lv_cpicker.c **** 
 795:lvgl/src/lv_widgets/lv_cpicker.c ****         p.x -= cpicker->coords.x1;
 796:lvgl/src/lv_widgets/lv_cpicker.c ****         p.y -= cpicker->coords.y1;
 797:lvgl/src/lv_widgets/lv_cpicker.c **** 
 798:lvgl/src/lv_widgets/lv_cpicker.c ****         /*Ignore pressing in the inner area*/
 799:lvgl/src/lv_widgets/lv_cpicker.c ****         uint16_t w = lv_obj_get_width(cpicker);
 800:lvgl/src/lv_widgets/lv_cpicker.c **** 
 801:lvgl/src/lv_widgets/lv_cpicker.c ****         int16_t angle = 0;
 802:lvgl/src/lv_widgets/lv_cpicker.c **** 
 803:lvgl/src/lv_widgets/lv_cpicker.c ****         if(ext->type == LV_CPICKER_TYPE_RECT) {
 804:lvgl/src/lv_widgets/lv_cpicker.c ****             /*If pressed long enough without change go to next color mode*/
 805:lvgl/src/lv_widgets/lv_cpicker.c ****             uint32_t diff = lv_tick_elaps(ext->last_change_time);
 806:lvgl/src/lv_widgets/lv_cpicker.c ****             if(diff > (uint32_t)indev->driver.long_press_time * 2 && !ext->color_mode_fixed) {
 807:lvgl/src/lv_widgets/lv_cpicker.c ****                 next_color_mode(cpicker);
 808:lvgl/src/lv_widgets/lv_cpicker.c ****                 lv_indev_wait_release(lv_indev_get_act());
 809:lvgl/src/lv_widgets/lv_cpicker.c ****                 return res;
 810:lvgl/src/lv_widgets/lv_cpicker.c ****             }
 811:lvgl/src/lv_widgets/lv_cpicker.c **** 
 812:lvgl/src/lv_widgets/lv_cpicker.c ****             angle = (p.x * 360) / w;
 813:lvgl/src/lv_widgets/lv_cpicker.c ****             if(angle < 0) angle = 0;
 814:lvgl/src/lv_widgets/lv_cpicker.c ****             if(angle >= 360) angle = 359;
 815:lvgl/src/lv_widgets/lv_cpicker.c **** 
 816:lvgl/src/lv_widgets/lv_cpicker.c ****         }
 817:lvgl/src/lv_widgets/lv_cpicker.c ****         else if(ext->type == LV_CPICKER_TYPE_DISC) {
 818:lvgl/src/lv_widgets/lv_cpicker.c ****             lv_style_int_t scale_w = lv_obj_get_style_scale_width(cpicker, LV_CPICKER_PART_MAIN);
 819:lvgl/src/lv_widgets/lv_cpicker.c **** 
 820:lvgl/src/lv_widgets/lv_cpicker.c ****             lv_coord_t r_in = w / 2;
 821:lvgl/src/lv_widgets/lv_cpicker.c ****             p.x -= r_in;
 822:lvgl/src/lv_widgets/lv_cpicker.c ****             p.y -= r_in;
 823:lvgl/src/lv_widgets/lv_cpicker.c ****             bool on_ring = true;
 824:lvgl/src/lv_widgets/lv_cpicker.c ****             r_in -= scale_w;
 825:lvgl/src/lv_widgets/lv_cpicker.c ****             if(r_in > LV_DPI / 2) {
 826:lvgl/src/lv_widgets/lv_cpicker.c ****                 lv_style_int_t inner = lv_obj_get_style_pad_inner(cpicker, LV_CPICKER_PART_MAIN);
 827:lvgl/src/lv_widgets/lv_cpicker.c ****                 r_in -= inner;
 828:lvgl/src/lv_widgets/lv_cpicker.c **** 
ARM GAS  D:\Temp\ccfvNLhk.s 			page 16


 829:lvgl/src/lv_widgets/lv_cpicker.c ****                 if(r_in < LV_DPI / 2) r_in = LV_DPI / 2;
 830:lvgl/src/lv_widgets/lv_cpicker.c ****             }
 831:lvgl/src/lv_widgets/lv_cpicker.c **** 
 832:lvgl/src/lv_widgets/lv_cpicker.c ****             if(p.x * p.x + p.y * p.y < r_in * r_in) {
 833:lvgl/src/lv_widgets/lv_cpicker.c ****                 on_ring = false;
 834:lvgl/src/lv_widgets/lv_cpicker.c ****             }
 835:lvgl/src/lv_widgets/lv_cpicker.c **** 
 836:lvgl/src/lv_widgets/lv_cpicker.c ****             /*If the inner area is being pressed, go to the next color mode on long press*/
 837:lvgl/src/lv_widgets/lv_cpicker.c ****             uint32_t diff = lv_tick_elaps(ext->last_change_time);
 838:lvgl/src/lv_widgets/lv_cpicker.c ****             if(!on_ring && diff > indev->driver.long_press_time && !ext->color_mode_fixed) {
 839:lvgl/src/lv_widgets/lv_cpicker.c ****                 next_color_mode(cpicker);
 840:lvgl/src/lv_widgets/lv_cpicker.c ****                 lv_indev_wait_release(lv_indev_get_act());
 841:lvgl/src/lv_widgets/lv_cpicker.c ****                 return res;
 842:lvgl/src/lv_widgets/lv_cpicker.c ****             }
 843:lvgl/src/lv_widgets/lv_cpicker.c **** 
 844:lvgl/src/lv_widgets/lv_cpicker.c ****             /*Set the angle only if pressed on the ring*/
 845:lvgl/src/lv_widgets/lv_cpicker.c ****             if(!on_ring) return res;
 846:lvgl/src/lv_widgets/lv_cpicker.c **** 
 847:lvgl/src/lv_widgets/lv_cpicker.c ****             angle = _lv_atan2(p.x, p.y) % 360;
 848:lvgl/src/lv_widgets/lv_cpicker.c ****         }
 849:lvgl/src/lv_widgets/lv_cpicker.c **** 
 850:lvgl/src/lv_widgets/lv_cpicker.c ****         lv_color_hsv_t hsv_cur;
 851:lvgl/src/lv_widgets/lv_cpicker.c ****         hsv_cur = ext->hsv;
 852:lvgl/src/lv_widgets/lv_cpicker.c **** 
 853:lvgl/src/lv_widgets/lv_cpicker.c ****         switch(ext->color_mode) {
 854:lvgl/src/lv_widgets/lv_cpicker.c ****             case LV_CPICKER_COLOR_MODE_HUE:
 855:lvgl/src/lv_widgets/lv_cpicker.c ****                 hsv_cur.h = angle;
 856:lvgl/src/lv_widgets/lv_cpicker.c ****                 break;
 857:lvgl/src/lv_widgets/lv_cpicker.c ****             case LV_CPICKER_COLOR_MODE_SATURATION:
 858:lvgl/src/lv_widgets/lv_cpicker.c ****                 hsv_cur.s = (angle * 100) / 360;
 859:lvgl/src/lv_widgets/lv_cpicker.c ****                 break;
 860:lvgl/src/lv_widgets/lv_cpicker.c ****             case LV_CPICKER_COLOR_MODE_VALUE:
 861:lvgl/src/lv_widgets/lv_cpicker.c ****                 hsv_cur.v = (angle * 100) / 360;
 862:lvgl/src/lv_widgets/lv_cpicker.c ****                 break;
 863:lvgl/src/lv_widgets/lv_cpicker.c ****         }
 864:lvgl/src/lv_widgets/lv_cpicker.c **** 
 865:lvgl/src/lv_widgets/lv_cpicker.c ****         if(lv_cpicker_set_hsv(cpicker, hsv_cur)) {
 866:lvgl/src/lv_widgets/lv_cpicker.c ****             res = lv_event_send(cpicker, LV_EVENT_VALUE_CHANGED, NULL);
 867:lvgl/src/lv_widgets/lv_cpicker.c ****             if(res != LV_RES_OK) return res;
 868:lvgl/src/lv_widgets/lv_cpicker.c ****         }
 869:lvgl/src/lv_widgets/lv_cpicker.c ****     }
 870:lvgl/src/lv_widgets/lv_cpicker.c ****     else if(sign == LV_SIGNAL_HIT_TEST) {
 871:lvgl/src/lv_widgets/lv_cpicker.c ****         lv_hit_test_info_t * info = param;
 872:lvgl/src/lv_widgets/lv_cpicker.c ****         info->result = lv_cpicker_hit(cpicker, info->point);
 873:lvgl/src/lv_widgets/lv_cpicker.c ****     }
 874:lvgl/src/lv_widgets/lv_cpicker.c **** 
 875:lvgl/src/lv_widgets/lv_cpicker.c ****     return res;
 876:lvgl/src/lv_widgets/lv_cpicker.c **** }
 877:lvgl/src/lv_widgets/lv_cpicker.c **** 
 878:lvgl/src/lv_widgets/lv_cpicker.c **** /**
 879:lvgl/src/lv_widgets/lv_cpicker.c ****  * Get the style_list descriptor of a part of the object
 880:lvgl/src/lv_widgets/lv_cpicker.c ****  * @param cpicker pointer the object
 881:lvgl/src/lv_widgets/lv_cpicker.c ****  * @param part the part of the cpicker. (LV_PAGE_CPICKER_...)
 882:lvgl/src/lv_widgets/lv_cpicker.c ****  * @return pointer to the style_list descriptor of the specified part
 883:lvgl/src/lv_widgets/lv_cpicker.c ****  */
 884:lvgl/src/lv_widgets/lv_cpicker.c **** static lv_style_list_t * lv_cpicker_get_style(lv_obj_t * cpicker, uint8_t part)
 885:lvgl/src/lv_widgets/lv_cpicker.c **** {
ARM GAS  D:\Temp\ccfvNLhk.s 			page 17


  29              		.loc 1 885 1 view -0
  30              		.cfi_startproc
  31              		@ args = 0, pretend = 0, frame = 0
  32              		@ frame_needed = 0, uses_anonymous_args = 0
  33              		.loc 1 885 1 is_stmt 0 view .LVU1
  34 0000 38B5     		push	{r3, r4, r5, lr}
  35              	.LCFI0:
  36              		.cfi_def_cfa_offset 16
  37              		.cfi_offset 3, -16
  38              		.cfi_offset 4, -12
  39              		.cfi_offset 5, -8
  40              		.cfi_offset 14, -4
  41 0002 0446     		mov	r4, r0
  42 0004 0D46     		mov	r5, r1
 886:lvgl/src/lv_widgets/lv_cpicker.c ****     LV_ASSERT_OBJ(cpicker, LV_OBJX_NAME);
  43              		.loc 1 886 5 is_stmt 1 view .LVU2
  44              		.loc 1 886 5 view .LVU3
  45 0006 FFF7FEFF 		bl	lv_debug_check_null
  46              	.LVL1:
  47              		.loc 1 886 5 is_stmt 0 view .LVU4
  48 000a 28B9     		cbnz	r0, .L2
  49              		.loc 1 886 5 is_stmt 1 discriminator 1 view .LVU5
  50              		.loc 1 886 5 discriminator 1 view .LVU6
  51 000c 2246     		mov	r2, r4
  52 000e 0023     		movs	r3, #0
  53 0010 0848     		ldr	r0, .L8
  54 0012 FFF7FEFF 		bl	lv_debug_log_error
  55              	.LVL2:
  56              	.L3:
  57              		.loc 1 886 5 discriminator 1 view .LVU7
  58              		.loc 1 886 5 discriminator 1 view .LVU8
  59 0016 FEE7     		b	.L3
  60              	.L2:
  61              		.loc 1 886 41 discriminator 2 view .LVU9
 887:lvgl/src/lv_widgets/lv_cpicker.c **** 
 888:lvgl/src/lv_widgets/lv_cpicker.c ****     lv_cpicker_ext_t * ext = lv_obj_get_ext_attr(cpicker);
  62              		.loc 1 888 5 discriminator 2 view .LVU10
  63              		.loc 1 888 30 is_stmt 0 discriminator 2 view .LVU11
  64 0018 2046     		mov	r0, r4
  65 001a FFF7FEFF 		bl	lv_obj_get_ext_attr
  66              	.LVL3:
 889:lvgl/src/lv_widgets/lv_cpicker.c ****     lv_style_list_t * style_dsc_p;
  67              		.loc 1 889 5 is_stmt 1 discriminator 2 view .LVU12
 890:lvgl/src/lv_widgets/lv_cpicker.c **** 
 891:lvgl/src/lv_widgets/lv_cpicker.c ****     switch(part) {
  68              		.loc 1 891 5 discriminator 2 view .LVU13
  69 001e 1DB1     		cbz	r5, .L4
  70              		.loc 1 891 5 is_stmt 0 view .LVU14
  71 0020 012D     		cmp	r5, #1
  72 0022 04D0     		beq	.L5
 892:lvgl/src/lv_widgets/lv_cpicker.c ****         case LV_CPICKER_PART_MAIN :
 893:lvgl/src/lv_widgets/lv_cpicker.c ****             style_dsc_p = &cpicker->style_list;
 894:lvgl/src/lv_widgets/lv_cpicker.c ****             break;
 895:lvgl/src/lv_widgets/lv_cpicker.c ****         case LV_CPICKER_PART_KNOB:
 896:lvgl/src/lv_widgets/lv_cpicker.c ****             style_dsc_p = &ext->knob.style_list;
 897:lvgl/src/lv_widgets/lv_cpicker.c ****             break;
 898:lvgl/src/lv_widgets/lv_cpicker.c ****         default:
ARM GAS  D:\Temp\ccfvNLhk.s 			page 18


 899:lvgl/src/lv_widgets/lv_cpicker.c ****             style_dsc_p = NULL;
  73              		.loc 1 899 25 view .LVU15
  74 0024 0020     		movs	r0, #0
  75              	.LVL4:
  76              	.L1:
 900:lvgl/src/lv_widgets/lv_cpicker.c ****     }
 901:lvgl/src/lv_widgets/lv_cpicker.c **** 
 902:lvgl/src/lv_widgets/lv_cpicker.c ****     return style_dsc_p;
 903:lvgl/src/lv_widgets/lv_cpicker.c **** }
  77              		.loc 1 903 1 view .LVU16
  78 0026 38BD     		pop	{r3, r4, r5, pc}
  79              	.LVL5:
  80              	.L4:
 893:lvgl/src/lv_widgets/lv_cpicker.c ****             break;
  81              		.loc 1 893 13 is_stmt 1 view .LVU17
 893:lvgl/src/lv_widgets/lv_cpicker.c ****             break;
  82              		.loc 1 893 25 is_stmt 0 view .LVU18
  83 0028 04F12800 		add	r0, r4, #40
  84              	.LVL6:
 894:lvgl/src/lv_widgets/lv_cpicker.c ****         case LV_CPICKER_PART_KNOB:
  85              		.loc 1 894 13 is_stmt 1 view .LVU19
  86 002c FBE7     		b	.L1
  87              	.LVL7:
  88              	.L5:
 896:lvgl/src/lv_widgets/lv_cpicker.c ****             break;
  89              		.loc 1 896 13 view .LVU20
 896:lvgl/src/lv_widgets/lv_cpicker.c ****             break;
  90              		.loc 1 896 25 is_stmt 0 view .LVU21
  91 002e 0430     		adds	r0, r0, #4
  92              	.LVL8:
 897:lvgl/src/lv_widgets/lv_cpicker.c ****         default:
  93              		.loc 1 897 13 is_stmt 1 view .LVU22
 902:lvgl/src/lv_widgets/lv_cpicker.c **** }
  94              		.loc 1 902 5 view .LVU23
 902:lvgl/src/lv_widgets/lv_cpicker.c **** }
  95              		.loc 1 902 12 is_stmt 0 view .LVU24
  96 0030 F9E7     		b	.L1
  97              	.L9:
  98 0032 00BF     		.align	2
  99              	.L8:
 100 0034 00000000 		.word	.LC1
 101              		.cfi_endproc
 102              	.LFE483:
 104              		.section	.text.get_angle,"ax",%progbits
 105              		.align	1
 106              		.syntax unified
 107              		.thumb
 108              		.thumb_func
 109              		.fpu fpv4-sp-d16
 111              	get_angle:
 112              	.LVL9:
 113              	.LFB489:
 904:lvgl/src/lv_widgets/lv_cpicker.c **** 
 905:lvgl/src/lv_widgets/lv_cpicker.c **** static bool lv_cpicker_hit(lv_obj_t * cpicker, const lv_point_t * p)
 906:lvgl/src/lv_widgets/lv_cpicker.c **** {
 907:lvgl/src/lv_widgets/lv_cpicker.c ****     bool is_point_on_coords = lv_obj_is_point_on_coords(cpicker, p);
 908:lvgl/src/lv_widgets/lv_cpicker.c ****     if(!is_point_on_coords)
ARM GAS  D:\Temp\ccfvNLhk.s 			page 19


 909:lvgl/src/lv_widgets/lv_cpicker.c ****         return false;
 910:lvgl/src/lv_widgets/lv_cpicker.c **** 
 911:lvgl/src/lv_widgets/lv_cpicker.c ****     lv_cpicker_ext_t * ext = (lv_cpicker_ext_t *)lv_obj_get_ext_attr(cpicker);
 912:lvgl/src/lv_widgets/lv_cpicker.c ****     if(ext->type == LV_CPICKER_TYPE_RECT)
 913:lvgl/src/lv_widgets/lv_cpicker.c ****         return true;
 914:lvgl/src/lv_widgets/lv_cpicker.c **** 
 915:lvgl/src/lv_widgets/lv_cpicker.c ****     /*Valid clicks can be only in the circle*/
 916:lvgl/src/lv_widgets/lv_cpicker.c ****     if(_lv_area_is_point_on(&cpicker->coords, p, LV_RADIUS_CIRCLE)) return true;
 917:lvgl/src/lv_widgets/lv_cpicker.c ****     else return false;
 918:lvgl/src/lv_widgets/lv_cpicker.c **** }
 919:lvgl/src/lv_widgets/lv_cpicker.c **** 
 920:lvgl/src/lv_widgets/lv_cpicker.c **** static void next_color_mode(lv_obj_t * cpicker)
 921:lvgl/src/lv_widgets/lv_cpicker.c **** {
 922:lvgl/src/lv_widgets/lv_cpicker.c ****     lv_cpicker_ext_t * ext = lv_obj_get_ext_attr(cpicker);
 923:lvgl/src/lv_widgets/lv_cpicker.c ****     ext->color_mode = (ext->color_mode + 1) % 3;
 924:lvgl/src/lv_widgets/lv_cpicker.c ****     refr_knob_pos(cpicker);
 925:lvgl/src/lv_widgets/lv_cpicker.c ****     lv_obj_invalidate(cpicker);
 926:lvgl/src/lv_widgets/lv_cpicker.c **** }
 927:lvgl/src/lv_widgets/lv_cpicker.c **** 
 928:lvgl/src/lv_widgets/lv_cpicker.c **** static void refr_knob_pos(lv_obj_t * cpicker)
 929:lvgl/src/lv_widgets/lv_cpicker.c **** {
 930:lvgl/src/lv_widgets/lv_cpicker.c ****     invalidate_knob(cpicker);
 931:lvgl/src/lv_widgets/lv_cpicker.c **** 
 932:lvgl/src/lv_widgets/lv_cpicker.c ****     lv_cpicker_ext_t * ext = lv_obj_get_ext_attr(cpicker);
 933:lvgl/src/lv_widgets/lv_cpicker.c ****     lv_coord_t w = lv_obj_get_width(cpicker);
 934:lvgl/src/lv_widgets/lv_cpicker.c ****     lv_coord_t h = lv_obj_get_height(cpicker);
 935:lvgl/src/lv_widgets/lv_cpicker.c **** 
 936:lvgl/src/lv_widgets/lv_cpicker.c ****     if(ext->type == LV_CPICKER_TYPE_RECT) {
 937:lvgl/src/lv_widgets/lv_cpicker.c ****         lv_coord_t ind_pos = 0;
 938:lvgl/src/lv_widgets/lv_cpicker.c ****         switch(ext->color_mode) {
 939:lvgl/src/lv_widgets/lv_cpicker.c ****             case LV_CPICKER_COLOR_MODE_HUE:
 940:lvgl/src/lv_widgets/lv_cpicker.c ****                 ind_pos += (ext->hsv.h * w) / 360;
 941:lvgl/src/lv_widgets/lv_cpicker.c ****                 break;
 942:lvgl/src/lv_widgets/lv_cpicker.c ****             case LV_CPICKER_COLOR_MODE_SATURATION:
 943:lvgl/src/lv_widgets/lv_cpicker.c ****                 ind_pos += (ext->hsv.s * w) / 100;
 944:lvgl/src/lv_widgets/lv_cpicker.c ****                 break;
 945:lvgl/src/lv_widgets/lv_cpicker.c ****             case LV_CPICKER_COLOR_MODE_VALUE:
 946:lvgl/src/lv_widgets/lv_cpicker.c ****                 ind_pos += (ext->hsv.v * w) / 100;
 947:lvgl/src/lv_widgets/lv_cpicker.c ****                 break;
 948:lvgl/src/lv_widgets/lv_cpicker.c ****         }
 949:lvgl/src/lv_widgets/lv_cpicker.c **** 
 950:lvgl/src/lv_widgets/lv_cpicker.c ****         ext->knob.pos.x = ind_pos;
 951:lvgl/src/lv_widgets/lv_cpicker.c ****         ext->knob.pos.y = h / 2;
 952:lvgl/src/lv_widgets/lv_cpicker.c ****     }
 953:lvgl/src/lv_widgets/lv_cpicker.c ****     else if(ext->type == LV_CPICKER_TYPE_DISC) {
 954:lvgl/src/lv_widgets/lv_cpicker.c ****         lv_style_int_t scale_w = lv_obj_get_style_scale_width(cpicker, LV_CPICKER_PART_MAIN);
 955:lvgl/src/lv_widgets/lv_cpicker.c ****         lv_coord_t r = (w - scale_w) / 2;
 956:lvgl/src/lv_widgets/lv_cpicker.c ****         uint16_t angle = get_angle(cpicker);
 957:lvgl/src/lv_widgets/lv_cpicker.c ****         ext->knob.pos.x = (((int32_t)r * _lv_trigo_sin(angle)) >> LV_TRIGO_SHIFT);
 958:lvgl/src/lv_widgets/lv_cpicker.c ****         ext->knob.pos.y = (((int32_t)r * _lv_trigo_sin(angle + 90)) >> LV_TRIGO_SHIFT);
 959:lvgl/src/lv_widgets/lv_cpicker.c ****         ext->knob.pos.x = ext->knob.pos.x + w / 2;
 960:lvgl/src/lv_widgets/lv_cpicker.c ****         ext->knob.pos.y = ext->knob.pos.y + h / 2;
 961:lvgl/src/lv_widgets/lv_cpicker.c ****     }
 962:lvgl/src/lv_widgets/lv_cpicker.c **** 
 963:lvgl/src/lv_widgets/lv_cpicker.c ****     invalidate_knob(cpicker);
 964:lvgl/src/lv_widgets/lv_cpicker.c **** }
 965:lvgl/src/lv_widgets/lv_cpicker.c **** 
ARM GAS  D:\Temp\ccfvNLhk.s 			page 20


 966:lvgl/src/lv_widgets/lv_cpicker.c **** static lv_res_t double_click_reset(lv_obj_t * cpicker)
 967:lvgl/src/lv_widgets/lv_cpicker.c **** {
 968:lvgl/src/lv_widgets/lv_cpicker.c ****     lv_cpicker_ext_t * ext = lv_obj_get_ext_attr(cpicker);
 969:lvgl/src/lv_widgets/lv_cpicker.c ****     lv_indev_t * indev = lv_indev_get_act();
 970:lvgl/src/lv_widgets/lv_cpicker.c ****     /*Double clicked? Use long press time as double click time out*/
 971:lvgl/src/lv_widgets/lv_cpicker.c ****     if(lv_tick_elaps(ext->last_click_time) < indev->driver.long_press_time) {
 972:lvgl/src/lv_widgets/lv_cpicker.c ****         lv_color_hsv_t hsv_cur;
 973:lvgl/src/lv_widgets/lv_cpicker.c ****         hsv_cur = ext->hsv;
 974:lvgl/src/lv_widgets/lv_cpicker.c **** 
 975:lvgl/src/lv_widgets/lv_cpicker.c ****         switch(ext->color_mode) {
 976:lvgl/src/lv_widgets/lv_cpicker.c ****             case LV_CPICKER_COLOR_MODE_HUE:
 977:lvgl/src/lv_widgets/lv_cpicker.c ****                 hsv_cur.h = LV_CPICKER_DEF_HUE;
 978:lvgl/src/lv_widgets/lv_cpicker.c ****                 break;
 979:lvgl/src/lv_widgets/lv_cpicker.c ****             case LV_CPICKER_COLOR_MODE_SATURATION:
 980:lvgl/src/lv_widgets/lv_cpicker.c ****                 hsv_cur.s = LV_CPICKER_DEF_SATURATION;
 981:lvgl/src/lv_widgets/lv_cpicker.c ****                 break;
 982:lvgl/src/lv_widgets/lv_cpicker.c ****             case LV_CPICKER_COLOR_MODE_VALUE:
 983:lvgl/src/lv_widgets/lv_cpicker.c ****                 hsv_cur.v = LV_CPICKER_DEF_VALUE;
 984:lvgl/src/lv_widgets/lv_cpicker.c ****                 break;
 985:lvgl/src/lv_widgets/lv_cpicker.c ****         }
 986:lvgl/src/lv_widgets/lv_cpicker.c **** 
 987:lvgl/src/lv_widgets/lv_cpicker.c ****         lv_indev_wait_release(indev);
 988:lvgl/src/lv_widgets/lv_cpicker.c **** 
 989:lvgl/src/lv_widgets/lv_cpicker.c ****         if(lv_cpicker_set_hsv(cpicker, hsv_cur)) {
 990:lvgl/src/lv_widgets/lv_cpicker.c ****             lv_res_t res = lv_event_send(cpicker, LV_EVENT_VALUE_CHANGED, NULL);
 991:lvgl/src/lv_widgets/lv_cpicker.c ****             if(res != LV_RES_OK) return res;
 992:lvgl/src/lv_widgets/lv_cpicker.c ****         }
 993:lvgl/src/lv_widgets/lv_cpicker.c ****     }
 994:lvgl/src/lv_widgets/lv_cpicker.c ****     ext->last_click_time = lv_tick_get();
 995:lvgl/src/lv_widgets/lv_cpicker.c **** 
 996:lvgl/src/lv_widgets/lv_cpicker.c ****     return LV_RES_OK;
 997:lvgl/src/lv_widgets/lv_cpicker.c **** }
 998:lvgl/src/lv_widgets/lv_cpicker.c **** 
 999:lvgl/src/lv_widgets/lv_cpicker.c **** static lv_color_t angle_to_mode_color(lv_obj_t * cpicker, uint16_t angle)
1000:lvgl/src/lv_widgets/lv_cpicker.c **** {
1001:lvgl/src/lv_widgets/lv_cpicker.c ****     lv_cpicker_ext_t * ext = lv_obj_get_ext_attr(cpicker);
1002:lvgl/src/lv_widgets/lv_cpicker.c ****     lv_color_t color;
1003:lvgl/src/lv_widgets/lv_cpicker.c ****     switch(ext->color_mode) {
1004:lvgl/src/lv_widgets/lv_cpicker.c ****         default:
1005:lvgl/src/lv_widgets/lv_cpicker.c ****         case LV_CPICKER_COLOR_MODE_HUE:
1006:lvgl/src/lv_widgets/lv_cpicker.c ****             color = lv_color_hsv_to_rgb(angle % 360, ext->hsv.s, ext->hsv.v);
1007:lvgl/src/lv_widgets/lv_cpicker.c ****             break;
1008:lvgl/src/lv_widgets/lv_cpicker.c ****         case LV_CPICKER_COLOR_MODE_SATURATION:
1009:lvgl/src/lv_widgets/lv_cpicker.c ****             color = lv_color_hsv_to_rgb(ext->hsv.h, ((angle % 360) * 100) / 360, ext->hsv.v);
1010:lvgl/src/lv_widgets/lv_cpicker.c ****             break;
1011:lvgl/src/lv_widgets/lv_cpicker.c ****         case LV_CPICKER_COLOR_MODE_VALUE:
1012:lvgl/src/lv_widgets/lv_cpicker.c ****             color = lv_color_hsv_to_rgb(ext->hsv.h, ext->hsv.s, ((angle % 360) * 100) / 360);
1013:lvgl/src/lv_widgets/lv_cpicker.c ****             break;
1014:lvgl/src/lv_widgets/lv_cpicker.c ****     }
1015:lvgl/src/lv_widgets/lv_cpicker.c ****     return color;
1016:lvgl/src/lv_widgets/lv_cpicker.c **** }
1017:lvgl/src/lv_widgets/lv_cpicker.c **** 
1018:lvgl/src/lv_widgets/lv_cpicker.c **** static uint16_t get_angle(lv_obj_t * cpicker)
1019:lvgl/src/lv_widgets/lv_cpicker.c **** {
 114              		.loc 1 1019 1 is_stmt 1 view -0
 115              		.cfi_startproc
 116              		@ args = 0, pretend = 0, frame = 0
ARM GAS  D:\Temp\ccfvNLhk.s 			page 21


 117              		@ frame_needed = 0, uses_anonymous_args = 0
 118              		.loc 1 1019 1 is_stmt 0 view .LVU26
 119 0000 08B5     		push	{r3, lr}
 120              	.LCFI1:
 121              		.cfi_def_cfa_offset 8
 122              		.cfi_offset 3, -8
 123              		.cfi_offset 14, -4
1020:lvgl/src/lv_widgets/lv_cpicker.c ****     lv_cpicker_ext_t * ext = lv_obj_get_ext_attr(cpicker);
 124              		.loc 1 1020 5 is_stmt 1 view .LVU27
 125              		.loc 1 1020 30 is_stmt 0 view .LVU28
 126 0002 FFF7FEFF 		bl	lv_obj_get_ext_attr
 127              	.LVL10:
1021:lvgl/src/lv_widgets/lv_cpicker.c ****     uint16_t angle;
 128              		.loc 1 1021 5 is_stmt 1 view .LVU29
1022:lvgl/src/lv_widgets/lv_cpicker.c ****     switch(ext->color_mode) {
 129              		.loc 1 1022 5 view .LVU30
 130              		.loc 1 1022 15 is_stmt 0 view .LVU31
 131 0006 90F82030 		ldrb	r3, [r0, #32]	@ zero_extendqisi2
 132 000a 03F00303 		and	r3, r3, #3
 133              		.loc 1 1022 5 view .LVU32
 134 000e 012B     		cmp	r3, #1
 135 0010 03D0     		beq	.L11
 136 0012 022B     		cmp	r3, #2
 137 0014 0BD0     		beq	.L12
1023:lvgl/src/lv_widgets/lv_cpicker.c ****         default:
1024:lvgl/src/lv_widgets/lv_cpicker.c ****         case LV_CPICKER_COLOR_MODE_HUE:
1025:lvgl/src/lv_widgets/lv_cpicker.c ****             angle = ext->hsv.h;
 138              		.loc 1 1025 13 is_stmt 1 view .LVU33
 139              		.loc 1 1025 19 is_stmt 0 view .LVU34
 140 0016 0088     		ldrh	r0, [r0]
 141              	.LVL11:
1026:lvgl/src/lv_widgets/lv_cpicker.c ****             break;
 142              		.loc 1 1026 13 is_stmt 1 view .LVU35
 143              	.L13:
1027:lvgl/src/lv_widgets/lv_cpicker.c ****         case LV_CPICKER_COLOR_MODE_SATURATION:
1028:lvgl/src/lv_widgets/lv_cpicker.c ****             angle = (ext->hsv.s * 360) / 100;
1029:lvgl/src/lv_widgets/lv_cpicker.c ****             break;
1030:lvgl/src/lv_widgets/lv_cpicker.c ****         case LV_CPICKER_COLOR_MODE_VALUE:
1031:lvgl/src/lv_widgets/lv_cpicker.c ****             angle = (ext->hsv.v * 360) / 100 ;
1032:lvgl/src/lv_widgets/lv_cpicker.c ****             break;
1033:lvgl/src/lv_widgets/lv_cpicker.c ****     }
1034:lvgl/src/lv_widgets/lv_cpicker.c ****     return angle;
 144              		.loc 1 1034 5 view .LVU36
1035:lvgl/src/lv_widgets/lv_cpicker.c **** }
 145              		.loc 1 1035 1 is_stmt 0 view .LVU37
 146 0018 08BD     		pop	{r3, pc}
 147              	.LVL12:
 148              	.L11:
1028:lvgl/src/lv_widgets/lv_cpicker.c ****             break;
 149              		.loc 1 1028 13 is_stmt 1 view .LVU38
1028:lvgl/src/lv_widgets/lv_cpicker.c ****             break;
 150              		.loc 1 1028 30 is_stmt 0 view .LVU39
 151 001a 8378     		ldrb	r3, [r0, #2]	@ zero_extendqisi2
1028:lvgl/src/lv_widgets/lv_cpicker.c ****             break;
 152              		.loc 1 1028 33 view .LVU40
 153 001c 4FF4B470 		mov	r0, #360
 154              	.LVL13:
ARM GAS  D:\Temp\ccfvNLhk.s 			page 22


1028:lvgl/src/lv_widgets/lv_cpicker.c ****             break;
 155              		.loc 1 1028 33 view .LVU41
 156 0020 00FB03F0 		mul	r0, r0, r3
1028:lvgl/src/lv_widgets/lv_cpicker.c ****             break;
 157              		.loc 1 1028 40 view .LVU42
 158 0024 074B     		ldr	r3, .L15
 159 0026 83FB0030 		smull	r3, r0, r3, r0
1028:lvgl/src/lv_widgets/lv_cpicker.c ****             break;
 160              		.loc 1 1028 19 view .LVU43
 161 002a 4009     		lsrs	r0, r0, #5
 162              	.LVL14:
1029:lvgl/src/lv_widgets/lv_cpicker.c ****         case LV_CPICKER_COLOR_MODE_VALUE:
 163              		.loc 1 1029 13 is_stmt 1 view .LVU44
 164 002c F4E7     		b	.L13
 165              	.LVL15:
 166              	.L12:
1031:lvgl/src/lv_widgets/lv_cpicker.c ****             break;
 167              		.loc 1 1031 13 view .LVU45
1031:lvgl/src/lv_widgets/lv_cpicker.c ****             break;
 168              		.loc 1 1031 30 is_stmt 0 view .LVU46
 169 002e C378     		ldrb	r3, [r0, #3]	@ zero_extendqisi2
1031:lvgl/src/lv_widgets/lv_cpicker.c ****             break;
 170              		.loc 1 1031 33 view .LVU47
 171 0030 4FF4B470 		mov	r0, #360
 172              	.LVL16:
1031:lvgl/src/lv_widgets/lv_cpicker.c ****             break;
 173              		.loc 1 1031 33 view .LVU48
 174 0034 00FB03F0 		mul	r0, r0, r3
1031:lvgl/src/lv_widgets/lv_cpicker.c ****             break;
 175              		.loc 1 1031 40 view .LVU49
 176 0038 024B     		ldr	r3, .L15
 177 003a 83FB0030 		smull	r3, r0, r3, r0
1031:lvgl/src/lv_widgets/lv_cpicker.c ****             break;
 178              		.loc 1 1031 19 view .LVU50
 179 003e 4009     		lsrs	r0, r0, #5
 180              	.LVL17:
1032:lvgl/src/lv_widgets/lv_cpicker.c ****     }
 181              		.loc 1 1032 13 is_stmt 1 view .LVU51
 182 0040 EAE7     		b	.L13
 183              	.L16:
 184 0042 00BF     		.align	2
 185              	.L15:
 186 0044 1F85EB51 		.word	1374389535
 187              		.cfi_endproc
 188              	.LFE489:
 190              		.section	.text.get_knob_area,"ax",%progbits
 191              		.align	1
 192              		.syntax unified
 193              		.thumb
 194              		.thumb_func
 195              		.fpu fpv4-sp-d16
 197              	get_knob_area:
 198              	.LVL18:
 199              	.LFB481:
 634:lvgl/src/lv_widgets/lv_cpicker.c ****     lv_cpicker_ext_t * ext = lv_obj_get_ext_attr(cpicker);
 200              		.loc 1 634 1 view -0
 201              		.cfi_startproc
ARM GAS  D:\Temp\ccfvNLhk.s 			page 23


 202              		@ args = 0, pretend = 0, frame = 0
 203              		@ frame_needed = 0, uses_anonymous_args = 0
 634:lvgl/src/lv_widgets/lv_cpicker.c ****     lv_cpicker_ext_t * ext = lv_obj_get_ext_attr(cpicker);
 204              		.loc 1 634 1 is_stmt 0 view .LVU53
 205 0000 2DE9F047 		push	{r4, r5, r6, r7, r8, r9, r10, lr}
 206              	.LCFI2:
 207              		.cfi_def_cfa_offset 32
 208              		.cfi_offset 4, -32
 209              		.cfi_offset 5, -28
 210              		.cfi_offset 6, -24
 211              		.cfi_offset 7, -20
 212              		.cfi_offset 8, -16
 213              		.cfi_offset 9, -12
 214              		.cfi_offset 10, -8
 215              		.cfi_offset 14, -4
 216 0004 0546     		mov	r5, r0
 217 0006 8846     		mov	r8, r1
 635:lvgl/src/lv_widgets/lv_cpicker.c **** 
 218              		.loc 1 635 5 is_stmt 1 view .LVU54
 635:lvgl/src/lv_widgets/lv_cpicker.c **** 
 219              		.loc 1 635 30 is_stmt 0 view .LVU55
 220 0008 0846     		mov	r0, r1
 221              	.LVL19:
 635:lvgl/src/lv_widgets/lv_cpicker.c **** 
 222              		.loc 1 635 30 view .LVU56
 223 000a FFF7FEFF 		bl	lv_obj_get_ext_attr
 224              	.LVL20:
 635:lvgl/src/lv_widgets/lv_cpicker.c **** 
 225              		.loc 1 635 30 view .LVU57
 226 000e 8146     		mov	r9, r0
 227              	.LVL21:
 638:lvgl/src/lv_widgets/lv_cpicker.c ****     if(ext->type == LV_CPICKER_TYPE_DISC) {
 228              		.loc 1 638 5 is_stmt 1 view .LVU58
 639:lvgl/src/lv_widgets/lv_cpicker.c ****         r = lv_obj_get_style_scale_width(cpicker, LV_CPICKER_PART_MAIN) / 2;
 229              		.loc 1 639 5 view .LVU59
 639:lvgl/src/lv_widgets/lv_cpicker.c ****         r = lv_obj_get_style_scale_width(cpicker, LV_CPICKER_PART_MAIN) / 2;
 230              		.loc 1 639 18 is_stmt 0 view .LVU60
 231 0010 90F82030 		ldrb	r3, [r0, #32]	@ zero_extendqisi2
 639:lvgl/src/lv_widgets/lv_cpicker.c ****         r = lv_obj_get_style_scale_width(cpicker, LV_CPICKER_PART_MAIN) / 2;
 232              		.loc 1 639 7 view .LVU61
 233 0014 13F0080F 		tst	r3, #8
 234 0018 3FD0     		beq	.L18
 640:lvgl/src/lv_widgets/lv_cpicker.c ****     }
 235              		.loc 1 640 9 is_stmt 1 view .LVU62
 236              	.LVL22:
 237              	.LBB64:
 238              	.LBI64:
 239              		.file 2 "lvgl/src/lv_widgets/../lv_core/lv_obj_style_dec.h"
   1:lvgl/src/lv_widgets/../lv_core/lv_obj_style_dec.h **** 
   2:lvgl/src/lv_widgets/../lv_core/lv_obj_style_dec.h **** /**
   3:lvgl/src/lv_widgets/../lv_core/lv_obj_style_dec.h ****  * @file lv_obj_style_dec.h
   4:lvgl/src/lv_widgets/../lv_core/lv_obj_style_dec.h ****  *
   5:lvgl/src/lv_widgets/../lv_core/lv_obj_style_dec.h ****  */
   6:lvgl/src/lv_widgets/../lv_core/lv_obj_style_dec.h **** 
   7:lvgl/src/lv_widgets/../lv_core/lv_obj_style_dec.h **** #ifndef LV_OBJ_STYLE_DEC_H
   8:lvgl/src/lv_widgets/../lv_core/lv_obj_style_dec.h **** #define LV_OBJ_STYLE_DEC_H
   9:lvgl/src/lv_widgets/../lv_core/lv_obj_style_dec.h **** 
ARM GAS  D:\Temp\ccfvNLhk.s 			page 24


  10:lvgl/src/lv_widgets/../lv_core/lv_obj_style_dec.h **** #ifdef __cplusplus
  11:lvgl/src/lv_widgets/../lv_core/lv_obj_style_dec.h **** extern "C" {
  12:lvgl/src/lv_widgets/../lv_core/lv_obj_style_dec.h **** #endif
  13:lvgl/src/lv_widgets/../lv_core/lv_obj_style_dec.h **** 
  14:lvgl/src/lv_widgets/../lv_core/lv_obj_style_dec.h **** /*********************
  15:lvgl/src/lv_widgets/../lv_core/lv_obj_style_dec.h ****  *      DEFINES
  16:lvgl/src/lv_widgets/../lv_core/lv_obj_style_dec.h ****  *********************/
  17:lvgl/src/lv_widgets/../lv_core/lv_obj_style_dec.h **** 
  18:lvgl/src/lv_widgets/../lv_core/lv_obj_style_dec.h **** /**
  19:lvgl/src/lv_widgets/../lv_core/lv_obj_style_dec.h ****  * Macro to declare the most important style set/get API functions.
  20:lvgl/src/lv_widgets/../lv_core/lv_obj_style_dec.h ****  *
  21:lvgl/src/lv_widgets/../lv_core/lv_obj_style_dec.h ****  * Get the value of a style property from an object in the object's current state
  22:lvgl/src/lv_widgets/../lv_core/lv_obj_style_dec.h ****  * -----------------------------------------------------------------------------
  23:lvgl/src/lv_widgets/../lv_core/lv_obj_style_dec.h ****  *  - Get the value of a style property from an object in the object's current state.
  24:lvgl/src/lv_widgets/../lv_core/lv_obj_style_dec.h ****  *  - Transition animation is taken into account.
  25:lvgl/src/lv_widgets/../lv_core/lv_obj_style_dec.h ****  *  - If the property is not set in the object's styles check the parent(s) if the property can be 
  26:lvgl/src/lv_widgets/../lv_core/lv_obj_style_dec.h ****  *  - If still not found return a default value.
  27:lvgl/src/lv_widgets/../lv_core/lv_obj_style_dec.h ****  *  - For example:
  28:lvgl/src/lv_widgets/../lv_core/lv_obj_style_dec.h ****  *      `lv_style_int_t w = lv_obj_get_style_border_width(btn1, LV_BTN_PART_MAIN);`
  29:lvgl/src/lv_widgets/../lv_core/lv_obj_style_dec.h ****  *
  30:lvgl/src/lv_widgets/../lv_core/lv_obj_style_dec.h ****  * Set a local style property for an object in a given state
  31:lvgl/src/lv_widgets/../lv_core/lv_obj_style_dec.h ****  * ---------------------------------------------------------
  32:lvgl/src/lv_widgets/../lv_core/lv_obj_style_dec.h ****  *  - For example:
  33:lvgl/src/lv_widgets/../lv_core/lv_obj_style_dec.h ****  *      `lv_obj_set_style_local_border_width(btn1, LV_BTN_PART_MAIN, LV_STATE_PRESSED, 2);`
  34:lvgl/src/lv_widgets/../lv_core/lv_obj_style_dec.h ****  *
  35:lvgl/src/lv_widgets/../lv_core/lv_obj_style_dec.h ****  * Get a local style property's value of an object in a given state
  36:lvgl/src/lv_widgets/../lv_core/lv_obj_style_dec.h ****  * ----------------------------------------------------------------
  37:lvgl/src/lv_widgets/../lv_core/lv_obj_style_dec.h ****  *  - Return the best matching property in the given state.
  38:lvgl/src/lv_widgets/../lv_core/lv_obj_style_dec.h ****  *  - E.g. if `state` parameter is LV_STATE_PRESSED | LV_STATE_CHECKED` but the property defined on
  39:lvgl/src/lv_widgets/../lv_core/lv_obj_style_dec.h ****  *    `LV_STATE_PRESSED` and `LV_STATE_DEFAULT` the best matching state is `LV_STATE_PRESSED`
  40:lvgl/src/lv_widgets/../lv_core/lv_obj_style_dec.h ****  *    (because it has higher precedence) and it will be returned.
  41:lvgl/src/lv_widgets/../lv_core/lv_obj_style_dec.h ****  *  - If the property is not found even in `LV_STATE_DEFAULT` `-1` is returned.
  42:lvgl/src/lv_widgets/../lv_core/lv_obj_style_dec.h ****  *  - For example:
  43:lvgl/src/lv_widgets/../lv_core/lv_obj_style_dec.h ****  *      `//Type of result should be lv_style_int_t/lv_opa_t/lv_color_t/const void * according to th
  44:lvgl/src/lv_widgets/../lv_core/lv_obj_style_dec.h ****  *      `lv_style_int_t result;`
  45:lvgl/src/lv_widgets/../lv_core/lv_obj_style_dec.h ****  *      `lv_obj_get_style_local_border_width(btn1, LV_BTN_PART_MAIN, LV_STATE_PRESSED, &result);`
  46:lvgl/src/lv_widgets/../lv_core/lv_obj_style_dec.h ****  *      `if(weight > 0) ...the property is found and loaded into result...`
  47:lvgl/src/lv_widgets/../lv_core/lv_obj_style_dec.h ****  *
  48:lvgl/src/lv_widgets/../lv_core/lv_obj_style_dec.h ****  * Get the value from a style in a given state
  49:lvgl/src/lv_widgets/../lv_core/lv_obj_style_dec.h ****  * -------------------------------------------
  50:lvgl/src/lv_widgets/../lv_core/lv_obj_style_dec.h ****  * - The same rules applies to the return value then for "lv_obj_get_style_local_...()" above
  51:lvgl/src/lv_widgets/../lv_core/lv_obj_style_dec.h ****  * - For example
  52:lvgl/src/lv_widgets/../lv_core/lv_obj_style_dec.h ****  *      `int16_t weight = lv_style_get_border_width(&style1, LV_STATE_PRESSED, &result);`
  53:lvgl/src/lv_widgets/../lv_core/lv_obj_style_dec.h ****  *      `if(weight > 0) ...the property is found and loaded into result...`
  54:lvgl/src/lv_widgets/../lv_core/lv_obj_style_dec.h **** 
  55:lvgl/src/lv_widgets/../lv_core/lv_obj_style_dec.h ****  * Set a value in a style in a given state
  56:lvgl/src/lv_widgets/../lv_core/lv_obj_style_dec.h ****  * ---------------------------------------
  57:lvgl/src/lv_widgets/../lv_core/lv_obj_style_dec.h ****  * - For example
  58:lvgl/src/lv_widgets/../lv_core/lv_obj_style_dec.h ****  *      `lv_style_set_border_width(&style1, LV_STATE_PRESSED, 2);`
  59:lvgl/src/lv_widgets/../lv_core/lv_obj_style_dec.h ****  */
  60:lvgl/src/lv_widgets/../lv_core/lv_obj_style_dec.h **** 
  61:lvgl/src/lv_widgets/../lv_core/lv_obj_style_dec.h **** #define _OBJ_GET_STYLE_scalar(prop_name, func_name, value_type, style_type)                        
  62:lvgl/src/lv_widgets/../lv_core/lv_obj_style_dec.h ****     static inline value_type lv_obj_get_style_##func_name (const lv_obj_t * obj, uint8_t part)     
  63:lvgl/src/lv_widgets/../lv_core/lv_obj_style_dec.h ****     {                                                                                              
  64:lvgl/src/lv_widgets/../lv_core/lv_obj_style_dec.h ****         return (value_type) _lv_obj_get_style##style_type (obj, part, LV_STYLE_##prop_name);       
  65:lvgl/src/lv_widgets/../lv_core/lv_obj_style_dec.h ****     }
  66:lvgl/src/lv_widgets/../lv_core/lv_obj_style_dec.h **** 
ARM GAS  D:\Temp\ccfvNLhk.s 			page 25


  67:lvgl/src/lv_widgets/../lv_core/lv_obj_style_dec.h **** #define _OBJ_GET_STYLE_nonscalar(prop_name, func_name, value_type, style_type)                     
  68:lvgl/src/lv_widgets/../lv_core/lv_obj_style_dec.h ****     static inline value_type lv_obj_get_style_##func_name (const lv_obj_t * obj, uint8_t part)     
  69:lvgl/src/lv_widgets/../lv_core/lv_obj_style_dec.h ****     {                                                                                              
  70:lvgl/src/lv_widgets/../lv_core/lv_obj_style_dec.h ****         return _lv_obj_get_style##style_type (obj, part, LV_STYLE_##prop_name);                    
  71:lvgl/src/lv_widgets/../lv_core/lv_obj_style_dec.h ****     }
  72:lvgl/src/lv_widgets/../lv_core/lv_obj_style_dec.h **** 
  73:lvgl/src/lv_widgets/../lv_core/lv_obj_style_dec.h **** #define _OBJ_SET_STYLE_LOCAL_scalar(prop_name, func_name, value_type, style_type)                  
  74:lvgl/src/lv_widgets/../lv_core/lv_obj_style_dec.h ****     static inline void lv_obj_set_style_local_##func_name (lv_obj_t * obj, uint8_t part, lv_state_t
  75:lvgl/src/lv_widgets/../lv_core/lv_obj_style_dec.h ****     {                                                                                              
  76:lvgl/src/lv_widgets/../lv_core/lv_obj_style_dec.h ****         _lv_obj_set_style_local##style_type (obj, part, LV_STYLE_##prop_name | (state << LV_STYLE_S
  77:lvgl/src/lv_widgets/../lv_core/lv_obj_style_dec.h ****     }
  78:lvgl/src/lv_widgets/../lv_core/lv_obj_style_dec.h **** 
  79:lvgl/src/lv_widgets/../lv_core/lv_obj_style_dec.h **** #define _OBJ_SET_STYLE_LOCAL_nonscalar(prop_name, func_name, value_type, style_type)               
  80:lvgl/src/lv_widgets/../lv_core/lv_obj_style_dec.h ****     static inline void lv_obj_set_style_local_##func_name (lv_obj_t * obj, uint8_t part, lv_state_t
  81:lvgl/src/lv_widgets/../lv_core/lv_obj_style_dec.h ****     {                                                                                              
  82:lvgl/src/lv_widgets/../lv_core/lv_obj_style_dec.h ****         _lv_obj_set_style_local##style_type (obj, part, LV_STYLE_##prop_name | (state << LV_STYLE_S
  83:lvgl/src/lv_widgets/../lv_core/lv_obj_style_dec.h ****     }
  84:lvgl/src/lv_widgets/../lv_core/lv_obj_style_dec.h **** 
  85:lvgl/src/lv_widgets/../lv_core/lv_obj_style_dec.h **** #define _OBJ_SET_STYLE_scalar(prop_name, func_name, value_type, style_type)                        
  86:lvgl/src/lv_widgets/../lv_core/lv_obj_style_dec.h ****     static inline void lv_style_set_##func_name (lv_style_t * style, lv_state_t state, value_type v
  87:lvgl/src/lv_widgets/../lv_core/lv_obj_style_dec.h ****     {                                                                                              
  88:lvgl/src/lv_widgets/../lv_core/lv_obj_style_dec.h ****         _lv_style_set##style_type (style, LV_STYLE_##prop_name | (state << LV_STYLE_STATE_POS), val
  89:lvgl/src/lv_widgets/../lv_core/lv_obj_style_dec.h ****     }
  90:lvgl/src/lv_widgets/../lv_core/lv_obj_style_dec.h **** 
  91:lvgl/src/lv_widgets/../lv_core/lv_obj_style_dec.h **** #define _OBJ_SET_STYLE_nonscalar(prop_name, func_name, value_type, style_type)                     
  92:lvgl/src/lv_widgets/../lv_core/lv_obj_style_dec.h ****     static inline void lv_style_set_##func_name (lv_style_t * style, lv_state_t state, value_type v
  93:lvgl/src/lv_widgets/../lv_core/lv_obj_style_dec.h ****     {                                                                                              
  94:lvgl/src/lv_widgets/../lv_core/lv_obj_style_dec.h ****         _lv_style_set##style_type (style, LV_STYLE_##prop_name | (state << LV_STYLE_STATE_POS), val
  95:lvgl/src/lv_widgets/../lv_core/lv_obj_style_dec.h ****     }
  96:lvgl/src/lv_widgets/../lv_core/lv_obj_style_dec.h **** 
  97:lvgl/src/lv_widgets/../lv_core/lv_obj_style_dec.h **** #define _LV_OBJ_STYLE_SET_GET_DECLARE(prop_name, func_name, value_type, style_type, scalar)        
  98:lvgl/src/lv_widgets/../lv_core/lv_obj_style_dec.h ****     _OBJ_GET_STYLE_##scalar(prop_name, func_name, value_type, style_type)                          
  99:lvgl/src/lv_widgets/../lv_core/lv_obj_style_dec.h ****     _OBJ_SET_STYLE_LOCAL_##scalar(prop_name, func_name, value_type, style_type)                    
 100:lvgl/src/lv_widgets/../lv_core/lv_obj_style_dec.h ****     _OBJ_SET_STYLE_##scalar(prop_name, func_name, value_type, style_type)
 101:lvgl/src/lv_widgets/../lv_core/lv_obj_style_dec.h **** 
 102:lvgl/src/lv_widgets/../lv_core/lv_obj_style_dec.h **** _LV_OBJ_STYLE_SET_GET_DECLARE(RADIUS, radius, lv_style_int_t, _int, scalar)
 103:lvgl/src/lv_widgets/../lv_core/lv_obj_style_dec.h **** _LV_OBJ_STYLE_SET_GET_DECLARE(CLIP_CORNER, clip_corner, bool, _int, scalar)
 104:lvgl/src/lv_widgets/../lv_core/lv_obj_style_dec.h **** _LV_OBJ_STYLE_SET_GET_DECLARE(SIZE, size, lv_style_int_t, _int, scalar)
 105:lvgl/src/lv_widgets/../lv_core/lv_obj_style_dec.h **** _LV_OBJ_STYLE_SET_GET_DECLARE(TRANSFORM_WIDTH, transform_width, lv_style_int_t, _int, scalar)
 106:lvgl/src/lv_widgets/../lv_core/lv_obj_style_dec.h **** _LV_OBJ_STYLE_SET_GET_DECLARE(TRANSFORM_HEIGHT, transform_height, lv_style_int_t, _int, scalar)
 107:lvgl/src/lv_widgets/../lv_core/lv_obj_style_dec.h **** _LV_OBJ_STYLE_SET_GET_DECLARE(TRANSFORM_ANGLE, transform_angle, lv_style_int_t, _int, scalar)
 108:lvgl/src/lv_widgets/../lv_core/lv_obj_style_dec.h **** _LV_OBJ_STYLE_SET_GET_DECLARE(TRANSFORM_ZOOM, transform_zoom, lv_style_int_t, _int, scalar)
 109:lvgl/src/lv_widgets/../lv_core/lv_obj_style_dec.h **** _LV_OBJ_STYLE_SET_GET_DECLARE(OPA_SCALE, opa_scale, lv_opa_t, _opa, scalar)
 110:lvgl/src/lv_widgets/../lv_core/lv_obj_style_dec.h **** _LV_OBJ_STYLE_SET_GET_DECLARE(PAD_TOP, pad_top, lv_style_int_t, _int, scalar)
 111:lvgl/src/lv_widgets/../lv_core/lv_obj_style_dec.h **** _LV_OBJ_STYLE_SET_GET_DECLARE(PAD_BOTTOM, pad_bottom, lv_style_int_t, _int, scalar)
 112:lvgl/src/lv_widgets/../lv_core/lv_obj_style_dec.h **** _LV_OBJ_STYLE_SET_GET_DECLARE(PAD_LEFT, pad_left, lv_style_int_t, _int, scalar)
 113:lvgl/src/lv_widgets/../lv_core/lv_obj_style_dec.h **** _LV_OBJ_STYLE_SET_GET_DECLARE(PAD_RIGHT, pad_right, lv_style_int_t, _int, scalar)
 114:lvgl/src/lv_widgets/../lv_core/lv_obj_style_dec.h **** _LV_OBJ_STYLE_SET_GET_DECLARE(PAD_INNER, pad_inner, lv_style_int_t, _int, scalar)
 115:lvgl/src/lv_widgets/../lv_core/lv_obj_style_dec.h **** _LV_OBJ_STYLE_SET_GET_DECLARE(MARGIN_TOP, margin_top, lv_style_int_t, _int, scalar)
 116:lvgl/src/lv_widgets/../lv_core/lv_obj_style_dec.h **** _LV_OBJ_STYLE_SET_GET_DECLARE(MARGIN_BOTTOM, margin_bottom, lv_style_int_t, _int, scalar)
 117:lvgl/src/lv_widgets/../lv_core/lv_obj_style_dec.h **** _LV_OBJ_STYLE_SET_GET_DECLARE(MARGIN_LEFT, margin_left, lv_style_int_t, _int, scalar)
 118:lvgl/src/lv_widgets/../lv_core/lv_obj_style_dec.h **** _LV_OBJ_STYLE_SET_GET_DECLARE(MARGIN_RIGHT, margin_right, lv_style_int_t, _int, scalar)
 119:lvgl/src/lv_widgets/../lv_core/lv_obj_style_dec.h **** _LV_OBJ_STYLE_SET_GET_DECLARE(BG_BLEND_MODE, bg_blend_mode, lv_blend_mode_t, _int, scalar)
 120:lvgl/src/lv_widgets/../lv_core/lv_obj_style_dec.h **** _LV_OBJ_STYLE_SET_GET_DECLARE(BG_MAIN_STOP, bg_main_stop, lv_style_int_t, _int, scalar)
 121:lvgl/src/lv_widgets/../lv_core/lv_obj_style_dec.h **** _LV_OBJ_STYLE_SET_GET_DECLARE(BG_GRAD_STOP, bg_grad_stop, lv_style_int_t, _int, scalar)
 122:lvgl/src/lv_widgets/../lv_core/lv_obj_style_dec.h **** _LV_OBJ_STYLE_SET_GET_DECLARE(BG_GRAD_DIR, bg_grad_dir, lv_grad_dir_t, _int, scalar)
 123:lvgl/src/lv_widgets/../lv_core/lv_obj_style_dec.h **** _LV_OBJ_STYLE_SET_GET_DECLARE(BG_COLOR, bg_color, lv_color_t, _color, nonscalar)
ARM GAS  D:\Temp\ccfvNLhk.s 			page 26


 124:lvgl/src/lv_widgets/../lv_core/lv_obj_style_dec.h **** _LV_OBJ_STYLE_SET_GET_DECLARE(BG_GRAD_COLOR, bg_grad_color, lv_color_t, _color, nonscalar)
 125:lvgl/src/lv_widgets/../lv_core/lv_obj_style_dec.h **** _LV_OBJ_STYLE_SET_GET_DECLARE(BG_OPA, bg_opa, lv_opa_t, _opa, scalar)
 126:lvgl/src/lv_widgets/../lv_core/lv_obj_style_dec.h **** _LV_OBJ_STYLE_SET_GET_DECLARE(BORDER_WIDTH, border_width, lv_style_int_t, _int, scalar)
 127:lvgl/src/lv_widgets/../lv_core/lv_obj_style_dec.h **** _LV_OBJ_STYLE_SET_GET_DECLARE(BORDER_SIDE, border_side, lv_border_side_t, _int, scalar)
 128:lvgl/src/lv_widgets/../lv_core/lv_obj_style_dec.h **** _LV_OBJ_STYLE_SET_GET_DECLARE(BORDER_BLEND_MODE, border_blend_mode, lv_blend_mode_t, _int, scalar)
 129:lvgl/src/lv_widgets/../lv_core/lv_obj_style_dec.h **** _LV_OBJ_STYLE_SET_GET_DECLARE(BORDER_POST, border_post, bool, _int, scalar)
 130:lvgl/src/lv_widgets/../lv_core/lv_obj_style_dec.h **** _LV_OBJ_STYLE_SET_GET_DECLARE(BORDER_COLOR, border_color, lv_color_t, _color, nonscalar)
 131:lvgl/src/lv_widgets/../lv_core/lv_obj_style_dec.h **** _LV_OBJ_STYLE_SET_GET_DECLARE(BORDER_OPA, border_opa, lv_opa_t, _opa, scalar)
 132:lvgl/src/lv_widgets/../lv_core/lv_obj_style_dec.h **** _LV_OBJ_STYLE_SET_GET_DECLARE(OUTLINE_WIDTH, outline_width, lv_style_int_t, _int, scalar)
 133:lvgl/src/lv_widgets/../lv_core/lv_obj_style_dec.h **** _LV_OBJ_STYLE_SET_GET_DECLARE(OUTLINE_PAD, outline_pad, lv_style_int_t, _int, scalar)
 134:lvgl/src/lv_widgets/../lv_core/lv_obj_style_dec.h **** _LV_OBJ_STYLE_SET_GET_DECLARE(OUTLINE_BLEND_MODE, outline_blend_mode, lv_blend_mode_t, _int, scalar
 135:lvgl/src/lv_widgets/../lv_core/lv_obj_style_dec.h **** _LV_OBJ_STYLE_SET_GET_DECLARE(OUTLINE_COLOR, outline_color, lv_color_t, _color, nonscalar)
 136:lvgl/src/lv_widgets/../lv_core/lv_obj_style_dec.h **** _LV_OBJ_STYLE_SET_GET_DECLARE(OUTLINE_OPA, outline_opa, lv_opa_t, _opa, scalar)
 137:lvgl/src/lv_widgets/../lv_core/lv_obj_style_dec.h **** _LV_OBJ_STYLE_SET_GET_DECLARE(SHADOW_WIDTH, shadow_width, lv_style_int_t, _int, scalar)
 138:lvgl/src/lv_widgets/../lv_core/lv_obj_style_dec.h **** _LV_OBJ_STYLE_SET_GET_DECLARE(SHADOW_OFS_X, shadow_ofs_x, lv_style_int_t, _int, scalar)
 139:lvgl/src/lv_widgets/../lv_core/lv_obj_style_dec.h **** _LV_OBJ_STYLE_SET_GET_DECLARE(SHADOW_OFS_Y, shadow_ofs_y, lv_style_int_t, _int, scalar)
 140:lvgl/src/lv_widgets/../lv_core/lv_obj_style_dec.h **** _LV_OBJ_STYLE_SET_GET_DECLARE(SHADOW_SPREAD, shadow_spread, lv_style_int_t, _int, scalar)
 141:lvgl/src/lv_widgets/../lv_core/lv_obj_style_dec.h **** _LV_OBJ_STYLE_SET_GET_DECLARE(SHADOW_BLEND_MODE, shadow_blend_mode, lv_blend_mode_t, _int, scalar)
 142:lvgl/src/lv_widgets/../lv_core/lv_obj_style_dec.h **** _LV_OBJ_STYLE_SET_GET_DECLARE(SHADOW_COLOR, shadow_color, lv_color_t, _color, nonscalar)
 143:lvgl/src/lv_widgets/../lv_core/lv_obj_style_dec.h **** _LV_OBJ_STYLE_SET_GET_DECLARE(SHADOW_OPA, shadow_opa, lv_opa_t, _opa, scalar)
 144:lvgl/src/lv_widgets/../lv_core/lv_obj_style_dec.h **** _LV_OBJ_STYLE_SET_GET_DECLARE(PATTERN_REPEAT, pattern_repeat, bool, _int, scalar)
 145:lvgl/src/lv_widgets/../lv_core/lv_obj_style_dec.h **** _LV_OBJ_STYLE_SET_GET_DECLARE(PATTERN_BLEND_MODE, pattern_blend_mode, lv_blend_mode_t, _int, scalar
 146:lvgl/src/lv_widgets/../lv_core/lv_obj_style_dec.h **** _LV_OBJ_STYLE_SET_GET_DECLARE(PATTERN_RECOLOR, pattern_recolor, lv_color_t, _color, nonscalar)
 147:lvgl/src/lv_widgets/../lv_core/lv_obj_style_dec.h **** _LV_OBJ_STYLE_SET_GET_DECLARE(PATTERN_OPA, pattern_opa, lv_opa_t, _opa, scalar)
 148:lvgl/src/lv_widgets/../lv_core/lv_obj_style_dec.h **** _LV_OBJ_STYLE_SET_GET_DECLARE(PATTERN_RECOLOR_OPA, pattern_recolor_opa, lv_opa_t, _opa, scalar)
 149:lvgl/src/lv_widgets/../lv_core/lv_obj_style_dec.h **** _LV_OBJ_STYLE_SET_GET_DECLARE(PATTERN_IMAGE, pattern_image, const void *, _ptr, scalar)
 150:lvgl/src/lv_widgets/../lv_core/lv_obj_style_dec.h **** _LV_OBJ_STYLE_SET_GET_DECLARE(VALUE_LETTER_SPACE, value_letter_space, lv_style_int_t, _int, scalar)
 151:lvgl/src/lv_widgets/../lv_core/lv_obj_style_dec.h **** _LV_OBJ_STYLE_SET_GET_DECLARE(VALUE_LINE_SPACE, value_line_space, lv_style_int_t, _int, scalar)
 152:lvgl/src/lv_widgets/../lv_core/lv_obj_style_dec.h **** _LV_OBJ_STYLE_SET_GET_DECLARE(VALUE_BLEND_MODE, value_blend_mode, lv_blend_mode_t, _int, scalar)
 153:lvgl/src/lv_widgets/../lv_core/lv_obj_style_dec.h **** _LV_OBJ_STYLE_SET_GET_DECLARE(VALUE_OFS_X, value_ofs_x, lv_style_int_t, _int, scalar)
 154:lvgl/src/lv_widgets/../lv_core/lv_obj_style_dec.h **** _LV_OBJ_STYLE_SET_GET_DECLARE(VALUE_OFS_Y, value_ofs_y, lv_style_int_t, _int, scalar)
 155:lvgl/src/lv_widgets/../lv_core/lv_obj_style_dec.h **** _LV_OBJ_STYLE_SET_GET_DECLARE(VALUE_ALIGN, value_align, lv_align_t, _int, scalar)
 156:lvgl/src/lv_widgets/../lv_core/lv_obj_style_dec.h **** _LV_OBJ_STYLE_SET_GET_DECLARE(VALUE_COLOR, value_color, lv_color_t, _color, nonscalar)
 157:lvgl/src/lv_widgets/../lv_core/lv_obj_style_dec.h **** _LV_OBJ_STYLE_SET_GET_DECLARE(VALUE_OPA, value_opa, lv_opa_t, _opa, scalar)
 158:lvgl/src/lv_widgets/../lv_core/lv_obj_style_dec.h **** _LV_OBJ_STYLE_SET_GET_DECLARE(VALUE_FONT, value_font, const lv_font_t *, _ptr, scalar)
 159:lvgl/src/lv_widgets/../lv_core/lv_obj_style_dec.h **** _LV_OBJ_STYLE_SET_GET_DECLARE(VALUE_STR, value_str, const char *, _ptr, scalar)
 160:lvgl/src/lv_widgets/../lv_core/lv_obj_style_dec.h **** _LV_OBJ_STYLE_SET_GET_DECLARE(TEXT_LETTER_SPACE, text_letter_space, lv_style_int_t, _int, scalar)
 161:lvgl/src/lv_widgets/../lv_core/lv_obj_style_dec.h **** _LV_OBJ_STYLE_SET_GET_DECLARE(TEXT_LINE_SPACE, text_line_space, lv_style_int_t, _int, scalar)
 162:lvgl/src/lv_widgets/../lv_core/lv_obj_style_dec.h **** _LV_OBJ_STYLE_SET_GET_DECLARE(TEXT_DECOR, text_decor, lv_text_decor_t, _int, scalar)
 163:lvgl/src/lv_widgets/../lv_core/lv_obj_style_dec.h **** _LV_OBJ_STYLE_SET_GET_DECLARE(TEXT_BLEND_MODE, text_blend_mode, lv_blend_mode_t, _int, scalar)
 164:lvgl/src/lv_widgets/../lv_core/lv_obj_style_dec.h **** _LV_OBJ_STYLE_SET_GET_DECLARE(TEXT_COLOR, text_color, lv_color_t, _color, nonscalar)
 165:lvgl/src/lv_widgets/../lv_core/lv_obj_style_dec.h **** _LV_OBJ_STYLE_SET_GET_DECLARE(TEXT_SEL_COLOR, text_sel_color, lv_color_t, _color, nonscalar)
 166:lvgl/src/lv_widgets/../lv_core/lv_obj_style_dec.h **** _LV_OBJ_STYLE_SET_GET_DECLARE(TEXT_SEL_BG_COLOR, text_sel_bg_color, lv_color_t, _color, nonscalar)
 167:lvgl/src/lv_widgets/../lv_core/lv_obj_style_dec.h **** _LV_OBJ_STYLE_SET_GET_DECLARE(TEXT_OPA, text_opa, lv_opa_t, _opa, scalar)
 168:lvgl/src/lv_widgets/../lv_core/lv_obj_style_dec.h **** _LV_OBJ_STYLE_SET_GET_DECLARE(TEXT_FONT, text_font, const lv_font_t *, _ptr, scalar)
 169:lvgl/src/lv_widgets/../lv_core/lv_obj_style_dec.h **** _LV_OBJ_STYLE_SET_GET_DECLARE(LINE_WIDTH, line_width, lv_style_int_t, _int, scalar)
 170:lvgl/src/lv_widgets/../lv_core/lv_obj_style_dec.h **** _LV_OBJ_STYLE_SET_GET_DECLARE(LINE_BLEND_MODE, line_blend_mode, lv_blend_mode_t, _int, scalar)
 171:lvgl/src/lv_widgets/../lv_core/lv_obj_style_dec.h **** _LV_OBJ_STYLE_SET_GET_DECLARE(LINE_DASH_WIDTH, line_dash_width, lv_style_int_t, _int, scalar)
 172:lvgl/src/lv_widgets/../lv_core/lv_obj_style_dec.h **** _LV_OBJ_STYLE_SET_GET_DECLARE(LINE_DASH_GAP, line_dash_gap, lv_style_int_t, _int, scalar)
 173:lvgl/src/lv_widgets/../lv_core/lv_obj_style_dec.h **** _LV_OBJ_STYLE_SET_GET_DECLARE(LINE_ROUNDED, line_rounded, bool, _int, scalar)
 174:lvgl/src/lv_widgets/../lv_core/lv_obj_style_dec.h **** _LV_OBJ_STYLE_SET_GET_DECLARE(LINE_COLOR, line_color, lv_color_t, _color, nonscalar)
 175:lvgl/src/lv_widgets/../lv_core/lv_obj_style_dec.h **** _LV_OBJ_STYLE_SET_GET_DECLARE(LINE_OPA, line_opa, lv_opa_t, _opa, scalar)
 176:lvgl/src/lv_widgets/../lv_core/lv_obj_style_dec.h **** _LV_OBJ_STYLE_SET_GET_DECLARE(IMAGE_BLEND_MODE, image_blend_mode, lv_blend_mode_t, _int, scalar)
 177:lvgl/src/lv_widgets/../lv_core/lv_obj_style_dec.h **** _LV_OBJ_STYLE_SET_GET_DECLARE(IMAGE_RECOLOR, image_recolor, lv_color_t, _color, nonscalar)
 178:lvgl/src/lv_widgets/../lv_core/lv_obj_style_dec.h **** _LV_OBJ_STYLE_SET_GET_DECLARE(IMAGE_OPA, image_opa, lv_opa_t, _opa, scalar)
 179:lvgl/src/lv_widgets/../lv_core/lv_obj_style_dec.h **** _LV_OBJ_STYLE_SET_GET_DECLARE(IMAGE_RECOLOR_OPA, image_recolor_opa, lv_opa_t, _opa, scalar)
 180:lvgl/src/lv_widgets/../lv_core/lv_obj_style_dec.h **** _LV_OBJ_STYLE_SET_GET_DECLARE(TRANSITION_TIME, transition_time, lv_style_int_t, _int, scalar)
ARM GAS  D:\Temp\ccfvNLhk.s 			page 27


 181:lvgl/src/lv_widgets/../lv_core/lv_obj_style_dec.h **** _LV_OBJ_STYLE_SET_GET_DECLARE(TRANSITION_DELAY, transition_delay, lv_style_int_t, _int, scalar)
 182:lvgl/src/lv_widgets/../lv_core/lv_obj_style_dec.h **** _LV_OBJ_STYLE_SET_GET_DECLARE(TRANSITION_PROP_1, transition_prop_1, lv_style_int_t, _int, scalar)
 183:lvgl/src/lv_widgets/../lv_core/lv_obj_style_dec.h **** _LV_OBJ_STYLE_SET_GET_DECLARE(TRANSITION_PROP_2, transition_prop_2, lv_style_int_t, _int, scalar)
 184:lvgl/src/lv_widgets/../lv_core/lv_obj_style_dec.h **** _LV_OBJ_STYLE_SET_GET_DECLARE(TRANSITION_PROP_3, transition_prop_3, lv_style_int_t, _int, scalar)
 185:lvgl/src/lv_widgets/../lv_core/lv_obj_style_dec.h **** _LV_OBJ_STYLE_SET_GET_DECLARE(TRANSITION_PROP_4, transition_prop_4, lv_style_int_t, _int, scalar)
 186:lvgl/src/lv_widgets/../lv_core/lv_obj_style_dec.h **** _LV_OBJ_STYLE_SET_GET_DECLARE(TRANSITION_PROP_5, transition_prop_5, lv_style_int_t, _int, scalar)
 187:lvgl/src/lv_widgets/../lv_core/lv_obj_style_dec.h **** _LV_OBJ_STYLE_SET_GET_DECLARE(TRANSITION_PROP_6, transition_prop_6, lv_style_int_t, _int, scalar)
 188:lvgl/src/lv_widgets/../lv_core/lv_obj_style_dec.h **** #if LV_USE_ANIMATION
 189:lvgl/src/lv_widgets/../lv_core/lv_obj_style_dec.h **** _LV_OBJ_STYLE_SET_GET_DECLARE(TRANSITION_PATH, transition_path, lv_anim_path_t *, _ptr, scalar)
 190:lvgl/src/lv_widgets/../lv_core/lv_obj_style_dec.h **** #else
 191:lvgl/src/lv_widgets/../lv_core/lv_obj_style_dec.h **** /*For compatibility*/
 192:lvgl/src/lv_widgets/../lv_core/lv_obj_style_dec.h **** _LV_OBJ_STYLE_SET_GET_DECLARE(TRANSITION_PATH, transition_path, const void *, _ptr, scalar)
 193:lvgl/src/lv_widgets/../lv_core/lv_obj_style_dec.h **** #endif
 194:lvgl/src/lv_widgets/../lv_core/lv_obj_style_dec.h **** _LV_OBJ_STYLE_SET_GET_DECLARE(SCALE_WIDTH, scale_width, lv_style_int_t, _int, scalar)
 240              		.loc 2 194 1 view .LVU63
 241              	.LBB65:
 242              		.loc 2 194 1 view .LVU64
 243 001a C022     		movs	r2, #192
 244 001c 0021     		movs	r1, #0
 245 001e 4046     		mov	r0, r8
 246              	.LVL23:
 247              		.loc 2 194 1 is_stmt 0 view .LVU65
 248 0020 FFF7FEFF 		bl	_lv_obj_get_style_int
 249              	.LVL24:
 250              		.loc 2 194 1 view .LVU66
 251              	.LBE65:
 252              	.LBE64:
 640:lvgl/src/lv_widgets/lv_cpicker.c ****     }
 253              		.loc 1 640 11 view .LVU67
 254 0024 00EBD070 		add	r0, r0, r0, lsr #31
 255 0028 C0F34F04 		ubfx	r4, r0, #1, #16
 256              	.LVL25:
 257              	.L19:
 647:lvgl/src/lv_widgets/lv_cpicker.c ****     lv_style_int_t right = lv_obj_get_style_pad_right(cpicker, LV_CPICKER_PART_KNOB);
 258              		.loc 1 647 5 is_stmt 1 view .LVU68
 259              	.LBB66:
 260              	.LBI66:
 112:lvgl/src/lv_widgets/../lv_core/lv_obj_style_dec.h **** _LV_OBJ_STYLE_SET_GET_DECLARE(PAD_RIGHT, pad_right, lv_style_int_t, _int, scalar)
 261              		.loc 2 112 1 view .LVU69
 262              	.LBB67:
 112:lvgl/src/lv_widgets/../lv_core/lv_obj_style_dec.h **** _LV_OBJ_STYLE_SET_GET_DECLARE(PAD_RIGHT, pad_right, lv_style_int_t, _int, scalar)
 263              		.loc 2 112 1 view .LVU70
 264 002c 1222     		movs	r2, #18
 265 002e 0121     		movs	r1, #1
 266 0030 4046     		mov	r0, r8
 267 0032 FFF7FEFF 		bl	_lv_obj_get_style_int
 268              	.LVL26:
 269 0036 8246     		mov	r10, r0
 270              	.LVL27:
 112:lvgl/src/lv_widgets/../lv_core/lv_obj_style_dec.h **** _LV_OBJ_STYLE_SET_GET_DECLARE(PAD_RIGHT, pad_right, lv_style_int_t, _int, scalar)
 271              		.loc 2 112 1 is_stmt 0 view .LVU71
 272              	.LBE67:
 273              	.LBE66:
 648:lvgl/src/lv_widgets/lv_cpicker.c ****     lv_style_int_t top = lv_obj_get_style_pad_top(cpicker, LV_CPICKER_PART_KNOB);
 274              		.loc 1 648 5 is_stmt 1 view .LVU72
 275              	.LBB68:
 276              	.LBI68:
ARM GAS  D:\Temp\ccfvNLhk.s 			page 28


 113:lvgl/src/lv_widgets/../lv_core/lv_obj_style_dec.h **** _LV_OBJ_STYLE_SET_GET_DECLARE(PAD_INNER, pad_inner, lv_style_int_t, _int, scalar)
 277              		.loc 2 113 1 view .LVU73
 278              	.LBB69:
 113:lvgl/src/lv_widgets/../lv_core/lv_obj_style_dec.h **** _LV_OBJ_STYLE_SET_GET_DECLARE(PAD_INNER, pad_inner, lv_style_int_t, _int, scalar)
 279              		.loc 2 113 1 view .LVU74
 280 0038 1322     		movs	r2, #19
 281 003a 0121     		movs	r1, #1
 282 003c 4046     		mov	r0, r8
 283 003e FFF7FEFF 		bl	_lv_obj_get_style_int
 284              	.LVL28:
 285 0042 0746     		mov	r7, r0
 286              	.LVL29:
 113:lvgl/src/lv_widgets/../lv_core/lv_obj_style_dec.h **** _LV_OBJ_STYLE_SET_GET_DECLARE(PAD_INNER, pad_inner, lv_style_int_t, _int, scalar)
 287              		.loc 2 113 1 is_stmt 0 view .LVU75
 288              	.LBE69:
 289              	.LBE68:
 649:lvgl/src/lv_widgets/lv_cpicker.c ****     lv_style_int_t bottom = lv_obj_get_style_pad_bottom(cpicker, LV_CPICKER_PART_KNOB);
 290              		.loc 1 649 5 is_stmt 1 view .LVU76
 291              	.LBB70:
 292              	.LBI70:
 110:lvgl/src/lv_widgets/../lv_core/lv_obj_style_dec.h **** _LV_OBJ_STYLE_SET_GET_DECLARE(PAD_BOTTOM, pad_bottom, lv_style_int_t, _int, scalar)
 293              		.loc 2 110 1 view .LVU77
 294              	.LBB71:
 110:lvgl/src/lv_widgets/../lv_core/lv_obj_style_dec.h **** _LV_OBJ_STYLE_SET_GET_DECLARE(PAD_BOTTOM, pad_bottom, lv_style_int_t, _int, scalar)
 295              		.loc 2 110 1 view .LVU78
 296 0044 1022     		movs	r2, #16
 297 0046 0121     		movs	r1, #1
 298 0048 4046     		mov	r0, r8
 299 004a FFF7FEFF 		bl	_lv_obj_get_style_int
 300              	.LVL30:
 301 004e 0646     		mov	r6, r0
 302              	.LVL31:
 110:lvgl/src/lv_widgets/../lv_core/lv_obj_style_dec.h **** _LV_OBJ_STYLE_SET_GET_DECLARE(PAD_BOTTOM, pad_bottom, lv_style_int_t, _int, scalar)
 303              		.loc 2 110 1 is_stmt 0 view .LVU79
 304              	.LBE71:
 305              	.LBE70:
 650:lvgl/src/lv_widgets/lv_cpicker.c **** 
 306              		.loc 1 650 5 is_stmt 1 view .LVU80
 307              	.LBB72:
 308              	.LBI72:
 111:lvgl/src/lv_widgets/../lv_core/lv_obj_style_dec.h **** _LV_OBJ_STYLE_SET_GET_DECLARE(PAD_LEFT, pad_left, lv_style_int_t, _int, scalar)
 309              		.loc 2 111 1 view .LVU81
 310              	.LBB73:
 111:lvgl/src/lv_widgets/../lv_core/lv_obj_style_dec.h **** _LV_OBJ_STYLE_SET_GET_DECLARE(PAD_LEFT, pad_left, lv_style_int_t, _int, scalar)
 311              		.loc 2 111 1 view .LVU82
 312 0050 1122     		movs	r2, #17
 313 0052 0121     		movs	r1, #1
 314 0054 4046     		mov	r0, r8
 315 0056 FFF7FEFF 		bl	_lv_obj_get_style_int
 316              	.LVL32:
 111:lvgl/src/lv_widgets/../lv_core/lv_obj_style_dec.h **** _LV_OBJ_STYLE_SET_GET_DECLARE(PAD_LEFT, pad_left, lv_style_int_t, _int, scalar)
 317              		.loc 2 111 1 is_stmt 0 view .LVU83
 318              	.LBE73:
 319              	.LBE72:
 652:lvgl/src/lv_widgets/lv_cpicker.c ****     knob_area.x1 = cpicker->coords.x1 + ext->knob.pos.x - r - left;
 320              		.loc 1 652 5 is_stmt 1 view .LVU84
 653:lvgl/src/lv_widgets/lv_cpicker.c ****     knob_area.y1 = cpicker->coords.y1 + ext->knob.pos.y - r - right;
ARM GAS  D:\Temp\ccfvNLhk.s 			page 29


 321              		.loc 1 653 5 view .LVU85
 653:lvgl/src/lv_widgets/lv_cpicker.c ****     knob_area.y1 = cpicker->coords.y1 + ext->knob.pos.y - r - right;
 322              		.loc 1 653 35 is_stmt 0 view .LVU86
 323 005a B8F81020 		ldrh	r2, [r8, #16]
 653:lvgl/src/lv_widgets/lv_cpicker.c ****     knob_area.y1 = cpicker->coords.y1 + ext->knob.pos.y - r - right;
 324              		.loc 1 653 54 view .LVU87
 325 005e B9F80C30 		ldrh	r3, [r9, #12]
 653:lvgl/src/lv_widgets/lv_cpicker.c ****     knob_area.y1 = cpicker->coords.y1 + ext->knob.pos.y - r - right;
 326              		.loc 1 653 39 view .LVU88
 327 0062 1A44     		add	r2, r2, r3
 328 0064 92B2     		uxth	r2, r2
 653:lvgl/src/lv_widgets/lv_cpicker.c ****     knob_area.y1 = cpicker->coords.y1 + ext->knob.pos.y - r - right;
 329              		.loc 1 653 57 view .LVU89
 330 0066 131B     		subs	r3, r2, r4
 331 0068 9BB2     		uxth	r3, r3
 653:lvgl/src/lv_widgets/lv_cpicker.c ****     knob_area.y1 = cpicker->coords.y1 + ext->knob.pos.y - r - right;
 332              		.loc 1 653 61 view .LVU90
 333 006a A3EB0A03 		sub	r3, r3, r10
 653:lvgl/src/lv_widgets/lv_cpicker.c ****     knob_area.y1 = cpicker->coords.y1 + ext->knob.pos.y - r - right;
 334              		.loc 1 653 18 view .LVU91
 335 006e 2B80     		strh	r3, [r5]	@ movhi
 654:lvgl/src/lv_widgets/lv_cpicker.c ****     knob_area.x2 = cpicker->coords.x1 + ext->knob.pos.x + r + top;
 336              		.loc 1 654 5 is_stmt 1 view .LVU92
 654:lvgl/src/lv_widgets/lv_cpicker.c ****     knob_area.x2 = cpicker->coords.x1 + ext->knob.pos.x + r + top;
 337              		.loc 1 654 35 is_stmt 0 view .LVU93
 338 0070 B8F81230 		ldrh	r3, [r8, #18]
 654:lvgl/src/lv_widgets/lv_cpicker.c ****     knob_area.x2 = cpicker->coords.x1 + ext->knob.pos.x + r + top;
 339              		.loc 1 654 54 view .LVU94
 340 0074 B9F80E10 		ldrh	r1, [r9, #14]
 654:lvgl/src/lv_widgets/lv_cpicker.c ****     knob_area.x2 = cpicker->coords.x1 + ext->knob.pos.x + r + top;
 341              		.loc 1 654 39 view .LVU95
 342 0078 0B44     		add	r3, r3, r1
 343 007a 9BB2     		uxth	r3, r3
 654:lvgl/src/lv_widgets/lv_cpicker.c ****     knob_area.x2 = cpicker->coords.x1 + ext->knob.pos.x + r + top;
 344              		.loc 1 654 57 view .LVU96
 345 007c 191B     		subs	r1, r3, r4
 346 007e 89B2     		uxth	r1, r1
 654:lvgl/src/lv_widgets/lv_cpicker.c ****     knob_area.x2 = cpicker->coords.x1 + ext->knob.pos.x + r + top;
 347              		.loc 1 654 61 view .LVU97
 348 0080 CF1B     		subs	r7, r1, r7
 349              	.LVL33:
 654:lvgl/src/lv_widgets/lv_cpicker.c ****     knob_area.x2 = cpicker->coords.x1 + ext->knob.pos.x + r + top;
 350              		.loc 1 654 18 view .LVU98
 351 0082 6F80     		strh	r7, [r5, #2]	@ movhi
 655:lvgl/src/lv_widgets/lv_cpicker.c ****     knob_area.y2 = cpicker->coords.y1 + ext->knob.pos.y + r + bottom;
 352              		.loc 1 655 5 is_stmt 1 view .LVU99
 655:lvgl/src/lv_widgets/lv_cpicker.c ****     knob_area.y2 = cpicker->coords.y1 + ext->knob.pos.y + r + bottom;
 353              		.loc 1 655 57 is_stmt 0 view .LVU100
 354 0084 2244     		add	r2, r2, r4
 655:lvgl/src/lv_widgets/lv_cpicker.c ****     knob_area.y2 = cpicker->coords.y1 + ext->knob.pos.y + r + bottom;
 355              		.loc 1 655 61 view .LVU101
 356 0086 16FA82F6 		uxtah	r6, r6, r2
 357              	.LVL34:
 655:lvgl/src/lv_widgets/lv_cpicker.c ****     knob_area.y2 = cpicker->coords.y1 + ext->knob.pos.y + r + bottom;
 358              		.loc 1 655 18 view .LVU102
 359 008a AE80     		strh	r6, [r5, #4]	@ movhi
 656:lvgl/src/lv_widgets/lv_cpicker.c **** 
ARM GAS  D:\Temp\ccfvNLhk.s 			page 30


 360              		.loc 1 656 5 is_stmt 1 view .LVU103
 656:lvgl/src/lv_widgets/lv_cpicker.c **** 
 361              		.loc 1 656 57 is_stmt 0 view .LVU104
 362 008c 2344     		add	r3, r3, r4
 656:lvgl/src/lv_widgets/lv_cpicker.c **** 
 363              		.loc 1 656 61 view .LVU105
 364 008e 10FA83F3 		uxtah	r3, r0, r3
 656:lvgl/src/lv_widgets/lv_cpicker.c **** 
 365              		.loc 1 656 18 view .LVU106
 366 0092 EB80     		strh	r3, [r5, #6]	@ movhi
 658:lvgl/src/lv_widgets/lv_cpicker.c **** }
 367              		.loc 1 658 5 is_stmt 1 view .LVU107
 659:lvgl/src/lv_widgets/lv_cpicker.c **** 
 368              		.loc 1 659 1 is_stmt 0 view .LVU108
 369 0094 2846     		mov	r0, r5
 370              	.LVL35:
 659:lvgl/src/lv_widgets/lv_cpicker.c **** 
 371              		.loc 1 659 1 view .LVU109
 372 0096 BDE8F087 		pop	{r4, r5, r6, r7, r8, r9, r10, pc}
 373              	.LVL36:
 374              	.L18:
 642:lvgl/src/lv_widgets/lv_cpicker.c ****         lv_coord_t h = lv_obj_get_height(cpicker);
 375              		.loc 1 642 10 is_stmt 1 view .LVU110
 376              	.LBB74:
 643:lvgl/src/lv_widgets/lv_cpicker.c ****         r = h / 2;
 377              		.loc 1 643 9 view .LVU111
 643:lvgl/src/lv_widgets/lv_cpicker.c ****         r = h / 2;
 378              		.loc 1 643 24 is_stmt 0 view .LVU112
 379 009a 4046     		mov	r0, r8
 380              	.LVL37:
 643:lvgl/src/lv_widgets/lv_cpicker.c ****         r = h / 2;
 381              		.loc 1 643 24 view .LVU113
 382 009c FFF7FEFF 		bl	lv_obj_get_height
 383              	.LVL38:
 644:lvgl/src/lv_widgets/lv_cpicker.c ****     }
 384              		.loc 1 644 9 is_stmt 1 view .LVU114
 644:lvgl/src/lv_widgets/lv_cpicker.c ****     }
 385              		.loc 1 644 11 is_stmt 0 view .LVU115
 386 00a0 00EBD070 		add	r0, r0, r0, lsr #31
 387              	.LVL39:
 644:lvgl/src/lv_widgets/lv_cpicker.c ****     }
 388              		.loc 1 644 11 view .LVU116
 389 00a4 C0F34F04 		ubfx	r4, r0, #1, #16
 390              	.LVL40:
 644:lvgl/src/lv_widgets/lv_cpicker.c ****     }
 391              		.loc 1 644 11 view .LVU117
 392 00a8 C0E7     		b	.L19
 393              	.LBE74:
 394              		.cfi_endproc
 395              	.LFE481:
 397              		.section	.text.angle_to_mode_color,"ax",%progbits
 398              		.align	1
 399              		.syntax unified
 400              		.thumb
 401              		.thumb_func
 402              		.fpu fpv4-sp-d16
 404              	angle_to_mode_color:
ARM GAS  D:\Temp\ccfvNLhk.s 			page 31


 405              	.LVL41:
 406              	.LFB488:
1000:lvgl/src/lv_widgets/lv_cpicker.c ****     lv_cpicker_ext_t * ext = lv_obj_get_ext_attr(cpicker);
 407              		.loc 1 1000 1 is_stmt 1 view -0
 408              		.cfi_startproc
 409              		@ args = 0, pretend = 0, frame = 0
 410              		@ frame_needed = 0, uses_anonymous_args = 0
1000:lvgl/src/lv_widgets/lv_cpicker.c ****     lv_cpicker_ext_t * ext = lv_obj_get_ext_attr(cpicker);
 411              		.loc 1 1000 1 is_stmt 0 view .LVU119
 412 0000 10B5     		push	{r4, lr}
 413              	.LCFI3:
 414              		.cfi_def_cfa_offset 8
 415              		.cfi_offset 4, -8
 416              		.cfi_offset 14, -4
 417 0002 0C46     		mov	r4, r1
1001:lvgl/src/lv_widgets/lv_cpicker.c ****     lv_color_t color;
 418              		.loc 1 1001 5 is_stmt 1 view .LVU120
1001:lvgl/src/lv_widgets/lv_cpicker.c ****     lv_color_t color;
 419              		.loc 1 1001 30 is_stmt 0 view .LVU121
 420 0004 FFF7FEFF 		bl	lv_obj_get_ext_attr
 421              	.LVL42:
1002:lvgl/src/lv_widgets/lv_cpicker.c ****     switch(ext->color_mode) {
 422              		.loc 1 1002 5 is_stmt 1 view .LVU122
1003:lvgl/src/lv_widgets/lv_cpicker.c ****         default:
 423              		.loc 1 1003 5 view .LVU123
1003:lvgl/src/lv_widgets/lv_cpicker.c ****         default:
 424              		.loc 1 1003 15 is_stmt 0 view .LVU124
 425 0008 90F82030 		ldrb	r3, [r0, #32]	@ zero_extendqisi2
 426 000c 03F00303 		and	r3, r3, #3
1003:lvgl/src/lv_widgets/lv_cpicker.c ****         default:
 427              		.loc 1 1003 5 view .LVU125
 428 0010 012B     		cmp	r3, #1
 429 0012 10D0     		beq	.L22
 430 0014 022B     		cmp	r3, #2
 431 0016 26D0     		beq	.L23
1006:lvgl/src/lv_widgets/lv_cpicker.c ****             break;
 432              		.loc 1 1006 13 is_stmt 1 view .LVU126
1006:lvgl/src/lv_widgets/lv_cpicker.c ****             break;
 433              		.loc 1 1006 21 is_stmt 0 view .LVU127
 434 0018 E208     		lsrs	r2, r4, #3
 435 001a 1F4B     		ldr	r3, .L26
 436 001c A3FB0232 		umull	r3, r2, r3, r2
 437 0020 9208     		lsrs	r2, r2, #2
 438 0022 4FF4B473 		mov	r3, #360
 439 0026 03FB1244 		mls	r4, r3, r2, r4
 440 002a C278     		ldrb	r2, [r0, #3]	@ zero_extendqisi2
 441 002c 8178     		ldrb	r1, [r0, #2]	@ zero_extendqisi2
 442 002e A0B2     		uxth	r0, r4
 443              	.LVL43:
1006:lvgl/src/lv_widgets/lv_cpicker.c ****             break;
 444              		.loc 1 1006 21 view .LVU128
 445 0030 FFF7FEFF 		bl	lv_color_hsv_to_rgb
 446              	.LVL44:
1007:lvgl/src/lv_widgets/lv_cpicker.c ****         case LV_CPICKER_COLOR_MODE_SATURATION:
 447              		.loc 1 1007 13 is_stmt 1 view .LVU129
 448              	.L24:
1015:lvgl/src/lv_widgets/lv_cpicker.c **** }
ARM GAS  D:\Temp\ccfvNLhk.s 			page 32


 449              		.loc 1 1015 5 view .LVU130
1016:lvgl/src/lv_widgets/lv_cpicker.c **** 
 450              		.loc 1 1016 1 is_stmt 0 view .LVU131
 451 0034 10BD     		pop	{r4, pc}
 452              	.LVL45:
 453              	.L22:
1009:lvgl/src/lv_widgets/lv_cpicker.c ****             break;
 454              		.loc 1 1009 13 is_stmt 1 view .LVU132
1009:lvgl/src/lv_widgets/lv_cpicker.c ****             break;
 455              		.loc 1 1009 61 is_stmt 0 view .LVU133
 456 0036 E208     		lsrs	r2, r4, #3
 457 0038 174B     		ldr	r3, .L26
 458 003a A3FB0232 		umull	r3, r2, r3, r2
 459 003e 9208     		lsrs	r2, r2, #2
 460 0040 4FF4B471 		mov	r1, #360
 461 0044 01FB1242 		mls	r2, r1, r2, r4
 462 0048 92B2     		uxth	r2, r2
1009:lvgl/src/lv_widgets/lv_cpicker.c ****             break;
 463              		.loc 1 1009 68 view .LVU134
 464 004a 6421     		movs	r1, #100
 465 004c 01FB02F2 		mul	r2, r1, r2
1009:lvgl/src/lv_widgets/lv_cpicker.c ****             break;
 466              		.loc 1 1009 75 view .LVU135
 467 0050 1249     		ldr	r1, .L26+4
 468 0052 81FB0231 		smull	r3, r1, r1, r2
 469 0056 1144     		add	r1, r1, r2
1009:lvgl/src/lv_widgets/lv_cpicker.c ****             break;
 470              		.loc 1 1009 21 view .LVU136
 471 0058 C278     		ldrb	r2, [r0, #3]	@ zero_extendqisi2
 472 005a C1F30721 		ubfx	r1, r1, #8, #8
 473 005e 0088     		ldrh	r0, [r0]
 474              	.LVL46:
1009:lvgl/src/lv_widgets/lv_cpicker.c ****             break;
 475              		.loc 1 1009 21 view .LVU137
 476 0060 FFF7FEFF 		bl	lv_color_hsv_to_rgb
 477              	.LVL47:
1010:lvgl/src/lv_widgets/lv_cpicker.c ****         case LV_CPICKER_COLOR_MODE_VALUE:
 478              		.loc 1 1010 13 is_stmt 1 view .LVU138
 479 0064 E6E7     		b	.L24
 480              	.LVL48:
 481              	.L23:
1012:lvgl/src/lv_widgets/lv_cpicker.c ****             break;
 482              		.loc 1 1012 13 view .LVU139
1012:lvgl/src/lv_widgets/lv_cpicker.c ****             break;
 483              		.loc 1 1012 73 is_stmt 0 view .LVU140
 484 0066 E208     		lsrs	r2, r4, #3
 485 0068 0B4B     		ldr	r3, .L26
 486 006a A3FB0232 		umull	r3, r2, r3, r2
 487 006e 9208     		lsrs	r2, r2, #2
 488 0070 4FF4B473 		mov	r3, #360
 489 0074 03FB1242 		mls	r2, r3, r2, r4
 490 0078 92B2     		uxth	r2, r2
1012:lvgl/src/lv_widgets/lv_cpicker.c ****             break;
 491              		.loc 1 1012 80 view .LVU141
 492 007a 6423     		movs	r3, #100
 493 007c 03FB02F3 		mul	r3, r3, r2
1012:lvgl/src/lv_widgets/lv_cpicker.c ****             break;
ARM GAS  D:\Temp\ccfvNLhk.s 			page 33


 494              		.loc 1 1012 87 view .LVU142
 495 0080 064A     		ldr	r2, .L26+4
 496 0082 82FB0312 		smull	r1, r2, r2, r3
 497 0086 1A44     		add	r2, r2, r3
1012:lvgl/src/lv_widgets/lv_cpicker.c ****             break;
 498              		.loc 1 1012 21 view .LVU143
 499 0088 C2F30722 		ubfx	r2, r2, #8, #8
 500 008c 8178     		ldrb	r1, [r0, #2]	@ zero_extendqisi2
 501 008e 0088     		ldrh	r0, [r0]
 502              	.LVL49:
1012:lvgl/src/lv_widgets/lv_cpicker.c ****             break;
 503              		.loc 1 1012 21 view .LVU144
 504 0090 FFF7FEFF 		bl	lv_color_hsv_to_rgb
 505              	.LVL50:
1013:lvgl/src/lv_widgets/lv_cpicker.c ****     }
 506              		.loc 1 1013 13 is_stmt 1 view .LVU145
 507 0094 CEE7     		b	.L24
 508              	.L27:
 509 0096 00BF     		.align	2
 510              	.L26:
 511 0098 176CC116 		.word	381774871
 512 009c B7600BB6 		.word	-1240768329
 513              		.cfi_endproc
 514              	.LFE488:
 516              		.section	.text.draw_rect_grad,"ax",%progbits
 517              		.align	1
 518              		.syntax unified
 519              		.thumb
 520              		.thumb_func
 521              		.fpu fpv4-sp-d16
 523              	draw_rect_grad:
 524              	.LVL51:
 525              	.LFB478:
 546:lvgl/src/lv_widgets/lv_cpicker.c ****     lv_draw_rect_dsc_t bg_dsc;
 526              		.loc 1 546 1 view -0
 527              		.cfi_startproc
 528              		@ args = 0, pretend = 0, frame = 104
 529              		@ frame_needed = 0, uses_anonymous_args = 0
 546:lvgl/src/lv_widgets/lv_cpicker.c ****     lv_draw_rect_dsc_t bg_dsc;
 530              		.loc 1 546 1 is_stmt 0 view .LVU147
 531 0000 2DE9F043 		push	{r4, r5, r6, r7, r8, r9, lr}
 532              	.LCFI4:
 533              		.cfi_def_cfa_offset 28
 534              		.cfi_offset 4, -28
 535              		.cfi_offset 5, -24
 536              		.cfi_offset 6, -20
 537              		.cfi_offset 7, -16
 538              		.cfi_offset 8, -12
 539              		.cfi_offset 9, -8
 540              		.cfi_offset 14, -4
 541 0004 9BB0     		sub	sp, sp, #108
 542              	.LCFI5:
 543              		.cfi_def_cfa_offset 136
 544 0006 0646     		mov	r6, r0
 545 0008 8846     		mov	r8, r1
 547:lvgl/src/lv_widgets/lv_cpicker.c ****     lv_draw_rect_dsc_init(&bg_dsc);
 546              		.loc 1 547 5 is_stmt 1 view .LVU148
ARM GAS  D:\Temp\ccfvNLhk.s 			page 34


 548:lvgl/src/lv_widgets/lv_cpicker.c ****     lv_obj_init_draw_rect_dsc(cpicker, LV_CPICKER_PART_MAIN, &bg_dsc);
 547              		.loc 1 548 5 view .LVU149
 548 000a 05A8     		add	r0, sp, #20
 549              	.LVL52:
 548:lvgl/src/lv_widgets/lv_cpicker.c ****     lv_obj_init_draw_rect_dsc(cpicker, LV_CPICKER_PART_MAIN, &bg_dsc);
 550              		.loc 1 548 5 is_stmt 0 view .LVU150
 551 000c FFF7FEFF 		bl	lv_draw_rect_dsc_init
 552              	.LVL53:
 549:lvgl/src/lv_widgets/lv_cpicker.c **** 
 553              		.loc 1 549 5 is_stmt 1 view .LVU151
 554 0010 05AA     		add	r2, sp, #20
 555 0012 0021     		movs	r1, #0
 556 0014 3046     		mov	r0, r6
 557 0016 FFF7FEFF 		bl	lv_obj_init_draw_rect_dsc
 558              	.LVL54:
 551:lvgl/src/lv_widgets/lv_cpicker.c ****     lv_obj_get_coords(cpicker, &grad_area);
 559              		.loc 1 551 5 view .LVU152
 552:lvgl/src/lv_widgets/lv_cpicker.c **** 
 560              		.loc 1 552 5 view .LVU153
 561 001a 03A9     		add	r1, sp, #12
 562 001c 3046     		mov	r0, r6
 563 001e FFF7FEFF 		bl	lv_obj_get_coords
 564              	.LVL55:
 554:lvgl/src/lv_widgets/lv_cpicker.c ****         lv_coord_t h = lv_obj_get_height(cpicker);
 565              		.loc 1 554 5 view .LVU154
 554:lvgl/src/lv_widgets/lv_cpicker.c ****         lv_coord_t h = lv_obj_get_height(cpicker);
 566              		.loc 1 554 14 is_stmt 0 view .LVU155
 567 0022 BDF91430 		ldrsh	r3, [sp, #20]
 554:lvgl/src/lv_widgets/lv_cpicker.c ****         lv_coord_t h = lv_obj_get_height(cpicker);
 568              		.loc 1 554 7 view .LVU156
 569 0026 002B     		cmp	r3, #0
 570 0028 5FD1     		bne	.L36
 571              	.L29:
 580:lvgl/src/lv_widgets/lv_cpicker.c ****     if(grad_w < 1) return;
 572              		.loc 1 580 5 is_stmt 1 view .LVU157
 573              	.LVL56:
 574              	.LBB75:
 575              	.LBI75:
 576              		.file 3 "d:\\_project\\stm32\\f407\\hack_rf_new\\lvgl\\src\\lv_misc\\lv_area.h"
   1:d:\_project\stm32\f407\hack_rf_new\lvgl\src\lv_misc\lv_area.h **** /**
   2:d:\_project\stm32\f407\hack_rf_new\lvgl\src\lv_misc\lv_area.h ****  * @file lv_area.h
   3:d:\_project\stm32\f407\hack_rf_new\lvgl\src\lv_misc\lv_area.h ****  *
   4:d:\_project\stm32\f407\hack_rf_new\lvgl\src\lv_misc\lv_area.h ****  */
   5:d:\_project\stm32\f407\hack_rf_new\lvgl\src\lv_misc\lv_area.h **** 
   6:d:\_project\stm32\f407\hack_rf_new\lvgl\src\lv_misc\lv_area.h **** #ifndef LV_AREA_H
   7:d:\_project\stm32\f407\hack_rf_new\lvgl\src\lv_misc\lv_area.h **** #define LV_AREA_H
   8:d:\_project\stm32\f407\hack_rf_new\lvgl\src\lv_misc\lv_area.h **** 
   9:d:\_project\stm32\f407\hack_rf_new\lvgl\src\lv_misc\lv_area.h **** #ifdef __cplusplus
  10:d:\_project\stm32\f407\hack_rf_new\lvgl\src\lv_misc\lv_area.h **** extern "C" {
  11:d:\_project\stm32\f407\hack_rf_new\lvgl\src\lv_misc\lv_area.h **** #endif
  12:d:\_project\stm32\f407\hack_rf_new\lvgl\src\lv_misc\lv_area.h **** 
  13:d:\_project\stm32\f407\hack_rf_new\lvgl\src\lv_misc\lv_area.h **** /*********************
  14:d:\_project\stm32\f407\hack_rf_new\lvgl\src\lv_misc\lv_area.h ****  *      INCLUDES
  15:d:\_project\stm32\f407\hack_rf_new\lvgl\src\lv_misc\lv_area.h ****  *********************/
  16:d:\_project\stm32\f407\hack_rf_new\lvgl\src\lv_misc\lv_area.h **** #include "../lv_conf_internal.h"
  17:d:\_project\stm32\f407\hack_rf_new\lvgl\src\lv_misc\lv_area.h **** #include <string.h>
  18:d:\_project\stm32\f407\hack_rf_new\lvgl\src\lv_misc\lv_area.h **** #include <stdbool.h>
ARM GAS  D:\Temp\ccfvNLhk.s 			page 35


  19:d:\_project\stm32\f407\hack_rf_new\lvgl\src\lv_misc\lv_area.h **** #include <stdint.h>
  20:d:\_project\stm32\f407\hack_rf_new\lvgl\src\lv_misc\lv_area.h **** #include "lv_mem.h"
  21:d:\_project\stm32\f407\hack_rf_new\lvgl\src\lv_misc\lv_area.h **** 
  22:d:\_project\stm32\f407\hack_rf_new\lvgl\src\lv_misc\lv_area.h **** /*********************
  23:d:\_project\stm32\f407\hack_rf_new\lvgl\src\lv_misc\lv_area.h ****  *      DEFINES
  24:d:\_project\stm32\f407\hack_rf_new\lvgl\src\lv_misc\lv_area.h ****  *********************/
  25:d:\_project\stm32\f407\hack_rf_new\lvgl\src\lv_misc\lv_area.h **** /*To avoid overflow don't let the max ranges (reduce with 1000) */
  26:d:\_project\stm32\f407\hack_rf_new\lvgl\src\lv_misc\lv_area.h **** #define LV_COORD_MAX ((lv_coord_t)((uint32_t)((uint32_t)1 << (8 * sizeof(lv_coord_t) - 1)) - 1000))
  27:d:\_project\stm32\f407\hack_rf_new\lvgl\src\lv_misc\lv_area.h **** #define LV_COORD_MIN (-LV_COORD_MAX)
  28:d:\_project\stm32\f407\hack_rf_new\lvgl\src\lv_misc\lv_area.h **** 
  29:d:\_project\stm32\f407\hack_rf_new\lvgl\src\lv_misc\lv_area.h **** LV_EXPORT_CONST_INT(LV_COORD_MAX);
  30:d:\_project\stm32\f407\hack_rf_new\lvgl\src\lv_misc\lv_area.h **** LV_EXPORT_CONST_INT(LV_COORD_MIN);
  31:d:\_project\stm32\f407\hack_rf_new\lvgl\src\lv_misc\lv_area.h **** 
  32:d:\_project\stm32\f407\hack_rf_new\lvgl\src\lv_misc\lv_area.h **** /**********************
  33:d:\_project\stm32\f407\hack_rf_new\lvgl\src\lv_misc\lv_area.h ****  *      TYPEDEFS
  34:d:\_project\stm32\f407\hack_rf_new\lvgl\src\lv_misc\lv_area.h ****  **********************/
  35:d:\_project\stm32\f407\hack_rf_new\lvgl\src\lv_misc\lv_area.h **** 
  36:d:\_project\stm32\f407\hack_rf_new\lvgl\src\lv_misc\lv_area.h **** /**
  37:d:\_project\stm32\f407\hack_rf_new\lvgl\src\lv_misc\lv_area.h ****  * Represents a point on the screen.
  38:d:\_project\stm32\f407\hack_rf_new\lvgl\src\lv_misc\lv_area.h ****  */
  39:d:\_project\stm32\f407\hack_rf_new\lvgl\src\lv_misc\lv_area.h **** typedef struct {
  40:d:\_project\stm32\f407\hack_rf_new\lvgl\src\lv_misc\lv_area.h ****     lv_coord_t x;
  41:d:\_project\stm32\f407\hack_rf_new\lvgl\src\lv_misc\lv_area.h ****     lv_coord_t y;
  42:d:\_project\stm32\f407\hack_rf_new\lvgl\src\lv_misc\lv_area.h **** } lv_point_t;
  43:d:\_project\stm32\f407\hack_rf_new\lvgl\src\lv_misc\lv_area.h **** 
  44:d:\_project\stm32\f407\hack_rf_new\lvgl\src\lv_misc\lv_area.h **** /** Represents an area of the screen. */
  45:d:\_project\stm32\f407\hack_rf_new\lvgl\src\lv_misc\lv_area.h **** typedef struct {
  46:d:\_project\stm32\f407\hack_rf_new\lvgl\src\lv_misc\lv_area.h ****     lv_coord_t x1;
  47:d:\_project\stm32\f407\hack_rf_new\lvgl\src\lv_misc\lv_area.h ****     lv_coord_t y1;
  48:d:\_project\stm32\f407\hack_rf_new\lvgl\src\lv_misc\lv_area.h ****     lv_coord_t x2;
  49:d:\_project\stm32\f407\hack_rf_new\lvgl\src\lv_misc\lv_area.h ****     lv_coord_t y2;
  50:d:\_project\stm32\f407\hack_rf_new\lvgl\src\lv_misc\lv_area.h **** } lv_area_t;
  51:d:\_project\stm32\f407\hack_rf_new\lvgl\src\lv_misc\lv_area.h **** 
  52:d:\_project\stm32\f407\hack_rf_new\lvgl\src\lv_misc\lv_area.h **** /** Alignments */
  53:d:\_project\stm32\f407\hack_rf_new\lvgl\src\lv_misc\lv_area.h **** enum {
  54:d:\_project\stm32\f407\hack_rf_new\lvgl\src\lv_misc\lv_area.h ****     LV_ALIGN_CENTER = 0,
  55:d:\_project\stm32\f407\hack_rf_new\lvgl\src\lv_misc\lv_area.h ****     LV_ALIGN_IN_TOP_LEFT,
  56:d:\_project\stm32\f407\hack_rf_new\lvgl\src\lv_misc\lv_area.h ****     LV_ALIGN_IN_TOP_MID,
  57:d:\_project\stm32\f407\hack_rf_new\lvgl\src\lv_misc\lv_area.h ****     LV_ALIGN_IN_TOP_RIGHT,
  58:d:\_project\stm32\f407\hack_rf_new\lvgl\src\lv_misc\lv_area.h ****     LV_ALIGN_IN_BOTTOM_LEFT,
  59:d:\_project\stm32\f407\hack_rf_new\lvgl\src\lv_misc\lv_area.h ****     LV_ALIGN_IN_BOTTOM_MID,
  60:d:\_project\stm32\f407\hack_rf_new\lvgl\src\lv_misc\lv_area.h ****     LV_ALIGN_IN_BOTTOM_RIGHT,
  61:d:\_project\stm32\f407\hack_rf_new\lvgl\src\lv_misc\lv_area.h ****     LV_ALIGN_IN_LEFT_MID,
  62:d:\_project\stm32\f407\hack_rf_new\lvgl\src\lv_misc\lv_area.h ****     LV_ALIGN_IN_RIGHT_MID,
  63:d:\_project\stm32\f407\hack_rf_new\lvgl\src\lv_misc\lv_area.h ****     LV_ALIGN_OUT_TOP_LEFT,
  64:d:\_project\stm32\f407\hack_rf_new\lvgl\src\lv_misc\lv_area.h ****     LV_ALIGN_OUT_TOP_MID,
  65:d:\_project\stm32\f407\hack_rf_new\lvgl\src\lv_misc\lv_area.h ****     LV_ALIGN_OUT_TOP_RIGHT,
  66:d:\_project\stm32\f407\hack_rf_new\lvgl\src\lv_misc\lv_area.h ****     LV_ALIGN_OUT_BOTTOM_LEFT,
  67:d:\_project\stm32\f407\hack_rf_new\lvgl\src\lv_misc\lv_area.h ****     LV_ALIGN_OUT_BOTTOM_MID,
  68:d:\_project\stm32\f407\hack_rf_new\lvgl\src\lv_misc\lv_area.h ****     LV_ALIGN_OUT_BOTTOM_RIGHT,
  69:d:\_project\stm32\f407\hack_rf_new\lvgl\src\lv_misc\lv_area.h ****     LV_ALIGN_OUT_LEFT_TOP,
  70:d:\_project\stm32\f407\hack_rf_new\lvgl\src\lv_misc\lv_area.h ****     LV_ALIGN_OUT_LEFT_MID,
  71:d:\_project\stm32\f407\hack_rf_new\lvgl\src\lv_misc\lv_area.h ****     LV_ALIGN_OUT_LEFT_BOTTOM,
  72:d:\_project\stm32\f407\hack_rf_new\lvgl\src\lv_misc\lv_area.h ****     LV_ALIGN_OUT_RIGHT_TOP,
  73:d:\_project\stm32\f407\hack_rf_new\lvgl\src\lv_misc\lv_area.h ****     LV_ALIGN_OUT_RIGHT_MID,
  74:d:\_project\stm32\f407\hack_rf_new\lvgl\src\lv_misc\lv_area.h ****     LV_ALIGN_OUT_RIGHT_BOTTOM,
  75:d:\_project\stm32\f407\hack_rf_new\lvgl\src\lv_misc\lv_area.h **** };
ARM GAS  D:\Temp\ccfvNLhk.s 			page 36


  76:d:\_project\stm32\f407\hack_rf_new\lvgl\src\lv_misc\lv_area.h **** typedef uint8_t lv_align_t;
  77:d:\_project\stm32\f407\hack_rf_new\lvgl\src\lv_misc\lv_area.h **** 
  78:d:\_project\stm32\f407\hack_rf_new\lvgl\src\lv_misc\lv_area.h **** /**********************
  79:d:\_project\stm32\f407\hack_rf_new\lvgl\src\lv_misc\lv_area.h ****  * GLOBAL PROTOTYPES
  80:d:\_project\stm32\f407\hack_rf_new\lvgl\src\lv_misc\lv_area.h ****  **********************/
  81:d:\_project\stm32\f407\hack_rf_new\lvgl\src\lv_misc\lv_area.h **** 
  82:d:\_project\stm32\f407\hack_rf_new\lvgl\src\lv_misc\lv_area.h **** /**
  83:d:\_project\stm32\f407\hack_rf_new\lvgl\src\lv_misc\lv_area.h ****  * Initialize an area
  84:d:\_project\stm32\f407\hack_rf_new\lvgl\src\lv_misc\lv_area.h ****  * @param area_p pointer to an area
  85:d:\_project\stm32\f407\hack_rf_new\lvgl\src\lv_misc\lv_area.h ****  * @param x1 left coordinate of the area
  86:d:\_project\stm32\f407\hack_rf_new\lvgl\src\lv_misc\lv_area.h ****  * @param y1 top coordinate of the area
  87:d:\_project\stm32\f407\hack_rf_new\lvgl\src\lv_misc\lv_area.h ****  * @param x2 right coordinate of the area
  88:d:\_project\stm32\f407\hack_rf_new\lvgl\src\lv_misc\lv_area.h ****  * @param y2 bottom coordinate of the area
  89:d:\_project\stm32\f407\hack_rf_new\lvgl\src\lv_misc\lv_area.h ****  */
  90:d:\_project\stm32\f407\hack_rf_new\lvgl\src\lv_misc\lv_area.h **** void lv_area_set(lv_area_t * area_p, lv_coord_t x1, lv_coord_t y1, lv_coord_t x2, lv_coord_t y2);
  91:d:\_project\stm32\f407\hack_rf_new\lvgl\src\lv_misc\lv_area.h **** 
  92:d:\_project\stm32\f407\hack_rf_new\lvgl\src\lv_misc\lv_area.h **** /**
  93:d:\_project\stm32\f407\hack_rf_new\lvgl\src\lv_misc\lv_area.h ****  * Copy an area
  94:d:\_project\stm32\f407\hack_rf_new\lvgl\src\lv_misc\lv_area.h ****  * @param dest pointer to the destination area
  95:d:\_project\stm32\f407\hack_rf_new\lvgl\src\lv_misc\lv_area.h ****  * @param src pointer to the source area
  96:d:\_project\stm32\f407\hack_rf_new\lvgl\src\lv_misc\lv_area.h ****  */
  97:d:\_project\stm32\f407\hack_rf_new\lvgl\src\lv_misc\lv_area.h **** inline static void lv_area_copy(lv_area_t * dest, const lv_area_t * src)
  98:d:\_project\stm32\f407\hack_rf_new\lvgl\src\lv_misc\lv_area.h **** {
  99:d:\_project\stm32\f407\hack_rf_new\lvgl\src\lv_misc\lv_area.h ****     _lv_memcpy_small(dest, src, sizeof(lv_area_t));
 100:d:\_project\stm32\f407\hack_rf_new\lvgl\src\lv_misc\lv_area.h **** }
 101:d:\_project\stm32\f407\hack_rf_new\lvgl\src\lv_misc\lv_area.h **** 
 102:d:\_project\stm32\f407\hack_rf_new\lvgl\src\lv_misc\lv_area.h **** /**
 103:d:\_project\stm32\f407\hack_rf_new\lvgl\src\lv_misc\lv_area.h ****  * Get the width of an area
 104:d:\_project\stm32\f407\hack_rf_new\lvgl\src\lv_misc\lv_area.h ****  * @param area_p pointer to an area
 105:d:\_project\stm32\f407\hack_rf_new\lvgl\src\lv_misc\lv_area.h ****  * @return the width of the area (if x1 == x2 -> width = 1)
 106:d:\_project\stm32\f407\hack_rf_new\lvgl\src\lv_misc\lv_area.h ****  */
 107:d:\_project\stm32\f407\hack_rf_new\lvgl\src\lv_misc\lv_area.h **** static inline lv_coord_t lv_area_get_width(const lv_area_t * area_p)
 577              		.loc 3 107 26 view .LVU158
 578              	.LBB76:
 108:d:\_project\stm32\f407\hack_rf_new\lvgl\src\lv_misc\lv_area.h **** {
 109:d:\_project\stm32\f407\hack_rf_new\lvgl\src\lv_misc\lv_area.h ****     return (lv_coord_t)(area_p->x2 - area_p->x1 + 1);
 579              		.loc 3 109 5 view .LVU159
 580              		.loc 3 109 31 is_stmt 0 view .LVU160
 581 002a BDF81030 		ldrh	r3, [sp, #16]
 582              		.loc 3 109 44 view .LVU161
 583 002e BDF80C20 		ldrh	r2, [sp, #12]
 584              		.loc 3 109 36 view .LVU162
 585 0032 9B1A     		subs	r3, r3, r2
 586 0034 9BB2     		uxth	r3, r3
 587              		.loc 3 109 49 view .LVU163
 588 0036 0133     		adds	r3, r3, #1
 589              		.loc 3 109 12 view .LVU164
 590 0038 1BB2     		sxth	r3, r3
 591              	.LVL57:
 592              		.loc 3 109 12 view .LVU165
 593              	.LBE76:
 594              	.LBE75:
 581:lvgl/src/lv_widgets/lv_cpicker.c ****     uint16_t i_step = LV_MATH_MAX(LV_CPICKER_DEF_QF, 360 / grad_w);
 595              		.loc 1 581 5 is_stmt 1 view .LVU166
 581:lvgl/src/lv_widgets/lv_cpicker.c ****     uint16_t i_step = LV_MATH_MAX(LV_CPICKER_DEF_QF, 360 / grad_w);
 596              		.loc 1 581 7 is_stmt 0 view .LVU167
 597 003a 002B     		cmp	r3, #0
ARM GAS  D:\Temp\ccfvNLhk.s 			page 37


 598 003c 40F39880 		ble	.L28
 582:lvgl/src/lv_widgets/lv_cpicker.c ****     bg_dsc.radius = 0;
 599              		.loc 1 582 5 is_stmt 1 view .LVU168
 582:lvgl/src/lv_widgets/lv_cpicker.c ****     bg_dsc.radius = 0;
 600              		.loc 1 582 23 is_stmt 0 view .LVU169
 601 0040 1D46     		mov	r5, r3
 602 0042 4FF4B477 		mov	r7, #360
 603 0046 97FBF3F7 		sdiv	r7, r7, r3
 604 004a 032F     		cmp	r7, #3
 605 004c B8BF     		it	lt
 606 004e 0327     		movlt	r7, #3
 582:lvgl/src/lv_widgets/lv_cpicker.c ****     bg_dsc.radius = 0;
 607              		.loc 1 582 14 view .LVU170
 608 0050 1FFA87F9 		uxth	r9, r7
 609              	.LVL58:
 583:lvgl/src/lv_widgets/lv_cpicker.c ****     bg_dsc.border_width = 0;
 610              		.loc 1 583 5 is_stmt 1 view .LVU171
 583:lvgl/src/lv_widgets/lv_cpicker.c ****     bg_dsc.border_width = 0;
 611              		.loc 1 583 19 is_stmt 0 view .LVU172
 612 0054 0024     		movs	r4, #0
 613 0056 ADF81440 		strh	r4, [sp, #20]	@ movhi
 584:lvgl/src/lv_widgets/lv_cpicker.c ****     bg_dsc.shadow_width = 0;
 614              		.loc 1 584 5 is_stmt 1 view .LVU173
 584:lvgl/src/lv_widgets/lv_cpicker.c ****     bg_dsc.shadow_width = 0;
 615              		.loc 1 584 25 is_stmt 0 view .LVU174
 616 005a ADF82440 		strh	r4, [sp, #36]	@ movhi
 585:lvgl/src/lv_widgets/lv_cpicker.c **** 
 617              		.loc 1 585 5 is_stmt 1 view .LVU175
 585:lvgl/src/lv_widgets/lv_cpicker.c **** 
 618              		.loc 1 585 25 is_stmt 0 view .LVU176
 619 005e ADF83640 		strh	r4, [sp, #54]	@ movhi
 587:lvgl/src/lv_widgets/lv_cpicker.c ****     for(i = 0; i < 360; i += i_step) {
 620              		.loc 1 587 5 is_stmt 1 view .LVU177
 588:lvgl/src/lv_widgets/lv_cpicker.c ****         bg_dsc.bg_color = angle_to_mode_color(cpicker, i);
 621              		.loc 1 588 5 view .LVU178
 622              	.LVL59:
 623              	.L33:
 588:lvgl/src/lv_widgets/lv_cpicker.c ****         bg_dsc.bg_color = angle_to_mode_color(cpicker, i);
 624              		.loc 1 588 5 is_stmt 0 discriminator 1 view .LVU179
 625 0062 B4F5B47F 		cmp	r4, #360
 626 0066 80F08380 		bcs	.L28
 627              	.LBB77:
 589:lvgl/src/lv_widgets/lv_cpicker.c **** 
 628              		.loc 1 589 9 is_stmt 1 discriminator 3 view .LVU180
 589:lvgl/src/lv_widgets/lv_cpicker.c **** 
 629              		.loc 1 589 27 is_stmt 0 discriminator 3 view .LVU181
 630 006a 2146     		mov	r1, r4
 631 006c 3046     		mov	r0, r6
 632 006e FFF7FEFF 		bl	angle_to_mode_color
 633              	.LVL60:
 634 0072 ADF81600 		strh	r0, [sp, #22]	@ movhi
 592:lvgl/src/lv_widgets/lv_cpicker.c **** 
 635              		.loc 1 592 9 is_stmt 1 discriminator 3 view .LVU182
 595:lvgl/src/lv_widgets/lv_cpicker.c ****         lv_coord_t xi2 = ((i + i_step) * grad_w) / 360;
 636              		.loc 1 595 9 discriminator 3 view .LVU183
 595:lvgl/src/lv_widgets/lv_cpicker.c ****         lv_coord_t xi2 = ((i + i_step) * grad_w) / 360;
 637              		.loc 1 595 28 is_stmt 0 discriminator 3 view .LVU184
ARM GAS  D:\Temp\ccfvNLhk.s 			page 38


 638 0076 04FB05FC 		mul	ip, r4, r5
 595:lvgl/src/lv_widgets/lv_cpicker.c ****         lv_coord_t xi2 = ((i + i_step) * grad_w) / 360;
 639              		.loc 1 595 38 discriminator 3 view .LVU185
 640 007a 3F49     		ldr	r1, .L37
 641 007c 81FB0C30 		smull	r3, r0, r1, ip
 642 0080 6044     		add	r0, r0, ip
 643 0082 4FEAEC7C 		asr	ip, ip, #31
 644 0086 CCEB2020 		rsb	r0, ip, r0, asr #8
 645              	.LVL61:
 596:lvgl/src/lv_widgets/lv_cpicker.c **** 
 646              		.loc 1 596 9 is_stmt 1 discriminator 3 view .LVU186
 647 008a 1FFA87FC 		uxth	ip, r7
 596:lvgl/src/lv_widgets/lv_cpicker.c **** 
 648              		.loc 1 596 30 is_stmt 0 discriminator 3 view .LVU187
 649 008e 04EB0C03 		add	r3, r4, ip
 596:lvgl/src/lv_widgets/lv_cpicker.c **** 
 650              		.loc 1 596 40 discriminator 3 view .LVU188
 651 0092 03FB05F3 		mul	r3, r3, r5
 596:lvgl/src/lv_widgets/lv_cpicker.c **** 
 652              		.loc 1 596 50 discriminator 3 view .LVU189
 653 0096 81FB0321 		smull	r2, r1, r1, r3
 654 009a 1944     		add	r1, r1, r3
 655 009c DB17     		asrs	r3, r3, #31
 656 009e C3EB2123 		rsb	r3, r3, r1, asr #8
 657              	.LVL62:
 598:lvgl/src/lv_widgets/lv_cpicker.c ****         rect_area.y1 = grad_area.y1;
 658              		.loc 1 598 9 is_stmt 1 discriminator 3 view .LVU190
 598:lvgl/src/lv_widgets/lv_cpicker.c ****         rect_area.y1 = grad_area.y1;
 659              		.loc 1 598 24 is_stmt 0 discriminator 3 view .LVU191
 660 00a2 BDF90CE0 		ldrsh	lr, [sp, #12]
 661 00a6 05EB0E01 		add	r1, r5, lr
 662 00aa A1EB0C02 		sub	r2, r1, ip
 663 00ae 0EFA80F0 		sxtah	r0, lr, r0
 664              	.LVL63:
 598:lvgl/src/lv_widgets/lv_cpicker.c ****         rect_area.y1 = grad_area.y1;
 665              		.loc 1 598 24 discriminator 3 view .LVU192
 666 00b2 9042     		cmp	r0, r2
 667 00b4 A8BF     		it	ge
 668 00b6 1046     		movge	r0, r2
 598:lvgl/src/lv_widgets/lv_cpicker.c ****         rect_area.y1 = grad_area.y1;
 669              		.loc 1 598 22 discriminator 3 view .LVU193
 670 00b8 ADF80400 		strh	r0, [sp, #4]	@ movhi
 599:lvgl/src/lv_widgets/lv_cpicker.c ****         rect_area.x2 = LV_MATH_MIN(grad_area.x1 + xi2, grad_area.x1 + grad_w - i_step);
 671              		.loc 1 599 9 is_stmt 1 discriminator 3 view .LVU194
 599:lvgl/src/lv_widgets/lv_cpicker.c ****         rect_area.x2 = LV_MATH_MIN(grad_area.x1 + xi2, grad_area.x1 + grad_w - i_step);
 672              		.loc 1 599 33 is_stmt 0 discriminator 3 view .LVU195
 673 00bc BDF90E10 		ldrsh	r1, [sp, #14]
 599:lvgl/src/lv_widgets/lv_cpicker.c ****         rect_area.x2 = LV_MATH_MIN(grad_area.x1 + xi2, grad_area.x1 + grad_w - i_step);
 674              		.loc 1 599 22 discriminator 3 view .LVU196
 675 00c0 ADF80610 		strh	r1, [sp, #6]	@ movhi
 600:lvgl/src/lv_widgets/lv_cpicker.c ****         rect_area.y2 = grad_area.y2;
 676              		.loc 1 600 9 is_stmt 1 discriminator 3 view .LVU197
 600:lvgl/src/lv_widgets/lv_cpicker.c ****         rect_area.y2 = grad_area.y2;
 677              		.loc 1 600 24 is_stmt 0 discriminator 3 view .LVU198
 678 00c4 0EFA83F3 		sxtah	r3, lr, r3
 679              	.LVL64:
 600:lvgl/src/lv_widgets/lv_cpicker.c ****         rect_area.y2 = grad_area.y2;
ARM GAS  D:\Temp\ccfvNLhk.s 			page 39


 680              		.loc 1 600 24 discriminator 3 view .LVU199
 681 00c8 9A42     		cmp	r2, r3
 682 00ca A8BF     		it	ge
 683 00cc 1A46     		movge	r2, r3
 600:lvgl/src/lv_widgets/lv_cpicker.c ****         rect_area.y2 = grad_area.y2;
 684              		.loc 1 600 22 discriminator 3 view .LVU200
 685 00ce ADF80820 		strh	r2, [sp, #8]	@ movhi
 601:lvgl/src/lv_widgets/lv_cpicker.c **** 
 686              		.loc 1 601 9 is_stmt 1 discriminator 3 view .LVU201
 601:lvgl/src/lv_widgets/lv_cpicker.c **** 
 687              		.loc 1 601 33 is_stmt 0 discriminator 3 view .LVU202
 688 00d2 BDF91230 		ldrsh	r3, [sp, #18]
 601:lvgl/src/lv_widgets/lv_cpicker.c **** 
 689              		.loc 1 601 22 discriminator 3 view .LVU203
 690 00d6 ADF80A30 		strh	r3, [sp, #10]	@ movhi
 603:lvgl/src/lv_widgets/lv_cpicker.c ****     }
 691              		.loc 1 603 9 is_stmt 1 discriminator 3 view .LVU204
 692 00da 05AA     		add	r2, sp, #20
 693 00dc 4146     		mov	r1, r8
 694 00de 01A8     		add	r0, sp, #4
 695 00e0 FFF7FEFF 		bl	lv_draw_rect
 696              	.LVL65:
 603:lvgl/src/lv_widgets/lv_cpicker.c ****     }
 697              		.loc 1 603 9 is_stmt 0 discriminator 3 view .LVU205
 698              	.LBE77:
 588:lvgl/src/lv_widgets/lv_cpicker.c ****         bg_dsc.bg_color = angle_to_mode_color(cpicker, i);
 699              		.loc 1 588 27 discriminator 3 view .LVU206
 700 00e4 4C44     		add	r4, r4, r9
 701              	.LVL66:
 588:lvgl/src/lv_widgets/lv_cpicker.c ****         bg_dsc.bg_color = angle_to_mode_color(cpicker, i);
 702              		.loc 1 588 27 discriminator 3 view .LVU207
 703 00e6 A4B2     		uxth	r4, r4
 704              	.LVL67:
 588:lvgl/src/lv_widgets/lv_cpicker.c ****         bg_dsc.bg_color = angle_to_mode_color(cpicker, i);
 705              		.loc 1 588 27 discriminator 3 view .LVU208
 706 00e8 BBE7     		b	.L33
 707              	.LVL68:
 708              	.L36:
 709              	.LBB78:
 555:lvgl/src/lv_widgets/lv_cpicker.c ****         lv_coord_t r = bg_dsc.radius;
 710              		.loc 1 555 9 is_stmt 1 view .LVU209
 555:lvgl/src/lv_widgets/lv_cpicker.c ****         lv_coord_t r = bg_dsc.radius;
 711              		.loc 1 555 24 is_stmt 0 view .LVU210
 712 00ea 3046     		mov	r0, r6
 713 00ec FFF7FEFF 		bl	lv_obj_get_height
 714              	.LVL69:
 556:lvgl/src/lv_widgets/lv_cpicker.c ****         if(r > h / 2) r = h / 2;
 715              		.loc 1 556 9 is_stmt 1 view .LVU211
 556:lvgl/src/lv_widgets/lv_cpicker.c ****         if(r > h / 2) r = h / 2;
 716              		.loc 1 556 20 is_stmt 0 view .LVU212
 717 00f0 BDF91430 		ldrsh	r3, [sp, #20]
 718              	.LVL70:
 557:lvgl/src/lv_widgets/lv_cpicker.c ****         /*Make the gradient area smaller with a half circle on both ends*/
 719              		.loc 1 557 9 is_stmt 1 view .LVU213
 557:lvgl/src/lv_widgets/lv_cpicker.c ****         /*Make the gradient area smaller with a half circle on both ends*/
 720              		.loc 1 557 14 is_stmt 0 view .LVU214
 721 00f4 00EBD070 		add	r0, r0, r0, lsr #31
ARM GAS  D:\Temp\ccfvNLhk.s 			page 40


 722              	.LVL71:
 557:lvgl/src/lv_widgets/lv_cpicker.c ****         /*Make the gradient area smaller with a half circle on both ends*/
 723              		.loc 1 557 14 view .LVU215
 724 00f8 40F34F04 		sbfx	r4, r0, #1, #16
 557:lvgl/src/lv_widgets/lv_cpicker.c ****         /*Make the gradient area smaller with a half circle on both ends*/
 725              		.loc 1 557 11 view .LVU216
 726 00fc 9C42     		cmp	r4, r3
 727 00fe 00DB     		blt	.L30
 556:lvgl/src/lv_widgets/lv_cpicker.c ****         if(r > h / 2) r = h / 2;
 728              		.loc 1 556 20 view .LVU217
 729 0100 1C46     		mov	r4, r3
 730              	.L30:
 731              	.LVL72:
 559:lvgl/src/lv_widgets/lv_cpicker.c ****         grad_area.x2 -= r;
 732              		.loc 1 559 9 is_stmt 1 view .LVU218
 559:lvgl/src/lv_widgets/lv_cpicker.c ****         grad_area.x2 -= r;
 733              		.loc 1 559 22 is_stmt 0 view .LVU219
 734 0102 A4B2     		uxth	r4, r4
 559:lvgl/src/lv_widgets/lv_cpicker.c ****         grad_area.x2 -= r;
 735              		.loc 1 559 22 view .LVU220
 736 0104 BDF80C30 		ldrh	r3, [sp, #12]
 737 0108 2344     		add	r3, r3, r4
 738 010a ADF80C30 		strh	r3, [sp, #12]	@ movhi
 560:lvgl/src/lv_widgets/lv_cpicker.c **** 
 739              		.loc 1 560 9 is_stmt 1 view .LVU221
 560:lvgl/src/lv_widgets/lv_cpicker.c **** 
 740              		.loc 1 560 22 is_stmt 0 view .LVU222
 741 010e BDF81030 		ldrh	r3, [sp, #16]
 742 0112 1B1B     		subs	r3, r3, r4
 743 0114 ADF81030 		strh	r3, [sp, #16]	@ movhi
 563:lvgl/src/lv_widgets/lv_cpicker.c ****         lv_obj_get_coords(cpicker, &rounded_edge_area);
 744              		.loc 1 563 9 is_stmt 1 view .LVU223
 564:lvgl/src/lv_widgets/lv_cpicker.c ****         rounded_edge_area.x2 = rounded_edge_area.x1 + 2 * r;
 745              		.loc 1 564 9 view .LVU224
 746 0118 01A9     		add	r1, sp, #4
 747 011a 3046     		mov	r0, r6
 748 011c FFF7FEFF 		bl	lv_obj_get_coords
 749              	.LVL73:
 565:lvgl/src/lv_widgets/lv_cpicker.c **** 
 750              		.loc 1 565 9 view .LVU225
 565:lvgl/src/lv_widgets/lv_cpicker.c **** 
 751              		.loc 1 565 49 is_stmt 0 view .LVU226
 752 0120 BDF80430 		ldrh	r3, [sp, #4]
 565:lvgl/src/lv_widgets/lv_cpicker.c **** 
 753              		.loc 1 565 57 view .LVU227
 754 0124 6400     		lsls	r4, r4, #1
 755              	.LVL74:
 565:lvgl/src/lv_widgets/lv_cpicker.c **** 
 756              		.loc 1 565 57 view .LVU228
 757 0126 A4B2     		uxth	r4, r4
 565:lvgl/src/lv_widgets/lv_cpicker.c **** 
 758              		.loc 1 565 53 view .LVU229
 759 0128 2344     		add	r3, r3, r4
 565:lvgl/src/lv_widgets/lv_cpicker.c **** 
 760              		.loc 1 565 30 view .LVU230
 761 012a ADF80830 		strh	r3, [sp, #8]	@ movhi
 567:lvgl/src/lv_widgets/lv_cpicker.c **** 
ARM GAS  D:\Temp\ccfvNLhk.s 			page 41


 762              		.loc 1 567 9 is_stmt 1 view .LVU231
 567:lvgl/src/lv_widgets/lv_cpicker.c **** 
 763              		.loc 1 567 27 is_stmt 0 view .LVU232
 764 012e 0021     		movs	r1, #0
 765 0130 3046     		mov	r0, r6
 766 0132 FFF7FEFF 		bl	angle_to_mode_color
 767              	.LVL75:
 768 0136 ADF81600 		strh	r0, [sp, #22]	@ movhi
 569:lvgl/src/lv_widgets/lv_cpicker.c **** 
 769              		.loc 1 569 9 is_stmt 1 view .LVU233
 770 013a 05AA     		add	r2, sp, #20
 771 013c 4146     		mov	r1, r8
 772 013e 01A8     		add	r0, sp, #4
 773 0140 FFF7FEFF 		bl	lv_draw_rect
 774              	.LVL76:
 572:lvgl/src/lv_widgets/lv_cpicker.c ****         rounded_edge_area.x1 = rounded_edge_area.x2 - 2 * r;
 775              		.loc 1 572 9 view .LVU234
 776 0144 01A9     		add	r1, sp, #4
 777 0146 3046     		mov	r0, r6
 778 0148 FFF7FEFF 		bl	lv_obj_get_coords
 779              	.LVL77:
 573:lvgl/src/lv_widgets/lv_cpicker.c **** 
 780              		.loc 1 573 9 view .LVU235
 573:lvgl/src/lv_widgets/lv_cpicker.c **** 
 781              		.loc 1 573 49 is_stmt 0 view .LVU236
 782 014c BDF80830 		ldrh	r3, [sp, #8]
 573:lvgl/src/lv_widgets/lv_cpicker.c **** 
 783              		.loc 1 573 53 view .LVU237
 784 0150 1C1B     		subs	r4, r3, r4
 573:lvgl/src/lv_widgets/lv_cpicker.c **** 
 785              		.loc 1 573 30 view .LVU238
 786 0152 ADF80440 		strh	r4, [sp, #4]	@ movhi
 575:lvgl/src/lv_widgets/lv_cpicker.c **** 
 787              		.loc 1 575 9 is_stmt 1 view .LVU239
 575:lvgl/src/lv_widgets/lv_cpicker.c **** 
 788              		.loc 1 575 27 is_stmt 0 view .LVU240
 789 0156 40F26711 		movw	r1, #359
 790 015a 3046     		mov	r0, r6
 791 015c FFF7FEFF 		bl	angle_to_mode_color
 792              	.LVL78:
 793 0160 ADF81600 		strh	r0, [sp, #22]	@ movhi
 577:lvgl/src/lv_widgets/lv_cpicker.c ****     }
 794              		.loc 1 577 9 is_stmt 1 view .LVU241
 795 0164 05AA     		add	r2, sp, #20
 796 0166 4146     		mov	r1, r8
 797 0168 01A8     		add	r0, sp, #4
 798 016a FFF7FEFF 		bl	lv_draw_rect
 799              	.LVL79:
 800 016e 5CE7     		b	.L29
 801              	.L28:
 577:lvgl/src/lv_widgets/lv_cpicker.c ****     }
 802              		.loc 1 577 9 is_stmt 0 view .LVU242
 803              	.LBE78:
 605:lvgl/src/lv_widgets/lv_cpicker.c **** 
 804              		.loc 1 605 1 view .LVU243
 805 0170 1BB0     		add	sp, sp, #108
 806              	.LCFI6:
ARM GAS  D:\Temp\ccfvNLhk.s 			page 42


 807              		.cfi_def_cfa_offset 28
 808              		@ sp needed
 809 0172 BDE8F083 		pop	{r4, r5, r6, r7, r8, r9, pc}
 810              	.LVL80:
 811              	.L38:
 605:lvgl/src/lv_widgets/lv_cpicker.c **** 
 812              		.loc 1 605 1 view .LVU244
 813 0176 00BF     		.align	2
 814              	.L37:
 815 0178 B7600BB6 		.word	-1240768329
 816              		.cfi_endproc
 817              	.LFE478:
 819              		.section	.text.lv_cpicker_hit,"ax",%progbits
 820              		.align	1
 821              		.syntax unified
 822              		.thumb
 823              		.thumb_func
 824              		.fpu fpv4-sp-d16
 826              	lv_cpicker_hit:
 827              	.LVL81:
 828              	.LFB484:
 906:lvgl/src/lv_widgets/lv_cpicker.c ****     bool is_point_on_coords = lv_obj_is_point_on_coords(cpicker, p);
 829              		.loc 1 906 1 is_stmt 1 view -0
 830              		.cfi_startproc
 831              		@ args = 0, pretend = 0, frame = 0
 832              		@ frame_needed = 0, uses_anonymous_args = 0
 906:lvgl/src/lv_widgets/lv_cpicker.c ****     bool is_point_on_coords = lv_obj_is_point_on_coords(cpicker, p);
 833              		.loc 1 906 1 is_stmt 0 view .LVU246
 834 0000 70B5     		push	{r4, r5, r6, lr}
 835              	.LCFI7:
 836              		.cfi_def_cfa_offset 16
 837              		.cfi_offset 4, -16
 838              		.cfi_offset 5, -12
 839              		.cfi_offset 6, -8
 840              		.cfi_offset 14, -4
 841 0002 0546     		mov	r5, r0
 842 0004 0E46     		mov	r6, r1
 907:lvgl/src/lv_widgets/lv_cpicker.c ****     if(!is_point_on_coords)
 843              		.loc 1 907 5 is_stmt 1 view .LVU247
 907:lvgl/src/lv_widgets/lv_cpicker.c ****     if(!is_point_on_coords)
 844              		.loc 1 907 31 is_stmt 0 view .LVU248
 845 0006 FFF7FEFF 		bl	lv_obj_is_point_on_coords
 846              	.LVL82:
 908:lvgl/src/lv_widgets/lv_cpicker.c ****         return false;
 847              		.loc 1 908 5 is_stmt 1 view .LVU249
 908:lvgl/src/lv_widgets/lv_cpicker.c ****         return false;
 848              		.loc 1 908 7 is_stmt 0 view .LVU250
 849 000a 0446     		mov	r4, r0
 850 000c 08B9     		cbnz	r0, .L42
 851              	.LVL83:
 852              	.L40:
 918:lvgl/src/lv_widgets/lv_cpicker.c **** 
 853              		.loc 1 918 1 view .LVU251
 854 000e 2046     		mov	r0, r4
 855 0010 70BD     		pop	{r4, r5, r6, pc}
 856              	.LVL84:
 857              	.L42:
ARM GAS  D:\Temp\ccfvNLhk.s 			page 43


 911:lvgl/src/lv_widgets/lv_cpicker.c ****     if(ext->type == LV_CPICKER_TYPE_RECT)
 858              		.loc 1 911 5 is_stmt 1 view .LVU252
 911:lvgl/src/lv_widgets/lv_cpicker.c ****     if(ext->type == LV_CPICKER_TYPE_RECT)
 859              		.loc 1 911 50 is_stmt 0 view .LVU253
 860 0012 2846     		mov	r0, r5
 861              	.LVL85:
 911:lvgl/src/lv_widgets/lv_cpicker.c ****     if(ext->type == LV_CPICKER_TYPE_RECT)
 862              		.loc 1 911 50 view .LVU254
 863 0014 FFF7FEFF 		bl	lv_obj_get_ext_attr
 864              	.LVL86:
 912:lvgl/src/lv_widgets/lv_cpicker.c ****         return true;
 865              		.loc 1 912 5 is_stmt 1 view .LVU255
 912:lvgl/src/lv_widgets/lv_cpicker.c ****         return true;
 866              		.loc 1 912 18 is_stmt 0 view .LVU256
 867 0018 90F82030 		ldrb	r3, [r0, #32]	@ zero_extendqisi2
 912:lvgl/src/lv_widgets/lv_cpicker.c ****         return true;
 868              		.loc 1 912 7 view .LVU257
 869 001c 13F0080F 		tst	r3, #8
 870 0020 F5D0     		beq	.L40
 916:lvgl/src/lv_widgets/lv_cpicker.c ****     else return false;
 871              		.loc 1 916 5 is_stmt 1 view .LVU258
 916:lvgl/src/lv_widgets/lv_cpicker.c ****     else return false;
 872              		.loc 1 916 8 is_stmt 0 view .LVU259
 873 0022 47F6FF72 		movw	r2, #32767
 874 0026 3146     		mov	r1, r6
 875 0028 05F11000 		add	r0, r5, #16
 876              	.LVL87:
 916:lvgl/src/lv_widgets/lv_cpicker.c ****     else return false;
 877              		.loc 1 916 8 view .LVU260
 878 002c FFF7FEFF 		bl	_lv_area_is_point_on
 879              	.LVL88:
 880 0030 0446     		mov	r4, r0
 881 0032 ECE7     		b	.L40
 882              		.cfi_endproc
 883              	.LFE484:
 885              		.section	.text.invalidate_knob,"ax",%progbits
 886              		.align	1
 887              		.syntax unified
 888              		.thumb
 889              		.thumb_func
 890              		.fpu fpv4-sp-d16
 892              	invalidate_knob:
 893              	.LVL89:
 894              	.LFB480:
 627:lvgl/src/lv_widgets/lv_cpicker.c ****     lv_area_t knob_area = get_knob_area(cpicker);
 895              		.loc 1 627 1 is_stmt 1 view -0
 896              		.cfi_startproc
 897              		@ args = 0, pretend = 0, frame = 8
 898              		@ frame_needed = 0, uses_anonymous_args = 0
 627:lvgl/src/lv_widgets/lv_cpicker.c ****     lv_area_t knob_area = get_knob_area(cpicker);
 899              		.loc 1 627 1 is_stmt 0 view .LVU262
 900 0000 10B5     		push	{r4, lr}
 901              	.LCFI8:
 902              		.cfi_def_cfa_offset 8
 903              		.cfi_offset 4, -8
 904              		.cfi_offset 14, -4
 905 0002 82B0     		sub	sp, sp, #8
ARM GAS  D:\Temp\ccfvNLhk.s 			page 44


 906              	.LCFI9:
 907              		.cfi_def_cfa_offset 16
 908 0004 0446     		mov	r4, r0
 628:lvgl/src/lv_widgets/lv_cpicker.c **** 
 909              		.loc 1 628 5 is_stmt 1 view .LVU263
 628:lvgl/src/lv_widgets/lv_cpicker.c **** 
 910              		.loc 1 628 27 is_stmt 0 view .LVU264
 911 0006 0146     		mov	r1, r0
 912 0008 6846     		mov	r0, sp
 913              	.LVL90:
 628:lvgl/src/lv_widgets/lv_cpicker.c **** 
 914              		.loc 1 628 27 view .LVU265
 915 000a FFF7FEFF 		bl	get_knob_area
 916              	.LVL91:
 630:lvgl/src/lv_widgets/lv_cpicker.c **** }
 917              		.loc 1 630 5 is_stmt 1 view .LVU266
 918 000e 6946     		mov	r1, sp
 919 0010 2046     		mov	r0, r4
 920 0012 FFF7FEFF 		bl	lv_obj_invalidate_area
 921              	.LVL92:
 631:lvgl/src/lv_widgets/lv_cpicker.c **** 
 922              		.loc 1 631 1 is_stmt 0 view .LVU267
 923 0016 02B0     		add	sp, sp, #8
 924              	.LCFI10:
 925              		.cfi_def_cfa_offset 8
 926              		@ sp needed
 927 0018 10BD     		pop	{r4, pc}
 631:lvgl/src/lv_widgets/lv_cpicker.c **** 
 928              		.loc 1 631 1 view .LVU268
 929              		.cfi_endproc
 930              	.LFE480:
 932              		.section	.text.refr_knob_pos,"ax",%progbits
 933              		.align	1
 934              		.syntax unified
 935              		.thumb
 936              		.thumb_func
 937              		.fpu fpv4-sp-d16
 939              	refr_knob_pos:
 940              	.LVL93:
 941              	.LFB486:
 929:lvgl/src/lv_widgets/lv_cpicker.c ****     invalidate_knob(cpicker);
 942              		.loc 1 929 1 is_stmt 1 view -0
 943              		.cfi_startproc
 944              		@ args = 0, pretend = 0, frame = 0
 945              		@ frame_needed = 0, uses_anonymous_args = 0
 929:lvgl/src/lv_widgets/lv_cpicker.c ****     invalidate_knob(cpicker);
 946              		.loc 1 929 1 is_stmt 0 view .LVU270
 947 0000 2DE9F843 		push	{r3, r4, r5, r6, r7, r8, r9, lr}
 948              	.LCFI11:
 949              		.cfi_def_cfa_offset 32
 950              		.cfi_offset 3, -32
 951              		.cfi_offset 4, -28
 952              		.cfi_offset 5, -24
 953              		.cfi_offset 6, -20
 954              		.cfi_offset 7, -16
 955              		.cfi_offset 8, -12
 956              		.cfi_offset 9, -8
ARM GAS  D:\Temp\ccfvNLhk.s 			page 45


 957              		.cfi_offset 14, -4
 958 0004 0646     		mov	r6, r0
 930:lvgl/src/lv_widgets/lv_cpicker.c **** 
 959              		.loc 1 930 5 is_stmt 1 view .LVU271
 960 0006 FFF7FEFF 		bl	invalidate_knob
 961              	.LVL94:
 932:lvgl/src/lv_widgets/lv_cpicker.c ****     lv_coord_t w = lv_obj_get_width(cpicker);
 962              		.loc 1 932 5 view .LVU272
 932:lvgl/src/lv_widgets/lv_cpicker.c ****     lv_coord_t w = lv_obj_get_width(cpicker);
 963              		.loc 1 932 30 is_stmt 0 view .LVU273
 964 000a 3046     		mov	r0, r6
 965 000c FFF7FEFF 		bl	lv_obj_get_ext_attr
 966              	.LVL95:
 967 0010 0546     		mov	r5, r0
 968              	.LVL96:
 933:lvgl/src/lv_widgets/lv_cpicker.c ****     lv_coord_t h = lv_obj_get_height(cpicker);
 969              		.loc 1 933 5 is_stmt 1 view .LVU274
 933:lvgl/src/lv_widgets/lv_cpicker.c ****     lv_coord_t h = lv_obj_get_height(cpicker);
 970              		.loc 1 933 20 is_stmt 0 view .LVU275
 971 0012 3046     		mov	r0, r6
 972              	.LVL97:
 933:lvgl/src/lv_widgets/lv_cpicker.c ****     lv_coord_t h = lv_obj_get_height(cpicker);
 973              		.loc 1 933 20 view .LVU276
 974 0014 FFF7FEFF 		bl	lv_obj_get_width
 975              	.LVL98:
 976 0018 0746     		mov	r7, r0
 977              	.LVL99:
 934:lvgl/src/lv_widgets/lv_cpicker.c **** 
 978              		.loc 1 934 5 is_stmt 1 view .LVU277
 934:lvgl/src/lv_widgets/lv_cpicker.c **** 
 979              		.loc 1 934 20 is_stmt 0 view .LVU278
 980 001a 3046     		mov	r0, r6
 981 001c FFF7FEFF 		bl	lv_obj_get_height
 982              	.LVL100:
 983 0020 0446     		mov	r4, r0
 984              	.LVL101:
 936:lvgl/src/lv_widgets/lv_cpicker.c ****         lv_coord_t ind_pos = 0;
 985              		.loc 1 936 5 is_stmt 1 view .LVU279
 936:lvgl/src/lv_widgets/lv_cpicker.c ****         lv_coord_t ind_pos = 0;
 986              		.loc 1 936 18 is_stmt 0 view .LVU280
 987 0022 95F82030 		ldrb	r3, [r5, #32]	@ zero_extendqisi2
 936:lvgl/src/lv_widgets/lv_cpicker.c ****         lv_coord_t ind_pos = 0;
 988              		.loc 1 936 7 view .LVU281
 989 0026 13F0080F 		tst	r3, #8
 990 002a 35D1     		bne	.L46
 991              	.LBB79:
 937:lvgl/src/lv_widgets/lv_cpicker.c ****         switch(ext->color_mode) {
 992              		.loc 1 937 9 is_stmt 1 view .LVU282
 993              	.LVL102:
 938:lvgl/src/lv_widgets/lv_cpicker.c ****             case LV_CPICKER_COLOR_MODE_HUE:
 994              		.loc 1 938 9 view .LVU283
 938:lvgl/src/lv_widgets/lv_cpicker.c ****             case LV_CPICKER_COLOR_MODE_HUE:
 995              		.loc 1 938 19 is_stmt 0 view .LVU284
 996 002c C3F30103 		ubfx	r3, r3, #0, #2
 997 0030 DAB2     		uxtb	r2, r3
 938:lvgl/src/lv_widgets/lv_cpicker.c ****             case LV_CPICKER_COLOR_MODE_HUE:
 998              		.loc 1 938 9 view .LVU285
ARM GAS  D:\Temp\ccfvNLhk.s 			page 46


 999 0032 012A     		cmp	r2, #1
 1000 0034 1AD0     		beq	.L47
 1001 0036 5BB2     		sxtb	r3, r3
 1002 0038 63B1     		cbz	r3, .L48
 1003 003a 022A     		cmp	r2, #2
 1004 003c 21D0     		beq	.L49
 937:lvgl/src/lv_widgets/lv_cpicker.c ****         switch(ext->color_mode) {
 1005              		.loc 1 937 20 view .LVU286
 1006 003e 0023     		movs	r3, #0
 1007              	.LVL103:
 1008              	.L50:
 950:lvgl/src/lv_widgets/lv_cpicker.c ****         ext->knob.pos.y = h / 2;
 1009              		.loc 1 950 9 is_stmt 1 view .LVU287
 950:lvgl/src/lv_widgets/lv_cpicker.c ****         ext->knob.pos.y = h / 2;
 1010              		.loc 1 950 25 is_stmt 0 view .LVU288
 1011 0040 AB81     		strh	r3, [r5, #12]	@ movhi
 951:lvgl/src/lv_widgets/lv_cpicker.c ****     }
 1012              		.loc 1 951 9 is_stmt 1 view .LVU289
 951:lvgl/src/lv_widgets/lv_cpicker.c ****     }
 1013              		.loc 1 951 25 is_stmt 0 view .LVU290
 1014 0042 04EBD474 		add	r4, r4, r4, lsr #31
 1015              	.LVL104:
 951:lvgl/src/lv_widgets/lv_cpicker.c ****     }
 1016              		.loc 1 951 25 view .LVU291
 1017 0046 6410     		asrs	r4, r4, #1
 1018 0048 EC81     		strh	r4, [r5, #14]	@ movhi
 1019              	.LVL105:
 1020              	.L51:
 951:lvgl/src/lv_widgets/lv_cpicker.c ****     }
 1021              		.loc 1 951 25 view .LVU292
 1022              	.LBE79:
 963:lvgl/src/lv_widgets/lv_cpicker.c **** }
 1023              		.loc 1 963 5 is_stmt 1 view .LVU293
 1024 004a 3046     		mov	r0, r6
 1025 004c FFF7FEFF 		bl	invalidate_knob
 1026              	.LVL106:
 964:lvgl/src/lv_widgets/lv_cpicker.c **** 
 1027              		.loc 1 964 1 is_stmt 0 view .LVU294
 1028 0050 BDE8F883 		pop	{r3, r4, r5, r6, r7, r8, r9, pc}
 1029              	.LVL107:
 1030              	.L48:
 1031              	.LBB80:
 940:lvgl/src/lv_widgets/lv_cpicker.c ****                 break;
 1032              		.loc 1 940 17 is_stmt 1 view .LVU295
 940:lvgl/src/lv_widgets/lv_cpicker.c ****                 break;
 1033              		.loc 1 940 37 is_stmt 0 view .LVU296
 1034 0054 2888     		ldrh	r0, [r5]
 940:lvgl/src/lv_widgets/lv_cpicker.c ****                 break;
 1035              		.loc 1 940 40 view .LVU297
 1036 0056 00FB07F0 		mul	r0, r0, r7
 940:lvgl/src/lv_widgets/lv_cpicker.c ****                 break;
 1037              		.loc 1 940 45 view .LVU298
 1038 005a 244B     		ldr	r3, .L53
 1039 005c 83FB0023 		smull	r2, r3, r3, r0
 1040 0060 1A18     		adds	r2, r3, r0
 1041 0062 C317     		asrs	r3, r0, #31
 1042 0064 C3EB2223 		rsb	r3, r3, r2, asr #8
ARM GAS  D:\Temp\ccfvNLhk.s 			page 47


 940:lvgl/src/lv_widgets/lv_cpicker.c ****                 break;
 1043              		.loc 1 940 25 view .LVU299
 1044 0068 1BB2     		sxth	r3, r3
 1045              	.LVL108:
 941:lvgl/src/lv_widgets/lv_cpicker.c ****             case LV_CPICKER_COLOR_MODE_SATURATION:
 1046              		.loc 1 941 17 is_stmt 1 view .LVU300
 1047 006a E9E7     		b	.L50
 1048              	.LVL109:
 1049              	.L47:
 943:lvgl/src/lv_widgets/lv_cpicker.c ****                 break;
 1050              		.loc 1 943 17 view .LVU301
 943:lvgl/src/lv_widgets/lv_cpicker.c ****                 break;
 1051              		.loc 1 943 37 is_stmt 0 view .LVU302
 1052 006c A878     		ldrb	r0, [r5, #2]	@ zero_extendqisi2
 943:lvgl/src/lv_widgets/lv_cpicker.c ****                 break;
 1053              		.loc 1 943 40 view .LVU303
 1054 006e 00FB07F0 		mul	r0, r0, r7
 943:lvgl/src/lv_widgets/lv_cpicker.c ****                 break;
 1055              		.loc 1 943 45 view .LVU304
 1056 0072 1F4B     		ldr	r3, .L53+4
 1057 0074 83FB0023 		smull	r2, r3, r3, r0
 1058 0078 C017     		asrs	r0, r0, #31
 1059 007a C0EB6313 		rsb	r3, r0, r3, asr #5
 943:lvgl/src/lv_widgets/lv_cpicker.c ****                 break;
 1060              		.loc 1 943 25 view .LVU305
 1061 007e 1BB2     		sxth	r3, r3
 1062              	.LVL110:
 944:lvgl/src/lv_widgets/lv_cpicker.c ****             case LV_CPICKER_COLOR_MODE_VALUE:
 1063              		.loc 1 944 17 is_stmt 1 view .LVU306
 1064 0080 DEE7     		b	.L50
 1065              	.LVL111:
 1066              	.L49:
 946:lvgl/src/lv_widgets/lv_cpicker.c ****                 break;
 1067              		.loc 1 946 17 view .LVU307
 946:lvgl/src/lv_widgets/lv_cpicker.c ****                 break;
 1068              		.loc 1 946 37 is_stmt 0 view .LVU308
 1069 0082 E878     		ldrb	r0, [r5, #3]	@ zero_extendqisi2
 946:lvgl/src/lv_widgets/lv_cpicker.c ****                 break;
 1070              		.loc 1 946 40 view .LVU309
 1071 0084 00FB07F0 		mul	r0, r0, r7
 946:lvgl/src/lv_widgets/lv_cpicker.c ****                 break;
 1072              		.loc 1 946 45 view .LVU310
 1073 0088 194A     		ldr	r2, .L53+4
 1074 008a 82FB0032 		smull	r3, r2, r2, r0
 1075 008e C317     		asrs	r3, r0, #31
 1076 0090 C3EB6213 		rsb	r3, r3, r2, asr #5
 946:lvgl/src/lv_widgets/lv_cpicker.c ****                 break;
 1077              		.loc 1 946 25 view .LVU311
 1078 0094 1BB2     		sxth	r3, r3
 1079              	.LVL112:
 947:lvgl/src/lv_widgets/lv_cpicker.c ****         }
 1080              		.loc 1 947 17 is_stmt 1 view .LVU312
 1081 0096 D3E7     		b	.L50
 1082              	.LVL113:
 1083              	.L46:
 947:lvgl/src/lv_widgets/lv_cpicker.c ****         }
 1084              		.loc 1 947 17 is_stmt 0 view .LVU313
ARM GAS  D:\Temp\ccfvNLhk.s 			page 48


 1085              	.LBE80:
 953:lvgl/src/lv_widgets/lv_cpicker.c ****         lv_style_int_t scale_w = lv_obj_get_style_scale_width(cpicker, LV_CPICKER_PART_MAIN);
 1086              		.loc 1 953 10 is_stmt 1 view .LVU314
 1087              	.LBB81:
 954:lvgl/src/lv_widgets/lv_cpicker.c ****         lv_coord_t r = (w - scale_w) / 2;
 1088              		.loc 1 954 9 view .LVU315
 1089              	.LBB82:
 1090              	.LBI82:
 1091              		.loc 2 194 1 view .LVU316
 1092              	.LBB83:
 1093              		.loc 2 194 1 view .LVU317
 1094 0098 C022     		movs	r2, #192
 1095 009a 0021     		movs	r1, #0
 1096 009c 3046     		mov	r0, r6
 1097 009e FFF7FEFF 		bl	_lv_obj_get_style_int
 1098              	.LVL114:
 1099              		.loc 2 194 1 is_stmt 0 view .LVU318
 1100              	.LBE83:
 1101              	.LBE82:
 955:lvgl/src/lv_widgets/lv_cpicker.c ****         uint16_t angle = get_angle(cpicker);
 1102              		.loc 1 955 9 is_stmt 1 view .LVU319
 955:lvgl/src/lv_widgets/lv_cpicker.c ****         uint16_t angle = get_angle(cpicker);
 1103              		.loc 1 955 27 is_stmt 0 view .LVU320
 1104 00a2 381A     		subs	r0, r7, r0
 1105              	.LVL115:
 955:lvgl/src/lv_widgets/lv_cpicker.c ****         uint16_t angle = get_angle(cpicker);
 1106              		.loc 1 955 38 view .LVU321
 1107 00a4 00EBD070 		add	r0, r0, r0, lsr #31
 955:lvgl/src/lv_widgets/lv_cpicker.c ****         uint16_t angle = get_angle(cpicker);
 1108              		.loc 1 955 20 view .LVU322
 1109 00a8 40F34F08 		sbfx	r8, r0, #1, #16
 1110              	.LVL116:
 956:lvgl/src/lv_widgets/lv_cpicker.c ****         ext->knob.pos.x = (((int32_t)r * _lv_trigo_sin(angle)) >> LV_TRIGO_SHIFT);
 1111              		.loc 1 956 9 is_stmt 1 view .LVU323
 956:lvgl/src/lv_widgets/lv_cpicker.c ****         ext->knob.pos.x = (((int32_t)r * _lv_trigo_sin(angle)) >> LV_TRIGO_SHIFT);
 1112              		.loc 1 956 26 is_stmt 0 view .LVU324
 1113 00ac 3046     		mov	r0, r6
 1114 00ae FFF7FEFF 		bl	get_angle
 1115              	.LVL117:
 1116 00b2 8146     		mov	r9, r0
 1117              	.LVL118:
 957:lvgl/src/lv_widgets/lv_cpicker.c ****         ext->knob.pos.y = (((int32_t)r * _lv_trigo_sin(angle + 90)) >> LV_TRIGO_SHIFT);
 1118              		.loc 1 957 9 is_stmt 1 view .LVU325
 957:lvgl/src/lv_widgets/lv_cpicker.c ****         ext->knob.pos.y = (((int32_t)r * _lv_trigo_sin(angle + 90)) >> LV_TRIGO_SHIFT);
 1119              		.loc 1 957 42 is_stmt 0 view .LVU326
 1120 00b4 00B2     		sxth	r0, r0
 957:lvgl/src/lv_widgets/lv_cpicker.c ****         ext->knob.pos.y = (((int32_t)r * _lv_trigo_sin(angle + 90)) >> LV_TRIGO_SHIFT);
 1121              		.loc 1 957 42 view .LVU327
 1122 00b6 FFF7FEFF 		bl	_lv_trigo_sin
 1123              	.LVL119:
 957:lvgl/src/lv_widgets/lv_cpicker.c ****         ext->knob.pos.y = (((int32_t)r * _lv_trigo_sin(angle + 90)) >> LV_TRIGO_SHIFT);
 1124              		.loc 1 957 40 view .LVU328
 1125 00ba 00FB08F0 		mul	r0, r0, r8
 957:lvgl/src/lv_widgets/lv_cpicker.c ****         ext->knob.pos.y = (((int32_t)r * _lv_trigo_sin(angle + 90)) >> LV_TRIGO_SHIFT);
 1126              		.loc 1 957 64 view .LVU329
 1127 00be C013     		asrs	r0, r0, #15
 957:lvgl/src/lv_widgets/lv_cpicker.c ****         ext->knob.pos.y = (((int32_t)r * _lv_trigo_sin(angle + 90)) >> LV_TRIGO_SHIFT);
ARM GAS  D:\Temp\ccfvNLhk.s 			page 49


 1128              		.loc 1 957 25 view .LVU330
 1129 00c0 A881     		strh	r0, [r5, #12]	@ movhi
 958:lvgl/src/lv_widgets/lv_cpicker.c ****         ext->knob.pos.x = ext->knob.pos.x + w / 2;
 1130              		.loc 1 958 9 is_stmt 1 view .LVU331
 958:lvgl/src/lv_widgets/lv_cpicker.c ****         ext->knob.pos.x = ext->knob.pos.x + w / 2;
 1131              		.loc 1 958 62 is_stmt 0 view .LVU332
 1132 00c2 09F15A00 		add	r0, r9, #90
 958:lvgl/src/lv_widgets/lv_cpicker.c ****         ext->knob.pos.x = ext->knob.pos.x + w / 2;
 1133              		.loc 1 958 42 view .LVU333
 1134 00c6 00B2     		sxth	r0, r0
 1135 00c8 FFF7FEFF 		bl	_lv_trigo_sin
 1136              	.LVL120:
 958:lvgl/src/lv_widgets/lv_cpicker.c ****         ext->knob.pos.x = ext->knob.pos.x + w / 2;
 1137              		.loc 1 958 40 view .LVU334
 1138 00cc 00FB08F8 		mul	r8, r0, r8
 1139              	.LVL121:
 959:lvgl/src/lv_widgets/lv_cpicker.c ****         ext->knob.pos.y = ext->knob.pos.y + h / 2;
 1140              		.loc 1 959 9 is_stmt 1 view .LVU335
 959:lvgl/src/lv_widgets/lv_cpicker.c ****         ext->knob.pos.y = ext->knob.pos.y + h / 2;
 1141              		.loc 1 959 40 is_stmt 0 view .LVU336
 1142 00d0 AB89     		ldrh	r3, [r5, #12]
 959:lvgl/src/lv_widgets/lv_cpicker.c ****         ext->knob.pos.y = ext->knob.pos.y + h / 2;
 1143              		.loc 1 959 43 view .LVU337
 1144 00d2 07EBD770 		add	r0, r7, r7, lsr #31
 1145 00d6 03EB6000 		add	r0, r3, r0, asr #1
 959:lvgl/src/lv_widgets/lv_cpicker.c ****         ext->knob.pos.y = ext->knob.pos.y + h / 2;
 1146              		.loc 1 959 25 view .LVU338
 1147 00da A881     		strh	r0, [r5, #12]	@ movhi
 960:lvgl/src/lv_widgets/lv_cpicker.c ****     }
 1148              		.loc 1 960 9 is_stmt 1 view .LVU339
 960:lvgl/src/lv_widgets/lv_cpicker.c ****     }
 1149              		.loc 1 960 40 is_stmt 0 view .LVU340
 1150 00dc C8F3CF30 		ubfx	r0, r8, #15, #16
 960:lvgl/src/lv_widgets/lv_cpicker.c ****     }
 1151              		.loc 1 960 43 view .LVU341
 1152 00e0 04EBD474 		add	r4, r4, r4, lsr #31
 1153              	.LVL122:
 960:lvgl/src/lv_widgets/lv_cpicker.c ****     }
 1154              		.loc 1 960 43 view .LVU342
 1155 00e4 00EB6404 		add	r4, r0, r4, asr #1
 960:lvgl/src/lv_widgets/lv_cpicker.c ****     }
 1156              		.loc 1 960 25 view .LVU343
 1157 00e8 EC81     		strh	r4, [r5, #14]	@ movhi
 1158 00ea AEE7     		b	.L51
 1159              	.L54:
 1160              		.align	2
 1161              	.L53:
 1162 00ec B7600BB6 		.word	-1240768329
 1163 00f0 1F85EB51 		.word	1374389535
 1164              	.LBE81:
 1165              		.cfi_endproc
 1166              	.LFE486:
 1168              		.section	.text.next_color_mode,"ax",%progbits
 1169              		.align	1
 1170              		.syntax unified
 1171              		.thumb
 1172              		.thumb_func
ARM GAS  D:\Temp\ccfvNLhk.s 			page 50


 1173              		.fpu fpv4-sp-d16
 1175              	next_color_mode:
 1176              	.LVL123:
 1177              	.LFB485:
 921:lvgl/src/lv_widgets/lv_cpicker.c ****     lv_cpicker_ext_t * ext = lv_obj_get_ext_attr(cpicker);
 1178              		.loc 1 921 1 is_stmt 1 view -0
 1179              		.cfi_startproc
 1180              		@ args = 0, pretend = 0, frame = 0
 1181              		@ frame_needed = 0, uses_anonymous_args = 0
 921:lvgl/src/lv_widgets/lv_cpicker.c ****     lv_cpicker_ext_t * ext = lv_obj_get_ext_attr(cpicker);
 1182              		.loc 1 921 1 is_stmt 0 view .LVU345
 1183 0000 10B5     		push	{r4, lr}
 1184              	.LCFI12:
 1185              		.cfi_def_cfa_offset 8
 1186              		.cfi_offset 4, -8
 1187              		.cfi_offset 14, -4
 1188 0002 0446     		mov	r4, r0
 922:lvgl/src/lv_widgets/lv_cpicker.c ****     ext->color_mode = (ext->color_mode + 1) % 3;
 1189              		.loc 1 922 5 is_stmt 1 view .LVU346
 922:lvgl/src/lv_widgets/lv_cpicker.c ****     ext->color_mode = (ext->color_mode + 1) % 3;
 1190              		.loc 1 922 30 is_stmt 0 view .LVU347
 1191 0004 FFF7FEFF 		bl	lv_obj_get_ext_attr
 1192              	.LVL124:
 923:lvgl/src/lv_widgets/lv_cpicker.c ****     refr_knob_pos(cpicker);
 1193              		.loc 1 923 5 is_stmt 1 view .LVU348
 923:lvgl/src/lv_widgets/lv_cpicker.c ****     refr_knob_pos(cpicker);
 1194              		.loc 1 923 27 is_stmt 0 view .LVU349
 1195 0008 90F82010 		ldrb	r1, [r0, #32]	@ zero_extendqisi2
 1196 000c 01F00303 		and	r3, r1, #3
 923:lvgl/src/lv_widgets/lv_cpicker.c ****     refr_knob_pos(cpicker);
 1197              		.loc 1 923 40 view .LVU350
 1198 0010 0133     		adds	r3, r3, #1
 923:lvgl/src/lv_widgets/lv_cpicker.c ****     refr_knob_pos(cpicker);
 1199              		.loc 1 923 45 view .LVU351
 1200 0012 094A     		ldr	r2, .L57
 1201 0014 82FB03C2 		smull	ip, r2, r2, r3
 1202 0018 02EB4202 		add	r2, r2, r2, lsl #1
 1203 001c 9B1A     		subs	r3, r3, r2
 923:lvgl/src/lv_widgets/lv_cpicker.c ****     refr_knob_pos(cpicker);
 1204              		.loc 1 923 21 view .LVU352
 1205 001e 0A46     		mov	r2, r1
 1206 0020 63F30102 		bfi	r2, r3, #0, #2
 1207 0024 80F82020 		strb	r2, [r0, #32]
 924:lvgl/src/lv_widgets/lv_cpicker.c ****     lv_obj_invalidate(cpicker);
 1208              		.loc 1 924 5 is_stmt 1 view .LVU353
 1209 0028 2046     		mov	r0, r4
 1210              	.LVL125:
 924:lvgl/src/lv_widgets/lv_cpicker.c ****     lv_obj_invalidate(cpicker);
 1211              		.loc 1 924 5 is_stmt 0 view .LVU354
 1212 002a FFF7FEFF 		bl	refr_knob_pos
 1213              	.LVL126:
 925:lvgl/src/lv_widgets/lv_cpicker.c **** }
 1214              		.loc 1 925 5 is_stmt 1 view .LVU355
 1215 002e 2046     		mov	r0, r4
 1216 0030 FFF7FEFF 		bl	lv_obj_invalidate
 1217              	.LVL127:
 926:lvgl/src/lv_widgets/lv_cpicker.c **** 
ARM GAS  D:\Temp\ccfvNLhk.s 			page 51


 1218              		.loc 1 926 1 is_stmt 0 view .LVU356
 1219 0034 10BD     		pop	{r4, pc}
 1220              	.LVL128:
 1221              	.L58:
 926:lvgl/src/lv_widgets/lv_cpicker.c **** 
 1222              		.loc 1 926 1 view .LVU357
 1223 0036 00BF     		.align	2
 1224              	.L57:
 1225 0038 56555555 		.word	1431655766
 1226              		.cfi_endproc
 1227              	.LFE485:
 1229              		.section	.text.lv_cpicker_create,"ax",%progbits
 1230              		.align	1
 1231              		.global	lv_cpicker_create
 1232              		.syntax unified
 1233              		.thumb
 1234              		.thumb_func
 1235              		.fpu fpv4-sp-d16
 1237              	lv_cpicker_create:
 1238              	.LVL129:
 1239              	.LFB458:
 103:lvgl/src/lv_widgets/lv_cpicker.c ****     LV_LOG_TRACE("color_picker create started");
 1240              		.loc 1 103 1 is_stmt 1 view -0
 1241              		.cfi_startproc
 1242              		@ args = 0, pretend = 0, frame = 0
 1243              		@ frame_needed = 0, uses_anonymous_args = 0
 103:lvgl/src/lv_widgets/lv_cpicker.c ****     LV_LOG_TRACE("color_picker create started");
 1244              		.loc 1 103 1 is_stmt 0 view .LVU359
 1245 0000 F8B5     		push	{r3, r4, r5, r6, r7, lr}
 1246              	.LCFI13:
 1247              		.cfi_def_cfa_offset 24
 1248              		.cfi_offset 3, -24
 1249              		.cfi_offset 4, -20
 1250              		.cfi_offset 5, -16
 1251              		.cfi_offset 6, -12
 1252              		.cfi_offset 7, -8
 1253              		.cfi_offset 14, -4
 1254 0002 0F46     		mov	r7, r1
 104:lvgl/src/lv_widgets/lv_cpicker.c **** 
 1255              		.loc 1 104 48 is_stmt 1 view .LVU360
 106:lvgl/src/lv_widgets/lv_cpicker.c ****     LV_ASSERT_MEM(cpicker);
 1256              		.loc 1 106 5 view .LVU361
 106:lvgl/src/lv_widgets/lv_cpicker.c ****     LV_ASSERT_MEM(cpicker);
 1257              		.loc 1 106 26 is_stmt 0 view .LVU362
 1258 0004 FFF7FEFF 		bl	lv_obj_create
 1259              	.LVL130:
 106:lvgl/src/lv_widgets/lv_cpicker.c ****     LV_ASSERT_MEM(cpicker);
 1260              		.loc 1 106 26 view .LVU363
 1261 0008 0546     		mov	r5, r0
 1262              	.LVL131:
 107:lvgl/src/lv_widgets/lv_cpicker.c ****     if(cpicker == NULL) return NULL;
 1263              		.loc 1 107 5 is_stmt 1 view .LVU364
 107:lvgl/src/lv_widgets/lv_cpicker.c ****     if(cpicker == NULL) return NULL;
 1264              		.loc 1 107 5 view .LVU365
 1265 000a FFF7FEFF 		bl	lv_debug_check_null
 1266              	.LVL132:
 107:lvgl/src/lv_widgets/lv_cpicker.c ****     if(cpicker == NULL) return NULL;
ARM GAS  D:\Temp\ccfvNLhk.s 			page 52


 1267              		.loc 1 107 5 is_stmt 0 view .LVU366
 1268 000e 0028     		cmp	r0, #0
 1269 0010 6AD0     		beq	.L71
 107:lvgl/src/lv_widgets/lv_cpicker.c ****     if(cpicker == NULL) return NULL;
 1270              		.loc 1 107 27 is_stmt 1 discriminator 2 view .LVU367
 108:lvgl/src/lv_widgets/lv_cpicker.c **** 
 1271              		.loc 1 108 5 discriminator 2 view .LVU368
 108:lvgl/src/lv_widgets/lv_cpicker.c **** 
 1272              		.loc 1 108 7 is_stmt 0 discriminator 2 view .LVU369
 1273 0012 002D     		cmp	r5, #0
 1274 0014 66D0     		beq	.L59
 110:lvgl/src/lv_widgets/lv_cpicker.c ****     if(ancestor_design == NULL) ancestor_design = lv_obj_get_design_cb(cpicker);
 1275              		.loc 1 110 5 is_stmt 1 view .LVU370
 110:lvgl/src/lv_widgets/lv_cpicker.c ****     if(ancestor_design == NULL) ancestor_design = lv_obj_get_design_cb(cpicker);
 1276              		.loc 1 110 24 is_stmt 0 view .LVU371
 1277 0016 4C4B     		ldr	r3, .L77
 1278 0018 1B68     		ldr	r3, [r3]
 110:lvgl/src/lv_widgets/lv_cpicker.c ****     if(ancestor_design == NULL) ancestor_design = lv_obj_get_design_cb(cpicker);
 1279              		.loc 1 110 7 view .LVU372
 1280 001a 002B     		cmp	r3, #0
 1281 001c 6AD0     		beq	.L72
 1282              	.L63:
 111:lvgl/src/lv_widgets/lv_cpicker.c **** 
 1283              		.loc 1 111 5 is_stmt 1 view .LVU373
 111:lvgl/src/lv_widgets/lv_cpicker.c **** 
 1284              		.loc 1 111 24 is_stmt 0 view .LVU374
 1285 001e 4B4B     		ldr	r3, .L77+4
 1286 0020 1B68     		ldr	r3, [r3]
 111:lvgl/src/lv_widgets/lv_cpicker.c **** 
 1287              		.loc 1 111 7 view .LVU375
 1288 0022 002B     		cmp	r3, #0
 1289 0024 6CD0     		beq	.L73
 1290              	.L64:
 114:lvgl/src/lv_widgets/lv_cpicker.c ****     LV_ASSERT_MEM(ext);
 1291              		.loc 1 114 5 is_stmt 1 view .LVU376
 114:lvgl/src/lv_widgets/lv_cpicker.c ****     LV_ASSERT_MEM(ext);
 1292              		.loc 1 114 30 is_stmt 0 view .LVU377
 1293 0026 2421     		movs	r1, #36
 1294 0028 2846     		mov	r0, r5
 1295 002a FFF7FEFF 		bl	lv_obj_allocate_ext_attr
 1296              	.LVL133:
 1297 002e 0446     		mov	r4, r0
 1298              	.LVL134:
 115:lvgl/src/lv_widgets/lv_cpicker.c ****     if(ext == NULL) {
 1299              		.loc 1 115 5 is_stmt 1 view .LVU378
 115:lvgl/src/lv_widgets/lv_cpicker.c ****     if(ext == NULL) {
 1300              		.loc 1 115 5 view .LVU379
 1301 0030 FFF7FEFF 		bl	lv_debug_check_null
 1302              	.LVL135:
 115:lvgl/src/lv_widgets/lv_cpicker.c ****     if(ext == NULL) {
 1303              		.loc 1 115 5 is_stmt 0 view .LVU380
 1304 0034 0028     		cmp	r0, #0
 1305 0036 69D0     		beq	.L74
 115:lvgl/src/lv_widgets/lv_cpicker.c ****     if(ext == NULL) {
 1306              		.loc 1 115 23 is_stmt 1 discriminator 2 view .LVU381
 116:lvgl/src/lv_widgets/lv_cpicker.c ****         lv_obj_del(cpicker);
 1307              		.loc 1 116 5 discriminator 2 view .LVU382
ARM GAS  D:\Temp\ccfvNLhk.s 			page 53


 116:lvgl/src/lv_widgets/lv_cpicker.c ****         lv_obj_del(cpicker);
 1308              		.loc 1 116 7 is_stmt 0 discriminator 2 view .LVU383
 1309 0038 002C     		cmp	r4, #0
 1310 003a 6DD0     		beq	.L75
 122:lvgl/src/lv_widgets/lv_cpicker.c ****     ext->hsv = LV_CPICKER_DEF_HSV;
 1311              		.loc 1 122 5 is_stmt 1 view .LVU384
 122:lvgl/src/lv_widgets/lv_cpicker.c ****     ext->hsv = LV_CPICKER_DEF_HSV;
 1312              		.loc 1 122 15 is_stmt 0 view .LVU385
 1313 003c 94F82030 		ldrb	r3, [r4, #32]	@ zero_extendqisi2
 123:lvgl/src/lv_widgets/lv_cpicker.c ****     ext->knob.colored = 1;
 1314              		.loc 1 123 5 is_stmt 1 view .LVU386
 123:lvgl/src/lv_widgets/lv_cpicker.c ****     ext->knob.colored = 1;
 1315              		.loc 1 123 14 is_stmt 0 view .LVU387
 1316 0040 434A     		ldr	r2, .L77+8
 1317 0042 1268     		ldr	r2, [r2]
 1318 0044 2260     		str	r2, [r4]
 124:lvgl/src/lv_widgets/lv_cpicker.c ****     ext->color_mode = LV_CPICKER_COLOR_MODE_HUE;
 1319              		.loc 1 124 5 is_stmt 1 view .LVU388
 124:lvgl/src/lv_widgets/lv_cpicker.c ****     ext->color_mode = LV_CPICKER_COLOR_MODE_HUE;
 1320              		.loc 1 124 23 is_stmt 0 view .LVU389
 1321 0046 227C     		ldrb	r2, [r4, #16]	@ zero_extendqisi2
 1322 0048 42F00102 		orr	r2, r2, #1
 1323 004c 2274     		strb	r2, [r4, #16]
 125:lvgl/src/lv_widgets/lv_cpicker.c ****     ext->color_mode_fixed = 0;
 1324              		.loc 1 125 5 is_stmt 1 view .LVU390
 125:lvgl/src/lv_widgets/lv_cpicker.c ****     ext->color_mode_fixed = 0;
 1325              		.loc 1 125 21 is_stmt 0 view .LVU391
 1326 004e 43F00803 		orr	r3, r3, #8
 126:lvgl/src/lv_widgets/lv_cpicker.c ****     ext->last_click_time = 0;
 1327              		.loc 1 126 5 is_stmt 1 view .LVU392
 126:lvgl/src/lv_widgets/lv_cpicker.c ****     ext->last_click_time = 0;
 1328              		.loc 1 126 27 is_stmt 0 view .LVU393
 1329 0052 03F0FC03 		and	r3, r3, #252
 1330 0056 6FF38203 		bfc	r3, #2, #1
 1331 005a 84F82030 		strb	r3, [r4, #32]
 127:lvgl/src/lv_widgets/lv_cpicker.c ****     ext->last_change_time = 0;
 1332              		.loc 1 127 5 is_stmt 1 view .LVU394
 127:lvgl/src/lv_widgets/lv_cpicker.c ****     ext->last_change_time = 0;
 1333              		.loc 1 127 26 is_stmt 0 view .LVU395
 1334 005e 0023     		movs	r3, #0
 1335 0060 6361     		str	r3, [r4, #20]
 128:lvgl/src/lv_widgets/lv_cpicker.c **** 
 1336              		.loc 1 128 5 is_stmt 1 view .LVU396
 128:lvgl/src/lv_widgets/lv_cpicker.c **** 
 1337              		.loc 1 128 27 is_stmt 0 view .LVU397
 1338 0062 A361     		str	r3, [r4, #24]
 130:lvgl/src/lv_widgets/lv_cpicker.c **** 
 1339              		.loc 1 130 5 is_stmt 1 view .LVU398
 1340 0064 261D     		adds	r6, r4, #4
 1341 0066 3046     		mov	r0, r6
 1342 0068 FFF7FEFF 		bl	lv_style_list_init
 1343              	.LVL136:
 133:lvgl/src/lv_widgets/lv_cpicker.c ****     lv_obj_set_design_cb(cpicker, lv_cpicker_design);
 1344              		.loc 1 133 5 view .LVU399
 1345 006c 3949     		ldr	r1, .L77+12
 1346 006e 2846     		mov	r0, r5
 1347 0070 FFF7FEFF 		bl	lv_obj_set_signal_cb
ARM GAS  D:\Temp\ccfvNLhk.s 			page 54


 1348              	.LVL137:
 134:lvgl/src/lv_widgets/lv_cpicker.c **** 
 1349              		.loc 1 134 5 view .LVU400
 1350 0074 3849     		ldr	r1, .L77+16
 1351 0076 2846     		mov	r0, r5
 1352 0078 FFF7FEFF 		bl	lv_obj_set_design_cb
 1353              	.LVL138:
 137:lvgl/src/lv_widgets/lv_cpicker.c ****         lv_obj_set_size(cpicker, LV_DPI * 2, LV_DPI * 2);
 1354              		.loc 1 137 5 view .LVU401
 137:lvgl/src/lv_widgets/lv_cpicker.c ****         lv_obj_set_size(cpicker, LV_DPI * 2, LV_DPI * 2);
 1355              		.loc 1 137 7 is_stmt 0 view .LVU402
 1356 007c 002F     		cmp	r7, #0
 1357 007e 50D0     		beq	.L76
 1358              	.LBB84:
 145:lvgl/src/lv_widgets/lv_cpicker.c ****         ext->type = copy_ext->type;
 1359              		.loc 1 145 9 is_stmt 1 view .LVU403
 145:lvgl/src/lv_widgets/lv_cpicker.c ****         ext->type = copy_ext->type;
 1360              		.loc 1 145 39 is_stmt 0 view .LVU404
 1361 0080 3846     		mov	r0, r7
 1362 0082 FFF7FEFF 		bl	lv_obj_get_ext_attr
 1363              	.LVL139:
 146:lvgl/src/lv_widgets/lv_cpicker.c ****         ext->color_mode = copy_ext->color_mode;
 1364              		.loc 1 146 9 is_stmt 1 view .LVU405
 146:lvgl/src/lv_widgets/lv_cpicker.c ****         ext->color_mode = copy_ext->color_mode;
 1365              		.loc 1 146 29 is_stmt 0 view .LVU406
 1366 0086 90F82030 		ldrb	r3, [r0, #32]	@ zero_extendqisi2
 1367 008a C3F3C003 		ubfx	r3, r3, #3, #1
 146:lvgl/src/lv_widgets/lv_cpicker.c ****         ext->color_mode = copy_ext->color_mode;
 1368              		.loc 1 146 19 view .LVU407
 1369 008e 94F82020 		ldrb	r2, [r4, #32]	@ zero_extendqisi2
 1370 0092 63F3C302 		bfi	r2, r3, #3, #1
 1371 0096 84F82020 		strb	r2, [r4, #32]
 147:lvgl/src/lv_widgets/lv_cpicker.c ****         ext->color_mode_fixed = copy_ext->color_mode_fixed;
 1372              		.loc 1 147 9 is_stmt 1 view .LVU408
 147:lvgl/src/lv_widgets/lv_cpicker.c ****         ext->color_mode_fixed = copy_ext->color_mode_fixed;
 1373              		.loc 1 147 35 is_stmt 0 view .LVU409
 1374 009a 90F82020 		ldrb	r2, [r0, #32]	@ zero_extendqisi2
 147:lvgl/src/lv_widgets/lv_cpicker.c ****         ext->color_mode_fixed = copy_ext->color_mode_fixed;
 1375              		.loc 1 147 25 view .LVU410
 1376 009e 94F82030 		ldrb	r3, [r4, #32]	@ zero_extendqisi2
 1377 00a2 62F30103 		bfi	r3, r2, #0, #2
 1378 00a6 84F82030 		strb	r3, [r4, #32]
 148:lvgl/src/lv_widgets/lv_cpicker.c ****         ext->hsv = copy_ext->hsv;
 1379              		.loc 1 148 9 is_stmt 1 view .LVU411
 148:lvgl/src/lv_widgets/lv_cpicker.c ****         ext->hsv = copy_ext->hsv;
 1380              		.loc 1 148 41 is_stmt 0 view .LVU412
 1381 00aa 90F82030 		ldrb	r3, [r0, #32]	@ zero_extendqisi2
 1382 00ae C3F38003 		ubfx	r3, r3, #2, #1
 148:lvgl/src/lv_widgets/lv_cpicker.c ****         ext->hsv = copy_ext->hsv;
 1383              		.loc 1 148 31 view .LVU413
 1384 00b2 94F82020 		ldrb	r2, [r4, #32]	@ zero_extendqisi2
 1385 00b6 63F38202 		bfi	r2, r3, #2, #1
 1386 00ba 84F82020 		strb	r2, [r4, #32]
 149:lvgl/src/lv_widgets/lv_cpicker.c ****         ext->knob.colored = copy_ext->knob.colored;
 1387              		.loc 1 149 9 is_stmt 1 view .LVU414
 149:lvgl/src/lv_widgets/lv_cpicker.c ****         ext->knob.colored = copy_ext->knob.colored;
 1388              		.loc 1 149 18 is_stmt 0 view .LVU415
ARM GAS  D:\Temp\ccfvNLhk.s 			page 55


 1389 00be 0368     		ldr	r3, [r0]
 1390 00c0 2360     		str	r3, [r4]
 150:lvgl/src/lv_widgets/lv_cpicker.c **** 
 1391              		.loc 1 150 9 is_stmt 1 view .LVU416
 150:lvgl/src/lv_widgets/lv_cpicker.c **** 
 1392              		.loc 1 150 43 is_stmt 0 view .LVU417
 1393 00c2 027C     		ldrb	r2, [r0, #16]	@ zero_extendqisi2
 150:lvgl/src/lv_widgets/lv_cpicker.c **** 
 1394              		.loc 1 150 27 view .LVU418
 1395 00c4 237C     		ldrb	r3, [r4, #16]	@ zero_extendqisi2
 1396 00c6 62F30003 		bfi	r3, r2, #0, #1
 1397 00ca 2374     		strb	r3, [r4, #16]
 152:lvgl/src/lv_widgets/lv_cpicker.c ****         /*Refresh the style with new signal function*/
 1398              		.loc 1 152 9 is_stmt 1 view .LVU419
 1399 00cc 011D     		adds	r1, r0, #4
 1400 00ce 3046     		mov	r0, r6
 1401              	.LVL140:
 152:lvgl/src/lv_widgets/lv_cpicker.c ****         /*Refresh the style with new signal function*/
 1402              		.loc 1 152 9 is_stmt 0 view .LVU420
 1403 00d0 FFF7FEFF 		bl	lv_style_list_copy
 1404              	.LVL141:
 154:lvgl/src/lv_widgets/lv_cpicker.c ****     }
 1405              		.loc 1 154 9 is_stmt 1 view .LVU421
 1406 00d4 FF22     		movs	r2, #255
 1407 00d6 1146     		mov	r1, r2
 1408 00d8 2846     		mov	r0, r5
 1409 00da FFF7FEFF 		bl	lv_obj_refresh_style
 1410              	.LVL142:
 1411              	.L69:
 154:lvgl/src/lv_widgets/lv_cpicker.c ****     }
 1412              		.loc 1 154 9 is_stmt 0 view .LVU422
 1413              	.LBE84:
 156:lvgl/src/lv_widgets/lv_cpicker.c **** 
 1414              		.loc 1 156 5 is_stmt 1 view .LVU423
 1415 00de 2846     		mov	r0, r5
 1416 00e0 FFF7FEFF 		bl	refr_knob_pos
 1417              	.LVL143:
 158:lvgl/src/lv_widgets/lv_cpicker.c **** 
 1418              		.loc 1 158 40 view .LVU424
 160:lvgl/src/lv_widgets/lv_cpicker.c **** }
 1419              		.loc 1 160 5 view .LVU425
 1420              	.L59:
 161:lvgl/src/lv_widgets/lv_cpicker.c **** 
 1421              		.loc 1 161 1 is_stmt 0 view .LVU426
 1422 00e4 2846     		mov	r0, r5
 1423 00e6 F8BD     		pop	{r3, r4, r5, r6, r7, pc}
 1424              	.LVL144:
 1425              	.L71:
 107:lvgl/src/lv_widgets/lv_cpicker.c ****     if(cpicker == NULL) return NULL;
 1426              		.loc 1 107 5 is_stmt 1 discriminator 1 view .LVU427
 107:lvgl/src/lv_widgets/lv_cpicker.c ****     if(cpicker == NULL) return NULL;
 1427              		.loc 1 107 5 discriminator 1 view .LVU428
 1428 00e8 2A46     		mov	r2, r5
 1429 00ea 0023     		movs	r3, #0
 1430 00ec 1B48     		ldr	r0, .L77+20
 1431 00ee FFF7FEFF 		bl	lv_debug_log_error
 1432              	.LVL145:
ARM GAS  D:\Temp\ccfvNLhk.s 			page 56


 1433              	.L61:
 107:lvgl/src/lv_widgets/lv_cpicker.c ****     if(cpicker == NULL) return NULL;
 1434              		.loc 1 107 5 discriminator 1 view .LVU429
 107:lvgl/src/lv_widgets/lv_cpicker.c ****     if(cpicker == NULL) return NULL;
 1435              		.loc 1 107 5 discriminator 1 view .LVU430
 1436 00f2 FEE7     		b	.L61
 1437              	.L72:
 110:lvgl/src/lv_widgets/lv_cpicker.c ****     if(ancestor_design == NULL) ancestor_design = lv_obj_get_design_cb(cpicker);
 1438              		.loc 1 110 33 discriminator 1 view .LVU431
 110:lvgl/src/lv_widgets/lv_cpicker.c ****     if(ancestor_design == NULL) ancestor_design = lv_obj_get_design_cb(cpicker);
 1439              		.loc 1 110 51 is_stmt 0 discriminator 1 view .LVU432
 1440 00f4 2846     		mov	r0, r5
 1441 00f6 FFF7FEFF 		bl	lv_obj_get_signal_cb
 1442              	.LVL146:
 110:lvgl/src/lv_widgets/lv_cpicker.c ****     if(ancestor_design == NULL) ancestor_design = lv_obj_get_design_cb(cpicker);
 1443              		.loc 1 110 49 discriminator 1 view .LVU433
 1444 00fa 134B     		ldr	r3, .L77
 1445 00fc 1860     		str	r0, [r3]
 1446 00fe 8EE7     		b	.L63
 1447              	.L73:
 111:lvgl/src/lv_widgets/lv_cpicker.c **** 
 1448              		.loc 1 111 33 is_stmt 1 discriminator 1 view .LVU434
 111:lvgl/src/lv_widgets/lv_cpicker.c **** 
 1449              		.loc 1 111 51 is_stmt 0 discriminator 1 view .LVU435
 1450 0100 2846     		mov	r0, r5
 1451 0102 FFF7FEFF 		bl	lv_obj_get_design_cb
 1452              	.LVL147:
 111:lvgl/src/lv_widgets/lv_cpicker.c **** 
 1453              		.loc 1 111 49 discriminator 1 view .LVU436
 1454 0106 114B     		ldr	r3, .L77+4
 1455 0108 1860     		str	r0, [r3]
 1456 010a 8CE7     		b	.L64
 1457              	.LVL148:
 1458              	.L74:
 115:lvgl/src/lv_widgets/lv_cpicker.c ****     if(ext == NULL) {
 1459              		.loc 1 115 5 is_stmt 1 discriminator 1 view .LVU437
 115:lvgl/src/lv_widgets/lv_cpicker.c ****     if(ext == NULL) {
 1460              		.loc 1 115 5 discriminator 1 view .LVU438
 1461 010c 2246     		mov	r2, r4
 1462 010e 0023     		movs	r3, #0
 1463 0110 1248     		ldr	r0, .L77+20
 1464 0112 FFF7FEFF 		bl	lv_debug_log_error
 1465              	.LVL149:
 1466              	.L66:
 115:lvgl/src/lv_widgets/lv_cpicker.c ****     if(ext == NULL) {
 1467              		.loc 1 115 5 discriminator 2 view .LVU439
 115:lvgl/src/lv_widgets/lv_cpicker.c ****     if(ext == NULL) {
 1468              		.loc 1 115 5 discriminator 2 view .LVU440
 1469 0116 FEE7     		b	.L66
 1470              	.L75:
 117:lvgl/src/lv_widgets/lv_cpicker.c ****         return NULL;
 1471              		.loc 1 117 9 view .LVU441
 1472 0118 2846     		mov	r0, r5
 1473 011a FFF7FEFF 		bl	lv_obj_del
 1474              	.LVL150:
 118:lvgl/src/lv_widgets/lv_cpicker.c ****     }
 1475              		.loc 1 118 9 view .LVU442
ARM GAS  D:\Temp\ccfvNLhk.s 			page 57


 118:lvgl/src/lv_widgets/lv_cpicker.c ****     }
 1476              		.loc 1 118 16 is_stmt 0 view .LVU443
 1477 011e 0025     		movs	r5, #0
 1478              	.LVL151:
 118:lvgl/src/lv_widgets/lv_cpicker.c ****     }
 1479              		.loc 1 118 16 view .LVU444
 1480 0120 E0E7     		b	.L59
 1481              	.LVL152:
 1482              	.L76:
 138:lvgl/src/lv_widgets/lv_cpicker.c ****         lv_obj_add_protect(cpicker, LV_PROTECT_PRESS_LOST);
 1483              		.loc 1 138 9 is_stmt 1 view .LVU445
 1484 0122 A022     		movs	r2, #160
 1485 0124 1146     		mov	r1, r2
 1486 0126 2846     		mov	r0, r5
 1487 0128 FFF7FEFF 		bl	lv_obj_set_size
 1488              	.LVL153:
 139:lvgl/src/lv_widgets/lv_cpicker.c ****         lv_obj_set_adv_hittest(cpicker, true);
 1489              		.loc 1 139 9 view .LVU446
 1490 012c 1021     		movs	r1, #16
 1491 012e 2846     		mov	r0, r5
 1492 0130 FFF7FEFF 		bl	lv_obj_add_protect
 1493              	.LVL154:
 140:lvgl/src/lv_widgets/lv_cpicker.c ****         lv_theme_apply(cpicker, LV_THEME_CPICKER);
 1494              		.loc 1 140 9 view .LVU447
 1495 0134 0121     		movs	r1, #1
 1496 0136 2846     		mov	r0, r5
 1497 0138 FFF7FEFF 		bl	lv_obj_set_adv_hittest
 1498              	.LVL155:
 141:lvgl/src/lv_widgets/lv_cpicker.c ****     }
 1499              		.loc 1 141 9 view .LVU448
 1500 013c 0C21     		movs	r1, #12
 1501 013e 2846     		mov	r0, r5
 1502 0140 FFF7FEFF 		bl	lv_theme_apply
 1503              	.LVL156:
 1504 0144 CBE7     		b	.L69
 1505              	.L78:
 1506 0146 00BF     		.align	2
 1507              	.L77:
 1508 0148 00000000 		.word	.LANCHOR0
 1509 014c 00000000 		.word	.LANCHOR1
 1510 0150 00000000 		.word	.LANCHOR2
 1511 0154 00000000 		.word	lv_cpicker_signal
 1512 0158 00000000 		.word	lv_cpicker_design
 1513 015c 00000000 		.word	.LC2
 1514              		.cfi_endproc
 1515              	.LFE458:
 1517              		.section	.text.lv_cpicker_set_type,"ax",%progbits
 1518              		.align	1
 1519              		.global	lv_cpicker_set_type
 1520              		.syntax unified
 1521              		.thumb
 1522              		.thumb_func
 1523              		.fpu fpv4-sp-d16
 1525              	lv_cpicker_set_type:
 1526              	.LVL157:
 1527              	.LFB459:
 173:lvgl/src/lv_widgets/lv_cpicker.c ****     LV_ASSERT_OBJ(cpicker, LV_OBJX_NAME);
ARM GAS  D:\Temp\ccfvNLhk.s 			page 58


 1528              		.loc 1 173 1 view -0
 1529              		.cfi_startproc
 1530              		@ args = 0, pretend = 0, frame = 0
 1531              		@ frame_needed = 0, uses_anonymous_args = 0
 173:lvgl/src/lv_widgets/lv_cpicker.c ****     LV_ASSERT_OBJ(cpicker, LV_OBJX_NAME);
 1532              		.loc 1 173 1 is_stmt 0 view .LVU450
 1533 0000 38B5     		push	{r3, r4, r5, lr}
 1534              	.LCFI14:
 1535              		.cfi_def_cfa_offset 16
 1536              		.cfi_offset 3, -16
 1537              		.cfi_offset 4, -12
 1538              		.cfi_offset 5, -8
 1539              		.cfi_offset 14, -4
 1540 0002 0446     		mov	r4, r0
 1541 0004 0D46     		mov	r5, r1
 174:lvgl/src/lv_widgets/lv_cpicker.c **** 
 1542              		.loc 1 174 5 is_stmt 1 view .LVU451
 174:lvgl/src/lv_widgets/lv_cpicker.c **** 
 1543              		.loc 1 174 5 view .LVU452
 1544 0006 FFF7FEFF 		bl	lv_debug_check_null
 1545              	.LVL158:
 174:lvgl/src/lv_widgets/lv_cpicker.c **** 
 1546              		.loc 1 174 5 is_stmt 0 view .LVU453
 1547 000a 28B9     		cbnz	r0, .L80
 174:lvgl/src/lv_widgets/lv_cpicker.c **** 
 1548              		.loc 1 174 5 is_stmt 1 discriminator 1 view .LVU454
 174:lvgl/src/lv_widgets/lv_cpicker.c **** 
 1549              		.loc 1 174 5 discriminator 1 view .LVU455
 1550 000c 2246     		mov	r2, r4
 1551 000e 0023     		movs	r3, #0
 1552 0010 0E48     		ldr	r0, .L84
 1553 0012 FFF7FEFF 		bl	lv_debug_log_error
 1554              	.LVL159:
 1555              	.L81:
 174:lvgl/src/lv_widgets/lv_cpicker.c **** 
 1556              		.loc 1 174 5 discriminator 1 view .LVU456
 174:lvgl/src/lv_widgets/lv_cpicker.c **** 
 1557              		.loc 1 174 5 discriminator 1 view .LVU457
 1558 0016 FEE7     		b	.L81
 1559              	.L80:
 174:lvgl/src/lv_widgets/lv_cpicker.c **** 
 1560              		.loc 1 174 41 discriminator 2 view .LVU458
 176:lvgl/src/lv_widgets/lv_cpicker.c ****     if(ext->type == type) return;
 1561              		.loc 1 176 5 discriminator 2 view .LVU459
 176:lvgl/src/lv_widgets/lv_cpicker.c ****     if(ext->type == type) return;
 1562              		.loc 1 176 30 is_stmt 0 discriminator 2 view .LVU460
 1563 0018 2046     		mov	r0, r4
 1564 001a FFF7FEFF 		bl	lv_obj_get_ext_attr
 1565              	.LVL160:
 177:lvgl/src/lv_widgets/lv_cpicker.c **** 
 1566              		.loc 1 177 5 is_stmt 1 discriminator 2 view .LVU461
 177:lvgl/src/lv_widgets/lv_cpicker.c **** 
 1567              		.loc 1 177 11 is_stmt 0 discriminator 2 view .LVU462
 1568 001e 90F82030 		ldrb	r3, [r0, #32]	@ zero_extendqisi2
 1569 0022 C3F3C003 		ubfx	r3, r3, #3, #1
 177:lvgl/src/lv_widgets/lv_cpicker.c **** 
 1570              		.loc 1 177 7 discriminator 2 view .LVU463
ARM GAS  D:\Temp\ccfvNLhk.s 			page 59


 1571 0026 AB42     		cmp	r3, r5
 1572 0028 0ED0     		beq	.L79
 179:lvgl/src/lv_widgets/lv_cpicker.c ****     lv_obj_refresh_ext_draw_pad(cpicker);
 1573              		.loc 1 179 5 is_stmt 1 view .LVU464
 179:lvgl/src/lv_widgets/lv_cpicker.c ****     lv_obj_refresh_ext_draw_pad(cpicker);
 1574              		.loc 1 179 15 is_stmt 0 view .LVU465
 1575 002a 90F82030 		ldrb	r3, [r0, #32]	@ zero_extendqisi2
 1576 002e 65F3C303 		bfi	r3, r5, #3, #1
 1577 0032 80F82030 		strb	r3, [r0, #32]
 180:lvgl/src/lv_widgets/lv_cpicker.c ****     refr_knob_pos(cpicker);
 1578              		.loc 1 180 5 is_stmt 1 view .LVU466
 1579 0036 2046     		mov	r0, r4
 1580              	.LVL161:
 180:lvgl/src/lv_widgets/lv_cpicker.c ****     refr_knob_pos(cpicker);
 1581              		.loc 1 180 5 is_stmt 0 view .LVU467
 1582 0038 FFF7FEFF 		bl	lv_obj_refresh_ext_draw_pad
 1583              	.LVL162:
 181:lvgl/src/lv_widgets/lv_cpicker.c **** 
 1584              		.loc 1 181 5 is_stmt 1 view .LVU468
 1585 003c 2046     		mov	r0, r4
 1586 003e FFF7FEFF 		bl	refr_knob_pos
 1587              	.LVL163:
 183:lvgl/src/lv_widgets/lv_cpicker.c **** }
 1588              		.loc 1 183 5 view .LVU469
 1589 0042 2046     		mov	r0, r4
 1590 0044 FFF7FEFF 		bl	lv_obj_invalidate
 1591              	.LVL164:
 1592              	.L79:
 184:lvgl/src/lv_widgets/lv_cpicker.c **** 
 1593              		.loc 1 184 1 is_stmt 0 view .LVU470
 1594 0048 38BD     		pop	{r3, r4, r5, pc}
 1595              	.LVL165:
 1596              	.L85:
 184:lvgl/src/lv_widgets/lv_cpicker.c **** 
 1597              		.loc 1 184 1 view .LVU471
 1598 004a 00BF     		.align	2
 1599              	.L84:
 1600 004c 00000000 		.word	.LC1
 1601              		.cfi_endproc
 1602              	.LFE459:
 1604              		.section	.text.lv_cpicker_set_hsv,"ax",%progbits
 1605              		.align	1
 1606              		.global	lv_cpicker_set_hsv
 1607              		.syntax unified
 1608              		.thumb
 1609              		.thumb_func
 1610              		.fpu fpv4-sp-d16
 1612              	lv_cpicker_set_hsv:
 1613              	.LVL166:
 1614              	.LFB463:
 232:lvgl/src/lv_widgets/lv_cpicker.c ****     LV_ASSERT_OBJ(cpicker, LV_OBJX_NAME);
 1615              		.loc 1 232 1 is_stmt 1 view -0
 1616              		.cfi_startproc
 1617              		@ args = 0, pretend = 0, frame = 8
 1618              		@ frame_needed = 0, uses_anonymous_args = 0
 232:lvgl/src/lv_widgets/lv_cpicker.c ****     LV_ASSERT_OBJ(cpicker, LV_OBJX_NAME);
 1619              		.loc 1 232 1 is_stmt 0 view .LVU473
ARM GAS  D:\Temp\ccfvNLhk.s 			page 60


 1620 0000 30B5     		push	{r4, r5, lr}
 1621              	.LCFI15:
 1622              		.cfi_def_cfa_offset 12
 1623              		.cfi_offset 4, -12
 1624              		.cfi_offset 5, -8
 1625              		.cfi_offset 14, -4
 1626 0002 83B0     		sub	sp, sp, #12
 1627              	.LCFI16:
 1628              		.cfi_def_cfa_offset 24
 1629 0004 0446     		mov	r4, r0
 1630 0006 0191     		str	r1, [sp, #4]
 233:lvgl/src/lv_widgets/lv_cpicker.c **** 
 1631              		.loc 1 233 5 is_stmt 1 view .LVU474
 233:lvgl/src/lv_widgets/lv_cpicker.c **** 
 1632              		.loc 1 233 5 view .LVU475
 1633 0008 FFF7FEFF 		bl	lv_debug_check_null
 1634              	.LVL167:
 233:lvgl/src/lv_widgets/lv_cpicker.c **** 
 1635              		.loc 1 233 5 is_stmt 0 view .LVU476
 1636 000c B0B3     		cbz	r0, .L96
 1637 000e 0546     		mov	r5, r0
 233:lvgl/src/lv_widgets/lv_cpicker.c **** 
 1638              		.loc 1 233 41 is_stmt 1 discriminator 2 view .LVU477
 235:lvgl/src/lv_widgets/lv_cpicker.c ****     if(hsv.s > 100) hsv.s = 100;
 1639              		.loc 1 235 5 discriminator 2 view .LVU478
 235:lvgl/src/lv_widgets/lv_cpicker.c ****     if(hsv.s > 100) hsv.s = 100;
 1640              		.loc 1 235 11 is_stmt 0 discriminator 2 view .LVU479
 1641 0010 BDF80420 		ldrh	r2, [sp, #4]
 235:lvgl/src/lv_widgets/lv_cpicker.c ****     if(hsv.s > 100) hsv.s = 100;
 1642              		.loc 1 235 7 discriminator 2 view .LVU480
 1643 0014 B2F5B47F 		cmp	r2, #360
 1644 0018 0AD9     		bls	.L89
 235:lvgl/src/lv_widgets/lv_cpicker.c ****     if(hsv.s > 100) hsv.s = 100;
 1645              		.loc 1 235 21 is_stmt 1 discriminator 1 view .LVU481
 235:lvgl/src/lv_widgets/lv_cpicker.c ****     if(hsv.s > 100) hsv.s = 100;
 1646              		.loc 1 235 27 is_stmt 0 discriminator 1 view .LVU482
 1647 001a D308     		lsrs	r3, r2, #3
 1648 001c 1B49     		ldr	r1, .L97
 1649 001e A1FB0313 		umull	r1, r3, r1, r3
 1650 0022 9B08     		lsrs	r3, r3, #2
 1651 0024 4FF4B471 		mov	r1, #360
 1652 0028 01FB1323 		mls	r3, r1, r3, r2
 1653 002c ADF80430 		strh	r3, [sp, #4]	@ movhi
 1654              	.L89:
 236:lvgl/src/lv_widgets/lv_cpicker.c ****     if(hsv.v > 100) hsv.v = 100;
 1655              		.loc 1 236 5 is_stmt 1 view .LVU483
 236:lvgl/src/lv_widgets/lv_cpicker.c ****     if(hsv.v > 100) hsv.v = 100;
 1656              		.loc 1 236 11 is_stmt 0 view .LVU484
 1657 0030 9DF80630 		ldrb	r3, [sp, #6]	@ zero_extendqisi2
 236:lvgl/src/lv_widgets/lv_cpicker.c ****     if(hsv.v > 100) hsv.v = 100;
 1658              		.loc 1 236 7 view .LVU485
 1659 0034 642B     		cmp	r3, #100
 1660 0036 02D9     		bls	.L90
 236:lvgl/src/lv_widgets/lv_cpicker.c ****     if(hsv.v > 100) hsv.v = 100;
 1661              		.loc 1 236 21 is_stmt 1 discriminator 1 view .LVU486
 236:lvgl/src/lv_widgets/lv_cpicker.c ****     if(hsv.v > 100) hsv.v = 100;
 1662              		.loc 1 236 27 is_stmt 0 discriminator 1 view .LVU487
ARM GAS  D:\Temp\ccfvNLhk.s 			page 61


 1663 0038 6423     		movs	r3, #100
 1664 003a 8DF80630 		strb	r3, [sp, #6]
 1665              	.L90:
 237:lvgl/src/lv_widgets/lv_cpicker.c **** 
 1666              		.loc 1 237 5 is_stmt 1 view .LVU488
 237:lvgl/src/lv_widgets/lv_cpicker.c **** 
 1667              		.loc 1 237 11 is_stmt 0 view .LVU489
 1668 003e 9DF80730 		ldrb	r3, [sp, #7]	@ zero_extendqisi2
 237:lvgl/src/lv_widgets/lv_cpicker.c **** 
 1669              		.loc 1 237 7 view .LVU490
 1670 0042 642B     		cmp	r3, #100
 1671 0044 02D9     		bls	.L91
 237:lvgl/src/lv_widgets/lv_cpicker.c **** 
 1672              		.loc 1 237 21 is_stmt 1 discriminator 1 view .LVU491
 237:lvgl/src/lv_widgets/lv_cpicker.c **** 
 1673              		.loc 1 237 27 is_stmt 0 discriminator 1 view .LVU492
 1674 0046 6423     		movs	r3, #100
 1675 0048 8DF80730 		strb	r3, [sp, #7]
 1676              	.L91:
 239:lvgl/src/lv_widgets/lv_cpicker.c **** 
 1677              		.loc 1 239 5 is_stmt 1 view .LVU493
 239:lvgl/src/lv_widgets/lv_cpicker.c **** 
 1678              		.loc 1 239 30 is_stmt 0 view .LVU494
 1679 004c 2046     		mov	r0, r4
 1680 004e FFF7FEFF 		bl	lv_obj_get_ext_attr
 1681              	.LVL168:
 241:lvgl/src/lv_widgets/lv_cpicker.c **** 
 1682              		.loc 1 241 5 is_stmt 1 view .LVU495
 241:lvgl/src/lv_widgets/lv_cpicker.c **** 
 1683              		.loc 1 241 16 is_stmt 0 view .LVU496
 1684 0052 0288     		ldrh	r2, [r0]
 241:lvgl/src/lv_widgets/lv_cpicker.c **** 
 1685              		.loc 1 241 25 view .LVU497
 1686 0054 BDF80430 		ldrh	r3, [sp, #4]
 241:lvgl/src/lv_widgets/lv_cpicker.c **** 
 1687              		.loc 1 241 7 view .LVU498
 1688 0058 9A42     		cmp	r2, r3
 1689 005a 04D1     		bne	.L92
 241:lvgl/src/lv_widgets/lv_cpicker.c **** 
 1690              		.loc 1 241 51 discriminator 1 view .LVU499
 1691 005c 4288     		ldrh	r2, [r0, #2]
 1692 005e BDF80630 		ldrh	r3, [sp, #6]
 1693 0062 9A42     		cmp	r2, r3
 1694 0064 10D0     		beq	.L94
 1695              	.L92:
 243:lvgl/src/lv_widgets/lv_cpicker.c **** 
 1696              		.loc 1 243 5 is_stmt 1 view .LVU500
 243:lvgl/src/lv_widgets/lv_cpicker.c **** 
 1697              		.loc 1 243 14 is_stmt 0 view .LVU501
 1698 0066 019B     		ldr	r3, [sp, #4]
 1699 0068 0360     		str	r3, [r0]
 245:lvgl/src/lv_widgets/lv_cpicker.c **** 
 1700              		.loc 1 245 5 is_stmt 1 view .LVU502
 1701 006a 2046     		mov	r0, r4
 1702              	.LVL169:
 245:lvgl/src/lv_widgets/lv_cpicker.c **** 
 1703              		.loc 1 245 5 is_stmt 0 view .LVU503
ARM GAS  D:\Temp\ccfvNLhk.s 			page 62


 1704 006c FFF7FEFF 		bl	refr_knob_pos
 1705              	.LVL170:
 247:lvgl/src/lv_widgets/lv_cpicker.c **** 
 1706              		.loc 1 247 5 is_stmt 1 view .LVU504
 1707 0070 2046     		mov	r0, r4
 1708 0072 FFF7FEFF 		bl	lv_obj_invalidate
 1709              	.LVL171:
 249:lvgl/src/lv_widgets/lv_cpicker.c **** }
 1710              		.loc 1 249 5 view .LVU505
 1711              	.L93:
 250:lvgl/src/lv_widgets/lv_cpicker.c **** 
 1712              		.loc 1 250 1 is_stmt 0 view .LVU506
 1713 0076 2846     		mov	r0, r5
 1714 0078 03B0     		add	sp, sp, #12
 1715              	.LCFI17:
 1716              		.cfi_remember_state
 1717              		.cfi_def_cfa_offset 12
 1718              		@ sp needed
 1719 007a 30BD     		pop	{r4, r5, pc}
 1720              	.LVL172:
 1721              	.L96:
 1722              	.LCFI18:
 1723              		.cfi_restore_state
 233:lvgl/src/lv_widgets/lv_cpicker.c **** 
 1724              		.loc 1 233 5 is_stmt 1 discriminator 1 view .LVU507
 233:lvgl/src/lv_widgets/lv_cpicker.c **** 
 1725              		.loc 1 233 5 discriminator 1 view .LVU508
 1726 007c 2246     		mov	r2, r4
 1727 007e 0023     		movs	r3, #0
 1728 0080 0348     		ldr	r0, .L97+4
 1729 0082 FFF7FEFF 		bl	lv_debug_log_error
 1730              	.LVL173:
 1731              	.L88:
 233:lvgl/src/lv_widgets/lv_cpicker.c **** 
 1732              		.loc 1 233 5 discriminator 1 view .LVU509
 233:lvgl/src/lv_widgets/lv_cpicker.c **** 
 1733              		.loc 1 233 5 discriminator 1 view .LVU510
 1734 0086 FEE7     		b	.L88
 1735              	.LVL174:
 1736              	.L94:
 241:lvgl/src/lv_widgets/lv_cpicker.c **** 
 1737              		.loc 1 241 82 is_stmt 0 view .LVU511
 1738 0088 0025     		movs	r5, #0
 1739 008a F4E7     		b	.L93
 1740              	.L98:
 1741              		.align	2
 1742              	.L97:
 1743 008c 176CC116 		.word	381774871
 1744 0090 00000000 		.word	.LC1
 1745              		.cfi_endproc
 1746              	.LFE463:
 1748              		.section	.text.double_click_reset,"ax",%progbits
 1749              		.align	1
 1750              		.syntax unified
 1751              		.thumb
 1752              		.thumb_func
 1753              		.fpu fpv4-sp-d16
ARM GAS  D:\Temp\ccfvNLhk.s 			page 63


 1755              	double_click_reset:
 1756              	.LVL175:
 1757              	.LFB487:
 967:lvgl/src/lv_widgets/lv_cpicker.c ****     lv_cpicker_ext_t * ext = lv_obj_get_ext_attr(cpicker);
 1758              		.loc 1 967 1 is_stmt 1 view -0
 1759              		.cfi_startproc
 1760              		@ args = 0, pretend = 0, frame = 8
 1761              		@ frame_needed = 0, uses_anonymous_args = 0
 967:lvgl/src/lv_widgets/lv_cpicker.c ****     lv_cpicker_ext_t * ext = lv_obj_get_ext_attr(cpicker);
 1762              		.loc 1 967 1 is_stmt 0 view .LVU513
 1763 0000 70B5     		push	{r4, r5, r6, lr}
 1764              	.LCFI19:
 1765              		.cfi_def_cfa_offset 16
 1766              		.cfi_offset 4, -16
 1767              		.cfi_offset 5, -12
 1768              		.cfi_offset 6, -8
 1769              		.cfi_offset 14, -4
 1770 0002 82B0     		sub	sp, sp, #8
 1771              	.LCFI20:
 1772              		.cfi_def_cfa_offset 24
 1773 0004 0646     		mov	r6, r0
 968:lvgl/src/lv_widgets/lv_cpicker.c ****     lv_indev_t * indev = lv_indev_get_act();
 1774              		.loc 1 968 5 is_stmt 1 view .LVU514
 968:lvgl/src/lv_widgets/lv_cpicker.c ****     lv_indev_t * indev = lv_indev_get_act();
 1775              		.loc 1 968 30 is_stmt 0 view .LVU515
 1776 0006 FFF7FEFF 		bl	lv_obj_get_ext_attr
 1777              	.LVL176:
 968:lvgl/src/lv_widgets/lv_cpicker.c ****     lv_indev_t * indev = lv_indev_get_act();
 1778              		.loc 1 968 30 view .LVU516
 1779 000a 0446     		mov	r4, r0
 1780              	.LVL177:
 969:lvgl/src/lv_widgets/lv_cpicker.c ****     /*Double clicked? Use long press time as double click time out*/
 1781              		.loc 1 969 5 is_stmt 1 view .LVU517
 969:lvgl/src/lv_widgets/lv_cpicker.c ****     /*Double clicked? Use long press time as double click time out*/
 1782              		.loc 1 969 26 is_stmt 0 view .LVU518
 1783 000c FFF7FEFF 		bl	lv_indev_get_act
 1784              	.LVL178:
 969:lvgl/src/lv_widgets/lv_cpicker.c ****     /*Double clicked? Use long press time as double click time out*/
 1785              		.loc 1 969 26 view .LVU519
 1786 0010 0546     		mov	r5, r0
 1787              	.LVL179:
 971:lvgl/src/lv_widgets/lv_cpicker.c ****         lv_color_hsv_t hsv_cur;
 1788              		.loc 1 971 5 is_stmt 1 view .LVU520
 971:lvgl/src/lv_widgets/lv_cpicker.c ****         lv_color_hsv_t hsv_cur;
 1789              		.loc 1 971 8 is_stmt 0 view .LVU521
 1790 0012 6069     		ldr	r0, [r4, #20]
 1791              	.LVL180:
 971:lvgl/src/lv_widgets/lv_cpicker.c ****         lv_color_hsv_t hsv_cur;
 1792              		.loc 1 971 8 view .LVU522
 1793 0014 FFF7FEFF 		bl	lv_tick_elaps
 1794              	.LVL181:
 971:lvgl/src/lv_widgets/lv_cpicker.c ****         lv_color_hsv_t hsv_cur;
 1795              		.loc 1 971 59 view .LVU523
 1796 0018 2B8B     		ldrh	r3, [r5, #24]
 971:lvgl/src/lv_widgets/lv_cpicker.c ****         lv_color_hsv_t hsv_cur;
 1797              		.loc 1 971 7 view .LVU524
 1798 001a 9842     		cmp	r0, r3
ARM GAS  D:\Temp\ccfvNLhk.s 			page 64


 1799 001c 14D2     		bcs	.L100
 1800              	.LBB85:
 972:lvgl/src/lv_widgets/lv_cpicker.c ****         hsv_cur = ext->hsv;
 1801              		.loc 1 972 9 is_stmt 1 view .LVU525
 973:lvgl/src/lv_widgets/lv_cpicker.c **** 
 1802              		.loc 1 973 9 view .LVU526
 973:lvgl/src/lv_widgets/lv_cpicker.c **** 
 1803              		.loc 1 973 17 is_stmt 0 view .LVU527
 1804 001e 2368     		ldr	r3, [r4]
 1805 0020 0193     		str	r3, [sp, #4]
 975:lvgl/src/lv_widgets/lv_cpicker.c ****             case LV_CPICKER_COLOR_MODE_HUE:
 1806              		.loc 1 975 9 is_stmt 1 view .LVU528
 975:lvgl/src/lv_widgets/lv_cpicker.c ****             case LV_CPICKER_COLOR_MODE_HUE:
 1807              		.loc 1 975 19 is_stmt 0 view .LVU529
 1808 0022 94F82030 		ldrb	r3, [r4, #32]	@ zero_extendqisi2
 1809 0026 C3F30103 		ubfx	r3, r3, #0, #2
 1810 002a DAB2     		uxtb	r2, r3
 975:lvgl/src/lv_widgets/lv_cpicker.c ****             case LV_CPICKER_COLOR_MODE_HUE:
 1811              		.loc 1 975 9 view .LVU530
 1812 002c 012A     		cmp	r2, #1
 1813 002e 15D0     		beq	.L101
 1814 0030 5BB2     		sxtb	r3, r3
 1815 0032 7BB1     		cbz	r3, .L102
 1816 0034 022A     		cmp	r2, #2
 1817 0036 15D0     		beq	.L103
 1818              	.L104:
 987:lvgl/src/lv_widgets/lv_cpicker.c **** 
 1819              		.loc 1 987 9 is_stmt 1 view .LVU531
 1820 0038 2846     		mov	r0, r5
 1821 003a FFF7FEFF 		bl	lv_indev_wait_release
 1822              	.LVL182:
 989:lvgl/src/lv_widgets/lv_cpicker.c ****             lv_res_t res = lv_event_send(cpicker, LV_EVENT_VALUE_CHANGED, NULL);
 1823              		.loc 1 989 9 view .LVU532
 989:lvgl/src/lv_widgets/lv_cpicker.c ****             lv_res_t res = lv_event_send(cpicker, LV_EVENT_VALUE_CHANGED, NULL);
 1824              		.loc 1 989 12 is_stmt 0 view .LVU533
 1825 003e 0199     		ldr	r1, [sp, #4]
 1826 0040 3046     		mov	r0, r6
 1827 0042 FFF7FEFF 		bl	lv_cpicker_set_hsv
 1828              	.LVL183:
 989:lvgl/src/lv_widgets/lv_cpicker.c ****             lv_res_t res = lv_event_send(cpicker, LV_EVENT_VALUE_CHANGED, NULL);
 1829              		.loc 1 989 11 view .LVU534
 1830 0046 88B9     		cbnz	r0, .L108
 1831              	.L100:
 989:lvgl/src/lv_widgets/lv_cpicker.c ****             lv_res_t res = lv_event_send(cpicker, LV_EVENT_VALUE_CHANGED, NULL);
 1832              		.loc 1 989 11 view .LVU535
 1833              	.LBE85:
 994:lvgl/src/lv_widgets/lv_cpicker.c **** 
 1834              		.loc 1 994 5 is_stmt 1 view .LVU536
 994:lvgl/src/lv_widgets/lv_cpicker.c **** 
 1835              		.loc 1 994 28 is_stmt 0 view .LVU537
 1836 0048 FFF7FEFF 		bl	lv_tick_get
 1837              	.LVL184:
 994:lvgl/src/lv_widgets/lv_cpicker.c **** 
 1838              		.loc 1 994 26 view .LVU538
 1839 004c 6061     		str	r0, [r4, #20]
 996:lvgl/src/lv_widgets/lv_cpicker.c **** }
 1840              		.loc 1 996 5 is_stmt 1 view .LVU539
ARM GAS  D:\Temp\ccfvNLhk.s 			page 65


 996:lvgl/src/lv_widgets/lv_cpicker.c **** }
 1841              		.loc 1 996 12 is_stmt 0 view .LVU540
 1842 004e 0120     		movs	r0, #1
 1843              	.L106:
 997:lvgl/src/lv_widgets/lv_cpicker.c **** 
 1844              		.loc 1 997 1 view .LVU541
 1845 0050 02B0     		add	sp, sp, #8
 1846              	.LCFI21:
 1847              		.cfi_remember_state
 1848              		.cfi_def_cfa_offset 16
 1849              		@ sp needed
 1850 0052 70BD     		pop	{r4, r5, r6, pc}
 1851              	.LVL185:
 1852              	.L102:
 1853              	.LCFI22:
 1854              		.cfi_restore_state
 1855              	.LBB87:
 977:lvgl/src/lv_widgets/lv_cpicker.c ****                 break;
 1856              		.loc 1 977 17 is_stmt 1 view .LVU542
 977:lvgl/src/lv_widgets/lv_cpicker.c ****                 break;
 1857              		.loc 1 977 27 is_stmt 0 view .LVU543
 1858 0054 0023     		movs	r3, #0
 1859 0056 ADF80430 		strh	r3, [sp, #4]	@ movhi
 978:lvgl/src/lv_widgets/lv_cpicker.c ****             case LV_CPICKER_COLOR_MODE_SATURATION:
 1860              		.loc 1 978 17 is_stmt 1 view .LVU544
 1861 005a EDE7     		b	.L104
 1862              	.L101:
 980:lvgl/src/lv_widgets/lv_cpicker.c ****                 break;
 1863              		.loc 1 980 17 view .LVU545
 980:lvgl/src/lv_widgets/lv_cpicker.c ****                 break;
 1864              		.loc 1 980 27 is_stmt 0 view .LVU546
 1865 005c 6423     		movs	r3, #100
 1866 005e 8DF80630 		strb	r3, [sp, #6]
 981:lvgl/src/lv_widgets/lv_cpicker.c ****             case LV_CPICKER_COLOR_MODE_VALUE:
 1867              		.loc 1 981 17 is_stmt 1 view .LVU547
 1868 0062 E9E7     		b	.L104
 1869              	.L103:
 983:lvgl/src/lv_widgets/lv_cpicker.c ****                 break;
 1870              		.loc 1 983 17 view .LVU548
 983:lvgl/src/lv_widgets/lv_cpicker.c ****                 break;
 1871              		.loc 1 983 27 is_stmt 0 view .LVU549
 1872 0064 6423     		movs	r3, #100
 1873 0066 8DF80730 		strb	r3, [sp, #7]
 984:lvgl/src/lv_widgets/lv_cpicker.c ****         }
 1874              		.loc 1 984 17 is_stmt 1 view .LVU550
 1875 006a E5E7     		b	.L104
 1876              	.L108:
 1877              	.LBB86:
 990:lvgl/src/lv_widgets/lv_cpicker.c ****             if(res != LV_RES_OK) return res;
 1878              		.loc 1 990 13 view .LVU551
 990:lvgl/src/lv_widgets/lv_cpicker.c ****             if(res != LV_RES_OK) return res;
 1879              		.loc 1 990 28 is_stmt 0 view .LVU552
 1880 006c 0022     		movs	r2, #0
 1881 006e 1021     		movs	r1, #16
 1882 0070 3046     		mov	r0, r6
 1883 0072 FFF7FEFF 		bl	lv_event_send
 1884              	.LVL186:
ARM GAS  D:\Temp\ccfvNLhk.s 			page 66


 991:lvgl/src/lv_widgets/lv_cpicker.c ****         }
 1885              		.loc 1 991 13 is_stmt 1 view .LVU553
 991:lvgl/src/lv_widgets/lv_cpicker.c ****         }
 1886              		.loc 1 991 15 is_stmt 0 view .LVU554
 1887 0076 0128     		cmp	r0, #1
 1888 0078 EAD1     		bne	.L106
 1889 007a E5E7     		b	.L100
 1890              	.LBE86:
 1891              	.LBE87:
 1892              		.cfi_endproc
 1893              	.LFE487:
 1895              		.section	.text.lv_cpicker_signal,"ax",%progbits
 1896              		.align	1
 1897              		.syntax unified
 1898              		.thumb
 1899              		.thumb_func
 1900              		.fpu fpv4-sp-d16
 1902              	lv_cpicker_signal:
 1903              	.LVL187:
 1904              	.LFB482:
 669:lvgl/src/lv_widgets/lv_cpicker.c ****     /* Include the ancient signal function */
 1905              		.loc 1 669 1 is_stmt 1 view -0
 1906              		.cfi_startproc
 1907              		@ args = 0, pretend = 0, frame = 8
 1908              		@ frame_needed = 0, uses_anonymous_args = 0
 669:lvgl/src/lv_widgets/lv_cpicker.c ****     /* Include the ancient signal function */
 1909              		.loc 1 669 1 is_stmt 0 view .LVU556
 1910 0000 2DE9F043 		push	{r4, r5, r6, r7, r8, r9, lr}
 1911              	.LCFI23:
 1912              		.cfi_def_cfa_offset 28
 1913              		.cfi_offset 4, -28
 1914              		.cfi_offset 5, -24
 1915              		.cfi_offset 6, -20
 1916              		.cfi_offset 7, -16
 1917              		.cfi_offset 8, -12
 1918              		.cfi_offset 9, -8
 1919              		.cfi_offset 14, -4
 1920 0004 83B0     		sub	sp, sp, #12
 1921              	.LCFI24:
 1922              		.cfi_def_cfa_offset 40
 1923 0006 0546     		mov	r5, r0
 1924 0008 0C46     		mov	r4, r1
 1925 000a 1746     		mov	r7, r2
 671:lvgl/src/lv_widgets/lv_cpicker.c **** 
 1926              		.loc 1 671 5 is_stmt 1 view .LVU557
 673:lvgl/src/lv_widgets/lv_cpicker.c ****         lv_get_style_info_t * info = param;
 1927              		.loc 1 673 5 view .LVU558
 673:lvgl/src/lv_widgets/lv_cpicker.c ****         lv_get_style_info_t * info = param;
 1928              		.loc 1 673 7 is_stmt 0 view .LVU559
 1929 000c 0829     		cmp	r1, #8
 1930 000e 24D0     		beq	.L164
 680:lvgl/src/lv_widgets/lv_cpicker.c ****     if(res != LV_RES_OK) return res;
 1931              		.loc 1 680 5 is_stmt 1 view .LVU560
 680:lvgl/src/lv_widgets/lv_cpicker.c ****     if(res != LV_RES_OK) return res;
 1932              		.loc 1 680 11 is_stmt 0 view .LVU561
 1933 0010 A44B     		ldr	r3, .L178
 1934 0012 1B68     		ldr	r3, [r3]
ARM GAS  D:\Temp\ccfvNLhk.s 			page 67


 1935 0014 9847     		blx	r3
 1936              	.LVL188:
 680:lvgl/src/lv_widgets/lv_cpicker.c ****     if(res != LV_RES_OK) return res;
 1937              		.loc 1 680 11 view .LVU562
 1938 0016 0646     		mov	r6, r0
 1939              	.LVL189:
 681:lvgl/src/lv_widgets/lv_cpicker.c ****     if(sign == LV_SIGNAL_GET_TYPE) return lv_obj_handle_get_type_signal(param, LV_OBJX_NAME);
 1940              		.loc 1 681 5 is_stmt 1 view .LVU563
 681:lvgl/src/lv_widgets/lv_cpicker.c ****     if(sign == LV_SIGNAL_GET_TYPE) return lv_obj_handle_get_type_signal(param, LV_OBJX_NAME);
 1941              		.loc 1 681 7 is_stmt 0 view .LVU564
 1942 0018 0128     		cmp	r0, #1
 1943 001a 24D1     		bne	.L111
 682:lvgl/src/lv_widgets/lv_cpicker.c **** 
 1944              		.loc 1 682 5 is_stmt 1 view .LVU565
 682:lvgl/src/lv_widgets/lv_cpicker.c **** 
 1945              		.loc 1 682 7 is_stmt 0 view .LVU566
 1946 001c 072C     		cmp	r4, #7
 1947 001e 2ED0     		beq	.L165
 684:lvgl/src/lv_widgets/lv_cpicker.c **** 
 1948              		.loc 1 684 5 is_stmt 1 view .LVU567
 684:lvgl/src/lv_widgets/lv_cpicker.c **** 
 1949              		.loc 1 684 30 is_stmt 0 view .LVU568
 1950 0020 2846     		mov	r0, r5
 1951              	.LVL190:
 684:lvgl/src/lv_widgets/lv_cpicker.c **** 
 1952              		.loc 1 684 30 view .LVU569
 1953 0022 FFF7FEFF 		bl	lv_obj_get_ext_attr
 1954              	.LVL191:
 1955 0026 8046     		mov	r8, r0
 1956              	.LVL192:
 686:lvgl/src/lv_widgets/lv_cpicker.c ****         lv_obj_clean_style_list(cpicker, LV_CPICKER_PART_KNOB);
 1957              		.loc 1 686 5 is_stmt 1 view .LVU570
 686:lvgl/src/lv_widgets/lv_cpicker.c ****         lv_obj_clean_style_list(cpicker, LV_CPICKER_PART_KNOB);
 1958              		.loc 1 686 7 is_stmt 0 view .LVU571
 1959 0028 7CB3     		cbz	r4, .L166
 689:lvgl/src/lv_widgets/lv_cpicker.c ****         lv_style_int_t left = lv_obj_get_style_pad_left(cpicker, LV_CPICKER_PART_KNOB);
 1960              		.loc 1 689 10 is_stmt 1 view .LVU572
 689:lvgl/src/lv_widgets/lv_cpicker.c ****         lv_style_int_t left = lv_obj_get_style_pad_left(cpicker, LV_CPICKER_PART_KNOB);
 1961              		.loc 1 689 12 is_stmt 0 view .LVU573
 1962 002a 062C     		cmp	r4, #6
 1963 002c 32D0     		beq	.L167
 705:lvgl/src/lv_widgets/lv_cpicker.c ****         /*Refresh extended draw area to make knob visible*/
 1964              		.loc 1 705 10 is_stmt 1 view .LVU574
 705:lvgl/src/lv_widgets/lv_cpicker.c ****         /*Refresh extended draw area to make knob visible*/
 1965              		.loc 1 705 12 is_stmt 0 view .LVU575
 1966 002e 022C     		cmp	r4, #2
 1967 0030 72D0     		beq	.L168
 714:lvgl/src/lv_widgets/lv_cpicker.c ****         /*Refresh extended draw area to make knob visible*/
 1968              		.loc 1 714 10 is_stmt 1 view .LVU576
 714:lvgl/src/lv_widgets/lv_cpicker.c ****         /*Refresh extended draw area to make knob visible*/
 1969              		.loc 1 714 12 is_stmt 0 view .LVU577
 1970 0032 042C     		cmp	r4, #4
 1971 0034 00F09180 		beq	.L169
 720:lvgl/src/lv_widgets/lv_cpicker.c **** #if LV_USE_GROUP
 1972              		.loc 1 720 10 is_stmt 1 view .LVU578
 720:lvgl/src/lv_widgets/lv_cpicker.c **** #if LV_USE_GROUP
 1973              		.loc 1 720 12 is_stmt 0 view .LVU579
ARM GAS  D:\Temp\ccfvNLhk.s 			page 68


 1974 0038 182C     		cmp	r4, #24
 1975 003a 00F09880 		beq	.L170
 768:lvgl/src/lv_widgets/lv_cpicker.c ****         ext->last_change_time = lv_tick_get();
 1976              		.loc 1 768 10 is_stmt 1 view .LVU580
 768:lvgl/src/lv_widgets/lv_cpicker.c ****         ext->last_change_time = lv_tick_get();
 1977              		.loc 1 768 12 is_stmt 0 view .LVU581
 1978 003e 0B2C     		cmp	r4, #11
 1979 0040 00F02081 		beq	.L171
 774:lvgl/src/lv_widgets/lv_cpicker.c ****         lv_indev_t * indev = lv_indev_get_act();
 1980              		.loc 1 774 10 is_stmt 1 view .LVU582
 774:lvgl/src/lv_widgets/lv_cpicker.c ****         lv_indev_t * indev = lv_indev_get_act();
 1981              		.loc 1 774 12 is_stmt 0 view .LVU583
 1982 0044 0C2C     		cmp	r4, #12
 1983 0046 00F03581 		beq	.L172
 870:lvgl/src/lv_widgets/lv_cpicker.c ****         lv_hit_test_info_t * info = param;
 1984              		.loc 1 870 10 is_stmt 1 view .LVU584
 870:lvgl/src/lv_widgets/lv_cpicker.c ****         lv_hit_test_info_t * info = param;
 1985              		.loc 1 870 12 is_stmt 0 view .LVU585
 1986 004a 0A2C     		cmp	r4, #10
 1987 004c 0BD1     		bne	.L111
 1988              	.LBB88:
 871:lvgl/src/lv_widgets/lv_cpicker.c ****         info->result = lv_cpicker_hit(cpicker, info->point);
 1989              		.loc 1 871 9 is_stmt 1 view .LVU586
 1990              	.LVL193:
 872:lvgl/src/lv_widgets/lv_cpicker.c ****     }
 1991              		.loc 1 872 9 view .LVU587
 872:lvgl/src/lv_widgets/lv_cpicker.c ****     }
 1992              		.loc 1 872 24 is_stmt 0 view .LVU588
 1993 004e 3968     		ldr	r1, [r7]
 1994 0050 2846     		mov	r0, r5
 1995              	.LVL194:
 872:lvgl/src/lv_widgets/lv_cpicker.c ****     }
 1996              		.loc 1 872 24 view .LVU589
 1997 0052 FFF7FEFF 		bl	lv_cpicker_hit
 1998              	.LVL195:
 872:lvgl/src/lv_widgets/lv_cpicker.c ****     }
 1999              		.loc 1 872 22 view .LVU590
 2000 0056 3871     		strb	r0, [r7, #4]
 2001 0058 05E0     		b	.L111
 2002              	.LVL196:
 2003              	.L164:
 872:lvgl/src/lv_widgets/lv_cpicker.c ****     }
 2004              		.loc 1 872 22 view .LVU591
 2005              	.LBE88:
 2006              	.LBB89:
 674:lvgl/src/lv_widgets/lv_cpicker.c ****         info->result = lv_cpicker_get_style(cpicker, info->part);
 2007              		.loc 1 674 9 is_stmt 1 view .LVU592
 675:lvgl/src/lv_widgets/lv_cpicker.c ****         if(info->result != NULL) return LV_RES_OK;
 2008              		.loc 1 675 9 view .LVU593
 675:lvgl/src/lv_widgets/lv_cpicker.c ****         if(info->result != NULL) return LV_RES_OK;
 2009              		.loc 1 675 24 is_stmt 0 view .LVU594
 2010 005a 1178     		ldrb	r1, [r2]	@ zero_extendqisi2
 2011              	.LVL197:
 675:lvgl/src/lv_widgets/lv_cpicker.c ****         if(info->result != NULL) return LV_RES_OK;
 2012              		.loc 1 675 24 view .LVU595
 2013 005c FFF7FEFF 		bl	lv_cpicker_get_style
 2014              	.LVL198:
ARM GAS  D:\Temp\ccfvNLhk.s 			page 69


 675:lvgl/src/lv_widgets/lv_cpicker.c ****         if(info->result != NULL) return LV_RES_OK;
 2015              		.loc 1 675 22 view .LVU596
 2016 0060 7860     		str	r0, [r7, #4]
 676:lvgl/src/lv_widgets/lv_cpicker.c ****         else return ancestor_signal(cpicker, sign, param);
 2017              		.loc 1 676 9 is_stmt 1 view .LVU597
 676:lvgl/src/lv_widgets/lv_cpicker.c ****         else return ancestor_signal(cpicker, sign, param);
 2018              		.loc 1 676 11 is_stmt 0 view .LVU598
 2019 0062 20B1     		cbz	r0, .L173
 676:lvgl/src/lv_widgets/lv_cpicker.c ****         else return ancestor_signal(cpicker, sign, param);
 2020              		.loc 1 676 41 view .LVU599
 2021 0064 0126     		movs	r6, #1
 2022              	.LVL199:
 2023              	.L111:
 676:lvgl/src/lv_widgets/lv_cpicker.c ****         else return ancestor_signal(cpicker, sign, param);
 2024              		.loc 1 676 41 view .LVU600
 2025              	.LBE89:
 876:lvgl/src/lv_widgets/lv_cpicker.c **** 
 2026              		.loc 1 876 1 view .LVU601
 2027 0066 3046     		mov	r0, r6
 2028 0068 03B0     		add	sp, sp, #12
 2029              	.LCFI25:
 2030              		.cfi_remember_state
 2031              		.cfi_def_cfa_offset 28
 2032              		@ sp needed
 2033 006a BDE8F083 		pop	{r4, r5, r6, r7, r8, r9, pc}
 2034              	.LVL200:
 2035              	.L173:
 2036              	.LCFI26:
 2037              		.cfi_restore_state
 2038              	.LBB90:
 677:lvgl/src/lv_widgets/lv_cpicker.c ****     }
 2039              		.loc 1 677 14 is_stmt 1 view .LVU602
 677:lvgl/src/lv_widgets/lv_cpicker.c ****     }
 2040              		.loc 1 677 21 is_stmt 0 view .LVU603
 2041 006e 8D4B     		ldr	r3, .L178
 2042 0070 1B68     		ldr	r3, [r3]
 2043 0072 3A46     		mov	r2, r7
 2044 0074 2146     		mov	r1, r4
 2045 0076 2846     		mov	r0, r5
 2046 0078 9847     		blx	r3
 2047              	.LVL201:
 2048 007a 0646     		mov	r6, r0
 2049 007c F3E7     		b	.L111
 2050              	.LVL202:
 2051              	.L165:
 677:lvgl/src/lv_widgets/lv_cpicker.c ****     }
 2052              		.loc 1 677 21 view .LVU604
 2053              	.LBE90:
 682:lvgl/src/lv_widgets/lv_cpicker.c **** 
 2054              		.loc 1 682 36 is_stmt 1 discriminator 1 view .LVU605
 682:lvgl/src/lv_widgets/lv_cpicker.c **** 
 2055              		.loc 1 682 43 is_stmt 0 discriminator 1 view .LVU606
 2056 007e 8A49     		ldr	r1, .L178+4
 2057 0080 3846     		mov	r0, r7
 2058              	.LVL203:
 682:lvgl/src/lv_widgets/lv_cpicker.c **** 
 2059              		.loc 1 682 43 discriminator 1 view .LVU607
ARM GAS  D:\Temp\ccfvNLhk.s 			page 70


 2060 0082 FFF7FEFF 		bl	lv_obj_handle_get_type_signal
 2061              	.LVL204:
 2062 0086 0646     		mov	r6, r0
 2063 0088 EDE7     		b	.L111
 2064              	.LVL205:
 2065              	.L166:
 687:lvgl/src/lv_widgets/lv_cpicker.c ****     }
 2066              		.loc 1 687 9 is_stmt 1 view .LVU608
 2067 008a 0121     		movs	r1, #1
 2068 008c 2846     		mov	r0, r5
 2069              	.LVL206:
 687:lvgl/src/lv_widgets/lv_cpicker.c ****     }
 2070              		.loc 1 687 9 is_stmt 0 view .LVU609
 2071 008e FFF7FEFF 		bl	lv_obj_clean_style_list
 2072              	.LVL207:
 2073 0092 E8E7     		b	.L111
 2074              	.LVL208:
 2075              	.L167:
 2076              	.LBB91:
 690:lvgl/src/lv_widgets/lv_cpicker.c ****         lv_style_int_t right = lv_obj_get_style_pad_right(cpicker, LV_CPICKER_PART_KNOB);
 2077              		.loc 1 690 9 is_stmt 1 view .LVU610
 2078              	.LBB92:
 2079              	.LBI92:
 112:lvgl/src/lv_widgets/../lv_core/lv_obj_style_dec.h **** _LV_OBJ_STYLE_SET_GET_DECLARE(PAD_RIGHT, pad_right, lv_style_int_t, _int, scalar)
 2080              		.loc 2 112 1 view .LVU611
 2081              	.LBB93:
 112:lvgl/src/lv_widgets/../lv_core/lv_obj_style_dec.h **** _LV_OBJ_STYLE_SET_GET_DECLARE(PAD_RIGHT, pad_right, lv_style_int_t, _int, scalar)
 2082              		.loc 2 112 1 view .LVU612
 2083 0094 1222     		movs	r2, #18
 2084 0096 0121     		movs	r1, #1
 2085 0098 2846     		mov	r0, r5
 2086              	.LVL209:
 112:lvgl/src/lv_widgets/../lv_core/lv_obj_style_dec.h **** _LV_OBJ_STYLE_SET_GET_DECLARE(PAD_RIGHT, pad_right, lv_style_int_t, _int, scalar)
 2087              		.loc 2 112 1 is_stmt 0 view .LVU613
 2088 009a FFF7FEFF 		bl	_lv_obj_get_style_int
 2089              	.LVL210:
 2090 009e 8146     		mov	r9, r0
 2091              	.LVL211:
 112:lvgl/src/lv_widgets/../lv_core/lv_obj_style_dec.h **** _LV_OBJ_STYLE_SET_GET_DECLARE(PAD_RIGHT, pad_right, lv_style_int_t, _int, scalar)
 2092              		.loc 2 112 1 view .LVU614
 2093              	.LBE93:
 2094              	.LBE92:
 691:lvgl/src/lv_widgets/lv_cpicker.c ****         lv_style_int_t top = lv_obj_get_style_pad_top(cpicker, LV_CPICKER_PART_KNOB);
 2095              		.loc 1 691 9 is_stmt 1 view .LVU615
 2096              	.LBB94:
 2097              	.LBI94:
 113:lvgl/src/lv_widgets/../lv_core/lv_obj_style_dec.h **** _LV_OBJ_STYLE_SET_GET_DECLARE(PAD_INNER, pad_inner, lv_style_int_t, _int, scalar)
 2098              		.loc 2 113 1 view .LVU616
 2099              	.LBB95:
 113:lvgl/src/lv_widgets/../lv_core/lv_obj_style_dec.h **** _LV_OBJ_STYLE_SET_GET_DECLARE(PAD_INNER, pad_inner, lv_style_int_t, _int, scalar)
 2100              		.loc 2 113 1 view .LVU617
 2101 00a0 1322     		movs	r2, #19
 2102 00a2 0121     		movs	r1, #1
 2103 00a4 2846     		mov	r0, r5
 2104 00a6 FFF7FEFF 		bl	_lv_obj_get_style_int
 2105              	.LVL212:
 2106 00aa 0746     		mov	r7, r0
ARM GAS  D:\Temp\ccfvNLhk.s 			page 71


 2107              	.LVL213:
 113:lvgl/src/lv_widgets/../lv_core/lv_obj_style_dec.h **** _LV_OBJ_STYLE_SET_GET_DECLARE(PAD_INNER, pad_inner, lv_style_int_t, _int, scalar)
 2108              		.loc 2 113 1 is_stmt 0 view .LVU618
 2109              	.LBE95:
 2110              	.LBE94:
 692:lvgl/src/lv_widgets/lv_cpicker.c ****         lv_style_int_t bottom = lv_obj_get_style_pad_bottom(cpicker, LV_CPICKER_PART_KNOB);
 2111              		.loc 1 692 9 is_stmt 1 view .LVU619
 2112              	.LBB96:
 2113              	.LBI96:
 110:lvgl/src/lv_widgets/../lv_core/lv_obj_style_dec.h **** _LV_OBJ_STYLE_SET_GET_DECLARE(PAD_BOTTOM, pad_bottom, lv_style_int_t, _int, scalar)
 2114              		.loc 2 110 1 view .LVU620
 2115              	.LBB97:
 110:lvgl/src/lv_widgets/../lv_core/lv_obj_style_dec.h **** _LV_OBJ_STYLE_SET_GET_DECLARE(PAD_BOTTOM, pad_bottom, lv_style_int_t, _int, scalar)
 2116              		.loc 2 110 1 view .LVU621
 2117 00ac 1022     		movs	r2, #16
 2118 00ae 0121     		movs	r1, #1
 2119 00b0 2846     		mov	r0, r5
 2120 00b2 FFF7FEFF 		bl	_lv_obj_get_style_int
 2121              	.LVL214:
 2122 00b6 0446     		mov	r4, r0
 2123              	.LVL215:
 110:lvgl/src/lv_widgets/../lv_core/lv_obj_style_dec.h **** _LV_OBJ_STYLE_SET_GET_DECLARE(PAD_BOTTOM, pad_bottom, lv_style_int_t, _int, scalar)
 2124              		.loc 2 110 1 is_stmt 0 view .LVU622
 2125              	.LBE97:
 2126              	.LBE96:
 693:lvgl/src/lv_widgets/lv_cpicker.c **** 
 2127              		.loc 1 693 9 is_stmt 1 view .LVU623
 2128              	.LBB98:
 2129              	.LBI98:
 111:lvgl/src/lv_widgets/../lv_core/lv_obj_style_dec.h **** _LV_OBJ_STYLE_SET_GET_DECLARE(PAD_LEFT, pad_left, lv_style_int_t, _int, scalar)
 2130              		.loc 2 111 1 view .LVU624
 2131              	.LBB99:
 111:lvgl/src/lv_widgets/../lv_core/lv_obj_style_dec.h **** _LV_OBJ_STYLE_SET_GET_DECLARE(PAD_LEFT, pad_left, lv_style_int_t, _int, scalar)
 2132              		.loc 2 111 1 view .LVU625
 2133 00b8 1122     		movs	r2, #17
 2134 00ba 0121     		movs	r1, #1
 2135 00bc 2846     		mov	r0, r5
 2136 00be FFF7FEFF 		bl	_lv_obj_get_style_int
 2137              	.LVL216:
 111:lvgl/src/lv_widgets/../lv_core/lv_obj_style_dec.h **** _LV_OBJ_STYLE_SET_GET_DECLARE(PAD_LEFT, pad_left, lv_style_int_t, _int, scalar)
 2138              		.loc 2 111 1 is_stmt 0 view .LVU626
 2139              	.LBE99:
 2140              	.LBE98:
 695:lvgl/src/lv_widgets/lv_cpicker.c **** 
 2141              		.loc 1 695 9 is_stmt 1 view .LVU627
 695:lvgl/src/lv_widgets/lv_cpicker.c **** 
 2142              		.loc 1 695 31 is_stmt 0 view .LVU628
 2143 00c2 8442     		cmp	r4, r0
 2144 00c4 B8BF     		it	lt
 2145 00c6 0446     		movlt	r4, r0
 2146              	.LVL217:
 695:lvgl/src/lv_widgets/lv_cpicker.c **** 
 2147              		.loc 1 695 31 view .LVU629
 2148 00c8 24B2     		sxth	r4, r4
 2149 00ca 4F45     		cmp	r7, r9
 2150 00cc B8BF     		it	lt
 2151 00ce 4F46     		movlt	r7, r9
ARM GAS  D:\Temp\ccfvNLhk.s 			page 72


 2152              	.LVL218:
 695:lvgl/src/lv_widgets/lv_cpicker.c **** 
 2153              		.loc 1 695 31 view .LVU630
 2154 00d0 38B2     		sxth	r0, r7
 2155              	.LVL219:
 695:lvgl/src/lv_widgets/lv_cpicker.c **** 
 2156              		.loc 1 695 31 view .LVU631
 2157 00d2 8442     		cmp	r4, r0
 2158 00d4 B8BF     		it	lt
 2159 00d6 0446     		movlt	r4, r0
 2160 00d8 A4B2     		uxth	r4, r4
 695:lvgl/src/lv_widgets/lv_cpicker.c **** 
 2161              		.loc 1 695 70 view .LVU632
 2162 00da 0234     		adds	r4, r4, #2
 2163 00dc A4B2     		uxth	r4, r4
 695:lvgl/src/lv_widgets/lv_cpicker.c **** 
 2164              		.loc 1 695 20 view .LVU633
 2165 00de 21B2     		sxth	r1, r4
 2166              	.LVL220:
 697:lvgl/src/lv_widgets/lv_cpicker.c ****             cpicker->ext_draw_pad = LV_MATH_MAX(cpicker->ext_draw_pad, knob_pad);
 2167              		.loc 1 697 9 is_stmt 1 view .LVU634
 697:lvgl/src/lv_widgets/lv_cpicker.c ****             cpicker->ext_draw_pad = LV_MATH_MAX(cpicker->ext_draw_pad, knob_pad);
 2168              		.loc 1 697 22 is_stmt 0 view .LVU635
 2169 00e0 98F82020 		ldrb	r2, [r8, #32]	@ zero_extendqisi2
 697:lvgl/src/lv_widgets/lv_cpicker.c ****             cpicker->ext_draw_pad = LV_MATH_MAX(cpicker->ext_draw_pad, knob_pad);
 2170              		.loc 1 697 11 view .LVU636
 2171 00e4 12F0080F 		tst	r2, #8
 2172 00e8 06D0     		beq	.L115
 698:lvgl/src/lv_widgets/lv_cpicker.c ****         }
 2173              		.loc 1 698 13 is_stmt 1 view .LVU637
 698:lvgl/src/lv_widgets/lv_cpicker.c ****         }
 2174              		.loc 1 698 37 is_stmt 0 view .LVU638
 2175 00ea B5F93230 		ldrsh	r3, [r5, #50]
 2176 00ee 8B42     		cmp	r3, r1
 2177 00f0 B8BF     		it	lt
 2178 00f2 0B46     		movlt	r3, r1
 698:lvgl/src/lv_widgets/lv_cpicker.c ****         }
 2179              		.loc 1 698 35 view .LVU639
 2180 00f4 6B86     		strh	r3, [r5, #50]	@ movhi
 2181 00f6 B6E7     		b	.L111
 2182              	.L115:
 701:lvgl/src/lv_widgets/lv_cpicker.c ****             cpicker->ext_draw_pad = LV_MATH_MAX(cpicker->ext_draw_pad, knob_pad);
 2183              		.loc 1 701 13 is_stmt 1 view .LVU640
 701:lvgl/src/lv_widgets/lv_cpicker.c ****             cpicker->ext_draw_pad = LV_MATH_MAX(cpicker->ext_draw_pad, knob_pad);
 2184              		.loc 1 701 25 is_stmt 0 view .LVU641
 2185 00f8 2846     		mov	r0, r5
 2186 00fa FFF7FEFF 		bl	lv_obj_get_height
 2187              	.LVL221:
