ARM GAS  D:\Temp\cc0vPyDE.s 			page 1


   1              		.cpu cortex-m4
   2              		.eabi_attribute 27, 1
   3              		.eabi_attribute 28, 1
   4              		.eabi_attribute 20, 1
   5              		.eabi_attribute 21, 1
   6              		.eabi_attribute 23, 3
   7              		.eabi_attribute 24, 1
   8              		.eabi_attribute 25, 1
   9              		.eabi_attribute 26, 1
  10              		.eabi_attribute 30, 1
  11              		.eabi_attribute 34, 1
  12              		.eabi_attribute 18, 4
  13              		.file	"lv_canvas.c"
  14              		.text
  15              	.Ltext0:
  16              		.cfi_sections	.debug_frame
  17              		.section	.text.set_set_px_cb,"ax",%progbits
  18              		.align	1
  19              		.arch armv7e-m
  20              		.syntax unified
  21              		.thumb
  22              		.thumb_func
  23              		.fpu fpv4-sp-d16
  25              	set_set_px_cb:
  26              	.LVL0:
  27              	.LFB476:
  28              		.file 1 "lvgl/src/lv_widgets/lv_canvas.c"
   1:lvgl/src/lv_widgets/lv_canvas.c **** /**
   2:lvgl/src/lv_widgets/lv_canvas.c ****  * @file lv_canvas.c
   3:lvgl/src/lv_widgets/lv_canvas.c ****  *
   4:lvgl/src/lv_widgets/lv_canvas.c ****  */
   5:lvgl/src/lv_widgets/lv_canvas.c **** 
   6:lvgl/src/lv_widgets/lv_canvas.c **** /*********************
   7:lvgl/src/lv_widgets/lv_canvas.c ****  *      INCLUDES
   8:lvgl/src/lv_widgets/lv_canvas.c ****  *********************/
   9:lvgl/src/lv_widgets/lv_canvas.c **** #include <stdlib.h>
  10:lvgl/src/lv_widgets/lv_canvas.c **** #include "lv_canvas.h"
  11:lvgl/src/lv_widgets/lv_canvas.c **** #include "../lv_misc/lv_debug.h"
  12:lvgl/src/lv_widgets/lv_canvas.c **** #include "../lv_misc/lv_math.h"
  13:lvgl/src/lv_widgets/lv_canvas.c **** #include "../lv_draw/lv_draw.h"
  14:lvgl/src/lv_widgets/lv_canvas.c **** #include "../lv_core/lv_refr.h"
  15:lvgl/src/lv_widgets/lv_canvas.c **** #include "../lv_themes/lv_theme.h"
  16:lvgl/src/lv_widgets/lv_canvas.c **** 
  17:lvgl/src/lv_widgets/lv_canvas.c **** #if LV_USE_CANVAS != 0
  18:lvgl/src/lv_widgets/lv_canvas.c **** 
  19:lvgl/src/lv_widgets/lv_canvas.c **** /*********************
  20:lvgl/src/lv_widgets/lv_canvas.c ****  *      DEFINES
  21:lvgl/src/lv_widgets/lv_canvas.c ****  *********************/
  22:lvgl/src/lv_widgets/lv_canvas.c **** #define LV_OBJX_NAME "lv_canvas"
  23:lvgl/src/lv_widgets/lv_canvas.c **** 
  24:lvgl/src/lv_widgets/lv_canvas.c **** /**********************
  25:lvgl/src/lv_widgets/lv_canvas.c ****  *      TYPEDEFS
  26:lvgl/src/lv_widgets/lv_canvas.c ****  **********************/
  27:lvgl/src/lv_widgets/lv_canvas.c **** 
  28:lvgl/src/lv_widgets/lv_canvas.c **** /**********************
  29:lvgl/src/lv_widgets/lv_canvas.c ****  *  STATIC PROTOTYPES
  30:lvgl/src/lv_widgets/lv_canvas.c ****  **********************/
ARM GAS  D:\Temp\cc0vPyDE.s 			page 2


  31:lvgl/src/lv_widgets/lv_canvas.c **** static lv_res_t lv_canvas_signal(lv_obj_t * canvas, lv_signal_t sign, void * param);
  32:lvgl/src/lv_widgets/lv_canvas.c **** static void set_set_px_cb(lv_disp_drv_t * disp_drv, lv_img_cf_t cf);
  33:lvgl/src/lv_widgets/lv_canvas.c **** 
  34:lvgl/src/lv_widgets/lv_canvas.c **** static void set_px_true_color_alpha(lv_disp_drv_t * disp_drv, uint8_t * buf, lv_coord_t buf_w, lv_c
  35:lvgl/src/lv_widgets/lv_canvas.c ****                                     lv_coord_t y,
  36:lvgl/src/lv_widgets/lv_canvas.c ****                                     lv_color_t color, lv_opa_t opa);
  37:lvgl/src/lv_widgets/lv_canvas.c **** 
  38:lvgl/src/lv_widgets/lv_canvas.c **** static void set_px_cb_alpha1(lv_disp_drv_t * disp_drv, uint8_t * buf, lv_coord_t buf_w, lv_coord_t 
  39:lvgl/src/lv_widgets/lv_canvas.c ****                              lv_color_t color, lv_opa_t opa);
  40:lvgl/src/lv_widgets/lv_canvas.c **** 
  41:lvgl/src/lv_widgets/lv_canvas.c **** static void set_px_cb_alpha2(lv_disp_drv_t * disp_drv, uint8_t * buf, lv_coord_t buf_w, lv_coord_t 
  42:lvgl/src/lv_widgets/lv_canvas.c ****                              lv_color_t color, lv_opa_t opa);
  43:lvgl/src/lv_widgets/lv_canvas.c **** 
  44:lvgl/src/lv_widgets/lv_canvas.c **** static void set_px_cb_alpha4(lv_disp_drv_t * disp_drv, uint8_t * buf, lv_coord_t buf_w, lv_coord_t 
  45:lvgl/src/lv_widgets/lv_canvas.c ****                              lv_color_t color, lv_opa_t opa);
  46:lvgl/src/lv_widgets/lv_canvas.c **** 
  47:lvgl/src/lv_widgets/lv_canvas.c **** static void set_px_cb_alpha8(lv_disp_drv_t * disp_drv, uint8_t * buf, lv_coord_t buf_w, lv_coord_t 
  48:lvgl/src/lv_widgets/lv_canvas.c ****                              lv_color_t color, lv_opa_t opa);
  49:lvgl/src/lv_widgets/lv_canvas.c **** 
  50:lvgl/src/lv_widgets/lv_canvas.c **** static void set_px_alpha_generic(lv_img_dsc_t * d, lv_coord_t x, lv_coord_t y, lv_color_t color, lv
  51:lvgl/src/lv_widgets/lv_canvas.c **** 
  52:lvgl/src/lv_widgets/lv_canvas.c **** /**********************
  53:lvgl/src/lv_widgets/lv_canvas.c ****  *  STATIC VARIABLES
  54:lvgl/src/lv_widgets/lv_canvas.c ****  **********************/
  55:lvgl/src/lv_widgets/lv_canvas.c **** static lv_signal_cb_t ancestor_signal;
  56:lvgl/src/lv_widgets/lv_canvas.c **** static lv_design_cb_t ancestor_design;
  57:lvgl/src/lv_widgets/lv_canvas.c **** 
  58:lvgl/src/lv_widgets/lv_canvas.c **** /**********************
  59:lvgl/src/lv_widgets/lv_canvas.c ****  *      MACROS
  60:lvgl/src/lv_widgets/lv_canvas.c ****  **********************/
  61:lvgl/src/lv_widgets/lv_canvas.c **** 
  62:lvgl/src/lv_widgets/lv_canvas.c **** /**********************
  63:lvgl/src/lv_widgets/lv_canvas.c ****  *   GLOBAL FUNCTIONS
  64:lvgl/src/lv_widgets/lv_canvas.c ****  **********************/
  65:lvgl/src/lv_widgets/lv_canvas.c **** 
  66:lvgl/src/lv_widgets/lv_canvas.c **** /**
  67:lvgl/src/lv_widgets/lv_canvas.c ****  * Create a canvas object
  68:lvgl/src/lv_widgets/lv_canvas.c ****  * @param par pointer to an object, it will be the parent of the new canvas
  69:lvgl/src/lv_widgets/lv_canvas.c ****  * @param copy pointer to a canvas object, if not NULL then the new object will be copied from it
  70:lvgl/src/lv_widgets/lv_canvas.c ****  * @return pointer to the created canvas
  71:lvgl/src/lv_widgets/lv_canvas.c ****  */
  72:lvgl/src/lv_widgets/lv_canvas.c **** lv_obj_t * lv_canvas_create(lv_obj_t * par, const lv_obj_t * copy)
  73:lvgl/src/lv_widgets/lv_canvas.c **** {
  74:lvgl/src/lv_widgets/lv_canvas.c ****     LV_LOG_TRACE("canvas create started");
  75:lvgl/src/lv_widgets/lv_canvas.c **** 
  76:lvgl/src/lv_widgets/lv_canvas.c ****     /*Create the ancestor of canvas*/
  77:lvgl/src/lv_widgets/lv_canvas.c ****     lv_obj_t * new_canvas = lv_img_create(par, copy);
  78:lvgl/src/lv_widgets/lv_canvas.c ****     LV_ASSERT_MEM(new_canvas);
  79:lvgl/src/lv_widgets/lv_canvas.c ****     if(new_canvas == NULL) return NULL;
  80:lvgl/src/lv_widgets/lv_canvas.c **** 
  81:lvgl/src/lv_widgets/lv_canvas.c ****     /*Allocate the canvas type specific extended data*/
  82:lvgl/src/lv_widgets/lv_canvas.c ****     lv_canvas_ext_t * ext = lv_obj_allocate_ext_attr(new_canvas, sizeof(lv_canvas_ext_t));
  83:lvgl/src/lv_widgets/lv_canvas.c ****     LV_ASSERT_MEM(ext);
  84:lvgl/src/lv_widgets/lv_canvas.c ****     if(ext == NULL) {
  85:lvgl/src/lv_widgets/lv_canvas.c ****         lv_obj_del(new_canvas);
  86:lvgl/src/lv_widgets/lv_canvas.c ****         return NULL;
  87:lvgl/src/lv_widgets/lv_canvas.c ****     }
ARM GAS  D:\Temp\cc0vPyDE.s 			page 3


  88:lvgl/src/lv_widgets/lv_canvas.c **** 
  89:lvgl/src/lv_widgets/lv_canvas.c ****     if(ancestor_signal == NULL) ancestor_signal = lv_obj_get_signal_cb(new_canvas);
  90:lvgl/src/lv_widgets/lv_canvas.c ****     if(ancestor_design == NULL) ancestor_design = lv_obj_get_design_cb(new_canvas);
  91:lvgl/src/lv_widgets/lv_canvas.c **** 
  92:lvgl/src/lv_widgets/lv_canvas.c ****     /*Initialize the allocated 'ext' */
  93:lvgl/src/lv_widgets/lv_canvas.c ****     ext->dsc.header.always_zero = 0;
  94:lvgl/src/lv_widgets/lv_canvas.c ****     ext->dsc.header.cf          = LV_IMG_CF_TRUE_COLOR;
  95:lvgl/src/lv_widgets/lv_canvas.c ****     ext->dsc.header.h           = 0;
  96:lvgl/src/lv_widgets/lv_canvas.c ****     ext->dsc.header.w           = 0;
  97:lvgl/src/lv_widgets/lv_canvas.c ****     ext->dsc.data_size          = 0;
  98:lvgl/src/lv_widgets/lv_canvas.c ****     ext->dsc.data               = NULL;
  99:lvgl/src/lv_widgets/lv_canvas.c **** 
 100:lvgl/src/lv_widgets/lv_canvas.c ****     lv_img_set_src(new_canvas, &ext->dsc);
 101:lvgl/src/lv_widgets/lv_canvas.c **** 
 102:lvgl/src/lv_widgets/lv_canvas.c ****     /*The signal and design functions are not copied so set them here*/
 103:lvgl/src/lv_widgets/lv_canvas.c ****     lv_obj_set_signal_cb(new_canvas, lv_canvas_signal);
 104:lvgl/src/lv_widgets/lv_canvas.c **** 
 105:lvgl/src/lv_widgets/lv_canvas.c ****     /*Init the new canvas canvas*/
 106:lvgl/src/lv_widgets/lv_canvas.c ****     if(copy == NULL) {
 107:lvgl/src/lv_widgets/lv_canvas.c ****         lv_theme_apply(new_canvas, LV_THEME_CANVAS);
 108:lvgl/src/lv_widgets/lv_canvas.c ****     }
 109:lvgl/src/lv_widgets/lv_canvas.c ****     /*Copy an existing canvas*/
 110:lvgl/src/lv_widgets/lv_canvas.c ****     else {
 111:lvgl/src/lv_widgets/lv_canvas.c ****         /*Do not copy the image data because each canvas needs it's own buffer*/
 112:lvgl/src/lv_widgets/lv_canvas.c **** 
 113:lvgl/src/lv_widgets/lv_canvas.c ****     }
 114:lvgl/src/lv_widgets/lv_canvas.c **** 
 115:lvgl/src/lv_widgets/lv_canvas.c ****     LV_LOG_INFO("canvas created");
 116:lvgl/src/lv_widgets/lv_canvas.c **** 
 117:lvgl/src/lv_widgets/lv_canvas.c ****     return new_canvas;
 118:lvgl/src/lv_widgets/lv_canvas.c **** }
 119:lvgl/src/lv_widgets/lv_canvas.c **** 
 120:lvgl/src/lv_widgets/lv_canvas.c **** /*=====================
 121:lvgl/src/lv_widgets/lv_canvas.c ****  * Setter functions
 122:lvgl/src/lv_widgets/lv_canvas.c ****  *====================*/
 123:lvgl/src/lv_widgets/lv_canvas.c **** 
 124:lvgl/src/lv_widgets/lv_canvas.c **** /**
 125:lvgl/src/lv_widgets/lv_canvas.c ****  * Set a buffer for the canvas.
 126:lvgl/src/lv_widgets/lv_canvas.c ****  * @param buf a buffer where the content of the canvas will be.
 127:lvgl/src/lv_widgets/lv_canvas.c ****  * The required size is (lv_img_color_format_get_px_size(cf) * w * h) / 8)
 128:lvgl/src/lv_widgets/lv_canvas.c ****  * It can be allocated with `lv_mem_alloc()` or
 129:lvgl/src/lv_widgets/lv_canvas.c ****  * it can be statically allocated array (e.g. static lv_color_t buf[100*50]) or
 130:lvgl/src/lv_widgets/lv_canvas.c ****  * it can be an address in RAM or external SRAM
 131:lvgl/src/lv_widgets/lv_canvas.c ****  * @param canvas pointer to a canvas object
 132:lvgl/src/lv_widgets/lv_canvas.c ****  * @param w width of the canvas
 133:lvgl/src/lv_widgets/lv_canvas.c ****  * @param h height of the canvas
 134:lvgl/src/lv_widgets/lv_canvas.c ****  * @param cf color format. The following formats are supported:
 135:lvgl/src/lv_widgets/lv_canvas.c ****  *      LV_IMG_CF_TRUE_COLOR, LV_IMG_CF_TRUE_COLOR_CHROMA_KEYED, LV_IMG_CF_INDEXES_1/2/4/8BIT
 136:lvgl/src/lv_widgets/lv_canvas.c ****  *
 137:lvgl/src/lv_widgets/lv_canvas.c ****  */
 138:lvgl/src/lv_widgets/lv_canvas.c **** void lv_canvas_set_buffer(lv_obj_t * canvas, void * buf, lv_coord_t w, lv_coord_t h, lv_img_cf_t cf
 139:lvgl/src/lv_widgets/lv_canvas.c **** {
 140:lvgl/src/lv_widgets/lv_canvas.c ****     LV_ASSERT_OBJ(canvas, LV_OBJX_NAME);
 141:lvgl/src/lv_widgets/lv_canvas.c ****     LV_ASSERT_NULL(buf);
 142:lvgl/src/lv_widgets/lv_canvas.c **** 
 143:lvgl/src/lv_widgets/lv_canvas.c ****     lv_canvas_ext_t * ext = lv_obj_get_ext_attr(canvas);
 144:lvgl/src/lv_widgets/lv_canvas.c **** 
ARM GAS  D:\Temp\cc0vPyDE.s 			page 4


 145:lvgl/src/lv_widgets/lv_canvas.c ****     ext->dsc.header.cf = cf;
 146:lvgl/src/lv_widgets/lv_canvas.c ****     ext->dsc.header.w  = w;
 147:lvgl/src/lv_widgets/lv_canvas.c ****     ext->dsc.header.h  = h;
 148:lvgl/src/lv_widgets/lv_canvas.c ****     ext->dsc.data      = buf;
 149:lvgl/src/lv_widgets/lv_canvas.c **** 
 150:lvgl/src/lv_widgets/lv_canvas.c ****     lv_img_set_src(canvas, &ext->dsc);
 151:lvgl/src/lv_widgets/lv_canvas.c **** }
 152:lvgl/src/lv_widgets/lv_canvas.c **** 
 153:lvgl/src/lv_widgets/lv_canvas.c **** /**
 154:lvgl/src/lv_widgets/lv_canvas.c ****  * Set the color of a pixel on the canvas
 155:lvgl/src/lv_widgets/lv_canvas.c ****  * @param canvas pointer to canvas object
 156:lvgl/src/lv_widgets/lv_canvas.c ****  * @param x x coordinate of the point to set
 157:lvgl/src/lv_widgets/lv_canvas.c ****  * @param y x coordinate of the point to set
 158:lvgl/src/lv_widgets/lv_canvas.c ****  * @param c color of the point
 159:lvgl/src/lv_widgets/lv_canvas.c ****  */
 160:lvgl/src/lv_widgets/lv_canvas.c **** void lv_canvas_set_px(lv_obj_t * canvas, lv_coord_t x, lv_coord_t y, lv_color_t c)
 161:lvgl/src/lv_widgets/lv_canvas.c **** {
 162:lvgl/src/lv_widgets/lv_canvas.c ****     LV_ASSERT_OBJ(canvas, LV_OBJX_NAME);
 163:lvgl/src/lv_widgets/lv_canvas.c **** 
 164:lvgl/src/lv_widgets/lv_canvas.c ****     lv_canvas_ext_t * ext = lv_obj_get_ext_attr(canvas);
 165:lvgl/src/lv_widgets/lv_canvas.c **** 
 166:lvgl/src/lv_widgets/lv_canvas.c ****     lv_img_buf_set_px_color(&ext->dsc, x, y, c);
 167:lvgl/src/lv_widgets/lv_canvas.c ****     lv_obj_invalidate(canvas);
 168:lvgl/src/lv_widgets/lv_canvas.c **** }
 169:lvgl/src/lv_widgets/lv_canvas.c **** 
 170:lvgl/src/lv_widgets/lv_canvas.c **** /**
 171:lvgl/src/lv_widgets/lv_canvas.c ****  * Set the palette color of a canvas with index format. Valid only for `LV_IMG_CF_INDEXED1/2/4/8`
 172:lvgl/src/lv_widgets/lv_canvas.c ****  * @param canvas pointer to canvas object
 173:lvgl/src/lv_widgets/lv_canvas.c ****  * @param id the palette color to set:
 174:lvgl/src/lv_widgets/lv_canvas.c ****  *   - for `LV_IMG_CF_INDEXED1`: 0..1
 175:lvgl/src/lv_widgets/lv_canvas.c ****  *   - for `LV_IMG_CF_INDEXED2`: 0..3
 176:lvgl/src/lv_widgets/lv_canvas.c ****  *   - for `LV_IMG_CF_INDEXED4`: 0..15
 177:lvgl/src/lv_widgets/lv_canvas.c ****  *   - for `LV_IMG_CF_INDEXED8`: 0..255
 178:lvgl/src/lv_widgets/lv_canvas.c ****  * @param c the color to set
 179:lvgl/src/lv_widgets/lv_canvas.c ****  */
 180:lvgl/src/lv_widgets/lv_canvas.c **** void lv_canvas_set_palette(lv_obj_t * canvas, uint8_t id, lv_color_t c)
 181:lvgl/src/lv_widgets/lv_canvas.c **** {
 182:lvgl/src/lv_widgets/lv_canvas.c ****     LV_ASSERT_OBJ(canvas, LV_OBJX_NAME);
 183:lvgl/src/lv_widgets/lv_canvas.c **** 
 184:lvgl/src/lv_widgets/lv_canvas.c ****     lv_canvas_ext_t * ext = lv_obj_get_ext_attr(canvas);
 185:lvgl/src/lv_widgets/lv_canvas.c **** 
 186:lvgl/src/lv_widgets/lv_canvas.c ****     lv_img_buf_set_palette(&ext->dsc, id, c);
 187:lvgl/src/lv_widgets/lv_canvas.c ****     lv_obj_invalidate(canvas);
 188:lvgl/src/lv_widgets/lv_canvas.c **** }
 189:lvgl/src/lv_widgets/lv_canvas.c **** 
 190:lvgl/src/lv_widgets/lv_canvas.c **** /*=====================
 191:lvgl/src/lv_widgets/lv_canvas.c ****  * Getter functions
 192:lvgl/src/lv_widgets/lv_canvas.c ****  *====================*/
 193:lvgl/src/lv_widgets/lv_canvas.c **** 
 194:lvgl/src/lv_widgets/lv_canvas.c **** /**
 195:lvgl/src/lv_widgets/lv_canvas.c ****  * Get the color of a pixel on the canvas
 196:lvgl/src/lv_widgets/lv_canvas.c ****  * @param canvas
 197:lvgl/src/lv_widgets/lv_canvas.c ****  * @param x x coordinate of the point to set
 198:lvgl/src/lv_widgets/lv_canvas.c ****  * @param y x coordinate of the point to set
 199:lvgl/src/lv_widgets/lv_canvas.c ****  * @return color of the point
 200:lvgl/src/lv_widgets/lv_canvas.c ****  */
 201:lvgl/src/lv_widgets/lv_canvas.c **** lv_color_t lv_canvas_get_px(lv_obj_t * canvas, lv_coord_t x, lv_coord_t y)
ARM GAS  D:\Temp\cc0vPyDE.s 			page 5


 202:lvgl/src/lv_widgets/lv_canvas.c **** {
 203:lvgl/src/lv_widgets/lv_canvas.c ****     LV_ASSERT_OBJ(canvas, LV_OBJX_NAME);
 204:lvgl/src/lv_widgets/lv_canvas.c **** 
 205:lvgl/src/lv_widgets/lv_canvas.c ****     lv_canvas_ext_t * ext    = lv_obj_get_ext_attr(canvas);
 206:lvgl/src/lv_widgets/lv_canvas.c ****     lv_color_t color = lv_obj_get_style_image_recolor(canvas, LV_CANVAS_PART_MAIN);
 207:lvgl/src/lv_widgets/lv_canvas.c **** 
 208:lvgl/src/lv_widgets/lv_canvas.c ****     return lv_img_buf_get_px_color(&ext->dsc, x, y, color);
 209:lvgl/src/lv_widgets/lv_canvas.c **** }
 210:lvgl/src/lv_widgets/lv_canvas.c **** 
 211:lvgl/src/lv_widgets/lv_canvas.c **** /**
 212:lvgl/src/lv_widgets/lv_canvas.c ****  * Get the image of the canvas as a pointer to an `lv_img_dsc_t` variable.
 213:lvgl/src/lv_widgets/lv_canvas.c ****  * @param canvas pointer to a canvas object
 214:lvgl/src/lv_widgets/lv_canvas.c ****  * @return pointer to the image descriptor.
 215:lvgl/src/lv_widgets/lv_canvas.c ****  */
 216:lvgl/src/lv_widgets/lv_canvas.c **** lv_img_dsc_t * lv_canvas_get_img(lv_obj_t * canvas)
 217:lvgl/src/lv_widgets/lv_canvas.c **** {
 218:lvgl/src/lv_widgets/lv_canvas.c ****     LV_ASSERT_OBJ(canvas, LV_OBJX_NAME);
 219:lvgl/src/lv_widgets/lv_canvas.c **** 
 220:lvgl/src/lv_widgets/lv_canvas.c ****     lv_canvas_ext_t * ext = lv_obj_get_ext_attr(canvas);
 221:lvgl/src/lv_widgets/lv_canvas.c **** 
 222:lvgl/src/lv_widgets/lv_canvas.c ****     return &ext->dsc;
 223:lvgl/src/lv_widgets/lv_canvas.c **** }
 224:lvgl/src/lv_widgets/lv_canvas.c **** 
 225:lvgl/src/lv_widgets/lv_canvas.c **** /*=====================
 226:lvgl/src/lv_widgets/lv_canvas.c ****  * Other functions
 227:lvgl/src/lv_widgets/lv_canvas.c ****  *====================*/
 228:lvgl/src/lv_widgets/lv_canvas.c **** 
 229:lvgl/src/lv_widgets/lv_canvas.c **** /**
 230:lvgl/src/lv_widgets/lv_canvas.c ****  * Copy a buffer to the canvas
 231:lvgl/src/lv_widgets/lv_canvas.c ****  * @param canvas pointer to a canvas object
 232:lvgl/src/lv_widgets/lv_canvas.c ****  * @param to_copy buffer to copy. The color format has to match with the canvas's buffer color
 233:lvgl/src/lv_widgets/lv_canvas.c ****  * format
 234:lvgl/src/lv_widgets/lv_canvas.c ****  * @param w width of the buffer to copy
 235:lvgl/src/lv_widgets/lv_canvas.c ****  * @param h height of the buffer to copy
 236:lvgl/src/lv_widgets/lv_canvas.c ****  * @param x left side of the destination position
 237:lvgl/src/lv_widgets/lv_canvas.c ****  * @param y top side of the destination position
 238:lvgl/src/lv_widgets/lv_canvas.c ****  */
 239:lvgl/src/lv_widgets/lv_canvas.c **** void lv_canvas_copy_buf(lv_obj_t * canvas, const void * to_copy, lv_coord_t x, lv_coord_t y, lv_coo
 240:lvgl/src/lv_widgets/lv_canvas.c **** {
 241:lvgl/src/lv_widgets/lv_canvas.c ****     LV_ASSERT_OBJ(canvas, LV_OBJX_NAME);
 242:lvgl/src/lv_widgets/lv_canvas.c ****     LV_ASSERT_NULL(to_copy);
 243:lvgl/src/lv_widgets/lv_canvas.c **** 
 244:lvgl/src/lv_widgets/lv_canvas.c ****     lv_canvas_ext_t * ext = lv_obj_get_ext_attr(canvas);
 245:lvgl/src/lv_widgets/lv_canvas.c ****     if(x + w >= (lv_coord_t)ext->dsc.header.w || y + h >= (lv_coord_t)ext->dsc.header.h) {
 246:lvgl/src/lv_widgets/lv_canvas.c ****         LV_LOG_WARN("lv_canvas_copy_buf: x or y out of the canvas");
 247:lvgl/src/lv_widgets/lv_canvas.c ****         return;
 248:lvgl/src/lv_widgets/lv_canvas.c ****     }
 249:lvgl/src/lv_widgets/lv_canvas.c **** 
 250:lvgl/src/lv_widgets/lv_canvas.c ****     uint32_t px_size   = lv_img_cf_get_px_size(ext->dsc.header.cf) >> 3;
 251:lvgl/src/lv_widgets/lv_canvas.c ****     uint32_t px        = ext->dsc.header.w * y * px_size + x * px_size;
 252:lvgl/src/lv_widgets/lv_canvas.c ****     uint8_t * to_copy8 = (uint8_t *)to_copy;
 253:lvgl/src/lv_widgets/lv_canvas.c ****     lv_coord_t i;
 254:lvgl/src/lv_widgets/lv_canvas.c ****     for(i = 0; i < h; i++) {
 255:lvgl/src/lv_widgets/lv_canvas.c ****         _lv_memcpy((void *)&ext->dsc.data[px], to_copy8, w * px_size);
 256:lvgl/src/lv_widgets/lv_canvas.c ****         px += ext->dsc.header.w * px_size;
 257:lvgl/src/lv_widgets/lv_canvas.c ****         to_copy8 += w * px_size;
 258:lvgl/src/lv_widgets/lv_canvas.c ****     }
ARM GAS  D:\Temp\cc0vPyDE.s 			page 6


 259:lvgl/src/lv_widgets/lv_canvas.c **** }
 260:lvgl/src/lv_widgets/lv_canvas.c **** 
 261:lvgl/src/lv_widgets/lv_canvas.c **** /**
 262:lvgl/src/lv_widgets/lv_canvas.c ****  * Transform and image and store the result on a canvas.
 263:lvgl/src/lv_widgets/lv_canvas.c ****  * @param canvas pointer to a canvas object to store the result of the transformation.
 264:lvgl/src/lv_widgets/lv_canvas.c ****  * @param img pointer to an image descriptor to transform.
 265:lvgl/src/lv_widgets/lv_canvas.c ****  *             Can be the image descriptor of an other canvas too (`lv_canvas_get_img()`).
 266:lvgl/src/lv_widgets/lv_canvas.c ****  * @param angle the angle of rotation (0..3600), 0.1 deg resolution
 267:lvgl/src/lv_widgets/lv_canvas.c ****  * @param zoom zoom factor (256 no zoom);
 268:lvgl/src/lv_widgets/lv_canvas.c ****  * @param offset_x offset X to tell where to put the result data on destination canvas
 269:lvgl/src/lv_widgets/lv_canvas.c ****  * @param offset_y offset X to tell where to put the result data on destination canvas
 270:lvgl/src/lv_widgets/lv_canvas.c ****  * @param pivot_x pivot X of rotation. Relative to the source canvas
 271:lvgl/src/lv_widgets/lv_canvas.c ****  *                Set to `source width / 2` to rotate around the center
 272:lvgl/src/lv_widgets/lv_canvas.c ****  * @param pivot_y pivot Y of rotation. Relative to the source canvas
 273:lvgl/src/lv_widgets/lv_canvas.c ****  *                Set to `source height / 2` to rotate around the center
 274:lvgl/src/lv_widgets/lv_canvas.c ****  * @param antialias apply anti-aliasing during the transformation. Looks better but slower.
 275:lvgl/src/lv_widgets/lv_canvas.c ****  */
 276:lvgl/src/lv_widgets/lv_canvas.c **** void lv_canvas_transform(lv_obj_t * canvas, lv_img_dsc_t * img, int16_t angle, uint16_t zoom, lv_co
 277:lvgl/src/lv_widgets/lv_canvas.c ****                          lv_coord_t offset_y,
 278:lvgl/src/lv_widgets/lv_canvas.c ****                          int32_t pivot_x, int32_t pivot_y, bool antialias)
 279:lvgl/src/lv_widgets/lv_canvas.c **** {
 280:lvgl/src/lv_widgets/lv_canvas.c **** #if LV_USE_IMG_TRANSFORM
 281:lvgl/src/lv_widgets/lv_canvas.c ****     LV_ASSERT_OBJ(canvas, LV_OBJX_NAME);
 282:lvgl/src/lv_widgets/lv_canvas.c ****     LV_ASSERT_NULL(img);
 283:lvgl/src/lv_widgets/lv_canvas.c **** 
 284:lvgl/src/lv_widgets/lv_canvas.c ****     lv_canvas_ext_t * ext_dst = lv_obj_get_ext_attr(canvas);
 285:lvgl/src/lv_widgets/lv_canvas.c ****     lv_color_t color = lv_obj_get_style_image_recolor(canvas, LV_CANVAS_PART_MAIN);
 286:lvgl/src/lv_widgets/lv_canvas.c **** 
 287:lvgl/src/lv_widgets/lv_canvas.c ****     int32_t dest_width  = ext_dst->dsc.header.w;
 288:lvgl/src/lv_widgets/lv_canvas.c ****     int32_t dest_height = ext_dst->dsc.header.h;
 289:lvgl/src/lv_widgets/lv_canvas.c **** 
 290:lvgl/src/lv_widgets/lv_canvas.c ****     int32_t x;
 291:lvgl/src/lv_widgets/lv_canvas.c ****     int32_t y;
 292:lvgl/src/lv_widgets/lv_canvas.c ****     bool ret;
 293:lvgl/src/lv_widgets/lv_canvas.c **** 
 294:lvgl/src/lv_widgets/lv_canvas.c ****     lv_img_transform_dsc_t dsc;
 295:lvgl/src/lv_widgets/lv_canvas.c ****     dsc.cfg.angle = angle;
 296:lvgl/src/lv_widgets/lv_canvas.c ****     dsc.cfg.zoom = zoom;
 297:lvgl/src/lv_widgets/lv_canvas.c ****     dsc.cfg.src = img->data;
 298:lvgl/src/lv_widgets/lv_canvas.c ****     dsc.cfg.src_w = img->header.w;
 299:lvgl/src/lv_widgets/lv_canvas.c ****     dsc.cfg.src_h = img->header.h;
 300:lvgl/src/lv_widgets/lv_canvas.c ****     dsc.cfg.cf = img->header.cf;
 301:lvgl/src/lv_widgets/lv_canvas.c ****     dsc.cfg.pivot_x = pivot_x;
 302:lvgl/src/lv_widgets/lv_canvas.c ****     dsc.cfg.pivot_y = pivot_y;
 303:lvgl/src/lv_widgets/lv_canvas.c ****     dsc.cfg.color = color;
 304:lvgl/src/lv_widgets/lv_canvas.c ****     dsc.cfg.antialias = antialias;
 305:lvgl/src/lv_widgets/lv_canvas.c ****     _lv_img_buf_transform_init(&dsc);
 306:lvgl/src/lv_widgets/lv_canvas.c **** 
 307:lvgl/src/lv_widgets/lv_canvas.c ****     for(y = -offset_y; y < dest_height - offset_y; y++) {
 308:lvgl/src/lv_widgets/lv_canvas.c ****         for(x = -offset_x; x < dest_width - offset_x; x++) {
 309:lvgl/src/lv_widgets/lv_canvas.c **** 
 310:lvgl/src/lv_widgets/lv_canvas.c ****             ret = _lv_img_buf_transform(&dsc, x, y);
 311:lvgl/src/lv_widgets/lv_canvas.c **** 
 312:lvgl/src/lv_widgets/lv_canvas.c ****             if(ret == false) continue;
 313:lvgl/src/lv_widgets/lv_canvas.c **** 
 314:lvgl/src/lv_widgets/lv_canvas.c ****             if(x + offset_x >= 0 && x + offset_x < dest_width && y + offset_y >= 0 && y + offset_y 
 315:lvgl/src/lv_widgets/lv_canvas.c ****                 /*If the image has no alpha channel just simple set the result color on the canvas*
ARM GAS  D:\Temp\cc0vPyDE.s 			page 7


 316:lvgl/src/lv_widgets/lv_canvas.c ****                 if(lv_img_cf_has_alpha(img->header.cf) == false) {
 317:lvgl/src/lv_widgets/lv_canvas.c ****                     lv_img_buf_set_px_color(&ext_dst->dsc, x + offset_x, y + offset_y, dsc.res.colo
 318:lvgl/src/lv_widgets/lv_canvas.c ****                 }
 319:lvgl/src/lv_widgets/lv_canvas.c ****                 else {
 320:lvgl/src/lv_widgets/lv_canvas.c ****                     lv_color_t bg_color = lv_img_buf_get_px_color(&ext_dst->dsc, x + offset_x, y + 
 321:lvgl/src/lv_widgets/lv_canvas.c **** 
 322:lvgl/src/lv_widgets/lv_canvas.c ****                     /*If the canvas has no alpha but the image has mix the image's color with
 323:lvgl/src/lv_widgets/lv_canvas.c ****                      * canvas*/
 324:lvgl/src/lv_widgets/lv_canvas.c ****                     if(lv_img_cf_has_alpha(ext_dst->dsc.header.cf) == false) {
 325:lvgl/src/lv_widgets/lv_canvas.c ****                         if(dsc.res.opa < LV_OPA_MAX) dsc.res.color = lv_color_mix(dsc.res.color, bg
 326:lvgl/src/lv_widgets/lv_canvas.c ****                         lv_img_buf_set_px_color(&ext_dst->dsc, x + offset_x, y + offset_y, dsc.res.
 327:lvgl/src/lv_widgets/lv_canvas.c ****                     }
 328:lvgl/src/lv_widgets/lv_canvas.c ****                     /*Both the image and canvas has alpha channel. Some extra calculation is
 329:lvgl/src/lv_widgets/lv_canvas.c ****                        required*/
 330:lvgl/src/lv_widgets/lv_canvas.c ****                     else {
 331:lvgl/src/lv_widgets/lv_canvas.c ****                         lv_opa_t bg_opa = lv_img_buf_get_px_alpha(&ext_dst->dsc, x + offset_x, y + 
 332:lvgl/src/lv_widgets/lv_canvas.c ****                         /* Pick the foreground if it's fully opaque or the Background is fully
 333:lvgl/src/lv_widgets/lv_canvas.c ****                          * transparent*/
 334:lvgl/src/lv_widgets/lv_canvas.c ****                         if(dsc.res.opa >= LV_OPA_MAX || bg_opa <= LV_OPA_MIN) {
 335:lvgl/src/lv_widgets/lv_canvas.c ****                             lv_img_buf_set_px_color(&ext_dst->dsc, x + offset_x, y + offset_y, dsc.
 336:lvgl/src/lv_widgets/lv_canvas.c ****                             lv_img_buf_set_px_alpha(&ext_dst->dsc, x + offset_x, y + offset_y, dsc.
 337:lvgl/src/lv_widgets/lv_canvas.c ****                         }
 338:lvgl/src/lv_widgets/lv_canvas.c ****                         /*Opaque background: use simple mix*/
 339:lvgl/src/lv_widgets/lv_canvas.c ****                         else if(bg_opa >= LV_OPA_MAX) {
 340:lvgl/src/lv_widgets/lv_canvas.c ****                             lv_img_buf_set_px_color(&ext_dst->dsc, x + offset_x, y + offset_y,
 341:lvgl/src/lv_widgets/lv_canvas.c ****                                                     lv_color_mix(dsc.res.color, bg_color, dsc.res.o
 342:lvgl/src/lv_widgets/lv_canvas.c ****                         }
 343:lvgl/src/lv_widgets/lv_canvas.c ****                         /*Both colors have alpha. Expensive calculation need to be applied*/
 344:lvgl/src/lv_widgets/lv_canvas.c ****                         else {
 345:lvgl/src/lv_widgets/lv_canvas.c **** 
 346:lvgl/src/lv_widgets/lv_canvas.c ****                             /*Info:
 347:lvgl/src/lv_widgets/lv_canvas.c ****                              * https://en.wikipedia.org/wiki/Alpha_compositing#Analytical_derivatio
 348:lvgl/src/lv_widgets/lv_canvas.c ****                             lv_opa_t opa_res_2 = 255 - ((uint16_t)((uint16_t)(255 - dsc.res.opa) * 
 349:lvgl/src/lv_widgets/lv_canvas.c ****                             if(opa_res_2 == 0) {
 350:lvgl/src/lv_widgets/lv_canvas.c ****                                 opa_res_2 = 1; /*never happens, just to be sure*/
 351:lvgl/src/lv_widgets/lv_canvas.c ****                             }
 352:lvgl/src/lv_widgets/lv_canvas.c ****                             lv_opa_t ratio = (uint16_t)((uint16_t)dsc.res.opa * 255) / opa_res_2;
 353:lvgl/src/lv_widgets/lv_canvas.c **** 
 354:lvgl/src/lv_widgets/lv_canvas.c ****                             lv_img_buf_set_px_color(&ext_dst->dsc, x + offset_x, y + offset_y,
 355:lvgl/src/lv_widgets/lv_canvas.c ****                                                     lv_color_mix(dsc.res.color, bg_color, ratio));
 356:lvgl/src/lv_widgets/lv_canvas.c ****                             lv_img_buf_set_px_alpha(&ext_dst->dsc, x + offset_x, y + offset_y, opa_
 357:lvgl/src/lv_widgets/lv_canvas.c ****                         }
 358:lvgl/src/lv_widgets/lv_canvas.c ****                     }
 359:lvgl/src/lv_widgets/lv_canvas.c ****                 }
 360:lvgl/src/lv_widgets/lv_canvas.c ****             }
 361:lvgl/src/lv_widgets/lv_canvas.c ****         }
 362:lvgl/src/lv_widgets/lv_canvas.c ****     }
 363:lvgl/src/lv_widgets/lv_canvas.c **** 
 364:lvgl/src/lv_widgets/lv_canvas.c ****     lv_obj_invalidate(canvas);
 365:lvgl/src/lv_widgets/lv_canvas.c **** #else
 366:lvgl/src/lv_widgets/lv_canvas.c ****     LV_UNUSED(canvas);
 367:lvgl/src/lv_widgets/lv_canvas.c ****     LV_UNUSED(img);
 368:lvgl/src/lv_widgets/lv_canvas.c ****     LV_UNUSED(angle);
 369:lvgl/src/lv_widgets/lv_canvas.c ****     LV_UNUSED(zoom);
 370:lvgl/src/lv_widgets/lv_canvas.c ****     LV_UNUSED(offset_x);
 371:lvgl/src/lv_widgets/lv_canvas.c ****     LV_UNUSED(offset_y);
 372:lvgl/src/lv_widgets/lv_canvas.c ****     LV_UNUSED(pivot_x);
ARM GAS  D:\Temp\cc0vPyDE.s 			page 8


 373:lvgl/src/lv_widgets/lv_canvas.c ****     LV_UNUSED(pivot_y);
 374:lvgl/src/lv_widgets/lv_canvas.c ****     LV_UNUSED(antialias);
 375:lvgl/src/lv_widgets/lv_canvas.c ****     LV_LOG_WARN("LV_USE_IMG_TRANSFORM is disabled in lv_conf.h");
 376:lvgl/src/lv_widgets/lv_canvas.c **** #endif
 377:lvgl/src/lv_widgets/lv_canvas.c **** }
 378:lvgl/src/lv_widgets/lv_canvas.c **** 
 379:lvgl/src/lv_widgets/lv_canvas.c **** /**
 380:lvgl/src/lv_widgets/lv_canvas.c ****  * Apply horizontal blur on the canvas
 381:lvgl/src/lv_widgets/lv_canvas.c ****  * @param canvas pointer to a canvas object
 382:lvgl/src/lv_widgets/lv_canvas.c ****  * @param area the area to blur. If `NULL` the whole canvas will be blurred.
 383:lvgl/src/lv_widgets/lv_canvas.c ****  * @param r radius of the blur
 384:lvgl/src/lv_widgets/lv_canvas.c ****  */
 385:lvgl/src/lv_widgets/lv_canvas.c **** void lv_canvas_blur_hor(lv_obj_t * canvas, const lv_area_t * area, uint16_t r)
 386:lvgl/src/lv_widgets/lv_canvas.c **** {
 387:lvgl/src/lv_widgets/lv_canvas.c ****     LV_ASSERT_OBJ(canvas, LV_OBJX_NAME);
 388:lvgl/src/lv_widgets/lv_canvas.c **** 
 389:lvgl/src/lv_widgets/lv_canvas.c ****     if(r == 0) return;
 390:lvgl/src/lv_widgets/lv_canvas.c **** 
 391:lvgl/src/lv_widgets/lv_canvas.c ****     lv_canvas_ext_t * ext = lv_obj_get_ext_attr(canvas);
 392:lvgl/src/lv_widgets/lv_canvas.c **** 
 393:lvgl/src/lv_widgets/lv_canvas.c ****     lv_area_t a;
 394:lvgl/src/lv_widgets/lv_canvas.c ****     if(area) {
 395:lvgl/src/lv_widgets/lv_canvas.c ****         lv_area_copy(&a, area);
 396:lvgl/src/lv_widgets/lv_canvas.c ****         if(a.x1 < 0) a.x1 = 0;
 397:lvgl/src/lv_widgets/lv_canvas.c ****         if(a.y1 < 0) a.y1 = 0;
 398:lvgl/src/lv_widgets/lv_canvas.c ****         if(a.x2 > ext->dsc.header.w - 1) a.x2 = ext->dsc.header.w - 1;
 399:lvgl/src/lv_widgets/lv_canvas.c ****         if(a.y2 > ext->dsc.header.h - 1) a.y2 = ext->dsc.header.h - 1;
 400:lvgl/src/lv_widgets/lv_canvas.c ****     }
 401:lvgl/src/lv_widgets/lv_canvas.c ****     else {
 402:lvgl/src/lv_widgets/lv_canvas.c ****         a.x1 = 0;
 403:lvgl/src/lv_widgets/lv_canvas.c ****         a.y1 = 0;
 404:lvgl/src/lv_widgets/lv_canvas.c ****         a.x2 = ext->dsc.header.w - 1;
 405:lvgl/src/lv_widgets/lv_canvas.c ****         a.y2 = ext->dsc.header.h - 1;
 406:lvgl/src/lv_widgets/lv_canvas.c ****     }
 407:lvgl/src/lv_widgets/lv_canvas.c **** 
 408:lvgl/src/lv_widgets/lv_canvas.c ****     lv_color_t color = lv_obj_get_style_image_recolor(canvas, LV_CANVAS_PART_MAIN);
 409:lvgl/src/lv_widgets/lv_canvas.c **** 
 410:lvgl/src/lv_widgets/lv_canvas.c ****     uint16_t r_back = r / 2;
 411:lvgl/src/lv_widgets/lv_canvas.c ****     uint16_t r_front = r / 2;
 412:lvgl/src/lv_widgets/lv_canvas.c **** 
 413:lvgl/src/lv_widgets/lv_canvas.c ****     if((r & 0x1) == 0) r_back--;
 414:lvgl/src/lv_widgets/lv_canvas.c **** 
 415:lvgl/src/lv_widgets/lv_canvas.c ****     bool has_alpha = lv_img_cf_has_alpha(ext->dsc.header.cf);
 416:lvgl/src/lv_widgets/lv_canvas.c **** 
 417:lvgl/src/lv_widgets/lv_canvas.c ****     lv_coord_t line_w = lv_img_buf_get_img_size(ext->dsc.header.w, 1, ext->dsc.header.cf);
 418:lvgl/src/lv_widgets/lv_canvas.c ****     uint8_t * line_buf = _lv_mem_buf_get(line_w);
 419:lvgl/src/lv_widgets/lv_canvas.c **** 
 420:lvgl/src/lv_widgets/lv_canvas.c ****     lv_img_dsc_t line_img;
 421:lvgl/src/lv_widgets/lv_canvas.c ****     line_img.data = line_buf;
 422:lvgl/src/lv_widgets/lv_canvas.c ****     line_img.header.always_zero = 0;
 423:lvgl/src/lv_widgets/lv_canvas.c ****     line_img.header.w = ext->dsc.header.w;
 424:lvgl/src/lv_widgets/lv_canvas.c ****     line_img.header.h = 1;
 425:lvgl/src/lv_widgets/lv_canvas.c ****     line_img.header.cf = ext->dsc.header.cf;
 426:lvgl/src/lv_widgets/lv_canvas.c **** 
 427:lvgl/src/lv_widgets/lv_canvas.c ****     lv_coord_t x;
 428:lvgl/src/lv_widgets/lv_canvas.c ****     lv_coord_t y;
 429:lvgl/src/lv_widgets/lv_canvas.c ****     lv_coord_t x_safe;
ARM GAS  D:\Temp\cc0vPyDE.s 			page 9


 430:lvgl/src/lv_widgets/lv_canvas.c **** 
 431:lvgl/src/lv_widgets/lv_canvas.c ****     for(y = a.y1; y <= a.y2; y++) {
 432:lvgl/src/lv_widgets/lv_canvas.c ****         uint32_t asum = 0;
 433:lvgl/src/lv_widgets/lv_canvas.c ****         uint32_t rsum = 0;
 434:lvgl/src/lv_widgets/lv_canvas.c ****         uint32_t gsum = 0;
 435:lvgl/src/lv_widgets/lv_canvas.c ****         uint32_t bsum = 0;
 436:lvgl/src/lv_widgets/lv_canvas.c **** 
 437:lvgl/src/lv_widgets/lv_canvas.c ****         lv_color_t c;
 438:lvgl/src/lv_widgets/lv_canvas.c ****         lv_opa_t opa = LV_OPA_TRANSP;
 439:lvgl/src/lv_widgets/lv_canvas.c ****         _lv_memcpy(line_buf, &ext->dsc.data[y * line_w], line_w);
 440:lvgl/src/lv_widgets/lv_canvas.c **** 
 441:lvgl/src/lv_widgets/lv_canvas.c ****         for(x = a.x1 - r_back; x <= a.x1 + r_front; x++) {
 442:lvgl/src/lv_widgets/lv_canvas.c ****             x_safe = x < 0 ? 0 : x;
 443:lvgl/src/lv_widgets/lv_canvas.c ****             x_safe = x_safe > ext->dsc.header.w - 1 ? ext->dsc.header.w - 1 : x_safe;
 444:lvgl/src/lv_widgets/lv_canvas.c **** 
 445:lvgl/src/lv_widgets/lv_canvas.c ****             c = lv_img_buf_get_px_color(&line_img, x_safe, 0, color);
 446:lvgl/src/lv_widgets/lv_canvas.c ****             if(has_alpha) opa = lv_img_buf_get_px_alpha(&line_img, x_safe, 0);
 447:lvgl/src/lv_widgets/lv_canvas.c **** 
 448:lvgl/src/lv_widgets/lv_canvas.c ****             rsum += c.ch.red;
 449:lvgl/src/lv_widgets/lv_canvas.c **** #if LV_COLOR_DEPTH == 16 && LV_COLOR_16_SWAP
 450:lvgl/src/lv_widgets/lv_canvas.c ****             gsum += (c.ch.green_h << 3) + c.ch.green_l;
 451:lvgl/src/lv_widgets/lv_canvas.c **** #else
 452:lvgl/src/lv_widgets/lv_canvas.c ****             gsum += c.ch.green;
 453:lvgl/src/lv_widgets/lv_canvas.c **** #endif
 454:lvgl/src/lv_widgets/lv_canvas.c ****             bsum += c.ch.blue;
 455:lvgl/src/lv_widgets/lv_canvas.c ****             if(has_alpha) asum += opa;
 456:lvgl/src/lv_widgets/lv_canvas.c ****         }
 457:lvgl/src/lv_widgets/lv_canvas.c **** 
 458:lvgl/src/lv_widgets/lv_canvas.c ****         /*Just to indicate that the px is visible*/
 459:lvgl/src/lv_widgets/lv_canvas.c ****         if(has_alpha == false) asum = LV_OPA_COVER;
 460:lvgl/src/lv_widgets/lv_canvas.c **** 
 461:lvgl/src/lv_widgets/lv_canvas.c ****         for(x = a.x1; x <= a.x2; x++) {
 462:lvgl/src/lv_widgets/lv_canvas.c **** 
 463:lvgl/src/lv_widgets/lv_canvas.c ****             if(asum) {
 464:lvgl/src/lv_widgets/lv_canvas.c ****                 c.ch.red = rsum / r;
 465:lvgl/src/lv_widgets/lv_canvas.c **** #if LV_COLOR_DEPTH == 16 && LV_COLOR_16_SWAP
 466:lvgl/src/lv_widgets/lv_canvas.c ****                 uint8_t gtmp = gsum / r;
 467:lvgl/src/lv_widgets/lv_canvas.c ****                 c.ch.green_h = gtmp >> 3;
 468:lvgl/src/lv_widgets/lv_canvas.c ****                 c.ch.green_l = gtmp & 0x7;
 469:lvgl/src/lv_widgets/lv_canvas.c **** #else
 470:lvgl/src/lv_widgets/lv_canvas.c ****                 c.ch.green = gsum / r;
 471:lvgl/src/lv_widgets/lv_canvas.c **** #endif
 472:lvgl/src/lv_widgets/lv_canvas.c ****                 c.ch.blue = bsum / r;
 473:lvgl/src/lv_widgets/lv_canvas.c ****                 if(has_alpha) opa = asum / r;
 474:lvgl/src/lv_widgets/lv_canvas.c **** 
 475:lvgl/src/lv_widgets/lv_canvas.c ****                 lv_img_buf_set_px_color(&ext->dsc, x, y, c);
 476:lvgl/src/lv_widgets/lv_canvas.c ****             }
 477:lvgl/src/lv_widgets/lv_canvas.c ****             if(has_alpha) lv_img_buf_set_px_alpha(&ext->dsc, x, y, opa);
 478:lvgl/src/lv_widgets/lv_canvas.c **** 
 479:lvgl/src/lv_widgets/lv_canvas.c ****             x_safe = x - r_back;
 480:lvgl/src/lv_widgets/lv_canvas.c ****             x_safe = x_safe < 0 ? 0 : x_safe;
 481:lvgl/src/lv_widgets/lv_canvas.c ****             c = lv_img_buf_get_px_color(&line_img, x_safe, 0, color);
 482:lvgl/src/lv_widgets/lv_canvas.c ****             if(has_alpha) opa = lv_img_buf_get_px_alpha(&line_img, x_safe, 0);
 483:lvgl/src/lv_widgets/lv_canvas.c **** 
 484:lvgl/src/lv_widgets/lv_canvas.c ****             rsum -= c.ch.red;
 485:lvgl/src/lv_widgets/lv_canvas.c **** #if LV_COLOR_DEPTH == 16 && LV_COLOR_16_SWAP
 486:lvgl/src/lv_widgets/lv_canvas.c ****             gsum -= (c.ch.green_h << 3) + c.ch.green_l;
ARM GAS  D:\Temp\cc0vPyDE.s 			page 10


 487:lvgl/src/lv_widgets/lv_canvas.c **** #else
 488:lvgl/src/lv_widgets/lv_canvas.c ****             gsum -= c.ch.green;
 489:lvgl/src/lv_widgets/lv_canvas.c **** #endif
 490:lvgl/src/lv_widgets/lv_canvas.c ****             bsum -= c.ch.blue;
 491:lvgl/src/lv_widgets/lv_canvas.c ****             if(has_alpha) asum -= opa;
 492:lvgl/src/lv_widgets/lv_canvas.c **** 
 493:lvgl/src/lv_widgets/lv_canvas.c ****             x_safe = x + 1 + r_front;
 494:lvgl/src/lv_widgets/lv_canvas.c ****             x_safe = x_safe > ext->dsc.header.w - 1 ? ext->dsc.header.w - 1 : x_safe;
 495:lvgl/src/lv_widgets/lv_canvas.c ****             c = lv_img_buf_get_px_color(&line_img, x_safe, 0, LV_COLOR_RED);
 496:lvgl/src/lv_widgets/lv_canvas.c ****             if(has_alpha) opa = lv_img_buf_get_px_alpha(&line_img, x_safe, 0);
 497:lvgl/src/lv_widgets/lv_canvas.c **** 
 498:lvgl/src/lv_widgets/lv_canvas.c ****             rsum += c.ch.red;
 499:lvgl/src/lv_widgets/lv_canvas.c **** #if LV_COLOR_DEPTH == 16 && LV_COLOR_16_SWAP
 500:lvgl/src/lv_widgets/lv_canvas.c ****             gsum += (c.ch.green_h << 3) + c.ch.green_l;
 501:lvgl/src/lv_widgets/lv_canvas.c **** #else
 502:lvgl/src/lv_widgets/lv_canvas.c ****             gsum += c.ch.green;
 503:lvgl/src/lv_widgets/lv_canvas.c **** #endif
 504:lvgl/src/lv_widgets/lv_canvas.c ****             bsum += c.ch.blue;
 505:lvgl/src/lv_widgets/lv_canvas.c ****             if(has_alpha) asum += opa;
 506:lvgl/src/lv_widgets/lv_canvas.c ****         }
 507:lvgl/src/lv_widgets/lv_canvas.c ****     }
 508:lvgl/src/lv_widgets/lv_canvas.c ****     lv_obj_invalidate(canvas);
 509:lvgl/src/lv_widgets/lv_canvas.c **** 
 510:lvgl/src/lv_widgets/lv_canvas.c ****     _lv_mem_buf_release(line_buf);
 511:lvgl/src/lv_widgets/lv_canvas.c **** }
 512:lvgl/src/lv_widgets/lv_canvas.c **** 
 513:lvgl/src/lv_widgets/lv_canvas.c **** /**
 514:lvgl/src/lv_widgets/lv_canvas.c ****  * Apply vertical blur on the canvas
 515:lvgl/src/lv_widgets/lv_canvas.c ****  * @param canvas pointer to a canvas object
 516:lvgl/src/lv_widgets/lv_canvas.c ****  * @param area the area to blur. If `NULL` the whole canvas will be blurred.
 517:lvgl/src/lv_widgets/lv_canvas.c ****  * @param r radius of the blur
 518:lvgl/src/lv_widgets/lv_canvas.c ****  */
 519:lvgl/src/lv_widgets/lv_canvas.c **** void lv_canvas_blur_ver(lv_obj_t * canvas, const lv_area_t * area, uint16_t r)
 520:lvgl/src/lv_widgets/lv_canvas.c **** {
 521:lvgl/src/lv_widgets/lv_canvas.c ****     LV_ASSERT_OBJ(canvas, LV_OBJX_NAME);
 522:lvgl/src/lv_widgets/lv_canvas.c **** 
 523:lvgl/src/lv_widgets/lv_canvas.c ****     if(r == 0) return;
 524:lvgl/src/lv_widgets/lv_canvas.c **** 
 525:lvgl/src/lv_widgets/lv_canvas.c ****     lv_canvas_ext_t * ext = lv_obj_get_ext_attr(canvas);
 526:lvgl/src/lv_widgets/lv_canvas.c **** 
 527:lvgl/src/lv_widgets/lv_canvas.c ****     lv_area_t a;
 528:lvgl/src/lv_widgets/lv_canvas.c ****     if(area) {
 529:lvgl/src/lv_widgets/lv_canvas.c ****         lv_area_copy(&a, area);
 530:lvgl/src/lv_widgets/lv_canvas.c ****         if(a.x1 < 0) a.x1 = 0;
 531:lvgl/src/lv_widgets/lv_canvas.c ****         if(a.y1 < 0) a.y1 = 0;
 532:lvgl/src/lv_widgets/lv_canvas.c ****         if(a.x2 > ext->dsc.header.w - 1) a.x2 = ext->dsc.header.w - 1;
 533:lvgl/src/lv_widgets/lv_canvas.c ****         if(a.y2 > ext->dsc.header.h - 1) a.y2 = ext->dsc.header.h - 1;
 534:lvgl/src/lv_widgets/lv_canvas.c ****     }
 535:lvgl/src/lv_widgets/lv_canvas.c ****     else {
 536:lvgl/src/lv_widgets/lv_canvas.c ****         a.x1 = 0;
 537:lvgl/src/lv_widgets/lv_canvas.c ****         a.y1 = 0;
 538:lvgl/src/lv_widgets/lv_canvas.c ****         a.x2 = ext->dsc.header.w - 1;
 539:lvgl/src/lv_widgets/lv_canvas.c ****         a.y2 = ext->dsc.header.h - 1;
 540:lvgl/src/lv_widgets/lv_canvas.c ****     }
 541:lvgl/src/lv_widgets/lv_canvas.c **** 
 542:lvgl/src/lv_widgets/lv_canvas.c ****     lv_color_t color = lv_obj_get_style_image_recolor(canvas, LV_CANVAS_PART_MAIN);
 543:lvgl/src/lv_widgets/lv_canvas.c **** 
ARM GAS  D:\Temp\cc0vPyDE.s 			page 11


 544:lvgl/src/lv_widgets/lv_canvas.c ****     uint16_t r_back = r / 2;
 545:lvgl/src/lv_widgets/lv_canvas.c ****     uint16_t r_front = r / 2;
 546:lvgl/src/lv_widgets/lv_canvas.c **** 
 547:lvgl/src/lv_widgets/lv_canvas.c ****     if((r & 0x1) == 0) r_back--;
 548:lvgl/src/lv_widgets/lv_canvas.c **** 
 549:lvgl/src/lv_widgets/lv_canvas.c ****     bool has_alpha = lv_img_cf_has_alpha(ext->dsc.header.cf);
 550:lvgl/src/lv_widgets/lv_canvas.c ****     lv_coord_t col_w = lv_img_buf_get_img_size(1, ext->dsc.header.h, ext->dsc.header.cf);
 551:lvgl/src/lv_widgets/lv_canvas.c ****     uint8_t * col_buf = _lv_mem_buf_get(col_w);
 552:lvgl/src/lv_widgets/lv_canvas.c ****     lv_img_dsc_t line_img;
 553:lvgl/src/lv_widgets/lv_canvas.c **** 
 554:lvgl/src/lv_widgets/lv_canvas.c ****     line_img.data = col_buf;
 555:lvgl/src/lv_widgets/lv_canvas.c ****     line_img.header.always_zero = 0;
 556:lvgl/src/lv_widgets/lv_canvas.c ****     line_img.header.w = 1;
 557:lvgl/src/lv_widgets/lv_canvas.c ****     line_img.header.h = ext->dsc.header.h;
 558:lvgl/src/lv_widgets/lv_canvas.c ****     line_img.header.cf = ext->dsc.header.cf;
 559:lvgl/src/lv_widgets/lv_canvas.c **** 
 560:lvgl/src/lv_widgets/lv_canvas.c ****     lv_coord_t x;
 561:lvgl/src/lv_widgets/lv_canvas.c ****     lv_coord_t y;
 562:lvgl/src/lv_widgets/lv_canvas.c ****     lv_coord_t y_safe;
 563:lvgl/src/lv_widgets/lv_canvas.c **** 
 564:lvgl/src/lv_widgets/lv_canvas.c ****     for(x = a.x1; x <= a.x2; x++) {
 565:lvgl/src/lv_widgets/lv_canvas.c ****         uint32_t asum = 0;
 566:lvgl/src/lv_widgets/lv_canvas.c ****         uint32_t rsum = 0;
 567:lvgl/src/lv_widgets/lv_canvas.c ****         uint32_t gsum = 0;
 568:lvgl/src/lv_widgets/lv_canvas.c ****         uint32_t bsum = 0;
 569:lvgl/src/lv_widgets/lv_canvas.c **** 
 570:lvgl/src/lv_widgets/lv_canvas.c ****         lv_color_t c;
 571:lvgl/src/lv_widgets/lv_canvas.c ****         lv_opa_t opa = LV_OPA_COVER;
 572:lvgl/src/lv_widgets/lv_canvas.c **** 
 573:lvgl/src/lv_widgets/lv_canvas.c ****         for(y = a.y1 - r_back; y <= a.y1 + r_front; y++) {
 574:lvgl/src/lv_widgets/lv_canvas.c ****             y_safe = y < 0 ? 0 : y;
 575:lvgl/src/lv_widgets/lv_canvas.c ****             y_safe = y_safe > ext->dsc.header.h - 1 ? ext->dsc.header.h - 1 : y_safe;
 576:lvgl/src/lv_widgets/lv_canvas.c **** 
 577:lvgl/src/lv_widgets/lv_canvas.c ****             c = lv_img_buf_get_px_color(&ext->dsc, x, y_safe, color);
 578:lvgl/src/lv_widgets/lv_canvas.c ****             if(has_alpha) opa = lv_img_buf_get_px_alpha(&ext->dsc, x, y_safe);
 579:lvgl/src/lv_widgets/lv_canvas.c **** 
 580:lvgl/src/lv_widgets/lv_canvas.c ****             lv_img_buf_set_px_color(&line_img, 0, y_safe, c);
 581:lvgl/src/lv_widgets/lv_canvas.c ****             if(has_alpha) lv_img_buf_set_px_alpha(&line_img, 0, y_safe, opa);
 582:lvgl/src/lv_widgets/lv_canvas.c **** 
 583:lvgl/src/lv_widgets/lv_canvas.c ****             rsum += c.ch.red;
 584:lvgl/src/lv_widgets/lv_canvas.c **** #if LV_COLOR_DEPTH == 16 && LV_COLOR_16_SWAP
 585:lvgl/src/lv_widgets/lv_canvas.c ****             gsum += (c.ch.green_h << 3) + c.ch.green_l;
 586:lvgl/src/lv_widgets/lv_canvas.c **** #else
 587:lvgl/src/lv_widgets/lv_canvas.c ****             gsum += c.ch.green;
 588:lvgl/src/lv_widgets/lv_canvas.c **** #endif
 589:lvgl/src/lv_widgets/lv_canvas.c ****             bsum += c.ch.blue;
 590:lvgl/src/lv_widgets/lv_canvas.c ****             if(has_alpha) asum += opa;
 591:lvgl/src/lv_widgets/lv_canvas.c ****         }
 592:lvgl/src/lv_widgets/lv_canvas.c **** 
 593:lvgl/src/lv_widgets/lv_canvas.c ****         /*Just to indicate that the px is visible*/
 594:lvgl/src/lv_widgets/lv_canvas.c ****         if(has_alpha == false) asum = LV_OPA_COVER;
 595:lvgl/src/lv_widgets/lv_canvas.c **** 
 596:lvgl/src/lv_widgets/lv_canvas.c ****         for(y = a.y1; y <= a.y2; y++) {
 597:lvgl/src/lv_widgets/lv_canvas.c ****             if(asum) {
 598:lvgl/src/lv_widgets/lv_canvas.c ****                 c.ch.red = rsum / r;
 599:lvgl/src/lv_widgets/lv_canvas.c **** #if LV_COLOR_DEPTH == 16 && LV_COLOR_16_SWAP
 600:lvgl/src/lv_widgets/lv_canvas.c ****                 uint8_t gtmp = gsum / r;
ARM GAS  D:\Temp\cc0vPyDE.s 			page 12


 601:lvgl/src/lv_widgets/lv_canvas.c ****                 c.ch.green_h = gtmp >> 3;
 602:lvgl/src/lv_widgets/lv_canvas.c ****                 c.ch.green_l = gtmp & 0x7;
 603:lvgl/src/lv_widgets/lv_canvas.c **** #else
 604:lvgl/src/lv_widgets/lv_canvas.c ****                 c.ch.green = gsum / r;
 605:lvgl/src/lv_widgets/lv_canvas.c **** #endif
 606:lvgl/src/lv_widgets/lv_canvas.c ****                 c.ch.blue = bsum / r;
 607:lvgl/src/lv_widgets/lv_canvas.c ****                 if(has_alpha) opa = asum / r;
 608:lvgl/src/lv_widgets/lv_canvas.c **** 
 609:lvgl/src/lv_widgets/lv_canvas.c ****                 lv_img_buf_set_px_color(&ext->dsc, x, y, c);
 610:lvgl/src/lv_widgets/lv_canvas.c ****             }
 611:lvgl/src/lv_widgets/lv_canvas.c ****             if(has_alpha) lv_img_buf_set_px_alpha(&ext->dsc, x, y, opa);
 612:lvgl/src/lv_widgets/lv_canvas.c **** 
 613:lvgl/src/lv_widgets/lv_canvas.c ****             y_safe = y - r_back;
 614:lvgl/src/lv_widgets/lv_canvas.c ****             y_safe = y_safe < 0 ? 0 : y_safe;
 615:lvgl/src/lv_widgets/lv_canvas.c ****             c = lv_img_buf_get_px_color(&line_img, 0, y_safe, color);
 616:lvgl/src/lv_widgets/lv_canvas.c ****             if(has_alpha) opa = lv_img_buf_get_px_alpha(&line_img, 0, y_safe);
 617:lvgl/src/lv_widgets/lv_canvas.c **** 
 618:lvgl/src/lv_widgets/lv_canvas.c ****             rsum -= c.ch.red;
 619:lvgl/src/lv_widgets/lv_canvas.c **** #if LV_COLOR_DEPTH == 16 && LV_COLOR_16_SWAP
 620:lvgl/src/lv_widgets/lv_canvas.c ****             gsum -= (c.ch.green_h << 3) + c.ch.green_l;
 621:lvgl/src/lv_widgets/lv_canvas.c **** #else
 622:lvgl/src/lv_widgets/lv_canvas.c ****             gsum -= c.ch.green;
 623:lvgl/src/lv_widgets/lv_canvas.c **** #endif
 624:lvgl/src/lv_widgets/lv_canvas.c ****             bsum -= c.ch.blue;
 625:lvgl/src/lv_widgets/lv_canvas.c ****             if(has_alpha) asum -= opa;
 626:lvgl/src/lv_widgets/lv_canvas.c **** 
 627:lvgl/src/lv_widgets/lv_canvas.c ****             y_safe = y + 1 + r_front;
 628:lvgl/src/lv_widgets/lv_canvas.c ****             y_safe = y_safe > ext->dsc.header.h - 1 ? ext->dsc.header.h - 1 : y_safe;
 629:lvgl/src/lv_widgets/lv_canvas.c **** 
 630:lvgl/src/lv_widgets/lv_canvas.c ****             c = lv_img_buf_get_px_color(&ext->dsc, x, y_safe, color);
 631:lvgl/src/lv_widgets/lv_canvas.c ****             if(has_alpha) opa = lv_img_buf_get_px_alpha(&ext->dsc, x, y_safe);
 632:lvgl/src/lv_widgets/lv_canvas.c **** 
 633:lvgl/src/lv_widgets/lv_canvas.c ****             lv_img_buf_set_px_color(&line_img, 0, y_safe, c);
 634:lvgl/src/lv_widgets/lv_canvas.c ****             if(has_alpha) lv_img_buf_set_px_alpha(&line_img, 0, y_safe, opa);
 635:lvgl/src/lv_widgets/lv_canvas.c **** 
 636:lvgl/src/lv_widgets/lv_canvas.c ****             rsum += c.ch.red;
 637:lvgl/src/lv_widgets/lv_canvas.c **** #if LV_COLOR_DEPTH == 16 && LV_COLOR_16_SWAP
 638:lvgl/src/lv_widgets/lv_canvas.c ****             gsum += (c.ch.green_h << 3) + c.ch.green_l;
 639:lvgl/src/lv_widgets/lv_canvas.c **** #else
 640:lvgl/src/lv_widgets/lv_canvas.c ****             gsum += c.ch.green;
 641:lvgl/src/lv_widgets/lv_canvas.c **** #endif
 642:lvgl/src/lv_widgets/lv_canvas.c ****             bsum += c.ch.blue;
 643:lvgl/src/lv_widgets/lv_canvas.c ****             if(has_alpha) asum += opa;
 644:lvgl/src/lv_widgets/lv_canvas.c ****         }
 645:lvgl/src/lv_widgets/lv_canvas.c ****     }
 646:lvgl/src/lv_widgets/lv_canvas.c **** 
 647:lvgl/src/lv_widgets/lv_canvas.c ****     lv_obj_invalidate(canvas);
 648:lvgl/src/lv_widgets/lv_canvas.c **** 
 649:lvgl/src/lv_widgets/lv_canvas.c ****     _lv_mem_buf_release(col_buf);
 650:lvgl/src/lv_widgets/lv_canvas.c **** }
 651:lvgl/src/lv_widgets/lv_canvas.c **** 
 652:lvgl/src/lv_widgets/lv_canvas.c **** /**
 653:lvgl/src/lv_widgets/lv_canvas.c ****  * Fill the canvas with color
 654:lvgl/src/lv_widgets/lv_canvas.c ****  * @param canvas pointer to a canvas
 655:lvgl/src/lv_widgets/lv_canvas.c ****  * @param color the background color
 656:lvgl/src/lv_widgets/lv_canvas.c ****  * @param opa the desired opacity
 657:lvgl/src/lv_widgets/lv_canvas.c ****  */
ARM GAS  D:\Temp\cc0vPyDE.s 			page 13


 658:lvgl/src/lv_widgets/lv_canvas.c **** void lv_canvas_fill_bg(lv_obj_t * canvas, lv_color_t color, lv_opa_t opa)
 659:lvgl/src/lv_widgets/lv_canvas.c **** {
 660:lvgl/src/lv_widgets/lv_canvas.c ****     LV_ASSERT_OBJ(canvas, LV_OBJX_NAME);
 661:lvgl/src/lv_widgets/lv_canvas.c **** 
 662:lvgl/src/lv_widgets/lv_canvas.c ****     lv_img_dsc_t * dsc = lv_canvas_get_img(canvas);
 663:lvgl/src/lv_widgets/lv_canvas.c **** 
 664:lvgl/src/lv_widgets/lv_canvas.c ****     if(dsc->header.cf == LV_IMG_CF_INDEXED_1BIT) {
 665:lvgl/src/lv_widgets/lv_canvas.c ****         uint32_t row_byte_cnt = (dsc->header.w + 7) >> 3;
 666:lvgl/src/lv_widgets/lv_canvas.c ****         /*+8 skip the palette*/
 667:lvgl/src/lv_widgets/lv_canvas.c ****         _lv_memset((uint8_t *)dsc->data + 8, color.full ? 0xff : 0x00, row_byte_cnt * dsc->header.h
 668:lvgl/src/lv_widgets/lv_canvas.c ****     }
 669:lvgl/src/lv_widgets/lv_canvas.c ****     else if(dsc->header.cf == LV_IMG_CF_ALPHA_1BIT) {
 670:lvgl/src/lv_widgets/lv_canvas.c ****         uint32_t row_byte_cnt = (dsc->header.w + 7) >> 3;
 671:lvgl/src/lv_widgets/lv_canvas.c ****         _lv_memset((uint8_t *)dsc->data, opa > LV_OPA_50 ? 0xff : 0x00, row_byte_cnt * dsc->header.
 672:lvgl/src/lv_widgets/lv_canvas.c ****     }
 673:lvgl/src/lv_widgets/lv_canvas.c ****     else {
 674:lvgl/src/lv_widgets/lv_canvas.c ****         uint32_t x;
 675:lvgl/src/lv_widgets/lv_canvas.c ****         uint32_t y;
 676:lvgl/src/lv_widgets/lv_canvas.c ****         for(y = 0; y < dsc->header.h; y++) {
 677:lvgl/src/lv_widgets/lv_canvas.c ****             for(x = 0; x < dsc->header.w; x++) {
 678:lvgl/src/lv_widgets/lv_canvas.c ****                 lv_img_buf_set_px_color(dsc, x, y, color);
 679:lvgl/src/lv_widgets/lv_canvas.c ****                 lv_img_buf_set_px_alpha(dsc, x, y, opa);
 680:lvgl/src/lv_widgets/lv_canvas.c ****             }
 681:lvgl/src/lv_widgets/lv_canvas.c ****         }
 682:lvgl/src/lv_widgets/lv_canvas.c ****     }
 683:lvgl/src/lv_widgets/lv_canvas.c **** 
 684:lvgl/src/lv_widgets/lv_canvas.c ****     lv_obj_invalidate(canvas);
 685:lvgl/src/lv_widgets/lv_canvas.c **** }
 686:lvgl/src/lv_widgets/lv_canvas.c **** 
 687:lvgl/src/lv_widgets/lv_canvas.c **** /**
 688:lvgl/src/lv_widgets/lv_canvas.c ****  * Draw a rectangle on the canvas
 689:lvgl/src/lv_widgets/lv_canvas.c ****  * @param canvas pointer to a canvas object
 690:lvgl/src/lv_widgets/lv_canvas.c ****  * @param x left coordinate of the rectangle
 691:lvgl/src/lv_widgets/lv_canvas.c ****  * @param y top coordinate of the rectangle
 692:lvgl/src/lv_widgets/lv_canvas.c ****  * @param w width of the rectangle
 693:lvgl/src/lv_widgets/lv_canvas.c ****  * @param h height of the rectangle
 694:lvgl/src/lv_widgets/lv_canvas.c ****  * @param rect_dsc descriptor of the rectangle
 695:lvgl/src/lv_widgets/lv_canvas.c ****  */
 696:lvgl/src/lv_widgets/lv_canvas.c **** void lv_canvas_draw_rect(lv_obj_t * canvas, lv_coord_t x, lv_coord_t y, lv_coord_t w, lv_coord_t h,
 697:lvgl/src/lv_widgets/lv_canvas.c ****                          const lv_draw_rect_dsc_t * rect_dsc)
 698:lvgl/src/lv_widgets/lv_canvas.c **** {
 699:lvgl/src/lv_widgets/lv_canvas.c ****     LV_ASSERT_OBJ(canvas, LV_OBJX_NAME);
 700:lvgl/src/lv_widgets/lv_canvas.c **** 
 701:lvgl/src/lv_widgets/lv_canvas.c ****     lv_img_dsc_t * dsc = lv_canvas_get_img(canvas);
 702:lvgl/src/lv_widgets/lv_canvas.c **** 
 703:lvgl/src/lv_widgets/lv_canvas.c ****     if(dsc->header.cf >= LV_IMG_CF_INDEXED_1BIT && dsc->header.cf <= LV_IMG_CF_INDEXED_8BIT) {
 704:lvgl/src/lv_widgets/lv_canvas.c ****         LV_LOG_WARN("lv_canvas_draw_rect: can't draw to LV_IMG_CF_INDEXED canvas");
 705:lvgl/src/lv_widgets/lv_canvas.c ****         return;
 706:lvgl/src/lv_widgets/lv_canvas.c ****     }
 707:lvgl/src/lv_widgets/lv_canvas.c **** 
 708:lvgl/src/lv_widgets/lv_canvas.c ****     /* Create a dummy display to fool the lv_draw function.
 709:lvgl/src/lv_widgets/lv_canvas.c ****      * It will think it draws to real screen. */
 710:lvgl/src/lv_widgets/lv_canvas.c ****     lv_area_t mask;
 711:lvgl/src/lv_widgets/lv_canvas.c ****     mask.x1 = 0;
 712:lvgl/src/lv_widgets/lv_canvas.c ****     mask.x2 = dsc->header.w - 1;
 713:lvgl/src/lv_widgets/lv_canvas.c ****     mask.y1 = 0;
 714:lvgl/src/lv_widgets/lv_canvas.c ****     mask.y2 = dsc->header.h - 1;
ARM GAS  D:\Temp\cc0vPyDE.s 			page 14


 715:lvgl/src/lv_widgets/lv_canvas.c **** 
 716:lvgl/src/lv_widgets/lv_canvas.c ****     lv_area_t coords;
 717:lvgl/src/lv_widgets/lv_canvas.c ****     coords.x1 = x;
 718:lvgl/src/lv_widgets/lv_canvas.c ****     coords.y1 = y;
 719:lvgl/src/lv_widgets/lv_canvas.c ****     coords.x2 = x + w - 1;
 720:lvgl/src/lv_widgets/lv_canvas.c ****     coords.y2 = y + h - 1;
 721:lvgl/src/lv_widgets/lv_canvas.c **** 
 722:lvgl/src/lv_widgets/lv_canvas.c ****     lv_disp_t disp;
 723:lvgl/src/lv_widgets/lv_canvas.c ****     _lv_memset_00(&disp, sizeof(lv_disp_t));
 724:lvgl/src/lv_widgets/lv_canvas.c **** 
 725:lvgl/src/lv_widgets/lv_canvas.c ****     lv_disp_buf_t disp_buf;
 726:lvgl/src/lv_widgets/lv_canvas.c ****     lv_disp_buf_init(&disp_buf, (void *)dsc->data, NULL, dsc->header.w * dsc->header.h);
 727:lvgl/src/lv_widgets/lv_canvas.c ****     lv_area_copy(&disp_buf.area, &mask);
 728:lvgl/src/lv_widgets/lv_canvas.c **** 
 729:lvgl/src/lv_widgets/lv_canvas.c ****     lv_disp_drv_init(&disp.driver);
 730:lvgl/src/lv_widgets/lv_canvas.c **** 
 731:lvgl/src/lv_widgets/lv_canvas.c ****     disp.driver.buffer  = &disp_buf;
 732:lvgl/src/lv_widgets/lv_canvas.c ****     disp.driver.hor_res = dsc->header.w;
 733:lvgl/src/lv_widgets/lv_canvas.c ****     disp.driver.ver_res = dsc->header.h;
 734:lvgl/src/lv_widgets/lv_canvas.c **** 
 735:lvgl/src/lv_widgets/lv_canvas.c ****     set_set_px_cb(&disp.driver, dsc->header.cf);
 736:lvgl/src/lv_widgets/lv_canvas.c **** 
 737:lvgl/src/lv_widgets/lv_canvas.c **** #if LV_ANTIALIAS
 738:lvgl/src/lv_widgets/lv_canvas.c **** 
 739:lvgl/src/lv_widgets/lv_canvas.c ****     /*Disable anti-aliasing if drawing with transparent color to chroma keyed canvas*/
 740:lvgl/src/lv_widgets/lv_canvas.c ****     lv_color_t ctransp = LV_COLOR_TRANSP;
 741:lvgl/src/lv_widgets/lv_canvas.c ****     if(dsc->header.cf == LV_IMG_CF_TRUE_COLOR_CHROMA_KEYED &&
 742:lvgl/src/lv_widgets/lv_canvas.c ****        rect_dsc->bg_color.full == ctransp.full) {
 743:lvgl/src/lv_widgets/lv_canvas.c ****         disp.driver.antialiasing = 0;
 744:lvgl/src/lv_widgets/lv_canvas.c ****     }
 745:lvgl/src/lv_widgets/lv_canvas.c **** #endif
 746:lvgl/src/lv_widgets/lv_canvas.c **** 
 747:lvgl/src/lv_widgets/lv_canvas.c ****     lv_disp_t * refr_ori = _lv_refr_get_disp_refreshing();
 748:lvgl/src/lv_widgets/lv_canvas.c ****     _lv_refr_set_disp_refreshing(&disp);
 749:lvgl/src/lv_widgets/lv_canvas.c **** 
 750:lvgl/src/lv_widgets/lv_canvas.c ****     lv_draw_rect(&coords, &mask, rect_dsc);
 751:lvgl/src/lv_widgets/lv_canvas.c **** 
 752:lvgl/src/lv_widgets/lv_canvas.c ****     _lv_refr_set_disp_refreshing(refr_ori);
 753:lvgl/src/lv_widgets/lv_canvas.c **** 
 754:lvgl/src/lv_widgets/lv_canvas.c ****     lv_obj_invalidate(canvas);
 755:lvgl/src/lv_widgets/lv_canvas.c **** }
 756:lvgl/src/lv_widgets/lv_canvas.c **** 
 757:lvgl/src/lv_widgets/lv_canvas.c **** /**
 758:lvgl/src/lv_widgets/lv_canvas.c ****  * Draw a text on the canvas.
 759:lvgl/src/lv_widgets/lv_canvas.c ****  * @param canvas pointer to a canvas object
 760:lvgl/src/lv_widgets/lv_canvas.c ****  * @param x left coordinate of the text
 761:lvgl/src/lv_widgets/lv_canvas.c ****  * @param y top coordinate of the text
 762:lvgl/src/lv_widgets/lv_canvas.c ****  * @param max_w max width of the text. The text will be wrapped to fit into this size
 763:lvgl/src/lv_widgets/lv_canvas.c ****  * @param label_draw_dsc pointer to a valid label descriptor `lv_draw_label_dsc_t`
 764:lvgl/src/lv_widgets/lv_canvas.c ****  * @param txt text to display
 765:lvgl/src/lv_widgets/lv_canvas.c ****  * @param align align of the text (`LV_LABEL_ALIGN_LEFT/RIGHT/CENTER`)
 766:lvgl/src/lv_widgets/lv_canvas.c ****  */
 767:lvgl/src/lv_widgets/lv_canvas.c **** void lv_canvas_draw_text(lv_obj_t * canvas, lv_coord_t x, lv_coord_t y, lv_coord_t max_w,
 768:lvgl/src/lv_widgets/lv_canvas.c ****                          lv_draw_label_dsc_t * label_draw_dsc,
 769:lvgl/src/lv_widgets/lv_canvas.c ****                          const char * txt, lv_label_align_t align)
 770:lvgl/src/lv_widgets/lv_canvas.c **** {
 771:lvgl/src/lv_widgets/lv_canvas.c ****     LV_ASSERT_OBJ(canvas, LV_OBJX_NAME);
ARM GAS  D:\Temp\cc0vPyDE.s 			page 15


 772:lvgl/src/lv_widgets/lv_canvas.c **** 
 773:lvgl/src/lv_widgets/lv_canvas.c ****     lv_img_dsc_t * dsc = lv_canvas_get_img(canvas);
 774:lvgl/src/lv_widgets/lv_canvas.c **** 
 775:lvgl/src/lv_widgets/lv_canvas.c ****     if(dsc->header.cf >= LV_IMG_CF_INDEXED_1BIT && dsc->header.cf <= LV_IMG_CF_INDEXED_8BIT) {
 776:lvgl/src/lv_widgets/lv_canvas.c ****         LV_LOG_WARN("lv_canvas_draw_text: can't draw to LV_IMG_CF_INDEXED canvas");
 777:lvgl/src/lv_widgets/lv_canvas.c ****         return;
 778:lvgl/src/lv_widgets/lv_canvas.c ****     }
 779:lvgl/src/lv_widgets/lv_canvas.c **** 
 780:lvgl/src/lv_widgets/lv_canvas.c ****     /* Create a dummy display to fool the lv_draw function.
 781:lvgl/src/lv_widgets/lv_canvas.c ****      * It will think it draws to real screen. */
 782:lvgl/src/lv_widgets/lv_canvas.c ****     lv_area_t mask;
 783:lvgl/src/lv_widgets/lv_canvas.c ****     mask.x1 = 0;
 784:lvgl/src/lv_widgets/lv_canvas.c ****     mask.x2 = dsc->header.w - 1;
 785:lvgl/src/lv_widgets/lv_canvas.c ****     mask.y1 = 0;
 786:lvgl/src/lv_widgets/lv_canvas.c ****     mask.y2 = dsc->header.h - 1;
 787:lvgl/src/lv_widgets/lv_canvas.c **** 
 788:lvgl/src/lv_widgets/lv_canvas.c ****     lv_area_t coords;
 789:lvgl/src/lv_widgets/lv_canvas.c ****     coords.x1 = x;
 790:lvgl/src/lv_widgets/lv_canvas.c ****     coords.y1 = y;
 791:lvgl/src/lv_widgets/lv_canvas.c ****     coords.x2 = x + max_w - 1;
 792:lvgl/src/lv_widgets/lv_canvas.c ****     coords.y2 = dsc->header.h - 1;
 793:lvgl/src/lv_widgets/lv_canvas.c **** 
 794:lvgl/src/lv_widgets/lv_canvas.c ****     lv_disp_t disp;
 795:lvgl/src/lv_widgets/lv_canvas.c ****     _lv_memset_00(&disp, sizeof(lv_disp_t));
 796:lvgl/src/lv_widgets/lv_canvas.c **** 
 797:lvgl/src/lv_widgets/lv_canvas.c ****     lv_disp_buf_t disp_buf;
 798:lvgl/src/lv_widgets/lv_canvas.c ****     lv_disp_buf_init(&disp_buf, (void *)dsc->data, NULL, dsc->header.w * dsc->header.h);
 799:lvgl/src/lv_widgets/lv_canvas.c ****     lv_area_copy(&disp_buf.area, &mask);
 800:lvgl/src/lv_widgets/lv_canvas.c **** 
 801:lvgl/src/lv_widgets/lv_canvas.c ****     lv_disp_drv_init(&disp.driver);
 802:lvgl/src/lv_widgets/lv_canvas.c **** 
 803:lvgl/src/lv_widgets/lv_canvas.c ****     disp.driver.buffer  = &disp_buf;
 804:lvgl/src/lv_widgets/lv_canvas.c ****     disp.driver.hor_res = dsc->header.w;
 805:lvgl/src/lv_widgets/lv_canvas.c ****     disp.driver.ver_res = dsc->header.h;
 806:lvgl/src/lv_widgets/lv_canvas.c **** 
 807:lvgl/src/lv_widgets/lv_canvas.c ****     set_set_px_cb(&disp.driver, dsc->header.cf);
 808:lvgl/src/lv_widgets/lv_canvas.c **** 
 809:lvgl/src/lv_widgets/lv_canvas.c ****     lv_disp_t * refr_ori = _lv_refr_get_disp_refreshing();
 810:lvgl/src/lv_widgets/lv_canvas.c ****     _lv_refr_set_disp_refreshing(&disp);
 811:lvgl/src/lv_widgets/lv_canvas.c **** 
 812:lvgl/src/lv_widgets/lv_canvas.c ****     lv_txt_flag_t flag;
 813:lvgl/src/lv_widgets/lv_canvas.c ****     switch(align) {
 814:lvgl/src/lv_widgets/lv_canvas.c ****         case LV_LABEL_ALIGN_LEFT:
 815:lvgl/src/lv_widgets/lv_canvas.c ****             flag = LV_TXT_FLAG_NONE;
 816:lvgl/src/lv_widgets/lv_canvas.c ****             break;
 817:lvgl/src/lv_widgets/lv_canvas.c ****         case LV_LABEL_ALIGN_RIGHT:
 818:lvgl/src/lv_widgets/lv_canvas.c ****             flag = LV_TXT_FLAG_RIGHT;
 819:lvgl/src/lv_widgets/lv_canvas.c ****             break;
 820:lvgl/src/lv_widgets/lv_canvas.c ****         case LV_LABEL_ALIGN_CENTER:
 821:lvgl/src/lv_widgets/lv_canvas.c ****             flag = LV_TXT_FLAG_CENTER;
 822:lvgl/src/lv_widgets/lv_canvas.c ****             break;
 823:lvgl/src/lv_widgets/lv_canvas.c ****         default:
 824:lvgl/src/lv_widgets/lv_canvas.c ****             flag = LV_TXT_FLAG_NONE;
 825:lvgl/src/lv_widgets/lv_canvas.c ****             break;
 826:lvgl/src/lv_widgets/lv_canvas.c ****     }
 827:lvgl/src/lv_widgets/lv_canvas.c **** 
 828:lvgl/src/lv_widgets/lv_canvas.c ****     label_draw_dsc->flag = flag;
ARM GAS  D:\Temp\cc0vPyDE.s 			page 16


 829:lvgl/src/lv_widgets/lv_canvas.c **** 
 830:lvgl/src/lv_widgets/lv_canvas.c ****     lv_draw_label(&coords, &mask, label_draw_dsc, txt, NULL);
 831:lvgl/src/lv_widgets/lv_canvas.c **** 
 832:lvgl/src/lv_widgets/lv_canvas.c ****     _lv_refr_set_disp_refreshing(refr_ori);
 833:lvgl/src/lv_widgets/lv_canvas.c **** 
 834:lvgl/src/lv_widgets/lv_canvas.c ****     lv_obj_invalidate(canvas);
 835:lvgl/src/lv_widgets/lv_canvas.c **** }
 836:lvgl/src/lv_widgets/lv_canvas.c **** 
 837:lvgl/src/lv_widgets/lv_canvas.c **** /**
 838:lvgl/src/lv_widgets/lv_canvas.c ****  * Draw an image on the canvas
 839:lvgl/src/lv_widgets/lv_canvas.c ****  * @param canvas pointer to a canvas object
 840:lvgl/src/lv_widgets/lv_canvas.c ****  * @param src image source. Can be a pointer an `lv_img_dsc_t` variable or a path an image.
 841:lvgl/src/lv_widgets/lv_canvas.c ****  * @param img_draw_dsc pointer to a valid label descriptor `lv_draw_img_dsc_t`
 842:lvgl/src/lv_widgets/lv_canvas.c ****  */
 843:lvgl/src/lv_widgets/lv_canvas.c **** void lv_canvas_draw_img(lv_obj_t * canvas, lv_coord_t x, lv_coord_t y, const void * src,
 844:lvgl/src/lv_widgets/lv_canvas.c ****                         const lv_draw_img_dsc_t * img_draw_dsc)
 845:lvgl/src/lv_widgets/lv_canvas.c **** {
 846:lvgl/src/lv_widgets/lv_canvas.c ****     LV_ASSERT_OBJ(canvas, LV_OBJX_NAME);
 847:lvgl/src/lv_widgets/lv_canvas.c **** 
 848:lvgl/src/lv_widgets/lv_canvas.c ****     lv_img_dsc_t * dsc = lv_canvas_get_img(canvas);
 849:lvgl/src/lv_widgets/lv_canvas.c **** 
 850:lvgl/src/lv_widgets/lv_canvas.c ****     if(dsc->header.cf >= LV_IMG_CF_INDEXED_1BIT && dsc->header.cf <= LV_IMG_CF_INDEXED_8BIT) {
 851:lvgl/src/lv_widgets/lv_canvas.c ****         LV_LOG_WARN("lv_canvas_draw_img: can't draw to LV_IMG_CF_INDEXED canvas");
 852:lvgl/src/lv_widgets/lv_canvas.c ****         return;
 853:lvgl/src/lv_widgets/lv_canvas.c ****     }
 854:lvgl/src/lv_widgets/lv_canvas.c **** 
 855:lvgl/src/lv_widgets/lv_canvas.c ****     /* Create a dummy display to fool the lv_draw function.
 856:lvgl/src/lv_widgets/lv_canvas.c ****      * It will think it draws to real screen. */
 857:lvgl/src/lv_widgets/lv_canvas.c ****     lv_area_t mask;
 858:lvgl/src/lv_widgets/lv_canvas.c ****     mask.x1 = 0;
 859:lvgl/src/lv_widgets/lv_canvas.c ****     mask.x2 = dsc->header.w - 1;
 860:lvgl/src/lv_widgets/lv_canvas.c ****     mask.y1 = 0;
 861:lvgl/src/lv_widgets/lv_canvas.c ****     mask.y2 = dsc->header.h - 1;
 862:lvgl/src/lv_widgets/lv_canvas.c **** 
 863:lvgl/src/lv_widgets/lv_canvas.c ****     lv_img_header_t header;
 864:lvgl/src/lv_widgets/lv_canvas.c ****     lv_res_t res = lv_img_decoder_get_info(src, &header);
 865:lvgl/src/lv_widgets/lv_canvas.c ****     if(res != LV_RES_OK) {
 866:lvgl/src/lv_widgets/lv_canvas.c ****         LV_LOG_WARN("lv_canvas_draw_img: Couldn't get the image data.");
 867:lvgl/src/lv_widgets/lv_canvas.c ****         return;
 868:lvgl/src/lv_widgets/lv_canvas.c ****     }
 869:lvgl/src/lv_widgets/lv_canvas.c **** 
 870:lvgl/src/lv_widgets/lv_canvas.c ****     lv_area_t coords;
 871:lvgl/src/lv_widgets/lv_canvas.c ****     coords.x1 = x;
 872:lvgl/src/lv_widgets/lv_canvas.c ****     coords.y1 = y;
 873:lvgl/src/lv_widgets/lv_canvas.c ****     coords.x2 = x + header.w - 1;
 874:lvgl/src/lv_widgets/lv_canvas.c ****     coords.y2 = y + header.h - 1;
 875:lvgl/src/lv_widgets/lv_canvas.c **** 
 876:lvgl/src/lv_widgets/lv_canvas.c ****     lv_disp_t disp;
 877:lvgl/src/lv_widgets/lv_canvas.c ****     _lv_memset_00(&disp, sizeof(lv_disp_t));
 878:lvgl/src/lv_widgets/lv_canvas.c **** 
 879:lvgl/src/lv_widgets/lv_canvas.c ****     lv_disp_buf_t disp_buf;
 880:lvgl/src/lv_widgets/lv_canvas.c ****     lv_disp_buf_init(&disp_buf, (void *)dsc->data, NULL, dsc->header.w * dsc->header.h);
 881:lvgl/src/lv_widgets/lv_canvas.c ****     lv_area_copy(&disp_buf.area, &mask);
 882:lvgl/src/lv_widgets/lv_canvas.c **** 
 883:lvgl/src/lv_widgets/lv_canvas.c ****     lv_disp_drv_init(&disp.driver);
 884:lvgl/src/lv_widgets/lv_canvas.c **** 
 885:lvgl/src/lv_widgets/lv_canvas.c ****     disp.driver.buffer  = &disp_buf;
ARM GAS  D:\Temp\cc0vPyDE.s 			page 17


 886:lvgl/src/lv_widgets/lv_canvas.c ****     disp.driver.hor_res = dsc->header.w;
 887:lvgl/src/lv_widgets/lv_canvas.c ****     disp.driver.ver_res = dsc->header.h;
 888:lvgl/src/lv_widgets/lv_canvas.c **** 
 889:lvgl/src/lv_widgets/lv_canvas.c ****     set_set_px_cb(&disp.driver, dsc->header.cf);
 890:lvgl/src/lv_widgets/lv_canvas.c **** 
 891:lvgl/src/lv_widgets/lv_canvas.c ****     lv_disp_t * refr_ori = _lv_refr_get_disp_refreshing();
 892:lvgl/src/lv_widgets/lv_canvas.c ****     _lv_refr_set_disp_refreshing(&disp);
 893:lvgl/src/lv_widgets/lv_canvas.c **** 
 894:lvgl/src/lv_widgets/lv_canvas.c ****     lv_draw_img(&coords, &mask, src, img_draw_dsc);
 895:lvgl/src/lv_widgets/lv_canvas.c **** 
 896:lvgl/src/lv_widgets/lv_canvas.c ****     _lv_refr_set_disp_refreshing(refr_ori);
 897:lvgl/src/lv_widgets/lv_canvas.c **** 
 898:lvgl/src/lv_widgets/lv_canvas.c ****     lv_obj_invalidate(canvas);
 899:lvgl/src/lv_widgets/lv_canvas.c **** }
 900:lvgl/src/lv_widgets/lv_canvas.c **** 
 901:lvgl/src/lv_widgets/lv_canvas.c **** /**
 902:lvgl/src/lv_widgets/lv_canvas.c ****  * Draw a line on the canvas
 903:lvgl/src/lv_widgets/lv_canvas.c ****  * @param canvas pointer to a canvas object
 904:lvgl/src/lv_widgets/lv_canvas.c ****  * @param points point of the line
 905:lvgl/src/lv_widgets/lv_canvas.c ****  * @param point_cnt number of points
 906:lvgl/src/lv_widgets/lv_canvas.c ****  * @param line_draw_dsc pointer to an initialized `lv_draw_line_dsc_t` variable
 907:lvgl/src/lv_widgets/lv_canvas.c ****  */
 908:lvgl/src/lv_widgets/lv_canvas.c **** void lv_canvas_draw_line(lv_obj_t * canvas, const lv_point_t points[], uint32_t point_cnt,
 909:lvgl/src/lv_widgets/lv_canvas.c ****                          const lv_draw_line_dsc_t * line_draw_dsc)
 910:lvgl/src/lv_widgets/lv_canvas.c **** {
 911:lvgl/src/lv_widgets/lv_canvas.c ****     LV_ASSERT_OBJ(canvas, LV_OBJX_NAME);
 912:lvgl/src/lv_widgets/lv_canvas.c **** 
 913:lvgl/src/lv_widgets/lv_canvas.c ****     lv_img_dsc_t * dsc = lv_canvas_get_img(canvas);
 914:lvgl/src/lv_widgets/lv_canvas.c **** 
 915:lvgl/src/lv_widgets/lv_canvas.c ****     if(dsc->header.cf >= LV_IMG_CF_INDEXED_1BIT && dsc->header.cf <= LV_IMG_CF_INDEXED_8BIT) {
 916:lvgl/src/lv_widgets/lv_canvas.c ****         LV_LOG_WARN("lv_canvas_draw_line: can't draw to LV_IMG_CF_INDEXED canvas");
 917:lvgl/src/lv_widgets/lv_canvas.c ****         return;
 918:lvgl/src/lv_widgets/lv_canvas.c ****     }
 919:lvgl/src/lv_widgets/lv_canvas.c ****     /* Create a dummy display to fool the lv_draw function.
 920:lvgl/src/lv_widgets/lv_canvas.c ****      * It will think it draws to real screen. */
 921:lvgl/src/lv_widgets/lv_canvas.c ****     lv_area_t mask;
 922:lvgl/src/lv_widgets/lv_canvas.c ****     mask.x1 = 0;
 923:lvgl/src/lv_widgets/lv_canvas.c ****     mask.x2 = dsc->header.w - 1;
 924:lvgl/src/lv_widgets/lv_canvas.c ****     mask.y1 = 0;
 925:lvgl/src/lv_widgets/lv_canvas.c ****     mask.y2 = dsc->header.h - 1;
 926:lvgl/src/lv_widgets/lv_canvas.c **** 
 927:lvgl/src/lv_widgets/lv_canvas.c ****     lv_disp_t disp;
 928:lvgl/src/lv_widgets/lv_canvas.c ****     _lv_memset_00(&disp, sizeof(lv_disp_t));
 929:lvgl/src/lv_widgets/lv_canvas.c **** 
 930:lvgl/src/lv_widgets/lv_canvas.c ****     lv_disp_buf_t disp_buf;
 931:lvgl/src/lv_widgets/lv_canvas.c ****     lv_disp_buf_init(&disp_buf, (void *)dsc->data, NULL, dsc->header.w * dsc->header.h);
 932:lvgl/src/lv_widgets/lv_canvas.c ****     lv_area_copy(&disp_buf.area, &mask);
 933:lvgl/src/lv_widgets/lv_canvas.c **** 
 934:lvgl/src/lv_widgets/lv_canvas.c ****     lv_disp_drv_init(&disp.driver);
 935:lvgl/src/lv_widgets/lv_canvas.c **** 
 936:lvgl/src/lv_widgets/lv_canvas.c ****     disp.driver.buffer  = &disp_buf;
 937:lvgl/src/lv_widgets/lv_canvas.c ****     disp.driver.hor_res = dsc->header.w;
 938:lvgl/src/lv_widgets/lv_canvas.c ****     disp.driver.ver_res = dsc->header.h;
 939:lvgl/src/lv_widgets/lv_canvas.c **** 
 940:lvgl/src/lv_widgets/lv_canvas.c ****     set_set_px_cb(&disp.driver, dsc->header.cf);
 941:lvgl/src/lv_widgets/lv_canvas.c **** 
 942:lvgl/src/lv_widgets/lv_canvas.c **** #if LV_ANTIALIAS
ARM GAS  D:\Temp\cc0vPyDE.s 			page 18


 943:lvgl/src/lv_widgets/lv_canvas.c ****     /*Disable anti-aliasing if drawing with transparent color to chroma keyed canvas*/
 944:lvgl/src/lv_widgets/lv_canvas.c ****     lv_color_t ctransp = LV_COLOR_TRANSP;
 945:lvgl/src/lv_widgets/lv_canvas.c ****     if(dsc->header.cf == LV_IMG_CF_TRUE_COLOR_CHROMA_KEYED &&
 946:lvgl/src/lv_widgets/lv_canvas.c ****        line_draw_dsc->color.full == ctransp.full) {
 947:lvgl/src/lv_widgets/lv_canvas.c ****         disp.driver.antialiasing = 0;
 948:lvgl/src/lv_widgets/lv_canvas.c ****     }
 949:lvgl/src/lv_widgets/lv_canvas.c **** #endif
 950:lvgl/src/lv_widgets/lv_canvas.c **** 
 951:lvgl/src/lv_widgets/lv_canvas.c ****     lv_disp_t * refr_ori = _lv_refr_get_disp_refreshing();
 952:lvgl/src/lv_widgets/lv_canvas.c ****     _lv_refr_set_disp_refreshing(&disp);
 953:lvgl/src/lv_widgets/lv_canvas.c **** 
 954:lvgl/src/lv_widgets/lv_canvas.c ****     uint32_t i;
 955:lvgl/src/lv_widgets/lv_canvas.c ****     for(i = 0; i < point_cnt - 1; i++) {
 956:lvgl/src/lv_widgets/lv_canvas.c ****         lv_draw_line(&points[i], &points[i + 1], &mask, line_draw_dsc);
 957:lvgl/src/lv_widgets/lv_canvas.c ****     }
 958:lvgl/src/lv_widgets/lv_canvas.c **** 
 959:lvgl/src/lv_widgets/lv_canvas.c ****     _lv_refr_set_disp_refreshing(refr_ori);
 960:lvgl/src/lv_widgets/lv_canvas.c **** 
 961:lvgl/src/lv_widgets/lv_canvas.c ****     lv_obj_invalidate(canvas);
 962:lvgl/src/lv_widgets/lv_canvas.c **** }
 963:lvgl/src/lv_widgets/lv_canvas.c **** 
 964:lvgl/src/lv_widgets/lv_canvas.c **** /**
 965:lvgl/src/lv_widgets/lv_canvas.c ****  * Draw a polygon on the canvas
 966:lvgl/src/lv_widgets/lv_canvas.c ****  * @param canvas pointer to a canvas object
 967:lvgl/src/lv_widgets/lv_canvas.c ****  * @param points point of the polygon
 968:lvgl/src/lv_widgets/lv_canvas.c ****  * @param point_cnt number of points
 969:lvgl/src/lv_widgets/lv_canvas.c ****  * @param poly_draw_dsc pointer to an initialized `lv_draw_rect_dsc_t` variable
 970:lvgl/src/lv_widgets/lv_canvas.c ****  */
 971:lvgl/src/lv_widgets/lv_canvas.c **** void lv_canvas_draw_polygon(lv_obj_t * canvas, const lv_point_t points[], uint32_t point_cnt,
 972:lvgl/src/lv_widgets/lv_canvas.c ****                             const lv_draw_rect_dsc_t * poly_draw_dsc)
 973:lvgl/src/lv_widgets/lv_canvas.c **** {
 974:lvgl/src/lv_widgets/lv_canvas.c ****     LV_ASSERT_OBJ(canvas, LV_OBJX_NAME);
 975:lvgl/src/lv_widgets/lv_canvas.c **** 
 976:lvgl/src/lv_widgets/lv_canvas.c ****     lv_img_dsc_t * dsc = lv_canvas_get_img(canvas);
 977:lvgl/src/lv_widgets/lv_canvas.c **** 
 978:lvgl/src/lv_widgets/lv_canvas.c ****     if(dsc->header.cf >= LV_IMG_CF_INDEXED_1BIT && dsc->header.cf <= LV_IMG_CF_INDEXED_8BIT) {
 979:lvgl/src/lv_widgets/lv_canvas.c ****         LV_LOG_WARN("lv_canvas_draw_polygon: can't draw to LV_IMG_CF_INDEXED canvas");
 980:lvgl/src/lv_widgets/lv_canvas.c ****         return;
 981:lvgl/src/lv_widgets/lv_canvas.c ****     }
 982:lvgl/src/lv_widgets/lv_canvas.c **** 
 983:lvgl/src/lv_widgets/lv_canvas.c ****     /* Create a dummy display to fool the lv_draw function.
 984:lvgl/src/lv_widgets/lv_canvas.c ****      * It will think it draws to real screen. */
 985:lvgl/src/lv_widgets/lv_canvas.c ****     lv_area_t mask;
 986:lvgl/src/lv_widgets/lv_canvas.c ****     mask.x1 = 0;
 987:lvgl/src/lv_widgets/lv_canvas.c ****     mask.x2 = dsc->header.w - 1;
 988:lvgl/src/lv_widgets/lv_canvas.c ****     mask.y1 = 0;
 989:lvgl/src/lv_widgets/lv_canvas.c ****     mask.y2 = dsc->header.h - 1;
 990:lvgl/src/lv_widgets/lv_canvas.c **** 
 991:lvgl/src/lv_widgets/lv_canvas.c ****     lv_disp_t disp;
 992:lvgl/src/lv_widgets/lv_canvas.c ****     _lv_memset_00(&disp, sizeof(lv_disp_t));
 993:lvgl/src/lv_widgets/lv_canvas.c **** 
 994:lvgl/src/lv_widgets/lv_canvas.c ****     lv_disp_buf_t disp_buf;
 995:lvgl/src/lv_widgets/lv_canvas.c ****     lv_disp_buf_init(&disp_buf, (void *)dsc->data, NULL, dsc->header.w * dsc->header.h);
 996:lvgl/src/lv_widgets/lv_canvas.c ****     lv_area_copy(&disp_buf.area, &mask);
 997:lvgl/src/lv_widgets/lv_canvas.c **** 
 998:lvgl/src/lv_widgets/lv_canvas.c ****     lv_disp_drv_init(&disp.driver);
 999:lvgl/src/lv_widgets/lv_canvas.c **** 
ARM GAS  D:\Temp\cc0vPyDE.s 			page 19


1000:lvgl/src/lv_widgets/lv_canvas.c ****     disp.driver.buffer  = &disp_buf;
1001:lvgl/src/lv_widgets/lv_canvas.c ****     disp.driver.hor_res = dsc->header.w;
1002:lvgl/src/lv_widgets/lv_canvas.c ****     disp.driver.ver_res = dsc->header.h;
1003:lvgl/src/lv_widgets/lv_canvas.c **** 
1004:lvgl/src/lv_widgets/lv_canvas.c ****     set_set_px_cb(&disp.driver, dsc->header.cf);
1005:lvgl/src/lv_widgets/lv_canvas.c **** 
1006:lvgl/src/lv_widgets/lv_canvas.c **** #if LV_ANTIALIAS
1007:lvgl/src/lv_widgets/lv_canvas.c ****     /*Disable anti-aliasing if drawing with transparent color to chroma keyed canvas*/
1008:lvgl/src/lv_widgets/lv_canvas.c ****     lv_color_t ctransp = LV_COLOR_TRANSP;
1009:lvgl/src/lv_widgets/lv_canvas.c ****     if(dsc->header.cf == LV_IMG_CF_TRUE_COLOR_CHROMA_KEYED &&
1010:lvgl/src/lv_widgets/lv_canvas.c ****        poly_draw_dsc->bg_color.full == ctransp.full) {
1011:lvgl/src/lv_widgets/lv_canvas.c ****         disp.driver.antialiasing = 0;
1012:lvgl/src/lv_widgets/lv_canvas.c ****     }
1013:lvgl/src/lv_widgets/lv_canvas.c **** #endif
1014:lvgl/src/lv_widgets/lv_canvas.c **** 
1015:lvgl/src/lv_widgets/lv_canvas.c ****     lv_disp_t * refr_ori = _lv_refr_get_disp_refreshing();
1016:lvgl/src/lv_widgets/lv_canvas.c ****     _lv_refr_set_disp_refreshing(&disp);
1017:lvgl/src/lv_widgets/lv_canvas.c **** 
1018:lvgl/src/lv_widgets/lv_canvas.c ****     lv_draw_polygon(points, point_cnt, &mask, poly_draw_dsc);
1019:lvgl/src/lv_widgets/lv_canvas.c **** 
1020:lvgl/src/lv_widgets/lv_canvas.c ****     _lv_refr_set_disp_refreshing(refr_ori);
1021:lvgl/src/lv_widgets/lv_canvas.c **** 
1022:lvgl/src/lv_widgets/lv_canvas.c ****     lv_obj_invalidate(canvas);
1023:lvgl/src/lv_widgets/lv_canvas.c **** }
1024:lvgl/src/lv_widgets/lv_canvas.c **** 
1025:lvgl/src/lv_widgets/lv_canvas.c **** /**
1026:lvgl/src/lv_widgets/lv_canvas.c ****  * Draw an arc on the canvas
1027:lvgl/src/lv_widgets/lv_canvas.c ****  * @param canvas pointer to a canvas object
1028:lvgl/src/lv_widgets/lv_canvas.c ****  * @param x origo x of the arc
1029:lvgl/src/lv_widgets/lv_canvas.c ****  * @param y origo y of the arc
1030:lvgl/src/lv_widgets/lv_canvas.c ****  * @param r radius of the arc
1031:lvgl/src/lv_widgets/lv_canvas.c ****  * @param start_angle start angle in degrees
1032:lvgl/src/lv_widgets/lv_canvas.c ****  * @param end_angle end angle in degrees
1033:lvgl/src/lv_widgets/lv_canvas.c ****  * @param arc_draw_dsc pointer to an initialized `lv_draw_line_dsc_t` variable
1034:lvgl/src/lv_widgets/lv_canvas.c ****  */
1035:lvgl/src/lv_widgets/lv_canvas.c **** void lv_canvas_draw_arc(lv_obj_t * canvas, lv_coord_t x, lv_coord_t y, lv_coord_t r, int32_t start_
1036:lvgl/src/lv_widgets/lv_canvas.c ****                         int32_t end_angle, const lv_draw_line_dsc_t * arc_draw_dsc)
1037:lvgl/src/lv_widgets/lv_canvas.c **** {
1038:lvgl/src/lv_widgets/lv_canvas.c ****     LV_ASSERT_OBJ(canvas, LV_OBJX_NAME);
1039:lvgl/src/lv_widgets/lv_canvas.c **** 
1040:lvgl/src/lv_widgets/lv_canvas.c ****     lv_img_dsc_t * dsc = lv_canvas_get_img(canvas);
1041:lvgl/src/lv_widgets/lv_canvas.c **** 
1042:lvgl/src/lv_widgets/lv_canvas.c ****     if(dsc->header.cf >= LV_IMG_CF_INDEXED_1BIT && dsc->header.cf <= LV_IMG_CF_INDEXED_8BIT) {
1043:lvgl/src/lv_widgets/lv_canvas.c ****         LV_LOG_WARN("lv_canvas_draw_arc: can't draw to LV_IMG_CF_INDEXED canvas");
1044:lvgl/src/lv_widgets/lv_canvas.c ****         return;
1045:lvgl/src/lv_widgets/lv_canvas.c ****     }
1046:lvgl/src/lv_widgets/lv_canvas.c **** 
1047:lvgl/src/lv_widgets/lv_canvas.c ****     /* Create a dummy display to fool the lv_draw function.
1048:lvgl/src/lv_widgets/lv_canvas.c ****      * It will think it draws to real screen. */
1049:lvgl/src/lv_widgets/lv_canvas.c ****     lv_area_t mask;
1050:lvgl/src/lv_widgets/lv_canvas.c ****     mask.x1 = 0;
1051:lvgl/src/lv_widgets/lv_canvas.c ****     mask.x2 = dsc->header.w - 1;
1052:lvgl/src/lv_widgets/lv_canvas.c ****     mask.y1 = 0;
1053:lvgl/src/lv_widgets/lv_canvas.c ****     mask.y2 = dsc->header.h - 1;
1054:lvgl/src/lv_widgets/lv_canvas.c **** 
1055:lvgl/src/lv_widgets/lv_canvas.c ****     lv_disp_t disp;
1056:lvgl/src/lv_widgets/lv_canvas.c ****     _lv_memset_00(&disp, sizeof(lv_disp_t));
ARM GAS  D:\Temp\cc0vPyDE.s 			page 20


1057:lvgl/src/lv_widgets/lv_canvas.c **** 
1058:lvgl/src/lv_widgets/lv_canvas.c ****     lv_disp_buf_t disp_buf;
1059:lvgl/src/lv_widgets/lv_canvas.c ****     lv_disp_buf_init(&disp_buf, (void *)dsc->data, NULL, dsc->header.w * dsc->header.h);
1060:lvgl/src/lv_widgets/lv_canvas.c ****     lv_area_copy(&disp_buf.area, &mask);
1061:lvgl/src/lv_widgets/lv_canvas.c **** 
1062:lvgl/src/lv_widgets/lv_canvas.c ****     lv_disp_drv_init(&disp.driver);
1063:lvgl/src/lv_widgets/lv_canvas.c **** 
1064:lvgl/src/lv_widgets/lv_canvas.c ****     disp.driver.buffer  = &disp_buf;
1065:lvgl/src/lv_widgets/lv_canvas.c ****     disp.driver.hor_res = dsc->header.w;
1066:lvgl/src/lv_widgets/lv_canvas.c ****     disp.driver.ver_res = dsc->header.h;
1067:lvgl/src/lv_widgets/lv_canvas.c **** 
1068:lvgl/src/lv_widgets/lv_canvas.c ****     set_set_px_cb(&disp.driver, dsc->header.cf);
1069:lvgl/src/lv_widgets/lv_canvas.c **** 
1070:lvgl/src/lv_widgets/lv_canvas.c **** #if LV_ANTIALIAS
1071:lvgl/src/lv_widgets/lv_canvas.c ****     /*Disable anti-aliasing if drawing with transparent color to chroma keyed canvas*/
1072:lvgl/src/lv_widgets/lv_canvas.c ****     lv_color_t ctransp = LV_COLOR_TRANSP;
1073:lvgl/src/lv_widgets/lv_canvas.c ****     if(dsc->header.cf == LV_IMG_CF_TRUE_COLOR_CHROMA_KEYED &&
1074:lvgl/src/lv_widgets/lv_canvas.c ****        arc_draw_dsc->color.full == ctransp.full) {
1075:lvgl/src/lv_widgets/lv_canvas.c ****         disp.driver.antialiasing = 0;
1076:lvgl/src/lv_widgets/lv_canvas.c ****     }
1077:lvgl/src/lv_widgets/lv_canvas.c **** #endif
1078:lvgl/src/lv_widgets/lv_canvas.c **** 
1079:lvgl/src/lv_widgets/lv_canvas.c ****     lv_disp_t * refr_ori = _lv_refr_get_disp_refreshing();
1080:lvgl/src/lv_widgets/lv_canvas.c ****     _lv_refr_set_disp_refreshing(&disp);
1081:lvgl/src/lv_widgets/lv_canvas.c **** 
1082:lvgl/src/lv_widgets/lv_canvas.c ****     lv_draw_arc(x, y, r,  start_angle, end_angle, &mask, arc_draw_dsc);
1083:lvgl/src/lv_widgets/lv_canvas.c **** 
1084:lvgl/src/lv_widgets/lv_canvas.c ****     _lv_refr_set_disp_refreshing(refr_ori);
1085:lvgl/src/lv_widgets/lv_canvas.c **** 
1086:lvgl/src/lv_widgets/lv_canvas.c ****     lv_obj_invalidate(canvas);
1087:lvgl/src/lv_widgets/lv_canvas.c **** }
1088:lvgl/src/lv_widgets/lv_canvas.c **** 
1089:lvgl/src/lv_widgets/lv_canvas.c **** /**********************
1090:lvgl/src/lv_widgets/lv_canvas.c ****  *   STATIC FUNCTIONS
1091:lvgl/src/lv_widgets/lv_canvas.c ****  **********************/
1092:lvgl/src/lv_widgets/lv_canvas.c **** 
1093:lvgl/src/lv_widgets/lv_canvas.c **** /**
1094:lvgl/src/lv_widgets/lv_canvas.c ****  * Signal function of the canvas
1095:lvgl/src/lv_widgets/lv_canvas.c ****  * @param canvas pointer to a canvas object
1096:lvgl/src/lv_widgets/lv_canvas.c ****  * @param sign a signal type from lv_signal_t enum
1097:lvgl/src/lv_widgets/lv_canvas.c ****  * @param param pointer to a signal specific variable
1098:lvgl/src/lv_widgets/lv_canvas.c ****  * @return LV_RES_OK: the object is not deleted in the function; LV_RES_INV: the object is deleted
1099:lvgl/src/lv_widgets/lv_canvas.c ****  */
1100:lvgl/src/lv_widgets/lv_canvas.c **** static lv_res_t lv_canvas_signal(lv_obj_t * canvas, lv_signal_t sign, void * param)
1101:lvgl/src/lv_widgets/lv_canvas.c **** {
1102:lvgl/src/lv_widgets/lv_canvas.c ****     lv_res_t res;
1103:lvgl/src/lv_widgets/lv_canvas.c **** 
1104:lvgl/src/lv_widgets/lv_canvas.c ****     /* Include the ancient signal function */
1105:lvgl/src/lv_widgets/lv_canvas.c ****     res = ancestor_signal(canvas, sign, param);
1106:lvgl/src/lv_widgets/lv_canvas.c ****     if(res != LV_RES_OK) return res;
1107:lvgl/src/lv_widgets/lv_canvas.c ****     if(sign == LV_SIGNAL_GET_TYPE) return lv_obj_handle_get_type_signal(param, LV_OBJX_NAME);
1108:lvgl/src/lv_widgets/lv_canvas.c **** 
1109:lvgl/src/lv_widgets/lv_canvas.c ****     if(sign == LV_SIGNAL_CLEANUP) {
1110:lvgl/src/lv_widgets/lv_canvas.c ****         /*Nothing to cleanup. (No dynamically allocated memory in 'ext')*/
1111:lvgl/src/lv_widgets/lv_canvas.c ****     }
1112:lvgl/src/lv_widgets/lv_canvas.c **** 
1113:lvgl/src/lv_widgets/lv_canvas.c ****     return res;
ARM GAS  D:\Temp\cc0vPyDE.s 			page 21


1114:lvgl/src/lv_widgets/lv_canvas.c **** }
1115:lvgl/src/lv_widgets/lv_canvas.c **** 
1116:lvgl/src/lv_widgets/lv_canvas.c **** static void set_set_px_cb(lv_disp_drv_t * disp_drv, lv_img_cf_t cf)
1117:lvgl/src/lv_widgets/lv_canvas.c **** {
  29              		.loc 1 1117 1 view -0
  30              		.cfi_startproc
  31              		@ args = 0, pretend = 0, frame = 0
  32              		@ frame_needed = 0, uses_anonymous_args = 0
  33              		@ link register save eliminated.
1118:lvgl/src/lv_widgets/lv_canvas.c ****     switch(cf) {
  34              		.loc 1 1118 5 view .LVU1
  35 0000 0539     		subs	r1, r1, #5
  36              	.LVL1:
  37              		.loc 1 1118 5 is_stmt 0 view .LVU2
  38 0002 0929     		cmp	r1, #9
  39 0004 15D8     		bhi	.L2
  40 0006 DFE801F0 		tbb	[pc, r1]
  41              	.L4:
  42 000a 05       		.byte	(.L8-.L4)/2
  43 000b 14       		.byte	(.L2-.L4)/2
  44 000c 14       		.byte	(.L2-.L4)/2
  45 000d 14       		.byte	(.L2-.L4)/2
  46 000e 14       		.byte	(.L2-.L4)/2
  47 000f 14       		.byte	(.L2-.L4)/2
  48 0010 08       		.byte	(.L7-.L4)/2
  49 0011 0B       		.byte	(.L6-.L4)/2
  50 0012 0E       		.byte	(.L5-.L4)/2
  51 0013 11       		.byte	(.L3-.L4)/2
  52              		.p2align 1
  53              	.L8:
1119:lvgl/src/lv_widgets/lv_canvas.c ****         case LV_IMG_CF_TRUE_COLOR_ALPHA:
1120:lvgl/src/lv_widgets/lv_canvas.c ****             disp_drv->set_px_cb = set_px_true_color_alpha;
  54              		.loc 1 1120 13 is_stmt 1 view .LVU3
  55              		.loc 1 1120 33 is_stmt 0 view .LVU4
  56 0014 084B     		ldr	r3, .L10
  57 0016 4361     		str	r3, [r0, #20]
1121:lvgl/src/lv_widgets/lv_canvas.c ****             break;
  58              		.loc 1 1121 13 is_stmt 1 view .LVU5
  59 0018 7047     		bx	lr
  60              	.L7:
1122:lvgl/src/lv_widgets/lv_canvas.c ****         case LV_IMG_CF_ALPHA_1BIT:
1123:lvgl/src/lv_widgets/lv_canvas.c ****             disp_drv->set_px_cb = set_px_cb_alpha1;
  61              		.loc 1 1123 13 view .LVU6
  62              		.loc 1 1123 33 is_stmt 0 view .LVU7
  63 001a 084B     		ldr	r3, .L10+4
  64 001c 4361     		str	r3, [r0, #20]
1124:lvgl/src/lv_widgets/lv_canvas.c ****             break;
  65              		.loc 1 1124 13 is_stmt 1 view .LVU8
  66 001e 7047     		bx	lr
  67              	.L6:
1125:lvgl/src/lv_widgets/lv_canvas.c ****         case LV_IMG_CF_ALPHA_2BIT:
1126:lvgl/src/lv_widgets/lv_canvas.c ****             disp_drv->set_px_cb = set_px_cb_alpha2;
  68              		.loc 1 1126 13 view .LVU9
  69              		.loc 1 1126 33 is_stmt 0 view .LVU10
  70 0020 074B     		ldr	r3, .L10+8
  71 0022 4361     		str	r3, [r0, #20]
1127:lvgl/src/lv_widgets/lv_canvas.c ****             break;
ARM GAS  D:\Temp\cc0vPyDE.s 			page 22


  72              		.loc 1 1127 13 is_stmt 1 view .LVU11
  73 0024 7047     		bx	lr
  74              	.L5:
1128:lvgl/src/lv_widgets/lv_canvas.c ****         case LV_IMG_CF_ALPHA_4BIT:
1129:lvgl/src/lv_widgets/lv_canvas.c ****             disp_drv->set_px_cb = set_px_cb_alpha4;
  75              		.loc 1 1129 13 view .LVU12
  76              		.loc 1 1129 33 is_stmt 0 view .LVU13
  77 0026 074B     		ldr	r3, .L10+12
  78 0028 4361     		str	r3, [r0, #20]
1130:lvgl/src/lv_widgets/lv_canvas.c ****             break;
  79              		.loc 1 1130 13 is_stmt 1 view .LVU14
  80 002a 7047     		bx	lr
  81              	.L3:
1131:lvgl/src/lv_widgets/lv_canvas.c ****         case LV_IMG_CF_ALPHA_8BIT:
1132:lvgl/src/lv_widgets/lv_canvas.c ****             disp_drv->set_px_cb = set_px_cb_alpha8;
  82              		.loc 1 1132 13 view .LVU15
  83              		.loc 1 1132 33 is_stmt 0 view .LVU16
  84 002c 064B     		ldr	r3, .L10+16
  85 002e 4361     		str	r3, [r0, #20]
1133:lvgl/src/lv_widgets/lv_canvas.c ****             break;
  86              		.loc 1 1133 13 is_stmt 1 view .LVU17
  87 0030 7047     		bx	lr
  88              	.L2:
1134:lvgl/src/lv_widgets/lv_canvas.c ****         default:
1135:lvgl/src/lv_widgets/lv_canvas.c ****             disp_drv->set_px_cb = NULL;
  89              		.loc 1 1135 13 view .LVU18
  90              		.loc 1 1135 33 is_stmt 0 view .LVU19
  91 0032 0023     		movs	r3, #0
  92 0034 4361     		str	r3, [r0, #20]
1136:lvgl/src/lv_widgets/lv_canvas.c ****     }
1137:lvgl/src/lv_widgets/lv_canvas.c **** }
  93              		.loc 1 1137 1 view .LVU20
  94 0036 7047     		bx	lr
  95              	.L11:
  96              		.align	2
  97              	.L10:
  98 0038 00000000 		.word	set_px_true_color_alpha
  99 003c 00000000 		.word	set_px_cb_alpha1
 100 0040 00000000 		.word	set_px_cb_alpha2
 101 0044 00000000 		.word	set_px_cb_alpha4
 102 0048 00000000 		.word	set_px_cb_alpha8
 103              		.cfi_endproc
 104              	.LFE476:
 106              		.section	.text.lv_canvas_signal,"ax",%progbits
 107              		.align	1
 108              		.syntax unified
 109              		.thumb
 110              		.thumb_func
 111              		.fpu fpv4-sp-d16
 113              	lv_canvas_signal:
 114              	.LVL2:
 115              	.LFB475:
1101:lvgl/src/lv_widgets/lv_canvas.c ****     lv_res_t res;
 116              		.loc 1 1101 1 is_stmt 1 view -0
 117              		.cfi_startproc
 118              		@ args = 0, pretend = 0, frame = 0
 119              		@ frame_needed = 0, uses_anonymous_args = 0
ARM GAS  D:\Temp\cc0vPyDE.s 			page 23


1101:lvgl/src/lv_widgets/lv_canvas.c ****     lv_res_t res;
 120              		.loc 1 1101 1 is_stmt 0 view .LVU22
 121 0000 38B5     		push	{r3, r4, r5, lr}
 122              	.LCFI0:
 123              		.cfi_def_cfa_offset 16
 124              		.cfi_offset 3, -16
 125              		.cfi_offset 4, -12
 126              		.cfi_offset 5, -8
 127              		.cfi_offset 14, -4
 128 0002 0C46     		mov	r4, r1
 129 0004 1546     		mov	r5, r2
1102:lvgl/src/lv_widgets/lv_canvas.c **** 
 130              		.loc 1 1102 5 is_stmt 1 view .LVU23
1105:lvgl/src/lv_widgets/lv_canvas.c ****     if(res != LV_RES_OK) return res;
 131              		.loc 1 1105 5 view .LVU24
1105:lvgl/src/lv_widgets/lv_canvas.c ****     if(res != LV_RES_OK) return res;
 132              		.loc 1 1105 11 is_stmt 0 view .LVU25
 133 0006 064B     		ldr	r3, .L16
 134 0008 1B68     		ldr	r3, [r3]
 135 000a 9847     		blx	r3
 136              	.LVL3:
1106:lvgl/src/lv_widgets/lv_canvas.c ****     if(sign == LV_SIGNAL_GET_TYPE) return lv_obj_handle_get_type_signal(param, LV_OBJX_NAME);
 137              		.loc 1 1106 5 is_stmt 1 view .LVU26
1106:lvgl/src/lv_widgets/lv_canvas.c ****     if(sign == LV_SIGNAL_GET_TYPE) return lv_obj_handle_get_type_signal(param, LV_OBJX_NAME);
 138              		.loc 1 1106 7 is_stmt 0 view .LVU27
 139 000c 0128     		cmp	r0, #1
 140 000e 01D1     		bne	.L13
1107:lvgl/src/lv_widgets/lv_canvas.c **** 
 141              		.loc 1 1107 5 is_stmt 1 view .LVU28
1107:lvgl/src/lv_widgets/lv_canvas.c **** 
 142              		.loc 1 1107 7 is_stmt 0 view .LVU29
 143 0010 072C     		cmp	r4, #7
 144 0012 00D0     		beq	.L15
 145              	.LVL4:
 146              	.L13:
1114:lvgl/src/lv_widgets/lv_canvas.c **** 
 147              		.loc 1 1114 1 view .LVU30
 148 0014 38BD     		pop	{r3, r4, r5, pc}
 149              	.LVL5:
 150              	.L15:
1107:lvgl/src/lv_widgets/lv_canvas.c **** 
 151              		.loc 1 1107 36 is_stmt 1 discriminator 1 view .LVU31
1107:lvgl/src/lv_widgets/lv_canvas.c **** 
 152              		.loc 1 1107 43 is_stmt 0 discriminator 1 view .LVU32
 153 0016 0349     		ldr	r1, .L16+4
 154 0018 2846     		mov	r0, r5
 155              	.LVL6:
1107:lvgl/src/lv_widgets/lv_canvas.c **** 
 156              		.loc 1 1107 43 discriminator 1 view .LVU33
 157 001a FFF7FEFF 		bl	lv_obj_handle_get_type_signal
 158              	.LVL7:
 159 001e F9E7     		b	.L13
 160              	.L17:
 161              		.align	2
 162              	.L16:
 163 0020 00000000 		.word	.LANCHOR0
 164 0024 00000000 		.word	.LC0
ARM GAS  D:\Temp\cc0vPyDE.s 			page 24


 165              		.cfi_endproc
 166              	.LFE475:
 168              		.section	.text.set_px_alpha_generic,"ax",%progbits
 169              		.align	1
 170              		.syntax unified
 171              		.thumb
 172              		.thumb_func
 173              		.fpu fpv4-sp-d16
 175              	set_px_alpha_generic:
 176              	.LVL8:
 177              	.LFB481:
1138:lvgl/src/lv_widgets/lv_canvas.c **** 
1139:lvgl/src/lv_widgets/lv_canvas.c **** static void set_px_cb_alpha1(lv_disp_drv_t * disp_drv, uint8_t * buf, lv_coord_t buf_w, lv_coord_t 
1140:lvgl/src/lv_widgets/lv_canvas.c ****                              lv_color_t color, lv_opa_t opa)
1141:lvgl/src/lv_widgets/lv_canvas.c **** {
1142:lvgl/src/lv_widgets/lv_canvas.c ****     (void) disp_drv; /*Unused*/
1143:lvgl/src/lv_widgets/lv_canvas.c **** 
1144:lvgl/src/lv_widgets/lv_canvas.c ****     if(opa <= LV_OPA_MIN) return;
1145:lvgl/src/lv_widgets/lv_canvas.c ****     lv_img_dsc_t d;
1146:lvgl/src/lv_widgets/lv_canvas.c ****     d.data = buf;
1147:lvgl/src/lv_widgets/lv_canvas.c ****     d.header.w = buf_w;
1148:lvgl/src/lv_widgets/lv_canvas.c ****     d.header.cf = LV_IMG_CF_ALPHA_1BIT;
1149:lvgl/src/lv_widgets/lv_canvas.c **** 
1150:lvgl/src/lv_widgets/lv_canvas.c ****     set_px_alpha_generic(&d, x, y, color, opa);
1151:lvgl/src/lv_widgets/lv_canvas.c **** }
1152:lvgl/src/lv_widgets/lv_canvas.c **** 
1153:lvgl/src/lv_widgets/lv_canvas.c **** static void set_px_cb_alpha2(lv_disp_drv_t * disp_drv, uint8_t * buf, lv_coord_t buf_w, lv_coord_t 
1154:lvgl/src/lv_widgets/lv_canvas.c ****                              lv_color_t color, lv_opa_t opa)
1155:lvgl/src/lv_widgets/lv_canvas.c **** {
1156:lvgl/src/lv_widgets/lv_canvas.c ****     (void) disp_drv; /*Unused*/
1157:lvgl/src/lv_widgets/lv_canvas.c **** 
1158:lvgl/src/lv_widgets/lv_canvas.c ****     if(opa <= LV_OPA_MIN) return;
1159:lvgl/src/lv_widgets/lv_canvas.c ****     lv_img_dsc_t d;
1160:lvgl/src/lv_widgets/lv_canvas.c ****     d.data = buf;
1161:lvgl/src/lv_widgets/lv_canvas.c ****     d.header.w = buf_w;
1162:lvgl/src/lv_widgets/lv_canvas.c ****     d.header.cf = LV_IMG_CF_ALPHA_2BIT;
1163:lvgl/src/lv_widgets/lv_canvas.c **** 
1164:lvgl/src/lv_widgets/lv_canvas.c ****     set_px_alpha_generic(&d, x, y, color, opa);
1165:lvgl/src/lv_widgets/lv_canvas.c **** }
1166:lvgl/src/lv_widgets/lv_canvas.c **** 
1167:lvgl/src/lv_widgets/lv_canvas.c **** static void set_px_cb_alpha4(lv_disp_drv_t * disp_drv, uint8_t * buf, lv_coord_t buf_w, lv_coord_t 
1168:lvgl/src/lv_widgets/lv_canvas.c ****                              lv_color_t color, lv_opa_t opa)
1169:lvgl/src/lv_widgets/lv_canvas.c **** {
1170:lvgl/src/lv_widgets/lv_canvas.c ****     (void) disp_drv; /*Unused*/
1171:lvgl/src/lv_widgets/lv_canvas.c **** 
1172:lvgl/src/lv_widgets/lv_canvas.c ****     if(opa <= LV_OPA_MIN) return;
1173:lvgl/src/lv_widgets/lv_canvas.c ****     lv_img_dsc_t d;
1174:lvgl/src/lv_widgets/lv_canvas.c ****     d.data = buf;
1175:lvgl/src/lv_widgets/lv_canvas.c ****     d.header.w = buf_w;
1176:lvgl/src/lv_widgets/lv_canvas.c ****     d.header.cf = LV_IMG_CF_ALPHA_4BIT;
1177:lvgl/src/lv_widgets/lv_canvas.c **** 
1178:lvgl/src/lv_widgets/lv_canvas.c ****     set_px_alpha_generic(&d, x, y, color, opa);
1179:lvgl/src/lv_widgets/lv_canvas.c **** }
1180:lvgl/src/lv_widgets/lv_canvas.c **** 
1181:lvgl/src/lv_widgets/lv_canvas.c **** static void set_px_cb_alpha8(lv_disp_drv_t * disp_drv, uint8_t * buf, lv_coord_t buf_w, lv_coord_t 
1182:lvgl/src/lv_widgets/lv_canvas.c ****                              lv_color_t color, lv_opa_t opa)
1183:lvgl/src/lv_widgets/lv_canvas.c **** {
ARM GAS  D:\Temp\cc0vPyDE.s 			page 25


1184:lvgl/src/lv_widgets/lv_canvas.c ****     (void) disp_drv; /*Unused*/
1185:lvgl/src/lv_widgets/lv_canvas.c **** 
1186:lvgl/src/lv_widgets/lv_canvas.c ****     if(opa <= LV_OPA_MIN) return;
1187:lvgl/src/lv_widgets/lv_canvas.c ****     lv_img_dsc_t d;
1188:lvgl/src/lv_widgets/lv_canvas.c ****     d.data = buf;
1189:lvgl/src/lv_widgets/lv_canvas.c ****     d.header.w = buf_w;
1190:lvgl/src/lv_widgets/lv_canvas.c ****     d.header.cf = LV_IMG_CF_ALPHA_8BIT;
1191:lvgl/src/lv_widgets/lv_canvas.c **** 
1192:lvgl/src/lv_widgets/lv_canvas.c ****     set_px_alpha_generic(&d, x, y, color, opa);
1193:lvgl/src/lv_widgets/lv_canvas.c **** }
1194:lvgl/src/lv_widgets/lv_canvas.c **** 
1195:lvgl/src/lv_widgets/lv_canvas.c **** static void set_px_alpha_generic(lv_img_dsc_t * d, lv_coord_t x, lv_coord_t y, lv_color_t color, lv
1196:lvgl/src/lv_widgets/lv_canvas.c **** {
 178              		.loc 1 1196 1 is_stmt 1 view -0
 179              		.cfi_startproc
 180              		@ args = 4, pretend = 0, frame = 0
 181              		@ frame_needed = 0, uses_anonymous_args = 0
 182              		.loc 1 1196 1 is_stmt 0 view .LVU35
 183 0000 2DE9F041 		push	{r4, r5, r6, r7, r8, lr}
 184              	.LCFI1:
 185              		.cfi_def_cfa_offset 24
 186              		.cfi_offset 4, -24
 187              		.cfi_offset 5, -20
 188              		.cfi_offset 6, -16
 189              		.cfi_offset 7, -12
 190              		.cfi_offset 8, -8
 191              		.cfi_offset 14, -4
 192 0004 0446     		mov	r4, r0
 193 0006 0E46     		mov	r6, r1
 194 0008 1746     		mov	r7, r2
 195 000a 9DF81850 		ldrb	r5, [sp, #24]	@ zero_extendqisi2
1197:lvgl/src/lv_widgets/lv_canvas.c ****     d->header.always_zero = 0;
 196              		.loc 1 1197 5 is_stmt 1 view .LVU36
 197              		.loc 1 1197 27 is_stmt 0 view .LVU37
 198 000e 0278     		ldrb	r2, [r0]	@ zero_extendqisi2
 199              	.LVL9:
 200              		.loc 1 1197 27 view .LVU38
 201 0010 6FF34712 		bfc	r2, #5, #3
 202 0014 0270     		strb	r2, [r0]
1198:lvgl/src/lv_widgets/lv_canvas.c ****     d->header.h = LV_VER_RES_MAX;
 203              		.loc 1 1198 5 is_stmt 1 view .LVU39
 204              		.loc 1 1198 17 is_stmt 0 view .LVU40
 205 0016 4288     		ldrh	r2, [r0, #2]
 206 0018 F021     		movs	r1, #240
 207              	.LVL10:
 208              		.loc 1 1198 17 view .LVU41
 209 001a 61F34F12 		bfi	r2, r1, #5, #11
 210 001e 4280     		strh	r2, [r0, #2]	@ movhi
1199:lvgl/src/lv_widgets/lv_canvas.c **** 
1200:lvgl/src/lv_widgets/lv_canvas.c ****     uint8_t br = lv_color_brightness(color);
 211              		.loc 1 1200 5 is_stmt 1 view .LVU42
 212              	.LBB61:
 213              	.LBI61:
 214              		.file 2 "lvgl/src/lv_widgets/../lv_core/../lv_misc/lv_color.h"
   1:lvgl/src/lv_widgets/../lv_core/../lv_misc/lv_color.h **** /**
   2:lvgl/src/lv_widgets/../lv_core/../lv_misc/lv_color.h ****  * @file lv_color.h
   3:lvgl/src/lv_widgets/../lv_core/../lv_misc/lv_color.h ****  *
ARM GAS  D:\Temp\cc0vPyDE.s 			page 26


   4:lvgl/src/lv_widgets/../lv_core/../lv_misc/lv_color.h ****  */
   5:lvgl/src/lv_widgets/../lv_core/../lv_misc/lv_color.h **** 
   6:lvgl/src/lv_widgets/../lv_core/../lv_misc/lv_color.h **** #ifndef LV_COLOR_H
   7:lvgl/src/lv_widgets/../lv_core/../lv_misc/lv_color.h **** #define LV_COLOR_H
   8:lvgl/src/lv_widgets/../lv_core/../lv_misc/lv_color.h **** 
   9:lvgl/src/lv_widgets/../lv_core/../lv_misc/lv_color.h **** #ifdef __cplusplus
  10:lvgl/src/lv_widgets/../lv_core/../lv_misc/lv_color.h **** extern "C" {
  11:lvgl/src/lv_widgets/../lv_core/../lv_misc/lv_color.h **** #endif
  12:lvgl/src/lv_widgets/../lv_core/../lv_misc/lv_color.h **** 
  13:lvgl/src/lv_widgets/../lv_core/../lv_misc/lv_color.h **** /*********************
  14:lvgl/src/lv_widgets/../lv_core/../lv_misc/lv_color.h ****  *      INCLUDES
  15:lvgl/src/lv_widgets/../lv_core/../lv_misc/lv_color.h ****  *********************/
  16:lvgl/src/lv_widgets/../lv_core/../lv_misc/lv_color.h **** #include "../lv_conf_internal.h"
  17:lvgl/src/lv_widgets/../lv_core/../lv_misc/lv_color.h **** #include "lv_math.h"
  18:lvgl/src/lv_widgets/../lv_core/../lv_misc/lv_color.h **** 
  19:lvgl/src/lv_widgets/../lv_core/../lv_misc/lv_color.h **** /*Error checking*/
  20:lvgl/src/lv_widgets/../lv_core/../lv_misc/lv_color.h **** #if LV_COLOR_DEPTH == 24
  21:lvgl/src/lv_widgets/../lv_core/../lv_misc/lv_color.h **** #error "LV_COLOR_DEPTH 24 is deprecated. Use LV_COLOR_DEPTH 32 instead (lv_conf.h)"
  22:lvgl/src/lv_widgets/../lv_core/../lv_misc/lv_color.h **** #endif
  23:lvgl/src/lv_widgets/../lv_core/../lv_misc/lv_color.h **** 
  24:lvgl/src/lv_widgets/../lv_core/../lv_misc/lv_color.h **** #if LV_COLOR_DEPTH != 32 && LV_COLOR_SCREEN_TRANSP != 0
  25:lvgl/src/lv_widgets/../lv_core/../lv_misc/lv_color.h **** #error "LV_COLOR_SCREEN_TRANSP requires LV_COLOR_DEPTH == 32. Set it in lv_conf.h"
  26:lvgl/src/lv_widgets/../lv_core/../lv_misc/lv_color.h **** #endif
  27:lvgl/src/lv_widgets/../lv_core/../lv_misc/lv_color.h **** 
  28:lvgl/src/lv_widgets/../lv_core/../lv_misc/lv_color.h **** #if LV_COLOR_DEPTH != 16 && LV_COLOR_16_SWAP != 0
  29:lvgl/src/lv_widgets/../lv_core/../lv_misc/lv_color.h **** #error "LV_COLOR_16_SWAP requires LV_COLOR_DEPTH == 16. Set it in lv_conf.h"
  30:lvgl/src/lv_widgets/../lv_core/../lv_misc/lv_color.h **** #endif
  31:lvgl/src/lv_widgets/../lv_core/../lv_misc/lv_color.h **** 
  32:lvgl/src/lv_widgets/../lv_core/../lv_misc/lv_color.h **** #include <stdint.h>
  33:lvgl/src/lv_widgets/../lv_core/../lv_misc/lv_color.h **** 
  34:lvgl/src/lv_widgets/../lv_core/../lv_misc/lv_color.h **** /*********************
  35:lvgl/src/lv_widgets/../lv_core/../lv_misc/lv_color.h ****  *      DEFINES
  36:lvgl/src/lv_widgets/../lv_core/../lv_misc/lv_color.h ****  *********************/
  37:lvgl/src/lv_widgets/../lv_core/../lv_misc/lv_color.h **** #define LV_COLOR_WHITE   LV_COLOR_MAKE(0xFF, 0xFF, 0xFF)
  38:lvgl/src/lv_widgets/../lv_core/../lv_misc/lv_color.h **** #define LV_COLOR_SILVER  LV_COLOR_MAKE(0xC0, 0xC0, 0xC0)
  39:lvgl/src/lv_widgets/../lv_core/../lv_misc/lv_color.h **** #define LV_COLOR_GRAY    LV_COLOR_MAKE(0x80, 0x80, 0x80)
  40:lvgl/src/lv_widgets/../lv_core/../lv_misc/lv_color.h **** #define LV_COLOR_BLACK   LV_COLOR_MAKE(0x00, 0x00, 0x00)
  41:lvgl/src/lv_widgets/../lv_core/../lv_misc/lv_color.h **** #define LV_COLOR_RED     LV_COLOR_MAKE(0xFF, 0x00, 0x00)
  42:lvgl/src/lv_widgets/../lv_core/../lv_misc/lv_color.h **** #define LV_COLOR_MAROON  LV_COLOR_MAKE(0x80, 0x00, 0x00)
  43:lvgl/src/lv_widgets/../lv_core/../lv_misc/lv_color.h **** #define LV_COLOR_YELLOW  LV_COLOR_MAKE(0xFF, 0xFF, 0x00)
  44:lvgl/src/lv_widgets/../lv_core/../lv_misc/lv_color.h **** #define LV_COLOR_OLIVE   LV_COLOR_MAKE(0x80, 0x80, 0x00)
  45:lvgl/src/lv_widgets/../lv_core/../lv_misc/lv_color.h **** #define LV_COLOR_LIME    LV_COLOR_MAKE(0x00, 0xFF, 0x00)
  46:lvgl/src/lv_widgets/../lv_core/../lv_misc/lv_color.h **** #define LV_COLOR_GREEN   LV_COLOR_MAKE(0x00, 0x80, 0x00)
  47:lvgl/src/lv_widgets/../lv_core/../lv_misc/lv_color.h **** #define LV_COLOR_CYAN    LV_COLOR_MAKE(0x00, 0xFF, 0xFF)
  48:lvgl/src/lv_widgets/../lv_core/../lv_misc/lv_color.h **** #define LV_COLOR_AQUA    LV_COLOR_CYAN
  49:lvgl/src/lv_widgets/../lv_core/../lv_misc/lv_color.h **** #define LV_COLOR_TEAL    LV_COLOR_MAKE(0x00, 0x80, 0x80)
  50:lvgl/src/lv_widgets/../lv_core/../lv_misc/lv_color.h **** #define LV_COLOR_BLUE    LV_COLOR_MAKE(0x00, 0x00, 0xFF)
  51:lvgl/src/lv_widgets/../lv_core/../lv_misc/lv_color.h **** #define LV_COLOR_NAVY    LV_COLOR_MAKE(0x00, 0x00, 0x80)
  52:lvgl/src/lv_widgets/../lv_core/../lv_misc/lv_color.h **** #define LV_COLOR_MAGENTA LV_COLOR_MAKE(0xFF, 0x00, 0xFF)
  53:lvgl/src/lv_widgets/../lv_core/../lv_misc/lv_color.h **** #define LV_COLOR_PURPLE  LV_COLOR_MAKE(0x80, 0x00, 0x80)
  54:lvgl/src/lv_widgets/../lv_core/../lv_misc/lv_color.h **** #define LV_COLOR_ORANGE  LV_COLOR_MAKE(0xFF, 0xA5, 0x00)
  55:lvgl/src/lv_widgets/../lv_core/../lv_misc/lv_color.h **** 
  56:lvgl/src/lv_widgets/../lv_core/../lv_misc/lv_color.h **** /**
  57:lvgl/src/lv_widgets/../lv_core/../lv_misc/lv_color.h ****  * Opacity percentages.
  58:lvgl/src/lv_widgets/../lv_core/../lv_misc/lv_color.h ****  */
  59:lvgl/src/lv_widgets/../lv_core/../lv_misc/lv_color.h **** enum {
  60:lvgl/src/lv_widgets/../lv_core/../lv_misc/lv_color.h ****     LV_OPA_TRANSP = 0,
ARM GAS  D:\Temp\cc0vPyDE.s 			page 27


  61:lvgl/src/lv_widgets/../lv_core/../lv_misc/lv_color.h ****     LV_OPA_0      = 0,
  62:lvgl/src/lv_widgets/../lv_core/../lv_misc/lv_color.h ****     LV_OPA_10     = 25,
  63:lvgl/src/lv_widgets/../lv_core/../lv_misc/lv_color.h ****     LV_OPA_20     = 51,
  64:lvgl/src/lv_widgets/../lv_core/../lv_misc/lv_color.h ****     LV_OPA_30     = 76,
  65:lvgl/src/lv_widgets/../lv_core/../lv_misc/lv_color.h ****     LV_OPA_40     = 102,
  66:lvgl/src/lv_widgets/../lv_core/../lv_misc/lv_color.h ****     LV_OPA_50     = 127,
  67:lvgl/src/lv_widgets/../lv_core/../lv_misc/lv_color.h ****     LV_OPA_60     = 153,
  68:lvgl/src/lv_widgets/../lv_core/../lv_misc/lv_color.h ****     LV_OPA_70     = 178,
  69:lvgl/src/lv_widgets/../lv_core/../lv_misc/lv_color.h ****     LV_OPA_80     = 204,
  70:lvgl/src/lv_widgets/../lv_core/../lv_misc/lv_color.h ****     LV_OPA_90     = 229,
  71:lvgl/src/lv_widgets/../lv_core/../lv_misc/lv_color.h ****     LV_OPA_100    = 255,
  72:lvgl/src/lv_widgets/../lv_core/../lv_misc/lv_color.h ****     LV_OPA_COVER  = 255,
  73:lvgl/src/lv_widgets/../lv_core/../lv_misc/lv_color.h **** };
  74:lvgl/src/lv_widgets/../lv_core/../lv_misc/lv_color.h **** 
  75:lvgl/src/lv_widgets/../lv_core/../lv_misc/lv_color.h **** #define LV_OPA_MIN 2    /*Opacities below this will be transparent*/
  76:lvgl/src/lv_widgets/../lv_core/../lv_misc/lv_color.h **** #define LV_OPA_MAX 253  /*Opacities above this will fully cover*/
  77:lvgl/src/lv_widgets/../lv_core/../lv_misc/lv_color.h **** 
  78:lvgl/src/lv_widgets/../lv_core/../lv_misc/lv_color.h **** #if LV_COLOR_DEPTH == 1
  79:lvgl/src/lv_widgets/../lv_core/../lv_misc/lv_color.h **** #define LV_COLOR_SIZE 8
  80:lvgl/src/lv_widgets/../lv_core/../lv_misc/lv_color.h **** #elif LV_COLOR_DEPTH == 8
  81:lvgl/src/lv_widgets/../lv_core/../lv_misc/lv_color.h **** #define LV_COLOR_SIZE 8
  82:lvgl/src/lv_widgets/../lv_core/../lv_misc/lv_color.h **** #elif LV_COLOR_DEPTH == 16
  83:lvgl/src/lv_widgets/../lv_core/../lv_misc/lv_color.h **** #define LV_COLOR_SIZE 16
  84:lvgl/src/lv_widgets/../lv_core/../lv_misc/lv_color.h **** #elif LV_COLOR_DEPTH == 32
  85:lvgl/src/lv_widgets/../lv_core/../lv_misc/lv_color.h **** #define LV_COLOR_SIZE 32
  86:lvgl/src/lv_widgets/../lv_core/../lv_misc/lv_color.h **** #else
  87:lvgl/src/lv_widgets/../lv_core/../lv_misc/lv_color.h **** #error "Invalid LV_COLOR_DEPTH in lv_conf.h! Set it to 1, 8, 16 or 32!"
  88:lvgl/src/lv_widgets/../lv_core/../lv_misc/lv_color.h **** #endif
  89:lvgl/src/lv_widgets/../lv_core/../lv_misc/lv_color.h **** 
  90:lvgl/src/lv_widgets/../lv_core/../lv_misc/lv_color.h **** /* Adjust color mix functions rounding.
  91:lvgl/src/lv_widgets/../lv_core/../lv_misc/lv_color.h ****  * GPUs might calculate color mix (blending) differently.
  92:lvgl/src/lv_widgets/../lv_core/../lv_misc/lv_color.h ****  * Should be in range of 0..254
  93:lvgl/src/lv_widgets/../lv_core/../lv_misc/lv_color.h ****  * 0: no adjustment, get the integer part of the result (round down)
  94:lvgl/src/lv_widgets/../lv_core/../lv_misc/lv_color.h ****  * 64: round up from x.75
  95:lvgl/src/lv_widgets/../lv_core/../lv_misc/lv_color.h ****  * 128: round up from half
  96:lvgl/src/lv_widgets/../lv_core/../lv_misc/lv_color.h ****  * 192: round up from x.25
  97:lvgl/src/lv_widgets/../lv_core/../lv_misc/lv_color.h ****  * 254: round up */
  98:lvgl/src/lv_widgets/../lv_core/../lv_misc/lv_color.h **** #ifndef LV_COLOR_MIX_ROUND_OFS
  99:lvgl/src/lv_widgets/../lv_core/../lv_misc/lv_color.h **** #if LV_COLOR_DEPTH == 32
 100:lvgl/src/lv_widgets/../lv_core/../lv_misc/lv_color.h **** #define LV_COLOR_MIX_ROUND_OFS 0
 101:lvgl/src/lv_widgets/../lv_core/../lv_misc/lv_color.h **** #else
 102:lvgl/src/lv_widgets/../lv_core/../lv_misc/lv_color.h **** #define LV_COLOR_MIX_ROUND_OFS 128
 103:lvgl/src/lv_widgets/../lv_core/../lv_misc/lv_color.h **** #endif
 104:lvgl/src/lv_widgets/../lv_core/../lv_misc/lv_color.h **** #endif
 105:lvgl/src/lv_widgets/../lv_core/../lv_misc/lv_color.h **** 
 106:lvgl/src/lv_widgets/../lv_core/../lv_misc/lv_color.h **** /*---------------------------------------
 107:lvgl/src/lv_widgets/../lv_core/../lv_misc/lv_color.h ****  * Macros for all existing color depths
 108:lvgl/src/lv_widgets/../lv_core/../lv_misc/lv_color.h ****  * to set/get values of the color channels
 109:lvgl/src/lv_widgets/../lv_core/../lv_misc/lv_color.h ****  *------------------------------------------*/
 110:lvgl/src/lv_widgets/../lv_core/../lv_misc/lv_color.h **** # define LV_COLOR_SET_R1(c, v) (c).ch.red = (uint8_t)((v) & 0x1)
 111:lvgl/src/lv_widgets/../lv_core/../lv_misc/lv_color.h **** # define LV_COLOR_SET_G1(c, v) (c).ch.green = (uint8_t)((v) & 0x1)
 112:lvgl/src/lv_widgets/../lv_core/../lv_misc/lv_color.h **** # define LV_COLOR_SET_B1(c, v) (c).ch.blue = (uint8_t)((v) & 0x1)
 113:lvgl/src/lv_widgets/../lv_core/../lv_misc/lv_color.h **** # define LV_COLOR_SET_A1(c, v) do {} while(0)
 114:lvgl/src/lv_widgets/../lv_core/../lv_misc/lv_color.h **** 
 115:lvgl/src/lv_widgets/../lv_core/../lv_misc/lv_color.h **** # define LV_COLOR_GET_R1(c) (c).ch.red
 116:lvgl/src/lv_widgets/../lv_core/../lv_misc/lv_color.h **** # define LV_COLOR_GET_G1(c) (c).ch.green
 117:lvgl/src/lv_widgets/../lv_core/../lv_misc/lv_color.h **** # define LV_COLOR_GET_B1(c) (c).ch.blue
ARM GAS  D:\Temp\cc0vPyDE.s 			page 28


 118:lvgl/src/lv_widgets/../lv_core/../lv_misc/lv_color.h **** # define LV_COLOR_GET_A1(c) 0xFF
 119:lvgl/src/lv_widgets/../lv_core/../lv_misc/lv_color.h **** 
 120:lvgl/src/lv_widgets/../lv_core/../lv_misc/lv_color.h **** # define LV_COLOR_SET_R8(c, v) (c).ch.red = (uint8_t)((v) & 0x7U)
 121:lvgl/src/lv_widgets/../lv_core/../lv_misc/lv_color.h **** # define LV_COLOR_SET_G8(c, v) (c).ch.green = (uint8_t)((v) & 0x7U)
 122:lvgl/src/lv_widgets/../lv_core/../lv_misc/lv_color.h **** # define LV_COLOR_SET_B8(c, v) (c).ch.blue = (uint8_t)((v) & 0x3U)
 123:lvgl/src/lv_widgets/../lv_core/../lv_misc/lv_color.h **** # define LV_COLOR_SET_A8(c, v) do {} while(0)
 124:lvgl/src/lv_widgets/../lv_core/../lv_misc/lv_color.h **** 
 125:lvgl/src/lv_widgets/../lv_core/../lv_misc/lv_color.h **** # define LV_COLOR_GET_R8(c) (c).ch.red
 126:lvgl/src/lv_widgets/../lv_core/../lv_misc/lv_color.h **** # define LV_COLOR_GET_G8(c) (c).ch.green
 127:lvgl/src/lv_widgets/../lv_core/../lv_misc/lv_color.h **** # define LV_COLOR_GET_B8(c) (c).ch.blue
 128:lvgl/src/lv_widgets/../lv_core/../lv_misc/lv_color.h **** # define LV_COLOR_GET_A8(c) 0xFF
 129:lvgl/src/lv_widgets/../lv_core/../lv_misc/lv_color.h **** 
 130:lvgl/src/lv_widgets/../lv_core/../lv_misc/lv_color.h **** # define LV_COLOR_SET_R16(c, v) (c).ch.red = (uint8_t)((v) & 0x1FU)
 131:lvgl/src/lv_widgets/../lv_core/../lv_misc/lv_color.h **** #if LV_COLOR_16_SWAP == 0
 132:lvgl/src/lv_widgets/../lv_core/../lv_misc/lv_color.h **** # define LV_COLOR_SET_G16(c, v) (c).ch.green = (uint8_t)((v) & 0x3FU)
 133:lvgl/src/lv_widgets/../lv_core/../lv_misc/lv_color.h **** #else
 134:lvgl/src/lv_widgets/../lv_core/../lv_misc/lv_color.h **** # define LV_COLOR_SET_G16(c, v) {(c).ch.green_h = (uint8_t)(((v) >> 3) & 0x7); (c).ch.green_l = (ui
 135:lvgl/src/lv_widgets/../lv_core/../lv_misc/lv_color.h **** #endif
 136:lvgl/src/lv_widgets/../lv_core/../lv_misc/lv_color.h **** # define LV_COLOR_SET_B16(c, v) (c).ch.blue = (uint8_t)((v) & 0x1FU)
 137:lvgl/src/lv_widgets/../lv_core/../lv_misc/lv_color.h **** # define LV_COLOR_SET_A16(c, v) do {} while(0)
 138:lvgl/src/lv_widgets/../lv_core/../lv_misc/lv_color.h **** 
 139:lvgl/src/lv_widgets/../lv_core/../lv_misc/lv_color.h **** # define LV_COLOR_GET_R16(c) (c).ch.red
 140:lvgl/src/lv_widgets/../lv_core/../lv_misc/lv_color.h **** #if LV_COLOR_16_SWAP == 0
 141:lvgl/src/lv_widgets/../lv_core/../lv_misc/lv_color.h **** # define LV_COLOR_GET_G16(c) (c).ch.green
 142:lvgl/src/lv_widgets/../lv_core/../lv_misc/lv_color.h **** #else
 143:lvgl/src/lv_widgets/../lv_core/../lv_misc/lv_color.h **** # define LV_COLOR_GET_G16(c) (((c).ch.green_h << 3) + (c).ch.green_l)
 144:lvgl/src/lv_widgets/../lv_core/../lv_misc/lv_color.h **** #endif
 145:lvgl/src/lv_widgets/../lv_core/../lv_misc/lv_color.h **** # define LV_COLOR_GET_B16(c) (c).ch.blue
 146:lvgl/src/lv_widgets/../lv_core/../lv_misc/lv_color.h **** # define LV_COLOR_GET_A16(c) 0xFF
 147:lvgl/src/lv_widgets/../lv_core/../lv_misc/lv_color.h **** 
 148:lvgl/src/lv_widgets/../lv_core/../lv_misc/lv_color.h **** # define LV_COLOR_SET_R32(c, v) (c).ch.red = (uint8_t)((v) & 0xFF)
 149:lvgl/src/lv_widgets/../lv_core/../lv_misc/lv_color.h **** # define LV_COLOR_SET_G32(c, v) (c).ch.green = (uint8_t)((v) & 0xFF)
 150:lvgl/src/lv_widgets/../lv_core/../lv_misc/lv_color.h **** # define LV_COLOR_SET_B32(c, v) (c).ch.blue = (uint8_t)((v) & 0xFF)
 151:lvgl/src/lv_widgets/../lv_core/../lv_misc/lv_color.h **** # define LV_COLOR_SET_A32(c, v) (c).ch.alpha = (uint8_t)((v) & 0xFF)
 152:lvgl/src/lv_widgets/../lv_core/../lv_misc/lv_color.h **** 
 153:lvgl/src/lv_widgets/../lv_core/../lv_misc/lv_color.h **** # define LV_COLOR_GET_R32(c) (c).ch.red
 154:lvgl/src/lv_widgets/../lv_core/../lv_misc/lv_color.h **** # define LV_COLOR_GET_G32(c) (c).ch.green
 155:lvgl/src/lv_widgets/../lv_core/../lv_misc/lv_color.h **** # define LV_COLOR_GET_B32(c) (c).ch.blue
 156:lvgl/src/lv_widgets/../lv_core/../lv_misc/lv_color.h **** # define LV_COLOR_GET_A32(c) (c).ch.alpha
 157:lvgl/src/lv_widgets/../lv_core/../lv_misc/lv_color.h **** 
 158:lvgl/src/lv_widgets/../lv_core/../lv_misc/lv_color.h **** /*---------------------------------------
 159:lvgl/src/lv_widgets/../lv_core/../lv_misc/lv_color.h ****  * Macros for the current color depth
 160:lvgl/src/lv_widgets/../lv_core/../lv_misc/lv_color.h ****  * to set/get values of the color channels
 161:lvgl/src/lv_widgets/../lv_core/../lv_misc/lv_color.h ****  *------------------------------------------*/
 162:lvgl/src/lv_widgets/../lv_core/../lv_misc/lv_color.h **** #if LV_COLOR_DEPTH == 1
 163:lvgl/src/lv_widgets/../lv_core/../lv_misc/lv_color.h **** # define LV_COLOR_SET_R(c, v) LV_COLOR_SET_R1(c,v)
 164:lvgl/src/lv_widgets/../lv_core/../lv_misc/lv_color.h **** # define LV_COLOR_SET_G(c, v) LV_COLOR_SET_G1(c,v)
 165:lvgl/src/lv_widgets/../lv_core/../lv_misc/lv_color.h **** # define LV_COLOR_SET_B(c, v) LV_COLOR_SET_B1(c,v)
 166:lvgl/src/lv_widgets/../lv_core/../lv_misc/lv_color.h **** # define LV_COLOR_SET_A(c, v) LV_COLOR_SET_A1(c,v)
 167:lvgl/src/lv_widgets/../lv_core/../lv_misc/lv_color.h **** 
 168:lvgl/src/lv_widgets/../lv_core/../lv_misc/lv_color.h **** # define LV_COLOR_GET_R(c) LV_COLOR_GET_R1(c)
 169:lvgl/src/lv_widgets/../lv_core/../lv_misc/lv_color.h **** # define LV_COLOR_GET_G(c) LV_COLOR_GET_G1(c)
 170:lvgl/src/lv_widgets/../lv_core/../lv_misc/lv_color.h **** # define LV_COLOR_GET_B(c) LV_COLOR_GET_B1(c)
 171:lvgl/src/lv_widgets/../lv_core/../lv_misc/lv_color.h **** # define LV_COLOR_GET_A(c) LV_COLOR_GET_A1(c)
 172:lvgl/src/lv_widgets/../lv_core/../lv_misc/lv_color.h **** 
 173:lvgl/src/lv_widgets/../lv_core/../lv_misc/lv_color.h **** #elif LV_COLOR_DEPTH == 8
 174:lvgl/src/lv_widgets/../lv_core/../lv_misc/lv_color.h **** # define LV_COLOR_SET_R(c, v) LV_COLOR_SET_R8(c,v)
ARM GAS  D:\Temp\cc0vPyDE.s 			page 29


 175:lvgl/src/lv_widgets/../lv_core/../lv_misc/lv_color.h **** # define LV_COLOR_SET_G(c, v) LV_COLOR_SET_G8(c,v)
 176:lvgl/src/lv_widgets/../lv_core/../lv_misc/lv_color.h **** # define LV_COLOR_SET_B(c, v) LV_COLOR_SET_B8(c,v)
 177:lvgl/src/lv_widgets/../lv_core/../lv_misc/lv_color.h **** # define LV_COLOR_SET_A(c, v) LV_COLOR_SET_A8(c,v)
 178:lvgl/src/lv_widgets/../lv_core/../lv_misc/lv_color.h **** 
 179:lvgl/src/lv_widgets/../lv_core/../lv_misc/lv_color.h **** # define LV_COLOR_GET_R(c) LV_COLOR_GET_R8(c)
 180:lvgl/src/lv_widgets/../lv_core/../lv_misc/lv_color.h **** # define LV_COLOR_GET_G(c) LV_COLOR_GET_G8(c)
 181:lvgl/src/lv_widgets/../lv_core/../lv_misc/lv_color.h **** # define LV_COLOR_GET_B(c) LV_COLOR_GET_B8(c)
 182:lvgl/src/lv_widgets/../lv_core/../lv_misc/lv_color.h **** # define LV_COLOR_GET_A(c) LV_COLOR_GET_A8(c)
 183:lvgl/src/lv_widgets/../lv_core/../lv_misc/lv_color.h **** 
 184:lvgl/src/lv_widgets/../lv_core/../lv_misc/lv_color.h **** #elif LV_COLOR_DEPTH == 16
 185:lvgl/src/lv_widgets/../lv_core/../lv_misc/lv_color.h **** # define LV_COLOR_SET_R(c, v) LV_COLOR_SET_R16(c,v)
 186:lvgl/src/lv_widgets/../lv_core/../lv_misc/lv_color.h **** # define LV_COLOR_SET_G(c, v) LV_COLOR_SET_G16(c,v)
 187:lvgl/src/lv_widgets/../lv_core/../lv_misc/lv_color.h **** # define LV_COLOR_SET_B(c, v) LV_COLOR_SET_B16(c,v)
 188:lvgl/src/lv_widgets/../lv_core/../lv_misc/lv_color.h **** # define LV_COLOR_SET_A(c, v) LV_COLOR_SET_A16(c,v)
 189:lvgl/src/lv_widgets/../lv_core/../lv_misc/lv_color.h **** 
 190:lvgl/src/lv_widgets/../lv_core/../lv_misc/lv_color.h **** # define LV_COLOR_GET_R(c) LV_COLOR_GET_R16(c)
 191:lvgl/src/lv_widgets/../lv_core/../lv_misc/lv_color.h **** # define LV_COLOR_GET_G(c) LV_COLOR_GET_G16(c)
 192:lvgl/src/lv_widgets/../lv_core/../lv_misc/lv_color.h **** # define LV_COLOR_GET_B(c) LV_COLOR_GET_B16(c)
 193:lvgl/src/lv_widgets/../lv_core/../lv_misc/lv_color.h **** # define LV_COLOR_GET_A(c) LV_COLOR_GET_A16(c)
 194:lvgl/src/lv_widgets/../lv_core/../lv_misc/lv_color.h **** 
 195:lvgl/src/lv_widgets/../lv_core/../lv_misc/lv_color.h **** #elif LV_COLOR_DEPTH == 32
 196:lvgl/src/lv_widgets/../lv_core/../lv_misc/lv_color.h **** # define LV_COLOR_SET_R(c, v) LV_COLOR_SET_R32(c,v)
 197:lvgl/src/lv_widgets/../lv_core/../lv_misc/lv_color.h **** # define LV_COLOR_SET_G(c, v) LV_COLOR_SET_G32(c,v)
 198:lvgl/src/lv_widgets/../lv_core/../lv_misc/lv_color.h **** # define LV_COLOR_SET_B(c, v) LV_COLOR_SET_B32(c,v)
 199:lvgl/src/lv_widgets/../lv_core/../lv_misc/lv_color.h **** # define LV_COLOR_SET_A(c, v) LV_COLOR_SET_A32(c,v)
 200:lvgl/src/lv_widgets/../lv_core/../lv_misc/lv_color.h **** 
 201:lvgl/src/lv_widgets/../lv_core/../lv_misc/lv_color.h **** # define LV_COLOR_GET_R(c) LV_COLOR_GET_R32(c)
 202:lvgl/src/lv_widgets/../lv_core/../lv_misc/lv_color.h **** # define LV_COLOR_GET_G(c) LV_COLOR_GET_G32(c)
 203:lvgl/src/lv_widgets/../lv_core/../lv_misc/lv_color.h **** # define LV_COLOR_GET_B(c) LV_COLOR_GET_B32(c)
 204:lvgl/src/lv_widgets/../lv_core/../lv_misc/lv_color.h **** # define LV_COLOR_GET_A(c) LV_COLOR_GET_A32(c)
 205:lvgl/src/lv_widgets/../lv_core/../lv_misc/lv_color.h **** #endif
 206:lvgl/src/lv_widgets/../lv_core/../lv_misc/lv_color.h **** 
 207:lvgl/src/lv_widgets/../lv_core/../lv_misc/lv_color.h **** /**********************
 208:lvgl/src/lv_widgets/../lv_core/../lv_misc/lv_color.h ****  *      TYPEDEFS
 209:lvgl/src/lv_widgets/../lv_core/../lv_misc/lv_color.h ****  **********************/
 210:lvgl/src/lv_widgets/../lv_core/../lv_misc/lv_color.h **** 
 211:lvgl/src/lv_widgets/../lv_core/../lv_misc/lv_color.h **** typedef union {
 212:lvgl/src/lv_widgets/../lv_core/../lv_misc/lv_color.h ****     uint8_t full; /*must be declared first to set all bits of byte via initializer list */
 213:lvgl/src/lv_widgets/../lv_core/../lv_misc/lv_color.h ****     union {
 214:lvgl/src/lv_widgets/../lv_core/../lv_misc/lv_color.h ****         uint8_t blue : 1;
 215:lvgl/src/lv_widgets/../lv_core/../lv_misc/lv_color.h ****         uint8_t green : 1;
 216:lvgl/src/lv_widgets/../lv_core/../lv_misc/lv_color.h ****         uint8_t red : 1;
 217:lvgl/src/lv_widgets/../lv_core/../lv_misc/lv_color.h ****     } ch;
 218:lvgl/src/lv_widgets/../lv_core/../lv_misc/lv_color.h **** } lv_color1_t;
 219:lvgl/src/lv_widgets/../lv_core/../lv_misc/lv_color.h **** 
 220:lvgl/src/lv_widgets/../lv_core/../lv_misc/lv_color.h **** typedef union {
 221:lvgl/src/lv_widgets/../lv_core/../lv_misc/lv_color.h ****     struct {
 222:lvgl/src/lv_widgets/../lv_core/../lv_misc/lv_color.h ****         uint8_t blue : 2;
 223:lvgl/src/lv_widgets/../lv_core/../lv_misc/lv_color.h ****         uint8_t green : 3;
 224:lvgl/src/lv_widgets/../lv_core/../lv_misc/lv_color.h ****         uint8_t red : 3;
 225:lvgl/src/lv_widgets/../lv_core/../lv_misc/lv_color.h ****     } ch;
 226:lvgl/src/lv_widgets/../lv_core/../lv_misc/lv_color.h ****     uint8_t full;
 227:lvgl/src/lv_widgets/../lv_core/../lv_misc/lv_color.h **** } lv_color8_t;
 228:lvgl/src/lv_widgets/../lv_core/../lv_misc/lv_color.h **** 
 229:lvgl/src/lv_widgets/../lv_core/../lv_misc/lv_color.h **** typedef union {
 230:lvgl/src/lv_widgets/../lv_core/../lv_misc/lv_color.h ****     struct {
 231:lvgl/src/lv_widgets/../lv_core/../lv_misc/lv_color.h **** #if LV_COLOR_16_SWAP == 0
ARM GAS  D:\Temp\cc0vPyDE.s 			page 30


 232:lvgl/src/lv_widgets/../lv_core/../lv_misc/lv_color.h ****         uint16_t blue : 5;
 233:lvgl/src/lv_widgets/../lv_core/../lv_misc/lv_color.h ****         uint16_t green : 6;
 234:lvgl/src/lv_widgets/../lv_core/../lv_misc/lv_color.h ****         uint16_t red : 5;
 235:lvgl/src/lv_widgets/../lv_core/../lv_misc/lv_color.h **** #else
 236:lvgl/src/lv_widgets/../lv_core/../lv_misc/lv_color.h ****         uint16_t green_h : 3;
 237:lvgl/src/lv_widgets/../lv_core/../lv_misc/lv_color.h ****         uint16_t red : 5;
 238:lvgl/src/lv_widgets/../lv_core/../lv_misc/lv_color.h ****         uint16_t blue : 5;
 239:lvgl/src/lv_widgets/../lv_core/../lv_misc/lv_color.h ****         uint16_t green_l : 3;
 240:lvgl/src/lv_widgets/../lv_core/../lv_misc/lv_color.h **** #endif
 241:lvgl/src/lv_widgets/../lv_core/../lv_misc/lv_color.h ****     } ch;
 242:lvgl/src/lv_widgets/../lv_core/../lv_misc/lv_color.h ****     uint16_t full;
 243:lvgl/src/lv_widgets/../lv_core/../lv_misc/lv_color.h **** } lv_color16_t;
 244:lvgl/src/lv_widgets/../lv_core/../lv_misc/lv_color.h **** 
 245:lvgl/src/lv_widgets/../lv_core/../lv_misc/lv_color.h **** typedef union {
 246:lvgl/src/lv_widgets/../lv_core/../lv_misc/lv_color.h ****     struct {
 247:lvgl/src/lv_widgets/../lv_core/../lv_misc/lv_color.h ****         uint8_t blue;
 248:lvgl/src/lv_widgets/../lv_core/../lv_misc/lv_color.h ****         uint8_t green;
 249:lvgl/src/lv_widgets/../lv_core/../lv_misc/lv_color.h ****         uint8_t red;
 250:lvgl/src/lv_widgets/../lv_core/../lv_misc/lv_color.h ****         uint8_t alpha;
 251:lvgl/src/lv_widgets/../lv_core/../lv_misc/lv_color.h ****     } ch;
 252:lvgl/src/lv_widgets/../lv_core/../lv_misc/lv_color.h ****     uint32_t full;
 253:lvgl/src/lv_widgets/../lv_core/../lv_misc/lv_color.h **** } lv_color32_t;
 254:lvgl/src/lv_widgets/../lv_core/../lv_misc/lv_color.h **** 
 255:lvgl/src/lv_widgets/../lv_core/../lv_misc/lv_color.h **** #if LV_COLOR_DEPTH == 1
 256:lvgl/src/lv_widgets/../lv_core/../lv_misc/lv_color.h **** typedef uint8_t lv_color_int_t;
 257:lvgl/src/lv_widgets/../lv_core/../lv_misc/lv_color.h **** typedef lv_color1_t lv_color_t;
 258:lvgl/src/lv_widgets/../lv_core/../lv_misc/lv_color.h **** #define _LV_COLOR_ZERO_INITIALIZER {0x00}
 259:lvgl/src/lv_widgets/../lv_core/../lv_misc/lv_color.h **** #elif LV_COLOR_DEPTH == 8
 260:lvgl/src/lv_widgets/../lv_core/../lv_misc/lv_color.h **** typedef uint8_t lv_color_int_t;
 261:lvgl/src/lv_widgets/../lv_core/../lv_misc/lv_color.h **** typedef lv_color8_t lv_color_t;
 262:lvgl/src/lv_widgets/../lv_core/../lv_misc/lv_color.h **** #define _LV_COLOR_ZERO_INITIALIZER {{0x00, 0x00, 0x00}}
 263:lvgl/src/lv_widgets/../lv_core/../lv_misc/lv_color.h **** #elif LV_COLOR_DEPTH == 16
 264:lvgl/src/lv_widgets/../lv_core/../lv_misc/lv_color.h **** typedef uint16_t lv_color_int_t;
 265:lvgl/src/lv_widgets/../lv_core/../lv_misc/lv_color.h **** typedef lv_color16_t lv_color_t;
 266:lvgl/src/lv_widgets/../lv_core/../lv_misc/lv_color.h **** # if LV_COLOR_16_SWAP == 0
 267:lvgl/src/lv_widgets/../lv_core/../lv_misc/lv_color.h **** #  define _LV_COLOR_ZERO_INITIALIZER {{0x00, 0x00, 0x00}}
 268:lvgl/src/lv_widgets/../lv_core/../lv_misc/lv_color.h **** # else
 269:lvgl/src/lv_widgets/../lv_core/../lv_misc/lv_color.h **** #  define _LV_COLOR_ZERO_INITIALIZER {{0x00, 0x00, 0x00, 0x00}}
 270:lvgl/src/lv_widgets/../lv_core/../lv_misc/lv_color.h **** # endif
 271:lvgl/src/lv_widgets/../lv_core/../lv_misc/lv_color.h **** #elif LV_COLOR_DEPTH == 32
 272:lvgl/src/lv_widgets/../lv_core/../lv_misc/lv_color.h **** typedef uint32_t lv_color_int_t;
 273:lvgl/src/lv_widgets/../lv_core/../lv_misc/lv_color.h **** typedef lv_color32_t lv_color_t;
 274:lvgl/src/lv_widgets/../lv_core/../lv_misc/lv_color.h **** #define _LV_COLOR_ZERO_INITIALIZER {{0x00, 0x00, 0x00, 0x00}}
 275:lvgl/src/lv_widgets/../lv_core/../lv_misc/lv_color.h **** #else
 276:lvgl/src/lv_widgets/../lv_core/../lv_misc/lv_color.h **** #error "Invalid LV_COLOR_DEPTH in lv_conf.h! Set it to 1, 8, 16 or 32!"
 277:lvgl/src/lv_widgets/../lv_core/../lv_misc/lv_color.h **** #endif
 278:lvgl/src/lv_widgets/../lv_core/../lv_misc/lv_color.h **** 
 279:lvgl/src/lv_widgets/../lv_core/../lv_misc/lv_color.h **** typedef struct {
 280:lvgl/src/lv_widgets/../lv_core/../lv_misc/lv_color.h ****     uint16_t h;
 281:lvgl/src/lv_widgets/../lv_core/../lv_misc/lv_color.h ****     uint8_t s;
 282:lvgl/src/lv_widgets/../lv_core/../lv_misc/lv_color.h ****     uint8_t v;
 283:lvgl/src/lv_widgets/../lv_core/../lv_misc/lv_color.h **** } lv_color_hsv_t;
 284:lvgl/src/lv_widgets/../lv_core/../lv_misc/lv_color.h **** 
 285:lvgl/src/lv_widgets/../lv_core/../lv_misc/lv_color.h **** //! @cond Doxygen_Suppress
 286:lvgl/src/lv_widgets/../lv_core/../lv_misc/lv_color.h **** /*No idea where the guard is required but else throws warnings in the docs*/
 287:lvgl/src/lv_widgets/../lv_core/../lv_misc/lv_color.h **** typedef uint8_t lv_opa_t;
 288:lvgl/src/lv_widgets/../lv_core/../lv_misc/lv_color.h **** //! @endcond
ARM GAS  D:\Temp\cc0vPyDE.s 			page 31


 289:lvgl/src/lv_widgets/../lv_core/../lv_misc/lv_color.h **** 
 290:lvgl/src/lv_widgets/../lv_core/../lv_misc/lv_color.h **** /**********************
 291:lvgl/src/lv_widgets/../lv_core/../lv_misc/lv_color.h ****  * GLOBAL PROTOTYPES
 292:lvgl/src/lv_widgets/../lv_core/../lv_misc/lv_color.h ****  **********************/
 293:lvgl/src/lv_widgets/../lv_core/../lv_misc/lv_color.h **** 
 294:lvgl/src/lv_widgets/../lv_core/../lv_misc/lv_color.h **** /*In color conversations:
 295:lvgl/src/lv_widgets/../lv_core/../lv_misc/lv_color.h ****  * - When converting to bigger color type the LSB weight of 1 LSB is calculated
 296:lvgl/src/lv_widgets/../lv_core/../lv_misc/lv_color.h ****  *   E.g. 16 bit Red has 5 bits
 297:lvgl/src/lv_widgets/../lv_core/../lv_misc/lv_color.h ****  *         8 bit Red has 3 bits
 298:lvgl/src/lv_widgets/../lv_core/../lv_misc/lv_color.h ****  *        ----------------------
 299:lvgl/src/lv_widgets/../lv_core/../lv_misc/lv_color.h ****  *        8 bit red LSB = (2^5 - 1) / (2^3 - 1) = 31 / 7 = 4
 300:lvgl/src/lv_widgets/../lv_core/../lv_misc/lv_color.h ****  *
 301:lvgl/src/lv_widgets/../lv_core/../lv_misc/lv_color.h ****  * - When calculating to smaller color type simply shift out the LSBs
 302:lvgl/src/lv_widgets/../lv_core/../lv_misc/lv_color.h ****  *   E.g.  8 bit Red has 3 bits
 303:lvgl/src/lv_widgets/../lv_core/../lv_misc/lv_color.h ****  *        16 bit Red has 5 bits
 304:lvgl/src/lv_widgets/../lv_core/../lv_misc/lv_color.h ****  *        ----------------------
 305:lvgl/src/lv_widgets/../lv_core/../lv_misc/lv_color.h ****  *         Shift right with 5 - 3 = 2
 306:lvgl/src/lv_widgets/../lv_core/../lv_misc/lv_color.h ****  */
 307:lvgl/src/lv_widgets/../lv_core/../lv_misc/lv_color.h **** static inline uint8_t lv_color_to1(lv_color_t color)
 308:lvgl/src/lv_widgets/../lv_core/../lv_misc/lv_color.h **** {
 309:lvgl/src/lv_widgets/../lv_core/../lv_misc/lv_color.h **** #if LV_COLOR_DEPTH == 1
 310:lvgl/src/lv_widgets/../lv_core/../lv_misc/lv_color.h ****     return color.full;
 311:lvgl/src/lv_widgets/../lv_core/../lv_misc/lv_color.h **** #elif LV_COLOR_DEPTH == 8
 312:lvgl/src/lv_widgets/../lv_core/../lv_misc/lv_color.h ****     if((LV_COLOR_GET_R(color) & 0x4) || (LV_COLOR_GET_G(color) & 0x4) || (LV_COLOR_GET_B(color) & 0
 313:lvgl/src/lv_widgets/../lv_core/../lv_misc/lv_color.h ****         return 1;
 314:lvgl/src/lv_widgets/../lv_core/../lv_misc/lv_color.h ****     }
 315:lvgl/src/lv_widgets/../lv_core/../lv_misc/lv_color.h ****     else {
 316:lvgl/src/lv_widgets/../lv_core/../lv_misc/lv_color.h ****         return 0;
 317:lvgl/src/lv_widgets/../lv_core/../lv_misc/lv_color.h ****     }
 318:lvgl/src/lv_widgets/../lv_core/../lv_misc/lv_color.h **** #elif LV_COLOR_DEPTH == 16
 319:lvgl/src/lv_widgets/../lv_core/../lv_misc/lv_color.h ****     if((LV_COLOR_GET_R(color) & 0x10) || (LV_COLOR_GET_G(color) & 0x20) || (LV_COLOR_GET_B(color) &
 320:lvgl/src/lv_widgets/../lv_core/../lv_misc/lv_color.h ****         return 1;
 321:lvgl/src/lv_widgets/../lv_core/../lv_misc/lv_color.h ****     }
 322:lvgl/src/lv_widgets/../lv_core/../lv_misc/lv_color.h ****     else {
 323:lvgl/src/lv_widgets/../lv_core/../lv_misc/lv_color.h ****         return 0;
 324:lvgl/src/lv_widgets/../lv_core/../lv_misc/lv_color.h ****     }
 325:lvgl/src/lv_widgets/../lv_core/../lv_misc/lv_color.h **** #elif LV_COLOR_DEPTH == 32
 326:lvgl/src/lv_widgets/../lv_core/../lv_misc/lv_color.h ****     if((LV_COLOR_GET_R(color) & 0x80) || (LV_COLOR_GET_G(color) & 0x80) || (LV_COLOR_GET_B(color) &
 327:lvgl/src/lv_widgets/../lv_core/../lv_misc/lv_color.h ****         return 1;
 328:lvgl/src/lv_widgets/../lv_core/../lv_misc/lv_color.h ****     }
 329:lvgl/src/lv_widgets/../lv_core/../lv_misc/lv_color.h ****     else {
 330:lvgl/src/lv_widgets/../lv_core/../lv_misc/lv_color.h ****         return 0;
 331:lvgl/src/lv_widgets/../lv_core/../lv_misc/lv_color.h ****     }
 332:lvgl/src/lv_widgets/../lv_core/../lv_misc/lv_color.h **** #endif
 333:lvgl/src/lv_widgets/../lv_core/../lv_misc/lv_color.h **** }
 334:lvgl/src/lv_widgets/../lv_core/../lv_misc/lv_color.h **** 
 335:lvgl/src/lv_widgets/../lv_core/../lv_misc/lv_color.h **** static inline uint8_t lv_color_to8(lv_color_t color)
 336:lvgl/src/lv_widgets/../lv_core/../lv_misc/lv_color.h **** {
 337:lvgl/src/lv_widgets/../lv_core/../lv_misc/lv_color.h **** #if LV_COLOR_DEPTH == 1
 338:lvgl/src/lv_widgets/../lv_core/../lv_misc/lv_color.h ****     if(color.full == 0)
 339:lvgl/src/lv_widgets/../lv_core/../lv_misc/lv_color.h ****         return 0;
 340:lvgl/src/lv_widgets/../lv_core/../lv_misc/lv_color.h ****     else
 341:lvgl/src/lv_widgets/../lv_core/../lv_misc/lv_color.h ****         return 0xFF;
 342:lvgl/src/lv_widgets/../lv_core/../lv_misc/lv_color.h **** #elif LV_COLOR_DEPTH == 8
 343:lvgl/src/lv_widgets/../lv_core/../lv_misc/lv_color.h ****     return color.full;
 344:lvgl/src/lv_widgets/../lv_core/../lv_misc/lv_color.h **** #elif LV_COLOR_DEPTH == 16
 345:lvgl/src/lv_widgets/../lv_core/../lv_misc/lv_color.h ****     lv_color8_t ret;
ARM GAS  D:\Temp\cc0vPyDE.s 			page 32


 346:lvgl/src/lv_widgets/../lv_core/../lv_misc/lv_color.h ****     LV_COLOR_SET_R8(ret, LV_COLOR_GET_R(color) >> 2); /* 5 - 3  = 2*/
 347:lvgl/src/lv_widgets/../lv_core/../lv_misc/lv_color.h ****     LV_COLOR_SET_G8(ret, LV_COLOR_GET_G(color) >> 3); /* 6 - 3  = 3*/
 348:lvgl/src/lv_widgets/../lv_core/../lv_misc/lv_color.h ****     LV_COLOR_SET_B8(ret, LV_COLOR_GET_B(color) >> 3); /* 5 - 2  = 3*/
 349:lvgl/src/lv_widgets/../lv_core/../lv_misc/lv_color.h ****     return ret.full;
 350:lvgl/src/lv_widgets/../lv_core/../lv_misc/lv_color.h **** #elif LV_COLOR_DEPTH == 32
 351:lvgl/src/lv_widgets/../lv_core/../lv_misc/lv_color.h ****     lv_color8_t ret;
 352:lvgl/src/lv_widgets/../lv_core/../lv_misc/lv_color.h ****     LV_COLOR_SET_R8(ret, LV_COLOR_GET_R(color) >> 5); /* 8 - 3  = 5*/
 353:lvgl/src/lv_widgets/../lv_core/../lv_misc/lv_color.h ****     LV_COLOR_SET_G8(ret, LV_COLOR_GET_G(color) >> 5); /* 8 - 3  = 5*/
 354:lvgl/src/lv_widgets/../lv_core/../lv_misc/lv_color.h ****     LV_COLOR_SET_B8(ret, LV_COLOR_GET_B(color) >> 6); /* 8 - 2  = 6*/
 355:lvgl/src/lv_widgets/../lv_core/../lv_misc/lv_color.h ****     return ret.full;
 356:lvgl/src/lv_widgets/../lv_core/../lv_misc/lv_color.h **** #endif
 357:lvgl/src/lv_widgets/../lv_core/../lv_misc/lv_color.h **** }
 358:lvgl/src/lv_widgets/../lv_core/../lv_misc/lv_color.h **** 
 359:lvgl/src/lv_widgets/../lv_core/../lv_misc/lv_color.h **** static inline uint16_t lv_color_to16(lv_color_t color)
 360:lvgl/src/lv_widgets/../lv_core/../lv_misc/lv_color.h **** {
 361:lvgl/src/lv_widgets/../lv_core/../lv_misc/lv_color.h **** #if LV_COLOR_DEPTH == 1
 362:lvgl/src/lv_widgets/../lv_core/../lv_misc/lv_color.h ****     if(color.full == 0)
 363:lvgl/src/lv_widgets/../lv_core/../lv_misc/lv_color.h ****         return 0;
 364:lvgl/src/lv_widgets/../lv_core/../lv_misc/lv_color.h ****     else
 365:lvgl/src/lv_widgets/../lv_core/../lv_misc/lv_color.h ****         return 0xFFFF;
 366:lvgl/src/lv_widgets/../lv_core/../lv_misc/lv_color.h **** #elif LV_COLOR_DEPTH == 8
 367:lvgl/src/lv_widgets/../lv_core/../lv_misc/lv_color.h ****     lv_color16_t ret;
 368:lvgl/src/lv_widgets/../lv_core/../lv_misc/lv_color.h ****     LV_COLOR_SET_R16(ret, LV_COLOR_GET_R(color) * 4);  /*(2^5 - 1)/(2^3 - 1) = 31/7 = 4*/
 369:lvgl/src/lv_widgets/../lv_core/../lv_misc/lv_color.h ****     LV_COLOR_SET_G16(ret, LV_COLOR_GET_G(color) * 9);  /*(2^6 - 1)/(2^3 - 1) = 63/7 = 9*/
 370:lvgl/src/lv_widgets/../lv_core/../lv_misc/lv_color.h ****     LV_COLOR_SET_B16(ret, LV_COLOR_GET_B(color) * 10); /*(2^5 - 1)/(2^2 - 1) = 31/3 = 10*/
 371:lvgl/src/lv_widgets/../lv_core/../lv_misc/lv_color.h ****     return ret.full;
 372:lvgl/src/lv_widgets/../lv_core/../lv_misc/lv_color.h **** #elif LV_COLOR_DEPTH == 16
 373:lvgl/src/lv_widgets/../lv_core/../lv_misc/lv_color.h ****     return color.full;
 374:lvgl/src/lv_widgets/../lv_core/../lv_misc/lv_color.h **** #elif LV_COLOR_DEPTH == 32
 375:lvgl/src/lv_widgets/../lv_core/../lv_misc/lv_color.h ****     lv_color16_t ret;
 376:lvgl/src/lv_widgets/../lv_core/../lv_misc/lv_color.h ****     LV_COLOR_SET_R16(ret, LV_COLOR_GET_R(color) >> 3); /* 8 - 5  = 3*/
 377:lvgl/src/lv_widgets/../lv_core/../lv_misc/lv_color.h ****     LV_COLOR_SET_G16(ret, LV_COLOR_GET_G(color) >> 2); /* 8 - 6  = 2*/
 378:lvgl/src/lv_widgets/../lv_core/../lv_misc/lv_color.h ****     LV_COLOR_SET_B16(ret, LV_COLOR_GET_B(color) >> 3); /* 8 - 5  = 3*/
 379:lvgl/src/lv_widgets/../lv_core/../lv_misc/lv_color.h ****     return ret.full;
 380:lvgl/src/lv_widgets/../lv_core/../lv_misc/lv_color.h **** #endif
 381:lvgl/src/lv_widgets/../lv_core/../lv_misc/lv_color.h **** }
 382:lvgl/src/lv_widgets/../lv_core/../lv_misc/lv_color.h **** 
 383:lvgl/src/lv_widgets/../lv_core/../lv_misc/lv_color.h **** static inline uint32_t lv_color_to32(lv_color_t color)
 384:lvgl/src/lv_widgets/../lv_core/../lv_misc/lv_color.h **** {
 385:lvgl/src/lv_widgets/../lv_core/../lv_misc/lv_color.h **** #if LV_COLOR_DEPTH == 1
 386:lvgl/src/lv_widgets/../lv_core/../lv_misc/lv_color.h ****     if(color.full == 0)
 387:lvgl/src/lv_widgets/../lv_core/../lv_misc/lv_color.h ****         return 0xFF000000;
 388:lvgl/src/lv_widgets/../lv_core/../lv_misc/lv_color.h ****     else
 389:lvgl/src/lv_widgets/../lv_core/../lv_misc/lv_color.h ****         return 0xFFFFFFFF;
 390:lvgl/src/lv_widgets/../lv_core/../lv_misc/lv_color.h **** #elif LV_COLOR_DEPTH == 8
 391:lvgl/src/lv_widgets/../lv_core/../lv_misc/lv_color.h ****     lv_color32_t ret;
 392:lvgl/src/lv_widgets/../lv_core/../lv_misc/lv_color.h ****     LV_COLOR_SET_R32(ret, LV_COLOR_GET_R(color) * 36); /*(2^8 - 1)/(2^3 - 1) = 255/7 = 36*/
 393:lvgl/src/lv_widgets/../lv_core/../lv_misc/lv_color.h ****     LV_COLOR_SET_G32(ret, LV_COLOR_GET_G(color) * 36); /*(2^8 - 1)/(2^3 - 1) = 255/7 = 36*/
 394:lvgl/src/lv_widgets/../lv_core/../lv_misc/lv_color.h ****     LV_COLOR_SET_B32(ret, LV_COLOR_GET_B(color) * 85); /*(2^8 - 1)/(2^2 - 1) = 255/3 = 85*/
 395:lvgl/src/lv_widgets/../lv_core/../lv_misc/lv_color.h ****     LV_COLOR_SET_A32(ret, 0xFF);
 396:lvgl/src/lv_widgets/../lv_core/../lv_misc/lv_color.h ****     return ret.full;
 397:lvgl/src/lv_widgets/../lv_core/../lv_misc/lv_color.h **** #elif LV_COLOR_DEPTH == 16
 398:lvgl/src/lv_widgets/../lv_core/../lv_misc/lv_color.h ****     /**
 399:lvgl/src/lv_widgets/../lv_core/../lv_misc/lv_color.h ****      * The floating point math for conversion is:
 400:lvgl/src/lv_widgets/../lv_core/../lv_misc/lv_color.h ****      *  valueto = valuefrom * ( (2^bitsto - 1) / (float)(2^bitsfrom - 1) )
 401:lvgl/src/lv_widgets/../lv_core/../lv_misc/lv_color.h ****      * The faster integer math for conversion is:
 402:lvgl/src/lv_widgets/../lv_core/../lv_misc/lv_color.h ****      *  valueto = ( valuefrom * multiplier + adder ) >> divisor
ARM GAS  D:\Temp\cc0vPyDE.s 			page 33


 403:lvgl/src/lv_widgets/../lv_core/../lv_misc/lv_color.h ****      *   multiplier = FLOOR( ( (2^bitsto - 1) << divisor ) / (float)(2^bitsfrom - 1) )
 404:lvgl/src/lv_widgets/../lv_core/../lv_misc/lv_color.h ****      *
 405:lvgl/src/lv_widgets/../lv_core/../lv_misc/lv_color.h ****      * Find the first divisor where ( adder >> divisor ) <= 0
 406:lvgl/src/lv_widgets/../lv_core/../lv_misc/lv_color.h ****      *
 407:lvgl/src/lv_widgets/../lv_core/../lv_misc/lv_color.h ****      * 5-bit to 8-bit: ( 31 * multiplier + adder ) >> divisor = 255
 408:lvgl/src/lv_widgets/../lv_core/../lv_misc/lv_color.h ****      * divisor  multiplier  adder  min (0)  max (31)
 409:lvgl/src/lv_widgets/../lv_core/../lv_misc/lv_color.h ****      *       0           8      7        7       255
 410:lvgl/src/lv_widgets/../lv_core/../lv_misc/lv_color.h ****      *       1          16     14        7       255
 411:lvgl/src/lv_widgets/../lv_core/../lv_misc/lv_color.h ****      *       2          32     28        7       255
 412:lvgl/src/lv_widgets/../lv_core/../lv_misc/lv_color.h ****      *       3          65     25        3       255
 413:lvgl/src/lv_widgets/../lv_core/../lv_misc/lv_color.h ****      *       4         131     19        1       255
 414:lvgl/src/lv_widgets/../lv_core/../lv_misc/lv_color.h ****      *       5         263      7        0       255
 415:lvgl/src/lv_widgets/../lv_core/../lv_misc/lv_color.h ****      *
 416:lvgl/src/lv_widgets/../lv_core/../lv_misc/lv_color.h ****      * 6-bit to 8-bit: 255 = ( 63 * multiplier + adder ) >> divisor
 417:lvgl/src/lv_widgets/../lv_core/../lv_misc/lv_color.h ****      * divisor  multiplier  adder  min (0)  max (63)
 418:lvgl/src/lv_widgets/../lv_core/../lv_misc/lv_color.h ****      *       0           4      3        3       255
 419:lvgl/src/lv_widgets/../lv_core/../lv_misc/lv_color.h ****      *       1           8      6        3       255
 420:lvgl/src/lv_widgets/../lv_core/../lv_misc/lv_color.h ****      *       2          16     12        3       255
 421:lvgl/src/lv_widgets/../lv_core/../lv_misc/lv_color.h ****      *       3          32     24        3       255
 422:lvgl/src/lv_widgets/../lv_core/../lv_misc/lv_color.h ****      *       4          64     48        3       255
 423:lvgl/src/lv_widgets/../lv_core/../lv_misc/lv_color.h ****      *       5         129     33        1       255
 424:lvgl/src/lv_widgets/../lv_core/../lv_misc/lv_color.h ****      *       6         259      3        0       255
 425:lvgl/src/lv_widgets/../lv_core/../lv_misc/lv_color.h ****      */
 426:lvgl/src/lv_widgets/../lv_core/../lv_misc/lv_color.h **** 
 427:lvgl/src/lv_widgets/../lv_core/../lv_misc/lv_color.h ****     lv_color32_t ret;
 428:lvgl/src/lv_widgets/../lv_core/../lv_misc/lv_color.h ****     LV_COLOR_SET_R32(ret, (LV_COLOR_GET_R(color) * 263 + 7) >> 5);
 429:lvgl/src/lv_widgets/../lv_core/../lv_misc/lv_color.h ****     LV_COLOR_SET_G32(ret, (LV_COLOR_GET_G(color) * 259 + 3) >> 6);
 430:lvgl/src/lv_widgets/../lv_core/../lv_misc/lv_color.h ****     LV_COLOR_SET_B32(ret, (LV_COLOR_GET_B(color) * 263 + 7) >> 5);
 431:lvgl/src/lv_widgets/../lv_core/../lv_misc/lv_color.h ****     LV_COLOR_SET_A32(ret, 0xFF);
 432:lvgl/src/lv_widgets/../lv_core/../lv_misc/lv_color.h ****     return ret.full;
 433:lvgl/src/lv_widgets/../lv_core/../lv_misc/lv_color.h **** #elif LV_COLOR_DEPTH == 32
 434:lvgl/src/lv_widgets/../lv_core/../lv_misc/lv_color.h ****     return color.full;
 435:lvgl/src/lv_widgets/../lv_core/../lv_misc/lv_color.h **** #endif
 436:lvgl/src/lv_widgets/../lv_core/../lv_misc/lv_color.h **** }
 437:lvgl/src/lv_widgets/../lv_core/../lv_misc/lv_color.h **** 
 438:lvgl/src/lv_widgets/../lv_core/../lv_misc/lv_color.h **** //! @cond Doxygen_Suppress
 439:lvgl/src/lv_widgets/../lv_core/../lv_misc/lv_color.h **** 
 440:lvgl/src/lv_widgets/../lv_core/../lv_misc/lv_color.h **** /**
 441:lvgl/src/lv_widgets/../lv_core/../lv_misc/lv_color.h ****  * Mix two colors with a given ratio.
 442:lvgl/src/lv_widgets/../lv_core/../lv_misc/lv_color.h ****  * @param c1 the first color to mix (usually the foreground)
 443:lvgl/src/lv_widgets/../lv_core/../lv_misc/lv_color.h ****  * @param c2 the second color to mix (usually the background)
 444:lvgl/src/lv_widgets/../lv_core/../lv_misc/lv_color.h ****  * @param mix The ratio of the colors. 0: full `c2`, 255: full `c1`, 127: half `c1` and half`c2`
 445:lvgl/src/lv_widgets/../lv_core/../lv_misc/lv_color.h ****  * @return the mixed color
 446:lvgl/src/lv_widgets/../lv_core/../lv_misc/lv_color.h ****  */
 447:lvgl/src/lv_widgets/../lv_core/../lv_misc/lv_color.h **** LV_ATTRIBUTE_FAST_MEM static inline lv_color_t lv_color_mix(lv_color_t c1, lv_color_t c2, uint8_t m
 448:lvgl/src/lv_widgets/../lv_core/../lv_misc/lv_color.h **** {
 449:lvgl/src/lv_widgets/../lv_core/../lv_misc/lv_color.h ****     lv_color_t ret;
 450:lvgl/src/lv_widgets/../lv_core/../lv_misc/lv_color.h **** #if LV_COLOR_DEPTH != 1
 451:lvgl/src/lv_widgets/../lv_core/../lv_misc/lv_color.h ****     /*LV_COLOR_DEPTH == 8, 16 or 32*/
 452:lvgl/src/lv_widgets/../lv_core/../lv_misc/lv_color.h ****     LV_COLOR_SET_R(ret, LV_MATH_UDIV255((uint16_t) LV_COLOR_GET_R(c1) * mix + LV_COLOR_GET_R(c2) *
 453:lvgl/src/lv_widgets/../lv_core/../lv_misc/lv_color.h ****                                         (255 - mix) + LV_COLOR_MIX_ROUND_OFS));
 454:lvgl/src/lv_widgets/../lv_core/../lv_misc/lv_color.h ****     LV_COLOR_SET_G(ret, LV_MATH_UDIV255((uint16_t) LV_COLOR_GET_G(c1) * mix + LV_COLOR_GET_G(c2) *
 455:lvgl/src/lv_widgets/../lv_core/../lv_misc/lv_color.h ****                                         (255 - mix) + LV_COLOR_MIX_ROUND_OFS));
 456:lvgl/src/lv_widgets/../lv_core/../lv_misc/lv_color.h ****     LV_COLOR_SET_B(ret, LV_MATH_UDIV255((uint16_t) LV_COLOR_GET_B(c1) * mix + LV_COLOR_GET_B(c2) *
 457:lvgl/src/lv_widgets/../lv_core/../lv_misc/lv_color.h ****                                         (255 - mix) + LV_COLOR_MIX_ROUND_OFS));
 458:lvgl/src/lv_widgets/../lv_core/../lv_misc/lv_color.h ****     LV_COLOR_SET_A(ret, 0xFF);
 459:lvgl/src/lv_widgets/../lv_core/../lv_misc/lv_color.h **** #else
ARM GAS  D:\Temp\cc0vPyDE.s 			page 34


 460:lvgl/src/lv_widgets/../lv_core/../lv_misc/lv_color.h ****     /*LV_COLOR_DEPTH == 1*/
 461:lvgl/src/lv_widgets/../lv_core/../lv_misc/lv_color.h ****     ret.full = mix > LV_OPA_50 ? c1.full : c2.full;
 462:lvgl/src/lv_widgets/../lv_core/../lv_misc/lv_color.h **** #endif
 463:lvgl/src/lv_widgets/../lv_core/../lv_misc/lv_color.h **** 
 464:lvgl/src/lv_widgets/../lv_core/../lv_misc/lv_color.h ****     return ret;
 465:lvgl/src/lv_widgets/../lv_core/../lv_misc/lv_color.h **** }
 466:lvgl/src/lv_widgets/../lv_core/../lv_misc/lv_color.h **** 
 467:lvgl/src/lv_widgets/../lv_core/../lv_misc/lv_color.h **** LV_ATTRIBUTE_FAST_MEM static inline void lv_color_premult(lv_color_t c, uint8_t mix, uint16_t * out
 468:lvgl/src/lv_widgets/../lv_core/../lv_misc/lv_color.h **** {
 469:lvgl/src/lv_widgets/../lv_core/../lv_misc/lv_color.h **** #if LV_COLOR_DEPTH != 1
 470:lvgl/src/lv_widgets/../lv_core/../lv_misc/lv_color.h ****     out[0] = (uint16_t) LV_COLOR_GET_R(c) * mix;
 471:lvgl/src/lv_widgets/../lv_core/../lv_misc/lv_color.h ****     out[1] = (uint16_t) LV_COLOR_GET_G(c) * mix;
 472:lvgl/src/lv_widgets/../lv_core/../lv_misc/lv_color.h ****     out[2] = (uint16_t) LV_COLOR_GET_B(c) * mix;
 473:lvgl/src/lv_widgets/../lv_core/../lv_misc/lv_color.h **** #else
 474:lvgl/src/lv_widgets/../lv_core/../lv_misc/lv_color.h ****     (void) mix;
 475:lvgl/src/lv_widgets/../lv_core/../lv_misc/lv_color.h ****     /*Pre-multiplication can't be used with 1 bpp*/
 476:lvgl/src/lv_widgets/../lv_core/../lv_misc/lv_color.h ****     out[0] = LV_COLOR_GET_R(c);
 477:lvgl/src/lv_widgets/../lv_core/../lv_misc/lv_color.h ****     out[1] = LV_COLOR_GET_G(c);
 478:lvgl/src/lv_widgets/../lv_core/../lv_misc/lv_color.h ****     out[2] = LV_COLOR_GET_B(c);
 479:lvgl/src/lv_widgets/../lv_core/../lv_misc/lv_color.h **** #endif
 480:lvgl/src/lv_widgets/../lv_core/../lv_misc/lv_color.h **** 
 481:lvgl/src/lv_widgets/../lv_core/../lv_misc/lv_color.h **** }
 482:lvgl/src/lv_widgets/../lv_core/../lv_misc/lv_color.h **** 
 483:lvgl/src/lv_widgets/../lv_core/../lv_misc/lv_color.h **** /**
 484:lvgl/src/lv_widgets/../lv_core/../lv_misc/lv_color.h ****  * Mix two colors with a given ratio. It runs faster then `lv_color_mix` but requires some pre comp
 485:lvgl/src/lv_widgets/../lv_core/../lv_misc/lv_color.h ****  * @param premult_c1 The first color. Should be preprocessed with `lv_color_premult(c1)`
 486:lvgl/src/lv_widgets/../lv_core/../lv_misc/lv_color.h ****  * @param c2 The second color. As it is no pre computation required on it
 487:lvgl/src/lv_widgets/../lv_core/../lv_misc/lv_color.h ****  * @param mix The ratio of the colors. 0: full `c1`, 255: full `c2`, 127: half `c1` and half `c2`.
 488:lvgl/src/lv_widgets/../lv_core/../lv_misc/lv_color.h ****  *            Should be modified like mix = `255 - mix`
 489:lvgl/src/lv_widgets/../lv_core/../lv_misc/lv_color.h ****  * @return the mixed color
 490:lvgl/src/lv_widgets/../lv_core/../lv_misc/lv_color.h ****  * @note 255 won't give clearly `c1`.
 491:lvgl/src/lv_widgets/../lv_core/../lv_misc/lv_color.h ****  */
 492:lvgl/src/lv_widgets/../lv_core/../lv_misc/lv_color.h **** LV_ATTRIBUTE_FAST_MEM static inline lv_color_t lv_color_mix_premult(uint16_t * premult_c1, lv_color
 493:lvgl/src/lv_widgets/../lv_core/../lv_misc/lv_color.h **** {
 494:lvgl/src/lv_widgets/../lv_core/../lv_misc/lv_color.h ****     lv_color_t ret;
 495:lvgl/src/lv_widgets/../lv_core/../lv_misc/lv_color.h **** #if LV_COLOR_DEPTH != 1
 496:lvgl/src/lv_widgets/../lv_core/../lv_misc/lv_color.h ****     /*LV_COLOR_DEPTH == 8, 16 or 32*/
 497:lvgl/src/lv_widgets/../lv_core/../lv_misc/lv_color.h ****     LV_COLOR_SET_R(ret, LV_MATH_UDIV255(premult_c1[0] + LV_COLOR_GET_R(c2) * mix + LV_COLOR_MIX_ROU
 498:lvgl/src/lv_widgets/../lv_core/../lv_misc/lv_color.h ****     LV_COLOR_SET_G(ret, LV_MATH_UDIV255(premult_c1[1] + LV_COLOR_GET_G(c2) * mix + LV_COLOR_MIX_ROU
 499:lvgl/src/lv_widgets/../lv_core/../lv_misc/lv_color.h ****     LV_COLOR_SET_B(ret, LV_MATH_UDIV255(premult_c1[2] + LV_COLOR_GET_B(c2) * mix + LV_COLOR_MIX_ROU
 500:lvgl/src/lv_widgets/../lv_core/../lv_misc/lv_color.h ****     LV_COLOR_SET_A(ret, 0xFF);
 501:lvgl/src/lv_widgets/../lv_core/../lv_misc/lv_color.h **** #else
 502:lvgl/src/lv_widgets/../lv_core/../lv_misc/lv_color.h ****     /*LV_COLOR_DEPTH == 1*/
 503:lvgl/src/lv_widgets/../lv_core/../lv_misc/lv_color.h ****     /*Restore color1*/
 504:lvgl/src/lv_widgets/../lv_core/../lv_misc/lv_color.h ****     lv_color_t c1;
 505:lvgl/src/lv_widgets/../lv_core/../lv_misc/lv_color.h ****     LV_COLOR_SET_R(c1, premult_c1[0]);
 506:lvgl/src/lv_widgets/../lv_core/../lv_misc/lv_color.h ****     LV_COLOR_SET_G(c1, premult_c1[1]);
 507:lvgl/src/lv_widgets/../lv_core/../lv_misc/lv_color.h ****     LV_COLOR_SET_B(c1, premult_c1[2]);
 508:lvgl/src/lv_widgets/../lv_core/../lv_misc/lv_color.h ****     ret.full = mix > LV_OPA_50 ? c2.full : c1.full;
 509:lvgl/src/lv_widgets/../lv_core/../lv_misc/lv_color.h **** #endif
 510:lvgl/src/lv_widgets/../lv_core/../lv_misc/lv_color.h **** 
 511:lvgl/src/lv_widgets/../lv_core/../lv_misc/lv_color.h ****     return ret;
 512:lvgl/src/lv_widgets/../lv_core/../lv_misc/lv_color.h **** }
 513:lvgl/src/lv_widgets/../lv_core/../lv_misc/lv_color.h **** 
 514:lvgl/src/lv_widgets/../lv_core/../lv_misc/lv_color.h **** /**
 515:lvgl/src/lv_widgets/../lv_core/../lv_misc/lv_color.h ****  * Mix two colors. Both color can have alpha value.
 516:lvgl/src/lv_widgets/../lv_core/../lv_misc/lv_color.h ****  * @param bg_color background color
ARM GAS  D:\Temp\cc0vPyDE.s 			page 35


 517:lvgl/src/lv_widgets/../lv_core/../lv_misc/lv_color.h ****  * @param bg_opa alpha of the background color
 518:lvgl/src/lv_widgets/../lv_core/../lv_misc/lv_color.h ****  * @param fg_color foreground color
 519:lvgl/src/lv_widgets/../lv_core/../lv_misc/lv_color.h ****  * @param fg_opa alpha of the foreground color
 520:lvgl/src/lv_widgets/../lv_core/../lv_misc/lv_color.h ****  * @param res_color the result color
 521:lvgl/src/lv_widgets/../lv_core/../lv_misc/lv_color.h ****  * @param res_opa the result opacity
 522:lvgl/src/lv_widgets/../lv_core/../lv_misc/lv_color.h ****  */
 523:lvgl/src/lv_widgets/../lv_core/../lv_misc/lv_color.h **** LV_ATTRIBUTE_FAST_MEM static inline void lv_color_mix_with_alpha(lv_color_t bg_color, lv_opa_t bg_o
 524:lvgl/src/lv_widgets/../lv_core/../lv_misc/lv_color.h ****                                                                  lv_color_t fg_color, lv_opa_t fg_o
 525:lvgl/src/lv_widgets/../lv_core/../lv_misc/lv_color.h ****                                                                  lv_color_t * res_color, lv_opa_t *
 526:lvgl/src/lv_widgets/../lv_core/../lv_misc/lv_color.h **** {
 527:lvgl/src/lv_widgets/../lv_core/../lv_misc/lv_color.h ****     /* Pick the foreground if it's fully opaque or the Background is fully transparent*/
 528:lvgl/src/lv_widgets/../lv_core/../lv_misc/lv_color.h ****     if(fg_opa >= LV_OPA_MAX || bg_opa <= LV_OPA_MIN) {
 529:lvgl/src/lv_widgets/../lv_core/../lv_misc/lv_color.h ****         res_color->full = fg_color.full;
 530:lvgl/src/lv_widgets/../lv_core/../lv_misc/lv_color.h ****         *res_opa = fg_opa;
 531:lvgl/src/lv_widgets/../lv_core/../lv_misc/lv_color.h ****     }
 532:lvgl/src/lv_widgets/../lv_core/../lv_misc/lv_color.h ****     /*Transparent foreground: use the Background*/
 533:lvgl/src/lv_widgets/../lv_core/../lv_misc/lv_color.h ****     else if(fg_opa <= LV_OPA_MIN) {
 534:lvgl/src/lv_widgets/../lv_core/../lv_misc/lv_color.h ****         res_color->full = bg_color.full;
 535:lvgl/src/lv_widgets/../lv_core/../lv_misc/lv_color.h ****         *res_opa = bg_opa;
 536:lvgl/src/lv_widgets/../lv_core/../lv_misc/lv_color.h ****     }
 537:lvgl/src/lv_widgets/../lv_core/../lv_misc/lv_color.h ****     /*Opaque background: use simple mix*/
 538:lvgl/src/lv_widgets/../lv_core/../lv_misc/lv_color.h ****     else if(bg_opa >= LV_OPA_MAX) {
 539:lvgl/src/lv_widgets/../lv_core/../lv_misc/lv_color.h ****         *res_color = lv_color_mix(fg_color, bg_color, fg_opa);
 540:lvgl/src/lv_widgets/../lv_core/../lv_misc/lv_color.h ****         *res_opa = LV_OPA_COVER;
 541:lvgl/src/lv_widgets/../lv_core/../lv_misc/lv_color.h ****     }
 542:lvgl/src/lv_widgets/../lv_core/../lv_misc/lv_color.h ****     /*Both colors have alpha. Expensive calculation need to be applied*/
 543:lvgl/src/lv_widgets/../lv_core/../lv_misc/lv_color.h ****     else {
 544:lvgl/src/lv_widgets/../lv_core/../lv_misc/lv_color.h ****         /*Save the parameters and the result. If they will be asked again don't compute again*/
 545:lvgl/src/lv_widgets/../lv_core/../lv_misc/lv_color.h ****         static lv_opa_t fg_opa_save     = 0;
 546:lvgl/src/lv_widgets/../lv_core/../lv_misc/lv_color.h ****         static lv_opa_t bg_opa_save     = 0;
 547:lvgl/src/lv_widgets/../lv_core/../lv_misc/lv_color.h ****         static lv_color_t fg_color_save = _LV_COLOR_ZERO_INITIALIZER;
 548:lvgl/src/lv_widgets/../lv_core/../lv_misc/lv_color.h ****         static lv_color_t bg_color_save = _LV_COLOR_ZERO_INITIALIZER;
 549:lvgl/src/lv_widgets/../lv_core/../lv_misc/lv_color.h ****         static lv_color_t res_color_saved = _LV_COLOR_ZERO_INITIALIZER;
 550:lvgl/src/lv_widgets/../lv_core/../lv_misc/lv_color.h ****         static lv_opa_t res_opa_saved = 0;
 551:lvgl/src/lv_widgets/../lv_core/../lv_misc/lv_color.h **** 
 552:lvgl/src/lv_widgets/../lv_core/../lv_misc/lv_color.h ****         if(fg_opa != fg_opa_save || bg_opa != bg_opa_save || fg_color.full != fg_color_save.full ||
 553:lvgl/src/lv_widgets/../lv_core/../lv_misc/lv_color.h ****            bg_color.full != bg_color_save.full) {
 554:lvgl/src/lv_widgets/../lv_core/../lv_misc/lv_color.h ****             fg_opa_save        = fg_opa;
 555:lvgl/src/lv_widgets/../lv_core/../lv_misc/lv_color.h ****             bg_opa_save        = bg_opa;
 556:lvgl/src/lv_widgets/../lv_core/../lv_misc/lv_color.h ****             fg_color_save.full = fg_color.full;
 557:lvgl/src/lv_widgets/../lv_core/../lv_misc/lv_color.h ****             bg_color_save.full = bg_color.full;
 558:lvgl/src/lv_widgets/../lv_core/../lv_misc/lv_color.h ****             /*Info:
 559:lvgl/src/lv_widgets/../lv_core/../lv_misc/lv_color.h ****              * https://en.wikipedia.org/wiki/Alpha_compositing#Analytical_derivation_of_the_over_op
 560:lvgl/src/lv_widgets/../lv_core/../lv_misc/lv_color.h ****             res_opa_saved = 255 - ((uint16_t)((uint16_t)(255 - fg_opa) * (255 - bg_opa)) >> 8);
 561:lvgl/src/lv_widgets/../lv_core/../lv_misc/lv_color.h ****             if(res_opa_saved == 0) {
 562:lvgl/src/lv_widgets/../lv_core/../lv_misc/lv_color.h ****                 while(1)
 563:lvgl/src/lv_widgets/../lv_core/../lv_misc/lv_color.h ****                     ;
 564:lvgl/src/lv_widgets/../lv_core/../lv_misc/lv_color.h ****             }
 565:lvgl/src/lv_widgets/../lv_core/../lv_misc/lv_color.h ****             lv_opa_t ratio = (uint16_t)((uint16_t)fg_opa * 255) / res_opa_saved;
 566:lvgl/src/lv_widgets/../lv_core/../lv_misc/lv_color.h ****             res_color_saved = lv_color_mix(fg_color, bg_color, ratio);
 567:lvgl/src/lv_widgets/../lv_core/../lv_misc/lv_color.h **** 
 568:lvgl/src/lv_widgets/../lv_core/../lv_misc/lv_color.h ****         }
 569:lvgl/src/lv_widgets/../lv_core/../lv_misc/lv_color.h **** 
 570:lvgl/src/lv_widgets/../lv_core/../lv_misc/lv_color.h ****         res_color->full = res_color_saved.full;
 571:lvgl/src/lv_widgets/../lv_core/../lv_misc/lv_color.h ****         *res_opa = res_opa_saved;
 572:lvgl/src/lv_widgets/../lv_core/../lv_misc/lv_color.h ****     }
 573:lvgl/src/lv_widgets/../lv_core/../lv_misc/lv_color.h **** }
ARM GAS  D:\Temp\cc0vPyDE.s 			page 36


 574:lvgl/src/lv_widgets/../lv_core/../lv_misc/lv_color.h **** 
 575:lvgl/src/lv_widgets/../lv_core/../lv_misc/lv_color.h **** //! @endcond
 576:lvgl/src/lv_widgets/../lv_core/../lv_misc/lv_color.h **** 
 577:lvgl/src/lv_widgets/../lv_core/../lv_misc/lv_color.h **** /**
 578:lvgl/src/lv_widgets/../lv_core/../lv_misc/lv_color.h ****  * Get the brightness of a color
 579:lvgl/src/lv_widgets/../lv_core/../lv_misc/lv_color.h ****  * @param color a color
 580:lvgl/src/lv_widgets/../lv_core/../lv_misc/lv_color.h ****  * @return the brightness [0..255]
 581:lvgl/src/lv_widgets/../lv_core/../lv_misc/lv_color.h ****  */
 582:lvgl/src/lv_widgets/../lv_core/../lv_misc/lv_color.h **** static inline uint8_t lv_color_brightness(lv_color_t color)
 215              		.loc 2 582 23 view .LVU43
 216              	.LBB62:
 583:lvgl/src/lv_widgets/../lv_core/../lv_misc/lv_color.h **** {
 584:lvgl/src/lv_widgets/../lv_core/../lv_misc/lv_color.h ****     lv_color32_t c32;
 217              		.loc 2 584 5 view .LVU44
 585:lvgl/src/lv_widgets/../lv_core/../lv_misc/lv_color.h ****     c32.full        = lv_color_to32(color);
 218              		.loc 2 585 5 view .LVU45
 219              	.LBB63:
 220              	.LBI63:
 383:lvgl/src/lv_widgets/../lv_core/../lv_misc/lv_color.h **** {
 221              		.loc 2 383 24 view .LVU46
 222              	.LBB64:
 427:lvgl/src/lv_widgets/../lv_core/../lv_misc/lv_color.h ****     LV_COLOR_SET_R32(ret, (LV_COLOR_GET_R(color) * 263 + 7) >> 5);
 223              		.loc 2 427 5 view .LVU47
 428:lvgl/src/lv_widgets/../lv_core/../lv_misc/lv_color.h ****     LV_COLOR_SET_G32(ret, (LV_COLOR_GET_G(color) * 259 + 3) >> 6);
 224              		.loc 2 428 5 view .LVU48
 225 0020 C3F3C422 		ubfx	r2, r3, #11, #5
 226 0024 02EB4211 		add	r1, r2, r2, lsl #5
 227 0028 C2EBC101 		rsb	r1, r2, r1, lsl #3
 228 002c 0731     		adds	r1, r1, #7
 229 002e C1F34711 		ubfx	r1, r1, #5, #8
 230 0032 0022     		movs	r2, #0
 231              	.LVL11:
 428:lvgl/src/lv_widgets/../lv_core/../lv_misc/lv_color.h ****     LV_COLOR_SET_G32(ret, (LV_COLOR_GET_G(color) * 259 + 3) >> 6);
 232              		.loc 2 428 5 is_stmt 0 view .LVU49
 233 0034 61F31742 		bfi	r2, r1, #16, #8
 234              	.LVL12:
 429:lvgl/src/lv_widgets/../lv_core/../lv_misc/lv_color.h ****     LV_COLOR_SET_B32(ret, (LV_COLOR_GET_B(color) * 263 + 7) >> 5);
 235              		.loc 2 429 5 is_stmt 1 view .LVU50
 236 0038 C3F34511 		ubfx	r1, r3, #5, #6
 237 003c 01EBC110 		add	r0, r1, r1, lsl #7
 238              	.LVL13:
 429:lvgl/src/lv_widgets/../lv_core/../lv_misc/lv_color.h ****     LV_COLOR_SET_B32(ret, (LV_COLOR_GET_B(color) * 263 + 7) >> 5);
 239              		.loc 2 429 5 is_stmt 0 view .LVU51
 240 0040 01EB4001 		add	r1, r1, r0, lsl #1
 241 0044 0331     		adds	r1, r1, #3
 242 0046 C1F38711 		ubfx	r1, r1, #6, #8
 243 004a 61F30F22 		bfi	r2, r1, #8, #8
 430:lvgl/src/lv_widgets/../lv_core/../lv_misc/lv_color.h ****     LV_COLOR_SET_A32(ret, 0xFF);
 244              		.loc 2 430 5 is_stmt 1 view .LVU52
 245 004e 03F01F03 		and	r3, r3, #31
 246              	.LVL14:
 430:lvgl/src/lv_widgets/../lv_core/../lv_misc/lv_color.h ****     LV_COLOR_SET_A32(ret, 0xFF);
 247              		.loc 2 430 5 is_stmt 0 view .LVU53
 248 0052 03EB4311 		add	r1, r3, r3, lsl #5
 249 0056 C3EBC103 		rsb	r3, r3, r1, lsl #3
 250 005a 0733     		adds	r3, r3, #7
 251 005c C3F34713 		ubfx	r3, r3, #5, #8
ARM GAS  D:\Temp\cc0vPyDE.s 			page 37


 252 0060 63F30702 		bfi	r2, r3, #0, #8
 431:lvgl/src/lv_widgets/../lv_core/../lv_misc/lv_color.h ****     return ret.full;
 253              		.loc 2 431 5 is_stmt 1 view .LVU54
 254 0064 42F07F42 		orr	r2, r2, #-16777216
 255              	.LVL15:
 432:lvgl/src/lv_widgets/../lv_core/../lv_misc/lv_color.h **** #elif LV_COLOR_DEPTH == 32
 256              		.loc 2 432 5 view .LVU55
 257              	.LBE64:
 258              	.LBE63:
 586:lvgl/src/lv_widgets/../lv_core/../lv_misc/lv_color.h ****     uint16_t bright = (uint16_t)(3u * LV_COLOR_GET_R32(c32) + LV_COLOR_GET_B32(c32) + 4u * LV_COLOR
 259              		.loc 2 586 5 view .LVU56
 260              		.loc 2 586 39 is_stmt 0 view .LVU57
 261 0068 C2F30743 		ubfx	r3, r2, #16, #8
 262              		.loc 2 586 37 view .LVU58
 263 006c 03EB4303 		add	r3, r3, r3, lsl #1
 264              		.loc 2 586 92 view .LVU59
 265 0070 C2F30728 		ubfx	r8, r2, #8, #8
 266              		.loc 2 586 85 view .LVU60
 267 0074 03EB8808 		add	r8, r3, r8, lsl #2
 268              		.loc 2 586 63 view .LVU61
 269 0078 D2B2     		uxtb	r2, r2
 270              	.LVL16:
 271              		.loc 2 586 14 view .LVU62
 272 007a 12FA88F8 		uxtah	r8, r2, r8
 273              	.LVL17:
 587:lvgl/src/lv_widgets/../lv_core/../lv_misc/lv_color.h ****     return (uint8_t)(bright >> 3);
 274              		.loc 2 587 5 is_stmt 1 view .LVU63
 275              		.loc 2 587 12 is_stmt 0 view .LVU64
 276 007e C8F3C708 		ubfx	r8, r8, #3, #8
 277              	.LVL18:
 278              		.loc 2 587 12 view .LVU65
 279              	.LBE62:
 280              	.LBE61:
1201:lvgl/src/lv_widgets/lv_canvas.c ****     if(opa < LV_OPA_MAX) {
 281              		.loc 1 1201 5 is_stmt 1 view .LVU66
 282              		.loc 1 1201 7 is_stmt 0 view .LVU67
 283 0082 FC2D     		cmp	r5, #252
 284 0084 07D9     		bls	.L21
 285              	.L19:
1202:lvgl/src/lv_widgets/lv_canvas.c ****         uint8_t bg = lv_img_buf_get_px_alpha(d, x, y);
1203:lvgl/src/lv_widgets/lv_canvas.c ****         br = (uint16_t)((uint16_t)br * opa + (bg * (255 - opa))) >> 8;
1204:lvgl/src/lv_widgets/lv_canvas.c ****     }
1205:lvgl/src/lv_widgets/lv_canvas.c **** 
1206:lvgl/src/lv_widgets/lv_canvas.c ****     lv_img_buf_set_px_alpha(d, x, y, br);
 286              		.loc 1 1206 5 is_stmt 1 view .LVU68
 287 0086 4346     		mov	r3, r8
 288 0088 3A46     		mov	r2, r7
 289 008a 3146     		mov	r1, r6
 290 008c 2046     		mov	r0, r4
 291 008e FFF7FEFF 		bl	lv_img_buf_set_px_alpha
 292              	.LVL19:
1207:lvgl/src/lv_widgets/lv_canvas.c **** }
 293              		.loc 1 1207 1 is_stmt 0 view .LVU69
 294 0092 BDE8F081 		pop	{r4, r5, r6, r7, r8, pc}
 295              	.LVL20:
 296              	.L21:
 297              	.LBB65:
ARM GAS  D:\Temp\cc0vPyDE.s 			page 38


1202:lvgl/src/lv_widgets/lv_canvas.c ****         uint8_t bg = lv_img_buf_get_px_alpha(d, x, y);
 298              		.loc 1 1202 9 is_stmt 1 view .LVU70
1202:lvgl/src/lv_widgets/lv_canvas.c ****         uint8_t bg = lv_img_buf_get_px_alpha(d, x, y);
 299              		.loc 1 1202 22 is_stmt 0 view .LVU71
 300 0096 3A46     		mov	r2, r7
 301 0098 3146     		mov	r1, r6
 302 009a 2046     		mov	r0, r4
 303 009c FFF7FEFF 		bl	lv_img_buf_get_px_alpha
 304              	.LVL21:
1203:lvgl/src/lv_widgets/lv_canvas.c ****     }
 305              		.loc 1 1203 9 is_stmt 1 view .LVU72
1203:lvgl/src/lv_widgets/lv_canvas.c ****     }
 306              		.loc 1 1203 57 is_stmt 0 view .LVU73
 307 00a0 C5F1FF03 		rsb	r3, r5, #255
1203:lvgl/src/lv_widgets/lv_canvas.c ****     }
 308              		.loc 1 1203 14 view .LVU74
 309 00a4 10FB03F0 		smulbb	r0, r0, r3
 310              	.LVL22:
1203:lvgl/src/lv_widgets/lv_canvas.c ****     }
 311              		.loc 1 1203 14 view .LVU75
 312 00a8 08FB0508 		mla	r8, r8, r5, r0
 313              	.LVL23:
1203:lvgl/src/lv_widgets/lv_canvas.c ****     }
 314              		.loc 1 1203 12 view .LVU76
 315 00ac C8F30728 		ubfx	r8, r8, #8, #8
 316              	.LVL24:
1203:lvgl/src/lv_widgets/lv_canvas.c ****     }
 317              		.loc 1 1203 12 view .LVU77
 318 00b0 E9E7     		b	.L19
 319              	.LBE65:
 320              		.cfi_endproc
 321              	.LFE481:
 323              		.section	.text.set_px_cb_alpha8,"ax",%progbits
 324              		.align	1
 325              		.syntax unified
 326              		.thumb
 327              		.thumb_func
 328              		.fpu fpv4-sp-d16
 330              	set_px_cb_alpha8:
 331              	.LVL25:
 332              	.LFB480:
1183:lvgl/src/lv_widgets/lv_canvas.c ****     (void) disp_drv; /*Unused*/
 333              		.loc 1 1183 1 is_stmt 1 view -0
 334              		.cfi_startproc
 335              		@ args = 12, pretend = 0, frame = 16
 336              		@ frame_needed = 0, uses_anonymous_args = 0
1183:lvgl/src/lv_widgets/lv_canvas.c ****     (void) disp_drv; /*Unused*/
 337              		.loc 1 1183 1 is_stmt 0 view .LVU79
 338 0000 30B5     		push	{r4, r5, lr}
 339              	.LCFI2:
 340              		.cfi_def_cfa_offset 12
 341              		.cfi_offset 4, -12
 342              		.cfi_offset 5, -8
 343              		.cfi_offset 14, -4
 344 0002 87B0     		sub	sp, sp, #28
 345              	.LCFI3:
 346              		.cfi_def_cfa_offset 40
ARM GAS  D:\Temp\cc0vPyDE.s 			page 39


 347 0004 9DF83040 		ldrb	r4, [sp, #48]	@ zero_extendqisi2
1184:lvgl/src/lv_widgets/lv_canvas.c **** 
 348              		.loc 1 1184 5 is_stmt 1 view .LVU80
1186:lvgl/src/lv_widgets/lv_canvas.c ****     lv_img_dsc_t d;
 349              		.loc 1 1186 5 view .LVU81
1186:lvgl/src/lv_widgets/lv_canvas.c ****     lv_img_dsc_t d;
 350              		.loc 1 1186 7 is_stmt 0 view .LVU82
 351 0008 022C     		cmp	r4, #2
 352 000a 01D8     		bhi	.L26
 353              	.LVL26:
 354              	.L22:
1193:lvgl/src/lv_widgets/lv_canvas.c **** 
 355              		.loc 1 1193 1 view .LVU83
 356 000c 07B0     		add	sp, sp, #28
 357              	.LCFI4:
 358              		.cfi_remember_state
 359              		.cfi_def_cfa_offset 12
 360              		@ sp needed
 361 000e 30BD     		pop	{r4, r5, pc}
 362              	.LVL27:
 363              	.L26:
 364              	.LCFI5:
 365              		.cfi_restore_state
1193:lvgl/src/lv_widgets/lv_canvas.c **** 
 366              		.loc 1 1193 1 view .LVU84
 367 0010 1D46     		mov	r5, r3
1187:lvgl/src/lv_widgets/lv_canvas.c ****     d.data = buf;
 368              		.loc 1 1187 5 is_stmt 1 view .LVU85
1188:lvgl/src/lv_widgets/lv_canvas.c ****     d.header.w = buf_w;
 369              		.loc 1 1188 5 view .LVU86
1188:lvgl/src/lv_widgets/lv_canvas.c ****     d.header.w = buf_w;
 370              		.loc 1 1188 12 is_stmt 0 view .LVU87
 371 0012 0591     		str	r1, [sp, #20]
1189:lvgl/src/lv_widgets/lv_canvas.c ****     d.header.cf = LV_IMG_CF_ALPHA_8BIT;
 372              		.loc 1 1189 5 is_stmt 1 view .LVU88
1189:lvgl/src/lv_widgets/lv_canvas.c ****     d.header.cf = LV_IMG_CF_ALPHA_8BIT;
 373              		.loc 1 1189 16 is_stmt 0 view .LVU89
 374 0014 0398     		ldr	r0, [sp, #12]
 375              	.LVL28:
1189:lvgl/src/lv_widgets/lv_canvas.c ****     d.header.cf = LV_IMG_CF_ALPHA_8BIT;
 376              		.loc 1 1189 16 view .LVU90
 377 0016 62F39420 		bfi	r0, r2, #10, #11
 378 001a 0390     		str	r0, [sp, #12]
1190:lvgl/src/lv_widgets/lv_canvas.c **** 
 379              		.loc 1 1190 5 is_stmt 1 view .LVU91
1190:lvgl/src/lv_widgets/lv_canvas.c **** 
 380              		.loc 1 1190 17 is_stmt 0 view .LVU92
 381 001c 0E23     		movs	r3, #14
 382              	.LVL29:
1190:lvgl/src/lv_widgets/lv_canvas.c **** 
 383              		.loc 1 1190 17 view .LVU93
 384 001e 63F30400 		bfi	r0, r3, #0, #5
 385 0022 8DF80C00 		strb	r0, [sp, #12]
1192:lvgl/src/lv_widgets/lv_canvas.c **** }
 386              		.loc 1 1192 5 is_stmt 1 view .LVU94
 387 0026 0094     		str	r4, [sp]
 388 0028 BDF82C30 		ldrh	r3, [sp, #44]
ARM GAS  D:\Temp\cc0vPyDE.s 			page 40


 389 002c BDF92820 		ldrsh	r2, [sp, #40]
 390              	.LVL30:
1192:lvgl/src/lv_widgets/lv_canvas.c **** }
 391              		.loc 1 1192 5 is_stmt 0 view .LVU95
 392 0030 2946     		mov	r1, r5
 393              	.LVL31:
1192:lvgl/src/lv_widgets/lv_canvas.c **** }
 394              		.loc 1 1192 5 view .LVU96
 395 0032 03A8     		add	r0, sp, #12
 396 0034 FFF7FEFF 		bl	set_px_alpha_generic
 397              	.LVL32:
1192:lvgl/src/lv_widgets/lv_canvas.c **** }
 398              		.loc 1 1192 5 view .LVU97
 399 0038 E8E7     		b	.L22
 400              		.cfi_endproc
 401              	.LFE480:
 403              		.section	.text.set_px_cb_alpha4,"ax",%progbits
 404              		.align	1
 405              		.syntax unified
 406              		.thumb
 407              		.thumb_func
 408              		.fpu fpv4-sp-d16
 410              	set_px_cb_alpha4:
 411              	.LVL33:
 412              	.LFB479:
1169:lvgl/src/lv_widgets/lv_canvas.c ****     (void) disp_drv; /*Unused*/
 413              		.loc 1 1169 1 is_stmt 1 view -0
 414              		.cfi_startproc
 415              		@ args = 12, pretend = 0, frame = 16
 416              		@ frame_needed = 0, uses_anonymous_args = 0
1169:lvgl/src/lv_widgets/lv_canvas.c ****     (void) disp_drv; /*Unused*/
 417              		.loc 1 1169 1 is_stmt 0 view .LVU99
 418 0000 30B5     		push	{r4, r5, lr}
 419              	.LCFI6:
 420              		.cfi_def_cfa_offset 12
 421              		.cfi_offset 4, -12
 422              		.cfi_offset 5, -8
 423              		.cfi_offset 14, -4
 424 0002 87B0     		sub	sp, sp, #28
 425              	.LCFI7:
 426              		.cfi_def_cfa_offset 40
 427 0004 9DF83040 		ldrb	r4, [sp, #48]	@ zero_extendqisi2
1170:lvgl/src/lv_widgets/lv_canvas.c **** 
 428              		.loc 1 1170 5 is_stmt 1 view .LVU100
1172:lvgl/src/lv_widgets/lv_canvas.c ****     lv_img_dsc_t d;
 429              		.loc 1 1172 5 view .LVU101
1172:lvgl/src/lv_widgets/lv_canvas.c ****     lv_img_dsc_t d;
 430              		.loc 1 1172 7 is_stmt 0 view .LVU102
 431 0008 022C     		cmp	r4, #2
 432 000a 01D8     		bhi	.L31
 433              	.LVL34:
 434              	.L27:
1179:lvgl/src/lv_widgets/lv_canvas.c **** 
 435              		.loc 1 1179 1 view .LVU103
 436 000c 07B0     		add	sp, sp, #28
 437              	.LCFI8:
 438              		.cfi_remember_state
ARM GAS  D:\Temp\cc0vPyDE.s 			page 41


 439              		.cfi_def_cfa_offset 12
 440              		@ sp needed
 441 000e 30BD     		pop	{r4, r5, pc}
 442              	.LVL35:
 443              	.L31:
 444              	.LCFI9:
 445              		.cfi_restore_state
1179:lvgl/src/lv_widgets/lv_canvas.c **** 
 446              		.loc 1 1179 1 view .LVU104
 447 0010 1D46     		mov	r5, r3
1173:lvgl/src/lv_widgets/lv_canvas.c ****     d.data = buf;
 448              		.loc 1 1173 5 is_stmt 1 view .LVU105
1174:lvgl/src/lv_widgets/lv_canvas.c ****     d.header.w = buf_w;
 449              		.loc 1 1174 5 view .LVU106
1174:lvgl/src/lv_widgets/lv_canvas.c ****     d.header.w = buf_w;
 450              		.loc 1 1174 12 is_stmt 0 view .LVU107
 451 0012 0591     		str	r1, [sp, #20]
1175:lvgl/src/lv_widgets/lv_canvas.c ****     d.header.cf = LV_IMG_CF_ALPHA_4BIT;
 452              		.loc 1 1175 5 is_stmt 1 view .LVU108
1175:lvgl/src/lv_widgets/lv_canvas.c ****     d.header.cf = LV_IMG_CF_ALPHA_4BIT;
 453              		.loc 1 1175 16 is_stmt 0 view .LVU109
 454 0014 0398     		ldr	r0, [sp, #12]
 455              	.LVL36:
1175:lvgl/src/lv_widgets/lv_canvas.c ****     d.header.cf = LV_IMG_CF_ALPHA_4BIT;
 456              		.loc 1 1175 16 view .LVU110
 457 0016 62F39420 		bfi	r0, r2, #10, #11
 458 001a 0390     		str	r0, [sp, #12]
1176:lvgl/src/lv_widgets/lv_canvas.c **** 
 459              		.loc 1 1176 5 is_stmt 1 view .LVU111
1176:lvgl/src/lv_widgets/lv_canvas.c **** 
 460              		.loc 1 1176 17 is_stmt 0 view .LVU112
 461 001c 0D23     		movs	r3, #13
 462              	.LVL37:
1176:lvgl/src/lv_widgets/lv_canvas.c **** 
 463              		.loc 1 1176 17 view .LVU113
 464 001e 63F30400 		bfi	r0, r3, #0, #5
 465 0022 8DF80C00 		strb	r0, [sp, #12]
1178:lvgl/src/lv_widgets/lv_canvas.c **** }
 466              		.loc 1 1178 5 is_stmt 1 view .LVU114
 467 0026 0094     		str	r4, [sp]
 468 0028 BDF82C30 		ldrh	r3, [sp, #44]
 469 002c BDF92820 		ldrsh	r2, [sp, #40]
 470              	.LVL38:
1178:lvgl/src/lv_widgets/lv_canvas.c **** }
 471              		.loc 1 1178 5 is_stmt 0 view .LVU115
 472 0030 2946     		mov	r1, r5
 473              	.LVL39:
1178:lvgl/src/lv_widgets/lv_canvas.c **** }
 474              		.loc 1 1178 5 view .LVU116
 475 0032 03A8     		add	r0, sp, #12
 476 0034 FFF7FEFF 		bl	set_px_alpha_generic
 477              	.LVL40:
1178:lvgl/src/lv_widgets/lv_canvas.c **** }
 478              		.loc 1 1178 5 view .LVU117
 479 0038 E8E7     		b	.L27
 480              		.cfi_endproc
 481              	.LFE479:
ARM GAS  D:\Temp\cc0vPyDE.s 			page 42


 483              		.section	.text.set_px_cb_alpha2,"ax",%progbits
 484              		.align	1
 485              		.syntax unified
 486              		.thumb
 487              		.thumb_func
 488              		.fpu fpv4-sp-d16
 490              	set_px_cb_alpha2:
 491              	.LVL41:
 492              	.LFB478:
1155:lvgl/src/lv_widgets/lv_canvas.c ****     (void) disp_drv; /*Unused*/
 493              		.loc 1 1155 1 is_stmt 1 view -0
 494              		.cfi_startproc
 495              		@ args = 12, pretend = 0, frame = 16
 496              		@ frame_needed = 0, uses_anonymous_args = 0
1155:lvgl/src/lv_widgets/lv_canvas.c ****     (void) disp_drv; /*Unused*/
 497              		.loc 1 1155 1 is_stmt 0 view .LVU119
 498 0000 30B5     		push	{r4, r5, lr}
 499              	.LCFI10:
 500              		.cfi_def_cfa_offset 12
 501              		.cfi_offset 4, -12
 502              		.cfi_offset 5, -8
 503              		.cfi_offset 14, -4
 504 0002 87B0     		sub	sp, sp, #28
 505              	.LCFI11:
 506              		.cfi_def_cfa_offset 40
 507 0004 9DF83040 		ldrb	r4, [sp, #48]	@ zero_extendqisi2
1156:lvgl/src/lv_widgets/lv_canvas.c **** 
 508              		.loc 1 1156 5 is_stmt 1 view .LVU120
1158:lvgl/src/lv_widgets/lv_canvas.c ****     lv_img_dsc_t d;
 509              		.loc 1 1158 5 view .LVU121
1158:lvgl/src/lv_widgets/lv_canvas.c ****     lv_img_dsc_t d;
 510              		.loc 1 1158 7 is_stmt 0 view .LVU122
 511 0008 022C     		cmp	r4, #2
 512 000a 01D8     		bhi	.L36
 513              	.LVL42:
 514              	.L32:
1165:lvgl/src/lv_widgets/lv_canvas.c **** 
 515              		.loc 1 1165 1 view .LVU123
 516 000c 07B0     		add	sp, sp, #28
 517              	.LCFI12:
 518              		.cfi_remember_state
 519              		.cfi_def_cfa_offset 12
 520              		@ sp needed
 521 000e 30BD     		pop	{r4, r5, pc}
 522              	.LVL43:
 523              	.L36:
 524              	.LCFI13:
 525              		.cfi_restore_state
1165:lvgl/src/lv_widgets/lv_canvas.c **** 
 526              		.loc 1 1165 1 view .LVU124
 527 0010 1D46     		mov	r5, r3
1159:lvgl/src/lv_widgets/lv_canvas.c ****     d.data = buf;
 528              		.loc 1 1159 5 is_stmt 1 view .LVU125
1160:lvgl/src/lv_widgets/lv_canvas.c ****     d.header.w = buf_w;
 529              		.loc 1 1160 5 view .LVU126
1160:lvgl/src/lv_widgets/lv_canvas.c ****     d.header.w = buf_w;
 530              		.loc 1 1160 12 is_stmt 0 view .LVU127
ARM GAS  D:\Temp\cc0vPyDE.s 			page 43


 531 0012 0591     		str	r1, [sp, #20]
1161:lvgl/src/lv_widgets/lv_canvas.c ****     d.header.cf = LV_IMG_CF_ALPHA_2BIT;
 532              		.loc 1 1161 5 is_stmt 1 view .LVU128
1161:lvgl/src/lv_widgets/lv_canvas.c ****     d.header.cf = LV_IMG_CF_ALPHA_2BIT;
 533              		.loc 1 1161 16 is_stmt 0 view .LVU129
 534 0014 0398     		ldr	r0, [sp, #12]
 535              	.LVL44:
1161:lvgl/src/lv_widgets/lv_canvas.c ****     d.header.cf = LV_IMG_CF_ALPHA_2BIT;
 536              		.loc 1 1161 16 view .LVU130
 537 0016 62F39420 		bfi	r0, r2, #10, #11
 538 001a 0390     		str	r0, [sp, #12]
1162:lvgl/src/lv_widgets/lv_canvas.c **** 
 539              		.loc 1 1162 5 is_stmt 1 view .LVU131
1162:lvgl/src/lv_widgets/lv_canvas.c **** 
 540              		.loc 1 1162 17 is_stmt 0 view .LVU132
 541 001c 0C23     		movs	r3, #12
 542              	.LVL45:
1162:lvgl/src/lv_widgets/lv_canvas.c **** 
 543              		.loc 1 1162 17 view .LVU133
 544 001e 63F30400 		bfi	r0, r3, #0, #5
 545 0022 8DF80C00 		strb	r0, [sp, #12]
1164:lvgl/src/lv_widgets/lv_canvas.c **** }
 546              		.loc 1 1164 5 is_stmt 1 view .LVU134
 547 0026 0094     		str	r4, [sp]
 548 0028 BDF82C30 		ldrh	r3, [sp, #44]
 549 002c BDF92820 		ldrsh	r2, [sp, #40]
 550              	.LVL46:
1164:lvgl/src/lv_widgets/lv_canvas.c **** }
 551              		.loc 1 1164 5 is_stmt 0 view .LVU135
 552 0030 2946     		mov	r1, r5
 553              	.LVL47:
1164:lvgl/src/lv_widgets/lv_canvas.c **** }
 554              		.loc 1 1164 5 view .LVU136
 555 0032 03A8     		add	r0, sp, #12
 556 0034 FFF7FEFF 		bl	set_px_alpha_generic
 557              	.LVL48:
1164:lvgl/src/lv_widgets/lv_canvas.c **** }
 558              		.loc 1 1164 5 view .LVU137
 559 0038 E8E7     		b	.L32
 560              		.cfi_endproc
 561              	.LFE478:
 563              		.section	.text.set_px_cb_alpha1,"ax",%progbits
 564              		.align	1
 565              		.syntax unified
 566              		.thumb
 567              		.thumb_func
 568              		.fpu fpv4-sp-d16
 570              	set_px_cb_alpha1:
 571              	.LVL49:
 572              	.LFB477:
1141:lvgl/src/lv_widgets/lv_canvas.c ****     (void) disp_drv; /*Unused*/
 573              		.loc 1 1141 1 is_stmt 1 view -0
 574              		.cfi_startproc
 575              		@ args = 12, pretend = 0, frame = 16
 576              		@ frame_needed = 0, uses_anonymous_args = 0
1141:lvgl/src/lv_widgets/lv_canvas.c ****     (void) disp_drv; /*Unused*/
 577              		.loc 1 1141 1 is_stmt 0 view .LVU139
ARM GAS  D:\Temp\cc0vPyDE.s 			page 44


 578 0000 30B5     		push	{r4, r5, lr}
 579              	.LCFI14:
 580              		.cfi_def_cfa_offset 12
 581              		.cfi_offset 4, -12
 582              		.cfi_offset 5, -8
 583              		.cfi_offset 14, -4
 584 0002 87B0     		sub	sp, sp, #28
 585              	.LCFI15:
 586              		.cfi_def_cfa_offset 40
 587 0004 9DF83040 		ldrb	r4, [sp, #48]	@ zero_extendqisi2
1142:lvgl/src/lv_widgets/lv_canvas.c **** 
 588              		.loc 1 1142 5 is_stmt 1 view .LVU140
1144:lvgl/src/lv_widgets/lv_canvas.c ****     lv_img_dsc_t d;
 589              		.loc 1 1144 5 view .LVU141
1144:lvgl/src/lv_widgets/lv_canvas.c ****     lv_img_dsc_t d;
 590              		.loc 1 1144 7 is_stmt 0 view .LVU142
 591 0008 022C     		cmp	r4, #2
 592 000a 01D8     		bhi	.L41
 593              	.LVL50:
 594              	.L37:
1151:lvgl/src/lv_widgets/lv_canvas.c **** 
 595              		.loc 1 1151 1 view .LVU143
 596 000c 07B0     		add	sp, sp, #28
 597              	.LCFI16:
 598              		.cfi_remember_state
 599              		.cfi_def_cfa_offset 12
 600              		@ sp needed
 601 000e 30BD     		pop	{r4, r5, pc}
 602              	.LVL51:
 603              	.L41:
 604              	.LCFI17:
 605              		.cfi_restore_state
1151:lvgl/src/lv_widgets/lv_canvas.c **** 
 606              		.loc 1 1151 1 view .LVU144
 607 0010 1D46     		mov	r5, r3
1145:lvgl/src/lv_widgets/lv_canvas.c ****     d.data = buf;
 608              		.loc 1 1145 5 is_stmt 1 view .LVU145
1146:lvgl/src/lv_widgets/lv_canvas.c ****     d.header.w = buf_w;
 609              		.loc 1 1146 5 view .LVU146
1146:lvgl/src/lv_widgets/lv_canvas.c ****     d.header.w = buf_w;
 610              		.loc 1 1146 12 is_stmt 0 view .LVU147
 611 0012 0591     		str	r1, [sp, #20]
1147:lvgl/src/lv_widgets/lv_canvas.c ****     d.header.cf = LV_IMG_CF_ALPHA_1BIT;
 612              		.loc 1 1147 5 is_stmt 1 view .LVU148
1147:lvgl/src/lv_widgets/lv_canvas.c ****     d.header.cf = LV_IMG_CF_ALPHA_1BIT;
 613              		.loc 1 1147 16 is_stmt 0 view .LVU149
 614 0014 0398     		ldr	r0, [sp, #12]
 615              	.LVL52:
1147:lvgl/src/lv_widgets/lv_canvas.c ****     d.header.cf = LV_IMG_CF_ALPHA_1BIT;
 616              		.loc 1 1147 16 view .LVU150
 617 0016 62F39420 		bfi	r0, r2, #10, #11
 618 001a 0390     		str	r0, [sp, #12]
1148:lvgl/src/lv_widgets/lv_canvas.c **** 
 619              		.loc 1 1148 5 is_stmt 1 view .LVU151
1148:lvgl/src/lv_widgets/lv_canvas.c **** 
 620              		.loc 1 1148 17 is_stmt 0 view .LVU152
 621 001c 0B23     		movs	r3, #11
ARM GAS  D:\Temp\cc0vPyDE.s 			page 45


 622              	.LVL53:
1148:lvgl/src/lv_widgets/lv_canvas.c **** 
 623              		.loc 1 1148 17 view .LVU153
 624 001e 63F30400 		bfi	r0, r3, #0, #5
 625 0022 8DF80C00 		strb	r0, [sp, #12]
1150:lvgl/src/lv_widgets/lv_canvas.c **** }
 626              		.loc 1 1150 5 is_stmt 1 view .LVU154
 627 0026 0094     		str	r4, [sp]
 628 0028 BDF82C30 		ldrh	r3, [sp, #44]
 629 002c BDF92820 		ldrsh	r2, [sp, #40]
 630              	.LVL54:
1150:lvgl/src/lv_widgets/lv_canvas.c **** }
 631              		.loc 1 1150 5 is_stmt 0 view .LVU155
 632 0030 2946     		mov	r1, r5
 633              	.LVL55:
1150:lvgl/src/lv_widgets/lv_canvas.c **** }
 634              		.loc 1 1150 5 view .LVU156
 635 0032 03A8     		add	r0, sp, #12
 636 0034 FFF7FEFF 		bl	set_px_alpha_generic
 637              	.LVL56:
1150:lvgl/src/lv_widgets/lv_canvas.c **** }
 638              		.loc 1 1150 5 view .LVU157
 639 0038 E8E7     		b	.L37
 640              		.cfi_endproc
 641              	.LFE477:
 643              		.section	.text.set_px_true_color_alpha,"ax",%progbits
 644              		.align	1
 645              		.syntax unified
 646              		.thumb
 647              		.thumb_func
 648              		.fpu fpv4-sp-d16
 650              	set_px_true_color_alpha:
 651              	.LVL57:
 652              	.LFB482:
1208:lvgl/src/lv_widgets/lv_canvas.c **** 
1209:lvgl/src/lv_widgets/lv_canvas.c **** static void set_px_true_color_alpha(lv_disp_drv_t * disp_drv, uint8_t * buf, lv_coord_t buf_w, lv_c
1210:lvgl/src/lv_widgets/lv_canvas.c ****                                     lv_coord_t y,
1211:lvgl/src/lv_widgets/lv_canvas.c ****                                     lv_color_t color, lv_opa_t opa)
1212:lvgl/src/lv_widgets/lv_canvas.c **** {
 653              		.loc 1 1212 1 is_stmt 1 view -0
 654              		.cfi_startproc
 655              		@ args = 12, pretend = 0, frame = 24
 656              		@ frame_needed = 0, uses_anonymous_args = 0
 657              		.loc 1 1212 1 is_stmt 0 view .LVU159
 658 0000 F0B5     		push	{r4, r5, r6, r7, lr}
 659              	.LCFI18:
 660              		.cfi_def_cfa_offset 20
 661              		.cfi_offset 4, -20
 662              		.cfi_offset 5, -16
 663              		.cfi_offset 6, -12
 664              		.cfi_offset 7, -8
 665              		.cfi_offset 14, -4
 666 0002 87B0     		sub	sp, sp, #28
 667              	.LCFI19:
 668              		.cfi_def_cfa_offset 48
 669 0004 BDF93060 		ldrsh	r6, [sp, #48]
 670 0008 BDF83400 		ldrh	r0, [sp, #52]
ARM GAS  D:\Temp\cc0vPyDE.s 			page 46


 671              	.LVL58:
 672              		.loc 1 1212 1 view .LVU160
 673 000c ADF80400 		strh	r0, [sp, #4]	@ movhi
 674 0010 9DF83840 		ldrb	r4, [sp, #56]	@ zero_extendqisi2
1213:lvgl/src/lv_widgets/lv_canvas.c ****     (void) disp_drv; /*Unused*/
 675              		.loc 1 1213 5 is_stmt 1 view .LVU161
1214:lvgl/src/lv_widgets/lv_canvas.c **** 
1215:lvgl/src/lv_widgets/lv_canvas.c ****     if(opa <= LV_OPA_MIN) return;
 676              		.loc 1 1215 5 view .LVU162
 677              		.loc 1 1215 7 is_stmt 0 view .LVU163
 678 0014 022C     		cmp	r4, #2
 679 0016 01D8     		bhi	.L53
 680              	.LVL59:
 681              	.L42:
1216:lvgl/src/lv_widgets/lv_canvas.c ****     lv_img_dsc_t d;
1217:lvgl/src/lv_widgets/lv_canvas.c ****     d.data = buf;
1218:lvgl/src/lv_widgets/lv_canvas.c ****     d.header.always_zero = 0;
1219:lvgl/src/lv_widgets/lv_canvas.c ****     d.header.h = LV_VER_RES_MAX;
1220:lvgl/src/lv_widgets/lv_canvas.c ****     d.header.w = buf_w;
1221:lvgl/src/lv_widgets/lv_canvas.c ****     d.header.cf = LV_IMG_CF_TRUE_COLOR_ALPHA;
1222:lvgl/src/lv_widgets/lv_canvas.c **** 
1223:lvgl/src/lv_widgets/lv_canvas.c ****     lv_color_t bg_color = lv_img_buf_get_px_color(&d, x, y, LV_COLOR_BLACK);
1224:lvgl/src/lv_widgets/lv_canvas.c ****     lv_opa_t bg_opa = lv_img_buf_get_px_alpha(&d, x, y);
1225:lvgl/src/lv_widgets/lv_canvas.c **** 
1226:lvgl/src/lv_widgets/lv_canvas.c ****     lv_opa_t res_opa;
1227:lvgl/src/lv_widgets/lv_canvas.c ****     lv_color_t res_color;
1228:lvgl/src/lv_widgets/lv_canvas.c **** 
1229:lvgl/src/lv_widgets/lv_canvas.c ****     lv_color_mix_with_alpha(bg_color, bg_opa, color, opa, &res_color, &res_opa);
1230:lvgl/src/lv_widgets/lv_canvas.c **** 
1231:lvgl/src/lv_widgets/lv_canvas.c ****     lv_img_buf_set_px_alpha(&d, x, y, res_opa);
1232:lvgl/src/lv_widgets/lv_canvas.c ****     lv_img_buf_set_px_color(&d, x, y, res_color);
1233:lvgl/src/lv_widgets/lv_canvas.c **** }
 682              		.loc 1 1233 1 view .LVU164
 683 0018 07B0     		add	sp, sp, #28
 684              	.LCFI20:
 685              		.cfi_remember_state
 686              		.cfi_def_cfa_offset 20
 687              		@ sp needed
 688 001a F0BD     		pop	{r4, r5, r6, r7, pc}
 689              	.LVL60:
 690              	.L53:
 691              	.LCFI21:
 692              		.cfi_restore_state
 693              		.loc 1 1233 1 view .LVU165
 694 001c 1D46     		mov	r5, r3
1216:lvgl/src/lv_widgets/lv_canvas.c ****     lv_img_dsc_t d;
 695              		.loc 1 1216 5 is_stmt 1 view .LVU166
1217:lvgl/src/lv_widgets/lv_canvas.c ****     d.header.always_zero = 0;
 696              		.loc 1 1217 5 view .LVU167
1217:lvgl/src/lv_widgets/lv_canvas.c ****     d.header.always_zero = 0;
 697              		.loc 1 1217 12 is_stmt 0 view .LVU168
 698 001e 0591     		str	r1, [sp, #20]
1218:lvgl/src/lv_widgets/lv_canvas.c ****     d.header.h = LV_VER_RES_MAX;
 699              		.loc 1 1218 5 is_stmt 1 view .LVU169
1218:lvgl/src/lv_widgets/lv_canvas.c ****     d.header.h = LV_VER_RES_MAX;
 700              		.loc 1 1218 26 is_stmt 0 view .LVU170
 701 0020 9DF80C30 		ldrb	r3, [sp, #12]	@ zero_extendqisi2
ARM GAS  D:\Temp\cc0vPyDE.s 			page 47


 702              	.LVL61:
1218:lvgl/src/lv_widgets/lv_canvas.c ****     d.header.h = LV_VER_RES_MAX;
 703              		.loc 1 1218 26 view .LVU171
 704 0024 6FF34713 		bfc	r3, #5, #3
 705 0028 8DF80C30 		strb	r3, [sp, #12]
1219:lvgl/src/lv_widgets/lv_canvas.c ****     d.header.w = buf_w;
 706              		.loc 1 1219 5 is_stmt 1 view .LVU172
1219:lvgl/src/lv_widgets/lv_canvas.c ****     d.header.w = buf_w;
 707              		.loc 1 1219 16 is_stmt 0 view .LVU173
 708 002c BDF80E30 		ldrh	r3, [sp, #14]
 709 0030 F021     		movs	r1, #240
 710              	.LVL62:
1219:lvgl/src/lv_widgets/lv_canvas.c ****     d.header.w = buf_w;
 711              		.loc 1 1219 16 view .LVU174
 712 0032 61F34F13 		bfi	r3, r1, #5, #11
 713 0036 ADF80E30 		strh	r3, [sp, #14]	@ movhi
1220:lvgl/src/lv_widgets/lv_canvas.c ****     d.header.cf = LV_IMG_CF_TRUE_COLOR_ALPHA;
 714              		.loc 1 1220 5 is_stmt 1 view .LVU175
1220:lvgl/src/lv_widgets/lv_canvas.c ****     d.header.cf = LV_IMG_CF_TRUE_COLOR_ALPHA;
 715              		.loc 1 1220 16 is_stmt 0 view .LVU176
 716 003a 039B     		ldr	r3, [sp, #12]
 717 003c 62F39423 		bfi	r3, r2, #10, #11
 718 0040 0393     		str	r3, [sp, #12]
1221:lvgl/src/lv_widgets/lv_canvas.c **** 
 719              		.loc 1 1221 5 is_stmt 1 view .LVU177
1221:lvgl/src/lv_widgets/lv_canvas.c **** 
 720              		.loc 1 1221 17 is_stmt 0 view .LVU178
 721 0042 0522     		movs	r2, #5
 722              	.LVL63:
1221:lvgl/src/lv_widgets/lv_canvas.c **** 
 723              		.loc 1 1221 17 view .LVU179
 724 0044 62F30403 		bfi	r3, r2, #0, #5
 725 0048 8DF80C30 		strb	r3, [sp, #12]
1223:lvgl/src/lv_widgets/lv_canvas.c ****     lv_opa_t bg_opa = lv_img_buf_get_px_alpha(&d, x, y);
 726              		.loc 1 1223 5 is_stmt 1 view .LVU180
1223:lvgl/src/lv_widgets/lv_canvas.c ****     lv_opa_t bg_opa = lv_img_buf_get_px_alpha(&d, x, y);
 727              		.loc 1 1223 27 is_stmt 0 view .LVU181
 728 004c 4FF00003 		mov	r3, #0	@ movhi
 729 0050 3246     		mov	r2, r6
 730 0052 2946     		mov	r1, r5
 731 0054 03A8     		add	r0, sp, #12
 732 0056 FFF7FEFF 		bl	lv_img_buf_get_px_color
 733              	.LVL64:
1223:lvgl/src/lv_widgets/lv_canvas.c ****     lv_opa_t bg_opa = lv_img_buf_get_px_alpha(&d, x, y);
 734              		.loc 1 1223 27 view .LVU182
 735 005a 0746     		mov	r7, r0	@ movhi
 736              	.LVL65:
1224:lvgl/src/lv_widgets/lv_canvas.c **** 
 737              		.loc 1 1224 5 is_stmt 1 view .LVU183
1224:lvgl/src/lv_widgets/lv_canvas.c **** 
 738              		.loc 1 1224 23 is_stmt 0 view .LVU184
 739 005c 3246     		mov	r2, r6
 740 005e 2946     		mov	r1, r5
 741 0060 03A8     		add	r0, sp, #12
 742 0062 FFF7FEFF 		bl	lv_img_buf_get_px_alpha
 743              	.LVL66:
1226:lvgl/src/lv_widgets/lv_canvas.c ****     lv_color_t res_color;
ARM GAS  D:\Temp\cc0vPyDE.s 			page 48


 744              		.loc 1 1226 5 is_stmt 1 view .LVU185
1227:lvgl/src/lv_widgets/lv_canvas.c **** 
 745              		.loc 1 1227 5 view .LVU186
1229:lvgl/src/lv_widgets/lv_canvas.c **** 
 746              		.loc 1 1229 5 view .LVU187
 747              	.LBB74:
 748              	.LBI74:
 523:lvgl/src/lv_widgets/../lv_core/../lv_misc/lv_color.h ****                                                                  lv_color_t fg_color, lv_opa_t fg_o
 749              		.loc 2 523 42 view .LVU188
 750              	.LBB75:
 528:lvgl/src/lv_widgets/../lv_core/../lv_misc/lv_color.h ****         res_color->full = fg_color.full;
 751              		.loc 2 528 5 view .LVU189
 528:lvgl/src/lv_widgets/../lv_core/../lv_misc/lv_color.h ****         res_color->full = fg_color.full;
 752              		.loc 2 528 7 is_stmt 0 view .LVU190
 753 0066 FC2C     		cmp	r4, #252
 754 0068 01D8     		bhi	.L45
 528:lvgl/src/lv_widgets/../lv_core/../lv_misc/lv_color.h ****         res_color->full = fg_color.full;
 755              		.loc 2 528 29 view .LVU191
 756 006a 0228     		cmp	r0, #2
 757 006c 0ED8     		bhi	.L46
 758              	.L45:
 529:lvgl/src/lv_widgets/../lv_core/../lv_misc/lv_color.h ****         *res_opa = fg_opa;
 759              		.loc 2 529 9 is_stmt 1 view .LVU192
 529:lvgl/src/lv_widgets/../lv_core/../lv_misc/lv_color.h ****         *res_opa = fg_opa;
 760              		.loc 2 529 25 is_stmt 0 view .LVU193
 761 006e BDF80470 		ldrh	r7, [sp, #4]
 530:lvgl/src/lv_widgets/../lv_core/../lv_misc/lv_color.h ****     }
 762              		.loc 2 530 9 is_stmt 1 view .LVU194
 763              	.LVL67:
 764              	.L47:
 530:lvgl/src/lv_widgets/../lv_core/../lv_misc/lv_color.h ****     }
 765              		.loc 2 530 9 is_stmt 0 view .LVU195
 766              	.LBE75:
 767              	.LBE74:
1231:lvgl/src/lv_widgets/lv_canvas.c ****     lv_img_buf_set_px_color(&d, x, y, res_color);
 768              		.loc 1 1231 5 is_stmt 1 view .LVU196
 769 0072 2346     		mov	r3, r4
 770 0074 3246     		mov	r2, r6
 771              	.LVL68:
1231:lvgl/src/lv_widgets/lv_canvas.c ****     lv_img_buf_set_px_color(&d, x, y, res_color);
 772              		.loc 1 1231 5 is_stmt 0 view .LVU197
 773 0076 2946     		mov	r1, r5
 774              	.LVL69:
1231:lvgl/src/lv_widgets/lv_canvas.c ****     lv_img_buf_set_px_color(&d, x, y, res_color);
 775              		.loc 1 1231 5 view .LVU198
 776 0078 03A8     		add	r0, sp, #12
 777 007a FFF7FEFF 		bl	lv_img_buf_set_px_alpha
 778              	.LVL70:
1232:lvgl/src/lv_widgets/lv_canvas.c **** }
 779              		.loc 1 1232 5 is_stmt 1 view .LVU199
1232:lvgl/src/lv_widgets/lv_canvas.c **** }
 780              		.loc 1 1232 5 is_stmt 0 view .LVU200
 781 007e 3B46     		mov	r3, r7	@ movhi
 782 0080 3246     		mov	r2, r6
 783 0082 2946     		mov	r1, r5
 784 0084 03A8     		add	r0, sp, #12
 785 0086 FFF7FEFF 		bl	lv_img_buf_set_px_color
ARM GAS  D:\Temp\cc0vPyDE.s 			page 49


 786              	.LVL71:
1232:lvgl/src/lv_widgets/lv_canvas.c **** }
 787              		.loc 1 1232 5 view .LVU201
 788 008a C5E7     		b	.L42
 789              	.LVL72:
 790              	.L46:
 791              	.LBB83:
 792              	.LBB82:
 533:lvgl/src/lv_widgets/../lv_core/../lv_misc/lv_color.h ****         res_color->full = bg_color.full;
 793              		.loc 2 533 10 is_stmt 1 view .LVU202
 533:lvgl/src/lv_widgets/../lv_core/../lv_misc/lv_color.h ****         res_color->full = bg_color.full;
 794              		.loc 2 533 12 is_stmt 0 view .LVU203
 795 008c 022C     		cmp	r4, #2
 796 008e 01D8     		bhi	.L48
 534:lvgl/src/lv_widgets/../lv_core/../lv_misc/lv_color.h ****         *res_opa = bg_opa;
 797              		.loc 2 534 9 is_stmt 1 view .LVU204
 535:lvgl/src/lv_widgets/../lv_core/../lv_misc/lv_color.h ****     }
 798              		.loc 2 535 9 view .LVU205
 799              	.LVL73:
 535:lvgl/src/lv_widgets/../lv_core/../lv_misc/lv_color.h ****     }
 800              		.loc 2 535 18 is_stmt 0 view .LVU206
 801 0090 0446     		mov	r4, r0
 802              	.LVL74:
 535:lvgl/src/lv_widgets/../lv_core/../lv_misc/lv_color.h ****     }
 803              		.loc 2 535 18 view .LVU207
 804 0092 EEE7     		b	.L47
 805              	.LVL75:
 806              	.L48:
 538:lvgl/src/lv_widgets/../lv_core/../lv_misc/lv_color.h ****         *res_color = lv_color_mix(fg_color, bg_color, fg_opa);
 807              		.loc 2 538 10 is_stmt 1 view .LVU208
 538:lvgl/src/lv_widgets/../lv_core/../lv_misc/lv_color.h ****         *res_color = lv_color_mix(fg_color, bg_color, fg_opa);
 808              		.loc 2 538 12 is_stmt 0 view .LVU209
 809 0094 FC28     		cmp	r0, #252
 810 0096 3ED9     		bls	.L49
 539:lvgl/src/lv_widgets/../lv_core/../lv_misc/lv_color.h ****         *res_opa = LV_OPA_COVER;
 811              		.loc 2 539 9 is_stmt 1 view .LVU210
 812              	.LVL76:
 813              	.LBB76:
 814              	.LBI76:
 447:lvgl/src/lv_widgets/../lv_core/../lv_misc/lv_color.h **** {
 815              		.loc 2 447 48 view .LVU211
 816              	.LBB77:
 449:lvgl/src/lv_widgets/../lv_core/../lv_misc/lv_color.h **** #if LV_COLOR_DEPTH != 1
 817              		.loc 2 449 5 view .LVU212
 452:lvgl/src/lv_widgets/../lv_core/../lv_misc/lv_color.h ****                                         (255 - mix) + LV_COLOR_MIX_ROUND_OFS));
 818              		.loc 2 452 5 view .LVU213
 819 0098 BDF80430 		ldrh	r3, [sp, #4]
 820 009c DB0A     		lsrs	r3, r3, #11
 821              	.LVL77:
 452:lvgl/src/lv_widgets/../lv_core/../lv_misc/lv_color.h ****                                         (255 - mix) + LV_COLOR_MIX_ROUND_OFS));
 822              		.loc 2 452 5 is_stmt 0 view .LVU214
 823 009e C7F3C422 		ubfx	r2, r7, #11, #5
 824 00a2 C4F1FF01 		rsb	r1, r4, #255
 825 00a6 01FB02F2 		mul	r2, r1, r2
 826 00aa 04FB0323 		mla	r3, r4, r3, r2
 827 00ae 8033     		adds	r3, r3, #128
 828 00b0 03EB0322 		add	r2, r3, r3, lsl #8
ARM GAS  D:\Temp\cc0vPyDE.s 			page 50


 829 00b4 03EBC213 		add	r3, r3, r2, lsl #7
 830 00b8 C3F3C453 		ubfx	r3, r3, #23, #5
 831 00bc 4FF00002 		mov	r2, #0	@ movhi
 452:lvgl/src/lv_widgets/../lv_core/../lv_misc/lv_color.h ****                                         (255 - mix) + LV_COLOR_MIX_ROUND_OFS));
 832              		.loc 2 452 5 view .LVU215
 833 00c0 63F3CF22 		bfi	r2, r3, #11, #5
 834              	.LVL78:
 454:lvgl/src/lv_widgets/../lv_core/../lv_misc/lv_color.h ****                                         (255 - mix) + LV_COLOR_MIX_ROUND_OFS));
 835              		.loc 2 454 5 is_stmt 1 view .LVU216
 836 00c4 BDF80430 		ldrh	r3, [sp, #4]
 837 00c8 C3F34513 		ubfx	r3, r3, #5, #6
 838 00cc C7F34510 		ubfx	r0, r7, #5, #6
 839              	.LVL79:
 454:lvgl/src/lv_widgets/../lv_core/../lv_misc/lv_color.h ****                                         (255 - mix) + LV_COLOR_MIX_ROUND_OFS));
 840              		.loc 2 454 5 is_stmt 0 view .LVU217
 841 00d0 00FB01F0 		mul	r0, r0, r1
 842 00d4 03FB0403 		mla	r3, r3, r4, r0
 843 00d8 8033     		adds	r3, r3, #128
 844 00da 03EB0320 		add	r0, r3, r3, lsl #8
 845 00de 03EBC013 		add	r3, r3, r0, lsl #7
 846 00e2 C3F3C553 		ubfx	r3, r3, #23, #6
 847 00e6 63F34A12 		bfi	r2, r3, #5, #6
 456:lvgl/src/lv_widgets/../lv_core/../lv_misc/lv_color.h ****                                         (255 - mix) + LV_COLOR_MIX_ROUND_OFS));
 848              		.loc 2 456 5 is_stmt 1 view .LVU218
 849 00ea BDF80430 		ldrh	r3, [sp, #4]
 850 00ee 03F01F03 		and	r3, r3, #31
 851 00f2 07F01F07 		and	r7, r7, #31
 852              	.LVL80:
 456:lvgl/src/lv_widgets/../lv_core/../lv_misc/lv_color.h ****                                         (255 - mix) + LV_COLOR_MIX_ROUND_OFS));
 853              		.loc 2 456 5 is_stmt 0 view .LVU219
 854 00f6 07FB01F1 		mul	r1, r7, r1
 855 00fa 03FB0414 		mla	r4, r3, r4, r1
 856              	.LVL81:
 456:lvgl/src/lv_widgets/../lv_core/../lv_misc/lv_color.h ****                                         (255 - mix) + LV_COLOR_MIX_ROUND_OFS));
 857              		.loc 2 456 5 view .LVU220
 858 00fe 8034     		adds	r4, r4, #128
 859 0100 04EB0423 		add	r3, r4, r4, lsl #8
 860 0104 04EBC314 		add	r4, r4, r3, lsl #7
 861 0108 C4F3C454 		ubfx	r4, r4, #23, #5
 862 010c 64F30402 		bfi	r2, r4, #0, #5
 458:lvgl/src/lv_widgets/../lv_core/../lv_misc/lv_color.h **** #else
 863              		.loc 2 458 5 is_stmt 1 view .LVU221
 458:lvgl/src/lv_widgets/../lv_core/../lv_misc/lv_color.h **** #else
 864              		.loc 2 458 5 view .LVU222
 464:lvgl/src/lv_widgets/../lv_core/../lv_misc/lv_color.h **** }
 865              		.loc 2 464 5 view .LVU223
 464:lvgl/src/lv_widgets/../lv_core/../lv_misc/lv_color.h **** }
 866              		.loc 2 464 5 is_stmt 0 view .LVU224
 867              	.LBE77:
 868              	.LBE76:
 539:lvgl/src/lv_widgets/../lv_core/../lv_misc/lv_color.h ****         *res_opa = LV_OPA_COVER;
 869              		.loc 2 539 22 view .LVU225
 870 0110 1746     		mov	r7, r2	@ movhi
 540:lvgl/src/lv_widgets/../lv_core/../lv_misc/lv_color.h ****     }
 871              		.loc 2 540 9 is_stmt 1 view .LVU226
 872              	.LVL82:
 540:lvgl/src/lv_widgets/../lv_core/../lv_misc/lv_color.h ****     }
ARM GAS  D:\Temp\cc0vPyDE.s 			page 51


 873              		.loc 2 540 18 is_stmt 0 view .LVU227
 874 0112 FF24     		movs	r4, #255
 875 0114 ADE7     		b	.L47
 876              	.LVL83:
 877              	.L49:
 878              	.LBB78:
 545:lvgl/src/lv_widgets/../lv_core/../lv_misc/lv_color.h ****         static lv_opa_t bg_opa_save     = 0;
 879              		.loc 2 545 9 is_stmt 1 view .LVU228
 546:lvgl/src/lv_widgets/../lv_core/../lv_misc/lv_color.h ****         static lv_color_t fg_color_save = _LV_COLOR_ZERO_INITIALIZER;
 880              		.loc 2 546 9 view .LVU229
 547:lvgl/src/lv_widgets/../lv_core/../lv_misc/lv_color.h ****         static lv_color_t bg_color_save = _LV_COLOR_ZERO_INITIALIZER;
 881              		.loc 2 547 9 view .LVU230
 548:lvgl/src/lv_widgets/../lv_core/../lv_misc/lv_color.h ****         static lv_color_t res_color_saved = _LV_COLOR_ZERO_INITIALIZER;
 882              		.loc 2 548 9 view .LVU231
 549:lvgl/src/lv_widgets/../lv_core/../lv_misc/lv_color.h ****         static lv_opa_t res_opa_saved = 0;
 883              		.loc 2 549 9 view .LVU232
 550:lvgl/src/lv_widgets/../lv_core/../lv_misc/lv_color.h **** 
 884              		.loc 2 550 9 view .LVU233
 552:lvgl/src/lv_widgets/../lv_core/../lv_misc/lv_color.h ****            bg_color.full != bg_color_save.full) {
 885              		.loc 2 552 9 view .LVU234
 552:lvgl/src/lv_widgets/../lv_core/../lv_misc/lv_color.h ****            bg_color.full != bg_color_save.full) {
 886              		.loc 2 552 19 is_stmt 0 view .LVU235
 887 0116 3A4B     		ldr	r3, .L55
 888 0118 1B78     		ldrb	r3, [r3]	@ zero_extendqisi2
 552:lvgl/src/lv_widgets/../lv_core/../lv_misc/lv_color.h ****            bg_color.full != bg_color_save.full) {
 889              		.loc 2 552 11 view .LVU236
 890 011a 9C42     		cmp	r4, r3
 891 011c 5FD0     		beq	.L54
 892              	.LVL84:
 893              	.L50:
 894              	.LBB79:
 554:lvgl/src/lv_widgets/../lv_core/../lv_misc/lv_color.h ****             bg_opa_save        = bg_opa;
 895              		.loc 2 554 13 is_stmt 1 view .LVU237
 554:lvgl/src/lv_widgets/../lv_core/../lv_misc/lv_color.h ****             bg_opa_save        = bg_opa;
 896              		.loc 2 554 32 is_stmt 0 view .LVU238
 897 011e 384B     		ldr	r3, .L55
 898 0120 1C70     		strb	r4, [r3]
 555:lvgl/src/lv_widgets/../lv_core/../lv_misc/lv_color.h ****             fg_color_save.full = fg_color.full;
 899              		.loc 2 555 13 is_stmt 1 view .LVU239
 555:lvgl/src/lv_widgets/../lv_core/../lv_misc/lv_color.h ****             fg_color_save.full = fg_color.full;
 900              		.loc 2 555 32 is_stmt 0 view .LVU240
 901 0122 384B     		ldr	r3, .L55+4
 902 0124 1870     		strb	r0, [r3]
 556:lvgl/src/lv_widgets/../lv_core/../lv_misc/lv_color.h ****             bg_color_save.full = bg_color.full;
 903              		.loc 2 556 13 is_stmt 1 view .LVU241
 556:lvgl/src/lv_widgets/../lv_core/../lv_misc/lv_color.h ****             bg_color_save.full = bg_color.full;
 904              		.loc 2 556 32 is_stmt 0 view .LVU242
 905 0126 384B     		ldr	r3, .L55+8
 906 0128 BDF80420 		ldrh	r2, [sp, #4]
 907              	.LVL85:
 556:lvgl/src/lv_widgets/../lv_core/../lv_misc/lv_color.h ****             bg_color_save.full = bg_color.full;
 908              		.loc 2 556 32 view .LVU243
 909 012c 1A80     		strh	r2, [r3]	@ movhi
 557:lvgl/src/lv_widgets/../lv_core/../lv_misc/lv_color.h ****             /*Info:
 910              		.loc 2 557 13 is_stmt 1 view .LVU244
 557:lvgl/src/lv_widgets/../lv_core/../lv_misc/lv_color.h ****             /*Info:
 911              		.loc 2 557 32 is_stmt 0 view .LVU245
ARM GAS  D:\Temp\cc0vPyDE.s 			page 52


 912 012e 374B     		ldr	r3, .L55+12
 913 0130 1F80     		strh	r7, [r3]	@ movhi
 560:lvgl/src/lv_widgets/../lv_core/../lv_misc/lv_color.h ****             if(res_opa_saved == 0) {
 914              		.loc 2 560 13 is_stmt 1 view .LVU246
 560:lvgl/src/lv_widgets/../lv_core/../lv_misc/lv_color.h ****             if(res_opa_saved == 0) {
 915              		.loc 2 560 47 is_stmt 0 view .LVU247
 916 0132 A4B2     		uxth	r4, r4
 917              	.LVL86:
 560:lvgl/src/lv_widgets/../lv_core/../lv_misc/lv_color.h ****             if(res_opa_saved == 0) {
 918              		.loc 2 560 47 view .LVU248
 919 0134 C4F1FF02 		rsb	r2, r4, #255
 920              	.LVL87:
 560:lvgl/src/lv_widgets/../lv_core/../lv_misc/lv_color.h ****             if(res_opa_saved == 0) {
 921              		.loc 2 560 79 view .LVU249
 922 0138 C0F1FF03 		rsb	r3, r0, #255
 560:lvgl/src/lv_widgets/../lv_core/../lv_misc/lv_color.h ****             if(res_opa_saved == 0) {
 923              		.loc 2 560 36 view .LVU250
 924 013c 13FB02F3 		smulbb	r3, r3, r2
 560:lvgl/src/lv_widgets/../lv_core/../lv_misc/lv_color.h ****             if(res_opa_saved == 0) {
 925              		.loc 2 560 33 view .LVU251
 926 0140 C3F30723 		ubfx	r3, r3, #8, #8
 927 0144 DB43     		mvns	r3, r3
 928 0146 DBB2     		uxtb	r3, r3
 560:lvgl/src/lv_widgets/../lv_core/../lv_misc/lv_color.h ****             if(res_opa_saved == 0) {
 929              		.loc 2 560 27 view .LVU252
 930 0148 314A     		ldr	r2, .L55+16
 931 014a 1370     		strb	r3, [r2]
 561:lvgl/src/lv_widgets/../lv_core/../lv_misc/lv_color.h ****                 while(1)
 932              		.loc 2 561 13 is_stmt 1 view .LVU253
 565:lvgl/src/lv_widgets/../lv_core/../lv_misc/lv_color.h ****             res_color_saved = lv_color_mix(fg_color, bg_color, ratio);
 933              		.loc 2 565 13 view .LVU254
 565:lvgl/src/lv_widgets/../lv_core/../lv_misc/lv_color.h ****             res_color_saved = lv_color_mix(fg_color, bg_color, ratio);
 934              		.loc 2 565 30 is_stmt 0 view .LVU255
 935 014c C4EB0424 		rsb	r4, r4, r4, lsl #8
 936 0150 A2B2     		uxth	r2, r4
 565:lvgl/src/lv_widgets/../lv_core/../lv_misc/lv_color.h ****             res_color_saved = lv_color_mix(fg_color, bg_color, ratio);
 937              		.loc 2 565 65 view .LVU256
 938 0152 92FBF3F3 		sdiv	r3, r2, r3
 565:lvgl/src/lv_widgets/../lv_core/../lv_misc/lv_color.h ****             res_color_saved = lv_color_mix(fg_color, bg_color, ratio);
 939              		.loc 2 565 22 view .LVU257
 940 0156 DAB2     		uxtb	r2, r3
 941              	.LVL88:
 566:lvgl/src/lv_widgets/../lv_core/../lv_misc/lv_color.h **** 
 942              		.loc 2 566 13 is_stmt 1 view .LVU258
 943              	.LBB80:
 944              	.LBI80:
 447:lvgl/src/lv_widgets/../lv_core/../lv_misc/lv_color.h **** {
 945              		.loc 2 447 48 view .LVU259
 946              	.LBB81:
 449:lvgl/src/lv_widgets/../lv_core/../lv_misc/lv_color.h **** #if LV_COLOR_DEPTH != 1
 947              		.loc 2 449 5 view .LVU260
 452:lvgl/src/lv_widgets/../lv_core/../lv_misc/lv_color.h ****                                         (255 - mix) + LV_COLOR_MIX_ROUND_OFS));
 948              		.loc 2 452 5 view .LVU261
 949 0158 BDF80430 		ldrh	r3, [sp, #4]
 950 015c DB0A     		lsrs	r3, r3, #11
 951 015e C7F3C421 		ubfx	r1, r7, #11, #5
 952 0162 C2F1FF00 		rsb	r0, r2, #255
ARM GAS  D:\Temp\cc0vPyDE.s 			page 53


 953              	.LVL89:
 452:lvgl/src/lv_widgets/../lv_core/../lv_misc/lv_color.h ****                                         (255 - mix) + LV_COLOR_MIX_ROUND_OFS));
 954              		.loc 2 452 5 is_stmt 0 view .LVU262
 955 0166 00FB01F1 		mul	r1, r0, r1
 956 016a 02FB0313 		mla	r3, r2, r3, r1
 957 016e 8033     		adds	r3, r3, #128
 958 0170 03EB0321 		add	r1, r3, r3, lsl #8
 959 0174 03EBC113 		add	r3, r3, r1, lsl #7
 960 0178 C3F3C453 		ubfx	r3, r3, #23, #5
 961 017c 4FF00001 		mov	r1, #0	@ movhi
 452:lvgl/src/lv_widgets/../lv_core/../lv_misc/lv_color.h ****                                         (255 - mix) + LV_COLOR_MIX_ROUND_OFS));
 962              		.loc 2 452 5 view .LVU263
 963 0180 63F3CF21 		bfi	r1, r3, #11, #5
 964              	.LVL90:
 454:lvgl/src/lv_widgets/../lv_core/../lv_misc/lv_color.h ****                                         (255 - mix) + LV_COLOR_MIX_ROUND_OFS));
 965              		.loc 2 454 5 is_stmt 1 view .LVU264
 966 0184 BDF80430 		ldrh	r3, [sp, #4]
 967 0188 C3F34513 		ubfx	r3, r3, #5, #6
 968 018c C7F34514 		ubfx	r4, r7, #5, #6
 969 0190 04FB00F4 		mul	r4, r4, r0
 970 0194 03FB0243 		mla	r3, r3, r2, r4
 971 0198 8033     		adds	r3, r3, #128
 972 019a 03EB0324 		add	r4, r3, r3, lsl #8
 973 019e 03EBC413 		add	r3, r3, r4, lsl #7
 974 01a2 C3F3C553 		ubfx	r3, r3, #23, #6
 975 01a6 63F34A11 		bfi	r1, r3, #5, #6
 456:lvgl/src/lv_widgets/../lv_core/../lv_misc/lv_color.h ****                                         (255 - mix) + LV_COLOR_MIX_ROUND_OFS));
 976              		.loc 2 456 5 view .LVU265
 977 01aa BDF80430 		ldrh	r3, [sp, #4]
 978 01ae 03F01F03 		and	r3, r3, #31
 979 01b2 07F01F07 		and	r7, r7, #31
 980              	.LVL91:
 456:lvgl/src/lv_widgets/../lv_core/../lv_misc/lv_color.h ****                                         (255 - mix) + LV_COLOR_MIX_ROUND_OFS));
 981              		.loc 2 456 5 is_stmt 0 view .LVU266
 982 01b6 07FB00F7 		mul	r7, r7, r0
 983 01ba 03FB0273 		mla	r3, r3, r2, r7
 984 01be 8033     		adds	r3, r3, #128
 985 01c0 03EB0322 		add	r2, r3, r3, lsl #8
 986              	.LVL92:
 456:lvgl/src/lv_widgets/../lv_core/../lv_misc/lv_color.h ****                                         (255 - mix) + LV_COLOR_MIX_ROUND_OFS));
 987              		.loc 2 456 5 view .LVU267
 988 01c4 03EBC213 		add	r3, r3, r2, lsl #7
 989 01c8 C3F3C453 		ubfx	r3, r3, #23, #5
 990 01cc 63F30401 		bfi	r1, r3, #0, #5
 458:lvgl/src/lv_widgets/../lv_core/../lv_misc/lv_color.h **** #else
 991              		.loc 2 458 5 is_stmt 1 view .LVU268
 458:lvgl/src/lv_widgets/../lv_core/../lv_misc/lv_color.h **** #else
 992              		.loc 2 458 5 view .LVU269
 464:lvgl/src/lv_widgets/../lv_core/../lv_misc/lv_color.h **** }
 993              		.loc 2 464 5 view .LVU270
 464:lvgl/src/lv_widgets/../lv_core/../lv_misc/lv_color.h **** }
 994              		.loc 2 464 5 is_stmt 0 view .LVU271
 995              	.LBE81:
 996              	.LBE80:
 566:lvgl/src/lv_widgets/../lv_core/../lv_misc/lv_color.h **** 
 997              		.loc 2 566 31 view .LVU272
 998 01d0 104B     		ldr	r3, .L55+20
ARM GAS  D:\Temp\cc0vPyDE.s 			page 54


 999 01d2 1980     		strh	r1, [r3]	@ movhi
 1000              	.LVL93:
 1001              	.L51:
 566:lvgl/src/lv_widgets/../lv_core/../lv_misc/lv_color.h **** 
 1002              		.loc 2 566 31 view .LVU273
 1003              	.LBE79:
 570:lvgl/src/lv_widgets/../lv_core/../lv_misc/lv_color.h ****         *res_opa = res_opa_saved;
 1004              		.loc 2 570 9 is_stmt 1 view .LVU274
 570:lvgl/src/lv_widgets/../lv_core/../lv_misc/lv_color.h ****         *res_opa = res_opa_saved;
 1005              		.loc 2 570 25 is_stmt 0 view .LVU275
 1006 01d4 0F4B     		ldr	r3, .L55+20
 1007 01d6 1F88     		ldrh	r7, [r3]
 1008              	.LVL94:
 571:lvgl/src/lv_widgets/../lv_core/../lv_misc/lv_color.h ****     }
 1009              		.loc 2 571 9 is_stmt 1 view .LVU276
 571:lvgl/src/lv_widgets/../lv_core/../lv_misc/lv_color.h ****     }
 1010              		.loc 2 571 18 is_stmt 0 view .LVU277
 1011 01d8 0D4B     		ldr	r3, .L55+16
 1012 01da 1C78     		ldrb	r4, [r3]	@ zero_extendqisi2
 1013              	.LVL95:
 571:lvgl/src/lv_widgets/../lv_core/../lv_misc/lv_color.h ****     }
 1014              		.loc 2 571 18 view .LVU278
 1015 01dc 49E7     		b	.L47
 1016              	.LVL96:
 1017              	.L54:
 552:lvgl/src/lv_widgets/../lv_core/../lv_misc/lv_color.h ****            bg_color.full != bg_color_save.full) {
 1018              		.loc 2 552 44 view .LVU279
 1019 01de 094B     		ldr	r3, .L55+4
 1020 01e0 1B78     		ldrb	r3, [r3]	@ zero_extendqisi2
 552:lvgl/src/lv_widgets/../lv_core/../lv_misc/lv_color.h ****            bg_color.full != bg_color_save.full) {
 1021              		.loc 2 552 34 view .LVU280
 1022 01e2 9842     		cmp	r0, r3
 1023 01e4 9BD1     		bne	.L50
 552:lvgl/src/lv_widgets/../lv_core/../lv_misc/lv_color.h ****            bg_color.full != bg_color_save.full) {
 1024              		.loc 2 552 70 view .LVU281
 1025 01e6 BDF80420 		ldrh	r2, [sp, #4]
 552:lvgl/src/lv_widgets/../lv_core/../lv_misc/lv_color.h ****            bg_color.full != bg_color_save.full) {
 1026              		.loc 2 552 92 view .LVU282
 1027 01ea 074B     		ldr	r3, .L55+8
 1028 01ec 1B88     		ldrh	r3, [r3]
 552:lvgl/src/lv_widgets/../lv_core/../lv_misc/lv_color.h ****            bg_color.full != bg_color_save.full) {
 1029              		.loc 2 552 59 view .LVU283
 1030 01ee 9A42     		cmp	r2, r3
 1031 01f0 95D1     		bne	.L50
 1032              	.LVL97:
 553:lvgl/src/lv_widgets/../lv_core/../lv_misc/lv_color.h ****             fg_opa_save        = fg_opa;
 1033              		.loc 2 553 20 view .LVU284
 1034 01f2 BBB2     		uxth	r3, r7
 553:lvgl/src/lv_widgets/../lv_core/../lv_misc/lv_color.h ****             fg_opa_save        = fg_opa;
 1035              		.loc 2 553 42 view .LVU285
 1036 01f4 054A     		ldr	r2, .L55+12
 1037 01f6 1288     		ldrh	r2, [r2]
 552:lvgl/src/lv_widgets/../lv_core/../lv_misc/lv_color.h ****            bg_color.full != bg_color_save.full) {
 1038              		.loc 2 552 98 view .LVU286
 1039 01f8 9342     		cmp	r3, r2
 1040 01fa 90D1     		bne	.L50
 1041 01fc EAE7     		b	.L51
ARM GAS  D:\Temp\cc0vPyDE.s 			page 55


 1042              	.L56:
 1043 01fe 00BF     		.align	2
 1044              	.L55:
 1045 0200 00000000 		.word	.LANCHOR1
 1046 0204 00000000 		.word	.LANCHOR2
 1047 0208 00000000 		.word	.LANCHOR3
 1048 020c 00000000 		.word	.LANCHOR4
 1049 0210 00000000 		.word	.LANCHOR5
 1050 0214 00000000 		.word	.LANCHOR6
 1051              	.LBE78:
 1052              	.LBE82:
 1053              	.LBE83:
 1054              		.cfi_endproc
 1055              	.LFE482:
 1057              		.section	.text.lv_canvas_create,"ax",%progbits
 1058              		.align	1
 1059              		.global	lv_canvas_create
 1060              		.syntax unified
 1061              		.thumb
 1062              		.thumb_func
 1063              		.fpu fpv4-sp-d16
 1065              	lv_canvas_create:
 1066              	.LVL98:
 1067              	.LFB458:
  73:lvgl/src/lv_widgets/lv_canvas.c ****     LV_LOG_TRACE("canvas create started");
 1068              		.loc 1 73 1 is_stmt 1 view -0
 1069              		.cfi_startproc
 1070              		@ args = 0, pretend = 0, frame = 0
 1071              		@ frame_needed = 0, uses_anonymous_args = 0
  73:lvgl/src/lv_widgets/lv_canvas.c ****     LV_LOG_TRACE("canvas create started");
 1072              		.loc 1 73 1 is_stmt 0 view .LVU288
 1073 0000 70B5     		push	{r4, r5, r6, lr}
 1074              	.LCFI22:
 1075              		.cfi_def_cfa_offset 16
 1076              		.cfi_offset 4, -16
 1077              		.cfi_offset 5, -12
 1078              		.cfi_offset 6, -8
 1079              		.cfi_offset 14, -4
 1080 0002 0E46     		mov	r6, r1
  74:lvgl/src/lv_widgets/lv_canvas.c **** 
 1081              		.loc 1 74 42 is_stmt 1 view .LVU289
  77:lvgl/src/lv_widgets/lv_canvas.c ****     LV_ASSERT_MEM(new_canvas);
 1082              		.loc 1 77 5 view .LVU290
  77:lvgl/src/lv_widgets/lv_canvas.c ****     LV_ASSERT_MEM(new_canvas);
 1083              		.loc 1 77 29 is_stmt 0 view .LVU291
 1084 0004 FFF7FEFF 		bl	lv_img_create
 1085              	.LVL99:
  77:lvgl/src/lv_widgets/lv_canvas.c ****     LV_ASSERT_MEM(new_canvas);
 1086              		.loc 1 77 29 view .LVU292
 1087 0008 0446     		mov	r4, r0
 1088              	.LVL100:
  78:lvgl/src/lv_widgets/lv_canvas.c ****     if(new_canvas == NULL) return NULL;
 1089              		.loc 1 78 5 is_stmt 1 view .LVU293
  78:lvgl/src/lv_widgets/lv_canvas.c ****     if(new_canvas == NULL) return NULL;
 1090              		.loc 1 78 5 view .LVU294
 1091 000a FFF7FEFF 		bl	lv_debug_check_null
 1092              	.LVL101:
ARM GAS  D:\Temp\cc0vPyDE.s 			page 56


  78:lvgl/src/lv_widgets/lv_canvas.c ****     if(new_canvas == NULL) return NULL;
 1093              		.loc 1 78 5 is_stmt 0 view .LVU295
 1094 000e 0028     		cmp	r0, #0
 1095 0010 32D0     		beq	.L67
  78:lvgl/src/lv_widgets/lv_canvas.c ****     if(new_canvas == NULL) return NULL;
 1096              		.loc 1 78 30 is_stmt 1 discriminator 2 view .LVU296
  79:lvgl/src/lv_widgets/lv_canvas.c **** 
 1097              		.loc 1 79 5 discriminator 2 view .LVU297
  79:lvgl/src/lv_widgets/lv_canvas.c **** 
 1098              		.loc 1 79 7 is_stmt 0 discriminator 2 view .LVU298
 1099 0012 002C     		cmp	r4, #0
 1100 0014 2ED0     		beq	.L57
  82:lvgl/src/lv_widgets/lv_canvas.c ****     LV_ASSERT_MEM(ext);
 1101              		.loc 1 82 5 is_stmt 1 view .LVU299
  82:lvgl/src/lv_widgets/lv_canvas.c ****     LV_ASSERT_MEM(ext);
 1102              		.loc 1 82 29 is_stmt 0 view .LVU300
 1103 0016 2421     		movs	r1, #36
 1104 0018 2046     		mov	r0, r4
 1105 001a FFF7FEFF 		bl	lv_obj_allocate_ext_attr
 1106              	.LVL102:
 1107 001e 0546     		mov	r5, r0
 1108              	.LVL103:
  83:lvgl/src/lv_widgets/lv_canvas.c ****     if(ext == NULL) {
 1109              		.loc 1 83 5 is_stmt 1 view .LVU301
  83:lvgl/src/lv_widgets/lv_canvas.c ****     if(ext == NULL) {
 1110              		.loc 1 83 5 view .LVU302
 1111 0020 FFF7FEFF 		bl	lv_debug_check_null
 1112              	.LVL104:
  83:lvgl/src/lv_widgets/lv_canvas.c ****     if(ext == NULL) {
 1113              		.loc 1 83 5 is_stmt 0 view .LVU303
 1114 0024 0028     		cmp	r0, #0
 1115 0026 2DD0     		beq	.L68
  83:lvgl/src/lv_widgets/lv_canvas.c ****     if(ext == NULL) {
 1116              		.loc 1 83 23 is_stmt 1 discriminator 2 view .LVU304
  84:lvgl/src/lv_widgets/lv_canvas.c ****         lv_obj_del(new_canvas);
 1117              		.loc 1 84 5 discriminator 2 view .LVU305
  84:lvgl/src/lv_widgets/lv_canvas.c ****         lv_obj_del(new_canvas);
 1118              		.loc 1 84 7 is_stmt 0 discriminator 2 view .LVU306
 1119 0028 002D     		cmp	r5, #0
 1120 002a 31D0     		beq	.L69
  89:lvgl/src/lv_widgets/lv_canvas.c ****     if(ancestor_design == NULL) ancestor_design = lv_obj_get_design_cb(new_canvas);
 1121              		.loc 1 89 5 is_stmt 1 view .LVU307
  89:lvgl/src/lv_widgets/lv_canvas.c ****     if(ancestor_design == NULL) ancestor_design = lv_obj_get_design_cb(new_canvas);
 1122              		.loc 1 89 24 is_stmt 0 view .LVU308
 1123 002c 234B     		ldr	r3, .L73
 1124 002e 1B68     		ldr	r3, [r3]
  89:lvgl/src/lv_widgets/lv_canvas.c ****     if(ancestor_design == NULL) ancestor_design = lv_obj_get_design_cb(new_canvas);
 1125              		.loc 1 89 7 view .LVU309
 1126 0030 002B     		cmp	r3, #0
 1127 0032 32D0     		beq	.L70
 1128              	.L64:
  90:lvgl/src/lv_widgets/lv_canvas.c **** 
 1129              		.loc 1 90 5 is_stmt 1 view .LVU310
  90:lvgl/src/lv_widgets/lv_canvas.c **** 
 1130              		.loc 1 90 24 is_stmt 0 view .LVU311
 1131 0034 224B     		ldr	r3, .L73+4
 1132 0036 1B68     		ldr	r3, [r3]
ARM GAS  D:\Temp\cc0vPyDE.s 			page 57


  90:lvgl/src/lv_widgets/lv_canvas.c **** 
 1133              		.loc 1 90 7 view .LVU312
 1134 0038 002B     		cmp	r3, #0
 1135 003a 34D0     		beq	.L71
 1136              	.L65:
  93:lvgl/src/lv_widgets/lv_canvas.c ****     ext->dsc.header.cf          = LV_IMG_CF_TRUE_COLOR;
 1137              		.loc 1 93 5 is_stmt 1 view .LVU313
  93:lvgl/src/lv_widgets/lv_canvas.c ****     ext->dsc.header.cf          = LV_IMG_CF_TRUE_COLOR;
 1138              		.loc 1 93 33 is_stmt 0 view .LVU314
 1139 003c 2B7E     		ldrb	r3, [r5, #24]	@ zero_extendqisi2
  94:lvgl/src/lv_widgets/lv_canvas.c ****     ext->dsc.header.h           = 0;
 1140              		.loc 1 94 5 is_stmt 1 view .LVU315
  94:lvgl/src/lv_widgets/lv_canvas.c ****     ext->dsc.header.h           = 0;
 1141              		.loc 1 94 33 is_stmt 0 view .LVU316
 1142 003e 03F01F03 		and	r3, r3, #31
 1143 0042 0422     		movs	r2, #4
 1144 0044 62F30403 		bfi	r3, r2, #0, #5
 1145 0048 2B76     		strb	r3, [r5, #24]
  95:lvgl/src/lv_widgets/lv_canvas.c ****     ext->dsc.header.w           = 0;
 1146              		.loc 1 95 5 is_stmt 1 view .LVU317
  95:lvgl/src/lv_widgets/lv_canvas.c ****     ext->dsc.header.w           = 0;
 1147              		.loc 1 95 33 is_stmt 0 view .LVU318
 1148 004a 6B8B     		ldrh	r3, [r5, #26]
 1149 004c 6FF34F13 		bfc	r3, #5, #11
 1150 0050 6B83     		strh	r3, [r5, #26]	@ movhi
  96:lvgl/src/lv_widgets/lv_canvas.c ****     ext->dsc.data_size          = 0;
 1151              		.loc 1 96 5 is_stmt 1 view .LVU319
  96:lvgl/src/lv_widgets/lv_canvas.c ****     ext->dsc.data_size          = 0;
 1152              		.loc 1 96 33 is_stmt 0 view .LVU320
 1153 0052 AB69     		ldr	r3, [r5, #24]
 1154 0054 6FF39423 		bfc	r3, #10, #11
 1155 0058 AB61     		str	r3, [r5, #24]
  97:lvgl/src/lv_widgets/lv_canvas.c ****     ext->dsc.data               = NULL;
 1156              		.loc 1 97 5 is_stmt 1 view .LVU321
  97:lvgl/src/lv_widgets/lv_canvas.c ****     ext->dsc.data               = NULL;
 1157              		.loc 1 97 33 is_stmt 0 view .LVU322
 1158 005a 0023     		movs	r3, #0
 1159 005c EB61     		str	r3, [r5, #28]
  98:lvgl/src/lv_widgets/lv_canvas.c **** 
 1160              		.loc 1 98 5 is_stmt 1 view .LVU323
  98:lvgl/src/lv_widgets/lv_canvas.c **** 
 1161              		.loc 1 98 33 is_stmt 0 view .LVU324
 1162 005e 2B62     		str	r3, [r5, #32]
 100:lvgl/src/lv_widgets/lv_canvas.c **** 
 1163              		.loc 1 100 5 is_stmt 1 view .LVU325
 1164 0060 05F11801 		add	r1, r5, #24
 1165 0064 2046     		mov	r0, r4
 1166 0066 FFF7FEFF 		bl	lv_img_set_src
 1167              	.LVL105:
 103:lvgl/src/lv_widgets/lv_canvas.c **** 
 1168              		.loc 1 103 5 view .LVU326
 1169 006a 1649     		ldr	r1, .L73+8
 1170 006c 2046     		mov	r0, r4
 1171 006e FFF7FEFF 		bl	lv_obj_set_signal_cb
 1172              	.LVL106:
 106:lvgl/src/lv_widgets/lv_canvas.c ****         lv_theme_apply(new_canvas, LV_THEME_CANVAS);
 1173              		.loc 1 106 5 view .LVU327
ARM GAS  D:\Temp\cc0vPyDE.s 			page 58


 106:lvgl/src/lv_widgets/lv_canvas.c ****         lv_theme_apply(new_canvas, LV_THEME_CANVAS);
 1174              		.loc 1 106 7 is_stmt 0 view .LVU328
 1175 0072 F6B1     		cbz	r6, .L72
 1176              	.LVL107:
 1177              	.L57:
 118:lvgl/src/lv_widgets/lv_canvas.c **** 
 1178              		.loc 1 118 1 view .LVU329
 1179 0074 2046     		mov	r0, r4
 1180 0076 70BD     		pop	{r4, r5, r6, pc}
 1181              	.LVL108:
 1182              	.L67:
  78:lvgl/src/lv_widgets/lv_canvas.c ****     if(new_canvas == NULL) return NULL;
 1183              		.loc 1 78 5 is_stmt 1 discriminator 1 view .LVU330
  78:lvgl/src/lv_widgets/lv_canvas.c ****     if(new_canvas == NULL) return NULL;
 1184              		.loc 1 78 5 discriminator 1 view .LVU331
 1185 0078 2246     		mov	r2, r4
 1186 007a 0023     		movs	r3, #0
 1187 007c 1248     		ldr	r0, .L73+12
 1188 007e FFF7FEFF 		bl	lv_debug_log_error
 1189              	.LVL109:
 1190              	.L59:
  78:lvgl/src/lv_widgets/lv_canvas.c ****     if(new_canvas == NULL) return NULL;
 1191              		.loc 1 78 5 discriminator 1 view .LVU332
  78:lvgl/src/lv_widgets/lv_canvas.c ****     if(new_canvas == NULL) return NULL;
 1192              		.loc 1 78 5 discriminator 1 view .LVU333
 1193 0082 FEE7     		b	.L59
 1194              	.LVL110:
 1195              	.L68:
  83:lvgl/src/lv_widgets/lv_canvas.c ****     if(ext == NULL) {
 1196              		.loc 1 83 5 discriminator 1 view .LVU334
  83:lvgl/src/lv_widgets/lv_canvas.c ****     if(ext == NULL) {
 1197              		.loc 1 83 5 discriminator 1 view .LVU335
 1198 0084 2A46     		mov	r2, r5
 1199 0086 0023     		movs	r3, #0
 1200 0088 0F48     		ldr	r0, .L73+12
 1201 008a FFF7FEFF 		bl	lv_debug_log_error
 1202              	.LVL111:
 1203              	.L62:
  83:lvgl/src/lv_widgets/lv_canvas.c ****     if(ext == NULL) {
 1204              		.loc 1 83 5 discriminator 2 view .LVU336
  83:lvgl/src/lv_widgets/lv_canvas.c ****     if(ext == NULL) {
 1205              		.loc 1 83 5 discriminator 2 view .LVU337
 1206 008e FEE7     		b	.L62
 1207              	.L69:
  85:lvgl/src/lv_widgets/lv_canvas.c ****         return NULL;
 1208              		.loc 1 85 9 view .LVU338
 1209 0090 2046     		mov	r0, r4
 1210 0092 FFF7FEFF 		bl	lv_obj_del
 1211              	.LVL112:
  86:lvgl/src/lv_widgets/lv_canvas.c ****     }
 1212              		.loc 1 86 9 view .LVU339
  86:lvgl/src/lv_widgets/lv_canvas.c ****     }
 1213              		.loc 1 86 16 is_stmt 0 view .LVU340
 1214 0096 0024     		movs	r4, #0
 1215              	.LVL113:
  86:lvgl/src/lv_widgets/lv_canvas.c ****     }
 1216              		.loc 1 86 16 view .LVU341
ARM GAS  D:\Temp\cc0vPyDE.s 			page 59


 1217 0098 ECE7     		b	.L57
 1218              	.LVL114:
 1219              	.L70:
  89:lvgl/src/lv_widgets/lv_canvas.c ****     if(ancestor_design == NULL) ancestor_design = lv_obj_get_design_cb(new_canvas);
 1220              		.loc 1 89 33 is_stmt 1 discriminator 1 view .LVU342
  89:lvgl/src/lv_widgets/lv_canvas.c ****     if(ancestor_design == NULL) ancestor_design = lv_obj_get_design_cb(new_canvas);
 1221              		.loc 1 89 51 is_stmt 0 discriminator 1 view .LVU343
 1222 009a 2046     		mov	r0, r4
 1223 009c FFF7FEFF 		bl	lv_obj_get_signal_cb
 1224              	.LVL115:
  89:lvgl/src/lv_widgets/lv_canvas.c ****     if(ancestor_design == NULL) ancestor_design = lv_obj_get_design_cb(new_canvas);
 1225              		.loc 1 89 49 discriminator 1 view .LVU344
 1226 00a0 064B     		ldr	r3, .L73
 1227 00a2 1860     		str	r0, [r3]
 1228 00a4 C6E7     		b	.L64
 1229              	.L71:
  90:lvgl/src/lv_widgets/lv_canvas.c **** 
 1230              		.loc 1 90 33 is_stmt 1 discriminator 1 view .LVU345
  90:lvgl/src/lv_widgets/lv_canvas.c **** 
 1231              		.loc 1 90 51 is_stmt 0 discriminator 1 view .LVU346
 1232 00a6 2046     		mov	r0, r4
 1233 00a8 FFF7FEFF 		bl	lv_obj_get_design_cb
 1234              	.LVL116:
  90:lvgl/src/lv_widgets/lv_canvas.c **** 
 1235              		.loc 1 90 49 discriminator 1 view .LVU347
 1236 00ac 044B     		ldr	r3, .L73+4
 1237 00ae 1860     		str	r0, [r3]
 1238 00b0 C4E7     		b	.L65
 1239              	.L72:
 107:lvgl/src/lv_widgets/lv_canvas.c ****     }
 1240              		.loc 1 107 9 is_stmt 1 view .LVU348
 1241 00b2 0821     		movs	r1, #8
 1242 00b4 2046     		mov	r0, r4
 1243 00b6 FFF7FEFF 		bl	lv_theme_apply
 1244              	.LVL117:
 1245 00ba DBE7     		b	.L57
 1246              	.L74:
 1247              		.align	2
 1248              	.L73:
 1249 00bc 00000000 		.word	.LANCHOR0
 1250 00c0 00000000 		.word	.LANCHOR7
 1251 00c4 00000000 		.word	lv_canvas_signal
 1252 00c8 00000000 		.word	.LC1
 1253              		.cfi_endproc
 1254              	.LFE458:
 1256              		.section	.text.lv_canvas_set_buffer,"ax",%progbits
 1257              		.align	1
 1258              		.global	lv_canvas_set_buffer
 1259              		.syntax unified
 1260              		.thumb
 1261              		.thumb_func
 1262              		.fpu fpv4-sp-d16
 1264              	lv_canvas_set_buffer:
 1265              	.LVL118:
 1266              	.LFB459:
 139:lvgl/src/lv_widgets/lv_canvas.c ****     LV_ASSERT_OBJ(canvas, LV_OBJX_NAME);
 1267              		.loc 1 139 1 view -0
ARM GAS  D:\Temp\cc0vPyDE.s 			page 60


 1268              		.cfi_startproc
 1269              		@ args = 4, pretend = 0, frame = 0
 1270              		@ frame_needed = 0, uses_anonymous_args = 0
 139:lvgl/src/lv_widgets/lv_canvas.c ****     LV_ASSERT_OBJ(canvas, LV_OBJX_NAME);
 1271              		.loc 1 139 1 is_stmt 0 view .LVU350
 1272 0000 F8B5     		push	{r3, r4, r5, r6, r7, lr}
 1273              	.LCFI23:
 1274              		.cfi_def_cfa_offset 24
 1275              		.cfi_offset 3, -24
 1276              		.cfi_offset 4, -20
 1277              		.cfi_offset 5, -16
 1278              		.cfi_offset 6, -12
 1279              		.cfi_offset 7, -8
 1280              		.cfi_offset 14, -4
 1281 0002 0446     		mov	r4, r0
 1282 0004 0D46     		mov	r5, r1
 1283 0006 1746     		mov	r7, r2
 1284 0008 1E46     		mov	r6, r3
 140:lvgl/src/lv_widgets/lv_canvas.c ****     LV_ASSERT_NULL(buf);
 1285              		.loc 1 140 5 is_stmt 1 view .LVU351
 140:lvgl/src/lv_widgets/lv_canvas.c ****     LV_ASSERT_NULL(buf);
 1286              		.loc 1 140 5 view .LVU352
 1287 000a FFF7FEFF 		bl	lv_debug_check_null
 1288              	.LVL119:
 140:lvgl/src/lv_widgets/lv_canvas.c ****     LV_ASSERT_NULL(buf);
 1289              		.loc 1 140 5 is_stmt 0 view .LVU353
 1290 000e 28B9     		cbnz	r0, .L76
 140:lvgl/src/lv_widgets/lv_canvas.c ****     LV_ASSERT_NULL(buf);
 1291              		.loc 1 140 5 is_stmt 1 discriminator 1 view .LVU354
 140:lvgl/src/lv_widgets/lv_canvas.c ****     LV_ASSERT_NULL(buf);
 1292              		.loc 1 140 5 discriminator 1 view .LVU355
 1293 0010 2246     		mov	r2, r4
 1294 0012 0023     		movs	r3, #0
 1295 0014 1348     		ldr	r0, .L81
 1296 0016 FFF7FEFF 		bl	lv_debug_log_error
 1297              	.LVL120:
 1298              	.L77:
 140:lvgl/src/lv_widgets/lv_canvas.c ****     LV_ASSERT_NULL(buf);
 1299              		.loc 1 140 5 discriminator 1 view .LVU356
 140:lvgl/src/lv_widgets/lv_canvas.c ****     LV_ASSERT_NULL(buf);
 1300              		.loc 1 140 5 discriminator 1 view .LVU357
 1301 001a FEE7     		b	.L77
 1302              	.L76:
 140:lvgl/src/lv_widgets/lv_canvas.c ****     LV_ASSERT_NULL(buf);
 1303              		.loc 1 140 40 discriminator 2 view .LVU358
 141:lvgl/src/lv_widgets/lv_canvas.c **** 
 1304              		.loc 1 141 5 discriminator 2 view .LVU359
 141:lvgl/src/lv_widgets/lv_canvas.c **** 
 1305              		.loc 1 141 5 discriminator 2 view .LVU360
 1306 001c 2846     		mov	r0, r5
 1307 001e FFF7FEFF 		bl	lv_debug_check_null
 1308              	.LVL121:
 1309 0022 28B9     		cbnz	r0, .L78
 141:lvgl/src/lv_widgets/lv_canvas.c **** 
 1310              		.loc 1 141 5 discriminator 1 view .LVU361
 141:lvgl/src/lv_widgets/lv_canvas.c **** 
 1311              		.loc 1 141 5 discriminator 1 view .LVU362
ARM GAS  D:\Temp\cc0vPyDE.s 			page 61


 1312 0024 2A46     		mov	r2, r5
 1313 0026 0023     		movs	r3, #0
 1314 0028 0E48     		ldr	r0, .L81
 1315 002a FFF7FEFF 		bl	lv_debug_log_error
 1316              	.LVL122:
 1317              	.L79:
 141:lvgl/src/lv_widgets/lv_canvas.c **** 
 1318              		.loc 1 141 5 discriminator 2 view .LVU363
 141:lvgl/src/lv_widgets/lv_canvas.c **** 
 1319              		.loc 1 141 5 discriminator 2 view .LVU364
 1320 002e FEE7     		b	.L79
 1321              	.L78:
 141:lvgl/src/lv_widgets/lv_canvas.c **** 
 1322              		.loc 1 141 24 discriminator 2 view .LVU365
 143:lvgl/src/lv_widgets/lv_canvas.c **** 
 1323              		.loc 1 143 5 discriminator 2 view .LVU366
 143:lvgl/src/lv_widgets/lv_canvas.c **** 
 1324              		.loc 1 143 29 is_stmt 0 discriminator 2 view .LVU367
 1325 0030 2046     		mov	r0, r4
 1326 0032 FFF7FEFF 		bl	lv_obj_get_ext_attr
 1327              	.LVL123:
 145:lvgl/src/lv_widgets/lv_canvas.c ****     ext->dsc.header.w  = w;
 1328              		.loc 1 145 5 is_stmt 1 discriminator 2 view .LVU368
 145:lvgl/src/lv_widgets/lv_canvas.c ****     ext->dsc.header.w  = w;
 1329              		.loc 1 145 24 is_stmt 0 discriminator 2 view .LVU369
 1330 0036 037E     		ldrb	r3, [r0, #24]	@ zero_extendqisi2
 1331 0038 9DF81820 		ldrb	r2, [sp, #24]	@ zero_extendqisi2
 1332 003c 62F30403 		bfi	r3, r2, #0, #5
 1333 0040 0376     		strb	r3, [r0, #24]
 146:lvgl/src/lv_widgets/lv_canvas.c ****     ext->dsc.header.h  = h;
 1334              		.loc 1 146 5 is_stmt 1 discriminator 2 view .LVU370
 146:lvgl/src/lv_widgets/lv_canvas.c ****     ext->dsc.header.h  = h;
 1335              		.loc 1 146 24 is_stmt 0 discriminator 2 view .LVU371
 1336 0042 8369     		ldr	r3, [r0, #24]
 1337 0044 67F39423 		bfi	r3, r7, #10, #11
 1338 0048 8361     		str	r3, [r0, #24]
 1339              	.LVL124:
 147:lvgl/src/lv_widgets/lv_canvas.c ****     ext->dsc.data      = buf;
 1340              		.loc 1 147 5 is_stmt 1 discriminator 2 view .LVU372
 147:lvgl/src/lv_widgets/lv_canvas.c ****     ext->dsc.data      = buf;
 1341              		.loc 1 147 24 is_stmt 0 discriminator 2 view .LVU373
 1342 004a C3F30F43 		ubfx	r3, r3, #16, #16
 1343 004e 66F34F13 		bfi	r3, r6, #5, #11
 1344              	.LVL125:
 147:lvgl/src/lv_widgets/lv_canvas.c ****     ext->dsc.data      = buf;
 1345              		.loc 1 147 24 discriminator 2 view .LVU374
 1346 0052 4383     		strh	r3, [r0, #26]	@ movhi
 148:lvgl/src/lv_widgets/lv_canvas.c **** 
 1347              		.loc 1 148 5 is_stmt 1 discriminator 2 view .LVU375
 148:lvgl/src/lv_widgets/lv_canvas.c **** 
 1348              		.loc 1 148 24 is_stmt 0 discriminator 2 view .LVU376
 1349 0054 0562     		str	r5, [r0, #32]
 150:lvgl/src/lv_widgets/lv_canvas.c **** }
 1350              		.loc 1 150 5 is_stmt 1 discriminator 2 view .LVU377
 1351 0056 00F11801 		add	r1, r0, #24
 1352 005a 2046     		mov	r0, r4
 1353              	.LVL126:
ARM GAS  D:\Temp\cc0vPyDE.s 			page 62


 150:lvgl/src/lv_widgets/lv_canvas.c **** }
 1354              		.loc 1 150 5 is_stmt 0 discriminator 2 view .LVU378
 1355 005c FFF7FEFF 		bl	lv_img_set_src
 1356              	.LVL127:
 151:lvgl/src/lv_widgets/lv_canvas.c **** 
 1357              		.loc 1 151 1 discriminator 2 view .LVU379
 1358 0060 F8BD     		pop	{r3, r4, r5, r6, r7, pc}
 1359              	.LVL128:
 1360              	.L82:
 151:lvgl/src/lv_widgets/lv_canvas.c **** 
 1361              		.loc 1 151 1 discriminator 2 view .LVU380
 1362 0062 00BF     		.align	2
 1363              	.L81:
 1364 0064 00000000 		.word	.LC2
 1365              		.cfi_endproc
 1366              	.LFE459:
 1368              		.section	.text.lv_canvas_set_px,"ax",%progbits
 1369              		.align	1
 1370              		.global	lv_canvas_set_px
 1371              		.syntax unified
 1372              		.thumb
 1373              		.thumb_func
 1374              		.fpu fpv4-sp-d16
 1376              	lv_canvas_set_px:
 1377              	.LVL129:
 1378              	.LFB460:
 161:lvgl/src/lv_widgets/lv_canvas.c ****     LV_ASSERT_OBJ(canvas, LV_OBJX_NAME);
 1379              		.loc 1 161 1 is_stmt 1 view -0
 1380              		.cfi_startproc
 1381              		@ args = 0, pretend = 0, frame = 0
 1382              		@ frame_needed = 0, uses_anonymous_args = 0
 161:lvgl/src/lv_widgets/lv_canvas.c ****     LV_ASSERT_OBJ(canvas, LV_OBJX_NAME);
 1383              		.loc 1 161 1 is_stmt 0 view .LVU382
 1384 0000 F8B5     		push	{r3, r4, r5, r6, r7, lr}
 1385              	.LCFI24:
 1386              		.cfi_def_cfa_offset 24
 1387              		.cfi_offset 3, -24
 1388              		.cfi_offset 4, -20
 1389              		.cfi_offset 5, -16
 1390              		.cfi_offset 6, -12
 1391              		.cfi_offset 7, -8
 1392              		.cfi_offset 14, -4
 1393 0002 0446     		mov	r4, r0
 1394 0004 0D46     		mov	r5, r1
 1395 0006 1646     		mov	r6, r2
 1396 0008 1F46     		mov	r7, r3	@ movhi
 162:lvgl/src/lv_widgets/lv_canvas.c **** 
 1397              		.loc 1 162 5 is_stmt 1 view .LVU383
 162:lvgl/src/lv_widgets/lv_canvas.c **** 
 1398              		.loc 1 162 5 view .LVU384
 1399 000a FFF7FEFF 		bl	lv_debug_check_null
 1400              	.LVL130:
 162:lvgl/src/lv_widgets/lv_canvas.c **** 
 1401              		.loc 1 162 5 is_stmt 0 view .LVU385
 1402 000e 28B9     		cbnz	r0, .L84
 162:lvgl/src/lv_widgets/lv_canvas.c **** 
 1403              		.loc 1 162 5 is_stmt 1 discriminator 1 view .LVU386
ARM GAS  D:\Temp\cc0vPyDE.s 			page 63


 162:lvgl/src/lv_widgets/lv_canvas.c **** 
 1404              		.loc 1 162 5 discriminator 1 view .LVU387
 1405 0010 2246     		mov	r2, r4
 1406 0012 0023     		movs	r3, #0
 1407 0014 0848     		ldr	r0, .L87
 1408 0016 FFF7FEFF 		bl	lv_debug_log_error
 1409              	.LVL131:
 1410              	.L85:
 162:lvgl/src/lv_widgets/lv_canvas.c **** 
 1411              		.loc 1 162 5 discriminator 1 view .LVU388
 162:lvgl/src/lv_widgets/lv_canvas.c **** 
 1412              		.loc 1 162 5 discriminator 1 view .LVU389
 1413 001a FEE7     		b	.L85
 1414              	.L84:
 162:lvgl/src/lv_widgets/lv_canvas.c **** 
 1415              		.loc 1 162 40 discriminator 2 view .LVU390
 164:lvgl/src/lv_widgets/lv_canvas.c **** 
 1416              		.loc 1 164 5 discriminator 2 view .LVU391
 164:lvgl/src/lv_widgets/lv_canvas.c **** 
 1417              		.loc 1 164 29 is_stmt 0 discriminator 2 view .LVU392
 1418 001c 2046     		mov	r0, r4
 1419 001e FFF7FEFF 		bl	lv_obj_get_ext_attr
 1420              	.LVL132:
 166:lvgl/src/lv_widgets/lv_canvas.c ****     lv_obj_invalidate(canvas);
 1421              		.loc 1 166 5 is_stmt 1 discriminator 2 view .LVU393
 166:lvgl/src/lv_widgets/lv_canvas.c ****     lv_obj_invalidate(canvas);
 1422              		.loc 1 166 5 is_stmt 0 discriminator 2 view .LVU394
 1423 0022 3B46     		mov	r3, r7	@ movhi
 1424 0024 3246     		mov	r2, r6
 1425 0026 2946     		mov	r1, r5
 1426 0028 1830     		adds	r0, r0, #24
 1427              	.LVL133:
 166:lvgl/src/lv_widgets/lv_canvas.c ****     lv_obj_invalidate(canvas);
 1428              		.loc 1 166 5 discriminator 2 view .LVU395
 1429 002a FFF7FEFF 		bl	lv_img_buf_set_px_color
 1430              	.LVL134:
 167:lvgl/src/lv_widgets/lv_canvas.c **** }
 1431              		.loc 1 167 5 is_stmt 1 discriminator 2 view .LVU396
 1432 002e 2046     		mov	r0, r4
 1433 0030 FFF7FEFF 		bl	lv_obj_invalidate
 1434              	.LVL135:
 168:lvgl/src/lv_widgets/lv_canvas.c **** 
 1435              		.loc 1 168 1 is_stmt 0 discriminator 2 view .LVU397
 1436 0034 F8BD     		pop	{r3, r4, r5, r6, r7, pc}
 1437              	.LVL136:
 1438              	.L88:
 168:lvgl/src/lv_widgets/lv_canvas.c **** 
 1439              		.loc 1 168 1 discriminator 2 view .LVU398
 1440 0036 00BF     		.align	2
 1441              	.L87:
 1442 0038 00000000 		.word	.LC2
 1443              		.cfi_endproc
 1444              	.LFE460:
 1446              		.section	.text.lv_canvas_set_palette,"ax",%progbits
 1447              		.align	1
 1448              		.global	lv_canvas_set_palette
 1449              		.syntax unified
ARM GAS  D:\Temp\cc0vPyDE.s 			page 64


 1450              		.thumb
 1451              		.thumb_func
 1452              		.fpu fpv4-sp-d16
 1454              	lv_canvas_set_palette:
 1455              	.LVL137:
 1456              	.LFB461:
 181:lvgl/src/lv_widgets/lv_canvas.c ****     LV_ASSERT_OBJ(canvas, LV_OBJX_NAME);
 1457              		.loc 1 181 1 is_stmt 1 view -0
 1458              		.cfi_startproc
 1459              		@ args = 0, pretend = 0, frame = 0
 1460              		@ frame_needed = 0, uses_anonymous_args = 0
 181:lvgl/src/lv_widgets/lv_canvas.c ****     LV_ASSERT_OBJ(canvas, LV_OBJX_NAME);
 1461              		.loc 1 181 1 is_stmt 0 view .LVU400
 1462 0000 70B5     		push	{r4, r5, r6, lr}
 1463              	.LCFI25:
 1464              		.cfi_def_cfa_offset 16
 1465              		.cfi_offset 4, -16
 1466              		.cfi_offset 5, -12
 1467              		.cfi_offset 6, -8
 1468              		.cfi_offset 14, -4
 1469 0002 0446     		mov	r4, r0
 1470 0004 0D46     		mov	r5, r1
 1471 0006 1646     		mov	r6, r2	@ movhi
 182:lvgl/src/lv_widgets/lv_canvas.c **** 
 1472              		.loc 1 182 5 is_stmt 1 view .LVU401
 182:lvgl/src/lv_widgets/lv_canvas.c **** 
 1473              		.loc 1 182 5 view .LVU402
 1474 0008 FFF7FEFF 		bl	lv_debug_check_null
 1475              	.LVL138:
 182:lvgl/src/lv_widgets/lv_canvas.c **** 
 1476              		.loc 1 182 5 is_stmt 0 view .LVU403
 1477 000c 28B9     		cbnz	r0, .L90
 182:lvgl/src/lv_widgets/lv_canvas.c **** 
 1478              		.loc 1 182 5 is_stmt 1 discriminator 1 view .LVU404
 182:lvgl/src/lv_widgets/lv_canvas.c **** 
 1479              		.loc 1 182 5 discriminator 1 view .LVU405
 1480 000e 2246     		mov	r2, r4
 1481 0010 0023     		movs	r3, #0
 1482 0012 0848     		ldr	r0, .L93
 1483 0014 FFF7FEFF 		bl	lv_debug_log_error
 1484              	.LVL139:
 1485              	.L91:
 182:lvgl/src/lv_widgets/lv_canvas.c **** 
 1486              		.loc 1 182 5 discriminator 1 view .LVU406
 182:lvgl/src/lv_widgets/lv_canvas.c **** 
 1487              		.loc 1 182 5 discriminator 1 view .LVU407
 1488 0018 FEE7     		b	.L91
 1489              	.L90:
 182:lvgl/src/lv_widgets/lv_canvas.c **** 
 1490              		.loc 1 182 40 discriminator 2 view .LVU408
 184:lvgl/src/lv_widgets/lv_canvas.c **** 
 1491              		.loc 1 184 5 discriminator 2 view .LVU409
 184:lvgl/src/lv_widgets/lv_canvas.c **** 
 1492              		.loc 1 184 29 is_stmt 0 discriminator 2 view .LVU410
 1493 001a 2046     		mov	r0, r4
 1494 001c FFF7FEFF 		bl	lv_obj_get_ext_attr
 1495              	.LVL140:
ARM GAS  D:\Temp\cc0vPyDE.s 			page 65


 186:lvgl/src/lv_widgets/lv_canvas.c ****     lv_obj_invalidate(canvas);
 1496              		.loc 1 186 5 is_stmt 1 discriminator 2 view .LVU411
 186:lvgl/src/lv_widgets/lv_canvas.c ****     lv_obj_invalidate(canvas);
 1497              		.loc 1 186 5 is_stmt 0 discriminator 2 view .LVU412
 1498 0020 3246     		mov	r2, r6	@ movhi
 1499 0022 2946     		mov	r1, r5
 1500 0024 1830     		adds	r0, r0, #24
 1501              	.LVL141:
 186:lvgl/src/lv_widgets/lv_canvas.c ****     lv_obj_invalidate(canvas);
 1502              		.loc 1 186 5 discriminator 2 view .LVU413
 1503 0026 FFF7FEFF 		bl	lv_img_buf_set_palette
 1504              	.LVL142:
 187:lvgl/src/lv_widgets/lv_canvas.c **** }
 1505              		.loc 1 187 5 is_stmt 1 discriminator 2 view .LVU414
 1506 002a 2046     		mov	r0, r4
 1507 002c FFF7FEFF 		bl	lv_obj_invalidate
 1508              	.LVL143:
 188:lvgl/src/lv_widgets/lv_canvas.c **** 
 1509              		.loc 1 188 1 is_stmt 0 discriminator 2 view .LVU415
 1510 0030 70BD     		pop	{r4, r5, r6, pc}
 1511              	.LVL144:
 1512              	.L94:
 188:lvgl/src/lv_widgets/lv_canvas.c **** 
 1513              		.loc 1 188 1 discriminator 2 view .LVU416
 1514 0032 00BF     		.align	2
 1515              	.L93:
 1516 0034 00000000 		.word	.LC2
 1517              		.cfi_endproc
 1518              	.LFE461:
 1520              		.section	.text.lv_canvas_get_px,"ax",%progbits
 1521              		.align	1
 1522              		.global	lv_canvas_get_px
 1523              		.syntax unified
 1524              		.thumb
 1525              		.thumb_func
 1526              		.fpu fpv4-sp-d16
 1528              	lv_canvas_get_px:
 1529              	.LVL145:
 1530              	.LFB462:
 202:lvgl/src/lv_widgets/lv_canvas.c ****     LV_ASSERT_OBJ(canvas, LV_OBJX_NAME);
 1531              		.loc 1 202 1 is_stmt 1 view -0
 1532              		.cfi_startproc
 1533              		@ args = 0, pretend = 0, frame = 0
 1534              		@ frame_needed = 0, uses_anonymous_args = 0
 202:lvgl/src/lv_widgets/lv_canvas.c ****     LV_ASSERT_OBJ(canvas, LV_OBJX_NAME);
 1535              		.loc 1 202 1 is_stmt 0 view .LVU418
 1536 0000 F8B5     		push	{r3, r4, r5, r6, r7, lr}
 1537              	.LCFI26:
 1538              		.cfi_def_cfa_offset 24
 1539              		.cfi_offset 3, -24
 1540              		.cfi_offset 4, -20
 1541              		.cfi_offset 5, -16
 1542              		.cfi_offset 6, -12
 1543              		.cfi_offset 7, -8
 1544              		.cfi_offset 14, -4
 1545 0002 0446     		mov	r4, r0
 1546 0004 0E46     		mov	r6, r1
ARM GAS  D:\Temp\cc0vPyDE.s 			page 66


 1547 0006 1746     		mov	r7, r2
 203:lvgl/src/lv_widgets/lv_canvas.c **** 
 1548              		.loc 1 203 5 is_stmt 1 view .LVU419
 203:lvgl/src/lv_widgets/lv_canvas.c **** 
 1549              		.loc 1 203 5 view .LVU420
 1550 0008 FFF7FEFF 		bl	lv_debug_check_null
 1551              	.LVL146:
 203:lvgl/src/lv_widgets/lv_canvas.c **** 
 1552              		.loc 1 203 5 is_stmt 0 view .LVU421
 1553 000c 28B9     		cbnz	r0, .L96
 203:lvgl/src/lv_widgets/lv_canvas.c **** 
 1554              		.loc 1 203 5 is_stmt 1 discriminator 1 view .LVU422
 203:lvgl/src/lv_widgets/lv_canvas.c **** 
 1555              		.loc 1 203 5 discriminator 1 view .LVU423
 1556 000e 2246     		mov	r2, r4
 1557 0010 0023     		movs	r3, #0
 1558 0012 0B48     		ldr	r0, .L99
 1559 0014 FFF7FEFF 		bl	lv_debug_log_error
 1560              	.LVL147:
 1561              	.L97:
 203:lvgl/src/lv_widgets/lv_canvas.c **** 
 1562              		.loc 1 203 5 discriminator 1 view .LVU424
 203:lvgl/src/lv_widgets/lv_canvas.c **** 
 1563              		.loc 1 203 5 discriminator 1 view .LVU425
 1564 0018 FEE7     		b	.L97
 1565              	.L96:
 203:lvgl/src/lv_widgets/lv_canvas.c **** 
 1566              		.loc 1 203 40 discriminator 2 view .LVU426
 205:lvgl/src/lv_widgets/lv_canvas.c ****     lv_color_t color = lv_obj_get_style_image_recolor(canvas, LV_CANVAS_PART_MAIN);
 1567              		.loc 1 205 5 discriminator 2 view .LVU427
 205:lvgl/src/lv_widgets/lv_canvas.c ****     lv_color_t color = lv_obj_get_style_image_recolor(canvas, LV_CANVAS_PART_MAIN);
 1568              		.loc 1 205 32 is_stmt 0 discriminator 2 view .LVU428
 1569 001a 2046     		mov	r0, r4
 1570 001c FFF7FEFF 		bl	lv_obj_get_ext_attr
 1571              	.LVL148:
 1572 0020 0546     		mov	r5, r0
 1573              	.LVL149:
 206:lvgl/src/lv_widgets/lv_canvas.c **** 
 1574              		.loc 1 206 5 is_stmt 1 discriminator 2 view .LVU429
 1575              	.LBB84:
 1576              	.LBI84:
 1577              		.file 3 "lvgl/src/lv_widgets/../lv_core/lv_obj_style_dec.h"
   1:lvgl/src/lv_widgets/../lv_core/lv_obj_style_dec.h **** 
   2:lvgl/src/lv_widgets/../lv_core/lv_obj_style_dec.h **** /**
   3:lvgl/src/lv_widgets/../lv_core/lv_obj_style_dec.h ****  * @file lv_obj_style_dec.h
   4:lvgl/src/lv_widgets/../lv_core/lv_obj_style_dec.h ****  *
   5:lvgl/src/lv_widgets/../lv_core/lv_obj_style_dec.h ****  */
   6:lvgl/src/lv_widgets/../lv_core/lv_obj_style_dec.h **** 
   7:lvgl/src/lv_widgets/../lv_core/lv_obj_style_dec.h **** #ifndef LV_OBJ_STYLE_DEC_H
   8:lvgl/src/lv_widgets/../lv_core/lv_obj_style_dec.h **** #define LV_OBJ_STYLE_DEC_H
   9:lvgl/src/lv_widgets/../lv_core/lv_obj_style_dec.h **** 
  10:lvgl/src/lv_widgets/../lv_core/lv_obj_style_dec.h **** #ifdef __cplusplus
  11:lvgl/src/lv_widgets/../lv_core/lv_obj_style_dec.h **** extern "C" {
  12:lvgl/src/lv_widgets/../lv_core/lv_obj_style_dec.h **** #endif
  13:lvgl/src/lv_widgets/../lv_core/lv_obj_style_dec.h **** 
  14:lvgl/src/lv_widgets/../lv_core/lv_obj_style_dec.h **** /*********************
  15:lvgl/src/lv_widgets/../lv_core/lv_obj_style_dec.h ****  *      DEFINES
ARM GAS  D:\Temp\cc0vPyDE.s 			page 67


  16:lvgl/src/lv_widgets/../lv_core/lv_obj_style_dec.h ****  *********************/
  17:lvgl/src/lv_widgets/../lv_core/lv_obj_style_dec.h **** 
  18:lvgl/src/lv_widgets/../lv_core/lv_obj_style_dec.h **** /**
  19:lvgl/src/lv_widgets/../lv_core/lv_obj_style_dec.h ****  * Macro to declare the most important style set/get API functions.
  20:lvgl/src/lv_widgets/../lv_core/lv_obj_style_dec.h ****  *
  21:lvgl/src/lv_widgets/../lv_core/lv_obj_style_dec.h ****  * Get the value of a style property from an object in the object's current state
  22:lvgl/src/lv_widgets/../lv_core/lv_obj_style_dec.h ****  * -----------------------------------------------------------------------------
  23:lvgl/src/lv_widgets/../lv_core/lv_obj_style_dec.h ****  *  - Get the value of a style property from an object in the object's current state.
  24:lvgl/src/lv_widgets/../lv_core/lv_obj_style_dec.h ****  *  - Transition animation is taken into account.
  25:lvgl/src/lv_widgets/../lv_core/lv_obj_style_dec.h ****  *  - If the property is not set in the object's styles check the parent(s) if the property can be 
  26:lvgl/src/lv_widgets/../lv_core/lv_obj_style_dec.h ****  *  - If still not found return a default value.
  27:lvgl/src/lv_widgets/../lv_core/lv_obj_style_dec.h ****  *  - For example:
  28:lvgl/src/lv_widgets/../lv_core/lv_obj_style_dec.h ****  *      `lv_style_int_t w = lv_obj_get_style_border_width(btn1, LV_BTN_PART_MAIN);`
  29:lvgl/src/lv_widgets/../lv_core/lv_obj_style_dec.h ****  *
  30:lvgl/src/lv_widgets/../lv_core/lv_obj_style_dec.h ****  * Set a local style property for an object in a given state
  31:lvgl/src/lv_widgets/../lv_core/lv_obj_style_dec.h ****  * ---------------------------------------------------------
  32:lvgl/src/lv_widgets/../lv_core/lv_obj_style_dec.h ****  *  - For example:
  33:lvgl/src/lv_widgets/../lv_core/lv_obj_style_dec.h ****  *      `lv_obj_set_style_local_border_width(btn1, LV_BTN_PART_MAIN, LV_STATE_PRESSED, 2);`
  34:lvgl/src/lv_widgets/../lv_core/lv_obj_style_dec.h ****  *
  35:lvgl/src/lv_widgets/../lv_core/lv_obj_style_dec.h ****  * Get a local style property's value of an object in a given state
  36:lvgl/src/lv_widgets/../lv_core/lv_obj_style_dec.h ****  * ----------------------------------------------------------------
  37:lvgl/src/lv_widgets/../lv_core/lv_obj_style_dec.h ****  *  - Return the best matching property in the given state.
  38:lvgl/src/lv_widgets/../lv_core/lv_obj_style_dec.h ****  *  - E.g. if `state` parameter is LV_STATE_PRESSED | LV_STATE_CHECKED` but the property defined on
  39:lvgl/src/lv_widgets/../lv_core/lv_obj_style_dec.h ****  *    `LV_STATE_PRESSED` and `LV_STATE_DEFAULT` the best matching state is `LV_STATE_PRESSED`
  40:lvgl/src/lv_widgets/../lv_core/lv_obj_style_dec.h ****  *    (because it has higher precedence) and it will be returned.
  41:lvgl/src/lv_widgets/../lv_core/lv_obj_style_dec.h ****  *  - If the property is not found even in `LV_STATE_DEFAULT` `-1` is returned.
  42:lvgl/src/lv_widgets/../lv_core/lv_obj_style_dec.h ****  *  - For example:
  43:lvgl/src/lv_widgets/../lv_core/lv_obj_style_dec.h ****  *      `//Type of result should be lv_style_int_t/lv_opa_t/lv_color_t/const void * according to th
  44:lvgl/src/lv_widgets/../lv_core/lv_obj_style_dec.h ****  *      `lv_style_int_t result;`
  45:lvgl/src/lv_widgets/../lv_core/lv_obj_style_dec.h ****  *      `lv_obj_get_style_local_border_width(btn1, LV_BTN_PART_MAIN, LV_STATE_PRESSED, &result);`
  46:lvgl/src/lv_widgets/../lv_core/lv_obj_style_dec.h ****  *      `if(weight > 0) ...the property is found and loaded into result...`
  47:lvgl/src/lv_widgets/../lv_core/lv_obj_style_dec.h ****  *
  48:lvgl/src/lv_widgets/../lv_core/lv_obj_style_dec.h ****  * Get the value from a style in a given state
  49:lvgl/src/lv_widgets/../lv_core/lv_obj_style_dec.h ****  * -------------------------------------------
  50:lvgl/src/lv_widgets/../lv_core/lv_obj_style_dec.h ****  * - The same rules applies to the return value then for "lv_obj_get_style_local_...()" above
  51:lvgl/src/lv_widgets/../lv_core/lv_obj_style_dec.h ****  * - For example
  52:lvgl/src/lv_widgets/../lv_core/lv_obj_style_dec.h ****  *      `int16_t weight = lv_style_get_border_width(&style1, LV_STATE_PRESSED, &result);`
  53:lvgl/src/lv_widgets/../lv_core/lv_obj_style_dec.h ****  *      `if(weight > 0) ...the property is found and loaded into result...`
  54:lvgl/src/lv_widgets/../lv_core/lv_obj_style_dec.h **** 
  55:lvgl/src/lv_widgets/../lv_core/lv_obj_style_dec.h ****  * Set a value in a style in a given state
  56:lvgl/src/lv_widgets/../lv_core/lv_obj_style_dec.h ****  * ---------------------------------------
  57:lvgl/src/lv_widgets/../lv_core/lv_obj_style_dec.h ****  * - For example
  58:lvgl/src/lv_widgets/../lv_core/lv_obj_style_dec.h ****  *      `lv_style_set_border_width(&style1, LV_STATE_PRESSED, 2);`
  59:lvgl/src/lv_widgets/../lv_core/lv_obj_style_dec.h ****  */
  60:lvgl/src/lv_widgets/../lv_core/lv_obj_style_dec.h **** 
  61:lvgl/src/lv_widgets/../lv_core/lv_obj_style_dec.h **** #define _OBJ_GET_STYLE_scalar(prop_name, func_name, value_type, style_type)                        
  62:lvgl/src/lv_widgets/../lv_core/lv_obj_style_dec.h ****     static inline value_type lv_obj_get_style_##func_name (const lv_obj_t * obj, uint8_t part)     
  63:lvgl/src/lv_widgets/../lv_core/lv_obj_style_dec.h ****     {                                                                                              
  64:lvgl/src/lv_widgets/../lv_core/lv_obj_style_dec.h ****         return (value_type) _lv_obj_get_style##style_type (obj, part, LV_STYLE_##prop_name);       
  65:lvgl/src/lv_widgets/../lv_core/lv_obj_style_dec.h ****     }
  66:lvgl/src/lv_widgets/../lv_core/lv_obj_style_dec.h **** 
  67:lvgl/src/lv_widgets/../lv_core/lv_obj_style_dec.h **** #define _OBJ_GET_STYLE_nonscalar(prop_name, func_name, value_type, style_type)                     
  68:lvgl/src/lv_widgets/../lv_core/lv_obj_style_dec.h ****     static inline value_type lv_obj_get_style_##func_name (const lv_obj_t * obj, uint8_t part)     
  69:lvgl/src/lv_widgets/../lv_core/lv_obj_style_dec.h ****     {                                                                                              
  70:lvgl/src/lv_widgets/../lv_core/lv_obj_style_dec.h ****         return _lv_obj_get_style##style_type (obj, part, LV_STYLE_##prop_name);                    
