ARM GAS  D:\Temp\cclvo1nc.s 			page 1


   1              		.cpu cortex-m4
   2              		.eabi_attribute 27, 1
   3              		.eabi_attribute 28, 1
   4              		.eabi_attribute 20, 1
   5              		.eabi_attribute 21, 1
   6              		.eabi_attribute 23, 3
   7              		.eabi_attribute 24, 1
   8              		.eabi_attribute 25, 1
   9              		.eabi_attribute 26, 1
  10              		.eabi_attribute 30, 1
  11              		.eabi_attribute 34, 1
  12              		.eabi_attribute 18, 4
  13              		.file	"lv_calendar.c"
  14              		.text
  15              	.Ltext0:
  16              		.cfi_sections	.debug_frame
  17              		.section	.text.is_leap_year,"ax",%progbits
  18              		.align	1
  19              		.arch armv7e-m
  20              		.syntax unified
  21              		.thumb
  22              		.thumb_func
  23              		.fpu fpv4-sp-d16
  25              	is_leap_year:
  26              	.LVL0:
  27              	.LFB486:
  28              		.file 1 "lvgl/src/lv_widgets/lv_calendar.c"
   1:lvgl/src/lv_widgets/lv_calendar.c **** /**
   2:lvgl/src/lv_widgets/lv_calendar.c ****  * @file lv_calendar.c
   3:lvgl/src/lv_widgets/lv_calendar.c ****  *
   4:lvgl/src/lv_widgets/lv_calendar.c ****  */
   5:lvgl/src/lv_widgets/lv_calendar.c **** 
   6:lvgl/src/lv_widgets/lv_calendar.c **** /*********************
   7:lvgl/src/lv_widgets/lv_calendar.c ****  *      INCLUDES
   8:lvgl/src/lv_widgets/lv_calendar.c ****  *********************/
   9:lvgl/src/lv_widgets/lv_calendar.c **** #include "lv_calendar.h"
  10:lvgl/src/lv_widgets/lv_calendar.c **** #if LV_USE_CALENDAR != 0
  11:lvgl/src/lv_widgets/lv_calendar.c **** 
  12:lvgl/src/lv_widgets/lv_calendar.c **** #include "../lv_misc/lv_debug.h"
  13:lvgl/src/lv_widgets/lv_calendar.c **** #include "../lv_draw/lv_draw.h"
  14:lvgl/src/lv_widgets/lv_calendar.c **** #include "../lv_hal/lv_hal_indev.h"
  15:lvgl/src/lv_widgets/lv_calendar.c **** #include "../lv_misc/lv_utils.h"
  16:lvgl/src/lv_widgets/lv_calendar.c **** #include "../lv_core/lv_indev.h"
  17:lvgl/src/lv_widgets/lv_calendar.c **** #include "../lv_themes/lv_theme.h"
  18:lvgl/src/lv_widgets/lv_calendar.c **** #include <string.h>
  19:lvgl/src/lv_widgets/lv_calendar.c **** 
  20:lvgl/src/lv_widgets/lv_calendar.c **** /*********************
  21:lvgl/src/lv_widgets/lv_calendar.c ****  *      DEFINES
  22:lvgl/src/lv_widgets/lv_calendar.c ****  *********************/
  23:lvgl/src/lv_widgets/lv_calendar.c **** #define LV_OBJX_NAME "lv_calendar"
  24:lvgl/src/lv_widgets/lv_calendar.c **** 
  25:lvgl/src/lv_widgets/lv_calendar.c **** /**********************
  26:lvgl/src/lv_widgets/lv_calendar.c ****  *      TYPEDEFS
  27:lvgl/src/lv_widgets/lv_calendar.c ****  **********************/
  28:lvgl/src/lv_widgets/lv_calendar.c **** enum {
  29:lvgl/src/lv_widgets/lv_calendar.c ****     DAY_DRAW_PREV_MONTH,
  30:lvgl/src/lv_widgets/lv_calendar.c ****     DAY_DRAW_ACT_MONTH,
ARM GAS  D:\Temp\cclvo1nc.s 			page 2


  31:lvgl/src/lv_widgets/lv_calendar.c ****     DAY_DRAW_NEXT_MONTH,
  32:lvgl/src/lv_widgets/lv_calendar.c **** };
  33:lvgl/src/lv_widgets/lv_calendar.c **** typedef uint8_t day_draw_state_t;
  34:lvgl/src/lv_widgets/lv_calendar.c **** 
  35:lvgl/src/lv_widgets/lv_calendar.c **** /**********************
  36:lvgl/src/lv_widgets/lv_calendar.c ****  *  STATIC PROTOTYPES
  37:lvgl/src/lv_widgets/lv_calendar.c ****  **********************/
  38:lvgl/src/lv_widgets/lv_calendar.c **** static lv_design_res_t lv_calendar_design(lv_obj_t * calendar, const lv_area_t * clip_area, lv_desi
  39:lvgl/src/lv_widgets/lv_calendar.c **** static lv_res_t lv_calendar_signal(lv_obj_t * calendar, lv_signal_t sign, void * param);
  40:lvgl/src/lv_widgets/lv_calendar.c **** static lv_style_list_t * lv_calendar_get_style(lv_obj_t * calendar, uint8_t part);
  41:lvgl/src/lv_widgets/lv_calendar.c **** static bool calculate_touched_day(lv_obj_t * calendar, const lv_point_t * touched_point);
  42:lvgl/src/lv_widgets/lv_calendar.c **** static lv_coord_t get_header_height(lv_obj_t * calendar);
  43:lvgl/src/lv_widgets/lv_calendar.c **** static lv_coord_t get_day_names_height(lv_obj_t * calendar);
  44:lvgl/src/lv_widgets/lv_calendar.c **** static void draw_header(lv_obj_t * calendar, const lv_area_t * mask);
  45:lvgl/src/lv_widgets/lv_calendar.c **** static void draw_day_names(lv_obj_t * calendar, const lv_area_t * mask);
  46:lvgl/src/lv_widgets/lv_calendar.c **** static void draw_dates(lv_obj_t * calendar, const lv_area_t * clip_area);
  47:lvgl/src/lv_widgets/lv_calendar.c **** static bool is_highlighted(lv_obj_t * calendar, day_draw_state_t draw_state, int32_t year, int32_t 
  48:lvgl/src/lv_widgets/lv_calendar.c **** static bool is_pressed(lv_obj_t * calendar, day_draw_state_t draw_state, int32_t year, int32_t mont
  49:lvgl/src/lv_widgets/lv_calendar.c **** static const char * get_day_name(lv_obj_t * calendar, uint8_t day);
  50:lvgl/src/lv_widgets/lv_calendar.c **** static const char * get_month_name(lv_obj_t * calendar, int32_t month);
  51:lvgl/src/lv_widgets/lv_calendar.c **** static uint8_t get_month_length(int32_t year, int32_t month);
  52:lvgl/src/lv_widgets/lv_calendar.c **** static uint8_t is_leap_year(uint32_t year);
  53:lvgl/src/lv_widgets/lv_calendar.c **** 
  54:lvgl/src/lv_widgets/lv_calendar.c **** /**********************
  55:lvgl/src/lv_widgets/lv_calendar.c ****  *  STATIC VARIABLES
  56:lvgl/src/lv_widgets/lv_calendar.c ****  **********************/
  57:lvgl/src/lv_widgets/lv_calendar.c **** static lv_signal_cb_t ancestor_signal;
  58:lvgl/src/lv_widgets/lv_calendar.c **** static lv_design_cb_t ancestor_design;
  59:lvgl/src/lv_widgets/lv_calendar.c **** #if LV_CALENDAR_WEEK_STARTS_MONDAY != 0
  60:lvgl/src/lv_widgets/lv_calendar.c **** static const char * day_name[7]    = {"Mo", "Tu", "We", "Th", "Fr", "Sa", "Su"};
  61:lvgl/src/lv_widgets/lv_calendar.c **** #else
  62:lvgl/src/lv_widgets/lv_calendar.c **** static const char * day_name[7]    = {"Su", "Mo", "Tu", "We", "Th", "Fr", "Sa"};
  63:lvgl/src/lv_widgets/lv_calendar.c **** #endif
  64:lvgl/src/lv_widgets/lv_calendar.c **** static const char * month_name[12] = {"January", "February", "March",     "April",   "May",      "J
  65:lvgl/src/lv_widgets/lv_calendar.c ****                                       "July",    "August",   "September", "October", "November", "D
  66:lvgl/src/lv_widgets/lv_calendar.c ****                                      };
  67:lvgl/src/lv_widgets/lv_calendar.c **** 
  68:lvgl/src/lv_widgets/lv_calendar.c **** /**********************
  69:lvgl/src/lv_widgets/lv_calendar.c ****  *      MACROS
  70:lvgl/src/lv_widgets/lv_calendar.c ****  **********************/
  71:lvgl/src/lv_widgets/lv_calendar.c **** 
  72:lvgl/src/lv_widgets/lv_calendar.c **** /**********************
  73:lvgl/src/lv_widgets/lv_calendar.c ****  *   GLOBAL FUNCTIONS
  74:lvgl/src/lv_widgets/lv_calendar.c ****  **********************/
  75:lvgl/src/lv_widgets/lv_calendar.c **** 
  76:lvgl/src/lv_widgets/lv_calendar.c **** /**
  77:lvgl/src/lv_widgets/lv_calendar.c ****  * Create a calendar object
  78:lvgl/src/lv_widgets/lv_calendar.c ****  * @param par pointer to an object, it will be the parent of the new calendar
  79:lvgl/src/lv_widgets/lv_calendar.c ****  * @param copy pointer to a calendar object, if not NULL then the new object will be copied from it
  80:lvgl/src/lv_widgets/lv_calendar.c ****  * @return pointer to the created calendar
  81:lvgl/src/lv_widgets/lv_calendar.c ****  */
  82:lvgl/src/lv_widgets/lv_calendar.c **** lv_obj_t * lv_calendar_create(lv_obj_t * par, const lv_obj_t * copy)
  83:lvgl/src/lv_widgets/lv_calendar.c **** {
  84:lvgl/src/lv_widgets/lv_calendar.c ****     LV_LOG_TRACE("calendar create started");
  85:lvgl/src/lv_widgets/lv_calendar.c **** 
  86:lvgl/src/lv_widgets/lv_calendar.c ****     /*Create the ancestor of calendar*/
  87:lvgl/src/lv_widgets/lv_calendar.c ****     lv_obj_t * calendar = lv_obj_create(par, copy);
ARM GAS  D:\Temp\cclvo1nc.s 			page 3


  88:lvgl/src/lv_widgets/lv_calendar.c ****     LV_ASSERT_MEM(calendar);
  89:lvgl/src/lv_widgets/lv_calendar.c ****     if(calendar == NULL) return NULL;
  90:lvgl/src/lv_widgets/lv_calendar.c **** 
  91:lvgl/src/lv_widgets/lv_calendar.c ****     /*Allocate the calendar type specific extended data*/
  92:lvgl/src/lv_widgets/lv_calendar.c ****     lv_calendar_ext_t * ext = lv_obj_allocate_ext_attr(calendar, sizeof(lv_calendar_ext_t));
  93:lvgl/src/lv_widgets/lv_calendar.c ****     LV_ASSERT_MEM(ext);
  94:lvgl/src/lv_widgets/lv_calendar.c ****     if(ext == NULL) {
  95:lvgl/src/lv_widgets/lv_calendar.c ****         lv_obj_del(calendar);
  96:lvgl/src/lv_widgets/lv_calendar.c ****         return NULL;
  97:lvgl/src/lv_widgets/lv_calendar.c ****     }
  98:lvgl/src/lv_widgets/lv_calendar.c **** 
  99:lvgl/src/lv_widgets/lv_calendar.c ****     if(ancestor_signal == NULL) ancestor_signal = lv_obj_get_signal_cb(calendar);
 100:lvgl/src/lv_widgets/lv_calendar.c ****     if(ancestor_design == NULL) ancestor_design = lv_obj_get_design_cb(calendar);
 101:lvgl/src/lv_widgets/lv_calendar.c **** 
 102:lvgl/src/lv_widgets/lv_calendar.c ****     /*Initialize the allocated 'ext' */
 103:lvgl/src/lv_widgets/lv_calendar.c ****     ext->today.year  = 2020;
 104:lvgl/src/lv_widgets/lv_calendar.c ****     ext->today.month = 1;
 105:lvgl/src/lv_widgets/lv_calendar.c ****     ext->today.day   = 1;
 106:lvgl/src/lv_widgets/lv_calendar.c **** 
 107:lvgl/src/lv_widgets/lv_calendar.c ****     ext->showed_date.year  = 2020;
 108:lvgl/src/lv_widgets/lv_calendar.c ****     ext->showed_date.month = 1;
 109:lvgl/src/lv_widgets/lv_calendar.c ****     ext->showed_date.day   = 1;
 110:lvgl/src/lv_widgets/lv_calendar.c **** 
 111:lvgl/src/lv_widgets/lv_calendar.c ****     ext->pressed_date.year  = 0;
 112:lvgl/src/lv_widgets/lv_calendar.c ****     ext->pressed_date.month = 0;
 113:lvgl/src/lv_widgets/lv_calendar.c ****     ext->pressed_date.day   = 0;
 114:lvgl/src/lv_widgets/lv_calendar.c **** 
 115:lvgl/src/lv_widgets/lv_calendar.c ****     ext->highlighted_dates      = NULL;
 116:lvgl/src/lv_widgets/lv_calendar.c ****     ext->highlighted_dates_num  = 0;
 117:lvgl/src/lv_widgets/lv_calendar.c ****     ext->day_names              = NULL;
 118:lvgl/src/lv_widgets/lv_calendar.c ****     ext->month_names            = NULL;
 119:lvgl/src/lv_widgets/lv_calendar.c **** 
 120:lvgl/src/lv_widgets/lv_calendar.c ****     ext->btn_pressing = 0;
 121:lvgl/src/lv_widgets/lv_calendar.c **** 
 122:lvgl/src/lv_widgets/lv_calendar.c ****     lv_style_list_init(&ext->style_date_nums);
 123:lvgl/src/lv_widgets/lv_calendar.c ****     lv_style_list_init(&ext->style_day_names);
 124:lvgl/src/lv_widgets/lv_calendar.c ****     lv_style_list_init(&ext->style_header);
 125:lvgl/src/lv_widgets/lv_calendar.c ****     ext->style_date_nums.skip_trans = 1;
 126:lvgl/src/lv_widgets/lv_calendar.c ****     ext->style_day_names.skip_trans = 1;
 127:lvgl/src/lv_widgets/lv_calendar.c ****     ext->style_header.skip_trans = 1;
 128:lvgl/src/lv_widgets/lv_calendar.c **** 
 129:lvgl/src/lv_widgets/lv_calendar.c ****     /*The signal and design functions are not copied so set them here*/
 130:lvgl/src/lv_widgets/lv_calendar.c ****     lv_obj_set_signal_cb(calendar, lv_calendar_signal);
 131:lvgl/src/lv_widgets/lv_calendar.c ****     lv_obj_set_design_cb(calendar, lv_calendar_design);
 132:lvgl/src/lv_widgets/lv_calendar.c **** 
 133:lvgl/src/lv_widgets/lv_calendar.c ****     /*Init the new calendar calendar*/
 134:lvgl/src/lv_widgets/lv_calendar.c ****     if(copy == NULL) {
 135:lvgl/src/lv_widgets/lv_calendar.c ****         lv_theme_apply(calendar, LV_THEME_CALENDAR);
 136:lvgl/src/lv_widgets/lv_calendar.c **** 
 137:lvgl/src/lv_widgets/lv_calendar.c ****         lv_obj_set_size(calendar, 5 * LV_DPI / 2, 5 * LV_DPI / 2);
 138:lvgl/src/lv_widgets/lv_calendar.c **** 
 139:lvgl/src/lv_widgets/lv_calendar.c ****     }
 140:lvgl/src/lv_widgets/lv_calendar.c ****     /*Copy an existing calendar*/
 141:lvgl/src/lv_widgets/lv_calendar.c ****     else {
 142:lvgl/src/lv_widgets/lv_calendar.c ****         lv_calendar_ext_t * copy_ext = lv_obj_get_ext_attr(copy);
 143:lvgl/src/lv_widgets/lv_calendar.c ****         ext->today.year              = copy_ext->today.year;
 144:lvgl/src/lv_widgets/lv_calendar.c ****         ext->today.month             = copy_ext->today.month;
ARM GAS  D:\Temp\cclvo1nc.s 			page 4


 145:lvgl/src/lv_widgets/lv_calendar.c ****         ext->today.day               = copy_ext->today.day;
 146:lvgl/src/lv_widgets/lv_calendar.c **** 
 147:lvgl/src/lv_widgets/lv_calendar.c ****         ext->showed_date.year  = copy_ext->showed_date.year;
 148:lvgl/src/lv_widgets/lv_calendar.c ****         ext->showed_date.month = copy_ext->showed_date.month;
 149:lvgl/src/lv_widgets/lv_calendar.c ****         ext->showed_date.day   = copy_ext->showed_date.day;
 150:lvgl/src/lv_widgets/lv_calendar.c **** 
 151:lvgl/src/lv_widgets/lv_calendar.c ****         ext->highlighted_dates     = copy_ext->highlighted_dates;
 152:lvgl/src/lv_widgets/lv_calendar.c ****         ext->highlighted_dates_num = copy_ext->highlighted_dates_num;
 153:lvgl/src/lv_widgets/lv_calendar.c ****         ext->day_names             = copy_ext->day_names;
 154:lvgl/src/lv_widgets/lv_calendar.c **** 
 155:lvgl/src/lv_widgets/lv_calendar.c ****         ext->month_names            = copy_ext->month_names;
 156:lvgl/src/lv_widgets/lv_calendar.c ****         ext->style_header           = copy_ext->style_header;
 157:lvgl/src/lv_widgets/lv_calendar.c ****         ext->style_day_names        = copy_ext->style_day_names;
 158:lvgl/src/lv_widgets/lv_calendar.c ****         /*Refresh the style with new signal function*/
 159:lvgl/src/lv_widgets/lv_calendar.c ****         //        lv_obj_refresh_style(new_calendar);
 160:lvgl/src/lv_widgets/lv_calendar.c ****     }
 161:lvgl/src/lv_widgets/lv_calendar.c **** 
 162:lvgl/src/lv_widgets/lv_calendar.c ****     LV_LOG_INFO("calendar created");
 163:lvgl/src/lv_widgets/lv_calendar.c **** 
 164:lvgl/src/lv_widgets/lv_calendar.c ****     return calendar;
 165:lvgl/src/lv_widgets/lv_calendar.c **** }
 166:lvgl/src/lv_widgets/lv_calendar.c **** 
 167:lvgl/src/lv_widgets/lv_calendar.c **** /*======================
 168:lvgl/src/lv_widgets/lv_calendar.c ****  * Add/remove functions
 169:lvgl/src/lv_widgets/lv_calendar.c ****  *=====================*/
 170:lvgl/src/lv_widgets/lv_calendar.c **** 
 171:lvgl/src/lv_widgets/lv_calendar.c **** /*
 172:lvgl/src/lv_widgets/lv_calendar.c ****  * New object specific "add" or "remove" functions come here
 173:lvgl/src/lv_widgets/lv_calendar.c ****  */
 174:lvgl/src/lv_widgets/lv_calendar.c **** 
 175:lvgl/src/lv_widgets/lv_calendar.c **** /*=====================
 176:lvgl/src/lv_widgets/lv_calendar.c ****  * Setter functions
 177:lvgl/src/lv_widgets/lv_calendar.c ****  *====================*/
 178:lvgl/src/lv_widgets/lv_calendar.c **** 
 179:lvgl/src/lv_widgets/lv_calendar.c **** /**
 180:lvgl/src/lv_widgets/lv_calendar.c ****  * Set the today's date
 181:lvgl/src/lv_widgets/lv_calendar.c ****  * @param calendar pointer to a calendar object
 182:lvgl/src/lv_widgets/lv_calendar.c ****  * @param today pointer to an `lv_calendar_date_t` variable containing the date of today. The value
 183:lvgl/src/lv_widgets/lv_calendar.c ****  * will be saved it can be local variable too.
 184:lvgl/src/lv_widgets/lv_calendar.c ****  */
 185:lvgl/src/lv_widgets/lv_calendar.c **** void lv_calendar_set_today_date(lv_obj_t * calendar, lv_calendar_date_t * today)
 186:lvgl/src/lv_widgets/lv_calendar.c **** {
 187:lvgl/src/lv_widgets/lv_calendar.c ****     LV_ASSERT_OBJ(calendar, LV_OBJX_NAME);
 188:lvgl/src/lv_widgets/lv_calendar.c ****     LV_ASSERT_NULL(today);
 189:lvgl/src/lv_widgets/lv_calendar.c **** 
 190:lvgl/src/lv_widgets/lv_calendar.c ****     lv_calendar_ext_t * ext = lv_obj_get_ext_attr(calendar);
 191:lvgl/src/lv_widgets/lv_calendar.c ****     ext->today.year         = today->year;
 192:lvgl/src/lv_widgets/lv_calendar.c ****     ext->today.month        = today->month;
 193:lvgl/src/lv_widgets/lv_calendar.c ****     ext->today.day          = today->day;
 194:lvgl/src/lv_widgets/lv_calendar.c **** 
 195:lvgl/src/lv_widgets/lv_calendar.c ****     lv_obj_invalidate(calendar);
 196:lvgl/src/lv_widgets/lv_calendar.c **** }
 197:lvgl/src/lv_widgets/lv_calendar.c **** 
 198:lvgl/src/lv_widgets/lv_calendar.c **** /**
 199:lvgl/src/lv_widgets/lv_calendar.c ****  * Set the currently showed
 200:lvgl/src/lv_widgets/lv_calendar.c ****  * @param calendar pointer to a calendar object
 201:lvgl/src/lv_widgets/lv_calendar.c ****  * @param showed pointer to an `lv_calendar_date_t` variable containing the date to show. The value
ARM GAS  D:\Temp\cclvo1nc.s 			page 5


 202:lvgl/src/lv_widgets/lv_calendar.c ****  * will be saved it can be local variable too.
 203:lvgl/src/lv_widgets/lv_calendar.c ****  */
 204:lvgl/src/lv_widgets/lv_calendar.c **** void lv_calendar_set_showed_date(lv_obj_t * calendar, lv_calendar_date_t * showed)
 205:lvgl/src/lv_widgets/lv_calendar.c **** {
 206:lvgl/src/lv_widgets/lv_calendar.c ****     LV_ASSERT_OBJ(calendar, LV_OBJX_NAME);
 207:lvgl/src/lv_widgets/lv_calendar.c ****     LV_ASSERT_NULL(showed);
 208:lvgl/src/lv_widgets/lv_calendar.c **** 
 209:lvgl/src/lv_widgets/lv_calendar.c ****     lv_calendar_ext_t * ext = lv_obj_get_ext_attr(calendar);
 210:lvgl/src/lv_widgets/lv_calendar.c ****     ext->showed_date.year   = showed->year;
 211:lvgl/src/lv_widgets/lv_calendar.c ****     ext->showed_date.month  = showed->month;
 212:lvgl/src/lv_widgets/lv_calendar.c ****     ext->showed_date.day    = showed->day;
 213:lvgl/src/lv_widgets/lv_calendar.c **** 
 214:lvgl/src/lv_widgets/lv_calendar.c ****     lv_obj_invalidate(calendar);
 215:lvgl/src/lv_widgets/lv_calendar.c **** }
 216:lvgl/src/lv_widgets/lv_calendar.c **** 
 217:lvgl/src/lv_widgets/lv_calendar.c **** /**
 218:lvgl/src/lv_widgets/lv_calendar.c ****  * Set the highlighted dates
 219:lvgl/src/lv_widgets/lv_calendar.c ****  * @param calendar pointer to a calendar object
 220:lvgl/src/lv_widgets/lv_calendar.c ****  * @param highlighted pointer to an `lv_calendar_date_t` array containing the dates. ONLY A POINTER
 221:lvgl/src/lv_widgets/lv_calendar.c ****  * WILL BE SAVED! CAN'T BE LOCAL ARRAY.
 222:lvgl/src/lv_widgets/lv_calendar.c ****  * @param date_num number of dates in the array
 223:lvgl/src/lv_widgets/lv_calendar.c ****  */
 224:lvgl/src/lv_widgets/lv_calendar.c **** void lv_calendar_set_highlighted_dates(lv_obj_t * calendar, lv_calendar_date_t highlighted[], uint1
 225:lvgl/src/lv_widgets/lv_calendar.c **** {
 226:lvgl/src/lv_widgets/lv_calendar.c ****     LV_ASSERT_OBJ(calendar, LV_OBJX_NAME);
 227:lvgl/src/lv_widgets/lv_calendar.c ****     LV_ASSERT_NULL(highlighted);
 228:lvgl/src/lv_widgets/lv_calendar.c **** 
 229:lvgl/src/lv_widgets/lv_calendar.c ****     lv_calendar_ext_t * ext    = lv_obj_get_ext_attr(calendar);
 230:lvgl/src/lv_widgets/lv_calendar.c ****     ext->highlighted_dates     = highlighted;
 231:lvgl/src/lv_widgets/lv_calendar.c ****     ext->highlighted_dates_num = date_num;
 232:lvgl/src/lv_widgets/lv_calendar.c **** 
 233:lvgl/src/lv_widgets/lv_calendar.c ****     lv_obj_invalidate(calendar);
 234:lvgl/src/lv_widgets/lv_calendar.c **** }
 235:lvgl/src/lv_widgets/lv_calendar.c **** 
 236:lvgl/src/lv_widgets/lv_calendar.c **** /**
 237:lvgl/src/lv_widgets/lv_calendar.c ****  * Set the name of the days
 238:lvgl/src/lv_widgets/lv_calendar.c ****  * @param calendar pointer to a calendar object
 239:lvgl/src/lv_widgets/lv_calendar.c ****  * @param day_names pointer to an array with the names. E.g. `const char * days[7] = {"Sun", "Mon",
 240:lvgl/src/lv_widgets/lv_calendar.c ****  * ...}` Only the pointer will be saved so this variable can't be local which will be destroyed
 241:lvgl/src/lv_widgets/lv_calendar.c ****  * later.
 242:lvgl/src/lv_widgets/lv_calendar.c ****  */
 243:lvgl/src/lv_widgets/lv_calendar.c **** void lv_calendar_set_day_names(lv_obj_t * calendar, const char ** day_names)
 244:lvgl/src/lv_widgets/lv_calendar.c **** {
 245:lvgl/src/lv_widgets/lv_calendar.c ****     LV_ASSERT_OBJ(calendar, LV_OBJX_NAME);
 246:lvgl/src/lv_widgets/lv_calendar.c ****     LV_ASSERT_NULL(day_names);
 247:lvgl/src/lv_widgets/lv_calendar.c **** 
 248:lvgl/src/lv_widgets/lv_calendar.c ****     lv_calendar_ext_t * ext = lv_obj_get_ext_attr(calendar);
 249:lvgl/src/lv_widgets/lv_calendar.c ****     ext->day_names          = day_names;
 250:lvgl/src/lv_widgets/lv_calendar.c ****     lv_obj_invalidate(calendar);
 251:lvgl/src/lv_widgets/lv_calendar.c **** }
 252:lvgl/src/lv_widgets/lv_calendar.c **** 
 253:lvgl/src/lv_widgets/lv_calendar.c **** /**
 254:lvgl/src/lv_widgets/lv_calendar.c ****  * Set the name of the month
 255:lvgl/src/lv_widgets/lv_calendar.c ****  * @param calendar pointer to a calendar object
 256:lvgl/src/lv_widgets/lv_calendar.c ****  * @param month_names pointer to an array with the names. E.g. `const char * days[12] = {"Jan", "Fe
 257:lvgl/src/lv_widgets/lv_calendar.c ****  * ...}` Only the pointer will be saved so this variable can't be local which will be destroyed
 258:lvgl/src/lv_widgets/lv_calendar.c ****  * later.
ARM GAS  D:\Temp\cclvo1nc.s 			page 6


 259:lvgl/src/lv_widgets/lv_calendar.c ****  */
 260:lvgl/src/lv_widgets/lv_calendar.c **** void lv_calendar_set_month_names(lv_obj_t * calendar, const char ** month_names)
 261:lvgl/src/lv_widgets/lv_calendar.c **** {
 262:lvgl/src/lv_widgets/lv_calendar.c ****     LV_ASSERT_OBJ(calendar, LV_OBJX_NAME);
 263:lvgl/src/lv_widgets/lv_calendar.c ****     LV_ASSERT_NULL(month_names);
 264:lvgl/src/lv_widgets/lv_calendar.c **** 
 265:lvgl/src/lv_widgets/lv_calendar.c ****     lv_calendar_ext_t * ext = lv_obj_get_ext_attr(calendar);
 266:lvgl/src/lv_widgets/lv_calendar.c ****     ext->month_names        = month_names;
 267:lvgl/src/lv_widgets/lv_calendar.c ****     lv_obj_invalidate(calendar);
 268:lvgl/src/lv_widgets/lv_calendar.c **** }
 269:lvgl/src/lv_widgets/lv_calendar.c **** 
 270:lvgl/src/lv_widgets/lv_calendar.c **** /*=====================
 271:lvgl/src/lv_widgets/lv_calendar.c ****  * Getter functions
 272:lvgl/src/lv_widgets/lv_calendar.c ****  *====================*/
 273:lvgl/src/lv_widgets/lv_calendar.c **** 
 274:lvgl/src/lv_widgets/lv_calendar.c **** /**
 275:lvgl/src/lv_widgets/lv_calendar.c ****  * Get the today's date
 276:lvgl/src/lv_widgets/lv_calendar.c ****  * @param calendar pointer to a calendar object
 277:lvgl/src/lv_widgets/lv_calendar.c ****  * @return return pointer to an `lv_calendar_date_t` variable containing the date of today.
 278:lvgl/src/lv_widgets/lv_calendar.c ****  */
 279:lvgl/src/lv_widgets/lv_calendar.c **** lv_calendar_date_t * lv_calendar_get_today_date(const lv_obj_t * calendar)
 280:lvgl/src/lv_widgets/lv_calendar.c **** {
 281:lvgl/src/lv_widgets/lv_calendar.c ****     LV_ASSERT_OBJ(calendar, LV_OBJX_NAME);
 282:lvgl/src/lv_widgets/lv_calendar.c **** 
 283:lvgl/src/lv_widgets/lv_calendar.c ****     lv_calendar_ext_t * ext = lv_obj_get_ext_attr(calendar);
 284:lvgl/src/lv_widgets/lv_calendar.c ****     return &ext->today;
 285:lvgl/src/lv_widgets/lv_calendar.c **** }
 286:lvgl/src/lv_widgets/lv_calendar.c **** 
 287:lvgl/src/lv_widgets/lv_calendar.c **** /**
 288:lvgl/src/lv_widgets/lv_calendar.c ****  * Get the currently showed
 289:lvgl/src/lv_widgets/lv_calendar.c ****  * @param calendar pointer to a calendar object
 290:lvgl/src/lv_widgets/lv_calendar.c ****  * @return pointer to an `lv_calendar_date_t` variable containing the date is being shown.
 291:lvgl/src/lv_widgets/lv_calendar.c ****  */
 292:lvgl/src/lv_widgets/lv_calendar.c **** lv_calendar_date_t * lv_calendar_get_showed_date(const lv_obj_t * calendar)
 293:lvgl/src/lv_widgets/lv_calendar.c **** {
 294:lvgl/src/lv_widgets/lv_calendar.c ****     LV_ASSERT_OBJ(calendar, LV_OBJX_NAME);
 295:lvgl/src/lv_widgets/lv_calendar.c **** 
 296:lvgl/src/lv_widgets/lv_calendar.c ****     lv_calendar_ext_t * ext = lv_obj_get_ext_attr(calendar);
 297:lvgl/src/lv_widgets/lv_calendar.c ****     return &ext->showed_date;
 298:lvgl/src/lv_widgets/lv_calendar.c **** }
 299:lvgl/src/lv_widgets/lv_calendar.c **** 
 300:lvgl/src/lv_widgets/lv_calendar.c **** /**
 301:lvgl/src/lv_widgets/lv_calendar.c ****  * Get the pressed date.
 302:lvgl/src/lv_widgets/lv_calendar.c ****  * @param calendar pointer to a calendar object
 303:lvgl/src/lv_widgets/lv_calendar.c ****  * @return pointer to an `lv_calendar_date_t` variable containing the pressed date.
 304:lvgl/src/lv_widgets/lv_calendar.c ****  * `NULL` if not date pressed (e.g. the header)
 305:lvgl/src/lv_widgets/lv_calendar.c ****  */
 306:lvgl/src/lv_widgets/lv_calendar.c **** lv_calendar_date_t * lv_calendar_get_pressed_date(const lv_obj_t * calendar)
 307:lvgl/src/lv_widgets/lv_calendar.c **** {
 308:lvgl/src/lv_widgets/lv_calendar.c ****     LV_ASSERT_OBJ(calendar, LV_OBJX_NAME);
 309:lvgl/src/lv_widgets/lv_calendar.c **** 
 310:lvgl/src/lv_widgets/lv_calendar.c ****     lv_calendar_ext_t * ext = lv_obj_get_ext_attr(calendar);
 311:lvgl/src/lv_widgets/lv_calendar.c ****     return ext->pressed_date.year != 0 ? &ext->pressed_date : NULL;
 312:lvgl/src/lv_widgets/lv_calendar.c **** }
 313:lvgl/src/lv_widgets/lv_calendar.c **** 
 314:lvgl/src/lv_widgets/lv_calendar.c **** /**
 315:lvgl/src/lv_widgets/lv_calendar.c ****  * Get the highlighted dates
ARM GAS  D:\Temp\cclvo1nc.s 			page 7


 316:lvgl/src/lv_widgets/lv_calendar.c ****  * @param calendar pointer to a calendar object
 317:lvgl/src/lv_widgets/lv_calendar.c ****  * @return pointer to an `lv_calendar_date_t` array containing the dates.
 318:lvgl/src/lv_widgets/lv_calendar.c ****  */
 319:lvgl/src/lv_widgets/lv_calendar.c **** lv_calendar_date_t * lv_calendar_get_highlighted_dates(const lv_obj_t * calendar)
 320:lvgl/src/lv_widgets/lv_calendar.c **** {
 321:lvgl/src/lv_widgets/lv_calendar.c ****     LV_ASSERT_OBJ(calendar, LV_OBJX_NAME);
 322:lvgl/src/lv_widgets/lv_calendar.c **** 
 323:lvgl/src/lv_widgets/lv_calendar.c ****     lv_calendar_ext_t * ext = lv_obj_get_ext_attr(calendar);
 324:lvgl/src/lv_widgets/lv_calendar.c ****     return ext->highlighted_dates;
 325:lvgl/src/lv_widgets/lv_calendar.c **** }
 326:lvgl/src/lv_widgets/lv_calendar.c **** 
 327:lvgl/src/lv_widgets/lv_calendar.c **** /**
 328:lvgl/src/lv_widgets/lv_calendar.c ****  * Get the number of the highlighted dates
 329:lvgl/src/lv_widgets/lv_calendar.c ****  * @param calendar pointer to a calendar object
 330:lvgl/src/lv_widgets/lv_calendar.c ****  * @return number of highlighted days
 331:lvgl/src/lv_widgets/lv_calendar.c ****  */
 332:lvgl/src/lv_widgets/lv_calendar.c **** uint16_t lv_calendar_get_highlighted_dates_num(const lv_obj_t * calendar)
 333:lvgl/src/lv_widgets/lv_calendar.c **** {
 334:lvgl/src/lv_widgets/lv_calendar.c ****     LV_ASSERT_OBJ(calendar, LV_OBJX_NAME);
 335:lvgl/src/lv_widgets/lv_calendar.c **** 
 336:lvgl/src/lv_widgets/lv_calendar.c ****     lv_calendar_ext_t * ext = lv_obj_get_ext_attr(calendar);
 337:lvgl/src/lv_widgets/lv_calendar.c ****     return ext->highlighted_dates_num;
 338:lvgl/src/lv_widgets/lv_calendar.c **** }
 339:lvgl/src/lv_widgets/lv_calendar.c **** 
 340:lvgl/src/lv_widgets/lv_calendar.c **** /**
 341:lvgl/src/lv_widgets/lv_calendar.c ****  * Get the name of the days
 342:lvgl/src/lv_widgets/lv_calendar.c ****  * @param calendar pointer to a calendar object
 343:lvgl/src/lv_widgets/lv_calendar.c ****  * @return pointer to the array of day names
 344:lvgl/src/lv_widgets/lv_calendar.c ****  */
 345:lvgl/src/lv_widgets/lv_calendar.c **** const char ** lv_calendar_get_day_names(const lv_obj_t * calendar)
 346:lvgl/src/lv_widgets/lv_calendar.c **** {
 347:lvgl/src/lv_widgets/lv_calendar.c ****     LV_ASSERT_OBJ(calendar, LV_OBJX_NAME);
 348:lvgl/src/lv_widgets/lv_calendar.c **** 
 349:lvgl/src/lv_widgets/lv_calendar.c ****     lv_calendar_ext_t * ext = lv_obj_get_ext_attr(calendar);
 350:lvgl/src/lv_widgets/lv_calendar.c ****     return ext->day_names;
 351:lvgl/src/lv_widgets/lv_calendar.c **** }
 352:lvgl/src/lv_widgets/lv_calendar.c **** 
 353:lvgl/src/lv_widgets/lv_calendar.c **** /**
 354:lvgl/src/lv_widgets/lv_calendar.c ****  * Get the name of the month
 355:lvgl/src/lv_widgets/lv_calendar.c ****  * @param calendar pointer to a calendar object
 356:lvgl/src/lv_widgets/lv_calendar.c ****  * @return pointer to the array of month names
 357:lvgl/src/lv_widgets/lv_calendar.c ****  */
 358:lvgl/src/lv_widgets/lv_calendar.c **** const char ** lv_calendar_get_month_names(const lv_obj_t * calendar)
 359:lvgl/src/lv_widgets/lv_calendar.c **** {
 360:lvgl/src/lv_widgets/lv_calendar.c ****     LV_ASSERT_OBJ(calendar, LV_OBJX_NAME);
 361:lvgl/src/lv_widgets/lv_calendar.c **** 
 362:lvgl/src/lv_widgets/lv_calendar.c ****     lv_calendar_ext_t * ext = lv_obj_get_ext_attr(calendar);
 363:lvgl/src/lv_widgets/lv_calendar.c ****     return ext->month_names;
 364:lvgl/src/lv_widgets/lv_calendar.c **** }
 365:lvgl/src/lv_widgets/lv_calendar.c **** 
 366:lvgl/src/lv_widgets/lv_calendar.c **** /**
 367:lvgl/src/lv_widgets/lv_calendar.c ****  * Get the day of the week
 368:lvgl/src/lv_widgets/lv_calendar.c ****  * @param year a year
 369:lvgl/src/lv_widgets/lv_calendar.c ****  * @param month a month (1..12)
 370:lvgl/src/lv_widgets/lv_calendar.c ****  * @param day a day (1..31)
 371:lvgl/src/lv_widgets/lv_calendar.c ****  * @return [0..6] which means [Sun..Sat] or [Mon..Sun] depending on LV_CALENDAR_WEEK_STARTS_MONDAY
 372:lvgl/src/lv_widgets/lv_calendar.c ****  */
ARM GAS  D:\Temp\cclvo1nc.s 			page 8


 373:lvgl/src/lv_widgets/lv_calendar.c **** uint8_t lv_calendar_get_day_of_week(uint32_t year, uint32_t month, uint32_t day)
 374:lvgl/src/lv_widgets/lv_calendar.c **** {
 375:lvgl/src/lv_widgets/lv_calendar.c ****     uint32_t a = month < 3 ? 1 : 0;
 376:lvgl/src/lv_widgets/lv_calendar.c ****     uint32_t b = year - a;
 377:lvgl/src/lv_widgets/lv_calendar.c **** 
 378:lvgl/src/lv_widgets/lv_calendar.c **** #if LV_CALENDAR_WEEK_STARTS_MONDAY
 379:lvgl/src/lv_widgets/lv_calendar.c ****     uint32_t day_of_week = (day + (31 * (month - 2 + 12 * a) / 12) + b + (b / 4) - (b / 100) + (b /
 380:lvgl/src/lv_widgets/lv_calendar.c **** #else
 381:lvgl/src/lv_widgets/lv_calendar.c ****     uint32_t day_of_week = (day + (31 * (month - 2 + 12 * a) / 12) + b + (b / 4) - (b / 100) + (b /
 382:lvgl/src/lv_widgets/lv_calendar.c **** #endif
 383:lvgl/src/lv_widgets/lv_calendar.c **** 
 384:lvgl/src/lv_widgets/lv_calendar.c ****     return day_of_week;
 385:lvgl/src/lv_widgets/lv_calendar.c **** }
 386:lvgl/src/lv_widgets/lv_calendar.c **** 
 387:lvgl/src/lv_widgets/lv_calendar.c **** /*=====================
 388:lvgl/src/lv_widgets/lv_calendar.c ****  * Other functions
 389:lvgl/src/lv_widgets/lv_calendar.c ****  *====================*/
 390:lvgl/src/lv_widgets/lv_calendar.c **** 
 391:lvgl/src/lv_widgets/lv_calendar.c **** /*
 392:lvgl/src/lv_widgets/lv_calendar.c ****  * New object specific "other" functions come here
 393:lvgl/src/lv_widgets/lv_calendar.c ****  */
 394:lvgl/src/lv_widgets/lv_calendar.c **** 
 395:lvgl/src/lv_widgets/lv_calendar.c **** /**********************
 396:lvgl/src/lv_widgets/lv_calendar.c ****  *   STATIC FUNCTIONS
 397:lvgl/src/lv_widgets/lv_calendar.c ****  **********************/
 398:lvgl/src/lv_widgets/lv_calendar.c **** 
 399:lvgl/src/lv_widgets/lv_calendar.c **** /**
 400:lvgl/src/lv_widgets/lv_calendar.c ****  * Handle the drawing related tasks of the calendars
 401:lvgl/src/lv_widgets/lv_calendar.c ****  * @param calendar pointer to an object
 402:lvgl/src/lv_widgets/lv_calendar.c ****  * @param clip_area the object will be drawn only in this area
 403:lvgl/src/lv_widgets/lv_calendar.c ****  * @param mode LV_DESIGN_COVER_CHK: only check if the object fully covers the 'mask_p' area
 404:lvgl/src/lv_widgets/lv_calendar.c ****  *                                  (return 'true' if yes)
 405:lvgl/src/lv_widgets/lv_calendar.c ****  *             LV_DESIGN_DRAW: draw the object (always return 'true')
 406:lvgl/src/lv_widgets/lv_calendar.c ****  *             LV_DESIGN_DRAW_POST: drawing after every children are drawn
 407:lvgl/src/lv_widgets/lv_calendar.c ****  * @param return an element of `lv_design_res_t`
 408:lvgl/src/lv_widgets/lv_calendar.c ****  */
 409:lvgl/src/lv_widgets/lv_calendar.c **** static lv_design_res_t lv_calendar_design(lv_obj_t * calendar, const lv_area_t * clip_area, lv_desi
 410:lvgl/src/lv_widgets/lv_calendar.c **** {
 411:lvgl/src/lv_widgets/lv_calendar.c ****     /*Return false if the object is not covers the mask_p area*/
 412:lvgl/src/lv_widgets/lv_calendar.c ****     if(mode == LV_DESIGN_COVER_CHK) {
 413:lvgl/src/lv_widgets/lv_calendar.c ****         return ancestor_design(calendar, clip_area, mode);
 414:lvgl/src/lv_widgets/lv_calendar.c ****     }
 415:lvgl/src/lv_widgets/lv_calendar.c ****     /*Draw the object*/
 416:lvgl/src/lv_widgets/lv_calendar.c ****     else if(mode == LV_DESIGN_DRAW_MAIN) {
 417:lvgl/src/lv_widgets/lv_calendar.c ****         ancestor_design(calendar, clip_area, mode);
 418:lvgl/src/lv_widgets/lv_calendar.c **** 
 419:lvgl/src/lv_widgets/lv_calendar.c ****         draw_header(calendar, clip_area);
 420:lvgl/src/lv_widgets/lv_calendar.c ****         draw_day_names(calendar, clip_area);
 421:lvgl/src/lv_widgets/lv_calendar.c ****         draw_dates(calendar, clip_area);
 422:lvgl/src/lv_widgets/lv_calendar.c **** 
 423:lvgl/src/lv_widgets/lv_calendar.c ****     }
 424:lvgl/src/lv_widgets/lv_calendar.c ****     /*Post draw when the children are drawn*/
 425:lvgl/src/lv_widgets/lv_calendar.c ****     else if(mode == LV_DESIGN_DRAW_POST) {
 426:lvgl/src/lv_widgets/lv_calendar.c ****         ancestor_design(calendar, clip_area, mode);
 427:lvgl/src/lv_widgets/lv_calendar.c ****     }
 428:lvgl/src/lv_widgets/lv_calendar.c **** 
 429:lvgl/src/lv_widgets/lv_calendar.c ****     return LV_DESIGN_RES_OK;
ARM GAS  D:\Temp\cclvo1nc.s 			page 9


 430:lvgl/src/lv_widgets/lv_calendar.c **** }
 431:lvgl/src/lv_widgets/lv_calendar.c **** 
 432:lvgl/src/lv_widgets/lv_calendar.c **** /**
 433:lvgl/src/lv_widgets/lv_calendar.c ****  * Signal function of the calendar
 434:lvgl/src/lv_widgets/lv_calendar.c ****  * @param calendar pointer to a calendar object
 435:lvgl/src/lv_widgets/lv_calendar.c ****  * @param sign a signal type from lv_signal_t enum
 436:lvgl/src/lv_widgets/lv_calendar.c ****  * @param param pointer to a signal specific variable
 437:lvgl/src/lv_widgets/lv_calendar.c ****  * @return LV_RES_OK: the object is not deleted in the function; LV_RES_INV: the object is deleted
 438:lvgl/src/lv_widgets/lv_calendar.c ****  */
 439:lvgl/src/lv_widgets/lv_calendar.c **** static lv_res_t lv_calendar_signal(lv_obj_t * calendar, lv_signal_t sign, void * param)
 440:lvgl/src/lv_widgets/lv_calendar.c **** {
 441:lvgl/src/lv_widgets/lv_calendar.c ****     lv_res_t res;
 442:lvgl/src/lv_widgets/lv_calendar.c ****     if(sign == LV_SIGNAL_GET_STYLE) {
 443:lvgl/src/lv_widgets/lv_calendar.c ****         lv_get_style_info_t * info = param;
 444:lvgl/src/lv_widgets/lv_calendar.c ****         info->result = lv_calendar_get_style(calendar, info->part);
 445:lvgl/src/lv_widgets/lv_calendar.c ****         if(info->result != NULL) return LV_RES_OK;
 446:lvgl/src/lv_widgets/lv_calendar.c ****         else return ancestor_signal(calendar, sign, param);
 447:lvgl/src/lv_widgets/lv_calendar.c ****         return LV_RES_OK;
 448:lvgl/src/lv_widgets/lv_calendar.c ****     }
 449:lvgl/src/lv_widgets/lv_calendar.c **** 
 450:lvgl/src/lv_widgets/lv_calendar.c ****     /* Include the ancient signal function */
 451:lvgl/src/lv_widgets/lv_calendar.c ****     res = ancestor_signal(calendar, sign, param);
 452:lvgl/src/lv_widgets/lv_calendar.c ****     if(res != LV_RES_OK) return res;
 453:lvgl/src/lv_widgets/lv_calendar.c ****     if(sign == LV_SIGNAL_GET_TYPE) return lv_obj_handle_get_type_signal(param, LV_OBJX_NAME);
 454:lvgl/src/lv_widgets/lv_calendar.c **** 
 455:lvgl/src/lv_widgets/lv_calendar.c ****     if(sign == LV_SIGNAL_CLEANUP) {
 456:lvgl/src/lv_widgets/lv_calendar.c ****         lv_obj_clean_style_list(calendar, LV_CALENDAR_PART_HEADER);
 457:lvgl/src/lv_widgets/lv_calendar.c ****         lv_obj_clean_style_list(calendar, LV_CALENDAR_PART_DAY_NAMES);
 458:lvgl/src/lv_widgets/lv_calendar.c ****         lv_obj_clean_style_list(calendar, LV_CALENDAR_PART_DATE);
 459:lvgl/src/lv_widgets/lv_calendar.c ****     }
 460:lvgl/src/lv_widgets/lv_calendar.c ****     else if(sign == LV_SIGNAL_PRESSING) {
 461:lvgl/src/lv_widgets/lv_calendar.c ****         lv_calendar_ext_t * ext = lv_obj_get_ext_attr(calendar);
 462:lvgl/src/lv_widgets/lv_calendar.c ****         lv_area_t header_area;
 463:lvgl/src/lv_widgets/lv_calendar.c ****         lv_area_copy(&header_area, &calendar->coords);
 464:lvgl/src/lv_widgets/lv_calendar.c ****         header_area.y2 = header_area.y1 + get_header_height(calendar);
 465:lvgl/src/lv_widgets/lv_calendar.c **** 
 466:lvgl/src/lv_widgets/lv_calendar.c ****         lv_indev_t * indev = lv_indev_get_act();
 467:lvgl/src/lv_widgets/lv_calendar.c ****         lv_point_t p;
 468:lvgl/src/lv_widgets/lv_calendar.c ****         lv_indev_get_point(indev, &p);
 469:lvgl/src/lv_widgets/lv_calendar.c **** 
 470:lvgl/src/lv_widgets/lv_calendar.c ****         /*If the header is pressed mark an arrow as pressed*/
 471:lvgl/src/lv_widgets/lv_calendar.c ****         if(_lv_area_is_point_on(&header_area, &p, 0)) {
 472:lvgl/src/lv_widgets/lv_calendar.c ****             if(p.x < header_area.x1 + lv_area_get_width(&header_area) / 2) {
 473:lvgl/src/lv_widgets/lv_calendar.c ****                 if(ext->btn_pressing != -1) lv_obj_invalidate(calendar);
 474:lvgl/src/lv_widgets/lv_calendar.c ****                 ext->btn_pressing = -1;
 475:lvgl/src/lv_widgets/lv_calendar.c ****             }
 476:lvgl/src/lv_widgets/lv_calendar.c ****             else {
 477:lvgl/src/lv_widgets/lv_calendar.c ****                 if(ext->btn_pressing != 1) lv_obj_invalidate(calendar);
 478:lvgl/src/lv_widgets/lv_calendar.c ****                 ext->btn_pressing = 1;
 479:lvgl/src/lv_widgets/lv_calendar.c ****             }
 480:lvgl/src/lv_widgets/lv_calendar.c **** 
 481:lvgl/src/lv_widgets/lv_calendar.c ****             ext->pressed_date.year  = 0;
 482:lvgl/src/lv_widgets/lv_calendar.c ****             ext->pressed_date.month = 0;
 483:lvgl/src/lv_widgets/lv_calendar.c ****             ext->pressed_date.day   = 0;
 484:lvgl/src/lv_widgets/lv_calendar.c ****         }
 485:lvgl/src/lv_widgets/lv_calendar.c ****         /*If a day is pressed save it*/
 486:lvgl/src/lv_widgets/lv_calendar.c ****         else if(calculate_touched_day(calendar, &p)) {
ARM GAS  D:\Temp\cclvo1nc.s 			page 10


 487:lvgl/src/lv_widgets/lv_calendar.c ****             ext->btn_pressing = 0;
 488:lvgl/src/lv_widgets/lv_calendar.c ****             lv_obj_invalidate(calendar);
 489:lvgl/src/lv_widgets/lv_calendar.c ****         }
 490:lvgl/src/lv_widgets/lv_calendar.c ****         /*Else set a default state*/
 491:lvgl/src/lv_widgets/lv_calendar.c ****         else {
 492:lvgl/src/lv_widgets/lv_calendar.c ****             if(ext->btn_pressing != 0) lv_obj_invalidate(calendar);
 493:lvgl/src/lv_widgets/lv_calendar.c ****             ext->btn_pressing       = 0;
 494:lvgl/src/lv_widgets/lv_calendar.c ****             ext->pressed_date.year  = 0;
 495:lvgl/src/lv_widgets/lv_calendar.c ****             ext->pressed_date.month = 0;
 496:lvgl/src/lv_widgets/lv_calendar.c ****             ext->pressed_date.day   = 0;
 497:lvgl/src/lv_widgets/lv_calendar.c ****         }
 498:lvgl/src/lv_widgets/lv_calendar.c ****     }
 499:lvgl/src/lv_widgets/lv_calendar.c ****     else if(sign == LV_SIGNAL_PRESS_LOST) {
 500:lvgl/src/lv_widgets/lv_calendar.c ****         lv_calendar_ext_t * ext = lv_obj_get_ext_attr(calendar);
 501:lvgl/src/lv_widgets/lv_calendar.c ****         ext->btn_pressing       = 0;
 502:lvgl/src/lv_widgets/lv_calendar.c ****         ext->pressed_date.year  = 0;
 503:lvgl/src/lv_widgets/lv_calendar.c ****         ext->pressed_date.month = 0;
 504:lvgl/src/lv_widgets/lv_calendar.c ****         ext->pressed_date.day   = 0;
 505:lvgl/src/lv_widgets/lv_calendar.c ****         lv_obj_invalidate(calendar);
 506:lvgl/src/lv_widgets/lv_calendar.c **** 
 507:lvgl/src/lv_widgets/lv_calendar.c ****     }
 508:lvgl/src/lv_widgets/lv_calendar.c ****     else if(sign == LV_SIGNAL_RELEASED) {
 509:lvgl/src/lv_widgets/lv_calendar.c ****         lv_calendar_ext_t * ext = lv_obj_get_ext_attr(calendar);
 510:lvgl/src/lv_widgets/lv_calendar.c ****         if(ext->btn_pressing < 0) {
 511:lvgl/src/lv_widgets/lv_calendar.c ****             if(ext->showed_date.month <= 1) {
 512:lvgl/src/lv_widgets/lv_calendar.c ****                 ext->showed_date.month = 12;
 513:lvgl/src/lv_widgets/lv_calendar.c ****                 ext->showed_date.year--;
 514:lvgl/src/lv_widgets/lv_calendar.c ****             }
 515:lvgl/src/lv_widgets/lv_calendar.c ****             else {
 516:lvgl/src/lv_widgets/lv_calendar.c ****                 ext->showed_date.month--;
 517:lvgl/src/lv_widgets/lv_calendar.c ****             }
 518:lvgl/src/lv_widgets/lv_calendar.c ****         }
 519:lvgl/src/lv_widgets/lv_calendar.c ****         else if(ext->btn_pressing > 0) {
 520:lvgl/src/lv_widgets/lv_calendar.c ****             if(ext->showed_date.month >= 12) {
 521:lvgl/src/lv_widgets/lv_calendar.c ****                 ext->showed_date.month = 1;
 522:lvgl/src/lv_widgets/lv_calendar.c ****                 ext->showed_date.year++;
 523:lvgl/src/lv_widgets/lv_calendar.c ****             }
 524:lvgl/src/lv_widgets/lv_calendar.c ****             else {
 525:lvgl/src/lv_widgets/lv_calendar.c ****                 ext->showed_date.month++;
 526:lvgl/src/lv_widgets/lv_calendar.c ****             }
 527:lvgl/src/lv_widgets/lv_calendar.c ****         }
 528:lvgl/src/lv_widgets/lv_calendar.c ****         else if(ext->pressed_date.year != 0) {
 529:lvgl/src/lv_widgets/lv_calendar.c ****             res = lv_event_send(calendar, LV_EVENT_VALUE_CHANGED, NULL);
 530:lvgl/src/lv_widgets/lv_calendar.c ****             if(res != LV_RES_OK) return res;
 531:lvgl/src/lv_widgets/lv_calendar.c **** 
 532:lvgl/src/lv_widgets/lv_calendar.c ****         }
 533:lvgl/src/lv_widgets/lv_calendar.c **** 
 534:lvgl/src/lv_widgets/lv_calendar.c ****         ext->btn_pressing = 0;
 535:lvgl/src/lv_widgets/lv_calendar.c ****         ext->pressed_date.year  = 0;
 536:lvgl/src/lv_widgets/lv_calendar.c ****         ext->pressed_date.month = 0;
 537:lvgl/src/lv_widgets/lv_calendar.c ****         ext->pressed_date.day   = 0;
 538:lvgl/src/lv_widgets/lv_calendar.c ****         lv_obj_invalidate(calendar);
 539:lvgl/src/lv_widgets/lv_calendar.c ****     }
 540:lvgl/src/lv_widgets/lv_calendar.c ****     else if(sign == LV_SIGNAL_CONTROL) {
 541:lvgl/src/lv_widgets/lv_calendar.c **** #if LV_USE_GROUP
 542:lvgl/src/lv_widgets/lv_calendar.c ****         uint8_t c               = *((uint8_t *)param);
 543:lvgl/src/lv_widgets/lv_calendar.c ****         lv_calendar_ext_t * ext = lv_obj_get_ext_attr(calendar);
ARM GAS  D:\Temp\cclvo1nc.s 			page 11


 544:lvgl/src/lv_widgets/lv_calendar.c ****         if(c == LV_KEY_RIGHT || c == LV_KEY_UP) {
 545:lvgl/src/lv_widgets/lv_calendar.c ****             if(ext->showed_date.month >= 12) {
 546:lvgl/src/lv_widgets/lv_calendar.c ****                 ext->showed_date.month = 1;
 547:lvgl/src/lv_widgets/lv_calendar.c ****                 ext->showed_date.year++;
 548:lvgl/src/lv_widgets/lv_calendar.c ****             }
 549:lvgl/src/lv_widgets/lv_calendar.c ****             else {
 550:lvgl/src/lv_widgets/lv_calendar.c ****                 ext->showed_date.month++;
 551:lvgl/src/lv_widgets/lv_calendar.c ****             }
 552:lvgl/src/lv_widgets/lv_calendar.c ****             lv_obj_invalidate(calendar);
 553:lvgl/src/lv_widgets/lv_calendar.c ****         }
 554:lvgl/src/lv_widgets/lv_calendar.c ****         else if(c == LV_KEY_LEFT || c == LV_KEY_DOWN) {
 555:lvgl/src/lv_widgets/lv_calendar.c ****             if(ext->showed_date.month <= 1) {
 556:lvgl/src/lv_widgets/lv_calendar.c ****                 ext->showed_date.month = 12;
 557:lvgl/src/lv_widgets/lv_calendar.c ****                 ext->showed_date.year--;
 558:lvgl/src/lv_widgets/lv_calendar.c ****             }
 559:lvgl/src/lv_widgets/lv_calendar.c ****             else {
 560:lvgl/src/lv_widgets/lv_calendar.c ****                 ext->showed_date.month--;
 561:lvgl/src/lv_widgets/lv_calendar.c ****             }
 562:lvgl/src/lv_widgets/lv_calendar.c ****             lv_obj_invalidate(calendar);
 563:lvgl/src/lv_widgets/lv_calendar.c ****         }
 564:lvgl/src/lv_widgets/lv_calendar.c **** #endif
 565:lvgl/src/lv_widgets/lv_calendar.c ****     }
 566:lvgl/src/lv_widgets/lv_calendar.c **** 
 567:lvgl/src/lv_widgets/lv_calendar.c ****     return res;
 568:lvgl/src/lv_widgets/lv_calendar.c **** }
 569:lvgl/src/lv_widgets/lv_calendar.c **** 
 570:lvgl/src/lv_widgets/lv_calendar.c **** /**
 571:lvgl/src/lv_widgets/lv_calendar.c ****  * Get the style descriptor of a part of the object
 572:lvgl/src/lv_widgets/lv_calendar.c ****  * @param page pointer the object
 573:lvgl/src/lv_widgets/lv_calendar.c ****  * @param part the part from `lv_calendar_part_t`. (LV_CALENDAR_PART_...)
 574:lvgl/src/lv_widgets/lv_calendar.c ****  * @return pointer to the style descriptor of the specified part
 575:lvgl/src/lv_widgets/lv_calendar.c ****  */
 576:lvgl/src/lv_widgets/lv_calendar.c **** static lv_style_list_t * lv_calendar_get_style(lv_obj_t * calendar, uint8_t part)
 577:lvgl/src/lv_widgets/lv_calendar.c **** {
 578:lvgl/src/lv_widgets/lv_calendar.c ****     LV_ASSERT_OBJ(calendar, LV_OBJX_NAME);
 579:lvgl/src/lv_widgets/lv_calendar.c **** 
 580:lvgl/src/lv_widgets/lv_calendar.c ****     lv_calendar_ext_t * ext = lv_obj_get_ext_attr(calendar);
 581:lvgl/src/lv_widgets/lv_calendar.c ****     lv_style_list_t * style_dsc_p;
 582:lvgl/src/lv_widgets/lv_calendar.c **** 
 583:lvgl/src/lv_widgets/lv_calendar.c ****     switch(part) {
 584:lvgl/src/lv_widgets/lv_calendar.c ****         case LV_CALENDAR_PART_BG:
 585:lvgl/src/lv_widgets/lv_calendar.c ****             style_dsc_p = &calendar->style_list;
 586:lvgl/src/lv_widgets/lv_calendar.c ****             break;
 587:lvgl/src/lv_widgets/lv_calendar.c ****         case LV_CALENDAR_PART_HEADER:
 588:lvgl/src/lv_widgets/lv_calendar.c ****             style_dsc_p = &ext->style_header;
 589:lvgl/src/lv_widgets/lv_calendar.c ****             break;
 590:lvgl/src/lv_widgets/lv_calendar.c ****         case LV_CALENDAR_PART_DAY_NAMES:
 591:lvgl/src/lv_widgets/lv_calendar.c ****             style_dsc_p = &ext->style_day_names;
 592:lvgl/src/lv_widgets/lv_calendar.c ****             break;
 593:lvgl/src/lv_widgets/lv_calendar.c ****         case LV_CALENDAR_PART_DATE:
 594:lvgl/src/lv_widgets/lv_calendar.c ****             style_dsc_p = &ext->style_date_nums;
 595:lvgl/src/lv_widgets/lv_calendar.c ****             break;
 596:lvgl/src/lv_widgets/lv_calendar.c ****         default:
 597:lvgl/src/lv_widgets/lv_calendar.c ****             style_dsc_p = NULL;
 598:lvgl/src/lv_widgets/lv_calendar.c ****     }
 599:lvgl/src/lv_widgets/lv_calendar.c **** 
 600:lvgl/src/lv_widgets/lv_calendar.c ****     return style_dsc_p;
ARM GAS  D:\Temp\cclvo1nc.s 			page 12


 601:lvgl/src/lv_widgets/lv_calendar.c **** }
 602:lvgl/src/lv_widgets/lv_calendar.c **** 
 603:lvgl/src/lv_widgets/lv_calendar.c **** /**
 604:lvgl/src/lv_widgets/lv_calendar.c ****  * It will check if the days part of calendar is touched
 605:lvgl/src/lv_widgets/lv_calendar.c ****  * and if it is, it will calculate the day and put it in pressed_date of calendar object.
 606:lvgl/src/lv_widgets/lv_calendar.c ****  * @param calendar pointer to a calendar object
 607:lvgl/src/lv_widgets/lv_calendar.c ****  * @param pointer to a point
 608:lvgl/src/lv_widgets/lv_calendar.c ****  * @return true: days part of calendar is touched and its related date is put in pressed date
 609:lvgl/src/lv_widgets/lv_calendar.c ****  * false: the point is out of days part area.
 610:lvgl/src/lv_widgets/lv_calendar.c ****  */
 611:lvgl/src/lv_widgets/lv_calendar.c **** static bool calculate_touched_day(lv_obj_t * calendar, const lv_point_t * touched_point)
 612:lvgl/src/lv_widgets/lv_calendar.c **** {
 613:lvgl/src/lv_widgets/lv_calendar.c ****     lv_area_t days_area;
 614:lvgl/src/lv_widgets/lv_calendar.c ****     lv_area_copy(&days_area, &calendar->coords);
 615:lvgl/src/lv_widgets/lv_calendar.c ****     lv_style_int_t left = lv_obj_get_style_pad_left(calendar, LV_CALENDAR_PART_DATE);
 616:lvgl/src/lv_widgets/lv_calendar.c ****     lv_style_int_t right = lv_obj_get_style_pad_right(calendar, LV_CALENDAR_PART_DATE);
 617:lvgl/src/lv_widgets/lv_calendar.c ****     lv_style_int_t top = lv_obj_get_style_pad_top(calendar, LV_CALENDAR_PART_DATE);
 618:lvgl/src/lv_widgets/lv_calendar.c ****     lv_style_int_t bottom = lv_obj_get_style_pad_bottom(calendar, LV_CALENDAR_PART_DATE);
 619:lvgl/src/lv_widgets/lv_calendar.c **** 
 620:lvgl/src/lv_widgets/lv_calendar.c ****     days_area.x1 += left;
 621:lvgl/src/lv_widgets/lv_calendar.c ****     days_area.x2 -= right;
 622:lvgl/src/lv_widgets/lv_calendar.c ****     days_area.y1 = calendar->coords.y1 + get_header_height(calendar) + get_day_names_height(calenda
 623:lvgl/src/lv_widgets/lv_calendar.c ****     days_area.y2 -= bottom;
 624:lvgl/src/lv_widgets/lv_calendar.c **** 
 625:lvgl/src/lv_widgets/lv_calendar.c ****     if(_lv_area_is_point_on(&days_area, touched_point, 0)) {
 626:lvgl/src/lv_widgets/lv_calendar.c ****         lv_coord_t w  = (days_area.x2 - days_area.x1 + 1) / 7;
 627:lvgl/src/lv_widgets/lv_calendar.c ****         lv_coord_t h  = (days_area.y2 - days_area.y1 + 1) / 6;
 628:lvgl/src/lv_widgets/lv_calendar.c ****         uint8_t x_pos = 0;
 629:lvgl/src/lv_widgets/lv_calendar.c ****         x_pos         = (touched_point->x - days_area.x1) / w;
 630:lvgl/src/lv_widgets/lv_calendar.c ****         if(x_pos > 6) x_pos = 6;
 631:lvgl/src/lv_widgets/lv_calendar.c ****         uint8_t y_pos = 0;
 632:lvgl/src/lv_widgets/lv_calendar.c ****         y_pos         = (touched_point->y - days_area.y1) / h;
 633:lvgl/src/lv_widgets/lv_calendar.c ****         if(y_pos > 5) y_pos = 5;
 634:lvgl/src/lv_widgets/lv_calendar.c **** 
 635:lvgl/src/lv_widgets/lv_calendar.c ****         uint8_t i_pos           = 0;
 636:lvgl/src/lv_widgets/lv_calendar.c ****         i_pos                   = (y_pos * 7) + x_pos;
 637:lvgl/src/lv_widgets/lv_calendar.c ****         lv_calendar_ext_t * ext = lv_obj_get_ext_attr(calendar);
 638:lvgl/src/lv_widgets/lv_calendar.c ****         if(i_pos < lv_calendar_get_day_of_week(ext->showed_date.year, ext->showed_date.month, 1)) {
 639:lvgl/src/lv_widgets/lv_calendar.c ****             ext->pressed_date.year  = ext->showed_date.year - (ext->showed_date.month == 1 ? 1 : 0)
 640:lvgl/src/lv_widgets/lv_calendar.c ****             ext->pressed_date.month = ext->showed_date.month == 1 ? 12 : (ext->showed_date.month - 
 641:lvgl/src/lv_widgets/lv_calendar.c ****             ext->pressed_date.day   = get_month_length(ext->pressed_date.year, ext->pressed_date.mo
 642:lvgl/src/lv_widgets/lv_calendar.c ****                                       lv_calendar_get_day_of_week(ext->showed_date.year, ext->showe
 643:lvgl/src/lv_widgets/lv_calendar.c ****         }
 644:lvgl/src/lv_widgets/lv_calendar.c ****         else if(i_pos < (lv_calendar_get_day_of_week(ext->showed_date.year, ext->showed_date.month,
 645:lvgl/src/lv_widgets/lv_calendar.c ****                          get_month_length(ext->showed_date.year, ext->showed_date.month))) {
 646:lvgl/src/lv_widgets/lv_calendar.c ****             ext->pressed_date.year  = ext->showed_date.year;
 647:lvgl/src/lv_widgets/lv_calendar.c ****             ext->pressed_date.month = ext->showed_date.month;
 648:lvgl/src/lv_widgets/lv_calendar.c ****             ext->pressed_date.day   = i_pos + 1 - lv_calendar_get_day_of_week(ext->showed_date.year
 649:lvgl/src/lv_widgets/lv_calendar.c ****         }
 650:lvgl/src/lv_widgets/lv_calendar.c ****         else if(i_pos < 42) {
 651:lvgl/src/lv_widgets/lv_calendar.c ****             ext->pressed_date.year  = ext->showed_date.year + (ext->showed_date.month == 12 ? 1 : 0
 652:lvgl/src/lv_widgets/lv_calendar.c ****             ext->pressed_date.month = ext->showed_date.month == 12 ? 1 : (ext->showed_date.month + 
 653:lvgl/src/lv_widgets/lv_calendar.c ****             ext->pressed_date.day   = i_pos + 1 - lv_calendar_get_day_of_week(ext->showed_date.year
 654:lvgl/src/lv_widgets/lv_calendar.c ****                                       get_month_length(ext->showed_date.year, ext->showed_date.mont
 655:lvgl/src/lv_widgets/lv_calendar.c ****         }
 656:lvgl/src/lv_widgets/lv_calendar.c ****         return true;
 657:lvgl/src/lv_widgets/lv_calendar.c ****     }
ARM GAS  D:\Temp\cclvo1nc.s 			page 13


 658:lvgl/src/lv_widgets/lv_calendar.c ****     else {
 659:lvgl/src/lv_widgets/lv_calendar.c ****         return false;
 660:lvgl/src/lv_widgets/lv_calendar.c ****     }
 661:lvgl/src/lv_widgets/lv_calendar.c **** }
 662:lvgl/src/lv_widgets/lv_calendar.c **** 
 663:lvgl/src/lv_widgets/lv_calendar.c **** /**
 664:lvgl/src/lv_widgets/lv_calendar.c ****  * Get the height of a calendar's header based on it's style
 665:lvgl/src/lv_widgets/lv_calendar.c ****  * @param calendar point to a calendar
 666:lvgl/src/lv_widgets/lv_calendar.c ****  * @return the header's height
 667:lvgl/src/lv_widgets/lv_calendar.c ****  */
 668:lvgl/src/lv_widgets/lv_calendar.c **** static lv_coord_t get_header_height(lv_obj_t * calendar)
 669:lvgl/src/lv_widgets/lv_calendar.c **** {
 670:lvgl/src/lv_widgets/lv_calendar.c ****     const lv_font_t * font = lv_obj_get_style_text_font(calendar, LV_CALENDAR_PART_HEADER);
 671:lvgl/src/lv_widgets/lv_calendar.c ****     lv_style_int_t top = lv_obj_get_style_margin_top(calendar, LV_CALENDAR_PART_HEADER) +
 672:lvgl/src/lv_widgets/lv_calendar.c ****                          lv_obj_get_style_pad_top(calendar, LV_CALENDAR_PART_HEADER);
 673:lvgl/src/lv_widgets/lv_calendar.c ****     lv_style_int_t bottom = lv_obj_get_style_margin_bottom(calendar, LV_CALENDAR_PART_HEADER) +
 674:lvgl/src/lv_widgets/lv_calendar.c ****                             lv_obj_get_style_pad_bottom(calendar, LV_CALENDAR_PART_HEADER);
 675:lvgl/src/lv_widgets/lv_calendar.c **** 
 676:lvgl/src/lv_widgets/lv_calendar.c ****     return lv_font_get_line_height(font) + top + bottom;
 677:lvgl/src/lv_widgets/lv_calendar.c **** }
 678:lvgl/src/lv_widgets/lv_calendar.c **** 
 679:lvgl/src/lv_widgets/lv_calendar.c **** /**
 680:lvgl/src/lv_widgets/lv_calendar.c ****  * Get the height of a calendar's day_names based on it's style
 681:lvgl/src/lv_widgets/lv_calendar.c ****  * @param calendar point to a calendar
 682:lvgl/src/lv_widgets/lv_calendar.c ****  * @return the day_names's height
 683:lvgl/src/lv_widgets/lv_calendar.c ****  */
 684:lvgl/src/lv_widgets/lv_calendar.c **** static lv_coord_t get_day_names_height(lv_obj_t * calendar)
 685:lvgl/src/lv_widgets/lv_calendar.c **** {
 686:lvgl/src/lv_widgets/lv_calendar.c ****     const lv_font_t * font = lv_obj_get_style_text_font(calendar, LV_CALENDAR_PART_DAY_NAMES);
 687:lvgl/src/lv_widgets/lv_calendar.c ****     lv_style_int_t top = lv_obj_get_style_pad_top(calendar, LV_CALENDAR_PART_DAY_NAMES);
 688:lvgl/src/lv_widgets/lv_calendar.c ****     lv_style_int_t bottom = lv_obj_get_style_pad_bottom(calendar, LV_CALENDAR_PART_DAY_NAMES);
 689:lvgl/src/lv_widgets/lv_calendar.c **** 
 690:lvgl/src/lv_widgets/lv_calendar.c ****     return lv_font_get_line_height(font) + top + bottom;
 691:lvgl/src/lv_widgets/lv_calendar.c **** }
 692:lvgl/src/lv_widgets/lv_calendar.c **** 
 693:lvgl/src/lv_widgets/lv_calendar.c **** /**
 694:lvgl/src/lv_widgets/lv_calendar.c ****  * Draw the calendar header with month name and arrows
 695:lvgl/src/lv_widgets/lv_calendar.c ****  * @param calendar point to a calendar
 696:lvgl/src/lv_widgets/lv_calendar.c ****  * @param mask a mask for drawing
 697:lvgl/src/lv_widgets/lv_calendar.c ****  */
 698:lvgl/src/lv_widgets/lv_calendar.c **** static void draw_header(lv_obj_t * calendar, const lv_area_t * mask)
 699:lvgl/src/lv_widgets/lv_calendar.c **** {
 700:lvgl/src/lv_widgets/lv_calendar.c ****     lv_style_int_t header_left = lv_obj_get_style_pad_left(calendar, LV_CALENDAR_PART_HEADER);
 701:lvgl/src/lv_widgets/lv_calendar.c ****     lv_style_int_t header_right = lv_obj_get_style_pad_right(calendar, LV_CALENDAR_PART_HEADER);
 702:lvgl/src/lv_widgets/lv_calendar.c ****     const lv_font_t * font = lv_obj_get_style_text_font(calendar, LV_CALENDAR_PART_HEADER);
 703:lvgl/src/lv_widgets/lv_calendar.c **** 
 704:lvgl/src/lv_widgets/lv_calendar.c ****     lv_calendar_ext_t * ext = lv_obj_get_ext_attr(calendar);
 705:lvgl/src/lv_widgets/lv_calendar.c **** 
 706:lvgl/src/lv_widgets/lv_calendar.c ****     lv_area_t header_area;
 707:lvgl/src/lv_widgets/lv_calendar.c ****     header_area.x1 = calendar->coords.x1;
 708:lvgl/src/lv_widgets/lv_calendar.c ****     header_area.x2 = calendar->coords.x2;
 709:lvgl/src/lv_widgets/lv_calendar.c ****     header_area.y1 = calendar->coords.y1 + lv_obj_get_style_margin_top(calendar, LV_CALENDAR_PART_H
 710:lvgl/src/lv_widgets/lv_calendar.c ****     header_area.y2 = header_area.y1 + lv_obj_get_style_pad_top(calendar, LV_CALENDAR_PART_HEADER) +
 711:lvgl/src/lv_widgets/lv_calendar.c ****                      lv_font_get_line_height(font) + lv_obj_get_style_pad_bottom(calendar, LV_CALEN
 712:lvgl/src/lv_widgets/lv_calendar.c **** 
 713:lvgl/src/lv_widgets/lv_calendar.c ****     lv_draw_rect_dsc_t header_rect_dsc;
 714:lvgl/src/lv_widgets/lv_calendar.c ****     lv_draw_rect_dsc_init(&header_rect_dsc);
ARM GAS  D:\Temp\cclvo1nc.s 			page 14


 715:lvgl/src/lv_widgets/lv_calendar.c ****     lv_obj_init_draw_rect_dsc(calendar, LV_CALENDAR_PART_HEADER, &header_rect_dsc);
 716:lvgl/src/lv_widgets/lv_calendar.c ****     lv_draw_rect(&header_area, mask, &header_rect_dsc);
 717:lvgl/src/lv_widgets/lv_calendar.c **** 
 718:lvgl/src/lv_widgets/lv_calendar.c ****     lv_state_t state_ori = calendar->state;
 719:lvgl/src/lv_widgets/lv_calendar.c **** 
 720:lvgl/src/lv_widgets/lv_calendar.c ****     /*Add the year + month name*/
 721:lvgl/src/lv_widgets/lv_calendar.c ****     char txt_buf[64];
 722:lvgl/src/lv_widgets/lv_calendar.c ****     _lv_utils_num_to_str(ext->showed_date.year, txt_buf);
 723:lvgl/src/lv_widgets/lv_calendar.c ****     txt_buf[4] = ' ';
 724:lvgl/src/lv_widgets/lv_calendar.c ****     txt_buf[5] = '\0';
 725:lvgl/src/lv_widgets/lv_calendar.c ****     strcpy(&txt_buf[5], get_month_name(calendar, ext->showed_date.month));
 726:lvgl/src/lv_widgets/lv_calendar.c **** 
 727:lvgl/src/lv_widgets/lv_calendar.c ****     calendar->state = LV_STATE_DEFAULT;
 728:lvgl/src/lv_widgets/lv_calendar.c ****     _lv_obj_disable_style_caching(calendar, true);
 729:lvgl/src/lv_widgets/lv_calendar.c **** 
 730:lvgl/src/lv_widgets/lv_calendar.c ****     lv_draw_label_dsc_t label_dsc;
 731:lvgl/src/lv_widgets/lv_calendar.c ****     lv_draw_label_dsc_init(&label_dsc);
 732:lvgl/src/lv_widgets/lv_calendar.c ****     lv_obj_init_draw_label_dsc(calendar, LV_CALENDAR_PART_HEADER, &label_dsc);
 733:lvgl/src/lv_widgets/lv_calendar.c ****     label_dsc.flag = LV_TXT_FLAG_CENTER;
 734:lvgl/src/lv_widgets/lv_calendar.c ****     header_area.y1 += lv_obj_get_style_pad_top(calendar, LV_CALENDAR_PART_HEADER);
 735:lvgl/src/lv_widgets/lv_calendar.c ****     header_area.y2 -= lv_obj_get_style_pad_bottom(calendar, LV_CALENDAR_PART_HEADER);
 736:lvgl/src/lv_widgets/lv_calendar.c ****     lv_draw_label(&header_area, mask, &label_dsc, txt_buf, NULL);
 737:lvgl/src/lv_widgets/lv_calendar.c **** 
 738:lvgl/src/lv_widgets/lv_calendar.c ****     calendar->state = state_ori;    /*Restore the state*/
 739:lvgl/src/lv_widgets/lv_calendar.c **** 
 740:lvgl/src/lv_widgets/lv_calendar.c ****     /*Add the left arrow*/
 741:lvgl/src/lv_widgets/lv_calendar.c ****     if(ext->btn_pressing < 0) calendar->state |= LV_STATE_PRESSED;
 742:lvgl/src/lv_widgets/lv_calendar.c ****     else calendar->state &= ~(LV_STATE_PRESSED);
 743:lvgl/src/lv_widgets/lv_calendar.c **** 
 744:lvgl/src/lv_widgets/lv_calendar.c ****     header_area.x1 += header_left;
 745:lvgl/src/lv_widgets/lv_calendar.c **** 
 746:lvgl/src/lv_widgets/lv_calendar.c ****     lv_draw_label_dsc_init(&label_dsc);
 747:lvgl/src/lv_widgets/lv_calendar.c ****     lv_obj_init_draw_label_dsc(calendar, LV_CALENDAR_PART_HEADER, &label_dsc);
 748:lvgl/src/lv_widgets/lv_calendar.c ****     lv_draw_label(&header_area, mask, &label_dsc, LV_SYMBOL_LEFT, NULL);
 749:lvgl/src/lv_widgets/lv_calendar.c **** 
 750:lvgl/src/lv_widgets/lv_calendar.c ****     calendar->state = state_ori;    /*Restore the state*/
 751:lvgl/src/lv_widgets/lv_calendar.c **** 
 752:lvgl/src/lv_widgets/lv_calendar.c ****     /*Add the right arrow*/
 753:lvgl/src/lv_widgets/lv_calendar.c ****     if(ext->btn_pressing > 0) calendar->state |= LV_STATE_PRESSED;
 754:lvgl/src/lv_widgets/lv_calendar.c ****     else calendar->state &= ~(LV_STATE_PRESSED);
 755:lvgl/src/lv_widgets/lv_calendar.c **** 
 756:lvgl/src/lv_widgets/lv_calendar.c ****     header_area.x1 = header_area.x2 - header_right - _lv_txt_get_width(LV_SYMBOL_RIGHT, (uint16_t)s
 757:lvgl/src/lv_widgets/lv_calendar.c ****                                                                        font, 0, LV_TXT_FLAG_NONE);
 758:lvgl/src/lv_widgets/lv_calendar.c **** 
 759:lvgl/src/lv_widgets/lv_calendar.c ****     lv_draw_label_dsc_init(&label_dsc);
 760:lvgl/src/lv_widgets/lv_calendar.c ****     lv_obj_init_draw_label_dsc(calendar, LV_CALENDAR_PART_HEADER, &label_dsc);
 761:lvgl/src/lv_widgets/lv_calendar.c ****     lv_draw_label(&header_area, mask, &label_dsc, LV_SYMBOL_RIGHT, NULL);
 762:lvgl/src/lv_widgets/lv_calendar.c **** 
 763:lvgl/src/lv_widgets/lv_calendar.c ****     calendar->state = state_ori;    /*Restore the state*/
 764:lvgl/src/lv_widgets/lv_calendar.c ****     _lv_obj_disable_style_caching(calendar, false);
 765:lvgl/src/lv_widgets/lv_calendar.c **** }
 766:lvgl/src/lv_widgets/lv_calendar.c **** 
 767:lvgl/src/lv_widgets/lv_calendar.c **** /**
 768:lvgl/src/lv_widgets/lv_calendar.c ****  * Draw the day's name below the header
 769:lvgl/src/lv_widgets/lv_calendar.c ****  * @param calendar point to a calendar
 770:lvgl/src/lv_widgets/lv_calendar.c ****  * @param mask a mask for drawing
 771:lvgl/src/lv_widgets/lv_calendar.c ****  */
ARM GAS  D:\Temp\cclvo1nc.s 			page 15


 772:lvgl/src/lv_widgets/lv_calendar.c **** static void draw_day_names(lv_obj_t * calendar, const lv_area_t * mask)
 773:lvgl/src/lv_widgets/lv_calendar.c **** {
 774:lvgl/src/lv_widgets/lv_calendar.c ****     lv_style_int_t date_top = lv_obj_get_style_pad_top(calendar, LV_CALENDAR_PART_DATE);
 775:lvgl/src/lv_widgets/lv_calendar.c ****     lv_style_int_t date_bottom = lv_obj_get_style_pad_bottom(calendar, LV_CALENDAR_PART_DATE);
 776:lvgl/src/lv_widgets/lv_calendar.c ****     lv_style_int_t date_left = lv_obj_get_style_pad_left(calendar, LV_CALENDAR_PART_DATE);
 777:lvgl/src/lv_widgets/lv_calendar.c ****     lv_style_int_t date_right = lv_obj_get_style_pad_right(calendar, LV_CALENDAR_PART_DATE);
 778:lvgl/src/lv_widgets/lv_calendar.c ****     lv_style_int_t date_inner = lv_obj_get_style_pad_inner(calendar, LV_CALENDAR_PART_DATE);
 779:lvgl/src/lv_widgets/lv_calendar.c **** 
 780:lvgl/src/lv_widgets/lv_calendar.c ****     lv_coord_t days_w      = lv_obj_get_width(calendar) - date_left - date_right;
 781:lvgl/src/lv_widgets/lv_calendar.c ****     lv_coord_t box_w      = (days_w - date_inner * 6) / 7;
 782:lvgl/src/lv_widgets/lv_calendar.c ****     lv_coord_t days_y1 = calendar->coords.y1 + date_top + get_header_height(calendar) + get_day_nam
 783:lvgl/src/lv_widgets/lv_calendar.c ****     lv_coord_t days_h = calendar->coords.y2 - days_y1 - date_bottom;
 784:lvgl/src/lv_widgets/lv_calendar.c ****     lv_coord_t box_h      = (days_h - 5 * date_inner) / 6;
 785:lvgl/src/lv_widgets/lv_calendar.c ****     lv_coord_t box_size = LV_MATH_MIN(box_w, box_h);
 786:lvgl/src/lv_widgets/lv_calendar.c **** 
 787:lvgl/src/lv_widgets/lv_calendar.c ****     lv_style_int_t left = lv_obj_get_style_pad_left(calendar, LV_CALENDAR_PART_DAY_NAMES);
 788:lvgl/src/lv_widgets/lv_calendar.c ****     lv_style_int_t right = lv_obj_get_style_pad_right(calendar, LV_CALENDAR_PART_DAY_NAMES);
 789:lvgl/src/lv_widgets/lv_calendar.c ****     lv_style_int_t top = lv_obj_get_style_pad_top(calendar, LV_CALENDAR_PART_DAY_NAMES);
 790:lvgl/src/lv_widgets/lv_calendar.c ****     const lv_font_t * font = lv_obj_get_style_text_font(calendar, LV_CALENDAR_PART_DAY_NAMES);
 791:lvgl/src/lv_widgets/lv_calendar.c **** 
 792:lvgl/src/lv_widgets/lv_calendar.c ****     lv_coord_t w = lv_obj_get_width(calendar) - left - right;
 793:lvgl/src/lv_widgets/lv_calendar.c **** 
 794:lvgl/src/lv_widgets/lv_calendar.c ****     lv_coord_t label_w = w / 6;
 795:lvgl/src/lv_widgets/lv_calendar.c **** 
 796:lvgl/src/lv_widgets/lv_calendar.c ****     lv_area_t label_area;
 797:lvgl/src/lv_widgets/lv_calendar.c ****     label_area.y1 = calendar->coords.y1 + get_header_height(calendar) + top;
 798:lvgl/src/lv_widgets/lv_calendar.c ****     label_area.y2 = label_area.y1 + lv_font_get_line_height(font);
 799:lvgl/src/lv_widgets/lv_calendar.c **** 
 800:lvgl/src/lv_widgets/lv_calendar.c ****     lv_draw_label_dsc_t label_dsc;
 801:lvgl/src/lv_widgets/lv_calendar.c ****     lv_draw_label_dsc_init(&label_dsc);
 802:lvgl/src/lv_widgets/lv_calendar.c ****     lv_obj_init_draw_label_dsc(calendar, LV_CALENDAR_PART_DAY_NAMES, &label_dsc);
 803:lvgl/src/lv_widgets/lv_calendar.c ****     label_dsc.flag = LV_TXT_FLAG_CENTER;
 804:lvgl/src/lv_widgets/lv_calendar.c **** 
 805:lvgl/src/lv_widgets/lv_calendar.c ****     uint32_t i;
 806:lvgl/src/lv_widgets/lv_calendar.c ****     for(i = 0; i < 7; i++) {
 807:lvgl/src/lv_widgets/lv_calendar.c ****         label_area.x1 = calendar->coords.x1 + ((w - box_size) * i) / 6  + box_size / 2 - label_w / 
 808:lvgl/src/lv_widgets/lv_calendar.c ****         label_area.x2 = label_area.x1 + label_w - 1;
 809:lvgl/src/lv_widgets/lv_calendar.c **** 
 810:lvgl/src/lv_widgets/lv_calendar.c ****         lv_draw_label(&label_area, mask, &label_dsc, get_day_name(calendar, i), NULL);
 811:lvgl/src/lv_widgets/lv_calendar.c ****     }
 812:lvgl/src/lv_widgets/lv_calendar.c **** }
 813:lvgl/src/lv_widgets/lv_calendar.c **** 
 814:lvgl/src/lv_widgets/lv_calendar.c **** /**
 815:lvgl/src/lv_widgets/lv_calendar.c ****  * Draw the date numbers in a matrix
 816:lvgl/src/lv_widgets/lv_calendar.c ****  * @param calendar point to a calendar
 817:lvgl/src/lv_widgets/lv_calendar.c ****  * @param mask a mask for drawing
 818:lvgl/src/lv_widgets/lv_calendar.c ****  */
 819:lvgl/src/lv_widgets/lv_calendar.c **** static void draw_dates(lv_obj_t * calendar, const lv_area_t * clip_area)
 820:lvgl/src/lv_widgets/lv_calendar.c **** {
 821:lvgl/src/lv_widgets/lv_calendar.c ****     lv_calendar_ext_t * ext     = lv_obj_get_ext_attr(calendar);
 822:lvgl/src/lv_widgets/lv_calendar.c **** 
 823:lvgl/src/lv_widgets/lv_calendar.c ****     const lv_font_t * nums_font = lv_obj_get_style_text_font(calendar, LV_CALENDAR_PART_DATE);
 824:lvgl/src/lv_widgets/lv_calendar.c **** 
 825:lvgl/src/lv_widgets/lv_calendar.c ****     lv_style_int_t date_top = lv_obj_get_style_pad_top(calendar, LV_CALENDAR_PART_DATE);
 826:lvgl/src/lv_widgets/lv_calendar.c ****     lv_style_int_t date_bottom = lv_obj_get_style_pad_bottom(calendar, LV_CALENDAR_PART_DATE);
 827:lvgl/src/lv_widgets/lv_calendar.c ****     lv_style_int_t date_left = lv_obj_get_style_pad_left(calendar, LV_CALENDAR_PART_DATE);
 828:lvgl/src/lv_widgets/lv_calendar.c ****     lv_style_int_t date_right = lv_obj_get_style_pad_right(calendar, LV_CALENDAR_PART_DATE);
ARM GAS  D:\Temp\cclvo1nc.s 			page 16


 829:lvgl/src/lv_widgets/lv_calendar.c ****     lv_style_int_t date_inner = lv_obj_get_style_pad_inner(calendar, LV_CALENDAR_PART_DATE);
 830:lvgl/src/lv_widgets/lv_calendar.c **** 
 831:lvgl/src/lv_widgets/lv_calendar.c ****     lv_coord_t days_y1 = calendar->coords.y1 + date_top + get_header_height(calendar) + get_day_nam
 832:lvgl/src/lv_widgets/lv_calendar.c ****     lv_coord_t days_h = calendar->coords.y2 - days_y1 - date_bottom;
 833:lvgl/src/lv_widgets/lv_calendar.c **** 
 834:lvgl/src/lv_widgets/lv_calendar.c ****     /*The state changes without re-caching the styles, disable the use of cache*/
 835:lvgl/src/lv_widgets/lv_calendar.c ****     lv_state_t state_ori = calendar->state;
 836:lvgl/src/lv_widgets/lv_calendar.c ****     calendar->state = LV_STATE_DEFAULT;
 837:lvgl/src/lv_widgets/lv_calendar.c ****     _lv_obj_disable_style_caching(calendar, true);
 838:lvgl/src/lv_widgets/lv_calendar.c **** 
 839:lvgl/src/lv_widgets/lv_calendar.c ****     lv_state_t month_state = LV_STATE_DISABLED;
 840:lvgl/src/lv_widgets/lv_calendar.c **** 
 841:lvgl/src/lv_widgets/lv_calendar.c ****     uint8_t day_cnt;
 842:lvgl/src/lv_widgets/lv_calendar.c ****     lv_coord_t days_w      = lv_obj_get_width(calendar) - date_left - date_right;
 843:lvgl/src/lv_widgets/lv_calendar.c ****     lv_coord_t box_w      = (days_w - date_inner * 6) / 7;
 844:lvgl/src/lv_widgets/lv_calendar.c ****     lv_coord_t box_h      = (days_h - 5 * date_inner) / 6;
 845:lvgl/src/lv_widgets/lv_calendar.c ****     lv_coord_t box_size = LV_MATH_MIN(box_w, box_h);
 846:lvgl/src/lv_widgets/lv_calendar.c **** 
 847:lvgl/src/lv_widgets/lv_calendar.c ****     uint8_t month_start_day = lv_calendar_get_day_of_week(ext->showed_date.year, ext->showed_date.m
 848:lvgl/src/lv_widgets/lv_calendar.c **** 
 849:lvgl/src/lv_widgets/lv_calendar.c ****     day_draw_state_t draw_state;
 850:lvgl/src/lv_widgets/lv_calendar.c **** 
 851:lvgl/src/lv_widgets/lv_calendar.c ****     /*If starting with the first day of the week then the previous month is not visible*/
 852:lvgl/src/lv_widgets/lv_calendar.c ****     if(month_start_day == 0) {
 853:lvgl/src/lv_widgets/lv_calendar.c ****         day_cnt    = 1;
 854:lvgl/src/lv_widgets/lv_calendar.c ****         draw_state = DAY_DRAW_ACT_MONTH;
 855:lvgl/src/lv_widgets/lv_calendar.c ****         month_state  = 0;
 856:lvgl/src/lv_widgets/lv_calendar.c ****     }
 857:lvgl/src/lv_widgets/lv_calendar.c ****     else {
 858:lvgl/src/lv_widgets/lv_calendar.c ****         draw_state = DAY_DRAW_PREV_MONTH;
 859:lvgl/src/lv_widgets/lv_calendar.c ****         day_cnt = get_month_length(ext->showed_date.year, ext->showed_date.month - 1); /*Length of 
 860:lvgl/src/lv_widgets/lv_calendar.c ****         day_cnt -= month_start_day - 1; /*First visible number of the previous month*/
 861:lvgl/src/lv_widgets/lv_calendar.c ****         month_state = LV_STATE_DISABLED;
 862:lvgl/src/lv_widgets/lv_calendar.c ****     }
 863:lvgl/src/lv_widgets/lv_calendar.c **** 
 864:lvgl/src/lv_widgets/lv_calendar.c ****     bool month_of_today_shown = false;
 865:lvgl/src/lv_widgets/lv_calendar.c ****     if(ext->showed_date.year == ext->today.year && ext->showed_date.month == ext->today.month) {
 866:lvgl/src/lv_widgets/lv_calendar.c ****         month_of_today_shown = true;
 867:lvgl/src/lv_widgets/lv_calendar.c ****     }
 868:lvgl/src/lv_widgets/lv_calendar.c **** 
 869:lvgl/src/lv_widgets/lv_calendar.c ****     char buf[3];
 870:lvgl/src/lv_widgets/lv_calendar.c **** 
 871:lvgl/src/lv_widgets/lv_calendar.c ****     /*Draw 6 weeks*/
 872:lvgl/src/lv_widgets/lv_calendar.c ****     lv_draw_rect_dsc_t rect_dsc;
 873:lvgl/src/lv_widgets/lv_calendar.c ****     lv_draw_label_dsc_t label_dsc;
 874:lvgl/src/lv_widgets/lv_calendar.c ****     lv_state_t prev_state = 0xFF;
 875:lvgl/src/lv_widgets/lv_calendar.c ****     uint32_t week;
 876:lvgl/src/lv_widgets/lv_calendar.c ****     for(week = 0; week < 6; week++) {
 877:lvgl/src/lv_widgets/lv_calendar.c ****         lv_area_t box_area;
 878:lvgl/src/lv_widgets/lv_calendar.c **** 
 879:lvgl/src/lv_widgets/lv_calendar.c ****         box_area.y1 = days_y1 + ((days_h - box_size) * week) / 5;
 880:lvgl/src/lv_widgets/lv_calendar.c ****         box_area.y2 = box_area.y1 + box_size - 1;
 881:lvgl/src/lv_widgets/lv_calendar.c **** 
 882:lvgl/src/lv_widgets/lv_calendar.c ****         if(box_area.y1 > clip_area->y2) {
 883:lvgl/src/lv_widgets/lv_calendar.c ****             calendar->state = state_ori;
 884:lvgl/src/lv_widgets/lv_calendar.c ****             _lv_obj_disable_style_caching(calendar, false);
 885:lvgl/src/lv_widgets/lv_calendar.c ****             return;
ARM GAS  D:\Temp\cclvo1nc.s 			page 17


 886:lvgl/src/lv_widgets/lv_calendar.c ****         }
 887:lvgl/src/lv_widgets/lv_calendar.c **** 
 888:lvgl/src/lv_widgets/lv_calendar.c ****         lv_area_t label_area;
 889:lvgl/src/lv_widgets/lv_calendar.c ****         label_area.y1 = box_area.y1 + (lv_area_get_height(&box_area) - lv_font_get_line_height(nums
 890:lvgl/src/lv_widgets/lv_calendar.c ****         label_area.y2 = label_area.y1 + lv_font_get_line_height(nums_font);
 891:lvgl/src/lv_widgets/lv_calendar.c **** 
 892:lvgl/src/lv_widgets/lv_calendar.c ****         /*Draw the 7 days of a week*/
 893:lvgl/src/lv_widgets/lv_calendar.c ****         uint32_t day;
 894:lvgl/src/lv_widgets/lv_calendar.c ****         for(day = 0; day < 7; day++) {
 895:lvgl/src/lv_widgets/lv_calendar.c ****             /*The previous month is over*/
 896:lvgl/src/lv_widgets/lv_calendar.c ****             if(draw_state == DAY_DRAW_PREV_MONTH && day == month_start_day) {
 897:lvgl/src/lv_widgets/lv_calendar.c ****                 draw_state = DAY_DRAW_ACT_MONTH;
 898:lvgl/src/lv_widgets/lv_calendar.c ****                 day_cnt    = 1;
 899:lvgl/src/lv_widgets/lv_calendar.c ****                 month_state  = 0;
 900:lvgl/src/lv_widgets/lv_calendar.c ****             }
 901:lvgl/src/lv_widgets/lv_calendar.c ****             /*The current month is over*/
 902:lvgl/src/lv_widgets/lv_calendar.c ****             else if(draw_state == DAY_DRAW_ACT_MONTH &&
 903:lvgl/src/lv_widgets/lv_calendar.c ****                     day_cnt > get_month_length(ext->showed_date.year, ext->showed_date.month)) {
 904:lvgl/src/lv_widgets/lv_calendar.c ****                 draw_state = DAY_DRAW_NEXT_MONTH;
 905:lvgl/src/lv_widgets/lv_calendar.c ****                 day_cnt    = 1;
 906:lvgl/src/lv_widgets/lv_calendar.c ****                 month_state  = LV_STATE_DISABLED;
 907:lvgl/src/lv_widgets/lv_calendar.c ****             }
 908:lvgl/src/lv_widgets/lv_calendar.c **** 
 909:lvgl/src/lv_widgets/lv_calendar.c ****             if(box_area.y2 < clip_area->y1) {
 910:lvgl/src/lv_widgets/lv_calendar.c ****                 day_cnt++;
 911:lvgl/src/lv_widgets/lv_calendar.c ****                 continue;
 912:lvgl/src/lv_widgets/lv_calendar.c ****             }
 913:lvgl/src/lv_widgets/lv_calendar.c **** 
 914:lvgl/src/lv_widgets/lv_calendar.c ****             lv_state_t day_state = month_state;
 915:lvgl/src/lv_widgets/lv_calendar.c ****             if(is_pressed(calendar, draw_state, ext->showed_date.year, ext->showed_date.month, day_
 916:lvgl/src/lv_widgets/lv_calendar.c ****                 day_state |= LV_STATE_PRESSED;
 917:lvgl/src/lv_widgets/lv_calendar.c ****             }
 918:lvgl/src/lv_widgets/lv_calendar.c ****             if(is_highlighted(calendar, draw_state, ext->showed_date.year, ext->showed_date.month, 
 919:lvgl/src/lv_widgets/lv_calendar.c ****                 day_state |= LV_STATE_CHECKED;
 920:lvgl/src/lv_widgets/lv_calendar.c ****             }
 921:lvgl/src/lv_widgets/lv_calendar.c ****             if(month_of_today_shown && day_cnt == ext->today.day && draw_state == DAY_DRAW_ACT_MONT
 922:lvgl/src/lv_widgets/lv_calendar.c ****                 day_state |= LV_STATE_FOCUSED;
 923:lvgl/src/lv_widgets/lv_calendar.c ****             }
 924:lvgl/src/lv_widgets/lv_calendar.c **** 
 925:lvgl/src/lv_widgets/lv_calendar.c ****             if(prev_state != day_state) {
 926:lvgl/src/lv_widgets/lv_calendar.c ****                 lv_draw_rect_dsc_init(&rect_dsc);
 927:lvgl/src/lv_widgets/lv_calendar.c ****                 lv_draw_label_dsc_init(&label_dsc);
 928:lvgl/src/lv_widgets/lv_calendar.c ****                 label_dsc.flag = LV_TXT_FLAG_CENTER;
 929:lvgl/src/lv_widgets/lv_calendar.c **** 
 930:lvgl/src/lv_widgets/lv_calendar.c ****                 calendar->state = day_state;
 931:lvgl/src/lv_widgets/lv_calendar.c ****                 lv_obj_init_draw_label_dsc(calendar, LV_CALENDAR_PART_DATE, &label_dsc);
 932:lvgl/src/lv_widgets/lv_calendar.c ****                 lv_obj_init_draw_rect_dsc(calendar, LV_CALENDAR_PART_DATE, &rect_dsc);
 933:lvgl/src/lv_widgets/lv_calendar.c **** 
 934:lvgl/src/lv_widgets/lv_calendar.c ****                 prev_state = day_state;
 935:lvgl/src/lv_widgets/lv_calendar.c ****             }
 936:lvgl/src/lv_widgets/lv_calendar.c **** 
 937:lvgl/src/lv_widgets/lv_calendar.c ****             label_area.x1 = calendar->coords.x1 + ((days_w - box_size) * day) / 6 + date_left;
 938:lvgl/src/lv_widgets/lv_calendar.c ****             label_area.x2 = label_area.x1 + box_size - 1;
 939:lvgl/src/lv_widgets/lv_calendar.c **** 
 940:lvgl/src/lv_widgets/lv_calendar.c ****             box_area.x1 = label_area.x1;
 941:lvgl/src/lv_widgets/lv_calendar.c ****             box_area.x2 = label_area.x2;
 942:lvgl/src/lv_widgets/lv_calendar.c **** 
ARM GAS  D:\Temp\cclvo1nc.s 			page 18


 943:lvgl/src/lv_widgets/lv_calendar.c ****             lv_draw_rect(&box_area, clip_area, &rect_dsc);
 944:lvgl/src/lv_widgets/lv_calendar.c **** 
 945:lvgl/src/lv_widgets/lv_calendar.c ****             /*Write the day's number*/
 946:lvgl/src/lv_widgets/lv_calendar.c ****             _lv_utils_num_to_str(day_cnt, buf);
 947:lvgl/src/lv_widgets/lv_calendar.c ****             lv_draw_label(&label_area, clip_area, &label_dsc, buf, NULL);
 948:lvgl/src/lv_widgets/lv_calendar.c **** 
 949:lvgl/src/lv_widgets/lv_calendar.c ****             /*Go to the next day*/
 950:lvgl/src/lv_widgets/lv_calendar.c ****             day_cnt++;
 951:lvgl/src/lv_widgets/lv_calendar.c ****         }
 952:lvgl/src/lv_widgets/lv_calendar.c ****     }
 953:lvgl/src/lv_widgets/lv_calendar.c ****     calendar->state = state_ori;
 954:lvgl/src/lv_widgets/lv_calendar.c ****     _lv_obj_disable_style_caching(calendar, false);
 955:lvgl/src/lv_widgets/lv_calendar.c **** 
 956:lvgl/src/lv_widgets/lv_calendar.c **** }
 957:lvgl/src/lv_widgets/lv_calendar.c **** 
 958:lvgl/src/lv_widgets/lv_calendar.c **** /**
 959:lvgl/src/lv_widgets/lv_calendar.c ****  * Check weather a date is highlighted or not
 960:lvgl/src/lv_widgets/lv_calendar.c ****  * @param calendar pointer to a calendar object
 961:lvgl/src/lv_widgets/lv_calendar.c ****  * @param draw_state which month is drawn (previous, active, next)
 962:lvgl/src/lv_widgets/lv_calendar.c ****  * @param year a year
 963:lvgl/src/lv_widgets/lv_calendar.c ****  * @param month a month [1..12]
 964:lvgl/src/lv_widgets/lv_calendar.c ****  * @param day a day [1..31]
 965:lvgl/src/lv_widgets/lv_calendar.c ****  * @return true: highlighted
 966:lvgl/src/lv_widgets/lv_calendar.c ****  */
 967:lvgl/src/lv_widgets/lv_calendar.c **** static bool is_highlighted(lv_obj_t * calendar, day_draw_state_t draw_state, int32_t year, int32_t 
 968:lvgl/src/lv_widgets/lv_calendar.c **** {
 969:lvgl/src/lv_widgets/lv_calendar.c ****     lv_calendar_ext_t * ext = lv_obj_get_ext_attr(calendar);
 970:lvgl/src/lv_widgets/lv_calendar.c **** 
 971:lvgl/src/lv_widgets/lv_calendar.c ****     if(draw_state == DAY_DRAW_PREV_MONTH) {
 972:lvgl/src/lv_widgets/lv_calendar.c ****         year -= month == 1 ? 1 : 0;
 973:lvgl/src/lv_widgets/lv_calendar.c ****         month = month == 1 ? 12 : month - 1;
 974:lvgl/src/lv_widgets/lv_calendar.c ****     }
 975:lvgl/src/lv_widgets/lv_calendar.c ****     else if(draw_state == DAY_DRAW_NEXT_MONTH) {
 976:lvgl/src/lv_widgets/lv_calendar.c ****         year += month == 12 ? 1 : 0;
 977:lvgl/src/lv_widgets/lv_calendar.c ****         month = month == 12 ? 1 : month + 1;
 978:lvgl/src/lv_widgets/lv_calendar.c ****     }
 979:lvgl/src/lv_widgets/lv_calendar.c **** 
 980:lvgl/src/lv_widgets/lv_calendar.c ****     uint32_t i;
 981:lvgl/src/lv_widgets/lv_calendar.c ****     for(i = 0; i < ext->highlighted_dates_num; i++) {
 982:lvgl/src/lv_widgets/lv_calendar.c ****         if(ext->highlighted_dates[i].year == year && ext->highlighted_dates[i].month == month &&
 983:lvgl/src/lv_widgets/lv_calendar.c ****            ext->highlighted_dates[i].day == day) {
 984:lvgl/src/lv_widgets/lv_calendar.c ****             return true;
 985:lvgl/src/lv_widgets/lv_calendar.c ****         }
 986:lvgl/src/lv_widgets/lv_calendar.c ****     }
 987:lvgl/src/lv_widgets/lv_calendar.c **** 
 988:lvgl/src/lv_widgets/lv_calendar.c ****     return false;
 989:lvgl/src/lv_widgets/lv_calendar.c **** }
 990:lvgl/src/lv_widgets/lv_calendar.c **** 
 991:lvgl/src/lv_widgets/lv_calendar.c **** /**
 992:lvgl/src/lv_widgets/lv_calendar.c ****  * Check weather a date is highlighted or not
 993:lvgl/src/lv_widgets/lv_calendar.c ****  * @param calendar pointer to a calendar object
 994:lvgl/src/lv_widgets/lv_calendar.c ****  * @param draw_state which month is drawn (previous, active, next)
 995:lvgl/src/lv_widgets/lv_calendar.c ****  * @param year a year
 996:lvgl/src/lv_widgets/lv_calendar.c ****  * @param month a month [1..12]
 997:lvgl/src/lv_widgets/lv_calendar.c ****  * @param day a day [1..31]
 998:lvgl/src/lv_widgets/lv_calendar.c ****  * @return true: highlighted
 999:lvgl/src/lv_widgets/lv_calendar.c ****  */
ARM GAS  D:\Temp\cclvo1nc.s 			page 19


1000:lvgl/src/lv_widgets/lv_calendar.c **** static bool is_pressed(lv_obj_t * calendar, day_draw_state_t draw_state, int32_t year, int32_t mont
1001:lvgl/src/lv_widgets/lv_calendar.c **** {
1002:lvgl/src/lv_widgets/lv_calendar.c ****     lv_calendar_ext_t * ext = lv_obj_get_ext_attr(calendar);
1003:lvgl/src/lv_widgets/lv_calendar.c **** 
1004:lvgl/src/lv_widgets/lv_calendar.c ****     if(draw_state == DAY_DRAW_PREV_MONTH) {
1005:lvgl/src/lv_widgets/lv_calendar.c ****         year -= month == 1 ? 1 : 0;
1006:lvgl/src/lv_widgets/lv_calendar.c ****         month = month == 1 ? 12 : month - 1;
1007:lvgl/src/lv_widgets/lv_calendar.c ****     }
1008:lvgl/src/lv_widgets/lv_calendar.c ****     else if(draw_state == DAY_DRAW_NEXT_MONTH) {
1009:lvgl/src/lv_widgets/lv_calendar.c ****         year += month == 12 ? 1 : 0;
1010:lvgl/src/lv_widgets/lv_calendar.c ****         month = month == 12 ? 1 : month + 1;
1011:lvgl/src/lv_widgets/lv_calendar.c ****     }
1012:lvgl/src/lv_widgets/lv_calendar.c **** 
1013:lvgl/src/lv_widgets/lv_calendar.c ****     if(year == ext->pressed_date.year && month == ext->pressed_date.month && day == ext->pressed_da
1014:lvgl/src/lv_widgets/lv_calendar.c ****     else return false;
1015:lvgl/src/lv_widgets/lv_calendar.c **** }
1016:lvgl/src/lv_widgets/lv_calendar.c **** /**
1017:lvgl/src/lv_widgets/lv_calendar.c ****  * Get the day name
1018:lvgl/src/lv_widgets/lv_calendar.c ****  * @param calendar pointer to a calendar object
1019:lvgl/src/lv_widgets/lv_calendar.c ****  * @param day a day in [0..6]
1020:lvgl/src/lv_widgets/lv_calendar.c ****  * @return
1021:lvgl/src/lv_widgets/lv_calendar.c ****  */
1022:lvgl/src/lv_widgets/lv_calendar.c **** static const char * get_day_name(lv_obj_t * calendar, uint8_t day)
1023:lvgl/src/lv_widgets/lv_calendar.c **** {
1024:lvgl/src/lv_widgets/lv_calendar.c **** 
1025:lvgl/src/lv_widgets/lv_calendar.c ****     lv_calendar_ext_t * ext = lv_obj_get_ext_attr(calendar);
1026:lvgl/src/lv_widgets/lv_calendar.c ****     if(ext->day_names)
1027:lvgl/src/lv_widgets/lv_calendar.c ****         return ext->day_names[day];
1028:lvgl/src/lv_widgets/lv_calendar.c ****     else
1029:lvgl/src/lv_widgets/lv_calendar.c ****         return day_name[day];
1030:lvgl/src/lv_widgets/lv_calendar.c **** }
1031:lvgl/src/lv_widgets/lv_calendar.c **** 
1032:lvgl/src/lv_widgets/lv_calendar.c **** /**
1033:lvgl/src/lv_widgets/lv_calendar.c ****  * Get the month name
1034:lvgl/src/lv_widgets/lv_calendar.c ****  * @param calendar pointer to a calendar object
1035:lvgl/src/lv_widgets/lv_calendar.c ****  * @param month a month. The range is basically [1..12] but [-11..1] is also supported to handle
1036:lvgl/src/lv_widgets/lv_calendar.c ****  * previous year
1037:lvgl/src/lv_widgets/lv_calendar.c ****  * @return
1038:lvgl/src/lv_widgets/lv_calendar.c ****  */
1039:lvgl/src/lv_widgets/lv_calendar.c **** static const char * get_month_name(lv_obj_t * calendar, int32_t month)
1040:lvgl/src/lv_widgets/lv_calendar.c **** {
1041:lvgl/src/lv_widgets/lv_calendar.c ****     month--; /*Range of months id [1..12] but range of indexes is [0..11]*/
1042:lvgl/src/lv_widgets/lv_calendar.c ****     if(month < 0) month = 12 + month;
1043:lvgl/src/lv_widgets/lv_calendar.c **** 
1044:lvgl/src/lv_widgets/lv_calendar.c ****     lv_calendar_ext_t * ext = lv_obj_get_ext_attr(calendar);
1045:lvgl/src/lv_widgets/lv_calendar.c ****     if(ext->month_names)
1046:lvgl/src/lv_widgets/lv_calendar.c ****         return ext->month_names[month];
1047:lvgl/src/lv_widgets/lv_calendar.c ****     else
1048:lvgl/src/lv_widgets/lv_calendar.c ****         return month_name[month];
1049:lvgl/src/lv_widgets/lv_calendar.c **** }
1050:lvgl/src/lv_widgets/lv_calendar.c **** 
1051:lvgl/src/lv_widgets/lv_calendar.c **** /**
1052:lvgl/src/lv_widgets/lv_calendar.c ****  * Get the number of days in a month
1053:lvgl/src/lv_widgets/lv_calendar.c ****  * @param year a year
1054:lvgl/src/lv_widgets/lv_calendar.c ****  * @param month a month. The range is basically [1..12] but [-11..1] is also supported to handle
1055:lvgl/src/lv_widgets/lv_calendar.c ****  * previous year
1056:lvgl/src/lv_widgets/lv_calendar.c ****  * @return [28..31]
ARM GAS  D:\Temp\cclvo1nc.s 			page 20


1057:lvgl/src/lv_widgets/lv_calendar.c ****  */
1058:lvgl/src/lv_widgets/lv_calendar.c **** static uint8_t get_month_length(int32_t year, int32_t month)
1059:lvgl/src/lv_widgets/lv_calendar.c **** {
1060:lvgl/src/lv_widgets/lv_calendar.c ****     month--; /*Range of months id [1..12] but range of indexes is [0..11]*/
1061:lvgl/src/lv_widgets/lv_calendar.c ****     if(month < 0) {
1062:lvgl/src/lv_widgets/lv_calendar.c ****         year--;             /*Already in the previous year (won't be less then -12 to skip a whole 
1063:lvgl/src/lv_widgets/lv_calendar.c ****         month = 12 + month; /*`month` is negative, the result will be < 12*/
1064:lvgl/src/lv_widgets/lv_calendar.c ****     }
1065:lvgl/src/lv_widgets/lv_calendar.c ****     if(month >= 12) {
1066:lvgl/src/lv_widgets/lv_calendar.c ****         year++;
1067:lvgl/src/lv_widgets/lv_calendar.c ****         month -= 12;
1068:lvgl/src/lv_widgets/lv_calendar.c ****     }
1069:lvgl/src/lv_widgets/lv_calendar.c **** 
1070:lvgl/src/lv_widgets/lv_calendar.c ****     /*month == 1 is february*/
1071:lvgl/src/lv_widgets/lv_calendar.c ****     return (month == 1) ? (28 + is_leap_year(year)) : 31 - month % 7 % 2;
1072:lvgl/src/lv_widgets/lv_calendar.c **** }
1073:lvgl/src/lv_widgets/lv_calendar.c **** 
1074:lvgl/src/lv_widgets/lv_calendar.c **** /**
1075:lvgl/src/lv_widgets/lv_calendar.c ****  * Tells whether a year is leap year or not
1076:lvgl/src/lv_widgets/lv_calendar.c ****  * @param year a year
1077:lvgl/src/lv_widgets/lv_calendar.c ****  * @return 0: not leap year; 1: leap year
1078:lvgl/src/lv_widgets/lv_calendar.c ****  */
1079:lvgl/src/lv_widgets/lv_calendar.c **** static uint8_t is_leap_year(uint32_t year)
1080:lvgl/src/lv_widgets/lv_calendar.c **** {
  29              		.loc 1 1080 1 view -0
  30              		.cfi_startproc
  31              		@ args = 0, pretend = 0, frame = 0
  32              		@ frame_needed = 0, uses_anonymous_args = 0
  33              		@ link register save eliminated.
1081:lvgl/src/lv_widgets/lv_calendar.c ****     return (year % 4) || ((year % 100 == 0) && (year % 400)) ? 0 : 1;
  34              		.loc 1 1081 5 view .LVU1
  35              		.loc 1 1081 66 is_stmt 0 view .LVU2
  36 0000 10F0030F 		tst	r0, #3
  37 0004 12D1     		bne	.L3
  38              		.loc 1 1081 33 discriminator 1 view .LVU3
  39 0006 0C4B     		ldr	r3, .L6
  40 0008 A3FB0023 		umull	r2, r3, r3, r0
  41 000c 5B09     		lsrs	r3, r3, #5
  42 000e 6422     		movs	r2, #100
  43 0010 02FB1303 		mls	r3, r2, r3, r0
  44              		.loc 1 1081 66 discriminator 1 view .LVU4
  45 0014 63B9     		cbnz	r3, .L4
  46              		.loc 1 1081 54 discriminator 4 view .LVU5
  47 0016 084B     		ldr	r3, .L6
  48 0018 A3FB0023 		umull	r2, r3, r3, r0
  49 001c DB09     		lsrs	r3, r3, #7
  50 001e 4FF4C872 		mov	r2, #400
  51 0022 02FB1303 		mls	r3, r2, r3, r0
  52              		.loc 1 1081 45 discriminator 4 view .LVU6
  53 0026 2BB1     		cbz	r3, .L5
  54              		.loc 1 1081 66 view .LVU7
  55 0028 0020     		movs	r0, #0
  56              	.LVL1:
  57              		.loc 1 1081 66 view .LVU8
  58 002a 7047     		bx	lr
  59              	.LVL2:
  60              	.L3:
ARM GAS  D:\Temp\cclvo1nc.s 			page 21


  61              		.loc 1 1081 66 view .LVU9
  62 002c 0020     		movs	r0, #0
  63              	.LVL3:
  64              		.loc 1 1081 66 view .LVU10
  65 002e 7047     		bx	lr
  66              	.LVL4:
  67              	.L4:
  68              		.loc 1 1081 66 view .LVU11
  69 0030 0120     		movs	r0, #1
  70              	.LVL5:
  71              		.loc 1 1081 66 view .LVU12
  72 0032 7047     		bx	lr
  73              	.LVL6:
  74              	.L5:
  75              		.loc 1 1081 66 view .LVU13
  76 0034 0120     		movs	r0, #1
  77              	.LVL7:
1082:lvgl/src/lv_widgets/lv_calendar.c **** }
  78              		.loc 1 1082 1 view .LVU14
  79 0036 7047     		bx	lr
  80              	.L7:
  81              		.align	2
  82              	.L6:
  83 0038 1F85EB51 		.word	1374389535
  84              		.cfi_endproc
  85              	.LFE486:
  87              		.section	.text.get_month_length,"ax",%progbits
  88              		.align	1
  89              		.syntax unified
  90              		.thumb
  91              		.thumb_func
  92              		.fpu fpv4-sp-d16
  94              	get_month_length:
  95              	.LVL8:
  96              	.LFB485:
1059:lvgl/src/lv_widgets/lv_calendar.c ****     month--; /*Range of months id [1..12] but range of indexes is [0..11]*/
  97              		.loc 1 1059 1 is_stmt 1 view -0
  98              		.cfi_startproc
  99              		@ args = 0, pretend = 0, frame = 0
 100              		@ frame_needed = 0, uses_anonymous_args = 0
1059:lvgl/src/lv_widgets/lv_calendar.c ****     month--; /*Range of months id [1..12] but range of indexes is [0..11]*/
 101              		.loc 1 1059 1 is_stmt 0 view .LVU16
 102 0000 08B5     		push	{r3, lr}
 103              	.LCFI0:
 104              		.cfi_def_cfa_offset 8
 105              		.cfi_offset 3, -8
 106              		.cfi_offset 14, -4
1060:lvgl/src/lv_widgets/lv_calendar.c ****     if(month < 0) {
 107              		.loc 1 1060 5 is_stmt 1 view .LVU17
 108              	.LVL9:
1061:lvgl/src/lv_widgets/lv_calendar.c ****         year--;             /*Already in the previous year (won't be less then -12 to skip a whole 
 109              		.loc 1 1061 5 view .LVU18
1061:lvgl/src/lv_widgets/lv_calendar.c ****         year--;             /*Already in the previous year (won't be less then -12 to skip a whole 
 110              		.loc 1 1061 7 is_stmt 0 view .LVU19
 111 0002 4A1E     		subs	r2, r1, #1
 112              	.LVL10:
1061:lvgl/src/lv_widgets/lv_calendar.c ****         year--;             /*Already in the previous year (won't be less then -12 to skip a whole 
ARM GAS  D:\Temp\cclvo1nc.s 			page 22


 113              		.loc 1 1061 7 view .LVU20
 114 0004 18D4     		bmi	.L14
 115              	.L9:
1065:lvgl/src/lv_widgets/lv_calendar.c ****         year++;
 116              		.loc 1 1065 5 is_stmt 1 view .LVU21
1065:lvgl/src/lv_widgets/lv_calendar.c ****         year++;
 117              		.loc 1 1065 7 is_stmt 0 view .LVU22
 118 0006 0B2A     		cmp	r2, #11
 119 0008 01DD     		ble	.L10
1066:lvgl/src/lv_widgets/lv_calendar.c ****         month -= 12;
 120              		.loc 1 1066 9 is_stmt 1 view .LVU23
1066:lvgl/src/lv_widgets/lv_calendar.c ****         month -= 12;
 121              		.loc 1 1066 13 is_stmt 0 view .LVU24
 122 000a 0130     		adds	r0, r0, #1
 123              	.LVL11:
1067:lvgl/src/lv_widgets/lv_calendar.c ****     }
 124              		.loc 1 1067 9 is_stmt 1 view .LVU25
1067:lvgl/src/lv_widgets/lv_calendar.c ****     }
 125              		.loc 1 1067 15 is_stmt 0 view .LVU26
 126 000c 0C3A     		subs	r2, r2, #12
 127              	.LVL12:
 128              	.L10:
1071:lvgl/src/lv_widgets/lv_calendar.c **** }
 129              		.loc 1 1071 5 is_stmt 1 view .LVU27
1071:lvgl/src/lv_widgets/lv_calendar.c **** }
 130              		.loc 1 1071 53 is_stmt 0 view .LVU28
 131 000e 012A     		cmp	r2, #1
 132 0010 16D0     		beq	.L15
1071:lvgl/src/lv_widgets/lv_calendar.c **** }
 133              		.loc 1 1071 66 discriminator 2 view .LVU29
 134 0012 0E4B     		ldr	r3, .L16
 135 0014 83FB0213 		smull	r1, r3, r3, r2
 136 0018 9918     		adds	r1, r3, r2
 137 001a D317     		asrs	r3, r2, #31
 138 001c C3EBA103 		rsb	r3, r3, r1, asr #2
 139 0020 C3EBC303 		rsb	r3, r3, r3, lsl #3
1071:lvgl/src/lv_widgets/lv_calendar.c **** }
 140              		.loc 1 1071 70 discriminator 2 view .LVU30
 141 0024 D31A     		subs	r3, r2, r3
 142 0026 03F00103 		and	r3, r3, #1
 143 002a 48BF     		it	mi
 144 002c 5B42     		rsbmi	r3, r3, #0
1071:lvgl/src/lv_widgets/lv_calendar.c **** }
 145              		.loc 1 1071 58 discriminator 2 view .LVU31
 146 002e D8B2     		uxtb	r0, r3
 147              	.LVL13:
1071:lvgl/src/lv_widgets/lv_calendar.c **** }
 148              		.loc 1 1071 53 discriminator 2 view .LVU32
 149 0030 C0F11F00 		rsb	r0, r0, #31
 150 0034 C0B2     		uxtb	r0, r0
 151              	.LVL14:
 152              	.L12:
1072:lvgl/src/lv_widgets/lv_calendar.c **** 
 153              		.loc 1 1072 1 discriminator 4 view .LVU33
 154 0036 08BD     		pop	{r3, pc}
 155              	.LVL15:
 156              	.L14:
ARM GAS  D:\Temp\cclvo1nc.s 			page 23


1062:lvgl/src/lv_widgets/lv_calendar.c ****         month = 12 + month; /*`month` is negative, the result will be < 12*/
 157              		.loc 1 1062 9 is_stmt 1 view .LVU34
1062:lvgl/src/lv_widgets/lv_calendar.c ****         month = 12 + month; /*`month` is negative, the result will be < 12*/
 158              		.loc 1 1062 13 is_stmt 0 view .LVU35
 159 0038 0138     		subs	r0, r0, #1
 160              	.LVL16:
1063:lvgl/src/lv_widgets/lv_calendar.c ****     }
 161              		.loc 1 1063 9 is_stmt 1 view .LVU36
1063:lvgl/src/lv_widgets/lv_calendar.c ****     }
 162              		.loc 1 1063 15 is_stmt 0 view .LVU37
 163 003a 01F10B02 		add	r2, r1, #11
 164              	.LVL17:
1063:lvgl/src/lv_widgets/lv_calendar.c ****     }
 165              		.loc 1 1063 15 view .LVU38
 166 003e E2E7     		b	.L9
 167              	.L15:
1071:lvgl/src/lv_widgets/lv_calendar.c **** }
 168              		.loc 1 1071 33 discriminator 1 view .LVU39
 169 0040 FFF7FEFF 		bl	is_leap_year
 170              	.LVL18:
1071:lvgl/src/lv_widgets/lv_calendar.c **** }
 171              		.loc 1 1071 53 discriminator 1 view .LVU40
 172 0044 1C30     		adds	r0, r0, #28
 173 0046 C0B2     		uxtb	r0, r0
 174 0048 F5E7     		b	.L12
 175              	.L17:
 176 004a 00BF     		.align	2
 177              	.L16:
 178 004c 93244992 		.word	-1840700269
 179              		.cfi_endproc
 180              	.LFE485:
 182              		.section	.text.get_month_name,"ax",%progbits
 183              		.align	1
 184              		.syntax unified
 185              		.thumb
 186              		.thumb_func
 187              		.fpu fpv4-sp-d16
 189              	get_month_name:
 190              	.LVL19:
 191              	.LFB484:
1040:lvgl/src/lv_widgets/lv_calendar.c ****     month--; /*Range of months id [1..12] but range of indexes is [0..11]*/
 192              		.loc 1 1040 1 is_stmt 1 view -0
 193              		.cfi_startproc
 194              		@ args = 0, pretend = 0, frame = 0
 195              		@ frame_needed = 0, uses_anonymous_args = 0
1040:lvgl/src/lv_widgets/lv_calendar.c ****     month--; /*Range of months id [1..12] but range of indexes is [0..11]*/
 196              		.loc 1 1040 1 is_stmt 0 view .LVU42
 197 0000 10B5     		push	{r4, lr}
 198              	.LCFI1:
 199              		.cfi_def_cfa_offset 8
 200              		.cfi_offset 4, -8
 201              		.cfi_offset 14, -4
1041:lvgl/src/lv_widgets/lv_calendar.c ****     if(month < 0) month = 12 + month;
 202              		.loc 1 1041 5 is_stmt 1 view .LVU43
 203              	.LVL20:
1042:lvgl/src/lv_widgets/lv_calendar.c **** 
 204              		.loc 1 1042 5 view .LVU44
ARM GAS  D:\Temp\cclvo1nc.s 			page 24


1042:lvgl/src/lv_widgets/lv_calendar.c **** 
 205              		.loc 1 1042 7 is_stmt 0 view .LVU45
 206 0002 4C1E     		subs	r4, r1, #1
 207              	.LVL21:
1042:lvgl/src/lv_widgets/lv_calendar.c **** 
 208              		.loc 1 1042 7 view .LVU46
 209 0004 06D4     		bmi	.L23
 210              	.L19:
1044:lvgl/src/lv_widgets/lv_calendar.c ****     if(ext->month_names)
 211              		.loc 1 1044 5 is_stmt 1 view .LVU47
1044:lvgl/src/lv_widgets/lv_calendar.c ****     if(ext->month_names)
 212              		.loc 1 1044 31 is_stmt 0 view .LVU48
 213 0006 FFF7FEFF 		bl	lv_obj_get_ext_attr
 214              	.LVL22:
1045:lvgl/src/lv_widgets/lv_calendar.c ****         return ext->month_names[month];
 215              		.loc 1 1045 5 is_stmt 1 view .LVU49
1045:lvgl/src/lv_widgets/lv_calendar.c ****         return ext->month_names[month];
 216              		.loc 1 1045 11 is_stmt 0 view .LVU50
 217 000a 8369     		ldr	r3, [r0, #24]
1045:lvgl/src/lv_widgets/lv_calendar.c ****         return ext->month_names[month];
 218              		.loc 1 1045 7 view .LVU51
 219 000c 2BB1     		cbz	r3, .L20
1046:lvgl/src/lv_widgets/lv_calendar.c ****     else
 220              		.loc 1 1046 9 is_stmt 1 view .LVU52
1046:lvgl/src/lv_widgets/lv_calendar.c ****     else
 221              		.loc 1 1046 32 is_stmt 0 view .LVU53
 222 000e 53F82400 		ldr	r0, [r3, r4, lsl #2]
 223              	.LVL23:
 224              	.L18:
1049:lvgl/src/lv_widgets/lv_calendar.c **** 
 225              		.loc 1 1049 1 view .LVU54
 226 0012 10BD     		pop	{r4, pc}
 227              	.LVL24:
 228              	.L23:
1042:lvgl/src/lv_widgets/lv_calendar.c **** 
 229              		.loc 1 1042 19 is_stmt 1 discriminator 1 view .LVU55
1042:lvgl/src/lv_widgets/lv_calendar.c **** 
 230              		.loc 1 1042 25 is_stmt 0 discriminator 1 view .LVU56
 231 0014 01F10B04 		add	r4, r1, #11
 232              	.LVL25:
1042:lvgl/src/lv_widgets/lv_calendar.c **** 
 233              		.loc 1 1042 25 discriminator 1 view .LVU57
 234 0018 F5E7     		b	.L19
 235              	.LVL26:
 236              	.L20:
1048:lvgl/src/lv_widgets/lv_calendar.c **** }
 237              		.loc 1 1048 9 is_stmt 1 view .LVU58
1048:lvgl/src/lv_widgets/lv_calendar.c **** }
 238              		.loc 1 1048 26 is_stmt 0 view .LVU59
 239 001a 024B     		ldr	r3, .L24
 240 001c 53F82400 		ldr	r0, [r3, r4, lsl #2]
 241              	.LVL27:
1048:lvgl/src/lv_widgets/lv_calendar.c **** }
 242              		.loc 1 1048 26 view .LVU60
 243 0020 F7E7     		b	.L18
 244              	.L25:
 245 0022 00BF     		.align	2
ARM GAS  D:\Temp\cclvo1nc.s 			page 25


 246              	.L24:
 247 0024 00000000 		.word	.LANCHOR0
 248              		.cfi_endproc
 249              	.LFE484:
 251              		.section	.text.get_day_name,"ax",%progbits
 252              		.align	1
 253              		.syntax unified
 254              		.thumb
 255              		.thumb_func
 256              		.fpu fpv4-sp-d16
 258              	get_day_name:
 259              	.LVL28:
 260              	.LFB483:
1023:lvgl/src/lv_widgets/lv_calendar.c **** 
 261              		.loc 1 1023 1 is_stmt 1 view -0
 262              		.cfi_startproc
 263              		@ args = 0, pretend = 0, frame = 0
 264              		@ frame_needed = 0, uses_anonymous_args = 0
1023:lvgl/src/lv_widgets/lv_calendar.c **** 
 265              		.loc 1 1023 1 is_stmt 0 view .LVU62
 266 0000 10B5     		push	{r4, lr}
 267              	.LCFI2:
 268              		.cfi_def_cfa_offset 8
 269              		.cfi_offset 4, -8
 270              		.cfi_offset 14, -4
 271 0002 0C46     		mov	r4, r1
1025:lvgl/src/lv_widgets/lv_calendar.c ****     if(ext->day_names)
 272              		.loc 1 1025 5 is_stmt 1 view .LVU63
1025:lvgl/src/lv_widgets/lv_calendar.c ****     if(ext->day_names)
 273              		.loc 1 1025 31 is_stmt 0 view .LVU64
 274 0004 FFF7FEFF 		bl	lv_obj_get_ext_attr
 275              	.LVL29:
1026:lvgl/src/lv_widgets/lv_calendar.c ****         return ext->day_names[day];
 276              		.loc 1 1026 5 is_stmt 1 view .LVU65
1026:lvgl/src/lv_widgets/lv_calendar.c ****         return ext->day_names[day];
 277              		.loc 1 1026 11 is_stmt 0 view .LVU66
 278 0008 4369     		ldr	r3, [r0, #20]
1026:lvgl/src/lv_widgets/lv_calendar.c ****         return ext->day_names[day];
 279              		.loc 1 1026 7 view .LVU67
 280 000a 13B1     		cbz	r3, .L27
1027:lvgl/src/lv_widgets/lv_calendar.c ****     else
 281              		.loc 1 1027 9 is_stmt 1 view .LVU68
1027:lvgl/src/lv_widgets/lv_calendar.c ****     else
 282              		.loc 1 1027 30 is_stmt 0 view .LVU69
 283 000c 53F82400 		ldr	r0, [r3, r4, lsl #2]
 284              	.LVL30:
 285              	.L26:
1030:lvgl/src/lv_widgets/lv_calendar.c **** 
 286              		.loc 1 1030 1 view .LVU70
 287 0010 10BD     		pop	{r4, pc}
 288              	.LVL31:
 289              	.L27:
1029:lvgl/src/lv_widgets/lv_calendar.c **** }
 290              		.loc 1 1029 9 is_stmt 1 view .LVU71
1029:lvgl/src/lv_widgets/lv_calendar.c **** }
 291              		.loc 1 1029 24 is_stmt 0 view .LVU72
 292 0012 024B     		ldr	r3, .L30
ARM GAS  D:\Temp\cclvo1nc.s 			page 26


 293 0014 53F82400 		ldr	r0, [r3, r4, lsl #2]
 294              	.LVL32:
1029:lvgl/src/lv_widgets/lv_calendar.c **** }
 295              		.loc 1 1029 24 view .LVU73
 296 0018 FAE7     		b	.L26
 297              	.L31:
 298 001a 00BF     		.align	2
 299              	.L30:
 300 001c 00000000 		.word	.LANCHOR1
 301              		.cfi_endproc
 302              	.LFE483:
 304              		.section	.text.is_pressed,"ax",%progbits
 305              		.align	1
 306              		.syntax unified
 307              		.thumb
 308              		.thumb_func
 309              		.fpu fpv4-sp-d16
 311              	is_pressed:
 312              	.LVL33:
 313              	.LFB482:
1001:lvgl/src/lv_widgets/lv_calendar.c ****     lv_calendar_ext_t * ext = lv_obj_get_ext_attr(calendar);
 314              		.loc 1 1001 1 is_stmt 1 view -0
 315              		.cfi_startproc
 316              		@ args = 4, pretend = 0, frame = 0
 317              		@ frame_needed = 0, uses_anonymous_args = 0
1001:lvgl/src/lv_widgets/lv_calendar.c ****     lv_calendar_ext_t * ext = lv_obj_get_ext_attr(calendar);
 318              		.loc 1 1001 1 is_stmt 0 view .LVU75
 319 0000 70B5     		push	{r4, r5, r6, lr}
 320              	.LCFI3:
 321              		.cfi_def_cfa_offset 16
 322              		.cfi_offset 4, -16
 323              		.cfi_offset 5, -12
 324              		.cfi_offset 6, -8
 325              		.cfi_offset 14, -4
 326 0002 0E46     		mov	r6, r1
 327 0004 1546     		mov	r5, r2
 328 0006 1C46     		mov	r4, r3
1002:lvgl/src/lv_widgets/lv_calendar.c **** 
 329              		.loc 1 1002 5 is_stmt 1 view .LVU76
1002:lvgl/src/lv_widgets/lv_calendar.c **** 
 330              		.loc 1 1002 31 is_stmt 0 view .LVU77
 331 0008 FFF7FEFF 		bl	lv_obj_get_ext_attr
 332              	.LVL34:
1004:lvgl/src/lv_widgets/lv_calendar.c ****         year -= month == 1 ? 1 : 0;
 333              		.loc 1 1004 5 is_stmt 1 view .LVU78
1004:lvgl/src/lv_widgets/lv_calendar.c ****         year -= month == 1 ? 1 : 0;
 334              		.loc 1 1004 7 is_stmt 0 view .LVU79
 335 000c B6B9     		cbnz	r6, .L33
1005:lvgl/src/lv_widgets/lv_calendar.c ****         month = month == 1 ? 12 : month - 1;
 336              		.loc 1 1005 9 is_stmt 1 view .LVU80
1005:lvgl/src/lv_widgets/lv_calendar.c ****         month = month == 1 ? 12 : month - 1;
 337              		.loc 1 1005 32 is_stmt 0 view .LVU81
 338 000e 012C     		cmp	r4, #1
 339 0010 12D0     		beq	.L46
 340 0012 0023     		movs	r3, #0
 341              	.L34:
1005:lvgl/src/lv_widgets/lv_calendar.c ****         month = month == 1 ? 12 : month - 1;
ARM GAS  D:\Temp\cclvo1nc.s 			page 27


 342              		.loc 1 1005 14 discriminator 4 view .LVU82
 343 0014 ED1A     		subs	r5, r5, r3
 344              	.LVL35:
1006:lvgl/src/lv_widgets/lv_calendar.c ****     }
 345              		.loc 1 1006 9 is_stmt 1 discriminator 4 view .LVU83
1006:lvgl/src/lv_widgets/lv_calendar.c ****     }
 346              		.loc 1 1006 33 is_stmt 0 discriminator 4 view .LVU84
 347 0016 012C     		cmp	r4, #1
 348 0018 1CD0     		beq	.L39
1006:lvgl/src/lv_widgets/lv_calendar.c ****     }
 349              		.loc 1 1006 33 discriminator 1 view .LVU85
 350 001a 013C     		subs	r4, r4, #1
 351              	.LVL36:
 352              	.L35:
1013:lvgl/src/lv_widgets/lv_calendar.c ****     else return false;
 353              		.loc 1 1013 5 is_stmt 1 view .LVU86
1013:lvgl/src/lv_widgets/lv_calendar.c ****     else return false;
 354              		.loc 1 1013 33 is_stmt 0 view .LVU87
 355 001c 038A     		ldrh	r3, [r0, #16]
1013:lvgl/src/lv_widgets/lv_calendar.c ****     else return false;
 356              		.loc 1 1013 7 view .LVU88
 357 001e AB42     		cmp	r3, r5
 358 0020 1CD1     		bne	.L42
1013:lvgl/src/lv_widgets/lv_calendar.c ****     else return false;
 359              		.loc 1 1013 68 discriminator 1 view .LVU89
 360 0022 90F91230 		ldrsb	r3, [r0, #18]
1013:lvgl/src/lv_widgets/lv_calendar.c ****     else return false;
 361              		.loc 1 1013 39 discriminator 1 view .LVU90
 362 0026 A342     		cmp	r3, r4
 363 0028 1AD1     		bne	.L43
1013:lvgl/src/lv_widgets/lv_calendar.c ****     else return false;
 364              		.loc 1 1013 102 discriminator 2 view .LVU91
 365 002a 90F91320 		ldrsb	r2, [r0, #19]
1013:lvgl/src/lv_widgets/lv_calendar.c ****     else return false;
 366              		.loc 1 1013 75 discriminator 2 view .LVU92
 367 002e 049B     		ldr	r3, [sp, #16]
 368 0030 9A42     		cmp	r2, r3
 369 0032 17D0     		beq	.L44
1014:lvgl/src/lv_widgets/lv_calendar.c **** }
 370              		.loc 1 1014 17 view .LVU93
 371 0034 0020     		movs	r0, #0
 372              	.LVL37:
1014:lvgl/src/lv_widgets/lv_calendar.c **** }
 373              		.loc 1 1014 17 view .LVU94
 374 0036 12E0     		b	.L37
 375              	.LVL38:
 376              	.L46:
1005:lvgl/src/lv_widgets/lv_calendar.c ****         month = month == 1 ? 12 : month - 1;
 377              		.loc 1 1005 32 view .LVU95
 378 0038 0123     		movs	r3, #1
 379 003a EBE7     		b	.L34
 380              	.L33:
1008:lvgl/src/lv_widgets/lv_calendar.c ****         year += month == 12 ? 1 : 0;
 381              		.loc 1 1008 10 is_stmt 1 view .LVU96
1008:lvgl/src/lv_widgets/lv_calendar.c ****         year += month == 12 ? 1 : 0;
 382              		.loc 1 1008 12 is_stmt 0 view .LVU97
 383 003c 022E     		cmp	r6, #2
ARM GAS  D:\Temp\cclvo1nc.s 			page 28


 384 003e EDD1     		bne	.L35
1009:lvgl/src/lv_widgets/lv_calendar.c ****         month = month == 12 ? 1 : month + 1;
 385              		.loc 1 1009 9 is_stmt 1 view .LVU98
1009:lvgl/src/lv_widgets/lv_calendar.c ****         month = month == 12 ? 1 : month + 1;
 386              		.loc 1 1009 33 is_stmt 0 view .LVU99
 387 0040 0C2C     		cmp	r4, #12
 388 0042 05D0     		beq	.L47
 389 0044 0023     		movs	r3, #0
 390              	.L36:
1009:lvgl/src/lv_widgets/lv_calendar.c ****         month = month == 12 ? 1 : month + 1;
 391              		.loc 1 1009 14 discriminator 4 view .LVU100
 392 0046 1D44     		add	r5, r5, r3
 393              	.LVL39:
1010:lvgl/src/lv_widgets/lv_calendar.c ****     }
 394              		.loc 1 1010 9 is_stmt 1 discriminator 4 view .LVU101
1010:lvgl/src/lv_widgets/lv_calendar.c ****     }
 395              		.loc 1 1010 33 is_stmt 0 discriminator 4 view .LVU102
 396 0048 0C2C     		cmp	r4, #12
 397 004a 05D0     		beq	.L41
1010:lvgl/src/lv_widgets/lv_calendar.c ****     }
 398              		.loc 1 1010 33 discriminator 1 view .LVU103
 399 004c 0134     		adds	r4, r4, #1
 400              	.LVL40:
1010:lvgl/src/lv_widgets/lv_calendar.c ****     }
 401              		.loc 1 1010 33 discriminator 1 view .LVU104
 402 004e E5E7     		b	.L35
 403              	.LVL41:
 404              	.L47:
1009:lvgl/src/lv_widgets/lv_calendar.c ****         month = month == 12 ? 1 : month + 1;
 405              		.loc 1 1009 33 view .LVU105
 406 0050 0123     		movs	r3, #1
 407 0052 F8E7     		b	.L36
 408              	.L39:
1006:lvgl/src/lv_widgets/lv_calendar.c ****     }
 409              		.loc 1 1006 33 view .LVU106
 410 0054 0C24     		movs	r4, #12
 411              	.LVL42:
1006:lvgl/src/lv_widgets/lv_calendar.c ****     }
 412              		.loc 1 1006 33 view .LVU107
 413 0056 E1E7     		b	.L35
 414              	.LVL43:
 415              	.L41:
1010:lvgl/src/lv_widgets/lv_calendar.c ****     }
 416              		.loc 1 1010 33 view .LVU108
 417 0058 0124     		movs	r4, #1
 418              	.LVL44:
1010:lvgl/src/lv_widgets/lv_calendar.c ****     }
 419              		.loc 1 1010 33 view .LVU109
 420 005a DFE7     		b	.L35
 421              	.LVL45:
 422              	.L42:
1014:lvgl/src/lv_widgets/lv_calendar.c **** }
 423              		.loc 1 1014 17 view .LVU110
 424 005c 0020     		movs	r0, #0
 425              	.LVL46:
 426              	.L37:
1015:lvgl/src/lv_widgets/lv_calendar.c **** /**
ARM GAS  D:\Temp\cclvo1nc.s 			page 29


 427              		.loc 1 1015 1 view .LVU111
 428 005e 70BD     		pop	{r4, r5, r6, pc}
 429              	.LVL47:
 430              	.L43:
1014:lvgl/src/lv_widgets/lv_calendar.c **** }
 431              		.loc 1 1014 17 view .LVU112
 432 0060 0020     		movs	r0, #0
 433              	.LVL48:
1014:lvgl/src/lv_widgets/lv_calendar.c **** }
 434              		.loc 1 1014 17 view .LVU113
 435 0062 FCE7     		b	.L37
 436              	.LVL49:
 437              	.L44:
1013:lvgl/src/lv_widgets/lv_calendar.c ****     else return false;
 438              		.loc 1 1013 115 view .LVU114
 439 0064 0120     		movs	r0, #1
 440              	.LVL50:
1013:lvgl/src/lv_widgets/lv_calendar.c ****     else return false;
 441              		.loc 1 1013 115 view .LVU115
 442 0066 FAE7     		b	.L37
 443              		.cfi_endproc
 444              	.LFE482:
 446              		.section	.text.is_highlighted,"ax",%progbits
 447              		.align	1
 448              		.syntax unified
 449              		.thumb
 450              		.thumb_func
 451              		.fpu fpv4-sp-d16
 453              	is_highlighted:
 454              	.LVL51:
 455              	.LFB481:
 968:lvgl/src/lv_widgets/lv_calendar.c ****     lv_calendar_ext_t * ext = lv_obj_get_ext_attr(calendar);
 456              		.loc 1 968 1 is_stmt 1 view -0
 457              		.cfi_startproc
 458              		@ args = 4, pretend = 0, frame = 0
 459              		@ frame_needed = 0, uses_anonymous_args = 0
 968:lvgl/src/lv_widgets/lv_calendar.c ****     lv_calendar_ext_t * ext = lv_obj_get_ext_attr(calendar);
 460              		.loc 1 968 1 is_stmt 0 view .LVU117
 461 0000 F8B5     		push	{r3, r4, r5, r6, r7, lr}
 462              	.LCFI4:
 463              		.cfi_def_cfa_offset 24
 464              		.cfi_offset 3, -24
 465              		.cfi_offset 4, -20
 466              		.cfi_offset 5, -16
 467              		.cfi_offset 6, -12
 468              		.cfi_offset 7, -8
 469              		.cfi_offset 14, -4
 470 0002 0F46     		mov	r7, r1
 471 0004 1446     		mov	r4, r2
 472 0006 1D46     		mov	r5, r3
 473 0008 069E     		ldr	r6, [sp, #24]
 969:lvgl/src/lv_widgets/lv_calendar.c **** 
 474              		.loc 1 969 5 is_stmt 1 view .LVU118
 969:lvgl/src/lv_widgets/lv_calendar.c **** 
 475              		.loc 1 969 31 is_stmt 0 view .LVU119
 476 000a FFF7FEFF 		bl	lv_obj_get_ext_attr
 477              	.LVL52:
ARM GAS  D:\Temp\cclvo1nc.s 			page 30


 971:lvgl/src/lv_widgets/lv_calendar.c ****         year -= month == 1 ? 1 : 0;
 478              		.loc 1 971 5 is_stmt 1 view .LVU120
 971:lvgl/src/lv_widgets/lv_calendar.c ****         year -= month == 1 ? 1 : 0;
 479              		.loc 1 971 7 is_stmt 0 view .LVU121
 480 000e 57B9     		cbnz	r7, .L49
 972:lvgl/src/lv_widgets/lv_calendar.c ****         month = month == 1 ? 12 : month - 1;
 481              		.loc 1 972 9 is_stmt 1 view .LVU122
 972:lvgl/src/lv_widgets/lv_calendar.c ****         month = month == 1 ? 12 : month - 1;
 482              		.loc 1 972 32 is_stmt 0 view .LVU123
 483 0010 012D     		cmp	r5, #1
 484 0012 06D0     		beq	.L63
 485 0014 0023     		movs	r3, #0
 486              	.L50:
 972:lvgl/src/lv_widgets/lv_calendar.c ****         month = month == 1 ? 12 : month - 1;
 487              		.loc 1 972 14 discriminator 4 view .LVU124
 488 0016 E41A     		subs	r4, r4, r3
 489              	.LVL53:
 973:lvgl/src/lv_widgets/lv_calendar.c ****     }
 490              		.loc 1 973 9 is_stmt 1 discriminator 4 view .LVU125
 973:lvgl/src/lv_widgets/lv_calendar.c ****     }
 491              		.loc 1 973 33 is_stmt 0 discriminator 4 view .LVU126
 492 0018 012D     		cmp	r5, #1
 493 001a 10D0     		beq	.L58
 973:lvgl/src/lv_widgets/lv_calendar.c ****     }
 494              		.loc 1 973 33 discriminator 1 view .LVU127
 495 001c 013D     		subs	r5, r5, #1
 496              	.LVL54:
 497              	.L51:
 980:lvgl/src/lv_widgets/lv_calendar.c ****     for(i = 0; i < ext->highlighted_dates_num; i++) {
 498              		.loc 1 980 5 is_stmt 1 view .LVU128
 981:lvgl/src/lv_widgets/lv_calendar.c ****         if(ext->highlighted_dates[i].year == year && ext->highlighted_dates[i].month == month &&
 499              		.loc 1 981 5 view .LVU129
 981:lvgl/src/lv_widgets/lv_calendar.c ****         if(ext->highlighted_dates[i].year == year && ext->highlighted_dates[i].month == month &&
 500              		.loc 1 981 11 is_stmt 0 view .LVU130
 501 001e 0023     		movs	r3, #0
 981:lvgl/src/lv_widgets/lv_calendar.c ****         if(ext->highlighted_dates[i].year == year && ext->highlighted_dates[i].month == month &&
 502              		.loc 1 981 5 view .LVU131
 503 0020 12E0     		b	.L53
 504              	.LVL55:
 505              	.L63:
 972:lvgl/src/lv_widgets/lv_calendar.c ****         month = month == 1 ? 12 : month - 1;
 506              		.loc 1 972 32 view .LVU132
 507 0022 0123     		movs	r3, #1
 508 0024 F7E7     		b	.L50
 509              	.L49:
 975:lvgl/src/lv_widgets/lv_calendar.c ****         year += month == 12 ? 1 : 0;
 510              		.loc 1 975 10 is_stmt 1 view .LVU133
 975:lvgl/src/lv_widgets/lv_calendar.c ****         year += month == 12 ? 1 : 0;
 511              		.loc 1 975 12 is_stmt 0 view .LVU134
 512 0026 022F     		cmp	r7, #2
 513 0028 F9D1     		bne	.L51
 976:lvgl/src/lv_widgets/lv_calendar.c ****         month = month == 12 ? 1 : month + 1;
 514              		.loc 1 976 9 is_stmt 1 view .LVU135
 976:lvgl/src/lv_widgets/lv_calendar.c ****         month = month == 12 ? 1 : month + 1;
 515              		.loc 1 976 33 is_stmt 0 view .LVU136
 516 002a 0C2D     		cmp	r5, #12
 517 002c 05D0     		beq	.L64
ARM GAS  D:\Temp\cclvo1nc.s 			page 31


 518 002e 0023     		movs	r3, #0
 519              	.L52:
 976:lvgl/src/lv_widgets/lv_calendar.c ****         month = month == 12 ? 1 : month + 1;
 520              		.loc 1 976 14 discriminator 4 view .LVU137
 521 0030 1C44     		add	r4, r4, r3
 522              	.LVL56:
 977:lvgl/src/lv_widgets/lv_calendar.c ****     }
 523              		.loc 1 977 9 is_stmt 1 discriminator 4 view .LVU138
 977:lvgl/src/lv_widgets/lv_calendar.c ****     }
 524              		.loc 1 977 33 is_stmt 0 discriminator 4 view .LVU139
 525 0032 0C2D     		cmp	r5, #12
 526 0034 05D0     		beq	.L60
 977:lvgl/src/lv_widgets/lv_calendar.c ****     }
 527              		.loc 1 977 33 discriminator 1 view .LVU140
 528 0036 0135     		adds	r5, r5, #1
 529              	.LVL57:
 977:lvgl/src/lv_widgets/lv_calendar.c ****     }
 530              		.loc 1 977 33 discriminator 1 view .LVU141
 531 0038 F1E7     		b	.L51
 532              	.LVL58:
 533              	.L64:
 976:lvgl/src/lv_widgets/lv_calendar.c ****         month = month == 12 ? 1 : month + 1;
 534              		.loc 1 976 33 view .LVU142
 535 003a 0123     		movs	r3, #1
 536 003c F8E7     		b	.L52
 537              	.L58:
 973:lvgl/src/lv_widgets/lv_calendar.c ****     }
 538              		.loc 1 973 33 view .LVU143
 539 003e 0C25     		movs	r5, #12
 540              	.LVL59:
 973:lvgl/src/lv_widgets/lv_calendar.c ****     }
 541              		.loc 1 973 33 view .LVU144
 542 0040 EDE7     		b	.L51
 543              	.LVL60:
 544              	.L60:
 977:lvgl/src/lv_widgets/lv_calendar.c ****     }
 545              		.loc 1 977 33 view .LVU145
 546 0042 0125     		movs	r5, #1
 547              	.LVL61:
 977:lvgl/src/lv_widgets/lv_calendar.c ****     }
 548              		.loc 1 977 33 view .LVU146
 549 0044 EBE7     		b	.L51
 550              	.LVL62:
 551              	.L54:
 981:lvgl/src/lv_widgets/lv_calendar.c ****         if(ext->highlighted_dates[i].year == year && ext->highlighted_dates[i].month == month &&
 552              		.loc 1 981 49 discriminator 2 view .LVU147
 553 0046 0133     		adds	r3, r3, #1
 554              	.LVL63:
 555              	.L53:
 981:lvgl/src/lv_widgets/lv_calendar.c ****         if(ext->highlighted_dates[i].year == year && ext->highlighted_dates[i].month == month &&
 556              		.loc 1 981 23 discriminator 1 view .LVU148
 557 0048 C289     		ldrh	r2, [r0, #14]
 981:lvgl/src/lv_widgets/lv_calendar.c ****         if(ext->highlighted_dates[i].year == year && ext->highlighted_dates[i].month == month &&
 558              		.loc 1 981 5 discriminator 1 view .LVU149
 559 004a 9A42     		cmp	r2, r3
 560 004c 10D9     		bls	.L65
 982:lvgl/src/lv_widgets/lv_calendar.c ****            ext->highlighted_dates[i].day == day) {
ARM GAS  D:\Temp\cclvo1nc.s 			page 32


 561              		.loc 1 982 9 is_stmt 1 view .LVU150
 982:lvgl/src/lv_widgets/lv_calendar.c ****            ext->highlighted_dates[i].day == day) {
 562              		.loc 1 982 15 is_stmt 0 view .LVU151
 563 004e 8268     		ldr	r2, [r0, #8]
 982:lvgl/src/lv_widgets/lv_calendar.c ****            ext->highlighted_dates[i].day == day) {
 564              		.loc 1 982 34 view .LVU152
 565 0050 02EB8301 		add	r1, r2, r3, lsl #2
 982:lvgl/src/lv_widgets/lv_calendar.c ****            ext->highlighted_dates[i].day == day) {
 566              		.loc 1 982 37 view .LVU153
 567 0054 32F82320 		ldrh	r2, [r2, r3, lsl #2]
 982:lvgl/src/lv_widgets/lv_calendar.c ****            ext->highlighted_dates[i].day == day) {
 568              		.loc 1 982 11 view .LVU154
 569 0058 A242     		cmp	r2, r4
 570 005a F4D1     		bne	.L54
 982:lvgl/src/lv_widgets/lv_calendar.c ****            ext->highlighted_dates[i].day == day) {
 571              		.loc 1 982 79 discriminator 1 view .LVU155
 572 005c 91F90220 		ldrsb	r2, [r1, #2]
 982:lvgl/src/lv_widgets/lv_calendar.c ****            ext->highlighted_dates[i].day == day) {
 573              		.loc 1 982 51 discriminator 1 view .LVU156
 574 0060 AA42     		cmp	r2, r5
 575 0062 F0D1     		bne	.L54
 983:lvgl/src/lv_widgets/lv_calendar.c ****             return true;
 576              		.loc 1 983 37 discriminator 2 view .LVU157
 577 0064 91F90320 		ldrsb	r2, [r1, #3]
 982:lvgl/src/lv_widgets/lv_calendar.c ****            ext->highlighted_dates[i].day == day) {
 578              		.loc 1 982 95 discriminator 2 view .LVU158
 579 0068 B242     		cmp	r2, r6
 580 006a ECD1     		bne	.L54
 984:lvgl/src/lv_widgets/lv_calendar.c ****         }
 581              		.loc 1 984 20 view .LVU159
 582 006c 0120     		movs	r0, #1
 583              	.LVL64:
 984:lvgl/src/lv_widgets/lv_calendar.c ****         }
 584              		.loc 1 984 20 view .LVU160
 585 006e 00E0     		b	.L55
 586              	.LVL65:
 587              	.L65:
 988:lvgl/src/lv_widgets/lv_calendar.c **** }
 588              		.loc 1 988 12 view .LVU161
 589 0070 0020     		movs	r0, #0
 590              	.LVL66:
 591              	.L55:
 989:lvgl/src/lv_widgets/lv_calendar.c **** 
 592              		.loc 1 989 1 view .LVU162
 593 0072 F8BD     		pop	{r3, r4, r5, r6, r7, pc}
 989:lvgl/src/lv_widgets/lv_calendar.c **** 
 594              		.loc 1 989 1 view .LVU163
 595              		.cfi_endproc
 596              	.LFE481:
 598              		.section	.text.lv_calendar_get_style,"ax",%progbits
 599              		.align	1
 600              		.syntax unified
 601              		.thumb
 602              		.thumb_func
 603              		.fpu fpv4-sp-d16
 605              	lv_calendar_get_style:
 606              	.LVL67:
ARM GAS  D:\Temp\cclvo1nc.s 			page 33


 607              	.LFB474:
 577:lvgl/src/lv_widgets/lv_calendar.c ****     LV_ASSERT_OBJ(calendar, LV_OBJX_NAME);
 608              		.loc 1 577 1 is_stmt 1 view -0
 609              		.cfi_startproc
 610              		@ args = 0, pretend = 0, frame = 0
 611              		@ frame_needed = 0, uses_anonymous_args = 0
 577:lvgl/src/lv_widgets/lv_calendar.c ****     LV_ASSERT_OBJ(calendar, LV_OBJX_NAME);
 612              		.loc 1 577 1 is_stmt 0 view .LVU165
 613 0000 38B5     		push	{r3, r4, r5, lr}
 614              	.LCFI5:
 615              		.cfi_def_cfa_offset 16
 616              		.cfi_offset 3, -16
 617              		.cfi_offset 4, -12
 618              		.cfi_offset 5, -8
 619              		.cfi_offset 14, -4
 620 0002 0446     		mov	r4, r0
 621 0004 0D46     		mov	r5, r1
 578:lvgl/src/lv_widgets/lv_calendar.c **** 
 622              		.loc 1 578 5 is_stmt 1 view .LVU166
 578:lvgl/src/lv_widgets/lv_calendar.c **** 
 623              		.loc 1 578 5 view .LVU167
 624 0006 FFF7FEFF 		bl	lv_debug_check_null
 625              	.LVL68:
 578:lvgl/src/lv_widgets/lv_calendar.c **** 
 626              		.loc 1 578 5 is_stmt 0 view .LVU168
 627 000a 28B9     		cbnz	r0, .L67
 578:lvgl/src/lv_widgets/lv_calendar.c **** 
 628              		.loc 1 578 5 is_stmt 1 discriminator 1 view .LVU169
 578:lvgl/src/lv_widgets/lv_calendar.c **** 
 629              		.loc 1 578 5 discriminator 1 view .LVU170
 630 000c 2246     		mov	r2, r4
 631 000e 0023     		movs	r3, #0
 632 0010 0B48     		ldr	r0, .L77
 633 0012 FFF7FEFF 		bl	lv_debug_log_error
 634              	.LVL69:
 635              	.L68:
 578:lvgl/src/lv_widgets/lv_calendar.c **** 
 636              		.loc 1 578 5 discriminator 1 view .LVU171
 578:lvgl/src/lv_widgets/lv_calendar.c **** 
 637              		.loc 1 578 5 discriminator 1 view .LVU172
 638 0016 FEE7     		b	.L68
 639              	.L67:
 578:lvgl/src/lv_widgets/lv_calendar.c **** 
 640              		.loc 1 578 42 discriminator 2 view .LVU173
 580:lvgl/src/lv_widgets/lv_calendar.c ****     lv_style_list_t * style_dsc_p;
 641              		.loc 1 580 5 discriminator 2 view .LVU174
 580:lvgl/src/lv_widgets/lv_calendar.c ****     lv_style_list_t * style_dsc_p;
 642              		.loc 1 580 31 is_stmt 0 discriminator 2 view .LVU175
 643 0018 2046     		mov	r0, r4
 644 001a FFF7FEFF 		bl	lv_obj_get_ext_attr
 645              	.LVL70:
 581:lvgl/src/lv_widgets/lv_calendar.c **** 
 646              		.loc 1 581 5 is_stmt 1 discriminator 2 view .LVU176
 583:lvgl/src/lv_widgets/lv_calendar.c ****         case LV_CALENDAR_PART_BG:
 647              		.loc 1 583 5 discriminator 2 view .LVU177
 648 001e 032D     		cmp	r5, #3
 649 0020 0CD8     		bhi	.L75
ARM GAS  D:\Temp\cclvo1nc.s 			page 34


 650 0022 DFE805F0 		tbb	[pc, r5]
 651              	.L71:
 652 0026 02       		.byte	(.L74-.L71)/2
 653 0027 05       		.byte	(.L73-.L71)/2
 654 0028 07       		.byte	(.L72-.L71)/2
 655 0029 09       		.byte	(.L70-.L71)/2
 656              		.p2align 1
 657              	.L74:
 585:lvgl/src/lv_widgets/lv_calendar.c ****             break;
 658              		.loc 1 585 13 view .LVU178
 585:lvgl/src/lv_widgets/lv_calendar.c ****             break;
 659              		.loc 1 585 25 is_stmt 0 view .LVU179
 660 002a 04F12800 		add	r0, r4, #40
 661              	.LVL71:
 586:lvgl/src/lv_widgets/lv_calendar.c ****         case LV_CALENDAR_PART_HEADER:
 662              		.loc 1 586 13 is_stmt 1 view .LVU180
 663              	.L66:
 601:lvgl/src/lv_widgets/lv_calendar.c **** 
 664              		.loc 1 601 1 is_stmt 0 view .LVU181
 665 002e 38BD     		pop	{r3, r4, r5, pc}
 666              	.LVL72:
 667              	.L73:
 588:lvgl/src/lv_widgets/lv_calendar.c ****             break;
 668              		.loc 1 588 13 is_stmt 1 view .LVU182
 588:lvgl/src/lv_widgets/lv_calendar.c ****             break;
 669              		.loc 1 588 25 is_stmt 0 view .LVU183
 670 0030 1C30     		adds	r0, r0, #28
 671              	.LVL73:
 589:lvgl/src/lv_widgets/lv_calendar.c ****         case LV_CALENDAR_PART_DAY_NAMES:
 672              		.loc 1 589 13 is_stmt 1 view .LVU184
 673 0032 FCE7     		b	.L66
 674              	.LVL74:
 675              	.L72:
 591:lvgl/src/lv_widgets/lv_calendar.c ****             break;
 676              		.loc 1 591 13 view .LVU185
 591:lvgl/src/lv_widgets/lv_calendar.c ****             break;
 677              		.loc 1 591 25 is_stmt 0 view .LVU186
 678 0034 2430     		adds	r0, r0, #36
 679              	.LVL75:
 592:lvgl/src/lv_widgets/lv_calendar.c ****         case LV_CALENDAR_PART_DATE:
 680              		.loc 1 592 13 is_stmt 1 view .LVU187
 681 0036 FAE7     		b	.L66
 682              	.LVL76:
 683              	.L70:
 594:lvgl/src/lv_widgets/lv_calendar.c ****             break;
 684              		.loc 1 594 13 view .LVU188
 594:lvgl/src/lv_widgets/lv_calendar.c ****             break;
 685              		.loc 1 594 25 is_stmt 0 view .LVU189
 686 0038 2C30     		adds	r0, r0, #44
 687              	.LVL77:
 595:lvgl/src/lv_widgets/lv_calendar.c ****         default:
 688              		.loc 1 595 13 is_stmt 1 view .LVU190
 689 003a F8E7     		b	.L66
 690              	.LVL78:
 691              	.L75:
 597:lvgl/src/lv_widgets/lv_calendar.c ****     }
 692              		.loc 1 597 25 is_stmt 0 view .LVU191
ARM GAS  D:\Temp\cclvo1nc.s 			page 35


 693 003c 0020     		movs	r0, #0
 694              	.LVL79:
 600:lvgl/src/lv_widgets/lv_calendar.c **** }
 695              		.loc 1 600 5 is_stmt 1 view .LVU192
 600:lvgl/src/lv_widgets/lv_calendar.c **** }
 696              		.loc 1 600 12 is_stmt 0 view .LVU193
 697 003e F6E7     		b	.L66
 698              	.L78:
 699              		.align	2
 700              	.L77:
 701 0040 00000000 		.word	.LC0
 702              		.cfi_endproc
 703              	.LFE474:
 705              		.section	.text.draw_header,"ax",%progbits
 706              		.align	1
 707              		.syntax unified
 708              		.thumb
 709              		.thumb_func
 710              		.fpu fpv4-sp-d16
 712              	draw_header:
 713              	.LVL80:
 714              	.LFB478:
 699:lvgl/src/lv_widgets/lv_calendar.c ****     lv_style_int_t header_left = lv_obj_get_style_pad_left(calendar, LV_CALENDAR_PART_HEADER);
 715              		.loc 1 699 1 is_stmt 1 view -0
 716              		.cfi_startproc
 717              		@ args = 0, pretend = 0, frame = 192
 718              		@ frame_needed = 0, uses_anonymous_args = 0
 699:lvgl/src/lv_widgets/lv_calendar.c ****     lv_style_int_t header_left = lv_obj_get_style_pad_left(calendar, LV_CALENDAR_PART_HEADER);
 719              		.loc 1 699 1 is_stmt 0 view .LVU195
 720 0000 2DE9F04F 		push	{r4, r5, r6, r7, r8, r9, r10, fp, lr}
 721              	.LCFI6:
 722              		.cfi_def_cfa_offset 36
 723              		.cfi_offset 4, -36
 724              		.cfi_offset 5, -32
 725              		.cfi_offset 6, -28
 726              		.cfi_offset 7, -24
 727              		.cfi_offset 8, -20
 728              		.cfi_offset 9, -16
 729              		.cfi_offset 10, -12
 730              		.cfi_offset 11, -8
 731              		.cfi_offset 14, -4
 732 0004 B3B0     		sub	sp, sp, #204
 733              	.LCFI7:
 734              		.cfi_def_cfa_offset 240
 735 0006 0446     		mov	r4, r0
 736 0008 0E46     		mov	r6, r1
 700:lvgl/src/lv_widgets/lv_calendar.c ****     lv_style_int_t header_right = lv_obj_get_style_pad_right(calendar, LV_CALENDAR_PART_HEADER);
 737              		.loc 1 700 5 is_stmt 1 view .LVU196
 738              	.LVL81:
 739              	.LBB106:
 740              	.LBI106:
 741              		.file 2 "lvgl/src/lv_widgets/../lv_core/lv_obj_style_dec.h"
   1:lvgl/src/lv_widgets/../lv_core/lv_obj_style_dec.h **** 
   2:lvgl/src/lv_widgets/../lv_core/lv_obj_style_dec.h **** /**
   3:lvgl/src/lv_widgets/../lv_core/lv_obj_style_dec.h ****  * @file lv_obj_style_dec.h
   4:lvgl/src/lv_widgets/../lv_core/lv_obj_style_dec.h ****  *
   5:lvgl/src/lv_widgets/../lv_core/lv_obj_style_dec.h ****  */
ARM GAS  D:\Temp\cclvo1nc.s 			page 36


   6:lvgl/src/lv_widgets/../lv_core/lv_obj_style_dec.h **** 
   7:lvgl/src/lv_widgets/../lv_core/lv_obj_style_dec.h **** #ifndef LV_OBJ_STYLE_DEC_H
   8:lvgl/src/lv_widgets/../lv_core/lv_obj_style_dec.h **** #define LV_OBJ_STYLE_DEC_H
   9:lvgl/src/lv_widgets/../lv_core/lv_obj_style_dec.h **** 
  10:lvgl/src/lv_widgets/../lv_core/lv_obj_style_dec.h **** #ifdef __cplusplus
  11:lvgl/src/lv_widgets/../lv_core/lv_obj_style_dec.h **** extern "C" {
  12:lvgl/src/lv_widgets/../lv_core/lv_obj_style_dec.h **** #endif
  13:lvgl/src/lv_widgets/../lv_core/lv_obj_style_dec.h **** 
  14:lvgl/src/lv_widgets/../lv_core/lv_obj_style_dec.h **** /*********************
  15:lvgl/src/lv_widgets/../lv_core/lv_obj_style_dec.h ****  *      DEFINES
  16:lvgl/src/lv_widgets/../lv_core/lv_obj_style_dec.h ****  *********************/
  17:lvgl/src/lv_widgets/../lv_core/lv_obj_style_dec.h **** 
  18:lvgl/src/lv_widgets/../lv_core/lv_obj_style_dec.h **** /**
  19:lvgl/src/lv_widgets/../lv_core/lv_obj_style_dec.h ****  * Macro to declare the most important style set/get API functions.
  20:lvgl/src/lv_widgets/../lv_core/lv_obj_style_dec.h ****  *
  21:lvgl/src/lv_widgets/../lv_core/lv_obj_style_dec.h ****  * Get the value of a style property from an object in the object's current state
  22:lvgl/src/lv_widgets/../lv_core/lv_obj_style_dec.h ****  * -----------------------------------------------------------------------------
  23:lvgl/src/lv_widgets/../lv_core/lv_obj_style_dec.h ****  *  - Get the value of a style property from an object in the object's current state.
  24:lvgl/src/lv_widgets/../lv_core/lv_obj_style_dec.h ****  *  - Transition animation is taken into account.
  25:lvgl/src/lv_widgets/../lv_core/lv_obj_style_dec.h ****  *  - If the property is not set in the object's styles check the parent(s) if the property can be 
  26:lvgl/src/lv_widgets/../lv_core/lv_obj_style_dec.h ****  *  - If still not found return a default value.
  27:lvgl/src/lv_widgets/../lv_core/lv_obj_style_dec.h ****  *  - For example:
  28:lvgl/src/lv_widgets/../lv_core/lv_obj_style_dec.h ****  *      `lv_style_int_t w = lv_obj_get_style_border_width(btn1, LV_BTN_PART_MAIN);`
  29:lvgl/src/lv_widgets/../lv_core/lv_obj_style_dec.h ****  *
  30:lvgl/src/lv_widgets/../lv_core/lv_obj_style_dec.h ****  * Set a local style property for an object in a given state
  31:lvgl/src/lv_widgets/../lv_core/lv_obj_style_dec.h ****  * ---------------------------------------------------------
  32:lvgl/src/lv_widgets/../lv_core/lv_obj_style_dec.h ****  *  - For example:
  33:lvgl/src/lv_widgets/../lv_core/lv_obj_style_dec.h ****  *      `lv_obj_set_style_local_border_width(btn1, LV_BTN_PART_MAIN, LV_STATE_PRESSED, 2);`
  34:lvgl/src/lv_widgets/../lv_core/lv_obj_style_dec.h ****  *
  35:lvgl/src/lv_widgets/../lv_core/lv_obj_style_dec.h ****  * Get a local style property's value of an object in a given state
  36:lvgl/src/lv_widgets/../lv_core/lv_obj_style_dec.h ****  * ----------------------------------------------------------------
  37:lvgl/src/lv_widgets/../lv_core/lv_obj_style_dec.h ****  *  - Return the best matching property in the given state.
  38:lvgl/src/lv_widgets/../lv_core/lv_obj_style_dec.h ****  *  - E.g. if `state` parameter is LV_STATE_PRESSED | LV_STATE_CHECKED` but the property defined on
  39:lvgl/src/lv_widgets/../lv_core/lv_obj_style_dec.h ****  *    `LV_STATE_PRESSED` and `LV_STATE_DEFAULT` the best matching state is `LV_STATE_PRESSED`
  40:lvgl/src/lv_widgets/../lv_core/lv_obj_style_dec.h ****  *    (because it has higher precedence) and it will be returned.
  41:lvgl/src/lv_widgets/../lv_core/lv_obj_style_dec.h ****  *  - If the property is not found even in `LV_STATE_DEFAULT` `-1` is returned.
  42:lvgl/src/lv_widgets/../lv_core/lv_obj_style_dec.h ****  *  - For example:
  43:lvgl/src/lv_widgets/../lv_core/lv_obj_style_dec.h ****  *      `//Type of result should be lv_style_int_t/lv_opa_t/lv_color_t/const void * according to th
  44:lvgl/src/lv_widgets/../lv_core/lv_obj_style_dec.h ****  *      `lv_style_int_t result;`
  45:lvgl/src/lv_widgets/../lv_core/lv_obj_style_dec.h ****  *      `lv_obj_get_style_local_border_width(btn1, LV_BTN_PART_MAIN, LV_STATE_PRESSED, &result);`
  46:lvgl/src/lv_widgets/../lv_core/lv_obj_style_dec.h ****  *      `if(weight > 0) ...the property is found and loaded into result...`
  47:lvgl/src/lv_widgets/../lv_core/lv_obj_style_dec.h ****  *
  48:lvgl/src/lv_widgets/../lv_core/lv_obj_style_dec.h ****  * Get the value from a style in a given state
  49:lvgl/src/lv_widgets/../lv_core/lv_obj_style_dec.h ****  * -------------------------------------------
  50:lvgl/src/lv_widgets/../lv_core/lv_obj_style_dec.h ****  * - The same rules applies to the return value then for "lv_obj_get_style_local_...()" above
  51:lvgl/src/lv_widgets/../lv_core/lv_obj_style_dec.h ****  * - For example
  52:lvgl/src/lv_widgets/../lv_core/lv_obj_style_dec.h ****  *      `int16_t weight = lv_style_get_border_width(&style1, LV_STATE_PRESSED, &result);`
  53:lvgl/src/lv_widgets/../lv_core/lv_obj_style_dec.h ****  *      `if(weight > 0) ...the property is found and loaded into result...`
  54:lvgl/src/lv_widgets/../lv_core/lv_obj_style_dec.h **** 
  55:lvgl/src/lv_widgets/../lv_core/lv_obj_style_dec.h ****  * Set a value in a style in a given state
  56:lvgl/src/lv_widgets/../lv_core/lv_obj_style_dec.h ****  * ---------------------------------------
  57:lvgl/src/lv_widgets/../lv_core/lv_obj_style_dec.h ****  * - For example
  58:lvgl/src/lv_widgets/../lv_core/lv_obj_style_dec.h ****  *      `lv_style_set_border_width(&style1, LV_STATE_PRESSED, 2);`
  59:lvgl/src/lv_widgets/../lv_core/lv_obj_style_dec.h ****  */
  60:lvgl/src/lv_widgets/../lv_core/lv_obj_style_dec.h **** 
  61:lvgl/src/lv_widgets/../lv_core/lv_obj_style_dec.h **** #define _OBJ_GET_STYLE_scalar(prop_name, func_name, value_type, style_type)                        
  62:lvgl/src/lv_widgets/../lv_core/lv_obj_style_dec.h ****     static inline value_type lv_obj_get_style_##func_name (const lv_obj_t * obj, uint8_t part)     
ARM GAS  D:\Temp\cclvo1nc.s 			page 37


  63:lvgl/src/lv_widgets/../lv_core/lv_obj_style_dec.h ****     {                                                                                              
  64:lvgl/src/lv_widgets/../lv_core/lv_obj_style_dec.h ****         return (value_type) _lv_obj_get_style##style_type (obj, part, LV_STYLE_##prop_name);       
  65:lvgl/src/lv_widgets/../lv_core/lv_obj_style_dec.h ****     }
  66:lvgl/src/lv_widgets/../lv_core/lv_obj_style_dec.h **** 
  67:lvgl/src/lv_widgets/../lv_core/lv_obj_style_dec.h **** #define _OBJ_GET_STYLE_nonscalar(prop_name, func_name, value_type, style_type)                     
  68:lvgl/src/lv_widgets/../lv_core/lv_obj_style_dec.h ****     static inline value_type lv_obj_get_style_##func_name (const lv_obj_t * obj, uint8_t part)     
  69:lvgl/src/lv_widgets/../lv_core/lv_obj_style_dec.h ****     {                                                                                              
  70:lvgl/src/lv_widgets/../lv_core/lv_obj_style_dec.h ****         return _lv_obj_get_style##style_type (obj, part, LV_STYLE_##prop_name);                    
  71:lvgl/src/lv_widgets/../lv_core/lv_obj_style_dec.h ****     }
  72:lvgl/src/lv_widgets/../lv_core/lv_obj_style_dec.h **** 
  73:lvgl/src/lv_widgets/../lv_core/lv_obj_style_dec.h **** #define _OBJ_SET_STYLE_LOCAL_scalar(prop_name, func_name, value_type, style_type)                  
  74:lvgl/src/lv_widgets/../lv_core/lv_obj_style_dec.h ****     static inline void lv_obj_set_style_local_##func_name (lv_obj_t * obj, uint8_t part, lv_state_t
  75:lvgl/src/lv_widgets/../lv_core/lv_obj_style_dec.h ****     {                                                                                              
  76:lvgl/src/lv_widgets/../lv_core/lv_obj_style_dec.h ****         _lv_obj_set_style_local##style_type (obj, part, LV_STYLE_##prop_name | (state << LV_STYLE_S
  77:lvgl/src/lv_widgets/../lv_core/lv_obj_style_dec.h ****     }
  78:lvgl/src/lv_widgets/../lv_core/lv_obj_style_dec.h **** 
  79:lvgl/src/lv_widgets/../lv_core/lv_obj_style_dec.h **** #define _OBJ_SET_STYLE_LOCAL_nonscalar(prop_name, func_name, value_type, style_type)               
  80:lvgl/src/lv_widgets/../lv_core/lv_obj_style_dec.h ****     static inline void lv_obj_set_style_local_##func_name (lv_obj_t * obj, uint8_t part, lv_state_t
  81:lvgl/src/lv_widgets/../lv_core/lv_obj_style_dec.h ****     {                                                                                              
  82:lvgl/src/lv_widgets/../lv_core/lv_obj_style_dec.h ****         _lv_obj_set_style_local##style_type (obj, part, LV_STYLE_##prop_name | (state << LV_STYLE_S
  83:lvgl/src/lv_widgets/../lv_core/lv_obj_style_dec.h ****     }
  84:lvgl/src/lv_widgets/../lv_core/lv_obj_style_dec.h **** 
  85:lvgl/src/lv_widgets/../lv_core/lv_obj_style_dec.h **** #define _OBJ_SET_STYLE_scalar(prop_name, func_name, value_type, style_type)                        
  86:lvgl/src/lv_widgets/../lv_core/lv_obj_style_dec.h ****     static inline void lv_style_set_##func_name (lv_style_t * style, lv_state_t state, value_type v
  87:lvgl/src/lv_widgets/../lv_core/lv_obj_style_dec.h ****     {                                                                                              
  88:lvgl/src/lv_widgets/../lv_core/lv_obj_style_dec.h ****         _lv_style_set##style_type (style, LV_STYLE_##prop_name | (state << LV_STYLE_STATE_POS), val
  89:lvgl/src/lv_widgets/../lv_core/lv_obj_style_dec.h ****     }
  90:lvgl/src/lv_widgets/../lv_core/lv_obj_style_dec.h **** 
  91:lvgl/src/lv_widgets/../lv_core/lv_obj_style_dec.h **** #define _OBJ_SET_STYLE_nonscalar(prop_name, func_name, value_type, style_type)                     
  92:lvgl/src/lv_widgets/../lv_core/lv_obj_style_dec.h ****     static inline void lv_style_set_##func_name (lv_style_t * style, lv_state_t state, value_type v
  93:lvgl/src/lv_widgets/../lv_core/lv_obj_style_dec.h ****     {                                                                                              
  94:lvgl/src/lv_widgets/../lv_core/lv_obj_style_dec.h ****         _lv_style_set##style_type (style, LV_STYLE_##prop_name | (state << LV_STYLE_STATE_POS), val
  95:lvgl/src/lv_widgets/../lv_core/lv_obj_style_dec.h ****     }
  96:lvgl/src/lv_widgets/../lv_core/lv_obj_style_dec.h **** 
  97:lvgl/src/lv_widgets/../lv_core/lv_obj_style_dec.h **** #define _LV_OBJ_STYLE_SET_GET_DECLARE(prop_name, func_name, value_type, style_type, scalar)        
  98:lvgl/src/lv_widgets/../lv_core/lv_obj_style_dec.h ****     _OBJ_GET_STYLE_##scalar(prop_name, func_name, value_type, style_type)                          
  99:lvgl/src/lv_widgets/../lv_core/lv_obj_style_dec.h ****     _OBJ_SET_STYLE_LOCAL_##scalar(prop_name, func_name, value_type, style_type)                    
 100:lvgl/src/lv_widgets/../lv_core/lv_obj_style_dec.h ****     _OBJ_SET_STYLE_##scalar(prop_name, func_name, value_type, style_type)
 101:lvgl/src/lv_widgets/../lv_core/lv_obj_style_dec.h **** 
 102:lvgl/src/lv_widgets/../lv_core/lv_obj_style_dec.h **** _LV_OBJ_STYLE_SET_GET_DECLARE(RADIUS, radius, lv_style_int_t, _int, scalar)
 103:lvgl/src/lv_widgets/../lv_core/lv_obj_style_dec.h **** _LV_OBJ_STYLE_SET_GET_DECLARE(CLIP_CORNER, clip_corner, bool, _int, scalar)
 104:lvgl/src/lv_widgets/../lv_core/lv_obj_style_dec.h **** _LV_OBJ_STYLE_SET_GET_DECLARE(SIZE, size, lv_style_int_t, _int, scalar)
 105:lvgl/src/lv_widgets/../lv_core/lv_obj_style_dec.h **** _LV_OBJ_STYLE_SET_GET_DECLARE(TRANSFORM_WIDTH, transform_width, lv_style_int_t, _int, scalar)
 106:lvgl/src/lv_widgets/../lv_core/lv_obj_style_dec.h **** _LV_OBJ_STYLE_SET_GET_DECLARE(TRANSFORM_HEIGHT, transform_height, lv_style_int_t, _int, scalar)
 107:lvgl/src/lv_widgets/../lv_core/lv_obj_style_dec.h **** _LV_OBJ_STYLE_SET_GET_DECLARE(TRANSFORM_ANGLE, transform_angle, lv_style_int_t, _int, scalar)
 108:lvgl/src/lv_widgets/../lv_core/lv_obj_style_dec.h **** _LV_OBJ_STYLE_SET_GET_DECLARE(TRANSFORM_ZOOM, transform_zoom, lv_style_int_t, _int, scalar)
 109:lvgl/src/lv_widgets/../lv_core/lv_obj_style_dec.h **** _LV_OBJ_STYLE_SET_GET_DECLARE(OPA_SCALE, opa_scale, lv_opa_t, _opa, scalar)
 110:lvgl/src/lv_widgets/../lv_core/lv_obj_style_dec.h **** _LV_OBJ_STYLE_SET_GET_DECLARE(PAD_TOP, pad_top, lv_style_int_t, _int, scalar)
 111:lvgl/src/lv_widgets/../lv_core/lv_obj_style_dec.h **** _LV_OBJ_STYLE_SET_GET_DECLARE(PAD_BOTTOM, pad_bottom, lv_style_int_t, _int, scalar)
 112:lvgl/src/lv_widgets/../lv_core/lv_obj_style_dec.h **** _LV_OBJ_STYLE_SET_GET_DECLARE(PAD_LEFT, pad_left, lv_style_int_t, _int, scalar)
 742              		.loc 2 112 1 view .LVU197
 743              	.LBB107:
 744              		.loc 2 112 1 view .LVU198
 745 000a 1222     		movs	r2, #18
 746 000c 0121     		movs	r1, #1
 747              	.LVL82:
 748              		.loc 2 112 1 is_stmt 0 view .LVU199
ARM GAS  D:\Temp\cclvo1nc.s 			page 38


 749 000e FFF7FEFF 		bl	_lv_obj_get_style_int
 750              	.LVL83:
 751              		.loc 2 112 1 view .LVU200
 752 0012 8046     		mov	r8, r0
 753              	.LVL84:
 754              		.loc 2 112 1 view .LVU201
 755              	.LBE107:
 756              	.LBE106:
 701:lvgl/src/lv_widgets/lv_calendar.c ****     const lv_font_t * font = lv_obj_get_style_text_font(calendar, LV_CALENDAR_PART_HEADER);
 757              		.loc 1 701 5 is_stmt 1 view .LVU202
 758              	.LBB108:
 759              	.LBI108:
 113:lvgl/src/lv_widgets/../lv_core/lv_obj_style_dec.h **** _LV_OBJ_STYLE_SET_GET_DECLARE(PAD_RIGHT, pad_right, lv_style_int_t, _int, scalar)
 760              		.loc 2 113 1 view .LVU203
 761              	.LBB109:
 762              		.loc 2 113 1 view .LVU204
 763 0014 1322     		movs	r2, #19
 764 0016 0121     		movs	r1, #1
 765 0018 2046     		mov	r0, r4
 766 001a FFF7FEFF 		bl	_lv_obj_get_style_int
 767              	.LVL85:
 768 001e 8246     		mov	r10, r0
 769              	.LVL86:
 770              		.loc 2 113 1 is_stmt 0 view .LVU205
 771              	.LBE109:
 772              	.LBE108:
 702:lvgl/src/lv_widgets/lv_calendar.c **** 
 773              		.loc 1 702 5 is_stmt 1 view .LVU206
 774              	.LBB110:
 775              	.LBI110:
 114:lvgl/src/lv_widgets/../lv_core/lv_obj_style_dec.h **** _LV_OBJ_STYLE_SET_GET_DECLARE(PAD_INNER, pad_inner, lv_style_int_t, _int, scalar)
 115:lvgl/src/lv_widgets/../lv_core/lv_obj_style_dec.h **** _LV_OBJ_STYLE_SET_GET_DECLARE(MARGIN_TOP, margin_top, lv_style_int_t, _int, scalar)
 116:lvgl/src/lv_widgets/../lv_core/lv_obj_style_dec.h **** _LV_OBJ_STYLE_SET_GET_DECLARE(MARGIN_BOTTOM, margin_bottom, lv_style_int_t, _int, scalar)
 117:lvgl/src/lv_widgets/../lv_core/lv_obj_style_dec.h **** _LV_OBJ_STYLE_SET_GET_DECLARE(MARGIN_LEFT, margin_left, lv_style_int_t, _int, scalar)
 118:lvgl/src/lv_widgets/../lv_core/lv_obj_style_dec.h **** _LV_OBJ_STYLE_SET_GET_DECLARE(MARGIN_RIGHT, margin_right, lv_style_int_t, _int, scalar)
 119:lvgl/src/lv_widgets/../lv_core/lv_obj_style_dec.h **** _LV_OBJ_STYLE_SET_GET_DECLARE(BG_BLEND_MODE, bg_blend_mode, lv_blend_mode_t, _int, scalar)
 120:lvgl/src/lv_widgets/../lv_core/lv_obj_style_dec.h **** _LV_OBJ_STYLE_SET_GET_DECLARE(BG_MAIN_STOP, bg_main_stop, lv_style_int_t, _int, scalar)
 121:lvgl/src/lv_widgets/../lv_core/lv_obj_style_dec.h **** _LV_OBJ_STYLE_SET_GET_DECLARE(BG_GRAD_STOP, bg_grad_stop, lv_style_int_t, _int, scalar)
 122:lvgl/src/lv_widgets/../lv_core/lv_obj_style_dec.h **** _LV_OBJ_STYLE_SET_GET_DECLARE(BG_GRAD_DIR, bg_grad_dir, lv_grad_dir_t, _int, scalar)
 123:lvgl/src/lv_widgets/../lv_core/lv_obj_style_dec.h **** _LV_OBJ_STYLE_SET_GET_DECLARE(BG_COLOR, bg_color, lv_color_t, _color, nonscalar)
 124:lvgl/src/lv_widgets/../lv_core/lv_obj_style_dec.h **** _LV_OBJ_STYLE_SET_GET_DECLARE(BG_GRAD_COLOR, bg_grad_color, lv_color_t, _color, nonscalar)
 125:lvgl/src/lv_widgets/../lv_core/lv_obj_style_dec.h **** _LV_OBJ_STYLE_SET_GET_DECLARE(BG_OPA, bg_opa, lv_opa_t, _opa, scalar)
 126:lvgl/src/lv_widgets/../lv_core/lv_obj_style_dec.h **** _LV_OBJ_STYLE_SET_GET_DECLARE(BORDER_WIDTH, border_width, lv_style_int_t, _int, scalar)
 127:lvgl/src/lv_widgets/../lv_core/lv_obj_style_dec.h **** _LV_OBJ_STYLE_SET_GET_DECLARE(BORDER_SIDE, border_side, lv_border_side_t, _int, scalar)
 128:lvgl/src/lv_widgets/../lv_core/lv_obj_style_dec.h **** _LV_OBJ_STYLE_SET_GET_DECLARE(BORDER_BLEND_MODE, border_blend_mode, lv_blend_mode_t, _int, scalar)
 129:lvgl/src/lv_widgets/../lv_core/lv_obj_style_dec.h **** _LV_OBJ_STYLE_SET_GET_DECLARE(BORDER_POST, border_post, bool, _int, scalar)
 130:lvgl/src/lv_widgets/../lv_core/lv_obj_style_dec.h **** _LV_OBJ_STYLE_SET_GET_DECLARE(BORDER_COLOR, border_color, lv_color_t, _color, nonscalar)
 131:lvgl/src/lv_widgets/../lv_core/lv_obj_style_dec.h **** _LV_OBJ_STYLE_SET_GET_DECLARE(BORDER_OPA, border_opa, lv_opa_t, _opa, scalar)
 132:lvgl/src/lv_widgets/../lv_core/lv_obj_style_dec.h **** _LV_OBJ_STYLE_SET_GET_DECLARE(OUTLINE_WIDTH, outline_width, lv_style_int_t, _int, scalar)
 133:lvgl/src/lv_widgets/../lv_core/lv_obj_style_dec.h **** _LV_OBJ_STYLE_SET_GET_DECLARE(OUTLINE_PAD, outline_pad, lv_style_int_t, _int, scalar)
 134:lvgl/src/lv_widgets/../lv_core/lv_obj_style_dec.h **** _LV_OBJ_STYLE_SET_GET_DECLARE(OUTLINE_BLEND_MODE, outline_blend_mode, lv_blend_mode_t, _int, scalar
 135:lvgl/src/lv_widgets/../lv_core/lv_obj_style_dec.h **** _LV_OBJ_STYLE_SET_GET_DECLARE(OUTLINE_COLOR, outline_color, lv_color_t, _color, nonscalar)
 136:lvgl/src/lv_widgets/../lv_core/lv_obj_style_dec.h **** _LV_OBJ_STYLE_SET_GET_DECLARE(OUTLINE_OPA, outline_opa, lv_opa_t, _opa, scalar)
 137:lvgl/src/lv_widgets/../lv_core/lv_obj_style_dec.h **** _LV_OBJ_STYLE_SET_GET_DECLARE(SHADOW_WIDTH, shadow_width, lv_style_int_t, _int, scalar)
 138:lvgl/src/lv_widgets/../lv_core/lv_obj_style_dec.h **** _LV_OBJ_STYLE_SET_GET_DECLARE(SHADOW_OFS_X, shadow_ofs_x, lv_style_int_t, _int, scalar)
 139:lvgl/src/lv_widgets/../lv_core/lv_obj_style_dec.h **** _LV_OBJ_STYLE_SET_GET_DECLARE(SHADOW_OFS_Y, shadow_ofs_y, lv_style_int_t, _int, scalar)
 140:lvgl/src/lv_widgets/../lv_core/lv_obj_style_dec.h **** _LV_OBJ_STYLE_SET_GET_DECLARE(SHADOW_SPREAD, shadow_spread, lv_style_int_t, _int, scalar)
ARM GAS  D:\Temp\cclvo1nc.s 			page 39


 141:lvgl/src/lv_widgets/../lv_core/lv_obj_style_dec.h **** _LV_OBJ_STYLE_SET_GET_DECLARE(SHADOW_BLEND_MODE, shadow_blend_mode, lv_blend_mode_t, _int, scalar)
 142:lvgl/src/lv_widgets/../lv_core/lv_obj_style_dec.h **** _LV_OBJ_STYLE_SET_GET_DECLARE(SHADOW_COLOR, shadow_color, lv_color_t, _color, nonscalar)
 143:lvgl/src/lv_widgets/../lv_core/lv_obj_style_dec.h **** _LV_OBJ_STYLE_SET_GET_DECLARE(SHADOW_OPA, shadow_opa, lv_opa_t, _opa, scalar)
 144:lvgl/src/lv_widgets/../lv_core/lv_obj_style_dec.h **** _LV_OBJ_STYLE_SET_GET_DECLARE(PATTERN_REPEAT, pattern_repeat, bool, _int, scalar)
 145:lvgl/src/lv_widgets/../lv_core/lv_obj_style_dec.h **** _LV_OBJ_STYLE_SET_GET_DECLARE(PATTERN_BLEND_MODE, pattern_blend_mode, lv_blend_mode_t, _int, scalar
 146:lvgl/src/lv_widgets/../lv_core/lv_obj_style_dec.h **** _LV_OBJ_STYLE_SET_GET_DECLARE(PATTERN_RECOLOR, pattern_recolor, lv_color_t, _color, nonscalar)
 147:lvgl/src/lv_widgets/../lv_core/lv_obj_style_dec.h **** _LV_OBJ_STYLE_SET_GET_DECLARE(PATTERN_OPA, pattern_opa, lv_opa_t, _opa, scalar)
 148:lvgl/src/lv_widgets/../lv_core/lv_obj_style_dec.h **** _LV_OBJ_STYLE_SET_GET_DECLARE(PATTERN_RECOLOR_OPA, pattern_recolor_opa, lv_opa_t, _opa, scalar)
 149:lvgl/src/lv_widgets/../lv_core/lv_obj_style_dec.h **** _LV_OBJ_STYLE_SET_GET_DECLARE(PATTERN_IMAGE, pattern_image, const void *, _ptr, scalar)
 150:lvgl/src/lv_widgets/../lv_core/lv_obj_style_dec.h **** _LV_OBJ_STYLE_SET_GET_DECLARE(VALUE_LETTER_SPACE, value_letter_space, lv_style_int_t, _int, scalar)
 151:lvgl/src/lv_widgets/../lv_core/lv_obj_style_dec.h **** _LV_OBJ_STYLE_SET_GET_DECLARE(VALUE_LINE_SPACE, value_line_space, lv_style_int_t, _int, scalar)
 152:lvgl/src/lv_widgets/../lv_core/lv_obj_style_dec.h **** _LV_OBJ_STYLE_SET_GET_DECLARE(VALUE_BLEND_MODE, value_blend_mode, lv_blend_mode_t, _int, scalar)
 153:lvgl/src/lv_widgets/../lv_core/lv_obj_style_dec.h **** _LV_OBJ_STYLE_SET_GET_DECLARE(VALUE_OFS_X, value_ofs_x, lv_style_int_t, _int, scalar)
 154:lvgl/src/lv_widgets/../lv_core/lv_obj_style_dec.h **** _LV_OBJ_STYLE_SET_GET_DECLARE(VALUE_OFS_Y, value_ofs_y, lv_style_int_t, _int, scalar)
 155:lvgl/src/lv_widgets/../lv_core/lv_obj_style_dec.h **** _LV_OBJ_STYLE_SET_GET_DECLARE(VALUE_ALIGN, value_align, lv_align_t, _int, scalar)
 156:lvgl/src/lv_widgets/../lv_core/lv_obj_style_dec.h **** _LV_OBJ_STYLE_SET_GET_DECLARE(VALUE_COLOR, value_color, lv_color_t, _color, nonscalar)
 157:lvgl/src/lv_widgets/../lv_core/lv_obj_style_dec.h **** _LV_OBJ_STYLE_SET_GET_DECLARE(VALUE_OPA, value_opa, lv_opa_t, _opa, scalar)
 158:lvgl/src/lv_widgets/../lv_core/lv_obj_style_dec.h **** _LV_OBJ_STYLE_SET_GET_DECLARE(VALUE_FONT, value_font, const lv_font_t *, _ptr, scalar)
 159:lvgl/src/lv_widgets/../lv_core/lv_obj_style_dec.h **** _LV_OBJ_STYLE_SET_GET_DECLARE(VALUE_STR, value_str, const char *, _ptr, scalar)
 160:lvgl/src/lv_widgets/../lv_core/lv_obj_style_dec.h **** _LV_OBJ_STYLE_SET_GET_DECLARE(TEXT_LETTER_SPACE, text_letter_space, lv_style_int_t, _int, scalar)
 161:lvgl/src/lv_widgets/../lv_core/lv_obj_style_dec.h **** _LV_OBJ_STYLE_SET_GET_DECLARE(TEXT_LINE_SPACE, text_line_space, lv_style_int_t, _int, scalar)
 162:lvgl/src/lv_widgets/../lv_core/lv_obj_style_dec.h **** _LV_OBJ_STYLE_SET_GET_DECLARE(TEXT_DECOR, text_decor, lv_text_decor_t, _int, scalar)
 163:lvgl/src/lv_widgets/../lv_core/lv_obj_style_dec.h **** _LV_OBJ_STYLE_SET_GET_DECLARE(TEXT_BLEND_MODE, text_blend_mode, lv_blend_mode_t, _int, scalar)
 164:lvgl/src/lv_widgets/../lv_core/lv_obj_style_dec.h **** _LV_OBJ_STYLE_SET_GET_DECLARE(TEXT_COLOR, text_color, lv_color_t, _color, nonscalar)
 165:lvgl/src/lv_widgets/../lv_core/lv_obj_style_dec.h **** _LV_OBJ_STYLE_SET_GET_DECLARE(TEXT_SEL_COLOR, text_sel_color, lv_color_t, _color, nonscalar)
 166:lvgl/src/lv_widgets/../lv_core/lv_obj_style_dec.h **** _LV_OBJ_STYLE_SET_GET_DECLARE(TEXT_SEL_BG_COLOR, text_sel_bg_color, lv_color_t, _color, nonscalar)
 167:lvgl/src/lv_widgets/../lv_core/lv_obj_style_dec.h **** _LV_OBJ_STYLE_SET_GET_DECLARE(TEXT_OPA, text_opa, lv_opa_t, _opa, scalar)
 168:lvgl/src/lv_widgets/../lv_core/lv_obj_style_dec.h **** _LV_OBJ_STYLE_SET_GET_DECLARE(TEXT_FONT, text_font, const lv_font_t *, _ptr, scalar)
 776              		.loc 2 168 1 view .LVU207
 777              	.LBB111:
 778              		.loc 2 168 1 view .LVU208
 779 0020 48F28E02 		movw	r2, #32910
 780 0024 0121     		movs	r1, #1
 781 0026 2046     		mov	r0, r4
 782 0028 FFF7FEFF 		bl	_lv_obj_get_style_ptr
 783              	.LVL87:
 784 002c 8146     		mov	r9, r0
 785              	.LVL88:
 786              		.loc 2 168 1 is_stmt 0 view .LVU209
 787              	.LBE111:
 788              	.LBE110:
 704:lvgl/src/lv_widgets/lv_calendar.c **** 
 789              		.loc 1 704 5 is_stmt 1 view .LVU210
 704:lvgl/src/lv_widgets/lv_calendar.c **** 
 790              		.loc 1 704 31 is_stmt 0 view .LVU211
 791 002e 2046     		mov	r0, r4
 792              	.LVL89:
 704:lvgl/src/lv_widgets/lv_calendar.c **** 
 793              		.loc 1 704 31 view .LVU212
 794 0030 FFF7FEFF 		bl	lv_obj_get_ext_attr
 795              	.LVL90:
 796 0034 0746     		mov	r7, r0
 797              	.LVL91:
 706:lvgl/src/lv_widgets/lv_calendar.c ****     header_area.x1 = calendar->coords.x1;
 798              		.loc 1 706 5 is_stmt 1 view .LVU213
 707:lvgl/src/lv_widgets/lv_calendar.c ****     header_area.x2 = calendar->coords.x2;
 799              		.loc 1 707 5 view .LVU214
ARM GAS  D:\Temp\cclvo1nc.s 			page 40


 707:lvgl/src/lv_widgets/lv_calendar.c ****     header_area.x2 = calendar->coords.x2;
 800              		.loc 1 707 38 is_stmt 0 view .LVU215
 801 0036 B4F91030 		ldrsh	r3, [r4, #16]
 707:lvgl/src/lv_widgets/lv_calendar.c ****     header_area.x2 = calendar->coords.x2;
 802              		.loc 1 707 20 view .LVU216
 803 003a ADF8C030 		strh	r3, [sp, #192]	@ movhi
 708:lvgl/src/lv_widgets/lv_calendar.c ****     header_area.y1 = calendar->coords.y1 + lv_obj_get_style_margin_top(calendar, LV_CALENDAR_PART_H
 804              		.loc 1 708 5 is_stmt 1 view .LVU217
 708:lvgl/src/lv_widgets/lv_calendar.c ****     header_area.y1 = calendar->coords.y1 + lv_obj_get_style_margin_top(calendar, LV_CALENDAR_PART_H
 805              		.loc 1 708 38 is_stmt 0 view .LVU218
 806 003e B4F91430 		ldrsh	r3, [r4, #20]
 708:lvgl/src/lv_widgets/lv_calendar.c ****     header_area.y1 = calendar->coords.y1 + lv_obj_get_style_margin_top(calendar, LV_CALENDAR_PART_H
 807              		.loc 1 708 20 view .LVU219
 808 0042 ADF8C430 		strh	r3, [sp, #196]	@ movhi
 709:lvgl/src/lv_widgets/lv_calendar.c ****     header_area.y2 = header_area.y1 + lv_obj_get_style_pad_top(calendar, LV_CALENDAR_PART_HEADER) +
 809              		.loc 1 709 5 is_stmt 1 view .LVU220
 709:lvgl/src/lv_widgets/lv_calendar.c ****     header_area.y2 = header_area.y1 + lv_obj_get_style_pad_top(calendar, LV_CALENDAR_PART_HEADER) +
 810              		.loc 1 709 38 is_stmt 0 view .LVU221
 811 0046 658A     		ldrh	r5, [r4, #18]
 812              	.LVL92:
 813              	.LBB112:
 814              	.LBI112:
 115:lvgl/src/lv_widgets/../lv_core/lv_obj_style_dec.h **** _LV_OBJ_STYLE_SET_GET_DECLARE(MARGIN_BOTTOM, margin_bottom, lv_style_int_t, _int, scalar)
 815              		.loc 2 115 1 is_stmt 1 view .LVU222
 816              	.LBB113:
 115:lvgl/src/lv_widgets/../lv_core/lv_obj_style_dec.h **** _LV_OBJ_STYLE_SET_GET_DECLARE(MARGIN_BOTTOM, margin_bottom, lv_style_int_t, _int, scalar)
 817              		.loc 2 115 1 view .LVU223
 818 0048 1522     		movs	r2, #21
 819 004a 0121     		movs	r1, #1
 820 004c 2046     		mov	r0, r4
 821              	.LVL93:
 115:lvgl/src/lv_widgets/../lv_core/lv_obj_style_dec.h **** _LV_OBJ_STYLE_SET_GET_DECLARE(MARGIN_BOTTOM, margin_bottom, lv_style_int_t, _int, scalar)
 822              		.loc 2 115 1 is_stmt 0 view .LVU224
 823 004e FFF7FEFF 		bl	_lv_obj_get_style_int
 824              	.LVL94:
 115:lvgl/src/lv_widgets/../lv_core/lv_obj_style_dec.h **** _LV_OBJ_STYLE_SET_GET_DECLARE(MARGIN_BOTTOM, margin_bottom, lv_style_int_t, _int, scalar)
 825              		.loc 2 115 1 view .LVU225
 826              	.LBE113:
 827              	.LBE112:
 709:lvgl/src/lv_widgets/lv_calendar.c ****     header_area.y2 = header_area.y1 + lv_obj_get_style_pad_top(calendar, LV_CALENDAR_PART_HEADER) +
 828              		.loc 1 709 42 view .LVU226
 829 0052 15FA80F5 		uxtah	r5, r5, r0
 830 0056 ADB2     		uxth	r5, r5
 709:lvgl/src/lv_widgets/lv_calendar.c ****     header_area.y2 = header_area.y1 + lv_obj_get_style_pad_top(calendar, LV_CALENDAR_PART_HEADER) +
 831              		.loc 1 709 20 view .LVU227
 832 0058 ADF8C250 		strh	r5, [sp, #194]	@ movhi
 710:lvgl/src/lv_widgets/lv_calendar.c ****                      lv_font_get_line_height(font) + lv_obj_get_style_pad_bottom(calendar, LV_CALEN
 833              		.loc 1 710 5 is_stmt 1 view .LVU228
 834              	.LVL95:
 835              	.LBB114:
 836              	.LBI114:
 110:lvgl/src/lv_widgets/../lv_core/lv_obj_style_dec.h **** _LV_OBJ_STYLE_SET_GET_DECLARE(PAD_BOTTOM, pad_bottom, lv_style_int_t, _int, scalar)
 837              		.loc 2 110 1 view .LVU229
 838              	.LBB115:
 110:lvgl/src/lv_widgets/../lv_core/lv_obj_style_dec.h **** _LV_OBJ_STYLE_SET_GET_DECLARE(PAD_BOTTOM, pad_bottom, lv_style_int_t, _int, scalar)
 839              		.loc 2 110 1 view .LVU230
 840 005c 1022     		movs	r2, #16
ARM GAS  D:\Temp\cclvo1nc.s 			page 41


 841 005e 0121     		movs	r1, #1
 842 0060 2046     		mov	r0, r4
 843 0062 FFF7FEFF 		bl	_lv_obj_get_style_int
 844              	.LVL96:
 110:lvgl/src/lv_widgets/../lv_core/lv_obj_style_dec.h **** _LV_OBJ_STYLE_SET_GET_DECLARE(PAD_BOTTOM, pad_bottom, lv_style_int_t, _int, scalar)
 845              		.loc 2 110 1 is_stmt 0 view .LVU231
 846              	.LBE115:
 847              	.LBE114:
 710:lvgl/src/lv_widgets/lv_calendar.c ****                      lv_font_get_line_height(font) + lv_obj_get_style_pad_bottom(calendar, LV_CALEN
 848              		.loc 1 710 37 view .LVU232
 849 0066 15FA80F5 		uxtah	r5, r5, r0
 850              	.LVL97:
 851              	.LBB116:
 852              	.LBI116:
 853              		.file 3 "lvgl/src/lv_widgets/../lv_core/../lv_font/lv_font.h"
   1:lvgl/src/lv_widgets/../lv_core/../lv_font/lv_font.h **** /**
   2:lvgl/src/lv_widgets/../lv_core/../lv_font/lv_font.h ****  * @file lv_font.h
   3:lvgl/src/lv_widgets/../lv_core/../lv_font/lv_font.h ****  *
   4:lvgl/src/lv_widgets/../lv_core/../lv_font/lv_font.h ****  */
   5:lvgl/src/lv_widgets/../lv_core/../lv_font/lv_font.h **** 
   6:lvgl/src/lv_widgets/../lv_core/../lv_font/lv_font.h **** #ifndef LV_FONT_H
   7:lvgl/src/lv_widgets/../lv_core/../lv_font/lv_font.h **** #define LV_FONT_H
   8:lvgl/src/lv_widgets/../lv_core/../lv_font/lv_font.h **** 
   9:lvgl/src/lv_widgets/../lv_core/../lv_font/lv_font.h **** #ifdef __cplusplus
  10:lvgl/src/lv_widgets/../lv_core/../lv_font/lv_font.h **** extern "C" {
  11:lvgl/src/lv_widgets/../lv_core/../lv_font/lv_font.h **** #endif
  12:lvgl/src/lv_widgets/../lv_core/../lv_font/lv_font.h **** 
  13:lvgl/src/lv_widgets/../lv_core/../lv_font/lv_font.h **** /*********************
  14:lvgl/src/lv_widgets/../lv_core/../lv_font/lv_font.h ****  *      INCLUDES
  15:lvgl/src/lv_widgets/../lv_core/../lv_font/lv_font.h ****  *********************/
  16:lvgl/src/lv_widgets/../lv_core/../lv_font/lv_font.h **** #include "../lv_conf_internal.h"
  17:lvgl/src/lv_widgets/../lv_core/../lv_font/lv_font.h **** #include <stdint.h>
  18:lvgl/src/lv_widgets/../lv_core/../lv_font/lv_font.h **** #include <stddef.h>
  19:lvgl/src/lv_widgets/../lv_core/../lv_font/lv_font.h **** #include <stdbool.h>
  20:lvgl/src/lv_widgets/../lv_core/../lv_font/lv_font.h **** 
  21:lvgl/src/lv_widgets/../lv_core/../lv_font/lv_font.h **** #include "lv_symbol_def.h"
  22:lvgl/src/lv_widgets/../lv_core/../lv_font/lv_font.h **** #include "../lv_misc/lv_area.h"
  23:lvgl/src/lv_widgets/../lv_core/../lv_font/lv_font.h **** 
  24:lvgl/src/lv_widgets/../lv_core/../lv_font/lv_font.h **** /*********************
  25:lvgl/src/lv_widgets/../lv_core/../lv_font/lv_font.h ****  *      DEFINES
  26:lvgl/src/lv_widgets/../lv_core/../lv_font/lv_font.h ****  *********************/
  27:lvgl/src/lv_widgets/../lv_core/../lv_font/lv_font.h **** 
  28:lvgl/src/lv_widgets/../lv_core/../lv_font/lv_font.h **** /**********************
  29:lvgl/src/lv_widgets/../lv_core/../lv_font/lv_font.h ****  *      TYPEDEFS
  30:lvgl/src/lv_widgets/../lv_core/../lv_font/lv_font.h ****  **********************/
  31:lvgl/src/lv_widgets/../lv_core/../lv_font/lv_font.h **** 
  32:lvgl/src/lv_widgets/../lv_core/../lv_font/lv_font.h **** /*------------------
  33:lvgl/src/lv_widgets/../lv_core/../lv_font/lv_font.h ****  * General types
  34:lvgl/src/lv_widgets/../lv_core/../lv_font/lv_font.h ****  *-----------------*/
  35:lvgl/src/lv_widgets/../lv_core/../lv_font/lv_font.h **** 
  36:lvgl/src/lv_widgets/../lv_core/../lv_font/lv_font.h **** /** Describes the properties of a glyph. */
  37:lvgl/src/lv_widgets/../lv_core/../lv_font/lv_font.h **** typedef struct {
  38:lvgl/src/lv_widgets/../lv_core/../lv_font/lv_font.h ****     uint16_t adv_w; /**< The glyph needs this space. Draw the next glyph after this width. 8 bit in
  39:lvgl/src/lv_widgets/../lv_core/../lv_font/lv_font.h ****     uint16_t box_w;  /**< Width of the glyph's bounding box*/
  40:lvgl/src/lv_widgets/../lv_core/../lv_font/lv_font.h ****     uint16_t box_h;  /**< Height of the glyph's bounding box*/
  41:lvgl/src/lv_widgets/../lv_core/../lv_font/lv_font.h ****     int16_t ofs_x;   /**< x offset of the bounding box*/
  42:lvgl/src/lv_widgets/../lv_core/../lv_font/lv_font.h ****     int16_t ofs_y;  /**< y offset of the bounding box*/
ARM GAS  D:\Temp\cclvo1nc.s 			page 42


  43:lvgl/src/lv_widgets/../lv_core/../lv_font/lv_font.h ****     uint8_t bpp;   /**< Bit-per-pixel: 1, 2, 4, 8*/
  44:lvgl/src/lv_widgets/../lv_core/../lv_font/lv_font.h **** } lv_font_glyph_dsc_t;
  45:lvgl/src/lv_widgets/../lv_core/../lv_font/lv_font.h **** 
  46:lvgl/src/lv_widgets/../lv_core/../lv_font/lv_font.h **** /** The bitmaps might be upscaled by 3 to achieve subpixel rendering. */
  47:lvgl/src/lv_widgets/../lv_core/../lv_font/lv_font.h **** enum {
  48:lvgl/src/lv_widgets/../lv_core/../lv_font/lv_font.h ****     LV_FONT_SUBPX_NONE,
  49:lvgl/src/lv_widgets/../lv_core/../lv_font/lv_font.h ****     LV_FONT_SUBPX_HOR,
  50:lvgl/src/lv_widgets/../lv_core/../lv_font/lv_font.h ****     LV_FONT_SUBPX_VER,
  51:lvgl/src/lv_widgets/../lv_core/../lv_font/lv_font.h ****     LV_FONT_SUBPX_BOTH,
  52:lvgl/src/lv_widgets/../lv_core/../lv_font/lv_font.h **** };
  53:lvgl/src/lv_widgets/../lv_core/../lv_font/lv_font.h **** 
  54:lvgl/src/lv_widgets/../lv_core/../lv_font/lv_font.h **** typedef uint8_t lv_font_subpx_t;
  55:lvgl/src/lv_widgets/../lv_core/../lv_font/lv_font.h **** 
  56:lvgl/src/lv_widgets/../lv_core/../lv_font/lv_font.h **** /** Describe the properties of a font*/
  57:lvgl/src/lv_widgets/../lv_core/../lv_font/lv_font.h **** typedef struct _lv_font_struct {
  58:lvgl/src/lv_widgets/../lv_core/../lv_font/lv_font.h ****     /** Get a glyph's descriptor from a font*/
  59:lvgl/src/lv_widgets/../lv_core/../lv_font/lv_font.h ****     bool (*get_glyph_dsc)(const struct _lv_font_struct *, lv_font_glyph_dsc_t *, uint32_t letter, u
  60:lvgl/src/lv_widgets/../lv_core/../lv_font/lv_font.h **** 
  61:lvgl/src/lv_widgets/../lv_core/../lv_font/lv_font.h ****     /** Get a glyph's bitmap from a font*/
  62:lvgl/src/lv_widgets/../lv_core/../lv_font/lv_font.h ****     const uint8_t * (*get_glyph_bitmap)(const struct _lv_font_struct *, uint32_t);
  63:lvgl/src/lv_widgets/../lv_core/../lv_font/lv_font.h **** 
  64:lvgl/src/lv_widgets/../lv_core/../lv_font/lv_font.h ****     /*Pointer to the font in a font pack (must have the same line height)*/
  65:lvgl/src/lv_widgets/../lv_core/../lv_font/lv_font.h ****     lv_coord_t line_height;         /**< The real line height where any text fits*/
  66:lvgl/src/lv_widgets/../lv_core/../lv_font/lv_font.h ****     lv_coord_t base_line;           /**< Base line measured from the top of the line_height*/
  67:lvgl/src/lv_widgets/../lv_core/../lv_font/lv_font.h ****     uint8_t subpx  : 2;             /**< An element of `lv_font_subpx_t`*/
  68:lvgl/src/lv_widgets/../lv_core/../lv_font/lv_font.h **** 
  69:lvgl/src/lv_widgets/../lv_core/../lv_font/lv_font.h ****     int8_t underline_position;      /**< Distance between the top of the underline and base line (<
  70:lvgl/src/lv_widgets/../lv_core/../lv_font/lv_font.h ****     int8_t underline_thickness;     /**< Thickness of the underline*/
  71:lvgl/src/lv_widgets/../lv_core/../lv_font/lv_font.h **** 
  72:lvgl/src/lv_widgets/../lv_core/../lv_font/lv_font.h ****     void * dsc;                     /**< Store implementation specific or run_time data or caching 
  73:lvgl/src/lv_widgets/../lv_core/../lv_font/lv_font.h **** #if LV_USE_USER_DATA
  74:lvgl/src/lv_widgets/../lv_core/../lv_font/lv_font.h ****     lv_font_user_data_t user_data;  /**< Custom user data for font. */
  75:lvgl/src/lv_widgets/../lv_core/../lv_font/lv_font.h **** #endif
  76:lvgl/src/lv_widgets/../lv_core/../lv_font/lv_font.h **** 
  77:lvgl/src/lv_widgets/../lv_core/../lv_font/lv_font.h **** } lv_font_t;
  78:lvgl/src/lv_widgets/../lv_core/../lv_font/lv_font.h **** 
  79:lvgl/src/lv_widgets/../lv_core/../lv_font/lv_font.h **** /**********************
  80:lvgl/src/lv_widgets/../lv_core/../lv_font/lv_font.h ****  * GLOBAL PROTOTYPES
  81:lvgl/src/lv_widgets/../lv_core/../lv_font/lv_font.h ****  **********************/
  82:lvgl/src/lv_widgets/../lv_core/../lv_font/lv_font.h **** 
  83:lvgl/src/lv_widgets/../lv_core/../lv_font/lv_font.h **** /**
  84:lvgl/src/lv_widgets/../lv_core/../lv_font/lv_font.h ****  * Return with the bitmap of a font.
  85:lvgl/src/lv_widgets/../lv_core/../lv_font/lv_font.h ****  * @param font_p pointer to a font
  86:lvgl/src/lv_widgets/../lv_core/../lv_font/lv_font.h ****  * @param letter an UNICODE character code
  87:lvgl/src/lv_widgets/../lv_core/../lv_font/lv_font.h ****  * @return pointer to the bitmap of the letter
  88:lvgl/src/lv_widgets/../lv_core/../lv_font/lv_font.h ****  */
  89:lvgl/src/lv_widgets/../lv_core/../lv_font/lv_font.h **** const uint8_t * lv_font_get_glyph_bitmap(const lv_font_t * font_p, uint32_t letter);
  90:lvgl/src/lv_widgets/../lv_core/../lv_font/lv_font.h **** 
  91:lvgl/src/lv_widgets/../lv_core/../lv_font/lv_font.h **** /**
  92:lvgl/src/lv_widgets/../lv_core/../lv_font/lv_font.h ****  * Get the descriptor of a glyph
  93:lvgl/src/lv_widgets/../lv_core/../lv_font/lv_font.h ****  * @param font_p pointer to font
  94:lvgl/src/lv_widgets/../lv_core/../lv_font/lv_font.h ****  * @param dsc_out store the result descriptor here
  95:lvgl/src/lv_widgets/../lv_core/../lv_font/lv_font.h ****  * @param letter an UNICODE letter code
  96:lvgl/src/lv_widgets/../lv_core/../lv_font/lv_font.h ****  * @return true: descriptor is successfully loaded into `dsc_out`.
  97:lvgl/src/lv_widgets/../lv_core/../lv_font/lv_font.h ****  *         false: the letter was not found, no data is loaded to `dsc_out`
  98:lvgl/src/lv_widgets/../lv_core/../lv_font/lv_font.h ****  */
  99:lvgl/src/lv_widgets/../lv_core/../lv_font/lv_font.h **** bool lv_font_get_glyph_dsc(const lv_font_t * font_p, lv_font_glyph_dsc_t * dsc_out, uint32_t letter
ARM GAS  D:\Temp\cclvo1nc.s 			page 43


 100:lvgl/src/lv_widgets/../lv_core/../lv_font/lv_font.h ****                            uint32_t letter_next);
 101:lvgl/src/lv_widgets/../lv_core/../lv_font/lv_font.h **** 
 102:lvgl/src/lv_widgets/../lv_core/../lv_font/lv_font.h **** /**
 103:lvgl/src/lv_widgets/../lv_core/../lv_font/lv_font.h ****  * Get the width of a glyph with kerning
 104:lvgl/src/lv_widgets/../lv_core/../lv_font/lv_font.h ****  * @param font pointer to a font
 105:lvgl/src/lv_widgets/../lv_core/../lv_font/lv_font.h ****  * @param letter an UNICODE letter
 106:lvgl/src/lv_widgets/../lv_core/../lv_font/lv_font.h ****  * @param letter_next the next letter after `letter`. Used for kerning
 107:lvgl/src/lv_widgets/../lv_core/../lv_font/lv_font.h ****  * @return the width of the glyph
 108:lvgl/src/lv_widgets/../lv_core/../lv_font/lv_font.h ****  */
 109:lvgl/src/lv_widgets/../lv_core/../lv_font/lv_font.h **** uint16_t lv_font_get_glyph_width(const lv_font_t * font, uint32_t letter, uint32_t letter_next);
 110:lvgl/src/lv_widgets/../lv_core/../lv_font/lv_font.h **** 
 111:lvgl/src/lv_widgets/../lv_core/../lv_font/lv_font.h **** /**
 112:lvgl/src/lv_widgets/../lv_core/../lv_font/lv_font.h ****  * Get the line height of a font. All characters fit into this height
 113:lvgl/src/lv_widgets/../lv_core/../lv_font/lv_font.h ****  * @param font_p pointer to a font
 114:lvgl/src/lv_widgets/../lv_core/../lv_font/lv_font.h ****  * @return the height of a font
 115:lvgl/src/lv_widgets/../lv_core/../lv_font/lv_font.h ****  */
 116:lvgl/src/lv_widgets/../lv_core/../lv_font/lv_font.h **** static inline lv_coord_t lv_font_get_line_height(const lv_font_t * font_p)
 854              		.loc 3 116 26 is_stmt 1 view .LVU233
 855              	.LBB117:
 117:lvgl/src/lv_widgets/../lv_core/../lv_font/lv_font.h **** {
 118:lvgl/src/lv_widgets/../lv_core/../lv_font/lv_font.h ****     return font_p->line_height;
 856              		.loc 3 118 5 view .LVU234
 857              		.loc 3 118 18 is_stmt 0 view .LVU235
 858 006a B9F90800 		ldrsh	r0, [r9, #8]
 859              	.LVL98:
 860              		.loc 3 118 18 view .LVU236
 861              	.LBE117:
 862              	.LBE116:
 711:lvgl/src/lv_widgets/lv_calendar.c **** 
 863              		.loc 1 711 22 view .LVU237
 864 006e 80B2     		uxth	r0, r0
 710:lvgl/src/lv_widgets/lv_calendar.c ****                      lv_font_get_line_height(font) + lv_obj_get_style_pad_bottom(calendar, LV_CALEN
 865              		.loc 1 710 99 view .LVU238
 866 0070 10FA85F5 		uxtah	r5, r0, r5
 867 0074 ADB2     		uxth	r5, r5
 868              	.LVL99:
 869              	.LBB118:
 870              	.LBI118:
 111:lvgl/src/lv_widgets/../lv_core/lv_obj_style_dec.h **** _LV_OBJ_STYLE_SET_GET_DECLARE(PAD_LEFT, pad_left, lv_style_int_t, _int, scalar)
 871              		.loc 2 111 1 is_stmt 1 view .LVU239
 872              	.LBB119:
 111:lvgl/src/lv_widgets/../lv_core/lv_obj_style_dec.h **** _LV_OBJ_STYLE_SET_GET_DECLARE(PAD_LEFT, pad_left, lv_style_int_t, _int, scalar)
 873              		.loc 2 111 1 view .LVU240
 874 0076 1122     		movs	r2, #17
 875 0078 0121     		movs	r1, #1
 876 007a 2046     		mov	r0, r4
 877 007c FFF7FEFF 		bl	_lv_obj_get_style_int
 878              	.LVL100:
 111:lvgl/src/lv_widgets/../lv_core/lv_obj_style_dec.h **** _LV_OBJ_STYLE_SET_GET_DECLARE(PAD_LEFT, pad_left, lv_style_int_t, _int, scalar)
 879              		.loc 2 111 1 is_stmt 0 view .LVU241
 880              	.LBE119:
 881              	.LBE118:
 711:lvgl/src/lv_widgets/lv_calendar.c **** 
 882              		.loc 1 711 52 view .LVU242
 883 0080 15FA80F0 		uxtah	r0, r5, r0
 710:lvgl/src/lv_widgets/lv_calendar.c ****                      lv_font_get_line_height(font) + lv_obj_get_style_pad_bottom(calendar, LV_CALEN
 884              		.loc 1 710 20 view .LVU243
ARM GAS  D:\Temp\cclvo1nc.s 			page 44


 885 0084 ADF8C600 		strh	r0, [sp, #198]	@ movhi
 713:lvgl/src/lv_widgets/lv_calendar.c ****     lv_draw_rect_dsc_init(&header_rect_dsc);
 886              		.loc 1 713 5 is_stmt 1 view .LVU244
 714:lvgl/src/lv_widgets/lv_calendar.c ****     lv_obj_init_draw_rect_dsc(calendar, LV_CALENDAR_PART_HEADER, &header_rect_dsc);
 887              		.loc 1 714 5 view .LVU245
 888 0088 1BA8     		add	r0, sp, #108
 889 008a FFF7FEFF 		bl	lv_draw_rect_dsc_init
 890              	.LVL101:
 715:lvgl/src/lv_widgets/lv_calendar.c ****     lv_draw_rect(&header_area, mask, &header_rect_dsc);
 891              		.loc 1 715 5 view .LVU246
 892 008e 1BAA     		add	r2, sp, #108
 893 0090 0121     		movs	r1, #1
 894 0092 2046     		mov	r0, r4
 895 0094 FFF7FEFF 		bl	lv_obj_init_draw_rect_dsc
 896              	.LVL102:
 716:lvgl/src/lv_widgets/lv_calendar.c **** 
 897              		.loc 1 716 5 view .LVU247
 898 0098 1BAA     		add	r2, sp, #108
 899 009a 3146     		mov	r1, r6
 900 009c 30A8     		add	r0, sp, #192
 901 009e FFF7FEFF 		bl	lv_draw_rect
 902              	.LVL103:
 718:lvgl/src/lv_widgets/lv_calendar.c **** 
 903              		.loc 1 718 5 view .LVU248
 718:lvgl/src/lv_widgets/lv_calendar.c **** 
 904              		.loc 1 718 16 is_stmt 0 view .LVU249
 905 00a2 94F83D50 		ldrb	r5, [r4, #61]	@ zero_extendqisi2
 906              	.LVL104:
 721:lvgl/src/lv_widgets/lv_calendar.c ****     _lv_utils_num_to_str(ext->showed_date.year, txt_buf);
 907              		.loc 1 721 5 is_stmt 1 view .LVU250
 722:lvgl/src/lv_widgets/lv_calendar.c ****     txt_buf[4] = ' ';
 908              		.loc 1 722 5 view .LVU251
 909 00a6 0BA9     		add	r1, sp, #44
 910 00a8 B888     		ldrh	r0, [r7, #4]
 911 00aa FFF7FEFF 		bl	_lv_utils_num_to_str
 912              	.LVL105:
 723:lvgl/src/lv_widgets/lv_calendar.c ****     txt_buf[5] = '\0';
 913              		.loc 1 723 5 view .LVU252
 723:lvgl/src/lv_widgets/lv_calendar.c ****     txt_buf[5] = '\0';
 914              		.loc 1 723 16 is_stmt 0 view .LVU253
 915 00ae 2023     		movs	r3, #32
 916 00b0 8DF83030 		strb	r3, [sp, #48]
 724:lvgl/src/lv_widgets/lv_calendar.c ****     strcpy(&txt_buf[5], get_month_name(calendar, ext->showed_date.month));
 917              		.loc 1 724 5 is_stmt 1 view .LVU254
 724:lvgl/src/lv_widgets/lv_calendar.c ****     strcpy(&txt_buf[5], get_month_name(calendar, ext->showed_date.month));
 918              		.loc 1 724 16 is_stmt 0 view .LVU255
 919 00b4 4FF0000B 		mov	fp, #0
 920 00b8 8DF831B0 		strb	fp, [sp, #49]
 725:lvgl/src/lv_widgets/lv_calendar.c **** 
 921              		.loc 1 725 5 is_stmt 1 view .LVU256
 922 00bc 97F90610 		ldrsb	r1, [r7, #6]
 923 00c0 2046     		mov	r0, r4
 924 00c2 FFF7FEFF 		bl	get_month_name
 925              	.LVL106:
 926 00c6 0146     		mov	r1, r0
 927 00c8 0DF13100 		add	r0, sp, #49
 928 00cc FFF7FEFF 		bl	strcpy
ARM GAS  D:\Temp\cclvo1nc.s 			page 45


 929              	.LVL107:
 727:lvgl/src/lv_widgets/lv_calendar.c ****     _lv_obj_disable_style_caching(calendar, true);
 930              		.loc 1 727 5 view .LVU257
 727:lvgl/src/lv_widgets/lv_calendar.c ****     _lv_obj_disable_style_caching(calendar, true);
 931              		.loc 1 727 21 is_stmt 0 view .LVU258
 932 00d0 84F83DB0 		strb	fp, [r4, #61]
 728:lvgl/src/lv_widgets/lv_calendar.c **** 
 933              		.loc 1 728 5 is_stmt 1 view .LVU259
 934 00d4 0121     		movs	r1, #1
 935 00d6 2046     		mov	r0, r4
 936 00d8 FFF7FEFF 		bl	_lv_obj_disable_style_caching
 937              	.LVL108:
 730:lvgl/src/lv_widgets/lv_calendar.c ****     lv_draw_label_dsc_init(&label_dsc);
 938              		.loc 1 730 5 view .LVU260
 731:lvgl/src/lv_widgets/lv_calendar.c ****     lv_obj_init_draw_label_dsc(calendar, LV_CALENDAR_PART_HEADER, &label_dsc);
 939              		.loc 1 731 5 view .LVU261
 940 00dc 02A8     		add	r0, sp, #8
 941 00de FFF7FEFF 		bl	lv_draw_label_dsc_init
 942              	.LVL109:
 732:lvgl/src/lv_widgets/lv_calendar.c ****     label_dsc.flag = LV_TXT_FLAG_CENTER;
 943              		.loc 1 732 5 view .LVU262
 944 00e2 02AA     		add	r2, sp, #8
 945 00e4 0121     		movs	r1, #1
 946 00e6 2046     		mov	r0, r4
 947 00e8 FFF7FEFF 		bl	lv_obj_init_draw_label_dsc
 948              	.LVL110:
 733:lvgl/src/lv_widgets/lv_calendar.c ****     header_area.y1 += lv_obj_get_style_pad_top(calendar, LV_CALENDAR_PART_HEADER);
 949              		.loc 1 733 5 view .LVU263
 733:lvgl/src/lv_widgets/lv_calendar.c ****     header_area.y1 += lv_obj_get_style_pad_top(calendar, LV_CALENDAR_PART_HEADER);
 950              		.loc 1 733 20 is_stmt 0 view .LVU264
 951 00ec 0423     		movs	r3, #4
 952 00ee 8DF82930 		strb	r3, [sp, #41]
 734:lvgl/src/lv_widgets/lv_calendar.c ****     header_area.y2 -= lv_obj_get_style_pad_bottom(calendar, LV_CALENDAR_PART_HEADER);
 953              		.loc 1 734 5 is_stmt 1 view .LVU265
 954              	.LVL111:
 955              	.LBB120:
 956              	.LBI120:
 110:lvgl/src/lv_widgets/../lv_core/lv_obj_style_dec.h **** _LV_OBJ_STYLE_SET_GET_DECLARE(PAD_BOTTOM, pad_bottom, lv_style_int_t, _int, scalar)
 957              		.loc 2 110 1 view .LVU266
 958              	.LBB121:
 110:lvgl/src/lv_widgets/../lv_core/lv_obj_style_dec.h **** _LV_OBJ_STYLE_SET_GET_DECLARE(PAD_BOTTOM, pad_bottom, lv_style_int_t, _int, scalar)
 959              		.loc 2 110 1 view .LVU267
 960 00f2 1022     		movs	r2, #16
 961 00f4 0121     		movs	r1, #1
 962 00f6 2046     		mov	r0, r4
 963 00f8 FFF7FEFF 		bl	_lv_obj_get_style_int
 964              	.LVL112:
 110:lvgl/src/lv_widgets/../lv_core/lv_obj_style_dec.h **** _LV_OBJ_STYLE_SET_GET_DECLARE(PAD_BOTTOM, pad_bottom, lv_style_int_t, _int, scalar)
 965              		.loc 2 110 1 is_stmt 0 view .LVU268
 966              	.LBE121:
 967              	.LBE120:
 734:lvgl/src/lv_widgets/lv_calendar.c ****     header_area.y2 -= lv_obj_get_style_pad_bottom(calendar, LV_CALENDAR_PART_HEADER);
 968              		.loc 1 734 20 view .LVU269
 969 00fc BDF8C230 		ldrh	r3, [sp, #194]
 970 0100 13FA80F0 		uxtah	r0, r3, r0
 971 0104 ADF8C200 		strh	r0, [sp, #194]	@ movhi
 735:lvgl/src/lv_widgets/lv_calendar.c ****     lv_draw_label(&header_area, mask, &label_dsc, txt_buf, NULL);
ARM GAS  D:\Temp\cclvo1nc.s 			page 46


 972              		.loc 1 735 5 is_stmt 1 view .LVU270
 973              	.LVL113:
 974              	.LBB122:
 975              	.LBI122:
 111:lvgl/src/lv_widgets/../lv_core/lv_obj_style_dec.h **** _LV_OBJ_STYLE_SET_GET_DECLARE(PAD_LEFT, pad_left, lv_style_int_t, _int, scalar)
 976              		.loc 2 111 1 view .LVU271
 977              	.LBB123:
 111:lvgl/src/lv_widgets/../lv_core/lv_obj_style_dec.h **** _LV_OBJ_STYLE_SET_GET_DECLARE(PAD_LEFT, pad_left, lv_style_int_t, _int, scalar)
 978              		.loc 2 111 1 view .LVU272
 979 0108 1122     		movs	r2, #17
 980 010a 0121     		movs	r1, #1
 981 010c 2046     		mov	r0, r4
 982 010e FFF7FEFF 		bl	_lv_obj_get_style_int
 983              	.LVL114:
 111:lvgl/src/lv_widgets/../lv_core/lv_obj_style_dec.h **** _LV_OBJ_STYLE_SET_GET_DECLARE(PAD_LEFT, pad_left, lv_style_int_t, _int, scalar)
 984              		.loc 2 111 1 is_stmt 0 view .LVU273
 985              	.LBE123:
 986              	.LBE122:
 735:lvgl/src/lv_widgets/lv_calendar.c ****     lv_draw_label(&header_area, mask, &label_dsc, txt_buf, NULL);
 987              		.loc 1 735 23 view .LVU274
 988 0112 80B2     		uxth	r0, r0
 735:lvgl/src/lv_widgets/lv_calendar.c ****     lv_draw_label(&header_area, mask, &label_dsc, txt_buf, NULL);
 989              		.loc 1 735 20 view .LVU275
 990 0114 BDF8C630 		ldrh	r3, [sp, #198]
 991 0118 1B1A     		subs	r3, r3, r0
 992 011a ADF8C630 		strh	r3, [sp, #198]	@ movhi
 736:lvgl/src/lv_widgets/lv_calendar.c **** 
 993              		.loc 1 736 5 is_stmt 1 view .LVU276
 994 011e CDF800B0 		str	fp, [sp]
 995 0122 0BAB     		add	r3, sp, #44
 996 0124 02AA     		add	r2, sp, #8
 997 0126 3146     		mov	r1, r6
 998 0128 30A8     		add	r0, sp, #192
 999 012a FFF7FEFF 		bl	lv_draw_label
 1000              	.LVL115:
 738:lvgl/src/lv_widgets/lv_calendar.c **** 
 1001              		.loc 1 738 5 view .LVU277
 738:lvgl/src/lv_widgets/lv_calendar.c **** 
 1002              		.loc 1 738 21 is_stmt 0 view .LVU278
 1003 012e 84F83D50 		strb	r5, [r4, #61]
 741:lvgl/src/lv_widgets/lv_calendar.c ****     else calendar->state &= ~(LV_STATE_PRESSED);
 1004              		.loc 1 741 5 is_stmt 1 view .LVU279
 741:lvgl/src/lv_widgets/lv_calendar.c ****     else calendar->state &= ~(LV_STATE_PRESSED);
 1005              		.loc 1 741 11 is_stmt 0 view .LVU280
 1006 0132 97F90C30 		ldrsb	r3, [r7, #12]
 741:lvgl/src/lv_widgets/lv_calendar.c ****     else calendar->state &= ~(LV_STATE_PRESSED);
 1007              		.loc 1 741 7 view .LVU281
 1008 0136 5B45     		cmp	r3, fp
 1009 0138 4FDB     		blt	.L85
 742:lvgl/src/lv_widgets/lv_calendar.c **** 
 1010              		.loc 1 742 10 is_stmt 1 view .LVU282
 742:lvgl/src/lv_widgets/lv_calendar.c **** 
 1011              		.loc 1 742 26 is_stmt 0 view .LVU283
 1012 013a 25F01003 		bic	r3, r5, #16
 1013 013e 84F83D30 		strb	r3, [r4, #61]
 1014              	.L81:
 744:lvgl/src/lv_widgets/lv_calendar.c **** 
ARM GAS  D:\Temp\cclvo1nc.s 			page 47


 1015              		.loc 1 744 5 is_stmt 1 view .LVU284
 744:lvgl/src/lv_widgets/lv_calendar.c **** 
 1016              		.loc 1 744 20 is_stmt 0 view .LVU285
 1017 0142 BDF8C030 		ldrh	r3, [sp, #192]
 1018 0146 9844     		add	r8, r8, r3
 1019              	.LVL116:
 744:lvgl/src/lv_widgets/lv_calendar.c **** 
 1020              		.loc 1 744 20 view .LVU286
 1021 0148 ADF8C080 		strh	r8, [sp, #192]	@ movhi
 746:lvgl/src/lv_widgets/lv_calendar.c ****     lv_obj_init_draw_label_dsc(calendar, LV_CALENDAR_PART_HEADER, &label_dsc);
 1022              		.loc 1 746 5 is_stmt 1 view .LVU287
 1023 014c 02A8     		add	r0, sp, #8
 1024 014e FFF7FEFF 		bl	lv_draw_label_dsc_init
 1025              	.LVL117:
 747:lvgl/src/lv_widgets/lv_calendar.c ****     lv_draw_label(&header_area, mask, &label_dsc, LV_SYMBOL_LEFT, NULL);
 1026              		.loc 1 747 5 view .LVU288
 1027 0152 02AA     		add	r2, sp, #8
 1028 0154 0121     		movs	r1, #1
 1029 0156 2046     		mov	r0, r4
 1030 0158 FFF7FEFF 		bl	lv_obj_init_draw_label_dsc
 1031              	.LVL118:
 748:lvgl/src/lv_widgets/lv_calendar.c **** 
 1032              		.loc 1 748 5 view .LVU289
 1033 015c 0023     		movs	r3, #0
 1034 015e 0093     		str	r3, [sp]
 1035 0160 234B     		ldr	r3, .L86
 1036 0162 02AA     		add	r2, sp, #8
 1037 0164 3146     		mov	r1, r6
 1038 0166 30A8     		add	r0, sp, #192
 1039 0168 FFF7FEFF 		bl	lv_draw_label
 1040              	.LVL119:
 750:lvgl/src/lv_widgets/lv_calendar.c **** 
 1041              		.loc 1 750 5 view .LVU290
 750:lvgl/src/lv_widgets/lv_calendar.c **** 
 1042              		.loc 1 750 21 is_stmt 0 view .LVU291
 1043 016c 84F83D50 		strb	r5, [r4, #61]
 753:lvgl/src/lv_widgets/lv_calendar.c ****     else calendar->state &= ~(LV_STATE_PRESSED);
 1044              		.loc 1 753 5 is_stmt 1 view .LVU292
 753:lvgl/src/lv_widgets/lv_calendar.c ****     else calendar->state &= ~(LV_STATE_PRESSED);
 1045              		.loc 1 753 11 is_stmt 0 view .LVU293
 1046 0170 97F90C30 		ldrsb	r3, [r7, #12]
 753:lvgl/src/lv_widgets/lv_calendar.c ****     else calendar->state &= ~(LV_STATE_PRESSED);
 1047              		.loc 1 753 7 view .LVU294
 1048 0174 002B     		cmp	r3, #0
 1049 0176 35DD     		ble	.L82
 753:lvgl/src/lv_widgets/lv_calendar.c ****     else calendar->state &= ~(LV_STATE_PRESSED);
 1050              		.loc 1 753 31 is_stmt 1 discriminator 1 view .LVU295
 753:lvgl/src/lv_widgets/lv_calendar.c ****     else calendar->state &= ~(LV_STATE_PRESSED);
 1051              		.loc 1 753 47 is_stmt 0 discriminator 1 view .LVU296
 1052 0178 45F01003 		orr	r3, r5, #16
 1053 017c 84F83D30 		strb	r3, [r4, #61]
 1054              	.L83:
 756:lvgl/src/lv_widgets/lv_calendar.c ****                                                                        font, 0, LV_TXT_FLAG_NONE);
 1055              		.loc 1 756 5 is_stmt 1 view .LVU297
 756:lvgl/src/lv_widgets/lv_calendar.c ****                                                                        font, 0, LV_TXT_FLAG_NONE);
 1056              		.loc 1 756 33 is_stmt 0 view .LVU298
 1057 0180 BDF8C400 		ldrh	r0, [sp, #196]
ARM GAS  D:\Temp\cclvo1nc.s 			page 48


 756:lvgl/src/lv_widgets/lv_calendar.c ****                                                                        font, 0, LV_TXT_FLAG_NONE);
 1058              		.loc 1 756 37 view .LVU299
 1059 0184 A0EB0A0A 		sub	r10, r0, r10
 1060              	.LVL120:
 756:lvgl/src/lv_widgets/lv_calendar.c ****                                                                        font, 0, LV_TXT_FLAG_NONE);
 1061              		.loc 1 756 37 view .LVU300
 1062 0188 1FFA8AFA 		uxth	r10, r10
 756:lvgl/src/lv_widgets/lv_calendar.c ****                                                                        font, 0, LV_TXT_FLAG_NONE);
 1063              		.loc 1 756 54 view .LVU301
 1064 018c DFF86480 		ldr	r8, .L86+4
 1065 0190 0027     		movs	r7, #0
 1066              	.LVL121:
 756:lvgl/src/lv_widgets/lv_calendar.c ****                                                                        font, 0, LV_TXT_FLAG_NONE);
 1067              		.loc 1 756 54 view .LVU302
 1068 0192 0097     		str	r7, [sp]
 1069 0194 3B46     		mov	r3, r7
 1070 0196 4A46     		mov	r2, r9
 1071 0198 0321     		movs	r1, #3
 1072 019a 4046     		mov	r0, r8
 1073 019c FFF7FEFF 		bl	_lv_txt_get_width
 1074              	.LVL122:
 1075 01a0 80B2     		uxth	r0, r0
 756:lvgl/src/lv_widgets/lv_calendar.c ****                                                                        font, 0, LV_TXT_FLAG_NONE);
 1076              		.loc 1 756 52 view .LVU303
 1077 01a2 AAEB000A 		sub	r10, r10, r0
 756:lvgl/src/lv_widgets/lv_calendar.c ****                                                                        font, 0, LV_TXT_FLAG_NONE);
 1078              		.loc 1 756 20 view .LVU304
 1079 01a6 ADF8C0A0 		strh	r10, [sp, #192]	@ movhi
 759:lvgl/src/lv_widgets/lv_calendar.c ****     lv_obj_init_draw_label_dsc(calendar, LV_CALENDAR_PART_HEADER, &label_dsc);
 1080              		.loc 1 759 5 is_stmt 1 view .LVU305
 1081 01aa 02A8     		add	r0, sp, #8
 1082 01ac FFF7FEFF 		bl	lv_draw_label_dsc_init
 1083              	.LVL123:
 760:lvgl/src/lv_widgets/lv_calendar.c ****     lv_draw_label(&header_area, mask, &label_dsc, LV_SYMBOL_RIGHT, NULL);
 1084              		.loc 1 760 5 view .LVU306
 1085 01b0 02AA     		add	r2, sp, #8
 1086 01b2 0121     		movs	r1, #1
 1087 01b4 2046     		mov	r0, r4
 1088 01b6 FFF7FEFF 		bl	lv_obj_init_draw_label_dsc
 1089              	.LVL124:
 761:lvgl/src/lv_widgets/lv_calendar.c **** 
 1090              		.loc 1 761 5 view .LVU307
 1091 01ba 0097     		str	r7, [sp]
 1092 01bc 4346     		mov	r3, r8
 1093 01be 02AA     		add	r2, sp, #8
 1094 01c0 3146     		mov	r1, r6
 1095 01c2 30A8     		add	r0, sp, #192
 1096 01c4 FFF7FEFF 		bl	lv_draw_label
 1097              	.LVL125:
 763:lvgl/src/lv_widgets/lv_calendar.c ****     _lv_obj_disable_style_caching(calendar, false);
 1098              		.loc 1 763 5 view .LVU308
 763:lvgl/src/lv_widgets/lv_calendar.c ****     _lv_obj_disable_style_caching(calendar, false);
 1099              		.loc 1 763 21 is_stmt 0 view .LVU309
 1100 01c8 84F83D50 		strb	r5, [r4, #61]
 764:lvgl/src/lv_widgets/lv_calendar.c **** }
 1101              		.loc 1 764 5 is_stmt 1 view .LVU310
 1102 01cc 3946     		mov	r1, r7
ARM GAS  D:\Temp\cclvo1nc.s 			page 49


 1103 01ce 2046     		mov	r0, r4
 1104 01d0 FFF7FEFF 		bl	_lv_obj_disable_style_caching
 1105              	.LVL126:
 765:lvgl/src/lv_widgets/lv_calendar.c **** 
 1106              		.loc 1 765 1 is_stmt 0 view .LVU311
 1107 01d4 33B0     		add	sp, sp, #204
 1108              	.LCFI8:
 1109              		.cfi_remember_state
 1110              		.cfi_def_cfa_offset 36
 1111              		@ sp needed
 1112 01d6 BDE8F08F 		pop	{r4, r5, r6, r7, r8, r9, r10, fp, pc}
 1113              	.LVL127:
 1114              	.L85:
 1115              	.LCFI9:
 1116              		.cfi_restore_state
 741:lvgl/src/lv_widgets/lv_calendar.c ****     else calendar->state &= ~(LV_STATE_PRESSED);
 1117              		.loc 1 741 31 is_stmt 1 discriminator 1 view .LVU312
 741:lvgl/src/lv_widgets/lv_calendar.c ****     else calendar->state &= ~(LV_STATE_PRESSED);
 1118              		.loc 1 741 47 is_stmt 0 discriminator 1 view .LVU313
 1119 01da 45F01003 		orr	r3, r5, #16
 1120 01de 84F83D30 		strb	r3, [r4, #61]
 1121 01e2 AEE7     		b	.L81
 1122              	.LVL128:
 1123              	.L82:
 754:lvgl/src/lv_widgets/lv_calendar.c **** 
 1124              		.loc 1 754 10 is_stmt 1 view .LVU314
 754:lvgl/src/lv_widgets/lv_calendar.c **** 
 1125              		.loc 1 754 26 is_stmt 0 view .LVU315
 1126 01e4 25F01003 		bic	r3, r5, #16
 1127 01e8 84F83D30 		strb	r3, [r4, #61]
 1128 01ec C8E7     		b	.L83
 1129              	.L87:
 1130 01ee 00BF     		.align	2
 1131              	.L86:
 1132 01f0 00000000 		.word	.LC1
 1133 01f4 04000000 		.word	.LC2
 1134              		.cfi_endproc
 1135              	.LFE478:
 1137              		.section	.text.get_day_names_height,"ax",%progbits
 1138              		.align	1
 1139              		.syntax unified
 1140              		.thumb
 1141              		.thumb_func
 1142              		.fpu fpv4-sp-d16
 1144              	get_day_names_height:
 1145              	.LVL129:
 1146              	.LFB477:
 685:lvgl/src/lv_widgets/lv_calendar.c ****     const lv_font_t * font = lv_obj_get_style_text_font(calendar, LV_CALENDAR_PART_DAY_NAMES);
 1147              		.loc 1 685 1 is_stmt 1 view -0
 1148              		.cfi_startproc
 1149              		@ args = 0, pretend = 0, frame = 0
 1150              		@ frame_needed = 0, uses_anonymous_args = 0
 685:lvgl/src/lv_widgets/lv_calendar.c ****     const lv_font_t * font = lv_obj_get_style_text_font(calendar, LV_CALENDAR_PART_DAY_NAMES);
 1151              		.loc 1 685 1 is_stmt 0 view .LVU317
 1152 0000 70B5     		push	{r4, r5, r6, lr}
 1153              	.LCFI10:
 1154              		.cfi_def_cfa_offset 16
ARM GAS  D:\Temp\cclvo1nc.s 			page 50


 1155              		.cfi_offset 4, -16
 1156              		.cfi_offset 5, -12
 1157              		.cfi_offset 6, -8
 1158              		.cfi_offset 14, -4
 1159 0002 0446     		mov	r4, r0
 686:lvgl/src/lv_widgets/lv_calendar.c ****     lv_style_int_t top = lv_obj_get_style_pad_top(calendar, LV_CALENDAR_PART_DAY_NAMES);
 1160              		.loc 1 686 5 is_stmt 1 view .LVU318
 1161              	.LVL130:
 1162              	.LBB124:
 1163              	.LBI124:
 1164              		.loc 2 168 1 view .LVU319
 1165              	.LBB125:
 1166              		.loc 2 168 1 view .LVU320
 1167 0004 48F28E02 		movw	r2, #32910
 1168 0008 0221     		movs	r1, #2
 1169 000a FFF7FEFF 		bl	_lv_obj_get_style_ptr
 1170              	.LVL131:
 1171              		.loc 2 168 1 is_stmt 0 view .LVU321
 1172 000e 0646     		mov	r6, r0
 1173              	.LVL132:
 1174              		.loc 2 168 1 view .LVU322
 1175              	.LBE125:
 1176              	.LBE124:
 687:lvgl/src/lv_widgets/lv_calendar.c ****     lv_style_int_t bottom = lv_obj_get_style_pad_bottom(calendar, LV_CALENDAR_PART_DAY_NAMES);
 1177              		.loc 1 687 5 is_stmt 1 view .LVU323
 1178              	.LBB126:
 1179              	.LBI126:
 110:lvgl/src/lv_widgets/../lv_core/lv_obj_style_dec.h **** _LV_OBJ_STYLE_SET_GET_DECLARE(PAD_BOTTOM, pad_bottom, lv_style_int_t, _int, scalar)
 1180              		.loc 2 110 1 view .LVU324
 1181              	.LBB127:
 110:lvgl/src/lv_widgets/../lv_core/lv_obj_style_dec.h **** _LV_OBJ_STYLE_SET_GET_DECLARE(PAD_BOTTOM, pad_bottom, lv_style_int_t, _int, scalar)
 1182              		.loc 2 110 1 view .LVU325
 1183 0010 1022     		movs	r2, #16
 1184 0012 0221     		movs	r1, #2
 1185 0014 2046     		mov	r0, r4
 1186              	.LVL133:
 110:lvgl/src/lv_widgets/../lv_core/lv_obj_style_dec.h **** _LV_OBJ_STYLE_SET_GET_DECLARE(PAD_BOTTOM, pad_bottom, lv_style_int_t, _int, scalar)
 1187              		.loc 2 110 1 is_stmt 0 view .LVU326
 1188 0016 FFF7FEFF 		bl	_lv_obj_get_style_int
 1189              	.LVL134:
 1190 001a 0546     		mov	r5, r0
 1191              	.LVL135:
 110:lvgl/src/lv_widgets/../lv_core/lv_obj_style_dec.h **** _LV_OBJ_STYLE_SET_GET_DECLARE(PAD_BOTTOM, pad_bottom, lv_style_int_t, _int, scalar)
 1192              		.loc 2 110 1 view .LVU327
 1193              	.LBE127:
 1194              	.LBE126:
 688:lvgl/src/lv_widgets/lv_calendar.c **** 
 1195              		.loc 1 688 5 is_stmt 1 view .LVU328
 1196              	.LBB128:
 1197              	.LBI128:
 111:lvgl/src/lv_widgets/../lv_core/lv_obj_style_dec.h **** _LV_OBJ_STYLE_SET_GET_DECLARE(PAD_LEFT, pad_left, lv_style_int_t, _int, scalar)
 1198              		.loc 2 111 1 view .LVU329
 1199              	.LBB129:
 111:lvgl/src/lv_widgets/../lv_core/lv_obj_style_dec.h **** _LV_OBJ_STYLE_SET_GET_DECLARE(PAD_LEFT, pad_left, lv_style_int_t, _int, scalar)
 1200              		.loc 2 111 1 view .LVU330
 1201 001c 1122     		movs	r2, #17
 1202 001e 0221     		movs	r1, #2
ARM GAS  D:\Temp\cclvo1nc.s 			page 51


 1203 0020 2046     		mov	r0, r4
 1204 0022 FFF7FEFF 		bl	_lv_obj_get_style_int
 1205              	.LVL136:
 111:lvgl/src/lv_widgets/../lv_core/lv_obj_style_dec.h **** _LV_OBJ_STYLE_SET_GET_DECLARE(PAD_LEFT, pad_left, lv_style_int_t, _int, scalar)
 1206              		.loc 2 111 1 is_stmt 0 view .LVU331
 1207              	.LBE129:
 1208              	.LBE128:
 690:lvgl/src/lv_widgets/lv_calendar.c **** }
 1209              		.loc 1 690 5 is_stmt 1 view .LVU332
 1210              	.LBB130:
 1211              	.LBI130:
 116:lvgl/src/lv_widgets/../lv_core/../lv_font/lv_font.h **** {
 1212              		.loc 3 116 26 view .LVU333
 1213              	.LBB131:
 1214              		.loc 3 118 5 view .LVU334
 1215              		.loc 3 118 18 is_stmt 0 view .LVU335
 1216 0026 B6F90830 		ldrsh	r3, [r6, #8]
 1217              	.LVL137:
 1218              		.loc 3 118 18 view .LVU336
 1219              	.LBE131:
 1220              	.LBE130:
 690:lvgl/src/lv_widgets/lv_calendar.c **** }
 1221              		.loc 1 690 42 view .LVU337
 1222 002a 15FA83F3 		uxtah	r3, r5, r3
 690:lvgl/src/lv_widgets/lv_calendar.c **** }
 1223              		.loc 1 690 48 view .LVU338
 1224 002e 10FA83F0 		uxtah	r0, r0, r3
 1225              	.LVL138:
 691:lvgl/src/lv_widgets/lv_calendar.c **** 
 1226              		.loc 1 691 1 view .LVU339
 1227 0032 00B2     		sxth	r0, r0
 1228 0034 70BD     		pop	{r4, r5, r6, pc}
 691:lvgl/src/lv_widgets/lv_calendar.c **** 
 1229              		.loc 1 691 1 view .LVU340
 1230              		.cfi_endproc
 1231              	.LFE477:
 1233              		.section	.text.get_header_height,"ax",%progbits
 1234              		.align	1
 1235              		.syntax unified
 1236              		.thumb
 1237              		.thumb_func
 1238              		.fpu fpv4-sp-d16
 1240              	get_header_height:
 1241              	.LVL139:
 1242              	.LFB476:
 669:lvgl/src/lv_widgets/lv_calendar.c ****     const lv_font_t * font = lv_obj_get_style_text_font(calendar, LV_CALENDAR_PART_HEADER);
 1243              		.loc 1 669 1 is_stmt 1 view -0
 1244              		.cfi_startproc
 1245              		@ args = 0, pretend = 0, frame = 0
 1246              		@ frame_needed = 0, uses_anonymous_args = 0
 669:lvgl/src/lv_widgets/lv_calendar.c ****     const lv_font_t * font = lv_obj_get_style_text_font(calendar, LV_CALENDAR_PART_HEADER);
 1247              		.loc 1 669 1 is_stmt 0 view .LVU342
 1248 0000 F8B5     		push	{r3, r4, r5, r6, r7, lr}
 1249              	.LCFI11:
 1250              		.cfi_def_cfa_offset 24
 1251              		.cfi_offset 3, -24
 1252              		.cfi_offset 4, -20
ARM GAS  D:\Temp\cclvo1nc.s 			page 52


 1253              		.cfi_offset 5, -16
 1254              		.cfi_offset 6, -12
 1255              		.cfi_offset 7, -8
 1256              		.cfi_offset 14, -4
 1257 0002 0646     		mov	r6, r0
 670:lvgl/src/lv_widgets/lv_calendar.c ****     lv_style_int_t top = lv_obj_get_style_margin_top(calendar, LV_CALENDAR_PART_HEADER) +
 1258              		.loc 1 670 5 is_stmt 1 view .LVU343
 1259              	.LVL140:
 1260              	.LBB132:
 1261              	.LBI132:
 1262              		.loc 2 168 1 view .LVU344
 1263              	.LBB133:
 1264              		.loc 2 168 1 view .LVU345
 1265 0004 48F28E02 		movw	r2, #32910
 1266 0008 0121     		movs	r1, #1
 1267 000a FFF7FEFF 		bl	_lv_obj_get_style_ptr
 1268              	.LVL141:
 1269              		.loc 2 168 1 is_stmt 0 view .LVU346
 1270 000e 0746     		mov	r7, r0
 1271              	.LVL142:
 1272              		.loc 2 168 1 view .LVU347
 1273              	.LBE133:
 1274              	.LBE132:
 671:lvgl/src/lv_widgets/lv_calendar.c ****                          lv_obj_get_style_pad_top(calendar, LV_CALENDAR_PART_HEADER);
 1275              		.loc 1 671 5 is_stmt 1 view .LVU348
 1276              	.LBB134:
 1277              	.LBI134:
 115:lvgl/src/lv_widgets/../lv_core/lv_obj_style_dec.h **** _LV_OBJ_STYLE_SET_GET_DECLARE(MARGIN_BOTTOM, margin_bottom, lv_style_int_t, _int, scalar)
 1278              		.loc 2 115 1 view .LVU349
 1279              	.LBB135:
 115:lvgl/src/lv_widgets/../lv_core/lv_obj_style_dec.h **** _LV_OBJ_STYLE_SET_GET_DECLARE(MARGIN_BOTTOM, margin_bottom, lv_style_int_t, _int, scalar)
 1280              		.loc 2 115 1 view .LVU350
 1281 0010 1522     		movs	r2, #21
 1282 0012 0121     		movs	r1, #1
 1283 0014 3046     		mov	r0, r6
 1284              	.LVL143:
 115:lvgl/src/lv_widgets/../lv_core/lv_obj_style_dec.h **** _LV_OBJ_STYLE_SET_GET_DECLARE(MARGIN_BOTTOM, margin_bottom, lv_style_int_t, _int, scalar)
 1285              		.loc 2 115 1 is_stmt 0 view .LVU351
 1286 0016 FFF7FEFF 		bl	_lv_obj_get_style_int
 1287              	.LVL144:
 115:lvgl/src/lv_widgets/../lv_core/lv_obj_style_dec.h **** _LV_OBJ_STYLE_SET_GET_DECLARE(MARGIN_BOTTOM, margin_bottom, lv_style_int_t, _int, scalar)
 1288              		.loc 2 115 1 view .LVU352
 1289              	.LBE135:
 1290              	.LBE134:
 671:lvgl/src/lv_widgets/lv_calendar.c ****                          lv_obj_get_style_pad_top(calendar, LV_CALENDAR_PART_HEADER);
 1291              		.loc 1 671 26 view .LVU353
 1292 001a 84B2     		uxth	r4, r0
 1293              	.LVL145:
 1294              	.LBB136:
 1295              	.LBI136:
 110:lvgl/src/lv_widgets/../lv_core/lv_obj_style_dec.h **** _LV_OBJ_STYLE_SET_GET_DECLARE(PAD_BOTTOM, pad_bottom, lv_style_int_t, _int, scalar)
 1296              		.loc 2 110 1 is_stmt 1 view .LVU354
 1297              	.LBB137:
 110:lvgl/src/lv_widgets/../lv_core/lv_obj_style_dec.h **** _LV_OBJ_STYLE_SET_GET_DECLARE(PAD_BOTTOM, pad_bottom, lv_style_int_t, _int, scalar)
 1298              		.loc 2 110 1 view .LVU355
 1299 001c 1022     		movs	r2, #16
 1300 001e 0121     		movs	r1, #1
ARM GAS  D:\Temp\cclvo1nc.s 			page 53


 1301 0020 3046     		mov	r0, r6
 1302 0022 FFF7FEFF 		bl	_lv_obj_get_style_int
 1303              	.LVL146:
 110:lvgl/src/lv_widgets/../lv_core/lv_obj_style_dec.h **** _LV_OBJ_STYLE_SET_GET_DECLARE(PAD_BOTTOM, pad_bottom, lv_style_int_t, _int, scalar)
 1304              		.loc 2 110 1 is_stmt 0 view .LVU356
 1305              	.LBE137:
 1306              	.LBE136:
 671:lvgl/src/lv_widgets/lv_calendar.c ****                          lv_obj_get_style_pad_top(calendar, LV_CALENDAR_PART_HEADER);
 1307              		.loc 1 671 89 view .LVU357
 1308 0026 14FA80F4 		uxtah	r4, r4, r0
 1309 002a A5B2     		uxth	r5, r4
 1310              	.LVL147:
 673:lvgl/src/lv_widgets/lv_calendar.c ****                             lv_obj_get_style_pad_bottom(calendar, LV_CALENDAR_PART_HEADER);
 1311              		.loc 1 673 5 is_stmt 1 view .LVU358
 1312              	.LBB138:
 1313              	.LBI138:
 116:lvgl/src/lv_widgets/../lv_core/lv_obj_style_dec.h **** _LV_OBJ_STYLE_SET_GET_DECLARE(MARGIN_LEFT, margin_left, lv_style_int_t, _int, scalar)
 1314              		.loc 2 116 1 view .LVU359
 1315              	.LBB139:
 116:lvgl/src/lv_widgets/../lv_core/lv_obj_style_dec.h **** _LV_OBJ_STYLE_SET_GET_DECLARE(MARGIN_LEFT, margin_left, lv_style_int_t, _int, scalar)
 1316              		.loc 2 116 1 view .LVU360
 1317 002c 1622     		movs	r2, #22
 1318 002e 0121     		movs	r1, #1
 1319 0030 3046     		mov	r0, r6
 1320 0032 FFF7FEFF 		bl	_lv_obj_get_style_int
 1321              	.LVL148:
 116:lvgl/src/lv_widgets/../lv_core/lv_obj_style_dec.h **** _LV_OBJ_STYLE_SET_GET_DECLARE(MARGIN_LEFT, margin_left, lv_style_int_t, _int, scalar)
 1322              		.loc 2 116 1 is_stmt 0 view .LVU361
 1323              	.LBE139:
 1324              	.LBE138:
 673:lvgl/src/lv_widgets/lv_calendar.c ****                             lv_obj_get_style_pad_bottom(calendar, LV_CALENDAR_PART_HEADER);
 1325              		.loc 1 673 29 view .LVU362
 1326 0036 84B2     		uxth	r4, r0
 1327              	.LVL149:
 1328              	.LBB140:
 1329              	.LBI140:
 111:lvgl/src/lv_widgets/../lv_core/lv_obj_style_dec.h **** _LV_OBJ_STYLE_SET_GET_DECLARE(PAD_LEFT, pad_left, lv_style_int_t, _int, scalar)
 1330              		.loc 2 111 1 is_stmt 1 view .LVU363
 1331              	.LBB141:
 111:lvgl/src/lv_widgets/../lv_core/lv_obj_style_dec.h **** _LV_OBJ_STYLE_SET_GET_DECLARE(PAD_LEFT, pad_left, lv_style_int_t, _int, scalar)
 1332              		.loc 2 111 1 view .LVU364
 1333 0038 1122     		movs	r2, #17
 1334 003a 0121     		movs	r1, #1
 1335 003c 3046     		mov	r0, r6
 1336 003e FFF7FEFF 		bl	_lv_obj_get_style_int
 1337              	.LVL150:
 111:lvgl/src/lv_widgets/../lv_core/lv_obj_style_dec.h **** _LV_OBJ_STYLE_SET_GET_DECLARE(PAD_LEFT, pad_left, lv_style_int_t, _int, scalar)
 1338              		.loc 2 111 1 is_stmt 0 view .LVU365
 1339              	.LBE141:
 1340              	.LBE140:
 673:lvgl/src/lv_widgets/lv_calendar.c ****                             lv_obj_get_style_pad_bottom(calendar, LV_CALENDAR_PART_HEADER);
 1341              		.loc 1 673 95 view .LVU366
 1342 0042 14FA80F0 		uxtah	r0, r4, r0
 1343              	.LVL151:
 676:lvgl/src/lv_widgets/lv_calendar.c **** }
 1344              		.loc 1 676 5 is_stmt 1 view .LVU367
 1345              	.LBB142:
ARM GAS  D:\Temp\cclvo1nc.s 			page 54


 1346              	.LBI142:
 116:lvgl/src/lv_widgets/../lv_core/../lv_font/lv_font.h **** {
 1347              		.loc 3 116 26 view .LVU368
 1348              	.LBB143:
 1349              		.loc 3 118 5 view .LVU369
 1350              		.loc 3 118 18 is_stmt 0 view .LVU370
 1351 0046 B7F90840 		ldrsh	r4, [r7, #8]
 1352              	.LVL152:
 1353              		.loc 3 118 18 view .LVU371
 1354              	.LBE143:
 1355              	.LBE142:
 676:lvgl/src/lv_widgets/lv_calendar.c **** }
 1356              		.loc 1 676 42 view .LVU372
 1357 004a 15FA84F4 		uxtah	r4, r5, r4
 1358 004e A4B2     		uxth	r4, r4
 676:lvgl/src/lv_widgets/lv_calendar.c **** }
 1359              		.loc 1 676 48 view .LVU373
 1360 0050 14FA80F0 		uxtah	r0, r4, r0
 1361              	.LVL153:
 677:lvgl/src/lv_widgets/lv_calendar.c **** 
 1362              		.loc 1 677 1 view .LVU374
 1363 0054 00B2     		sxth	r0, r0
 1364 0056 F8BD     		pop	{r3, r4, r5, r6, r7, pc}
 677:lvgl/src/lv_widgets/lv_calendar.c **** 
 1365              		.loc 1 677 1 view .LVU375
 1366              		.cfi_endproc
 1367              	.LFE476:
 1369              		.section	.text.draw_day_names,"ax",%progbits
 1370              		.align	1
 1371              		.syntax unified
 1372              		.thumb
 1373              		.thumb_func
 1374              		.fpu fpv4-sp-d16
 1376              	draw_day_names:
 1377              	.LVL154:
 1378              	.LFB479:
 773:lvgl/src/lv_widgets/lv_calendar.c ****     lv_style_int_t date_top = lv_obj_get_style_pad_top(calendar, LV_CALENDAR_PART_DATE);
 1379              		.loc 1 773 1 is_stmt 1 view -0
 1380              		.cfi_startproc
 1381              		@ args = 0, pretend = 0, frame = 56
 1382              		@ frame_needed = 0, uses_anonymous_args = 0
 773:lvgl/src/lv_widgets/lv_calendar.c ****     lv_style_int_t date_top = lv_obj_get_style_pad_top(calendar, LV_CALENDAR_PART_DATE);
 1383              		.loc 1 773 1 is_stmt 0 view .LVU377
 1384 0000 2DE9F04F 		push	{r4, r5, r6, r7, r8, r9, r10, fp, lr}
 1385              	.LCFI12:
 1386              		.cfi_def_cfa_offset 36
 1387              		.cfi_offset 4, -36
 1388              		.cfi_offset 5, -32
 1389              		.cfi_offset 6, -28
 1390              		.cfi_offset 7, -24
 1391              		.cfi_offset 8, -20
 1392              		.cfi_offset 9, -16
 1393              		.cfi_offset 10, -12
 1394              		.cfi_offset 11, -8
 1395              		.cfi_offset 14, -4
 1396 0004 91B0     		sub	sp, sp, #68
 1397              	.LCFI13:
ARM GAS  D:\Temp\cclvo1nc.s 			page 55


 1398              		.cfi_def_cfa_offset 104
 1399 0006 0546     		mov	r5, r0
 1400 0008 0391     		str	r1, [sp, #12]
 774:lvgl/src/lv_widgets/lv_calendar.c ****     lv_style_int_t date_bottom = lv_obj_get_style_pad_bottom(calendar, LV_CALENDAR_PART_DATE);
 1401              		.loc 1 774 5 is_stmt 1 view .LVU378
 1402              	.LVL155:
 1403              	.LBB144:
 1404              	.LBI144:
 110:lvgl/src/lv_widgets/../lv_core/lv_obj_style_dec.h **** _LV_OBJ_STYLE_SET_GET_DECLARE(PAD_BOTTOM, pad_bottom, lv_style_int_t, _int, scalar)
 1405              		.loc 2 110 1 view .LVU379
 1406              	.LBB145:
 110:lvgl/src/lv_widgets/../lv_core/lv_obj_style_dec.h **** _LV_OBJ_STYLE_SET_GET_DECLARE(PAD_BOTTOM, pad_bottom, lv_style_int_t, _int, scalar)
 1407              		.loc 2 110 1 view .LVU380
 1408 000a 1022     		movs	r2, #16
 1409 000c 0321     		movs	r1, #3
 1410              	.LVL156:
 110:lvgl/src/lv_widgets/../lv_core/lv_obj_style_dec.h **** _LV_OBJ_STYLE_SET_GET_DECLARE(PAD_BOTTOM, pad_bottom, lv_style_int_t, _int, scalar)
 1411              		.loc 2 110 1 is_stmt 0 view .LVU381
 1412 000e FFF7FEFF 		bl	_lv_obj_get_style_int
 1413              	.LVL157:
 110:lvgl/src/lv_widgets/../lv_core/lv_obj_style_dec.h **** _LV_OBJ_STYLE_SET_GET_DECLARE(PAD_BOTTOM, pad_bottom, lv_style_int_t, _int, scalar)
 1414              		.loc 2 110 1 view .LVU382
 1415 0012 8046     		mov	r8, r0
 1416              	.LVL158:
 110:lvgl/src/lv_widgets/../lv_core/lv_obj_style_dec.h **** _LV_OBJ_STYLE_SET_GET_DECLARE(PAD_BOTTOM, pad_bottom, lv_style_int_t, _int, scalar)
 1417              		.loc 2 110 1 view .LVU383
 1418              	.LBE145:
 1419              	.LBE144:
 775:lvgl/src/lv_widgets/lv_calendar.c ****     lv_style_int_t date_left = lv_obj_get_style_pad_left(calendar, LV_CALENDAR_PART_DATE);
 1420              		.loc 1 775 5 is_stmt 1 view .LVU384
 1421              	.LBB146:
 1422              	.LBI146:
 111:lvgl/src/lv_widgets/../lv_core/lv_obj_style_dec.h **** _LV_OBJ_STYLE_SET_GET_DECLARE(PAD_LEFT, pad_left, lv_style_int_t, _int, scalar)
 1423              		.loc 2 111 1 view .LVU385
 1424              	.LBB147:
 111:lvgl/src/lv_widgets/../lv_core/lv_obj_style_dec.h **** _LV_OBJ_STYLE_SET_GET_DECLARE(PAD_LEFT, pad_left, lv_style_int_t, _int, scalar)
 1425              		.loc 2 111 1 view .LVU386
 1426 0014 1122     		movs	r2, #17
 1427 0016 0321     		movs	r1, #3
 1428 0018 2846     		mov	r0, r5
 1429 001a FFF7FEFF 		bl	_lv_obj_get_style_int
 1430              	.LVL159:
 1431 001e 0746     		mov	r7, r0
 1432              	.LVL160:
 111:lvgl/src/lv_widgets/../lv_core/lv_obj_style_dec.h **** _LV_OBJ_STYLE_SET_GET_DECLARE(PAD_LEFT, pad_left, lv_style_int_t, _int, scalar)
 1433              		.loc 2 111 1 is_stmt 0 view .LVU387
 1434              	.LBE147:
 1435              	.LBE146:
 776:lvgl/src/lv_widgets/lv_calendar.c ****     lv_style_int_t date_right = lv_obj_get_style_pad_right(calendar, LV_CALENDAR_PART_DATE);
 1436              		.loc 1 776 5 is_stmt 1 view .LVU388
 1437              	.LBB148:
 1438              	.LBI148:
 112:lvgl/src/lv_widgets/../lv_core/lv_obj_style_dec.h **** _LV_OBJ_STYLE_SET_GET_DECLARE(PAD_RIGHT, pad_right, lv_style_int_t, _int, scalar)
 1439              		.loc 2 112 1 view .LVU389
 1440              	.LBB149:
 112:lvgl/src/lv_widgets/../lv_core/lv_obj_style_dec.h **** _LV_OBJ_STYLE_SET_GET_DECLARE(PAD_RIGHT, pad_right, lv_style_int_t, _int, scalar)
 1441              		.loc 2 112 1 view .LVU390
ARM GAS  D:\Temp\cclvo1nc.s 			page 56


 1442 0020 1222     		movs	r2, #18
 1443 0022 0321     		movs	r1, #3
 1444 0024 2846     		mov	r0, r5
 1445 0026 FFF7FEFF 		bl	_lv_obj_get_style_int
 1446              	.LVL161:
 1447 002a 8146     		mov	r9, r0
 1448              	.LVL162:
 112:lvgl/src/lv_widgets/../lv_core/lv_obj_style_dec.h **** _LV_OBJ_STYLE_SET_GET_DECLARE(PAD_RIGHT, pad_right, lv_style_int_t, _int, scalar)
 1449              		.loc 2 112 1 is_stmt 0 view .LVU391
 1450              	.LBE149:
 1451              	.LBE148:
 777:lvgl/src/lv_widgets/lv_calendar.c ****     lv_style_int_t date_inner = lv_obj_get_style_pad_inner(calendar, LV_CALENDAR_PART_DATE);
 1452              		.loc 1 777 5 is_stmt 1 view .LVU392
 1453              	.LBB150:
 1454              	.LBI150:
 113:lvgl/src/lv_widgets/../lv_core/lv_obj_style_dec.h **** _LV_OBJ_STYLE_SET_GET_DECLARE(PAD_INNER, pad_inner, lv_style_int_t, _int, scalar)
 1455              		.loc 2 113 1 view .LVU393
 1456              	.LBB151:
 113:lvgl/src/lv_widgets/../lv_core/lv_obj_style_dec.h **** _LV_OBJ_STYLE_SET_GET_DECLARE(PAD_INNER, pad_inner, lv_style_int_t, _int, scalar)
 1457              		.loc 2 113 1 view .LVU394
 1458 002c 1322     		movs	r2, #19
 1459 002e 0321     		movs	r1, #3
 1460 0030 2846     		mov	r0, r5
 1461 0032 FFF7FEFF 		bl	_lv_obj_get_style_int
 1462              	.LVL163:
 1463 0036 0446     		mov	r4, r0
 1464              	.LVL164:
 113:lvgl/src/lv_widgets/../lv_core/lv_obj_style_dec.h **** _LV_OBJ_STYLE_SET_GET_DECLARE(PAD_INNER, pad_inner, lv_style_int_t, _int, scalar)
 1465              		.loc 2 113 1 is_stmt 0 view .LVU395
 1466              	.LBE151:
 1467              	.LBE150:
 778:lvgl/src/lv_widgets/lv_calendar.c **** 
 1468              		.loc 1 778 5 is_stmt 1 view .LVU396
 1469              	.LBB152:
 1470              	.LBI152:
 114:lvgl/src/lv_widgets/../lv_core/lv_obj_style_dec.h **** _LV_OBJ_STYLE_SET_GET_DECLARE(MARGIN_TOP, margin_top, lv_style_int_t, _int, scalar)
 1471              		.loc 2 114 1 view .LVU397
 1472              	.LBB153:
 114:lvgl/src/lv_widgets/../lv_core/lv_obj_style_dec.h **** _LV_OBJ_STYLE_SET_GET_DECLARE(MARGIN_TOP, margin_top, lv_style_int_t, _int, scalar)
 1473              		.loc 2 114 1 view .LVU398
 1474 0038 1422     		movs	r2, #20
 1475 003a 0321     		movs	r1, #3
 1476 003c 2846     		mov	r0, r5
 1477 003e FFF7FEFF 		bl	_lv_obj_get_style_int
 1478              	.LVL165:
 1479 0042 0646     		mov	r6, r0
 1480              	.LVL166:
 114:lvgl/src/lv_widgets/../lv_core/lv_obj_style_dec.h **** _LV_OBJ_STYLE_SET_GET_DECLARE(MARGIN_TOP, margin_top, lv_style_int_t, _int, scalar)
 1481              		.loc 2 114 1 is_stmt 0 view .LVU399
 1482              	.LBE153:
 1483              	.LBE152:
 780:lvgl/src/lv_widgets/lv_calendar.c ****     lv_coord_t box_w      = (days_w - date_inner * 6) / 7;
 1484              		.loc 1 780 5 is_stmt 1 view .LVU400
 780:lvgl/src/lv_widgets/lv_calendar.c ****     lv_coord_t box_w      = (days_w - date_inner * 6) / 7;
 1485              		.loc 1 780 30 is_stmt 0 view .LVU401
 1486 0044 2846     		mov	r0, r5
 1487 0046 FFF7FEFF 		bl	lv_obj_get_width
ARM GAS  D:\Temp\cclvo1nc.s 			page 57


 1488              	.LVL167:
 1489 004a 80B2     		uxth	r0, r0
 780:lvgl/src/lv_widgets/lv_calendar.c ****     lv_coord_t box_w      = (days_w - date_inner * 6) / 7;
 1490              		.loc 1 780 57 view .LVU402
 1491 004c A0EB0900 		sub	r0, r0, r9
 1492 0050 80B2     		uxth	r0, r0
 780:lvgl/src/lv_widgets/lv_calendar.c ****     lv_coord_t box_w      = (days_w - date_inner * 6) / 7;
 1493              		.loc 1 780 69 view .LVU403
 1494 0052 001B     		subs	r0, r0, r4
 1495              	.LVL168:
 781:lvgl/src/lv_widgets/lv_calendar.c ****     lv_coord_t days_y1 = calendar->coords.y1 + date_top + get_header_height(calendar) + get_day_nam
 1496              		.loc 1 781 5 is_stmt 1 view .LVU404
 781:lvgl/src/lv_widgets/lv_calendar.c ****     lv_coord_t days_y1 = calendar->coords.y1 + date_top + get_header_height(calendar) + get_day_nam
 1497              		.loc 1 781 50 is_stmt 0 view .LVU405
 1498 0054 A6EB8602 		sub	r2, r6, r6, lsl #2
 1499 0058 5300     		lsls	r3, r2, #1
 781:lvgl/src/lv_widgets/lv_calendar.c ****     lv_coord_t days_y1 = calendar->coords.y1 + date_top + get_header_height(calendar) + get_day_nam
 1500              		.loc 1 781 37 view .LVU406
 1501 005a 03FA80F0 		sxtah	r0, r3, r0
 1502              	.LVL169:
 781:lvgl/src/lv_widgets/lv_calendar.c ****     lv_coord_t days_y1 = calendar->coords.y1 + date_top + get_header_height(calendar) + get_day_nam
 1503              		.loc 1 781 55 view .LVU407
 1504 005e 574C     		ldr	r4, .L97
 1505              	.LVL170:
 781:lvgl/src/lv_widgets/lv_calendar.c ****     lv_coord_t days_y1 = calendar->coords.y1 + date_top + get_header_height(calendar) + get_day_nam
 1506              		.loc 1 781 55 view .LVU408
 1507 0060 84FB0034 		smull	r3, r4, r4, r0
 1508 0064 2318     		adds	r3, r4, r0
 1509 0066 C417     		asrs	r4, r0, #31
 1510 0068 C4EBA304 		rsb	r4, r4, r3, asr #2
 781:lvgl/src/lv_widgets/lv_calendar.c ****     lv_coord_t days_y1 = calendar->coords.y1 + date_top + get_header_height(calendar) + get_day_nam
 1511              		.loc 1 781 16 view .LVU409
 1512 006c 24B2     		sxth	r4, r4
 1513              	.LVL171:
 782:lvgl/src/lv_widgets/lv_calendar.c ****     lv_coord_t days_h = calendar->coords.y2 - days_y1 - date_bottom;
 1514              		.loc 1 782 5 is_stmt 1 view .LVU410
 782:lvgl/src/lv_widgets/lv_calendar.c ****     lv_coord_t days_h = calendar->coords.y2 - days_y1 - date_bottom;
 1515              		.loc 1 782 42 is_stmt 0 view .LVU411
 1516 006e 688A     		ldrh	r0, [r5, #18]
 782:lvgl/src/lv_widgets/lv_calendar.c ****     lv_coord_t days_h = calendar->coords.y2 - days_y1 - date_bottom;
 1517              		.loc 1 782 46 view .LVU412
 1518 0070 8044     		add	r8, r8, r0
 1519              	.LVL172:
 782:lvgl/src/lv_widgets/lv_calendar.c ****     lv_coord_t days_h = calendar->coords.y2 - days_y1 - date_bottom;
 1520              		.loc 1 782 46 view .LVU413
 1521 0072 1FFA88F8 		uxth	r8, r8
 782:lvgl/src/lv_widgets/lv_calendar.c ****     lv_coord_t days_h = calendar->coords.y2 - days_y1 - date_bottom;
 1522              		.loc 1 782 59 view .LVU414
 1523 0076 2846     		mov	r0, r5
 1524 0078 FFF7FEFF 		bl	get_header_height
 1525              	.LVL173:
 782:lvgl/src/lv_widgets/lv_calendar.c ****     lv_coord_t days_h = calendar->coords.y2 - days_y1 - date_bottom;
 1526              		.loc 1 782 57 view .LVU415
 1527 007c 18FA80F8 		uxtah	r8, r8, r0
 1528 0080 1FFA88F8 		uxth	r8, r8
 782:lvgl/src/lv_widgets/lv_calendar.c ****     lv_coord_t days_h = calendar->coords.y2 - days_y1 - date_bottom;
 1529              		.loc 1 782 89 view .LVU416
ARM GAS  D:\Temp\cclvo1nc.s 			page 58


 1530 0084 2846     		mov	r0, r5
 1531 0086 FFF7FEFF 		bl	get_day_names_height
 1532              	.LVL174:
 782:lvgl/src/lv_widgets/lv_calendar.c ****     lv_coord_t days_h = calendar->coords.y2 - days_y1 - date_bottom;
 1533              		.loc 1 782 87 view .LVU417
 1534 008a 18FA80F0 		uxtah	r0, r8, r0
 1535 008e 80B2     		uxth	r0, r0
 1536              	.LVL175:
 783:lvgl/src/lv_widgets/lv_calendar.c ****     lv_coord_t box_h      = (days_h - 5 * date_inner) / 6;
 1537              		.loc 1 783 5 is_stmt 1 view .LVU418
 783:lvgl/src/lv_widgets/lv_calendar.c ****     lv_coord_t box_h      = (days_h - 5 * date_inner) / 6;
 1538              		.loc 1 783 41 is_stmt 0 view .LVU419
 1539 0090 B5F81680 		ldrh	r8, [r5, #22]
 783:lvgl/src/lv_widgets/lv_calendar.c ****     lv_coord_t box_h      = (days_h - 5 * date_inner) / 6;
 1540              		.loc 1 783 45 view .LVU420
 1541 0094 A8EB0000 		sub	r0, r8, r0
 1542              	.LVL176:
 783:lvgl/src/lv_widgets/lv_calendar.c ****     lv_coord_t box_h      = (days_h - 5 * date_inner) / 6;
 1543              		.loc 1 783 45 view .LVU421
 1544 0098 80B2     		uxth	r0, r0
 783:lvgl/src/lv_widgets/lv_calendar.c ****     lv_coord_t box_h      = (days_h - 5 * date_inner) / 6;
 1545              		.loc 1 783 55 view .LVU422
 1546 009a C71B     		subs	r7, r0, r7
 1547              	.LVL177:
 784:lvgl/src/lv_widgets/lv_calendar.c ****     lv_coord_t box_size = LV_MATH_MIN(box_w, box_h);
 1548              		.loc 1 784 5 is_stmt 1 view .LVU423
 784:lvgl/src/lv_widgets/lv_calendar.c ****     lv_coord_t box_size = LV_MATH_MIN(box_w, box_h);
 1549              		.loc 1 784 41 is_stmt 0 view .LVU424
 1550 009c C6EB8673 		rsb	r3, r6, r6, lsl #30
 1551 00a0 C6EB8306 		rsb	r6, r6, r3, lsl #2
 1552              	.LVL178:
 784:lvgl/src/lv_widgets/lv_calendar.c ****     lv_coord_t box_size = LV_MATH_MIN(box_w, box_h);
 1553              		.loc 1 784 37 view .LVU425
 1554 00a4 06FA87F6 		sxtah	r6, r6, r7
 784:lvgl/src/lv_widgets/lv_calendar.c ****     lv_coord_t box_size = LV_MATH_MIN(box_w, box_h);
 1555              		.loc 1 784 55 view .LVU426
 1556 00a8 454F     		ldr	r7, .L97+4
 1557              	.LVL179:
 784:lvgl/src/lv_widgets/lv_calendar.c ****     lv_coord_t box_size = LV_MATH_MIN(box_w, box_h);
 1558              		.loc 1 784 55 view .LVU427
 1559 00aa 87FB0623 		smull	r2, r3, r7, r6
 1560 00ae A3EBE676 		sub	r6, r3, r6, asr #31
 784:lvgl/src/lv_widgets/lv_calendar.c ****     lv_coord_t box_size = LV_MATH_MIN(box_w, box_h);
 1561              		.loc 1 784 16 view .LVU428
 1562 00b2 36B2     		sxth	r6, r6
 1563              	.LVL180:
 785:lvgl/src/lv_widgets/lv_calendar.c **** 
 1564              		.loc 1 785 5 is_stmt 1 view .LVU429
 785:lvgl/src/lv_widgets/lv_calendar.c **** 
 1565              		.loc 1 785 16 is_stmt 0 view .LVU430
 1566 00b4 B442     		cmp	r4, r6
 1567 00b6 A8BF     		it	ge
 1568 00b8 3446     		movge	r4, r6
 1569              	.LVL181:
 787:lvgl/src/lv_widgets/lv_calendar.c ****     lv_style_int_t right = lv_obj_get_style_pad_right(calendar, LV_CALENDAR_PART_DAY_NAMES);
 1570              		.loc 1 787 5 is_stmt 1 view .LVU431
 1571              	.LBB154:
ARM GAS  D:\Temp\cclvo1nc.s 			page 59


 1572              	.LBI154:
 112:lvgl/src/lv_widgets/../lv_core/lv_obj_style_dec.h **** _LV_OBJ_STYLE_SET_GET_DECLARE(PAD_RIGHT, pad_right, lv_style_int_t, _int, scalar)
 1573              		.loc 2 112 1 view .LVU432
 1574              	.LBB155:
 112:lvgl/src/lv_widgets/../lv_core/lv_obj_style_dec.h **** _LV_OBJ_STYLE_SET_GET_DECLARE(PAD_RIGHT, pad_right, lv_style_int_t, _int, scalar)
 1575              		.loc 2 112 1 view .LVU433
 1576 00ba 1222     		movs	r2, #18
 1577 00bc 0221     		movs	r1, #2
 1578 00be 2846     		mov	r0, r5
 112:lvgl/src/lv_widgets/../lv_core/lv_obj_style_dec.h **** _LV_OBJ_STYLE_SET_GET_DECLARE(PAD_RIGHT, pad_right, lv_style_int_t, _int, scalar)
 1579              		.loc 2 112 1 is_stmt 0 view .LVU434
 1580 00c0 FFF7FEFF 		bl	_lv_obj_get_style_int
 1581              	.LVL182:
 1582 00c4 8046     		mov	r8, r0
 1583              	.LVL183:
 112:lvgl/src/lv_widgets/../lv_core/lv_obj_style_dec.h **** _LV_OBJ_STYLE_SET_GET_DECLARE(PAD_RIGHT, pad_right, lv_style_int_t, _int, scalar)
 1584              		.loc 2 112 1 view .LVU435
 1585              	.LBE155:
 1586              	.LBE154:
 788:lvgl/src/lv_widgets/lv_calendar.c ****     lv_style_int_t top = lv_obj_get_style_pad_top(calendar, LV_CALENDAR_PART_DAY_NAMES);
 1587              		.loc 1 788 5 is_stmt 1 view .LVU436
 1588              	.LBB156:
 1589              	.LBI156:
 113:lvgl/src/lv_widgets/../lv_core/lv_obj_style_dec.h **** _LV_OBJ_STYLE_SET_GET_DECLARE(PAD_INNER, pad_inner, lv_style_int_t, _int, scalar)
 1590              		.loc 2 113 1 view .LVU437
 1591              	.LBB157:
 113:lvgl/src/lv_widgets/../lv_core/lv_obj_style_dec.h **** _LV_OBJ_STYLE_SET_GET_DECLARE(PAD_INNER, pad_inner, lv_style_int_t, _int, scalar)
 1592              		.loc 2 113 1 view .LVU438
 1593 00c6 1322     		movs	r2, #19
 1594 00c8 0221     		movs	r1, #2
 1595 00ca 2846     		mov	r0, r5
 1596 00cc FFF7FEFF 		bl	_lv_obj_get_style_int
 1597              	.LVL184:
 1598 00d0 8146     		mov	r9, r0
 1599              	.LVL185:
 113:lvgl/src/lv_widgets/../lv_core/lv_obj_style_dec.h **** _LV_OBJ_STYLE_SET_GET_DECLARE(PAD_INNER, pad_inner, lv_style_int_t, _int, scalar)
 1600              		.loc 2 113 1 is_stmt 0 view .LVU439
 1601              	.LBE157:
 1602              	.LBE156:
 789:lvgl/src/lv_widgets/lv_calendar.c ****     const lv_font_t * font = lv_obj_get_style_text_font(calendar, LV_CALENDAR_PART_DAY_NAMES);
 1603              		.loc 1 789 5 is_stmt 1 view .LVU440
 1604              	.LBB158:
 1605              	.LBI158:
 110:lvgl/src/lv_widgets/../lv_core/lv_obj_style_dec.h **** _LV_OBJ_STYLE_SET_GET_DECLARE(PAD_BOTTOM, pad_bottom, lv_style_int_t, _int, scalar)
 1606              		.loc 2 110 1 view .LVU441
 1607              	.LBB159:
 110:lvgl/src/lv_widgets/../lv_core/lv_obj_style_dec.h **** _LV_OBJ_STYLE_SET_GET_DECLARE(PAD_BOTTOM, pad_bottom, lv_style_int_t, _int, scalar)
 1608              		.loc 2 110 1 view .LVU442
 1609 00d2 1022     		movs	r2, #16
 1610 00d4 0221     		movs	r1, #2
 1611 00d6 2846     		mov	r0, r5
 1612 00d8 FFF7FEFF 		bl	_lv_obj_get_style_int
 1613              	.LVL186:
 1614 00dc 8346     		mov	fp, r0
 1615              	.LVL187:
 110:lvgl/src/lv_widgets/../lv_core/lv_obj_style_dec.h **** _LV_OBJ_STYLE_SET_GET_DECLARE(PAD_BOTTOM, pad_bottom, lv_style_int_t, _int, scalar)
 1616              		.loc 2 110 1 is_stmt 0 view .LVU443
ARM GAS  D:\Temp\cclvo1nc.s 			page 60


 1617              	.LBE159:
 1618              	.LBE158:
 790:lvgl/src/lv_widgets/lv_calendar.c **** 
 1619              		.loc 1 790 5 is_stmt 1 view .LVU444
 1620              	.LBB160:
 1621              	.LBI160:
 1622              		.loc 2 168 1 view .LVU445
 1623              	.LBB161:
 1624              		.loc 2 168 1 view .LVU446
 1625 00de 48F28E02 		movw	r2, #32910
 1626 00e2 0221     		movs	r1, #2
 1627 00e4 2846     		mov	r0, r5
 1628 00e6 FFF7FEFF 		bl	_lv_obj_get_style_ptr
 1629              	.LVL188:
 1630 00ea 8246     		mov	r10, r0
 1631              	.LVL189:
 1632              		.loc 2 168 1 is_stmt 0 view .LVU447
 1633              	.LBE161:
 1634              	.LBE160:
 792:lvgl/src/lv_widgets/lv_calendar.c **** 
 1635              		.loc 1 792 5 is_stmt 1 view .LVU448
 792:lvgl/src/lv_widgets/lv_calendar.c **** 
 1636              		.loc 1 792 20 is_stmt 0 view .LVU449
 1637 00ec 2846     		mov	r0, r5
 1638              	.LVL190:
 792:lvgl/src/lv_widgets/lv_calendar.c **** 
 1639              		.loc 1 792 20 view .LVU450
 1640 00ee FFF7FEFF 		bl	lv_obj_get_width
 1641              	.LVL191:
 1642 00f2 86B2     		uxth	r6, r0
 1643              	.LVL192:
 792:lvgl/src/lv_widgets/lv_calendar.c **** 
 1644              		.loc 1 792 47 view .LVU451
 1645 00f4 1FFA88F8 		uxth	r8, r8
 792:lvgl/src/lv_widgets/lv_calendar.c **** 
 1646              		.loc 1 792 47 view .LVU452
 1647 00f8 A6EB0806 		sub	r6, r6, r8
 1648 00fc B6B2     		uxth	r6, r6
 792:lvgl/src/lv_widgets/lv_calendar.c **** 
 1649              		.loc 1 792 54 view .LVU453
 1650 00fe A6EB0906 		sub	r6, r6, r9
 792:lvgl/src/lv_widgets/lv_calendar.c **** 
 1651              		.loc 1 792 16 view .LVU454
 1652 0102 36B2     		sxth	r6, r6
 1653              	.LVL193:
 794:lvgl/src/lv_widgets/lv_calendar.c **** 
 1654              		.loc 1 794 5 is_stmt 1 view .LVU455
 794:lvgl/src/lv_widgets/lv_calendar.c **** 
 1655              		.loc 1 794 16 is_stmt 0 view .LVU456
 1656 0104 87FB0637 		smull	r3, r7, r7, r6
 1657 0108 A7EBE677 		sub	r7, r7, r6, asr #31
 1658 010c 3FB2     		sxth	r7, r7
 1659              	.LVL194:
 796:lvgl/src/lv_widgets/lv_calendar.c ****     label_area.y1 = calendar->coords.y1 + get_header_height(calendar) + top;
 1660              		.loc 1 796 5 is_stmt 1 view .LVU457
 797:lvgl/src/lv_widgets/lv_calendar.c ****     label_area.y2 = label_area.y1 + lv_font_get_line_height(font);
 1661              		.loc 1 797 5 view .LVU458
ARM GAS  D:\Temp\cclvo1nc.s 			page 61


 797:lvgl/src/lv_widgets/lv_calendar.c ****     label_area.y2 = label_area.y1 + lv_font_get_line_height(font);
 1662              		.loc 1 797 37 is_stmt 0 view .LVU459
 1663 010e B5F81290 		ldrh	r9, [r5, #18]
 1664              	.LVL195:
 797:lvgl/src/lv_widgets/lv_calendar.c ****     label_area.y2 = label_area.y1 + lv_font_get_line_height(font);
 1665              		.loc 1 797 43 view .LVU460
 1666 0112 2846     		mov	r0, r5
 1667 0114 FFF7FEFF 		bl	get_header_height
 1668              	.LVL196:
 797:lvgl/src/lv_widgets/lv_calendar.c ****     label_area.y2 = label_area.y1 + lv_font_get_line_height(font);
 1669              		.loc 1 797 41 view .LVU461
 1670 0118 19FA80F0 		uxtah	r0, r9, r0
 797:lvgl/src/lv_widgets/lv_calendar.c ****     label_area.y2 = label_area.y1 + lv_font_get_line_height(font);
 1671              		.loc 1 797 71 view .LVU462
 1672 011c 1BFA80FB 		uxtah	fp, fp, r0
 1673              	.LVL197:
 797:lvgl/src/lv_widgets/lv_calendar.c ****     label_area.y2 = label_area.y1 + lv_font_get_line_height(font);
 1674              		.loc 1 797 71 view .LVU463
 1675 0120 1FFA8BFB 		uxth	fp, fp
 797:lvgl/src/lv_widgets/lv_calendar.c ****     label_area.y2 = label_area.y1 + lv_font_get_line_height(font);
 1676              		.loc 1 797 19 view .LVU464
 1677 0124 ADF83AB0 		strh	fp, [sp, #58]	@ movhi
 798:lvgl/src/lv_widgets/lv_calendar.c **** 
 1678              		.loc 1 798 5 is_stmt 1 view .LVU465
 1679              	.LVL198:
 1680              	.LBB162:
 1681              	.LBI162:
 116:lvgl/src/lv_widgets/../lv_core/../lv_font/lv_font.h **** {
 1682              		.loc 3 116 26 view .LVU466
 1683              	.LBB163:
 1684              		.loc 3 118 5 view .LVU467
 1685              		.loc 3 118 18 is_stmt 0 view .LVU468
 1686 0128 BAF90830 		ldrsh	r3, [r10, #8]
 1687              	.LVL199:
 1688              		.loc 3 118 18 view .LVU469
 1689              	.LBE163:
 1690              	.LBE162:
 798:lvgl/src/lv_widgets/lv_calendar.c **** 
 1691              		.loc 1 798 35 view .LVU470
 1692 012c 1BFA83FB 		uxtah	fp, fp, r3
 798:lvgl/src/lv_widgets/lv_calendar.c **** 
 1693              		.loc 1 798 19 view .LVU471
 1694 0130 ADF83EB0 		strh	fp, [sp, #62]	@ movhi
 800:lvgl/src/lv_widgets/lv_calendar.c ****     lv_draw_label_dsc_init(&label_dsc);
 1695              		.loc 1 800 5 is_stmt 1 view .LVU472
 801:lvgl/src/lv_widgets/lv_calendar.c ****     lv_obj_init_draw_label_dsc(calendar, LV_CALENDAR_PART_DAY_NAMES, &label_dsc);
 1696              		.loc 1 801 5 view .LVU473
 1697 0134 05A8     		add	r0, sp, #20
 1698 0136 FFF7FEFF 		bl	lv_draw_label_dsc_init
 1699              	.LVL200:
 802:lvgl/src/lv_widgets/lv_calendar.c ****     label_dsc.flag = LV_TXT_FLAG_CENTER;
 1700              		.loc 1 802 5 view .LVU474
 1701 013a 05AA     		add	r2, sp, #20
 1702 013c 0221     		movs	r1, #2
 1703 013e 2846     		mov	r0, r5
 1704 0140 FFF7FEFF 		bl	lv_obj_init_draw_label_dsc
 1705              	.LVL201:
ARM GAS  D:\Temp\cclvo1nc.s 			page 62


 803:lvgl/src/lv_widgets/lv_calendar.c **** 
 1706              		.loc 1 803 5 view .LVU475
 803:lvgl/src/lv_widgets/lv_calendar.c **** 
 1707              		.loc 1 803 20 is_stmt 0 view .LVU476
 1708 0144 0423     		movs	r3, #4
 1709 0146 8DF83530 		strb	r3, [sp, #53]
 805:lvgl/src/lv_widgets/lv_calendar.c ****     for(i = 0; i < 7; i++) {
 1710              		.loc 1 805 5 is_stmt 1 view .LVU477
 806:lvgl/src/lv_widgets/lv_calendar.c ****         label_area.x1 = calendar->coords.x1 + ((w - box_size) * i) / 6  + box_size / 2 - label_w / 
 1711              		.loc 1 806 5 view .LVU478
 1712              	.LVL202:
 806:lvgl/src/lv_widgets/lv_calendar.c ****         label_area.x1 = calendar->coords.x1 + ((w - box_size) * i) / 6  + box_size / 2 - label_w / 
 1713              		.loc 1 806 11 is_stmt 0 view .LVU479
 1714 014a 4FF00009 		mov	r9, #0
 1715              	.LVL203:
 1716              	.L93:
 806:lvgl/src/lv_widgets/lv_calendar.c ****         label_area.x1 = calendar->coords.x1 + ((w - box_size) * i) / 6  + box_size / 2 - label_w / 
 1717              		.loc 1 806 5 discriminator 1 view .LVU480
 1718 014e B9F1060F 		cmp	r9, #6
 1719 0152 2FD8     		bhi	.L96
 807:lvgl/src/lv_widgets/lv_calendar.c ****         label_area.x2 = label_area.x1 + label_w - 1;
 1720              		.loc 1 807 9 is_stmt 1 discriminator 3 view .LVU481
 807:lvgl/src/lv_widgets/lv_calendar.c ****         label_area.x2 = label_area.x1 + label_w - 1;
 1721              		.loc 1 807 41 is_stmt 0 discriminator 3 view .LVU482
 1722 0154 2B8A     		ldrh	r3, [r5, #16]
 807:lvgl/src/lv_widgets/lv_calendar.c ****         label_area.x2 = label_area.x1 + label_w - 1;
 1723              		.loc 1 807 51 discriminator 3 view .LVU483
 1724 0156 321B     		subs	r2, r6, r4
 807:lvgl/src/lv_widgets/lv_calendar.c ****         label_area.x2 = label_area.x1 + label_w - 1;
 1725              		.loc 1 807 63 discriminator 3 view .LVU484
 1726 0158 09FB02F2 		mul	r2, r9, r2
 807:lvgl/src/lv_widgets/lv_calendar.c ****         label_area.x2 = label_area.x1 + label_w - 1;
 1727              		.loc 1 807 68 discriminator 3 view .LVU485
 1728 015c 1949     		ldr	r1, .L97+8
 1729 015e A1FB0212 		umull	r1, r2, r1, r2
 807:lvgl/src/lv_widgets/lv_calendar.c ****         label_area.x2 = label_area.x1 + label_w - 1;
 1730              		.loc 1 807 45 discriminator 3 view .LVU486
 1731 0162 03EB9203 		add	r3, r3, r2, lsr #2
 807:lvgl/src/lv_widgets/lv_calendar.c ****         label_area.x2 = label_area.x1 + label_w - 1;
 1732              		.loc 1 807 73 discriminator 3 view .LVU487
 1733 0166 04EBD472 		add	r2, r4, r4, lsr #31
 1734 016a 5210     		asrs	r2, r2, #1
 1735 016c 12FA83F3 		uxtah	r3, r2, r3
 1736 0170 9BB2     		uxth	r3, r3
 807:lvgl/src/lv_widgets/lv_calendar.c ****         label_area.x2 = label_area.x1 + label_w - 1;
 1737              		.loc 1 807 88 discriminator 3 view .LVU488
 1738 0172 1349     		ldr	r1, .L97+4
 1739 0174 81FB0621 		smull	r2, r1, r1, r6
 1740 0178 F217     		asrs	r2, r6, #31
 1741 017a C2EB6102 		rsb	r2, r2, r1, asr #1
 1742 017e 9B1A     		subs	r3, r3, r2
 807:lvgl/src/lv_widgets/lv_calendar.c ****         label_area.x2 = label_area.x1 + label_w - 1;
 1743              		.loc 1 807 102 discriminator 3 view .LVU489
 1744 0180 18FA83F3 		uxtah	r3, r8, r3
 1745 0184 9BB2     		uxth	r3, r3
 807:lvgl/src/lv_widgets/lv_calendar.c ****         label_area.x2 = label_area.x1 + label_w - 1;
 1746              		.loc 1 807 23 discriminator 3 view .LVU490
ARM GAS  D:\Temp\cclvo1nc.s 			page 63


 1747 0186 ADF83830 		strh	r3, [sp, #56]	@ movhi
 808:lvgl/src/lv_widgets/lv_calendar.c **** 
 1748              		.loc 1 808 9 is_stmt 1 discriminator 3 view .LVU491
 808:lvgl/src/lv_widgets/lv_calendar.c **** 
 1749              		.loc 1 808 39 is_stmt 0 discriminator 3 view .LVU492
 1750 018a 3B44     		add	r3, r3, r7
 1751 018c 9BB2     		uxth	r3, r3
 808:lvgl/src/lv_widgets/lv_calendar.c **** 
 1752              		.loc 1 808 49 discriminator 3 view .LVU493
 1753 018e 013B     		subs	r3, r3, #1
 808:lvgl/src/lv_widgets/lv_calendar.c **** 
 1754              		.loc 1 808 23 discriminator 3 view .LVU494
 1755 0190 ADF83C30 		strh	r3, [sp, #60]	@ movhi
 810:lvgl/src/lv_widgets/lv_calendar.c ****     }
 1756              		.loc 1 810 9 is_stmt 1 discriminator 3 view .LVU495
 1757 0194 5FFA89F1 		uxtb	r1, r9
 1758 0198 2846     		mov	r0, r5
 1759 019a FFF7FEFF 		bl	get_day_name
 1760              	.LVL204:
 1761 019e 0023     		movs	r3, #0
 1762 01a0 0093     		str	r3, [sp]
 1763 01a2 0346     		mov	r3, r0
 1764 01a4 05AA     		add	r2, sp, #20
 1765 01a6 0399     		ldr	r1, [sp, #12]
 1766 01a8 0EA8     		add	r0, sp, #56
 1767 01aa FFF7FEFF 		bl	lv_draw_label
 1768              	.LVL205:
 806:lvgl/src/lv_widgets/lv_calendar.c ****         label_area.x1 = calendar->coords.x1 + ((w - box_size) * i) / 6  + box_size / 2 - label_w / 
 1769              		.loc 1 806 24 is_stmt 0 discriminator 3 view .LVU496
 1770 01ae 09F10109 		add	r9, r9, #1
 1771              	.LVL206:
 806:lvgl/src/lv_widgets/lv_calendar.c ****         label_area.x1 = calendar->coords.x1 + ((w - box_size) * i) / 6  + box_size / 2 - label_w / 
 1772              		.loc 1 806 24 discriminator 3 view .LVU497
 1773 01b2 CCE7     		b	.L93
 1774              	.L96:
 812:lvgl/src/lv_widgets/lv_calendar.c **** 
 1775              		.loc 1 812 1 view .LVU498
 1776 01b4 11B0     		add	sp, sp, #68
 1777              	.LCFI14:
 1778              		.cfi_def_cfa_offset 36
 1779              		@ sp needed
 1780 01b6 BDE8F08F 		pop	{r4, r5, r6, r7, r8, r9, r10, fp, pc}
 1781              	.LVL207:
 1782              	.L98:
 812:lvgl/src/lv_widgets/lv_calendar.c **** 
 1783              		.loc 1 812 1 view .LVU499
 1784 01ba 00BF     		.align	2
 1785              	.L97:
 1786 01bc 93244992 		.word	-1840700269
 1787 01c0 ABAAAA2A 		.word	715827883
 1788 01c4 ABAAAAAA 		.word	-1431655765
 1789              		.cfi_endproc
 1790              	.LFE479:
 1792              		.section	.text.lv_calendar_create,"ax",%progbits
 1793              		.align	1
 1794              		.global	lv_calendar_create
 1795              		.syntax unified
ARM GAS  D:\Temp\cclvo1nc.s 			page 64


 1796              		.thumb
 1797              		.thumb_func
 1798              		.fpu fpv4-sp-d16
 1800              	lv_calendar_create:
 1801              	.LVL208:
 1802              	.LFB458:
  83:lvgl/src/lv_widgets/lv_calendar.c ****     LV_LOG_TRACE("calendar create started");
 1803              		.loc 1 83 1 is_stmt 1 view -0
 1804              		.cfi_startproc
 1805              		@ args = 0, pretend = 0, frame = 0
 1806              		@ frame_needed = 0, uses_anonymous_args = 0
  83:lvgl/src/lv_widgets/lv_calendar.c ****     LV_LOG_TRACE("calendar create started");
 1807              		.loc 1 83 1 is_stmt 0 view .LVU501
 1808 0000 70B5     		push	{r4, r5, r6, lr}
 1809              	.LCFI15:
 1810              		.cfi_def_cfa_offset 16
 1811              		.cfi_offset 4, -16
 1812              		.cfi_offset 5, -12
 1813              		.cfi_offset 6, -8
 1814              		.cfi_offset 14, -4
 1815 0002 0E46     		mov	r6, r1
  84:lvgl/src/lv_widgets/lv_calendar.c **** 
 1816              		.loc 1 84 44 is_stmt 1 view .LVU502
  87:lvgl/src/lv_widgets/lv_calendar.c ****     LV_ASSERT_MEM(calendar);
 1817              		.loc 1 87 5 view .LVU503
  87:lvgl/src/lv_widgets/lv_calendar.c ****     LV_ASSERT_MEM(calendar);
 1818              		.loc 1 87 27 is_stmt 0 view .LVU504
 1819 0004 FFF7FEFF 		bl	lv_obj_create
 1820              	.LVL209:
  87:lvgl/src/lv_widgets/lv_calendar.c ****     LV_ASSERT_MEM(calendar);
 1821              		.loc 1 87 27 view .LVU505
 1822 0008 0546     		mov	r5, r0
 1823              	.LVL210:
  88:lvgl/src/lv_widgets/lv_calendar.c ****     if(calendar == NULL) return NULL;
 1824              		.loc 1 88 5 is_stmt 1 view .LVU506
  88:lvgl/src/lv_widgets/lv_calendar.c ****     if(calendar == NULL) return NULL;
 1825              		.loc 1 88 5 view .LVU507
 1826 000a FFF7FEFF 		bl	lv_debug_check_null
 1827              	.LVL211:
  88:lvgl/src/lv_widgets/lv_calendar.c ****     if(calendar == NULL) return NULL;
 1828              		.loc 1 88 5 is_stmt 0 view .LVU508
 1829 000e 0028     		cmp	r0, #0
 1830 0010 79D0     		beq	.L110
  88:lvgl/src/lv_widgets/lv_calendar.c ****     if(calendar == NULL) return NULL;
 1831              		.loc 1 88 28 is_stmt 1 discriminator 2 view .LVU509
  89:lvgl/src/lv_widgets/lv_calendar.c **** 
 1832              		.loc 1 89 5 discriminator 2 view .LVU510
  89:lvgl/src/lv_widgets/lv_calendar.c **** 
 1833              		.loc 1 89 7 is_stmt 0 discriminator 2 view .LVU511
 1834 0012 002D     		cmp	r5, #0
 1835 0014 75D0     		beq	.L99
  92:lvgl/src/lv_widgets/lv_calendar.c ****     LV_ASSERT_MEM(ext);
 1836              		.loc 1 92 5 is_stmt 1 view .LVU512
  92:lvgl/src/lv_widgets/lv_calendar.c ****     LV_ASSERT_MEM(ext);
 1837              		.loc 1 92 31 is_stmt 0 view .LVU513
 1838 0016 3421     		movs	r1, #52
 1839 0018 2846     		mov	r0, r5
ARM GAS  D:\Temp\cclvo1nc.s 			page 65


 1840 001a FFF7FEFF 		bl	lv_obj_allocate_ext_attr
 1841              	.LVL212:
 1842 001e 0446     		mov	r4, r0
 1843              	.LVL213:
  93:lvgl/src/lv_widgets/lv_calendar.c ****     if(ext == NULL) {
 1844              		.loc 1 93 5 is_stmt 1 view .LVU514
  93:lvgl/src/lv_widgets/lv_calendar.c ****     if(ext == NULL) {
 1845              		.loc 1 93 5 view .LVU515
 1846 0020 FFF7FEFF 		bl	lv_debug_check_null
 1847              	.LVL214:
  93:lvgl/src/lv_widgets/lv_calendar.c ****     if(ext == NULL) {
 1848              		.loc 1 93 5 is_stmt 0 view .LVU516
 1849 0024 0028     		cmp	r0, #0
 1850 0026 74D0     		beq	.L111
  93:lvgl/src/lv_widgets/lv_calendar.c ****     if(ext == NULL) {
 1851              		.loc 1 93 23 is_stmt 1 discriminator 2 view .LVU517
  94:lvgl/src/lv_widgets/lv_calendar.c ****         lv_obj_del(calendar);
 1852              		.loc 1 94 5 discriminator 2 view .LVU518
  94:lvgl/src/lv_widgets/lv_calendar.c ****         lv_obj_del(calendar);
 1853              		.loc 1 94 7 is_stmt 0 discriminator 2 view .LVU519
 1854 0028 002C     		cmp	r4, #0
 1855 002a 78D0     		beq	.L112
  99:lvgl/src/lv_widgets/lv_calendar.c ****     if(ancestor_design == NULL) ancestor_design = lv_obj_get_design_cb(calendar);
 1856              		.loc 1 99 5 is_stmt 1 view .LVU520
  99:lvgl/src/lv_widgets/lv_calendar.c ****     if(ancestor_design == NULL) ancestor_design = lv_obj_get_design_cb(calendar);
 1857              		.loc 1 99 24 is_stmt 0 view .LVU521
 1858 002c 494B     		ldr	r3, .L116
 1859 002e 1B68     		ldr	r3, [r3]
  99:lvgl/src/lv_widgets/lv_calendar.c ****     if(ancestor_design == NULL) ancestor_design = lv_obj_get_design_cb(calendar);
 1860              		.loc 1 99 7 view .LVU522
 1861 0030 002B     		cmp	r3, #0
 1862 0032 79D0     		beq	.L113
 1863              	.L106:
 100:lvgl/src/lv_widgets/lv_calendar.c **** 
 1864              		.loc 1 100 5 is_stmt 1 view .LVU523
 100:lvgl/src/lv_widgets/lv_calendar.c **** 
 1865              		.loc 1 100 24 is_stmt 0 view .LVU524
 1866 0034 484B     		ldr	r3, .L116+4
 1867 0036 1B68     		ldr	r3, [r3]
 100:lvgl/src/lv_widgets/lv_calendar.c **** 
 1868              		.loc 1 100 7 view .LVU525
 1869 0038 002B     		cmp	r3, #0
 1870 003a 7BD0     		beq	.L114
 1871              	.L107:
 103:lvgl/src/lv_widgets/lv_calendar.c ****     ext->today.month = 1;
 1872              		.loc 1 103 5 is_stmt 1 view .LVU526
 103:lvgl/src/lv_widgets/lv_calendar.c ****     ext->today.month = 1;
 1873              		.loc 1 103 22 is_stmt 0 view .LVU527
 1874 003c 40F2E472 		movw	r2, #2020
 1875 0040 2280     		strh	r2, [r4]	@ movhi
 104:lvgl/src/lv_widgets/lv_calendar.c ****     ext->today.day   = 1;
 1876              		.loc 1 104 5 is_stmt 1 view .LVU528
 104:lvgl/src/lv_widgets/lv_calendar.c ****     ext->today.day   = 1;
 1877              		.loc 1 104 22 is_stmt 0 view .LVU529
 1878 0042 0123     		movs	r3, #1
 1879 0044 A370     		strb	r3, [r4, #2]
 105:lvgl/src/lv_widgets/lv_calendar.c **** 
ARM GAS  D:\Temp\cclvo1nc.s 			page 66


 1880              		.loc 1 105 5 is_stmt 1 view .LVU530
 105:lvgl/src/lv_widgets/lv_calendar.c **** 
 1881              		.loc 1 105 22 is_stmt 0 view .LVU531
 1882 0046 E370     		strb	r3, [r4, #3]
 107:lvgl/src/lv_widgets/lv_calendar.c ****     ext->showed_date.month = 1;
 1883              		.loc 1 107 5 is_stmt 1 view .LVU532
 107:lvgl/src/lv_widgets/lv_calendar.c ****     ext->showed_date.month = 1;
 1884              		.loc 1 107 28 is_stmt 0 view .LVU533
 1885 0048 A280     		strh	r2, [r4, #4]	@ movhi
 108:lvgl/src/lv_widgets/lv_calendar.c ****     ext->showed_date.day   = 1;
 1886              		.loc 1 108 5 is_stmt 1 view .LVU534
 108:lvgl/src/lv_widgets/lv_calendar.c ****     ext->showed_date.day   = 1;
 1887              		.loc 1 108 28 is_stmt 0 view .LVU535
 1888 004a A371     		strb	r3, [r4, #6]
 109:lvgl/src/lv_widgets/lv_calendar.c **** 
 1889              		.loc 1 109 5 is_stmt 1 view .LVU536
 109:lvgl/src/lv_widgets/lv_calendar.c **** 
 1890              		.loc 1 109 28 is_stmt 0 view .LVU537
 1891 004c E371     		strb	r3, [r4, #7]
 111:lvgl/src/lv_widgets/lv_calendar.c ****     ext->pressed_date.month = 0;
 1892              		.loc 1 111 5 is_stmt 1 view .LVU538
 111:lvgl/src/lv_widgets/lv_calendar.c ****     ext->pressed_date.month = 0;
 1893              		.loc 1 111 29 is_stmt 0 view .LVU539
 1894 004e 0023     		movs	r3, #0
 1895 0050 2382     		strh	r3, [r4, #16]	@ movhi
 112:lvgl/src/lv_widgets/lv_calendar.c ****     ext->pressed_date.day   = 0;
 1896              		.loc 1 112 5 is_stmt 1 view .LVU540
 112:lvgl/src/lv_widgets/lv_calendar.c ****     ext->pressed_date.day   = 0;
 1897              		.loc 1 112 29 is_stmt 0 view .LVU541
 1898 0052 A374     		strb	r3, [r4, #18]
 113:lvgl/src/lv_widgets/lv_calendar.c **** 
 1899              		.loc 1 113 5 is_stmt 1 view .LVU542
 113:lvgl/src/lv_widgets/lv_calendar.c **** 
 1900              		.loc 1 113 29 is_stmt 0 view .LVU543
 1901 0054 E374     		strb	r3, [r4, #19]
 115:lvgl/src/lv_widgets/lv_calendar.c ****     ext->highlighted_dates_num  = 0;
 1902              		.loc 1 115 5 is_stmt 1 view .LVU544
 115:lvgl/src/lv_widgets/lv_calendar.c ****     ext->highlighted_dates_num  = 0;
 1903              		.loc 1 115 33 is_stmt 0 view .LVU545
 1904 0056 A360     		str	r3, [r4, #8]
 116:lvgl/src/lv_widgets/lv_calendar.c ****     ext->day_names              = NULL;
 1905              		.loc 1 116 5 is_stmt 1 view .LVU546
 116:lvgl/src/lv_widgets/lv_calendar.c ****     ext->day_names              = NULL;
 1906              		.loc 1 116 33 is_stmt 0 view .LVU547
 1907 0058 E381     		strh	r3, [r4, #14]	@ movhi
 117:lvgl/src/lv_widgets/lv_calendar.c ****     ext->month_names            = NULL;
 1908              		.loc 1 117 5 is_stmt 1 view .LVU548
 117:lvgl/src/lv_widgets/lv_calendar.c ****     ext->month_names            = NULL;
 1909              		.loc 1 117 33 is_stmt 0 view .LVU549
 1910 005a 6361     		str	r3, [r4, #20]
 118:lvgl/src/lv_widgets/lv_calendar.c **** 
 1911              		.loc 1 118 5 is_stmt 1 view .LVU550
 118:lvgl/src/lv_widgets/lv_calendar.c **** 
 1912              		.loc 1 118 33 is_stmt 0 view .LVU551
 1913 005c A361     		str	r3, [r4, #24]
 120:lvgl/src/lv_widgets/lv_calendar.c **** 
 1914              		.loc 1 120 5 is_stmt 1 view .LVU552
ARM GAS  D:\Temp\cclvo1nc.s 			page 67


 120:lvgl/src/lv_widgets/lv_calendar.c **** 
 1915              		.loc 1 120 23 is_stmt 0 view .LVU553
 1916 005e 2373     		strb	r3, [r4, #12]
 122:lvgl/src/lv_widgets/lv_calendar.c ****     lv_style_list_init(&ext->style_day_names);
 1917              		.loc 1 122 5 is_stmt 1 view .LVU554
 1918 0060 04F12C00 		add	r0, r4, #44
 1919 0064 FFF7FEFF 		bl	lv_style_list_init
 1920              	.LVL215:
 123:lvgl/src/lv_widgets/lv_calendar.c ****     lv_style_list_init(&ext->style_header);
 1921              		.loc 1 123 5 view .LVU555
 1922 0068 04F12400 		add	r0, r4, #36
 1923 006c FFF7FEFF 		bl	lv_style_list_init
 1924              	.LVL216:
 124:lvgl/src/lv_widgets/lv_calendar.c ****     ext->style_date_nums.skip_trans = 1;
 1925              		.loc 1 124 5 view .LVU556
 1926 0070 04F11C00 		add	r0, r4, #28
 1927 0074 FFF7FEFF 		bl	lv_style_list_init
 1928              	.LVL217:
 125:lvgl/src/lv_widgets/lv_calendar.c ****     ext->style_day_names.skip_trans = 1;
 1929              		.loc 1 125 5 view .LVU557
 125:lvgl/src/lv_widgets/lv_calendar.c ****     ext->style_day_names.skip_trans = 1;
 1930              		.loc 1 125 37 is_stmt 0 view .LVU558
 1931 0078 94F83130 		ldrb	r3, [r4, #49]	@ zero_extendqisi2
 1932 007c 43F00103 		orr	r3, r3, #1
 1933 0080 84F83130 		strb	r3, [r4, #49]
 126:lvgl/src/lv_widgets/lv_calendar.c ****     ext->style_header.skip_trans = 1;
 1934              		.loc 1 126 5 is_stmt 1 view .LVU559
 126:lvgl/src/lv_widgets/lv_calendar.c ****     ext->style_header.skip_trans = 1;
 1935              		.loc 1 126 37 is_stmt 0 view .LVU560
 1936 0084 94F82930 		ldrb	r3, [r4, #41]	@ zero_extendqisi2
 1937 0088 43F00103 		orr	r3, r3, #1
 1938 008c 84F82930 		strb	r3, [r4, #41]
 127:lvgl/src/lv_widgets/lv_calendar.c **** 
 1939              		.loc 1 127 5 is_stmt 1 view .LVU561
 127:lvgl/src/lv_widgets/lv_calendar.c **** 
 1940              		.loc 1 127 34 is_stmt 0 view .LVU562
 1941 0090 94F82130 		ldrb	r3, [r4, #33]	@ zero_extendqisi2
 1942 0094 43F00103 		orr	r3, r3, #1
 1943 0098 84F82130 		strb	r3, [r4, #33]
 130:lvgl/src/lv_widgets/lv_calendar.c ****     lv_obj_set_design_cb(calendar, lv_calendar_design);
 1944              		.loc 1 130 5 is_stmt 1 view .LVU563
 1945 009c 2F49     		ldr	r1, .L116+8
 1946 009e 2846     		mov	r0, r5
 1947 00a0 FFF7FEFF 		bl	lv_obj_set_signal_cb
 1948              	.LVL218:
 131:lvgl/src/lv_widgets/lv_calendar.c **** 
 1949              		.loc 1 131 5 view .LVU564
 1950 00a4 2E49     		ldr	r1, .L116+12
 1951 00a6 2846     		mov	r0, r5
 1952 00a8 FFF7FEFF 		bl	lv_obj_set_design_cb
 1953              	.LVL219:
 134:lvgl/src/lv_widgets/lv_calendar.c ****         lv_theme_apply(calendar, LV_THEME_CALENDAR);
 1954              		.loc 1 134 5 view .LVU565
 134:lvgl/src/lv_widgets/lv_calendar.c ****         lv_theme_apply(calendar, LV_THEME_CALENDAR);
 1955              		.loc 1 134 7 is_stmt 0 view .LVU566
 1956 00ac 002E     		cmp	r6, #0
 1957 00ae 47D0     		beq	.L115
ARM GAS  D:\Temp\cclvo1nc.s 			page 68


 1958              	.LBB164:
 142:lvgl/src/lv_widgets/lv_calendar.c ****         ext->today.year              = copy_ext->today.year;
 1959              		.loc 1 142 9 is_stmt 1 view .LVU567
 142:lvgl/src/lv_widgets/lv_calendar.c ****         ext->today.year              = copy_ext->today.year;
 1960              		.loc 1 142 40 is_stmt 0 view .LVU568
 1961 00b0 3046     		mov	r0, r6
 1962 00b2 FFF7FEFF 		bl	lv_obj_get_ext_attr
 1963              	.LVL220:
 1964 00b6 0346     		mov	r3, r0
 1965              	.LVL221:
 143:lvgl/src/lv_widgets/lv_calendar.c ****         ext->today.month             = copy_ext->today.month;
 1966              		.loc 1 143 9 is_stmt 1 view .LVU569
 143:lvgl/src/lv_widgets/lv_calendar.c ****         ext->today.month             = copy_ext->today.month;
 1967              		.loc 1 143 55 is_stmt 0 view .LVU570
 1968 00b8 0288     		ldrh	r2, [r0]
 143:lvgl/src/lv_widgets/lv_calendar.c ****         ext->today.month             = copy_ext->today.month;
 1969              		.loc 1 143 38 view .LVU571
 1970 00ba 2280     		strh	r2, [r4]	@ movhi
 144:lvgl/src/lv_widgets/lv_calendar.c ****         ext->today.day               = copy_ext->today.day;
 1971              		.loc 1 144 9 is_stmt 1 view .LVU572
 144:lvgl/src/lv_widgets/lv_calendar.c ****         ext->today.day               = copy_ext->today.day;
 1972              		.loc 1 144 55 is_stmt 0 view .LVU573
 1973 00bc 90F90220 		ldrsb	r2, [r0, #2]
 144:lvgl/src/lv_widgets/lv_calendar.c ****         ext->today.day               = copy_ext->today.day;
 1974              		.loc 1 144 38 view .LVU574
 1975 00c0 A270     		strb	r2, [r4, #2]
 145:lvgl/src/lv_widgets/lv_calendar.c **** 
 1976              		.loc 1 145 9 is_stmt 1 view .LVU575
 145:lvgl/src/lv_widgets/lv_calendar.c **** 
 1977              		.loc 1 145 55 is_stmt 0 view .LVU576
 1978 00c2 90F90320 		ldrsb	r2, [r0, #3]
 145:lvgl/src/lv_widgets/lv_calendar.c **** 
 1979              		.loc 1 145 38 view .LVU577
 1980 00c6 E270     		strb	r2, [r4, #3]
 147:lvgl/src/lv_widgets/lv_calendar.c ****         ext->showed_date.month = copy_ext->showed_date.month;
 1981              		.loc 1 147 9 is_stmt 1 view .LVU578
 147:lvgl/src/lv_widgets/lv_calendar.c ****         ext->showed_date.month = copy_ext->showed_date.month;
 1982              		.loc 1 147 55 is_stmt 0 view .LVU579
 1983 00c8 8288     		ldrh	r2, [r0, #4]
 147:lvgl/src/lv_widgets/lv_calendar.c ****         ext->showed_date.month = copy_ext->showed_date.month;
 1984              		.loc 1 147 32 view .LVU580
 1985 00ca A280     		strh	r2, [r4, #4]	@ movhi
 148:lvgl/src/lv_widgets/lv_calendar.c ****         ext->showed_date.day   = copy_ext->showed_date.day;
 1986              		.loc 1 148 9 is_stmt 1 view .LVU581
 148:lvgl/src/lv_widgets/lv_calendar.c ****         ext->showed_date.day   = copy_ext->showed_date.day;
 1987              		.loc 1 148 55 is_stmt 0 view .LVU582
 1988 00cc 90F90620 		ldrsb	r2, [r0, #6]
 148:lvgl/src/lv_widgets/lv_calendar.c ****         ext->showed_date.day   = copy_ext->showed_date.day;
 1989              		.loc 1 148 32 view .LVU583
 1990 00d0 A271     		strb	r2, [r4, #6]
 149:lvgl/src/lv_widgets/lv_calendar.c **** 
 1991              		.loc 1 149 9 is_stmt 1 view .LVU584
 149:lvgl/src/lv_widgets/lv_calendar.c **** 
 1992              		.loc 1 149 55 is_stmt 0 view .LVU585
 1993 00d2 90F90720 		ldrsb	r2, [r0, #7]
 149:lvgl/src/lv_widgets/lv_calendar.c **** 
 1994              		.loc 1 149 32 view .LVU586
ARM GAS  D:\Temp\cclvo1nc.s 			page 69


 1995 00d6 E271     		strb	r2, [r4, #7]
 151:lvgl/src/lv_widgets/lv_calendar.c ****         ext->highlighted_dates_num = copy_ext->highlighted_dates_num;
 1996              		.loc 1 151 9 is_stmt 1 view .LVU587
 151:lvgl/src/lv_widgets/lv_calendar.c ****         ext->highlighted_dates_num = copy_ext->highlighted_dates_num;
 1997              		.loc 1 151 46 is_stmt 0 view .LVU588
 1998 00d8 8268     		ldr	r2, [r0, #8]
 151:lvgl/src/lv_widgets/lv_calendar.c ****         ext->highlighted_dates_num = copy_ext->highlighted_dates_num;
 1999              		.loc 1 151 36 view .LVU589
 2000 00da A260     		str	r2, [r4, #8]
 152:lvgl/src/lv_widgets/lv_calendar.c ****         ext->day_names             = copy_ext->day_names;
 2001              		.loc 1 152 9 is_stmt 1 view .LVU590
 152:lvgl/src/lv_widgets/lv_calendar.c ****         ext->day_names             = copy_ext->day_names;
 2002              		.loc 1 152 46 is_stmt 0 view .LVU591
 2003 00dc C289     		ldrh	r2, [r0, #14]
 152:lvgl/src/lv_widgets/lv_calendar.c ****         ext->day_names             = copy_ext->day_names;
 2004              		.loc 1 152 36 view .LVU592
 2005 00de E281     		strh	r2, [r4, #14]	@ movhi
 153:lvgl/src/lv_widgets/lv_calendar.c **** 
 2006              		.loc 1 153 9 is_stmt 1 view .LVU593
 153:lvgl/src/lv_widgets/lv_calendar.c **** 
 2007              		.loc 1 153 46 is_stmt 0 view .LVU594
 2008 00e0 4269     		ldr	r2, [r0, #20]
 153:lvgl/src/lv_widgets/lv_calendar.c **** 
 2009              		.loc 1 153 36 view .LVU595
 2010 00e2 6261     		str	r2, [r4, #20]
 155:lvgl/src/lv_widgets/lv_calendar.c ****         ext->style_header           = copy_ext->style_header;
 2011              		.loc 1 155 9 is_stmt 1 view .LVU596
 155:lvgl/src/lv_widgets/lv_calendar.c ****         ext->style_header           = copy_ext->style_header;
 2012              		.loc 1 155 47 is_stmt 0 view .LVU597
 2013 00e4 8269     		ldr	r2, [r0, #24]
 155:lvgl/src/lv_widgets/lv_calendar.c ****         ext->style_header           = copy_ext->style_header;
 2014              		.loc 1 155 37 view .LVU598
 2015 00e6 A261     		str	r2, [r4, #24]
 156:lvgl/src/lv_widgets/lv_calendar.c ****         ext->style_day_names        = copy_ext->style_day_names;
 2016              		.loc 1 156 9 is_stmt 1 view .LVU599
 156:lvgl/src/lv_widgets/lv_calendar.c ****         ext->style_day_names        = copy_ext->style_day_names;
 2017              		.loc 1 156 37 is_stmt 0 view .LVU600
 2018 00e8 04F11C02 		add	r2, r4, #28
 2019 00ec 00F11C01 		add	r1, r0, #28
 2020 00f0 03C9     		ldm	r1, {r0, r1}
 2021              	.LVL222:
 156:lvgl/src/lv_widgets/lv_calendar.c ****         ext->style_day_names        = copy_ext->style_day_names;
 2022              		.loc 1 156 37 view .LVU601
 2023 00f2 82E80300 		stm	r2, {r0, r1}
 157:lvgl/src/lv_widgets/lv_calendar.c ****         /*Refresh the style with new signal function*/
 2024              		.loc 1 157 9 is_stmt 1 view .LVU602
 157:lvgl/src/lv_widgets/lv_calendar.c ****         /*Refresh the style with new signal function*/
 2025              		.loc 1 157 37 is_stmt 0 view .LVU603
 2026 00f6 2434     		adds	r4, r4, #36
 2027              	.LVL223:
 157:lvgl/src/lv_widgets/lv_calendar.c ****         /*Refresh the style with new signal function*/
 2028              		.loc 1 157 37 view .LVU604
 2029 00f8 2433     		adds	r3, r3, #36
 2030              	.LVL224:
 157:lvgl/src/lv_widgets/lv_calendar.c ****         /*Refresh the style with new signal function*/
 2031              		.loc 1 157 37 view .LVU605
 2032 00fa 93E80300 		ldm	r3, {r0, r1}
ARM GAS  D:\Temp\cclvo1nc.s 			page 70


 2033 00fe 84E80300 		stm	r4, {r0, r1}
 2034              	.LVL225:
 2035              	.L99:
 157:lvgl/src/lv_widgets/lv_calendar.c ****         /*Refresh the style with new signal function*/
 2036              		.loc 1 157 37 view .LVU606
 2037              	.LBE164:
 165:lvgl/src/lv_widgets/lv_calendar.c **** 
 2038              		.loc 1 165 1 view .LVU607
 2039 0102 2846     		mov	r0, r5
 2040 0104 70BD     		pop	{r4, r5, r6, pc}
 2041              	.LVL226:
 2042              	.L110:
  88:lvgl/src/lv_widgets/lv_calendar.c ****     if(calendar == NULL) return NULL;
 2043              		.loc 1 88 5 is_stmt 1 discriminator 1 view .LVU608
  88:lvgl/src/lv_widgets/lv_calendar.c ****     if(calendar == NULL) return NULL;
 2044              		.loc 1 88 5 discriminator 1 view .LVU609
 2045 0106 2A46     		mov	r2, r5
 2046 0108 0023     		movs	r3, #0
 2047 010a 1648     		ldr	r0, .L116+16
 2048 010c FFF7FEFF 		bl	lv_debug_log_error
 2049              	.LVL227:
 2050              	.L101:
  88:lvgl/src/lv_widgets/lv_calendar.c ****     if(calendar == NULL) return NULL;
 2051              		.loc 1 88 5 discriminator 1 view .LVU610
  88:lvgl/src/lv_widgets/lv_calendar.c ****     if(calendar == NULL) return NULL;
 2052              		.loc 1 88 5 discriminator 1 view .LVU611
 2053 0110 FEE7     		b	.L101
 2054              	.LVL228:
 2055              	.L111:
  93:lvgl/src/lv_widgets/lv_calendar.c ****     if(ext == NULL) {
 2056              		.loc 1 93 5 discriminator 1 view .LVU612
  93:lvgl/src/lv_widgets/lv_calendar.c ****     if(ext == NULL) {
 2057              		.loc 1 93 5 discriminator 1 view .LVU613
 2058 0112 2246     		mov	r2, r4
 2059 0114 0023     		movs	r3, #0
 2060 0116 1348     		ldr	r0, .L116+16
 2061 0118 FFF7FEFF 		bl	lv_debug_log_error
 2062              	.LVL229:
 2063              	.L104:
  93:lvgl/src/lv_widgets/lv_calendar.c ****     if(ext == NULL) {
 2064              		.loc 1 93 5 discriminator 2 view .LVU614
  93:lvgl/src/lv_widgets/lv_calendar.c ****     if(ext == NULL) {
 2065              		.loc 1 93 5 discriminator 2 view .LVU615
 2066 011c FEE7     		b	.L104
 2067              	.L112:
  95:lvgl/src/lv_widgets/lv_calendar.c ****         return NULL;
 2068              		.loc 1 95 9 view .LVU616
 2069 011e 2846     		mov	r0, r5
 2070 0120 FFF7FEFF 		bl	lv_obj_del
 2071              	.LVL230:
  96:lvgl/src/lv_widgets/lv_calendar.c ****     }
 2072              		.loc 1 96 9 view .LVU617
  96:lvgl/src/lv_widgets/lv_calendar.c ****     }
 2073              		.loc 1 96 16 is_stmt 0 view .LVU618
 2074 0124 0025     		movs	r5, #0
 2075              	.LVL231:
  96:lvgl/src/lv_widgets/lv_calendar.c ****     }
ARM GAS  D:\Temp\cclvo1nc.s 			page 71


 2076              		.loc 1 96 16 view .LVU619
 2077 0126 ECE7     		b	.L99
 2078              	.LVL232:
 2079              	.L113:
  99:lvgl/src/lv_widgets/lv_calendar.c ****     if(ancestor_design == NULL) ancestor_design = lv_obj_get_design_cb(calendar);
 2080              		.loc 1 99 33 is_stmt 1 discriminator 1 view .LVU620
  99:lvgl/src/lv_widgets/lv_calendar.c ****     if(ancestor_design == NULL) ancestor_design = lv_obj_get_design_cb(calendar);
 2081              		.loc 1 99 51 is_stmt 0 discriminator 1 view .LVU621
 2082 0128 2846     		mov	r0, r5
 2083 012a FFF7FEFF 		bl	lv_obj_get_signal_cb
 2084              	.LVL233:
  99:lvgl/src/lv_widgets/lv_calendar.c ****     if(ancestor_design == NULL) ancestor_design = lv_obj_get_design_cb(calendar);
 2085              		.loc 1 99 49 discriminator 1 view .LVU622
 2086 012e 094B     		ldr	r3, .L116
 2087 0130 1860     		str	r0, [r3]
 2088 0132 7FE7     		b	.L106
 2089              	.L114:
 100:lvgl/src/lv_widgets/lv_calendar.c **** 
 2090              		.loc 1 100 33 is_stmt 1 discriminator 1 view .LVU623
 100:lvgl/src/lv_widgets/lv_calendar.c **** 
 2091              		.loc 1 100 51 is_stmt 0 discriminator 1 view .LVU624
 2092 0134 2846     		mov	r0, r5
 2093 0136 FFF7FEFF 		bl	lv_obj_get_design_cb
 2094              	.LVL234:
 100:lvgl/src/lv_widgets/lv_calendar.c **** 
 2095              		.loc 1 100 49 discriminator 1 view .LVU625
 2096 013a 074B     		ldr	r3, .L116+4
 2097 013c 1860     		str	r0, [r3]
 2098 013e 7DE7     		b	.L107
 2099              	.L115:
 135:lvgl/src/lv_widgets/lv_calendar.c **** 
 2100              		.loc 1 135 9 is_stmt 1 view .LVU626
 2101 0140 0721     		movs	r1, #7
 2102 0142 2846     		mov	r0, r5
 2103 0144 FFF7FEFF 		bl	lv_theme_apply
 2104              	.LVL235:
 137:lvgl/src/lv_widgets/lv_calendar.c **** 
 2105              		.loc 1 137 9 view .LVU627
 2106 0148 C822     		movs	r2, #200
 2107 014a 1146     		mov	r1, r2
 2108 014c 2846     		mov	r0, r5
 2109 014e FFF7FEFF 		bl	lv_obj_set_size
 2110              	.LVL236:
 2111 0152 D6E7     		b	.L99
 2112              	.L117:
 2113              		.align	2
 2114              	.L116:
 2115 0154 00000000 		.word	.LANCHOR2
 2116 0158 00000000 		.word	.LANCHOR3
 2117 015c 00000000 		.word	lv_calendar_signal
 2118 0160 00000000 		.word	lv_calendar_design
 2119 0164 00000000 		.word	.LC3
 2120              		.cfi_endproc
 2121              	.LFE458:
 2123              		.section	.text.lv_calendar_set_today_date,"ax",%progbits
 2124              		.align	1
 2125              		.global	lv_calendar_set_today_date
ARM GAS  D:\Temp\cclvo1nc.s 			page 72


 2126              		.syntax unified
 2127              		.thumb
 2128              		.thumb_func
 2129              		.fpu fpv4-sp-d16
 2131              	lv_calendar_set_today_date:
 2132              	.LVL237:
 2133              	.LFB459:
 186:lvgl/src/lv_widgets/lv_calendar.c ****     LV_ASSERT_OBJ(calendar, LV_OBJX_NAME);
 2134              		.loc 1 186 1 view -0
 2135              		.cfi_startproc
 2136              		@ args = 0, pretend = 0, frame = 0
 2137              		@ frame_needed = 0, uses_anonymous_args = 0
 186:lvgl/src/lv_widgets/lv_calendar.c ****     LV_ASSERT_OBJ(calendar, LV_OBJX_NAME);
 2138              		.loc 1 186 1 is_stmt 0 view .LVU629
 2139 0000 38B5     		push	{r3, r4, r5, lr}
 2140              	.LCFI16:
 2141              		.cfi_def_cfa_offset 16
 2142              		.cfi_offset 3, -16
 2143              		.cfi_offset 4, -12
 2144              		.cfi_offset 5, -8
 2145              		.cfi_offset 14, -4
 2146 0002 0546     		mov	r5, r0
 2147 0004 0C46     		mov	r4, r1
 187:lvgl/src/lv_widgets/lv_calendar.c ****     LV_ASSERT_NULL(today);
 2148              		.loc 1 187 5 is_stmt 1 view .LVU630
 187:lvgl/src/lv_widgets/lv_calendar.c ****     LV_ASSERT_NULL(today);
 2149              		.loc 1 187 5 view .LVU631
 2150 0006 FFF7FEFF 		bl	lv_debug_check_null
 2151              	.LVL238:
 187:lvgl/src/lv_widgets/lv_calendar.c ****     LV_ASSERT_NULL(today);
 2152              		.loc 1 187 5 is_stmt 0 view .LVU632
 2153 000a 28B9     		cbnz	r0, .L119
 187:lvgl/src/lv_widgets/lv_calendar.c ****     LV_ASSERT_NULL(today);
 2154              		.loc 1 187 5 is_stmt 1 discriminator 1 view .LVU633
 187:lvgl/src/lv_widgets/lv_calendar.c ****     LV_ASSERT_NULL(today);
 2155              		.loc 1 187 5 discriminator 1 view .LVU634
 2156 000c 2A46     		mov	r2, r5
 2157 000e 0023     		movs	r3, #0
 2158 0010 0E48     		ldr	r0, .L124
 2159 0012 FFF7FEFF 		bl	lv_debug_log_error
 2160              	.LVL239:
 2161              	.L120:
 187:lvgl/src/lv_widgets/lv_calendar.c ****     LV_ASSERT_NULL(today);
 2162              		.loc 1 187 5 discriminator 1 view .LVU635
 187:lvgl/src/lv_widgets/lv_calendar.c ****     LV_ASSERT_NULL(today);
 2163              		.loc 1 187 5 discriminator 1 view .LVU636
 2164 0016 FEE7     		b	.L120
 2165              	.L119:
 187:lvgl/src/lv_widgets/lv_calendar.c ****     LV_ASSERT_NULL(today);
 2166              		.loc 1 187 42 discriminator 2 view .LVU637
 188:lvgl/src/lv_widgets/lv_calendar.c **** 
 2167              		.loc 1 188 5 discriminator 2 view .LVU638
 188:lvgl/src/lv_widgets/lv_calendar.c **** 
 2168              		.loc 1 188 5 discriminator 2 view .LVU639
 2169 0018 2046     		mov	r0, r4
 2170 001a FFF7FEFF 		bl	lv_debug_check_null
 2171              	.LVL240:
ARM GAS  D:\Temp\cclvo1nc.s 			page 73


 2172 001e 28B9     		cbnz	r0, .L121
 188:lvgl/src/lv_widgets/lv_calendar.c **** 
 2173              		.loc 1 188 5 discriminator 1 view .LVU640
 188:lvgl/src/lv_widgets/lv_calendar.c **** 
 2174              		.loc 1 188 5 discriminator 1 view .LVU641
 2175 0020 2246     		mov	r2, r4
 2176 0022 0023     		movs	r3, #0
 2177 0024 0948     		ldr	r0, .L124
 2178 0026 FFF7FEFF 		bl	lv_debug_log_error
 2179              	.LVL241:
 2180              	.L122:
 188:lvgl/src/lv_widgets/lv_calendar.c **** 
 2181              		.loc 1 188 5 discriminator 2 view .LVU642
 188:lvgl/src/lv_widgets/lv_calendar.c **** 
 2182              		.loc 1 188 5 discriminator 2 view .LVU643
 2183 002a FEE7     		b	.L122
 2184              	.L121:
 188:lvgl/src/lv_widgets/lv_calendar.c **** 
 2185              		.loc 1 188 26 discriminator 2 view .LVU644
 190:lvgl/src/lv_widgets/lv_calendar.c ****     ext->today.year         = today->year;
 2186              		.loc 1 190 5 discriminator 2 view .LVU645
 190:lvgl/src/lv_widgets/lv_calendar.c ****     ext->today.year         = today->year;
 2187              		.loc 1 190 31 is_stmt 0 discriminator 2 view .LVU646
 2188 002c 2846     		mov	r0, r5
 2189 002e FFF7FEFF 		bl	lv_obj_get_ext_attr
 2190              	.LVL242:
 191:lvgl/src/lv_widgets/lv_calendar.c ****     ext->today.month        = today->month;
 2191              		.loc 1 191 5 is_stmt 1 discriminator 2 view .LVU647
 191:lvgl/src/lv_widgets/lv_calendar.c ****     ext->today.month        = today->month;
 2192              		.loc 1 191 36 is_stmt 0 discriminator 2 view .LVU648
 2193 0032 2388     		ldrh	r3, [r4]
 191:lvgl/src/lv_widgets/lv_calendar.c ****     ext->today.month        = today->month;
 2194              		.loc 1 191 29 discriminator 2 view .LVU649
 2195 0034 0380     		strh	r3, [r0]	@ movhi
 192:lvgl/src/lv_widgets/lv_calendar.c ****     ext->today.day          = today->day;
 2196              		.loc 1 192 5 is_stmt 1 discriminator 2 view .LVU650
 192:lvgl/src/lv_widgets/lv_calendar.c ****     ext->today.day          = today->day;
 2197              		.loc 1 192 36 is_stmt 0 discriminator 2 view .LVU651
 2198 0036 94F90230 		ldrsb	r3, [r4, #2]
 192:lvgl/src/lv_widgets/lv_calendar.c ****     ext->today.day          = today->day;
 2199              		.loc 1 192 29 discriminator 2 view .LVU652
 2200 003a 8370     		strb	r3, [r0, #2]
 193:lvgl/src/lv_widgets/lv_calendar.c **** 
 2201              		.loc 1 193 5 is_stmt 1 discriminator 2 view .LVU653
 193:lvgl/src/lv_widgets/lv_calendar.c **** 
 2202              		.loc 1 193 36 is_stmt 0 discriminator 2 view .LVU654
 2203 003c 94F90330 		ldrsb	r3, [r4, #3]
 193:lvgl/src/lv_widgets/lv_calendar.c **** 
 2204              		.loc 1 193 29 discriminator 2 view .LVU655
 2205 0040 C370     		strb	r3, [r0, #3]
 195:lvgl/src/lv_widgets/lv_calendar.c **** }
 2206              		.loc 1 195 5 is_stmt 1 discriminator 2 view .LVU656
 2207 0042 2846     		mov	r0, r5
 2208              	.LVL243:
 195:lvgl/src/lv_widgets/lv_calendar.c **** }
 2209              		.loc 1 195 5 is_stmt 0 discriminator 2 view .LVU657
 2210 0044 FFF7FEFF 		bl	lv_obj_invalidate
ARM GAS  D:\Temp\cclvo1nc.s 			page 74


 2211              	.LVL244:
 196:lvgl/src/lv_widgets/lv_calendar.c **** 
 2212              		.loc 1 196 1 discriminator 2 view .LVU658
 2213 0048 38BD     		pop	{r3, r4, r5, pc}
 2214              	.LVL245:
 2215              	.L125:
 196:lvgl/src/lv_widgets/lv_calendar.c **** 
 2216              		.loc 1 196 1 discriminator 2 view .LVU659
 2217 004a 00BF     		.align	2
 2218              	.L124:
 2219 004c 00000000 		.word	.LC0
 2220              		.cfi_endproc
 2221              	.LFE459:
 2223              		.section	.text.lv_calendar_set_showed_date,"ax",%progbits
 2224              		.align	1
 2225              		.global	lv_calendar_set_showed_date
 2226              		.syntax unified
 2227              		.thumb
 2228              		.thumb_func
 2229              		.fpu fpv4-sp-d16
 2231              	lv_calendar_set_showed_date:
 2232              	.LVL246:
 2233              	.LFB460:
 205:lvgl/src/lv_widgets/lv_calendar.c ****     LV_ASSERT_OBJ(calendar, LV_OBJX_NAME);
 2234              		.loc 1 205 1 is_stmt 1 view -0
 2235              		.cfi_startproc
 2236              		@ args = 0, pretend = 0, frame = 0
 2237              		@ frame_needed = 0, uses_anonymous_args = 0
 205:lvgl/src/lv_widgets/lv_calendar.c ****     LV_ASSERT_OBJ(calendar, LV_OBJX_NAME);
 2238              		.loc 1 205 1 is_stmt 0 view .LVU661
 2239 0000 38B5     		push	{r3, r4, r5, lr}
 2240              	.LCFI17:
 2241              		.cfi_def_cfa_offset 16
 2242              		.cfi_offset 3, -16
 2243              		.cfi_offset 4, -12
 2244              		.cfi_offset 5, -8
 2245              		.cfi_offset 14, -4
 2246 0002 0546     		mov	r5, r0
 2247 0004 0C46     		mov	r4, r1
 206:lvgl/src/lv_widgets/lv_calendar.c ****     LV_ASSERT_NULL(showed);
 2248              		.loc 1 206 5 is_stmt 1 view .LVU662
 206:lvgl/src/lv_widgets/lv_calendar.c ****     LV_ASSERT_NULL(showed);
 2249              		.loc 1 206 5 view .LVU663
 2250 0006 FFF7FEFF 		bl	lv_debug_check_null
 2251              	.LVL247:
 206:lvgl/src/lv_widgets/lv_calendar.c ****     LV_ASSERT_NULL(showed);
 2252              		.loc 1 206 5 is_stmt 0 view .LVU664
 2253 000a 28B9     		cbnz	r0, .L127
 206:lvgl/src/lv_widgets/lv_calendar.c ****     LV_ASSERT_NULL(showed);
 2254              		.loc 1 206 5 is_stmt 1 discriminator 1 view .LVU665
 206:lvgl/src/lv_widgets/lv_calendar.c ****     LV_ASSERT_NULL(showed);
 2255              		.loc 1 206 5 discriminator 1 view .LVU666
 2256 000c 2A46     		mov	r2, r5
 2257 000e 0023     		movs	r3, #0
 2258 0010 0E48     		ldr	r0, .L132
 2259 0012 FFF7FEFF 		bl	lv_debug_log_error
 2260              	.LVL248:
ARM GAS  D:\Temp\cclvo1nc.s 			page 75


 2261              	.L128:
 206:lvgl/src/lv_widgets/lv_calendar.c ****     LV_ASSERT_NULL(showed);
 2262              		.loc 1 206 5 discriminator 1 view .LVU667
 206:lvgl/src/lv_widgets/lv_calendar.c ****     LV_ASSERT_NULL(showed);
 2263              		.loc 1 206 5 discriminator 1 view .LVU668
 2264 0016 FEE7     		b	.L128
 2265              	.L127:
 206:lvgl/src/lv_widgets/lv_calendar.c ****     LV_ASSERT_NULL(showed);
 2266              		.loc 1 206 42 discriminator 2 view .LVU669
 207:lvgl/src/lv_widgets/lv_calendar.c **** 
 2267              		.loc 1 207 5 discriminator 2 view .LVU670
 207:lvgl/src/lv_widgets/lv_calendar.c **** 
 2268              		.loc 1 207 5 discriminator 2 view .LVU671
 2269 0018 2046     		mov	r0, r4
 2270 001a FFF7FEFF 		bl	lv_debug_check_null
 2271              	.LVL249:
 2272 001e 28B9     		cbnz	r0, .L129
 207:lvgl/src/lv_widgets/lv_calendar.c **** 
 2273              		.loc 1 207 5 discriminator 1 view .LVU672
 207:lvgl/src/lv_widgets/lv_calendar.c **** 
 2274              		.loc 1 207 5 discriminator 1 view .LVU673
 2275 0020 2246     		mov	r2, r4
 2276 0022 0023     		movs	r3, #0
 2277 0024 0948     		ldr	r0, .L132
 2278 0026 FFF7FEFF 		bl	lv_debug_log_error
 2279              	.LVL250:
 2280              	.L130:
 207:lvgl/src/lv_widgets/lv_calendar.c **** 
 2281              		.loc 1 207 5 discriminator 2 view .LVU674
 207:lvgl/src/lv_widgets/lv_calendar.c **** 
 2282              		.loc 1 207 5 discriminator 2 view .LVU675
 2283 002a FEE7     		b	.L130
 2284              	.L129:
 207:lvgl/src/lv_widgets/lv_calendar.c **** 
 2285              		.loc 1 207 27 discriminator 2 view .LVU676
 209:lvgl/src/lv_widgets/lv_calendar.c ****     ext->showed_date.year   = showed->year;
 2286              		.loc 1 209 5 discriminator 2 view .LVU677
 209:lvgl/src/lv_widgets/lv_calendar.c ****     ext->showed_date.year   = showed->year;
 2287              		.loc 1 209 31 is_stmt 0 discriminator 2 view .LVU678
 2288 002c 2846     		mov	r0, r5
 2289 002e FFF7FEFF 		bl	lv_obj_get_ext_attr
 2290              	.LVL251:
 210:lvgl/src/lv_widgets/lv_calendar.c ****     ext->showed_date.month  = showed->month;
 2291              		.loc 1 210 5 is_stmt 1 discriminator 2 view .LVU679
 210:lvgl/src/lv_widgets/lv_calendar.c ****     ext->showed_date.month  = showed->month;
 2292              		.loc 1 210 37 is_stmt 0 discriminator 2 view .LVU680
 2293 0032 2388     		ldrh	r3, [r4]
 210:lvgl/src/lv_widgets/lv_calendar.c ****     ext->showed_date.month  = showed->month;
 2294              		.loc 1 210 29 discriminator 2 view .LVU681
 2295 0034 8380     		strh	r3, [r0, #4]	@ movhi
 211:lvgl/src/lv_widgets/lv_calendar.c ****     ext->showed_date.day    = showed->day;
 2296              		.loc 1 211 5 is_stmt 1 discriminator 2 view .LVU682
 211:lvgl/src/lv_widgets/lv_calendar.c ****     ext->showed_date.day    = showed->day;
 2297              		.loc 1 211 37 is_stmt 0 discriminator 2 view .LVU683
 2298 0036 94F90230 		ldrsb	r3, [r4, #2]
 211:lvgl/src/lv_widgets/lv_calendar.c ****     ext->showed_date.day    = showed->day;
 2299              		.loc 1 211 29 discriminator 2 view .LVU684
ARM GAS  D:\Temp\cclvo1nc.s 			page 76


 2300 003a 8371     		strb	r3, [r0, #6]
 212:lvgl/src/lv_widgets/lv_calendar.c **** 
 2301              		.loc 1 212 5 is_stmt 1 discriminator 2 view .LVU685
 212:lvgl/src/lv_widgets/lv_calendar.c **** 
 2302              		.loc 1 212 37 is_stmt 0 discriminator 2 view .LVU686
 2303 003c 94F90330 		ldrsb	r3, [r4, #3]
 212:lvgl/src/lv_widgets/lv_calendar.c **** 
 2304              		.loc 1 212 29 discriminator 2 view .LVU687
 2305 0040 C371     		strb	r3, [r0, #7]
 214:lvgl/src/lv_widgets/lv_calendar.c **** }
 2306              		.loc 1 214 5 is_stmt 1 discriminator 2 view .LVU688
 2307 0042 2846     		mov	r0, r5
 2308              	.LVL252:
 214:lvgl/src/lv_widgets/lv_calendar.c **** }
 2309              		.loc 1 214 5 is_stmt 0 discriminator 2 view .LVU689
 2310 0044 FFF7FEFF 		bl	lv_obj_invalidate
 2311              	.LVL253:
 215:lvgl/src/lv_widgets/lv_calendar.c **** 
 2312              		.loc 1 215 1 discriminator 2 view .LVU690
 2313 0048 38BD     		pop	{r3, r4, r5, pc}
 2314              	.LVL254:
 2315              	.L133:
 215:lvgl/src/lv_widgets/lv_calendar.c **** 
 2316              		.loc 1 215 1 discriminator 2 view .LVU691
 2317 004a 00BF     		.align	2
 2318              	.L132:
 2319 004c 00000000 		.word	.LC0
 2320              		.cfi_endproc
 2321              	.LFE460:
 2323              		.section	.text.lv_calendar_set_highlighted_dates,"ax",%progbits
 2324              		.align	1
 2325              		.global	lv_calendar_set_highlighted_dates
 2326              		.syntax unified
 2327              		.thumb
 2328              		.thumb_func
 2329              		.fpu fpv4-sp-d16
 2331              	lv_calendar_set_highlighted_dates:
 2332              	.LVL255:
 2333              	.LFB461:
 225:lvgl/src/lv_widgets/lv_calendar.c ****     LV_ASSERT_OBJ(calendar, LV_OBJX_NAME);
 2334              		.loc 1 225 1 is_stmt 1 view -0
 2335              		.cfi_startproc
 2336              		@ args = 0, pretend = 0, frame = 0
 2337              		@ frame_needed = 0, uses_anonymous_args = 0
 225:lvgl/src/lv_widgets/lv_calendar.c ****     LV_ASSERT_OBJ(calendar, LV_OBJX_NAME);
 2338              		.loc 1 225 1 is_stmt 0 view .LVU693
 2339 0000 70B5     		push	{r4, r5, r6, lr}
 2340              	.LCFI18:
 2341              		.cfi_def_cfa_offset 16
 2342              		.cfi_offset 4, -16
 2343              		.cfi_offset 5, -12
 2344              		.cfi_offset 6, -8
 2345              		.cfi_offset 14, -4
 2346 0002 0446     		mov	r4, r0
 2347 0004 0D46     		mov	r5, r1
 2348 0006 1646     		mov	r6, r2
 226:lvgl/src/lv_widgets/lv_calendar.c ****     LV_ASSERT_NULL(highlighted);
ARM GAS  D:\Temp\cclvo1nc.s 			page 77


 2349              		.loc 1 226 5 is_stmt 1 view .LVU694
 226:lvgl/src/lv_widgets/lv_calendar.c ****     LV_ASSERT_NULL(highlighted);
 2350              		.loc 1 226 5 view .LVU695
 2351 0008 FFF7FEFF 		bl	lv_debug_check_null
 2352              	.LVL256:
 226:lvgl/src/lv_widgets/lv_calendar.c ****     LV_ASSERT_NULL(highlighted);
 2353              		.loc 1 226 5 is_stmt 0 view .LVU696
 2354 000c 28B9     		cbnz	r0, .L135
 226:lvgl/src/lv_widgets/lv_calendar.c ****     LV_ASSERT_NULL(highlighted);
 2355              		.loc 1 226 5 is_stmt 1 discriminator 1 view .LVU697
 226:lvgl/src/lv_widgets/lv_calendar.c ****     LV_ASSERT_NULL(highlighted);
 2356              		.loc 1 226 5 discriminator 1 view .LVU698
 2357 000e 2246     		mov	r2, r4
 2358 0010 0023     		movs	r3, #0
 2359 0012 0B48     		ldr	r0, .L140
 2360 0014 FFF7FEFF 		bl	lv_debug_log_error
 2361              	.LVL257:
 2362              	.L136:
 226:lvgl/src/lv_widgets/lv_calendar.c ****     LV_ASSERT_NULL(highlighted);
 2363              		.loc 1 226 5 discriminator 1 view .LVU699
 226:lvgl/src/lv_widgets/lv_calendar.c ****     LV_ASSERT_NULL(highlighted);
 2364              		.loc 1 226 5 discriminator 1 view .LVU700
 2365 0018 FEE7     		b	.L136
 2366              	.L135:
 226:lvgl/src/lv_widgets/lv_calendar.c ****     LV_ASSERT_NULL(highlighted);
 2367              		.loc 1 226 42 discriminator 2 view .LVU701
 227:lvgl/src/lv_widgets/lv_calendar.c **** 
 2368              		.loc 1 227 5 discriminator 2 view .LVU702
 227:lvgl/src/lv_widgets/lv_calendar.c **** 
 2369              		.loc 1 227 5 discriminator 2 view .LVU703
 2370 001a 2846     		mov	r0, r5
 2371 001c FFF7FEFF 		bl	lv_debug_check_null
 2372              	.LVL258:
 2373 0020 28B9     		cbnz	r0, .L137
 227:lvgl/src/lv_widgets/lv_calendar.c **** 
 2374              		.loc 1 227 5 discriminator 1 view .LVU704
 227:lvgl/src/lv_widgets/lv_calendar.c **** 
 2375              		.loc 1 227 5 discriminator 1 view .LVU705
 2376 0022 2A46     		mov	r2, r5
 2377 0024 0023     		movs	r3, #0
 2378 0026 0648     		ldr	r0, .L140
 2379 0028 FFF7FEFF 		bl	lv_debug_log_error
 2380              	.LVL259:
 2381              	.L138:
 227:lvgl/src/lv_widgets/lv_calendar.c **** 
 2382              		.loc 1 227 5 discriminator 2 view .LVU706
 227:lvgl/src/lv_widgets/lv_calendar.c **** 
 2383              		.loc 1 227 5 discriminator 2 view .LVU707
 2384 002c FEE7     		b	.L138
 2385              	.L137:
 227:lvgl/src/lv_widgets/lv_calendar.c **** 
 2386              		.loc 1 227 32 discriminator 2 view .LVU708
 229:lvgl/src/lv_widgets/lv_calendar.c ****     ext->highlighted_dates     = highlighted;
 2387              		.loc 1 229 5 discriminator 2 view .LVU709
 229:lvgl/src/lv_widgets/lv_calendar.c ****     ext->highlighted_dates     = highlighted;
 2388              		.loc 1 229 34 is_stmt 0 discriminator 2 view .LVU710
 2389 002e 2046     		mov	r0, r4
ARM GAS  D:\Temp\cclvo1nc.s 			page 78


 2390 0030 FFF7FEFF 		bl	lv_obj_get_ext_attr
 2391              	.LVL260:
 230:lvgl/src/lv_widgets/lv_calendar.c ****     ext->highlighted_dates_num = date_num;
 2392              		.loc 1 230 5 is_stmt 1 discriminator 2 view .LVU711
 230:lvgl/src/lv_widgets/lv_calendar.c ****     ext->highlighted_dates_num = date_num;
 2393              		.loc 1 230 32 is_stmt 0 discriminator 2 view .LVU712
 2394 0034 8560     		str	r5, [r0, #8]
 231:lvgl/src/lv_widgets/lv_calendar.c **** 
 2395              		.loc 1 231 5 is_stmt 1 discriminator 2 view .LVU713
 231:lvgl/src/lv_widgets/lv_calendar.c **** 
 2396              		.loc 1 231 32 is_stmt 0 discriminator 2 view .LVU714
 2397 0036 C681     		strh	r6, [r0, #14]	@ movhi
 233:lvgl/src/lv_widgets/lv_calendar.c **** }
 2398              		.loc 1 233 5 is_stmt 1 discriminator 2 view .LVU715
 2399 0038 2046     		mov	r0, r4
 2400              	.LVL261:
 233:lvgl/src/lv_widgets/lv_calendar.c **** }
 2401              		.loc 1 233 5 is_stmt 0 discriminator 2 view .LVU716
 2402 003a FFF7FEFF 		bl	lv_obj_invalidate
 2403              	.LVL262:
 234:lvgl/src/lv_widgets/lv_calendar.c **** 
 2404              		.loc 1 234 1 discriminator 2 view .LVU717
 2405 003e 70BD     		pop	{r4, r5, r6, pc}
 2406              	.LVL263:
 2407              	.L141:
 234:lvgl/src/lv_widgets/lv_calendar.c **** 
 2408              		.loc 1 234 1 discriminator 2 view .LVU718
 2409              		.align	2
 2410              	.L140:
 2411 0040 00000000 		.word	.LC0
 2412              		.cfi_endproc
 2413              	.LFE461:
 2415              		.section	.text.lv_calendar_set_day_names,"ax",%progbits
 2416              		.align	1
 2417              		.global	lv_calendar_set_day_names
 2418              		.syntax unified
 2419              		.thumb
 2420              		.thumb_func
 2421              		.fpu fpv4-sp-d16
 2423              	lv_calendar_set_day_names:
 2424              	.LVL264:
 2425              	.LFB462:
 244:lvgl/src/lv_widgets/lv_calendar.c ****     LV_ASSERT_OBJ(calendar, LV_OBJX_NAME);
 2426              		.loc 1 244 1 is_stmt 1 view -0
 2427              		.cfi_startproc
 2428              		@ args = 0, pretend = 0, frame = 0
 2429              		@ frame_needed = 0, uses_anonymous_args = 0
 244:lvgl/src/lv_widgets/lv_calendar.c ****     LV_ASSERT_OBJ(calendar, LV_OBJX_NAME);
 2430              		.loc 1 244 1 is_stmt 0 view .LVU720
 2431 0000 38B5     		push	{r3, r4, r5, lr}
 2432              	.LCFI19:
 2433              		.cfi_def_cfa_offset 16
 2434              		.cfi_offset 3, -16
 2435              		.cfi_offset 4, -12
 2436              		.cfi_offset 5, -8
 2437              		.cfi_offset 14, -4
 2438 0002 0446     		mov	r4, r0
ARM GAS  D:\Temp\cclvo1nc.s 			page 79


 2439 0004 0D46     		mov	r5, r1
 245:lvgl/src/lv_widgets/lv_calendar.c ****     LV_ASSERT_NULL(day_names);
 2440              		.loc 1 245 5 is_stmt 1 view .LVU721
 245:lvgl/src/lv_widgets/lv_calendar.c ****     LV_ASSERT_NULL(day_names);
 2441              		.loc 1 245 5 view .LVU722
 2442 0006 FFF7FEFF 		bl	lv_debug_check_null
 2443              	.LVL265:
 245:lvgl/src/lv_widgets/lv_calendar.c ****     LV_ASSERT_NULL(day_names);
 2444              		.loc 1 245 5 is_stmt 0 view .LVU723
 2445 000a 28B9     		cbnz	r0, .L143
 245:lvgl/src/lv_widgets/lv_calendar.c ****     LV_ASSERT_NULL(day_names);
 2446              		.loc 1 245 5 is_stmt 1 discriminator 1 view .LVU724
 245:lvgl/src/lv_widgets/lv_calendar.c ****     LV_ASSERT_NULL(day_names);
 2447              		.loc 1 245 5 discriminator 1 view .LVU725
 2448 000c 2246     		mov	r2, r4
 2449 000e 0023     		movs	r3, #0
 2450 0010 0A48     		ldr	r0, .L148
 2451 0012 FFF7FEFF 		bl	lv_debug_log_error
 2452              	.LVL266:
 2453              	.L144:
 245:lvgl/src/lv_widgets/lv_calendar.c ****     LV_ASSERT_NULL(day_names);
 2454              		.loc 1 245 5 discriminator 1 view .LVU726
 245:lvgl/src/lv_widgets/lv_calendar.c ****     LV_ASSERT_NULL(day_names);
 2455              		.loc 1 245 5 discriminator 1 view .LVU727
 2456 0016 FEE7     		b	.L144
 2457              	.L143:
 245:lvgl/src/lv_widgets/lv_calendar.c ****     LV_ASSERT_NULL(day_names);
 2458              		.loc 1 245 42 discriminator 2 view .LVU728
 246:lvgl/src/lv_widgets/lv_calendar.c **** 
 2459              		.loc 1 246 5 discriminator 2 view .LVU729
 246:lvgl/src/lv_widgets/lv_calendar.c **** 
 2460              		.loc 1 246 5 discriminator 2 view .LVU730
 2461 0018 2846     		mov	r0, r5
 2462 001a FFF7FEFF 		bl	lv_debug_check_null
 2463              	.LVL267:
 2464 001e 28B9     		cbnz	r0, .L145
 246:lvgl/src/lv_widgets/lv_calendar.c **** 
 2465              		.loc 1 246 5 discriminator 1 view .LVU731
 246:lvgl/src/lv_widgets/lv_calendar.c **** 
 2466              		.loc 1 246 5 discriminator 1 view .LVU732
 2467 0020 2A46     		mov	r2, r5
 2468 0022 0023     		movs	r3, #0
 2469 0024 0548     		ldr	r0, .L148
 2470 0026 FFF7FEFF 		bl	lv_debug_log_error
 2471              	.LVL268:
 2472              	.L146:
 246:lvgl/src/lv_widgets/lv_calendar.c **** 
 2473              		.loc 1 246 5 discriminator 2 view .LVU733
 246:lvgl/src/lv_widgets/lv_calendar.c **** 
 2474              		.loc 1 246 5 discriminator 2 view .LVU734
 2475 002a FEE7     		b	.L146
 2476              	.L145:
 246:lvgl/src/lv_widgets/lv_calendar.c **** 
 2477              		.loc 1 246 30 discriminator 2 view .LVU735
 248:lvgl/src/lv_widgets/lv_calendar.c ****     ext->day_names          = day_names;
 2478              		.loc 1 248 5 discriminator 2 view .LVU736
 248:lvgl/src/lv_widgets/lv_calendar.c ****     ext->day_names          = day_names;
ARM GAS  D:\Temp\cclvo1nc.s 			page 80


 2479              		.loc 1 248 31 is_stmt 0 discriminator 2 view .LVU737
 2480 002c 2046     		mov	r0, r4
 2481 002e FFF7FEFF 		bl	lv_obj_get_ext_attr
 2482              	.LVL269:
 249:lvgl/src/lv_widgets/lv_calendar.c ****     lv_obj_invalidate(calendar);
 2483              		.loc 1 249 5 is_stmt 1 discriminator 2 view .LVU738
 249:lvgl/src/lv_widgets/lv_calendar.c ****     lv_obj_invalidate(calendar);
 2484              		.loc 1 249 29 is_stmt 0 discriminator 2 view .LVU739
 2485 0032 4561     		str	r5, [r0, #20]
 250:lvgl/src/lv_widgets/lv_calendar.c **** }
 2486              		.loc 1 250 5 is_stmt 1 discriminator 2 view .LVU740
 2487 0034 2046     		mov	r0, r4
 2488              	.LVL270:
 250:lvgl/src/lv_widgets/lv_calendar.c **** }
 2489              		.loc 1 250 5 is_stmt 0 discriminator 2 view .LVU741
 2490 0036 FFF7FEFF 		bl	lv_obj_invalidate
 2491              	.LVL271:
 251:lvgl/src/lv_widgets/lv_calendar.c **** 
 2492              		.loc 1 251 1 discriminator 2 view .LVU742
 2493 003a 38BD     		pop	{r3, r4, r5, pc}
 2494              	.LVL272:
 2495              	.L149:
 251:lvgl/src/lv_widgets/lv_calendar.c **** 
 2496              		.loc 1 251 1 discriminator 2 view .LVU743
 2497              		.align	2
 2498              	.L148:
 2499 003c 00000000 		.word	.LC0
 2500              		.cfi_endproc
 2501              	.LFE462:
 2503              		.section	.text.lv_calendar_set_month_names,"ax",%progbits
 2504              		.align	1
 2505              		.global	lv_calendar_set_month_names
 2506              		.syntax unified
 2507              		.thumb
 2508              		.thumb_func
 2509              		.fpu fpv4-sp-d16
 2511              	lv_calendar_set_month_names:
 2512              	.LVL273:
 2513              	.LFB463:
 261:lvgl/src/lv_widgets/lv_calendar.c ****     LV_ASSERT_OBJ(calendar, LV_OBJX_NAME);
 2514              		.loc 1 261 1 is_stmt 1 view -0
 2515              		.cfi_startproc
 2516              		@ args = 0, pretend = 0, frame = 0
 2517              		@ frame_needed = 0, uses_anonymous_args = 0
 261:lvgl/src/lv_widgets/lv_calendar.c ****     LV_ASSERT_OBJ(calendar, LV_OBJX_NAME);
 2518              		.loc 1 261 1 is_stmt 0 view .LVU745
 2519 0000 38B5     		push	{r3, r4, r5, lr}
 2520              	.LCFI20:
 2521              		.cfi_def_cfa_offset 16
 2522              		.cfi_offset 3, -16
 2523              		.cfi_offset 4, -12
 2524              		.cfi_offset 5, -8
 2525              		.cfi_offset 14, -4
 2526 0002 0446     		mov	r4, r0
 2527 0004 0D46     		mov	r5, r1
 262:lvgl/src/lv_widgets/lv_calendar.c ****     LV_ASSERT_NULL(month_names);
 2528              		.loc 1 262 5 is_stmt 1 view .LVU746
ARM GAS  D:\Temp\cclvo1nc.s 			page 81


 262:lvgl/src/lv_widgets/lv_calendar.c ****     LV_ASSERT_NULL(month_names);
 2529              		.loc 1 262 5 view .LVU747
 2530 0006 FFF7FEFF 		bl	lv_debug_check_null
 2531              	.LVL274:
 262:lvgl/src/lv_widgets/lv_calendar.c ****     LV_ASSERT_NULL(month_names);
 2532              		.loc 1 262 5 is_stmt 0 view .LVU748
 2533 000a 28B9     		cbnz	r0, .L151
 262:lvgl/src/lv_widgets/lv_calendar.c ****     LV_ASSERT_NULL(month_names);
 2534              		.loc 1 262 5 is_stmt 1 discriminator 1 view .LVU749
 262:lvgl/src/lv_widgets/lv_calendar.c ****     LV_ASSERT_NULL(month_names);
 2535              		.loc 1 262 5 discriminator 1 view .LVU750
 2536 000c 2246     		mov	r2, r4
 2537 000e 0023     		movs	r3, #0
 2538 0010 0A48     		ldr	r0, .L156
 2539 0012 FFF7FEFF 		bl	lv_debug_log_error
 2540              	.LVL275:
 2541              	.L152:
 262:lvgl/src/lv_widgets/lv_calendar.c ****     LV_ASSERT_NULL(month_names);
 2542              		.loc 1 262 5 discriminator 1 view .LVU751
 262:lvgl/src/lv_widgets/lv_calendar.c ****     LV_ASSERT_NULL(month_names);
 2543              		.loc 1 262 5 discriminator 1 view .LVU752
 2544 0016 FEE7     		b	.L152
 2545              	.L151:
 262:lvgl/src/lv_widgets/lv_calendar.c ****     LV_ASSERT_NULL(month_names);
 2546              		.loc 1 262 42 discriminator 2 view .LVU753
 263:lvgl/src/lv_widgets/lv_calendar.c **** 
 2547              		.loc 1 263 5 discriminator 2 view .LVU754
 263:lvgl/src/lv_widgets/lv_calendar.c **** 
 2548              		.loc 1 263 5 discriminator 2 view .LVU755
 2549 0018 2846     		mov	r0, r5
 2550 001a FFF7FEFF 		bl	lv_debug_check_null
 2551              	.LVL276:
 2552 001e 28B9     		cbnz	r0, .L153
 263:lvgl/src/lv_widgets/lv_calendar.c **** 
 2553              		.loc 1 263 5 discriminator 1 view .LVU756
 263:lvgl/src/lv_widgets/lv_calendar.c **** 
 2554              		.loc 1 263 5 discriminator 1 view .LVU757
 2555 0020 2A46     		mov	r2, r5
 2556 0022 0023     		movs	r3, #0
 2557 0024 0548     		ldr	r0, .L156
 2558 0026 FFF7FEFF 		bl	lv_debug_log_error
 2559              	.LVL277:
 2560              	.L154:
 263:lvgl/src/lv_widgets/lv_calendar.c **** 
 2561              		.loc 1 263 5 discriminator 2 view .LVU758
 263:lvgl/src/lv_widgets/lv_calendar.c **** 
 2562              		.loc 1 263 5 discriminator 2 view .LVU759
 2563 002a FEE7     		b	.L154
 2564              	.L153:
 263:lvgl/src/lv_widgets/lv_calendar.c **** 
 2565              		.loc 1 263 32 discriminator 2 view .LVU760
 265:lvgl/src/lv_widgets/lv_calendar.c ****     ext->month_names        = month_names;
 2566              		.loc 1 265 5 discriminator 2 view .LVU761
 265:lvgl/src/lv_widgets/lv_calendar.c ****     ext->month_names        = month_names;
 2567              		.loc 1 265 31 is_stmt 0 discriminator 2 view .LVU762
 2568 002c 2046     		mov	r0, r4
 2569 002e FFF7FEFF 		bl	lv_obj_get_ext_attr
ARM GAS  D:\Temp\cclvo1nc.s 			page 82


 2570              	.LVL278:
 266:lvgl/src/lv_widgets/lv_calendar.c ****     lv_obj_invalidate(calendar);
 2571              		.loc 1 266 5 is_stmt 1 discriminator 2 view .LVU763
 266:lvgl/src/lv_widgets/lv_calendar.c ****     lv_obj_invalidate(calendar);
 2572              		.loc 1 266 29 is_stmt 0 discriminator 2 view .LVU764
 2573 0032 8561     		str	r5, [r0, #24]
 267:lvgl/src/lv_widgets/lv_calendar.c **** }
 2574              		.loc 1 267 5 is_stmt 1 discriminator 2 view .LVU765
 2575 0034 2046     		mov	r0, r4
 2576              	.LVL279:
 267:lvgl/src/lv_widgets/lv_calendar.c **** }
 2577              		.loc 1 267 5 is_stmt 0 discriminator 2 view .LVU766
 2578 0036 FFF7FEFF 		bl	lv_obj_invalidate
 2579              	.LVL280:
 268:lvgl/src/lv_widgets/lv_calendar.c **** 
 2580              		.loc 1 268 1 discriminator 2 view .LVU767
 2581 003a 38BD     		pop	{r3, r4, r5, pc}
 2582              	.LVL281:
 2583              	.L157:
 268:lvgl/src/lv_widgets/lv_calendar.c **** 
 2584              		.loc 1 268 1 discriminator 2 view .LVU768
 2585              		.align	2
 2586              	.L156:
 2587 003c 00000000 		.word	.LC0
 2588              		.cfi_endproc
 2589              	.LFE463:
 2591              		.section	.text.lv_calendar_get_today_date,"ax",%progbits
 2592              		.align	1
 2593              		.global	lv_calendar_get_today_date
 2594              		.syntax unified
 2595              		.thumb
 2596              		.thumb_func
 2597              		.fpu fpv4-sp-d16
 2599              	lv_calendar_get_today_date:
 2600              	.LVL282:
 2601              	.LFB464:
 280:lvgl/src/lv_widgets/lv_calendar.c ****     LV_ASSERT_OBJ(calendar, LV_OBJX_NAME);
 2602              		.loc 1 280 1 is_stmt 1 view -0
 2603              		.cfi_startproc
 2604              		@ args = 0, pretend = 0, frame = 0
 2605              		@ frame_needed = 0, uses_anonymous_args = 0
 280:lvgl/src/lv_widgets/lv_calendar.c ****     LV_ASSERT_OBJ(calendar, LV_OBJX_NAME);
 2606              		.loc 1 280 1 is_stmt 0 view .LVU770
 2607 0000 10B5     		push	{r4, lr}
 2608              	.LCFI21:
 2609              		.cfi_def_cfa_offset 8
 2610              		.cfi_offset 4, -8
 2611              		.cfi_offset 14, -4
 2612 0002 0446     		mov	r4, r0
 281:lvgl/src/lv_widgets/lv_calendar.c **** 
 2613              		.loc 1 281 5 is_stmt 1 view .LVU771
 281:lvgl/src/lv_widgets/lv_calendar.c **** 
 2614              		.loc 1 281 5 view .LVU772
 2615 0004 FFF7FEFF 		bl	lv_debug_check_null
 2616              	.LVL283:
 281:lvgl/src/lv_widgets/lv_calendar.c **** 
 2617              		.loc 1 281 5 is_stmt 0 view .LVU773
ARM GAS  D:\Temp\cclvo1nc.s 			page 83


 2618 0008 28B9     		cbnz	r0, .L159
 281:lvgl/src/lv_widgets/lv_calendar.c **** 
 2619              		.loc 1 281 5 is_stmt 1 discriminator 1 view .LVU774
 281:lvgl/src/lv_widgets/lv_calendar.c **** 
 2620              		.loc 1 281 5 discriminator 1 view .LVU775
 2621 000a 2246     		mov	r2, r4
 2622 000c 0023     		movs	r3, #0
 2623 000e 0448     		ldr	r0, .L162
 2624 0010 FFF7FEFF 		bl	lv_debug_log_error
 2625              	.LVL284:
 2626              	.L160:
 281:lvgl/src/lv_widgets/lv_calendar.c **** 
 2627              		.loc 1 281 5 discriminator 1 view .LVU776
 281:lvgl/src/lv_widgets/lv_calendar.c **** 
 2628              		.loc 1 281 5 discriminator 1 view .LVU777
 2629 0014 FEE7     		b	.L160
 2630              	.L159:
 281:lvgl/src/lv_widgets/lv_calendar.c **** 
 2631              		.loc 1 281 42 discriminator 2 view .LVU778
 283:lvgl/src/lv_widgets/lv_calendar.c ****     return &ext->today;
 2632              		.loc 1 283 5 discriminator 2 view .LVU779
 283:lvgl/src/lv_widgets/lv_calendar.c ****     return &ext->today;
 2633              		.loc 1 283 31 is_stmt 0 discriminator 2 view .LVU780
 2634 0016 2046     		mov	r0, r4
 2635 0018 FFF7FEFF 		bl	lv_obj_get_ext_attr
 2636              	.LVL285:
 284:lvgl/src/lv_widgets/lv_calendar.c **** }
 2637              		.loc 1 284 5 is_stmt 1 discriminator 2 view .LVU781
 285:lvgl/src/lv_widgets/lv_calendar.c **** 
 2638              		.loc 1 285 1 is_stmt 0 discriminator 2 view .LVU782
 2639 001c 10BD     		pop	{r4, pc}
 2640              	.LVL286:
 2641              	.L163:
 285:lvgl/src/lv_widgets/lv_calendar.c **** 
 2642              		.loc 1 285 1 discriminator 2 view .LVU783
 2643 001e 00BF     		.align	2
 2644              	.L162:
 2645 0020 00000000 		.word	.LC0
 2646              		.cfi_endproc
 2647              	.LFE464:
 2649              		.section	.text.lv_calendar_get_showed_date,"ax",%progbits
 2650              		.align	1
 2651              		.global	lv_calendar_get_showed_date
 2652              		.syntax unified
 2653              		.thumb
 2654              		.thumb_func
 2655              		.fpu fpv4-sp-d16
 2657              	lv_calendar_get_showed_date:
 2658              	.LVL287:
 2659              	.LFB465:
 293:lvgl/src/lv_widgets/lv_calendar.c ****     LV_ASSERT_OBJ(calendar, LV_OBJX_NAME);
 2660              		.loc 1 293 1 is_stmt 1 view -0
 2661              		.cfi_startproc
 2662              		@ args = 0, pretend = 0, frame = 0
 2663              		@ frame_needed = 0, uses_anonymous_args = 0
 293:lvgl/src/lv_widgets/lv_calendar.c ****     LV_ASSERT_OBJ(calendar, LV_OBJX_NAME);
 2664              		.loc 1 293 1 is_stmt 0 view .LVU785
ARM GAS  D:\Temp\cclvo1nc.s 			page 84


 2665 0000 10B5     		push	{r4, lr}
 2666              	.LCFI22:
 2667              		.cfi_def_cfa_offset 8
 2668              		.cfi_offset 4, -8
 2669              		.cfi_offset 14, -4
 2670 0002 0446     		mov	r4, r0
 294:lvgl/src/lv_widgets/lv_calendar.c **** 
 2671              		.loc 1 294 5 is_stmt 1 view .LVU786
 294:lvgl/src/lv_widgets/lv_calendar.c **** 
 2672              		.loc 1 294 5 view .LVU787
 2673 0004 FFF7FEFF 		bl	lv_debug_check_null
 2674              	.LVL288:
 294:lvgl/src/lv_widgets/lv_calendar.c **** 
 2675              		.loc 1 294 5 is_stmt 0 view .LVU788
 2676 0008 28B9     		cbnz	r0, .L165
 294:lvgl/src/lv_widgets/lv_calendar.c **** 
 2677              		.loc 1 294 5 is_stmt 1 discriminator 1 view .LVU789
 294:lvgl/src/lv_widgets/lv_calendar.c **** 
 2678              		.loc 1 294 5 discriminator 1 view .LVU790
 2679 000a 2246     		mov	r2, r4
 2680 000c 0023     		movs	r3, #0
 2681 000e 0448     		ldr	r0, .L168
 2682 0010 FFF7FEFF 		bl	lv_debug_log_error
 2683              	.LVL289:
 2684              	.L166:
 294:lvgl/src/lv_widgets/lv_calendar.c **** 
 2685              		.loc 1 294 5 discriminator 1 view .LVU791
 294:lvgl/src/lv_widgets/lv_calendar.c **** 
 2686              		.loc 1 294 5 discriminator 1 view .LVU792
 2687 0014 FEE7     		b	.L166
 2688              	.L165:
 294:lvgl/src/lv_widgets/lv_calendar.c **** 
 2689              		.loc 1 294 42 discriminator 2 view .LVU793
 296:lvgl/src/lv_widgets/lv_calendar.c ****     return &ext->showed_date;
 2690              		.loc 1 296 5 discriminator 2 view .LVU794
 296:lvgl/src/lv_widgets/lv_calendar.c ****     return &ext->showed_date;
 2691              		.loc 1 296 31 is_stmt 0 discriminator 2 view .LVU795
 2692 0016 2046     		mov	r0, r4
 2693 0018 FFF7FEFF 		bl	lv_obj_get_ext_attr
 2694              	.LVL290:
 297:lvgl/src/lv_widgets/lv_calendar.c **** }
 2695              		.loc 1 297 5 is_stmt 1 discriminator 2 view .LVU796
 298:lvgl/src/lv_widgets/lv_calendar.c **** 
 2696              		.loc 1 298 1 is_stmt 0 discriminator 2 view .LVU797
 2697 001c 0430     		adds	r0, r0, #4
 2698              	.LVL291:
 298:lvgl/src/lv_widgets/lv_calendar.c **** 
 2699              		.loc 1 298 1 discriminator 2 view .LVU798
 2700 001e 10BD     		pop	{r4, pc}
 2701              	.LVL292:
 2702              	.L169:
 298:lvgl/src/lv_widgets/lv_calendar.c **** 
 2703              		.loc 1 298 1 discriminator 2 view .LVU799
 2704              		.align	2
 2705              	.L168:
 2706 0020 00000000 		.word	.LC0
 2707              		.cfi_endproc
ARM GAS  D:\Temp\cclvo1nc.s 			page 85


 2708              	.LFE465:
 2710              		.section	.text.lv_calendar_get_pressed_date,"ax",%progbits
 2711              		.align	1
 2712              		.global	lv_calendar_get_pressed_date
 2713              		.syntax unified
 2714              		.thumb
 2715              		.thumb_func
 2716              		.fpu fpv4-sp-d16
 2718              	lv_calendar_get_pressed_date:
 2719              	.LVL293:
 2720              	.LFB466:
 307:lvgl/src/lv_widgets/lv_calendar.c ****     LV_ASSERT_OBJ(calendar, LV_OBJX_NAME);
 2721              		.loc 1 307 1 is_stmt 1 view -0
 2722              		.cfi_startproc
 2723              		@ args = 0, pretend = 0, frame = 0
 2724              		@ frame_needed = 0, uses_anonymous_args = 0
 307:lvgl/src/lv_widgets/lv_calendar.c ****     LV_ASSERT_OBJ(calendar, LV_OBJX_NAME);
 2725              		.loc 1 307 1 is_stmt 0 view .LVU801
 2726 0000 10B5     		push	{r4, lr}
 2727              	.LCFI23:
 2728              		.cfi_def_cfa_offset 8
 2729              		.cfi_offset 4, -8
 2730              		.cfi_offset 14, -4
 2731 0002 0446     		mov	r4, r0
 308:lvgl/src/lv_widgets/lv_calendar.c **** 
 2732              		.loc 1 308 5 is_stmt 1 view .LVU802
 308:lvgl/src/lv_widgets/lv_calendar.c **** 
 2733              		.loc 1 308 5 view .LVU803
 2734 0004 FFF7FEFF 		bl	lv_debug_check_null
 2735              	.LVL294:
 308:lvgl/src/lv_widgets/lv_calendar.c **** 
 2736              		.loc 1 308 5 is_stmt 0 view .LVU804
 2737 0008 28B9     		cbnz	r0, .L171
 308:lvgl/src/lv_widgets/lv_calendar.c **** 
 2738              		.loc 1 308 5 is_stmt 1 discriminator 1 view .LVU805
 308:lvgl/src/lv_widgets/lv_calendar.c **** 
 2739              		.loc 1 308 5 discriminator 1 view .LVU806
 2740 000a 2246     		mov	r2, r4
 2741 000c 0023     		movs	r3, #0
 2742 000e 0648     		ldr	r0, .L176
 2743 0010 FFF7FEFF 		bl	lv_debug_log_error
 2744              	.LVL295:
 2745              	.L172:
 308:lvgl/src/lv_widgets/lv_calendar.c **** 
 2746              		.loc 1 308 5 discriminator 1 view .LVU807
 308:lvgl/src/lv_widgets/lv_calendar.c **** 
 2747              		.loc 1 308 5 discriminator 1 view .LVU808
 2748 0014 FEE7     		b	.L172
 2749              	.L171:
 308:lvgl/src/lv_widgets/lv_calendar.c **** 
 2750              		.loc 1 308 42 discriminator 2 view .LVU809
 310:lvgl/src/lv_widgets/lv_calendar.c ****     return ext->pressed_date.year != 0 ? &ext->pressed_date : NULL;
 2751              		.loc 1 310 5 discriminator 2 view .LVU810
 310:lvgl/src/lv_widgets/lv_calendar.c ****     return ext->pressed_date.year != 0 ? &ext->pressed_date : NULL;
 2752              		.loc 1 310 31 is_stmt 0 discriminator 2 view .LVU811
 2753 0016 2046     		mov	r0, r4
 2754 0018 FFF7FEFF 		bl	lv_obj_get_ext_attr
ARM GAS  D:\Temp\cclvo1nc.s 			page 86


 2755              	.LVL296:
 311:lvgl/src/lv_widgets/lv_calendar.c **** }
 2756              		.loc 1 311 5 is_stmt 1 discriminator 2 view .LVU812
 311:lvgl/src/lv_widgets/lv_calendar.c **** }
 2757              		.loc 1 311 29 is_stmt 0 discriminator 2 view .LVU813
 2758 001c 038A     		ldrh	r3, [r0, #16]
 311:lvgl/src/lv_widgets/lv_calendar.c **** }
 2759              		.loc 1 311 61 discriminator 2 view .LVU814
 2760 001e 0BB1     		cbz	r3, .L174
 311:lvgl/src/lv_widgets/lv_calendar.c **** }
 2761              		.loc 1 311 61 discriminator 1 view .LVU815
 2762 0020 1030     		adds	r0, r0, #16
 2763              	.LVL297:
 2764              	.L170:
 312:lvgl/src/lv_widgets/lv_calendar.c **** 
 2765              		.loc 1 312 1 view .LVU816
 2766 0022 10BD     		pop	{r4, pc}
 2767              	.LVL298:
 2768              	.L174:
 311:lvgl/src/lv_widgets/lv_calendar.c **** }
 2769              		.loc 1 311 61 view .LVU817
 2770 0024 0020     		movs	r0, #0
 2771              	.LVL299:
 311:lvgl/src/lv_widgets/lv_calendar.c **** }
 2772              		.loc 1 311 61 view .LVU818
 2773 0026 FCE7     		b	.L170
 2774              	.L177:
 2775              		.align	2
 2776              	.L176:
 2777 0028 00000000 		.word	.LC0
 2778              		.cfi_endproc
 2779              	.LFE466:
 2781              		.section	.text.lv_calendar_get_highlighted_dates,"ax",%progbits
 2782              		.align	1
 2783              		.global	lv_calendar_get_highlighted_dates
 2784              		.syntax unified
 2785              		.thumb
 2786              		.thumb_func
 2787              		.fpu fpv4-sp-d16
 2789              	lv_calendar_get_highlighted_dates:
 2790              	.LVL300:
 2791              	.LFB467:
 320:lvgl/src/lv_widgets/lv_calendar.c ****     LV_ASSERT_OBJ(calendar, LV_OBJX_NAME);
 2792              		.loc 1 320 1 is_stmt 1 view -0
 2793              		.cfi_startproc
 2794              		@ args = 0, pretend = 0, frame = 0
 2795              		@ frame_needed = 0, uses_anonymous_args = 0
 320:lvgl/src/lv_widgets/lv_calendar.c ****     LV_ASSERT_OBJ(calendar, LV_OBJX_NAME);
 2796              		.loc 1 320 1 is_stmt 0 view .LVU820
 2797 0000 10B5     		push	{r4, lr}
 2798              	.LCFI24:
 2799              		.cfi_def_cfa_offset 8
 2800              		.cfi_offset 4, -8
 2801              		.cfi_offset 14, -4
 2802 0002 0446     		mov	r4, r0
 321:lvgl/src/lv_widgets/lv_calendar.c **** 
 2803              		.loc 1 321 5 is_stmt 1 view .LVU821
ARM GAS  D:\Temp\cclvo1nc.s 			page 87


 321:lvgl/src/lv_widgets/lv_calendar.c **** 
 2804              		.loc 1 321 5 view .LVU822
 2805 0004 FFF7FEFF 		bl	lv_debug_check_null
 2806              	.LVL301:
 321:lvgl/src/lv_widgets/lv_calendar.c **** 
 2807              		.loc 1 321 5 is_stmt 0 view .LVU823
 2808 0008 28B9     		cbnz	r0, .L179
 321:lvgl/src/lv_widgets/lv_calendar.c **** 
 2809              		.loc 1 321 5 is_stmt 1 discriminator 1 view .LVU824
 321:lvgl/src/lv_widgets/lv_calendar.c **** 
 2810              		.loc 1 321 5 discriminator 1 view .LVU825
 2811 000a 2246     		mov	r2, r4
 2812 000c 0023     		movs	r3, #0
 2813 000e 0448     		ldr	r0, .L182
 2814 0010 FFF7FEFF 		bl	lv_debug_log_error
 2815              	.LVL302:
 2816              	.L180:
 321:lvgl/src/lv_widgets/lv_calendar.c **** 
 2817              		.loc 1 321 5 discriminator 1 view .LVU826
 321:lvgl/src/lv_widgets/lv_calendar.c **** 
 2818              		.loc 1 321 5 discriminator 1 view .LVU827
 2819 0014 FEE7     		b	.L180
 2820              	.L179:
 321:lvgl/src/lv_widgets/lv_calendar.c **** 
 2821              		.loc 1 321 42 discriminator 2 view .LVU828
 323:lvgl/src/lv_widgets/lv_calendar.c ****     return ext->highlighted_dates;
 2822              		.loc 1 323 5 discriminator 2 view .LVU829
 323:lvgl/src/lv_widgets/lv_calendar.c ****     return ext->highlighted_dates;
 2823              		.loc 1 323 31 is_stmt 0 discriminator 2 view .LVU830
 2824 0016 2046     		mov	r0, r4
 2825 0018 FFF7FEFF 		bl	lv_obj_get_ext_attr
 2826              	.LVL303:
 324:lvgl/src/lv_widgets/lv_calendar.c **** }
 2827              		.loc 1 324 5 is_stmt 1 discriminator 2 view .LVU831
 325:lvgl/src/lv_widgets/lv_calendar.c **** 
 2828              		.loc 1 325 1 is_stmt 0 discriminator 2 view .LVU832
 2829 001c 8068     		ldr	r0, [r0, #8]
 2830              	.LVL304:
 325:lvgl/src/lv_widgets/lv_calendar.c **** 
 2831              		.loc 1 325 1 discriminator 2 view .LVU833
 2832 001e 10BD     		pop	{r4, pc}
 2833              	.LVL305:
 2834              	.L183:
 325:lvgl/src/lv_widgets/lv_calendar.c **** 
 2835              		.loc 1 325 1 discriminator 2 view .LVU834
 2836              		.align	2
 2837              	.L182:
 2838 0020 00000000 		.word	.LC0
 2839              		.cfi_endproc
 2840              	.LFE467:
 2842              		.section	.text.lv_calendar_get_highlighted_dates_num,"ax",%progbits
 2843              		.align	1
 2844              		.global	lv_calendar_get_highlighted_dates_num
 2845              		.syntax unified
 2846              		.thumb
 2847              		.thumb_func
 2848              		.fpu fpv4-sp-d16
ARM GAS  D:\Temp\cclvo1nc.s 			page 88


 2850              	lv_calendar_get_highlighted_dates_num:
 2851              	.LVL306:
 2852              	.LFB468:
 333:lvgl/src/lv_widgets/lv_calendar.c ****     LV_ASSERT_OBJ(calendar, LV_OBJX_NAME);
 2853              		.loc 1 333 1 is_stmt 1 view -0
 2854              		.cfi_startproc
 2855              		@ args = 0, pretend = 0, frame = 0
 2856              		@ frame_needed = 0, uses_anonymous_args = 0
 333:lvgl/src/lv_widgets/lv_calendar.c ****     LV_ASSERT_OBJ(calendar, LV_OBJX_NAME);
 2857              		.loc 1 333 1 is_stmt 0 view .LVU836
 2858 0000 10B5     		push	{r4, lr}
 2859              	.LCFI25:
 2860              		.cfi_def_cfa_offset 8
 2861              		.cfi_offset 4, -8
 2862              		.cfi_offset 14, -4
 2863 0002 0446     		mov	r4, r0
 334:lvgl/src/lv_widgets/lv_calendar.c **** 
 2864              		.loc 1 334 5 is_stmt 1 view .LVU837
 334:lvgl/src/lv_widgets/lv_calendar.c **** 
 2865              		.loc 1 334 5 view .LVU838
 2866 0004 FFF7FEFF 		bl	lv_debug_check_null
 2867              	.LVL307:
 334:lvgl/src/lv_widgets/lv_calendar.c **** 
 2868              		.loc 1 334 5 is_stmt 0 view .LVU839
 2869 0008 28B9     		cbnz	r0, .L185
 334:lvgl/src/lv_widgets/lv_calendar.c **** 
 2870              		.loc 1 334 5 is_stmt 1 discriminator 1 view .LVU840
 334:lvgl/src/lv_widgets/lv_calendar.c **** 
 2871              		.loc 1 334 5 discriminator 1 view .LVU841
 2872 000a 2246     		mov	r2, r4
 2873 000c 0023     		movs	r3, #0
 2874 000e 0448     		ldr	r0, .L188
 2875 0010 FFF7FEFF 		bl	lv_debug_log_error
 2876              	.LVL308:
 2877              	.L186:
 334:lvgl/src/lv_widgets/lv_calendar.c **** 
 2878              		.loc 1 334 5 discriminator 1 view .LVU842
 334:lvgl/src/lv_widgets/lv_calendar.c **** 
 2879              		.loc 1 334 5 discriminator 1 view .LVU843
 2880 0014 FEE7     		b	.L186
 2881              	.L185:
 334:lvgl/src/lv_widgets/lv_calendar.c **** 
 2882              		.loc 1 334 42 discriminator 2 view .LVU844
 336:lvgl/src/lv_widgets/lv_calendar.c ****     return ext->highlighted_dates_num;
 2883              		.loc 1 336 5 discriminator 2 view .LVU845
 336:lvgl/src/lv_widgets/lv_calendar.c ****     return ext->highlighted_dates_num;
 2884              		.loc 1 336 31 is_stmt 0 discriminator 2 view .LVU846
 2885 0016 2046     		mov	r0, r4
 2886 0018 FFF7FEFF 		bl	lv_obj_get_ext_attr
 2887              	.LVL309:
 337:lvgl/src/lv_widgets/lv_calendar.c **** }
 2888              		.loc 1 337 5 is_stmt 1 discriminator 2 view .LVU847
 338:lvgl/src/lv_widgets/lv_calendar.c **** 
 2889              		.loc 1 338 1 is_stmt 0 discriminator 2 view .LVU848
 2890 001c C089     		ldrh	r0, [r0, #14]
 2891              	.LVL310:
 338:lvgl/src/lv_widgets/lv_calendar.c **** 
ARM GAS  D:\Temp\cclvo1nc.s 			page 89


 2892              		.loc 1 338 1 discriminator 2 view .LVU849
 2893 001e 10BD     		pop	{r4, pc}
 2894              	.LVL311:
 2895              	.L189:
 338:lvgl/src/lv_widgets/lv_calendar.c **** 
 2896              		.loc 1 338 1 discriminator 2 view .LVU850
 2897              		.align	2
 2898              	.L188:
 2899 0020 00000000 		.word	.LC0
 2900              		.cfi_endproc
 2901              	.LFE468:
 2903              		.section	.text.lv_calendar_get_day_names,"ax",%progbits
 2904              		.align	1
 2905              		.global	lv_calendar_get_day_names
 2906              		.syntax unified
 2907              		.thumb
 2908              		.thumb_func
 2909              		.fpu fpv4-sp-d16
 2911              	lv_calendar_get_day_names:
 2912              	.LVL312:
 2913              	.LFB469:
 346:lvgl/src/lv_widgets/lv_calendar.c ****     LV_ASSERT_OBJ(calendar, LV_OBJX_NAME);
 2914              		.loc 1 346 1 is_stmt 1 view -0
 2915              		.cfi_startproc
 2916              		@ args = 0, pretend = 0, frame = 0
 2917              		@ frame_needed = 0, uses_anonymous_args = 0
 346:lvgl/src/lv_widgets/lv_calendar.c ****     LV_ASSERT_OBJ(calendar, LV_OBJX_NAME);
 2918              		.loc 1 346 1 is_stmt 0 view .LVU852
 2919 0000 10B5     		push	{r4, lr}
 2920              	.LCFI26:
 2921              		.cfi_def_cfa_offset 8
 2922              		.cfi_offset 4, -8
 2923              		.cfi_offset 14, -4
 2924 0002 0446     		mov	r4, r0
 347:lvgl/src/lv_widgets/lv_calendar.c **** 
 2925              		.loc 1 347 5 is_stmt 1 view .LVU853
 347:lvgl/src/lv_widgets/lv_calendar.c **** 
 2926              		.loc 1 347 5 view .LVU854
 2927 0004 FFF7FEFF 		bl	lv_debug_check_null
 2928              	.LVL313:
 347:lvgl/src/lv_widgets/lv_calendar.c **** 
 2929              		.loc 1 347 5 is_stmt 0 view .LVU855
 2930 0008 28B9     		cbnz	r0, .L191
 347:lvgl/src/lv_widgets/lv_calendar.c **** 
 2931              		.loc 1 347 5 is_stmt 1 discriminator 1 view .LVU856
 347:lvgl/src/lv_widgets/lv_calendar.c **** 
 2932              		.loc 1 347 5 discriminator 1 view .LVU857
 2933 000a 2246     		mov	r2, r4
 2934 000c 0023     		movs	r3, #0
 2935 000e 0448     		ldr	r0, .L194
 2936 0010 FFF7FEFF 		bl	lv_debug_log_error
 2937              	.LVL314:
 2938              	.L192:
 347:lvgl/src/lv_widgets/lv_calendar.c **** 
 2939              		.loc 1 347 5 discriminator 1 view .LVU858
 347:lvgl/src/lv_widgets/lv_calendar.c **** 
 2940              		.loc 1 347 5 discriminator 1 view .LVU859
ARM GAS  D:\Temp\cclvo1nc.s 			page 90


 2941 0014 FEE7     		b	.L192
 2942              	.L191:
 347:lvgl/src/lv_widgets/lv_calendar.c **** 
 2943              		.loc 1 347 42 discriminator 2 view .LVU860
 349:lvgl/src/lv_widgets/lv_calendar.c ****     return ext->day_names;
 2944              		.loc 1 349 5 discriminator 2 view .LVU861
 349:lvgl/src/lv_widgets/lv_calendar.c ****     return ext->day_names;
 2945              		.loc 1 349 31 is_stmt 0 discriminator 2 view .LVU862
 2946 0016 2046     		mov	r0, r4
 2947 0018 FFF7FEFF 		bl	lv_obj_get_ext_attr
 2948              	.LVL315:
 350:lvgl/src/lv_widgets/lv_calendar.c **** }
 2949              		.loc 1 350 5 is_stmt 1 discriminator 2 view .LVU863
 351:lvgl/src/lv_widgets/lv_calendar.c **** 
 2950              		.loc 1 351 1 is_stmt 0 discriminator 2 view .LVU864
 2951 001c 4069     		ldr	r0, [r0, #20]
 2952              	.LVL316:
 351:lvgl/src/lv_widgets/lv_calendar.c **** 
 2953              		.loc 1 351 1 discriminator 2 view .LVU865
 2954 001e 10BD     		pop	{r4, pc}
 2955              	.LVL317:
 2956              	.L195:
 351:lvgl/src/lv_widgets/lv_calendar.c **** 
 2957              		.loc 1 351 1 discriminator 2 view .LVU866
 2958              		.align	2
 2959              	.L194:
 2960 0020 00000000 		.word	.LC0
 2961              		.cfi_endproc
 2962              	.LFE469:
 2964              		.section	.text.lv_calendar_get_month_names,"ax",%progbits
 2965              		.align	1
 2966              		.global	lv_calendar_get_month_names
 2967              		.syntax unified
 2968              		.thumb
 2969              		.thumb_func
 2970              		.fpu fpv4-sp-d16
 2972              	lv_calendar_get_month_names:
 2973              	.LVL318:
 2974              	.LFB470:
 359:lvgl/src/lv_widgets/lv_calendar.c ****     LV_ASSERT_OBJ(calendar, LV_OBJX_NAME);
 2975              		.loc 1 359 1 is_stmt 1 view -0
 2976              		.cfi_startproc
 2977              		@ args = 0, pretend = 0, frame = 0
 2978              		@ frame_needed = 0, uses_anonymous_args = 0
 359:lvgl/src/lv_widgets/lv_calendar.c ****     LV_ASSERT_OBJ(calendar, LV_OBJX_NAME);
 2979              		.loc 1 359 1 is_stmt 0 view .LVU868
 2980 0000 10B5     		push	{r4, lr}
 2981              	.LCFI27:
 2982              		.cfi_def_cfa_offset 8
 2983              		.cfi_offset 4, -8
 2984              		.cfi_offset 14, -4
 2985 0002 0446     		mov	r4, r0
 360:lvgl/src/lv_widgets/lv_calendar.c **** 
 2986              		.loc 1 360 5 is_stmt 1 view .LVU869
 360:lvgl/src/lv_widgets/lv_calendar.c **** 
 2987              		.loc 1 360 5 view .LVU870
 2988 0004 FFF7FEFF 		bl	lv_debug_check_null
ARM GAS  D:\Temp\cclvo1nc.s 			page 91


 2989              	.LVL319:
 360:lvgl/src/lv_widgets/lv_calendar.c **** 
 2990              		.loc 1 360 5 is_stmt 0 view .LVU871
 2991 0008 28B9     		cbnz	r0, .L197
 360:lvgl/src/lv_widgets/lv_calendar.c **** 
 2992              		.loc 1 360 5 is_stmt 1 discriminator 1 view .LVU872
 360:lvgl/src/lv_widgets/lv_calendar.c **** 
 2993              		.loc 1 360 5 discriminator 1 view .LVU873
 2994 000a 2246     		mov	r2, r4
 2995 000c 0023     		movs	r3, #0
 2996 000e 0448     		ldr	r0, .L200
 2997 0010 FFF7FEFF 		bl	lv_debug_log_error
 2998              	.LVL320:
 2999              	.L198:
 360:lvgl/src/lv_widgets/lv_calendar.c **** 
 3000              		.loc 1 360 5 discriminator 1 view .LVU874
 360:lvgl/src/lv_widgets/lv_calendar.c **** 
 3001              		.loc 1 360 5 discriminator 1 view .LVU875
 3002 0014 FEE7     		b	.L198
 3003              	.L197:
 360:lvgl/src/lv_widgets/lv_calendar.c **** 
 3004              		.loc 1 360 42 discriminator 2 view .LVU876
 362:lvgl/src/lv_widgets/lv_calendar.c ****     return ext->month_names;
 3005              		.loc 1 362 5 discriminator 2 view .LVU877
 362:lvgl/src/lv_widgets/lv_calendar.c ****     return ext->month_names;
 3006              		.loc 1 362 31 is_stmt 0 discriminator 2 view .LVU878
 3007 0016 2046     		mov	r0, r4
 3008 0018 FFF7FEFF 		bl	lv_obj_get_ext_attr
 3009              	.LVL321:
 363:lvgl/src/lv_widgets/lv_calendar.c **** }
 3010              		.loc 1 363 5 is_stmt 1 discriminator 2 view .LVU879
 364:lvgl/src/lv_widgets/lv_calendar.c **** 
 3011              		.loc 1 364 1 is_stmt 0 discriminator 2 view .LVU880
 3012 001c 8069     		ldr	r0, [r0, #24]
 3013              	.LVL322:
 364:lvgl/src/lv_widgets/lv_calendar.c **** 
 3014              		.loc 1 364 1 discriminator 2 view .LVU881
 3015 001e 10BD     		pop	{r4, pc}
 3016              	.LVL323:
 3017              	.L201:
 364:lvgl/src/lv_widgets/lv_calendar.c **** 
 3018              		.loc 1 364 1 discriminator 2 view .LVU882
 3019              		.align	2
 3020              	.L200:
 3021 0020 00000000 		.word	.LC0
 3022              		.cfi_endproc
 3023              	.LFE470:
 3025              		.section	.text.lv_calendar_get_day_of_week,"ax",%progbits
 3026              		.align	1
 3027              		.global	lv_calendar_get_day_of_week
 3028              		.syntax unified
 3029              		.thumb
 3030              		.thumb_func
 3031              		.fpu fpv4-sp-d16
 3033              	lv_calendar_get_day_of_week:
 3034              	.LVL324:
 3035              	.LFB471:
ARM GAS  D:\Temp\cclvo1nc.s 			page 92


 374:lvgl/src/lv_widgets/lv_calendar.c ****     uint32_t a = month < 3 ? 1 : 0;
 3036              		.loc 1 374 1 is_stmt 1 view -0
 3037              		.cfi_startproc
 3038              		@ args = 0, pretend = 0, frame = 0
 3039              		@ frame_needed = 0, uses_anonymous_args = 0
 3040              		@ link register save eliminated.
 374:lvgl/src/lv_widgets/lv_calendar.c ****     uint32_t a = month < 3 ? 1 : 0;
 3041              		.loc 1 374 1 is_stmt 0 view .LVU884
 3042 0000 10B4     		push	{r4}
 3043              	.LCFI28:
 3044              		.cfi_def_cfa_offset 4
 3045              		.cfi_offset 4, -4
 375:lvgl/src/lv_widgets/lv_calendar.c ****     uint32_t b = year - a;
 3046              		.loc 1 375 5 is_stmt 1 view .LVU885
 375:lvgl/src/lv_widgets/lv_calendar.c ****     uint32_t b = year - a;
 3047              		.loc 1 375 32 is_stmt 0 view .LVU886
 3048 0002 0229     		cmp	r1, #2
 3049 0004 94BF     		ite	ls
 3050 0006 0123     		movls	r3, #1
 3051 0008 0023     		movhi	r3, #0
 3052              	.LVL325:
 376:lvgl/src/lv_widgets/lv_calendar.c **** 
 3053              		.loc 1 376 5 is_stmt 1 view .LVU887
 376:lvgl/src/lv_widgets/lv_calendar.c **** 
 3054              		.loc 1 376 14 is_stmt 0 view .LVU888
 3055 000a A0EB0300 		sub	r0, r0, r3
 3056              	.LVL326:
 381:lvgl/src/lv_widgets/lv_calendar.c **** #endif
 3057              		.loc 1 381 5 is_stmt 1 view .LVU889
 381:lvgl/src/lv_widgets/lv_calendar.c **** #endif
 3058              		.loc 1 381 57 is_stmt 0 view .LVU890
 3059 000e 94BF     		ite	ls
 3060 0010 0C24     		movls	r4, #12
 3061 0012 0024     		movhi	r4, #0
 381:lvgl/src/lv_widgets/lv_calendar.c **** #endif
 3062              		.loc 1 381 52 view .LVU891
 3063 0014 2144     		add	r1, r1, r4
 3064              	.LVL327:
 381:lvgl/src/lv_widgets/lv_calendar.c **** #endif
 3065              		.loc 1 381 39 view .LVU892
 3066 0016 C1EB4111 		rsb	r1, r1, r1, lsl #5
 3067 001a 3E39     		subs	r1, r1, #62
 381:lvgl/src/lv_widgets/lv_calendar.c **** #endif
 3068              		.loc 1 381 62 view .LVU893
 3069 001c 0E4B     		ldr	r3, .L204
 3070              	.LVL328:
 381:lvgl/src/lv_widgets/lv_calendar.c **** #endif
 3071              		.loc 1 381 62 view .LVU894
 3072 001e A3FB0131 		umull	r3, r1, r3, r1
 381:lvgl/src/lv_widgets/lv_calendar.c **** #endif
 3073              		.loc 1 381 33 view .LVU895
 3074 0022 02EBD101 		add	r1, r2, r1, lsr #3
 381:lvgl/src/lv_widgets/lv_calendar.c **** #endif
 3075              		.loc 1 381 68 view .LVU896
 3076 0026 0144     		add	r1, r1, r0
 381:lvgl/src/lv_widgets/lv_calendar.c **** #endif
 3077              		.loc 1 381 72 view .LVU897
ARM GAS  D:\Temp\cclvo1nc.s 			page 93


 3078 0028 01EB9001 		add	r1, r1, r0, lsr #2
 381:lvgl/src/lv_widgets/lv_calendar.c **** #endif
 3079              		.loc 1 381 87 view .LVU898
 3080 002c 0B4B     		ldr	r3, .L204+4
 3081 002e A3FB0030 		umull	r3, r0, r3, r0
 3082              	.LVL329:
 381:lvgl/src/lv_widgets/lv_calendar.c **** #endif
 3083              		.loc 1 381 82 view .LVU899
 3084 0032 A1EB5011 		sub	r1, r1, r0, lsr #5
 381:lvgl/src/lv_widgets/lv_calendar.c **** #endif
 3085              		.loc 1 381 94 view .LVU900
 3086 0036 01EBD013 		add	r3, r1, r0, lsr #7
 381:lvgl/src/lv_widgets/lv_calendar.c **** #endif
 3087              		.loc 1 381 14 view .LVU901
 3088 003a 0948     		ldr	r0, .L204+8
 3089 003c A0FB0320 		umull	r2, r0, r0, r3
 3090              	.LVL330:
 381:lvgl/src/lv_widgets/lv_calendar.c **** #endif
 3091              		.loc 1 381 14 view .LVU902
 3092 0040 1A1A     		subs	r2, r3, r0
 3093 0042 00EB5200 		add	r0, r0, r2, lsr #1
 3094 0046 8008     		lsrs	r0, r0, #2
 3095 0048 C0EBC000 		rsb	r0, r0, r0, lsl #3
 3096 004c 181A     		subs	r0, r3, r0
 3097              	.LVL331:
 384:lvgl/src/lv_widgets/lv_calendar.c **** }
 3098              		.loc 1 384 5 is_stmt 1 view .LVU903
 385:lvgl/src/lv_widgets/lv_calendar.c **** 
 3099              		.loc 1 385 1 is_stmt 0 view .LVU904
 3100 004e C0B2     		uxtb	r0, r0
 3101              	.LVL332:
 385:lvgl/src/lv_widgets/lv_calendar.c **** 
 3102              		.loc 1 385 1 view .LVU905
 3103 0050 5DF8044B 		ldr	r4, [sp], #4
 3104              	.LCFI29:
 3105              		.cfi_restore 4
 3106              		.cfi_def_cfa_offset 0
 3107 0054 7047     		bx	lr
 3108              	.L205:
 3109 0056 00BF     		.align	2
 3110              	.L204:
 3111 0058 ABAAAAAA 		.word	-1431655765
 3112 005c 1F85EB51 		.word	1374389535
 3113 0060 25499224 		.word	613566757
 3114              		.cfi_endproc
 3115              	.LFE471:
 3117              		.section	.text.draw_dates,"ax",%progbits
 3118              		.align	1
 3119              		.syntax unified
 3120              		.thumb
 3121              		.thumb_func
 3122              		.fpu fpv4-sp-d16
 3124              	draw_dates:
 3125              	.LVL333:
 3126              	.LFB480:
 820:lvgl/src/lv_widgets/lv_calendar.c ****     lv_calendar_ext_t * ext     = lv_obj_get_ext_attr(calendar);
 3127              		.loc 1 820 1 is_stmt 1 view -0
ARM GAS  D:\Temp\cclvo1nc.s 			page 94


 3128              		.cfi_startproc
 3129              		@ args = 0, pretend = 0, frame = 200
 3130              		@ frame_needed = 0, uses_anonymous_args = 0
 820:lvgl/src/lv_widgets/lv_calendar.c ****     lv_calendar_ext_t * ext     = lv_obj_get_ext_attr(calendar);
 3131              		.loc 1 820 1 is_stmt 0 view .LVU907
 3132 0000 2DE9F04F 		push	{r4, r5, r6, r7, r8, r9, r10, fp, lr}
 3133              	.LCFI30:
 3134              		.cfi_def_cfa_offset 36
 3135              		.cfi_offset 4, -36
 3136              		.cfi_offset 5, -32
 3137              		.cfi_offset 6, -28
 3138              		.cfi_offset 7, -24
 3139              		.cfi_offset 8, -20
 3140              		.cfi_offset 9, -16
 3141              		.cfi_offset 10, -12
 3142              		.cfi_offset 11, -8
 3143              		.cfi_offset 14, -4
 3144 0004 B5B0     		sub	sp, sp, #212
 3145              	.LCFI31:
 3146              		.cfi_def_cfa_offset 248
 3147 0006 8346     		mov	fp, r0
 3148 0008 8A46     		mov	r10, r1
 821:lvgl/src/lv_widgets/lv_calendar.c **** 
 3149              		.loc 1 821 5 is_stmt 1 view .LVU908
 821:lvgl/src/lv_widgets/lv_calendar.c **** 
 3150              		.loc 1 821 35 is_stmt 0 view .LVU909
 3151 000a FFF7FEFF 		bl	lv_obj_get_ext_attr
 3152              	.LVL334:
 821:lvgl/src/lv_widgets/lv_calendar.c **** 
 3153              		.loc 1 821 35 view .LVU910
 3154 000e 0746     		mov	r7, r0
 3155              	.LVL335:
 823:lvgl/src/lv_widgets/lv_calendar.c **** 
 3156              		.loc 1 823 5 is_stmt 1 view .LVU911
 3157              	.LBB165:
 3158              	.LBI165:
 3159              		.loc 2 168 1 view .LVU912
 3160              	.LBB166:
 3161              		.loc 2 168 1 view .LVU913
 3162 0010 48F28E02 		movw	r2, #32910
 3163 0014 0321     		movs	r1, #3
 3164 0016 5846     		mov	r0, fp
 3165              	.LVL336:
 3166              		.loc 2 168 1 is_stmt 0 view .LVU914
 3167 0018 FFF7FEFF 		bl	_lv_obj_get_style_ptr
 3168              	.LVL337:
 3169 001c 0E90     		str	r0, [sp, #56]
 3170              	.LVL338:
 3171              		.loc 2 168 1 view .LVU915
 3172              	.LBE166:
 3173              	.LBE165:
 825:lvgl/src/lv_widgets/lv_calendar.c ****     lv_style_int_t date_bottom = lv_obj_get_style_pad_bottom(calendar, LV_CALENDAR_PART_DATE);
 3174              		.loc 1 825 5 is_stmt 1 view .LVU916
 3175              	.LBB167:
 3176              	.LBI167:
 110:lvgl/src/lv_widgets/../lv_core/lv_obj_style_dec.h **** _LV_OBJ_STYLE_SET_GET_DECLARE(PAD_BOTTOM, pad_bottom, lv_style_int_t, _int, scalar)
 3177              		.loc 2 110 1 view .LVU917
ARM GAS  D:\Temp\cclvo1nc.s 			page 95


 3178              	.LBB168:
 110:lvgl/src/lv_widgets/../lv_core/lv_obj_style_dec.h **** _LV_OBJ_STYLE_SET_GET_DECLARE(PAD_BOTTOM, pad_bottom, lv_style_int_t, _int, scalar)
 3179              		.loc 2 110 1 view .LVU918
 3180 001e 1022     		movs	r2, #16
 3181 0020 0321     		movs	r1, #3
 3182 0022 5846     		mov	r0, fp
 3183              	.LVL339:
 110:lvgl/src/lv_widgets/../lv_core/lv_obj_style_dec.h **** _LV_OBJ_STYLE_SET_GET_DECLARE(PAD_BOTTOM, pad_bottom, lv_style_int_t, _int, scalar)
 3184              		.loc 2 110 1 is_stmt 0 view .LVU919
 3185 0024 FFF7FEFF 		bl	_lv_obj_get_style_int
 3186              	.LVL340:
 3187 0028 8146     		mov	r9, r0
 3188              	.LVL341:
 110:lvgl/src/lv_widgets/../lv_core/lv_obj_style_dec.h **** _LV_OBJ_STYLE_SET_GET_DECLARE(PAD_BOTTOM, pad_bottom, lv_style_int_t, _int, scalar)
 3189              		.loc 2 110 1 view .LVU920
 3190              	.LBE168:
 3191              	.LBE167:
 826:lvgl/src/lv_widgets/lv_calendar.c ****     lv_style_int_t date_left = lv_obj_get_style_pad_left(calendar, LV_CALENDAR_PART_DATE);
 3192              		.loc 1 826 5 is_stmt 1 view .LVU921
 3193              	.LBB169:
 3194              	.LBI169:
 111:lvgl/src/lv_widgets/../lv_core/lv_obj_style_dec.h **** _LV_OBJ_STYLE_SET_GET_DECLARE(PAD_LEFT, pad_left, lv_style_int_t, _int, scalar)
 3195              		.loc 2 111 1 view .LVU922
 3196              	.LBB170:
 111:lvgl/src/lv_widgets/../lv_core/lv_obj_style_dec.h **** _LV_OBJ_STYLE_SET_GET_DECLARE(PAD_LEFT, pad_left, lv_style_int_t, _int, scalar)
 3197              		.loc 2 111 1 view .LVU923
 3198 002a 1122     		movs	r2, #17
 3199 002c 0321     		movs	r1, #3
 3200 002e 5846     		mov	r0, fp
 3201 0030 FFF7FEFF 		bl	_lv_obj_get_style_int
 3202              	.LVL342:
 3203 0034 0446     		mov	r4, r0
 3204              	.LVL343:
 111:lvgl/src/lv_widgets/../lv_core/lv_obj_style_dec.h **** _LV_OBJ_STYLE_SET_GET_DECLARE(PAD_LEFT, pad_left, lv_style_int_t, _int, scalar)
 3205              		.loc 2 111 1 is_stmt 0 view .LVU924
 3206              	.LBE170:
 3207              	.LBE169:
 827:lvgl/src/lv_widgets/lv_calendar.c ****     lv_style_int_t date_right = lv_obj_get_style_pad_right(calendar, LV_CALENDAR_PART_DATE);
 3208              		.loc 1 827 5 is_stmt 1 view .LVU925
 3209              	.LBB171:
 3210              	.LBI171:
 112:lvgl/src/lv_widgets/../lv_core/lv_obj_style_dec.h **** _LV_OBJ_STYLE_SET_GET_DECLARE(PAD_RIGHT, pad_right, lv_style_int_t, _int, scalar)
 3211              		.loc 2 112 1 view .LVU926
 3212              	.LBB172:
 112:lvgl/src/lv_widgets/../lv_core/lv_obj_style_dec.h **** _LV_OBJ_STYLE_SET_GET_DECLARE(PAD_RIGHT, pad_right, lv_style_int_t, _int, scalar)
 3213              		.loc 2 112 1 view .LVU927
 3214 0036 1222     		movs	r2, #18
 3215 0038 0321     		movs	r1, #3
 3216 003a 5846     		mov	r0, fp
 3217 003c FFF7FEFF 		bl	_lv_obj_get_style_int
 3218              	.LVL344:
 3219 0040 8046     		mov	r8, r0
 3220              	.LVL345:
 112:lvgl/src/lv_widgets/../lv_core/lv_obj_style_dec.h **** _LV_OBJ_STYLE_SET_GET_DECLARE(PAD_RIGHT, pad_right, lv_style_int_t, _int, scalar)
 3221              		.loc 2 112 1 is_stmt 0 view .LVU928
 3222              	.LBE172:
 3223              	.LBE171:
ARM GAS  D:\Temp\cclvo1nc.s 			page 96


 828:lvgl/src/lv_widgets/lv_calendar.c ****     lv_style_int_t date_inner = lv_obj_get_style_pad_inner(calendar, LV_CALENDAR_PART_DATE);
 3224              		.loc 1 828 5 is_stmt 1 view .LVU929
 3225              	.LBB173:
 3226              	.LBI173:
 113:lvgl/src/lv_widgets/../lv_core/lv_obj_style_dec.h **** _LV_OBJ_STYLE_SET_GET_DECLARE(PAD_INNER, pad_inner, lv_style_int_t, _int, scalar)
 3227              		.loc 2 113 1 view .LVU930
 3228              	.LBB174:
 113:lvgl/src/lv_widgets/../lv_core/lv_obj_style_dec.h **** _LV_OBJ_STYLE_SET_GET_DECLARE(PAD_INNER, pad_inner, lv_style_int_t, _int, scalar)
 3229              		.loc 2 113 1 view .LVU931
 3230 0042 1322     		movs	r2, #19
 3231 0044 0321     		movs	r1, #3
 3232 0046 5846     		mov	r0, fp
 3233 0048 FFF7FEFF 		bl	_lv_obj_get_style_int
 3234              	.LVL346:
 3235 004c 0646     		mov	r6, r0
 3236              	.LVL347:
 113:lvgl/src/lv_widgets/../lv_core/lv_obj_style_dec.h **** _LV_OBJ_STYLE_SET_GET_DECLARE(PAD_INNER, pad_inner, lv_style_int_t, _int, scalar)
 3237              		.loc 2 113 1 is_stmt 0 view .LVU932
 3238              	.LBE174:
 3239              	.LBE173:
 829:lvgl/src/lv_widgets/lv_calendar.c **** 
 3240              		.loc 1 829 5 is_stmt 1 view .LVU933
 3241              	.LBB175:
 3242              	.LBI175:
 114:lvgl/src/lv_widgets/../lv_core/lv_obj_style_dec.h **** _LV_OBJ_STYLE_SET_GET_DECLARE(MARGIN_TOP, margin_top, lv_style_int_t, _int, scalar)
 3243              		.loc 2 114 1 view .LVU934
 3244              	.LBB176:
 114:lvgl/src/lv_widgets/../lv_core/lv_obj_style_dec.h **** _LV_OBJ_STYLE_SET_GET_DECLARE(MARGIN_TOP, margin_top, lv_style_int_t, _int, scalar)
 3245              		.loc 2 114 1 view .LVU935
 3246 004e 1422     		movs	r2, #20
 3247 0050 0321     		movs	r1, #3
 3248 0052 5846     		mov	r0, fp
 3249 0054 FFF7FEFF 		bl	_lv_obj_get_style_int
 3250              	.LVL348:
 3251 0058 0546     		mov	r5, r0
 3252              	.LVL349:
 114:lvgl/src/lv_widgets/../lv_core/lv_obj_style_dec.h **** _LV_OBJ_STYLE_SET_GET_DECLARE(MARGIN_TOP, margin_top, lv_style_int_t, _int, scalar)
 3253              		.loc 2 114 1 is_stmt 0 view .LVU936
 3254              	.LBE176:
 3255              	.LBE175:
 831:lvgl/src/lv_widgets/lv_calendar.c ****     lv_coord_t days_h = calendar->coords.y2 - days_y1 - date_bottom;
 3256              		.loc 1 831 5 is_stmt 1 view .LVU937
 831:lvgl/src/lv_widgets/lv_calendar.c ****     lv_coord_t days_h = calendar->coords.y2 - days_y1 - date_bottom;
 3257              		.loc 1 831 42 is_stmt 0 view .LVU938
 3258 005a BBF81230 		ldrh	r3, [fp, #18]
 831:lvgl/src/lv_widgets/lv_calendar.c ****     lv_coord_t days_h = calendar->coords.y2 - days_y1 - date_bottom;
 3259              		.loc 1 831 46 view .LVU939
 3260 005e 9944     		add	r9, r9, r3
 3261              	.LVL350:
 831:lvgl/src/lv_widgets/lv_calendar.c ****     lv_coord_t days_h = calendar->coords.y2 - days_y1 - date_bottom;
 3262              		.loc 1 831 46 view .LVU940
 3263 0060 1FFA89F9 		uxth	r9, r9
 831:lvgl/src/lv_widgets/lv_calendar.c ****     lv_coord_t days_h = calendar->coords.y2 - days_y1 - date_bottom;
 3264              		.loc 1 831 59 view .LVU941
 3265 0064 5846     		mov	r0, fp
 3266 0066 FFF7FEFF 		bl	get_header_height
 3267              	.LVL351:
ARM GAS  D:\Temp\cclvo1nc.s 			page 97


 831:lvgl/src/lv_widgets/lv_calendar.c ****     lv_coord_t days_h = calendar->coords.y2 - days_y1 - date_bottom;
 3268              		.loc 1 831 57 view .LVU942
 3269 006a 19FA80F9 		uxtah	r9, r9, r0
 3270 006e 1FFA89F9 		uxth	r9, r9
 831:lvgl/src/lv_widgets/lv_calendar.c ****     lv_coord_t days_h = calendar->coords.y2 - days_y1 - date_bottom;
 3271              		.loc 1 831 89 view .LVU943
 3272 0072 5846     		mov	r0, fp
 3273 0074 FFF7FEFF 		bl	get_day_names_height
 3274              	.LVL352:
 831:lvgl/src/lv_widgets/lv_calendar.c ****     lv_coord_t days_h = calendar->coords.y2 - days_y1 - date_bottom;
 3275              		.loc 1 831 87 view .LVU944
 3276 0078 19FA80F0 		uxtah	r0, r9, r0
 3277 007c 83B2     		uxth	r3, r0
 3278 007e 1A46     		mov	r2, r3
 3279 0080 0B93     		str	r3, [sp, #44]
 3280              	.LVL353:
 832:lvgl/src/lv_widgets/lv_calendar.c **** 
 3281              		.loc 1 832 5 is_stmt 1 view .LVU945
 832:lvgl/src/lv_widgets/lv_calendar.c **** 
 3282              		.loc 1 832 41 is_stmt 0 view .LVU946
 3283 0082 BBF81630 		ldrh	r3, [fp, #22]
 832:lvgl/src/lv_widgets/lv_calendar.c **** 
 3284              		.loc 1 832 45 view .LVU947
 3285 0086 9B1A     		subs	r3, r3, r2
 3286 0088 9BB2     		uxth	r3, r3
 832:lvgl/src/lv_widgets/lv_calendar.c **** 
 3287              		.loc 1 832 55 view .LVU948
 3288 008a 1C1B     		subs	r4, r3, r4
 3289              	.LVL354:
 832:lvgl/src/lv_widgets/lv_calendar.c **** 
 3290              		.loc 1 832 16 view .LVU949
 3291 008c 24B2     		sxth	r4, r4
 3292              	.LVL355:
 835:lvgl/src/lv_widgets/lv_calendar.c ****     calendar->state = LV_STATE_DEFAULT;
 3293              		.loc 1 835 5 is_stmt 1 view .LVU950
 835:lvgl/src/lv_widgets/lv_calendar.c ****     calendar->state = LV_STATE_DEFAULT;
 3294              		.loc 1 835 16 is_stmt 0 view .LVU951
 3295 008e 9BF83D30 		ldrb	r3, [fp, #61]	@ zero_extendqisi2
 3296 0092 0F93     		str	r3, [sp, #60]
 3297              	.LVL356:
 836:lvgl/src/lv_widgets/lv_calendar.c ****     _lv_obj_disable_style_caching(calendar, true);
 3298              		.loc 1 836 5 is_stmt 1 view .LVU952
 836:lvgl/src/lv_widgets/lv_calendar.c ****     _lv_obj_disable_style_caching(calendar, true);
 3299              		.loc 1 836 21 is_stmt 0 view .LVU953
 3300 0094 0023     		movs	r3, #0
 3301 0096 8BF83D30 		strb	r3, [fp, #61]
 837:lvgl/src/lv_widgets/lv_calendar.c **** 
 3302              		.loc 1 837 5 is_stmt 1 view .LVU954
 3303 009a 0121     		movs	r1, #1
 3304 009c 5846     		mov	r0, fp
 3305 009e FFF7FEFF 		bl	_lv_obj_disable_style_caching
 3306              	.LVL357:
 839:lvgl/src/lv_widgets/lv_calendar.c **** 
 3307              		.loc 1 839 5 view .LVU955
 841:lvgl/src/lv_widgets/lv_calendar.c ****     lv_coord_t days_w      = lv_obj_get_width(calendar) - date_left - date_right;
 3308              		.loc 1 841 5 view .LVU956
 842:lvgl/src/lv_widgets/lv_calendar.c ****     lv_coord_t box_w      = (days_w - date_inner * 6) / 7;
ARM GAS  D:\Temp\cclvo1nc.s 			page 98


 3309              		.loc 1 842 5 view .LVU957
 842:lvgl/src/lv_widgets/lv_calendar.c ****     lv_coord_t box_w      = (days_w - date_inner * 6) / 7;
 3310              		.loc 1 842 30 is_stmt 0 view .LVU958
 3311 00a2 5846     		mov	r0, fp
 3312 00a4 FFF7FEFF 		bl	lv_obj_get_width
 3313              	.LVL358:
 3314 00a8 83B2     		uxth	r3, r0
 842:lvgl/src/lv_widgets/lv_calendar.c ****     lv_coord_t box_w      = (days_w - date_inner * 6) / 7;
 3315              		.loc 1 842 57 view .LVU959
 3316 00aa 1FFA88F2 		uxth	r2, r8
 3317 00ae 0792     		str	r2, [sp, #28]
 3318 00b0 9B1A     		subs	r3, r3, r2
 3319 00b2 9BB2     		uxth	r3, r3
 842:lvgl/src/lv_widgets/lv_calendar.c ****     lv_coord_t box_w      = (days_w - date_inner * 6) / 7;
 3320              		.loc 1 842 69 view .LVU960
 3321 00b4 9E1B     		subs	r6, r3, r6
 3322              	.LVL359:
 842:lvgl/src/lv_widgets/lv_calendar.c ****     lv_coord_t box_w      = (days_w - date_inner * 6) / 7;
 3323              		.loc 1 842 16 view .LVU961
 3324 00b6 31B2     		sxth	r1, r6
 3325 00b8 0891     		str	r1, [sp, #32]
 843:lvgl/src/lv_widgets/lv_calendar.c ****     lv_coord_t box_h      = (days_h - 5 * date_inner) / 6;
 3326              		.loc 1 843 5 is_stmt 1 view .LVU962
 843:lvgl/src/lv_widgets/lv_calendar.c ****     lv_coord_t box_h      = (days_h - 5 * date_inner) / 6;
 3327              		.loc 1 843 50 is_stmt 0 view .LVU963
 3328 00ba A5EB8502 		sub	r2, r5, r5, lsl #2
 3329 00be 5300     		lsls	r3, r2, #1
 843:lvgl/src/lv_widgets/lv_calendar.c ****     lv_coord_t box_h      = (days_h - 5 * date_inner) / 6;
 3330              		.loc 1 843 37 view .LVU964
 3331 00c0 0B44     		add	r3, r3, r1
 843:lvgl/src/lv_widgets/lv_calendar.c ****     lv_coord_t box_h      = (days_h - 5 * date_inner) / 6;
 3332              		.loc 1 843 55 view .LVU965
 3333 00c2 984A     		ldr	r2, .L235
 3334 00c4 82FB0312 		smull	r1, r2, r2, r3
 3335 00c8 1A44     		add	r2, r2, r3
 3336 00ca DB17     		asrs	r3, r3, #31
 3337 00cc C3EBA203 		rsb	r3, r3, r2, asr #2
 843:lvgl/src/lv_widgets/lv_calendar.c ****     lv_coord_t box_h      = (days_h - 5 * date_inner) / 6;
 3338              		.loc 1 843 16 view .LVU966
 3339 00d0 1BB2     		sxth	r3, r3
 3340              	.LVL360:
 844:lvgl/src/lv_widgets/lv_calendar.c ****     lv_coord_t box_size = LV_MATH_MIN(box_w, box_h);
 3341              		.loc 1 844 5 is_stmt 1 view .LVU967
 844:lvgl/src/lv_widgets/lv_calendar.c ****     lv_coord_t box_size = LV_MATH_MIN(box_w, box_h);
 3342              		.loc 1 844 37 is_stmt 0 view .LVU968
 3343 00d2 0C94     		str	r4, [sp, #48]
 844:lvgl/src/lv_widgets/lv_calendar.c ****     lv_coord_t box_size = LV_MATH_MIN(box_w, box_h);
 3344              		.loc 1 844 41 view .LVU969
 3345 00d4 C5EB8572 		rsb	r2, r5, r5, lsl #30
 3346 00d8 C5EB8205 		rsb	r5, r5, r2, lsl #2
 3347              	.LVL361:
 844:lvgl/src/lv_widgets/lv_calendar.c ****     lv_coord_t box_size = LV_MATH_MIN(box_w, box_h);
 3348              		.loc 1 844 37 view .LVU970
 3349 00dc 2544     		add	r5, r5, r4
 844:lvgl/src/lv_widgets/lv_calendar.c ****     lv_coord_t box_size = LV_MATH_MIN(box_w, box_h);
 3350              		.loc 1 844 55 view .LVU971
 3351 00de 924A     		ldr	r2, .L235+4
ARM GAS  D:\Temp\cclvo1nc.s 			page 99


 3352 00e0 82FB0512 		smull	r1, r2, r2, r5
 3353 00e4 A2EBE572 		sub	r2, r2, r5, asr #31
 844:lvgl/src/lv_widgets/lv_calendar.c ****     lv_coord_t box_size = LV_MATH_MIN(box_w, box_h);
 3354              		.loc 1 844 16 view .LVU972
 3355 00e8 12B2     		sxth	r2, r2
 3356              	.LVL362:
 845:lvgl/src/lv_widgets/lv_calendar.c **** 
 3357              		.loc 1 845 5 is_stmt 1 view .LVU973
 845:lvgl/src/lv_widgets/lv_calendar.c **** 
 3358              		.loc 1 845 16 is_stmt 0 view .LVU974
 3359 00ea 9342     		cmp	r3, r2
 3360 00ec A8BF     		it	ge
 3361 00ee 1346     		movge	r3, r2
 3362              	.LVL363:
 845:lvgl/src/lv_widgets/lv_calendar.c **** 
 3363              		.loc 1 845 16 view .LVU975
 3364 00f0 0D93     		str	r3, [sp, #52]
 3365              	.LVL364:
 847:lvgl/src/lv_widgets/lv_calendar.c **** 
 3366              		.loc 1 847 5 is_stmt 1 view .LVU976
 847:lvgl/src/lv_widgets/lv_calendar.c **** 
 3367              		.loc 1 847 75 is_stmt 0 view .LVU977
 3368 00f2 BC88     		ldrh	r4, [r7, #4]
 3369              	.LVL365:
 847:lvgl/src/lv_widgets/lv_calendar.c **** 
 3370              		.loc 1 847 98 view .LVU978
 3371 00f4 97F90650 		ldrsb	r5, [r7, #6]
 847:lvgl/src/lv_widgets/lv_calendar.c **** 
 3372              		.loc 1 847 31 view .LVU979
 3373 00f8 0122     		movs	r2, #1
 3374              	.LVL366:
 847:lvgl/src/lv_widgets/lv_calendar.c **** 
 3375              		.loc 1 847 31 view .LVU980
 3376 00fa 2946     		mov	r1, r5
 3377 00fc 2046     		mov	r0, r4
 3378 00fe FFF7FEFF 		bl	lv_calendar_get_day_of_week
 3379              	.LVL367:
 849:lvgl/src/lv_widgets/lv_calendar.c **** 
 3380              		.loc 1 849 5 is_stmt 1 view .LVU981
 852:lvgl/src/lv_widgets/lv_calendar.c ****         day_cnt    = 1;
 3381              		.loc 1 852 5 view .LVU982
 852:lvgl/src/lv_widgets/lv_calendar.c ****         day_cnt    = 1;
 3382              		.loc 1 852 7 is_stmt 0 view .LVU983
 3383 0102 0A90     		str	r0, [sp, #40]
 3384 0104 D0B1     		cbz	r0, .L223
 3385 0106 0646     		mov	r6, r0
 858:lvgl/src/lv_widgets/lv_calendar.c ****         day_cnt = get_month_length(ext->showed_date.year, ext->showed_date.month - 1); /*Length of 
 3386              		.loc 1 858 9 is_stmt 1 view .LVU984
 3387              	.LVL368:
 859:lvgl/src/lv_widgets/lv_calendar.c ****         day_cnt -= month_start_day - 1; /*First visible number of the previous month*/
 3388              		.loc 1 859 9 view .LVU985
 859:lvgl/src/lv_widgets/lv_calendar.c ****         day_cnt -= month_start_day - 1; /*First visible number of the previous month*/
 3389              		.loc 1 859 19 is_stmt 0 view .LVU986
 3390 0108 691E     		subs	r1, r5, #1
 3391 010a 2046     		mov	r0, r4
 3392              	.LVL369:
 859:lvgl/src/lv_widgets/lv_calendar.c ****         day_cnt -= month_start_day - 1; /*First visible number of the previous month*/
ARM GAS  D:\Temp\cclvo1nc.s 			page 100


 3393              		.loc 1 859 19 view .LVU987
 3394 010c FFF7FEFF 		bl	get_month_length
 3395              	.LVL370:
 860:lvgl/src/lv_widgets/lv_calendar.c ****         month_state = LV_STATE_DISABLED;
 3396              		.loc 1 860 9 is_stmt 1 view .LVU988
 860:lvgl/src/lv_widgets/lv_calendar.c ****         month_state = LV_STATE_DISABLED;
 3397              		.loc 1 860 17 is_stmt 0 view .LVU989
 3398 0110 841B     		subs	r4, r0, r6
 3399 0112 E4B2     		uxtb	r4, r4
 3400 0114 0134     		adds	r4, r4, #1
 3401 0116 E4B2     		uxtb	r4, r4
 3402              	.LVL371:
 861:lvgl/src/lv_widgets/lv_calendar.c ****     }
 3403              		.loc 1 861 9 is_stmt 1 view .LVU990
 858:lvgl/src/lv_widgets/lv_calendar.c ****         day_cnt = get_month_length(ext->showed_date.year, ext->showed_date.month - 1); /*Length of 
 3404              		.loc 1 858 20 is_stmt 0 view .LVU991
 3405 0118 0026     		movs	r6, #0
 861:lvgl/src/lv_widgets/lv_calendar.c ****     }
 3406              		.loc 1 861 21 view .LVU992
 3407 011a 2023     		movs	r3, #32
 3408 011c 0293     		str	r3, [sp, #8]
 3409              	.LVL372:
 3410              	.L207:
 864:lvgl/src/lv_widgets/lv_calendar.c ****     if(ext->showed_date.year == ext->today.year && ext->showed_date.month == ext->today.month) {
 3411              		.loc 1 864 5 is_stmt 1 view .LVU993
 865:lvgl/src/lv_widgets/lv_calendar.c ****         month_of_today_shown = true;
 3412              		.loc 1 865 5 view .LVU994
 865:lvgl/src/lv_widgets/lv_calendar.c ****         month_of_today_shown = true;
 3413              		.loc 1 865 49 is_stmt 0 view .LVU995
 3414 011e 7B68     		ldr	r3, [r7, #4]
 3415 0120 23F07F42 		bic	r2, r3, #-16777216
 3416 0124 3B68     		ldr	r3, [r7]
 3417 0126 23F07F43 		bic	r3, r3, #-16777216
 865:lvgl/src/lv_widgets/lv_calendar.c ****         month_of_today_shown = true;
 3418              		.loc 1 865 7 view .LVU996
 3419 012a 9A42     		cmp	r2, r3
 3420 012c 0BD0     		beq	.L224
 864:lvgl/src/lv_widgets/lv_calendar.c ****     if(ext->showed_date.year == ext->today.year && ext->showed_date.month == ext->today.month) {
 3421              		.loc 1 864 10 view .LVU997
 3422 012e 0023     		movs	r3, #0
 3423 0130 0993     		str	r3, [sp, #36]
 3424              	.L208:
 3425              	.LVL373:
 869:lvgl/src/lv_widgets/lv_calendar.c **** 
 3426              		.loc 1 869 5 is_stmt 1 view .LVU998
 872:lvgl/src/lv_widgets/lv_calendar.c ****     lv_draw_label_dsc_t label_dsc;
 3427              		.loc 1 872 5 view .LVU999
 873:lvgl/src/lv_widgets/lv_calendar.c ****     lv_state_t prev_state = 0xFF;
 3428              		.loc 1 873 5 view .LVU1000
 874:lvgl/src/lv_widgets/lv_calendar.c ****     uint32_t week;
 3429              		.loc 1 874 5 view .LVU1001
 875:lvgl/src/lv_widgets/lv_calendar.c ****     for(week = 0; week < 6; week++) {
 3430              		.loc 1 875 5 view .LVU1002
 876:lvgl/src/lv_widgets/lv_calendar.c ****         lv_area_t box_area;
 3431              		.loc 1 876 5 view .LVU1003
 876:lvgl/src/lv_widgets/lv_calendar.c ****         lv_area_t box_area;
 3432              		.loc 1 876 14 is_stmt 0 view .LVU1004
ARM GAS  D:\Temp\cclvo1nc.s 			page 101


 3433 0132 0023     		movs	r3, #0
 3434 0134 0593     		str	r3, [sp, #20]
 874:lvgl/src/lv_widgets/lv_calendar.c ****     uint32_t week;
 3435              		.loc 1 874 16 view .LVU1005
 3436 0136 FF23     		movs	r3, #255
 3437 0138 0393     		str	r3, [sp, #12]
 876:lvgl/src/lv_widgets/lv_calendar.c ****         lv_area_t box_area;
 3438              		.loc 1 876 5 view .LVU1006
 3439 013a AFE0     		b	.L209
 3440              	.LVL374:
 3441              	.L223:
 854:lvgl/src/lv_widgets/lv_calendar.c ****         month_state  = 0;
 3442              		.loc 1 854 20 view .LVU1007
 3443 013c 0126     		movs	r6, #1
 853:lvgl/src/lv_widgets/lv_calendar.c ****         draw_state = DAY_DRAW_ACT_MONTH;
 3444              		.loc 1 853 20 view .LVU1008
 3445 013e 3446     		mov	r4, r6
 855:lvgl/src/lv_widgets/lv_calendar.c ****     }
 3446              		.loc 1 855 22 view .LVU1009
 3447 0140 0023     		movs	r3, #0
 3448 0142 0293     		str	r3, [sp, #8]
 3449 0144 EBE7     		b	.L207
 3450              	.LVL375:
 3451              	.L224:
 866:lvgl/src/lv_widgets/lv_calendar.c ****     }
 3452              		.loc 1 866 30 view .LVU1010
 3453 0146 0123     		movs	r3, #1
 3454 0148 0993     		str	r3, [sp, #36]
 3455 014a F2E7     		b	.L208
 3456              	.LVL376:
 3457              	.L234:
 3458              	.LBB177:
 883:lvgl/src/lv_widgets/lv_calendar.c ****             _lv_obj_disable_style_caching(calendar, false);
 3459              		.loc 1 883 13 is_stmt 1 view .LVU1011
 883:lvgl/src/lv_widgets/lv_calendar.c ****             _lv_obj_disable_style_caching(calendar, false);
 3460              		.loc 1 883 29 is_stmt 0 view .LVU1012
 3461 014c 0F9B     		ldr	r3, [sp, #60]
 3462 014e 8BF83D30 		strb	r3, [fp, #61]
 884:lvgl/src/lv_widgets/lv_calendar.c ****             return;
 3463              		.loc 1 884 13 is_stmt 1 view .LVU1013
 3464 0152 0021     		movs	r1, #0
 3465 0154 5846     		mov	r0, fp
 3466 0156 FFF7FEFF 		bl	_lv_obj_disable_style_caching
 3467              	.LVL377:
 885:lvgl/src/lv_widgets/lv_calendar.c ****         }
 3468              		.loc 1 885 13 view .LVU1014
 3469 015a DFE0     		b	.L206
 3470              	.LVL378:
 3471              	.L213:
 3472              	.LBB178:
 902:lvgl/src/lv_widgets/lv_calendar.c ****                     day_cnt > get_month_length(ext->showed_date.year, ext->showed_date.month)) {
 3473              		.loc 1 902 18 view .LVU1015
 902:lvgl/src/lv_widgets/lv_calendar.c ****                     day_cnt > get_month_length(ext->showed_date.year, ext->showed_date.month)) {
 3474              		.loc 1 902 20 is_stmt 0 view .LVU1016
 3475 015c 012E     		cmp	r6, #1
 3476 015e 15D0     		beq	.L229
 3477              	.LVL379:
ARM GAS  D:\Temp\cclvo1nc.s 			page 102


 3478              	.L214:
 909:lvgl/src/lv_widgets/lv_calendar.c ****                 day_cnt++;
 3479              		.loc 1 909 13 is_stmt 1 view .LVU1017
 909:lvgl/src/lv_widgets/lv_calendar.c ****                 day_cnt++;
 3480              		.loc 1 909 24 is_stmt 0 view .LVU1018
 3481 0160 BDF94A20 		ldrsh	r2, [sp, #74]
 909:lvgl/src/lv_widgets/lv_calendar.c ****                 day_cnt++;
 3482              		.loc 1 909 39 view .LVU1019
 3483 0164 BAF90230 		ldrsh	r3, [r10, #2]
 909:lvgl/src/lv_widgets/lv_calendar.c ****                 day_cnt++;
 3484              		.loc 1 909 15 view .LVU1020
 3485 0168 9A42     		cmp	r2, r3
 3486 016a 1BDA     		bge	.L215
 910:lvgl/src/lv_widgets/lv_calendar.c ****                 continue;
 3487              		.loc 1 910 17 is_stmt 1 view .LVU1021
 910:lvgl/src/lv_widgets/lv_calendar.c ****                 continue;
 3488              		.loc 1 910 24 is_stmt 0 view .LVU1022
 3489 016c 0134     		adds	r4, r4, #1
 3490              	.LVL380:
 910:lvgl/src/lv_widgets/lv_calendar.c ****                 continue;
 3491              		.loc 1 910 24 view .LVU1023
 3492 016e E4B2     		uxtb	r4, r4
 3493              	.LVL381:
 911:lvgl/src/lv_widgets/lv_calendar.c ****             }
 3494              		.loc 1 911 17 is_stmt 1 view .LVU1024
 3495              	.L216:
 911:lvgl/src/lv_widgets/lv_calendar.c ****             }
 3496              		.loc 1 911 17 is_stmt 0 view .LVU1025
 3497              	.LBE178:
 894:lvgl/src/lv_widgets/lv_calendar.c ****             /*The previous month is over*/
 3498              		.loc 1 894 34 discriminator 2 view .LVU1026
 3499 0170 0135     		adds	r5, r5, #1
 3500              	.LVL382:
 3501              	.L212:
 894:lvgl/src/lv_widgets/lv_calendar.c ****             /*The previous month is over*/
 3502              		.loc 1 894 9 discriminator 1 view .LVU1027
 3503 0172 062D     		cmp	r5, #6
 3504 0174 00F28F80 		bhi	.L230
 3505              	.LBB179:
 896:lvgl/src/lv_widgets/lv_calendar.c ****                 draw_state = DAY_DRAW_ACT_MONTH;
 3506              		.loc 1 896 13 is_stmt 1 view .LVU1028
 896:lvgl/src/lv_widgets/lv_calendar.c ****                 draw_state = DAY_DRAW_ACT_MONTH;
 3507              		.loc 1 896 15 is_stmt 0 view .LVU1029
 3508 0178 002E     		cmp	r6, #0
 3509 017a EFD1     		bne	.L213
 896:lvgl/src/lv_widgets/lv_calendar.c ****                 draw_state = DAY_DRAW_ACT_MONTH;
 3510              		.loc 1 896 50 discriminator 1 view .LVU1030
 3511 017c 0A9B     		ldr	r3, [sp, #40]
 3512 017e AB42     		cmp	r3, r5
 3513 0180 ECD1     		bne	.L213
 897:lvgl/src/lv_widgets/lv_calendar.c ****                 day_cnt    = 1;
 3514              		.loc 1 897 28 view .LVU1031
 3515 0182 0126     		movs	r6, #1
 3516              	.LVL383:
 898:lvgl/src/lv_widgets/lv_calendar.c ****                 month_state  = 0;
 3517              		.loc 1 898 28 view .LVU1032
 3518 0184 3446     		mov	r4, r6
ARM GAS  D:\Temp\cclvo1nc.s 			page 103


 3519              	.LVL384:
 899:lvgl/src/lv_widgets/lv_calendar.c ****             }
 3520              		.loc 1 899 30 view .LVU1033
 3521 0186 0023     		movs	r3, #0
 3522 0188 0293     		str	r3, [sp, #8]
 3523              	.LVL385:
 899:lvgl/src/lv_widgets/lv_calendar.c ****             }
 3524              		.loc 1 899 30 view .LVU1034
 3525 018a E9E7     		b	.L214
 3526              	.LVL386:
 3527              	.L229:
 903:lvgl/src/lv_widgets/lv_calendar.c ****                 draw_state = DAY_DRAW_NEXT_MONTH;
 3528              		.loc 1 903 31 discriminator 1 view .LVU1035
 3529 018c 97F90610 		ldrsb	r1, [r7, #6]
 3530 0190 B888     		ldrh	r0, [r7, #4]
 3531 0192 FFF7FEFF 		bl	get_month_length
 3532              	.LVL387:
 902:lvgl/src/lv_widgets/lv_calendar.c ****                     day_cnt > get_month_length(ext->showed_date.year, ext->showed_date.month)) {
 3533              		.loc 1 902 54 discriminator 1 view .LVU1036
 3534 0196 A042     		cmp	r0, r4
 3535 0198 E2D2     		bcs	.L214
 904:lvgl/src/lv_widgets/lv_calendar.c ****                 day_cnt    = 1;
 3536              		.loc 1 904 28 view .LVU1037
 3537 019a 0226     		movs	r6, #2
 3538              	.LVL388:
 905:lvgl/src/lv_widgets/lv_calendar.c ****                 month_state  = LV_STATE_DISABLED;
 3539              		.loc 1 905 28 view .LVU1038
 3540 019c 0124     		movs	r4, #1
 3541              	.LVL389:
 906:lvgl/src/lv_widgets/lv_calendar.c ****             }
 3542              		.loc 1 906 30 view .LVU1039
 3543 019e 2023     		movs	r3, #32
 3544 01a0 0293     		str	r3, [sp, #8]
 3545              	.LVL390:
 906:lvgl/src/lv_widgets/lv_calendar.c ****             }
 3546              		.loc 1 906 30 view .LVU1040
 3547 01a2 DDE7     		b	.L214
 3548              	.LVL391:
 3549              	.L215:
 914:lvgl/src/lv_widgets/lv_calendar.c ****             if(is_pressed(calendar, draw_state, ext->showed_date.year, ext->showed_date.month, day_
 3550              		.loc 1 914 13 is_stmt 1 view .LVU1041
 915:lvgl/src/lv_widgets/lv_calendar.c ****                 day_state |= LV_STATE_PRESSED;
 3551              		.loc 1 915 13 view .LVU1042
 915:lvgl/src/lv_widgets/lv_calendar.c ****                 day_state |= LV_STATE_PRESSED;
 3552              		.loc 1 915 65 is_stmt 0 view .LVU1043
 3553 01a4 BA88     		ldrh	r2, [r7, #4]
 915:lvgl/src/lv_widgets/lv_calendar.c ****                 day_state |= LV_STATE_PRESSED;
 3554              		.loc 1 915 88 view .LVU1044
 3555 01a6 97F90630 		ldrsb	r3, [r7, #6]
 915:lvgl/src/lv_widgets/lv_calendar.c ****                 day_state |= LV_STATE_PRESSED;
 3556              		.loc 1 915 16 view .LVU1045
 3557 01aa A146     		mov	r9, r4
 3558 01ac 0094     		str	r4, [sp]
 3559 01ae 3146     		mov	r1, r6
 3560 01b0 5846     		mov	r0, fp
 3561 01b2 FFF7FEFF 		bl	is_pressed
 3562              	.LVL392:
ARM GAS  D:\Temp\cclvo1nc.s 			page 104


 915:lvgl/src/lv_widgets/lv_calendar.c ****                 day_state |= LV_STATE_PRESSED;
 3563              		.loc 1 915 15 view .LVU1046
 3564 01b6 0028     		cmp	r0, #0
 3565 01b8 4BD0     		beq	.L227
 916:lvgl/src/lv_widgets/lv_calendar.c ****             }
 3566              		.loc 1 916 17 is_stmt 1 view .LVU1047
 916:lvgl/src/lv_widgets/lv_calendar.c ****             }
 3567              		.loc 1 916 27 is_stmt 0 view .LVU1048
 3568 01ba 029B     		ldr	r3, [sp, #8]
 3569 01bc 43F01008 		orr	r8, r3, #16
 3570              	.LVL393:
 3571              	.L217:
 918:lvgl/src/lv_widgets/lv_calendar.c ****                 day_state |= LV_STATE_CHECKED;
 3572              		.loc 1 918 13 is_stmt 1 view .LVU1049
 918:lvgl/src/lv_widgets/lv_calendar.c ****                 day_state |= LV_STATE_CHECKED;
 3573              		.loc 1 918 69 is_stmt 0 view .LVU1050
 3574 01c0 BA88     		ldrh	r2, [r7, #4]
 918:lvgl/src/lv_widgets/lv_calendar.c ****                 day_state |= LV_STATE_CHECKED;
 3575              		.loc 1 918 92 view .LVU1051
 3576 01c2 97F90630 		ldrsb	r3, [r7, #6]
 918:lvgl/src/lv_widgets/lv_calendar.c ****                 day_state |= LV_STATE_CHECKED;
 3577              		.loc 1 918 16 view .LVU1052
 3578 01c6 CDF80090 		str	r9, [sp]
 3579 01ca 3146     		mov	r1, r6
 3580 01cc 5846     		mov	r0, fp
 3581 01ce FFF7FEFF 		bl	is_highlighted
 3582              	.LVL394:
 918:lvgl/src/lv_widgets/lv_calendar.c ****                 day_state |= LV_STATE_CHECKED;
 3583              		.loc 1 918 15 view .LVU1053
 3584 01d2 18B1     		cbz	r0, .L218
 919:lvgl/src/lv_widgets/lv_calendar.c ****             }
 3585              		.loc 1 919 17 is_stmt 1 view .LVU1054
 919:lvgl/src/lv_widgets/lv_calendar.c ****             }
 3586              		.loc 1 919 27 is_stmt 0 view .LVU1055
 3587 01d4 48F00108 		orr	r8, r8, #1
 3588              	.LVL395:
 919:lvgl/src/lv_widgets/lv_calendar.c ****             }
 3589              		.loc 1 919 27 view .LVU1056
 3590 01d8 5FFA88F8 		uxtb	r8, r8
 3591              	.LVL396:
 3592              	.L218:
 921:lvgl/src/lv_widgets/lv_calendar.c ****                 day_state |= LV_STATE_FOCUSED;
 3593              		.loc 1 921 13 is_stmt 1 view .LVU1057
 921:lvgl/src/lv_widgets/lv_calendar.c ****                 day_state |= LV_STATE_FOCUSED;
 3594              		.loc 1 921 15 is_stmt 0 view .LVU1058
 3595 01dc 099B     		ldr	r3, [sp, #36]
 3596 01de 1BB1     		cbz	r3, .L219
 921:lvgl/src/lv_widgets/lv_calendar.c ****                 day_state |= LV_STATE_FOCUSED;
 3597              		.loc 1 921 61 discriminator 1 view .LVU1059
 3598 01e0 97F90330 		ldrsb	r3, [r7, #3]
 921:lvgl/src/lv_widgets/lv_calendar.c ****                 day_state |= LV_STATE_FOCUSED;
 3599              		.loc 1 921 37 discriminator 1 view .LVU1060
 3600 01e4 9945     		cmp	r9, r3
 3601 01e6 37D0     		beq	.L231
 3602              	.L219:
 925:lvgl/src/lv_widgets/lv_calendar.c ****                 lv_draw_rect_dsc_init(&rect_dsc);
 3603              		.loc 1 925 13 is_stmt 1 view .LVU1061
ARM GAS  D:\Temp\cclvo1nc.s 			page 105


 925:lvgl/src/lv_widgets/lv_calendar.c ****                 lv_draw_rect_dsc_init(&rect_dsc);
 3604              		.loc 1 925 15 is_stmt 0 view .LVU1062
 3605 01e8 039B     		ldr	r3, [sp, #12]
 3606 01ea 4345     		cmp	r3, r8
 3607 01ec 3BD1     		bne	.L232
 3608              	.LVL397:
 3609              	.L220:
 937:lvgl/src/lv_widgets/lv_calendar.c ****             label_area.x2 = label_area.x1 + box_size - 1;
 3610              		.loc 1 937 13 is_stmt 1 view .LVU1063
 937:lvgl/src/lv_widgets/lv_calendar.c ****             label_area.x2 = label_area.x1 + box_size - 1;
 3611              		.loc 1 937 45 is_stmt 0 view .LVU1064
 3612 01ee BBF81030 		ldrh	r3, [fp, #16]
 937:lvgl/src/lv_widgets/lv_calendar.c ****             label_area.x2 = label_area.x1 + box_size - 1;
 3613              		.loc 1 937 60 view .LVU1065
 3614 01f2 089A     		ldr	r2, [sp, #32]
 3615 01f4 0499     		ldr	r1, [sp, #16]
 3616 01f6 521A     		subs	r2, r2, r1
 937:lvgl/src/lv_widgets/lv_calendar.c ****             label_area.x2 = label_area.x1 + box_size - 1;
 3617              		.loc 1 937 72 view .LVU1066
 3618 01f8 05FB02F2 		mul	r2, r5, r2
 937:lvgl/src/lv_widgets/lv_calendar.c ****             label_area.x2 = label_area.x1 + box_size - 1;
 3619              		.loc 1 937 79 view .LVU1067
 3620 01fc 4B49     		ldr	r1, .L235+8
 3621 01fe A1FB0212 		umull	r1, r2, r1, r2
 937:lvgl/src/lv_widgets/lv_calendar.c ****             label_area.x2 = label_area.x1 + box_size - 1;
 3622              		.loc 1 937 49 view .LVU1068
 3623 0202 03EB9203 		add	r3, r3, r2, lsr #2
 937:lvgl/src/lv_widgets/lv_calendar.c ****             label_area.x2 = label_area.x1 + box_size - 1;
 3624              		.loc 1 937 83 view .LVU1069
 3625 0206 079A     		ldr	r2, [sp, #28]
 3626 0208 12FA83F3 		uxtah	r3, r2, r3
 3627 020c 9BB2     		uxth	r3, r3
 3628 020e 1AB2     		sxth	r2, r3
 937:lvgl/src/lv_widgets/lv_calendar.c ****             label_area.x2 = label_area.x1 + box_size - 1;
 3629              		.loc 1 937 27 view .LVU1070
 3630 0210 ADF84C20 		strh	r2, [sp, #76]	@ movhi
 938:lvgl/src/lv_widgets/lv_calendar.c **** 
 3631              		.loc 1 938 13 is_stmt 1 view .LVU1071
 938:lvgl/src/lv_widgets/lv_calendar.c **** 
 3632              		.loc 1 938 43 is_stmt 0 view .LVU1072
 3633 0214 0699     		ldr	r1, [sp, #24]
 3634 0216 0B44     		add	r3, r3, r1
 3635 0218 9BB2     		uxth	r3, r3
 938:lvgl/src/lv_widgets/lv_calendar.c **** 
 3636              		.loc 1 938 54 view .LVU1073
 3637 021a 013B     		subs	r3, r3, #1
 3638 021c 1BB2     		sxth	r3, r3
 938:lvgl/src/lv_widgets/lv_calendar.c **** 
 3639              		.loc 1 938 27 view .LVU1074
 3640 021e ADF85030 		strh	r3, [sp, #80]	@ movhi
 940:lvgl/src/lv_widgets/lv_calendar.c ****             box_area.x2 = label_area.x2;
 3641              		.loc 1 940 13 is_stmt 1 view .LVU1075
 940:lvgl/src/lv_widgets/lv_calendar.c ****             box_area.x2 = label_area.x2;
 3642              		.loc 1 940 25 is_stmt 0 view .LVU1076
 3643 0222 ADF84420 		strh	r2, [sp, #68]	@ movhi
 941:lvgl/src/lv_widgets/lv_calendar.c **** 
 3644              		.loc 1 941 13 is_stmt 1 view .LVU1077
ARM GAS  D:\Temp\cclvo1nc.s 			page 106


 941:lvgl/src/lv_widgets/lv_calendar.c **** 
 3645              		.loc 1 941 25 is_stmt 0 view .LVU1078
 3646 0226 ADF84830 		strh	r3, [sp, #72]	@ movhi
 943:lvgl/src/lv_widgets/lv_calendar.c **** 
 3647              		.loc 1 943 13 is_stmt 1 view .LVU1079
 3648 022a 1EAA     		add	r2, sp, #120
 3649 022c 5146     		mov	r1, r10
 3650 022e 11A8     		add	r0, sp, #68
 3651 0230 FFF7FEFF 		bl	lv_draw_rect
 3652              	.LVL398:
 946:lvgl/src/lv_widgets/lv_calendar.c ****             lv_draw_label(&label_area, clip_area, &label_dsc, buf, NULL);
 3653              		.loc 1 946 13 view .LVU1080
 3654 0234 33A9     		add	r1, sp, #204
 3655 0236 4846     		mov	r0, r9
 3656 0238 FFF7FEFF 		bl	_lv_utils_num_to_str
 3657              	.LVL399:
 947:lvgl/src/lv_widgets/lv_calendar.c **** 
 3658              		.loc 1 947 13 view .LVU1081
 3659 023c 0023     		movs	r3, #0
 3660 023e 0093     		str	r3, [sp]
 3661 0240 33AB     		add	r3, sp, #204
 3662 0242 15AA     		add	r2, sp, #84
 3663 0244 5146     		mov	r1, r10
 3664 0246 13A8     		add	r0, sp, #76
 3665 0248 FFF7FEFF 		bl	lv_draw_label
 3666              	.LVL400:
 950:lvgl/src/lv_widgets/lv_calendar.c ****         }
 3667              		.loc 1 950 13 view .LVU1082
 950:lvgl/src/lv_widgets/lv_calendar.c ****         }
 3668              		.loc 1 950 20 is_stmt 0 view .LVU1083
 3669 024c 0134     		adds	r4, r4, #1
 3670              	.LVL401:
 950:lvgl/src/lv_widgets/lv_calendar.c ****         }
 3671              		.loc 1 950 20 view .LVU1084
 3672 024e E4B2     		uxtb	r4, r4
 3673              	.LVL402:
 950:lvgl/src/lv_widgets/lv_calendar.c ****         }
 3674              		.loc 1 950 20 view .LVU1085
 3675 0250 8EE7     		b	.L216
 3676              	.LVL403:
 3677              	.L227:
 914:lvgl/src/lv_widgets/lv_calendar.c ****             if(is_pressed(calendar, draw_state, ext->showed_date.year, ext->showed_date.month, day_
 3678              		.loc 1 914 24 view .LVU1086
 3679 0252 DDF80880 		ldr	r8, [sp, #8]
 3680 0256 B3E7     		b	.L217
 3681              	.LVL404:
 3682              	.L231:
 921:lvgl/src/lv_widgets/lv_calendar.c ****                 day_state |= LV_STATE_FOCUSED;
 3683              		.loc 1 921 66 discriminator 2 view .LVU1087
 3684 0258 012E     		cmp	r6, #1
 3685 025a C5D1     		bne	.L219
 922:lvgl/src/lv_widgets/lv_calendar.c ****             }
 3686              		.loc 1 922 17 is_stmt 1 view .LVU1088
 922:lvgl/src/lv_widgets/lv_calendar.c ****             }
 3687              		.loc 1 922 27 is_stmt 0 view .LVU1089
 3688 025c 48F00208 		orr	r8, r8, #2
 3689              	.LVL405:
ARM GAS  D:\Temp\cclvo1nc.s 			page 107


 922:lvgl/src/lv_widgets/lv_calendar.c ****             }
 3690              		.loc 1 922 27 view .LVU1090
 3691 0260 5FFA88F8 		uxtb	r8, r8
 3692              	.LVL406:
 922:lvgl/src/lv_widgets/lv_calendar.c ****             }
 3693              		.loc 1 922 27 view .LVU1091
 3694 0264 C0E7     		b	.L219
 3695              	.L232:
 926:lvgl/src/lv_widgets/lv_calendar.c ****                 lv_draw_label_dsc_init(&label_dsc);
 3696              		.loc 1 926 17 is_stmt 1 view .LVU1092
 3697 0266 1EA8     		add	r0, sp, #120
 3698 0268 FFF7FEFF 		bl	lv_draw_rect_dsc_init
 3699              	.LVL407:
 927:lvgl/src/lv_widgets/lv_calendar.c ****                 label_dsc.flag = LV_TXT_FLAG_CENTER;
 3700              		.loc 1 927 17 view .LVU1093
 3701 026c 15A8     		add	r0, sp, #84
 3702 026e FFF7FEFF 		bl	lv_draw_label_dsc_init
 3703              	.LVL408:
 928:lvgl/src/lv_widgets/lv_calendar.c **** 
 3704              		.loc 1 928 17 view .LVU1094
 928:lvgl/src/lv_widgets/lv_calendar.c **** 
 3705              		.loc 1 928 32 is_stmt 0 view .LVU1095
 3706 0272 0423     		movs	r3, #4
 3707 0274 8DF87530 		strb	r3, [sp, #117]
 930:lvgl/src/lv_widgets/lv_calendar.c ****                 lv_obj_init_draw_label_dsc(calendar, LV_CALENDAR_PART_DATE, &label_dsc);
 3708              		.loc 1 930 17 is_stmt 1 view .LVU1096
 930:lvgl/src/lv_widgets/lv_calendar.c ****                 lv_obj_init_draw_label_dsc(calendar, LV_CALENDAR_PART_DATE, &label_dsc);
 3709              		.loc 1 930 33 is_stmt 0 view .LVU1097
 3710 0278 8BF83D80 		strb	r8, [fp, #61]
 931:lvgl/src/lv_widgets/lv_calendar.c ****                 lv_obj_init_draw_rect_dsc(calendar, LV_CALENDAR_PART_DATE, &rect_dsc);
 3711              		.loc 1 931 17 is_stmt 1 view .LVU1098
 3712 027c 15AA     		add	r2, sp, #84
 3713 027e 0321     		movs	r1, #3
 3714 0280 5846     		mov	r0, fp
 3715 0282 FFF7FEFF 		bl	lv_obj_init_draw_label_dsc
 3716              	.LVL409:
 932:lvgl/src/lv_widgets/lv_calendar.c **** 
 3717              		.loc 1 932 17 view .LVU1099
 3718 0286 1EAA     		add	r2, sp, #120
 3719 0288 0321     		movs	r1, #3
 3720 028a 5846     		mov	r0, fp
 3721 028c FFF7FEFF 		bl	lv_obj_init_draw_rect_dsc
 3722              	.LVL410:
 934:lvgl/src/lv_widgets/lv_calendar.c ****             }
 3723              		.loc 1 934 17 view .LVU1100
 934:lvgl/src/lv_widgets/lv_calendar.c ****             }
 3724              		.loc 1 934 28 is_stmt 0 view .LVU1101
 3725 0290 CDF80C80 		str	r8, [sp, #12]
 3726 0294 ABE7     		b	.L220
 3727              	.LVL411:
 3728              	.L230:
 934:lvgl/src/lv_widgets/lv_calendar.c ****             }
 3729              		.loc 1 934 28 view .LVU1102
 3730              	.LBE179:
 3731              	.LBE177:
 876:lvgl/src/lv_widgets/lv_calendar.c ****         lv_area_t box_area;
 3732              		.loc 1 876 33 view .LVU1103
ARM GAS  D:\Temp\cclvo1nc.s 			page 108


 3733 0296 059B     		ldr	r3, [sp, #20]
 3734 0298 0133     		adds	r3, r3, #1
 3735 029a 0593     		str	r3, [sp, #20]
 3736              	.LVL412:
 3737              	.L209:
 876:lvgl/src/lv_widgets/lv_calendar.c ****         lv_area_t box_area;
 3738              		.loc 1 876 5 discriminator 1 view .LVU1104
 3739 029c 059B     		ldr	r3, [sp, #20]
 3740 029e 052B     		cmp	r3, #5
 3741 02a0 35D8     		bhi	.L233
 3742              	.LBB184:
 877:lvgl/src/lv_widgets/lv_calendar.c **** 
 3743              		.loc 1 877 9 is_stmt 1 view .LVU1105
 879:lvgl/src/lv_widgets/lv_calendar.c ****         box_area.y2 = box_area.y1 + box_size - 1;
 3744              		.loc 1 879 9 view .LVU1106
 879:lvgl/src/lv_widgets/lv_calendar.c ****         box_area.y2 = box_area.y1 + box_size - 1;
 3745              		.loc 1 879 42 is_stmt 0 view .LVU1107
 3746 02a2 0D98     		ldr	r0, [sp, #52]
 3747 02a4 0490     		str	r0, [sp, #16]
 3748 02a6 0C9B     		ldr	r3, [sp, #48]
 3749 02a8 1A1A     		subs	r2, r3, r0
 879:lvgl/src/lv_widgets/lv_calendar.c ****         box_area.y2 = box_area.y1 + box_size - 1;
 3750              		.loc 1 879 54 view .LVU1108
 3751 02aa 059B     		ldr	r3, [sp, #20]
 3752 02ac 03FB02F2 		mul	r2, r3, r2
 879:lvgl/src/lv_widgets/lv_calendar.c ****         box_area.y2 = box_area.y1 + box_size - 1;
 3753              		.loc 1 879 62 view .LVU1109
 3754 02b0 1F4B     		ldr	r3, .L235+12
 3755 02b2 A3FB0232 		umull	r3, r2, r3, r2
 879:lvgl/src/lv_widgets/lv_calendar.c ****         box_area.y2 = box_area.y1 + box_size - 1;
 3756              		.loc 1 879 31 view .LVU1110
 3757 02b6 0B9B     		ldr	r3, [sp, #44]
 3758 02b8 03EB9202 		add	r2, r3, r2, lsr #2
 3759 02bc 92B2     		uxth	r2, r2
 3760 02be 11B2     		sxth	r1, r2
 879:lvgl/src/lv_widgets/lv_calendar.c ****         box_area.y2 = box_area.y1 + box_size - 1;
 3761              		.loc 1 879 21 view .LVU1111
 3762 02c0 ADF84610 		strh	r1, [sp, #70]	@ movhi
 880:lvgl/src/lv_widgets/lv_calendar.c **** 
 3763              		.loc 1 880 9 is_stmt 1 view .LVU1112
 880:lvgl/src/lv_widgets/lv_calendar.c **** 
 3764              		.loc 1 880 35 is_stmt 0 view .LVU1113
 3765 02c4 1FFA80F9 		uxth	r9, r0
 3766 02c8 02EB0903 		add	r3, r2, r9
 3767 02cc 9BB2     		uxth	r3, r3
 880:lvgl/src/lv_widgets/lv_calendar.c **** 
 3768              		.loc 1 880 46 view .LVU1114
 3769 02ce 013B     		subs	r3, r3, #1
 3770 02d0 9BB2     		uxth	r3, r3
 880:lvgl/src/lv_widgets/lv_calendar.c **** 
 3771              		.loc 1 880 21 view .LVU1115
 3772 02d2 ADF84A30 		strh	r3, [sp, #74]	@ movhi
 882:lvgl/src/lv_widgets/lv_calendar.c ****             calendar->state = state_ori;
 3773              		.loc 1 882 9 is_stmt 1 view .LVU1116
 882:lvgl/src/lv_widgets/lv_calendar.c ****             calendar->state = state_ori;
 3774              		.loc 1 882 35 is_stmt 0 view .LVU1117
 3775 02d6 BAF90600 		ldrsh	r0, [r10, #6]
ARM GAS  D:\Temp\cclvo1nc.s 			page 109


 882:lvgl/src/lv_widgets/lv_calendar.c ****             calendar->state = state_ori;
 3776              		.loc 1 882 11 view .LVU1118
 3777 02da 8142     		cmp	r1, r0
 3778 02dc 3FF736AF 		bgt	.L234
 888:lvgl/src/lv_widgets/lv_calendar.c ****         label_area.y1 = box_area.y1 + (lv_area_get_height(&box_area) - lv_font_get_line_height(nums
 3779              		.loc 1 888 9 is_stmt 1 view .LVU1119
 889:lvgl/src/lv_widgets/lv_calendar.c ****         label_area.y2 = label_area.y1 + lv_font_get_line_height(nums_font);
 3780              		.loc 1 889 9 view .LVU1120
 3781              	.LVL413:
 3782              	.LBB180:
 3783              	.LBI180:
 3784              		.file 4 "d:\\_project\\stm32\\f407\\hack_rf_new\\lvgl\\src\\lv_misc\\lv_area.h"
   1:d:\_project\stm32\f407\hack_rf_new\lvgl\src\lv_misc\lv_area.h **** /**
   2:d:\_project\stm32\f407\hack_rf_new\lvgl\src\lv_misc\lv_area.h ****  * @file lv_area.h
   3:d:\_project\stm32\f407\hack_rf_new\lvgl\src\lv_misc\lv_area.h ****  *
   4:d:\_project\stm32\f407\hack_rf_new\lvgl\src\lv_misc\lv_area.h ****  */
   5:d:\_project\stm32\f407\hack_rf_new\lvgl\src\lv_misc\lv_area.h **** 
   6:d:\_project\stm32\f407\hack_rf_new\lvgl\src\lv_misc\lv_area.h **** #ifndef LV_AREA_H
   7:d:\_project\stm32\f407\hack_rf_new\lvgl\src\lv_misc\lv_area.h **** #define LV_AREA_H
   8:d:\_project\stm32\f407\hack_rf_new\lvgl\src\lv_misc\lv_area.h **** 
   9:d:\_project\stm32\f407\hack_rf_new\lvgl\src\lv_misc\lv_area.h **** #ifdef __cplusplus
  10:d:\_project\stm32\f407\hack_rf_new\lvgl\src\lv_misc\lv_area.h **** extern "C" {
  11:d:\_project\stm32\f407\hack_rf_new\lvgl\src\lv_misc\lv_area.h **** #endif
  12:d:\_project\stm32\f407\hack_rf_new\lvgl\src\lv_misc\lv_area.h **** 
  13:d:\_project\stm32\f407\hack_rf_new\lvgl\src\lv_misc\lv_area.h **** /*********************
  14:d:\_project\stm32\f407\hack_rf_new\lvgl\src\lv_misc\lv_area.h ****  *      INCLUDES
  15:d:\_project\stm32\f407\hack_rf_new\lvgl\src\lv_misc\lv_area.h ****  *********************/
  16:d:\_project\stm32\f407\hack_rf_new\lvgl\src\lv_misc\lv_area.h **** #include "../lv_conf_internal.h"
  17:d:\_project\stm32\f407\hack_rf_new\lvgl\src\lv_misc\lv_area.h **** #include <string.h>
  18:d:\_project\stm32\f407\hack_rf_new\lvgl\src\lv_misc\lv_area.h **** #include <stdbool.h>
  19:d:\_project\stm32\f407\hack_rf_new\lvgl\src\lv_misc\lv_area.h **** #include <stdint.h>
  20:d:\_project\stm32\f407\hack_rf_new\lvgl\src\lv_misc\lv_area.h **** #include "lv_mem.h"
  21:d:\_project\stm32\f407\hack_rf_new\lvgl\src\lv_misc\lv_area.h **** 
  22:d:\_project\stm32\f407\hack_rf_new\lvgl\src\lv_misc\lv_area.h **** /*********************
  23:d:\_project\stm32\f407\hack_rf_new\lvgl\src\lv_misc\lv_area.h ****  *      DEFINES
  24:d:\_project\stm32\f407\hack_rf_new\lvgl\src\lv_misc\lv_area.h ****  *********************/
  25:d:\_project\stm32\f407\hack_rf_new\lvgl\src\lv_misc\lv_area.h **** /*To avoid overflow don't let the max ranges (reduce with 1000) */
  26:d:\_project\stm32\f407\hack_rf_new\lvgl\src\lv_misc\lv_area.h **** #define LV_COORD_MAX ((lv_coord_t)((uint32_t)((uint32_t)1 << (8 * sizeof(lv_coord_t) - 1)) - 1000))
  27:d:\_project\stm32\f407\hack_rf_new\lvgl\src\lv_misc\lv_area.h **** #define LV_COORD_MIN (-LV_COORD_MAX)
  28:d:\_project\stm32\f407\hack_rf_new\lvgl\src\lv_misc\lv_area.h **** 
  29:d:\_project\stm32\f407\hack_rf_new\lvgl\src\lv_misc\lv_area.h **** LV_EXPORT_CONST_INT(LV_COORD_MAX);
  30:d:\_project\stm32\f407\hack_rf_new\lvgl\src\lv_misc\lv_area.h **** LV_EXPORT_CONST_INT(LV_COORD_MIN);
  31:d:\_project\stm32\f407\hack_rf_new\lvgl\src\lv_misc\lv_area.h **** 
  32:d:\_project\stm32\f407\hack_rf_new\lvgl\src\lv_misc\lv_area.h **** /**********************
  33:d:\_project\stm32\f407\hack_rf_new\lvgl\src\lv_misc\lv_area.h ****  *      TYPEDEFS
  34:d:\_project\stm32\f407\hack_rf_new\lvgl\src\lv_misc\lv_area.h ****  **********************/
  35:d:\_project\stm32\f407\hack_rf_new\lvgl\src\lv_misc\lv_area.h **** 
  36:d:\_project\stm32\f407\hack_rf_new\lvgl\src\lv_misc\lv_area.h **** /**
  37:d:\_project\stm32\f407\hack_rf_new\lvgl\src\lv_misc\lv_area.h ****  * Represents a point on the screen.
  38:d:\_project\stm32\f407\hack_rf_new\lvgl\src\lv_misc\lv_area.h ****  */
  39:d:\_project\stm32\f407\hack_rf_new\lvgl\src\lv_misc\lv_area.h **** typedef struct {
  40:d:\_project\stm32\f407\hack_rf_new\lvgl\src\lv_misc\lv_area.h ****     lv_coord_t x;
  41:d:\_project\stm32\f407\hack_rf_new\lvgl\src\lv_misc\lv_area.h ****     lv_coord_t y;
  42:d:\_project\stm32\f407\hack_rf_new\lvgl\src\lv_misc\lv_area.h **** } lv_point_t;
  43:d:\_project\stm32\f407\hack_rf_new\lvgl\src\lv_misc\lv_area.h **** 
  44:d:\_project\stm32\f407\hack_rf_new\lvgl\src\lv_misc\lv_area.h **** /** Represents an area of the screen. */
  45:d:\_project\stm32\f407\hack_rf_new\lvgl\src\lv_misc\lv_area.h **** typedef struct {
ARM GAS  D:\Temp\cclvo1nc.s 			page 110


  46:d:\_project\stm32\f407\hack_rf_new\lvgl\src\lv_misc\lv_area.h ****     lv_coord_t x1;
  47:d:\_project\stm32\f407\hack_rf_new\lvgl\src\lv_misc\lv_area.h ****     lv_coord_t y1;
  48:d:\_project\stm32\f407\hack_rf_new\lvgl\src\lv_misc\lv_area.h ****     lv_coord_t x2;
  49:d:\_project\stm32\f407\hack_rf_new\lvgl\src\lv_misc\lv_area.h ****     lv_coord_t y2;
  50:d:\_project\stm32\f407\hack_rf_new\lvgl\src\lv_misc\lv_area.h **** } lv_area_t;
  51:d:\_project\stm32\f407\hack_rf_new\lvgl\src\lv_misc\lv_area.h **** 
  52:d:\_project\stm32\f407\hack_rf_new\lvgl\src\lv_misc\lv_area.h **** /** Alignments */
  53:d:\_project\stm32\f407\hack_rf_new\lvgl\src\lv_misc\lv_area.h **** enum {
  54:d:\_project\stm32\f407\hack_rf_new\lvgl\src\lv_misc\lv_area.h ****     LV_ALIGN_CENTER = 0,
  55:d:\_project\stm32\f407\hack_rf_new\lvgl\src\lv_misc\lv_area.h ****     LV_ALIGN_IN_TOP_LEFT,
  56:d:\_project\stm32\f407\hack_rf_new\lvgl\src\lv_misc\lv_area.h ****     LV_ALIGN_IN_TOP_MID,
  57:d:\_project\stm32\f407\hack_rf_new\lvgl\src\lv_misc\lv_area.h ****     LV_ALIGN_IN_TOP_RIGHT,
  58:d:\_project\stm32\f407\hack_rf_new\lvgl\src\lv_misc\lv_area.h ****     LV_ALIGN_IN_BOTTOM_LEFT,
  59:d:\_project\stm32\f407\hack_rf_new\lvgl\src\lv_misc\lv_area.h ****     LV_ALIGN_IN_BOTTOM_MID,
  60:d:\_project\stm32\f407\hack_rf_new\lvgl\src\lv_misc\lv_area.h ****     LV_ALIGN_IN_BOTTOM_RIGHT,
  61:d:\_project\stm32\f407\hack_rf_new\lvgl\src\lv_misc\lv_area.h ****     LV_ALIGN_IN_LEFT_MID,
  62:d:\_project\stm32\f407\hack_rf_new\lvgl\src\lv_misc\lv_area.h ****     LV_ALIGN_IN_RIGHT_MID,
  63:d:\_project\stm32\f407\hack_rf_new\lvgl\src\lv_misc\lv_area.h ****     LV_ALIGN_OUT_TOP_LEFT,
  64:d:\_project\stm32\f407\hack_rf_new\lvgl\src\lv_misc\lv_area.h ****     LV_ALIGN_OUT_TOP_MID,
  65:d:\_project\stm32\f407\hack_rf_new\lvgl\src\lv_misc\lv_area.h ****     LV_ALIGN_OUT_TOP_RIGHT,
  66:d:\_project\stm32\f407\hack_rf_new\lvgl\src\lv_misc\lv_area.h ****     LV_ALIGN_OUT_BOTTOM_LEFT,
  67:d:\_project\stm32\f407\hack_rf_new\lvgl\src\lv_misc\lv_area.h ****     LV_ALIGN_OUT_BOTTOM_MID,
  68:d:\_project\stm32\f407\hack_rf_new\lvgl\src\lv_misc\lv_area.h ****     LV_ALIGN_OUT_BOTTOM_RIGHT,
  69:d:\_project\stm32\f407\hack_rf_new\lvgl\src\lv_misc\lv_area.h ****     LV_ALIGN_OUT_LEFT_TOP,
  70:d:\_project\stm32\f407\hack_rf_new\lvgl\src\lv_misc\lv_area.h ****     LV_ALIGN_OUT_LEFT_MID,
  71:d:\_project\stm32\f407\hack_rf_new\lvgl\src\lv_misc\lv_area.h ****     LV_ALIGN_OUT_LEFT_BOTTOM,
  72:d:\_project\stm32\f407\hack_rf_new\lvgl\src\lv_misc\lv_area.h ****     LV_ALIGN_OUT_RIGHT_TOP,
  73:d:\_project\stm32\f407\hack_rf_new\lvgl\src\lv_misc\lv_area.h ****     LV_ALIGN_OUT_RIGHT_MID,
  74:d:\_project\stm32\f407\hack_rf_new\lvgl\src\lv_misc\lv_area.h ****     LV_ALIGN_OUT_RIGHT_BOTTOM,
  75:d:\_project\stm32\f407\hack_rf_new\lvgl\src\lv_misc\lv_area.h **** };
  76:d:\_project\stm32\f407\hack_rf_new\lvgl\src\lv_misc\lv_area.h **** typedef uint8_t lv_align_t;
  77:d:\_project\stm32\f407\hack_rf_new\lvgl\src\lv_misc\lv_area.h **** 
  78:d:\_project\stm32\f407\hack_rf_new\lvgl\src\lv_misc\lv_area.h **** /**********************
  79:d:\_project\stm32\f407\hack_rf_new\lvgl\src\lv_misc\lv_area.h ****  * GLOBAL PROTOTYPES
  80:d:\_project\stm32\f407\hack_rf_new\lvgl\src\lv_misc\lv_area.h ****  **********************/
  81:d:\_project\stm32\f407\hack_rf_new\lvgl\src\lv_misc\lv_area.h **** 
  82:d:\_project\stm32\f407\hack_rf_new\lvgl\src\lv_misc\lv_area.h **** /**
  83:d:\_project\stm32\f407\hack_rf_new\lvgl\src\lv_misc\lv_area.h ****  * Initialize an area
  84:d:\_project\stm32\f407\hack_rf_new\lvgl\src\lv_misc\lv_area.h ****  * @param area_p pointer to an area
  85:d:\_project\stm32\f407\hack_rf_new\lvgl\src\lv_misc\lv_area.h ****  * @param x1 left coordinate of the area
  86:d:\_project\stm32\f407\hack_rf_new\lvgl\src\lv_misc\lv_area.h ****  * @param y1 top coordinate of the area
  87:d:\_project\stm32\f407\hack_rf_new\lvgl\src\lv_misc\lv_area.h ****  * @param x2 right coordinate of the area
  88:d:\_project\stm32\f407\hack_rf_new\lvgl\src\lv_misc\lv_area.h ****  * @param y2 bottom coordinate of the area
  89:d:\_project\stm32\f407\hack_rf_new\lvgl\src\lv_misc\lv_area.h ****  */
  90:d:\_project\stm32\f407\hack_rf_new\lvgl\src\lv_misc\lv_area.h **** void lv_area_set(lv_area_t * area_p, lv_coord_t x1, lv_coord_t y1, lv_coord_t x2, lv_coord_t y2);
  91:d:\_project\stm32\f407\hack_rf_new\lvgl\src\lv_misc\lv_area.h **** 
  92:d:\_project\stm32\f407\hack_rf_new\lvgl\src\lv_misc\lv_area.h **** /**
  93:d:\_project\stm32\f407\hack_rf_new\lvgl\src\lv_misc\lv_area.h ****  * Copy an area
  94:d:\_project\stm32\f407\hack_rf_new\lvgl\src\lv_misc\lv_area.h ****  * @param dest pointer to the destination area
  95:d:\_project\stm32\f407\hack_rf_new\lvgl\src\lv_misc\lv_area.h ****  * @param src pointer to the source area
  96:d:\_project\stm32\f407\hack_rf_new\lvgl\src\lv_misc\lv_area.h ****  */
  97:d:\_project\stm32\f407\hack_rf_new\lvgl\src\lv_misc\lv_area.h **** inline static void lv_area_copy(lv_area_t * dest, const lv_area_t * src)
  98:d:\_project\stm32\f407\hack_rf_new\lvgl\src\lv_misc\lv_area.h **** {
  99:d:\_project\stm32\f407\hack_rf_new\lvgl\src\lv_misc\lv_area.h ****     _lv_memcpy_small(dest, src, sizeof(lv_area_t));
 100:d:\_project\stm32\f407\hack_rf_new\lvgl\src\lv_misc\lv_area.h **** }
 101:d:\_project\stm32\f407\hack_rf_new\lvgl\src\lv_misc\lv_area.h **** 
 102:d:\_project\stm32\f407\hack_rf_new\lvgl\src\lv_misc\lv_area.h **** /**
ARM GAS  D:\Temp\cclvo1nc.s 			page 111


 103:d:\_project\stm32\f407\hack_rf_new\lvgl\src\lv_misc\lv_area.h ****  * Get the width of an area
 104:d:\_project\stm32\f407\hack_rf_new\lvgl\src\lv_misc\lv_area.h ****  * @param area_p pointer to an area
 105:d:\_project\stm32\f407\hack_rf_new\lvgl\src\lv_misc\lv_area.h ****  * @return the width of the area (if x1 == x2 -> width = 1)
 106:d:\_project\stm32\f407\hack_rf_new\lvgl\src\lv_misc\lv_area.h ****  */
 107:d:\_project\stm32\f407\hack_rf_new\lvgl\src\lv_misc\lv_area.h **** static inline lv_coord_t lv_area_get_width(const lv_area_t * area_p)
 108:d:\_project\stm32\f407\hack_rf_new\lvgl\src\lv_misc\lv_area.h **** {
 109:d:\_project\stm32\f407\hack_rf_new\lvgl\src\lv_misc\lv_area.h ****     return (lv_coord_t)(area_p->x2 - area_p->x1 + 1);
 110:d:\_project\stm32\f407\hack_rf_new\lvgl\src\lv_misc\lv_area.h **** }
 111:d:\_project\stm32\f407\hack_rf_new\lvgl\src\lv_misc\lv_area.h **** 
 112:d:\_project\stm32\f407\hack_rf_new\lvgl\src\lv_misc\lv_area.h **** /**
 113:d:\_project\stm32\f407\hack_rf_new\lvgl\src\lv_misc\lv_area.h ****  * Get the height of an area
 114:d:\_project\stm32\f407\hack_rf_new\lvgl\src\lv_misc\lv_area.h ****  * @param area_p pointer to an area
 115:d:\_project\stm32\f407\hack_rf_new\lvgl\src\lv_misc\lv_area.h ****  * @return the height of the area (if y1 == y2 -> height = 1)
 116:d:\_project\stm32\f407\hack_rf_new\lvgl\src\lv_misc\lv_area.h ****  */
 117:d:\_project\stm32\f407\hack_rf_new\lvgl\src\lv_misc\lv_area.h **** static inline lv_coord_t lv_area_get_height(const lv_area_t * area_p)
 3785              		.loc 4 117 26 view .LVU1121
 3786              	.LBB181:
 118:d:\_project\stm32\f407\hack_rf_new\lvgl\src\lv_misc\lv_area.h **** {
 119:d:\_project\stm32\f407\hack_rf_new\lvgl\src\lv_misc\lv_area.h ****     return (lv_coord_t)(area_p->y2 - area_p->y1 + 1);
 3787              		.loc 4 119 5 view .LVU1122
 3788              		.loc 4 119 36 is_stmt 0 view .LVU1123
 3789 02e0 9B1A     		subs	r3, r3, r2
 3790 02e2 9BB2     		uxth	r3, r3
 3791              		.loc 4 119 49 view .LVU1124
 3792 02e4 0133     		adds	r3, r3, #1
 3793              		.loc 4 119 12 view .LVU1125
 3794 02e6 1BB2     		sxth	r3, r3
 3795              	.LVL414:
 3796              		.loc 4 119 12 view .LVU1126
 3797              	.LBE181:
 3798              	.LBE180:
 3799              	.LBB182:
 3800              	.LBI182:
 116:lvgl/src/lv_widgets/../lv_core/../lv_font/lv_font.h **** {
 3801              		.loc 3 116 26 is_stmt 1 view .LVU1127
 3802              	.LBB183:
 3803              		.loc 3 118 5 view .LVU1128
 3804              		.loc 3 118 18 is_stmt 0 view .LVU1129
 3805 02e8 0E99     		ldr	r1, [sp, #56]
 3806 02ea B1F90810 		ldrsh	r1, [r1, #8]
 3807              	.LVL415:
 3808              		.loc 3 118 18 view .LVU1130
 3809              	.LBE183:
 3810              	.LBE182:
 889:lvgl/src/lv_widgets/lv_calendar.c ****         label_area.y2 = label_area.y1 + lv_font_get_line_height(nums_font);
 3811              		.loc 1 889 70 view .LVU1131
 3812 02ee 5B1A     		subs	r3, r3, r1
 889:lvgl/src/lv_widgets/lv_calendar.c ****         label_area.y2 = label_area.y1 + lv_font_get_line_height(nums_font);
 3813              		.loc 1 889 108 view .LVU1132
 3814 02f0 03EBD373 		add	r3, r3, r3, lsr #31
 889:lvgl/src/lv_widgets/lv_calendar.c ****         label_area.y2 = label_area.y1 + lv_font_get_line_height(nums_font);
 3815              		.loc 1 889 37 view .LVU1133
 3816 02f4 02EB6303 		add	r3, r2, r3, asr #1
 3817 02f8 9BB2     		uxth	r3, r3
 889:lvgl/src/lv_widgets/lv_calendar.c ****         label_area.y2 = label_area.y1 + lv_font_get_line_height(nums_font);
 3818              		.loc 1 889 23 view .LVU1134
 3819 02fa ADF84E30 		strh	r3, [sp, #78]	@ movhi
ARM GAS  D:\Temp\cclvo1nc.s 			page 112


 890:lvgl/src/lv_widgets/lv_calendar.c **** 
 3820              		.loc 1 890 9 is_stmt 1 view .LVU1135
 3821              	.LVL416:
 890:lvgl/src/lv_widgets/lv_calendar.c **** 
 3822              		.loc 1 890 9 is_stmt 0 view .LVU1136
 3823              	.LBE184:
 3824              		.loc 3 118 5 is_stmt 1 view .LVU1137
 3825              	.LBB185:
 890:lvgl/src/lv_widgets/lv_calendar.c **** 
 3826              		.loc 1 890 39 is_stmt 0 view .LVU1138
 3827 02fe 13FA81F3 		uxtah	r3, r3, r1
 890:lvgl/src/lv_widgets/lv_calendar.c **** 
 3828              		.loc 1 890 23 view .LVU1139
 3829 0302 ADF85230 		strh	r3, [sp, #82]	@ movhi
 893:lvgl/src/lv_widgets/lv_calendar.c ****         for(day = 0; day < 7; day++) {
 3830              		.loc 1 893 9 is_stmt 1 view .LVU1140
 894:lvgl/src/lv_widgets/lv_calendar.c ****             /*The previous month is over*/
 3831              		.loc 1 894 9 view .LVU1141
 3832              	.LVL417:
 894:lvgl/src/lv_widgets/lv_calendar.c ****             /*The previous month is over*/
 3833              		.loc 1 894 17 is_stmt 0 view .LVU1142
 3834 0306 0025     		movs	r5, #0
 3835 0308 CDF81890 		str	r9, [sp, #24]
 894:lvgl/src/lv_widgets/lv_calendar.c ****             /*The previous month is over*/
 3836              		.loc 1 894 9 view .LVU1143
 3837 030c 31E7     		b	.L212
 3838              	.LVL418:
 3839              	.L233:
 894:lvgl/src/lv_widgets/lv_calendar.c ****             /*The previous month is over*/
 3840              		.loc 1 894 9 view .LVU1144
 3841              	.LBE185:
 953:lvgl/src/lv_widgets/lv_calendar.c ****     _lv_obj_disable_style_caching(calendar, false);
 3842              		.loc 1 953 5 is_stmt 1 view .LVU1145
 953:lvgl/src/lv_widgets/lv_calendar.c ****     _lv_obj_disable_style_caching(calendar, false);
 3843              		.loc 1 953 21 is_stmt 0 view .LVU1146
 3844 030e 0F9B     		ldr	r3, [sp, #60]
 3845              	.LVL419:
 953:lvgl/src/lv_widgets/lv_calendar.c ****     _lv_obj_disable_style_caching(calendar, false);
 3846              		.loc 1 953 21 view .LVU1147
 3847 0310 8BF83D30 		strb	r3, [fp, #61]
 954:lvgl/src/lv_widgets/lv_calendar.c **** 
 3848              		.loc 1 954 5 is_stmt 1 view .LVU1148
 3849 0314 0021     		movs	r1, #0
 3850 0316 5846     		mov	r0, fp
 3851 0318 FFF7FEFF 		bl	_lv_obj_disable_style_caching
 3852              	.LVL420:
 3853              	.L206:
 956:lvgl/src/lv_widgets/lv_calendar.c **** 
 3854              		.loc 1 956 1 is_stmt 0 view .LVU1149
 3855 031c 35B0     		add	sp, sp, #212
 3856              	.LCFI32:
 3857              		.cfi_def_cfa_offset 36
 3858              		@ sp needed
 3859 031e BDE8F08F 		pop	{r4, r5, r6, r7, r8, r9, r10, fp, pc}
 3860              	.LVL421:
 3861              	.L236:
 956:lvgl/src/lv_widgets/lv_calendar.c **** 
ARM GAS  D:\Temp\cclvo1nc.s 			page 113


 3862              		.loc 1 956 1 view .LVU1150
 3863 0322 00BF     		.align	2
 3864              	.L235:
 3865 0324 93244992 		.word	-1840700269
 3866 0328 ABAAAA2A 		.word	715827883
 3867 032c ABAAAAAA 		.word	-1431655765
 3868 0330 CDCCCCCC 		.word	-858993459
 3869              		.cfi_endproc
 3870              	.LFE480:
 3872              		.section	.text.lv_calendar_design,"ax",%progbits
 3873              		.align	1
 3874              		.syntax unified
 3875              		.thumb
 3876              		.thumb_func
 3877              		.fpu fpv4-sp-d16
 3879              	lv_calendar_design:
 3880              	.LVL422:
 3881              	.LFB472:
 410:lvgl/src/lv_widgets/lv_calendar.c ****     /*Return false if the object is not covers the mask_p area*/
 3882              		.loc 1 410 1 is_stmt 1 view -0
 3883              		.cfi_startproc
 3884              		@ args = 0, pretend = 0, frame = 0
 3885              		@ frame_needed = 0, uses_anonymous_args = 0
 410:lvgl/src/lv_widgets/lv_calendar.c ****     /*Return false if the object is not covers the mask_p area*/
 3886              		.loc 1 410 1 is_stmt 0 view .LVU1152
 3887 0000 38B5     		push	{r3, r4, r5, lr}
 3888              	.LCFI33:
 3889              		.cfi_def_cfa_offset 16
 3890              		.cfi_offset 3, -16
 3891              		.cfi_offset 4, -12
 3892              		.cfi_offset 5, -8
 3893              		.cfi_offset 14, -4
 3894 0002 0446     		mov	r4, r0
 3895 0004 0D46     		mov	r5, r1
 412:lvgl/src/lv_widgets/lv_calendar.c ****         return ancestor_design(calendar, clip_area, mode);
 3896              		.loc 1 412 5 is_stmt 1 view .LVU1153
 412:lvgl/src/lv_widgets/lv_calendar.c ****         return ancestor_design(calendar, clip_area, mode);
 3897              		.loc 1 412 7 is_stmt 0 view .LVU1154
 3898 0006 022A     		cmp	r2, #2
 3899 0008 11D0     		beq	.L243
 416:lvgl/src/lv_widgets/lv_calendar.c ****         ancestor_design(calendar, clip_area, mode);
 3900              		.loc 1 416 10 is_stmt 1 view .LVU1155
 416:lvgl/src/lv_widgets/lv_calendar.c ****         ancestor_design(calendar, clip_area, mode);
 3901              		.loc 1 416 12 is_stmt 0 view .LVU1156
 3902 000a A2B9     		cbnz	r2, .L240
 417:lvgl/src/lv_widgets/lv_calendar.c **** 
 3903              		.loc 1 417 9 is_stmt 1 view .LVU1157
 3904 000c 0E4B     		ldr	r3, .L245
 3905 000e 1B68     		ldr	r3, [r3]
 3906 0010 9847     		blx	r3
 3907              	.LVL423:
 419:lvgl/src/lv_widgets/lv_calendar.c ****         draw_day_names(calendar, clip_area);
 3908              		.loc 1 419 9 view .LVU1158
 3909 0012 2946     		mov	r1, r5
 3910 0014 2046     		mov	r0, r4
 3911 0016 FFF7FEFF 		bl	draw_header
 3912              	.LVL424:
ARM GAS  D:\Temp\cclvo1nc.s 			page 114


 420:lvgl/src/lv_widgets/lv_calendar.c ****         draw_dates(calendar, clip_area);
 3913              		.loc 1 420 9 view .LVU1159
 3914 001a 2946     		mov	r1, r5
 3915 001c 2046     		mov	r0, r4
 3916 001e FFF7FEFF 		bl	draw_day_names
 3917              	.LVL425:
 421:lvgl/src/lv_widgets/lv_calendar.c **** 
 3918              		.loc 1 421 9 view .LVU1160
 3919 0022 2946     		mov	r1, r5
 3920 0024 2046     		mov	r0, r4
 3921 0026 FFF7FEFF 		bl	draw_dates
 3922              	.LVL426:
 429:lvgl/src/lv_widgets/lv_calendar.c **** }
 3923              		.loc 1 429 12 is_stmt 0 view .LVU1161
 3924 002a 0020     		movs	r0, #0
 3925              	.L239:
 430:lvgl/src/lv_widgets/lv_calendar.c **** 
 3926              		.loc 1 430 1 view .LVU1162
 3927 002c 38BD     		pop	{r3, r4, r5, pc}
 3928              	.LVL427:
 3929              	.L243:
 413:lvgl/src/lv_widgets/lv_calendar.c ****     }
 3930              		.loc 1 413 9 is_stmt 1 view .LVU1163
 413:lvgl/src/lv_widgets/lv_calendar.c ****     }
 3931              		.loc 1 413 16 is_stmt 0 view .LVU1164
 3932 002e 064B     		ldr	r3, .L245
 3933 0030 1B68     		ldr	r3, [r3]
 3934 0032 9847     		blx	r3
 3935              	.LVL428:
 413:lvgl/src/lv_widgets/lv_calendar.c ****     }
 3936              		.loc 1 413 16 view .LVU1165
 3937 0034 FAE7     		b	.L239
 3938              	.LVL429:
 3939              	.L240:
 425:lvgl/src/lv_widgets/lv_calendar.c ****         ancestor_design(calendar, clip_area, mode);
 3940              		.loc 1 425 10 is_stmt 1 view .LVU1166
 425:lvgl/src/lv_widgets/lv_calendar.c ****         ancestor_design(calendar, clip_area, mode);
 3941              		.loc 1 425 12 is_stmt 0 view .LVU1167
 3942 0036 012A     		cmp	r2, #1
 3943 0038 01D0     		beq	.L244
 429:lvgl/src/lv_widgets/lv_calendar.c **** }
 3944              		.loc 1 429 12 view .LVU1168
 3945 003a 0020     		movs	r0, #0
 3946              	.LVL430:
 429:lvgl/src/lv_widgets/lv_calendar.c **** }
 3947              		.loc 1 429 12 view .LVU1169
 3948 003c F6E7     		b	.L239
 3949              	.LVL431:
 3950              	.L244:
 426:lvgl/src/lv_widgets/lv_calendar.c ****     }
 3951              		.loc 1 426 9 is_stmt 1 view .LVU1170
 3952 003e 024B     		ldr	r3, .L245
 3953 0040 1B68     		ldr	r3, [r3]
 3954 0042 9847     		blx	r3
 3955              	.LVL432:
 429:lvgl/src/lv_widgets/lv_calendar.c **** }
 3956              		.loc 1 429 12 is_stmt 0 view .LVU1171
ARM GAS  D:\Temp\cclvo1nc.s 			page 115


 3957 0044 0020     		movs	r0, #0
 3958 0046 F1E7     		b	.L239
 3959              	.L246:
 3960              		.align	2
 3961              	.L245:
 3962 0048 00000000 		.word	.LANCHOR3
 3963              		.cfi_endproc
 3964              	.LFE472:
 3966              		.section	.text.calculate_touched_day,"ax",%progbits
 3967              		.align	1
 3968              		.syntax unified
 3969              		.thumb
 3970              		.thumb_func
 3971              		.fpu fpv4-sp-d16
 3973              	calculate_touched_day:
 3974              	.LVL433:
 3975              	.LFB475:
 612:lvgl/src/lv_widgets/lv_calendar.c ****     lv_area_t days_area;
 3976              		.loc 1 612 1 is_stmt 1 view -0
 3977              		.cfi_startproc
 3978              		@ args = 0, pretend = 0, frame = 8
 3979              		@ frame_needed = 0, uses_anonymous_args = 0
 612:lvgl/src/lv_widgets/lv_calendar.c ****     lv_area_t days_area;
 3980              		.loc 1 612 1 is_stmt 0 view .LVU1173
 3981 0000 2DE9F043 		push	{r4, r5, r6, r7, r8, r9, lr}
 3982              	.LCFI34:
 3983              		.cfi_def_cfa_offset 28
 3984              		.cfi_offset 4, -28
 3985              		.cfi_offset 5, -24
 3986              		.cfi_offset 6, -20
 3987              		.cfi_offset 7, -16
 3988              		.cfi_offset 8, -12
 3989              		.cfi_offset 9, -8
 3990              		.cfi_offset 14, -4
 3991 0004 83B0     		sub	sp, sp, #12
 3992              	.LCFI35:
 3993              		.cfi_def_cfa_offset 40
 3994 0006 0546     		mov	r5, r0
 3995 0008 0E46     		mov	r6, r1
 613:lvgl/src/lv_widgets/lv_calendar.c ****     lv_area_copy(&days_area, &calendar->coords);
 3996              		.loc 1 613 5 is_stmt 1 view .LVU1174
 614:lvgl/src/lv_widgets/lv_calendar.c ****     lv_style_int_t left = lv_obj_get_style_pad_left(calendar, LV_CALENDAR_PART_DATE);
 3997              		.loc 1 614 5 view .LVU1175
 614:lvgl/src/lv_widgets/lv_calendar.c ****     lv_style_int_t left = lv_obj_get_style_pad_left(calendar, LV_CALENDAR_PART_DATE);
 3998              		.loc 1 614 30 is_stmt 0 view .LVU1176
 3999 000a 00F11001 		add	r1, r0, #16
 4000              	.LVL434:
 4001              	.LBB186:
 4002              	.LBI186:
  97:d:\_project\stm32\f407\hack_rf_new\lvgl\src\lv_misc\lv_area.h **** {
 4003              		.loc 4 97 20 is_stmt 1 view .LVU1177
 4004              	.LBE186:
  99:d:\_project\stm32\f407\hack_rf_new\lvgl\src\lv_misc\lv_area.h **** }
 4005              		.loc 4 99 5 view .LVU1178
 4006              	.LBB191:
 4007              	.LBB187:
 4008              	.LBI187:
ARM GAS  D:\Temp\cclvo1nc.s 			page 116


 4009              		.file 5 "d:\\_project\\stm32\\f407\\hack_rf_new\\lvgl\\src\\lv_misc\\lv_mem.h"
   1:d:\_project\stm32\f407\hack_rf_new\lvgl\src\lv_misc\lv_mem.h **** /**
   2:d:\_project\stm32\f407\hack_rf_new\lvgl\src\lv_misc\lv_mem.h ****  * @file lv_mem.h
   3:d:\_project\stm32\f407\hack_rf_new\lvgl\src\lv_misc\lv_mem.h ****  *
   4:d:\_project\stm32\f407\hack_rf_new\lvgl\src\lv_misc\lv_mem.h ****  */
   5:d:\_project\stm32\f407\hack_rf_new\lvgl\src\lv_misc\lv_mem.h **** 
   6:d:\_project\stm32\f407\hack_rf_new\lvgl\src\lv_misc\lv_mem.h **** #ifndef LV_MEM_H
   7:d:\_project\stm32\f407\hack_rf_new\lvgl\src\lv_misc\lv_mem.h **** #define LV_MEM_H
   8:d:\_project\stm32\f407\hack_rf_new\lvgl\src\lv_misc\lv_mem.h **** 
   9:d:\_project\stm32\f407\hack_rf_new\lvgl\src\lv_misc\lv_mem.h **** #ifdef __cplusplus
  10:d:\_project\stm32\f407\hack_rf_new\lvgl\src\lv_misc\lv_mem.h **** extern "C" {
  11:d:\_project\stm32\f407\hack_rf_new\lvgl\src\lv_misc\lv_mem.h **** #endif
  12:d:\_project\stm32\f407\hack_rf_new\lvgl\src\lv_misc\lv_mem.h **** 
  13:d:\_project\stm32\f407\hack_rf_new\lvgl\src\lv_misc\lv_mem.h **** /*********************
  14:d:\_project\stm32\f407\hack_rf_new\lvgl\src\lv_misc\lv_mem.h ****  *      INCLUDES
  15:d:\_project\stm32\f407\hack_rf_new\lvgl\src\lv_misc\lv_mem.h ****  *********************/
  16:d:\_project\stm32\f407\hack_rf_new\lvgl\src\lv_misc\lv_mem.h **** #include "../lv_conf_internal.h"
  17:d:\_project\stm32\f407\hack_rf_new\lvgl\src\lv_misc\lv_mem.h **** 
  18:d:\_project\stm32\f407\hack_rf_new\lvgl\src\lv_misc\lv_mem.h **** #include <stdint.h>
  19:d:\_project\stm32\f407\hack_rf_new\lvgl\src\lv_misc\lv_mem.h **** #include <stddef.h>
  20:d:\_project\stm32\f407\hack_rf_new\lvgl\src\lv_misc\lv_mem.h **** #include "lv_log.h"
  21:d:\_project\stm32\f407\hack_rf_new\lvgl\src\lv_misc\lv_mem.h **** #include "lv_types.h"
  22:d:\_project\stm32\f407\hack_rf_new\lvgl\src\lv_misc\lv_mem.h **** 
  23:d:\_project\stm32\f407\hack_rf_new\lvgl\src\lv_misc\lv_mem.h **** #if LV_MEMCPY_MEMSET_STD
  24:d:\_project\stm32\f407\hack_rf_new\lvgl\src\lv_misc\lv_mem.h **** #include <string.h>
  25:d:\_project\stm32\f407\hack_rf_new\lvgl\src\lv_misc\lv_mem.h **** #endif
  26:d:\_project\stm32\f407\hack_rf_new\lvgl\src\lv_misc\lv_mem.h **** 
  27:d:\_project\stm32\f407\hack_rf_new\lvgl\src\lv_misc\lv_mem.h **** /*********************
  28:d:\_project\stm32\f407\hack_rf_new\lvgl\src\lv_misc\lv_mem.h ****  *      DEFINES
  29:d:\_project\stm32\f407\hack_rf_new\lvgl\src\lv_misc\lv_mem.h ****  *********************/
  30:d:\_project\stm32\f407\hack_rf_new\lvgl\src\lv_misc\lv_mem.h **** 
  31:d:\_project\stm32\f407\hack_rf_new\lvgl\src\lv_misc\lv_mem.h **** #ifndef LV_MEM_BUF_MAX_NUM
  32:d:\_project\stm32\f407\hack_rf_new\lvgl\src\lv_misc\lv_mem.h **** #define LV_MEM_BUF_MAX_NUM    16
  33:d:\_project\stm32\f407\hack_rf_new\lvgl\src\lv_misc\lv_mem.h **** #endif
  34:d:\_project\stm32\f407\hack_rf_new\lvgl\src\lv_misc\lv_mem.h **** 
  35:d:\_project\stm32\f407\hack_rf_new\lvgl\src\lv_misc\lv_mem.h **** /**********************
  36:d:\_project\stm32\f407\hack_rf_new\lvgl\src\lv_misc\lv_mem.h ****  *      TYPEDEFS
  37:d:\_project\stm32\f407\hack_rf_new\lvgl\src\lv_misc\lv_mem.h ****  **********************/
  38:d:\_project\stm32\f407\hack_rf_new\lvgl\src\lv_misc\lv_mem.h **** 
  39:d:\_project\stm32\f407\hack_rf_new\lvgl\src\lv_misc\lv_mem.h **** /**
  40:d:\_project\stm32\f407\hack_rf_new\lvgl\src\lv_misc\lv_mem.h ****  * Heap information structure.
  41:d:\_project\stm32\f407\hack_rf_new\lvgl\src\lv_misc\lv_mem.h ****  */
  42:d:\_project\stm32\f407\hack_rf_new\lvgl\src\lv_misc\lv_mem.h **** typedef struct {
  43:d:\_project\stm32\f407\hack_rf_new\lvgl\src\lv_misc\lv_mem.h ****     uint32_t total_size; /**< Total heap size */
  44:d:\_project\stm32\f407\hack_rf_new\lvgl\src\lv_misc\lv_mem.h ****     uint32_t free_cnt;
  45:d:\_project\stm32\f407\hack_rf_new\lvgl\src\lv_misc\lv_mem.h ****     uint32_t free_size; /**< Size of available memory */
  46:d:\_project\stm32\f407\hack_rf_new\lvgl\src\lv_misc\lv_mem.h ****     uint32_t free_biggest_size;
  47:d:\_project\stm32\f407\hack_rf_new\lvgl\src\lv_misc\lv_mem.h ****     uint32_t used_cnt;
  48:d:\_project\stm32\f407\hack_rf_new\lvgl\src\lv_misc\lv_mem.h ****     uint32_t max_used; /**< Max size of Heap memory used */
  49:d:\_project\stm32\f407\hack_rf_new\lvgl\src\lv_misc\lv_mem.h ****     uint8_t used_pct; /**< Percentage used */
  50:d:\_project\stm32\f407\hack_rf_new\lvgl\src\lv_misc\lv_mem.h ****     uint8_t frag_pct; /**< Amount of fragmentation */
  51:d:\_project\stm32\f407\hack_rf_new\lvgl\src\lv_misc\lv_mem.h **** } lv_mem_monitor_t;
  52:d:\_project\stm32\f407\hack_rf_new\lvgl\src\lv_misc\lv_mem.h **** 
  53:d:\_project\stm32\f407\hack_rf_new\lvgl\src\lv_misc\lv_mem.h **** typedef struct {
  54:d:\_project\stm32\f407\hack_rf_new\lvgl\src\lv_misc\lv_mem.h ****     void * p;
  55:d:\_project\stm32\f407\hack_rf_new\lvgl\src\lv_misc\lv_mem.h ****     uint16_t size;
  56:d:\_project\stm32\f407\hack_rf_new\lvgl\src\lv_misc\lv_mem.h ****     uint8_t used    : 1;
ARM GAS  D:\Temp\cclvo1nc.s 			page 117


  57:d:\_project\stm32\f407\hack_rf_new\lvgl\src\lv_misc\lv_mem.h **** } lv_mem_buf_t;
  58:d:\_project\stm32\f407\hack_rf_new\lvgl\src\lv_misc\lv_mem.h **** 
  59:d:\_project\stm32\f407\hack_rf_new\lvgl\src\lv_misc\lv_mem.h **** typedef lv_mem_buf_t lv_mem_buf_arr_t[LV_MEM_BUF_MAX_NUM];
  60:d:\_project\stm32\f407\hack_rf_new\lvgl\src\lv_misc\lv_mem.h **** extern lv_mem_buf_arr_t _lv_mem_buf;
  61:d:\_project\stm32\f407\hack_rf_new\lvgl\src\lv_misc\lv_mem.h **** 
  62:d:\_project\stm32\f407\hack_rf_new\lvgl\src\lv_misc\lv_mem.h **** /**********************
  63:d:\_project\stm32\f407\hack_rf_new\lvgl\src\lv_misc\lv_mem.h ****  * GLOBAL PROTOTYPES
  64:d:\_project\stm32\f407\hack_rf_new\lvgl\src\lv_misc\lv_mem.h ****  **********************/
  65:d:\_project\stm32\f407\hack_rf_new\lvgl\src\lv_misc\lv_mem.h **** 
  66:d:\_project\stm32\f407\hack_rf_new\lvgl\src\lv_misc\lv_mem.h **** /**
  67:d:\_project\stm32\f407\hack_rf_new\lvgl\src\lv_misc\lv_mem.h ****  * Initialize the dyn_mem module (work memory and other variables)
  68:d:\_project\stm32\f407\hack_rf_new\lvgl\src\lv_misc\lv_mem.h ****  */
  69:d:\_project\stm32\f407\hack_rf_new\lvgl\src\lv_misc\lv_mem.h **** void _lv_mem_init(void);
  70:d:\_project\stm32\f407\hack_rf_new\lvgl\src\lv_misc\lv_mem.h **** 
  71:d:\_project\stm32\f407\hack_rf_new\lvgl\src\lv_misc\lv_mem.h **** /**
  72:d:\_project\stm32\f407\hack_rf_new\lvgl\src\lv_misc\lv_mem.h ****  * Clean up the memory buffer which frees all the allocated memories.
  73:d:\_project\stm32\f407\hack_rf_new\lvgl\src\lv_misc\lv_mem.h ****  * @note It work only if `LV_MEM_CUSTOM == 0`
  74:d:\_project\stm32\f407\hack_rf_new\lvgl\src\lv_misc\lv_mem.h ****  */
  75:d:\_project\stm32\f407\hack_rf_new\lvgl\src\lv_misc\lv_mem.h **** void _lv_mem_deinit(void);
  76:d:\_project\stm32\f407\hack_rf_new\lvgl\src\lv_misc\lv_mem.h **** 
  77:d:\_project\stm32\f407\hack_rf_new\lvgl\src\lv_misc\lv_mem.h **** /**
  78:d:\_project\stm32\f407\hack_rf_new\lvgl\src\lv_misc\lv_mem.h ****  * Allocate a memory dynamically
  79:d:\_project\stm32\f407\hack_rf_new\lvgl\src\lv_misc\lv_mem.h ****  * @param size size of the memory to allocate in bytes
  80:d:\_project\stm32\f407\hack_rf_new\lvgl\src\lv_misc\lv_mem.h ****  * @return pointer to the allocated memory
  81:d:\_project\stm32\f407\hack_rf_new\lvgl\src\lv_misc\lv_mem.h ****  */
  82:d:\_project\stm32\f407\hack_rf_new\lvgl\src\lv_misc\lv_mem.h **** void * lv_mem_alloc(size_t size);
  83:d:\_project\stm32\f407\hack_rf_new\lvgl\src\lv_misc\lv_mem.h **** 
  84:d:\_project\stm32\f407\hack_rf_new\lvgl\src\lv_misc\lv_mem.h **** /**
  85:d:\_project\stm32\f407\hack_rf_new\lvgl\src\lv_misc\lv_mem.h ****  * Free an allocated data
  86:d:\_project\stm32\f407\hack_rf_new\lvgl\src\lv_misc\lv_mem.h ****  * @param data pointer to an allocated memory
  87:d:\_project\stm32\f407\hack_rf_new\lvgl\src\lv_misc\lv_mem.h ****  */
  88:d:\_project\stm32\f407\hack_rf_new\lvgl\src\lv_misc\lv_mem.h **** void lv_mem_free(const void * data);
  89:d:\_project\stm32\f407\hack_rf_new\lvgl\src\lv_misc\lv_mem.h **** 
  90:d:\_project\stm32\f407\hack_rf_new\lvgl\src\lv_misc\lv_mem.h **** /**
  91:d:\_project\stm32\f407\hack_rf_new\lvgl\src\lv_misc\lv_mem.h ****  * Reallocate a memory with a new size. The old content will be kept.
  92:d:\_project\stm32\f407\hack_rf_new\lvgl\src\lv_misc\lv_mem.h ****  * @param data pointer to an allocated memory.
  93:d:\_project\stm32\f407\hack_rf_new\lvgl\src\lv_misc\lv_mem.h ****  * Its content will be copied to the new memory block and freed
  94:d:\_project\stm32\f407\hack_rf_new\lvgl\src\lv_misc\lv_mem.h ****  * @param new_size the desired new size in byte
  95:d:\_project\stm32\f407\hack_rf_new\lvgl\src\lv_misc\lv_mem.h ****  * @return pointer to the new memory
  96:d:\_project\stm32\f407\hack_rf_new\lvgl\src\lv_misc\lv_mem.h ****  */
  97:d:\_project\stm32\f407\hack_rf_new\lvgl\src\lv_misc\lv_mem.h **** void * lv_mem_realloc(void * data_p, size_t new_size);
  98:d:\_project\stm32\f407\hack_rf_new\lvgl\src\lv_misc\lv_mem.h **** 
  99:d:\_project\stm32\f407\hack_rf_new\lvgl\src\lv_misc\lv_mem.h **** /**
 100:d:\_project\stm32\f407\hack_rf_new\lvgl\src\lv_misc\lv_mem.h ****  * Join the adjacent free memory blocks
 101:d:\_project\stm32\f407\hack_rf_new\lvgl\src\lv_misc\lv_mem.h ****  */
 102:d:\_project\stm32\f407\hack_rf_new\lvgl\src\lv_misc\lv_mem.h **** void lv_mem_defrag(void);
 103:d:\_project\stm32\f407\hack_rf_new\lvgl\src\lv_misc\lv_mem.h **** 
 104:d:\_project\stm32\f407\hack_rf_new\lvgl\src\lv_misc\lv_mem.h **** /**
 105:d:\_project\stm32\f407\hack_rf_new\lvgl\src\lv_misc\lv_mem.h ****  *
 106:d:\_project\stm32\f407\hack_rf_new\lvgl\src\lv_misc\lv_mem.h ****  * @return
 107:d:\_project\stm32\f407\hack_rf_new\lvgl\src\lv_misc\lv_mem.h ****  */
 108:d:\_project\stm32\f407\hack_rf_new\lvgl\src\lv_misc\lv_mem.h **** lv_res_t lv_mem_test(void);
 109:d:\_project\stm32\f407\hack_rf_new\lvgl\src\lv_misc\lv_mem.h **** 
 110:d:\_project\stm32\f407\hack_rf_new\lvgl\src\lv_misc\lv_mem.h **** /**
 111:d:\_project\stm32\f407\hack_rf_new\lvgl\src\lv_misc\lv_mem.h ****  * Give information about the work memory of dynamic allocation
 112:d:\_project\stm32\f407\hack_rf_new\lvgl\src\lv_misc\lv_mem.h ****  * @param mon_p pointer to a dm_mon_p variable,
 113:d:\_project\stm32\f407\hack_rf_new\lvgl\src\lv_misc\lv_mem.h ****  *              the result of the analysis will be stored here
ARM GAS  D:\Temp\cclvo1nc.s 			page 118


 114:d:\_project\stm32\f407\hack_rf_new\lvgl\src\lv_misc\lv_mem.h ****  */
 115:d:\_project\stm32\f407\hack_rf_new\lvgl\src\lv_misc\lv_mem.h **** void lv_mem_monitor(lv_mem_monitor_t * mon_p);
 116:d:\_project\stm32\f407\hack_rf_new\lvgl\src\lv_misc\lv_mem.h **** 
 117:d:\_project\stm32\f407\hack_rf_new\lvgl\src\lv_misc\lv_mem.h **** /**
 118:d:\_project\stm32\f407\hack_rf_new\lvgl\src\lv_misc\lv_mem.h ****  * Give the size of an allocated memory
 119:d:\_project\stm32\f407\hack_rf_new\lvgl\src\lv_misc\lv_mem.h ****  * @param data pointer to an allocated memory
 120:d:\_project\stm32\f407\hack_rf_new\lvgl\src\lv_misc\lv_mem.h ****  * @return the size of data memory in bytes
 121:d:\_project\stm32\f407\hack_rf_new\lvgl\src\lv_misc\lv_mem.h ****  */
 122:d:\_project\stm32\f407\hack_rf_new\lvgl\src\lv_misc\lv_mem.h **** uint32_t _lv_mem_get_size(const void * data);
 123:d:\_project\stm32\f407\hack_rf_new\lvgl\src\lv_misc\lv_mem.h **** 
 124:d:\_project\stm32\f407\hack_rf_new\lvgl\src\lv_misc\lv_mem.h **** /**
 125:d:\_project\stm32\f407\hack_rf_new\lvgl\src\lv_misc\lv_mem.h ****  * Get a temporal buffer with the given size.
 126:d:\_project\stm32\f407\hack_rf_new\lvgl\src\lv_misc\lv_mem.h ****  * @param size the required size
 127:d:\_project\stm32\f407\hack_rf_new\lvgl\src\lv_misc\lv_mem.h ****  */
 128:d:\_project\stm32\f407\hack_rf_new\lvgl\src\lv_misc\lv_mem.h **** void * _lv_mem_buf_get(uint32_t size);
 129:d:\_project\stm32\f407\hack_rf_new\lvgl\src\lv_misc\lv_mem.h **** 
 130:d:\_project\stm32\f407\hack_rf_new\lvgl\src\lv_misc\lv_mem.h **** /**
 131:d:\_project\stm32\f407\hack_rf_new\lvgl\src\lv_misc\lv_mem.h ****  * Release a memory buffer
 132:d:\_project\stm32\f407\hack_rf_new\lvgl\src\lv_misc\lv_mem.h ****  * @param p buffer to release
 133:d:\_project\stm32\f407\hack_rf_new\lvgl\src\lv_misc\lv_mem.h ****  */
 134:d:\_project\stm32\f407\hack_rf_new\lvgl\src\lv_misc\lv_mem.h **** void _lv_mem_buf_release(void * p);
 135:d:\_project\stm32\f407\hack_rf_new\lvgl\src\lv_misc\lv_mem.h **** 
 136:d:\_project\stm32\f407\hack_rf_new\lvgl\src\lv_misc\lv_mem.h **** /**
 137:d:\_project\stm32\f407\hack_rf_new\lvgl\src\lv_misc\lv_mem.h ****  * Free all memory buffers
 138:d:\_project\stm32\f407\hack_rf_new\lvgl\src\lv_misc\lv_mem.h ****  */
 139:d:\_project\stm32\f407\hack_rf_new\lvgl\src\lv_misc\lv_mem.h **** void _lv_mem_buf_free_all(void);
 140:d:\_project\stm32\f407\hack_rf_new\lvgl\src\lv_misc\lv_mem.h **** 
 141:d:\_project\stm32\f407\hack_rf_new\lvgl\src\lv_misc\lv_mem.h **** //! @cond Doxygen_Suppress
 142:d:\_project\stm32\f407\hack_rf_new\lvgl\src\lv_misc\lv_mem.h **** 
 143:d:\_project\stm32\f407\hack_rf_new\lvgl\src\lv_misc\lv_mem.h **** #if LV_MEMCPY_MEMSET_STD
 144:d:\_project\stm32\f407\hack_rf_new\lvgl\src\lv_misc\lv_mem.h **** 
 145:d:\_project\stm32\f407\hack_rf_new\lvgl\src\lv_misc\lv_mem.h **** /**
 146:d:\_project\stm32\f407\hack_rf_new\lvgl\src\lv_misc\lv_mem.h ****  * Wrapper for the standard memcpy
 147:d:\_project\stm32\f407\hack_rf_new\lvgl\src\lv_misc\lv_mem.h ****  * @param dst pointer to the destination buffer
 148:d:\_project\stm32\f407\hack_rf_new\lvgl\src\lv_misc\lv_mem.h ****  * @param src pointer to the source buffer
 149:d:\_project\stm32\f407\hack_rf_new\lvgl\src\lv_misc\lv_mem.h ****  * @param len number of byte to copy
 150:d:\_project\stm32\f407\hack_rf_new\lvgl\src\lv_misc\lv_mem.h ****  */
 151:d:\_project\stm32\f407\hack_rf_new\lvgl\src\lv_misc\lv_mem.h **** static inline void * _lv_memcpy(void * dst, const void * src, size_t len)
 152:d:\_project\stm32\f407\hack_rf_new\lvgl\src\lv_misc\lv_mem.h **** {
 153:d:\_project\stm32\f407\hack_rf_new\lvgl\src\lv_misc\lv_mem.h ****     return memcpy(dst, src, len);
 154:d:\_project\stm32\f407\hack_rf_new\lvgl\src\lv_misc\lv_mem.h **** }
 155:d:\_project\stm32\f407\hack_rf_new\lvgl\src\lv_misc\lv_mem.h **** 
 156:d:\_project\stm32\f407\hack_rf_new\lvgl\src\lv_misc\lv_mem.h **** /**
 157:d:\_project\stm32\f407\hack_rf_new\lvgl\src\lv_misc\lv_mem.h ****  * Wrapper for the standard memcpy
 158:d:\_project\stm32\f407\hack_rf_new\lvgl\src\lv_misc\lv_mem.h ****  * @param dst pointer to the destination buffer
 159:d:\_project\stm32\f407\hack_rf_new\lvgl\src\lv_misc\lv_mem.h ****  * @param src pointer to the source buffer
 160:d:\_project\stm32\f407\hack_rf_new\lvgl\src\lv_misc\lv_mem.h ****  * @param len number of byte to copy
 161:d:\_project\stm32\f407\hack_rf_new\lvgl\src\lv_misc\lv_mem.h ****  */
 162:d:\_project\stm32\f407\hack_rf_new\lvgl\src\lv_misc\lv_mem.h **** static inline void * _lv_memcpy_small(void * dst, const void * src, size_t len)
 163:d:\_project\stm32\f407\hack_rf_new\lvgl\src\lv_misc\lv_mem.h **** {
 164:d:\_project\stm32\f407\hack_rf_new\lvgl\src\lv_misc\lv_mem.h ****     return memcpy(dst, src, len);
 165:d:\_project\stm32\f407\hack_rf_new\lvgl\src\lv_misc\lv_mem.h **** }
 166:d:\_project\stm32\f407\hack_rf_new\lvgl\src\lv_misc\lv_mem.h **** 
 167:d:\_project\stm32\f407\hack_rf_new\lvgl\src\lv_misc\lv_mem.h **** /**
 168:d:\_project\stm32\f407\hack_rf_new\lvgl\src\lv_misc\lv_mem.h ****  * Wrapper for the standard memset
 169:d:\_project\stm32\f407\hack_rf_new\lvgl\src\lv_misc\lv_mem.h ****  * @param dst pointer to the destination buffer
 170:d:\_project\stm32\f407\hack_rf_new\lvgl\src\lv_misc\lv_mem.h ****  * @param v value to set [0..255]
ARM GAS  D:\Temp\cclvo1nc.s 			page 119


 171:d:\_project\stm32\f407\hack_rf_new\lvgl\src\lv_misc\lv_mem.h ****  * @param len number of byte to set
 172:d:\_project\stm32\f407\hack_rf_new\lvgl\src\lv_misc\lv_mem.h ****  */
 173:d:\_project\stm32\f407\hack_rf_new\lvgl\src\lv_misc\lv_mem.h **** static inline void _lv_memset(void * dst, uint8_t v, size_t len)
 174:d:\_project\stm32\f407\hack_rf_new\lvgl\src\lv_misc\lv_mem.h **** {
 175:d:\_project\stm32\f407\hack_rf_new\lvgl\src\lv_misc\lv_mem.h ****     memset(dst, v, len);
 176:d:\_project\stm32\f407\hack_rf_new\lvgl\src\lv_misc\lv_mem.h **** }
 177:d:\_project\stm32\f407\hack_rf_new\lvgl\src\lv_misc\lv_mem.h **** 
 178:d:\_project\stm32\f407\hack_rf_new\lvgl\src\lv_misc\lv_mem.h **** /**
 179:d:\_project\stm32\f407\hack_rf_new\lvgl\src\lv_misc\lv_mem.h ****  * Wrapper for the standard memset with fixed 0x00 value
 180:d:\_project\stm32\f407\hack_rf_new\lvgl\src\lv_misc\lv_mem.h ****  * @param dst pointer to the destination buffer
 181:d:\_project\stm32\f407\hack_rf_new\lvgl\src\lv_misc\lv_mem.h ****  * @param len number of byte to set
 182:d:\_project\stm32\f407\hack_rf_new\lvgl\src\lv_misc\lv_mem.h ****  */
 183:d:\_project\stm32\f407\hack_rf_new\lvgl\src\lv_misc\lv_mem.h **** static inline void _lv_memset_00(void * dst, size_t len)
 184:d:\_project\stm32\f407\hack_rf_new\lvgl\src\lv_misc\lv_mem.h **** {
 185:d:\_project\stm32\f407\hack_rf_new\lvgl\src\lv_misc\lv_mem.h ****     memset(dst, 0x00, len);
 186:d:\_project\stm32\f407\hack_rf_new\lvgl\src\lv_misc\lv_mem.h **** }
 187:d:\_project\stm32\f407\hack_rf_new\lvgl\src\lv_misc\lv_mem.h **** 
 188:d:\_project\stm32\f407\hack_rf_new\lvgl\src\lv_misc\lv_mem.h **** /**
 189:d:\_project\stm32\f407\hack_rf_new\lvgl\src\lv_misc\lv_mem.h ****  * Wrapper for the standard memset with fixed 0xFF value
 190:d:\_project\stm32\f407\hack_rf_new\lvgl\src\lv_misc\lv_mem.h ****  * @param dst pointer to the destination buffer
 191:d:\_project\stm32\f407\hack_rf_new\lvgl\src\lv_misc\lv_mem.h ****  * @param len number of byte to set
 192:d:\_project\stm32\f407\hack_rf_new\lvgl\src\lv_misc\lv_mem.h ****  */
 193:d:\_project\stm32\f407\hack_rf_new\lvgl\src\lv_misc\lv_mem.h **** static inline void _lv_memset_ff(void * dst, size_t len)
 194:d:\_project\stm32\f407\hack_rf_new\lvgl\src\lv_misc\lv_mem.h **** {
 195:d:\_project\stm32\f407\hack_rf_new\lvgl\src\lv_misc\lv_mem.h ****     memset(dst, 0xFF, len);
 196:d:\_project\stm32\f407\hack_rf_new\lvgl\src\lv_misc\lv_mem.h **** }
 197:d:\_project\stm32\f407\hack_rf_new\lvgl\src\lv_misc\lv_mem.h **** 
 198:d:\_project\stm32\f407\hack_rf_new\lvgl\src\lv_misc\lv_mem.h **** #else
 199:d:\_project\stm32\f407\hack_rf_new\lvgl\src\lv_misc\lv_mem.h **** /**
 200:d:\_project\stm32\f407\hack_rf_new\lvgl\src\lv_misc\lv_mem.h ****  * Same as `memcpy` but optimized for 4 byte operation.
 201:d:\_project\stm32\f407\hack_rf_new\lvgl\src\lv_misc\lv_mem.h ****  * @param dst pointer to the destination buffer
 202:d:\_project\stm32\f407\hack_rf_new\lvgl\src\lv_misc\lv_mem.h ****  * @param src pointer to the source buffer
 203:d:\_project\stm32\f407\hack_rf_new\lvgl\src\lv_misc\lv_mem.h ****  * @param len number of byte to copy
 204:d:\_project\stm32\f407\hack_rf_new\lvgl\src\lv_misc\lv_mem.h ****  */
 205:d:\_project\stm32\f407\hack_rf_new\lvgl\src\lv_misc\lv_mem.h **** LV_ATTRIBUTE_FAST_MEM void * _lv_memcpy(void * dst, const void * src, size_t len);
 206:d:\_project\stm32\f407\hack_rf_new\lvgl\src\lv_misc\lv_mem.h **** 
 207:d:\_project\stm32\f407\hack_rf_new\lvgl\src\lv_misc\lv_mem.h **** /**
 208:d:\_project\stm32\f407\hack_rf_new\lvgl\src\lv_misc\lv_mem.h ****  * Same as `memcpy` but optimized to copy only a few bytes.
 209:d:\_project\stm32\f407\hack_rf_new\lvgl\src\lv_misc\lv_mem.h ****  * @param dst pointer to the destination buffer
 210:d:\_project\stm32\f407\hack_rf_new\lvgl\src\lv_misc\lv_mem.h ****  * @param src pointer to the source buffer
 211:d:\_project\stm32\f407\hack_rf_new\lvgl\src\lv_misc\lv_mem.h ****  * @param len number of byte to copy
 212:d:\_project\stm32\f407\hack_rf_new\lvgl\src\lv_misc\lv_mem.h ****  */
 213:d:\_project\stm32\f407\hack_rf_new\lvgl\src\lv_misc\lv_mem.h **** LV_ATTRIBUTE_FAST_MEM static inline void * _lv_memcpy_small(void * dst, const void * src, size_t le
 4010              		.loc 5 213 44 view .LVU1179
 4011              	.LBB188:
 214:d:\_project\stm32\f407\hack_rf_new\lvgl\src\lv_misc\lv_mem.h **** {
 215:d:\_project\stm32\f407\hack_rf_new\lvgl\src\lv_misc\lv_mem.h ****     uint8_t * d8 = (uint8_t *)dst;
 4012              		.loc 5 215 5 view .LVU1180
 216:d:\_project\stm32\f407\hack_rf_new\lvgl\src\lv_misc\lv_mem.h ****     const uint8_t * s8 = (const uint8_t *)src;
 4013              		.loc 5 216 5 view .LVU1181
 217:d:\_project\stm32\f407\hack_rf_new\lvgl\src\lv_misc\lv_mem.h **** 
 218:d:\_project\stm32\f407\hack_rf_new\lvgl\src\lv_misc\lv_mem.h ****     while(len) {
 4014              		.loc 5 218 5 view .LVU1182
 215:d:\_project\stm32\f407\hack_rf_new\lvgl\src\lv_misc\lv_mem.h ****     const uint8_t * s8 = (const uint8_t *)src;
 4015              		.loc 5 215 15 is_stmt 0 view .LVU1183
 4016 000e 6A46     		mov	r2, sp
 4017              	.LBE188:
ARM GAS  D:\Temp\cclvo1nc.s 			page 120


 4018              	.LBE187:
 4019              	.LBE191:
 614:lvgl/src/lv_widgets/lv_calendar.c ****     lv_style_int_t left = lv_obj_get_style_pad_left(calendar, LV_CALENDAR_PART_DATE);
 4020              		.loc 1 614 30 view .LVU1184
 4021 0010 0823     		movs	r3, #8
 4022              	.LVL435:
 4023              	.L248:
 4024              	.LBB192:
 4025              	.LBB190:
 4026              	.LBB189:
 4027              		.loc 5 218 10 view .LVU1185
 4028 0012 2BB1     		cbz	r3, .L263
 219:d:\_project\stm32\f407\hack_rf_new\lvgl\src\lv_misc\lv_mem.h ****         *d8 = *s8;
 4029              		.loc 5 219 9 is_stmt 1 view .LVU1186
 4030              		.loc 5 219 15 is_stmt 0 view .LVU1187
 4031 0014 11F8010B 		ldrb	r0, [r1], #1	@ zero_extendqisi2
 4032              	.LVL436:
 4033              		.loc 5 219 13 view .LVU1188
 4034 0018 02F8010B 		strb	r0, [r2], #1
 4035              	.LVL437:
 220:d:\_project\stm32\f407\hack_rf_new\lvgl\src\lv_misc\lv_mem.h ****         d8++;
 4036              		.loc 5 220 9 is_stmt 1 view .LVU1189
 221:d:\_project\stm32\f407\hack_rf_new\lvgl\src\lv_misc\lv_mem.h ****         s8++;
 4037              		.loc 5 221 9 view .LVU1190
 222:d:\_project\stm32\f407\hack_rf_new\lvgl\src\lv_misc\lv_mem.h ****         len--;
 4038              		.loc 5 222 9 view .LVU1191
 4039              		.loc 5 222 12 is_stmt 0 view .LVU1192
 4040 001c 013B     		subs	r3, r3, #1
 4041              	.LVL438:
 4042              		.loc 5 222 12 view .LVU1193
 4043 001e F8E7     		b	.L248
 4044              	.L263:
 223:d:\_project\stm32\f407\hack_rf_new\lvgl\src\lv_misc\lv_mem.h ****     }
 224:d:\_project\stm32\f407\hack_rf_new\lvgl\src\lv_misc\lv_mem.h **** 
 225:d:\_project\stm32\f407\hack_rf_new\lvgl\src\lv_misc\lv_mem.h ****     return dst;
 4045              		.loc 5 225 5 is_stmt 1 view .LVU1194
 4046              	.LVL439:
 4047              		.loc 5 225 5 is_stmt 0 view .LVU1195
 4048              	.LBE189:
 4049              	.LBE190:
 4050              	.LBE192:
 615:lvgl/src/lv_widgets/lv_calendar.c ****     lv_style_int_t right = lv_obj_get_style_pad_right(calendar, LV_CALENDAR_PART_DATE);
 4051              		.loc 1 615 5 is_stmt 1 view .LVU1196
 4052              	.LBB193:
 4053              	.LBI193:
 112:lvgl/src/lv_widgets/../lv_core/lv_obj_style_dec.h **** _LV_OBJ_STYLE_SET_GET_DECLARE(PAD_RIGHT, pad_right, lv_style_int_t, _int, scalar)
 4054              		.loc 2 112 1 view .LVU1197
 4055              	.LBB194:
 112:lvgl/src/lv_widgets/../lv_core/lv_obj_style_dec.h **** _LV_OBJ_STYLE_SET_GET_DECLARE(PAD_RIGHT, pad_right, lv_style_int_t, _int, scalar)
 4056              		.loc 2 112 1 view .LVU1198
 4057 0020 1222     		movs	r2, #18
 4058 0022 0321     		movs	r1, #3
 4059 0024 2846     		mov	r0, r5
 4060 0026 FFF7FEFF 		bl	_lv_obj_get_style_int
 4061              	.LVL440:
 4062 002a 0446     		mov	r4, r0
 4063              	.LVL441:
ARM GAS  D:\Temp\cclvo1nc.s 			page 121


 112:lvgl/src/lv_widgets/../lv_core/lv_obj_style_dec.h **** _LV_OBJ_STYLE_SET_GET_DECLARE(PAD_RIGHT, pad_right, lv_style_int_t, _int, scalar)
 4064              		.loc 2 112 1 is_stmt 0 view .LVU1199
 4065              	.LBE194:
 4066              	.LBE193:
 616:lvgl/src/lv_widgets/lv_calendar.c ****     lv_style_int_t top = lv_obj_get_style_pad_top(calendar, LV_CALENDAR_PART_DATE);
 4067              		.loc 1 616 5 is_stmt 1 view .LVU1200
 4068              	.LBB195:
 4069              	.LBI195:
 113:lvgl/src/lv_widgets/../lv_core/lv_obj_style_dec.h **** _LV_OBJ_STYLE_SET_GET_DECLARE(PAD_INNER, pad_inner, lv_style_int_t, _int, scalar)
 4070              		.loc 2 113 1 view .LVU1201
 4071              	.LBB196:
 113:lvgl/src/lv_widgets/../lv_core/lv_obj_style_dec.h **** _LV_OBJ_STYLE_SET_GET_DECLARE(PAD_INNER, pad_inner, lv_style_int_t, _int, scalar)
 4072              		.loc 2 113 1 view .LVU1202
 4073 002c 1322     		movs	r2, #19
 4074 002e 0321     		movs	r1, #3
 4075 0030 2846     		mov	r0, r5
 4076 0032 FFF7FEFF 		bl	_lv_obj_get_style_int
 4077              	.LVL442:
 4078 0036 8146     		mov	r9, r0
 4079              	.LVL443:
 113:lvgl/src/lv_widgets/../lv_core/lv_obj_style_dec.h **** _LV_OBJ_STYLE_SET_GET_DECLARE(PAD_INNER, pad_inner, lv_style_int_t, _int, scalar)
 4080              		.loc 2 113 1 is_stmt 0 view .LVU1203
 4081              	.LBE196:
 4082              	.LBE195:
 617:lvgl/src/lv_widgets/lv_calendar.c ****     lv_style_int_t bottom = lv_obj_get_style_pad_bottom(calendar, LV_CALENDAR_PART_DATE);
 4083              		.loc 1 617 5 is_stmt 1 view .LVU1204
 4084              	.LBB197:
 4085              	.LBI197:
 110:lvgl/src/lv_widgets/../lv_core/lv_obj_style_dec.h **** _LV_OBJ_STYLE_SET_GET_DECLARE(PAD_BOTTOM, pad_bottom, lv_style_int_t, _int, scalar)
 4086              		.loc 2 110 1 view .LVU1205
 4087              	.LBB198:
 110:lvgl/src/lv_widgets/../lv_core/lv_obj_style_dec.h **** _LV_OBJ_STYLE_SET_GET_DECLARE(PAD_BOTTOM, pad_bottom, lv_style_int_t, _int, scalar)
 4088              		.loc 2 110 1 view .LVU1206
 4089 0038 1022     		movs	r2, #16
 4090 003a 0321     		movs	r1, #3
 4091 003c 2846     		mov	r0, r5
 4092 003e FFF7FEFF 		bl	_lv_obj_get_style_int
 4093              	.LVL444:
 4094 0042 8046     		mov	r8, r0
 4095              	.LVL445:
 110:lvgl/src/lv_widgets/../lv_core/lv_obj_style_dec.h **** _LV_OBJ_STYLE_SET_GET_DECLARE(PAD_BOTTOM, pad_bottom, lv_style_int_t, _int, scalar)
 4096              		.loc 2 110 1 is_stmt 0 view .LVU1207
 4097              	.LBE198:
 4098              	.LBE197:
 618:lvgl/src/lv_widgets/lv_calendar.c **** 
 4099              		.loc 1 618 5 is_stmt 1 view .LVU1208
 4100              	.LBB199:
 4101              	.LBI199:
 111:lvgl/src/lv_widgets/../lv_core/lv_obj_style_dec.h **** _LV_OBJ_STYLE_SET_GET_DECLARE(PAD_LEFT, pad_left, lv_style_int_t, _int, scalar)
 4102              		.loc 2 111 1 view .LVU1209
 4103              	.LBB200:
 111:lvgl/src/lv_widgets/../lv_core/lv_obj_style_dec.h **** _LV_OBJ_STYLE_SET_GET_DECLARE(PAD_LEFT, pad_left, lv_style_int_t, _int, scalar)
 4104              		.loc 2 111 1 view .LVU1210
 4105 0044 1122     		movs	r2, #17
 4106 0046 0321     		movs	r1, #3
 4107 0048 2846     		mov	r0, r5
 4108 004a FFF7FEFF 		bl	_lv_obj_get_style_int
ARM GAS  D:\Temp\cclvo1nc.s 			page 122


 4109              	.LVL446:
 4110 004e 0746     		mov	r7, r0
 4111              	.LVL447:
 111:lvgl/src/lv_widgets/../lv_core/lv_obj_style_dec.h **** _LV_OBJ_STYLE_SET_GET_DECLARE(PAD_LEFT, pad_left, lv_style_int_t, _int, scalar)
 4112              		.loc 2 111 1 is_stmt 0 view .LVU1211
 4113              	.LBE200:
 4114              	.LBE199:
 620:lvgl/src/lv_widgets/lv_calendar.c ****     days_area.x2 -= right;
 4115              		.loc 1 620 5 is_stmt 1 view .LVU1212
 620:lvgl/src/lv_widgets/lv_calendar.c ****     days_area.x2 -= right;
 4116              		.loc 1 620 18 is_stmt 0 view .LVU1213
 4117 0050 BDF80030 		ldrh	r3, [sp]
 4118 0054 1C44     		add	r4, r4, r3
 4119              	.LVL448:
 620:lvgl/src/lv_widgets/lv_calendar.c ****     days_area.x2 -= right;
 4120              		.loc 1 620 18 view .LVU1214
 4121 0056 ADF80040 		strh	r4, [sp]	@ movhi
 621:lvgl/src/lv_widgets/lv_calendar.c ****     days_area.y1 = calendar->coords.y1 + get_header_height(calendar) + get_day_names_height(calenda
 4122              		.loc 1 621 5 is_stmt 1 view .LVU1215
 621:lvgl/src/lv_widgets/lv_calendar.c ****     days_area.y1 = calendar->coords.y1 + get_header_height(calendar) + get_day_names_height(calenda
 4123              		.loc 1 621 18 is_stmt 0 view .LVU1216
 4124 005a BDF80400 		ldrh	r0, [sp, #4]
 4125 005e A0EB0900 		sub	r0, r0, r9
 4126 0062 ADF80400 		strh	r0, [sp, #4]	@ movhi
 622:lvgl/src/lv_widgets/lv_calendar.c ****     days_area.y2 -= bottom;
 4127              		.loc 1 622 5 is_stmt 1 view .LVU1217
 622:lvgl/src/lv_widgets/lv_calendar.c ****     days_area.y2 -= bottom;
 4128              		.loc 1 622 36 is_stmt 0 view .LVU1218
 4129 0066 6C8A     		ldrh	r4, [r5, #18]
 622:lvgl/src/lv_widgets/lv_calendar.c ****     days_area.y2 -= bottom;
 4130              		.loc 1 622 42 view .LVU1219
 4131 0068 2846     		mov	r0, r5
 4132 006a FFF7FEFF 		bl	get_header_height
 4133              	.LVL449:
 622:lvgl/src/lv_widgets/lv_calendar.c ****     days_area.y2 -= bottom;
 4134              		.loc 1 622 40 view .LVU1220
 4135 006e 14FA80F4 		uxtah	r4, r4, r0
 4136 0072 A4B2     		uxth	r4, r4
 622:lvgl/src/lv_widgets/lv_calendar.c ****     days_area.y2 -= bottom;
 4137              		.loc 1 622 72 view .LVU1221
 4138 0074 2846     		mov	r0, r5
 4139 0076 FFF7FEFF 		bl	get_day_names_height
 4140              	.LVL450:
 622:lvgl/src/lv_widgets/lv_calendar.c ****     days_area.y2 -= bottom;
 4141              		.loc 1 622 70 view .LVU1222
 4142 007a 14FA80F0 		uxtah	r0, r4, r0
 622:lvgl/src/lv_widgets/lv_calendar.c ****     days_area.y2 -= bottom;
 4143              		.loc 1 622 103 view .LVU1223
 4144 007e 18FA80F0 		uxtah	r0, r8, r0
 622:lvgl/src/lv_widgets/lv_calendar.c ****     days_area.y2 -= bottom;
 4145              		.loc 1 622 18 view .LVU1224
 4146 0082 ADF80200 		strh	r0, [sp, #2]	@ movhi
 623:lvgl/src/lv_widgets/lv_calendar.c **** 
 4147              		.loc 1 623 5 is_stmt 1 view .LVU1225
 623:lvgl/src/lv_widgets/lv_calendar.c **** 
 4148              		.loc 1 623 18 is_stmt 0 view .LVU1226
 4149 0086 BDF80600 		ldrh	r0, [sp, #6]
ARM GAS  D:\Temp\cclvo1nc.s 			page 123


 4150 008a C01B     		subs	r0, r0, r7
 4151 008c ADF80600 		strh	r0, [sp, #6]	@ movhi
 625:lvgl/src/lv_widgets/lv_calendar.c ****         lv_coord_t w  = (days_area.x2 - days_area.x1 + 1) / 7;
 4152              		.loc 1 625 5 is_stmt 1 view .LVU1227
 625:lvgl/src/lv_widgets/lv_calendar.c ****         lv_coord_t w  = (days_area.x2 - days_area.x1 + 1) / 7;
 4153              		.loc 1 625 8 is_stmt 0 view .LVU1228
 4154 0090 0022     		movs	r2, #0
 4155 0092 3146     		mov	r1, r6
 4156 0094 6846     		mov	r0, sp
 4157 0096 FFF7FEFF 		bl	_lv_area_is_point_on
 4158              	.LVL451:
 625:lvgl/src/lv_widgets/lv_calendar.c ****         lv_coord_t w  = (days_area.x2 - days_area.x1 + 1) / 7;
 4159              		.loc 1 625 7 view .LVU1229
 4160 009a 0746     		mov	r7, r0
 4161              	.LVL452:
 625:lvgl/src/lv_widgets/lv_calendar.c ****         lv_coord_t w  = (days_area.x2 - days_area.x1 + 1) / 7;
 4162              		.loc 1 625 7 view .LVU1230
 4163 009c 0028     		cmp	r0, #0
 4164 009e 59D0     		beq	.L250
 4165              	.LBB201:
 626:lvgl/src/lv_widgets/lv_calendar.c ****         lv_coord_t h  = (days_area.y2 - days_area.y1 + 1) / 6;
 4166              		.loc 1 626 9 is_stmt 1 view .LVU1231
 626:lvgl/src/lv_widgets/lv_calendar.c ****         lv_coord_t h  = (days_area.y2 - days_area.y1 + 1) / 6;
 4167              		.loc 1 626 35 is_stmt 0 view .LVU1232
 4168 00a0 BDF90430 		ldrsh	r3, [sp, #4]
 626:lvgl/src/lv_widgets/lv_calendar.c ****         lv_coord_t h  = (days_area.y2 - days_area.y1 + 1) / 6;
 4169              		.loc 1 626 50 view .LVU1233
 4170 00a4 BDF90000 		ldrsh	r0, [sp]
 626:lvgl/src/lv_widgets/lv_calendar.c ****         lv_coord_t h  = (days_area.y2 - days_area.y1 + 1) / 6;
 4171              		.loc 1 626 39 view .LVU1234
 4172 00a8 1B1A     		subs	r3, r3, r0
 626:lvgl/src/lv_widgets/lv_calendar.c ****         lv_coord_t h  = (days_area.y2 - days_area.y1 + 1) / 6;
 4173              		.loc 1 626 54 view .LVU1235
 4174 00aa 0133     		adds	r3, r3, #1
 626:lvgl/src/lv_widgets/lv_calendar.c ****         lv_coord_t h  = (days_area.y2 - days_area.y1 + 1) / 6;
 4175              		.loc 1 626 59 view .LVU1236
 4176 00ac 404A     		ldr	r2, .L264
 4177 00ae 82FB0312 		smull	r1, r2, r2, r3
 4178 00b2 D118     		adds	r1, r2, r3
 4179 00b4 DA17     		asrs	r2, r3, #31
 4180 00b6 C2EBA102 		rsb	r2, r2, r1, asr #2
 626:lvgl/src/lv_widgets/lv_calendar.c ****         lv_coord_t h  = (days_area.y2 - days_area.y1 + 1) / 6;
 4181              		.loc 1 626 20 view .LVU1237
 4182 00ba 12B2     		sxth	r2, r2
 4183              	.LVL453:
 627:lvgl/src/lv_widgets/lv_calendar.c ****         uint8_t x_pos = 0;
 4184              		.loc 1 627 9 is_stmt 1 view .LVU1238
 627:lvgl/src/lv_widgets/lv_calendar.c ****         uint8_t x_pos = 0;
 4185              		.loc 1 627 35 is_stmt 0 view .LVU1239
 4186 00bc BDF90630 		ldrsh	r3, [sp, #6]
 627:lvgl/src/lv_widgets/lv_calendar.c ****         uint8_t x_pos = 0;
 4187              		.loc 1 627 50 view .LVU1240
 4188 00c0 BDF902C0 		ldrsh	ip, [sp, #2]
 627:lvgl/src/lv_widgets/lv_calendar.c ****         uint8_t x_pos = 0;
 4189              		.loc 1 627 39 view .LVU1241
 4190 00c4 A3EB0C03 		sub	r3, r3, ip
 627:lvgl/src/lv_widgets/lv_calendar.c ****         uint8_t x_pos = 0;
ARM GAS  D:\Temp\cclvo1nc.s 			page 124


 4191              		.loc 1 627 54 view .LVU1242
 4192 00c8 0133     		adds	r3, r3, #1
 627:lvgl/src/lv_widgets/lv_calendar.c ****         uint8_t x_pos = 0;
 4193              		.loc 1 627 59 view .LVU1243
 4194 00ca 3A49     		ldr	r1, .L264+4
 4195 00cc 81FB0341 		smull	r4, r1, r1, r3
 4196 00d0 A1EBE373 		sub	r3, r1, r3, asr #31
 627:lvgl/src/lv_widgets/lv_calendar.c ****         uint8_t x_pos = 0;
 4197              		.loc 1 627 20 view .LVU1244
 4198 00d4 19B2     		sxth	r1, r3
 4199              	.LVL454:
 628:lvgl/src/lv_widgets/lv_calendar.c ****         x_pos         = (touched_point->x - days_area.x1) / w;
 4200              		.loc 1 628 9 is_stmt 1 view .LVU1245
 629:lvgl/src/lv_widgets/lv_calendar.c ****         if(x_pos > 6) x_pos = 6;
 4201              		.loc 1 629 9 view .LVU1246
 629:lvgl/src/lv_widgets/lv_calendar.c ****         if(x_pos > 6) x_pos = 6;
 4202              		.loc 1 629 39 is_stmt 0 view .LVU1247
 4203 00d6 B6F90040 		ldrsh	r4, [r6]
 629:lvgl/src/lv_widgets/lv_calendar.c ****         if(x_pos > 6) x_pos = 6;
 4204              		.loc 1 629 43 view .LVU1248
 4205 00da 241A     		subs	r4, r4, r0
 629:lvgl/src/lv_widgets/lv_calendar.c ****         if(x_pos > 6) x_pos = 6;
 4206              		.loc 1 629 59 view .LVU1249
 4207 00dc 94FBF2F4 		sdiv	r4, r4, r2
 629:lvgl/src/lv_widgets/lv_calendar.c ****         if(x_pos > 6) x_pos = 6;
 4208              		.loc 1 629 23 view .LVU1250
 4209 00e0 E4B2     		uxtb	r4, r4
 4210              	.LVL455:
 630:lvgl/src/lv_widgets/lv_calendar.c ****         uint8_t y_pos = 0;
 4211              		.loc 1 630 9 is_stmt 1 view .LVU1251
 630:lvgl/src/lv_widgets/lv_calendar.c ****         uint8_t y_pos = 0;
 4212              		.loc 1 630 11 is_stmt 0 view .LVU1252
 4213 00e2 062C     		cmp	r4, #6
 4214 00e4 00D9     		bls	.L251
 630:lvgl/src/lv_widgets/lv_calendar.c ****         uint8_t y_pos = 0;
 4215              		.loc 1 630 29 view .LVU1253
 4216 00e6 0624     		movs	r4, #6
 4217              	.LVL456:
 4218              	.L251:
 631:lvgl/src/lv_widgets/lv_calendar.c ****         y_pos         = (touched_point->y - days_area.y1) / h;
 4219              		.loc 1 631 9 is_stmt 1 view .LVU1254
 632:lvgl/src/lv_widgets/lv_calendar.c ****         if(y_pos > 5) y_pos = 5;
 4220              		.loc 1 632 9 view .LVU1255
 632:lvgl/src/lv_widgets/lv_calendar.c ****         if(y_pos > 5) y_pos = 5;
 4221              		.loc 1 632 39 is_stmt 0 view .LVU1256
 4222 00e8 B6F90230 		ldrsh	r3, [r6, #2]
 632:lvgl/src/lv_widgets/lv_calendar.c ****         if(y_pos > 5) y_pos = 5;
 4223              		.loc 1 632 43 view .LVU1257
 4224 00ec A3EB0C03 		sub	r3, r3, ip
 632:lvgl/src/lv_widgets/lv_calendar.c ****         if(y_pos > 5) y_pos = 5;
 4225              		.loc 1 632 59 view .LVU1258
 4226 00f0 93FBF1F3 		sdiv	r3, r3, r1
 632:lvgl/src/lv_widgets/lv_calendar.c ****         if(y_pos > 5) y_pos = 5;
 4227              		.loc 1 632 23 view .LVU1259
 4228 00f4 DBB2     		uxtb	r3, r3
 4229              	.LVL457:
 633:lvgl/src/lv_widgets/lv_calendar.c **** 
ARM GAS  D:\Temp\cclvo1nc.s 			page 125


 4230              		.loc 1 633 9 is_stmt 1 view .LVU1260
 633:lvgl/src/lv_widgets/lv_calendar.c **** 
 4231              		.loc 1 633 11 is_stmt 0 view .LVU1261
 4232 00f6 052B     		cmp	r3, #5
 4233 00f8 00D9     		bls	.L252
 633:lvgl/src/lv_widgets/lv_calendar.c **** 
 4234              		.loc 1 633 29 view .LVU1262
 4235 00fa 0523     		movs	r3, #5
 4236              	.LVL458:
 4237              	.L252:
 635:lvgl/src/lv_widgets/lv_calendar.c ****         i_pos                   = (y_pos * 7) + x_pos;
 4238              		.loc 1 635 9 is_stmt 1 view .LVU1263
 636:lvgl/src/lv_widgets/lv_calendar.c ****         lv_calendar_ext_t * ext = lv_obj_get_ext_attr(calendar);
 4239              		.loc 1 636 9 view .LVU1264
 636:lvgl/src/lv_widgets/lv_calendar.c ****         lv_calendar_ext_t * ext = lv_obj_get_ext_attr(calendar);
 4240              		.loc 1 636 47 is_stmt 0 view .LVU1265
 4241 00fc C3EBC303 		rsb	r3, r3, r3, lsl #3
 4242              	.LVL459:
 636:lvgl/src/lv_widgets/lv_calendar.c ****         lv_calendar_ext_t * ext = lv_obj_get_ext_attr(calendar);
 4243              		.loc 1 636 33 view .LVU1266
 4244 0100 54FA83F4 		uxtab	r4, r4, r3
 4245              	.LVL460:
 636:lvgl/src/lv_widgets/lv_calendar.c ****         lv_calendar_ext_t * ext = lv_obj_get_ext_attr(calendar);
 4246              		.loc 1 636 33 view .LVU1267
 4247 0104 E4B2     		uxtb	r4, r4
 4248              	.LVL461:
 637:lvgl/src/lv_widgets/lv_calendar.c ****         if(i_pos < lv_calendar_get_day_of_week(ext->showed_date.year, ext->showed_date.month, 1)) {
 4249              		.loc 1 637 9 is_stmt 1 view .LVU1268
 637:lvgl/src/lv_widgets/lv_calendar.c ****         if(i_pos < lv_calendar_get_day_of_week(ext->showed_date.year, ext->showed_date.month, 1)) {
 4250              		.loc 1 637 35 is_stmt 0 view .LVU1269
 4251 0106 2846     		mov	r0, r5
 4252 0108 FFF7FEFF 		bl	lv_obj_get_ext_attr
 4253              	.LVL462:
 637:lvgl/src/lv_widgets/lv_calendar.c ****         if(i_pos < lv_calendar_get_day_of_week(ext->showed_date.year, ext->showed_date.month, 1)) {
 4254              		.loc 1 637 35 view .LVU1270
 4255 010c 8046     		mov	r8, r0
 4256              	.LVL463:
 638:lvgl/src/lv_widgets/lv_calendar.c ****             ext->pressed_date.year  = ext->showed_date.year - (ext->showed_date.month == 1 ? 1 : 0)
 4257              		.loc 1 638 9 is_stmt 1 view .LVU1271
 638:lvgl/src/lv_widgets/lv_calendar.c ****             ext->pressed_date.year  = ext->showed_date.year - (ext->showed_date.month == 1 ? 1 : 0)
 4258              		.loc 1 638 64 is_stmt 0 view .LVU1272
 4259 010e B0F80490 		ldrh	r9, [r0, #4]
 4260              	.LVL464:
 638:lvgl/src/lv_widgets/lv_calendar.c ****             ext->pressed_date.year  = ext->showed_date.year - (ext->showed_date.month == 1 ? 1 : 0)
 4261              		.loc 1 638 87 view .LVU1273
 4262 0112 90F90660 		ldrsb	r6, [r0, #6]
 4263              	.LVL465:
 638:lvgl/src/lv_widgets/lv_calendar.c ****             ext->pressed_date.year  = ext->showed_date.year - (ext->showed_date.month == 1 ? 1 : 0)
 4264              		.loc 1 638 20 view .LVU1274
 4265 0116 0122     		movs	r2, #1
 4266 0118 3146     		mov	r1, r6
 4267 011a 4846     		mov	r0, r9
 4268              	.LVL466:
 638:lvgl/src/lv_widgets/lv_calendar.c ****             ext->pressed_date.year  = ext->showed_date.year - (ext->showed_date.month == 1 ? 1 : 0)
 4269              		.loc 1 638 20 view .LVU1275
 4270 011c FFF7FEFF 		bl	lv_calendar_get_day_of_week
 4271              	.LVL467:
ARM GAS  D:\Temp\cclvo1nc.s 			page 126


 4272 0120 0546     		mov	r5, r0
 4273              	.LVL468:
 638:lvgl/src/lv_widgets/lv_calendar.c ****             ext->pressed_date.year  = ext->showed_date.year - (ext->showed_date.month == 1 ? 1 : 0)
 4274              		.loc 1 638 11 view .LVU1276
 4275 0122 A042     		cmp	r0, r4
 4276 0124 1CD9     		bls	.L253
 639:lvgl/src/lv_widgets/lv_calendar.c ****             ext->pressed_date.month = ext->showed_date.month == 1 ? 12 : (ext->showed_date.month - 
 4277              		.loc 1 639 13 is_stmt 1 view .LVU1277
 639:lvgl/src/lv_widgets/lv_calendar.c ****             ext->pressed_date.month = ext->showed_date.month == 1 ? 12 : (ext->showed_date.month - 
 4278              		.loc 1 639 96 is_stmt 0 view .LVU1278
 4279 0126 012E     		cmp	r6, #1
 4280 0128 0CBF     		ite	eq
 4281 012a 0120     		moveq	r0, #1
 4282 012c 0020     		movne	r0, #0
 639:lvgl/src/lv_widgets/lv_calendar.c ****             ext->pressed_date.month = ext->showed_date.month == 1 ? 12 : (ext->showed_date.month - 
 4283              		.loc 1 639 61 view .LVU1279
 4284 012e A9EB0000 		sub	r0, r9, r0
 4285 0132 80B2     		uxth	r0, r0
 639:lvgl/src/lv_widgets/lv_calendar.c ****             ext->pressed_date.month = ext->showed_date.month == 1 ? 12 : (ext->showed_date.month - 
 4286              		.loc 1 639 37 view .LVU1280
 4287 0134 A8F81000 		strh	r0, [r8, #16]	@ movhi
 640:lvgl/src/lv_widgets/lv_calendar.c ****             ext->pressed_date.day   = get_month_length(ext->pressed_date.year, ext->pressed_date.mo
 4288              		.loc 1 640 13 is_stmt 1 view .LVU1281
 640:lvgl/src/lv_widgets/lv_calendar.c ****             ext->pressed_date.day   = get_month_length(ext->pressed_date.year, ext->pressed_date.mo
 4289              		.loc 1 640 37 is_stmt 0 view .LVU1282
 4290 0138 10D0     		beq	.L260
 640:lvgl/src/lv_widgets/lv_calendar.c ****             ext->pressed_date.day   = get_month_length(ext->pressed_date.year, ext->pressed_date.mo
 4291              		.loc 1 640 91 discriminator 1 view .LVU1283
 4292 013a F1B2     		uxtb	r1, r6
 640:lvgl/src/lv_widgets/lv_calendar.c ****             ext->pressed_date.day   = get_month_length(ext->pressed_date.year, ext->pressed_date.mo
 4293              		.loc 1 640 98 discriminator 1 view .LVU1284
 4294 013c 0139     		subs	r1, r1, #1
 640:lvgl/src/lv_widgets/lv_calendar.c ****             ext->pressed_date.day   = get_month_length(ext->pressed_date.year, ext->pressed_date.mo
 4295              		.loc 1 640 37 discriminator 1 view .LVU1285
 4296 013e 49B2     		sxtb	r1, r1
 4297              	.L254:
 640:lvgl/src/lv_widgets/lv_calendar.c ****             ext->pressed_date.day   = get_month_length(ext->pressed_date.year, ext->pressed_date.mo
 4298              		.loc 1 640 37 discriminator 4 view .LVU1286
 4299 0140 88F81210 		strb	r1, [r8, #18]
 641:lvgl/src/lv_widgets/lv_calendar.c ****                                       lv_calendar_get_day_of_week(ext->showed_date.year, ext->showe
 4300              		.loc 1 641 13 is_stmt 1 discriminator 4 view .LVU1287
 641:lvgl/src/lv_widgets/lv_calendar.c ****                                       lv_calendar_get_day_of_week(ext->showed_date.year, ext->showe
 4301              		.loc 1 641 39 is_stmt 0 discriminator 4 view .LVU1288
 4302 0144 FFF7FEFF 		bl	get_month_length
 4303              	.LVL469:
 641:lvgl/src/lv_widgets/lv_calendar.c ****                                       lv_calendar_get_day_of_week(ext->showed_date.year, ext->showe
 4304              		.loc 1 641 105 discriminator 4 view .LVU1289
 4305 0148 401B     		subs	r0, r0, r5
 642:lvgl/src/lv_widgets/lv_calendar.c ****         }
 4306              		.loc 1 642 121 discriminator 4 view .LVU1290
 4307 014a 54FA80F4 		uxtab	r4, r4, r0
 4308              	.LVL470:
 642:lvgl/src/lv_widgets/lv_calendar.c ****         }
 4309              		.loc 1 642 121 discriminator 4 view .LVU1291
 4310 014e 0134     		adds	r4, r4, #1
 641:lvgl/src/lv_widgets/lv_calendar.c ****                                       lv_calendar_get_day_of_week(ext->showed_date.year, ext->showe
 4311              		.loc 1 641 37 discriminator 4 view .LVU1292
ARM GAS  D:\Temp\cclvo1nc.s 			page 127


 4312 0150 88F81340 		strb	r4, [r8, #19]
 4313              	.LVL471:
 4314              	.L250:
 641:lvgl/src/lv_widgets/lv_calendar.c ****                                       lv_calendar_get_day_of_week(ext->showed_date.year, ext->showe
 4315              		.loc 1 641 37 discriminator 4 view .LVU1293
 4316              	.LBE201:
 661:lvgl/src/lv_widgets/lv_calendar.c **** 
 4317              		.loc 1 661 1 view .LVU1294
 4318 0154 3846     		mov	r0, r7
 4319 0156 03B0     		add	sp, sp, #12
 4320              	.LCFI36:
 4321              		.cfi_remember_state
 4322              		.cfi_def_cfa_offset 28
 4323              		@ sp needed
 4324 0158 BDE8F083 		pop	{r4, r5, r6, r7, r8, r9, pc}
 4325              	.LVL472:
 4326              	.L260:
 4327              	.LCFI37:
 4328              		.cfi_restore_state
 4329              	.LBB202:
 640:lvgl/src/lv_widgets/lv_calendar.c ****             ext->pressed_date.day   = get_month_length(ext->pressed_date.year, ext->pressed_date.mo
 4330              		.loc 1 640 37 view .LVU1295
 4331 015c 0C21     		movs	r1, #12
 4332 015e EFE7     		b	.L254
 4333              	.L253:
 644:lvgl/src/lv_widgets/lv_calendar.c ****                          get_month_length(ext->showed_date.year, ext->showed_date.month))) {
 4334              		.loc 1 644 14 is_stmt 1 view .LVU1296
 645:lvgl/src/lv_widgets/lv_calendar.c ****             ext->pressed_date.year  = ext->showed_date.year;
 4335              		.loc 1 645 26 is_stmt 0 view .LVU1297
 4336 0160 3146     		mov	r1, r6
 4337 0162 4846     		mov	r0, r9
 4338 0164 FFF7FEFF 		bl	get_month_length
 4339              	.LVL473:
 644:lvgl/src/lv_widgets/lv_calendar.c ****                          get_month_length(ext->showed_date.year, ext->showed_date.month))) {
 4340              		.loc 1 644 104 view .LVU1298
 4341 0168 2B18     		adds	r3, r5, r0
 644:lvgl/src/lv_widgets/lv_calendar.c ****                          get_month_length(ext->showed_date.year, ext->showed_date.month))) {
 4342              		.loc 1 644 16 view .LVU1299
 4343 016a 9C42     		cmp	r4, r3
 4344 016c 08DA     		bge	.L256
 646:lvgl/src/lv_widgets/lv_calendar.c ****             ext->pressed_date.month = ext->showed_date.month;
 4345              		.loc 1 646 13 is_stmt 1 view .LVU1300
 646:lvgl/src/lv_widgets/lv_calendar.c ****             ext->pressed_date.month = ext->showed_date.month;
 4346              		.loc 1 646 37 is_stmt 0 view .LVU1301
 4347 016e A8F81090 		strh	r9, [r8, #16]	@ movhi
 647:lvgl/src/lv_widgets/lv_calendar.c ****             ext->pressed_date.day   = i_pos + 1 - lv_calendar_get_day_of_week(ext->showed_date.year
 4348              		.loc 1 647 13 is_stmt 1 view .LVU1302
 647:lvgl/src/lv_widgets/lv_calendar.c ****             ext->pressed_date.day   = i_pos + 1 - lv_calendar_get_day_of_week(ext->showed_date.year
 4349              		.loc 1 647 37 is_stmt 0 view .LVU1303
 4350 0172 88F81260 		strb	r6, [r8, #18]
 648:lvgl/src/lv_widgets/lv_calendar.c ****         }
 4351              		.loc 1 648 13 is_stmt 1 view .LVU1304
 648:lvgl/src/lv_widgets/lv_calendar.c ****         }
 4352              		.loc 1 648 49 is_stmt 0 view .LVU1305
 4353 0176 631B     		subs	r3, r4, r5
 4354 0178 0133     		adds	r3, r3, #1
 648:lvgl/src/lv_widgets/lv_calendar.c ****         }
ARM GAS  D:\Temp\cclvo1nc.s 			page 128


 4355              		.loc 1 648 37 view .LVU1306
 4356 017a 88F81330 		strb	r3, [r8, #19]
 4357 017e E9E7     		b	.L250
 4358              	.L256:
 650:lvgl/src/lv_widgets/lv_calendar.c ****             ext->pressed_date.year  = ext->showed_date.year + (ext->showed_date.month == 12 ? 1 : 0
 4359              		.loc 1 650 14 is_stmt 1 view .LVU1307
 650:lvgl/src/lv_widgets/lv_calendar.c ****             ext->pressed_date.year  = ext->showed_date.year + (ext->showed_date.month == 12 ? 1 : 0
 4360              		.loc 1 650 16 is_stmt 0 view .LVU1308
 4361 0180 292C     		cmp	r4, #41
 4362 0182 E7D8     		bhi	.L250
 651:lvgl/src/lv_widgets/lv_calendar.c ****             ext->pressed_date.month = ext->showed_date.month == 12 ? 1 : (ext->showed_date.month + 
 4363              		.loc 1 651 13 is_stmt 1 view .LVU1309
 651:lvgl/src/lv_widgets/lv_calendar.c ****             ext->pressed_date.month = ext->showed_date.month == 12 ? 1 : (ext->showed_date.month + 
 4364              		.loc 1 651 97 is_stmt 0 view .LVU1310
 4365 0184 0C2E     		cmp	r6, #12
 4366 0186 0CBF     		ite	eq
 4367 0188 0123     		moveq	r3, #1
 4368 018a 0023     		movne	r3, #0
 651:lvgl/src/lv_widgets/lv_calendar.c ****             ext->pressed_date.month = ext->showed_date.month == 12 ? 1 : (ext->showed_date.month + 
 4369              		.loc 1 651 61 view .LVU1311
 4370 018c 9944     		add	r9, r9, r3
 651:lvgl/src/lv_widgets/lv_calendar.c ****             ext->pressed_date.month = ext->showed_date.month == 12 ? 1 : (ext->showed_date.month + 
 4371              		.loc 1 651 37 view .LVU1312
 4372 018e A8F81090 		strh	r9, [r8, #16]	@ movhi
 652:lvgl/src/lv_widgets/lv_calendar.c ****             ext->pressed_date.day   = i_pos + 1 - lv_calendar_get_day_of_week(ext->showed_date.year
 4373              		.loc 1 652 13 is_stmt 1 view .LVU1313
 652:lvgl/src/lv_widgets/lv_calendar.c ****             ext->pressed_date.day   = i_pos + 1 - lv_calendar_get_day_of_week(ext->showed_date.year
 4374              		.loc 1 652 37 is_stmt 0 view .LVU1314
 4375 0192 0BD0     		beq	.L261
 652:lvgl/src/lv_widgets/lv_calendar.c ****             ext->pressed_date.day   = i_pos + 1 - lv_calendar_get_day_of_week(ext->showed_date.year
 4376              		.loc 1 652 91 discriminator 1 view .LVU1315
 4377 0194 F3B2     		uxtb	r3, r6
 652:lvgl/src/lv_widgets/lv_calendar.c ****             ext->pressed_date.day   = i_pos + 1 - lv_calendar_get_day_of_week(ext->showed_date.year
 4378              		.loc 1 652 98 discriminator 1 view .LVU1316
 4379 0196 0133     		adds	r3, r3, #1
 652:lvgl/src/lv_widgets/lv_calendar.c ****             ext->pressed_date.day   = i_pos + 1 - lv_calendar_get_day_of_week(ext->showed_date.year
 4380              		.loc 1 652 37 discriminator 1 view .LVU1317
 4381 0198 5BB2     		sxtb	r3, r3
 4382              	.L257:
 652:lvgl/src/lv_widgets/lv_calendar.c ****             ext->pressed_date.day   = i_pos + 1 - lv_calendar_get_day_of_week(ext->showed_date.year
 4383              		.loc 1 652 37 discriminator 4 view .LVU1318
 4384 019a 88F81230 		strb	r3, [r8, #18]
 653:lvgl/src/lv_widgets/lv_calendar.c ****                                       get_month_length(ext->showed_date.year, ext->showed_date.mont
 4385              		.loc 1 653 13 is_stmt 1 discriminator 4 view .LVU1319
 653:lvgl/src/lv_widgets/lv_calendar.c ****                                       get_month_length(ext->showed_date.year, ext->showed_date.mont
 4386              		.loc 1 653 49 is_stmt 0 discriminator 4 view .LVU1320
 4387 019e 631B     		subs	r3, r4, r5
 4388 01a0 DBB2     		uxtb	r3, r3
 653:lvgl/src/lv_widgets/lv_calendar.c ****                                       get_month_length(ext->showed_date.year, ext->showed_date.mont
 4389              		.loc 1 653 129 discriminator 4 view .LVU1321
 4390 01a2 1B1A     		subs	r3, r3, r0
 4391 01a4 0133     		adds	r3, r3, #1
 653:lvgl/src/lv_widgets/lv_calendar.c ****                                       get_month_length(ext->showed_date.year, ext->showed_date.mont
 4392              		.loc 1 653 37 discriminator 4 view .LVU1322
 4393 01a6 88F81330 		strb	r3, [r8, #19]
 656:lvgl/src/lv_widgets/lv_calendar.c ****     }
 4394              		.loc 1 656 9 is_stmt 1 discriminator 4 view .LVU1323
ARM GAS  D:\Temp\cclvo1nc.s 			page 129


 656:lvgl/src/lv_widgets/lv_calendar.c ****     }
 4395              		.loc 1 656 16 is_stmt 0 discriminator 4 view .LVU1324
 4396 01aa D3E7     		b	.L250
 4397              	.L261:
 652:lvgl/src/lv_widgets/lv_calendar.c ****             ext->pressed_date.day   = i_pos + 1 - lv_calendar_get_day_of_week(ext->showed_date.year
 4398              		.loc 1 652 37 view .LVU1325
 4399 01ac 0123     		movs	r3, #1
 4400 01ae F4E7     		b	.L257
 4401              	.L265:
 4402              		.align	2
 4403              	.L264:
 4404 01b0 93244992 		.word	-1840700269
 4405 01b4 ABAAAA2A 		.word	715827883
 4406              	.LBE202:
 4407              		.cfi_endproc
 4408              	.LFE475:
 4410              		.section	.text.lv_calendar_signal,"ax",%progbits
 4411              		.align	1
 4412              		.syntax unified
 4413              		.thumb
 4414              		.thumb_func
 4415              		.fpu fpv4-sp-d16
 4417              	lv_calendar_signal:
 4418              	.LVL474:
 4419              	.LFB473:
 440:lvgl/src/lv_widgets/lv_calendar.c ****     lv_res_t res;
 4420              		.loc 1 440 1 is_stmt 1 view -0
 4421              		.cfi_startproc
 4422              		@ args = 0, pretend = 0, frame = 16
 4423              		@ frame_needed = 0, uses_anonymous_args = 0
 440:lvgl/src/lv_widgets/lv_calendar.c ****     lv_res_t res;
 4424              		.loc 1 440 1 is_stmt 0 view .LVU1327
 4425 0000 F0B5     		push	{r4, r5, r6, r7, lr}
 4426              	.LCFI38:
 4427              		.cfi_def_cfa_offset 20
 4428              		.cfi_offset 4, -20
 4429              		.cfi_offset 5, -16
 4430              		.cfi_offset 6, -12
 4431              		.cfi_offset 7, -8
 4432              		.cfi_offset 14, -4
 4433 0002 85B0     		sub	sp, sp, #20
 4434              	.LCFI39:
 4435              		.cfi_def_cfa_offset 40
 4436 0004 0646     		mov	r6, r0
 4437 0006 0C46     		mov	r4, r1
 4438 0008 1746     		mov	r7, r2
 441:lvgl/src/lv_widgets/lv_calendar.c ****     if(sign == LV_SIGNAL_GET_STYLE) {
 4439              		.loc 1 441 5 is_stmt 1 view .LVU1328
 442:lvgl/src/lv_widgets/lv_calendar.c ****         lv_get_style_info_t * info = param;
 4440              		.loc 1 442 5 view .LVU1329
 442:lvgl/src/lv_widgets/lv_calendar.c ****         lv_get_style_info_t * info = param;
 4441              		.loc 1 442 7 is_stmt 0 view .LVU1330
 4442 000a 0829     		cmp	r1, #8
 4443 000c 2CD0     		beq	.L298
 451:lvgl/src/lv_widgets/lv_calendar.c ****     if(res != LV_RES_OK) return res;
 4444              		.loc 1 451 5 is_stmt 1 view .LVU1331
 451:lvgl/src/lv_widgets/lv_calendar.c ****     if(res != LV_RES_OK) return res;
ARM GAS  D:\Temp\cclvo1nc.s 			page 130


 4445              		.loc 1 451 11 is_stmt 0 view .LVU1332
 4446 000e 8A4B     		ldr	r3, .L312
 4447 0010 1B68     		ldr	r3, [r3]
 4448 0012 9847     		blx	r3
 4449              	.LVL475:
 451:lvgl/src/lv_widgets/lv_calendar.c ****     if(res != LV_RES_OK) return res;
 4450              		.loc 1 451 11 view .LVU1333
 4451 0014 0546     		mov	r5, r0
 4452              	.LVL476:
 452:lvgl/src/lv_widgets/lv_calendar.c ****     if(sign == LV_SIGNAL_GET_TYPE) return lv_obj_handle_get_type_signal(param, LV_OBJX_NAME);
 4453              		.loc 1 452 5 is_stmt 1 view .LVU1334
 452:lvgl/src/lv_widgets/lv_calendar.c ****     if(sign == LV_SIGNAL_GET_TYPE) return lv_obj_handle_get_type_signal(param, LV_OBJX_NAME);
 4454              		.loc 1 452 7 is_stmt 0 view .LVU1335
 4455 0016 0128     		cmp	r0, #1
 4456 0018 2CD1     		bne	.L268
 453:lvgl/src/lv_widgets/lv_calendar.c **** 
 4457              		.loc 1 453 5 is_stmt 1 view .LVU1336
 453:lvgl/src/lv_widgets/lv_calendar.c **** 
 4458              		.loc 1 453 7 is_stmt 0 view .LVU1337
 4459 001a 072C     		cmp	r4, #7
 4460 001c 35D0     		beq	.L299
 455:lvgl/src/lv_widgets/lv_calendar.c ****         lv_obj_clean_style_list(calendar, LV_CALENDAR_PART_HEADER);
 4461              		.loc 1 455 5 is_stmt 1 view .LVU1338
 455:lvgl/src/lv_widgets/lv_calendar.c ****         lv_obj_clean_style_list(calendar, LV_CALENDAR_PART_HEADER);
 4462              		.loc 1 455 7 is_stmt 0 view .LVU1339
 4463 001e 002C     		cmp	r4, #0
 4464 0020 39D0     		beq	.L300
 460:lvgl/src/lv_widgets/lv_calendar.c ****         lv_calendar_ext_t * ext = lv_obj_get_ext_attr(calendar);
 4465              		.loc 1 460 10 is_stmt 1 view .LVU1340
 460:lvgl/src/lv_widgets/lv_calendar.c ****         lv_calendar_ext_t * ext = lv_obj_get_ext_attr(calendar);
 4466              		.loc 1 460 12 is_stmt 0 view .LVU1341
 4467 0022 0C2C     		cmp	r4, #12
 4468 0024 44D0     		beq	.L301
 499:lvgl/src/lv_widgets/lv_calendar.c ****         lv_calendar_ext_t * ext = lv_obj_get_ext_attr(calendar);
 4469              		.loc 1 499 10 is_stmt 1 view .LVU1342
 499:lvgl/src/lv_widgets/lv_calendar.c ****         lv_calendar_ext_t * ext = lv_obj_get_ext_attr(calendar);
 4470              		.loc 1 499 12 is_stmt 0 view .LVU1343
 4471 0026 0D2C     		cmp	r4, #13
 4472 0028 00F0AA80 		beq	.L302
 508:lvgl/src/lv_widgets/lv_calendar.c ****         lv_calendar_ext_t * ext = lv_obj_get_ext_attr(calendar);
 4473              		.loc 1 508 10 is_stmt 1 view .LVU1344
 508:lvgl/src/lv_widgets/lv_calendar.c ****         lv_calendar_ext_t * ext = lv_obj_get_ext_attr(calendar);
 4474              		.loc 1 508 12 is_stmt 0 view .LVU1345
 4475 002c 0E2C     		cmp	r4, #14
 4476 002e 00F0B380 		beq	.L303
 540:lvgl/src/lv_widgets/lv_calendar.c **** #if LV_USE_GROUP
 4477              		.loc 1 540 10 is_stmt 1 view .LVU1346
 540:lvgl/src/lv_widgets/lv_calendar.c **** #if LV_USE_GROUP
 4478              		.loc 1 540 12 is_stmt 0 view .LVU1347
 4479 0032 182C     		cmp	r4, #24
 4480 0034 1ED1     		bne	.L268
 4481              	.LBB203:
 542:lvgl/src/lv_widgets/lv_calendar.c ****         lv_calendar_ext_t * ext = lv_obj_get_ext_attr(calendar);
 4482              		.loc 1 542 9 is_stmt 1 view .LVU1348
 542:lvgl/src/lv_widgets/lv_calendar.c ****         lv_calendar_ext_t * ext = lv_obj_get_ext_attr(calendar);
 4483              		.loc 1 542 17 is_stmt 0 view .LVU1349
 4484 0036 3C78     		ldrb	r4, [r7]	@ zero_extendqisi2
ARM GAS  D:\Temp\cclvo1nc.s 			page 131


 4485              	.LVL477:
 543:lvgl/src/lv_widgets/lv_calendar.c ****         if(c == LV_KEY_RIGHT || c == LV_KEY_UP) {
 4486              		.loc 1 543 9 is_stmt 1 view .LVU1350
 543:lvgl/src/lv_widgets/lv_calendar.c ****         if(c == LV_KEY_RIGHT || c == LV_KEY_UP) {
 4487              		.loc 1 543 35 is_stmt 0 view .LVU1351
 4488 0038 3046     		mov	r0, r6
 4489              	.LVL478:
 543:lvgl/src/lv_widgets/lv_calendar.c ****         if(c == LV_KEY_RIGHT || c == LV_KEY_UP) {
 4490              		.loc 1 543 35 view .LVU1352
 4491 003a FFF7FEFF 		bl	lv_obj_get_ext_attr
 4492              	.LVL479:
 544:lvgl/src/lv_widgets/lv_calendar.c ****             if(ext->showed_date.month >= 12) {
 4493              		.loc 1 544 9 is_stmt 1 view .LVU1353
 544:lvgl/src/lv_widgets/lv_calendar.c ****             if(ext->showed_date.month >= 12) {
 4494              		.loc 1 544 11 is_stmt 0 view .LVU1354
 4495 003e 132C     		cmp	r4, #19
 4496 0040 00F0E380 		beq	.L289
 544:lvgl/src/lv_widgets/lv_calendar.c ****             if(ext->showed_date.month >= 12) {
 4497              		.loc 1 544 30 discriminator 1 view .LVU1355
 4498 0044 112C     		cmp	r4, #17
 4499 0046 00F0E080 		beq	.L289
 554:lvgl/src/lv_widgets/lv_calendar.c ****             if(ext->showed_date.month <= 1) {
 4500              		.loc 1 554 14 is_stmt 1 view .LVU1356
 554:lvgl/src/lv_widgets/lv_calendar.c ****             if(ext->showed_date.month <= 1) {
 4501              		.loc 1 554 16 is_stmt 0 view .LVU1357
 4502 004a 142C     		cmp	r4, #20
 4503 004c 01D0     		beq	.L293
 554:lvgl/src/lv_widgets/lv_calendar.c ****             if(ext->showed_date.month <= 1) {
 4504              		.loc 1 554 34 discriminator 1 view .LVU1358
 4505 004e 122C     		cmp	r4, #18
 4506 0050 10D1     		bne	.L268
 4507              	.L293:
 555:lvgl/src/lv_widgets/lv_calendar.c ****                 ext->showed_date.month = 12;
 4508              		.loc 1 555 13 is_stmt 1 view .LVU1359
 555:lvgl/src/lv_widgets/lv_calendar.c ****                 ext->showed_date.month = 12;
 4509              		.loc 1 555 32 is_stmt 0 view .LVU1360
 4510 0052 90F90630 		ldrsb	r3, [r0, #6]
 555:lvgl/src/lv_widgets/lv_calendar.c ****                 ext->showed_date.month = 12;
 4511              		.loc 1 555 15 view .LVU1361
 4512 0056 012B     		cmp	r3, #1
 4513 0058 40F3E780 		ble	.L304
 560:lvgl/src/lv_widgets/lv_calendar.c ****             }
 4514              		.loc 1 560 17 is_stmt 1 view .LVU1362
 560:lvgl/src/lv_widgets/lv_calendar.c ****             }
 4515              		.loc 1 560 39 is_stmt 0 view .LVU1363
 4516 005c 013B     		subs	r3, r3, #1
 4517 005e 8371     		strb	r3, [r0, #6]
 4518              	.L295:
 562:lvgl/src/lv_widgets/lv_calendar.c ****         }
 4519              		.loc 1 562 13 is_stmt 1 view .LVU1364
 4520 0060 3046     		mov	r0, r6
 4521              	.LVL480:
 562:lvgl/src/lv_widgets/lv_calendar.c ****         }
 4522              		.loc 1 562 13 is_stmt 0 view .LVU1365
 4523 0062 FFF7FEFF 		bl	lv_obj_invalidate
 4524              	.LVL481:
 4525 0066 05E0     		b	.L268
ARM GAS  D:\Temp\cclvo1nc.s 			page 132


 4526              	.LVL482:
 4527              	.L298:
 562:lvgl/src/lv_widgets/lv_calendar.c ****         }
 4528              		.loc 1 562 13 view .LVU1366
 4529              	.LBE203:
 4530              	.LBB204:
 443:lvgl/src/lv_widgets/lv_calendar.c ****         info->result = lv_calendar_get_style(calendar, info->part);
 4531              		.loc 1 443 9 is_stmt 1 view .LVU1367
 444:lvgl/src/lv_widgets/lv_calendar.c ****         if(info->result != NULL) return LV_RES_OK;
 4532              		.loc 1 444 9 view .LVU1368
 444:lvgl/src/lv_widgets/lv_calendar.c ****         if(info->result != NULL) return LV_RES_OK;
 4533              		.loc 1 444 24 is_stmt 0 view .LVU1369
 4534 0068 1178     		ldrb	r1, [r2]	@ zero_extendqisi2
 4535              	.LVL483:
 444:lvgl/src/lv_widgets/lv_calendar.c ****         if(info->result != NULL) return LV_RES_OK;
 4536              		.loc 1 444 24 view .LVU1370
 4537 006a FFF7FEFF 		bl	lv_calendar_get_style
 4538              	.LVL484:
 444:lvgl/src/lv_widgets/lv_calendar.c ****         if(info->result != NULL) return LV_RES_OK;
 4539              		.loc 1 444 22 view .LVU1371
 4540 006e 7860     		str	r0, [r7, #4]
 445:lvgl/src/lv_widgets/lv_calendar.c ****         else return ancestor_signal(calendar, sign, param);
 4541              		.loc 1 445 9 is_stmt 1 view .LVU1372
 445:lvgl/src/lv_widgets/lv_calendar.c ****         else return ancestor_signal(calendar, sign, param);
 4542              		.loc 1 445 11 is_stmt 0 view .LVU1373
 4543 0070 18B1     		cbz	r0, .L305
 445:lvgl/src/lv_widgets/lv_calendar.c ****         else return ancestor_signal(calendar, sign, param);
 4544              		.loc 1 445 41 view .LVU1374
 4545 0072 0125     		movs	r5, #1
 4546              	.LVL485:
 4547              	.L268:
 445:lvgl/src/lv_widgets/lv_calendar.c ****         else return ancestor_signal(calendar, sign, param);
 4548              		.loc 1 445 41 view .LVU1375
 4549              	.LBE204:
 568:lvgl/src/lv_widgets/lv_calendar.c **** 
 4550              		.loc 1 568 1 view .LVU1376
 4551 0074 2846     		mov	r0, r5
 4552 0076 05B0     		add	sp, sp, #20
 4553              	.LCFI40:
 4554              		.cfi_remember_state
 4555              		.cfi_def_cfa_offset 20
 4556              		@ sp needed
 4557 0078 F0BD     		pop	{r4, r5, r6, r7, pc}
 4558              	.LVL486:
 4559              	.L305:
 4560              	.LCFI41:
 4561              		.cfi_restore_state
 4562              	.LBB205:
 446:lvgl/src/lv_widgets/lv_calendar.c ****         return LV_RES_OK;
 4563              		.loc 1 446 14 is_stmt 1 view .LVU1377
 446:lvgl/src/lv_widgets/lv_calendar.c ****         return LV_RES_OK;
 4564              		.loc 1 446 21 is_stmt 0 view .LVU1378
 4565 007a 6F4B     		ldr	r3, .L312
 4566 007c 1B68     		ldr	r3, [r3]
 4567 007e 3A46     		mov	r2, r7
 4568 0080 2146     		mov	r1, r4
 4569 0082 3046     		mov	r0, r6
ARM GAS  D:\Temp\cclvo1nc.s 			page 133


 4570 0084 9847     		blx	r3
 4571              	.LVL487:
 4572 0086 0546     		mov	r5, r0
 4573 0088 F4E7     		b	.L268
 4574              	.LVL488:
 4575              	.L299:
 446:lvgl/src/lv_widgets/lv_calendar.c ****         return LV_RES_OK;
 4576              		.loc 1 446 21 view .LVU1379
 4577              	.LBE205:
 453:lvgl/src/lv_widgets/lv_calendar.c **** 
 4578              		.loc 1 453 36 is_stmt 1 discriminator 1 view .LVU1380
 453:lvgl/src/lv_widgets/lv_calendar.c **** 
 4579              		.loc 1 453 43 is_stmt 0 discriminator 1 view .LVU1381
 4580 008a 6C49     		ldr	r1, .L312+4
 4581 008c 3846     		mov	r0, r7
 4582              	.LVL489:
 453:lvgl/src/lv_widgets/lv_calendar.c **** 
 4583              		.loc 1 453 43 discriminator 1 view .LVU1382
 4584 008e FFF7FEFF 		bl	lv_obj_handle_get_type_signal
 4585              	.LVL490:
 4586 0092 0546     		mov	r5, r0
 4587 0094 EEE7     		b	.L268
 4588              	.LVL491:
 4589              	.L300:
 456:lvgl/src/lv_widgets/lv_calendar.c ****         lv_obj_clean_style_list(calendar, LV_CALENDAR_PART_DAY_NAMES);
 4590              		.loc 1 456 9 is_stmt 1 view .LVU1383
 4591 0096 0121     		movs	r1, #1
 4592 0098 3046     		mov	r0, r6
 4593              	.LVL492:
 456:lvgl/src/lv_widgets/lv_calendar.c ****         lv_obj_clean_style_list(calendar, LV_CALENDAR_PART_DAY_NAMES);
 4594              		.loc 1 456 9 is_stmt 0 view .LVU1384
 4595 009a FFF7FEFF 		bl	lv_obj_clean_style_list
 4596              	.LVL493:
 457:lvgl/src/lv_widgets/lv_calendar.c ****         lv_obj_clean_style_list(calendar, LV_CALENDAR_PART_DATE);
 4597              		.loc 1 457 9 is_stmt 1 view .LVU1385
 4598 009e 0221     		movs	r1, #2
 4599 00a0 3046     		mov	r0, r6
 4600 00a2 FFF7FEFF 		bl	lv_obj_clean_style_list
 4601              	.LVL494:
 458:lvgl/src/lv_widgets/lv_calendar.c ****     }
 4602              		.loc 1 458 9 view .LVU1386
 4603 00a6 0321     		movs	r1, #3
 4604 00a8 3046     		mov	r0, r6
 4605 00aa FFF7FEFF 		bl	lv_obj_clean_style_list
 4606              	.LVL495:
 4607 00ae E1E7     		b	.L268
 4608              	.LVL496:
 4609              	.L301:
 4610              	.LBB206:
 461:lvgl/src/lv_widgets/lv_calendar.c ****         lv_area_t header_area;
 4611              		.loc 1 461 9 view .LVU1387
 461:lvgl/src/lv_widgets/lv_calendar.c ****         lv_area_t header_area;
 4612              		.loc 1 461 35 is_stmt 0 view .LVU1388
 4613 00b0 3046     		mov	r0, r6
 4614              	.LVL497:
 461:lvgl/src/lv_widgets/lv_calendar.c ****         lv_area_t header_area;
 4615              		.loc 1 461 35 view .LVU1389
ARM GAS  D:\Temp\cclvo1nc.s 			page 134


 4616 00b2 FFF7FEFF 		bl	lv_obj_get_ext_attr
 4617              	.LVL498:
 4618 00b6 0446     		mov	r4, r0
 4619              	.LVL499:
 462:lvgl/src/lv_widgets/lv_calendar.c ****         lv_area_copy(&header_area, &calendar->coords);
 4620              		.loc 1 462 9 is_stmt 1 view .LVU1390
 463:lvgl/src/lv_widgets/lv_calendar.c ****         header_area.y2 = header_area.y1 + get_header_height(calendar);
 4621              		.loc 1 463 9 view .LVU1391
 463:lvgl/src/lv_widgets/lv_calendar.c ****         header_area.y2 = header_area.y1 + get_header_height(calendar);
 4622              		.loc 1 463 36 is_stmt 0 view .LVU1392
 4623 00b8 06F11001 		add	r1, r6, #16
 4624              	.LVL500:
 4625              	.LBB207:
 4626              	.LBI207:
  97:d:\_project\stm32\f407\hack_rf_new\lvgl\src\lv_misc\lv_area.h **** {
 4627              		.loc 4 97 20 is_stmt 1 view .LVU1393
 4628              	.LBE207:
 4629              	.LBE206:
  99:d:\_project\stm32\f407\hack_rf_new\lvgl\src\lv_misc\lv_area.h **** }
 4630              		.loc 4 99 5 view .LVU1394
 4631              	.LBB216:
 4632              	.LBB212:
 4633              	.LBB208:
 4634              	.LBI208:
 213:d:\_project\stm32\f407\hack_rf_new\lvgl\src\lv_misc\lv_mem.h **** {
 4635              		.loc 5 213 44 view .LVU1395
 4636              	.LBB209:
 215:d:\_project\stm32\f407\hack_rf_new\lvgl\src\lv_misc\lv_mem.h ****     const uint8_t * s8 = (const uint8_t *)src;
 4637              		.loc 5 215 5 view .LVU1396
 216:d:\_project\stm32\f407\hack_rf_new\lvgl\src\lv_misc\lv_mem.h **** 
 4638              		.loc 5 216 5 view .LVU1397
 218:d:\_project\stm32\f407\hack_rf_new\lvgl\src\lv_misc\lv_mem.h ****         *d8 = *s8;
 4639              		.loc 5 218 5 view .LVU1398
 215:d:\_project\stm32\f407\hack_rf_new\lvgl\src\lv_misc\lv_mem.h ****     const uint8_t * s8 = (const uint8_t *)src;
 4640              		.loc 5 215 15 is_stmt 0 view .LVU1399
 4641 00bc 02AA     		add	r2, sp, #8
 4642              	.LVL501:
 215:d:\_project\stm32\f407\hack_rf_new\lvgl\src\lv_misc\lv_mem.h ****     const uint8_t * s8 = (const uint8_t *)src;
 4643              		.loc 5 215 15 view .LVU1400
 4644              	.LBE209:
 4645              	.LBE208:
 4646              	.LBE212:
 463:lvgl/src/lv_widgets/lv_calendar.c ****         header_area.y2 = header_area.y1 + get_header_height(calendar);
 4647              		.loc 1 463 36 view .LVU1401
 4648 00be 0823     		movs	r3, #8
 4649 00c0 04E0     		b	.L272
 4650              	.LVL502:
 4651              	.L273:
 4652              	.LBB213:
 4653              	.LBB211:
 4654              	.LBB210:
 219:d:\_project\stm32\f407\hack_rf_new\lvgl\src\lv_misc\lv_mem.h ****         d8++;
 4655              		.loc 5 219 9 is_stmt 1 view .LVU1402
 219:d:\_project\stm32\f407\hack_rf_new\lvgl\src\lv_misc\lv_mem.h ****         d8++;
 4656              		.loc 5 219 15 is_stmt 0 view .LVU1403
 4657 00c2 11F8010B 		ldrb	r0, [r1], #1	@ zero_extendqisi2
 4658              	.LVL503:
ARM GAS  D:\Temp\cclvo1nc.s 			page 135


 219:d:\_project\stm32\f407\hack_rf_new\lvgl\src\lv_misc\lv_mem.h ****         d8++;
 4659              		.loc 5 219 13 view .LVU1404
 4660 00c6 02F8010B 		strb	r0, [r2], #1
 4661              	.LVL504:
 220:d:\_project\stm32\f407\hack_rf_new\lvgl\src\lv_misc\lv_mem.h ****         s8++;
 4662              		.loc 5 220 9 is_stmt 1 view .LVU1405
 221:d:\_project\stm32\f407\hack_rf_new\lvgl\src\lv_misc\lv_mem.h ****         len--;
 4663              		.loc 5 221 9 view .LVU1406
 222:d:\_project\stm32\f407\hack_rf_new\lvgl\src\lv_misc\lv_mem.h ****     }
 4664              		.loc 5 222 9 view .LVU1407
 222:d:\_project\stm32\f407\hack_rf_new\lvgl\src\lv_misc\lv_mem.h ****     }
 4665              		.loc 5 222 12 is_stmt 0 view .LVU1408
 4666 00ca 013B     		subs	r3, r3, #1
 4667              	.LVL505:
 4668              	.L272:
 218:d:\_project\stm32\f407\hack_rf_new\lvgl\src\lv_misc\lv_mem.h ****         *d8 = *s8;
 4669              		.loc 5 218 10 view .LVU1409
 4670 00cc 002B     		cmp	r3, #0
 4671 00ce F8D1     		bne	.L273
 4672              		.loc 5 225 5 is_stmt 1 view .LVU1410
 4673              	.LVL506:
 4674              		.loc 5 225 5 is_stmt 0 view .LVU1411
 4675              	.LBE210:
 4676              	.LBE211:
 4677              	.LBE213:
 464:lvgl/src/lv_widgets/lv_calendar.c **** 
 4678              		.loc 1 464 9 is_stmt 1 view .LVU1412
 464:lvgl/src/lv_widgets/lv_calendar.c **** 
 4679              		.loc 1 464 37 is_stmt 0 view .LVU1413
 4680 00d0 BDF80A70 		ldrh	r7, [sp, #10]
 4681              	.LVL507:
 464:lvgl/src/lv_widgets/lv_calendar.c **** 
 4682              		.loc 1 464 43 view .LVU1414
 4683 00d4 3046     		mov	r0, r6
 4684 00d6 FFF7FEFF 		bl	get_header_height
 4685              	.LVL508:
 464:lvgl/src/lv_widgets/lv_calendar.c **** 
 4686              		.loc 1 464 41 view .LVU1415
 4687 00da 17FA80F0 		uxtah	r0, r7, r0
 464:lvgl/src/lv_widgets/lv_calendar.c **** 
 4688              		.loc 1 464 24 view .LVU1416
 4689 00de ADF80E00 		strh	r0, [sp, #14]	@ movhi
 466:lvgl/src/lv_widgets/lv_calendar.c ****         lv_point_t p;
 4690              		.loc 1 466 9 is_stmt 1 view .LVU1417
 466:lvgl/src/lv_widgets/lv_calendar.c ****         lv_point_t p;
 4691              		.loc 1 466 30 is_stmt 0 view .LVU1418
 4692 00e2 FFF7FEFF 		bl	lv_indev_get_act
 4693              	.LVL509:
 467:lvgl/src/lv_widgets/lv_calendar.c ****         lv_indev_get_point(indev, &p);
 4694              		.loc 1 467 9 is_stmt 1 view .LVU1419
 468:lvgl/src/lv_widgets/lv_calendar.c **** 
 4695              		.loc 1 468 9 view .LVU1420
 4696 00e6 01A9     		add	r1, sp, #4
 4697 00e8 FFF7FEFF 		bl	lv_indev_get_point
 4698              	.LVL510:
 471:lvgl/src/lv_widgets/lv_calendar.c ****             if(p.x < header_area.x1 + lv_area_get_width(&header_area) / 2) {
 4699              		.loc 1 471 9 view .LVU1421
ARM GAS  D:\Temp\cclvo1nc.s 			page 136


 471:lvgl/src/lv_widgets/lv_calendar.c ****             if(p.x < header_area.x1 + lv_area_get_width(&header_area) / 2) {
 4700              		.loc 1 471 12 is_stmt 0 view .LVU1422
 4701 00ec 0022     		movs	r2, #0
 4702 00ee 01A9     		add	r1, sp, #4
 4703 00f0 02A8     		add	r0, sp, #8
 4704 00f2 FFF7FEFF 		bl	_lv_area_is_point_on
 4705              	.LVL511:
 471:lvgl/src/lv_widgets/lv_calendar.c ****             if(p.x < header_area.x1 + lv_area_get_width(&header_area) / 2) {
 4706              		.loc 1 471 11 view .LVU1423
 4707 00f6 58B3     		cbz	r0, .L274
 472:lvgl/src/lv_widgets/lv_calendar.c ****                 if(ext->btn_pressing != -1) lv_obj_invalidate(calendar);
 4708              		.loc 1 472 13 is_stmt 1 view .LVU1424
 472:lvgl/src/lv_widgets/lv_calendar.c ****                 if(ext->btn_pressing != -1) lv_obj_invalidate(calendar);
 4709              		.loc 1 472 17 is_stmt 0 view .LVU1425
 4710 00f8 BDF90410 		ldrsh	r1, [sp, #4]
 472:lvgl/src/lv_widgets/lv_calendar.c ****                 if(ext->btn_pressing != -1) lv_obj_invalidate(calendar);
 4711              		.loc 1 472 33 view .LVU1426
 4712 00fc BDF90820 		ldrsh	r2, [sp, #8]
 4713              	.LVL512:
 4714              	.LBB214:
 4715              	.LBI214:
 107:d:\_project\stm32\f407\hack_rf_new\lvgl\src\lv_misc\lv_area.h **** {
 4716              		.loc 4 107 26 is_stmt 1 view .LVU1427
 4717              	.LBB215:
 109:d:\_project\stm32\f407\hack_rf_new\lvgl\src\lv_misc\lv_area.h **** }
 4718              		.loc 4 109 5 view .LVU1428
 109:d:\_project\stm32\f407\hack_rf_new\lvgl\src\lv_misc\lv_area.h **** }
 4719              		.loc 4 109 31 is_stmt 0 view .LVU1429
 4720 0100 BDF80C30 		ldrh	r3, [sp, #12]
 109:d:\_project\stm32\f407\hack_rf_new\lvgl\src\lv_misc\lv_area.h **** }
 4721              		.loc 4 109 44 view .LVU1430
 4722 0104 90B2     		uxth	r0, r2
 109:d:\_project\stm32\f407\hack_rf_new\lvgl\src\lv_misc\lv_area.h **** }
 4723              		.loc 4 109 36 view .LVU1431
 4724 0106 1B1A     		subs	r3, r3, r0
 4725 0108 9BB2     		uxth	r3, r3
 109:d:\_project\stm32\f407\hack_rf_new\lvgl\src\lv_misc\lv_area.h **** }
 4726              		.loc 4 109 49 view .LVU1432
 4727 010a 0133     		adds	r3, r3, #1
 109:d:\_project\stm32\f407\hack_rf_new\lvgl\src\lv_misc\lv_area.h **** }
 4728              		.loc 4 109 12 view .LVU1433
 4729 010c 1BB2     		sxth	r3, r3
 4730              	.LVL513:
 109:d:\_project\stm32\f407\hack_rf_new\lvgl\src\lv_misc\lv_area.h **** }
 4731              		.loc 4 109 12 view .LVU1434
 4732              	.LBE215:
 4733              	.LBE214:
 472:lvgl/src/lv_widgets/lv_calendar.c ****                 if(ext->btn_pressing != -1) lv_obj_invalidate(calendar);
 4734              		.loc 1 472 71 view .LVU1435
 4735 010e 03EBD373 		add	r3, r3, r3, lsr #31
 472:lvgl/src/lv_widgets/lv_calendar.c ****                 if(ext->btn_pressing != -1) lv_obj_invalidate(calendar);
 4736              		.loc 1 472 37 view .LVU1436
 4737 0112 02EB6303 		add	r3, r2, r3, asr #1
 472:lvgl/src/lv_widgets/lv_calendar.c ****                 if(ext->btn_pressing != -1) lv_obj_invalidate(calendar);
 4738              		.loc 1 472 15 view .LVU1437
 4739 0116 9942     		cmp	r1, r3
 4740 0118 0FDA     		bge	.L275
ARM GAS  D:\Temp\cclvo1nc.s 			page 137


 473:lvgl/src/lv_widgets/lv_calendar.c ****                 ext->btn_pressing = -1;
 4741              		.loc 1 473 17 is_stmt 1 view .LVU1438
 473:lvgl/src/lv_widgets/lv_calendar.c ****                 ext->btn_pressing = -1;
 4742              		.loc 1 473 23 is_stmt 0 view .LVU1439
 4743 011a 94F90C30 		ldrsb	r3, [r4, #12]
 473:lvgl/src/lv_widgets/lv_calendar.c ****                 ext->btn_pressing = -1;
 4744              		.loc 1 473 19 view .LVU1440
 4745 011e B3F1FF3F 		cmp	r3, #-1
 4746 0122 06D1     		bne	.L306
 4747              	.L276:
 474:lvgl/src/lv_widgets/lv_calendar.c ****             }
 4748              		.loc 1 474 17 is_stmt 1 view .LVU1441
 474:lvgl/src/lv_widgets/lv_calendar.c ****             }
 4749              		.loc 1 474 35 is_stmt 0 view .LVU1442
 4750 0124 FF23     		movs	r3, #255
 4751 0126 2373     		strb	r3, [r4, #12]
 4752              	.L277:
 481:lvgl/src/lv_widgets/lv_calendar.c ****             ext->pressed_date.month = 0;
 4753              		.loc 1 481 13 is_stmt 1 view .LVU1443
 481:lvgl/src/lv_widgets/lv_calendar.c ****             ext->pressed_date.month = 0;
 4754              		.loc 1 481 37 is_stmt 0 view .LVU1444
 4755 0128 0023     		movs	r3, #0
 4756 012a 2382     		strh	r3, [r4, #16]	@ movhi
 482:lvgl/src/lv_widgets/lv_calendar.c ****             ext->pressed_date.day   = 0;
 4757              		.loc 1 482 13 is_stmt 1 view .LVU1445
 482:lvgl/src/lv_widgets/lv_calendar.c ****             ext->pressed_date.day   = 0;
 4758              		.loc 1 482 37 is_stmt 0 view .LVU1446
 4759 012c A374     		strb	r3, [r4, #18]
 483:lvgl/src/lv_widgets/lv_calendar.c ****         }
 4760              		.loc 1 483 13 is_stmt 1 view .LVU1447
 483:lvgl/src/lv_widgets/lv_calendar.c ****         }
 4761              		.loc 1 483 37 is_stmt 0 view .LVU1448
 4762 012e E374     		strb	r3, [r4, #19]
 4763 0130 A0E7     		b	.L268
 4764              	.L306:
 473:lvgl/src/lv_widgets/lv_calendar.c ****                 ext->btn_pressing = -1;
 4765              		.loc 1 473 45 is_stmt 1 discriminator 1 view .LVU1449
 4766 0132 3046     		mov	r0, r6
 4767 0134 FFF7FEFF 		bl	lv_obj_invalidate
 4768              	.LVL514:
 4769 0138 F4E7     		b	.L276
 4770              	.L275:
 477:lvgl/src/lv_widgets/lv_calendar.c ****                 ext->btn_pressing = 1;
 4771              		.loc 1 477 17 view .LVU1450
 477:lvgl/src/lv_widgets/lv_calendar.c ****                 ext->btn_pressing = 1;
 4772              		.loc 1 477 23 is_stmt 0 view .LVU1451
 4773 013a 94F90C30 		ldrsb	r3, [r4, #12]
 477:lvgl/src/lv_widgets/lv_calendar.c ****                 ext->btn_pressing = 1;
 4774              		.loc 1 477 19 view .LVU1452
 4775 013e 012B     		cmp	r3, #1
 4776 0140 02D1     		bne	.L307
 4777              	.L278:
 478:lvgl/src/lv_widgets/lv_calendar.c ****             }
 4778              		.loc 1 478 17 is_stmt 1 view .LVU1453
 478:lvgl/src/lv_widgets/lv_calendar.c ****             }
 4779              		.loc 1 478 35 is_stmt 0 view .LVU1454
 4780 0142 0123     		movs	r3, #1
ARM GAS  D:\Temp\cclvo1nc.s 			page 138


 4781 0144 2373     		strb	r3, [r4, #12]
 4782 0146 EFE7     		b	.L277
 4783              	.L307:
 477:lvgl/src/lv_widgets/lv_calendar.c ****                 ext->btn_pressing = 1;
 4784              		.loc 1 477 44 is_stmt 1 discriminator 1 view .LVU1455
 4785 0148 3046     		mov	r0, r6
 4786 014a FFF7FEFF 		bl	lv_obj_invalidate
 4787              	.LVL515:
 4788 014e F8E7     		b	.L278
 4789              	.L274:
 486:lvgl/src/lv_widgets/lv_calendar.c ****             ext->btn_pressing = 0;
 4790              		.loc 1 486 14 view .LVU1456
 486:lvgl/src/lv_widgets/lv_calendar.c ****             ext->btn_pressing = 0;
 4791              		.loc 1 486 17 is_stmt 0 view .LVU1457
 4792 0150 01A9     		add	r1, sp, #4
 4793 0152 3046     		mov	r0, r6
 4794 0154 FFF7FEFF 		bl	calculate_touched_day
 4795              	.LVL516:
 486:lvgl/src/lv_widgets/lv_calendar.c ****             ext->btn_pressing = 0;
 4796              		.loc 1 486 16 view .LVU1458
 4797 0158 40B9     		cbnz	r0, .L308
 492:lvgl/src/lv_widgets/lv_calendar.c ****             ext->btn_pressing       = 0;
 4798              		.loc 1 492 13 is_stmt 1 view .LVU1459
 492:lvgl/src/lv_widgets/lv_calendar.c ****             ext->btn_pressing       = 0;
 4799              		.loc 1 492 19 is_stmt 0 view .LVU1460
 4800 015a 94F90C30 		ldrsb	r3, [r4, #12]
 492:lvgl/src/lv_widgets/lv_calendar.c ****             ext->btn_pressing       = 0;
 4801              		.loc 1 492 15 view .LVU1461
 4802 015e 5BB9     		cbnz	r3, .L309
 4803              	.L281:
 493:lvgl/src/lv_widgets/lv_calendar.c ****             ext->pressed_date.year  = 0;
 4804              		.loc 1 493 13 is_stmt 1 view .LVU1462
 493:lvgl/src/lv_widgets/lv_calendar.c ****             ext->pressed_date.year  = 0;
 4805              		.loc 1 493 37 is_stmt 0 view .LVU1463
 4806 0160 0023     		movs	r3, #0
 4807 0162 2373     		strb	r3, [r4, #12]
 494:lvgl/src/lv_widgets/lv_calendar.c ****             ext->pressed_date.month = 0;
 4808              		.loc 1 494 13 is_stmt 1 view .LVU1464
 494:lvgl/src/lv_widgets/lv_calendar.c ****             ext->pressed_date.month = 0;
 4809              		.loc 1 494 37 is_stmt 0 view .LVU1465
 4810 0164 2382     		strh	r3, [r4, #16]	@ movhi
 495:lvgl/src/lv_widgets/lv_calendar.c ****             ext->pressed_date.day   = 0;
 4811              		.loc 1 495 13 is_stmt 1 view .LVU1466
 495:lvgl/src/lv_widgets/lv_calendar.c ****             ext->pressed_date.day   = 0;
 4812              		.loc 1 495 37 is_stmt 0 view .LVU1467
 4813 0166 A374     		strb	r3, [r4, #18]
 496:lvgl/src/lv_widgets/lv_calendar.c ****         }
 4814              		.loc 1 496 13 is_stmt 1 view .LVU1468
 496:lvgl/src/lv_widgets/lv_calendar.c ****         }
 4815              		.loc 1 496 37 is_stmt 0 view .LVU1469
 4816 0168 E374     		strb	r3, [r4, #19]
 4817 016a 83E7     		b	.L268
 4818              	.L308:
 487:lvgl/src/lv_widgets/lv_calendar.c ****             lv_obj_invalidate(calendar);
 4819              		.loc 1 487 13 is_stmt 1 view .LVU1470
 487:lvgl/src/lv_widgets/lv_calendar.c ****             lv_obj_invalidate(calendar);
 4820              		.loc 1 487 31 is_stmt 0 view .LVU1471
ARM GAS  D:\Temp\cclvo1nc.s 			page 139


 4821 016c 0023     		movs	r3, #0
 4822 016e 2373     		strb	r3, [r4, #12]
 488:lvgl/src/lv_widgets/lv_calendar.c ****         }
 4823              		.loc 1 488 13 is_stmt 1 view .LVU1472
 4824 0170 3046     		mov	r0, r6
 4825 0172 FFF7FEFF 		bl	lv_obj_invalidate
 4826              	.LVL517:
 4827 0176 7DE7     		b	.L268
 4828              	.L309:
 492:lvgl/src/lv_widgets/lv_calendar.c ****             ext->btn_pressing       = 0;
 4829              		.loc 1 492 40 discriminator 1 view .LVU1473
 4830 0178 3046     		mov	r0, r6
 4831 017a FFF7FEFF 		bl	lv_obj_invalidate
 4832              	.LVL518:
 4833 017e EFE7     		b	.L281
 4834              	.LVL519:
 4835              	.L302:
 492:lvgl/src/lv_widgets/lv_calendar.c ****             ext->btn_pressing       = 0;
 4836              		.loc 1 492 40 is_stmt 0 discriminator 1 view .LVU1474
 4837              	.LBE216:
 4838              	.LBB217:
 500:lvgl/src/lv_widgets/lv_calendar.c ****         ext->btn_pressing       = 0;
 4839              		.loc 1 500 9 is_stmt 1 view .LVU1475
 500:lvgl/src/lv_widgets/lv_calendar.c ****         ext->btn_pressing       = 0;
 4840              		.loc 1 500 35 is_stmt 0 view .LVU1476
 4841 0180 3046     		mov	r0, r6
 4842              	.LVL520:
 500:lvgl/src/lv_widgets/lv_calendar.c ****         ext->btn_pressing       = 0;
 4843              		.loc 1 500 35 view .LVU1477
 4844 0182 FFF7FEFF 		bl	lv_obj_get_ext_attr
 4845              	.LVL521:
 501:lvgl/src/lv_widgets/lv_calendar.c ****         ext->pressed_date.year  = 0;
 4846              		.loc 1 501 9 is_stmt 1 view .LVU1478
 501:lvgl/src/lv_widgets/lv_calendar.c ****         ext->pressed_date.year  = 0;
 4847              		.loc 1 501 33 is_stmt 0 view .LVU1479
 4848 0186 0023     		movs	r3, #0
 4849 0188 0373     		strb	r3, [r0, #12]
 502:lvgl/src/lv_widgets/lv_calendar.c ****         ext->pressed_date.month = 0;
 4850              		.loc 1 502 9 is_stmt 1 view .LVU1480
 502:lvgl/src/lv_widgets/lv_calendar.c ****         ext->pressed_date.month = 0;
 4851              		.loc 1 502 33 is_stmt 0 view .LVU1481
 4852 018a 0382     		strh	r3, [r0, #16]	@ movhi
 503:lvgl/src/lv_widgets/lv_calendar.c ****         ext->pressed_date.day   = 0;
 4853              		.loc 1 503 9 is_stmt 1 view .LVU1482
 503:lvgl/src/lv_widgets/lv_calendar.c ****         ext->pressed_date.day   = 0;
 4854              		.loc 1 503 33 is_stmt 0 view .LVU1483
 4855 018c 8374     		strb	r3, [r0, #18]
 504:lvgl/src/lv_widgets/lv_calendar.c ****         lv_obj_invalidate(calendar);
 4856              		.loc 1 504 9 is_stmt 1 view .LVU1484
 504:lvgl/src/lv_widgets/lv_calendar.c ****         lv_obj_invalidate(calendar);
 4857              		.loc 1 504 33 is_stmt 0 view .LVU1485
 4858 018e C374     		strb	r3, [r0, #19]
 505:lvgl/src/lv_widgets/lv_calendar.c **** 
 4859              		.loc 1 505 9 is_stmt 1 view .LVU1486
 4860 0190 3046     		mov	r0, r6
 4861              	.LVL522:
 505:lvgl/src/lv_widgets/lv_calendar.c **** 
ARM GAS  D:\Temp\cclvo1nc.s 			page 140


 4862              		.loc 1 505 9 is_stmt 0 view .LVU1487
 4863 0192 FFF7FEFF 		bl	lv_obj_invalidate
 4864              	.LVL523:
 4865              	.LBE217:
 4866 0196 6DE7     		b	.L268
 4867              	.LVL524:
 4868              	.L303:
 4869              	.LBB218:
 509:lvgl/src/lv_widgets/lv_calendar.c ****         if(ext->btn_pressing < 0) {
 4870              		.loc 1 509 9 is_stmt 1 view .LVU1488
 509:lvgl/src/lv_widgets/lv_calendar.c ****         if(ext->btn_pressing < 0) {
 4871              		.loc 1 509 35 is_stmt 0 view .LVU1489
 4872 0198 3046     		mov	r0, r6
 4873              	.LVL525:
 509:lvgl/src/lv_widgets/lv_calendar.c ****         if(ext->btn_pressing < 0) {
 4874              		.loc 1 509 35 view .LVU1490
 4875 019a FFF7FEFF 		bl	lv_obj_get_ext_attr
 4876              	.LVL526:
 4877 019e 0446     		mov	r4, r0
 4878              	.LVL527:
 510:lvgl/src/lv_widgets/lv_calendar.c ****             if(ext->showed_date.month <= 1) {
 4879              		.loc 1 510 9 is_stmt 1 view .LVU1491
 510:lvgl/src/lv_widgets/lv_calendar.c ****             if(ext->showed_date.month <= 1) {
 4880              		.loc 1 510 15 is_stmt 0 view .LVU1492
 4881 01a0 90F90C30 		ldrsb	r3, [r0, #12]
 510:lvgl/src/lv_widgets/lv_calendar.c ****             if(ext->showed_date.month <= 1) {
 4882              		.loc 1 510 11 view .LVU1493
 4883 01a4 002B     		cmp	r3, #0
 4884 01a6 0BDB     		blt	.L310
 519:lvgl/src/lv_widgets/lv_calendar.c ****             if(ext->showed_date.month >= 12) {
 4885              		.loc 1 519 14 is_stmt 1 view .LVU1494
 519:lvgl/src/lv_widgets/lv_calendar.c ****             if(ext->showed_date.month >= 12) {
 4886              		.loc 1 519 16 is_stmt 0 view .LVU1495
 4887 01a8 002B     		cmp	r3, #0
 4888 01aa 21DD     		ble	.L287
 520:lvgl/src/lv_widgets/lv_calendar.c ****                 ext->showed_date.month = 1;
 4889              		.loc 1 520 13 is_stmt 1 view .LVU1496
 520:lvgl/src/lv_widgets/lv_calendar.c ****                 ext->showed_date.month = 1;
 4890              		.loc 1 520 32 is_stmt 0 view .LVU1497
 4891 01ac 90F90630 		ldrsb	r3, [r0, #6]
 520:lvgl/src/lv_widgets/lv_calendar.c ****                 ext->showed_date.month = 1;
 4892              		.loc 1 520 15 view .LVU1498
 4893 01b0 0B2B     		cmp	r3, #11
 4894 01b2 1ADD     		ble	.L288
 521:lvgl/src/lv_widgets/lv_calendar.c ****                 ext->showed_date.year++;
 4895              		.loc 1 521 17 is_stmt 1 view .LVU1499
 521:lvgl/src/lv_widgets/lv_calendar.c ****                 ext->showed_date.year++;
 4896              		.loc 1 521 40 is_stmt 0 view .LVU1500
 4897 01b4 0123     		movs	r3, #1
 4898 01b6 8371     		strb	r3, [r0, #6]
 522:lvgl/src/lv_widgets/lv_calendar.c ****             }
 4899              		.loc 1 522 17 is_stmt 1 view .LVU1501
 522:lvgl/src/lv_widgets/lv_calendar.c ****             }
 4900              		.loc 1 522 33 is_stmt 0 view .LVU1502
 4901 01b8 8388     		ldrh	r3, [r0, #4]
 522:lvgl/src/lv_widgets/lv_calendar.c ****             }
 4902              		.loc 1 522 38 view .LVU1503
ARM GAS  D:\Temp\cclvo1nc.s 			page 141


 4903 01ba 0133     		adds	r3, r3, #1
 4904 01bc 8380     		strh	r3, [r0, #4]	@ movhi
 4905 01be 05E0     		b	.L286
 4906              	.L310:
 511:lvgl/src/lv_widgets/lv_calendar.c ****                 ext->showed_date.month = 12;
 4907              		.loc 1 511 13 is_stmt 1 view .LVU1504
 511:lvgl/src/lv_widgets/lv_calendar.c ****                 ext->showed_date.month = 12;
 4908              		.loc 1 511 32 is_stmt 0 view .LVU1505
 4909 01c0 90F90630 		ldrsb	r3, [r0, #6]
 511:lvgl/src/lv_widgets/lv_calendar.c ****                 ext->showed_date.month = 12;
 4910              		.loc 1 511 15 view .LVU1506
 4911 01c4 012B     		cmp	r3, #1
 4912 01c6 0ADD     		ble	.L311
 516:lvgl/src/lv_widgets/lv_calendar.c ****             }
 4913              		.loc 1 516 17 is_stmt 1 view .LVU1507
 516:lvgl/src/lv_widgets/lv_calendar.c ****             }
 4914              		.loc 1 516 39 is_stmt 0 view .LVU1508
 4915 01c8 013B     		subs	r3, r3, #1
 4916 01ca 8371     		strb	r3, [r0, #6]
 4917              	.LVL528:
 4918              	.L286:
 534:lvgl/src/lv_widgets/lv_calendar.c ****         ext->pressed_date.year  = 0;
 4919              		.loc 1 534 9 is_stmt 1 view .LVU1509
 534:lvgl/src/lv_widgets/lv_calendar.c ****         ext->pressed_date.year  = 0;
 4920              		.loc 1 534 27 is_stmt 0 view .LVU1510
 4921 01cc 0023     		movs	r3, #0
 4922 01ce 2373     		strb	r3, [r4, #12]
 535:lvgl/src/lv_widgets/lv_calendar.c ****         ext->pressed_date.month = 0;
 4923              		.loc 1 535 9 is_stmt 1 view .LVU1511
 535:lvgl/src/lv_widgets/lv_calendar.c ****         ext->pressed_date.month = 0;
 4924              		.loc 1 535 33 is_stmt 0 view .LVU1512
 4925 01d0 2382     		strh	r3, [r4, #16]	@ movhi
 536:lvgl/src/lv_widgets/lv_calendar.c ****         ext->pressed_date.day   = 0;
 4926              		.loc 1 536 9 is_stmt 1 view .LVU1513
 536:lvgl/src/lv_widgets/lv_calendar.c ****         ext->pressed_date.day   = 0;
 4927              		.loc 1 536 33 is_stmt 0 view .LVU1514
 4928 01d2 A374     		strb	r3, [r4, #18]
 537:lvgl/src/lv_widgets/lv_calendar.c ****         lv_obj_invalidate(calendar);
 4929              		.loc 1 537 9 is_stmt 1 view .LVU1515
 537:lvgl/src/lv_widgets/lv_calendar.c ****         lv_obj_invalidate(calendar);
 4930              		.loc 1 537 33 is_stmt 0 view .LVU1516
 4931 01d4 E374     		strb	r3, [r4, #19]
 538:lvgl/src/lv_widgets/lv_calendar.c ****     }
 4932              		.loc 1 538 9 is_stmt 1 view .LVU1517
 4933 01d6 3046     		mov	r0, r6
 4934 01d8 FFF7FEFF 		bl	lv_obj_invalidate
 4935              	.LVL529:
 4936              	.LBE218:
 4937 01dc 4AE7     		b	.L268
 4938              	.LVL530:
 4939              	.L311:
 4940              	.LBB219:
 512:lvgl/src/lv_widgets/lv_calendar.c ****                 ext->showed_date.year--;
 4941              		.loc 1 512 17 view .LVU1518
 512:lvgl/src/lv_widgets/lv_calendar.c ****                 ext->showed_date.year--;
 4942              		.loc 1 512 40 is_stmt 0 view .LVU1519
 4943 01de 0C23     		movs	r3, #12
ARM GAS  D:\Temp\cclvo1nc.s 			page 142


 4944 01e0 8371     		strb	r3, [r0, #6]
 513:lvgl/src/lv_widgets/lv_calendar.c ****             }
 4945              		.loc 1 513 17 is_stmt 1 view .LVU1520
 513:lvgl/src/lv_widgets/lv_calendar.c ****             }
 4946              		.loc 1 513 33 is_stmt 0 view .LVU1521
 4947 01e2 8388     		ldrh	r3, [r0, #4]
 513:lvgl/src/lv_widgets/lv_calendar.c ****             }
 4948              		.loc 1 513 38 view .LVU1522
 4949 01e4 013B     		subs	r3, r3, #1
 4950 01e6 8380     		strh	r3, [r0, #4]	@ movhi
 4951 01e8 F0E7     		b	.L286
 4952              	.L288:
 525:lvgl/src/lv_widgets/lv_calendar.c ****             }
 4953              		.loc 1 525 17 is_stmt 1 view .LVU1523
 525:lvgl/src/lv_widgets/lv_calendar.c ****             }
 4954              		.loc 1 525 39 is_stmt 0 view .LVU1524
 4955 01ea 0133     		adds	r3, r3, #1
 4956 01ec 8371     		strb	r3, [r0, #6]
 4957 01ee EDE7     		b	.L286
 4958              	.L287:
 528:lvgl/src/lv_widgets/lv_calendar.c ****             res = lv_event_send(calendar, LV_EVENT_VALUE_CHANGED, NULL);
 4959              		.loc 1 528 14 is_stmt 1 view .LVU1525
 528:lvgl/src/lv_widgets/lv_calendar.c ****             res = lv_event_send(calendar, LV_EVENT_VALUE_CHANGED, NULL);
 4960              		.loc 1 528 34 is_stmt 0 view .LVU1526
 4961 01f0 038A     		ldrh	r3, [r0, #16]
 528:lvgl/src/lv_widgets/lv_calendar.c ****             res = lv_event_send(calendar, LV_EVENT_VALUE_CHANGED, NULL);
 4962              		.loc 1 528 16 view .LVU1527
 4963 01f2 002B     		cmp	r3, #0
 4964 01f4 EAD0     		beq	.L286
 529:lvgl/src/lv_widgets/lv_calendar.c ****             if(res != LV_RES_OK) return res;
 4965              		.loc 1 529 13 is_stmt 1 view .LVU1528
 529:lvgl/src/lv_widgets/lv_calendar.c ****             if(res != LV_RES_OK) return res;
 4966              		.loc 1 529 19 is_stmt 0 view .LVU1529
 4967 01f6 0022     		movs	r2, #0
 4968 01f8 1021     		movs	r1, #16
 4969 01fa 3046     		mov	r0, r6
 4970              	.LVL531:
 529:lvgl/src/lv_widgets/lv_calendar.c ****             if(res != LV_RES_OK) return res;
 4971              		.loc 1 529 19 view .LVU1530
 4972 01fc FFF7FEFF 		bl	lv_event_send
 4973              	.LVL532:
 4974 0200 0546     		mov	r5, r0
 4975              	.LVL533:
 530:lvgl/src/lv_widgets/lv_calendar.c **** 
 4976              		.loc 1 530 13 is_stmt 1 view .LVU1531
 530:lvgl/src/lv_widgets/lv_calendar.c **** 
 4977              		.loc 1 530 15 is_stmt 0 view .LVU1532
 4978 0202 0128     		cmp	r0, #1
 4979 0204 7FF436AF 		bne	.L268
 4980 0208 E0E7     		b	.L286
 4981              	.LVL534:
 4982              	.L289:
 530:lvgl/src/lv_widgets/lv_calendar.c **** 
 4983              		.loc 1 530 15 view .LVU1533
 4984              	.LBE219:
 4985              	.LBB220:
 545:lvgl/src/lv_widgets/lv_calendar.c ****                 ext->showed_date.month = 1;
ARM GAS  D:\Temp\cclvo1nc.s 			page 143


 4986              		.loc 1 545 13 is_stmt 1 view .LVU1534
 545:lvgl/src/lv_widgets/lv_calendar.c ****                 ext->showed_date.month = 1;
 4987              		.loc 1 545 32 is_stmt 0 view .LVU1535
 4988 020a 90F90630 		ldrsb	r3, [r0, #6]
 545:lvgl/src/lv_widgets/lv_calendar.c ****                 ext->showed_date.month = 1;
 4989              		.loc 1 545 15 view .LVU1536
 4990 020e 0B2B     		cmp	r3, #11
 4991 0210 08DD     		ble	.L291
 546:lvgl/src/lv_widgets/lv_calendar.c ****                 ext->showed_date.year++;
 4992              		.loc 1 546 17 is_stmt 1 view .LVU1537
 546:lvgl/src/lv_widgets/lv_calendar.c ****                 ext->showed_date.year++;
 4993              		.loc 1 546 40 is_stmt 0 view .LVU1538
 4994 0212 0123     		movs	r3, #1
 4995 0214 8371     		strb	r3, [r0, #6]
 547:lvgl/src/lv_widgets/lv_calendar.c ****             }
 4996              		.loc 1 547 17 is_stmt 1 view .LVU1539
 547:lvgl/src/lv_widgets/lv_calendar.c ****             }
 4997              		.loc 1 547 33 is_stmt 0 view .LVU1540
 4998 0216 8388     		ldrh	r3, [r0, #4]
 547:lvgl/src/lv_widgets/lv_calendar.c ****             }
 4999              		.loc 1 547 38 view .LVU1541
 5000 0218 0133     		adds	r3, r3, #1
 5001 021a 8380     		strh	r3, [r0, #4]	@ movhi
 5002              	.L292:
 552:lvgl/src/lv_widgets/lv_calendar.c ****         }
 5003              		.loc 1 552 13 is_stmt 1 view .LVU1542
 5004 021c 3046     		mov	r0, r6
 5005              	.LVL535:
 552:lvgl/src/lv_widgets/lv_calendar.c ****         }
 5006              		.loc 1 552 13 is_stmt 0 view .LVU1543
 5007 021e FFF7FEFF 		bl	lv_obj_invalidate
 5008              	.LVL536:
 5009 0222 27E7     		b	.L268
 5010              	.LVL537:
 5011              	.L291:
 550:lvgl/src/lv_widgets/lv_calendar.c ****             }
 5012              		.loc 1 550 17 is_stmt 1 view .LVU1544
 550:lvgl/src/lv_widgets/lv_calendar.c ****             }
 5013              		.loc 1 550 39 is_stmt 0 view .LVU1545
 5014 0224 0133     		adds	r3, r3, #1
 5015 0226 8371     		strb	r3, [r0, #6]
 5016 0228 F8E7     		b	.L292
 5017              	.L304:
 556:lvgl/src/lv_widgets/lv_calendar.c ****                 ext->showed_date.year--;
 5018              		.loc 1 556 17 is_stmt 1 view .LVU1546
 556:lvgl/src/lv_widgets/lv_calendar.c ****                 ext->showed_date.year--;
 5019              		.loc 1 556 40 is_stmt 0 view .LVU1547
 5020 022a 0C23     		movs	r3, #12
 5021 022c 8371     		strb	r3, [r0, #6]
 557:lvgl/src/lv_widgets/lv_calendar.c ****             }
 5022              		.loc 1 557 17 is_stmt 1 view .LVU1548
 557:lvgl/src/lv_widgets/lv_calendar.c ****             }
 5023              		.loc 1 557 33 is_stmt 0 view .LVU1549
 5024 022e 8388     		ldrh	r3, [r0, #4]
 557:lvgl/src/lv_widgets/lv_calendar.c ****             }
 5025              		.loc 1 557 38 view .LVU1550
 5026 0230 013B     		subs	r3, r3, #1
ARM GAS  D:\Temp\cclvo1nc.s 			page 144


 5027 0232 8380     		strh	r3, [r0, #4]	@ movhi
 5028 0234 14E7     		b	.L295
 5029              	.L313:
 5030 0236 00BF     		.align	2
 5031              	.L312:
 5032 0238 00000000 		.word	.LANCHOR2
 5033 023c 00000000 		.word	.LC4
 5034              	.LBE220:
 5035              		.cfi_endproc
 5036              	.LFE473:
 5038              		.section	.bss.ancestor_design,"aw",%nobits
 5039              		.align	2
 5040              		.set	.LANCHOR3,. + 0
 5043              	ancestor_design:
 5044 0000 00000000 		.space	4
 5045              		.section	.bss.ancestor_signal,"aw",%nobits
 5046              		.align	2
 5047              		.set	.LANCHOR2,. + 0
 5050              	ancestor_signal:
 5051 0000 00000000 		.space	4
 5052              		.section	.rodata.day_name,"a"
 5053              		.align	2
 5054              		.set	.LANCHOR1,. + 0
 5057              	day_name:
 5058 0000 6C000000 		.word	.LC17
 5059 0004 70000000 		.word	.LC18
 5060 0008 74000000 		.word	.LC19
 5061 000c 78000000 		.word	.LC20
 5062 0010 7C000000 		.word	.LC21
 5063 0014 80000000 		.word	.LC22
 5064 0018 84000000 		.word	.LC23
 5065              		.section	.rodata.draw_header.str1.4,"aMS",%progbits,1
 5066              		.align	2
 5067              	.LC1:
 5068 0000 EF819300 		.ascii	"\357\201\223\000"
 5069              	.LC2:
 5070 0004 EF819400 		.ascii	"\357\201\224\000"
 5071              		.section	.rodata.lv_calendar_create.str1.4,"aMS",%progbits,1
 5072              		.align	2
 5073              	.LC3:
 5074 0000 4F757420 		.ascii	"Out of memory\000"
 5074      6F66206D 
 5074      656D6F72 
 5074      7900
 5075              		.section	.rodata.lv_calendar_get_style.str1.4,"aMS",%progbits,1
 5076              		.align	2
 5077              	.LC0:
 5078 0000 4E554C4C 		.ascii	"NULL pointer\000"
 5078      20706F69 
 5078      6E746572 
 5078      00
 5079              		.section	.rodata.lv_calendar_signal.str1.4,"aMS",%progbits,1
 5080              		.align	2
 5081              	.LC4:
 5082 0000 6C765F63 		.ascii	"lv_calendar\000"
 5082      616C656E 
 5082      64617200 
ARM GAS  D:\Temp\cclvo1nc.s 			page 145


 5083              		.section	.rodata.month_name,"a"
 5084              		.align	2
 5085              		.set	.LANCHOR0,. + 0
 5088              	month_name:
 5089 0000 00000000 		.word	.LC5
 5090 0004 08000000 		.word	.LC6
 5091 0008 14000000 		.word	.LC7
 5092 000c 1C000000 		.word	.LC8
 5093 0010 24000000 		.word	.LC9
 5094 0014 28000000 		.word	.LC10
 5095 0018 30000000 		.word	.LC11
 5096 001c 38000000 		.word	.LC12
 5097 0020 40000000 		.word	.LC13
 5098 0024 4C000000 		.word	.LC14
 5099 0028 54000000 		.word	.LC15
 5100 002c 60000000 		.word	.LC16
 5101              		.section	.rodata.str1.4,"aMS",%progbits,1
 5102              		.align	2
 5103              	.LC5:
 5104 0000 4A616E75 		.ascii	"January\000"
 5104      61727900 
 5105              	.LC6:
 5106 0008 46656272 		.ascii	"February\000"
 5106      75617279 
 5106      00
 5107 0011 000000   		.space	3
 5108              	.LC7:
 5109 0014 4D617263 		.ascii	"March\000"
 5109      6800
 5110 001a 0000     		.space	2
 5111              	.LC8:
 5112 001c 41707269 		.ascii	"April\000"
 5112      6C00
 5113 0022 0000     		.space	2
 5114              	.LC9:
 5115 0024 4D617900 		.ascii	"May\000"
 5116              	.LC10:
 5117 0028 4A756E65 		.ascii	"June\000"
 5117      00
 5118 002d 000000   		.space	3
 5119              	.LC11:
 5120 0030 4A756C79 		.ascii	"July\000"
 5120      00
 5121 0035 000000   		.space	3
 5122              	.LC12:
 5123 0038 41756775 		.ascii	"August\000"
 5123      737400
 5124 003f 00       		.space	1
 5125              	.LC13:
 5126 0040 53657074 		.ascii	"September\000"
 5126      656D6265 
 5126      7200
 5127 004a 0000     		.space	2
 5128              	.LC14:
 5129 004c 4F63746F 		.ascii	"October\000"
 5129      62657200 
 5130              	.LC15:
ARM GAS  D:\Temp\cclvo1nc.s 			page 146


 5131 0054 4E6F7665 		.ascii	"November\000"
 5131      6D626572 
 5131      00
 5132 005d 000000   		.space	3
 5133              	.LC16:
 5134 0060 44656365 		.ascii	"December\000"
 5134      6D626572 
 5134      00
 5135 0069 000000   		.space	3
 5136              	.LC17:
 5137 006c 537500   		.ascii	"Su\000"
 5138 006f 00       		.space	1
 5139              	.LC18:
 5140 0070 4D6F00   		.ascii	"Mo\000"
 5141 0073 00       		.space	1
 5142              	.LC19:
 5143 0074 547500   		.ascii	"Tu\000"
 5144 0077 00       		.space	1
 5145              	.LC20:
 5146 0078 576500   		.ascii	"We\000"
 5147 007b 00       		.space	1
 5148              	.LC21:
 5149 007c 546800   		.ascii	"Th\000"
 5150 007f 00       		.space	1
 5151              	.LC22:
 5152 0080 467200   		.ascii	"Fr\000"
 5153 0083 00       		.space	1
 5154              	.LC23:
 5155 0084 536100   		.ascii	"Sa\000"
 5156              		.text
 5157              	.Letext0:
 5158              		.file 6 "c:\\stm32\\gnu mcu eclipse\\arm embedded gcc\\8.2.1-1.4-20190214-0604\\arm-none-eabi\\inc
 5159              		.file 7 "c:\\stm32\\gnu mcu eclipse\\arm embedded gcc\\8.2.1-1.4-20190214-0604\\arm-none-eabi\\inc
 5160              		.file 8 "Drivers/CMSIS/Include/core_cm4.h"
 5161              		.file 9 "Drivers/CMSIS/Device/ST/STM32F4xx/Include/system_stm32f4xx.h"
 5162              		.file 10 "c:\\stm32\\gnu mcu eclipse\\arm embedded gcc\\8.2.1-1.4-20190214-0604\\lib\\gcc\\arm-non
 5163              		.file 11 "Drivers/STM32F4xx_HAL_Driver/Inc/stm32f4xx_hal.h"
 5164              		.file 12 "lvgl/lv_conf.h"
 5165              		.file 13 "c:\\stm32\\gnu mcu eclipse\\arm embedded gcc\\8.2.1-1.4-20190214-0604\\arm-none-eabi\\in
 5166              		.file 14 "c:\\stm32\\gnu mcu eclipse\\arm embedded gcc\\8.2.1-1.4-20190214-0604\\arm-none-eabi\\in
 5167              		.file 15 "c:\\stm32\\gnu mcu eclipse\\arm embedded gcc\\8.2.1-1.4-20190214-0604\\arm-none-eabi\\in
 5168              		.file 16 "d:\\_project\\stm32\\f407\\hack_rf_new\\lvgl\\src\\lv_misc\\lv_types.h"
 5169              		.file 17 "lvgl/src/lv_widgets/../lv_core/../lv_misc/lv_color.h"
 5170              		.file 18 "lvgl/src/lv_widgets/../lv_core/../lv_misc/lv_anim.h"
 5171              		.file 19 "lvgl/src/lv_widgets/../lv_core/../lv_draw/lv_draw_blend.h"
 5172              		.file 20 "lvgl/src/lv_widgets/../lv_core/lv_style.h"
 5173              		.file 21 "lvgl/src/lv_widgets/../lv_core/../lv_hal/../lv_misc/lv_ll.h"
 5174              		.file 22 "lvgl/src/lv_widgets/../lv_core/../lv_hal/../lv_misc/lv_task.h"
 5175              		.file 23 "lvgl/src/lv_widgets/../lv_core/../lv_hal/lv_hal_disp.h"
 5176              		.file 24 "lvgl/src/lv_widgets/../lv_core/lv_obj.h"
 5177              		.file 25 "lvgl/src/lv_widgets/../lv_core/../lv_hal/lv_hal_indev.h"
 5178              		.file 26 "lvgl/src/lv_widgets/../lv_core/../lv_core/lv_group.h"
 5179              		.file 27 "lvgl/src/lv_widgets/../lv_core/../lv_draw/lv_draw_rect.h"
 5180              		.file 28 "d:\\_project\\stm32\\f407\\hack_rf_new\\lvgl\\src\\lv_misc\\lv_bidi.h"
 5181              		.file 29 "d:\\_project\\stm32\\f407\\hack_rf_new\\lvgl\\src\\lv_misc\\lv_txt.h"
 5182              		.file 30 "lvgl/src/lv_widgets/../lv_core/../lv_draw/lv_draw_label.h"
 5183              		.file 31 "lvgl/src/lv_widgets/lv_calendar.h"
ARM GAS  D:\Temp\cclvo1nc.s 			page 147


 5184              		.file 32 "lvgl/src/lv_widgets/../lv_themes/lv_theme.h"
 5185              		.file 33 "lvgl/src/lv_widgets/../lv_misc/lv_utils.h"
 5186              		.file 34 "c:\\stm32\\gnu mcu eclipse\\arm embedded gcc\\8.2.1-1.4-20190214-0604\\arm-none-eabi\\in
 5187              		.file 35 "lvgl/src/lv_widgets/../lv_core/../lv_misc/lv_debug.h"
 5188              		.file 36 "lvgl/src/lv_widgets/../lv_core/lv_indev.h"
ARM GAS  D:\Temp\cclvo1nc.s 			page 148


DEFINED SYMBOLS
                            *ABS*:0000000000000000 lv_calendar.c
  D:\Temp\cclvo1nc.s:18     .text.is_leap_year:0000000000000000 $t
  D:\Temp\cclvo1nc.s:25     .text.is_leap_year:0000000000000000 is_leap_year
  D:\Temp\cclvo1nc.s:83     .text.is_leap_year:0000000000000038 $d
  D:\Temp\cclvo1nc.s:88     .text.get_month_length:0000000000000000 $t
  D:\Temp\cclvo1nc.s:94     .text.get_month_length:0000000000000000 get_month_length
  D:\Temp\cclvo1nc.s:178    .text.get_month_length:000000000000004c $d
  D:\Temp\cclvo1nc.s:183    .text.get_month_name:0000000000000000 $t
  D:\Temp\cclvo1nc.s:189    .text.get_month_name:0000000000000000 get_month_name
  D:\Temp\cclvo1nc.s:247    .text.get_month_name:0000000000000024 $d
  D:\Temp\cclvo1nc.s:252    .text.get_day_name:0000000000000000 $t
  D:\Temp\cclvo1nc.s:258    .text.get_day_name:0000000000000000 get_day_name
  D:\Temp\cclvo1nc.s:300    .text.get_day_name:000000000000001c $d
  D:\Temp\cclvo1nc.s:305    .text.is_pressed:0000000000000000 $t
  D:\Temp\cclvo1nc.s:311    .text.is_pressed:0000000000000000 is_pressed
  D:\Temp\cclvo1nc.s:447    .text.is_highlighted:0000000000000000 $t
  D:\Temp\cclvo1nc.s:453    .text.is_highlighted:0000000000000000 is_highlighted
  D:\Temp\cclvo1nc.s:599    .text.lv_calendar_get_style:0000000000000000 $t
  D:\Temp\cclvo1nc.s:605    .text.lv_calendar_get_style:0000000000000000 lv_calendar_get_style
  D:\Temp\cclvo1nc.s:652    .text.lv_calendar_get_style:0000000000000026 $d
  D:\Temp\cclvo1nc.s:656    .text.lv_calendar_get_style:000000000000002a $t
  D:\Temp\cclvo1nc.s:701    .text.lv_calendar_get_style:0000000000000040 $d
  D:\Temp\cclvo1nc.s:706    .text.draw_header:0000000000000000 $t
  D:\Temp\cclvo1nc.s:712    .text.draw_header:0000000000000000 draw_header
  D:\Temp\cclvo1nc.s:1132   .text.draw_header:00000000000001f0 $d
  D:\Temp\cclvo1nc.s:1138   .text.get_day_names_height:0000000000000000 $t
  D:\Temp\cclvo1nc.s:1144   .text.get_day_names_height:0000000000000000 get_day_names_height
  D:\Temp\cclvo1nc.s:1234   .text.get_header_height:0000000000000000 $t
  D:\Temp\cclvo1nc.s:1240   .text.get_header_height:0000000000000000 get_header_height
  D:\Temp\cclvo1nc.s:1370   .text.draw_day_names:0000000000000000 $t
  D:\Temp\cclvo1nc.s:1376   .text.draw_day_names:0000000000000000 draw_day_names
  D:\Temp\cclvo1nc.s:1786   .text.draw_day_names:00000000000001bc $d
  D:\Temp\cclvo1nc.s:1793   .text.lv_calendar_create:0000000000000000 $t
  D:\Temp\cclvo1nc.s:1800   .text.lv_calendar_create:0000000000000000 lv_calendar_create
  D:\Temp\cclvo1nc.s:2115   .text.lv_calendar_create:0000000000000154 $d
  D:\Temp\cclvo1nc.s:4417   .text.lv_calendar_signal:0000000000000000 lv_calendar_signal
  D:\Temp\cclvo1nc.s:3879   .text.lv_calendar_design:0000000000000000 lv_calendar_design
  D:\Temp\cclvo1nc.s:2124   .text.lv_calendar_set_today_date:0000000000000000 $t
  D:\Temp\cclvo1nc.s:2131   .text.lv_calendar_set_today_date:0000000000000000 lv_calendar_set_today_date
  D:\Temp\cclvo1nc.s:2219   .text.lv_calendar_set_today_date:000000000000004c $d
  D:\Temp\cclvo1nc.s:2224   .text.lv_calendar_set_showed_date:0000000000000000 $t
  D:\Temp\cclvo1nc.s:2231   .text.lv_calendar_set_showed_date:0000000000000000 lv_calendar_set_showed_date
  D:\Temp\cclvo1nc.s:2319   .text.lv_calendar_set_showed_date:000000000000004c $d
  D:\Temp\cclvo1nc.s:2324   .text.lv_calendar_set_highlighted_dates:0000000000000000 $t
  D:\Temp\cclvo1nc.s:2331   .text.lv_calendar_set_highlighted_dates:0000000000000000 lv_calendar_set_highlighted_dates
  D:\Temp\cclvo1nc.s:2411   .text.lv_calendar_set_highlighted_dates:0000000000000040 $d
  D:\Temp\cclvo1nc.s:2416   .text.lv_calendar_set_day_names:0000000000000000 $t
  D:\Temp\cclvo1nc.s:2423   .text.lv_calendar_set_day_names:0000000000000000 lv_calendar_set_day_names
  D:\Temp\cclvo1nc.s:2499   .text.lv_calendar_set_day_names:000000000000003c $d
  D:\Temp\cclvo1nc.s:2504   .text.lv_calendar_set_month_names:0000000000000000 $t
  D:\Temp\cclvo1nc.s:2511   .text.lv_calendar_set_month_names:0000000000000000 lv_calendar_set_month_names
  D:\Temp\cclvo1nc.s:2587   .text.lv_calendar_set_month_names:000000000000003c $d
  D:\Temp\cclvo1nc.s:2592   .text.lv_calendar_get_today_date:0000000000000000 $t
  D:\Temp\cclvo1nc.s:2599   .text.lv_calendar_get_today_date:0000000000000000 lv_calendar_get_today_date
  D:\Temp\cclvo1nc.s:2645   .text.lv_calendar_get_today_date:0000000000000020 $d
  D:\Temp\cclvo1nc.s:2650   .text.lv_calendar_get_showed_date:0000000000000000 $t
ARM GAS  D:\Temp\cclvo1nc.s 			page 149


  D:\Temp\cclvo1nc.s:2657   .text.lv_calendar_get_showed_date:0000000000000000 lv_calendar_get_showed_date
  D:\Temp\cclvo1nc.s:2706   .text.lv_calendar_get_showed_date:0000000000000020 $d
  D:\Temp\cclvo1nc.s:2711   .text.lv_calendar_get_pressed_date:0000000000000000 $t
  D:\Temp\cclvo1nc.s:2718   .text.lv_calendar_get_pressed_date:0000000000000000 lv_calendar_get_pressed_date
  D:\Temp\cclvo1nc.s:2777   .text.lv_calendar_get_pressed_date:0000000000000028 $d
  D:\Temp\cclvo1nc.s:2782   .text.lv_calendar_get_highlighted_dates:0000000000000000 $t
  D:\Temp\cclvo1nc.s:2789   .text.lv_calendar_get_highlighted_dates:0000000000000000 lv_calendar_get_highlighted_dates
  D:\Temp\cclvo1nc.s:2838   .text.lv_calendar_get_highlighted_dates:0000000000000020 $d
  D:\Temp\cclvo1nc.s:2843   .text.lv_calendar_get_highlighted_dates_num:0000000000000000 $t
  D:\Temp\cclvo1nc.s:2850   .text.lv_calendar_get_highlighted_dates_num:0000000000000000 lv_calendar_get_highlighted_dates_num
  D:\Temp\cclvo1nc.s:2899   .text.lv_calendar_get_highlighted_dates_num:0000000000000020 $d
  D:\Temp\cclvo1nc.s:2904   .text.lv_calendar_get_day_names:0000000000000000 $t
  D:\Temp\cclvo1nc.s:2911   .text.lv_calendar_get_day_names:0000000000000000 lv_calendar_get_day_names
  D:\Temp\cclvo1nc.s:2960   .text.lv_calendar_get_day_names:0000000000000020 $d
  D:\Temp\cclvo1nc.s:2965   .text.lv_calendar_get_month_names:0000000000000000 $t
  D:\Temp\cclvo1nc.s:2972   .text.lv_calendar_get_month_names:0000000000000000 lv_calendar_get_month_names
  D:\Temp\cclvo1nc.s:3021   .text.lv_calendar_get_month_names:0000000000000020 $d
  D:\Temp\cclvo1nc.s:3026   .text.lv_calendar_get_day_of_week:0000000000000000 $t
  D:\Temp\cclvo1nc.s:3033   .text.lv_calendar_get_day_of_week:0000000000000000 lv_calendar_get_day_of_week
  D:\Temp\cclvo1nc.s:3111   .text.lv_calendar_get_day_of_week:0000000000000058 $d
  D:\Temp\cclvo1nc.s:3118   .text.draw_dates:0000000000000000 $t
  D:\Temp\cclvo1nc.s:3124   .text.draw_dates:0000000000000000 draw_dates
  D:\Temp\cclvo1nc.s:3865   .text.draw_dates:0000000000000324 $d
  D:\Temp\cclvo1nc.s:3873   .text.lv_calendar_design:0000000000000000 $t
  D:\Temp\cclvo1nc.s:3962   .text.lv_calendar_design:0000000000000048 $d
  D:\Temp\cclvo1nc.s:3967   .text.calculate_touched_day:0000000000000000 $t
  D:\Temp\cclvo1nc.s:3973   .text.calculate_touched_day:0000000000000000 calculate_touched_day
  D:\Temp\cclvo1nc.s:4404   .text.calculate_touched_day:00000000000001b0 $d
  D:\Temp\cclvo1nc.s:4411   .text.lv_calendar_signal:0000000000000000 $t
  D:\Temp\cclvo1nc.s:5032   .text.lv_calendar_signal:0000000000000238 $d
  D:\Temp\cclvo1nc.s:5039   .bss.ancestor_design:0000000000000000 $d
  D:\Temp\cclvo1nc.s:5043   .bss.ancestor_design:0000000000000000 ancestor_design
  D:\Temp\cclvo1nc.s:5046   .bss.ancestor_signal:0000000000000000 $d
  D:\Temp\cclvo1nc.s:5050   .bss.ancestor_signal:0000000000000000 ancestor_signal
  D:\Temp\cclvo1nc.s:5053   .rodata.day_name:0000000000000000 $d
  D:\Temp\cclvo1nc.s:5057   .rodata.day_name:0000000000000000 day_name
  D:\Temp\cclvo1nc.s:5066   .rodata.draw_header.str1.4:0000000000000000 $d
  D:\Temp\cclvo1nc.s:5072   .rodata.lv_calendar_create.str1.4:0000000000000000 $d
  D:\Temp\cclvo1nc.s:5076   .rodata.lv_calendar_get_style.str1.4:0000000000000000 $d
  D:\Temp\cclvo1nc.s:5080   .rodata.lv_calendar_signal.str1.4:0000000000000000 $d
  D:\Temp\cclvo1nc.s:5084   .rodata.month_name:0000000000000000 $d
  D:\Temp\cclvo1nc.s:5088   .rodata.month_name:0000000000000000 month_name
  D:\Temp\cclvo1nc.s:5102   .rodata.str1.4:0000000000000000 $d

UNDEFINED SYMBOLS
lv_obj_get_ext_attr
lv_debug_check_null
lv_debug_log_error
_lv_obj_get_style_int
_lv_obj_get_style_ptr
lv_draw_rect_dsc_init
lv_obj_init_draw_rect_dsc
lv_draw_rect
_lv_utils_num_to_str
strcpy
_lv_obj_disable_style_caching
lv_draw_label_dsc_init
ARM GAS  D:\Temp\cclvo1nc.s 			page 150


lv_obj_init_draw_label_dsc
lv_draw_label
_lv_txt_get_width
lv_obj_get_width
lv_obj_create
lv_obj_allocate_ext_attr
lv_style_list_init
lv_obj_set_signal_cb
lv_obj_set_design_cb
lv_obj_del
lv_obj_get_signal_cb
lv_obj_get_design_cb
lv_theme_apply
lv_obj_set_size
lv_obj_invalidate
_lv_area_is_point_on
lv_obj_handle_get_type_signal
lv_obj_clean_style_list
lv_indev_get_act
lv_indev_get_point
lv_event_send
