ARM GAS  D:\Temp\cclvo1nc.s 			page 1


   1              		.cpu cortex-m4
   2              		.eabi_attribute 27, 1
   3              		.eabi_attribute 28, 1
   4              		.eabi_attribute 20, 1
   5              		.eabi_attribute 21, 1
   6              		.eabi_attribute 23, 3
   7              		.eabi_attribute 24, 1
   8              		.eabi_attribute 25, 1
   9              		.eabi_attribute 26, 1
  10              		.eabi_attribute 30, 1
  11              		.eabi_attribute 34, 1
  12              		.eabi_attribute 18, 4
  13              		.file	"lv_calendar.c"
  14              		.text
  15              	.Ltext0:
  16              		.cfi_sections	.debug_frame
  17              		.section	.text.is_leap_year,"ax",%progbits
  18              		.align	1
  19              		.arch armv7e-m
  20              		.syntax unified
  21              		.thumb
  22              		.thumb_func
  23              		.fpu fpv4-sp-d16
  25              	is_leap_year:
  26              	.LVL0:
  27              	.LFB486:
  28              		.file 1 "lvgl/src/lv_widgets/lv_calendar.c"
   1:lvgl/src/lv_widgets/lv_calendar.c **** /**
   2:lvgl/src/lv_widgets/lv_calendar.c ****  * @file lv_calendar.c
   3:lvgl/src/lv_widgets/lv_calendar.c ****  *
   4:lvgl/src/lv_widgets/lv_calendar.c ****  */
   5:lvgl/src/lv_widgets/lv_calendar.c **** 
   6:lvgl/src/lv_widgets/lv_calendar.c **** /*********************
   7:lvgl/src/lv_widgets/lv_calendar.c ****  *      INCLUDES
   8:lvgl/src/lv_widgets/lv_calendar.c ****  *********************/
   9:lvgl/src/lv_widgets/lv_calendar.c **** #include "lv_calendar.h"
  10:lvgl/src/lv_widgets/lv_calendar.c **** #if LV_USE_CALENDAR != 0
  11:lvgl/src/lv_widgets/lv_calendar.c **** 
  12:lvgl/src/lv_widgets/lv_calendar.c **** #include "../lv_misc/lv_debug.h"
  13:lvgl/src/lv_widgets/lv_calendar.c **** #include "../lv_draw/lv_draw.h"
  14:lvgl/src/lv_widgets/lv_calendar.c **** #include "../lv_hal/lv_hal_indev.h"
  15:lvgl/src/lv_widgets/lv_calendar.c **** #include "../lv_misc/lv_utils.h"
  16:lvgl/src/lv_widgets/lv_calendar.c **** #include "../lv_core/lv_indev.h"
  17:lvgl/src/lv_widgets/lv_calendar.c **** #include "../lv_themes/lv_theme.h"
  18:lvgl/src/lv_widgets/lv_calendar.c **** #include <string.h>
  19:lvgl/src/lv_widgets/lv_calendar.c **** 
  20:lvgl/src/lv_widgets/lv_calendar.c **** /*********************
  21:lvgl/src/lv_widgets/lv_calendar.c ****  *      DEFINES
  22:lvgl/src/lv_widgets/lv_calendar.c ****  *********************/
  23:lvgl/src/lv_widgets/lv_calendar.c **** #define LV_OBJX_NAME "lv_calendar"
  24:lvgl/src/lv_widgets/lv_calendar.c **** 
  25:lvgl/src/lv_widgets/lv_calendar.c **** /**********************
  26:lvgl/src/lv_widgets/lv_calendar.c ****  *      TYPEDEFS
  27:lvgl/src/lv_widgets/lv_calendar.c ****  **********************/
  28:lvgl/src/lv_widgets/lv_calendar.c **** enum {
  29:lvgl/src/lv_widgets/lv_calendar.c ****     DAY_DRAW_PREV_MONTH,
  30:lvgl/src/lv_widgets/lv_calendar.c ****     DAY_DRAW_ACT_MONTH,
ARM GAS  D:\Temp\cclvo1nc.s 			page 2


  31:lvgl/src/lv_widgets/lv_calendar.c ****     DAY_DRAW_NEXT_MONTH,
  32:lvgl/src/lv_widgets/lv_calendar.c **** };
  33:lvgl/src/lv_widgets/lv_calendar.c **** typedef uint8_t day_draw_state_t;
  34:lvgl/src/lv_widgets/lv_calendar.c **** 
  35:lvgl/src/lv_widgets/lv_calendar.c **** /**********************
  36:lvgl/src/lv_widgets/lv_calendar.c ****  *  STATIC PROTOTYPES
  37:lvgl/src/lv_widgets/lv_calendar.c ****  **********************/
  38:lvgl/src/lv_widgets/lv_calendar.c **** static lv_design_res_t lv_calendar_design(lv_obj_t * calendar, const lv_area_t * clip_area, lv_desi
  39:lvgl/src/lv_widgets/lv_calendar.c **** static lv_res_t lv_calendar_signal(lv_obj_t * calendar, lv_signal_t sign, void * param);
  40:lvgl/src/lv_widgets/lv_calendar.c **** static lv_style_list_t * lv_calendar_get_style(lv_obj_t * calendar, uint8_t part);
  41:lvgl/src/lv_widgets/lv_calendar.c **** static bool calculate_touched_day(lv_obj_t * calendar, const lv_point_t * touched_point);
  42:lvgl/src/lv_widgets/lv_calendar.c **** static lv_coord_t get_header_height(lv_obj_t * calendar);
  43:lvgl/src/lv_widgets/lv_calendar.c **** static lv_coord_t get_day_names_height(lv_obj_t * calendar);
  44:lvgl/src/lv_widgets/lv_calendar.c **** static void draw_header(lv_obj_t * calendar, const lv_area_t * mask);
  45:lvgl/src/lv_widgets/lv_calendar.c **** static void draw_day_names(lv_obj_t * calendar, const lv_area_t * mask);
  46:lvgl/src/lv_widgets/lv_calendar.c **** static void draw_dates(lv_obj_t * calendar, const lv_area_t * clip_area);
  47:lvgl/src/lv_widgets/lv_calendar.c **** static bool is_highlighted(lv_obj_t * calendar, day_draw_state_t draw_state, int32_t year, int32_t 
  48:lvgl/src/lv_widgets/lv_calendar.c **** static bool is_pressed(lv_obj_t * calendar, day_draw_state_t draw_state, int32_t year, int32_t mont
  49:lvgl/src/lv_widgets/lv_calendar.c **** static const char * get_day_name(lv_obj_t * calendar, uint8_t day);
  50:lvgl/src/lv_widgets/lv_calendar.c **** static const char * get_month_name(lv_obj_t * calendar, int32_t month);
  51:lvgl/src/lv_widgets/lv_calendar.c **** static uint8_t get_month_length(int32_t year, int32_t month);
  52:lvgl/src/lv_widgets/lv_calendar.c **** static uint8_t is_leap_year(uint32_t year);
  53:lvgl/src/lv_widgets/lv_calendar.c **** 
  54:lvgl/src/lv_widgets/lv_calendar.c **** /**********************
  55:lvgl/src/lv_widgets/lv_calendar.c ****  *  STATIC VARIABLES
  56:lvgl/src/lv_widgets/lv_calendar.c ****  **********************/
  57:lvgl/src/lv_widgets/lv_calendar.c **** static lv_signal_cb_t ancestor_signal;
  58:lvgl/src/lv_widgets/lv_calendar.c **** static lv_design_cb_t ancestor_design;
  59:lvgl/src/lv_widgets/lv_calendar.c **** #if LV_CALENDAR_WEEK_STARTS_MONDAY != 0
  60:lvgl/src/lv_widgets/lv_calendar.c **** static const char * day_name[7]    = {"Mo", "Tu", "We", "Th", "Fr", "Sa", "Su"};
  61:lvgl/src/lv_widgets/lv_calendar.c **** #else
  62:lvgl/src/lv_widgets/lv_calendar.c **** static const char * day_name[7]    = {"Su", "Mo", "Tu", "We", "Th", "Fr", "Sa"};
  63:lvgl/src/lv_widgets/lv_calendar.c **** #endif
  64:lvgl/src/lv_widgets/lv_calendar.c **** static const char * month_name[12] = {"January", "February", "March",     "April",   "May",      "J
  65:lvgl/src/lv_widgets/lv_calendar.c ****                                       "July",    "August",   "September", "October", "November", "D
  66:lvgl/src/lv_widgets/lv_calendar.c ****                                      };
  67:lvgl/src/lv_widgets/lv_calendar.c **** 
  68:lvgl/src/lv_widgets/lv_calendar.c **** /**********************
  69:lvgl/src/lv_widgets/lv_calendar.c ****  *      MACROS
  70:lvgl/src/lv_widgets/lv_calendar.c ****  **********************/
  71:lvgl/src/lv_widgets/lv_calendar.c **** 
  72:lvgl/src/lv_widgets/lv_calendar.c **** /**********************
  73:lvgl/src/lv_widgets/lv_calendar.c ****  *   GLOBAL FUNCTIONS
  74:lvgl/src/lv_widgets/lv_calendar.c ****  **********************/
  75:lvgl/src/lv_widgets/lv_calendar.c **** 
  76:lvgl/src/lv_widgets/lv_calendar.c **** /**
  77:lvgl/src/lv_widgets/lv_calendar.c ****  * Create a calendar object
  78:lvgl/src/lv_widgets/lv_calendar.c ****  * @param par pointer to an object, it will be the parent of the new calendar
  79:lvgl/src/lv_widgets/lv_calendar.c ****  * @param copy pointer to a calendar object, if not NULL then the new object will be copied from it
  80:lvgl/src/lv_widgets/lv_calendar.c ****  * @return pointer to the created calendar
  81:lvgl/src/lv_widgets/lv_calendar.c ****  */
  82:lvgl/src/lv_widgets/lv_calendar.c **** lv_obj_t * lv_calendar_create(lv_obj_t * par, const lv_obj_t * copy)
  83:lvgl/src/lv_widgets/lv_calendar.c **** {
  84:lvgl/src/lv_widgets/lv_calendar.c ****     LV_LOG_TRACE("calendar create started");
  85:lvgl/src/lv_widgets/lv_calendar.c **** 
  86:lvgl/src/lv_widgets/lv_calendar.c ****     /*Create the ancestor of calendar*/
  87:lvgl/src/lv_widgets/lv_calendar.c ****     lv_obj_t * calendar = lv_obj_create(par, copy);
ARM GAS  D:\Temp\cclvo1nc.s 			page 3


  88:lvgl/src/lv_widgets/lv_calendar.c ****     LV_ASSERT_MEM(calendar);
  89:lvgl/src/lv_widgets/lv_calendar.c ****     if(calendar == NULL) return NULL;
  90:lvgl/src/lv_widgets/lv_calendar.c **** 
  91:lvgl/src/lv_widgets/lv_calendar.c ****     /*Allocate the calendar type specific extended data*/
  92:lvgl/src/lv_widgets/lv_calendar.c ****     lv_calendar_ext_t * ext = lv_obj_allocate_ext_attr(calendar, sizeof(lv_calendar_ext_t));
  93:lvgl/src/lv_widgets/lv_calendar.c ****     LV_ASSERT_MEM(ext);
  94:lvgl/src/lv_widgets/lv_calendar.c ****     if(ext == NULL) {
  95:lvgl/src/lv_widgets/lv_calendar.c ****         lv_obj_del(calendar);
  96:lvgl/src/lv_widgets/lv_calendar.c ****         return NULL;
  97:lvgl/src/lv_widgets/lv_calendar.c ****     }
  98:lvgl/src/lv_widgets/lv_calendar.c **** 
  99:lvgl/src/lv_widgets/lv_calendar.c ****     if(ancestor_signal == NULL) ancestor_signal = lv_obj_get_signal_cb(calendar);
 100:lvgl/src/lv_widgets/lv_calendar.c ****     if(ancestor_design == NULL) ancestor_design = lv_obj_get_design_cb(calendar);
 101:lvgl/src/lv_widgets/lv_calendar.c **** 
 102:lvgl/src/lv_widgets/lv_calendar.c ****     /*Initialize the allocated 'ext' */
 103:lvgl/src/lv_widgets/lv_calendar.c ****     ext->today.year  = 2020;
 104:lvgl/src/lv_widgets/lv_calendar.c ****     ext->today.month = 1;
 105:lvgl/src/lv_widgets/lv_calendar.c ****     ext->today.day   = 1;
 106:lvgl/src/lv_widgets/lv_calendar.c **** 
 107:lvgl/src/lv_widgets/lv_calendar.c ****     ext->showed_date.year  = 2020;
 108:lvgl/src/lv_widgets/lv_calendar.c ****     ext->showed_date.month = 1;
 109:lvgl/src/lv_widgets/lv_calendar.c ****     ext->showed_date.day   = 1;
 110:lvgl/src/lv_widgets/lv_calendar.c **** 
 111:lvgl/src/lv_widgets/lv_calendar.c ****     ext->pressed_date.year  = 0;
 112:lvgl/src/lv_widgets/lv_calendar.c ****     ext->pressed_date.month = 0;
 113:lvgl/src/lv_widgets/lv_calendar.c ****     ext->pressed_date.day   = 0;
 114:lvgl/src/lv_widgets/lv_calendar.c **** 
 115:lvgl/src/lv_widgets/lv_calendar.c ****     ext->highlighted_dates      = NULL;
 116:lvgl/src/lv_widgets/lv_calendar.c ****     ext->highlighted_dates_num  = 0;
 117:lvgl/src/lv_widgets/lv_calendar.c ****     ext->day_names              = NULL;
 118:lvgl/src/lv_widgets/lv_calendar.c ****     ext->month_names            = NULL;
 119:lvgl/src/lv_widgets/lv_calendar.c **** 
 120:lvgl/src/lv_widgets/lv_calendar.c ****     ext->btn_pressing = 0;
 121:lvgl/src/lv_widgets/lv_calendar.c **** 
 122:lvgl/src/lv_widgets/lv_calendar.c ****     lv_style_list_init(&ext->style_date_nums);
 123:lvgl/src/lv_widgets/lv_calendar.c ****     lv_style_list_init(&ext->style_day_names);
 124:lvgl/src/lv_widgets/lv_calendar.c ****     lv_style_list_init(&ext->style_header);
 125:lvgl/src/lv_widgets/lv_calendar.c ****     ext->style_date_nums.skip_trans = 1;
 126:lvgl/src/lv_widgets/lv_calendar.c ****     ext->style_day_names.skip_trans = 1;
 127:lvgl/src/lv_widgets/lv_calendar.c ****     ext->style_header.skip_trans = 1;
 128:lvgl/src/lv_widgets/lv_calendar.c **** 
 129:lvgl/src/lv_widgets/lv_calendar.c ****     /*The signal and design functions are not copied so set them here*/
 130:lvgl/src/lv_widgets/lv_calendar.c ****     lv_obj_set_signal_cb(calendar, lv_calendar_signal);
 131:lvgl/src/lv_widgets/lv_calendar.c ****     lv_obj_set_design_cb(calendar, lv_calendar_design);
 132:lvgl/src/lv_widgets/lv_calendar.c **** 
 133:lvgl/src/lv_widgets/lv_calendar.c ****     /*Init the new calendar calendar*/
 134:lvgl/src/lv_widgets/lv_calendar.c ****     if(copy == NULL) {
 135:lvgl/src/lv_widgets/lv_calendar.c ****         lv_theme_apply(calendar, LV_THEME_CALENDAR);
 136:lvgl/src/lv_widgets/lv_calendar.c **** 
 137:lvgl/src/lv_widgets/lv_calendar.c ****         lv_obj_set_size(calendar, 5 * LV_DPI / 2, 5 * LV_DPI / 2);
 138:lvgl/src/lv_widgets/lv_calendar.c **** 
 139:lvgl/src/lv_widgets/lv_calendar.c ****     }
 140:lvgl/src/lv_widgets/lv_calendar.c ****     /*Copy an existing calendar*/
 141:lvgl/src/lv_widgets/lv_calendar.c ****     else {
 142:lvgl/src/lv_widgets/lv_calendar.c ****         lv_calendar_ext_t * copy_ext = lv_obj_get_ext_attr(copy);
 143:lvgl/src/lv_widgets/lv_calendar.c ****         ext->today.year              = copy_ext->today.year;
 144:lvgl/src/lv_widgets/lv_calendar.c ****         ext->today.month             = copy_ext->today.month;
ARM GAS  D:\Temp\cclvo1nc.s 			page 4


 145:lvgl/src/lv_widgets/lv_calendar.c ****         ext->today.day               = copy_ext->today.day;
 146:lvgl/src/lv_widgets/lv_calendar.c **** 
 147:lvgl/src/lv_widgets/lv_calendar.c ****         ext->showed_date.year  = copy_ext->showed_date.year;
 148:lvgl/src/lv_widgets/lv_calendar.c ****         ext->showed_date.month = copy_ext->showed_date.month;
 149:lvgl/src/lv_widgets/lv_calendar.c ****         ext->showed_date.day   = copy_ext->showed_date.day;
 150:lvgl/src/lv_widgets/lv_calendar.c **** 
 151:lvgl/src/lv_widgets/lv_calendar.c ****         ext->highlighted_dates     = copy_ext->highlighted_dates;
 152:lvgl/src/lv_widgets/lv_calendar.c ****         ext->highlighted_dates_num = copy_ext->highlighted_dates_num;
 153:lvgl/src/lv_widgets/lv_calendar.c ****         ext->day_names             = copy_ext->day_names;
 154:lvgl/src/lv_widgets/lv_calendar.c **** 
 155:lvgl/src/lv_widgets/lv_calendar.c ****         ext->month_names            = copy_ext->month_names;
 156:lvgl/src/lv_widgets/lv_calendar.c ****         ext->style_header           = copy_ext->style_header;
 157:lvgl/src/lv_widgets/lv_calendar.c ****         ext->style_day_names        = copy_ext->style_day_names;
 158:lvgl/src/lv_widgets/lv_calendar.c ****         /*Refresh the style with new signal function*/
 159:lvgl/src/lv_widgets/lv_calendar.c ****         //        lv_obj_refresh_style(new_calendar);
 160:lvgl/src/lv_widgets/lv_calendar.c ****     }
 161:lvgl/src/lv_widgets/lv_calendar.c **** 
 162:lvgl/src/lv_widgets/lv_calendar.c ****     LV_LOG_INFO("calendar created");
 163:lvgl/src/lv_widgets/lv_calendar.c **** 
 164:lvgl/src/lv_widgets/lv_calendar.c ****     return calendar;
 165:lvgl/src/lv_widgets/lv_calendar.c **** }
 166:lvgl/src/lv_widgets/lv_calendar.c **** 
 167:lvgl/src/lv_widgets/lv_calendar.c **** /*======================
 168:lvgl/src/lv_widgets/lv_calendar.c ****  * Add/remove functions
 169:lvgl/src/lv_widgets/lv_calendar.c ****  *=====================*/
 170:lvgl/src/lv_widgets/lv_calendar.c **** 
 171:lvgl/src/lv_widgets/lv_calendar.c **** /*
 172:lvgl/src/lv_widgets/lv_calendar.c ****  * New object specific "add" or "remove" functions come here
 173:lvgl/src/lv_widgets/lv_calendar.c ****  */
 174:lvgl/src/lv_widgets/lv_calendar.c **** 
 175:lvgl/src/lv_widgets/lv_calendar.c **** /*=====================
 176:lvgl/src/lv_widgets/lv_calendar.c ****  * Setter functions
 177:lvgl/src/lv_widgets/lv_calendar.c ****  *====================*/
 178:lvgl/src/lv_widgets/lv_calendar.c **** 
 179:lvgl/src/lv_widgets/lv_calendar.c **** /**
 180:lvgl/src/lv_widgets/lv_calendar.c ****  * Set the today's date
 181:lvgl/src/lv_widgets/lv_calendar.c ****  * @param calendar pointer to a calendar object
 182:lvgl/src/lv_widgets/lv_calendar.c ****  * @param today pointer to an `lv_calendar_date_t` variable containing the date of today. The value
 183:lvgl/src/lv_widgets/lv_calendar.c ****  * will be saved it can be local variable too.
 184:lvgl/src/lv_widgets/lv_calendar.c ****  */
 185:lvgl/src/lv_widgets/lv_calendar.c **** void lv_calendar_set_today_date(lv_obj_t * calendar, lv_calendar_date_t * today)
 186:lvgl/src/lv_widgets/lv_calendar.c **** {
 187:lvgl/src/lv_widgets/lv_calendar.c ****     LV_ASSERT_OBJ(calendar, LV_OBJX_NAME);
 188:lvgl/src/lv_widgets/lv_calendar.c ****     LV_ASSERT_NULL(today);
 189:lvgl/src/lv_widgets/lv_calendar.c **** 
 190:lvgl/src/lv_widgets/lv_calendar.c ****     lv_calendar_ext_t * ext = lv_obj_get_ext_attr(calendar);
 191:lvgl/src/lv_widgets/lv_calendar.c ****     ext->today.year         = today->year;
 192:lvgl/src/lv_widgets/lv_calendar.c ****     ext->today.month        = today->month;
 193:lvgl/src/lv_widgets/lv_calendar.c ****     ext->today.day          = today->day;
 194:lvgl/src/lv_widgets/lv_calendar.c **** 
 195:lvgl/src/lv_widgets/lv_calendar.c ****     lv_obj_invalidate(calendar);
 196:lvgl/src/lv_widgets/lv_calendar.c **** }
 197:lvgl/src/lv_widgets/lv_calendar.c **** 
 198:lvgl/src/lv_widgets/lv_calendar.c **** /**
 199:lvgl/src/lv_widgets/lv_calendar.c ****  * Set the currently showed
 200:lvgl/src/lv_widgets/lv_calendar.c ****  * @param calendar pointer to a calendar object
 201:lvgl/src/lv_widgets/lv_calendar.c ****  * @param showed pointer to an `lv_calendar_date_t` variable containing the date to show. The value
ARM GAS  D:\Temp\cclvo1nc.s 			page 5


 202:lvgl/src/lv_widgets/lv_calendar.c ****  * will be saved it can be local variable too.
 203:lvgl/src/lv_widgets/lv_calendar.c ****  */
 204:lvgl/src/lv_widgets/lv_calendar.c **** void lv_calendar_set_showed_date(lv_obj_t * calendar, lv_calendar_date_t * showed)
 205:lvgl/src/lv_widgets/lv_calendar.c **** {
 206:lvgl/src/lv_widgets/lv_calendar.c ****     LV_ASSERT_OBJ(calendar, LV_OBJX_NAME);
 207:lvgl/src/lv_widgets/lv_calendar.c ****     LV_ASSERT_NULL(showed);
 208:lvgl/src/lv_widgets/lv_calendar.c **** 
 209:lvgl/src/lv_widgets/lv_calendar.c ****     lv_calendar_ext_t * ext = lv_obj_get_ext_attr(calendar);
 210:lvgl/src/lv_widgets/lv_calendar.c ****     ext->showed_date.year   = showed->year;
 211:lvgl/src/lv_widgets/lv_calendar.c ****     ext->showed_date.month  = showed->month;
 212:lvgl/src/lv_widgets/lv_calendar.c ****     ext->showed_date.day    = showed->day;
 213:lvgl/src/lv_widgets/lv_calendar.c **** 
 214:lvgl/src/lv_widgets/lv_calendar.c ****     lv_obj_invalidate(calendar);
 215:lvgl/src/lv_widgets/lv_calendar.c **** }
 216:lvgl/src/lv_widgets/lv_calendar.c **** 
 217:lvgl/src/lv_widgets/lv_calendar.c **** /**
 218:lvgl/src/lv_widgets/lv_calendar.c ****  * Set the highlighted dates
 219:lvgl/src/lv_widgets/lv_calendar.c ****  * @param calendar pointer to a calendar object
 220:lvgl/src/lv_widgets/lv_calendar.c ****  * @param highlighted pointer to an `lv_calendar_date_t` array containing the dates. ONLY A POINTER
 221:lvgl/src/lv_widgets/lv_calendar.c ****  * WILL BE SAVED! CAN'T BE LOCAL ARRAY.
 222:lvgl/src/lv_widgets/lv_calendar.c ****  * @param date_num number of dates in the array
 223:lvgl/src/lv_widgets/lv_calendar.c ****  */
 224:lvgl/src/lv_widgets/lv_calendar.c **** void lv_calendar_set_highlighted_dates(lv_obj_t * calendar, lv_calendar_date_t highlighted[], uint1
 225:lvgl/src/lv_widgets/lv_calendar.c **** {
 226:lvgl/src/lv_widgets/lv_calendar.c ****     LV_ASSERT_OBJ(calendar, LV_OBJX_NAME);
 227:lvgl/src/lv_widgets/lv_calendar.c ****     LV_ASSERT_NULL(highlighted);
 228:lvgl/src/lv_widgets/lv_calendar.c **** 
 229:lvgl/src/lv_widgets/lv_calendar.c ****     lv_calendar_ext_t * ext    = lv_obj_get_ext_attr(calendar);
 230:lvgl/src/lv_widgets/lv_calendar.c ****     ext->highlighted_dates     = highlighted;
 231:lvgl/src/lv_widgets/lv_calendar.c ****     ext->highlighted_dates_num = date_num;
 232:lvgl/src/lv_widgets/lv_calendar.c **** 
 233:lvgl/src/lv_widgets/lv_calendar.c ****     lv_obj_invalidate(calendar);
 234:lvgl/src/lv_widgets/lv_calendar.c **** }
 235:lvgl/src/lv_widgets/lv_calendar.c **** 
 236:lvgl/src/lv_widgets/lv_calendar.c **** /**
 237:lvgl/src/lv_widgets/lv_calendar.c ****  * Set the name of the days
 238:lvgl/src/lv_widgets/lv_calendar.c ****  * @param calendar pointer to a calendar object
 239:lvgl/src/lv_widgets/lv_calendar.c ****  * @param day_names pointer to an array with the names. E.g. `const char * days[7] = {"Sun", "Mon",
 240:lvgl/src/lv_widgets/lv_calendar.c ****  * ...}` Only the pointer will be saved so this variable can't be local which will be destroyed
 241:lvgl/src/lv_widgets/lv_calendar.c ****  * later.
 242:lvgl/src/lv_widgets/lv_calendar.c ****  */
 243:lvgl/src/lv_widgets/lv_calendar.c **** void lv_calendar_set_day_names(lv_obj_t * calendar, const char ** day_names)
 244:lvgl/src/lv_widgets/lv_calendar.c **** {
 245:lvgl/src/lv_widgets/lv_calendar.c ****     LV_ASSERT_OBJ(calendar, LV_OBJX_NAME);
 246:lvgl/src/lv_widgets/lv_calendar.c ****     LV_ASSERT_NULL(day_names);
 247:lvgl/src/lv_widgets/lv_calendar.c **** 
 248:lvgl/src/lv_widgets/lv_calendar.c ****     lv_calendar_ext_t * ext = lv_obj_get_ext_attr(calendar);
 249:lvgl/src/lv_widgets/lv_calendar.c ****     ext->day_names          = day_names;
 250:lvgl/src/lv_widgets/lv_calendar.c ****     lv_obj_invalidate(calendar);
 251:lvgl/src/lv_widgets/lv_calendar.c **** }
 252:lvgl/src/lv_widgets/lv_calendar.c **** 
 253:lvgl/src/lv_widgets/lv_calendar.c **** /**
 254:lvgl/src/lv_widgets/lv_calendar.c ****  * Set the name of the month
 255:lvgl/src/lv_widgets/lv_calendar.c ****  * @param calendar pointer to a calendar object
 256:lvgl/src/lv_widgets/lv_calendar.c ****  * @param month_names pointer to an array with the names. E.g. `const char * days[12] = {"Jan", "Fe
 257:lvgl/src/lv_widgets/lv_calendar.c ****  * ...}` Only the pointer will be saved so this variable can't be local which will be destroyed
 258:lvgl/src/lv_widgets/lv_calendar.c ****  * later.
ARM GAS  D:\Temp\cclvo1nc.s 			page 6


 259:lvgl/src/lv_widgets/lv_calendar.c ****  */
 260:lvgl/src/lv_widgets/lv_calendar.c **** void lv_calendar_set_month_names(lv_obj_t * calendar, const char ** month_names)
 261:lvgl/src/lv_widgets/lv_calendar.c **** {
 262:lvgl/src/lv_widgets/lv_calendar.c ****     LV_ASSERT_OBJ(calendar, LV_OBJX_NAME);
 263:lvgl/src/lv_widgets/lv_calendar.c ****     LV_ASSERT_NULL(month_names);
 264:lvgl/src/lv_widgets/lv_calendar.c **** 
 265:lvgl/src/lv_widgets/lv_calendar.c ****     lv_calendar_ext_t * ext = lv_obj_get_ext_attr(calendar);
 266:lvgl/src/lv_widgets/lv_calendar.c ****     ext->month_names        = month_names;
 267:lvgl/src/lv_widgets/lv_calendar.c ****     lv_obj_invalidate(calendar);
 268:lvgl/src/lv_widgets/lv_calendar.c **** }
 269:lvgl/src/lv_widgets/lv_calendar.c **** 
 270:lvgl/src/lv_widgets/lv_calendar.c **** /*=====================
 271:lvgl/src/lv_widgets/lv_calendar.c ****  * Getter functions
 272:lvgl/src/lv_widgets/lv_calendar.c ****  *====================*/
 273:lvgl/src/lv_widgets/lv_calendar.c **** 
 274:lvgl/src/lv_widgets/lv_calendar.c **** /**
 275:lvgl/src/lv_widgets/lv_calendar.c ****  * Get the today's date
 276:lvgl/src/lv_widgets/lv_calendar.c ****  * @param calendar pointer to a calendar object
 277:lvgl/src/lv_widgets/lv_calendar.c ****  * @return return pointer to an `lv_calendar_date_t` variable containing the date of today.
 278:lvgl/src/lv_widgets/lv_calendar.c ****  */
 279:lvgl/src/lv_widgets/lv_calendar.c **** lv_calendar_date_t * lv_calendar_get_today_date(const lv_obj_t * calendar)
 280:lvgl/src/lv_widgets/lv_calendar.c **** {
 281:lvgl/src/lv_widgets/lv_calendar.c ****     LV_ASSERT_OBJ(calendar, LV_OBJX_NAME);
 282:lvgl/src/lv_widgets/lv_calendar.c **** 
 283:lvgl/src/lv_widgets/lv_calendar.c ****     lv_calendar_ext_t * ext = lv_obj_get_ext_attr(calendar);
 284:lvgl/src/lv_widgets/lv_calendar.c ****     return &ext->today;
 285:lvgl/src/lv_widgets/lv_calendar.c **** }
 286:lvgl/src/lv_widgets/lv_calendar.c **** 
 287:lvgl/src/lv_widgets/lv_calendar.c **** /**
 288:lvgl/src/lv_widgets/lv_calendar.c ****  * Get the currently showed
 289:lvgl/src/lv_widgets/lv_calendar.c ****  * @param calendar pointer to a calendar object
 290:lvgl/src/lv_widgets/lv_calendar.c ****  * @return pointer to an `lv_calendar_date_t` variable containing the date is being shown.
 291:lvgl/src/lv_widgets/lv_calendar.c ****  */
 292:lvgl/src/lv_widgets/lv_calendar.c **** lv_calendar_date_t * lv_calendar_get_showed_date(const lv_obj_t * calendar)
 293:lvgl/src/lv_widgets/lv_calendar.c **** {
 294:lvgl/src/lv_widgets/lv_calendar.c ****     LV_ASSERT_OBJ(calendar, LV_OBJX_NAME);
 295:lvgl/src/lv_widgets/lv_calendar.c **** 
 296:lvgl/src/lv_widgets/lv_calendar.c ****     lv_calendar_ext_t * ext = lv_obj_get_ext_attr(calendar);
 297:lvgl/src/lv_widgets/lv_calendar.c ****     return &ext->showed_date;
 298:lvgl/src/lv_widgets/lv_calendar.c **** }
 299:lvgl/src/lv_widgets/lv_calendar.c **** 
 300:lvgl/src/lv_widgets/lv_calendar.c **** /**
 301:lvgl/src/lv_widgets/lv_calendar.c ****  * Get the pressed date.
 302:lvgl/src/lv_widgets/lv_calendar.c ****  * @param calendar pointer to a calendar object
 303:lvgl/src/lv_widgets/lv_calendar.c ****  * @return pointer to an `lv_calendar_date_t` variable containing the pressed date.
 304:lvgl/src/lv_widgets/lv_calendar.c ****  * `NULL` if not date pressed (e.g. the header)
 305:lvgl/src/lv_widgets/lv_calendar.c ****  */
 306:lvgl/src/lv_widgets/lv_calendar.c **** lv_calendar_date_t * lv_calendar_get_pressed_date(const lv_obj_t * calendar)
 307:lvgl/src/lv_widgets/lv_calendar.c **** {
 308:lvgl/src/lv_widgets/lv_calendar.c ****     LV_ASSERT_OBJ(calendar, LV_OBJX_NAME);
 309:lvgl/src/lv_widgets/lv_calendar.c **** 
 310:lvgl/src/lv_widgets/lv_calendar.c ****     lv_calendar_ext_t * ext = lv_obj_get_ext_attr(calendar);
 311:lvgl/src/lv_widgets/lv_calendar.c ****     return ext->pressed_date.year != 0 ? &ext->pressed_date : NULL;
 312:lvgl/src/lv_widgets/lv_calendar.c **** }
 313:lvgl/src/lv_widgets/lv_calendar.c **** 
 314:lvgl/src/lv_widgets/lv_calendar.c **** /**
 315:lvgl/src/lv_widgets/lv_calendar.c ****  * Get the highlighted dates
ARM GAS  D:\Temp\cclvo1nc.s 			page 7


 316:lvgl/src/lv_widgets/lv_calendar.c ****  * @param calendar pointer to a calendar object
 317:lvgl/src/lv_widgets/lv_calendar.c ****  * @return pointer to an `lv_calendar_date_t` array containing the dates.
 318:lvgl/src/lv_widgets/lv_calendar.c ****  */
 319:lvgl/src/lv_widgets/lv_calendar.c **** lv_calendar_date_t * lv_calendar_get_highlighted_dates(const lv_obj_t * calendar)
 320:lvgl/src/lv_widgets/lv_calendar.c **** {
 321:lvgl/src/lv_widgets/lv_calendar.c ****     LV_ASSERT_OBJ(calendar, LV_OBJX_NAME);
 322:lvgl/src/lv_widgets/lv_calendar.c **** 
 323:lvgl/src/lv_widgets/lv_calendar.c ****     lv_calendar_ext_t * ext = lv_obj_get_ext_attr(calendar);
 324:lvgl/src/lv_widgets/lv_calendar.c ****     return ext->highlighted_dates;
 325:lvgl/src/lv_widgets/lv_calendar.c **** }
 326:lvgl/src/lv_widgets/lv_calendar.c **** 
 327:lvgl/src/lv_widgets/lv_calendar.c **** /**
 328:lvgl/src/lv_widgets/lv_calendar.c ****  * Get the number of the highlighted dates
 329:lvgl/src/lv_widgets/lv_calendar.c ****  * @param calendar pointer to a calendar object
 330:lvgl/src/lv_widgets/lv_calendar.c ****  * @return number of highlighted days
 331:lvgl/src/lv_widgets/lv_calendar.c ****  */
 332:lvgl/src/lv_widgets/lv_calendar.c **** uint16_t lv_calendar_get_highlighted_dates_num(const lv_obj_t * calendar)
 333:lvgl/src/lv_widgets/lv_calendar.c **** {
 334:lvgl/src/lv_widgets/lv_calendar.c ****     LV_ASSERT_OBJ(calendar, LV_OBJX_NAME);
 335:lvgl/src/lv_widgets/lv_calendar.c **** 
 336:lvgl/src/lv_widgets/lv_calendar.c ****     lv_calendar_ext_t * ext = lv_obj_get_ext_attr(calendar);
 337:lvgl/src/lv_widgets/lv_calendar.c ****     return ext->highlighted_dates_num;
 338:lvgl/src/lv_widgets/lv_calendar.c **** }
 339:lvgl/src/lv_widgets/lv_calendar.c **** 
 340:lvgl/src/lv_widgets/lv_calendar.c **** /**
 341:lvgl/src/lv_widgets/lv_calendar.c ****  * Get the name of the days
 342:lvgl/src/lv_widgets/lv_calendar.c ****  * @param calendar pointer to a calendar object
 343:lvgl/src/lv_widgets/lv_calendar.c ****  * @return pointer to the array of day names
 344:lvgl/src/lv_widgets/lv_calendar.c ****  */
 345:lvgl/src/lv_widgets/lv_calendar.c **** const char ** lv_calendar_get_day_names(const lv_obj_t * calendar)
 346:lvgl/src/lv_widgets/lv_calendar.c **** {
 347:lvgl/src/lv_widgets/lv_calendar.c ****     LV_ASSERT_OBJ(calendar, LV_OBJX_NAME);
 348:lvgl/src/lv_widgets/lv_calendar.c **** 
 349:lvgl/src/lv_widgets/lv_calendar.c ****     lv_calendar_ext_t * ext = lv_obj_get_ext_attr(calendar);
 350:lvgl/src/lv_widgets/lv_calendar.c ****     return ext->day_names;
 351:lvgl/src/lv_widgets/lv_calendar.c **** }
 352:lvgl/src/lv_widgets/lv_calendar.c **** 
 353:lvgl/src/lv_widgets/lv_calendar.c **** /**
 354:lvgl/src/lv_widgets/lv_calendar.c ****  * Get the name of the month
 355:lvgl/src/lv_widgets/lv_calendar.c ****  * @param calendar pointer to a calendar object
 356:lvgl/src/lv_widgets/lv_calendar.c ****  * @return pointer to the array of month names
 357:lvgl/src/lv_widgets/lv_calendar.c ****  */
 358:lvgl/src/lv_widgets/lv_calendar.c **** const char ** lv_calendar_get_month_names(const lv_obj_t * calendar)
 359:lvgl/src/lv_widgets/lv_calendar.c **** {
 360:lvgl/src/lv_widgets/lv_calendar.c ****     LV_ASSERT_OBJ(calendar, LV_OBJX_NAME);
 361:lvgl/src/lv_widgets/lv_calendar.c **** 
 362:lvgl/src/lv_widgets/lv_calendar.c ****     lv_calendar_ext_t * ext = lv_obj_get_ext_attr(calendar);
 363:lvgl/src/lv_widgets/lv_calendar.c ****     return ext->month_names;
 364:lvgl/src/lv_widgets/lv_calendar.c **** }
 365:lvgl/src/lv_widgets/lv_calendar.c **** 
 366:lvgl/src/lv_widgets/lv_calendar.c **** /**
 367:lvgl/src/lv_widgets/lv_calendar.c ****  * Get the day of the week
 368:lvgl/src/lv_widgets/lv_calendar.c ****  * @param year a year
 369:lvgl/src/lv_widgets/lv_calendar.c ****  * @param month a month (1..12)
 370:lvgl/src/lv_widgets/lv_calendar.c ****  * @param day a day (1..31)
 371:lvgl/src/lv_widgets/lv_calendar.c ****  * @return [0..6] which means [Sun..Sat] or [Mon..Sun] depending on LV_CALENDAR_WEEK_STARTS_MONDAY
 372:lvgl/src/lv_widgets/lv_calendar.c ****  */
ARM GAS  D:\Temp\cclvo1nc.s 			page 8


 373:lvgl/src/lv_widgets/lv_calendar.c **** uint8_t lv_calendar_get_day_of_week(uint32_t year, uint32_t month, uint32_t day)
 374:lvgl/src/lv_widgets/lv_calendar.c **** {
 375:lvgl/src/lv_widgets/lv_calendar.c ****     uint32_t a = month < 3 ? 1 : 0;
 376:lvgl/src/lv_widgets/lv_calendar.c ****     uint32_t b = year - a;
 377:lvgl/src/lv_widgets/lv_calendar.c **** 
 378:lvgl/src/lv_widgets/lv_calendar.c **** #if LV_CALENDAR_WEEK_STARTS_MONDAY
 379:lvgl/src/lv_widgets/lv_calendar.c ****     uint32_t day_of_week = (day + (31 * (month - 2 + 12 * a) / 12) + b + (b / 4) - (b / 100) + (b /
 380:lvgl/src/lv_widgets/lv_calendar.c **** #else
 381:lvgl/src/lv_widgets/lv_calendar.c ****     uint32_t day_of_week = (day + (31 * (month - 2 + 12 * a) / 12) + b + (b / 4) - (b / 100) + (b /
 382:lvgl/src/lv_widgets/lv_calendar.c **** #endif
 383:lvgl/src/lv_widgets/lv_calendar.c **** 
 384:lvgl/src/lv_widgets/lv_calendar.c ****     return day_of_week;
 385:lvgl/src/lv_widgets/lv_calendar.c **** }
 386:lvgl/src/lv_widgets/lv_calendar.c **** 
 387:lvgl/src/lv_widgets/lv_calendar.c **** /*=====================
 388:lvgl/src/lv_widgets/lv_calendar.c ****  * Other functions
 389:lvgl/src/lv_widgets/lv_calendar.c ****  *====================*/
 390:lvgl/src/lv_widgets/lv_calendar.c **** 
 391:lvgl/src/lv_widgets/lv_calendar.c **** /*
 392:lvgl/src/lv_widgets/lv_calendar.c ****  * New object specific "other" functions come here
 393:lvgl/src/lv_widgets/lv_calendar.c ****  */
 394:lvgl/src/lv_widgets/lv_calendar.c **** 
 395:lvgl/src/lv_widgets/lv_calendar.c **** /**********************
 396:lvgl/src/lv_widgets/lv_calendar.c ****  *   STATIC FUNCTIONS
 397:lvgl/src/lv_widgets/lv_calendar.c ****  **********************/
 398:lvgl/src/lv_widgets/lv_calendar.c **** 
 399:lvgl/src/lv_widgets/lv_calendar.c **** /**
 400:lvgl/src/lv_widgets/lv_calendar.c ****  * Handle the drawing related tasks of the calendars
 401:lvgl/src/lv_widgets/lv_calendar.c ****  * @param calendar pointer to an object
 402:lvgl/src/lv_widgets/lv_calendar.c ****  * @param clip_area the object will be drawn only in this area
 403:lvgl/src/lv_widgets/lv_calendar.c ****  * @param mode LV_DESIGN_COVER_CHK: only check if the object fully covers the 'mask_p' area
 404:lvgl/src/lv_widgets/lv_calendar.c ****  *                                  (return 'true' if yes)
 405:lvgl/src/lv_widgets/lv_calendar.c ****  *             LV_DESIGN_DRAW: draw the object (always return 'true')
 406:lvgl/src/lv_widgets/lv_calendar.c ****  *             LV_DESIGN_DRAW_POST: drawing after every children are drawn
 407:lvgl/src/lv_widgets/lv_calendar.c ****  * @param return an element of `lv_design_res_t`
 408:lvgl/src/lv_widgets/lv_calendar.c ****  */
 409:lvgl/src/lv_widgets/lv_calendar.c **** static lv_design_res_t lv_calendar_design(lv_obj_t * calendar, const lv_area_t * clip_area, lv_desi
 410:lvgl/src/lv_widgets/lv_calendar.c **** {
 411:lvgl/src/lv_widgets/lv_calendar.c ****     /*Return false if the object is not covers the mask_p area*/
 412:lvgl/src/lv_widgets/lv_calendar.c ****     if(mode == LV_DESIGN_COVER_CHK) {
 413:lvgl/src/lv_widgets/lv_calendar.c ****         return ancestor_design(calendar, clip_area, mode);
 414:lvgl/src/lv_widgets/lv_calendar.c ****     }
 415:lvgl/src/lv_widgets/lv_calendar.c ****     /*Draw the object*/
 416:lvgl/src/lv_widgets/lv_calendar.c ****     else if(mode == LV_DESIGN_DRAW_MAIN) {
 417:lvgl/src/lv_widgets/lv_calendar.c ****         ancestor_design(calendar, clip_area, mode);
 418:lvgl/src/lv_widgets/lv_calendar.c **** 
 419:lvgl/src/lv_widgets/lv_calendar.c ****         draw_header(calendar, clip_area);
 420:lvgl/src/lv_widgets/lv_calendar.c ****         draw_day_names(calendar, clip_area);
 421:lvgl/src/lv_widgets/lv_calendar.c ****         draw_dates(calendar, clip_area);
 422:lvgl/src/lv_widgets/lv_calendar.c **** 
 423:lvgl/src/lv_widgets/lv_calendar.c ****     }
 424:lvgl/src/lv_widgets/lv_calendar.c ****     /*Post draw when the children are drawn*/
 425:lvgl/src/lv_widgets/lv_calendar.c ****     else if(mode == LV_DESIGN_DRAW_POST) {
 426:lvgl/src/lv_widgets/lv_calendar.c ****         ancestor_design(calendar, clip_area, mode);
 427:lvgl/src/lv_widgets/lv_calendar.c ****     }
 428:lvgl/src/lv_widgets/lv_calendar.c **** 
 429:lvgl/src/lv_widgets/lv_calendar.c ****     return LV_DESIGN_RES_OK;
ARM GAS  D:\Temp\cclvo1nc.s 			page 9


 430:lvgl/src/lv_widgets/lv_calendar.c **** }
 431:lvgl/src/lv_widgets/lv_calendar.c **** 
 432:lvgl/src/lv_widgets/lv_calendar.c **** /**
 433:lvgl/src/lv_widgets/lv_calendar.c ****  * Signal function of the calendar
 434:lvgl/src/lv_widgets/lv_calendar.c ****  * @param calendar pointer to a calendar object
 435:lvgl/src/lv_widgets/lv_calendar.c ****  * @param sign a signal type from lv_signal_t enum
 436:lvgl/src/lv_widgets/lv_calendar.c ****  * @param param pointer to a signal specific variable
 437:lvgl/src/lv_widgets/lv_calendar.c ****  * @return LV_RES_OK: the object is not deleted in the function; LV_RES_INV: the object is deleted
 438:lvgl/src/lv_widgets/lv_calendar.c ****  */
 439:lvgl/src/lv_widgets/lv_calendar.c **** static lv_res_t lv_calendar_signal(lv_obj_t * calendar, lv_signal_t sign, void * param)
 440:lvgl/src/lv_widgets/lv_calendar.c **** {
 441:lvgl/src/lv_widgets/lv_calendar.c ****     lv_res_t res;
 442:lvgl/src/lv_widgets/lv_calendar.c ****     if(sign == LV_SIGNAL_GET_STYLE) {
 443:lvgl/src/lv_widgets/lv_calendar.c ****         lv_get_style_info_t * info = param;
 444:lvgl/src/lv_widgets/lv_calendar.c ****         info->result = lv_calendar_get_style(calendar, info->part);
 445:lvgl/src/lv_widgets/lv_calendar.c ****         if(info->result != NULL) return LV_RES_OK;
 446:lvgl/src/lv_widgets/lv_calendar.c ****         else return ancestor_signal(calendar, sign, param);
 447:lvgl/src/lv_widgets/lv_calendar.c ****         return LV_RES_OK;
 448:lvgl/src/lv_widgets/lv_calendar.c ****     }
 449:lvgl/src/lv_widgets/lv_calendar.c **** 
 450:lvgl/src/lv_widgets/lv_calendar.c ****     /* Include the ancient signal function */
 451:lvgl/src/lv_widgets/lv_calendar.c ****     res = ancestor_signal(calendar, sign, param);
 452:lvgl/src/lv_widgets/lv_calendar.c ****     if(res != LV_RES_OK) return res;
 453:lvgl/src/lv_widgets/lv_calendar.c ****     if(sign == LV_SIGNAL_GET_TYPE) return lv_obj_handle_get_type_signal(param, LV_OBJX_NAME);
 454:lvgl/src/lv_widgets/lv_calendar.c **** 
 455:lvgl/src/lv_widgets/lv_calendar.c ****     if(sign == LV_SIGNAL_CLEANUP) {
 456:lvgl/src/lv_widgets/lv_calendar.c ****         lv_obj_clean_style_list(calendar, LV_CALENDAR_PART_HEADER);
 457:lvgl/src/lv_widgets/lv_calendar.c ****         lv_obj_clean_style_list(calendar, LV_CALENDAR_PART_DAY_NAMES);
 458:lvgl/src/lv_widgets/lv_calendar.c ****         lv_obj_clean_style_list(calendar, LV_CALENDAR_PART_DATE);
 459:lvgl/src/lv_widgets/lv_calendar.c ****     }
 460:lvgl/src/lv_widgets/lv_calendar.c ****     else if(sign == LV_SIGNAL_PRESSING) {
 461:lvgl/src/lv_widgets/lv_calendar.c ****         lv_calendar_ext_t * ext = lv_obj_get_ext_attr(calendar);
 462:lvgl/src/lv_widgets/lv_calendar.c ****         lv_area_t header_area;
 463:lvgl/src/lv_widgets/lv_calendar.c ****         lv_area_copy(&header_area, &calendar->coords);
 464:lvgl/src/lv_widgets/lv_calendar.c ****         header_area.y2 = header_area.y1 + get_header_height(calendar);
 465:lvgl/src/lv_widgets/lv_calendar.c **** 
 466:lvgl/src/lv_widgets/lv_calendar.c ****         lv_indev_t * indev = lv_indev_get_act();
 467:lvgl/src/lv_widgets/lv_calendar.c ****         lv_point_t p;
 468:lvgl/src/lv_widgets/lv_calendar.c ****         lv_indev_get_point(indev, &p);
 469:lvgl/src/lv_widgets/lv_calendar.c **** 
 470:lvgl/src/lv_widgets/lv_calendar.c ****         /*If the header is pressed mark an arrow as pressed*/
 471:lvgl/src/lv_widgets/lv_calendar.c ****         if(_lv_area_is_point_on(&header_area, &p, 0)) {
 472:lvgl/src/lv_widgets/lv_calendar.c ****             if(p.x < header_area.x1 + lv_area_get_width(&header_area) / 2) {
 473:lvgl/src/lv_widgets/lv_calendar.c ****                 if(ext->btn_pressing != -1) lv_obj_invalidate(calendar);
 474:lvgl/src/lv_widgets/lv_calendar.c ****                 ext->btn_pressing = -1;
 475:lvgl/src/lv_widgets/lv_calendar.c ****             }
 476:lvgl/src/lv_widgets/lv_calendar.c ****             else {
 477:lvgl/src/lv_widgets/lv_calendar.c ****                 if(ext->btn_pressing != 1) lv_obj_invalidate(calendar);
 478:lvgl/src/lv_widgets/lv_calendar.c ****                 ext->btn_pressing = 1;
 479:lvgl/src/lv_widgets/lv_calendar.c ****             }
 480:lvgl/src/lv_widgets/lv_calendar.c **** 
 481:lvgl/src/lv_widgets/lv_calendar.c ****             ext->pressed_date.year  = 0;
 482:lvgl/src/lv_widgets/lv_calendar.c ****             ext->pressed_date.month = 0;
 483:lvgl/src/lv_widgets/lv_calendar.c ****             ext->pressed_date.day   = 0;
 484:lvgl/src/lv_widgets/lv_calendar.c ****         }
 485:lvgl/src/lv_widgets/lv_calendar.c ****         /*If a day is pressed save it*/
 486:lvgl/src/lv_widgets/lv_calendar.c ****         else if(calculate_touched_day(calendar, &p)) {
ARM GAS  D:\Temp\cclvo1nc.s 			page 10


 487:lvgl/src/lv_widgets/lv_calendar.c ****             ext->btn_pressing = 0;
 488:lvgl/src/lv_widgets/lv_calendar.c ****             lv_obj_invalidate(calendar);
 489:lvgl/src/lv_widgets/lv_calendar.c ****         }
 490:lvgl/src/lv_widgets/lv_calendar.c ****         /*Else set a default state*/
 491:lvgl/src/lv_widgets/lv_calendar.c ****         else {
 492:lvgl/src/lv_widgets/lv_calendar.c ****             if(ext->btn_pressing != 0) lv_obj_invalidate(calendar);
 493:lvgl/src/lv_widgets/lv_calendar.c ****             ext->btn_pressing       = 0;
 494:lvgl/src/lv_widgets/lv_calendar.c ****             ext->pressed_date.year  = 0;
 495:lvgl/src/lv_widgets/lv_calendar.c ****             ext->pressed_date.month = 0;
 496:lvgl/src/lv_widgets/lv_calendar.c ****             ext->pressed_date.day   = 0;
 497:lvgl/src/lv_widgets/lv_calendar.c ****         }
 498:lvgl/src/lv_widgets/lv_calendar.c ****     }
 499:lvgl/src/lv_widgets/lv_calendar.c ****     else if(sign == LV_SIGNAL_PRESS_LOST) {
 500:lvgl/src/lv_widgets/lv_calendar.c ****         lv_calendar_ext_t * ext = lv_obj_get_ext_attr(calendar);
 501:lvgl/src/lv_widgets/lv_calendar.c ****         ext->btn_pressing       = 0;
 502:lvgl/src/lv_widgets/lv_calendar.c ****         ext->pressed_date.year  = 0;
 503:lvgl/src/lv_widgets/lv_calendar.c ****         ext->pressed_date.month = 0;
 504:lvgl/src/lv_widgets/lv_calendar.c ****         ext->pressed_date.day   = 0;
 505:lvgl/src/lv_widgets/lv_calendar.c ****         lv_obj_invalidate(calendar);
 506:lvgl/src/lv_widgets/lv_calendar.c **** 
 507:lvgl/src/lv_widgets/lv_calendar.c ****     }
 508:lvgl/src/lv_widgets/lv_calendar.c ****     else if(sign == LV_SIGNAL_RELEASED) {
 509:lvgl/src/lv_widgets/lv_calendar.c ****         lv_calendar_ext_t * ext = lv_obj_get_ext_attr(calendar);
 510:lvgl/src/lv_widgets/lv_calendar.c ****         if(ext->btn_pressing < 0) {
 511:lvgl/src/lv_widgets/lv_calendar.c ****             if(ext->showed_date.month <= 1) {
 512:lvgl/src/lv_widgets/lv_calendar.c ****                 ext->showed_date.month = 12;
 513:lvgl/src/lv_widgets/lv_calendar.c ****                 ext->showed_date.year--;
 514:lvgl/src/lv_widgets/lv_calendar.c ****             }
 515:lvgl/src/lv_widgets/lv_calendar.c ****             else {
 516:lvgl/src/lv_widgets/lv_calendar.c ****                 ext->showed_date.month--;
 517:lvgl/src/lv_widgets/lv_calendar.c ****             }
 518:lvgl/src/lv_widgets/lv_calendar.c ****         }
 519:lvgl/src/lv_widgets/lv_calendar.c ****         else if(ext->btn_pressing > 0) {
 520:lvgl/src/lv_widgets/lv_calendar.c ****             if(ext->showed_date.month >= 12) {
 521:lvgl/src/lv_widgets/lv_calendar.c ****                 ext->showed_date.month = 1;
 522:lvgl/src/lv_widgets/lv_calendar.c ****                 ext->showed_date.year++;
 523:lvgl/src/lv_widgets/lv_calendar.c ****             }
 524:lvgl/src/lv_widgets/lv_calendar.c ****             else {
 525:lvgl/src/lv_widgets/lv_calendar.c ****                 ext->showed_date.month++;
 526:lvgl/src/lv_widgets/lv_calendar.c ****             }
 527:lvgl/src/lv_widgets/lv_calendar.c ****         }
 528:lvgl/src/lv_widgets/lv_calendar.c ****         else if(ext->pressed_date.year != 0) {
 529:lvgl/src/lv_widgets/lv_calendar.c ****             res = lv_event_send(calendar, LV_EVENT_VALUE_CHANGED, NULL);
 530:lvgl/src/lv_widgets/lv_calendar.c ****             if(res != LV_RES_OK) return res;
 531:lvgl/src/lv_widgets/lv_calendar.c **** 
 532:lvgl/src/lv_widgets/lv_calendar.c ****         }
 533:lvgl/src/lv_widgets/lv_calendar.c **** 
 534:lvgl/src/lv_widgets/lv_calendar.c ****         ext->btn_pressing = 0;
 535:lvgl/src/lv_widgets/lv_calendar.c ****         ext->pressed_date.year  = 0;
 536:lvgl/src/lv_widgets/lv_calendar.c ****         ext->pressed_date.month = 0;
 537:lvgl/src/lv_widgets/lv_calendar.c ****         ext->pressed_date.day   = 0;
 538:lvgl/src/lv_widgets/lv_calendar.c ****         lv_obj_invalidate(calendar);
 539:lvgl/src/lv_widgets/lv_calendar.c ****     }
 540:lvgl/src/lv_widgets/lv_calendar.c ****     else if(sign == LV_SIGNAL_CONTROL) {
 541:lvgl/src/lv_widgets/lv_calendar.c **** #if LV_USE_GROUP
 542:lvgl/src/lv_widgets/lv_calendar.c ****         uint8_t c               = *((uint8_t *)param);
 543:lvgl/src/lv_widgets/lv_calendar.c ****         lv_calendar_ext_t * ext = lv_obj_get_ext_attr(calendar);
ARM GAS  D:\Temp\cclvo1nc.s 			page 11


 544:lvgl/src/lv_widgets/lv_calendar.c ****         if(c == LV_KEY_RIGHT || c == LV_KEY_UP) {
 545:lvgl/src/lv_widgets/lv_calendar.c ****             if(ext->showed_date.month >= 12) {
 546:lvgl/src/lv_widgets/lv_calendar.c ****                 ext->showed_date.month = 1;
 547:lvgl/src/lv_widgets/lv_calendar.c ****                 ext->showed_date.year++;
 548:lvgl/src/lv_widgets/lv_calendar.c ****             }
 549:lvgl/src/lv_widgets/lv_calendar.c ****             else {
 550:lvgl/src/lv_widgets/lv_calendar.c ****                 ext->showed_date.month++;
 551:lvgl/src/lv_widgets/lv_calendar.c ****             }
 552:lvgl/src/lv_widgets/lv_calendar.c ****             lv_obj_invalidate(calendar);
 553:lvgl/src/lv_widgets/lv_calendar.c ****         }
 554:lvgl/src/lv_widgets/lv_calendar.c ****         else if(c == LV_KEY_LEFT || c == LV_KEY_DOWN) {
 555:lvgl/src/lv_widgets/lv_calendar.c ****             if(ext->showed_date.month <= 1) {
 556:lvgl/src/lv_widgets/lv_calendar.c ****                 ext->showed_date.month = 12;
 557:lvgl/src/lv_widgets/lv_calendar.c ****                 ext->showed_date.year--;
 558:lvgl/src/lv_widgets/lv_calendar.c ****             }
 559:lvgl/src/lv_widgets/lv_calendar.c ****             else {
 560:lvgl/src/lv_widgets/lv_calendar.c ****                 ext->showed_date.month--;
 561:lvgl/src/lv_widgets/lv_calendar.c ****             }
 562:lvgl/src/lv_widgets/lv_calendar.c ****             lv_obj_invalidate(calendar);
 563:lvgl/src/lv_widgets/lv_calendar.c ****         }
 564:lvgl/src/lv_widgets/lv_calendar.c **** #endif
 565:lvgl/src/lv_widgets/lv_calendar.c ****     }
 566:lvgl/src/lv_widgets/lv_calendar.c **** 
 567:lvgl/src/lv_widgets/lv_calendar.c ****     return res;
 568:lvgl/src/lv_widgets/lv_calendar.c **** }
 569:lvgl/src/lv_widgets/lv_calendar.c **** 
 570:lvgl/src/lv_widgets/lv_calendar.c **** /**
 571:lvgl/src/lv_widgets/lv_calendar.c ****  * Get the style descriptor of a part of the object
 572:lvgl/src/lv_widgets/lv_calendar.c ****  * @param page pointer the object
 573:lvgl/src/lv_widgets/lv_calendar.c ****  * @param part the part from `lv_calendar_part_t`. (LV_CALENDAR_PART_...)
 574:lvgl/src/lv_widgets/lv_calendar.c ****  * @return pointer to the style descriptor of the specified part
 575:lvgl/src/lv_widgets/lv_calendar.c ****  */
 576:lvgl/src/lv_widgets/lv_calendar.c **** static lv_style_list_t * lv_calendar_get_style(lv_obj_t * calendar, uint8_t part)
 577:lvgl/src/lv_widgets/lv_calendar.c **** {
 578:lvgl/src/lv_widgets/lv_calendar.c ****     LV_ASSERT_OBJ(calendar, LV_OBJX_NAME);
 579:lvgl/src/lv_widgets/lv_calendar.c **** 
 580:lvgl/src/lv_widgets/lv_calendar.c ****     lv_calendar_ext_t * ext = lv_obj_get_ext_attr(calendar);
 581:lvgl/src/lv_widgets/lv_calendar.c ****     lv_style_list_t * style_dsc_p;
 582:lvgl/src/lv_widgets/lv_calendar.c **** 
 583:lvgl/src/lv_widgets/lv_calendar.c ****     switch(part) {
 584:lvgl/src/lv_widgets/lv_calendar.c ****         case LV_CALENDAR_PART_BG:
 585:lvgl/src/lv_widgets/lv_calendar.c ****             style_dsc_p = &calendar->style_list;
 586:lvgl/src/lv_widgets/lv_calendar.c ****             break;
 587:lvgl/src/lv_widgets/lv_calendar.c ****         case LV_CALENDAR_PART_HEADER:
 588:lvgl/src/lv_widgets/lv_calendar.c ****             style_dsc_p = &ext->style_header;
 589:lvgl/src/lv_widgets/lv_calendar.c ****             break;
 590:lvgl/src/lv_widgets/lv_calendar.c ****         case LV_CALENDAR_PART_DAY_NAMES:
 591:lvgl/src/lv_widgets/lv_calendar.c ****             style_dsc_p = &ext->style_day_names;
 592:lvgl/src/lv_widgets/lv_calendar.c ****             break;
 593:lvgl/src/lv_widgets/lv_calendar.c ****         case LV_CALENDAR_PART_DATE:
 594:lvgl/src/lv_widgets/lv_calendar.c ****             style_dsc_p = &ext->style_date_nums;
 595:lvgl/src/lv_widgets/lv_calendar.c ****             break;
 596:lvgl/src/lv_widgets/lv_calendar.c ****         default:
 597:lvgl/src/lv_widgets/lv_calendar.c ****             style_dsc_p = NULL;
 598:lvgl/src/lv_widgets/lv_calendar.c ****     }
 599:lvgl/src/lv_widgets/lv_calendar.c **** 
 600:lvgl/src/lv_widgets/lv_calendar.c ****     return style_dsc_p;
ARM GAS  D:\Temp\cclvo1nc.s 			page 12


 601:lvgl/src/lv_widgets/lv_calendar.c **** }
 602:lvgl/src/lv_widgets/lv_calendar.c **** 
 603:lvgl/src/lv_widgets/lv_calendar.c **** /**
 604:lvgl/src/lv_widgets/lv_calendar.c ****  * It will check if the days part of calendar is touched
 605:lvgl/src/lv_widgets/lv_calendar.c ****  * and if it is, it will calculate the day and put it in pressed_date of calendar object.
 606:lvgl/src/lv_widgets/lv_calendar.c ****  * @param calendar pointer to a calendar object
 607:lvgl/src/lv_widgets/lv_calendar.c ****  * @param pointer to a point
 608:lvgl/src/lv_widgets/lv_calendar.c ****  * @return true: days part of calendar is touched and its related date is put in pressed date
 609:lvgl/src/lv_widgets/lv_calendar.c ****  * false: the point is out of days part area.
 610:lvgl/src/lv_widgets/lv_calendar.c ****  */
 611:lvgl/src/lv_widgets/lv_calendar.c **** static bool calculate_touched_day(lv_obj_t * calendar, const lv_point_t * touched_point)
 612:lvgl/src/lv_widgets/lv_calendar.c **** {
 613:lvgl/src/lv_widgets/lv_calendar.c ****     lv_area_t days_area;
 614:lvgl/src/lv_widgets/lv_calendar.c ****     lv_area_copy(&days_area, &calendar->coords);
 615:lvgl/src/lv_widgets/lv_calendar.c ****     lv_style_int_t left = lv_obj_get_style_pad_left(calendar, LV_CALENDAR_PART_DATE);
 616:lvgl/src/lv_widgets/lv_calendar.c ****     lv_style_int_t right = lv_obj_get_style_pad_right(calendar, LV_CALENDAR_PART_DATE);
 617:lvgl/src/lv_widgets/lv_calendar.c ****     lv_style_int_t top = lv_obj_get_style_pad_top(calendar, LV_CALENDAR_PART_DATE);
 618:lvgl/src/lv_widgets/lv_calendar.c ****     lv_style_int_t bottom = lv_obj_get_style_pad_bottom(calendar, LV_CALENDAR_PART_DATE);
 619:lvgl/src/lv_widgets/lv_calendar.c **** 
 620:lvgl/src/lv_widgets/lv_calendar.c ****     days_area.x1 += left;
 621:lvgl/src/lv_widgets/lv_calendar.c ****     days_area.x2 -= right;
 622:lvgl/src/lv_widgets/lv_calendar.c ****     days_area.y1 = calendar->coords.y1 + get_header_height(calendar) + get_day_names_height(calenda
 623:lvgl/src/lv_widgets/lv_calendar.c ****     days_area.y2 -= bottom;
 624:lvgl/src/lv_widgets/lv_calendar.c **** 
 625:lvgl/src/lv_widgets/lv_calendar.c ****     if(_lv_area_is_point_on(&days_area, touched_point, 0)) {
 626:lvgl/src/lv_widgets/lv_calendar.c ****         lv_coord_t w  = (days_area.x2 - days_area.x1 + 1) / 7;
 627:lvgl/src/lv_widgets/lv_calendar.c ****         lv_coord_t h  = (days_area.y2 - days_area.y1 + 1) / 6;
 628:lvgl/src/lv_widgets/lv_calendar.c ****         uint8_t x_pos = 0;
 629:lvgl/src/lv_widgets/lv_calendar.c ****         x_pos         = (touched_point->x - days_area.x1) / w;
 630:lvgl/src/lv_widgets/lv_calendar.c ****         if(x_pos > 6) x_pos = 6;
 631:lvgl/src/lv_widgets/lv_calendar.c ****         uint8_t y_pos = 0;
 632:lvgl/src/lv_widgets/lv_calendar.c ****         y_pos         = (touched_point->y - days_area.y1) / h;
 633:lvgl/src/lv_widgets/lv_calendar.c ****         if(y_pos > 5) y_pos = 5;
 634:lvgl/src/lv_widgets/lv_calendar.c **** 
 635:lvgl/src/lv_widgets/lv_calendar.c ****         uint8_t i_pos           = 0;
 636:lvgl/src/lv_widgets/lv_calendar.c ****         i_pos                   = (y_pos * 7) + x_pos;
 637:lvgl/src/lv_widgets/lv_calendar.c ****         lv_calendar_ext_t * ext = lv_obj_get_ext_attr(calendar);
 638:lvgl/src/lv_widgets/lv_calendar.c ****         if(i_pos < lv_calendar_get_day_of_week(ext->showed_date.year, ext->showed_date.month, 1)) {
 639:lvgl/src/lv_widgets/lv_calendar.c ****             ext->pressed_date.year  = ext->showed_date.year - (ext->showed_date.month == 1 ? 1 : 0)
 640:lvgl/src/lv_widgets/lv_calendar.c ****             ext->pressed_date.month = ext->showed_date.month == 1 ? 12 : (ext->showed_date.month - 
 641:lvgl/src/lv_widgets/lv_calendar.c ****             ext->pressed_date.day   = get_month_length(ext->pressed_date.year, ext->pressed_date.mo
 642:lvgl/src/lv_widgets/lv_calendar.c ****                                       lv_calendar_get_day_of_week(ext->showed_date.year, ext->showe
 643:lvgl/src/lv_widgets/lv_calendar.c ****         }
 644:lvgl/src/lv_widgets/lv_calendar.c ****         else if(i_pos < (lv_calendar_get_day_of_week(ext->showed_date.year, ext->showed_date.month,
 645:lvgl/src/lv_widgets/lv_calendar.c ****                          get_month_length(ext->showed_date.year, ext->showed_date.month))) {
 646:lvgl/src/lv_widgets/lv_calendar.c ****             ext->pressed_date.year  = ext->showed_date.year;
 647:lvgl/src/lv_widgets/lv_calendar.c ****             ext->pressed_date.month = ext->showed_date.month;
 648:lvgl/src/lv_widgets/lv_calendar.c ****             ext->pressed_date.day   = i_pos + 1 - lv_calendar_get_day_of_week(ext->showed_date.year
 649:lvgl/src/lv_widgets/lv_calendar.c ****         }
 650:lvgl/src/lv_widgets/lv_calendar.c ****         else if(i_pos < 42) {
 651:lvgl/src/lv_widgets/lv_calendar.c ****             ext->pressed_date.year  = ext->showed_date.year + (ext->showed_date.month == 12 ? 1 : 0
 652:lvgl/src/lv_widgets/lv_calendar.c ****             ext->pressed_date.month = ext->showed_date.month == 12 ? 1 : (ext->showed_date.month + 
 653:lvgl/src/lv_widgets/lv_calendar.c ****             ext->pressed_date.day   = i_pos + 1 - lv_calendar_get_day_of_week(ext->showed_date.year
 654:lvgl/src/lv_widgets/lv_calendar.c ****                                       get_month_length(ext->showed_date.year, ext->showed_date.mont
 655:lvgl/src/lv_widgets/lv_calendar.c ****         }
 656:lvgl/src/lv_widgets/lv_calendar.c ****         return true;
 657:lvgl/src/lv_widgets/lv_calendar.c ****     }
ARM GAS  D:\Temp\cclvo1nc.s 			page 13


 658:lvgl/src/lv_widgets/lv_calendar.c ****     else {
 659:lvgl/src/lv_widgets/lv_calendar.c ****         return false;
 660:lvgl/src/lv_widgets/lv_calendar.c ****     }
 661:lvgl/src/lv_widgets/lv_calendar.c **** }
 662:lvgl/src/lv_widgets/lv_calendar.c **** 
 663:lvgl/src/lv_widgets/lv_calendar.c **** /**
 664:lvgl/src/lv_widgets/lv_calendar.c ****  * Get the height of a calendar's header based on it's style
 665:lvgl/src/lv_widgets/lv_calendar.c ****  * @param calendar point to a calendar
 666:lvgl/src/lv_widgets/lv_calendar.c ****  * @return the header's height
 667:lvgl/src/lv_widgets/lv_calendar.c ****  */
 668:lvgl/src/lv_widgets/lv_calendar.c **** static lv_coord_t get_header_height(lv_obj_t * calendar)
 669:lvgl/src/lv_widgets/lv_calendar.c **** {
 670:lvgl/src/lv_widgets/lv_calendar.c ****     const lv_font_t * font = lv_obj_get_style_text_font(calendar, LV_CALENDAR_PART_HEADER);
 671:lvgl/src/lv_widgets/lv_calendar.c ****     lv_style_int_t top = lv_obj_get_style_margin_top(calendar, LV_CALENDAR_PART_HEADER) +
 672:lvgl/src/lv_widgets/lv_calendar.c ****                          lv_obj_get_style_pad_top(calendar, LV_CALENDAR_PART_HEADER);
 673:lvgl/src/lv_widgets/lv_calendar.c ****     lv_style_int_t bottom = lv_obj_get_style_margin_bottom(calendar, LV_CALENDAR_PART_HEADER) +
 674:lvgl/src/lv_widgets/lv_calendar.c ****                             lv_obj_get_style_pad_bottom(calendar, LV_CALENDAR_PART_HEADER);
 675:lvgl/src/lv_widgets/lv_calendar.c **** 
 676:lvgl/src/lv_widgets/lv_calendar.c ****     return lv_font_get_line_height(font) + top + bottom;
 677:lvgl/src/lv_widgets/lv_calendar.c **** }
 678:lvgl/src/lv_widgets/lv_calendar.c **** 
 679:lvgl/src/lv_widgets/lv_calendar.c **** /**
 680:lvgl/src/lv_widgets/lv_calendar.c ****  * Get the height of a calendar's day_names based on it's style
 681:lvgl/src/lv_widgets/lv_calendar.c ****  * @param calendar point to a calendar
 682:lvgl/src/lv_widgets/lv_calendar.c ****  * @return the day_names's height
 683:lvgl/src/lv_widgets/lv_calendar.c ****  */
 684:lvgl/src/lv_widgets/lv_calendar.c **** static lv_coord_t get_day_names_height(lv_obj_t * calendar)
 685:lvgl/src/lv_widgets/lv_calendar.c **** {
 686:lvgl/src/lv_widgets/lv_calendar.c ****     const lv_font_t * font = lv_obj_get_style_text_font(calendar, LV_CALENDAR_PART_DAY_NAMES);
 687:lvgl/src/lv_widgets/lv_calendar.c ****     lv_style_int_t top = lv_obj_get_style_pad_top(calendar, LV_CALENDAR_PART_DAY_NAMES);
 688:lvgl/src/lv_widgets/lv_calendar.c ****     lv_style_int_t bottom = lv_obj_get_style_pad_bottom(calendar, LV_CALENDAR_PART_DAY_NAMES);
 689:lvgl/src/lv_widgets/lv_calendar.c **** 
 690:lvgl/src/lv_widgets/lv_calendar.c ****     return lv_font_get_line_height(font) + top + bottom;
 691:lvgl/src/lv_widgets/lv_calendar.c **** }
 692:lvgl/src/lv_widgets/lv_calendar.c **** 
 693:lvgl/src/lv_widgets/lv_calendar.c **** /**
 694:lvgl/src/lv_widgets/lv_calendar.c ****  * Draw the calendar header with month name and arrows
 695:lvgl/src/lv_widgets/lv_calendar.c ****  * @param calendar point to a calendar
 696:lvgl/src/lv_widgets/lv_calendar.c ****  * @param mask a mask for drawing
 697:lvgl/src/lv_widgets/lv_calendar.c ****  */
 698:lvgl/src/lv_widgets/lv_calendar.c **** static void draw_header(lv_obj_t * calendar, const lv_area_t * mask)
 699:lvgl/src/lv_widgets/lv_calendar.c **** {
 700:lvgl/src/lv_widgets/lv_calendar.c ****     lv_style_int_t header_left = lv_obj_get_style_pad_left(calendar, LV_CALENDAR_PART_HEADER);
 701:lvgl/src/lv_widgets/lv_calendar.c ****     lv_style_int_t header_right = lv_obj_get_style_pad_right(calendar, LV_CALENDAR_PART_HEADER);
 702:lvgl/src/lv_widgets/lv_calendar.c ****     const lv_font_t * font = lv_obj_get_style_text_font(calendar, LV_CALENDAR_PART_HEADER);
 703:lvgl/src/lv_widgets/lv_calendar.c **** 
 704:lvgl/src/lv_widgets/lv_calendar.c ****     lv_calendar_ext_t * ext = lv_obj_get_ext_attr(calendar);
 705:lvgl/src/lv_widgets/lv_calendar.c **** 
 706:lvgl/src/lv_widgets/lv_calendar.c ****     lv_area_t header_area;
 707:lvgl/src/lv_widgets/lv_calendar.c ****     header_area.x1 = calendar->coords.x1;
 708:lvgl/src/lv_widgets/lv_calendar.c ****     header_area.x2 = calendar->coords.x2;
 709:lvgl/src/lv_widgets/lv_calendar.c ****     header_area.y1 = calendar->coords.y1 + lv_obj_get_style_margin_top(calendar, LV_CALENDAR_PART_H
 710:lvgl/src/lv_widgets/lv_calendar.c ****     header_area.y2 = header_area.y1 + lv_obj_get_style_pad_top(calendar, LV_CALENDAR_PART_HEADER) +
 711:lvgl/src/lv_widgets/lv_calendar.c ****                      lv_font_get_line_height(font) + lv_obj_get_style_pad_bottom(calendar, LV_CALEN
 712:lvgl/src/lv_widgets/lv_calendar.c **** 
 713:lvgl/src/lv_widgets/lv_calendar.c ****     lv_draw_rect_dsc_t header_rect_dsc;
 714:lvgl/src/lv_widgets/lv_calendar.c ****     lv_draw_rect_dsc_init(&header_rect_dsc);
ARM GAS  D:\Temp\cclvo1nc.s 			page 14


 715:lvgl/src/lv_widgets/lv_calendar.c ****     lv_obj_init_draw_rect_dsc(calendar, LV_CALENDAR_PART_HEADER, &header_rect_dsc);
 716:lvgl/src/lv_widgets/lv_calendar.c ****     lv_draw_rect(&header_area, mask, &header_rect_dsc);
 717:lvgl/src/lv_widgets/lv_calendar.c **** 
 718:lvgl/src/lv_widgets/lv_calendar.c ****     lv_state_t state_ori = calendar->state;
 719:lvgl/src/lv_widgets/lv_calendar.c **** 
 720:lvgl/src/lv_widgets/lv_calendar.c ****     /*Add the year + month name*/
 721:lvgl/src/lv_widgets/lv_calendar.c ****     char txt_buf[64];
 722:lvgl/src/lv_widgets/lv_calendar.c ****     _lv_utils_num_to_str(ext->showed_date.year, txt_buf);
 723:lvgl/src/lv_widgets/lv_calendar.c ****     txt_buf[4] = ' ';
 724:lvgl/src/lv_widgets/lv_calendar.c ****     txt_buf[5] = '\0';
 725:lvgl/src/lv_widgets/lv_calendar.c ****     strcpy(&txt_buf[5], get_month_name(calendar, ext->showed_date.month));
 726:lvgl/src/lv_widgets/lv_calendar.c **** 
 727:lvgl/src/lv_widgets/lv_calendar.c ****     calendar->state = LV_STATE_DEFAULT;
 728:lvgl/src/lv_widgets/lv_calendar.c ****     _lv_obj_disable_style_caching(calendar, true);
 729:lvgl/src/lv_widgets/lv_calendar.c **** 
 730:lvgl/src/lv_widgets/lv_calendar.c ****     lv_draw_label_dsc_t label_dsc;
 731:lvgl/src/lv_widgets/lv_calendar.c ****     lv_draw_label_dsc_init(&label_dsc);
 732:lvgl/src/lv_widgets/lv_calendar.c ****     lv_obj_init_draw_label_dsc(calendar, LV_CALENDAR_PART_HEADER, &label_dsc);
 733:lvgl/src/lv_widgets/lv_calendar.c ****     label_dsc.flag = LV_TXT_FLAG_CENTER;
 734:lvgl/src/lv_widgets/lv_calendar.c ****     header_area.y1 += lv_obj_get_style_pad_top(calendar, LV_CALENDAR_PART_HEADER);
 735:lvgl/src/lv_widgets/lv_calendar.c ****     header_area.y2 -= lv_obj_get_style_pad_bottom(calendar, LV_CALENDAR_PART_HEADER);
 736:lvgl/src/lv_widgets/lv_calendar.c ****     lv_draw_label(&header_area, mask, &label_dsc, txt_buf, NULL);
 737:lvgl/src/lv_widgets/lv_calendar.c **** 
 738:lvgl/src/lv_widgets/lv_calendar.c ****     calendar->state = state_ori;    /*Restore the state*/
 739:lvgl/src/lv_widgets/lv_calendar.c **** 
 740:lvgl/src/lv_widgets/lv_calendar.c ****     /*Add the left arrow*/
 741:lvgl/src/lv_widgets/lv_calendar.c ****     if(ext->btn_pressing < 0) calendar->state |= LV_STATE_PRESSED;
 742:lvgl/src/lv_widgets/lv_calendar.c ****     else calendar->state &= ~(LV_STATE_PRESSED);
 743:lvgl/src/lv_widgets/lv_calendar.c **** 
 744:lvgl/src/lv_widgets/lv_calendar.c ****     header_area.x1 += header_left;
 745:lvgl/src/lv_widgets/lv_calendar.c **** 
 746:lvgl/src/lv_widgets/lv_calendar.c ****     lv_draw_label_dsc_init(&label_dsc);
 747:lvgl/src/lv_widgets/lv_calendar.c ****     lv_obj_init_draw_label_dsc(calendar, LV_CALENDAR_PART_HEADER, &label_dsc);
 748:lvgl/src/lv_widgets/lv_calendar.c ****     lv_draw_label(&header_area, mask, &label_dsc, LV_SYMBOL_LEFT, NULL);
 749:lvgl/src/lv_widgets/lv_calendar.c **** 
 750:lvgl/src/lv_widgets/lv_calendar.c ****     calendar->state = state_ori;    /*Restore the state*/
 751:lvgl/src/lv_widgets/lv_calendar.c **** 
 752:lvgl/src/lv_widgets/lv_calendar.c ****     /*Add the right arrow*/
 753:lvgl/src/lv_widgets/lv_calendar.c ****     if(ext->btn_pressing > 0) calendar->state |= LV_STATE_PRESSED;
 754:lvgl/src/lv_widgets/lv_calendar.c ****     else calendar->state &= ~(LV_STATE_PRESSED);
 755:lvgl/src/lv_widgets/lv_calendar.c **** 
 756:lvgl/src/lv_widgets/lv_calendar.c ****     header_area.x1 = header_area.x2 - header_right - _lv_txt_get_width(LV_SYMBOL_RIGHT, (uint16_t)s
 757:lvgl/src/lv_widgets/lv_calendar.c ****                                                                        font, 0, LV_TXT_FLAG_NONE);
 758:lvgl/src/lv_widgets/lv_calendar.c **** 
 759:lvgl/src/lv_widgets/lv_calendar.c ****     lv_draw_label_dsc_init(&label_dsc);
 760:lvgl/src/lv_widgets/lv_calendar.c ****     lv_obj_init_draw_label_dsc(calendar, LV_CALENDAR_PART_HEADER, &label_dsc);
 761:lvgl/src/lv_widgets/lv_calendar.c ****     lv_draw_label(&header_area, mask, &label_dsc, LV_SYMBOL_RIGHT, NULL);
 762:lvgl/src/lv_widgets/lv_calendar.c **** 
 763:lvgl/src/lv_widgets/lv_calendar.c ****     calendar->state = state_ori;    /*Restore the state*/
 764:lvgl/src/lv_widgets/lv_calendar.c ****     _lv_obj_disable_style_caching(calendar, false);
 765:lvgl/src/lv_widgets/lv_calendar.c **** }
 766:lvgl/src/lv_widgets/lv_calendar.c **** 
 767:lvgl/src/lv_widgets/lv_calendar.c **** /**
 768:lvgl/src/lv_widgets/lv_calendar.c ****  * Draw the day's name below the header
 769:lvgl/src/lv_widgets/lv_calendar.c ****  * @param calendar point to a calendar
 770:lvgl/src/lv_widgets/lv_calendar.c ****  * @param mask a mask for drawing
 771:lvgl/src/lv_widgets/lv_calendar.c ****  */
ARM GAS  D:\Temp\cclvo1nc.s 			page 15


 772:lvgl/src/lv_widgets/lv_calendar.c **** static void draw_day_names(lv_obj_t * calendar, const lv_area_t * mask)
 773:lvgl/src/lv_widgets/lv_calendar.c **** {
 774:lvgl/src/lv_widgets/lv_calendar.c ****     lv_style_int_t date_top = lv_obj_get_style_pad_top(calendar, LV_CALENDAR_PART_DATE);
 775:lvgl/src/lv_widgets/lv_calendar.c ****     lv_style_int_t date_bottom = lv_obj_get_style_pad_bottom(calendar, LV_CALENDAR_PART_DATE);
 776:lvgl/src/lv_widgets/lv_calendar.c ****     lv_style_int_t date_left = lv_obj_get_style_pad_left(calendar, LV_CALENDAR_PART_DATE);
 777:lvgl/src/lv_widgets/lv_calendar.c ****     lv_style_int_t date_right = lv_obj_get_style_pad_right(calendar, LV_CALENDAR_PART_DATE);
 778:lvgl/src/lv_widgets/lv_calendar.c ****     lv_style_int_t date_inner = lv_obj_get_style_pad_inner(calendar, LV_CALENDAR_PART_DATE);
 779:lvgl/src/lv_widgets/lv_calendar.c **** 
 780:lvgl/src/lv_widgets/lv_calendar.c ****     lv_coord_t days_w      = lv_obj_get_width(calendar) - date_left - date_right;
 781:lvgl/src/lv_widgets/lv_calendar.c ****     lv_coord_t box_w      = (days_w - date_inner * 6) / 7;
 782:lvgl/src/lv_widgets/lv_calendar.c ****     lv_coord_t days_y1 = calendar->coords.y1 + date_top + get_header_height(calendar) + get_day_nam
 783:lvgl/src/lv_widgets/lv_calendar.c ****     lv_coord_t days_h = calendar->coords.y2 - days_y1 - date_bottom;
 784:lvgl/src/lv_widgets/lv_calendar.c ****     lv_coord_t box_h      = (days_h - 5 * date_inner) / 6;
 785:lvgl/src/lv_widgets/lv_calendar.c ****     lv_coord_t box_size = LV_MATH_MIN(box_w, box_h);
 786:lvgl/src/lv_widgets/lv_calendar.c **** 
 787:lvgl/src/lv_widgets/lv_calendar.c ****     lv_style_int_t left = lv_obj_get_style_pad_left(calendar, LV_CALENDAR_PART_DAY_NAMES);
 788:lvgl/src/lv_widgets/lv_calendar.c ****     lv_style_int_t right = lv_obj_get_style_pad_right(calendar, LV_CALENDAR_PART_DAY_NAMES);
 789:lvgl/src/lv_widgets/lv_calendar.c ****     lv_style_int_t top = lv_obj_get_style_pad_top(calendar, LV_CALENDAR_PART_DAY_NAMES);
 790:lvgl/src/lv_widgets/lv_calendar.c ****     const lv_font_t * font = lv_obj_get_style_text_font(calendar, LV_CALENDAR_PART_DAY_NAMES);
 791:lvgl/src/lv_widgets/lv_calendar.c **** 
 792:lvgl/src/lv_widgets/lv_calendar.c ****     lv_coord_t w = lv_obj_get_width(calendar) - left - right;
 793:lvgl/src/lv_widgets/lv_calendar.c **** 
 794:lvgl/src/lv_widgets/lv_calendar.c ****     lv_coord_t label_w = w / 6;
 795:lvgl/src/lv_widgets/lv_calendar.c **** 
 796:lvgl/src/lv_widgets/lv_calendar.c ****     lv_area_t label_area;
 797:lvgl/src/lv_widgets/lv_calendar.c ****     label_area.y1 = calendar->coords.y1 + get_header_height(calendar) + top;
 798:lvgl/src/lv_widgets/lv_calendar.c ****     label_area.y2 = label_area.y1 + lv_font_get_line_height(font);
 799:lvgl/src/lv_widgets/lv_calendar.c **** 
 800:lvgl/src/lv_widgets/lv_calendar.c ****     lv_draw_label_dsc_t label_dsc;
 801:lvgl/src/lv_widgets/lv_calendar.c ****     lv_draw_label_dsc_init(&label_dsc);
 802:lvgl/src/lv_widgets/lv_calendar.c ****     lv_obj_init_draw_label_dsc(calendar, LV_CALENDAR_PART_DAY_NAMES, &label_dsc);
 803:lvgl/src/lv_widgets/lv_calendar.c ****     label_dsc.flag = LV_TXT_FLAG_CENTER;
 804:lvgl/src/lv_widgets/lv_calendar.c **** 
 805:lvgl/src/lv_widgets/lv_calendar.c ****     uint32_t i;
 806:lvgl/src/lv_widgets/lv_calendar.c ****     for(i = 0; i < 7; i++) {
 807:lvgl/src/lv_widgets/lv_calendar.c ****         label_area.x1 = calendar->coords.x1 + ((w - box_size) * i) / 6  + box_size / 2 - label_w / 
 808:lvgl/src/lv_widgets/lv_calendar.c ****         label_area.x2 = label_area.x1 + label_w - 1;
 809:lvgl/src/lv_widgets/lv_calendar.c **** 
 810:lvgl/src/lv_widgets/lv_calendar.c ****         lv_draw_label(&label_area, mask, &label_dsc, get_day_name(calendar, i), NULL);
 811:lvgl/src/lv_widgets/lv_calendar.c ****     }
 812:lvgl/src/lv_widgets/lv_calendar.c **** }
 813:lvgl/src/lv_widgets/lv_calendar.c **** 
 814:lvgl/src/lv_widgets/lv_calendar.c **** /**
 815:lvgl/src/lv_widgets/lv_calendar.c ****  * Draw the date numbers in a matrix
 816:lvgl/src/lv_widgets/lv_calendar.c ****  * @param calendar point to a calendar
 817:lvgl/src/lv_widgets/lv_calendar.c ****  * @param mask a mask for drawing
 818:lvgl/src/lv_widgets/lv_calendar.c ****  */
 819:lvgl/src/lv_widgets/lv_calendar.c **** static void draw_dates(lv_obj_t * calendar, const lv_area_t * clip_area)
 820:lvgl/src/lv_widgets/lv_calendar.c **** {
 821:lvgl/src/lv_widgets/lv_calendar.c ****     lv_calendar_ext_t * ext     = lv_obj_get_ext_attr(calendar);
 822:lvgl/src/lv_widgets/lv_calendar.c **** 
 823:lvgl/src/lv_widgets/lv_calendar.c ****     const lv_font_t * nums_font = lv_obj_get_style_text_font(calendar, LV_CALENDAR_PART_DATE);
 824:lvgl/src/lv_widgets/lv_calendar.c **** 
 825:lvgl/src/lv_widgets/lv_calendar.c ****     lv_style_int_t date_top = lv_obj_get_style_pad_top(calendar, LV_CALENDAR_PART_DATE);
 826:lvgl/src/lv_widgets/lv_calendar.c ****     lv_style_int_t date_bottom = lv_obj_get_style_pad_bottom(calendar, LV_CALENDAR_PART_DATE);
 827:lvgl/src/lv_widgets/lv_calendar.c ****     lv_style_int_t date_left = lv_obj_get_style_pad_left(calendar, LV_CALENDAR_PART_DATE);
 828:lvgl/src/lv_widgets/lv_calendar.c ****     lv_style_int_t date_right = lv_obj_get_style_pad_right(calendar, LV_CALENDAR_PART_DATE);
ARM GAS  D:\Temp\cclvo1nc.s 			page 16


 829:lvgl/src/lv_widgets/lv_calendar.c ****     lv_style_int_t date_inner = lv_obj_get_style_pad_inner(calendar, LV_CALENDAR_PART_DATE);
 830:lvgl/src/lv_widgets/lv_calendar.c **** 
 831:lvgl/src/lv_widgets/lv_calendar.c ****     lv_coord_t days_y1 = calendar->coords.y1 + date_top + get_header_height(calendar) + get_day_nam
 832:lvgl/src/lv_widgets/lv_calendar.c ****     lv_coord_t days_h = calendar->coords.y2 - days_y1 - date_bottom;
 833:lvgl/src/lv_widgets/lv_calendar.c **** 
 834:lvgl/src/lv_widgets/lv_calendar.c ****     /*The state changes without re-caching the styles, disable the use of cache*/
 835:lvgl/src/lv_widgets/lv_calendar.c ****     lv_state_t state_ori = calendar->state;
 836:lvgl/src/lv_widgets/lv_calendar.c ****     calendar->state = LV_STATE_DEFAULT;
 837:lvgl/src/lv_widgets/lv_calendar.c ****     _lv_obj_disable_style_caching(calendar, true);
 838:lvgl/src/lv_widgets/lv_calendar.c **** 
 839:lvgl/src/lv_widgets/lv_calendar.c ****     lv_state_t month_state = LV_STATE_DISABLED;
 840:lvgl/src/lv_widgets/lv_calendar.c **** 
 841:lvgl/src/lv_widgets/lv_calendar.c ****     uint8_t day_cnt;
 842:lvgl/src/lv_widgets/lv_calendar.c ****     lv_coord_t days_w      = lv_obj_get_width(calendar) - date_left - date_right;
 843:lvgl/src/lv_widgets/lv_calendar.c ****     lv_coord_t box_w      = (days_w - date_inner * 6) / 7;
 844:lvgl/src/lv_widgets/lv_calendar.c ****     lv_coord_t box_h      = (days_h - 5 * date_inner) / 6;
 845:lvgl/src/lv_widgets/lv_calendar.c ****     lv_coord_t box_size = LV_MATH_MIN(box_w, box_h);
 846:lvgl/src/lv_widgets/lv_calendar.c **** 
 847:lvgl/src/lv_widgets/lv_calendar.c ****     uint8_t month_start_day = lv_calendar_get_day_of_week(ext->showed_date.year, ext->showed_date.m
 848:lvgl/src/lv_widgets/lv_calendar.c **** 
 849:lvgl/src/lv_widgets/lv_calendar.c ****     day_draw_state_t draw_state;
 850:lvgl/src/lv_widgets/lv_calendar.c **** 
 851:lvgl/src/lv_widgets/lv_calendar.c ****     /*If starting with the first day of the week then the previous month is not visible*/
 852:lvgl/src/lv_widgets/lv_calendar.c ****     if(month_start_day == 0) {
 853:lvgl/src/lv_widgets/lv_calendar.c ****         day_cnt    = 1;
 854:lvgl/src/lv_widgets/lv_calendar.c ****         draw_state = DAY_DRAW_ACT_MONTH;
 855:lvgl/src/lv_widgets/lv_calendar.c ****         month_state  = 0;
 856:lvgl/src/lv_widgets/lv_calendar.c ****     }
 857:lvgl/src/lv_widgets/lv_calendar.c ****     else {
 858:lvgl/src/lv_widgets/lv_calendar.c ****         draw_state = DAY_DRAW_PREV_MONTH;
 859:lvgl/src/lv_widgets/lv_calendar.c ****         day_cnt = get_month_length(ext->showed_date.year, ext->showed_date.month - 1); /*Length of 
 860:lvgl/src/lv_widgets/lv_calendar.c ****         day_cnt -= month_start_day - 1; /*First visible number of the previous month*/
 861:lvgl/src/lv_widgets/lv_calendar.c ****         month_state = LV_STATE_DISABLED;
 862:lvgl/src/lv_widgets/lv_calendar.c ****     }
 863:lvgl/src/lv_widgets/lv_calendar.c **** 
 864:lvgl/src/lv_widgets/lv_calendar.c ****     bool month_of_today_shown = false;
 865:lvgl/src/lv_widgets/lv_calendar.c ****     if(ext->showed_date.year == ext->today.year && ext->showed_date.month == ext->today.month) {
 866:lvgl/src/lv_widgets/lv_calendar.c ****         month_of_today_shown = true;
 867:lvgl/src/lv_widgets/lv_calendar.c ****     }
 868:lvgl/src/lv_widgets/lv_calendar.c **** 
 869:lvgl/src/lv_widgets/lv_calendar.c ****     char buf[3];
 870:lvgl/src/lv_widgets/lv_calendar.c **** 
 871:lvgl/src/lv_widgets/lv_calendar.c ****     /*Draw 6 weeks*/
 872:lvgl/src/lv_widgets/lv_calendar.c ****     lv_draw_rect_dsc_t rect_dsc;
 873:lvgl/src/lv_widgets/lv_calendar.c ****     lv_draw_label_dsc_t label_dsc;
 874:lvgl/src/lv_widgets/lv_calendar.c ****     lv_state_t prev_state = 0xFF;
 875:lvgl/src/lv_widgets/lv_calendar.c ****     uint32_t week;
 876:lvgl/src/lv_widgets/lv_calendar.c ****     for(week = 0; week < 6; week++) {
 877:lvgl/src/lv_widgets/lv_calendar.c ****         lv_area_t box_area;
 878:lvgl/src/lv_widgets/lv_calendar.c **** 
 879:lvgl/src/lv_widgets/lv_calendar.c ****         box_area.y1 = days_y1 + ((days_h - box_size) * week) / 5;
 880:lvgl/src/lv_widgets/lv_calendar.c ****         box_area.y2 = box_area.y1 + box_size - 1;
 881:lvgl/src/lv_widgets/lv_calendar.c **** 
 882:lvgl/src/lv_widgets/lv_calendar.c ****         if(box_area.y1 > clip_area->y2) {
 883:lvgl/src/lv_widgets/lv_calendar.c ****             calendar->state = state_ori;
 884:lvgl/src/lv_widgets/lv_calendar.c ****             _lv_obj_disable_style_caching(calendar, false);
 885:lvgl/src/lv_widgets/lv_calendar.c ****             return;
ARM GAS  D:\Temp\cclvo1nc.s 			page 17


 886:lvgl/src/lv_widgets/lv_calendar.c ****         }
 887:lvgl/src/lv_widgets/lv_calendar.c **** 
 888:lvgl/src/lv_widgets/lv_calendar.c ****         lv_area_t label_area;
 889:lvgl/src/lv_widgets/lv_calendar.c ****         label_area.y1 = box_area.y1 + (lv_area_get_height(&box_area) - lv_font_get_line_height(nums
 890:lvgl/src/lv_widgets/lv_calendar.c ****         label_area.y2 = label_area.y1 + lv_font_get_line_height(nums_font);
 891:lvgl/src/lv_widgets/lv_calendar.c **** 
 892:lvgl/src/lv_widgets/lv_calendar.c ****         /*Draw the 7 days of a week*/
 893:lvgl/src/lv_widgets/lv_calendar.c ****         uint32_t day;
 894:lvgl/src/lv_widgets/lv_calendar.c ****         for(day = 0; day < 7; day++) {
 895:lvgl/src/lv_widgets/lv_calendar.c ****             /*The previous month is over*/
 896:lvgl/src/lv_widgets/lv_calendar.c ****             if(draw_state == DAY_DRAW_PREV_MONTH && day == month_start_day) {
 897:lvgl/src/lv_widgets/lv_calendar.c ****                 draw_state = DAY_DRAW_ACT_MONTH;
 898:lvgl/src/lv_widgets/lv_calendar.c ****                 day_cnt    = 1;
 899:lvgl/src/lv_widgets/lv_calendar.c ****                 month_state  = 0;
 900:lvgl/src/lv_widgets/lv_calendar.c ****             }
 901:lvgl/src/lv_widgets/lv_calendar.c ****             /*The current month is over*/
 902:lvgl/src/lv_widgets/lv_calendar.c ****             else if(draw_state == DAY_DRAW_ACT_MONTH &&
 903:lvgl/src/lv_widgets/lv_calendar.c ****                     day_cnt > get_month_length(ext->showed_date.year, ext->showed_date.month)) {
 904:lvgl/src/lv_widgets/lv_calendar.c ****                 draw_state = DAY_DRAW_NEXT_MONTH;
 905:lvgl/src/lv_widgets/lv_calendar.c ****                 day_cnt    = 1;
 906:lvgl/src/lv_widgets/lv_calendar.c ****                 month_state  = LV_STATE_DISABLED;
 907:lvgl/src/lv_widgets/lv_calendar.c ****             }
 908:lvgl/src/lv_widgets/lv_calendar.c **** 
 909:lvgl/src/lv_widgets/lv_calendar.c ****             if(box_area.y2 < clip_area->y1) {
 910:lvgl/src/lv_widgets/lv_calendar.c ****                 day_cnt++;
 911:lvgl/src/lv_widgets/lv_calendar.c ****                 continue;
 912:lvgl/src/lv_widgets/lv_calendar.c ****             }
 913:lvgl/src/lv_widgets/lv_calendar.c **** 
 914:lvgl/src/lv_widgets/lv_calendar.c ****             lv_state_t day_state = month_state;
 915:lvgl/src/lv_widgets/lv_calendar.c ****             if(is_pressed(calendar, draw_state, ext->showed_date.year, ext->showed_date.month, day_
 916:lvgl/src/lv_widgets/lv_calendar.c ****                 day_state |= LV_STATE_PRESSED;
 917:lvgl/src/lv_widgets/lv_calendar.c ****             }
 918:lvgl/src/lv_widgets/lv_calendar.c ****             if(is_highlighted(calendar, draw_state, ext->showed_date.year, ext->showed_date.month, 
 919:lvgl/src/lv_widgets/lv_calendar.c ****                 day_state |= LV_STATE_CHECKED;
 920:lvgl/src/lv_widgets/lv_calendar.c ****             }
 921:lvgl/src/lv_widgets/lv_calendar.c ****             if(month_of_today_shown && day_cnt == ext->today.day && draw_state == DAY_DRAW_ACT_MONT
 922:lvgl/src/lv_widgets/lv_calendar.c ****                 day_state |= LV_STATE_FOCUSED;
 923:lvgl/src/lv_widgets/lv_calendar.c ****             }
 924:lvgl/src/lv_widgets/lv_calendar.c **** 
 925:lvgl/src/lv_widgets/lv_calendar.c ****             if(prev_state != day_state) {
 926:lvgl/src/lv_widgets/lv_calendar.c ****                 lv_draw_rect_dsc_init(&rect_dsc);
 927:lvgl/src/lv_widgets/lv_calendar.c ****                 lv_draw_label_dsc_init(&label_dsc);
 928:lvgl/src/lv_widgets/lv_calendar.c ****                 label_dsc.flag = LV_TXT_FLAG_CENTER;
 929:lvgl/src/lv_widgets/lv_calendar.c **** 
 930:lvgl/src/lv_widgets/lv_calendar.c ****                 calendar->state = day_state;
 931:lvgl/src/lv_widgets/lv_calendar.c ****                 lv_obj_init_draw_label_dsc(calendar, LV_CALENDAR_PART_DATE, &label_dsc);
 932:lvgl/src/lv_widgets/lv_calendar.c ****                 lv_obj_init_draw_rect_dsc(calendar, LV_CALENDAR_PART_DATE, &rect_dsc);
 933:lvgl/src/lv_widgets/lv_calendar.c **** 
 934:lvgl/src/lv_widgets/lv_calendar.c ****                 prev_state = day_state;
 935:lvgl/src/lv_widgets/lv_calendar.c ****             }
 936:lvgl/src/lv_widgets/lv_calendar.c **** 
 937:lvgl/src/lv_widgets/lv_calendar.c ****             label_area.x1 = calendar->coords.x1 + ((days_w - box_size) * day) / 6 + date_left;
 938:lvgl/src/lv_widgets/lv_calendar.c ****             label_area.x2 = label_area.x1 + box_size - 1;
 939:lvgl/src/lv_widgets/lv_calendar.c **** 
 940:lvgl/src/lv_widgets/lv_calendar.c ****             box_area.x1 = label_area.x1;
 941:lvgl/src/lv_widgets/lv_calendar.c ****             box_area.x2 = label_area.x2;
 942:lvgl/src/lv_widgets/lv_calendar.c **** 
ARM GAS  D:\Temp\cclvo1nc.s 			page 18


 943:lvgl/src/lv_widgets/lv_calendar.c ****             lv_draw_rect(&box_area, clip_area, &rect_dsc);
 944:lvgl/src/lv_widgets/lv_calendar.c **** 
 945:lvgl/src/lv_widgets/lv_calendar.c ****             /*Write the day's number*/
 946:lvgl/src/lv_widgets/lv_calendar.c ****             _lv_utils_num_to_str(day_cnt, buf);
 947:lvgl/src/lv_widgets/lv_calendar.c ****             lv_draw_label(&label_area, clip_area, &label_dsc, buf, NULL);
 948:lvgl/src/lv_widgets/lv_calendar.c **** 
 949:lvgl/src/lv_widgets/lv_calendar.c ****             /*Go to the next day*/
 950:lvgl/src/lv_widgets/lv_calendar.c ****             day_cnt++;
 951:lvgl/src/lv_widgets/lv_calendar.c ****         }
 952:lvgl/src/lv_widgets/lv_calendar.c ****     }
 953:lvgl/src/lv_widgets/lv_calendar.c ****     calendar->state = state_ori;
 954:lvgl/src/lv_widgets/lv_calendar.c ****     _lv_obj_disable_style_caching(calendar, false);
 955:lvgl/src/lv_widgets/lv_calendar.c **** 
 956:lvgl/src/lv_widgets/lv_calendar.c **** }
 957:lvgl/src/lv_widgets/lv_calendar.c **** 
 958:lvgl/src/lv_widgets/lv_calendar.c **** /**
 959:lvgl/src/lv_widgets/lv_calendar.c ****  * Check weather a date is highlighted or not
 960:lvgl/src/lv_widgets/lv_calendar.c ****  * @param calendar pointer to a calendar object
 961:lvgl/src/lv_widgets/lv_calendar.c ****  * @param draw_state which month is drawn (previous, active, next)
 962:lvgl/src/lv_widgets/lv_calendar.c ****  * @param year a year
 963:lvgl/src/lv_widgets/lv_calendar.c ****  * @param month a month [1..12]
 964:lvgl/src/lv_widgets/lv_calendar.c ****  * @param day a day [1..31]
 965:lvgl/src/lv_widgets/lv_calendar.c ****  * @return true: highlighted
 966:lvgl/src/lv_widgets/lv_calendar.c ****  */
 967:lvgl/src/lv_widgets/lv_calendar.c **** static bool is_highlighted(lv_obj_t * calendar, day_draw_state_t draw_state, int32_t year, int32_t 
 968:lvgl/src/lv_widgets/lv_calendar.c **** {
 969:lvgl/src/lv_widgets/lv_calendar.c ****     lv_calendar_ext_t * ext = lv_obj_get_ext_attr(calendar);
 970:lvgl/src/lv_widgets/lv_calendar.c **** 
 971:lvgl/src/lv_widgets/lv_calendar.c ****     if(draw_state == DAY_DRAW_PREV_MONTH) {
 972:lvgl/src/lv_widgets/lv_calendar.c ****         year -= month == 1 ? 1 : 0;
 973:lvgl/src/lv_widgets/lv_calendar.c ****         month = month == 1 ? 12 : month - 1;
 974:lvgl/src/lv_widgets/lv_calendar.c ****     }
 975:lvgl/src/lv_widgets/lv_calendar.c ****     else if(draw_state == DAY_DRAW_NEXT_MONTH) {
 976:lvgl/src/lv_widgets/lv_calendar.c ****         year += month == 12 ? 1 : 0;
 977:lvgl/src/lv_widgets/lv_calendar.c ****         month = month == 12 ? 1 : month + 1;
 978:lvgl/src/lv_widgets/lv_calendar.c ****     }
 979:lvgl/src/lv_widgets/lv_calendar.c **** 
 980:lvgl/src/lv_widgets/lv_calendar.c ****     uint32_t i;
 981:lvgl/src/lv_widgets/lv_calendar.c ****     for(i = 0; i < ext->highlighted_dates_num; i++) {
 982:lvgl/src/lv_widgets/lv_calendar.c ****         if(ext->highlighted_dates[i].year == year && ext->highlighted_dates[i].month == month &&
 983:lvgl/src/lv_widgets/lv_calendar.c ****            ext->highlighted_dates[i].day == day) {
 984:lvgl/src/lv_widgets/lv_calendar.c ****             return true;
 985:lvgl/src/lv_widgets/lv_calendar.c ****         }
 986:lvgl/src/lv_widgets/lv_calendar.c ****     }
 987:lvgl/src/lv_widgets/lv_calendar.c **** 
 988:lvgl/src/lv_widgets/lv_calendar.c ****     return false;
 989:lvgl/src/lv_widgets/lv_calendar.c **** }
 990:lvgl/src/lv_widgets/lv_calendar.c **** 
 991:lvgl/src/lv_widgets/lv_calendar.c **** /**
 992:lvgl/src/lv_widgets/lv_calendar.c ****  * Check weather a date is highlighted or not
 993:lvgl/src/lv_widgets/lv_calendar.c ****  * @param calendar pointer to a calendar object
 994:lvgl/src/lv_widgets/lv_calendar.c ****  * @param draw_state which month is drawn (previous, active, next)
 995:lvgl/src/lv_widgets/lv_calendar.c ****  * @param year a year
 996:lvgl/src/lv_widgets/lv_calendar.c ****  * @param month a month [1..12]
 997:lvgl/src/lv_widgets/lv_calendar.c ****  * @param day a day [1..31]
 998:lvgl/src/lv_widgets/lv_calendar.c ****  * @return true: highlighted
 999:lvgl/src/lv_widgets/lv_calendar.c ****  */
ARM GAS  D:\Temp\cclvo1nc.s 			page 19


1000:lvgl/src/lv_widgets/lv_calendar.c **** static bool is_pressed(lv_obj_t * calendar, day_draw_state_t draw_state, int32_t year, int32_t mont
1001:lvgl/src/lv_widgets/lv_calendar.c **** {
1002:lvgl/src/lv_widgets/lv_calendar.c ****     lv_calendar_ext_t * ext = lv_obj_get_ext_attr(calendar);
1003:lvgl/src/lv_widgets/lv_calendar.c **** 
1004:lvgl/src/lv_widgets/lv_calendar.c ****     if(draw_state == DAY_DRAW_PREV_MONTH) {
1005:lvgl/src/lv_widgets/lv_calendar.c ****         year -= month == 1 ? 1 : 0;
1006:lvgl/src/lv_widgets/lv_calendar.c ****         month = month == 1 ? 12 : month - 1;
1007:lvgl/src/lv_widgets/lv_calendar.c ****     }
1008:lvgl/src/lv_widgets/lv_calendar.c ****     else if(draw_state == DAY_DRAW_NEXT_MONTH) {
1009:lvgl/src/lv_widgets/lv_calendar.c ****         year += month == 12 ? 1 : 0;
1010:lvgl/src/lv_widgets/lv_calendar.c ****         month = month == 12 ? 1 : month + 1;
1011:lvgl/src/lv_widgets/lv_calendar.c ****     }
1012:lvgl/src/lv_widgets/lv_calendar.c **** 
1013:lvgl/src/lv_widgets/lv_calendar.c ****     if(year == ext->pressed_date.year && month == ext->pressed_date.month && day == ext->pressed_da
1014:lvgl/src/lv_widgets/lv_calendar.c ****     else return false;
1015:lvgl/src/lv_widgets/lv_calendar.c **** }
1016:lvgl/src/lv_widgets/lv_calendar.c **** /**
1017:lvgl/src/lv_widgets/lv_calendar.c ****  * Get the day name
1018:lvgl/src/lv_widgets/lv_calendar.c ****  * @param calendar pointer to a calendar object
1019:lvgl/src/lv_widgets/lv_calendar.c ****  * @param day a day in [0..6]
1020:lvgl/src/lv_widgets/lv_calendar.c ****  * @return
1021:lvgl/src/lv_widgets/lv_calendar.c ****  */
1022:lvgl/src/lv_widgets/lv_calendar.c **** static const char * get_day_name(lv_obj_t * calendar, uint8_t day)
1023:lvgl/src/lv_widgets/lv_calendar.c **** {
1024:lvgl/src/lv_widgets/lv_calendar.c **** 
1025:lvgl/src/lv_widgets/lv_calendar.c ****     lv_calendar_ext_t * ext = lv_obj_get_ext_attr(calendar);
1026:lvgl/src/lv_widgets/lv_calendar.c ****     if(ext->day_names)
1027:lvgl/src/lv_widgets/lv_calendar.c ****         return ext->day_names[day];
1028:lvgl/src/lv_widgets/lv_calendar.c ****     else
1029:lvgl/src/lv_widgets/lv_calendar.c ****         return day_name[day];
1030:lvgl/src/lv_widgets/lv_calendar.c **** }
1031:lvgl/src/lv_widgets/lv_calendar.c **** 
1032:lvgl/src/lv_widgets/lv_calendar.c **** /**
1033:lvgl/src/lv_widgets/lv_calendar.c ****  * Get the month name
1034:lvgl/src/lv_widgets/lv_calendar.c ****  * @param calendar pointer to a calendar object
1035:lvgl/src/lv_widgets/lv_calendar.c ****  * @param month a month. The range is basically [1..12] but [-11..1] is also supported to handle
1036:lvgl/src/lv_widgets/lv_calendar.c ****  * previous year
1037:lvgl/src/lv_widgets/lv_calendar.c ****  * @return
1038:lvgl/src/lv_widgets/lv_calendar.c ****  */
1039:lvgl/src/lv_widgets/lv_calendar.c **** static const char * get_month_name(lv_obj_t * calendar, int32_t month)
1040:lvgl/src/lv_widgets/lv_calendar.c **** {
1041:lvgl/src/lv_widgets/lv_calendar.c ****     month--; /*Range of months id [1..12] but range of indexes is [0..11]*/
1042:lvgl/src/lv_widgets/lv_calendar.c ****     if(month < 0) month = 12 + month;
1043:lvgl/src/lv_widgets/lv_calendar.c **** 
1044:lvgl/src/lv_widgets/lv_calendar.c ****     lv_calendar_ext_t * ext = lv_obj_get_ext_attr(calendar);
1045:lvgl/src/lv_widgets/lv_calendar.c ****     if(ext->month_names)
1046:lvgl/src/lv_widgets/lv_calendar.c ****         return ext->month_names[month];
1047:lvgl/src/lv_widgets/lv_calendar.c ****     else
1048:lvgl/src/lv_widgets/lv_calendar.c ****         return month_name[month];
1049:lvgl/src/lv_widgets/lv_calendar.c **** }
1050:lvgl/src/lv_widgets/lv_calendar.c **** 
1051:lvgl/src/lv_widgets/lv_calendar.c **** /**
1052:lvgl/src/lv_widgets/lv_calendar.c ****  * Get the number of days in a month
1053:lvgl/src/lv_widgets/lv_calendar.c ****  * @param year a year
1054:lvgl/src/lv_widgets/lv_calendar.c ****  * @param month a month. The range is basically [1..12] but [-11..1] is also supported to handle
1055:lvgl/src/lv_widgets/lv_calendar.c ****  * previous year
1056:lvgl/src/lv_widgets/lv_calendar.c ****  * @return [28..31]
ARM GAS  D:\Temp\cclvo1nc.s 			page 20


1057:lvgl/src/lv_widgets/lv_calendar.c ****  */
1058:lvgl/src/lv_widgets/lv_calendar.c **** static uint8_t get_month_length(int32_t year, int32_t month)
1059:lvgl/src/lv_widgets/lv_calendar.c **** {
1060:lvgl/src/lv_widgets/lv_calendar.c ****     month--; /*Range of months id [1..12] but range of indexes is [0..11]*/
1061:lvgl/src/lv_widgets/lv_calendar.c ****     if(month < 0) {
1062:lvgl/src/lv_widgets/lv_calendar.c ****         year--;             /*Already in the previous year (won't be less then -12 to skip a whole 
1063:lvgl/src/lv_widgets/lv_calendar.c ****         month = 12 + month; /*`month` is negative, the result will be < 12*/
1064:lvgl/src/lv_widgets/lv_calendar.c ****     }
1065:lvgl/src/lv_widgets/lv_calendar.c ****     if(month >= 12) {
1066:lvgl/src/lv_widgets/lv_calendar.c ****         year++;
1067:lvgl/src/lv_widgets/lv_calendar.c ****         month -= 12;
1068:lvgl/src/lv_widgets/lv_calendar.c ****     }
1069:lvgl/src/lv_widgets/lv_calendar.c **** 
1070:lvgl/src/lv_widgets/lv_calendar.c ****     /*month == 1 is february*/
1071:lvgl/src/lv_widgets/lv_calendar.c ****     return (month == 1) ? (28 + is_leap_year(year)) : 31 - month % 7 % 2;
1072:lvgl/src/lv_widgets/lv_calendar.c **** }
1073:lvgl/src/lv_widgets/lv_calendar.c **** 
1074:lvgl/src/lv_widgets/lv_calendar.c **** /**
1075:lvgl/src/lv_widgets/lv_calendar.c ****  * Tells whether a year is leap year or not
1076:lvgl/src/lv_widgets/lv_calendar.c ****  * @param year a year
1077:lvgl/src/lv_widgets/lv_calendar.c ****  * @return 0: not leap year; 1: leap year
1078:lvgl/src/lv_widgets/lv_calendar.c ****  */
1079:lvgl/src/lv_widgets/lv_calendar.c **** static uint8_t is_leap_year(uint32_t year)
1080:lvgl/src/lv_widgets/lv_calendar.c **** {
  29              		.loc 1 1080 1 view -0
  30              		.cfi_startproc
  31              		@ args = 0, pretend = 0, frame = 0
  32              		@ frame_needed = 0, uses_anonymous_args = 0
  33              		@ link register save eliminated.
1081:lvgl/src/lv_widgets/lv_calendar.c ****     return (year % 4) || ((year % 100 == 0) && (year % 400)) ? 0 : 1;
  34              		.loc 1 1081 5 view .LVU1
  35              		.loc 1 1081 66 is_stmt 0 view .LVU2
  36 0000 10F0030F 		tst	r0, #3
  37 0004 12D1     		bne	.L3
  38              		.loc 1 1081 33 discriminator 1 view .LVU3
  39 0006 0C4B     		ldr	r3, .L6
  40 0008 A3FB0023 		umull	r2, r3, r3, r0
  41 000c 5B09     		lsrs	r3, r3, #5
  42 000e 6422     		movs	r2, #100
  43 0010 02FB1303 		mls	r3, r2, r3, r0
  44              		.loc 1 1081 66 discriminator 1 view .LVU4
  45 0014 63B9     		cbnz	r3, .L4
  46              		.loc 1 1081 54 discriminator 4 view .LVU5
  47 0016 084B     		ldr	r3, .L6
  48 0018 A3FB0023 		umull	r2, r3, r3, r0
  49 001c DB09     		lsrs	r3, r3, #7
  50 001e 4FF4C872 		mov	r2, #400
  51 0022 02FB1303 		mls	r3, r2, r3, r0
  52              		.loc 1 1081 45 discriminator 4 view .LVU6
  53 0026 2BB1     		cbz	r3, .L5
  54              		.loc 1 1081 66 view .LVU7
  55 0028 0020     		movs	r0, #0
  56              	.LVL1:
  57              		.loc 1 1081 66 view .LVU8
  58 002a 7047     		bx	lr
  59              	.LVL2:
  60              	.L3:
ARM GAS  D:\Temp\cclvo1nc.s 			page 21


  61              		.loc 1 1081 66 view .LVU9
  62 002c 0020     		movs	r0, #0
  63              	.LVL3:
  64              		.loc 1 1081 66 view .LVU10
  65 002e 7047     		bx	lr
  66              	.LVL4:
  67              	.L4:
  68              		.loc 1 1081 66 view .LVU11
  69 0030 0120     		movs	r0, #1
  70              	.LVL5:
  71              		.loc 1 1081 66 view .LVU12
  72 0032 7047     		bx	lr
  73              	.LVL6:
  74              	.L5:
  75              		.loc 1 1081 66 view .LVU13
  76 0034 0120     		movs	r0, #1
  77              	.LVL7:
1082:lvgl/src/lv_widgets/lv_calendar.c **** }
  78              		.loc 1 1082 1 view .LVU14
  79 0036 7047     		bx	lr
  80              	.L7:
  81              		.align	2
  82              	.L6:
  83 0038 1F85EB51 		.word	1374389535
  84              		.cfi_endproc
  85              	.LFE486:
  87              		.section	.text.get_month_length,"ax",%progbits
  88              		.align	1
  89              		.syntax unified
  90              		.thumb
  91              		.thumb_func
  92              		.fpu fpv4-sp-d16
  94              	get_month_length:
  95              	.LVL8:
  96              	.LFB485:
1059:lvgl/src/lv_widgets/lv_calendar.c ****     month--; /*Range of months id [1..12] but range of indexes is [0..11]*/
  97              		.loc 1 1059 1 is_stmt 1 view -0
  98              		.cfi_startproc
  99              		@ args = 0, pretend = 0, frame = 0
 100              		@ frame_needed = 0, uses_anonymous_args = 0
1059:lvgl/src/lv_widgets/lv_calendar.c ****     month--; /*Range of months id [1..12] but range of indexes is [0..11]*/
 101              		.loc 1 1059 1 is_stmt 0 view .LVU16
 102 0000 08B5     		push	{r3, lr}
 103              	.LCFI0:
 104              		.cfi_def_cfa_offset 8
 105              		.cfi_offset 3, -8
 106              		.cfi_offset 14, -4
1060:lvgl/src/lv_widgets/lv_calendar.c ****     if(month < 0) {
 107              		.loc 1 1060 5 is_stmt 1 view .LVU17
 108              	.LVL9:
1061:lvgl/src/lv_widgets/lv_calendar.c ****         year--;             /*Already in the previous year (won't be less then -12 to skip a whole 
 109              		.loc 1 1061 5 view .LVU18
1061:lvgl/src/lv_widgets/lv_calendar.c ****         year--;             /*Already in the previous year (won't be less then -12 to skip a whole 
 110              		.loc 1 1061 7 is_stmt 0 view .LVU19
 111 0002 4A1E     		subs	r2, r1, #1
 112              	.LVL10:
1061:lvgl/src/lv_widgets/lv_calendar.c ****         year--;             /*Already in the previous year (won't be less then -12 to skip a whole 
ARM GAS  D:\Temp\cclvo1nc.s 			page 22


 113              		.loc 1 1061 7 view .LVU20
 114 0004 18D4     		bmi	.L14
 115              	.L9:
1065:lvgl/src/lv_widgets/lv_calendar.c ****         year++;
 116              		.loc 1 1065 5 is_stmt 1 view .LVU21
1065:lvgl/src/lv_widgets/lv_calendar.c ****         year++;
 117              		.loc 1 1065 7 is_stmt 0 view .LVU22
 118 0006 0B2A     		cmp	r2, #11
 119 0008 01DD     		ble	.L10
1066:lvgl/src/lv_widgets/lv_calendar.c ****         month -= 12;
 120              		.loc 1 1066 9 is_stmt 1 view .LVU23
1066:lvgl/src/lv_widgets/lv_calendar.c ****         month -= 12;
 121              		.loc 1 1066 13 is_stmt 0 view .LVU24
 122 000a 0130     		adds	r0, r0, #1
 123              	.LVL11:
1067:lvgl/src/lv_widgets/lv_calendar.c ****     }
 124              		.loc 1 1067 9 is_stmt 1 view .LVU25
1067:lvgl/src/lv_widgets/lv_calendar.c ****     }
 125              		.loc 1 1067 15 is_stmt 0 view .LVU26
 126 000c 0C3A     		subs	r2, r2, #12
 127              	.LVL12:
 128              	.L10:
1071:lvgl/src/lv_widgets/lv_calendar.c **** }
 129              		.loc 1 1071 5 is_stmt 1 view .LVU27
1071:lvgl/src/lv_widgets/lv_calendar.c **** }
 130              		.loc 1 1071 53 is_stmt 0 view .LVU28
 131 000e 012A     		cmp	r2, #1
 132 0010 16D0     		beq	.L15
1071:lvgl/src/lv_widgets/lv_calendar.c **** }
 133              		.loc 1 1071 66 discriminator 2 view .LVU29
 134 0012 0E4B     		ldr	r3, .L16
 135 0014 83FB0213 		smull	r1, r3, r3, r2
 136 0018 9918     		adds	r1, r3, r2
 137 001a D317     		asrs	r3, r2, #31
 138 001c C3EBA103 		rsb	r3, r3, r1, asr #2
 139 0020 C3EBC303 		rsb	r3, r3, r3, lsl #3
1071:lvgl/src/lv_widgets/lv_calendar.c **** }
 140              		.loc 1 1071 70 discriminator 2 view .LVU30
 141 0024 D31A     		subs	r3, r2, r3
 142 0026 03F00103 		and	r3, r3, #1
 143 002a 48BF     		it	mi
 144 002c 5B42     		rsbmi	r3, r3, #0
1071:lvgl/src/lv_widgets/lv_calendar.c **** }
 145              		.loc 1 1071 58 discriminator 2 view .LVU31
 146 002e D8B2     		uxtb	r0, r3
 147              	.LVL13:
1071:lvgl/src/lv_widgets/lv_calendar.c **** }
 148              		.loc 1 1071 53 discriminator 2 view .LVU32
 149 0030 C0F11F00 		rsb	r0, r0, #31
 150 0034 C0B2     		uxtb	r0, r0
 151              	.LVL14:
 152              	.L12:
1072:lvgl/src/lv_widgets/lv_calendar.c **** 
 153              		.loc 1 1072 1 discriminator 4 view .LVU33
 154 0036 08BD     		pop	{r3, pc}
 155              	.LVL15:
 156              	.L14:
ARM GAS  D:\Temp\cclvo1nc.s 			page 23


1062:lvgl/src/lv_widgets/lv_calendar.c ****         month = 12 + month; /*`month` is negative, the result will be < 12*/
 157              		.loc 1 1062 9 is_stmt 1 view .LVU34
1062:lvgl/src/lv_widgets/lv_calendar.c ****         month = 12 + month; /*`month` is negative, the result will be < 12*/
 158              		.loc 1 1062 13 is_stmt 0 view .LVU35
 159 0038 0138     		subs	r0, r0, #1
 160              	.LVL16:
1063:lvgl/src/lv_widgets/lv_calendar.c ****     }
 161              		.loc 1 1063 9 is_stmt 1 view .LVU36
1063:lvgl/src/lv_widgets/lv_calendar.c ****     }
 162              		.loc 1 1063 15 is_stmt 0 view .LVU37
 163 003a 01F10B02 		add	r2, r1, #11
 164              	.LVL17:
1063:lvgl/src/lv_widgets/lv_calendar.c ****     }
 165              		.loc 1 1063 15 view .LVU38
 166 003e E2E7     		b	.L9
 167              	.L15:
1071:lvgl/src/lv_widgets/lv_calendar.c **** }
 168              		.loc 1 1071 33 discriminator 1 view .LVU39
 169 0040 FFF7FEFF 		bl	is_leap_year
 170              	.LVL18:
1071:lvgl/src/lv_widgets/lv_calendar.c **** }
 171              		.loc 1 1071 53 discriminator 1 view .LVU40
 172 0044 1C30     		adds	r0, r0, #28
 173 0046 C0B2     		uxtb	r0, r0
 174 0048 F5E7     		b	.L12
 175              	.L17:
 176 004a 00BF     		.align	2
 177              	.L16:
 178 004c 93244992 		.word	-1840700269
 179              		.cfi_endproc
 180              	.LFE485:
 182              		.section	.text.get_month_name,"ax",%progbits
 183              		.align	1
 184              		.syntax unified
 185              		.thumb
 186              		.thumb_func
 187              		.fpu fpv4-sp-d16
 189              	get_month_name:
 190              	.LVL19:
 191              	.LFB484:
1040:lvgl/src/lv_widgets/lv_calendar.c ****     month--; /*Range of months id [1..12] but range of indexes is [0..11]*/
 192              		.loc 1 1040 1 is_stmt 1 view -0
 193              		.cfi_startproc
 194              		@ args = 0, pretend = 0, frame = 0
 195              		@ frame_needed = 0, uses_anonymous_args = 0
1040:lvgl/src/lv_widgets/lv_calendar.c ****     month--; /*Range of months id [1..12] but range of indexes is [0..11]*/
 196              		.loc 1 1040 1 is_stmt 0 view .LVU42
 197 0000 10B5     		push	{r4, lr}
 198              	.LCFI1:
 199              		.cfi_def_cfa_offset 8
 200              		.cfi_offset 4, -8
 201              		.cfi_offset 14, -4
1041:lvgl/src/lv_widgets/lv_calendar.c ****     if(month < 0) month = 12 + month;
 202              		.loc 1 1041 5 is_stmt 1 view .LVU43
 203              	.LVL20:
1042:lvgl/src/lv_widgets/lv_calendar.c **** 
 204              		.loc 1 1042 5 view .LVU44
ARM GAS  D:\Temp\cclvo1nc.s 			page 24


1042:lvgl/src/lv_widgets/lv_calendar.c **** 
 205              		.loc 1 1042 7 is_stmt 0 view .LVU45
 206 0002 4C1E     		subs	r4, r1, #1
 207              	.LVL21:
1042:lvgl/src/lv_widgets/lv_calendar.c **** 
 208              		.loc 1 1042 7 view .LVU46
 209 0004 06D4     		bmi	.L23
 210              	.L19:
1044:lvgl/src/lv_widgets/lv_calendar.c ****     if(ext->month_names)
 211              		.loc 1 1044 5 is_stmt 1 view .LVU47
1044:lvgl/src/lv_widgets/lv_calendar.c ****     if(ext->month_names)
 212              		.loc 1 1044 31 is_stmt 0 view .LVU48
 213 0006 FFF7FEFF 		bl	lv_obj_get_ext_attr
 214              	.LVL22:
1045:lvgl/src/lv_widgets/lv_calendar.c ****         return ext->month_names[month];
 215              		.loc 1 1045 5 is_stmt 1 view .LVU49
1045:lvgl/src/lv_widgets/lv_calendar.c ****         return ext->month_names[month];
 216              		.loc 1 1045 11 is_stmt 0 view .LVU50
 217 000a 8369     		ldr	r3, [r0, #24]
1045:lvgl/src/lv_widgets/lv_calendar.c ****         return ext->month_names[month];
 218              		.loc 1 1045 7 view .LVU51
 219 000c 2BB1     		cbz	r3, .L20
1046:lvgl/src/lv_widgets/lv_calendar.c ****     else
 220              		.loc 1 1046 9 is_stmt 1 view .LVU52
1046:lvgl/src/lv_widgets/lv_calendar.c ****     else
 221              		.loc 1 1046 32 is_stmt 0 view .LVU53
 222 000e 53F82400 		ldr	r0, [r3, r4, lsl #2]
 223              	.LVL23:
 224              	.L18:
1049:lvgl/src/lv_widgets/lv_calendar.c **** 
 225              		.loc 1 1049 1 view .LVU54
 226 0012 10BD     		pop	{r4, pc}
 227              	.LVL24:
 228              	.L23:
1042:lvgl/src/lv_widgets/lv_calendar.c **** 
 229              		.loc 1 1042 19 is_stmt 1 discriminator 1 view .LVU55
1042:lvgl/src/lv_widgets/lv_calendar.c **** 
 230              		.loc 1 1042 25 is_stmt 0 discriminator 1 view .LVU56
 231 0014 01F10B04 		add	r4, r1, #11
 232              	.LVL25:
1042:lvgl/src/lv_widgets/lv_calendar.c **** 
 233              		.loc 1 1042 25 discriminator 1 view .LVU57
 234 0018 F5E7     		b	.L19
 235              	.LVL26:
 236              	.L20:
1048:lvgl/src/lv_widgets/lv_calendar.c **** }
 237              		.loc 1 1048 9 is_stmt 1 view .LVU58
1048:lvgl/src/lv_widgets/lv_calendar.c **** }
 238              		.loc 1 1048 26 is_stmt 0 view .LVU59
 239 001a 024B     		ldr	r3, .L24
 240 001c 53F82400 		ldr	r0, [r3, r4, lsl #2]
 241              	.LVL27:
1048:lvgl/src/lv_widgets/lv_calendar.c **** }
 242              		.loc 1 1048 26 view .LVU60
 243 0020 F7E7     		b	.L18
 244              	.L25:
 245 0022 00BF     		.align	2
ARM GAS  D:\Temp\cclvo1nc.s 			page 25


 246              	.L24:
 247 0024 00000000 		.word	.LANCHOR0
 248              		.cfi_endproc
 249              	.LFE484:
 251              		.section	.text.get_day_name,"ax",%progbits
 252              		.align	1
 253              		.syntax unified
 254              		.thumb
 255              		.thumb_func
 256              		.fpu fpv4-sp-d16
 258              	get_day_name:
 259              	.LVL28:
 260              	.LFB483:
1023:lvgl/src/lv_widgets/lv_calendar.c **** 
 261              		.loc 1 1023 1 is_stmt 1 view -0
 262              		.cfi_startproc
 263              		@ args = 0, pretend = 0, frame = 0
 264              		@ frame_needed = 0, uses_anonymous_args = 0
1023:lvgl/src/lv_widgets/lv_calendar.c **** 
 265              		.loc 1 1023 1 is_stmt 0 view .LVU62
 266 0000 10B5     		push	{r4, lr}
 267              	.LCFI2:
 268              		.cfi_def_cfa_offset 8
 269              		.cfi_offset 4, -8
 270              		.cfi_offset 14, -4
 271 0002 0C46     		mov	r4, r1
1025:lvgl/src/lv_widgets/lv_calendar.c ****     if(ext->day_names)
 272              		.loc 1 1025 5 is_stmt 1 view .LVU63
1025:lvgl/src/lv_widgets/lv_calendar.c ****     if(ext->day_names)
 273              		.loc 1 1025 31 is_stmt 0 view .LVU64
 274 0004 FFF7FEFF 		bl	lv_obj_get_ext_attr
 275              	.LVL29:
1026:lvgl/src/lv_widgets/lv_calendar.c ****         return ext->day_names[day];
 276              		.loc 1 1026 5 is_stmt 1 view .LVU65
1026:lvgl/src/lv_widgets/lv_calendar.c ****         return ext->day_names[day];
 277              		.loc 1 1026 11 is_stmt 0 view .LVU66
 278 0008 4369     		ldr	r3, [r0, #20]
1026:lvgl/src/lv_widgets/lv_calendar.c ****         return ext->day_names[day];
 279              		.loc 1 1026 7 view .LVU67
 280 000a 13B1     		cbz	r3, .L27
1027:lvgl/src/lv_widgets/lv_calendar.c ****     else
 281              		.loc 1 1027 9 is_stmt 1 view .LVU68
1027:lvgl/src/lv_widgets/lv_calendar.c ****     else
 282              		.loc 1 1027 30 is_stmt 0 view .LVU69
 283 000c 53F82400 		ldr	r0, [r3, r4, lsl #2]
 284              	.LVL30:
 285              	.L26:
1030:lvgl/src/lv_widgets/lv_calendar.c **** 
 286              		.loc 1 1030 1 view .LVU70
 287 0010 10BD     		pop	{r4, pc}
 288              	.LVL31:
 289              	.L27:
1029:lvgl/src/lv_widgets/lv_calendar.c **** }
 290              		.loc 1 1029 9 is_stmt 1 view .LVU71
1029:lvgl/src/lv_widgets/lv_calendar.c **** }
 291              		.loc 1 1029 24 is_stmt 0 view .LVU72
 292 0012 024B     		ldr	r3, .L30
ARM GAS  D:\Temp\cclvo1nc.s 			page 26


 293 0014 53F82400 		ldr	r0, [r3, r4, lsl #2]
 294              	.LVL32:
1029:lvgl/src/lv_widgets/lv_calendar.c **** }
 295              		.loc 1 1029 24 view .LVU73
 296 0018 FAE7     		b	.L26
 297              	.L31:
 298 001a 00BF     		.align	2
 299              	.L30:
 300 001c 00000000 		.word	.LANCHOR1
 301              		.cfi_endproc
 302              	.LFE483:
 304              		.section	.text.is_pressed,"ax",%progbits
 305              		.align	1
 306              		.syntax unified
 307              		.thumb
 308              		.thumb_func
 309              		.fpu fpv4-sp-d16
 311              	is_pressed:
 312              	.LVL33:
 313              	.LFB482:
1001:lvgl/src/lv_widgets/lv_calendar.c ****     lv_calendar_ext_t * ext = lv_obj_get_ext_attr(calendar);
 314              		.loc 1 1001 1 is_stmt 1 view -0
 315              		.cfi_startproc
 316              		@ args = 4, pretend = 0, frame = 0
 317              		@ frame_needed = 0, uses_anonymous_args = 0
1001:lvgl/src/lv_widgets/lv_calendar.c ****     lv_calendar_ext_t * ext = lv_obj_get_ext_attr(calendar);
 318              		.loc 1 1001 1 is_stmt 0 view .LVU75
 319 0000 70B5     		push	{r4, r5, r6, lr}
 320              	.LCFI3:
 321              		.cfi_def_cfa_offset 16
 322              		.cfi_offset 4, -16
 323              		.cfi_offset 5, -12
 324              		.cfi_offset 6, -8
 325              		.cfi_offset 14, -4
 326 0002 0E46     		mov	r6, r1
 327 0004 1546     		mov	r5, r2
 328 0006 1C46     		mov	r4, r3
1002:lvgl/src/lv_widgets/lv_calendar.c **** 
 329              		.loc 1 1002 5 is_stmt 1 view .LVU76
1002:lvgl/src/lv_widgets/lv_calendar.c **** 
 330              		.loc 1 1002 31 is_stmt 0 view .LVU77
 331 0008 FFF7FEFF 		bl	lv_obj_get_ext_attr
 332              	.LVL34:
1004:lvgl/src/lv_widgets/lv_calendar.c ****         year -= month == 1 ? 1 : 0;
 333              		.loc 1 1004 5 is_stmt 1 view .LVU78
1004:lvgl/src/lv_widgets/lv_calendar.c ****         year -= month == 1 ? 1 : 0;
 334              		.loc 1 1004 7 is_stmt 0 view .LVU79
 335 000c B6B9     		cbnz	r6, .L33
1005:lvgl/src/lv_widgets/lv_calendar.c ****         month = month == 1 ? 12 : month - 1;
 336              		.loc 1 1005 9 is_stmt 1 view .LVU80
1005:lvgl/src/lv_widgets/lv_calendar.c ****         month = month == 1 ? 12 : month - 1;
 337              		.loc 1 1005 32 is_stmt 0 view .LVU81
 338 000e 012C     		cmp	r4, #1
 339 0010 12D0     		beq	.L46
 340 0012 0023     		movs	r3, #0
 341              	.L34:
1005:lvgl/src/lv_widgets/lv_calendar.c ****         month = month == 1 ? 12 : month - 1;
ARM GAS  D:\Temp\cclvo1nc.s 			page 27


 342              		.loc 1 1005 14 discriminator 4 view .LVU82
 343 0014 ED1A     		subs	r5, r5, r3
 344              	.LVL35:
1006:lvgl/src/lv_widgets/lv_calendar.c ****     }
 345              		.loc 1 1006 9 is_stmt 1 discriminator 4 view .LVU83
1006:lvgl/src/lv_widgets/lv_calendar.c ****     }
 346              		.loc 1 1006 33 is_stmt 0 discriminator 4 view .LVU84
 347 0016 012C     		cmp	r4, #1
 348 0018 1CD0     		beq	.L39
1006:lvgl/src/lv_widgets/lv_calendar.c ****     }
 349              		.loc 1 1006 33 discriminator 1 view .LVU85
 350 001a 013C     		subs	r4, r4, #1
 351              	.LVL36:
 352              	.L35:
1013:lvgl/src/lv_widgets/lv_calendar.c ****     else return false;
 353              		.loc 1 1013 5 is_stmt 1 view .LVU86
1013:lvgl/src/lv_widgets/lv_calendar.c ****     else return false;
 354              		.loc 1 1013 33 is_stmt 0 view .LVU87
 355 001c 038A     		ldrh	r3, [r0, #16]
1013:lvgl/src/lv_widgets/lv_calendar.c ****     else return false;
 356              		.loc 1 1013 7 view .LVU88
 357 001e AB42     		cmp	r3, r5
 358 0020 1CD1     		bne	.L42
1013:lvgl/src/lv_widgets/lv_calendar.c ****     else return false;
 359              		.loc 1 1013 68 discriminator 1 view .LVU89
 360 0022 90F91230 		ldrsb	r3, [r0, #18]
1013:lvgl/src/lv_widgets/lv_calendar.c ****     else return false;
 361              		.loc 1 1013 39 discriminator 1 view .LVU90
 362 0026 A342     		cmp	r3, r4
 363 0028 1AD1     		bne	.L43
1013:lvgl/src/lv_widgets/lv_calendar.c ****     else return false;
 364              		.loc 1 1013 102 discriminator 2 view .LVU91
 365 002a 90F91320 		ldrsb	r2, [r0, #19]
1013:lvgl/src/lv_widgets/lv_calendar.c ****     else return false;
 366              		.loc 1 1013 75 discriminator 2 view .LVU92
 367 002e 049B     		ldr	r3, [sp, #16]
 368 0030 9A42     		cmp	r2, r3
 369 0032 17D0     		beq	.L44
1014:lvgl/src/lv_widgets/lv_calendar.c **** }
 370              		.loc 1 1014 17 view .LVU93
 371 0034 0020     		movs	r0, #0
 372              	.LVL37:
1014:lvgl/src/lv_widgets/lv_calendar.c **** }
 373              		.loc 1 1014 17 view .LVU94
 374 0036 12E0     		b	.L37
 375              	.LVL38:
 376              	.L46:
1005:lvgl/src/lv_widgets/lv_calendar.c ****         month = month == 1 ? 12 : month - 1;
 377              		.loc 1 1005 32 view .LVU95
 378 0038 0123     		movs	r3, #1
 379 003a EBE7     		b	.L34
 380              	.L33:
1008:lvgl/src/lv_widgets/lv_calendar.c ****         year += month == 12 ? 1 : 0;
 381              		.loc 1 1008 10 is_stmt 1 view .LVU96
1008:lvgl/src/lv_widgets/lv_calendar.c ****         year += month == 12 ? 1 : 0;
 382              		.loc 1 1008 12 is_stmt 0 view .LVU97
 383 003c 022E     		cmp	r6, #2
ARM GAS  D:\Temp\cclvo1nc.s 			page 28


 384 003e EDD1     		bne	.L35
1009:lvgl/src/lv_widgets/lv_calendar.c ****         month = month == 12 ? 1 : month + 1;
 385              		.loc 1 1009 9 is_stmt 1 view .LVU98
1009:lvgl/src/lv_widgets/lv_calendar.c ****         month = month == 12 ? 1 : month + 1;
 386              		.loc 1 1009 33 is_stmt 0 view .LVU99
 387 0040 0C2C     		cmp	r4, #12
 388 0042 05D0     		beq	.L47
 389 0044 0023     		movs	r3, #0
 390              	.L36:
1009:lvgl/src/lv_widgets/lv_calendar.c ****         month = month == 12 ? 1 : month + 1;
 391              		.loc 1 1009 14 discriminator 4 view .LVU100
 392 0046 1D44     		add	r5, r5, r3
 393              	.LVL39:
1010:lvgl/src/lv_widgets/lv_calendar.c ****     }
 394              		.loc 1 1010 9 is_stmt 1 discriminator 4 view .LVU101
1010:lvgl/src/lv_widgets/lv_calendar.c ****     }
 395              		.loc 1 1010 33 is_stmt 0 discriminator 4 view .LVU102
 396 0048 0C2C     		cmp	r4, #12
 397 004a 05D0     		beq	.L41
1010:lvgl/src/lv_widgets/lv_calendar.c ****     }
 398              		.loc 1 1010 33 discriminator 1 view .LVU103
 399 004c 0134     		adds	r4, r4, #1
 400              	.LVL40:
1010:lvgl/src/lv_widgets/lv_calendar.c ****     }
 401              		.loc 1 1010 33 discriminator 1 view .LVU104
 402 004e E5E7     		b	.L35
 403              	.LVL41:
 404              	.L47:
1009:lvgl/src/lv_widgets/lv_calendar.c ****         month = month == 12 ? 1 : month + 1;
 405              		.loc 1 1009 33 view .LVU105
 406 0050 0123     		movs	r3, #1
 407 0052 F8E7     		b	.L36
 408              	.L39:
1006:lvgl/src/lv_widgets/lv_calendar.c ****     }
 409              		.loc 1 1006 33 view .LVU106
 410 0054 0C24     		movs	r4, #12
 411              	.LVL42:
1006:lvgl/src/lv_widgets/lv_calendar.c ****     }
 412              		.loc 1 1006 33 view .LVU107
 413 0056 E1E7     		b	.L35
 414              	.LVL43:
 415              	.L41:
1010:lvgl/src/lv_widgets/lv_calendar.c ****     }
 416              		.loc 1 1010 33 view .LVU108
 417 0058 0124     		movs	r4, #1
 418              	.LVL44:
1010:lvgl/src/lv_widgets/lv_calendar.c ****     }
 419              		.loc 1 1010 33 view .LVU109
 420 005a DFE7     		b	.L35
 421              	.LVL45:
 422              	.L42:
1014:lvgl/src/lv_widgets/lv_calendar.c **** }
 423              		.loc 1 1014 17 view .LVU110
 424 005c 0020     		movs	r0, #0
 425              	.LVL46:
 426              	.L37:
1015:lvgl/src/lv_widgets/lv_calendar.c **** /**
ARM GAS  D:\Temp\cclvo1nc.s 			page 29


 427              		.loc 1 1015 1 view .LVU111
 428 005e 70BD     		pop	{r4, r5, r6, pc}
 429              	.LVL47:
 430              	.L43:
1014:lvgl/src/lv_widgets/lv_calendar.c **** }
 431              		.loc 1 1014 17 view .LVU112
 432 0060 0020     		movs	r0, #0
 433              	.LVL48:
1014:lvgl/src/lv_widgets/lv_calendar.c **** }
 434              		.loc 1 1014 17 view .LVU113
 435 0062 FCE7     		b	.L37
 436              	.LVL49:
 437              	.L44:
1013:lvgl/src/lv_widgets/lv_calendar.c ****     else return false;
 438              		.loc 1 1013 115 view .LVU114
 439 0064 0120     		movs	r0, #1
 440              	.LVL50:
1013:lvgl/src/lv_widgets/lv_calendar.c ****     else return false;
 441              		.loc 1 1013 115 view .LVU115
 442 0066 FAE7     		b	.L37
 443              		.cfi_endproc
 444              	.LFE482:
 446              		.section	.text.is_highlighted,"ax",%progbits
 447              		.align	1
 448              		.syntax unified
 449              		.thumb
 450              		.thumb_func
 451              		.fpu fpv4-sp-d16
 453              	is_highlighted:
 454              	.LVL51:
 455              	.LFB481:
 968:lvgl/src/lv_widgets/lv_calendar.c ****     lv_calendar_ext_t * ext = lv_obj_get_ext_attr(calendar);
 456              		.loc 1 968 1 is_stmt 1 view -0
 457              		.cfi_startproc
 458              		@ args = 4, pretend = 0, frame = 0
 459              		@ frame_needed = 0, uses_anonymous_args = 0
 968:lvgl/src/lv_widgets/lv_calendar.c ****     lv_calendar_ext_t * ext = lv_obj_get_ext_attr(calendar);
 460              		.loc 1 968 1 is_stmt 0 view .LVU117
 461 0000 F8B5     		push	{r3, r4, r5, r6, r7, lr}
 462              	.LCFI4:
 463              		.cfi_def_cfa_offset 24
 464              		.cfi_offset 3, -24
 465              		.cfi_offset 4, -20
 466              		.cfi_offset 5, -16
 467              		.cfi_offset 6, -12
 468              		.cfi_offset 7, -8
 469              		.cfi_offset 14, -4
 470 0002 0F46     		mov	r7, r1
 471 0004 1446     		mov	r4, r2
 472 0006 1D46     		mov	r5, r3
 473 0008 069E     		ldr	r6, [sp, #24]
 969:lvgl/src/lv_widgets/lv_calendar.c **** 
 474              		.loc 1 969 5 is_stmt 1 view .LVU118
 969:lvgl/src/lv_widgets/lv_calendar.c **** 
 475              		.loc 1 969 31 is_stmt 0 view .LVU119
 476 000a FFF7FEFF 		bl	lv_obj_get_ext_attr
 477              	.LVL52:
ARM GAS  D:\Temp\cclvo1nc.s 			page 30


 971:lvgl/src/lv_widgets/lv_calendar.c ****         year -= month == 1 ? 1 : 0;
 478              		.loc 1 971 5 is_stmt 1 view .LVU120
 971:lvgl/src/lv_widgets/lv_calendar.c ****         year -= month == 1 ? 1 : 0;
 479              		.loc 1 971 7 is_stmt 0 view .LVU121
 480 000e 57B9     		cbnz	r7, .L49
 972:lvgl/src/lv_widgets/lv_calendar.c ****         month = month == 1 ? 12 : month - 1;
 481              		.loc 1 972 9 is_stmt 1 view .LVU122
 972:lvgl/src/lv_widgets/lv_calendar.c ****         month = month == 1 ? 12 : month - 1;
 482              		.loc 1 972 32 is_stmt 0 view .LVU123
 483 0010 012D     		cmp	r5, #1
 484 0012 06D0     		beq	.L63
 485 0014 0023     		movs	r3, #0
 486              	.L50:
 972:lvgl/src/lv_widgets/lv_calendar.c ****         month = month == 1 ? 12 : month - 1;
 487              		.loc 1 972 14 discriminator 4 view .LVU124
 488 0016 E41A     		subs	r4, r4, r3
 489              	.LVL53:
 973:lvgl/src/lv_widgets/lv_calendar.c ****     }
 490              		.loc 1 973 9 is_stmt 1 discriminator 4 view .LVU125
 973:lvgl/src/lv_widgets/lv_calendar.c ****     }
 491              		.loc 1 973 33 is_stmt 0 discriminator 4 view .LVU126
 492 0018 012D     		cmp	r5, #1
 493 001a 10D0     		beq	.L58
 973:lvgl/src/lv_widgets/lv_calendar.c ****     }
 494              		.loc 1 973 33 discriminator 1 view .LVU127
 495 001c 013D     		subs	r5, r5, #1
 496              	.LVL54:
 497              	.L51:
 980:lvgl/src/lv_widgets/lv_calendar.c ****     for(i = 0; i < ext->highlighted_dates_num; i++) {
 498              		.loc 1 980 5 is_stmt 1 view .LVU128
 981:lvgl/src/lv_widgets/lv_calendar.c ****         if(ext->highlighted_dates[i].year == year && ext->highlighted_dates[i].month == month &&
 499              		.loc 1 981 5 view .LVU129
 981:lvgl/src/lv_widgets/lv_calendar.c ****         if(ext->highlighted_dates[i].year == year && ext->highlighted_dates[i].month == month &&
 500              		.loc 1 981 11 is_stmt 0 view .LVU130
 501 001e 0023     		movs	r3, #0
 981:lvgl/src/lv_widgets/lv_calendar.c ****         if(ext->highlighted_dates[i].year == year && ext->highlighted_dates[i].month == month &&
 502              		.loc 1 981 5 view .LVU131
 503 0020 12E0     		b	.L53
 504              	.LVL55:
 505              	.L63:
 972:lvgl/src/lv_widgets/lv_calendar.c ****         month = month == 1 ? 12 : month - 1;
 506              		.loc 1 972 32 view .LVU132
 507 0022 0123     		movs	r3, #1
 508 0024 F7E7     		b	.L50
 509              	.L49:
 975:lvgl/src/lv_widgets/lv_calendar.c ****         year += month == 12 ? 1 : 0;
 510              		.loc 1 975 10 is_stmt 1 view .LVU133
 975:lvgl/src/lv_widgets/lv_calendar.c ****         year += month == 12 ? 1 : 0;
 511              		.loc 1 975 12 is_stmt 0 view .LVU134
 512 0026 022F     		cmp	r7, #2
 513 0028 F9D1     		bne	.L51
 976:lvgl/src/lv_widgets/lv_calendar.c ****         month = month == 12 ? 1 : month + 1;
 514              		.loc 1 976 9 is_stmt 1 view .LVU135
 976:lvgl/src/lv_widgets/lv_calendar.c ****         month = month == 12 ? 1 : month + 1;
 515              		.loc 1 976 33 is_stmt 0 view .LVU136
 516 002a 0C2D     		cmp	r5, #12
 517 002c 05D0     		beq	.L64
ARM GAS  D:\Temp\cclvo1nc.s 			page 31


 518 002e 0023     		movs	r3, #0
 519              	.L52:
 976:lvgl/src/lv_widgets/lv_calendar.c ****         month = month == 12 ? 1 : month + 1;
 520              		.loc 1 976 14 discriminator 4 view .LVU137
 521 0030 1C44     		add	r4, r4, r3
 522              	.LVL56:
 977:lvgl/src/lv_widgets/lv_calendar.c ****     }
 523              		.loc 1 977 9 is_stmt 1 discriminator 4 view .LVU138
 977:lvgl/src/lv_widgets/lv_calendar.c ****     }
 524              		.loc 1 977 33 is_stmt 0 discriminator 4 view .LVU139
 525 0032 0C2D     		cmp	r5, #12
 526 0034 05D0     		beq	.L60
 977:lvgl/src/lv_widgets/lv_calendar.c ****     }
 527              		.loc 1 977 33 discriminator 1 view .LVU140
 528 0036 0135     		adds	r5, r5, #1
 529              	.LVL57:
 977:lvgl/src/lv_widgets/lv_calendar.c ****     }
 530              		.loc 1 977 33 discriminator 1 view .LVU141
 531 0038 F1E7     		b	.L51
 532              	.LVL58:
 533              	.L64:
 976:lvgl/src/lv_widgets/lv_calendar.c ****         month = month == 12 ? 1 : month + 1;
 534              		.loc 1 976 33 view .LVU142
 535 003a 0123     		movs	r3, #1
 536 003c F8E7     		b	.L52
 537              	.L58:
 973:lvgl/src/lv_widgets/lv_calendar.c ****     }
 538              		.loc 1 973 33 view .LVU143
 539 003e 0C25     		movs	r5, #12
 540              	.LVL59:
 973:lvgl/src/lv_widgets/lv_calendar.c ****     }
 541              		.loc 1 973 33 view .LVU144
 542 0040 EDE7     		b	.L51
 543              	.LVL60:
 544              	.L60:
 977:lvgl/src/lv_widgets/lv_calendar.c ****     }
 545              		.loc 1 977 33 view .LVU145
 546 0042 0125     		movs	r5, #1
 547              	.LVL61:
 977:lvgl/src/lv_widgets/lv_calendar.c ****     }
 548              		.loc 1 977 33 view .LVU146
 549 0044 EBE7     		b	.L51
 550              	.LVL62:
 551              	.L54:
 981:lvgl/src/lv_widgets/lv_calendar.c ****         if(ext->highlighted_dates[i].year == year && ext->highlighted_dates[i].month == month &&
 552              		.loc 1 981 49 discriminator 2 view .LVU147
 553 0046 0133     		adds	r3, r3, #1
 554              	.LVL63:
 555              	.L53:
 981:lvgl/src/lv_widgets/lv_calendar.c ****         if(ext->highlighted_dates[i].year == year && ext->highlighted_dates[i].month == month &&
 556              		.loc 1 981 23 discriminator 1 view .LVU148
 557 0048 C289     		ldrh	r2, [r0, #14]
 981:lvgl/src/lv_widgets/lv_calendar.c ****         if(ext->highlighted_dates[i].year == year && ext->highlighted_dates[i].month == month &&
 558              		.loc 1 981 5 discriminator 1 view .LVU149
 559 004a 9A42     		cmp	r2, r3
 560 004c 10D9     		bls	.L65
 982:lvgl/src/lv_widgets/lv_calendar.c ****            ext->highlighted_dates[i].day == day) {
ARM GAS  D:\Temp\cclvo1nc.s 			page 32


 561              		.loc 1 982 9 is_stmt 1 view .LVU150
 982:lvgl/src/lv_widgets/lv_calendar.c ****            ext->highlighted_dates[i].day == day) {
 562              		.loc 1 982 15 is_stmt 0 view .LVU151
 563 004e 8268     		ldr	r2, [r0, #8]
 982:lvgl/src/lv_widgets/lv_calendar.c ****            ext->highlighted_dates[i].day == day) {
 564              		.loc 1 982 34 view .LVU152
 565 0050 02EB8301 		add	r1, r2, r3, lsl #2
 982:lvgl/src/lv_widgets/lv_calendar.c ****            ext->highlighted_dates[i].day == day) {
 566              		.loc 1 982 37 view .LVU153
 567 0054 32F82320 		ldrh	r2, [r2, r3, lsl #2]
 982:lvgl/src/lv_widgets/lv_calendar.c ****            ext->highlighted_dates[i].day == day) {
 568              		.loc 1 982 11 view .LVU154
 569 0058 A242     		cmp	r2, r4
 570 005a F4D1     		bne	.L54
 982:lvgl/src/lv_widgets/lv_calendar.c ****            ext->highlighted_dates[i].day == day) {
 571              		.loc 1 982 79 discriminator 1 view .LVU155
 572 005c 91F90220 		ldrsb	r2, [r1, #2]
 982:lvgl/src/lv_widgets/lv_calendar.c ****            ext->highlighted_dates[i].day == day) {
 573              		.loc 1 982 51 discriminator 1 view .LVU156
 574 0060 AA42     		cmp	r2, r5
 575 0062 F0D1     		bne	.L54
 983:lvgl/src/lv_widgets/lv_calendar.c ****             return true;
 576              		.loc 1 983 37 discriminator 2 view .LVU157
 577 0064 91F90320 		ldrsb	r2, [r1, #3]
 982:lvgl/src/lv_widgets/lv_calendar.c ****            ext->highlighted_dates[i].day == day) {
 578              		.loc 1 982 95 discriminator 2 view .LVU158
 579 0068 B242     		cmp	r2, r6
 580 006a ECD1     		bne	.L54
 984:lvgl/src/lv_widgets/lv_calendar.c ****         }
 581              		.loc 1 984 20 view .LVU159
 582 006c 0120     		movs	r0, #1
 583              	.LVL64:
 984:lvgl/src/lv_widgets/lv_calendar.c ****         }
 584              		.loc 1 984 20 view .LVU160
 585 006e 00E0     		b	.L55
 586              	.LVL65:
 587              	.L65:
 988:lvgl/src/lv_widgets/lv_calendar.c **** }
 588              		.loc 1 988 12 view .LVU161
 589 0070 0020     		movs	r0, #0
 590              	.LVL66:
 591              	.L55:
 989:lvgl/src/lv_widgets/lv_calendar.c **** 
 592              		.loc 1 989 1 view .LVU162
 593 0072 F8BD     		pop	{r3, r4, r5, r6, r7, pc}
 989:lvgl/src/lv_widgets/lv_calendar.c **** 
 594              		.loc 1 989 1 view .LVU163
 595              		.cfi_endproc
 596              	.LFE481:
 598              		.section	.text.lv_calendar_get_style,"ax",%progbits
 599              		.align	1
 600              		.syntax unified
 601              		.thumb
 602              		.thumb_func
 603              		.fpu fpv4-sp-d16
 605              	lv_calendar_get_style:
 606              	.LVL67:
ARM GAS  D:\Temp\cclvo1nc.s 			page 33


 607              	.LFB474:
 577:lvgl/src/lv_widgets/lv_calendar.c ****     LV_ASSERT_OBJ(calendar, LV_OBJX_NAME);
 608              		.loc 1 577 1 is_stmt 1 view -0
 609              		.cfi_startproc
 610              		@ args = 0, pretend = 0, frame = 0
 611              		@ frame_needed = 0, uses_anonymous_args = 0
 577:lvgl/src/lv_widgets/lv_calendar.c ****     LV_ASSERT_OBJ(calendar, LV_OBJX_NAME);
 612              		.loc 1 577 1 is_stmt 0 view .LVU165
 613 0000 38B5     		push	{r3, r4, r5, lr}
 614              	.LCFI5:
 615              		.cfi_def_cfa_offset 16
 616              		.cfi_offset 3, -16
 617              		.cfi_offset 4, -12
 618              		.cfi_offset 5, -8
 619              		.cfi_offset 14, -4
 620 0002 0446     		mov	r4, r0
 621 0004 0D46     		mov	r5, r1
 578:lvgl/src/lv_widgets/lv_calendar.c **** 
 622              		.loc 1 578 5 is_stmt 1 view .LVU166
 578:lvgl/src/lv_widgets/lv_calendar.c **** 
 623              		.loc 1 578 5 view .LVU167
 624 0006 FFF7FEFF 		bl	lv_debug_check_null
 625              	.LVL68:
 578:lvgl/src/lv_widgets/lv_calendar.c **** 
 626              		.loc 1 578 5 is_stmt 0 view .LVU168
 627 000a 28B9     		cbnz	r0, .L67
 578:lvgl/src/lv_widgets/lv_calendar.c **** 
 628              		.loc 1 578 5 is_stmt 1 discriminator 1 view .LVU169
 578:lvgl/src/lv_widgets/lv_calendar.c **** 
 629              		.loc 1 578 5 discriminator 1 view .LVU170
 630 000c 2246     		mov	r2, r4
 631 000e 0023     		movs	r3, #0
 632 0010 0B48     		ldr	r0, .L77
 633 0012 FFF7FEFF 		bl	lv_debug_log_error
 634              	.LVL69:
 635              	.L68:
 578:lvgl/src/lv_widgets/lv_calendar.c **** 
 636              		.loc 1 578 5 discriminator 1 view .LVU171
 578:lvgl/src/lv_widgets/lv_calendar.c **** 
 637              		.loc 1 578 5 discriminator 1 view .LVU172
 638 0016 FEE7     		b	.L68
 639              	.L67:
 578:lvgl/src/lv_widgets/lv_calendar.c **** 
 640              		.loc 1 578 42 discriminator 2 view .LVU173
 580:lvgl/src/lv_widgets/lv_calendar.c ****     lv_style_list_t * style_dsc_p;
 641              		.loc 1 580 5 discriminator 2 view .LVU174
 580:lvgl/src/lv_widgets/lv_calendar.c ****     lv_style_list_t * style_dsc_p;
 642              		.loc 1 580 31 is_stmt 0 discriminator 2 view .LVU175
 643 0018 2046     		mov	r0, r4
 644 001a FFF7FEFF 		bl	lv_obj_get_ext_attr
 645              	.LVL70:
 581:lvgl/src/lv_widgets/lv_calendar.c **** 
 646              		.loc 1 581 5 is_stmt 1 discriminator 2 view .LVU176
 583:lvgl/src/lv_widgets/lv_calendar.c ****         case LV_CALENDAR_PART_BG:
 647              		.loc 1 583 5 discriminator 2 view .LVU177
 648 001e 032D     		cmp	r5, #3
 649 0020 0CD8     		bhi	.L75
ARM GAS  D:\Temp\cclvo1nc.s 			page 34


 650 0022 DFE805F0 		tbb	[pc, r5]
 651              	.L71:
 652 0026 02       		.byte	(.L74-.L71)/2
 653 0027 05       		.byte	(.L73-.L71)/2
 654 0028 07       		.byte	(.L72-.L71)/2
 655 0029 09       		.byte	(.L70-.L71)/2
 656              		.p2align 1
 657              	.L74:
 585:lvgl/src/lv_widgets/lv_calendar.c ****             break;
 658              		.loc 1 585 13 view .LVU178
 585:lvgl/src/lv_widgets/lv_calendar.c ****             break;
 659              		.loc 1 585 25 is_stmt 0 view .LVU179
 660 002a 04F12800 		add	r0, r4, #40
 661              	.LVL71:
 586:lvgl/src/lv_widgets/lv_calendar.c ****         case LV_CALENDAR_PART_HEADER:
 662              		.loc 1 586 13 is_stmt 1 view .LVU180
 663              	.L66:
 601:lvgl/src/lv_widgets/lv_calendar.c **** 
 664              		.loc 1 601 1 is_stmt 0 view .LVU181
 665 002e 38BD     		pop	{r3, r4, r5, pc}
 666              	.LVL72:
 667              	.L73:
 588:lvgl/src/lv_widgets/lv_calendar.c ****             break;
 668              		.loc 1 588 13 is_stmt 1 view .LVU182
 588:lvgl/src/lv_widgets/lv_calendar.c ****             break;
 669              		.loc 1 588 25 is_stmt 0 view .LVU183
 670 0030 1C30     		adds	r0, r0, #28
 671              	.LVL73:
 589:lvgl/src/lv_widgets/lv_calendar.c ****         case LV_CALENDAR_PART_DAY_NAMES:
 672              		.loc 1 589 13 is_stmt 1 view .LVU184
 673 0032 FCE7     		b	.L66
 674              	.LVL74:
 675              	.L72:
 591:lvgl/src/lv_widgets/lv_calendar.c ****             break;
 676              		.loc 1 591 13 view .LVU185
 591:lvgl/src/lv_widgets/lv_calendar.c ****             break;
 677              		.loc 1 591 25 is_stmt 0 view .LVU186
 678 0034 2430     		adds	r0, r0, #36
 679              	.LVL75:
 592:lvgl/src/lv_widgets/lv_calendar.c ****         case LV_CALENDAR_PART_DATE:
 680              		.loc 1 592 13 is_stmt 1 view .LVU187
 681 0036 FAE7     		b	.L66
 682              	.LVL76:
 683              	.L70:
 594:lvgl/src/lv_widgets/lv_calendar.c ****             break;
 684              		.loc 1 594 13 view .LVU188
 594:lvgl/src/lv_widgets/lv_calendar.c ****             break;
 685              		.loc 1 594 25 is_stmt 0 view .LVU189
 686 0038 2C30     		adds	r0, r0, #44
 687              	.LVL77:
 595:lvgl/src/lv_widgets/lv_calendar.c ****         default:
 688              		.loc 1 595 13 is_stmt 1 view .LVU190
 689 003a F8E7     		b	.L66
 690              	.LVL78:
 691              	.L75:
 597:lvgl/src/lv_widgets/lv_calendar.c ****     }
 692              		.loc 1 597 25 is_stmt 0 view .LVU191
ARM GAS  D:\Temp\cclvo1nc.s 			page 35


 693 003c 0020     		movs	r0, #0
 694              	.LVL79:
 600:lvgl/src/lv_widgets/lv_calendar.c **** }
 695              		.loc 1 600 5 is_stmt 1 view .LVU192
 600:lvgl/src/lv_widgets/lv_calendar.c **** }
 696              		.loc 1 600 12 is_stmt 0 view .LVU193
 697 003e F6E7     		b	.L66
 698              	.L78:
 699              		.align	2
 700              	.L77:
 701 0040 00000000 		.word	.LC0
 702              		.cfi_endproc
 703              	.LFE474:
 705              		.section	.text.draw_header,"ax",%progbits
 706              		.align	1
 707              		.syntax unified
 708              		.thumb
 709              		.thumb_func
 710              		.fpu fpv4-sp-d16
 712              	draw_header:
 713              	.LVL80:
 714              	.LFB478:
 699:lvgl/src/lv_widgets/lv_calendar.c ****     lv_style_int_t header_left = lv_obj_get_style_pad_left(calendar, LV_CALENDAR_PART_HEADER);
 715              		.loc 1 699 1 is_stmt 1 view -0
 716              		.cfi_startproc
 717              		@ args = 0, pretend = 0, frame = 192
 718              		@ frame_needed = 0, uses_anonymous_args = 0
 699:lvgl/src/lv_widgets/lv_calendar.c ****     lv_style_int_t header_left = lv_obj_get_style_pad_left(calendar, LV_CALENDAR_PART_HEADER);
 719              		.loc 1 699 1 is_stmt 0 view .LVU195
 720 0000 2DE9F04F 		push	{r4, r5, r6, r7, r8, r9, r10, fp, lr}
 721              	.LCFI6:
 722              		.cfi_def_cfa_offset 36
 723              		.cfi_offset 4, -36
 724              		.cfi_offset 5, -32
 725              		.cfi_offset 6, -28
 726              		.cfi_offset 7, -24
 727              		.cfi_offset 8, -20
 728              		.cfi_offset 9, -16
 729              		.cfi_offset 10, -12
 730              		.cfi_offset 11, -8
 731              		.cfi_offset 14, -4
 732 0004 B3B0     		sub	sp, sp, #204
 733              	.LCFI7:
 734              		.cfi_def_cfa_offset 240
 735 0006 0446     		mov	r4, r0
 736 0008 0E46     		mov	r6, r1
 700:lvgl/src/lv_widgets/lv_calendar.c ****     lv_style_int_t header_right = lv_obj_get_style_pad_right(calendar, LV_CALENDAR_PART_HEADER);
 737              		.loc 1 700 5 is_stmt 1 view .LVU196
 738              	.LVL81:
 739              	.LBB106:
 740              	.LBI106:
 741              		.file 2 "lvgl/src/lv_widgets/../lv_core/lv_obj_style_dec.h"
   1:lvgl/src/lv_widgets/../lv_core/lv_obj_style_dec.h **** 
   2:lvgl/src/lv_widgets/../lv_core/lv_obj_style_dec.h **** /**
   3:lvgl/src/lv_widgets/../lv_core/lv_obj_style_dec.h ****  * @file lv_obj_style_dec.h
   4:lvgl/src/lv_widgets/../lv_core/lv_obj_style_dec.h ****  *
   5:lvgl/src/lv_widgets/../lv_core/lv_obj_style_dec.h ****  */
ARM GAS  D:\Temp\cclvo1nc.s 			page 36


   6:lvgl/src/lv_widgets/../lv_core/lv_obj_style_dec.h **** 
   7:lvgl/src/lv_widgets/../lv_core/lv_obj_style_dec.h **** #ifndef LV_OBJ_STYLE_DEC_H
   8:lvgl/src/lv_widgets/../lv_core/lv_obj_style_dec.h **** #define LV_OBJ_STYLE_DEC_H
   9:lvgl/src/lv_widgets/../lv_core/lv_obj_style_dec.h **** 
  10:lvgl/src/lv_widgets/../lv_core/lv_obj_style_dec.h **** #ifdef __cplusplus
  11:lvgl/src/lv_widgets/../lv_core/lv_obj_style_dec.h **** extern "C" {
  12:lvgl/src/lv_widgets/../lv_core/lv_obj_style_dec.h **** #endif
  13:lvgl/src/lv_widgets/../lv_core/lv_obj_style_dec.h **** 
  14:lvgl/src/lv_widgets/../lv_core/lv_obj_style_dec.h **** /*********************
  15:lvgl/src/lv_widgets/../lv_core/lv_obj_style_dec.h ****  *      DEFINES
  16:lvgl/src/lv_widgets/../lv_core/lv_obj_style_dec.h ****  *********************/
  17:lvgl/src/lv_widgets/../lv_core/lv_obj_style_dec.h **** 
  18:lvgl/src/lv_widgets/../lv_core/lv_obj_style_dec.h **** /**
  19:lvgl/src/lv_widgets/../lv_core/lv_obj_style_dec.h ****  * Macro to declare the most important style set/get API functions.
  20:lvgl/src/lv_widgets/../lv_core/lv_obj_style_dec.h ****  *
  21:lvgl/src/lv_widgets/../lv_core/lv_obj_style_dec.h ****  * Get the value of a style property from an object in the object's current state
  22:lvgl/src/lv_widgets/../lv_core/lv_obj_style_dec.h ****  * -----------------------------------------------------------------------------
  23:lvgl/src/lv_widgets/../lv_core/lv_obj_style_dec.h ****  *  - Get the value of a style property from an object in the object's current state.
  24:lvgl/src/lv_widgets/../lv_core/lv_obj_style_dec.h ****  *  - Transition animation is taken into account.
  25:lvgl/src/lv_widgets/../lv_core/lv_obj_style_dec.h ****  *  - If the property is not set in the object's styles check the parent(s) if the property can be 
  26:lvgl/src/lv_widgets/../lv_core/lv_obj_style_dec.h ****  *  - If still not found return a default value.
  27:lvgl/src/lv_widgets/../lv_core/lv_obj_style_dec.h ****  *  - For example:
  28:lvgl/src/lv_widgets/../lv_core/lv_obj_style_dec.h ****  *      `lv_style_int_t w = lv_obj_get_style_border_width(btn1, LV_BTN_PART_MAIN);`
  29:lvgl/src/lv_widgets/../lv_core/lv_obj_style_dec.h ****  *
  30:lvgl/src/lv_widgets/../lv_core/lv_obj_style_dec.h ****  * Set a local style property for an object in a given state
  31:lvgl/src/lv_widgets/../lv_core/lv_obj_style_dec.h ****  * ---------------------------------------------------------
  32:lvgl/src/lv_widgets/../lv_core/lv_obj_style_dec.h ****  *  - For example:
  33:lvgl/src/lv_widgets/../lv_core/lv_obj_style_dec.h ****  *      `lv_obj_set_style_local_border_width(btn1, LV_BTN_PART_MAIN, LV_STATE_PRESSED, 2);`
  34:lvgl/src/lv_widgets/../lv_core/lv_obj_style_dec.h ****  *
  35:lvgl/src/lv_widgets/../lv_core/lv_obj_style_dec.h ****  * Get a local style property's value of an object in a given state
  36:lvgl/src/lv_widgets/../lv_core/lv_obj_style_dec.h ****  * ----------------------------------------------------------------
  37:lvgl/src/lv_widgets/../lv_core/lv_obj_style_dec.h ****  *  - Return the best matching property in the given state.
  38:lvgl/src/lv_widgets/../lv_core/lv_obj_style_dec.h ****  *  - E.g. if `state` parameter is LV_STATE_PRESSED | LV_STATE_CHECKED` but the property defined on
  39:lvgl/src/lv_widgets/../lv_core/lv_obj_style_dec.h ****  *    `LV_STATE_PRESSED` and `LV_STATE_DEFAULT` the best matching state is `LV_STATE_PRESSED`
  40:lvgl/src/lv_widgets/../lv_core/lv_obj_style_dec.h ****  *    (because it has higher precedence) and it will be returned.
  41:lvgl/src/lv_widgets/../lv_core/lv_obj_style_dec.h ****  *  - If the property is not found even in `LV_STATE_DEFAULT` `-1` is returned.
  42:lvgl/src/lv_widgets/../lv_core/lv_obj_style_dec.h ****  *  - For example:
  43:lvgl/src/lv_widgets/../lv_core/lv_obj_style_dec.h ****  *      `//Type of result should be lv_style_int_t/lv_opa_t/lv_color_t/const void * according to th
  44:lvgl/src/lv_widgets/../lv_core/lv_obj_style_dec.h ****  *      `lv_style_int_t result;`
  45:lvgl/src/lv_widgets/../lv_core/lv_obj_style_dec.h ****  *      `lv_obj_get_style_local_border_width(btn1, LV_BTN_PART_MAIN, LV_STATE_PRESSED, &result);`
  46:lvgl/src/lv_widgets/../lv_core/lv_obj_style_dec.h ****  *      `if(weight > 0) ...the property is found and loaded into result...`
  47:lvgl/src/lv_widgets/../lv_core/lv_obj_style_dec.h ****  *
  48:lvgl/src/lv_widgets/../lv_core/lv_obj_style_dec.h ****  * Get the value from a style in a given state
  49:lvgl/src/lv_widgets/../lv_core/lv_obj_style_dec.h ****  * -------------------------------------------
  50:lvgl/src/lv_widgets/../lv_core/lv_obj_style_dec.h ****  * - The same rules applies to the return value then for "lv_obj_get_style_local_...()" above
  51:lvgl/src/lv_widgets/../lv_core/lv_obj_style_dec.h ****  * - For example
  52:lvgl/src/lv_widgets/../lv_core/lv_obj_style_dec.h ****  *      `int16_t weight = lv_style_get_border_width(&style1, LV_STATE_PRESSED, &result);`
  53:lvgl/src/lv_widgets/../lv_core/lv_obj_style_dec.h ****  *      `if(weight > 0) ...the property is found and loaded into result...`
  54:lvgl/src/lv_widgets/../lv_core/lv_obj_style_dec.h **** 
  55:lvgl/src/lv_widgets/../lv_core/lv_obj_style_dec.h ****  * Set a value in a style in a given state
  56:lvgl/src/lv_widgets/../lv_core/lv_obj_style_dec.h ****  * ---------------------------------------
  57:lvgl/src/lv_widgets/../lv_core/lv_obj_style_dec.h ****  * - For example
  58:lvgl/src/lv_widgets/../lv_core/lv_obj_style_dec.h ****  *      `lv_style_set_border_width(&style1, LV_STATE_PRESSED, 2);`
  59:lvgl/src/lv_widgets/../lv_core/lv_obj_style_dec.h ****  */
  60:lvgl/src/lv_widgets/../lv_core/lv_obj_style_dec.h **** 
  61:lvgl/src/lv_widgets/../lv_core/lv_obj_style_dec.h **** #define _OBJ_GET_STYLE_scalar(prop_name, func_name, value_type, style_type)                        
  62:lvgl/src/lv_widgets/../lv_core/lv_obj_style_dec.h ****     static inline value_type lv_obj_get_style_##func_name (const lv_obj_t * obj, uint8_t part)     
ARM GAS  D:\Temp\cclvo1nc.s 			page 37


  63:lvgl/src/lv_widgets/../lv_core/lv_obj_style_dec.h ****     {                                                                                              
  64:lvgl/src/lv_widgets/../lv_core/lv_obj_style_dec.h ****         return (value_type) _lv_obj_get_style##style_type (obj, part, LV_STYLE_##prop_name);       
  65:lvgl/src/lv_widgets/../lv_core/lv_obj_style_dec.h ****     }
  66:lvgl/src/lv_widgets/../lv_core/lv_obj_style_dec.h **** 
  67:lvgl/src/lv_widgets/../lv_core/lv_obj_style_dec.h **** #define _OBJ_GET_STYLE_nonscalar(prop_name, func_name, value_type, style_type)                     
  68:lvgl/src/lv_widgets/../lv_core/lv_obj_style_dec.h ****     static inline value_type lv_obj_get_style_##func_name (const lv_obj_t * obj, uint8_t part)     
  69:lvgl/src/lv_widgets/../lv_core/lv_obj_style_dec.h ****     {                                                                                              
  70:lvgl/src/lv_widgets/../lv_core/lv_obj_style_dec.h ****         return _lv_obj_get_style##style_type (obj, part, LV_STYLE_##prop_name);                    
  71:lvgl/src/lv_widgets/../lv_core/lv_obj_style_dec.h ****     }
  72:lvgl/src/lv_widgets/../lv_core/lv_obj_style_dec.h **** 
  73:lvgl/src/lv_widgets/../lv_core/lv_obj_style_dec.h **** #define _OBJ_SET_STYLE_LOCAL_scalar(prop_name, func_name, value_type, style_type)                  
  74:lvgl/src/lv_widgets/../lv_core/lv_obj_style_dec.h ****     static inline void lv_obj_set_style_local_##func_name (lv_obj_t * obj, uint8_t part, lv_state_t
  75:lvgl/src/lv_widgets/../lv_core/lv_obj_style_dec.h ****     {                                                                                              
  76:lvgl/src/lv_widgets/../lv_core/lv_obj_style_dec.h ****         _lv_obj_set_style_local##style_type (obj, part, LV_STYLE_##prop_name | (state << LV_STYLE_S
  77:lvgl/src/lv_widgets/../lv_core/lv_obj_style_dec.h ****     }
  78:lvgl/src/lv_widgets/../lv_core/lv_obj_style_dec.h **** 
  79:lvgl/src/lv_widgets/../lv_core/lv_obj_style_dec.h **** #define _OBJ_SET_STYLE_LOCAL_nonscalar(prop_name, func_name, value_type, style_type)               
  80:lvgl/src/lv_widgets/../lv_core/lv_obj_style_dec.h ****     static inline void lv_obj_set_style_local_##func_name (lv_obj_t * obj, uint8_t part, lv_state_t
  81:lvgl/src/lv_widgets/../lv_core/lv_obj_style_dec.h ****     {                                                                                              
  82:lvgl/src/lv_widgets/../lv_core/lv_obj_style_dec.h ****         _lv_obj_set_style_local##style_type (obj, part, LV_STYLE_##prop_name | (state << LV_STYLE_S
  83:lvgl/src/lv_widgets/../lv_core/lv_obj_style_dec.h ****     }
  84:lvgl/src/lv_widgets/../lv_core/lv_obj_style_dec.h **** 
  85:lvgl/src/lv_widgets/../lv_core/lv_obj_style_dec.h **** #define _OBJ_SET_STYLE_scalar(prop_name, func_name, value_type, style_type)                        
  86:lvgl/src/lv_widgets/../lv_core/lv_obj_style_dec.h ****     static inline void lv_style_set_##func_name (lv_style_t * style, lv_state_t state, value_type v
  87:lvgl/src/lv_widgets/../lv_core/lv_obj_style_dec.h ****     {                                                                                              
  88:lvgl/src/lv_widgets/../lv_core/lv_obj_style_dec.h ****         _lv_style_set##style_type (style, LV_STYLE_##prop_name | (state << LV_STYLE_STATE_POS), val
  89:lvgl/src/lv_widgets/../lv_core/lv_obj_style_dec.h ****     }
  90:lvgl/src/lv_widgets/../lv_core/lv_obj_style_dec.h **** 
  91:lvgl/src/lv_widgets/../lv_core/lv_obj_style_dec.h **** #define _OBJ_SET_STYLE_nonscalar(prop_name, func_name, value_type, style_type)                     
  92:lvgl/src/lv_widgets/../lv_core/lv_obj_style_dec.h ****     static inline void lv_style_set_##func_name (lv_style_t * style, lv_state_t state, value_type v
  93:lvgl/src/lv_widgets/../lv_core/lv_obj_style_dec.h ****     {                                                                                              
  94:lvgl/src/lv_widgets/../lv_core/lv_obj_style_dec.h ****         _lv_style_set##style_type (style, LV_STYLE_##prop_name | (state << LV_STYLE_STATE_POS), val
  95:lvgl/src/lv_widgets/../lv_core/lv_obj_style_dec.h ****     }
  96:lvgl/src/lv_widgets/../lv_core/lv_obj_style_dec.h **** 
  97:lvgl/src/lv_widgets/../lv_core/lv_obj_style_dec.h **** #define _LV_OBJ_STYLE_SET_GET_DECLARE(prop_name, func_name, value_type, style_type, scalar)        
  98:lvgl/src/lv_widgets/../lv_core/lv_obj_style_dec.h ****     _OBJ_GET_STYLE_##scalar(prop_name, func_name, value_type, style_type)                          
  99:lvgl/src/lv_widgets/../lv_core/lv_obj_style_dec.h ****     _OBJ_SET_STYLE_LOCAL_##scalar(prop_name, func_name, value_type, style_type)                    
 100:lvgl/src/lv_widgets/../lv_core/lv_obj_style_dec.h ****     _OBJ_SET_STYLE_##scalar(prop_name, func_name, value_type, style_type)
 101:lvgl/src/lv_widgets/../lv_core/lv_obj_style_dec.h **** 
 102:lvgl/src/lv_widgets/../lv_core/lv_obj_style_dec.h **** _LV_OBJ_STYLE_SET_GET_DECLARE(RADIUS, radius, lv_style_int_t, _int, scalar)
 103:lvgl/src/lv_widgets/../lv_core/lv_obj_style_dec.h **** _LV_OBJ_STYLE_SET_GET_DECLARE(CLIP_CORNER, clip_corner, bool, _int, scalar)
 104:lvgl/src/lv_widgets/../lv_core/lv_obj_style_dec.h **** _LV_OBJ_STYLE_SET_GET_DECLARE(SIZE, size, lv_style_int_t, _int, scalar)
 105:lvgl/src/lv_widgets/../lv_core/lv_obj_style_dec.h **** _LV_OBJ_STYLE_SET_GET_DECLARE(TRANSFORM_WIDTH, transform_width, lv_style_int_t, _int, scalar)
 106:lvgl/src/lv_widgets/../lv_core/lv_obj_style_dec.h **** _LV_OBJ_STYLE_SET_GET_DECLARE(TRANSFORM_HEIGHT, transform_height, lv_style_int_t, _int, scalar)
 107:lvgl/src/lv_widgets/../lv_core/lv_obj_style_dec.h **** _LV_OBJ_STYLE_SET_GET_DECLARE(TRANSFORM_ANGLE, transform_angle, lv_style_int_t, _int, scalar)
 108:lvgl/src/lv_widgets/../lv_core/lv_obj_style_dec.h **** _LV_OBJ_STYLE_SET_GET_DECLARE(TRANSFORM_ZOOM, transform_zoom, lv_style_int_t, _int, scalar)
 109:lvgl/src/lv_widgets/../lv_core/lv_obj_style_dec.h **** _LV_OBJ_STYLE_SET_GET_DECLARE(OPA_SCALE, opa_scale, lv_opa_t, _opa, scalar)
 110:lvgl/src/lv_widgets/../lv_core/lv_obj_style_dec.h **** _LV_OBJ_STYLE_SET_GET_DECLARE(PAD_TOP, pad_top, lv_style_int_t, _int, scalar)
 111:lvgl/src/lv_widgets/../lv_core/lv_obj_style_dec.h **** _LV_OBJ_STYLE_SET_GET_DECLARE(PAD_BOTTOM, pad_bottom, lv_style_int_t, _int, scalar)
 112:lvgl/src/lv_widgets/../lv_core/lv_obj_style_dec.h **** _LV_OBJ_STYLE_SET_GET_DECLARE(PAD_LEFT, pad_left, lv_style_int_t, _int, scalar)
 742              		.loc 2 112 1 view .LVU197
 743              	.LBB107:
 744              		.loc 2 112 1 view .LVU198
 745 000a 1222     		movs	r2, #18
 746 000c 0121     		movs	r1, #1
 747              	.LVL82:
 748              		.loc 2 112 1 is_stmt 0 view .LVU199
ARM GAS  D:\Temp\cclvo1nc.s 			page 38


 749 000e FFF7FEFF 		bl	_lv_obj_get_style_int
 750              	.LVL83:
 751              		.loc 2 112 1 view .LVU200
 752 0012 8046     		mov	r8, r0
 753              	.LVL84:
 754              		.loc 2 112 1 view .LVU201
 755              	.LBE107:
 756              	.LBE106:
 701:lvgl/src/lv_widgets/lv_calendar.c ****     const lv_font_t * font = lv_obj_get_style_text_font(calendar, LV_CALENDAR_PART_HEADER);
 757              		.loc 1 701 5 is_stmt 1 view .LVU202
 758              	.LBB108:
 759              	.LBI108:
 113:lvgl/src/lv_widgets/../lv_core/lv_obj_style_dec.h **** _LV_OBJ_STYLE_SET_GET_DECLARE(PAD_RIGHT, pad_right, lv_style_int_t, _int, scalar)
 760              		.loc 2 113 1 view .LVU203
 761              	.LBB109:
 762              		.loc 2 113 1 view .LVU204
 763 0014 1322     		movs	r2, #19
 764 0016 0121     		movs	r1, #1
 765 0018 2046     		mov	r0, r4
 766 001a FFF7FEFF 		bl	_lv_obj_get_style_int
 767              	.LVL85:
 768 001e 8246     		mov	r10, r0
 769              	.LVL86:
 770              		.loc 2 113 1 is_stmt 0 view .LVU205
 771              	.LBE109:
 772              	.LBE108:
 702:lvgl/src/lv_widgets/lv_calendar.c **** 
 773              		.loc 1 702 5 is_stmt 1 view .LVU206
 774              	.LBB110:
 775              	.LBI110:
 114:lvgl/src/lv_widgets/../lv_core/lv_obj_style_dec.h **** _LV_OBJ_STYLE_SET_GET_DECLARE(PAD_INNER, pad_inner, lv_style_int_t, _int, scalar)
 115:lvgl/src/lv_widgets/../lv_core/lv_obj_style_dec.h **** _LV_OBJ_STYLE_SET_GET_DECLARE(MARGIN_TOP, margin_top, lv_style_int_t, _int, scalar)
 116:lvgl/src/lv_widgets/../lv_core/lv_obj_style_dec.h **** _LV_OBJ_STYLE_SET_GET_DECLARE(MARGIN_BOTTOM, margin_bottom, lv_style_int_t, _int, scalar)
 117:lvgl/src/lv_widgets/../lv_core/lv_obj_style_dec.h **** _LV_OBJ_STYLE_SET_GET_DECLARE(MARGIN_LEFT, margin_left, lv_style_int_t, _int, scalar)
 118:lvgl/src/lv_widgets/../lv_core/lv_obj_style_dec.h **** _LV_OBJ_STYLE_SET_GET_DECLARE(MARGIN_RIGHT, margin_right, lv_style_int_t, _int, scalar)
 119:lvgl/src/lv_widgets/../lv_core/lv_obj_style_dec.h **** _LV_OBJ_STYLE_SET_GET_DECLARE(BG_BLEND_MODE, bg_blend_mode, lv_blend_mode_t, _int, scalar)
 120:lvgl/src/lv_widgets/../lv_core/lv_obj_style_dec.h **** _LV_OBJ_STYLE_SET_GET_DECLARE(BG_MAIN_STOP, bg_main_stop, lv_style_int_t, _int, scalar)
 121:lvgl/src/lv_widgets/../lv_core/lv_obj_style_dec.h **** _LV_OBJ_STYLE_SET_GET_DECLARE(BG_GRAD_STOP, bg_grad_stop, lv_style_int_t, _int, scalar)
 122:lvgl/src/lv_widgets/../lv_core/lv_obj_style_dec.h **** _LV_OBJ_STYLE_SET_GET_DECLARE(BG_GRAD_DIR, bg_grad_dir, lv_grad_dir_t, _int, scalar)
 123:lvgl/src/lv_widgets/../lv_core/lv_obj_style_dec.h **** _LV_OBJ_STYLE_SET_GET_DECLARE(BG_COLOR, bg_color, lv_color_t, _color, nonscalar)
 124:lvgl/src/lv_widgets/../lv_core/lv_obj_style_dec.h **** _LV_OBJ_STYLE_SET_GET_DECLARE(BG_GRAD_COLOR, bg_grad_color, lv_color_t, _color, nonscalar)
 125:lvgl/src/lv_widgets/../lv_core/lv_obj_style_dec.h **** _LV_OBJ_STYLE_SET_GET_DECLARE(BG_OPA, bg_opa, lv_opa_t, _opa, scalar)
 126:lvgl/src/lv_widgets/../lv_core/lv_obj_style_dec.h **** _LV_OBJ_STYLE_SET_GET_DECLARE(BORDER_WIDTH, border_width, lv_style_int_t, _int, scalar)
 127:lvgl/src/lv_widgets/../lv_core/lv_obj_style_dec.h **** _LV_OBJ_STYLE_SET_GET_DECLARE(BORDER_SIDE, border_side, lv_border_side_t, _int, scalar)
 128:lvgl/src/lv_widgets/../lv_core/lv_obj_style_dec.h **** _LV_OBJ_STYLE_SET_GET_DECLARE(BORDER_BLEND_MODE, border_blend_mode, lv_blend_mode_t, _int, scalar)
 129:lvgl/src/lv_widgets/../lv_core/lv_obj_style_dec.h **** _LV_OBJ_STYLE_SET_GET_DECLARE(BORDER_POST, border_post, bool, _int, scalar)
 130:lvgl/src/lv_widgets/../lv_core/lv_obj_style_dec.h **** _LV_OBJ_STYLE_SET_GET_DECLARE(BORDER_COLOR, border_color, lv_color_t, _color, nonscalar)
 131:lvgl/src/lv_widgets/../lv_core/lv_obj_style_dec.h **** _LV_OBJ_STYLE_SET_GET_DECLARE(BORDER_OPA, border_opa, lv_opa_t, _opa, scalar)
 132:lvgl/src/lv_widgets/../lv_core/lv_obj_style_dec.h **** _LV_OBJ_STYLE_SET_GET_DECLARE(OUTLINE_WIDTH, outline_width, lv_style_int_t, _int, scalar)
 133:lvgl/src/lv_widgets/../lv_core/lv_obj_style_dec.h **** _LV_OBJ_STYLE_SET_GET_DECLARE(OUTLINE_PAD, outline_pad, lv_style_int_t, _int, scalar)
 134:lvgl/src/lv_widgets/../lv_core/lv_obj_style_dec.h **** _LV_OBJ_STYLE_SET_GET_DECLARE(OUTLINE_BLEND_MODE, outline_blend_mode, lv_blend_mode_t, _int, scalar
 135:lvgl/src/lv_widgets/../lv_core/lv_obj_style_dec.h **** _LV_OBJ_STYLE_SET_GET_DECLARE(OUTLINE_COLOR, outline_color, lv_color_t, _color, nonscalar)
 136:lvgl/src/lv_widgets/../lv_core/lv_obj_style_dec.h **** _LV_OBJ_STYLE_SET_GET_DECLARE(OUTLINE_OPA, outline_opa, lv_opa_t, _opa, scalar)
 137:lvgl/src/lv_widgets/../lv_core/lv_obj_style_dec.h **** _LV_OBJ_STYLE_SET_GET_DECLARE(SHADOW_WIDTH, shadow_width, lv_style_int_t, _int, scalar)
 138:lvgl/src/lv_widgets/../lv_core/lv_obj_style_dec.h **** _LV_OBJ_STYLE_SET_GET_DECLARE(SHADOW_OFS_X, shadow_ofs_x, lv_style_int_t, _int, scalar)
 139:lvgl/src/lv_widgets/../lv_core/lv_obj_style_dec.h **** _LV_OBJ_STYLE_SET_GET_DECLARE(SHADOW_OFS_Y, shadow_ofs_y, lv_style_int_t, _int, scalar)
 140:lvgl/src/lv_widgets/../lv_core/lv_obj_style_dec.h **** _LV_OBJ_STYLE_SET_GET_DECLARE(SHADOW_SPREAD, shadow_spread, lv_style_int_t, _int, scalar)
ARM GAS  D:\Temp\cclvo1nc.s 			page 39


 141:lvgl/src/lv_widgets/../lv_core/lv_obj_style_dec.h **** _LV_OBJ_STYLE_SET_GET_DECLARE(SHADOW_BLEND_MODE, shadow_blend_mode, lv_blend_mode_t, _int, scalar)
 142:lvgl/src/lv_widgets/../lv_core/lv_obj_style_dec.h **** _LV_OBJ_STYLE_SET_GET_DECLARE(SHADOW_COLOR, shadow_color, lv_color_t, _color, nonscalar)
 143:lvgl/src/lv_widgets/../lv_core/lv_obj_style_dec.h **** _LV_OBJ_STYLE_SET_GET_DECLARE(SHADOW_OPA, shadow_opa, lv_opa_t, _opa, scalar)
 144:lvgl/src/lv_widgets/../lv_core/lv_obj_style_dec.h **** _LV_OBJ_STYLE_SET_GET_DECLARE(PATTERN_REPEAT, pattern_repeat, bool, _int, scalar)
 145:lvgl/src/lv_widgets/../lv_core/lv_obj_style_dec.h **** _LV_OBJ_STYLE_SET_GET_DECLARE(PATTERN_BLEND_MODE, pattern_blend_mode, lv_blend_mode_t, _int, scalar
 146:lvgl/src/lv_widgets/../lv_core/lv_obj_style_dec.h **** _LV_OBJ_STYLE_SET_GET_DECLARE(PATTERN_RECOLOR, pattern_recolor, lv_color_t, _color, nonscalar)
 147:lvgl/src/lv_widgets/../lv_core/lv_obj_style_dec.h **** _LV_OBJ_STYLE_SET_GET_DECLARE(PATTERN_OPA, pattern_opa, lv_opa_t, _opa, scalar)
 148:lvgl/src/lv_widgets/../lv_core/lv_obj_style_dec.h **** _LV_OBJ_STYLE_SET_GET_DECLARE(PATTERN_RECOLOR_OPA, pattern_recolor_opa, lv_opa_t, _opa, scalar)
 149:lvgl/src/lv_widgets/../lv_core/lv_obj_style_dec.h **** _LV_OBJ_STYLE_SET_GET_DECLARE(PATTERN_IMAGE, pattern_image, const void *, _ptr, scalar)
 150:lvgl/src/lv_widgets/../lv_core/lv_obj_style_dec.h **** _LV_OBJ_STYLE_SET_GET_DECLARE(VALUE_LETTER_SPACE, value_letter_space, lv_style_int_t, _int, scalar)
 151:lvgl/src/lv_widgets/../lv_core/lv_obj_style_dec.h **** _LV_OBJ_STYLE_SET_GET_DECLARE(VALUE_LINE_SPACE, value_line_space, lv_style_int_t, _int, scalar)
 152:lvgl/src/lv_widgets/../lv_core/lv_obj_style_dec.h **** _LV_OBJ_STYLE_SET_GET_DECLARE(VALUE_BLEND_MODE, value_blend_mode, lv_blend_mode_t, _int, scalar)
 153:lvgl/src/lv_widgets/../lv_core/lv_obj_style_dec.h **** _LV_OBJ_STYLE_SET_GET_DECLARE(VALUE_OFS_X, value_ofs_x, lv_style_int_t, _int, scalar)
 154:lvgl/src/lv_widgets/../lv_core/lv_obj_style_dec.h **** _LV_OBJ_STYLE_SET_GET_DECLARE(VALUE_OFS_Y, value_ofs_y, lv_style_int_t, _int, scalar)
 155:lvgl/src/lv_widgets/../lv_core/lv_obj_style_dec.h **** _LV_OBJ_STYLE_SET_GET_DECLARE(VALUE_ALIGN, value_align, lv_align_t, _int, scalar)
 156:lvgl/src/lv_widgets/../lv_core/lv_obj_style_dec.h **** _LV_OBJ_STYLE_SET_GET_DECLARE(VALUE_COLOR, value_color, lv_color_t, _color, nonscalar)
 157:lvgl/src/lv_widgets/../lv_core/lv_obj_style_dec.h **** _LV_OBJ_STYLE_SET_GET_DECLARE(VALUE_OPA, value_opa, lv_opa_t, _opa, scalar)
 158:lvgl/src/lv_widgets/../lv_core/lv_obj_style_dec.h **** _LV_OBJ_STYLE_SET_GET_DECLARE(VALUE_FONT, value_font, const lv_font_t *, _ptr, scalar)
 159:lvgl/src/lv_widgets/../lv_core/lv_obj_style_dec.h **** _LV_OBJ_STYLE_SET_GET_DECLARE(VALUE_STR, value_str, const char *, _ptr, scalar)
 160:lvgl/src/lv_widgets/../lv_core/lv_obj_style_dec.h **** _LV_OBJ_STYLE_SET_GET_DECLARE(TEXT_LETTER_SPACE, text_letter_space, lv_style_int_t, _int, scalar)
 161:lvgl/src/lv_widgets/../lv_core/lv_obj_style_dec.h **** _LV_OBJ_STYLE_SET_GET_DECLARE(TEXT_LINE_SPACE, text_line_space, lv_style_int_t, _int, scalar)
 162:lvgl/src/lv_widgets/../lv_core/lv_obj_style_dec.h **** _LV_OBJ_STYLE_SET_GET_DECLARE(TEXT_DECOR, text_decor, lv_text_decor_t, _int, scalar)
 163:lvgl/src/lv_widgets/../lv_core/lv_obj_style_dec.h **** _LV_OBJ_STYLE_SET_GET_DECLARE(TEXT_BLEND_MODE, text_blend_mode, lv_blend_mode_t, _int, scalar)
 164:lvgl/src/lv_widgets/../lv_core/lv_obj_style_dec.h **** _LV_OBJ_STYLE_SET_GET_DECLARE(TEXT_COLOR, text_color, lv_color_t, _color, nonscalar)
 165:lvgl/src/lv_widgets/../lv_core/lv_obj_style_dec.h **** _LV_OBJ_STYLE_SET_GET_DECLARE(TEXT_SEL_COLOR, text_sel_color, lv_color_t, _color, nonscalar)
 166:lvgl/src/lv_widgets/../lv_core/lv_obj_style_dec.h **** _LV_OBJ_STYLE_SET_GET_DECLARE(TEXT_SEL_BG_COLOR, text_sel_bg_color, lv_color_t, _color, nonscalar)
 167:lvgl/src/lv_widgets/../lv_core/lv_obj_style_dec.h **** _LV_OBJ_STYLE_SET_GET_DECLARE(TEXT_OPA, text_opa, lv_opa_t, _opa, scalar)
 168:lvgl/src/lv_widgets/../lv_core/lv_obj_style_dec.h **** _LV_OBJ_STYLE_SET_GET_DECLARE(TEXT_FONT, text_font, const lv_font_t *, _ptr, scalar)
 776              		.loc 2 168 1 view .LVU207
 777              	.LBB111:
 778              		.loc 2 168 1 view .LVU208
 779 0020 48F28E02 		movw	r2, #32910
 780 0024 0121     		movs	r1, #1
 781 0026 2046     		mov	r0, r4
 782 0028 FFF7FEFF 		bl	_lv_obj_get_style_ptr
 783              	.LVL87:
 784 002c 8146     		mov	r9, r0
 785              	.LVL88:
 786              		.loc 2 168 1 is_stmt 0 view .LVU209
 787              	.LBE111:
 788              	.LBE110:
 704:lvgl/src/lv_widgets/lv_calendar.c **** 
 789              		.loc 1 704 5 is_stmt 1 view .LVU210
 704:lvgl/src/lv_widgets/lv_calendar.c **** 
 790              		.loc 1 704 31 is_stmt 0 view .LVU211
 791 002e 2046     		mov	r0, r4
 792              	.LVL89:
 704:lvgl/src/lv_widgets/lv_calendar.c **** 
 793              		.loc 1 704 31 view .LVU212
 794 0030 FFF7FEFF 		bl	lv_obj_get_ext_attr
 795              	.LVL90:
 796 0034 0746     		mov	r7, r0
 797              	.LVL91:
 706:lvgl/src/lv_widgets/lv_calendar.c ****     header_area.x1 = calendar->coords.x1;
 798              		.loc 1 706 5 is_stmt 1 view .LVU213
 707:lvgl/src/lv_widgets/lv_calendar.c ****     header_area.x2 = calendar->coords.x2;
 799              		.loc 1 707 5 view .LVU214
ARM GAS  D:\Temp\cclvo1nc.s 			page 40


 707:lvgl/src/lv_widgets/lv_calendar.c ****     header_area.x2 = calendar->coords.x2;
 800              		.loc 1 707 38 is_stmt 0 view .LVU215
 801 0036 B4F91030 		ldrsh	r3, [r4, #16]
 707:lvgl/src/lv_widgets/lv_calendar.c ****     header_area.x2 = calendar->coords.x2;
 802              		.loc 1 707 20 view .LVU216
 803 003a ADF8C030 		strh	r3, [sp, #192]	@ movhi
 708:lvgl/src/lv_widgets/lv_calendar.c ****     header_area.y1 = calendar->coords.y1 + lv_obj_get_style_margin_top(calendar, LV_CALENDAR_PART_H
 804              		.loc 1 708 5 is_stmt 1 view .LVU217
 708:lvgl/src/lv_widgets/lv_calendar.c ****     header_area.y1 = calendar->coords.y1 + lv_obj_get_style_margin_top(calendar, LV_CALENDAR_PART_H
 805              		.loc 1 708 38 is_stmt 0 view .LVU218
 806 003e B4F91430 		ldrsh	r3, [r4, #20]
 708:lvgl/src/lv_widgets/lv_calendar.c ****     header_area.y1 = calendar->coords.y1 + lv_obj_get_style_margin_top(calendar, LV_CALENDAR_PART_H
 807              		.loc 1 708 20 view .LVU219
 808 0042 ADF8C430 		strh	r3, [sp, #196]	@ movhi
 709:lvgl/src/lv_widgets/lv_calendar.c ****     header_area.y2 = header_area.y1 + lv_obj_get_style_pad_top(calendar, LV_CALENDAR_PART_HEADER) +
 809              		.loc 1 709 5 is_stmt 1 view .LVU220
 709:lvgl/src/lv_widgets/lv_calendar.c ****     header_area.y2 = header_area.y1 + lv_obj_get_style_pad_top(calendar, LV_CALENDAR_PART_HEADER) +
 810              		.loc 1 709 38 is_stmt 0 view .LVU221
 811 0046 658A     		ldrh	r5, [r4, #18]
 812              	.LVL92:
 813              	.LBB112:
 814              	.LBI112:
 115:lvgl/src/lv_widgets/../lv_core/lv_obj_style_dec.h **** _LV_OBJ_STYLE_SET_GET_DECLARE(MARGIN_BOTTOM, margin_bottom, lv_style_int_t, _int, scalar)
 815              		.loc 2 115 1 is_stmt 1 view .LVU222
 816              	.LBB113:
 115:lvgl/src/lv_widgets/../lv_core/lv_obj_style_dec.h **** _LV_OBJ_STYLE_SET_GET_DECLARE(MARGIN_BOTTOM, margin_bottom, lv_style_int_t, _int, scalar)
 817              		.loc 2 115 1 view .LVU223
 818 0048 1522     		movs	r2, #21
 819 004a 0121     		movs	r1, #1
 820 004c 2046     		mov	r0, r4
 821              	.LVL93:
 115:lvgl/src/lv_widgets/../lv_core/lv_obj_style_dec.h **** _LV_OBJ_STYLE_SET_GET_DECLARE(MARGIN_BOTTOM, margin_bottom, lv_style_int_t, _int, scalar)
 822              		.loc 2 115 1 is_stmt 0 view .LVU224
 823 004e FFF7FEFF 		bl	_lv_obj_get_style_int
 824              	.LVL94:
 115:lvgl/src/lv_widgets/../lv_core/lv_obj_style_dec.h **** _LV_OBJ_STYLE_SET_GET_DECLARE(MARGIN_BOTTOM, margin_bottom, lv_style_int_t, _int, scalar)
 825              		.loc 2 115 1 view .LVU225
 826              	.LBE113:
 827              	.LBE112:
 709:lvgl/src/lv_widgets/lv_calendar.c ****     header_area.y2 = header_area.y1 + lv_obj_get_style_pad_top(calendar, LV_CALENDAR_PART_HEADER) +
 828              		.loc 1 709 42 view .LVU226
 829 0052 15FA80F5 		uxtah	r5, r5, r0
 830 0056 ADB2     		uxth	r5, r5
 709:lvgl/src/lv_widgets/lv_calendar.c ****     header_area.y2 = header_area.y1 + lv_obj_get_style_pad_top(calendar, LV_CALENDAR_PART_HEADER) +
 831              		.loc 1 709 20 view .LVU227
 832 0058 ADF8C250 		strh	r5, [sp, #194]	@ movhi
 710:lvgl/src/lv_widgets/lv_calendar.c ****                      lv_font_get_line_height(font) + lv_obj_get_style_pad_bottom(calendar, LV_CALEN
 833              		.loc 1 710 5 is_stmt 1 view .LVU228
 834              	.LVL95:
 835              	.LBB114:
 836              	.LBI114:
 110:lvgl/src/lv_widgets/../lv_core/lv_obj_style_dec.h **** _LV_OBJ_STYLE_SET_GET_DECLARE(PAD_BOTTOM, pad_bottom, lv_style_int_t, _int, scalar)
 837              		.loc 2 110 1 view .LVU229
 838              	.LBB115:
 110:lvgl/src/lv_widgets/../lv_core/lv_obj_style_dec.h **** _LV_OBJ_STYLE_SET_GET_DECLARE(PAD_BOTTOM, pad_bottom, lv_style_int_t, _int, scalar)
 839              		.loc 2 110 1 view .LVU230
 840 005c 1022     		movs	r2, #16
ARM GAS  D:\Temp\cclvo1nc.s 			page 41


 841 005e 0121     		movs	r1, #1
 842 0060 2046     		mov	r0, r4
 843 0062 FFF7FEFF 		bl	_lv_obj_get_style_int
 844              	.LVL96:
 110:lvgl/src/lv_widgets/../lv_core/lv_obj_style_dec.h **** _LV_OBJ_STYLE_SET_GET_DECLARE(PAD_BOTTOM, pad_bottom, lv_style_int_t, _int, scalar)
 845              		.loc 2 110 1 is_stmt 0 view .LVU231
 846              	.LBE115:
 847              	.LBE114:
 710:lvgl/src/lv_widgets/lv_calendar.c ****                      lv_font_get_line_height(font) + lv_obj_get_style_pad_bottom(calendar, LV_CALEN
 848              		.loc 1 710 37 view .LVU232
 849 0066 15FA80F5 		uxtah	r5, r5, r0
 850              	.LVL97:
 851              	.LBB116:
 852              	.LBI116:
 853              		.file 3 "lvgl/src/lv_widgets/../lv_core/../lv_font/lv_font.h"
   1:lvgl/src/lv_widgets/../lv_core/../lv_font/lv_font.h **** /**
   2:lvgl/src/lv_widgets/../lv_core/../lv_font/lv_font.h ****  * @file lv_font.h
   3:lvgl/src/lv_widgets/../lv_core/../lv_font/lv_font.h ****  *
   4:lvgl/src/lv_widgets/../lv_core/../lv_font/lv_font.h ****  */
   5:lvgl/src/lv_widgets/../lv_core/../lv_font/lv_font.h **** 
   6:lvgl/src/lv_widgets/../lv_core/../lv_font/lv_font.h **** #ifndef LV_FONT_H
   7:lvgl/src/lv_widgets/../lv_core/../lv_font/lv_font.h **** #define LV_FONT_H
   8:lvgl/src/lv_widgets/../lv_core/../lv_font/lv_font.h **** 
   9:lvgl/src/lv_widgets/../lv_core/../lv_font/lv_font.h **** #ifdef __cplusplus
  10:lvgl/src/lv_widgets/../lv_core/../lv_font/lv_font.h **** extern "C" {
  11:lvgl/src/lv_widgets/../lv_core/../lv_font/lv_font.h **** #endif
  12:lvgl/src/lv_widgets/../lv_core/../lv_font/lv_font.h **** 
  13:lvgl/src/lv_widgets/../lv_core/../lv_font/lv_font.h **** /*********************
  14:lvgl/src/lv_widgets/../lv_core/../lv_font/lv_font.h ****  *      INCLUDES
  15:lvgl/src/lv_widgets/../lv_core/../lv_font/lv_font.h ****  *********************/
  16:lvgl/src/lv_widgets/../lv_core/../lv_font/lv_font.h **** #include "../lv_conf_internal.h"
  17:lvgl/src/lv_widgets/../lv_core/../lv_font/lv_font.h **** #include <stdint.h>
  18:lvgl/src/lv_widgets/../lv_core/../lv_font/lv_font.h **** #include <stddef.h>
  19:lvgl/src/lv_widgets/../lv_core/../lv_font/lv_font.h **** #include <stdbool.h>
  20:lvgl/src/lv_widgets/../lv_core/../lv_font/lv_font.h **** 
  21:lvgl/src/lv_widgets/../lv_core/../lv_font/lv_font.h **** #include "lv_symbol_def.h"
  22:lvgl/src/lv_widgets/../lv_core/../lv_font/lv_font.h **** #include "../lv_misc/lv_area.h"
  23:lvgl/src/lv_widgets/../lv_core/../lv_font/lv_font.h **** 
  24:lvgl/src/lv_widgets/../lv_core/../lv_font/lv_font.h **** /*********************
  25:lvgl/src/lv_widgets/../lv_core/../lv_font/lv_font.h ****  *      DEFINES
  26:lvgl/src/lv_widgets/../lv_core/../lv_font/lv_font.h ****  *********************/
  27:lvgl/src/lv_widgets/../lv_core/../lv_font/lv_font.h **** 
  28:lvgl/src/lv_widgets/../lv_core/../lv_font/lv_font.h **** /**********************
  29:lvgl/src/lv_widgets/../lv_core/../lv_font/lv_font.h ****  *      TYPEDEFS
  30:lvgl/src/lv_widgets/../lv_core/../lv_font/lv_font.h ****  **********************/
  31:lvgl/src/lv_widgets/../lv_core/../lv_font/lv_font.h **** 
  32:lvgl/src/lv_widgets/../lv_core/../lv_font/lv_font.h **** /*------------------
  33:lvgl/src/lv_widgets/../lv_core/../lv_font/lv_font.h ****  * General types
  34:lvgl/src/lv_widgets/../lv_core/../lv_font/lv_font.h ****  *-----------------*/
  35:lvgl/src/lv_widgets/../lv_core/../lv_font/lv_font.h **** 
  36:lvgl/src/lv_widgets/../lv_core/../lv_font/lv_font.h **** /** Describes the properties of a glyph. */
  37:lvgl/src/lv_widgets/../lv_core/../lv_font/lv_font.h **** typedef struct {
  38:lvgl/src/lv_widgets/../lv_core/../lv_font/lv_font.h ****     uint16_t adv_w; /**< The glyph needs this space. Draw the next glyph after this width. 8 bit in
  39:lvgl/src/lv_widgets/../lv_core/../lv_font/lv_font.h ****     uint16_t box_w;  /**< Width of the glyph's bounding box*/
  40:lvgl/src/lv_widgets/../lv_core/../lv_font/lv_font.h ****     uint16_t box_h;  /**< Height of the glyph's bounding box*/
  41:lvgl/src/lv_widgets/../lv_core/../lv_font/lv_font.h ****     int16_t ofs_x;   /**< x offset of the bounding box*/
  42:lvgl/src/lv_widgets/../lv_core/../lv_font/lv_font.h ****     int16_t ofs_y;  /**< y offset of the bounding box*/
ARM GAS  D:\Temp\cclvo1nc.s 			page 42


  43:lvgl/src/lv_widgets/../lv_core/../lv_font/lv_font.h ****     uint8_t bpp;   /**< Bit-per-pixel: 1, 2, 4, 8*/
  44:lvgl/src/lv_widgets/../lv_core/../lv_font/lv_font.h **** } lv_font_glyph_dsc_t;
  45:lvgl/src/lv_widgets/../lv_core/../lv_font/lv_font.h **** 
  46:lvgl/src/lv_widgets/../lv_core/../lv_font/lv_font.h **** /** The bitmaps might be upscaled by 3 to achieve subpixel rendering. */
  47:lvgl/src/lv_widgets/../lv_core/../lv_font/lv_font.h **** enum {
  48:lvgl/src/lv_widgets/../lv_core/../lv_font/lv_font.h ****     LV_FONT_SUBPX_NONE,
  49:lvgl/src/lv_widgets/../lv_core/../lv_font/lv_font.h ****     LV_FONT_SUBPX_HOR,
  50:lvgl/src/lv_widgets/../lv_core/../lv_font/lv_font.h ****     LV_FONT_SUBPX_VER,
  51:lvgl/src/lv_widgets/../lv_core/../lv_font/lv_font.h ****     LV_FONT_SUBPX_BOTH,
  52:lvgl/src/lv_widgets/../lv_core/../lv_font/lv_font.h **** };
  53:lvgl/src/lv_widgets/../lv_core/../lv_font/lv_font.h **** 
  54:lvgl/src/lv_widgets/../lv_core/../lv_font/lv_font.h **** typedef uint8_t lv_font_subpx_t;
  55:lvgl/src/lv_widgets/../lv_core/../lv_font/lv_font.h **** 
  56:lvgl/src/lv_widgets/../lv_core/../lv_font/lv_font.h **** /** Describe the properties of a font*/
  57:lvgl/src/lv_widgets/../lv_core/../lv_font/lv_font.h **** typedef struct _lv_font_struct {
  58:lvgl/src/lv_widgets/../lv_core/../lv_font/lv_font.h ****     /** Get a glyph's descriptor from a font*/
  59:lvgl/src/lv_widgets/../lv_core/../lv_font/lv_font.h ****     bool (*get_glyph_dsc)(const struct _lv_font_struct *, lv_font_glyph_dsc_t *, uint32_t letter, u
  60:lvgl/src/lv_widgets/../lv_core/../lv_font/lv_font.h **** 
  61:lvgl/src/lv_widgets/../lv_core/../lv_font/lv_font.h ****     /** Get a glyph's bitmap from a font*/
  62:lvgl/src/lv_widgets/../lv_core/../lv_font/lv_font.h ****     const uint8_t * (*get_glyph_bitmap)(const struct _lv_font_struct *, uint32_t);
  63:lvgl/src/lv_widgets/../lv_core/../lv_font/lv_font.h **** 
  64:lvgl/src/lv_widgets/../lv_core/../lv_font/lv_font.h ****     /*Pointer to the font in a font pack (must have the same line height)*/
  65:lvgl/src/lv_widgets/../lv_core/../lv_font/lv_font.h ****     lv_coord_t line_height;         /**< The real line height where any text fits*/
  66:lvgl/src/lv_widgets/../lv_core/../lv_font/lv_font.h ****     lv_coord_t base_line;           /**< Base line measured from the top of the line_height*/
  67:lvgl/src/lv_widgets/../lv_core/../lv_font/lv_font.h ****     uint8_t subpx  : 2;             /**< An element of `lv_font_subpx_t`*/
  68:lvgl/src/lv_widgets/../lv_core/../lv_font/lv_font.h **** 
  69:lvgl/src/lv_widgets/../lv_core/../lv_font/lv_font.h ****     int8_t underline_position;      /**< Distance between the top of the underline and base line (<
  70:lvgl/src/lv_widgets/../lv_core/../lv_font/lv_font.h ****     int8_t underline_thickness;     /**< Thickness of the underline*/
  71:lvgl/src/lv_widgets/../lv_core/../lv_font/lv_font.h **** 
  72:lvgl/src/lv_widgets/../lv_core/../lv_font/lv_font.h ****     void * dsc;                     /**< Store implementation specific or run_time data or caching 
  73:lvgl/src/lv_widgets/../lv_core/../lv_font/lv_font.h **** #if LV_USE_USER_DATA
  74:lvgl/src/lv_widgets/../lv_core/../lv_font/lv_font.h ****     lv_font_user_data_t user_data;  /**< Custom user data for font. */
  75:lvgl/src/lv_widgets/../lv_core/../lv_font/lv_font.h **** #endif
  76:lvgl/src/lv_widgets/../lv_core/../lv_font/lv_font.h **** 
  77:lvgl/src/lv_widgets/../lv_core/../lv_font/lv_font.h **** } lv_font_t;
  78:lvgl/src/lv_widgets/../lv_core/../lv_font/lv_font.h **** 
  79:lvgl/src/lv_widgets/../lv_core/../lv_font/lv_font.h **** /**********************
  80:lvgl/src/lv_widgets/../lv_core/../lv_font/lv_font.h ****  * GLOBAL PROTOTYPES
  81:lvgl/src/lv_widgets/../lv_core/../lv_font/lv_font.h ****  **********************/
  82:lvgl/src/lv_widgets/../lv_core/../lv_font/lv_font.h **** 
  83:lvgl/src/lv_widgets/../lv_core/../lv_font/lv_font.h **** /**
  84:lvgl/src/lv_widgets/../lv_core/../lv_font/lv_font.h ****  * Return with the bitmap of a font.
  85:lvgl/src/lv_widgets/../lv_core/../lv_font/lv_font.h ****  * @param font_p pointer to a font
  86:lvgl/src/lv_widgets/../lv_core/../lv_font/lv_font.h ****  * @param letter an UNICODE character code
  87:lvgl/src/lv_widgets/../lv_core/../lv_font/lv_font.h ****  * @return pointer to the bitmap of the letter
  88:lvgl/src/lv_widgets/../lv_core/../lv_font/lv_font.h ****  */
  89:lvgl/src/lv_widgets/../lv_core/../lv_font/lv_font.h **** const uint8_t * lv_font_get_glyph_bitmap(const lv_font_t * font_p, uint32_t letter);
  90:lvgl/src/lv_widgets/../lv_core/../lv_font/lv_font.h **** 
  91:lvgl/src/lv_widgets/../lv_core/../lv_font/lv_font.h **** /**
  92:lvgl/src/lv_widgets/../lv_core/../lv_font/lv_font.h ****  * Get the descriptor of a glyph
  93:lvgl/src/lv_widgets/../lv_core/../lv_font/lv_font.h ****  * @param font_p pointer to font
  94:lvgl/src/lv_widgets/../lv_core/../lv_font/lv_font.h ****  * @param dsc_out store the result descriptor here
  95:lvgl/src/lv_widgets/../lv_core/../lv_font/lv_font.h ****  * @param letter an UNICODE letter code
  96:lvgl/src/lv_widgets/../lv_core/../lv_font/lv_font.h ****  * @return true: descriptor is successfully loaded into `dsc_out`.
  97:lvgl/src/lv_widgets/../lv_core/../lv_font/lv_font.h ****  *         false: the letter was not found, no data is loaded to `dsc_out`
  98:lvgl/src/lv_widgets/../lv_core/../lv_font/lv_font.h ****  */
  99:lvgl/src/lv_widgets/../lv_core/../lv_font/lv_font.h **** bool lv_font_get_glyph_dsc(const lv_font_t * font_p, lv_font_glyph_dsc_t * dsc_out, uint32_t letter
ARM GAS  D:\Temp\cclvo1nc.s 			page 43


 100:lvgl/src/lv_widgets/../lv_core/../lv_font/lv_font.h ****                            uint32_t letter_next);
 101:lvgl/src/lv_widgets/../lv_core/../lv_font/lv_font.h **** 
 102:lvgl/src/lv_widgets/../lv_core/../lv_font/lv_font.h **** /**
 103:lvgl/src/lv_widgets/../lv_core/../lv_font/lv_font.h ****  * Get the width of a glyph with kerning
 104:lvgl/src/lv_widgets/../lv_core/../lv_font/lv_font.h ****  * @param font pointer to a font
 105:lvgl/src/lv_widgets/../lv_core/../lv_font/lv_font.h ****  * @param letter an UNICODE letter
 106:lvgl/src/lv_widgets/../lv_core/../lv_font/lv_font.h ****  * @param letter_next the next letter after `letter`. Used for kerning
 107:lvgl/src/lv_widgets/../lv_core/../lv_font/lv_font.h ****  * @return the width of the glyph
 108:lvgl/src/lv_widgets/../lv_core/../lv_font/lv_font.h ****  */
 109:lvgl/src/lv_widgets/../lv_core/../lv_font/lv_font.h **** uint16_t lv_font_get_glyph_width(const lv_font_t * font, uint32_t letter, uint32_t letter_next);
 110:lvgl/src/lv_widgets/../lv_core/../lv_font/lv_font.h **** 
 111:lvgl/src/lv_widgets/../lv_core/../lv_font/lv_font.h **** /**
 112:lvgl/src/lv_widgets/../lv_core/../lv_font/lv_font.h ****  * Get the line height of a font. All characters fit into this height
 113:lvgl/src/lv_widgets/../lv_core/../lv_font/lv_font.h ****  * @param font_p pointer to a font
 114:lvgl/src/lv_widgets/../lv_core/../lv_font/lv_font.h ****  * @return the height of a font
 115:lvgl/src/lv_widgets/../lv_core/../lv_font/lv_font.h ****  */
 116:lvgl/src/lv_widgets/../lv_core/../lv_font/lv_font.h **** static inline lv_coord_t lv_font_get_line_height(const lv_font_t * font_p)
 854              		.loc 3 116 26 is_stmt 1 view .LVU233
 855              	.LBB117:
 117:lvgl/src/lv_widgets/../lv_core/../lv_font/lv_font.h **** {
 118:lvgl/src/lv_widgets/../lv_core/../lv_font/lv_font.h ****     return font_p->line_height;
 856              		.loc 3 118 5 view .LVU234
 857              		.loc 3 118 18 is_stmt 0 view .LVU235
 858 006a B9F90800 		ldrsh	r0, [r9, #8]
 859              	.LVL98:
 860              		.loc 3 118 18 view .LVU236
 861              	.LBE117:
 862              	.LBE116:
 711:lvgl/src/lv_widgets/lv_calendar.c **** 
 863              		.loc 1 711 22 view .LVU237
 864 006e 80B2     		uxth	r0, r0
 710:lvgl/src/lv_widgets/lv_calendar.c ****                      lv_font_get_line_height(font) + lv_obj_get_style_pad_bottom(calendar, LV_CALEN
 865              		.loc 1 710 99 view .LVU238
 866 0070 10FA85F5 		uxtah	r5, r0, r5
 867 0074 ADB2     		uxth	r5, r5
 868              	.LVL99:
 869              	.LBB118:
 870              	.LBI118:
 111:lvgl/src/lv_widgets/../lv_core/lv_obj_style_dec.h **** _LV_OBJ_STYLE_SET_GET_DECLARE(PAD_LEFT, pad_left, lv_style_int_t, _int, scalar)
 871              		.loc 2 111 1 is_stmt 1 view .LVU239
 872              	.LBB119:
 111:lvgl/src/lv_widgets/../lv_core/lv_obj_style_dec.h **** _LV_OBJ_STYLE_SET_GET_DECLARE(PAD_LEFT, pad_left, lv_style_int_t, _int, scalar)
 873              		.loc 2 111 1 view .LVU240
 874 0076 1122     		movs	r2, #17
 875 0078 0121     		movs	r1, #1
 876 007a 2046     		mov	r0, r4
 877 007c FFF7FEFF 		bl	_lv_obj_get_style_int
 878              	.LVL100:
 111:lvgl/src/lv_widgets/../lv_core/lv_obj_style_dec.h **** _LV_OBJ_STYLE_SET_GET_DECLARE(PAD_LEFT, pad_left, lv_style_int_t, _int, scalar)
 879              		.loc 2 111 1 is_stmt 0 view .LVU241
 880              	.LBE119:
 881              	.LBE118:
 711:lvgl/src/lv_widgets/lv_calendar.c **** 
 882              		.loc 1 711 52 view .LVU242
 883 0080 15FA80F0 		uxtah	r0, r5, r0
 710:lvgl/src/lv_widgets/lv_calendar.c ****                      lv_font_get_line_height(font) + lv_obj_get_style_pad_bottom(calendar, LV_CALEN
 884              		.loc 1 710 20 view .LVU243
ARM GAS  D:\Temp\cclvo1nc.s 			page 44


 885 0084 ADF8C600 		strh	r0, [sp, #198]	@ movhi
 713:lvgl/src/lv_widgets/lv_calendar.c ****     lv_draw_rect_dsc_init(&header_rect_dsc);
 886              		.loc 1 713 5 is_stmt 1 view .LVU244
 714:lvgl/src/lv_widgets/lv_calendar.c ****     lv_obj_init_draw_rect_dsc(calendar, LV_CALENDAR_PART_HEADER, &header_rect_dsc);
 887              		.loc 1 714 5 view .LVU245
 888 0088 1BA8     		add	r0, sp, #108
 889 008a FFF7FEFF 		bl	lv_draw_rect_dsc_init
 890              	.LVL101:
 715:lvgl/src/lv_widgets/lv_calendar.c ****     lv_draw_rect(&header_area, mask, &header_rect_dsc);
 891              		.loc 1 715 5 view .LVU246
 892 008e 1BAA     		add	r2, sp, #108
 893 0090 0121     		movs	r1, #1
 894 0092 2046     		mov	r0, r4
 895 0094 FFF7FEFF 		bl	lv_obj_init_draw_rect_dsc
 896              	.LVL102:
 716:lvgl/src/lv_widgets/lv_calendar.c **** 
 897              		.loc 1 716 5 view .LVU247
 898 0098 1BAA     		add	r2, sp, #108
 899 009a 3146     		mov	r1, r6
 900 009c 30A8     		add	r0, sp, #192
 901 009e FFF7FEFF 		bl	lv_draw_rect
 902              	.LVL103:
 718:lvgl/src/lv_widgets/lv_calendar.c **** 
 903              		.loc 1 718 5 view .LVU248
 718:lvgl/src/lv_widgets/lv_calendar.c **** 
 904              		.loc 1 718 16 is_stmt 0 view .LVU249
 905 00a2 94F83D50 		ldrb	r5, [r4, #61]	@ zero_extendqisi2
 906              	.LVL104:
 721:lvgl/src/lv_widgets/lv_calendar.c ****     _lv_utils_num_to_str(ext->showed_date.year, txt_buf);
 907              		.loc 1 721 5 is_stmt 1 view .LVU250
 722:lvgl/src/lv_widgets/lv_calendar.c ****     txt_buf[4] = ' ';
 908              		.loc 1 722 5 view .LVU251
 909 00a6 0BA9     		add	r1, sp, #44
 910 00a8 B888     		ldrh	r0, [r7, #4]
 911 00aa FFF7FEFF 		bl	_lv_utils_num_to_str
 912              	.LVL105:
 723:lvgl/src/lv_widgets/lv_calendar.c ****     txt_buf[5] = '\0';
 913              		.loc 1 723 5 view .LVU252
 723:lvgl/src/lv_widgets/lv_calendar.c ****     txt_buf[5] = '\0';
 914              		.loc 1 723 16 is_stmt 0 view .LVU253
 915 00ae 2023     		movs	r3, #32
 916 00b0 8DF83030 		strb	r3, [sp, #48]
 724:lvgl/src/lv_widgets/lv_calendar.c ****     strcpy(&txt_buf[5], get_month_name(calendar, ext->showed_date.month));
 917              		.loc 1 724 5 is_stmt 1 view .LVU254
 724:lvgl/src/lv_widgets/lv_calendar.c ****     strcpy(&txt_buf[5], get_month_name(calendar, ext->showed_date.month));
 918              		.loc 1 724 16 is_stmt 0 view .LVU255
 919 00b4 4FF0000B 		mov	fp, #0
 920 00b8 8DF831B0 		strb	fp, [sp, #49]
 725:lvgl/src/lv_widgets/lv_calendar.c **** 
 921              		.loc 1 725 5 is_stmt 1 view .LVU256
 922 00bc 97F90610 		ldrsb	r1, [r7, #6]
 923 00c0 2046     		mov	r0, r4
 924 00c2 FFF7FEFF 		bl	get_month_name
 925              	.LVL106:
 926 00c6 0146     		mov	r1, r0
 927 00c8 0DF13100 		add	r0, sp, #49
 928 00cc FFF7FEFF 		bl	strcpy
ARM GAS  D:\Temp\cclvo1nc.s 			page 45


 929              	.LVL107:
 727:lvgl/src/lv_widgets/lv_calendar.c ****     _lv_obj_disable_style_caching(calendar, true);
 930              		.loc 1 727 5 view .LVU257
 727:lvgl/src/lv_widgets/lv_calendar.c ****     _lv_obj_disable_style_caching(calendar, true);
 931              		.loc 1 727 21 is_stmt 0 view .LVU258
 932 00d0 84F83DB0 		strb	fp, [r4, #61]
 728:lvgl/src/lv_widgets/lv_calendar.c **** 
 933              		.loc 1 728 5 is_stmt 1 view .LVU259
 934 00d4 0121     		movs	r1, #1
 935 00d6 2046     		mov	r0, r4
 936 00d8 FFF7FEFF 		bl	_lv_obj_disable_style_caching
 937              	.LVL108:
 730:lvgl/src/lv_widgets/lv_calendar.c ****     lv_draw_label_dsc_init(&label_dsc);
 938              		.loc 1 730 5 view .LVU260
 731:lvgl/src/lv_widgets/lv_calendar.c ****     lv_obj_init_draw_label_dsc(calendar, LV_CALENDAR_PART_HEADER, &label_dsc);
 939              		.loc 1 731 5 view .LVU261
 940 00dc 02A8     		add	r0, sp, #8
 941 00de FFF7FEFF 		bl	lv_draw_label_dsc_init
 942              	.LVL109:
 732:lvgl/src/lv_widgets/lv_calendar.c ****     label_dsc.flag = LV_TXT_FLAG_CENTER;
 943              		.loc 1 732 5 view .LVU262
 944 00e2 02AA     		add	r2, sp, #8
 945 00e4 0121     		movs	r1, #1
 946 00e6 2046     		mov	r0, r4
 947 00e8 FFF7FEFF 		bl	lv_obj_init_draw_label_dsc
 948              	.LVL110:
 733:lvgl/src/lv_widgets/lv_calendar.c ****     header_area.y1 += lv_obj_get_style_pad_top(calendar, LV_CALENDAR_PART_HEADER);
 949              		.loc 1 733 5 view .LVU263
 733:lvgl/src/lv_widgets/lv_calendar.c ****     header_area.y1 += lv_obj_get_style_pad_top(calendar, LV_CALENDAR_PART_HEADER);
 950              		.loc 1 733 20 is_stmt 0 view .LVU264
 951 00ec 0423     		movs	r3, #4
 952 00ee 8DF82930 		strb	r3, [sp, #41]
 734:lvgl/src/lv_widgets/lv_calendar.c ****     header_area.y2 -= lv_obj_get_style_pad_bottom(calendar, LV_CALENDAR_PART_HEADER);
 953              		.loc 1 734 5 is_stmt 1 view .LVU265
 954              	.LVL111:
 955              	.LBB120:
 956              	.LBI120:
 110:lvgl/src/lv_widgets/../lv_core/lv_obj_style_dec.h **** _LV_OBJ_STYLE_SET_GET_DECLARE(PAD_BOTTOM, pad_bottom, lv_style_int_t, _int, scalar)
 957              		.loc 2 110 1 view .LVU266
 958              	.LBB121:
 110:lvgl/src/lv_widgets/../lv_core/lv_obj_style_dec.h **** _LV_OBJ_STYLE_SET_GET_DECLARE(PAD_BOTTOM, pad_bottom, lv_style_int_t, _int, scalar)
 959              		.loc 2 110 1 view .LVU267
 960 00f2 1022     		movs	r2, #16
 961 00f4 0121     		movs	r1, #1
 962 00f6 2046     		mov	r0, r4
 963 00f8 FFF7FEFF 		bl	_lv_obj_get_style_int
 964              	.LVL112:
 110:lvgl/src/lv_widgets/../lv_core/lv_obj_style_dec.h **** _LV_OBJ_STYLE_SET_GET_DECLARE(PAD_BOTTOM, pad_bottom, lv_style_int_t, _int, scalar)
 965              		.loc 2 110 1 is_stmt 0 view .LVU268
 966              	.LBE121:
 967              	.LBE120:
 734:lvgl/src/lv_widgets/lv_calendar.c ****     header_area.y2 -= lv_obj_get_style_pad_bottom(calendar, LV_CALENDAR_PART_HEADER);
 968              		.loc 1 734 20 view .LVU269
 969 00fc BDF8C230 		ldrh	r3, [sp, #194]
 970 0100 13FA80F0 		uxtah	r0, r3, r0
 971 0104 ADF8C200 		strh	r0, [sp, #194]	@ movhi
 735:lvgl/src/lv_widgets/lv_calendar.c ****     lv_draw_label(&header_area, mask, &label_dsc, txt_buf, NULL);
ARM GAS  D:\Temp\cclvo1nc.s 			page 46


 972              		.loc 1 735 5 is_stmt 1 view .LVU270
 973              	.LVL113:
 974              	.LBB122:
 975              	.LBI122:
 111:lvgl/src/lv_widgets/../lv_core/lv_obj_style_dec.h **** _LV_OBJ_STYLE_SET_GET_DECLARE(PAD_LEFT, pad_left, lv_style_int_t, _int, scalar)
 976              		.loc 2 111 1 view .LVU271
 977              	.LBB123:
 111:lvgl/src/lv_widgets/../lv_core/lv_obj_style_dec.h **** _LV_OBJ_STYLE_SET_GET_DECLARE(PAD_LEFT, pad_left, lv_style_int_t, _int, scalar)
 978              		.loc 2 111 1 view .LVU272
 979 0108 1122     		movs	r2, #17
 980 010a 0121     		movs	r1, #1
 981 010c 2046     		mov	r0, r4
 982 010e FFF7FEFF 		bl	_lv_obj_get_style_int
 983              	.LVL114:
 111:lvgl/src/lv_widgets/../lv_core/lv_obj_style_dec.h **** _LV_OBJ_STYLE_SET_GET_DECLARE(PAD_LEFT, pad_left, lv_style_int_t, _int, scalar)
 984              		.loc 2 111 1 is_stmt 0 view .LVU273
 985              	.LBE123:
 986              	.LBE122:
 735:lvgl/src/lv_widgets/lv_calendar.c ****     lv_draw_label(&header_area, mask, &label_dsc, txt_buf, NULL);
 987              		.loc 1 735 23 view .LVU274
 988 0112 80B2     		uxth	r0, r0
 735:lvgl/src/lv_widgets/lv_calendar.c ****     lv_draw_label(&header_area, mask, &label_dsc, txt_buf, NULL);
 989              		.loc 1 735 20 view .LVU275
 990 0114 BDF8C630 		ldrh	r3, [sp, #198]
 991 0118 1B1A     		subs	r3, r3, r0
 992 011a ADF8C630 		strh	r3, [sp, #198]	@ movhi
 736:lvgl/src/lv_widgets/lv_calendar.c **** 
 993              		.loc 1 736 5 is_stmt 1 view .LVU276
 994 011e CDF800B0 		str	fp, [sp]
 995 0122 0BAB     		add	r3, sp, #44
 996 0124 02AA     		add	r2, sp, #8
 997 0126 3146     		mov	r1, r6
 998 0128 30A8     		add	r0, sp, #192
 999 012a FFF7FEFF 		bl	lv_draw_label
 1000              	.LVL115:
 738:lvgl/src/lv_widgets/lv_calendar.c **** 
 1001              		.loc 1 738 5 view .LVU277
 738:lvgl/src/lv_widgets/lv_calendar.c **** 
 1002              		.loc 1 738 21 is_stmt 0 view .LVU278
 1003 012e 84F83D50 		strb	r5, [r4, #61]
 741:lvgl/src/lv_widgets/lv_calendar.c ****     else calendar->state &= ~(LV_STATE_PRESSED);
 1004              		.loc 1 741 5 is_stmt 1 view .LVU279
 741:lvgl/src/lv_widgets/lv_calendar.c ****     else calendar->state &= ~(LV_STATE_PRESSED);
 1005              		.loc 1 741 11 is_stmt 0 view .LVU280
 1006 0132 97F90C30 		ldrsb	r3, [r7, #12]
 741:lvgl/src/lv_widgets/lv_calendar.c ****     else calendar->state &= ~(LV_STATE_PRESSED);
 1007              		.loc 1 741 7 view .LVU281
 1008 0136 5B45     		cmp	r3, fp
 1009 0138 4FDB     		blt	.L85
 742:lvgl/src/lv_widgets/lv_calendar.c **** 
 1010              		.loc 1 742 10 is_stmt 1 view .LVU282
 742:lvgl/src/lv_widgets/lv_calendar.c **** 
 1011              		.loc 1 742 26 is_stmt 0 view .LVU283
 1012 013a 25F01003 		bic	r3, r5, #16
 1013 013e 84F83D30 		strb	r3, [r4, #61]
 1014              	.L81:
 744:lvgl/src/lv_widgets/lv_calendar.c **** 
ARM GAS  D:\Temp\cclvo1nc.s 			page 47


 1015              		.loc 1 744 5 is_stmt 1 view .LVU284
 744:lvgl/src/lv_widgets/lv_calendar.c **** 
 1016              		.loc 1 744 20 is_stmt 0 view .LVU285
 1017 0142 BDF8C030 		ldrh	r3, [sp, #192]
 1018 0146 9844     		add	r8, r8, r3
 1019              	.LVL116:
 744:lvgl/src/lv_widgets/lv_calendar.c **** 
 1020              		.loc 1 744 20 view .LVU286
 1021 0148 ADF8C080 		strh	r8, [sp, #192]	@ movhi
 746:lvgl/src/lv_widgets/lv_calendar.c ****     lv_obj_init_draw_label_dsc(calendar, LV_CALENDAR_PART_HEADER, &label_dsc);
 1022              		.loc 1 746 5 is_stmt 1 view .LVU287
 1023 014c 02A8     		add	r0, sp, #8
 1024 014e FFF7FEFF 		bl	lv_draw_label_dsc_init
 1025              	.LVL117:
 747:lvgl/src/lv_widgets/lv_calendar.c ****     lv_draw_label(&header_area, mask, &label_dsc, LV_SYMBOL_LEFT, NULL);
 1026              		.loc 1 747 5 view .LVU288
 1027 0152 02AA     		add	r2, sp, #8
 1028 0154 0121     		movs	r1, #1
 1029 0156 2046     		mov	r0, r4
 1030 0158 FFF7FEFF 		bl	lv_obj_init_draw_label_dsc
 1031              	.LVL118:
 748:lvgl/src/lv_widgets/lv_calendar.c **** 
 1032              		.loc 1 748 5 view .LVU289
 1033 015c 0023     		movs	r3, #0
 1034 015e 0093     		str	r3, [sp]
 1035 0160 234B     		ldr	r3, .L86
 1036 0162 02AA     		add	r2, sp, #8
 1037 0164 3146     		mov	r1, r6
 1038 0166 30A8     		add	r0, sp, #192
 1039 0168 FFF7FEFF 		bl	lv_draw_label
 1040              	.LVL119:
 750:lvgl/src/lv_widgets/lv_calendar.c **** 
 1041              		.loc 1 750 5 view .LVU290
 750:lvgl/src/lv_widgets/lv_calendar.c **** 
 1042              		.loc 1 750 21 is_stmt 0 view .LVU291
 1043 016c 84F83D50 		strb	r5, [r4, #61]
 753:lvgl/src/lv_widgets/lv_calendar.c ****     else calendar->state &= ~(LV_STATE_PRESSED);
 1044              		.loc 1 753 5 is_stmt 1 view .LVU292
 753:lvgl/src/lv_widgets/lv_calendar.c ****     else calendar->state &= ~(LV_STATE_PRESSED);
 1045              		.loc 1 753 11 is_stmt 0 view .LVU293
 1046 0170 97F90C30 		ldrsb	r3, [r7, #12]
 753:lvgl/src/lv_widgets/lv_calendar.c ****     else calendar->state &= ~(LV_STATE_PRESSED);
 1047              		.loc 1 753 7 view .LVU294
 1048 0174 002B     		cmp	r3, #0
 1049 0176 35DD     		ble	.L82
 753:lvgl/src/lv_widgets/lv_calendar.c ****     else calendar->state &= ~(LV_STATE_PRESSED);
 1050              		.loc 1 753 31 is_stmt 1 discriminator 1 view .LVU295
 753:lvgl/src/lv_widgets/lv_calendar.c ****     else calendar->state &= ~(LV_STATE_PRESSED);
 1051              		.loc 1 753 47 is_stmt 0 discriminator 1 view .LVU296
 1052 0178 45F01003 		orr	r3, r5, #16
 1053 017c 84F83D30 		strb	r3, [r4, #61]
 1054              	.L83:
 756:lvgl/src/lv_widgets/lv_calendar.c ****                                                                        font, 0, LV_TXT_FLAG_NONE);
 1055              		.loc 1 756 5 is_stmt 1 view .LVU297
 756:lvgl/src/lv_widgets/lv_calendar.c ****                                                                        font, 0, LV_TXT_FLAG_NONE);
 1056              		.loc 1 756 33 is_stmt 0 view .LVU298
 1057 0180 BDF8C400 		ldrh	r0, [sp, #196]
ARM GAS  D:\Temp\cclvo1nc.s 			page 48


 756:lvgl/src/lv_widgets/lv_calendar.c ****                                                                        font, 0, LV_TXT_FLAG_NONE);
 1058              		.loc 1 756 37 view .LVU299
 1059 0184 A0EB0A0A 		sub	r10, r0, r10
 1060              	.LVL120:
 756:lvgl/src/lv_widgets/lv_calendar.c ****                                                                        font, 0, LV_TXT_FLAG_NONE);
 1061              		.loc 1 756 37 view .LVU300
 1062 0188 1FFA8AFA 		uxth	r10, r10
 756:lvgl/src/lv_widgets/lv_calendar.c ****                                                                        font, 0, LV_TXT_FLAG_NONE);
 1063              		.loc 1 756 54 view .LVU301
 1064 018c DFF86480 		ldr	r8, .L86+4
 1065 0190 0027     		movs	r7, #0
 1066              	.LVL121:
 756:lvgl/src/lv_widgets/lv_calendar.c ****                                                                        font, 0, LV_TXT_FLAG_NONE);
 1067              		.loc 1 756 54 view .LVU302
 1068 0192 0097     		str	r7, [sp]
 1069 0194 3B46     		mov	r3, r7
 1070 0196 4A46     		mov	r2, r9
 1071 0198 0321     		movs	r1, #3
 1072 019a 4046     		mov	r0, r8
 1073 019c FFF7FEFF 		bl	_lv_txt_get_width
 1074              	.LVL122:
 1075 01a0 80B2     		uxth	r0, r0
 756:lvgl/src/lv_widgets/lv_calendar.c ****                                                                        font, 0, LV_TXT_FLAG_NONE);
 1076              		.loc 1 756 52 view .LVU303
 1077 01a2 AAEB000A 		sub	r10, r10, r0
 756:lvgl/src/lv_widgets/lv_calendar.c ****                                                                        font, 0, LV_TXT_FLAG_NONE);
 1078              		.loc 1 756 20 view .LVU304
 1079 01a6 ADF8C0A0 		strh	r10, [sp, #192]	@ movhi
 759:lvgl/src/lv_widgets/lv_calendar.c ****     lv_obj_init_draw_label_dsc(calendar, LV_CALENDAR_PART_HEADER, &label_dsc);
 1080              		.loc 1 759 5 is_stmt 1 view .LVU305
 1081 01aa 02A8     		add	r0, sp, #8
 1082 01ac FFF7FEFF 		bl	lv_draw_label_dsc_init
 1083              	.LVL123:
 760:lvgl/src/lv_widgets/lv_calendar.c ****     lv_draw_label(&header_area, mask, &label_dsc, LV_SYMBOL_RIGHT, NULL);
 1084              		.loc 1 760 5 view .LVU306
 1085 01b0 02AA     		add	r2, sp, #8
 1086 01b2 0121     		movs	r1, #1
 1087 01b4 2046     		mov	r0, r4
 1088 01b6 FFF7FEFF 		bl	lv_obj_init_draw_label_dsc
 1089              	.LVL124:
 761:lvgl/src/lv_widgets/lv_calendar.c **** 
 1090              		.loc 1 761 5 view .LVU307
 1091 01ba 0097     		str	r7, [sp]
 1092 01bc 4346     		mov	r3, r8
 1093 01be 02AA     		add	r2, sp, #8
 1094 01c0 3146     		mov	r1, r6
 1095 01c2 30A8     		add	r0, sp, #192
 1096 01c4 FFF7FEFF 		bl	lv_draw_label
 1097              	.LVL125:
 763:lvgl/src/lv_widgets/lv_calendar.c ****     _lv_obj_disable_style_caching(calendar, false);
 1098              		.loc 1 763 5 view .LVU308
 763:lvgl/src/lv_widgets/lv_calendar.c ****     _lv_obj_disable_style_caching(calendar, false);
 1099              		.loc 1 763 21 is_stmt 0 view .LVU309
 1100 01c8 84F83D50 		strb	r5, [r4, #61]
 764:lvgl/src/lv_widgets/lv_calendar.c **** }
 1101              		.loc 1 764 5 is_stmt 1 view .LVU310
 1102 01cc 3946     		mov	r1, r7
ARM GAS  D:\Temp\cclvo1nc.s 			page 49


 1103 01ce 2046     		mov	r0, r4
 1104 01d0 FFF7FEFF 		bl	_lv_obj_disable_style_caching
 1105              	.LVL126:
 765:lvgl/src/lv_widgets/lv_calendar.c **** 
 1106              		.loc 1 765 1 is_stmt 0 view .LVU311
 1107 01d4 33B0     		add	sp, sp, #204
 1108              	.LCFI8:
 1109              		.cfi_remember_state
 1110              		.cfi_def_cfa_offset 36
 1111              		@ sp needed
 1112 01d6 BDE8F08F 		pop	{r4, r5, r6, r7, r8, r9, r10, fp, pc}
 1113              	.LVL127:
 1114              	.L85:
 1115              	.LCFI9:
 1116              		.cfi_restore_state
 741:lvgl/src/lv_widgets/lv_calendar.c ****     else calendar->state &= ~(LV_STATE_PRESSED);
 1117              		.loc 1 741 31 is_stmt 1 discriminator 1 view .LVU312
 741:lvgl/src/lv_widgets/lv_calendar.c ****     else calendar->state &= ~(LV_STATE_PRESSED);
 1118              		.loc 1 741 47 is_stmt 0 discriminator 1 view .LVU313
 1119 01da 45F01003 		orr	r3, r5, #16
 1120 01de 84F83D30 		strb	r3, [r4, #61]
 1121 01e2 AEE7     		b	.L81
 1122              	.LVL128:
 1123              	.L82:
 754:lvgl/src/lv_widgets/lv_calendar.c **** 
 1124              		.loc 1 754 10 is_stmt 1 view .LVU314
 754:lvgl/src/lv_widgets/lv_calendar.c **** 
 1125              		.loc 1 754 26 is_stmt 0 view .LVU315
 1126 01e4 25F01003 		bic	r3, r5, #16
 1127 01e8 84F83D30 		strb	r3, [r4, #61]
 1128 01ec C8E7     		b	.L83
 1129              	.L87:
 1130 01ee 00BF     		.align	2
 1131              	.L86:
 1132 01f0 00000000 		.word	.LC1
 1133 01f4 04000000 		.word	.LC2
 1134              		.cfi_endproc
 1135              	.LFE478:
 1137              		.section	.text.get_day_names_height,"ax",%progbits
 1138              		.align	1
 1139              		.syntax unified
 1140              		.thumb
 1141              		.thumb_func
 1142              		.fpu fpv4-sp-d16
 1144              	get_day_names_height:
 1145              	.LVL129:
 1146              	.LFB477:
 685:lvgl/src/lv_widgets/lv_calendar.c ****     const lv_font_t * font = lv_obj_get_style_text_font(calendar, LV_CALENDAR_PART_DAY_NAMES);
 1147              		.loc 1 685 1 is_stmt 1 view -0
 1148              		.cfi_startproc
 1149              		@ args = 0, pretend = 0, frame = 0
 1150              		@ frame_needed = 0, uses_anonymous_args = 0
 685:lvgl/src/lv_widgets/lv_calendar.c ****     const lv_font_t * font = lv_obj_get_style_text_font(calendar, LV_CALENDAR_PART_DAY_NAMES);
 1151              		.loc 1 685 1 is_stmt 0 view .LVU317
 1152 0000 70B5     		push	{r4, r5, r6, lr}
 1153              	.LCFI10:
 1154              		.cfi_def_cfa_offset 16
ARM GAS  D:\Temp\cclvo1nc.s 			page 50


 1155              		.cfi_offset 4, -16
 1156              		.cfi_offset 5, -12
 1157              		.cfi_offset 6, -8
 1158              		.cfi_offset 14, -4
 1159 0002 0446     		mov	r4, r0
 686:lvgl/src/lv_widgets/lv_calendar.c ****     lv_style_int_t top = lv_obj_get_style_pad_top(calendar, LV_CALENDAR_PART_DAY_NAMES);
 1160              		.loc 1 686 5 is_stmt 1 view .LVU318
 1161              	.LVL130:
 1162              	.LBB124:
 1163              	.LBI124:
 1164              		.loc 2 168 1 view .LVU319
 1165              	.LBB125:
 1166              		.loc 2 168 1 view .LVU320
 1167 0004 48F28E02 		movw	r2, #32910
 1168 0008 0221     		movs	r1, #2
 1169 000a FFF7FEFF 		bl	_lv_obj_get_style_ptr
 1170              	.LVL131:
 1171              		.loc 2 168 1 is_stmt 0 view .LVU321
 1172 000e 0646     		mov	r6, r0
 1173              	.LVL132:
 1174              		.loc 2 168 1 view .LVU322
 1175              	.LBE125:
 1176              	.LBE124:
 687:lvgl/src/lv_widgets/lv_calendar.c ****     lv_style_int_t bottom = lv_obj_get_style_pad_bottom(calendar, LV_CALENDAR_PART_DAY_NAMES);
 1177              		.loc 1 687 5 is_stmt 1 view .LVU323
 1178              	.LBB126:
 1179              	.LBI126:
 110:lvgl/src/lv_widgets/../lv_core/lv_obj_style_dec.h **** _LV_OBJ_STYLE_SET_GET_DECLARE(PAD_BOTTOM, pad_bottom, lv_style_int_t, _int, scalar)
 1180              		.loc 2 110 1 view .LVU324
 1181              	.LBB127:
 110:lvgl/src/lv_widgets/../lv_core/lv_obj_style_dec.h **** _LV_OBJ_STYLE_SET_GET_DECLARE(PAD_BOTTOM, pad_bottom, lv_style_int_t, _int, scalar)
 1182              		.loc 2 110 1 view .LVU325
 1183 0010 1022     		movs	r2, #16
 1184 0012 0221     		movs	r1, #2
 1185 0014 2046     		mov	r0, r4
 1186              	.LVL133:
 110:lvgl/src/lv_widgets/../lv_core/lv_obj_style_dec.h **** _LV_OBJ_STYLE_SET_GET_DECLARE(PAD_BOTTOM, pad_bottom, lv_style_int_t, _int, scalar)
 1187              		.loc 2 110 1 is_stmt 0 view .LVU326
 1188 0016 FFF7FEFF 		bl	_lv_obj_get_style_int
 1189              	.LVL134:
 1190 001a 0546     		mov	r5, r0
 1191              	.LVL135:
 110:lvgl/src/lv_widgets/../lv_core/lv_obj_style_dec.h **** _LV_OBJ_STYLE_SET_GET_DECLARE(PAD_BOTTOM, pad_bottom, lv_style_int_t, _int, scalar)
 1192              		.loc 2 110 1 view .LVU327
 1193              	.LBE127:
 1194              	.LBE126:
 688:lvgl/src/lv_widgets/lv_calendar.c **** 
 1195              		.loc 1 688 5 is_stmt 1 view .LVU328
 1196              	.LBB128:
 1197              	.LBI128:
 111:lvgl/src/lv_widgets/../lv_core/lv_obj_style_dec.h **** _LV_OBJ_STYLE_SET_GET_DECLARE(PAD_LEFT, pad_left, lv_style_int_t, _int, scalar)
 1198              		.loc 2 111 1 view .LVU329
 1199              	.LBB129:
 111:lvgl/src/lv_widgets/../lv_core/lv_obj_style_dec.h **** _LV_OBJ_STYLE_SET_GET_DECLARE(PAD_LEFT, pad_left, lv_style_int_t, _int, scalar)
 1200              		.loc 2 111 1 view .LVU330
 1201 001c 1122     		movs	r2, #17
 1202 001e 0221     		movs	r1, #2
ARM GAS  D:\Temp\cclvo1nc.s 			page 51


 1203 0020 2046     		mov	r0, r4
 1204 0022 FFF7FEFF 		bl	_lv_obj_get_style_int
 1205              	.LVL136:
 111:lvgl/src/lv_widgets/../lv_core/lv_obj_style_dec.h **** _LV_OBJ_STYLE_SET_GET_DECLARE(PAD_LEFT, pad_left, lv_style_int_t, _int, scalar)
 1206              		.loc 2 111 1 is_stmt 0 view .LVU331
 1207              	.LBE129:
 1208              	.LBE128:
 690:lvgl/src/lv_widgets/lv_calendar.c **** }
 1209              		.loc 1 690 5 is_stmt 1 view .LVU332
 1210              	.LBB130:
 1211              	.LBI130:
 116:lvgl/src/lv_widgets/../lv_core/../lv_font/lv_font.h **** {
 1212              		.loc 3 116 26 view .LVU333
 1213              	.LBB131:
 1214              		.loc 3 118 5 view .LVU334
 1215              		.loc 3 118 18 is_stmt 0 view .LVU335
 1216 0026 B6F90830 		ldrsh	r3, [r6, #8]
 1217              	.LVL137:
 1218              		.loc 3 118 18 view .LVU336
 1219              	.LBE131:
 1220              	.LBE130:
 690:lvgl/src/lv_widgets/lv_calendar.c **** }
 1221              		.loc 1 690 42 view .LVU337
 1222 002a 15FA83F3 		uxtah	r3, r5, r3
 690:lvgl/src/lv_widgets/lv_calendar.c **** }
 1223              		.loc 1 690 48 view .LVU338
 1224 002e 10FA83F0 		uxtah	r0, r0, r3
 1225              	.LVL138:
 691:lvgl/src/lv_widgets/lv_calendar.c **** 
 1226              		.loc 1 691 1 view .LVU339
 1227 0032 00B2     		sxth	r0, r0
 1228 0034 70BD     		pop	{r4, r5, r6, pc}
 691:lvgl/src/lv_widgets/lv_calendar.c **** 
 1229              		.loc 1 691 1 view .LVU340
 1230              		.cfi_endproc
 1231              	.LFE477:
 1233              		.section	.text.get_header_height,"ax",%progbits
 1234              		.align	1
 1235              		.syntax unified
 1236              		.thumb
 1237              		.thumb_func
 1238              		.fpu fpv4-sp-d16
 1240              	get_header_height:
 1241              	.LVL139:
 1242              	.LFB476:
 669:lvgl/src/lv_widgets/lv_calendar.c ****     const lv_font_t * font = lv_obj_get_style_text_font(calendar, LV_CALENDAR_PART_HEADER);
 1243              		.loc 1 669 1 is_stmt 1 view -0
 1244              		.cfi_startproc
 1245              		@ args = 0, pretend = 0, frame = 0
 1246              		@ frame_needed = 0, uses_anonymous_args = 0
 669:lvgl/src/lv_widgets/lv_calendar.c ****     const lv_font_t * font = lv_obj_get_style_text_font(calendar, LV_CALENDAR_PART_HEADER);
 1247              		.loc 1 669 1 is_stmt 0 view .LVU342
 1248 0000 F8B5     		push	{r3, r4, r5, r6, r7, lr}
 1249              	.LCFI11:
 1250              		.cfi_def_cfa_offset 24
 1251              		.cfi_offset 3, -24
 1252              		.cfi_offset 4, -20
ARM GAS  D:\Temp\cclvo1nc.s 			page 52


 1253              		.cfi_offset 5, -16
 1254              		.cfi_offset 6, -12
 1255              		.cfi_offset 7, -8
 1256              		.cfi_offset 14, -4
 1257 0002 0646     		mov	r6, r0
 670:lvgl/src/lv_widgets/lv_calendar.c ****     lv_style_int_t top = lv_obj_get_style_margin_top(calendar, LV_CALENDAR_PART_HEADER) +
 1258              		.loc 1 670 5 is_stmt 1 view .LVU343
 1259              	.LVL140:
 1260              	.LBB132:
 1261              	.LBI132:
 1262              		.loc 2 168 1 view .LVU344
 1263              	.LBB133:
 1264              		.loc 2 168 1 view .LVU345
 1265 0004 48F28E02 		movw	r2, #32910
 1266 0008 0121     		movs	r1, #1
 1267 000a FFF7FEFF 		bl	_lv_obj_get_style_ptr
 1268              	.LVL141:
 1269              		.loc 2 168 1 is_stmt 0 view .LVU346
 1270 000e 0746     		mov	r7, r0
 1271              	.LVL142:
 1272              		.loc 2 168 1 view .LVU347
 1273              	.LBE133:
 1274              	.LBE132:
 671:lvgl/src/lv_widgets/lv_calendar.c ****                          lv_obj_get_style_pad_top(calendar, LV_CALENDAR_PART_HEADER);
 1275              		.loc 1 671 5 is_stmt 1 view .LVU348
 1276              	.LBB134:
 1277              	.LBI134:
 115:lvgl/src/lv_widgets/../lv_core/lv_obj_style_dec.h **** _LV_OBJ_STYLE_SET_GET_DECLARE(MARGIN_BOTTOM, margin_bottom, lv_style_int_t, _int, scalar)
 1278              		.loc 2 115 1 view .LVU349
 1279              	.LBB135:
 115:lvgl/src/lv_widgets/../lv_core/lv_obj_style_dec.h **** _LV_OBJ_STYLE_SET_GET_DECLARE(MARGIN_BOTTOM, margin_bottom, lv_style_int_t, _int, scalar)
 1280              		.loc 2 115 1 view .LVU350
 1281 0010 1522     		movs	r2, #21
 1282 0012 0121     		movs	r1, #1
 1283 0014 3046     		mov	r0, r6
 1284              	.LVL143:
 115:lvgl/src/lv_widgets/../lv_core/lv_obj_style_dec.h **** _LV_OBJ_STYLE_SET_GET_DECLARE(MARGIN_BOTTOM, margin_bottom, lv_style_int_t, _int, scalar)
 1285              		.loc 2 115 1 is_stmt 0 view .LVU351
 1286 0016 FFF7FEFF 		bl	_lv_obj_get_style_int
 1287              	.LVL144:
 115:lvgl/src/lv_widgets/../lv_core/lv_obj_style_dec.h **** _LV_OBJ_STYLE_SET_GET_DECLARE(MARGIN_BOTTOM, margin_bottom, lv_style_int_t, _int, scalar)
 1288              		.loc 2 115 1 view .LVU352
 1289              	.LBE135:
 1290              	.LBE134:
 671:lvgl/src/lv_widgets/lv_calendar.c ****                          lv_obj_get_style_pad_top(calendar, LV_CALENDAR_PART_HEADER);
 1291              		.loc 1 671 26 view .LVU353
 1292 001a 84B2     		uxth	r4, r0
 1293              	.LVL145:
 1294              	.LBB136:
 1295              	.LBI136:
 110:lvgl/src/lv_widgets/../lv_core/lv_obj_style_dec.h **** _LV_OBJ_STYLE_SET_GET_DECLARE(PAD_BOTTOM, pad_bottom, lv_style_int_t, _int, scalar)
 1296              		.loc 2 110 1 is_stmt 1 view .LVU354
 1297              	.LBB137:
 110:lvgl/src/lv_widgets/../lv_core/lv_obj_style_dec.h **** _LV_OBJ_STYLE_SET_GET_DECLARE(PAD_BOTTOM, pad_bottom, lv_style_int_t, _int, scalar)
 1298              		.loc 2 110 1 view .LVU355
 1299 001c 1022     		movs	r2, #16
 1300 001e 0121     		movs	r1, #1
ARM GAS  D:\Temp\cclvo1nc.s 			page 53


 1301 0020 3046     		mov	r0, r6
 1302 0022 FFF7FEFF 		bl	_lv_obj_get_style_int
 1303              	.LVL146:
 110:lvgl/src/lv_widgets/../lv_core/lv_obj_style_dec.h **** _LV_OBJ_STYLE_SET_GET_DECLARE(PAD_BOTTOM, pad_bottom, lv_style_int_t, _int, scalar)
 1304              		.loc 2 110 1 is_stmt 0 view .LVU356
 1305              	.LBE137:
 1306              	.LBE136:
 671:lvgl/src/lv_widgets/lv_calendar.c ****                          lv_obj_get_style_pad_top(calendar, LV_CALENDAR_PART_HEADER);
 1307              		.loc 1 671 89 view .LVU357
 1308 0026 14FA80F4 		uxtah	r4, r4, r0
 1309 002a A5B2     		uxth	r5, r4
 1310              	.LVL147:
 673:lvgl/src/lv_widgets/lv_calendar.c ****                             lv_obj_get_style_pad_bottom(calendar, LV_CALENDAR_PART_HEADER);
 1311              		.loc 1 673 5 is_stmt 1 view .LVU358
 1312              	.LBB138:
 1313              	.LBI138:
 116:lvgl/src/lv_widgets/../lv_core/lv_obj_style_dec.h **** _LV_OBJ_STYLE_SET_GET_DECLARE(MARGIN_LEFT, margin_left, lv_style_int_t, _int, scalar)
 1314              		.loc 2 116 1 view .LVU359
 1315              	.LBB139:
 116:lvgl/src/lv_widgets/../lv_core/lv_obj_style_dec.h **** _LV_OBJ_STYLE_SET_GET_DECLARE(MARGIN_LEFT, margin_left, lv_style_int_t, _int, scalar)
 1316              		.loc 2 116 1 view .LVU360
 1317 002c 1622     		movs	r2, #22
 1318 002e 0121     		movs	r1, #1
 1319 0030 3046     		mov	r0, r6
 1320 0032 FFF7FEFF 		bl	_lv_obj_get_style_int
 1321              	.LVL148:
 116:lvgl/src/lv_widgets/../lv_core/lv_obj_style_dec.h **** _LV_OBJ_STYLE_SET_GET_DECLARE(MARGIN_LEFT, margin_left, lv_style_int_t, _int, scalar)
 1322              		.loc 2 116 1 is_stmt 0 view .LVU361
 1323              	.LBE139:
 1324              	.LBE138:
 673:lvgl/src/lv_widgets/lv_calendar.c ****                             lv_obj_get_style_pad_bottom(calendar, LV_CALENDAR_PART_HEADER);
 1325              		.loc 1 673 29 view .LVU362
 1326 0036 84B2     		uxth	r4, r0
 1327              	.LVL149:
 1328              	.LBB140:
 1329              	.LBI140:
 111:lvgl/src/lv_widgets/../lv_core/lv_obj_style_dec.h **** _LV_OBJ_STYLE_SET_GET_DECLARE(PAD_LEFT, pad_left, lv_style_int_t, _int, scalar)
 1330              		.loc 2 111 1 is_stmt 1 view .LVU363
 1331              	.LBB141:
 111:lvgl/src/lv_widgets/../lv_core/lv_obj_style_dec.h **** _LV_OBJ_STYLE_SET_GET_DECLARE(PAD_LEFT, pad_left, lv_style_int_t, _int, scalar)
 1332              		.loc 2 111 1 view .LVU364
 1333 0038 1122     		movs	r2, #17
 1334 003a 0121     		movs	r1, #1
 1335 003c 3046     		mov	r0, r6
 1336 003e FFF7FEFF 		bl	_lv_obj_get_style_int
 1337              	.LVL150:
 111:lvgl/src/lv_widgets/../lv_core/lv_obj_style_dec.h **** _LV_OBJ_STYLE_SET_GET_DECLARE(PAD_LEFT, pad_left, lv_style_int_t, _int, scalar)
 1338              		.loc 2 111 1 is_stmt 0 view .LVU365
 1339              	.LBE141:
 1340              	.LBE140:
 673:lvgl/src/lv_widgets/lv_calendar.c ****                             lv_obj_get_style_pad_bottom(calendar, LV_CALENDAR_PART_HEADER);
 1341              		.loc 1 673 95 view .LVU366
 1342 0042 14FA80F0 		uxtah	r0, r4, r0
 1343              	.LVL151:
 676:lvgl/src/lv_widgets/lv_calendar.c **** }
 1344              		.loc 1 676 5 is_stmt 1 view .LVU367
 1345              	.LBB142:
ARM GAS  D:\Temp\cclvo1nc.s 			page 54


 1346              	.LBI142:
 116:lvgl/src/lv_widgets/../lv_core/../lv_font/lv_font.h **** {
 1347              		.loc 3 116 26 view .LVU368
 1348              	.LBB143:
 1349              		.loc 3 118 5 view .LVU369
 1350              		.loc 3 118 18 is_stmt 0 view .LVU370
 1351 0046 B7F90840 		ldrsh	r4, [r7, #8]
 1352              	.LVL152:
 1353              		.loc 3 118 18 view .LVU371
 1354              	.LBE143:
 1355              	.LBE142:
 676:lvgl/src/lv_widgets/lv_calendar.c **** }
 1356              		.loc 1 676 42 view .LVU372
 1357 004a 15FA84F4 		uxtah	r4, r5, r4
 1358 004e A4B2     		uxth	r4, r4
 676:lvgl/src/lv_widgets/lv_calendar.c **** }
 1359              		.loc 1 676 48 view .LVU373
 1360 0050 14FA80F0 		uxtah	r0, r4, r0
 1361              	.LVL153:
 677:lvgl/src/lv_widgets/lv_calendar.c **** 
 1362              		.loc 1 677 1 view .LVU374
 1363 0054 00B2     		sxth	r0, r0
 1364 0056 F8BD     		pop	{r3, r4, r5, r6, r7, pc}
 677:lvgl/src/lv_widgets/lv_calendar.c **** 
 1365              		.loc 1 677 1 view .LVU375
 1366              		.cfi_endproc
 1367              	.LFE476:
 1369              		.section	.text.draw_day_names,"ax",%progbits
 1370              		.align	1
 1371              		.syntax unified
 1372              		.thumb
 1373              		.thumb_func
 1374              		.fpu fpv4-sp-d16
 1376              	draw_day_names:
 1377              	.LVL154:
 1378              	.LFB479:
 773:lvgl/src/lv_widgets/lv_calendar.c ****     lv_style_int_t date_top = lv_obj_get_style_pad_top(calendar, LV_CALENDAR_PART_DATE);
 1379              		.loc 1 773 1 is_stmt 1 view -0
 1380              		.cfi_startproc
 1381              		@ args = 0, pretend = 0, frame = 56
 1382              		@ frame_needed = 0, uses_anonymous_args = 0
 773:lvgl/src/lv_widgets/lv_calendar.c ****     lv_style_int_t date_top = lv_obj_get_style_pad_top(calendar, LV_CALENDAR_PART_DATE);
 1383              		.loc 1 773 1 is_stmt 0 view .LVU377
 1384 0000 2DE9F04F 		push	{r4, r5, r6, r7, r8, r9, r10, fp, lr}
 1385              	.LCFI12:
 1386              		.cfi_def_cfa_offset 36
 1387              		.cfi_offset 4, -36
 1388              		.cfi_offset 5, -32
 1389              		.cfi_offset 6, -28
 1390              		.cfi_offset 7, -24
 1391              		.cfi_offset 8, -20
 1392              		.cfi_offset 9, -16
 1393              		.cfi_offset 10, -12
 1394              		.cfi_offset 11, -8
 1395              		.cfi_offset 14, -4
 1396 0004 91B0     		sub	sp, sp, #68
 1397              	.LCFI13:
ARM GAS  D:\Temp\cclvo1nc.s 			page 55


 1398              		.cfi_def_cfa_offset 104
 1399 0006 0546     		mov	r5, r0
 1400 0008 0391     		str	r1, [sp, #12]
 774:lvgl/src/lv_widgets/lv_calendar.c ****     lv_style_int_t date_bottom = lv_obj_get_style_pad_bottom(calendar, LV_CALENDAR_PART_DATE);
 1401              		.loc 1 774 5 is_stmt 1 view .LVU378
 1402              	.LVL155:
 1403              	.LBB144:
 1404              	.LBI144:
 110:lvgl/src/lv_widgets/../lv_core/lv_obj_style_dec.h **** _LV_OBJ_STYLE_SET_GET_DECLARE(PAD_BOTTOM, pad_bottom, lv_style_int_t, _int, scalar)
 1405              		.loc 2 110 1 view .LVU379
 1406              	.LBB145:
 110:lvgl/src/lv_widgets/../lv_core/lv_obj_style_dec.h **** _LV_OBJ_STYLE_SET_GET_DECLARE(PAD_BOTTOM, pad_bottom, lv_style_int_t, _int, scalar)
 1407              		.loc 2 110 1 view .LVU380
 1408 000a 1022     		movs	r2, #16
 1409 000c 0321     		movs	r1, #3
 1410              	.LVL156:
 110:lvgl/src/lv_widgets/../lv_core/lv_obj_style_dec.h **** _LV_OBJ_STYLE_SET_GET_DECLARE(PAD_BOTTOM, pad_bottom, lv_style_int_t, _int, scalar)
 1411              		.loc 2 110 1 is_stmt 0 view .LVU381
 1412 000e FFF7FEFF 		bl	_lv_obj_get_style_int
 1413              	.LVL157:
 110:lvgl/src/lv_widgets/../lv_core/lv_obj_style_dec.h **** _LV_OBJ_STYLE_SET_GET_DECLARE(PAD_BOTTOM, pad_bottom, lv_style_int_t, _int, scalar)
 1414              		.loc 2 110 1 view .LVU382
 1415 0012 8046     		mov	r8, r0
 1416              	.LVL158:
 110:lvgl/src/lv_widgets/../lv_core/lv_obj_style_dec.h **** _LV_OBJ_STYLE_SET_GET_DECLARE(PAD_BOTTOM, pad_bottom, lv_style_int_t, _int, scalar)
 1417              		.loc 2 110 1 view .LVU383
 1418              	.LBE145:
 1419              	.LBE144:
 775:lvgl/src/lv_widgets/lv_calendar.c ****     lv_style_int_t date_left = lv_obj_get_style_pad_left(calendar, LV_CALENDAR_PART_DATE);
 1420              		.loc 1 775 5 is_stmt 1 view .LVU384
 1421              	.LBB146:
 1422              	.LBI146:
 111:lvgl/src/lv_widgets/../lv_core/lv_obj_style_dec.h **** _LV_OBJ_STYLE_SET_GET_DECLARE(PAD_LEFT, pad_left, lv_style_int_t, _int, scalar)
 1423              		.loc 2 111 1 view .LVU385
 1424              	.LBB147:
 111:lvgl/src/lv_widgets/../lv_core/lv_obj_style_dec.h **** _LV_OBJ_STYLE_SET_GET_DECLARE(PAD_LEFT, pad_left, lv_style_int_t, _int, scalar)
 1425              		.loc 2 111 1 view .LVU386
 1426 0014 1122     		movs	r2, #17
 1427 0016 0321     		movs	r1, #3
 1428 0018 2846     		mov	r0, r5
 1429 001a FFF7FEFF 		bl	_lv_obj_get_style_int
 1430              	.LVL159:
 1431 001e 0746     		mov	r7, r0
 1432              	.LVL160:
 111:lvgl/src/lv_widgets/../lv_core/lv_obj_style_dec.h **** _LV_OBJ_STYLE_SET_GET_DECLARE(PAD_LEFT, pad_left, lv_style_int_t, _int, scalar)
 1433              		.loc 2 111 1 is_stmt 0 view .LVU387
 1434              	.LBE147:
 1435              	.LBE146:
 776:lvgl/src/lv_widgets/lv_calendar.c ****     lv_style_int_t date_right = lv_obj_get_style_pad_right(calendar, LV_CALENDAR_PART_DATE);
 1436              		.loc 1 776 5 is_stmt 1 view .LVU388
 1437              	.LBB148:
 1438              	.LBI148:
 112:lvgl/src/lv_widgets/../lv_core/lv_obj_style_dec.h **** _LV_OBJ_STYLE_SET_GET_DECLARE(PAD_RIGHT, pad_right, lv_style_int_t, _int, scalar)
 1439              		.loc 2 112 1 view .LVU389
 1440              	.LBB149:
 112:lvgl/src/lv_widgets/../lv_core/lv_obj_style_dec.h **** _LV_OBJ_STYLE_SET_GET_DECLARE(PAD_RIGHT, pad_right, lv_style_int_t, _int, scalar)
 1441              		.loc 2 112 1 view .LVU390
ARM GAS  D:\Temp\cclvo1nc.s 			page 56


 1442 0020 1222     		movs	r2, #18
 1443 0022 0321     		movs	r1, #3
 1444 0024 2846     		mov	r0, r5
 1445 0026 FFF7FEFF 		bl	_lv_obj_get_style_int
 1446              	.LVL161:
 1447 002a 8146     		mov	r9, r0
 1448              	.LVL162:
 112:lvgl/src/lv_widgets/../lv_core/lv_obj_style_dec.h **** _LV_OBJ_STYLE_SET_GET_DECLARE(PAD_RIGHT, pad_right, lv_style_int_t, _int, scalar)
 1449              		.loc 2 112 1 is_stmt 0 view .LVU391
 1450              	.LBE149:
 1451              	.LBE148:
 777:lvgl/src/lv_widgets/lv_calendar.c ****     lv_style_int_t date_inner = lv_obj_get_style_pad_inner(calendar, LV_CALENDAR_PART_DATE);
 1452              		.loc 1 777 5 is_stmt 1 view .LVU392
 1453              	.LBB150:
 1454              	.LBI150:
 113:lvgl/src/lv_widgets/../lv_core/lv_obj_style_dec.h **** _LV_OBJ_STYLE_SET_GET_DECLARE(PAD_INNER, pad_inner, lv_style_int_t, _int, scalar)
 1455              		.loc 2 113 1 view .LVU393
 1456              	.LBB151:
 113:lvgl/src/lv_widgets/../lv_core/lv_obj_style_dec.h **** _LV_OBJ_STYLE_SET_GET_DECLARE(PAD_INNER, pad_inner, lv_style_int_t, _int, scalar)
 1457              		.loc 2 113 1 view .LVU394
 1458 002c 1322     		movs	r2, #19
 1459 002e 0321     		movs	r1, #3
 1460 0030 2846     		mov	r0, r5
 1461 0032 FFF7FEFF 		bl	_lv_obj_get_style_int
 1462              	.LVL163:
 1463 0036 0446     		mov	r4, r0
 1464              	.LVL164:
 113:lvgl/src/lv_widgets/../lv_core/lv_obj_style_dec.h **** _LV_OBJ_STYLE_SET_GET_DECLARE(PAD_INNER, pad_inner, lv_style_int_t, _int, scalar)
 1465              		.loc 2 113 1 is_stmt 0 view .LVU395
 1466              	.LBE151:
 1467              	.LBE150:
 778:lvgl/src/lv_widgets/lv_calendar.c **** 
 1468              		.loc 1 778 5 is_stmt 1 view .LVU396
 1469              	.LBB152:
 1470              	.LBI152:
 114:lvgl/src/lv_widgets/../lv_core/lv_obj_style_dec.h **** _LV_OBJ_STYLE_SET_GET_DECLARE(MARGIN_TOP, margin_top, lv_style_int_t, _int, scalar)
 1471              		.loc 2 114 1 view .LVU397
 1472              	.LBB153:
 114:lvgl/src/lv_widgets/../lv_core/lv_obj_style_dec.h **** _LV_OBJ_STYLE_SET_GET_DECLARE(MARGIN_TOP, margin_top, lv_style_int_t, _int, scalar)
 1473              		.loc 2 114 1 view .LVU398
 1474 0038 1422     		movs	r2, #20
 1475 003a 0321     		movs	r1, #3
 1476 003c 2846     		mov	r0, r5
 1477 003e FFF7FEFF 		bl	_lv_obj_get_style_int
 1478              	.LVL165:
 1479 0042 0646     		mov	r6, r0
 1480              	.LVL166:
 114:lvgl/src/lv_widgets/../lv_core/lv_obj_style_dec.h **** _LV_OBJ_STYLE_SET_GET_DECLARE(MARGIN_TOP, margin_top, lv_style_int_t, _int, scalar)
 1481              		.loc 2 114 1 is_stmt 0 view .LVU399
 1482              	.LBE153:
 1483              	.LBE152:
 780:lvgl/src/lv_widgets/lv_calendar.c ****     lv_coord_t box_w      = (days_w - date_inner * 6) / 7;
 1484              		.loc 1 780 5 is_stmt 1 view .LVU400
 780:lvgl/src/lv_widgets/lv_calendar.c ****     lv_coord_t box_w      = (days_w - date_inner * 6) / 7;
 1485              		.loc 1 780 30 is_stmt 0 view .LVU401
 1486 0044 2846     		mov	r0, r5
 1487 0046 FFF7FEFF 		bl	lv_obj_get_width
ARM GAS  D:\Temp\cclvo1nc.s 			page 57


 1488              	.LVL167:
 1489 004a 80B2     		uxth	r0, r0
 780:lvgl/src/lv_widgets/lv_calendar.c ****     lv_coord_t box_w      = (days_w - date_inner * 6) / 7;
 1490              		.loc 1 780 57 view .LVU402
 1491 004c A0EB0900 		sub	r0, r0, r9
 1492 0050 80B2     		uxth	r0, r0
 780:lvgl/src/lv_widgets/lv_calendar.c ****     lv_coord_t box_w      = (days_w - date_inner * 6) / 7;
 1493              		.loc 1 780 69 view .LVU403
 1494 0052 001B     		subs	r0, r0, r4
 1495              	.LVL168:
 781:lvgl/src/lv_widgets/lv_calendar.c ****     lv_coord_t days_y1 = calendar->coords.y1 + date_top + get_header_height(calendar) + get_day_nam
 1496              		.loc 1 781 5 is_stmt 1 view .LVU404
 781:lvgl/src/lv_widgets/lv_calendar.c ****     lv_coord_t days_y1 = calendar->coords.y1 + date_top + get_header_height(calendar) + get_day_nam
 1497              		.loc 1 781 50 is_stmt 0 view .LVU405
 1498 0054 A6EB8602 		sub	r2, r6, r6, lsl #2
 1499 0058 5300     		lsls	r3, r2, #1
 781:lvgl/src/lv_widgets/lv_calendar.c ****     lv_coord_t days_y1 = calendar->coords.y1 + date_top + get_header_height(calendar) + get_day_nam
 1500              		.loc 1 781 37 view .LVU406
 1501 005a 03FA80F0 		sxtah	r0, r3, r0
 1502              	.LVL169:
 781:lvgl/src/lv_widgets/lv_calendar.c ****     lv_coord_t days_y1 = calendar->coords.y1 + date_top + get_header_height(calendar) + get_day_nam
 1503              		.loc 1 781 55 view .LVU407
 1504 005e 574C     		ldr	r4, .L97
 1505              	.LVL170:
 781:lvgl/src/lv_widgets/lv_calendar.c ****     lv_coord_t days_y1 = calendar->coords.y1 + date_top + get_header_height(calendar) + get_day_nam
 1506              		.loc 1 781 55 view .LVU408
 1507 0060 84FB0034 		smull	r3, r4, r4, r0
 1508 0064 2318     		adds	r3, r4, r0
 1509 0066 C417     		asrs	r4, r0, #31
 1510 0068 C4EBA304 		rsb	r4, r4, r3, asr #2
 781:lvgl/src/lv_widgets/lv_calendar.c ****     lv_coord_t days_y1 = calendar->coords.y1 + date_top + get_header_height(calendar) + get_day_nam
 1511              		.loc 1 781 16 view .LVU409
 1512 006c 24B2     		sxth	r4, r4
 1513              	.LVL171:
 782:lvgl/src/lv_widgets/lv_calendar.c ****     lv_coord_t days_h = calendar->coords.y2 - days_y1 - date_bottom;
 1514              		.loc 1 782 5 is_stmt 1 view .LVU410
 782:lvgl/src/lv_widgets/lv_calendar.c ****     lv_coord_t days_h = calendar->coords.y2 - days_y1 - date_bottom;
 1515              		.loc 1 782 42 is_stmt 0 view .LVU411
 1516 006e 688A     		ldrh	r0, [r5, #18]
 782:lvgl/src/lv_widgets/lv_calendar.c ****     lv_coord_t days_h = calendar->coords.y2 - days_y1 - date_bottom;
 1517              		.loc 1 782 46 view .LVU412
 1518 0070 8044     		add	r8, r8, r0
 1519              	.LVL172:
 782:lvgl/src/lv_widgets/lv_calendar.c ****     lv_coord_t days_h = calendar->coords.y2 - days_y1 - date_bottom;
 1520              		.loc 1 782 46 view .LVU413
 1521 0072 1FFA88F8 		uxth	r8, r8
 782:lvgl/src/lv_widgets/lv_calendar.c ****     lv_coord_t days_h = calendar->coords.y2 - days_y1 - date_bottom;
 1522              		.loc 1 782 59 view .LVU414
 1523 0076 2846     		mov	r0, r5
 1524 0078 FFF7FEFF 		bl	get_header_height
 1525              	.LVL173:
 782:lvgl/src/lv_widgets/lv_calendar.c ****     lv_coord_t days_h = calendar->coords.y2 - days_y1 - date_bottom;
 1526              		.loc 1 782 57 view .LVU415
 1527 007c 18FA80F8 		uxtah	r8, r8, r0
 1528 0080 1FFA88F8 		uxth	r8, r8
 782:lvgl/src/lv_widgets/lv_calendar.c ****     lv_coord_t days_h = calendar->coords.y2 - days_y1 - date_bottom;
 1529              		.loc 1 782 89 view .LVU416
ARM GAS  D:\Temp\cclvo1nc.s 			page 58


 1530 0084 2846     		mov	r0, r5
 1531 0086 FFF7FEFF 		bl	get_day_names_height
 1532              	.LVL174:
 782:lvgl/src/lv_widgets/lv_calendar.c ****     lv_coord_t days_h = calendar->coords.y2 - days_y1 - date_bottom;
 1533              		.loc 1 782 87 view .LVU417
 1534 008a 18FA80F0 		uxtah	r0, r8, r0
 1535 008e 80B2     		uxth	r0, r0
 1536              	.LVL175:
 783:lvgl/src/lv_widgets/lv_calendar.c ****     lv_coord_t box_h      = (days_h - 5 * date_inner) / 6;
 1537              		.loc 1 783 5 is_stmt 1 view .LVU418
 783:lvgl/src/lv_widgets/lv_calendar.c ****     lv_coord_t box_h      = (days_h - 5 * date_inner) / 6;
 1538              		.loc 1 783 41 is_stmt 0 view .LVU419
 1539 0090 B5F81680 		ldrh	r8, [r5, #22]
 783:lvgl/src/lv_widgets/lv_calendar.c ****     lv_coord_t box_h      = (days_h - 5 * date_inner) / 6;
 1540              		.loc 1 783 45 view .LVU420
 1541 0094 A8EB0000 		sub	r0, r8, r0
 1542              	.LVL176:
 783:lvgl/src/lv_widgets/lv_calendar.c ****     lv_coord_t box_h      = (days_h - 5 * date_inner) / 6;
 1543              		.loc 1 783 45 view .LVU421
 1544 0098 80B2     		uxth	r0, r0
 783:lvgl/src/lv_widgets/lv_calendar.c ****     lv_coord_t box_h      = (days_h - 5 * date_inner) / 6;
 1545              		.loc 1 783 55 view .LVU422
 1546 009a C71B     		subs	r7, r0, r7
 1547              	.LVL177:
 784:lvgl/src/lv_widgets/lv_calendar.c ****     lv_coord_t box_size = LV_MATH_MIN(box_w, box_h);
 1548              		.loc 1 784 5 is_stmt 1 view .LVU423
 784:lvgl/src/lv_widgets/lv_calendar.c ****     lv_coord_t box_size = LV_MATH_MIN(box_w, box_h);
 1549              		.loc 1 784 41 is_stmt 0 view .LVU424
 1550 009c C6EB8673 		rsb	r3, r6, r6, lsl #30
 1551 00a0 C6EB8306 		rsb	r6, r6, r3, lsl #2
 1552              	.LVL178:
 784:lvgl/src/lv_widgets/lv_calendar.c ****     lv_coord_t box_size = LV_MATH_MIN(box_w, box_h);
 1553              		.loc 1 784 37 view .LVU425
 1554 00a4 06FA87F6 		sxtah	r6, r6, r7
 784:lvgl/src/lv_widgets/lv_calendar.c ****     lv_coord_t box_size = LV_MATH_MIN(box_w, box_h);
 1555              		.loc 1 784 55 view .LVU426
 1556 00a8 454F     		ldr	r7, .L97+4
 1557              	.LVL179:
 784:lvgl/src/lv_widgets/lv_calendar.c ****     lv_coord_t box_size = LV_MATH_MIN(box_w, box_h);
 1558              		.loc 1 784 55 view .LVU427
 1559 00aa 87FB0623 		smull	r2, r3, r7, r6
 1560 00ae A3EBE676 		sub	r6, r3, r6, asr #31
 784:lvgl/src/lv_widgets/lv_calendar.c ****     lv_coord_t box_size = LV_MATH_MIN(box_w, box_h);
 1561              		.loc 1 784 16 view .LVU428
 1562 00b2 36B2     		sxth	r6, r6
 1563              	.LVL180:
 785:lvgl/src/lv_widgets/lv_calendar.c **** 
 1564              		.loc 1 785 5 is_stmt 1 view .LVU429
 785:lvgl/src/lv_widgets/lv_calendar.c **** 
 1565              		.loc 1 785 16 is_stmt 0 view .LVU430
 1566 00b4 B442     		cmp	r4, r6
 1567 00b6 A8BF     		it	ge
 1568 00b8 3446     		movge	r4, r6
 1569              	.LVL181:
 787:lvgl/src/lv_widgets/lv_calendar.c ****     lv_style_int_t right = lv_obj_get_style_pad_right(calendar, LV_CALENDAR_PART_DAY_NAMES);
 1570              		.loc 1 787 5 is_stmt 1 view .LVU431
 1571              	.LBB154:
ARM GAS  D:\Temp\cclvo1nc.s 			page 59


 1572              	.LBI154:
 112:lvgl/src/lv_widgets/../lv_core/lv_obj_style_dec.h **** _LV_OBJ_STYLE_SET_GET_DECLARE(PAD_RIGHT, pad_right, lv_style_int_t, _int, scalar)
 1573              		.loc 2 112 1 view .LVU432
 1574              	.LBB155:
 112:lvgl/src/lv_widgets/../lv_core/lv_obj_style_dec.h **** _LV_OBJ_STYLE_SET_GET_DECLARE(PAD_RIGHT, pad_right, lv_style_int_t, _int, scalar)
 1575              		.loc 2 112 1 view .LVU433
 1576 00ba 1222     		movs	r2, #18
 1577 00bc 0221     		movs	r1, #2
 1578 00be 2846     		mov	r0, r5
 112:lvgl/src/lv_widgets/../lv_core/lv_obj_style_dec.h **** _LV_OBJ_STYLE_SET_GET_DECLARE(PAD_RIGHT, pad_right, lv_style_int_t, _int, scalar)
 1579              		.loc 2 112 1 is_stmt 0 view .LVU434
 1580 00c0 FFF7FEFF 		bl	_lv_obj_get_style_int
 1581              	.LVL182:
 1582 00c4 8046     		mov	r8, r0
 1583              	.LVL183:
 112:lvgl/src/lv_widgets/../lv_core/lv_obj_style_dec.h **** _LV_OBJ_STYLE_SET_GET_DECLARE(PAD_RIGHT, pad_right, lv_style_int_t, _int, scalar)
 1584              		.loc 2 112 1 view .LVU435
 1585              	.LBE155:
 1586              	.LBE154:
 788:lvgl/src/lv_widgets/lv_calendar.c ****     lv_style_int_t top = lv_obj_get_style_pad_top(calendar, LV_CALENDAR_PART_DAY_NAMES);
 1587              		.loc 1 788 5 is_stmt 1 view .LVU436
 1588              	.LBB156:
 1589              	.LBI156:
 113:lvgl/src/lv_widgets/../lv_core/lv_obj_style_dec.h **** _LV_OBJ_STYLE_SET_GET_DECLARE(PAD_INNER, pad_inner, lv_style_int_t, _int, scalar)
 1590              		.loc 2 113 1 view .LVU437
 1591              	.LBB157:
 113:lvgl/src/lv_widgets/../lv_core/lv_obj_style_dec.h **** _LV_OBJ_STYLE_SET_GET_DECLARE(PAD_INNER, pad_inner, lv_style_int_t, _int, scalar)
 1592              		.loc 2 113 1 view .LVU438
 1593 00c6 1322     		movs	r2, #19
 1594 00c8 0221     		movs	r1, #2
 1595 00ca 2846     		mov	r0, r5
 1596 00cc FFF7FEFF 		bl	_lv_obj_get_style_int
 1597              	.LVL184:
 1598 00d0 8146     		mov	r9, r0
 1599              	.LVL185:
 113:lvgl/src/lv_widgets/../lv_core/lv_obj_style_dec.h **** _LV_OBJ_STYLE_SET_GET_DECLARE(PAD_INNER, pad_inner, lv_style_int_t, _int, scalar)
 1600              		.loc 2 113 1 is_stmt 0 view .LVU439
 1601              	.LBE157:
 1602              	.LBE156:
 789:lvgl/src/lv_widgets/lv_calendar.c ****     const lv_font_t * font = lv_obj_get_style_text_font(calendar, LV_CALENDAR_PART_DAY_NAMES);
 1603              		.loc 1 789 5 is_stmt 1 view .LVU440
 1604              	.LBB158:
 1605              	.LBI158:
 110:lvgl/src/lv_widgets/../lv_core/lv_obj_style_dec.h **** _LV_OBJ_STYLE_SET_GET_DECLARE(PAD_BOTTOM, pad_bottom, lv_style_int_t, _int, scalar)
 1606              		.loc 2 110 1 view .LVU441
 1607              	.LBB159:
 110:lvgl/src/lv_widgets/../lv_core/lv_obj_style_dec.h **** _LV_OBJ_STYLE_SET_GET_DECLARE(PAD_BOTTOM, pad_bottom, lv_style_int_t, _int, scalar)
 1608              		.loc 2 110 1 view .LVU442
 1609 00d2 1022     		movs	r2, #16
 1610 00d4 0221     		movs	r1, #2
 1611 00d6 2846     		mov	r0, r5
 1612 00d8 FFF7FEFF 		bl	_lv_obj_get_style_int
 1613              	.LVL186:
 1614 00dc 8346     		mov	fp, r0
 1615              	.LVL187:
 110:lvgl/src/lv_widgets/../lv_core/lv_obj_style_dec.h **** _LV_OBJ_STYLE_SET_GET_DECLARE(PAD_BOTTOM, pad_bottom, lv_style_int_t, _int, scalar)
 1616              		.loc 2 110 1 is_stmt 0 view .LVU443
ARM GAS  D:\Temp\cclvo1nc.s 			page 60


 1617              	.LBE159:
 1618              	.LBE158:
 790:lvgl/src/lv_widgets/lv_calendar.c **** 
 1619              		.loc 1 790 5 is_stmt 1 view .LVU444
 1620              	.LBB160:
 1621              	.LBI160:
 1622              		.loc 2 168 1 view .LVU445
 1623              	.LBB161:
 1624              		.loc 2 168 1 view .LVU446
 1625 00de 48F28E02 		movw	r2, #32910
 1626 00e2 0221     		movs	r1, #2
 1627 00e4 2846     		mov	r0, r5
 1628 00e6 FFF7FEFF 		bl	_lv_obj_get_style_ptr
 1629              	.LVL188:
 1630 00ea 8246     		mov	r10, r0
 1631              	.LVL189:
 1632              		.loc 2 168 1 is_stmt 0 view .LVU447
 1633              	.LBE161:
 1634              	.LBE160:
 792:lvgl/src/lv_widgets/lv_calendar.c **** 
 1635              		.loc 1 792 5 is_stmt 1 view .LVU448
 792:lvgl/src/lv_widgets/lv_calendar.c **** 
 1636              		.loc 1 792 20 is_stmt 0 view .LVU449
 1637 00ec 2846     		mov	r0, r5
 1638              	.LVL190:
 792:lvgl/src/lv_widgets/lv_calendar.c **** 
 1639              		.loc 1 792 20 view .LVU450
 1640 00ee FFF7FEFF 		bl	lv_obj_get_width
 1641              	.LVL191:
 1642 00f2 86B2     		uxth	r6, r0
 1643              	.LVL192:
 792:lvgl/src/lv_widgets/lv_calendar.c **** 
 1644              		.loc 1 792 47 view .LVU451
 1645 00f4 1FFA88F8 		uxth	r8, r8
 792:lvgl/src/lv_widgets/lv_calendar.c **** 
 1646              		.loc 1 792 47 view .LVU452
 1647 00f8 A6EB0806 		sub	r6, r6, r8
 1648 00fc B6B2     		uxth	r6, r6
 792:lvgl/src/lv_widgets/lv_calendar.c **** 
 1649              		.loc 1 792 54 view .LVU453
 1650 00fe A6EB0906 		sub	r6, r6, r9
 792:lvgl/src/lv_widgets/lv_calendar.c **** 
 1651              		.loc 1 792 16 view .LVU454
 1652 0102 36B2     		sxth	r6, r6
 1653              	.LVL193:
 794:lvgl/src/lv_widgets/lv_calendar.c **** 
 1654              		.loc 1 794 5 is_stmt 1 view .LVU455
 794:lvgl/src/lv_widgets/lv_calendar.c **** 
 1655              		.loc 1 794 16 is_stmt 0 view .LVU456
 1656 0104 87FB0637 		smull	r3, r7, r7, r6
 1657 0108 A7EBE677 		sub	r7, r7, r6, asr #31
 1658 010c 3FB2     		sxth	r7, r7
 1659              	.LVL194:
 796:lvgl/src/lv_widgets/lv_calendar.c ****     label_area.y1 = calendar->coords.y1 + get_header_height(calendar) + top;
 1660              		.loc 1 796 5 is_stmt 1 view .LVU457
 797:lvgl/src/lv_widgets/lv_calendar.c ****     label_area.y2 = label_area.y1 + lv_font_get_line_height(font);
 1661              		.loc 1 797 5 view .LVU458
ARM GAS  D:\Temp\cclvo1nc.s 			page 61


 797:lvgl/src/lv_widgets/lv_calendar.c ****     label_area.y2 = label_area.y1 + lv_font_get_line_height(font);
 1662              		.loc 1 797 37 is_stmt 0 view .LVU459
 1663 010e B5F81290 		ldrh	r9, [r5, #18]
 1664              	.LVL195:
 797:lvgl/src/lv_widgets/lv_calendar.c ****     label_area.y2 = label_area.y1 + lv_font_get_line_height(font);
 1665              		.loc 1 797 43 view .LVU460
 1666 0112 2846     		mov	r0, r5
 1667 0114 FFF7FEFF 		bl	get_header_height
 1668              	.LVL196:
 797:lvgl/src/lv_widgets/lv_calendar.c ****     label_area.y2 = label_area.y1 + lv_font_get_line_height(font);
 1669              		.loc 1 797 41 view .LVU461
 1670 0118 19FA80F0 		uxtah	r0, r9, r0
 797:lvgl/src/lv_widgets/lv_calendar.c ****     label_area.y2 = label_area.y1 + lv_font_get_line_height(font);
 1671              		.loc 1 797 71 view .LVU462
 1672 011c 1BFA80FB 		uxtah	fp, fp, r0
 1673              	.LVL197:
 797:lvgl/src/lv_widgets/lv_calendar.c ****     label_area.y2 = label_area.y1 + lv_font_get_line_height(font);
 1674              		.loc 1 797 71 view .LVU463
 1675 0120 1FFA8BFB 		uxth	fp, fp
 797:lvgl/src/lv_widgets/lv_calendar.c ****     label_area.y2 = label_area.y1 + lv_font_get_line_height(font);
 1676              		.loc 1 797 19 view .LVU464
 1677 0124 ADF83AB0 		strh	fp, [sp, #58]	@ movhi
 798:lvgl/src/lv_widgets/lv_calendar.c **** 
 1678              		.loc 1 798 5 is_stmt 1 view .LVU465
 1679              	.LVL198:
 1680              	.LBB162:
 1681              	.LBI162:
 116:lvgl/src/lv_widgets/../lv_core/../lv_font/lv_font.h **** {
 1682              		.loc 3 116 26 view .LVU466
 1683              	.LBB163:
 1684              		.loc 3 118 5 view .LVU467
 1685              		.loc 3 118 18 is_stmt 0 view .LVU468
 1686 0128 BAF90830 		ldrsh	r3, [r10, #8]
 1687              	.LVL199:
 1688              		.loc 3 118 18 view .LVU469
 1689              	.LBE163:
 1690              	.LBE162:
 798:lvgl/src/lv_widgets/lv_calendar.c **** 
 1691              		.loc 1 798 35 view .LVU470
 1692 012c 1BFA83FB 		uxtah	fp, fp, r3
 798:lvgl/src/lv_widgets/lv_calendar.c **** 
 1693              		.loc 1 798 19 view .LVU471
 1694 0130 ADF83EB0 		strh	fp, [sp, #62]	@ movhi
 800:lvgl/src/lv_widgets/lv_calendar.c ****     lv_draw_label_dsc_init(&label_dsc);
 1695              		.loc 1 800 5 is_stmt 1 view .LVU472
 801:lvgl/src/lv_widgets/lv_calendar.c ****     lv_obj_init_draw_label_dsc(calendar, LV_CALENDAR_PART_DAY_NAMES, &label_dsc);
 1696              		.loc 1 801 5 view .LVU473
 1697 0134 05A8     		add	r0, sp, #20
 1698 0136 FFF7FEFF 		bl	lv_draw_label_dsc_init
 1699              	.LVL200:
 802:lvgl/src/lv_widgets/lv_calendar.c ****     label_dsc.flag = LV_TXT_FLAG_CENTER;
 1700              		.loc 1 802 5 view .LVU474
 1701 013a 05AA     		add	r2, sp, #20
 1702 013c 0221     		movs	r1, #2
 1703 013e 2846     		mov	r0, r5
 1704 0140 FFF7FEFF 		bl	lv_obj_init_draw_label_dsc
 1705              	.LVL201:
ARM GAS  D:\Temp\cclvo1nc.s 			page 62


 803:lvgl/src/lv_widgets/lv_calendar.c **** 
 1706              		.loc 1 803 5 view .LVU475
 803:lvgl/src/lv_widgets/lv_calendar.c **** 
 1707              		.loc 1 803 20 is_stmt 0 view .LVU476
 1708 0144 0423     		movs	r3, #4
 1709 0146 8DF83530 		strb	r3, [sp, #53]
 805:lvgl/src/lv_widgets/lv_calendar.c ****     for(i = 0; i < 7; i++) {
 1710              		.loc 1 805 5 is_stmt 1 view .LVU477
 806:lvgl/src/lv_widgets/lv_calendar.c ****         label_area.x1 = calendar->coords.x1 + ((w - box_size) * i) / 6  + box_size / 2 - label_w / 
 1711              		.loc 1 806 5 view .LVU478
 1712              	.LVL202:
 806:lvgl/src/lv_widgets/lv_calendar.c ****         label_area.x1 = calendar->coords.x1 + ((w - box_size) * i) / 6  + box_size / 2 - label_w / 
 1713              		.loc 1 806 11 is_stmt 0 view .LVU479
 1714 014a 4FF00009 		mov	r9, #0
 1715              	.LVL203:
 1716              	.L93:
 806:lvgl/src/lv_widgets/lv_calendar.c ****         label_area.x1 = calendar->coords.x1 + ((w - box_size) * i) / 6  + box_size / 2 - label_w / 
 1717              		.loc 1 806 5 discriminator 1 view .LVU480
 1718 014e B9F1060F 		cmp	r9, #6
 1719 0152 2FD8     		bhi	.L96
 807:lvgl/src/lv_widgets/lv_calendar.c ****         label_area.x2 = label_area.x1 + label_w - 1;
 1720              		.loc 1 807 9 is_stmt 1 discriminator 3 view .LVU481
 807:lvgl/src/lv_widgets/lv_calendar.c ****         label_area.x2 = label_area.x1 + label_w - 1;
 1721              		.loc 1 807 41 is_stmt 0 discriminator 3 view .LVU482
 1722 0154 2B8A     		ldrh	r3, [r5, #16]
 807:lvgl/src/lv_widgets/lv_calendar.c ****         label_area.x2 = label_area.x1 + label_w - 1;
 1723              		.loc 1 807 51 discriminator 3 view .LVU483
 1724 0156 321B     		subs	r2, r6, r4
 807:lvgl/src/lv_widgets/lv_calendar.c ****         label_area.x2 = label_area.x1 + label_w - 1;
 1725              		.loc 1 807 63 discriminator 3 view .LVU484
 1726 0158 09FB02F2 		mul	r2, r9, r2
 807:lvgl/src/lv_widgets/lv_calendar.c ****         label_area.x2 = label_area.x1 + label_w - 1;
 1727              		.loc 1 807 68 discriminator 3 view .LVU485
 1728 015c 1949     		ldr	r1, .L97+8
 1729 015e A1FB0212 		umull	r1, r2, r1, r2
 807:lvgl/src/lv_widgets/lv_calendar.c ****         label_area.x2 = label_area.x1 + label_w - 1;
 1730              		.loc 1 807 45 discriminator 3 view .LVU486
 1731 0162 03EB9203 		add	r3, r3, r2, lsr #2
 807:lvgl/src/lv_widgets/lv_calendar.c ****         label_area.x2 = label_area.x1 + label_w - 1;
 1732              		.loc 1 807 73 discriminator 3 view .LVU487
 1733 0166 04EBD472 		add	r2, r4, r4, lsr #31
 1734 016a 5210     		asrs	r2, r2, #1
 1735 016c 12FA83F3 		uxtah	r3, r2, r3
 1736 0170 9BB2     		uxth	r3, r3
 807:lvgl/src/lv_widgets/lv_calendar.c ****         label_area.x2 = label_area.x1 + label_w - 1;
 1737              		.loc 1 807 88 discriminator 3 view .LVU488
 1738 0172 1349     		ldr	r1, .L97+4
 1739 0174 81FB0621 		smull	r2, r1, r1, r6
 1740 0178 F217     		asrs	r2, r6, #31
 1741 017a C2EB6102 		rsb	r2, r2, r1, asr #1
 1742 017e 9B1A     		subs	r3, r3, r2
 807:lvgl/src/lv_widgets/lv_calendar.c ****         label_area.x2 = label_area.x1 + label_w - 1;
 1743              		.loc 1 807 102 discriminator 3 view .LVU489
 1744 0180 18FA83F3 		uxtah	r3, r8, r3
 1745 0184 9BB2     		uxth	r3, r3
 807:lvgl/src/lv_widgets/lv_calendar.c ****         label_area.x2 = label_area.x1 + label_w - 1;
 1746              		.loc 1 807 23 discriminator 3 view .LVU490
ARM GAS  D:\Temp\cclvo1nc.s 			page 63


 1747 0186 ADF83830 		strh	r3, [sp, #56]	@ movhi
 808:lvgl/src/lv_widgets/lv_calendar.c **** 
 1748              		.loc 1 808 9 is_stmt 1 discriminator 3 view .LVU491
 808:lvgl/src/lv_widgets/lv_calendar.c **** 
 1749              		.loc 1 808 39 is_stmt 0 discriminator 3 view .LVU492
 1750 018a 3B44     		add	r3, r3, r7
 1751 018c 9BB2     		uxth	r3, r3
 808:lvgl/src/lv_widgets/lv_calendar.c **** 
 1752              		.loc 1 808 49 discriminator 3 view .LVU493
 1753 018e 013B     		subs	r3, r3, #1
 808:lvgl/src/lv_widgets/lv_calendar.c **** 
 1754              		.loc 1 808 23 discriminator 3 view .LVU494
 1755 0190 ADF83C30 		strh	r3, [sp, #60]	@ movhi
 810:lvgl/src/lv_widgets/lv_calendar.c ****     }
 1756              		.loc 1 810 9 is_stmt 1 discriminator 3 view .LVU495
 1757 0194 5FFA89F1 		uxtb	r1, r9
 1758 0198 2846     		mov	r0, r5
 1759 019a FFF7FEFF 		bl	get_day_name
 1760              	.LVL204:
 1761 019e 0023     		movs	r3, #0
 1762 01a0 0093     		str	r3, [sp]
 1763 01a2 0346     		mov	r3, r0
 1764 01a4 05AA     		add	r2, sp, #20
 1765 01a6 0399     		ldr	r1, [sp, #12]
 1766 01a8 0EA8     		add	r0, sp, #56
 1767 01aa FFF7FEFF 		bl	lv_draw_label
 1768              	.LVL205:
 806:lvgl/src/lv_widgets/lv_calendar.c ****         label_area.x1 = calendar->coords.x1 + ((w - box_size) * i) / 6  + box_size / 2 - label_w / 
 1769              		.loc 1 806 24 is_stmt 0 discriminator 3 view .LVU496
 1770 01ae 09F10109 		add	r9, r9, #1
 1771              	.LVL206:
 806:lvgl/src/lv_widgets/lv_calendar.c ****         label_area.x1 = calendar->coords.x1 + ((w - box_size) * i) / 6  + box_size / 2 - label_w / 
 1772              		.loc 1 806 24 discriminator 3 view .LVU497
 1773 01b2 CCE7     		b	.L93
 1774              	.L96:
 812:lvgl/src/lv_widgets/lv_calendar.c **** 
 1775              		.loc 1 812 1 view .LVU498
 1776 01b4 11B0     		add	sp, sp, #68
 1777              	.LCFI14:
 1778              		.cfi_def_cfa_offset 36
 1779              		@ sp needed
 1780 01b6 BDE8F08F 		pop	{r4, r5, r6, r7, r8, r9, r10, fp, pc}
 1781              	.LVL207:
 1782              	.L98:
 812:lvgl/src/lv_widgets/lv_calendar.c **** 
 1783              		.loc 1 812 1 view .LVU499
 1784 01ba 00BF     		.align	2
 1785              	.L97:
 1786 01bc 93244992 		.word	-1840700269
 1787 01c0 ABAAAA2A 		.word	715827883
 1788 01c4 ABAAAAAA 		.word	-1431655765
 1789              		.cfi_endproc
 1790              	.LFE479:
 1792              		.section	.text.lv_calendar_create,"ax",%progbits
 1793              		.align	1
 1794              		.global	lv_calendar_create
 1795              		.syntax unified
ARM GAS  D:\Temp\cclvo1nc.s 			page 64


 1796              		.thumb
 1797              		.thumb_func
 1798              		.fpu fpv4-sp-d16
 1800              	lv_calendar_create:
 1801              	.LVL208:
 1802              	.LFB458:
  83:lvgl/src/lv_widgets/lv_calendar.c ****     LV_LOG_TRACE("calendar create started");
 1803              		.loc 1 83 1 is_stmt 1 view -0
 1804              		.cfi_startproc
 1805              		@ args = 0, pretend = 0, frame = 0
 1806              		@ frame_needed = 0, uses_anonymous_args = 0
  83:lvgl/src/lv_widgets/lv_calendar.c ****     LV_LOG_TRACE("calendar create started");
 1807              		.loc 1 83 1 is_stmt 0 view .LVU501
 1808 0000 70B5     		push	{r4, r5, r6, lr}
 1809              	.LCFI15:
 1810              		.cfi_def_cfa_offset 16
 1811              		.cfi_offset 4, -16
 1812              		.cfi_offset 5, -12
 1813              		.cfi_offset 6, -8
 1814              		.cfi_offset 14, -4
 1815 0002 0E46     		mov	r6, r1
  84:lvgl/src/lv_widgets/lv_calendar.c **** 
 1816              		.loc 1 84 44 is_stmt 1 view .LVU502
  87:lvgl/src/lv_widgets/lv_calendar.c ****     LV_ASSERT_MEM(calendar);
 1817              		.loc 1 87 5 view .LVU503
  87:lvgl/src/lv_widgets/lv_calendar.c ****     LV_ASSERT_MEM(calendar);
 1818              		.loc 1 87 27 is_stmt 0 view .LVU504
 1819 0004 FFF7FEFF 		bl	lv_obj_create
 1820              	.LVL209:
  87:lvgl/src/lv_widgets/lv_calendar.c ****     LV_ASSERT_MEM(calendar);
 1821              		.loc 1 87 27 view .LVU505
 1822 0008 0546     		mov	r5, r0
 1823              	.LVL210:
  88:lvgl/src/lv_widgets/lv_calendar.c ****     if(calendar == NULL) return NULL;
 1824              		.loc 1 88 5 is_stmt 1 view .LVU506
  88:lvgl/src/lv_widgets/lv_calendar.c ****     if(calendar == NULL) return NULL;
 1825              		.loc 1 88 5 view .LVU507
 1826 000a FFF7FEFF 		bl	lv_debug_check_null
 1827              	.LVL211:
  88:lvgl/src/lv_widgets/lv_calendar.c ****     if(calendar == NULL) return NULL;
 1828              		.loc 1 88 5 is_stmt 0 view .LVU508
 1829 000e 0028     		cmp	r0, #0
 1830 0010 79D0     		beq	.L110
  88:lvgl/src/lv_widgets/lv_calendar.c ****     if(calendar == NULL) return NULL;
 1831              		.loc 1 88 28 is_stmt 1 discriminator 2 view .LVU509
  89:lvgl/src/lv_widgets/lv_calendar.c **** 
 1832              		.loc 1 89 5 discriminator 2 view .LVU510
  89:lvgl/src/lv_widgets/lv_calendar.c **** 
 1833              		.loc 1 89 7 is_stmt 0 discriminator 2 view .LVU511
 1834 0012 002D     		cmp	r5, #0
 1835 0014 75D0     		beq	.L99
  92:lvgl/src/lv_widgets/lv_calendar.c ****     LV_ASSERT_MEM(ext);
 1836              		.loc 1 92 5 is_stmt 1 view .LVU512
  92:lvgl/src/lv_widgets/lv_calendar.c ****     LV_ASSERT_MEM(ext);
 1837              		.loc 1 92 31 is_stmt 0 view .LVU513
 1838 0016 3421     		movs	r1, #52
 1839 0018 2846     		mov	r0, r5
ARM GAS  D:\Temp\cclvo1nc.s 			page 65


 1840 001a FFF7FEFF 		bl	lv_obj_allocate_ext_attr
 1841              	.LVL212:
 1842 001e 0446     		mov	r4, r0
 1843              	.LVL213:
  93:lvgl/src/lv_widgets/lv_calendar.c ****     if(ext == NULL) {
 1844              		.loc 1 93 5 is_stmt 1 view .LVU514
  93:lvgl/src/lv_widgets/lv_calendar.c ****     if(ext == NULL) {
 1845              		.loc 1 93 5 view .LVU515
 1846 0020 FFF7FEFF 		bl	lv_debug_check_null
 1847              	.LVL214:
  93:lvgl/src/lv_widgets/lv_calendar.c ****     if(ext == NULL) {
 1848              		.loc 1 93 5 is_stmt 0 view .LVU516
 1849 0024 0028     		cmp	r0, #0
 1850 0026 74D0     		beq	.L111
  93:lvgl/src/lv_widgets/lv_calendar.c ****     if(ext == NULL) {
 1851              		.loc 1 93 23 is_stmt 1 discriminator 2 view .LVU517
  94:lvgl/src/lv_widgets/lv_calendar.c ****         lv_obj_del(calendar);
 1852              		.loc 1 94 5 discriminator 2 view .LVU518
  94:lvgl/src/lv_widgets/lv_calendar.c ****         lv_obj_del(calendar);
 1853              		.loc 1 94 7 is_stmt 0 discriminator 2 view .LVU519
 1854 0028 002C     		cmp	r4, #0
 1855 002a 78D0     		beq	.L112
  99:lvgl/src/lv_widgets/lv_calendar.c ****     if(ancestor_design == NULL) ancestor_design = lv_obj_get_design_cb(calendar);
 1856              		.loc 1 99 5 is_stmt 1 view .LVU520
  99:lvgl/src/lv_widgets/lv_calendar.c ****     if(ancestor_design == NULL) ancestor_design = lv_obj_get_design_cb(calendar);
 1857              		.loc 1 99 24 is_stmt 0 view .LVU521
 1858 002c 494B     		ldr	r3, .L116
 1859 002e 1B68     		ldr	r3, [r3]
  99:lvgl/src/lv_widgets/lv_calendar.c ****     if(ancestor_design == NULL) ancestor_design = lv_obj_get_design_cb(calendar);
 1860              		.loc 1 99 7 view .LVU522
 1861 0030 002B     		cmp	r3, #0
 1862 0032 79D0     		beq	.L113
 1863              	.L106:
 100:lvgl/src/lv_widgets/lv_calendar.c **** 
 1864              		.loc 1 100 5 is_stmt 1 view .LVU523
 100:lvgl/src/lv_widgets/lv_calendar.c **** 
 1865              		.loc 1 100 24 is_stmt 0 view .LVU524
 1866 0034 484B     		ldr	r3, .L116+4
 1867 0036 1B68     		ldr	r3, [r3]
 100:lvgl/src/lv_widgets/lv_calendar.c **** 
 1868              		.loc 1 100 7 view .LVU525
 1869 0038 002B     		cmp	r3, #0
 1870 003a 7BD0     		beq	.L114
 1871              	.L107:
 103:lvgl/src/lv_widgets/lv_calendar.c ****     ext->today.month = 1;
 1872              		.loc 1 103 5 is_stmt 1 view .LVU526
 103:lvgl/src/lv_widgets/lv_calendar.c ****     ext->today.month = 1;
 1873              		.loc 1 103 22 is_stmt 0 view .LVU527
 1874 003c 40F2E472 		movw	r2, #2020
 1875 0040 2280     		strh	r2, [r4]	@ movhi
 104:lvgl/src/lv_widgets/lv_calendar.c ****     ext->today.day   = 1;
 1876              		.loc 1 104 5 is_stmt 1 view .LVU528
 104:lvgl/src/lv_widgets/lv_calendar.c ****     ext->today.day   = 1;
 1877              		.loc 1 104 22 is_stmt 0 view .LVU529
 1878 0042 0123     		movs	r3, #1
 1879 0044 A370     		strb	r3, [r4, #2]
 105:lvgl/src/lv_widgets/lv_calendar.c **** 
ARM GAS  D:\Temp\cclvo1nc.s 			page 66


 1880              		.loc 1 105 5 is_stmt 1 view .LVU530
 105:lvgl/src/lv_widgets/lv_calendar.c **** 
 1881              		.loc 1 105 22 is_stmt 0 view .LVU531
 1882 0046 E370     		strb	r3, [r4, #3]
 107:lvgl/src/lv_widgets/lv_calendar.c ****     ext->showed_date.month = 1;
 1883              		.loc 1 107 5 is_stmt 1 view .LVU532
 107:lvgl/src/lv_widgets/lv_calendar.c ****     ext->showed_date.month = 1;
 1884              		.loc 1 107 28 is_stmt 0 view .LVU533
 1885 0048 A280     		strh	r2, [r4, #4]	@ movhi
 108:lvgl/src/lv_widgets/lv_calendar.c ****     ext->showed_date.day   = 1;
 1886              		.loc 1 108 5 is_stmt 1 view .LVU534
 108:lvgl/src/lv_widgets/lv_calendar.c ****     ext->showed_date.day   = 1;
 1887              		.loc 1 108 28 is_stmt 0 view .LVU535
 1888 004a A371     		strb	r3, [r4, #6]
 109:lvgl/src/lv_widgets/lv_calendar.c **** 
 1889              		.loc 1 109 5 is_stmt 1 view .LVU536
 109:lvgl/src/lv_widgets/lv_calendar.c **** 
 1890              		.loc 1 109 28 is_stmt 0 view .LVU537
 1891 004c E371     		strb	r3, [r4, #7]
 111:lvgl/src/lv_widgets/lv_calendar.c ****     ext->pressed_date.month = 0;
 1892              		.loc 1 111 5 is_stmt 1 view .LVU538
 111:lvgl/src/lv_widgets/lv_calendar.c ****     ext->pressed_date.month = 0;
 1893              		.loc 1 111 29 is_stmt 0 view .LVU539
 1894 004e 0023     		movs	r3, #0
 1895 0050 2382     		strh	r3, [r4, #16]	@ movhi
 112:lvgl/src/lv_widgets/lv_calendar.c ****     ext->pressed_date.day   = 0;
 1896              		.loc 1 112 5 is_stmt 1 view .LVU540
 112:lvgl/src/lv_widgets/lv_calendar.c ****     ext->pressed_date.day   = 0;
 1897              		.loc 1 112 29 is_stmt 0 view .LVU541
 1898 0052 A374     		strb	r3, [r4, #18]
 113:lvgl/src/lv_widgets/lv_calendar.c **** 
 1899              		.loc 1 113 5 is_stmt 1 view .LVU542
 113:lvgl/src/lv_widgets/lv_calendar.c **** 
 1900              		.loc 1 113 29 is_stmt 0 view .LVU543
 1901 0054 E374     		strb	r3, [r4, #19]
 115:lvgl/src/lv_widgets/lv_calendar.c ****     ext->highlighted_dates_num  = 0;
 1902              		.loc 1 115 5 is_stmt 1 view .LVU544
 115:lvgl/src/lv_widgets/lv_calendar.c ****     ext->highlighted_dates_num  = 0;
 1903              		.loc 1 115 33 is_stmt 0 view .LVU545
 1904 0056 A360     		str	r3, [r4, #8]
 116:lvgl/src/lv_widgets/lv_calendar.c ****     ext->day_names              = NULL;
 1905              		.loc 1 116 5 is_stmt 1 view .LVU546
 116:lvgl/src/lv_widgets/lv_calendar.c ****     ext->day_names              = NULL;
 1906              		.loc 1 116 33 is_stmt 0 view .LVU547
 1907 0058 E381     		strh	r3, [r4, #14]	@ movhi
 117:lvgl/src/lv_widgets/lv_calendar.c ****     ext->month_names            = NULL;
 1908              		.loc 1 117 5 is_stmt 1 view .LVU548
 117:lvgl/src/lv_widgets/lv_calendar.c ****     ext->month_names            = NULL;
 1909              		.loc 1 117 33 is_stmt 0 view .LVU549
 1910 005a 6361     		str	r3, [r4, #20]
 118:lvgl/src/lv_widgets/lv_calendar.c **** 
 1911              		.loc 1 118 5 is_stmt 1 view .LVU550
 118:lvgl/src/lv_widgets/lv_calendar.c **** 
 1912              		.loc 1 118 33 is_stmt 0 view .LVU551
 1913 005c A361     		str	r3, [r4, #24]
 120:lvgl/src/lv_widgets/lv_calendar.c **** 
 1914              		.loc 1 120 5 is_stmt 1 view .LVU552
ARM GAS  D:\Temp\cclvo1nc.s 			page 67


 120:lvgl/src/lv_widgets/lv_calendar.c **** 
 1915              		.loc 1 120 23 is_stmt 0 view .LVU553
 1916 005e 2373     		strb	r3, [r4, #12]
 122:lvgl/src/lv_widgets/lv_calendar.c ****     lv_style_list_init(&ext->style_day_names);
 1917              		.loc 1 122 5 is_stmt 1 view .LVU554
 1918 0060 04F12C00 		add	r0, r4, #44
 1919 0064 FFF7FEFF 		bl	lv_style_list_init
 1920              	.LVL215:
 123:lvgl/src/lv_widgets/lv_calendar.c ****     lv_style_list_init(&ext->style_header);
 1921              		.loc 1 123 5 view .LVU555
 1922 0068 04F12400 		add	r0, r4, #36
 1923 006c FFF7FEFF 		bl	lv_style_list_init
 1924              	.LVL216:
 124:lvgl/src/lv_widgets/lv_calendar.c ****     ext->style_date_nums.skip_trans = 1;
 1925              		.loc 1 124 5 view .LVU556
 1926 0070 04F11C00 		add	r0, r4, #28
 1927 0074 FFF7FEFF 		bl	lv_style_list_init
 1928              	.LVL217:
 125:lvgl/src/lv_widgets/lv_calendar.c ****     ext->style_day_names.skip_trans = 1;
 1929              		.loc 1 125 5 view .LVU557
 125:lvgl/src/lv_widgets/lv_calendar.c ****     ext->style_day_names.skip_trans = 1;
 1930              		.loc 1 125 37 is_stmt 0 view .LVU558
 1931 0078 94F83130 		ldrb	r3, [r4, #49]	@ zero_extendqisi2
 1932 007c 43F00103 		orr	r3, r3, #1
 1933 0080 84F83130 		strb	r3, [r4, #49]
 126:lvgl/src/lv_widgets/lv_calendar.c ****     ext->style_header.skip_trans = 1;
 1934              		.loc 1 126 5 is_stmt 1 view .LVU559
 126:lvgl/src/lv_widgets/lv_calendar.c ****     ext->style_header.skip_trans = 1;
 1935              		.loc 1 126 37 is_stmt 0 view .LVU560
 1936 0084 94F82930 		ldrb	r3, [r4, #41]	@ zero_extendqisi2
 1937 0088 43F00103 		orr	r3, r3, #1
 1938 008c 84F82930 		strb	r3, [r4, #41]
 127:lvgl/src/lv_widgets/lv_calendar.c **** 
 1939              		.loc 1 127 5 is_stmt 1 view .LVU561
 127:lvgl/src/lv_widgets/lv_calendar.c **** 
 1940              		.loc 1 127 34 is_stmt 0 view .LVU562
 1941 0090 94F82130 		ldrb	r3, [r4, #33]	@ zero_extendqisi2
 1942 0094 43F00103 		orr	r3, r3, #1
 1943 0098 84F82130 		strb	r3, [r4, #33]
 130:lvgl/src/lv_widgets/lv_calendar.c ****     lv_obj_set_design_cb(calendar, lv_calendar_design);
 1944              		.loc 1 130 5 is_stmt 1 view .LVU563
 1945 009c 2F49     		ldr	r1, .L116+8
 1946 009e 2846     		mov	r0, r5
 1947 00a0 FFF7FEFF 		bl	lv_obj_set_signal_cb
 1948              	.LVL218:
 131:lvgl/src/lv_widgets/lv_calendar.c **** 
 1949              		.loc 1 131 5 view .LVU564
 1950 00a4 2E49     		ldr	r1, .L116+12
 1951 00a6 2846     		mov	r0, r5
 1952 00a8 FFF7FEFF 		bl	lv_obj_set_design_cb
 1953              	.LVL219:
 134:lvgl/src/lv_widgets/lv_calendar.c ****         lv_theme_apply(calendar, LV_THEME_CALENDAR);
 1954              		.loc 1 134 5 view .LVU565
 134:lvgl/src/lv_widgets/lv_calendar.c ****         lv_theme_apply(calendar, LV_THEME_CALENDAR);
 1955              		.loc 1 134 7 is_stmt 0 view .LVU566
 1956 00ac 002E     		cmp	r6, #0
 1957 00ae 47D0     		beq	.L115
ARM GAS  D:\Temp\cclvo1nc.s 			page 68


 1958              	.LBB164:
 142:lvgl/src/lv_widgets/lv_calendar.c ****         ext->today.year              = copy_ext->today.year;
 1959              		.loc 1 142 9 is_stmt 1 view .LVU567
 142:lvgl/src/lv_widgets/lv_calendar.c ****         ext->today.year              = copy_ext->today.year;
 1960              		.loc 1 142 40 is_stmt 0 view .LVU568
 1961 00b0 3046     		mov	r0, r6
 1962 00b2 FFF7FEFF 		bl	lv_obj_get_ext_attr
 1963              	.LVL220:
 1964 00b6 0346     		mov	r3, r0
 1965              	.LVL221:
 143:lvgl/src/lv_widgets/lv_calendar.c ****         ext->today.month             = copy_ext->today.month;
 1966              		.loc 1 143 9 is_stmt 1 view .LVU569
 143:lvgl/src/lv_widgets/lv_calendar.c ****         ext->today.month             = copy_ext->today.month;
 1967              		.loc 1 143 55 is_stmt 0 view .LVU570
 1968 00b8 0288     		ldrh	r2, [r0]
 143:lvgl/src/lv_widgets/lv_calendar.c ****         ext->today.month             = copy_ext->today.month;
 1969              		.loc 1 143 38 view .LVU571
 1970 00ba 2280     		strh	r2, [r4]	@ movhi
 144:lvgl/src/lv_widgets/lv_calendar.c ****         ext->today.day               = copy_ext->today.day;
 1971              		.loc 1 144 9 is_stmt 1 view .LVU572
 144:lvgl/src/lv_widgets/lv_calendar.c ****         ext->today.day               = copy_ext->today.day;
 1972              		.loc 1 144 55 is_stmt 0 view .LVU573
 1973 00bc 90F90220 		ldrsb	r2, [r0, #2]
 144:lvgl/src/lv_widgets/lv_calendar.c ****         ext->today.day               = copy_ext->today.day;
 1974              		.loc 1 144 38 view .LVU574
 1975 00c0 A270     		strb	r2, [r4, #2]
 145:lvgl/src/lv_widgets/lv_calendar.c **** 
 1976              		.loc 1 145 9 is_stmt 1 view .LVU575
 145:lvgl/src/lv_widgets/lv_calendar.c **** 
 1977              		.loc 1 145 55 is_stmt 0 view .LVU576
 1978 00c2 90F90320 		ldrsb	r2, [r0, #3]
 145:lvgl/src/lv_widgets/lv_calendar.c **** 
 1979              		.loc 1 145 38 view .LVU577
 1980 00c6 E270     		strb	r2, [r4, #3]
 147:lvgl/src/lv_widgets/lv_calendar.c ****         ext->showed_date.month = copy_ext->showed_date.month;
 1981              		.loc 1 147 9 is_stmt 1 view .LVU578
 147:lvgl/src/lv_widgets/lv_calendar.c ****         ext->showed_date.month = copy_ext->showed_date.month;
 1982              		.loc 1 147 55 is_stmt 0 view .LVU579
 1983 00c8 8288     		ldrh	r2, [r0, #4]
 147:lvgl/src/lv_widgets/lv_calendar.c ****         ext->showed_date.month = copy_ext->showed_date.month;
 1984              		.loc 1 147 32 view .LVU580
 1985 00ca A280     		strh	r2, [r4, #4]	@ movhi
 148:lvgl/src/lv_widgets/lv_calendar.c ****         ext->showed_date.day   = copy_ext->showed_date.day;
 1986              		.loc 1 148 9 is_stmt 1 view .LVU581
 148:lvgl/src/lv_widgets/lv_calendar.c ****         ext->showed_date.day   = copy_ext->showed_date.day;
 1987              		.loc 1 148 55 is_stmt 0 view .LVU582
 1988 00cc 90F90620 		ldrsb	r2, [r0, #6]
 148:lvgl/src/lv_widgets/lv_calendar.c ****         ext->showed_date.day   = copy_ext->showed_date.day;
 1989              		.loc 1 148 32 view .LVU583
 1990 00d0 A271     		strb	r2, [r4, #6]
 149:lvgl/src/lv_widgets/lv_calendar.c **** 
 1991              		.loc 1 149 9 is_stmt 1 view .LVU584
 149:lvgl/src/lv_widgets/lv_calendar.c **** 
 1992              		.loc 1 149 55 is_stmt 0 view .LVU585
 1993 00d2 90F90720 		ldrsb	r2, [r0, #7]
 149:lvgl/src/lv_widgets/lv_calendar.c **** 
 1994              		.loc 1 149 32 view .LVU586
ARM GAS  D:\Temp\cclvo1nc.s 			page 69


 1995 00d6 E271     		strb	r2, [r4, #7]
 151:lvgl/src/lv_widgets/lv_calendar.c ****         ext->highlighted_dates_num = copy_ext->highlighted_dates_num;
 1996              		.loc 1 151 9 is_stmt 1 view .LVU587
 151:lvgl/src/lv_widgets/lv_calendar.c ****         ext->highlighted_dates_num = copy_ext->highlighted_dates_num;
 1997              		.loc 1 151 46 is_stmt 0 view .LVU588
 1998 00d8 8268     		ldr	r2, [r0, #8]
 151:lvgl/src/lv_widgets/lv_calendar.c ****         ext->highlighted_dates_num = copy_ext->highlighted_dates_num;
 1999              		.loc 1 151 36 view .LVU589
 2000 00da A260     		str	r2, [r4, #8]
 152:lvgl/src/lv_widgets/lv_calendar.c ****         ext->day_names             = copy_ext->day_names;
 2001              		.loc 1 152 9 is_stmt 1 view .LVU590
 152:lvgl/src/lv_widgets/lv_calendar.c ****         ext->day_names             = copy_ext->day_names;
 2002              		.loc 1 152 46 is_stmt 0 view .LVU591
 2003 00dc C289     		ldrh	r2, [r0, #14]
 152:lvgl/src/lv_widgets/lv_calendar.c ****         ext->day_names             = copy_ext->day_names;
 2004              		.loc 1 152 36 view .LVU592
 2005 00de E281     		strh	r2, [r4, #14]	@ movhi
 153:lvgl/src/lv_widgets/lv_calendar.c **** 
 2006              		.loc 1 153 9 is_stmt 1 view .LVU593
 153:lvgl/src/lv_widgets/lv_calendar.c **** 
 2007              		.loc 1 153 46 is_stmt 0 view .LVU594
 2008 00e0 4269     		ldr	r2, [r0, #20]
 153:lvgl/src/lv_widgets/lv_calendar.c **** 
 2009              		.loc 1 153 36 view .LVU595
 2010 00e2 6261     		str	r2, [r4, #20]
