ARM GAS  D:\Temp\cchslsHM.s 			page 1


   1              		.cpu cortex-m4
   2              		.eabi_attribute 27, 1
   3              		.eabi_attribute 28, 1
   4              		.eabi_attribute 20, 1
   5              		.eabi_attribute 21, 1
   6              		.eabi_attribute 23, 3
   7              		.eabi_attribute 24, 1
   8              		.eabi_attribute 25, 1
   9              		.eabi_attribute 26, 1
  10              		.eabi_attribute 30, 1
  11              		.eabi_attribute 34, 1
  12              		.eabi_attribute 18, 4
  13              		.file	"lv_cont.c"
  14              		.text
  15              	.Ltext0:
  16              		.cfi_sections	.debug_frame
  17              		.section	.text.lv_cont_get_style,"ax",%progbits
  18              		.align	1
  19              		.arch armv7e-m
  20              		.syntax unified
  21              		.thumb
  22              		.thumb_func
  23              		.fpu fpv4-sp-d16
  25              	lv_cont_get_style:
  26              	.LVL0:
  27              	.LFB469:
  28              		.file 1 "lvgl/src/lv_widgets/lv_cont.c"
   1:lvgl/src/lv_widgets/lv_cont.c **** /**
   2:lvgl/src/lv_widgets/lv_cont.c ****  * @file lv_cont.c
   3:lvgl/src/lv_widgets/lv_cont.c ****  *
   4:lvgl/src/lv_widgets/lv_cont.c ****  */
   5:lvgl/src/lv_widgets/lv_cont.c **** 
   6:lvgl/src/lv_widgets/lv_cont.c **** /*********************
   7:lvgl/src/lv_widgets/lv_cont.c ****  *      INCLUDES
   8:lvgl/src/lv_widgets/lv_cont.c ****  *********************/
   9:lvgl/src/lv_widgets/lv_cont.c **** 
  10:lvgl/src/lv_widgets/lv_cont.c **** #include "lv_cont.h"
  11:lvgl/src/lv_widgets/lv_cont.c **** #if LV_USE_CONT != 0
  12:lvgl/src/lv_widgets/lv_cont.c **** 
  13:lvgl/src/lv_widgets/lv_cont.c **** #include <stdbool.h>
  14:lvgl/src/lv_widgets/lv_cont.c **** #include <stdint.h>
  15:lvgl/src/lv_widgets/lv_cont.c **** #include <string.h>
  16:lvgl/src/lv_widgets/lv_cont.c **** 
  17:lvgl/src/lv_widgets/lv_cont.c **** #include "../lv_misc/lv_debug.h"
  18:lvgl/src/lv_widgets/lv_cont.c **** #include "../lv_draw/lv_draw.h"
  19:lvgl/src/lv_widgets/lv_cont.c **** #include "../lv_draw/lv_draw_mask.h"
  20:lvgl/src/lv_widgets/lv_cont.c **** #include "../lv_themes/lv_theme.h"
  21:lvgl/src/lv_widgets/lv_cont.c **** #include "../lv_misc/lv_area.h"
  22:lvgl/src/lv_widgets/lv_cont.c **** #include "../lv_misc/lv_color.h"
  23:lvgl/src/lv_widgets/lv_cont.c **** #include "../lv_misc/lv_math.h"
  24:lvgl/src/lv_widgets/lv_cont.c **** 
  25:lvgl/src/lv_widgets/lv_cont.c **** /*********************
  26:lvgl/src/lv_widgets/lv_cont.c ****  *      DEFINES
  27:lvgl/src/lv_widgets/lv_cont.c ****  *********************/
  28:lvgl/src/lv_widgets/lv_cont.c **** #define LV_OBJX_NAME "lv_cont"
  29:lvgl/src/lv_widgets/lv_cont.c **** 
  30:lvgl/src/lv_widgets/lv_cont.c **** #ifndef LV_LAYOUT_MAX_RECURSION
ARM GAS  D:\Temp\cchslsHM.s 			page 2


  31:lvgl/src/lv_widgets/lv_cont.c ****     #define LV_LAYOUT_MAX_RECURSION 10
  32:lvgl/src/lv_widgets/lv_cont.c **** #endif
  33:lvgl/src/lv_widgets/lv_cont.c **** 
  34:lvgl/src/lv_widgets/lv_cont.c **** /**********************
  35:lvgl/src/lv_widgets/lv_cont.c ****  *      TYPEDEFS
  36:lvgl/src/lv_widgets/lv_cont.c ****  **********************/
  37:lvgl/src/lv_widgets/lv_cont.c **** 
  38:lvgl/src/lv_widgets/lv_cont.c **** /**********************
  39:lvgl/src/lv_widgets/lv_cont.c ****  *  STATIC PROTOTYPES
  40:lvgl/src/lv_widgets/lv_cont.c ****  **********************/
  41:lvgl/src/lv_widgets/lv_cont.c **** static lv_res_t lv_cont_signal(lv_obj_t * cont, lv_signal_t sign, void * param);
  42:lvgl/src/lv_widgets/lv_cont.c **** static lv_style_list_t * lv_cont_get_style(lv_obj_t * cont, uint8_t type);
  43:lvgl/src/lv_widgets/lv_cont.c **** static void lv_cont_refr_layout(lv_obj_t * cont);
  44:lvgl/src/lv_widgets/lv_cont.c **** static void lv_cont_layout_col(lv_obj_t * cont);
  45:lvgl/src/lv_widgets/lv_cont.c **** static void lv_cont_layout_row(lv_obj_t * cont);
  46:lvgl/src/lv_widgets/lv_cont.c **** static void lv_cont_layout_center(lv_obj_t * cont);
  47:lvgl/src/lv_widgets/lv_cont.c **** static void lv_cont_layout_pretty(lv_obj_t * cont);
  48:lvgl/src/lv_widgets/lv_cont.c **** static void lv_cont_layout_grid(lv_obj_t * cont);
  49:lvgl/src/lv_widgets/lv_cont.c **** static void lv_cont_refr_autofit(lv_obj_t * cont);
  50:lvgl/src/lv_widgets/lv_cont.c **** 
  51:lvgl/src/lv_widgets/lv_cont.c **** /**********************
  52:lvgl/src/lv_widgets/lv_cont.c ****  *  STATIC VARIABLES
  53:lvgl/src/lv_widgets/lv_cont.c ****  **********************/
  54:lvgl/src/lv_widgets/lv_cont.c **** static lv_design_cb_t ancestor_design;
  55:lvgl/src/lv_widgets/lv_cont.c **** static lv_signal_cb_t ancestor_signal;
  56:lvgl/src/lv_widgets/lv_cont.c **** 
  57:lvgl/src/lv_widgets/lv_cont.c **** /**********************
  58:lvgl/src/lv_widgets/lv_cont.c ****  *      MACROS
  59:lvgl/src/lv_widgets/lv_cont.c ****  **********************/
  60:lvgl/src/lv_widgets/lv_cont.c **** 
  61:lvgl/src/lv_widgets/lv_cont.c **** /**********************
  62:lvgl/src/lv_widgets/lv_cont.c ****  *   GLOBAL FUNCTIONS
  63:lvgl/src/lv_widgets/lv_cont.c ****  **********************/
  64:lvgl/src/lv_widgets/lv_cont.c **** 
  65:lvgl/src/lv_widgets/lv_cont.c **** /**
  66:lvgl/src/lv_widgets/lv_cont.c ****  * Create a container objects
  67:lvgl/src/lv_widgets/lv_cont.c ****  * @param par pointer to an object, it will be the parent of the new container
  68:lvgl/src/lv_widgets/lv_cont.c ****  * @param copy pointer to a container object, if not NULL then the new object will be copied from i
  69:lvgl/src/lv_widgets/lv_cont.c ****  * @return pointer to the created container
  70:lvgl/src/lv_widgets/lv_cont.c ****  */
  71:lvgl/src/lv_widgets/lv_cont.c **** lv_obj_t * lv_cont_create(lv_obj_t * par, const lv_obj_t * copy)
  72:lvgl/src/lv_widgets/lv_cont.c **** {
  73:lvgl/src/lv_widgets/lv_cont.c **** 
  74:lvgl/src/lv_widgets/lv_cont.c ****     LV_LOG_TRACE("container create started");
  75:lvgl/src/lv_widgets/lv_cont.c **** 
  76:lvgl/src/lv_widgets/lv_cont.c ****     /*Create a basic object*/
  77:lvgl/src/lv_widgets/lv_cont.c ****     lv_obj_t * cont = lv_obj_create(par, copy);
  78:lvgl/src/lv_widgets/lv_cont.c ****     LV_ASSERT_MEM(cont);
  79:lvgl/src/lv_widgets/lv_cont.c ****     if(cont == NULL) return NULL;
  80:lvgl/src/lv_widgets/lv_cont.c **** 
  81:lvgl/src/lv_widgets/lv_cont.c ****     if(ancestor_signal == NULL) ancestor_signal = lv_obj_get_signal_cb(cont);
  82:lvgl/src/lv_widgets/lv_cont.c ****     if(ancestor_design == NULL) ancestor_design = lv_obj_get_design_cb(cont);
  83:lvgl/src/lv_widgets/lv_cont.c **** 
  84:lvgl/src/lv_widgets/lv_cont.c ****     lv_obj_allocate_ext_attr(cont, sizeof(lv_cont_ext_t));
  85:lvgl/src/lv_widgets/lv_cont.c ****     lv_cont_ext_t * ext = lv_obj_get_ext_attr(cont);
  86:lvgl/src/lv_widgets/lv_cont.c ****     if(ext == NULL) {
  87:lvgl/src/lv_widgets/lv_cont.c ****         lv_obj_del(cont);
ARM GAS  D:\Temp\cchslsHM.s 			page 3


  88:lvgl/src/lv_widgets/lv_cont.c ****         return NULL;
  89:lvgl/src/lv_widgets/lv_cont.c ****     }
  90:lvgl/src/lv_widgets/lv_cont.c **** 
  91:lvgl/src/lv_widgets/lv_cont.c ****     LV_ASSERT_MEM(ext);
  92:lvgl/src/lv_widgets/lv_cont.c ****     ext->fit_left   = LV_FIT_NONE;
  93:lvgl/src/lv_widgets/lv_cont.c ****     ext->fit_right  = LV_FIT_NONE;
  94:lvgl/src/lv_widgets/lv_cont.c ****     ext->fit_top    = LV_FIT_NONE;
  95:lvgl/src/lv_widgets/lv_cont.c ****     ext->fit_bottom = LV_FIT_NONE;
  96:lvgl/src/lv_widgets/lv_cont.c ****     ext->layout     = LV_LAYOUT_OFF;
  97:lvgl/src/lv_widgets/lv_cont.c **** 
  98:lvgl/src/lv_widgets/lv_cont.c ****     lv_obj_set_signal_cb(cont, lv_cont_signal);
  99:lvgl/src/lv_widgets/lv_cont.c **** 
 100:lvgl/src/lv_widgets/lv_cont.c ****     /*Init the new container*/
 101:lvgl/src/lv_widgets/lv_cont.c ****     if(copy == NULL) {
 102:lvgl/src/lv_widgets/lv_cont.c ****         /*Set the default styles if it's not screen*/
 103:lvgl/src/lv_widgets/lv_cont.c ****         if(par != NULL) {
 104:lvgl/src/lv_widgets/lv_cont.c ****             lv_theme_apply(cont, LV_THEME_CONT);
 105:lvgl/src/lv_widgets/lv_cont.c ****         }
 106:lvgl/src/lv_widgets/lv_cont.c **** 
 107:lvgl/src/lv_widgets/lv_cont.c ****     }
 108:lvgl/src/lv_widgets/lv_cont.c ****     /*Copy an existing object*/
 109:lvgl/src/lv_widgets/lv_cont.c ****     else {
 110:lvgl/src/lv_widgets/lv_cont.c ****         lv_cont_ext_t * copy_ext = lv_obj_get_ext_attr(copy);
 111:lvgl/src/lv_widgets/lv_cont.c ****         ext->fit_left            = copy_ext->fit_left;
 112:lvgl/src/lv_widgets/lv_cont.c ****         ext->fit_right           = copy_ext->fit_right;
 113:lvgl/src/lv_widgets/lv_cont.c ****         ext->fit_top             = copy_ext->fit_top;
 114:lvgl/src/lv_widgets/lv_cont.c ****         ext->fit_bottom          = copy_ext->fit_bottom;
 115:lvgl/src/lv_widgets/lv_cont.c ****         ext->layout              = copy_ext->layout;
 116:lvgl/src/lv_widgets/lv_cont.c **** 
 117:lvgl/src/lv_widgets/lv_cont.c ****         /*Refresh the style with new signal function*/
 118:lvgl/src/lv_widgets/lv_cont.c ****         lv_obj_refresh_style(cont, LV_OBJ_PART_ALL, LV_STYLE_PROP_ALL);
 119:lvgl/src/lv_widgets/lv_cont.c ****     }
 120:lvgl/src/lv_widgets/lv_cont.c **** 
 121:lvgl/src/lv_widgets/lv_cont.c ****     LV_LOG_INFO("container created");
 122:lvgl/src/lv_widgets/lv_cont.c **** 
 123:lvgl/src/lv_widgets/lv_cont.c ****     return cont;
 124:lvgl/src/lv_widgets/lv_cont.c **** }
 125:lvgl/src/lv_widgets/lv_cont.c **** 
 126:lvgl/src/lv_widgets/lv_cont.c **** /*=====================
 127:lvgl/src/lv_widgets/lv_cont.c ****  * Setter functions
 128:lvgl/src/lv_widgets/lv_cont.c ****  *====================*/
 129:lvgl/src/lv_widgets/lv_cont.c **** 
 130:lvgl/src/lv_widgets/lv_cont.c **** /**
 131:lvgl/src/lv_widgets/lv_cont.c ****  * Set a layout on a container
 132:lvgl/src/lv_widgets/lv_cont.c ****  * @param cont pointer to a container object
 133:lvgl/src/lv_widgets/lv_cont.c ****  * @param layout a layout from 'lv_cont_layout_t'
 134:lvgl/src/lv_widgets/lv_cont.c ****  */
 135:lvgl/src/lv_widgets/lv_cont.c **** void lv_cont_set_layout(lv_obj_t * cont, lv_layout_t layout)
 136:lvgl/src/lv_widgets/lv_cont.c **** {
 137:lvgl/src/lv_widgets/lv_cont.c ****     LV_ASSERT_OBJ(cont, LV_OBJX_NAME);
 138:lvgl/src/lv_widgets/lv_cont.c **** 
 139:lvgl/src/lv_widgets/lv_cont.c ****     lv_cont_ext_t * ext = lv_obj_get_ext_attr(cont);
 140:lvgl/src/lv_widgets/lv_cont.c ****     if(ext->layout == layout) return;
 141:lvgl/src/lv_widgets/lv_cont.c **** 
 142:lvgl/src/lv_widgets/lv_cont.c ****     ext->layout = layout;
 143:lvgl/src/lv_widgets/lv_cont.c **** 
 144:lvgl/src/lv_widgets/lv_cont.c ****     /*Send a signal to refresh the layout*/
ARM GAS  D:\Temp\cchslsHM.s 			page 4


 145:lvgl/src/lv_widgets/lv_cont.c ****     cont->signal_cb(cont, LV_SIGNAL_CHILD_CHG, NULL);
 146:lvgl/src/lv_widgets/lv_cont.c **** }
 147:lvgl/src/lv_widgets/lv_cont.c **** 
 148:lvgl/src/lv_widgets/lv_cont.c **** /**
 149:lvgl/src/lv_widgets/lv_cont.c ****  * Set the fit policy in all 4 directions separately.
 150:lvgl/src/lv_widgets/lv_cont.c ****  * It tell how to change the container's size automatically.
 151:lvgl/src/lv_widgets/lv_cont.c ****  * @param cont pointer to a container object
 152:lvgl/src/lv_widgets/lv_cont.c ****  * @param left left fit policy from `lv_fit_t`
 153:lvgl/src/lv_widgets/lv_cont.c ****  * @param right right fit policy from `lv_fit_t`
 154:lvgl/src/lv_widgets/lv_cont.c ****  * @param top bottom fit policy from `lv_fit_t`
 155:lvgl/src/lv_widgets/lv_cont.c ****  * @param bottom bottom fit policy from `lv_fit_t`
 156:lvgl/src/lv_widgets/lv_cont.c ****  */
 157:lvgl/src/lv_widgets/lv_cont.c **** void lv_cont_set_fit4(lv_obj_t * cont, lv_fit_t left, lv_fit_t right, lv_fit_t top, lv_fit_t bottom
 158:lvgl/src/lv_widgets/lv_cont.c **** {
 159:lvgl/src/lv_widgets/lv_cont.c ****     LV_ASSERT_OBJ(cont, LV_OBJX_NAME);
 160:lvgl/src/lv_widgets/lv_cont.c **** 
 161:lvgl/src/lv_widgets/lv_cont.c ****     lv_obj_invalidate(cont);
 162:lvgl/src/lv_widgets/lv_cont.c ****     lv_cont_ext_t * ext = lv_obj_get_ext_attr(cont);
 163:lvgl/src/lv_widgets/lv_cont.c ****     if(ext->fit_left == left && ext->fit_right == right && ext->fit_top == top && ext->fit_bottom =
 164:lvgl/src/lv_widgets/lv_cont.c ****         return;
 165:lvgl/src/lv_widgets/lv_cont.c ****     }
 166:lvgl/src/lv_widgets/lv_cont.c **** 
 167:lvgl/src/lv_widgets/lv_cont.c ****     ext->fit_left   = left;
 168:lvgl/src/lv_widgets/lv_cont.c ****     ext->fit_right  = right;
 169:lvgl/src/lv_widgets/lv_cont.c ****     ext->fit_top    = top;
 170:lvgl/src/lv_widgets/lv_cont.c ****     ext->fit_bottom = bottom;
 171:lvgl/src/lv_widgets/lv_cont.c **** 
 172:lvgl/src/lv_widgets/lv_cont.c ****     /*Send a signal to refresh the layout*/
 173:lvgl/src/lv_widgets/lv_cont.c ****     cont->signal_cb(cont, LV_SIGNAL_CHILD_CHG, NULL);
 174:lvgl/src/lv_widgets/lv_cont.c **** }
 175:lvgl/src/lv_widgets/lv_cont.c **** 
 176:lvgl/src/lv_widgets/lv_cont.c **** /*=====================
 177:lvgl/src/lv_widgets/lv_cont.c ****  * Getter functions
 178:lvgl/src/lv_widgets/lv_cont.c ****  *====================*/
 179:lvgl/src/lv_widgets/lv_cont.c **** 
 180:lvgl/src/lv_widgets/lv_cont.c **** /**
 181:lvgl/src/lv_widgets/lv_cont.c ****  * Get the layout of a container
 182:lvgl/src/lv_widgets/lv_cont.c ****  * @param cont pointer to container object
 183:lvgl/src/lv_widgets/lv_cont.c ****  * @return the layout from 'lv_cont_layout_t'
 184:lvgl/src/lv_widgets/lv_cont.c ****  */
 185:lvgl/src/lv_widgets/lv_cont.c **** lv_layout_t lv_cont_get_layout(const lv_obj_t * cont)
 186:lvgl/src/lv_widgets/lv_cont.c **** {
 187:lvgl/src/lv_widgets/lv_cont.c ****     LV_ASSERT_OBJ(cont, LV_OBJX_NAME);
 188:lvgl/src/lv_widgets/lv_cont.c **** 
 189:lvgl/src/lv_widgets/lv_cont.c ****     lv_cont_ext_t * ext = lv_obj_get_ext_attr(cont);
 190:lvgl/src/lv_widgets/lv_cont.c ****     return ext->layout;
 191:lvgl/src/lv_widgets/lv_cont.c **** }
 192:lvgl/src/lv_widgets/lv_cont.c **** 
 193:lvgl/src/lv_widgets/lv_cont.c **** /**
 194:lvgl/src/lv_widgets/lv_cont.c ****  * Get left fit mode of a container
 195:lvgl/src/lv_widgets/lv_cont.c ****  * @param cont pointer to a container object
 196:lvgl/src/lv_widgets/lv_cont.c ****  * @return an element of `lv_fit_t`
 197:lvgl/src/lv_widgets/lv_cont.c ****  */
 198:lvgl/src/lv_widgets/lv_cont.c **** lv_fit_t lv_cont_get_fit_left(const lv_obj_t * cont)
 199:lvgl/src/lv_widgets/lv_cont.c **** {
 200:lvgl/src/lv_widgets/lv_cont.c ****     LV_ASSERT_OBJ(cont, LV_OBJX_NAME);
 201:lvgl/src/lv_widgets/lv_cont.c **** 
ARM GAS  D:\Temp\cchslsHM.s 			page 5


 202:lvgl/src/lv_widgets/lv_cont.c ****     lv_cont_ext_t * ext = lv_obj_get_ext_attr(cont);
 203:lvgl/src/lv_widgets/lv_cont.c ****     return ext->fit_left;
 204:lvgl/src/lv_widgets/lv_cont.c **** }
 205:lvgl/src/lv_widgets/lv_cont.c **** 
 206:lvgl/src/lv_widgets/lv_cont.c **** /**
 207:lvgl/src/lv_widgets/lv_cont.c ****  * Get right fit mode of a container
 208:lvgl/src/lv_widgets/lv_cont.c ****  * @param cont pointer to a container object
 209:lvgl/src/lv_widgets/lv_cont.c ****  * @return an element of `lv_fit_t`
 210:lvgl/src/lv_widgets/lv_cont.c ****  */
 211:lvgl/src/lv_widgets/lv_cont.c **** lv_fit_t lv_cont_get_fit_right(const lv_obj_t * cont)
 212:lvgl/src/lv_widgets/lv_cont.c **** {
 213:lvgl/src/lv_widgets/lv_cont.c ****     LV_ASSERT_OBJ(cont, LV_OBJX_NAME);
 214:lvgl/src/lv_widgets/lv_cont.c **** 
 215:lvgl/src/lv_widgets/lv_cont.c ****     lv_cont_ext_t * ext = lv_obj_get_ext_attr(cont);
 216:lvgl/src/lv_widgets/lv_cont.c ****     return ext->fit_right;
 217:lvgl/src/lv_widgets/lv_cont.c **** }
 218:lvgl/src/lv_widgets/lv_cont.c **** 
 219:lvgl/src/lv_widgets/lv_cont.c **** /**
 220:lvgl/src/lv_widgets/lv_cont.c ****  * Get top fit mode of a container
 221:lvgl/src/lv_widgets/lv_cont.c ****  * @param cont pointer to a container object
 222:lvgl/src/lv_widgets/lv_cont.c ****  * @return an element of `lv_fit_t`
 223:lvgl/src/lv_widgets/lv_cont.c ****  */
 224:lvgl/src/lv_widgets/lv_cont.c **** lv_fit_t lv_cont_get_fit_top(const lv_obj_t * cont)
 225:lvgl/src/lv_widgets/lv_cont.c **** {
 226:lvgl/src/lv_widgets/lv_cont.c ****     LV_ASSERT_OBJ(cont, LV_OBJX_NAME);
 227:lvgl/src/lv_widgets/lv_cont.c **** 
 228:lvgl/src/lv_widgets/lv_cont.c ****     lv_cont_ext_t * ext = lv_obj_get_ext_attr(cont);
 229:lvgl/src/lv_widgets/lv_cont.c ****     return ext->fit_top;
 230:lvgl/src/lv_widgets/lv_cont.c **** }
 231:lvgl/src/lv_widgets/lv_cont.c **** 
 232:lvgl/src/lv_widgets/lv_cont.c **** /**
 233:lvgl/src/lv_widgets/lv_cont.c ****  * Get bottom fit mode of a container
 234:lvgl/src/lv_widgets/lv_cont.c ****  * @param cont pointer to a container object
 235:lvgl/src/lv_widgets/lv_cont.c ****  * @return an element of `lv_fit_t`
 236:lvgl/src/lv_widgets/lv_cont.c ****  */
 237:lvgl/src/lv_widgets/lv_cont.c **** lv_fit_t lv_cont_get_fit_bottom(const lv_obj_t * cont)
 238:lvgl/src/lv_widgets/lv_cont.c **** {
 239:lvgl/src/lv_widgets/lv_cont.c ****     LV_ASSERT_OBJ(cont, LV_OBJX_NAME);
 240:lvgl/src/lv_widgets/lv_cont.c **** 
 241:lvgl/src/lv_widgets/lv_cont.c ****     lv_cont_ext_t * ext = lv_obj_get_ext_attr(cont);
 242:lvgl/src/lv_widgets/lv_cont.c ****     return ext->fit_bottom;
 243:lvgl/src/lv_widgets/lv_cont.c **** }
 244:lvgl/src/lv_widgets/lv_cont.c **** 
 245:lvgl/src/lv_widgets/lv_cont.c **** /**********************
 246:lvgl/src/lv_widgets/lv_cont.c ****  *   STATIC FUNCTIONS
 247:lvgl/src/lv_widgets/lv_cont.c ****  **********************/
 248:lvgl/src/lv_widgets/lv_cont.c **** 
 249:lvgl/src/lv_widgets/lv_cont.c **** /**
 250:lvgl/src/lv_widgets/lv_cont.c ****  * Signal function of the container
 251:lvgl/src/lv_widgets/lv_cont.c ****  * @param cont pointer to a container object
 252:lvgl/src/lv_widgets/lv_cont.c ****  * @param sign a signal type from lv_signal_t enum
 253:lvgl/src/lv_widgets/lv_cont.c ****  * @param param pointer to a signal specific variable
 254:lvgl/src/lv_widgets/lv_cont.c ****  * @return LV_RES_OK: the object is not deleted in the function; LV_RES_INV: the object is deleted
 255:lvgl/src/lv_widgets/lv_cont.c ****  */
 256:lvgl/src/lv_widgets/lv_cont.c **** static lv_res_t lv_cont_signal(lv_obj_t * cont, lv_signal_t sign, void * param)
 257:lvgl/src/lv_widgets/lv_cont.c **** {
 258:lvgl/src/lv_widgets/lv_cont.c ****     if(sign == LV_SIGNAL_GET_STYLE) {
ARM GAS  D:\Temp\cchslsHM.s 			page 6


 259:lvgl/src/lv_widgets/lv_cont.c ****         lv_get_style_info_t * info = param;
 260:lvgl/src/lv_widgets/lv_cont.c ****         info->result = lv_cont_get_style(cont, info->part);
 261:lvgl/src/lv_widgets/lv_cont.c ****         if(info->result != NULL) return LV_RES_OK;
 262:lvgl/src/lv_widgets/lv_cont.c ****         else return ancestor_signal(cont, sign, param);
 263:lvgl/src/lv_widgets/lv_cont.c ****     }
 264:lvgl/src/lv_widgets/lv_cont.c **** 
 265:lvgl/src/lv_widgets/lv_cont.c ****     lv_res_t res;
 266:lvgl/src/lv_widgets/lv_cont.c **** 
 267:lvgl/src/lv_widgets/lv_cont.c ****     /* Include the ancient signal function */
 268:lvgl/src/lv_widgets/lv_cont.c ****     res = ancestor_signal(cont, sign, param);
 269:lvgl/src/lv_widgets/lv_cont.c ****     if(res != LV_RES_OK) return res;
 270:lvgl/src/lv_widgets/lv_cont.c ****     if(sign == LV_SIGNAL_GET_TYPE) return lv_obj_handle_get_type_signal(param, LV_OBJX_NAME);
 271:lvgl/src/lv_widgets/lv_cont.c **** 
 272:lvgl/src/lv_widgets/lv_cont.c ****     if(sign == LV_SIGNAL_STYLE_CHG) { /*Recalculate the padding if the style changed*/
 273:lvgl/src/lv_widgets/lv_cont.c ****         lv_cont_refr_layout(cont);
 274:lvgl/src/lv_widgets/lv_cont.c ****         lv_cont_refr_autofit(cont);
 275:lvgl/src/lv_widgets/lv_cont.c ****     }
 276:lvgl/src/lv_widgets/lv_cont.c ****     else if(sign == LV_SIGNAL_CHILD_CHG) {
 277:lvgl/src/lv_widgets/lv_cont.c ****         lv_cont_refr_layout(cont);
 278:lvgl/src/lv_widgets/lv_cont.c ****         lv_cont_refr_autofit(cont);
 279:lvgl/src/lv_widgets/lv_cont.c ****     }
 280:lvgl/src/lv_widgets/lv_cont.c ****     else if(sign == LV_SIGNAL_COORD_CHG) {
 281:lvgl/src/lv_widgets/lv_cont.c ****         if(lv_obj_get_width(cont) != lv_area_get_width(param) || lv_obj_get_height(cont) != lv_area
 282:lvgl/src/lv_widgets/lv_cont.c ****             lv_cont_refr_layout(cont);
 283:lvgl/src/lv_widgets/lv_cont.c ****             lv_cont_refr_autofit(cont);
 284:lvgl/src/lv_widgets/lv_cont.c ****         }
 285:lvgl/src/lv_widgets/lv_cont.c ****     }
 286:lvgl/src/lv_widgets/lv_cont.c ****     else if(sign == LV_SIGNAL_PARENT_SIZE_CHG) {
 287:lvgl/src/lv_widgets/lv_cont.c ****         /*MAX and EDGE fit needs to be refreshed if the parent's size has changed*/
 288:lvgl/src/lv_widgets/lv_cont.c ****         lv_cont_refr_autofit(cont);
 289:lvgl/src/lv_widgets/lv_cont.c ****     }
 290:lvgl/src/lv_widgets/lv_cont.c **** 
 291:lvgl/src/lv_widgets/lv_cont.c ****     return res;
 292:lvgl/src/lv_widgets/lv_cont.c **** }
 293:lvgl/src/lv_widgets/lv_cont.c **** 
 294:lvgl/src/lv_widgets/lv_cont.c **** static lv_style_list_t * lv_cont_get_style(lv_obj_t * cont, uint8_t type)
 295:lvgl/src/lv_widgets/lv_cont.c **** {
  29              		.loc 1 295 1 view -0
  30              		.cfi_startproc
  31              		@ args = 0, pretend = 0, frame = 0
  32              		@ frame_needed = 0, uses_anonymous_args = 0
  33              		@ link register save eliminated.
 296:lvgl/src/lv_widgets/lv_cont.c ****     lv_style_list_t * style_dsc_p;
  34              		.loc 1 296 5 view .LVU1
 297:lvgl/src/lv_widgets/lv_cont.c ****     switch(type) {
  35              		.loc 1 297 5 view .LVU2
  36 0000 09B9     		cbnz	r1, .L3
 298:lvgl/src/lv_widgets/lv_cont.c ****         case LV_CONT_PART_MAIN:
 299:lvgl/src/lv_widgets/lv_cont.c ****             style_dsc_p = &cont->style_list;
  37              		.loc 1 299 13 view .LVU3
  38              		.loc 1 299 25 is_stmt 0 view .LVU4
  39 0002 2830     		adds	r0, r0, #40
  40              	.LVL1:
 300:lvgl/src/lv_widgets/lv_cont.c ****             break;
  41              		.loc 1 300 13 is_stmt 1 view .LVU5
  42 0004 7047     		bx	lr
  43              	.LVL2:
ARM GAS  D:\Temp\cchslsHM.s 			page 7


  44              	.L3:
 301:lvgl/src/lv_widgets/lv_cont.c ****         default:
 302:lvgl/src/lv_widgets/lv_cont.c ****             style_dsc_p = NULL;
  45              		.loc 1 302 25 is_stmt 0 view .LVU6
  46 0006 0020     		movs	r0, #0
  47              	.LVL3:
 303:lvgl/src/lv_widgets/lv_cont.c ****     }
 304:lvgl/src/lv_widgets/lv_cont.c **** 
 305:lvgl/src/lv_widgets/lv_cont.c ****     return style_dsc_p;
  48              		.loc 1 305 5 is_stmt 1 view .LVU7
 306:lvgl/src/lv_widgets/lv_cont.c **** }
  49              		.loc 1 306 1 is_stmt 0 view .LVU8
  50 0008 7047     		bx	lr
  51              		.cfi_endproc
  52              	.LFE469:
  54              		.section	.text.lv_cont_layout_center,"ax",%progbits
  55              		.align	1
  56              		.syntax unified
  57              		.thumb
  58              		.thumb_func
  59              		.fpu fpv4-sp-d16
  61              	lv_cont_layout_center:
  62              	.LVL4:
  63              	.LFB473:
 307:lvgl/src/lv_widgets/lv_cont.c **** 
 308:lvgl/src/lv_widgets/lv_cont.c **** /**
 309:lvgl/src/lv_widgets/lv_cont.c ****  * Refresh the layout of a container
 310:lvgl/src/lv_widgets/lv_cont.c ****  * @param cont pointer to an object which layout should be refreshed
 311:lvgl/src/lv_widgets/lv_cont.c ****  */
 312:lvgl/src/lv_widgets/lv_cont.c **** static void lv_cont_refr_layout(lv_obj_t * cont)
 313:lvgl/src/lv_widgets/lv_cont.c **** {
 314:lvgl/src/lv_widgets/lv_cont.c ****     if(lv_obj_is_protected(cont, LV_PROTECT_CHILD_CHG)) return;
 315:lvgl/src/lv_widgets/lv_cont.c ****     lv_layout_t type = lv_cont_get_layout(cont);
 316:lvgl/src/lv_widgets/lv_cont.c **** 
 317:lvgl/src/lv_widgets/lv_cont.c ****     /*'cont' has to be at least 1 child*/
 318:lvgl/src/lv_widgets/lv_cont.c ****     if(lv_obj_get_child(cont, NULL) == NULL) return;
 319:lvgl/src/lv_widgets/lv_cont.c **** 
 320:lvgl/src/lv_widgets/lv_cont.c ****     if(type == LV_LAYOUT_OFF) return;
 321:lvgl/src/lv_widgets/lv_cont.c **** 
 322:lvgl/src/lv_widgets/lv_cont.c ****     if(type == LV_LAYOUT_CENTER) {
 323:lvgl/src/lv_widgets/lv_cont.c ****         lv_cont_layout_center(cont);
 324:lvgl/src/lv_widgets/lv_cont.c ****     }
 325:lvgl/src/lv_widgets/lv_cont.c ****     else if(type == LV_LAYOUT_COLUMN_LEFT || type == LV_LAYOUT_COLUMN_MID || type == LV_LAYOUT_COLU
 326:lvgl/src/lv_widgets/lv_cont.c ****         lv_cont_layout_col(cont);
 327:lvgl/src/lv_widgets/lv_cont.c ****     }
 328:lvgl/src/lv_widgets/lv_cont.c ****     else if(type == LV_LAYOUT_ROW_TOP || type == LV_LAYOUT_ROW_MID || type == LV_LAYOUT_ROW_BOTTOM)
 329:lvgl/src/lv_widgets/lv_cont.c ****         lv_cont_layout_row(cont);
 330:lvgl/src/lv_widgets/lv_cont.c ****     }
 331:lvgl/src/lv_widgets/lv_cont.c ****     else if(type == LV_LAYOUT_PRETTY_MID || type == LV_LAYOUT_PRETTY_TOP || type == LV_LAYOUT_PRETT
 332:lvgl/src/lv_widgets/lv_cont.c ****         lv_cont_layout_pretty(cont);
 333:lvgl/src/lv_widgets/lv_cont.c ****     }
 334:lvgl/src/lv_widgets/lv_cont.c ****     else if(type == LV_LAYOUT_GRID) {
 335:lvgl/src/lv_widgets/lv_cont.c ****         lv_cont_layout_grid(cont);
 336:lvgl/src/lv_widgets/lv_cont.c ****     }
 337:lvgl/src/lv_widgets/lv_cont.c **** }
 338:lvgl/src/lv_widgets/lv_cont.c **** 
 339:lvgl/src/lv_widgets/lv_cont.c **** /**
ARM GAS  D:\Temp\cchslsHM.s 			page 8


 340:lvgl/src/lv_widgets/lv_cont.c ****  * Handle column type layouts
 341:lvgl/src/lv_widgets/lv_cont.c ****  * @param cont pointer to an object which layout should be handled
 342:lvgl/src/lv_widgets/lv_cont.c ****  */
 343:lvgl/src/lv_widgets/lv_cont.c **** static void lv_cont_layout_col(lv_obj_t * cont)
 344:lvgl/src/lv_widgets/lv_cont.c **** {
 345:lvgl/src/lv_widgets/lv_cont.c ****     lv_coord_t left = lv_obj_get_style_pad_left(cont, LV_CONT_PART_MAIN);
 346:lvgl/src/lv_widgets/lv_cont.c ****     lv_coord_t right = lv_obj_get_style_pad_right(cont, LV_CONT_PART_MAIN);
 347:lvgl/src/lv_widgets/lv_cont.c ****     lv_coord_t top = lv_obj_get_style_pad_top(cont, LV_CONT_PART_MAIN);
 348:lvgl/src/lv_widgets/lv_cont.c ****     lv_coord_t inner = lv_obj_get_style_pad_inner(cont, LV_CONT_PART_MAIN);
 349:lvgl/src/lv_widgets/lv_cont.c **** 
 350:lvgl/src/lv_widgets/lv_cont.c ****     lv_layout_t type = lv_cont_get_layout(cont);
 351:lvgl/src/lv_widgets/lv_cont.c ****     lv_obj_t * child;
 352:lvgl/src/lv_widgets/lv_cont.c **** 
 353:lvgl/src/lv_widgets/lv_cont.c ****     /*Adjust margin and get the alignment type*/
 354:lvgl/src/lv_widgets/lv_cont.c ****     lv_align_t align;
 355:lvgl/src/lv_widgets/lv_cont.c ****     lv_coord_t hpad_corr;
 356:lvgl/src/lv_widgets/lv_cont.c **** 
 357:lvgl/src/lv_widgets/lv_cont.c ****     switch(type) {
 358:lvgl/src/lv_widgets/lv_cont.c ****         case LV_LAYOUT_COLUMN_LEFT:
 359:lvgl/src/lv_widgets/lv_cont.c ****             hpad_corr = left;
 360:lvgl/src/lv_widgets/lv_cont.c ****             align     = LV_ALIGN_IN_TOP_LEFT;
 361:lvgl/src/lv_widgets/lv_cont.c ****             break;
 362:lvgl/src/lv_widgets/lv_cont.c ****         case LV_LAYOUT_COLUMN_MID:
 363:lvgl/src/lv_widgets/lv_cont.c ****             hpad_corr = 0;
 364:lvgl/src/lv_widgets/lv_cont.c ****             align     = LV_ALIGN_IN_TOP_MID;
 365:lvgl/src/lv_widgets/lv_cont.c ****             break;
 366:lvgl/src/lv_widgets/lv_cont.c ****         case LV_LAYOUT_COLUMN_RIGHT:
 367:lvgl/src/lv_widgets/lv_cont.c ****             hpad_corr = -right;
 368:lvgl/src/lv_widgets/lv_cont.c ****             align     = LV_ALIGN_IN_TOP_RIGHT;
 369:lvgl/src/lv_widgets/lv_cont.c ****             break;
 370:lvgl/src/lv_widgets/lv_cont.c ****         default:
 371:lvgl/src/lv_widgets/lv_cont.c ****             hpad_corr = 0;
 372:lvgl/src/lv_widgets/lv_cont.c ****             align     = LV_ALIGN_IN_TOP_LEFT;
 373:lvgl/src/lv_widgets/lv_cont.c ****             break;
 374:lvgl/src/lv_widgets/lv_cont.c ****     }
 375:lvgl/src/lv_widgets/lv_cont.c **** 
 376:lvgl/src/lv_widgets/lv_cont.c ****     /* Disable child change action because the children will be moved a lot
 377:lvgl/src/lv_widgets/lv_cont.c ****      * an unnecessary child change signals could be sent*/
 378:lvgl/src/lv_widgets/lv_cont.c ****     lv_obj_add_protect(cont, LV_PROTECT_CHILD_CHG);
 379:lvgl/src/lv_widgets/lv_cont.c ****     /* Align the children */
 380:lvgl/src/lv_widgets/lv_cont.c ****     lv_coord_t last_cord = top;
 381:lvgl/src/lv_widgets/lv_cont.c ****     _LV_LL_READ_BACK(cont->child_ll, child) {
 382:lvgl/src/lv_widgets/lv_cont.c ****         if(lv_obj_get_hidden(child) != false || lv_obj_is_protected(child, LV_PROTECT_POS) != false
 383:lvgl/src/lv_widgets/lv_cont.c ****         lv_style_int_t mtop = lv_obj_get_style_margin_top(child, LV_OBJ_PART_MAIN);
 384:lvgl/src/lv_widgets/lv_cont.c ****         lv_style_int_t mbottom = lv_obj_get_style_margin_bottom(child, LV_OBJ_PART_MAIN);
 385:lvgl/src/lv_widgets/lv_cont.c ****         lv_style_int_t mleft = lv_obj_get_style_margin_left(child, LV_OBJ_PART_MAIN);
 386:lvgl/src/lv_widgets/lv_cont.c ****         lv_obj_align(child, cont, align, hpad_corr + mleft, last_cord + mtop);
 387:lvgl/src/lv_widgets/lv_cont.c ****         last_cord += lv_obj_get_height(child) + inner + mtop + mbottom;
 388:lvgl/src/lv_widgets/lv_cont.c ****     }
 389:lvgl/src/lv_widgets/lv_cont.c **** 
 390:lvgl/src/lv_widgets/lv_cont.c ****     lv_obj_clear_protect(cont, LV_PROTECT_CHILD_CHG);
 391:lvgl/src/lv_widgets/lv_cont.c **** }
 392:lvgl/src/lv_widgets/lv_cont.c **** 
 393:lvgl/src/lv_widgets/lv_cont.c **** /**
 394:lvgl/src/lv_widgets/lv_cont.c ****  * Handle row type layouts
 395:lvgl/src/lv_widgets/lv_cont.c ****  * @param cont pointer to an object which layout should be handled
 396:lvgl/src/lv_widgets/lv_cont.c ****  */
ARM GAS  D:\Temp\cchslsHM.s 			page 9


 397:lvgl/src/lv_widgets/lv_cont.c **** static void lv_cont_layout_row(lv_obj_t * cont)
 398:lvgl/src/lv_widgets/lv_cont.c **** {
 399:lvgl/src/lv_widgets/lv_cont.c **** 
 400:lvgl/src/lv_widgets/lv_cont.c ****     lv_layout_t type = lv_cont_get_layout(cont);
 401:lvgl/src/lv_widgets/lv_cont.c ****     lv_obj_t * child;
 402:lvgl/src/lv_widgets/lv_cont.c **** 
 403:lvgl/src/lv_widgets/lv_cont.c ****     /*Adjust margin and get the alignment type*/
 404:lvgl/src/lv_widgets/lv_cont.c ****     lv_align_t align;
 405:lvgl/src/lv_widgets/lv_cont.c ****     lv_coord_t vpad_corr;
 406:lvgl/src/lv_widgets/lv_cont.c ****     lv_bidi_dir_t base_dir = lv_obj_get_base_dir(cont);
 407:lvgl/src/lv_widgets/lv_cont.c ****     switch(type) {
 408:lvgl/src/lv_widgets/lv_cont.c ****         case LV_LAYOUT_ROW_TOP:
 409:lvgl/src/lv_widgets/lv_cont.c ****             vpad_corr = lv_obj_get_style_pad_top(cont, LV_CONT_PART_MAIN);
 410:lvgl/src/lv_widgets/lv_cont.c ****             align     = base_dir == LV_BIDI_DIR_RTL ? LV_ALIGN_IN_TOP_RIGHT : LV_ALIGN_IN_TOP_LEFT;
 411:lvgl/src/lv_widgets/lv_cont.c ****             break;
 412:lvgl/src/lv_widgets/lv_cont.c ****         case LV_LAYOUT_ROW_MID:
 413:lvgl/src/lv_widgets/lv_cont.c ****             vpad_corr = 0;
 414:lvgl/src/lv_widgets/lv_cont.c ****             align     = base_dir == LV_BIDI_DIR_RTL ? LV_ALIGN_IN_RIGHT_MID : LV_ALIGN_IN_LEFT_MID;
 415:lvgl/src/lv_widgets/lv_cont.c ****             break;
 416:lvgl/src/lv_widgets/lv_cont.c ****         case LV_LAYOUT_ROW_BOTTOM:
 417:lvgl/src/lv_widgets/lv_cont.c ****             vpad_corr = -lv_obj_get_style_pad_bottom(cont, LV_CONT_PART_MAIN);
 418:lvgl/src/lv_widgets/lv_cont.c ****             align     = base_dir == LV_BIDI_DIR_RTL ? LV_ALIGN_IN_BOTTOM_RIGHT : LV_ALIGN_IN_BOTTOM
 419:lvgl/src/lv_widgets/lv_cont.c ****             break;
 420:lvgl/src/lv_widgets/lv_cont.c ****         default:
 421:lvgl/src/lv_widgets/lv_cont.c ****             vpad_corr = 0;
 422:lvgl/src/lv_widgets/lv_cont.c ****             align     = base_dir == LV_BIDI_DIR_RTL ? LV_ALIGN_IN_TOP_RIGHT : LV_ALIGN_IN_TOP_LEFT;
 423:lvgl/src/lv_widgets/lv_cont.c ****             break;
 424:lvgl/src/lv_widgets/lv_cont.c ****     }
 425:lvgl/src/lv_widgets/lv_cont.c **** 
 426:lvgl/src/lv_widgets/lv_cont.c ****     /* Disable child change action because the children will be moved a lot
 427:lvgl/src/lv_widgets/lv_cont.c ****      * an unnecessary child change signals could be sent*/
 428:lvgl/src/lv_widgets/lv_cont.c ****     lv_obj_add_protect(cont, LV_PROTECT_CHILD_CHG);
 429:lvgl/src/lv_widgets/lv_cont.c **** 
 430:lvgl/src/lv_widgets/lv_cont.c ****     /* Align the children */
 431:lvgl/src/lv_widgets/lv_cont.c ****     lv_coord_t last_cord;
 432:lvgl/src/lv_widgets/lv_cont.c ****     if(base_dir == LV_BIDI_DIR_RTL) last_cord = lv_obj_get_style_pad_right(cont, LV_CONT_PART_MAIN)
 433:lvgl/src/lv_widgets/lv_cont.c ****     else last_cord = lv_obj_get_style_pad_left(cont, LV_CONT_PART_MAIN);
 434:lvgl/src/lv_widgets/lv_cont.c **** 
 435:lvgl/src/lv_widgets/lv_cont.c ****     lv_coord_t inner = lv_obj_get_style_pad_inner(cont, LV_CONT_PART_MAIN);
 436:lvgl/src/lv_widgets/lv_cont.c **** 
 437:lvgl/src/lv_widgets/lv_cont.c ****     _LV_LL_READ_BACK(cont->child_ll, child) {
 438:lvgl/src/lv_widgets/lv_cont.c ****         if(lv_obj_get_hidden(child) != false || lv_obj_is_protected(child, LV_PROTECT_POS) != false
 439:lvgl/src/lv_widgets/lv_cont.c **** 
 440:lvgl/src/lv_widgets/lv_cont.c ****         if(base_dir == LV_BIDI_DIR_RTL) lv_obj_align(child, cont, align, -last_cord, vpad_corr);
 441:lvgl/src/lv_widgets/lv_cont.c ****         else lv_obj_align(child, cont, align, last_cord, vpad_corr);
 442:lvgl/src/lv_widgets/lv_cont.c **** 
 443:lvgl/src/lv_widgets/lv_cont.c ****         last_cord += lv_obj_get_width(child) + inner;
 444:lvgl/src/lv_widgets/lv_cont.c ****     }
 445:lvgl/src/lv_widgets/lv_cont.c **** 
 446:lvgl/src/lv_widgets/lv_cont.c ****     lv_obj_clear_protect(cont, LV_PROTECT_CHILD_CHG);
 447:lvgl/src/lv_widgets/lv_cont.c **** }
 448:lvgl/src/lv_widgets/lv_cont.c **** 
 449:lvgl/src/lv_widgets/lv_cont.c **** /**
 450:lvgl/src/lv_widgets/lv_cont.c ****  * Handle the center layout
 451:lvgl/src/lv_widgets/lv_cont.c ****  * @param cont pointer to an object which layout should be handled
 452:lvgl/src/lv_widgets/lv_cont.c ****  */
 453:lvgl/src/lv_widgets/lv_cont.c **** static void lv_cont_layout_center(lv_obj_t * cont)
ARM GAS  D:\Temp\cchslsHM.s 			page 10


 454:lvgl/src/lv_widgets/lv_cont.c **** {
  64              		.loc 1 454 1 is_stmt 1 view -0
  65              		.cfi_startproc
  66              		@ args = 0, pretend = 0, frame = 0
  67              		@ frame_needed = 0, uses_anonymous_args = 0
  68              		.loc 1 454 1 is_stmt 0 view .LVU10
  69 0000 2DE9F043 		push	{r4, r5, r6, r7, r8, r9, lr}
  70              	.LCFI0:
  71              		.cfi_def_cfa_offset 28
  72              		.cfi_offset 4, -28
  73              		.cfi_offset 5, -24
  74              		.cfi_offset 6, -20
  75              		.cfi_offset 7, -16
  76              		.cfi_offset 8, -12
  77              		.cfi_offset 9, -8
  78              		.cfi_offset 14, -4
  79 0004 83B0     		sub	sp, sp, #12
  80              	.LCFI1:
  81              		.cfi_def_cfa_offset 40
  82 0006 8046     		mov	r8, r0
 455:lvgl/src/lv_widgets/lv_cont.c ****     lv_obj_t * child;
  83              		.loc 1 455 5 is_stmt 1 view .LVU11
 456:lvgl/src/lv_widgets/lv_cont.c ****     uint32_t obj_num         = 0;
  84              		.loc 1 456 5 view .LVU12
  85              	.LVL5:
 457:lvgl/src/lv_widgets/lv_cont.c ****     lv_coord_t h_tot         = 0;
  86              		.loc 1 457 5 view .LVU13
 458:lvgl/src/lv_widgets/lv_cont.c **** 
 459:lvgl/src/lv_widgets/lv_cont.c ****     lv_coord_t inner = lv_obj_get_style_pad_inner(cont, LV_CONT_PART_MAIN);
  87              		.loc 1 459 5 view .LVU14
  88              	.LBB119:
  89              	.LBI119:
  90              		.file 2 "lvgl/src/lv_widgets/../lv_core/lv_obj_style_dec.h"
   1:lvgl/src/lv_widgets/../lv_core/lv_obj_style_dec.h **** 
   2:lvgl/src/lv_widgets/../lv_core/lv_obj_style_dec.h **** /**
   3:lvgl/src/lv_widgets/../lv_core/lv_obj_style_dec.h ****  * @file lv_obj_style_dec.h
   4:lvgl/src/lv_widgets/../lv_core/lv_obj_style_dec.h ****  *
   5:lvgl/src/lv_widgets/../lv_core/lv_obj_style_dec.h ****  */
   6:lvgl/src/lv_widgets/../lv_core/lv_obj_style_dec.h **** 
   7:lvgl/src/lv_widgets/../lv_core/lv_obj_style_dec.h **** #ifndef LV_OBJ_STYLE_DEC_H
   8:lvgl/src/lv_widgets/../lv_core/lv_obj_style_dec.h **** #define LV_OBJ_STYLE_DEC_H
   9:lvgl/src/lv_widgets/../lv_core/lv_obj_style_dec.h **** 
  10:lvgl/src/lv_widgets/../lv_core/lv_obj_style_dec.h **** #ifdef __cplusplus
  11:lvgl/src/lv_widgets/../lv_core/lv_obj_style_dec.h **** extern "C" {
  12:lvgl/src/lv_widgets/../lv_core/lv_obj_style_dec.h **** #endif
  13:lvgl/src/lv_widgets/../lv_core/lv_obj_style_dec.h **** 
  14:lvgl/src/lv_widgets/../lv_core/lv_obj_style_dec.h **** /*********************
  15:lvgl/src/lv_widgets/../lv_core/lv_obj_style_dec.h ****  *      DEFINES
  16:lvgl/src/lv_widgets/../lv_core/lv_obj_style_dec.h ****  *********************/
  17:lvgl/src/lv_widgets/../lv_core/lv_obj_style_dec.h **** 
  18:lvgl/src/lv_widgets/../lv_core/lv_obj_style_dec.h **** /**
  19:lvgl/src/lv_widgets/../lv_core/lv_obj_style_dec.h ****  * Macro to declare the most important style set/get API functions.
  20:lvgl/src/lv_widgets/../lv_core/lv_obj_style_dec.h ****  *
  21:lvgl/src/lv_widgets/../lv_core/lv_obj_style_dec.h ****  * Get the value of a style property from an object in the object's current state
  22:lvgl/src/lv_widgets/../lv_core/lv_obj_style_dec.h ****  * -----------------------------------------------------------------------------
  23:lvgl/src/lv_widgets/../lv_core/lv_obj_style_dec.h ****  *  - Get the value of a style property from an object in the object's current state.
  24:lvgl/src/lv_widgets/../lv_core/lv_obj_style_dec.h ****  *  - Transition animation is taken into account.
ARM GAS  D:\Temp\cchslsHM.s 			page 11


  25:lvgl/src/lv_widgets/../lv_core/lv_obj_style_dec.h ****  *  - If the property is not set in the object's styles check the parent(s) if the property can be 
  26:lvgl/src/lv_widgets/../lv_core/lv_obj_style_dec.h ****  *  - If still not found return a default value.
  27:lvgl/src/lv_widgets/../lv_core/lv_obj_style_dec.h ****  *  - For example:
  28:lvgl/src/lv_widgets/../lv_core/lv_obj_style_dec.h ****  *      `lv_style_int_t w = lv_obj_get_style_border_width(btn1, LV_BTN_PART_MAIN);`
  29:lvgl/src/lv_widgets/../lv_core/lv_obj_style_dec.h ****  *
  30:lvgl/src/lv_widgets/../lv_core/lv_obj_style_dec.h ****  * Set a local style property for an object in a given state
  31:lvgl/src/lv_widgets/../lv_core/lv_obj_style_dec.h ****  * ---------------------------------------------------------
  32:lvgl/src/lv_widgets/../lv_core/lv_obj_style_dec.h ****  *  - For example:
  33:lvgl/src/lv_widgets/../lv_core/lv_obj_style_dec.h ****  *      `lv_obj_set_style_local_border_width(btn1, LV_BTN_PART_MAIN, LV_STATE_PRESSED, 2);`
  34:lvgl/src/lv_widgets/../lv_core/lv_obj_style_dec.h ****  *
  35:lvgl/src/lv_widgets/../lv_core/lv_obj_style_dec.h ****  * Get a local style property's value of an object in a given state
  36:lvgl/src/lv_widgets/../lv_core/lv_obj_style_dec.h ****  * ----------------------------------------------------------------
  37:lvgl/src/lv_widgets/../lv_core/lv_obj_style_dec.h ****  *  - Return the best matching property in the given state.
  38:lvgl/src/lv_widgets/../lv_core/lv_obj_style_dec.h ****  *  - E.g. if `state` parameter is LV_STATE_PRESSED | LV_STATE_CHECKED` but the property defined on
  39:lvgl/src/lv_widgets/../lv_core/lv_obj_style_dec.h ****  *    `LV_STATE_PRESSED` and `LV_STATE_DEFAULT` the best matching state is `LV_STATE_PRESSED`
  40:lvgl/src/lv_widgets/../lv_core/lv_obj_style_dec.h ****  *    (because it has higher precedence) and it will be returned.
  41:lvgl/src/lv_widgets/../lv_core/lv_obj_style_dec.h ****  *  - If the property is not found even in `LV_STATE_DEFAULT` `-1` is returned.
  42:lvgl/src/lv_widgets/../lv_core/lv_obj_style_dec.h ****  *  - For example:
  43:lvgl/src/lv_widgets/../lv_core/lv_obj_style_dec.h ****  *      `//Type of result should be lv_style_int_t/lv_opa_t/lv_color_t/const void * according to th
  44:lvgl/src/lv_widgets/../lv_core/lv_obj_style_dec.h ****  *      `lv_style_int_t result;`
  45:lvgl/src/lv_widgets/../lv_core/lv_obj_style_dec.h ****  *      `lv_obj_get_style_local_border_width(btn1, LV_BTN_PART_MAIN, LV_STATE_PRESSED, &result);`
  46:lvgl/src/lv_widgets/../lv_core/lv_obj_style_dec.h ****  *      `if(weight > 0) ...the property is found and loaded into result...`
  47:lvgl/src/lv_widgets/../lv_core/lv_obj_style_dec.h ****  *
  48:lvgl/src/lv_widgets/../lv_core/lv_obj_style_dec.h ****  * Get the value from a style in a given state
  49:lvgl/src/lv_widgets/../lv_core/lv_obj_style_dec.h ****  * -------------------------------------------
  50:lvgl/src/lv_widgets/../lv_core/lv_obj_style_dec.h ****  * - The same rules applies to the return value then for "lv_obj_get_style_local_...()" above
  51:lvgl/src/lv_widgets/../lv_core/lv_obj_style_dec.h ****  * - For example
  52:lvgl/src/lv_widgets/../lv_core/lv_obj_style_dec.h ****  *      `int16_t weight = lv_style_get_border_width(&style1, LV_STATE_PRESSED, &result);`
  53:lvgl/src/lv_widgets/../lv_core/lv_obj_style_dec.h ****  *      `if(weight > 0) ...the property is found and loaded into result...`
  54:lvgl/src/lv_widgets/../lv_core/lv_obj_style_dec.h **** 
  55:lvgl/src/lv_widgets/../lv_core/lv_obj_style_dec.h ****  * Set a value in a style in a given state
  56:lvgl/src/lv_widgets/../lv_core/lv_obj_style_dec.h ****  * ---------------------------------------
  57:lvgl/src/lv_widgets/../lv_core/lv_obj_style_dec.h ****  * - For example
  58:lvgl/src/lv_widgets/../lv_core/lv_obj_style_dec.h ****  *      `lv_style_set_border_width(&style1, LV_STATE_PRESSED, 2);`
  59:lvgl/src/lv_widgets/../lv_core/lv_obj_style_dec.h ****  */
  60:lvgl/src/lv_widgets/../lv_core/lv_obj_style_dec.h **** 
  61:lvgl/src/lv_widgets/../lv_core/lv_obj_style_dec.h **** #define _OBJ_GET_STYLE_scalar(prop_name, func_name, value_type, style_type)                        
  62:lvgl/src/lv_widgets/../lv_core/lv_obj_style_dec.h ****     static inline value_type lv_obj_get_style_##func_name (const lv_obj_t * obj, uint8_t part)     
  63:lvgl/src/lv_widgets/../lv_core/lv_obj_style_dec.h ****     {                                                                                              
  64:lvgl/src/lv_widgets/../lv_core/lv_obj_style_dec.h ****         return (value_type) _lv_obj_get_style##style_type (obj, part, LV_STYLE_##prop_name);       
  65:lvgl/src/lv_widgets/../lv_core/lv_obj_style_dec.h ****     }
  66:lvgl/src/lv_widgets/../lv_core/lv_obj_style_dec.h **** 
  67:lvgl/src/lv_widgets/../lv_core/lv_obj_style_dec.h **** #define _OBJ_GET_STYLE_nonscalar(prop_name, func_name, value_type, style_type)                     
  68:lvgl/src/lv_widgets/../lv_core/lv_obj_style_dec.h ****     static inline value_type lv_obj_get_style_##func_name (const lv_obj_t * obj, uint8_t part)     
  69:lvgl/src/lv_widgets/../lv_core/lv_obj_style_dec.h ****     {                                                                                              
  70:lvgl/src/lv_widgets/../lv_core/lv_obj_style_dec.h ****         return _lv_obj_get_style##style_type (obj, part, LV_STYLE_##prop_name);                    
  71:lvgl/src/lv_widgets/../lv_core/lv_obj_style_dec.h ****     }
  72:lvgl/src/lv_widgets/../lv_core/lv_obj_style_dec.h **** 
  73:lvgl/src/lv_widgets/../lv_core/lv_obj_style_dec.h **** #define _OBJ_SET_STYLE_LOCAL_scalar(prop_name, func_name, value_type, style_type)                  
  74:lvgl/src/lv_widgets/../lv_core/lv_obj_style_dec.h ****     static inline void lv_obj_set_style_local_##func_name (lv_obj_t * obj, uint8_t part, lv_state_t
  75:lvgl/src/lv_widgets/../lv_core/lv_obj_style_dec.h ****     {                                                                                              
  76:lvgl/src/lv_widgets/../lv_core/lv_obj_style_dec.h ****         _lv_obj_set_style_local##style_type (obj, part, LV_STYLE_##prop_name | (state << LV_STYLE_S
  77:lvgl/src/lv_widgets/../lv_core/lv_obj_style_dec.h ****     }
  78:lvgl/src/lv_widgets/../lv_core/lv_obj_style_dec.h **** 
  79:lvgl/src/lv_widgets/../lv_core/lv_obj_style_dec.h **** #define _OBJ_SET_STYLE_LOCAL_nonscalar(prop_name, func_name, value_type, style_type)               
  80:lvgl/src/lv_widgets/../lv_core/lv_obj_style_dec.h ****     static inline void lv_obj_set_style_local_##func_name (lv_obj_t * obj, uint8_t part, lv_state_t
  81:lvgl/src/lv_widgets/../lv_core/lv_obj_style_dec.h ****     {                                                                                              
ARM GAS  D:\Temp\cchslsHM.s 			page 12


  82:lvgl/src/lv_widgets/../lv_core/lv_obj_style_dec.h ****         _lv_obj_set_style_local##style_type (obj, part, LV_STYLE_##prop_name | (state << LV_STYLE_S
  83:lvgl/src/lv_widgets/../lv_core/lv_obj_style_dec.h ****     }
  84:lvgl/src/lv_widgets/../lv_core/lv_obj_style_dec.h **** 
  85:lvgl/src/lv_widgets/../lv_core/lv_obj_style_dec.h **** #define _OBJ_SET_STYLE_scalar(prop_name, func_name, value_type, style_type)                        
  86:lvgl/src/lv_widgets/../lv_core/lv_obj_style_dec.h ****     static inline void lv_style_set_##func_name (lv_style_t * style, lv_state_t state, value_type v
  87:lvgl/src/lv_widgets/../lv_core/lv_obj_style_dec.h ****     {                                                                                              
  88:lvgl/src/lv_widgets/../lv_core/lv_obj_style_dec.h ****         _lv_style_set##style_type (style, LV_STYLE_##prop_name | (state << LV_STYLE_STATE_POS), val
  89:lvgl/src/lv_widgets/../lv_core/lv_obj_style_dec.h ****     }
  90:lvgl/src/lv_widgets/../lv_core/lv_obj_style_dec.h **** 
  91:lvgl/src/lv_widgets/../lv_core/lv_obj_style_dec.h **** #define _OBJ_SET_STYLE_nonscalar(prop_name, func_name, value_type, style_type)                     
  92:lvgl/src/lv_widgets/../lv_core/lv_obj_style_dec.h ****     static inline void lv_style_set_##func_name (lv_style_t * style, lv_state_t state, value_type v
  93:lvgl/src/lv_widgets/../lv_core/lv_obj_style_dec.h ****     {                                                                                              
  94:lvgl/src/lv_widgets/../lv_core/lv_obj_style_dec.h ****         _lv_style_set##style_type (style, LV_STYLE_##prop_name | (state << LV_STYLE_STATE_POS), val
  95:lvgl/src/lv_widgets/../lv_core/lv_obj_style_dec.h ****     }
  96:lvgl/src/lv_widgets/../lv_core/lv_obj_style_dec.h **** 
  97:lvgl/src/lv_widgets/../lv_core/lv_obj_style_dec.h **** #define _LV_OBJ_STYLE_SET_GET_DECLARE(prop_name, func_name, value_type, style_type, scalar)        
  98:lvgl/src/lv_widgets/../lv_core/lv_obj_style_dec.h ****     _OBJ_GET_STYLE_##scalar(prop_name, func_name, value_type, style_type)                          
  99:lvgl/src/lv_widgets/../lv_core/lv_obj_style_dec.h ****     _OBJ_SET_STYLE_LOCAL_##scalar(prop_name, func_name, value_type, style_type)                    
 100:lvgl/src/lv_widgets/../lv_core/lv_obj_style_dec.h ****     _OBJ_SET_STYLE_##scalar(prop_name, func_name, value_type, style_type)
 101:lvgl/src/lv_widgets/../lv_core/lv_obj_style_dec.h **** 
 102:lvgl/src/lv_widgets/../lv_core/lv_obj_style_dec.h **** _LV_OBJ_STYLE_SET_GET_DECLARE(RADIUS, radius, lv_style_int_t, _int, scalar)
 103:lvgl/src/lv_widgets/../lv_core/lv_obj_style_dec.h **** _LV_OBJ_STYLE_SET_GET_DECLARE(CLIP_CORNER, clip_corner, bool, _int, scalar)
 104:lvgl/src/lv_widgets/../lv_core/lv_obj_style_dec.h **** _LV_OBJ_STYLE_SET_GET_DECLARE(SIZE, size, lv_style_int_t, _int, scalar)
 105:lvgl/src/lv_widgets/../lv_core/lv_obj_style_dec.h **** _LV_OBJ_STYLE_SET_GET_DECLARE(TRANSFORM_WIDTH, transform_width, lv_style_int_t, _int, scalar)
 106:lvgl/src/lv_widgets/../lv_core/lv_obj_style_dec.h **** _LV_OBJ_STYLE_SET_GET_DECLARE(TRANSFORM_HEIGHT, transform_height, lv_style_int_t, _int, scalar)
 107:lvgl/src/lv_widgets/../lv_core/lv_obj_style_dec.h **** _LV_OBJ_STYLE_SET_GET_DECLARE(TRANSFORM_ANGLE, transform_angle, lv_style_int_t, _int, scalar)
 108:lvgl/src/lv_widgets/../lv_core/lv_obj_style_dec.h **** _LV_OBJ_STYLE_SET_GET_DECLARE(TRANSFORM_ZOOM, transform_zoom, lv_style_int_t, _int, scalar)
 109:lvgl/src/lv_widgets/../lv_core/lv_obj_style_dec.h **** _LV_OBJ_STYLE_SET_GET_DECLARE(OPA_SCALE, opa_scale, lv_opa_t, _opa, scalar)
 110:lvgl/src/lv_widgets/../lv_core/lv_obj_style_dec.h **** _LV_OBJ_STYLE_SET_GET_DECLARE(PAD_TOP, pad_top, lv_style_int_t, _int, scalar)
 111:lvgl/src/lv_widgets/../lv_core/lv_obj_style_dec.h **** _LV_OBJ_STYLE_SET_GET_DECLARE(PAD_BOTTOM, pad_bottom, lv_style_int_t, _int, scalar)
 112:lvgl/src/lv_widgets/../lv_core/lv_obj_style_dec.h **** _LV_OBJ_STYLE_SET_GET_DECLARE(PAD_LEFT, pad_left, lv_style_int_t, _int, scalar)
 113:lvgl/src/lv_widgets/../lv_core/lv_obj_style_dec.h **** _LV_OBJ_STYLE_SET_GET_DECLARE(PAD_RIGHT, pad_right, lv_style_int_t, _int, scalar)
 114:lvgl/src/lv_widgets/../lv_core/lv_obj_style_dec.h **** _LV_OBJ_STYLE_SET_GET_DECLARE(PAD_INNER, pad_inner, lv_style_int_t, _int, scalar)
  91              		.loc 2 114 1 view .LVU15
  92              	.LBB120:
  93              		.loc 2 114 1 view .LVU16
  94 0008 1422     		movs	r2, #20
  95 000a 0021     		movs	r1, #0
  96 000c FFF7FEFF 		bl	_lv_obj_get_style_int
  97              	.LVL6:
  98              		.loc 2 114 1 is_stmt 0 view .LVU17
  99 0010 0746     		mov	r7, r0
 100              	.LVL7:
 101              		.loc 2 114 1 view .LVU18
 102              	.LBE120:
 103              	.LBE119:
 460:lvgl/src/lv_widgets/lv_cont.c ****     _LV_LL_READ(cont->child_ll, child) {
 104              		.loc 1 460 5 is_stmt 1 view .LVU19
 105 0012 08F10406 		add	r6, r8, #4
 106 0016 3046     		mov	r0, r6
 107 0018 FFF7FEFF 		bl	_lv_ll_get_head
 108              	.LVL8:
 109 001c 0446     		mov	r4, r0
 110              	.LVL9:
 457:lvgl/src/lv_widgets/lv_cont.c **** 
 111              		.loc 1 457 16 is_stmt 0 view .LVU20
 112 001e 0025     		movs	r5, #0
ARM GAS  D:\Temp\cchslsHM.s 			page 13


 456:lvgl/src/lv_widgets/lv_cont.c ****     lv_coord_t h_tot         = 0;
 113              		.loc 1 456 14 view .LVU21
 114 0020 A946     		mov	r9, r5
 115              		.loc 1 460 5 view .LVU22
 116 0022 04E0     		b	.L5
 117              	.LVL10:
 118              	.L8:
 119              		.loc 1 460 5 discriminator 2 view .LVU23
 120 0024 2146     		mov	r1, r4
 121 0026 3046     		mov	r0, r6
 122 0028 FFF7FEFF 		bl	_lv_ll_get_next
 123              	.LVL11:
 124 002c 0446     		mov	r4, r0
 125              	.LVL12:
 126              	.L5:
 127              		.loc 1 460 5 discriminator 1 view .LVU24
 128 002e 9CB1     		cbz	r4, .L17
 461:lvgl/src/lv_widgets/lv_cont.c ****         if(lv_obj_get_hidden(child) != false || lv_obj_is_protected(child, LV_PROTECT_POS) != false
 129              		.loc 1 461 9 is_stmt 1 view .LVU25
 130              		.loc 1 461 12 is_stmt 0 view .LVU26
 131 0030 2046     		mov	r0, r4
 132              		.loc 1 461 12 view .LVU27
 133 0032 FFF7FEFF 		bl	lv_obj_get_hidden
 134              	.LVL13:
 135              		.loc 1 461 11 view .LVU28
 136 0036 0028     		cmp	r0, #0
 137 0038 F4D1     		bne	.L8
 138              		.loc 1 461 49 discriminator 2 view .LVU29
 139 003a 0421     		movs	r1, #4
 140 003c 2046     		mov	r0, r4
 141 003e FFF7FEFF 		bl	lv_obj_is_protected
 142              	.LVL14:
 143              		.loc 1 461 46 discriminator 2 view .LVU30
 144 0042 0028     		cmp	r0, #0
 145 0044 EED1     		bne	.L8
 462:lvgl/src/lv_widgets/lv_cont.c ****         h_tot += lv_obj_get_height(child) + inner;
 146              		.loc 1 462 9 is_stmt 1 view .LVU31
 147              		.loc 1 462 18 is_stmt 0 view .LVU32
 148 0046 2046     		mov	r0, r4
 149 0048 FFF7FEFF 		bl	lv_obj_get_height
 150              	.LVL15:
 151              		.loc 1 462 43 view .LVU33
 152 004c 3844     		add	r0, r0, r7
 153              		.loc 1 462 15 view .LVU34
 154 004e 0544     		add	r5, r5, r0
 155              	.LVL16:
 156              		.loc 1 462 15 view .LVU35
 157 0050 2DB2     		sxth	r5, r5
 158              	.LVL17:
 463:lvgl/src/lv_widgets/lv_cont.c ****         obj_num++;
 159              		.loc 1 463 9 is_stmt 1 view .LVU36
 160              		.loc 1 463 16 is_stmt 0 view .LVU37
 161 0052 09F10109 		add	r9, r9, #1
 162              	.LVL18:
 163              		.loc 1 463 16 view .LVU38
 164 0056 E5E7     		b	.L8
 165              	.LVL19:
ARM GAS  D:\Temp\cchslsHM.s 			page 14


 166              	.L17:
 464:lvgl/src/lv_widgets/lv_cont.c ****     }
 465:lvgl/src/lv_widgets/lv_cont.c **** 
 466:lvgl/src/lv_widgets/lv_cont.c ****     if(obj_num == 0) return;
 167              		.loc 1 466 5 is_stmt 1 view .LVU39
 168              		.loc 1 466 7 is_stmt 0 view .LVU40
 169 0058 B9F1000F 		cmp	r9, #0
 170 005c 02D1     		bne	.L18
 171              	.LVL20:
 172              	.L4:
 467:lvgl/src/lv_widgets/lv_cont.c **** 
 468:lvgl/src/lv_widgets/lv_cont.c ****     h_tot -= inner;
 469:lvgl/src/lv_widgets/lv_cont.c **** 
 470:lvgl/src/lv_widgets/lv_cont.c ****     /* Disable child change action because the children will be moved a lot
 471:lvgl/src/lv_widgets/lv_cont.c ****      * an unnecessary child change signals could be sent*/
 472:lvgl/src/lv_widgets/lv_cont.c ****     lv_obj_add_protect(cont, LV_PROTECT_CHILD_CHG);
 473:lvgl/src/lv_widgets/lv_cont.c **** 
 474:lvgl/src/lv_widgets/lv_cont.c ****     /* Align the children */
 475:lvgl/src/lv_widgets/lv_cont.c ****     lv_coord_t last_cord = -(h_tot / 2);
 476:lvgl/src/lv_widgets/lv_cont.c ****     _LV_LL_READ_BACK(cont->child_ll, child) {
 477:lvgl/src/lv_widgets/lv_cont.c ****         if(lv_obj_get_hidden(child) != false || lv_obj_is_protected(child, LV_PROTECT_POS) != false
 478:lvgl/src/lv_widgets/lv_cont.c **** 
 479:lvgl/src/lv_widgets/lv_cont.c ****         lv_obj_align(child, cont, LV_ALIGN_CENTER, 0, last_cord + lv_obj_get_height(child) / 2);
 480:lvgl/src/lv_widgets/lv_cont.c ****         last_cord += lv_obj_get_height(child) + inner;
 481:lvgl/src/lv_widgets/lv_cont.c ****     }
 482:lvgl/src/lv_widgets/lv_cont.c **** 
 483:lvgl/src/lv_widgets/lv_cont.c ****     lv_obj_clear_protect(cont, LV_PROTECT_CHILD_CHG);
 484:lvgl/src/lv_widgets/lv_cont.c **** }
 173              		.loc 1 484 1 view .LVU41
 174 005e 03B0     		add	sp, sp, #12
 175              	.LCFI2:
 176              		.cfi_remember_state
 177              		.cfi_def_cfa_offset 28
 178              		@ sp needed
 179 0060 BDE8F083 		pop	{r4, r5, r6, r7, r8, r9, pc}
 180              	.LVL21:
 181              	.L18:
 182              	.LCFI3:
 183              		.cfi_restore_state
 468:lvgl/src/lv_widgets/lv_cont.c **** 
 184              		.loc 1 468 5 is_stmt 1 view .LVU42
 468:lvgl/src/lv_widgets/lv_cont.c **** 
 185              		.loc 1 468 11 is_stmt 0 view .LVU43
 186 0064 ED1B     		subs	r5, r5, r7
 187              	.LVL22:
 468:lvgl/src/lv_widgets/lv_cont.c **** 
 188              		.loc 1 468 11 view .LVU44
 189 0066 2DB2     		sxth	r5, r5
 190              	.LVL23:
 472:lvgl/src/lv_widgets/lv_cont.c **** 
 191              		.loc 1 472 5 is_stmt 1 view .LVU45
 192 0068 0121     		movs	r1, #1
 193 006a 4046     		mov	r0, r8
 194              	.LVL24:
 472:lvgl/src/lv_widgets/lv_cont.c **** 
 195              		.loc 1 472 5 is_stmt 0 view .LVU46
 196 006c FFF7FEFF 		bl	lv_obj_add_protect
ARM GAS  D:\Temp\cchslsHM.s 			page 15


 197              	.LVL25:
 475:lvgl/src/lv_widgets/lv_cont.c ****     _LV_LL_READ_BACK(cont->child_ll, child) {
 198              		.loc 1 475 5 is_stmt 1 view .LVU47
 475:lvgl/src/lv_widgets/lv_cont.c ****     _LV_LL_READ_BACK(cont->child_ll, child) {
 199              		.loc 1 475 16 is_stmt 0 view .LVU48
 200 0070 05EBD575 		add	r5, r5, r5, lsr #31
 201              	.LVL26:
 475:lvgl/src/lv_widgets/lv_cont.c ****     _LV_LL_READ_BACK(cont->child_ll, child) {
 202              		.loc 1 475 16 view .LVU49
 203 0074 6C10     		asrs	r4, r5, #1
 204              	.LVL27:
 475:lvgl/src/lv_widgets/lv_cont.c ****     _LV_LL_READ_BACK(cont->child_ll, child) {
 205              		.loc 1 475 16 view .LVU50
 206 0076 6442     		rsbs	r4, r4, #0
 207 0078 24B2     		sxth	r4, r4
 208              	.LVL28:
 476:lvgl/src/lv_widgets/lv_cont.c ****         if(lv_obj_get_hidden(child) != false || lv_obj_is_protected(child, LV_PROTECT_POS) != false
 209              		.loc 1 476 5 is_stmt 1 view .LVU51
 210 007a 3046     		mov	r0, r6
 211 007c FFF7FEFF 		bl	_lv_ll_get_tail
 212              	.LVL29:
 213 0080 0546     		mov	r5, r0
 214              	.LVL30:
 476:lvgl/src/lv_widgets/lv_cont.c ****         if(lv_obj_get_hidden(child) != false || lv_obj_is_protected(child, LV_PROTECT_POS) != false
 215              		.loc 1 476 5 is_stmt 0 view .LVU52
 216 0082 04E0     		b	.L11
 217              	.LVL31:
 218              	.L14:
 476:lvgl/src/lv_widgets/lv_cont.c ****         if(lv_obj_get_hidden(child) != false || lv_obj_is_protected(child, LV_PROTECT_POS) != false
 219              		.loc 1 476 5 discriminator 2 view .LVU53
 220 0084 2946     		mov	r1, r5
 221 0086 3046     		mov	r0, r6
 222 0088 FFF7FEFF 		bl	_lv_ll_get_prev
 223              	.LVL32:
 224 008c 0546     		mov	r5, r0
 225              	.LVL33:
 226              	.L11:
 476:lvgl/src/lv_widgets/lv_cont.c ****         if(lv_obj_get_hidden(child) != false || lv_obj_is_protected(child, LV_PROTECT_POS) != false
 227              		.loc 1 476 5 discriminator 1 view .LVU54
 228 008e 0DB3     		cbz	r5, .L19
 477:lvgl/src/lv_widgets/lv_cont.c **** 
 229              		.loc 1 477 9 is_stmt 1 view .LVU55
 477:lvgl/src/lv_widgets/lv_cont.c **** 
 230              		.loc 1 477 12 is_stmt 0 view .LVU56
 231 0090 2846     		mov	r0, r5
 477:lvgl/src/lv_widgets/lv_cont.c **** 
 232              		.loc 1 477 12 view .LVU57
 233 0092 FFF7FEFF 		bl	lv_obj_get_hidden
 234              	.LVL34:
 477:lvgl/src/lv_widgets/lv_cont.c **** 
 235              		.loc 1 477 11 view .LVU58
 236 0096 0028     		cmp	r0, #0
 237 0098 F4D1     		bne	.L14
 477:lvgl/src/lv_widgets/lv_cont.c **** 
 238              		.loc 1 477 49 discriminator 2 view .LVU59
 239 009a 0421     		movs	r1, #4
 240 009c 2846     		mov	r0, r5
ARM GAS  D:\Temp\cchslsHM.s 			page 16


 241 009e FFF7FEFF 		bl	lv_obj_is_protected
 242              	.LVL35:
 477:lvgl/src/lv_widgets/lv_cont.c **** 
 243              		.loc 1 477 46 discriminator 2 view .LVU60
 244 00a2 0028     		cmp	r0, #0
 245 00a4 EED1     		bne	.L14
 479:lvgl/src/lv_widgets/lv_cont.c ****         last_cord += lv_obj_get_height(child) + inner;
 246              		.loc 1 479 9 is_stmt 1 view .LVU61
 479:lvgl/src/lv_widgets/lv_cont.c ****         last_cord += lv_obj_get_height(child) + inner;
 247              		.loc 1 479 67 is_stmt 0 view .LVU62
 248 00a6 2846     		mov	r0, r5
 249 00a8 FFF7FEFF 		bl	lv_obj_get_height
 250              	.LVL36:
 479:lvgl/src/lv_widgets/lv_cont.c ****         last_cord += lv_obj_get_height(child) + inner;
 251              		.loc 1 479 65 view .LVU63
 252 00ac A4B2     		uxth	r4, r4
 479:lvgl/src/lv_widgets/lv_cont.c ****         last_cord += lv_obj_get_height(child) + inner;
 253              		.loc 1 479 65 view .LVU64
 254 00ae 00EBD070 		add	r0, r0, r0, lsr #31
 255 00b2 04EB6000 		add	r0, r4, r0, asr #1
 479:lvgl/src/lv_widgets/lv_cont.c ****         last_cord += lv_obj_get_height(child) + inner;
 256              		.loc 1 479 9 view .LVU65
 257 00b6 00B2     		sxth	r0, r0
 258 00b8 0090     		str	r0, [sp]
 259 00ba 0023     		movs	r3, #0
 260 00bc 1A46     		mov	r2, r3
 261 00be 4146     		mov	r1, r8
 262 00c0 2846     		mov	r0, r5
 263 00c2 FFF7FEFF 		bl	lv_obj_align
 264              	.LVL37:
 480:lvgl/src/lv_widgets/lv_cont.c ****     }
 265              		.loc 1 480 9 is_stmt 1 view .LVU66
 480:lvgl/src/lv_widgets/lv_cont.c ****     }
 266              		.loc 1 480 22 is_stmt 0 view .LVU67
 267 00c6 2846     		mov	r0, r5
 268 00c8 FFF7FEFF 		bl	lv_obj_get_height
 269              	.LVL38:
 480:lvgl/src/lv_widgets/lv_cont.c ****     }
 270              		.loc 1 480 47 view .LVU68
 271 00cc 3844     		add	r0, r0, r7
 480:lvgl/src/lv_widgets/lv_cont.c ****     }
 272              		.loc 1 480 19 view .LVU69
 273 00ce 0444     		add	r4, r4, r0
 274              	.LVL39:
 480:lvgl/src/lv_widgets/lv_cont.c ****     }
 275              		.loc 1 480 19 view .LVU70
 276 00d0 24B2     		sxth	r4, r4
 277              	.LVL40:
 480:lvgl/src/lv_widgets/lv_cont.c ****     }
 278              		.loc 1 480 19 view .LVU71
 279 00d2 D7E7     		b	.L14
 280              	.LVL41:
 281              	.L19:
 483:lvgl/src/lv_widgets/lv_cont.c **** }
 282              		.loc 1 483 5 is_stmt 1 view .LVU72
 283 00d4 0121     		movs	r1, #1
 284 00d6 4046     		mov	r0, r8
ARM GAS  D:\Temp\cchslsHM.s 			page 17


 285              	.LVL42:
 483:lvgl/src/lv_widgets/lv_cont.c **** }
 286              		.loc 1 483 5 is_stmt 0 view .LVU73
 287 00d8 FFF7FEFF 		bl	lv_obj_clear_protect
 288              	.LVL43:
 289 00dc BFE7     		b	.L4
 290              		.cfi_endproc
 291              	.LFE473:
 293              		.section	.text.lv_cont_layout_grid,"ax",%progbits
 294              		.align	1
 295              		.syntax unified
 296              		.thumb
 297              		.thumb_func
 298              		.fpu fpv4-sp-d16
 300              	lv_cont_layout_grid:
 301              	.LVL44:
 302              	.LFB475:
 485:lvgl/src/lv_widgets/lv_cont.c **** 
 486:lvgl/src/lv_widgets/lv_cont.c **** /**
 487:lvgl/src/lv_widgets/lv_cont.c ****  * Handle the pretty layout. Put as many object as possible in row
 488:lvgl/src/lv_widgets/lv_cont.c ****  * then begin a new row
 489:lvgl/src/lv_widgets/lv_cont.c ****  * @param cont pointer to an object which layout should be handled
 490:lvgl/src/lv_widgets/lv_cont.c ****  */
 491:lvgl/src/lv_widgets/lv_cont.c **** static void lv_cont_layout_pretty(lv_obj_t * cont)
 492:lvgl/src/lv_widgets/lv_cont.c **** {
 493:lvgl/src/lv_widgets/lv_cont.c ****     lv_layout_t type = lv_cont_get_layout(cont);
 494:lvgl/src/lv_widgets/lv_cont.c **** 
 495:lvgl/src/lv_widgets/lv_cont.c ****     lv_obj_t * child_rs;  /* Row starter child */
 496:lvgl/src/lv_widgets/lv_cont.c ****     lv_obj_t * child_rc;  /* Row closer child */
 497:lvgl/src/lv_widgets/lv_cont.c ****     lv_obj_t * child_tmp; /* Temporary child */
 498:lvgl/src/lv_widgets/lv_cont.c ****     lv_coord_t w_obj         = lv_obj_get_width(cont);
 499:lvgl/src/lv_widgets/lv_cont.c ****     lv_coord_t act_y         =  lv_obj_get_style_pad_top(cont, LV_CONT_PART_MAIN);
 500:lvgl/src/lv_widgets/lv_cont.c ****     /* Disable child change action because the children will be moved a lot
 501:lvgl/src/lv_widgets/lv_cont.c ****      * an unnecessary child change signals could be sent*/
 502:lvgl/src/lv_widgets/lv_cont.c **** 
 503:lvgl/src/lv_widgets/lv_cont.c ****     child_rs = _lv_ll_get_tail(&cont->child_ll); /*Set the row starter child*/
 504:lvgl/src/lv_widgets/lv_cont.c ****     if(child_rs == NULL) return;                /*Return if no child*/
 505:lvgl/src/lv_widgets/lv_cont.c **** 
 506:lvgl/src/lv_widgets/lv_cont.c ****     lv_obj_add_protect(cont, LV_PROTECT_CHILD_CHG);
 507:lvgl/src/lv_widgets/lv_cont.c ****     lv_coord_t pleft          =  lv_obj_get_style_pad_left(cont, LV_CONT_PART_MAIN);
 508:lvgl/src/lv_widgets/lv_cont.c ****     lv_coord_t pright         =  lv_obj_get_style_pad_right(cont, LV_CONT_PART_MAIN);
 509:lvgl/src/lv_widgets/lv_cont.c ****     lv_coord_t pinner = lv_obj_get_style_pad_inner(cont, LV_CONT_PART_MAIN);
 510:lvgl/src/lv_widgets/lv_cont.c **** 
 511:lvgl/src/lv_widgets/lv_cont.c ****     child_rc = child_rs; /*Initially the row starter and closer is the same*/
 512:lvgl/src/lv_widgets/lv_cont.c ****     while(child_rs != NULL) {
 513:lvgl/src/lv_widgets/lv_cont.c ****         lv_coord_t h_row = 0;
 514:lvgl/src/lv_widgets/lv_cont.c ****         lv_coord_t w_row = pleft + pright; /*The width is at least the left+right pad*/
 515:lvgl/src/lv_widgets/lv_cont.c ****         uint32_t obj_num = 0;
 516:lvgl/src/lv_widgets/lv_cont.c **** 
 517:lvgl/src/lv_widgets/lv_cont.c ****         /*Find the row closer object and collect some data*/
 518:lvgl/src/lv_widgets/lv_cont.c ****         do {
 519:lvgl/src/lv_widgets/lv_cont.c ****             if(lv_obj_get_hidden(child_rc) == false && lv_obj_is_protected(child_rc, LV_PROTECT_POS
 520:lvgl/src/lv_widgets/lv_cont.c ****                 /*If this object is already not fit then break*/
 521:lvgl/src/lv_widgets/lv_cont.c ****                 lv_coord_t w = lv_obj_get_width(child_rc);
 522:lvgl/src/lv_widgets/lv_cont.c ****                 w += lv_obj_get_style_margin_left(child_rc, LV_OBJ_PART_MAIN);
 523:lvgl/src/lv_widgets/lv_cont.c ****                 w += lv_obj_get_style_margin_right(child_rc, LV_OBJ_PART_MAIN);
 524:lvgl/src/lv_widgets/lv_cont.c ****                 if(w_row + w > w_obj) {
ARM GAS  D:\Temp\cchslsHM.s 			page 18


 525:lvgl/src/lv_widgets/lv_cont.c ****                     /*Step back one child because the last already not fit, so the previous is the
 526:lvgl/src/lv_widgets/lv_cont.c ****                      * closer*/
 527:lvgl/src/lv_widgets/lv_cont.c ****                     if(child_rc != NULL && obj_num != 0) {
 528:lvgl/src/lv_widgets/lv_cont.c ****                         child_rc = _lv_ll_get_next(&cont->child_ll, child_rc);
 529:lvgl/src/lv_widgets/lv_cont.c ****                     }
 530:lvgl/src/lv_widgets/lv_cont.c ****                     break;
 531:lvgl/src/lv_widgets/lv_cont.c ****                 }
 532:lvgl/src/lv_widgets/lv_cont.c ****                 w_row += w + pinner; /*Add the object width + inner padding*/
 533:lvgl/src/lv_widgets/lv_cont.c **** 
 534:lvgl/src/lv_widgets/lv_cont.c ****                 lv_coord_t h = lv_obj_get_height(child_rc);
 535:lvgl/src/lv_widgets/lv_cont.c ****                 h += lv_obj_get_style_margin_top(child_rc, LV_OBJ_PART_MAIN);
 536:lvgl/src/lv_widgets/lv_cont.c ****                 h += lv_obj_get_style_margin_bottom(child_rc, LV_OBJ_PART_MAIN);
 537:lvgl/src/lv_widgets/lv_cont.c ****                 h_row = LV_MATH_MAX(h_row, h);         /*Search the highest object*/
 538:lvgl/src/lv_widgets/lv_cont.c ****                 obj_num++;
 539:lvgl/src/lv_widgets/lv_cont.c ****                 if(lv_obj_is_protected(child_rc, LV_PROTECT_FOLLOW))
 540:lvgl/src/lv_widgets/lv_cont.c ****                     break; /*If can not be followed by an other object then break here*/
 541:lvgl/src/lv_widgets/lv_cont.c ****             }
 542:lvgl/src/lv_widgets/lv_cont.c ****             child_rc = _lv_ll_get_prev(&cont->child_ll, child_rc); /*Load the next object*/
 543:lvgl/src/lv_widgets/lv_cont.c ****             if(obj_num == 0)
 544:lvgl/src/lv_widgets/lv_cont.c ****                 child_rs = child_rc; /*If the first object was hidden (or too long) then set the
 545:lvgl/src/lv_widgets/lv_cont.c ****                                         next as first */
 546:lvgl/src/lv_widgets/lv_cont.c ****         } while(child_rc != NULL);
 547:lvgl/src/lv_widgets/lv_cont.c **** 
 548:lvgl/src/lv_widgets/lv_cont.c ****         /*If the object is too long then align it to the middle*/
 549:lvgl/src/lv_widgets/lv_cont.c ****         if(obj_num == 0) {
 550:lvgl/src/lv_widgets/lv_cont.c ****             if(child_rc != NULL) {
 551:lvgl/src/lv_widgets/lv_cont.c ****                 lv_style_int_t mtop = lv_obj_get_style_margin_top(child_rc, LV_OBJ_PART_MAIN);
 552:lvgl/src/lv_widgets/lv_cont.c **** 
 553:lvgl/src/lv_widgets/lv_cont.c ****                 lv_obj_align(child_rc, cont, LV_ALIGN_IN_TOP_MID, 0, act_y + mtop);
 554:lvgl/src/lv_widgets/lv_cont.c ****                 h_row = lv_obj_get_height(child_rc); /*Not set previously because of the early brea
 555:lvgl/src/lv_widgets/lv_cont.c ****                 h_row += mtop;
 556:lvgl/src/lv_widgets/lv_cont.c ****                 h_row += lv_obj_get_style_margin_bottom(child_rc, LV_OBJ_PART_MAIN);
 557:lvgl/src/lv_widgets/lv_cont.c ****             }
 558:lvgl/src/lv_widgets/lv_cont.c ****         }
 559:lvgl/src/lv_widgets/lv_cont.c ****         /*If there is only one object in the row then align it to the middle*/
 560:lvgl/src/lv_widgets/lv_cont.c ****         else if(obj_num == 1) {
 561:lvgl/src/lv_widgets/lv_cont.c ****             lv_obj_align(child_rs, cont, LV_ALIGN_IN_TOP_MID,
 562:lvgl/src/lv_widgets/lv_cont.c ****                          0,
 563:lvgl/src/lv_widgets/lv_cont.c ****                          act_y + lv_obj_get_style_margin_top(child_rs, LV_OBJ_PART_MAIN));
 564:lvgl/src/lv_widgets/lv_cont.c ****         }
 565:lvgl/src/lv_widgets/lv_cont.c ****         /* Align the children (from child_rs to child_rc)*/
 566:lvgl/src/lv_widgets/lv_cont.c ****         else {
 567:lvgl/src/lv_widgets/lv_cont.c ****             w_row -= pinner * obj_num;
 568:lvgl/src/lv_widgets/lv_cont.c ****             lv_coord_t new_pinner = (w_obj - w_row) / (obj_num - 1);
 569:lvgl/src/lv_widgets/lv_cont.c ****             lv_coord_t act_x    = pleft; /*x init*/
 570:lvgl/src/lv_widgets/lv_cont.c ****             child_tmp           = child_rs;
 571:lvgl/src/lv_widgets/lv_cont.c ****             lv_align_t align;
 572:lvgl/src/lv_widgets/lv_cont.c ****             int32_t inv;
 573:lvgl/src/lv_widgets/lv_cont.c ****             if(lv_obj_get_base_dir(cont) == LV_BIDI_DIR_RTL) {
 574:lvgl/src/lv_widgets/lv_cont.c ****                 align = LV_ALIGN_IN_TOP_RIGHT;
 575:lvgl/src/lv_widgets/lv_cont.c ****                 inv = -1;
 576:lvgl/src/lv_widgets/lv_cont.c ****             }
 577:lvgl/src/lv_widgets/lv_cont.c ****             else {
 578:lvgl/src/lv_widgets/lv_cont.c ****                 align = LV_ALIGN_IN_TOP_LEFT;
 579:lvgl/src/lv_widgets/lv_cont.c ****                 inv = 1;
 580:lvgl/src/lv_widgets/lv_cont.c ****             }
 581:lvgl/src/lv_widgets/lv_cont.c ****             while(child_tmp != NULL) {
ARM GAS  D:\Temp\cchslsHM.s 			page 19


 582:lvgl/src/lv_widgets/lv_cont.c ****                 if(lv_obj_get_hidden(child_tmp) == false && lv_obj_is_protected(child_tmp, LV_PROTE
 583:lvgl/src/lv_widgets/lv_cont.c ****                     lv_coord_t mleft = lv_obj_get_style_margin_left(child_tmp, LV_OBJ_PART_MAIN);
 584:lvgl/src/lv_widgets/lv_cont.c ****                     lv_coord_t mright = lv_obj_get_style_margin_right(child_tmp, LV_OBJ_PART_MAIN);
 585:lvgl/src/lv_widgets/lv_cont.c ****                     switch(type) {
 586:lvgl/src/lv_widgets/lv_cont.c ****                         case LV_LAYOUT_PRETTY_TOP:
 587:lvgl/src/lv_widgets/lv_cont.c ****                             lv_obj_align(child_tmp, cont, align,
 588:lvgl/src/lv_widgets/lv_cont.c ****                                          inv * (act_x + mleft),
 589:lvgl/src/lv_widgets/lv_cont.c ****                                          act_y + lv_obj_get_style_margin_top(child_tmp, LV_OBJ_PART
 590:lvgl/src/lv_widgets/lv_cont.c ****                             break;
 591:lvgl/src/lv_widgets/lv_cont.c ****                         case LV_LAYOUT_PRETTY_MID:
 592:lvgl/src/lv_widgets/lv_cont.c ****                             lv_obj_align(child_tmp, cont, align,
 593:lvgl/src/lv_widgets/lv_cont.c ****                                          inv * (act_x + mleft),
 594:lvgl/src/lv_widgets/lv_cont.c ****                                          act_y + (h_row - lv_obj_get_height(child_tmp)) / 2);
 595:lvgl/src/lv_widgets/lv_cont.c **** 
 596:lvgl/src/lv_widgets/lv_cont.c ****                             break;
 597:lvgl/src/lv_widgets/lv_cont.c ****                         case LV_LAYOUT_PRETTY_BOTTOM:
 598:lvgl/src/lv_widgets/lv_cont.c ****                             lv_obj_align(child_tmp, cont, align,
 599:lvgl/src/lv_widgets/lv_cont.c ****                                          inv * (act_x + mleft),
 600:lvgl/src/lv_widgets/lv_cont.c ****                                          act_y + h_row - lv_obj_get_height(child_tmp) - lv_obj_get_
 601:lvgl/src/lv_widgets/lv_cont.c ****                             break;
 602:lvgl/src/lv_widgets/lv_cont.c ****                         default:
 603:lvgl/src/lv_widgets/lv_cont.c ****                             break;
 604:lvgl/src/lv_widgets/lv_cont.c ****                     }
 605:lvgl/src/lv_widgets/lv_cont.c **** 
 606:lvgl/src/lv_widgets/lv_cont.c ****                     act_x += lv_obj_get_width(child_tmp) + new_pinner + mleft + mright;
 607:lvgl/src/lv_widgets/lv_cont.c ****                 }
 608:lvgl/src/lv_widgets/lv_cont.c ****                 if(child_tmp == child_rc) break;
 609:lvgl/src/lv_widgets/lv_cont.c ****                 child_tmp = _lv_ll_get_prev(&cont->child_ll, child_tmp);
 610:lvgl/src/lv_widgets/lv_cont.c ****             }
 611:lvgl/src/lv_widgets/lv_cont.c ****         }
 612:lvgl/src/lv_widgets/lv_cont.c **** 
 613:lvgl/src/lv_widgets/lv_cont.c ****         if(child_rc == NULL) break;
 614:lvgl/src/lv_widgets/lv_cont.c ****         act_y += pinner + h_row;           /*y increment*/
 615:lvgl/src/lv_widgets/lv_cont.c ****         child_rs = _lv_ll_get_prev(&cont->child_ll, child_rc); /*Go to the next object*/
 616:lvgl/src/lv_widgets/lv_cont.c ****         child_rc = child_rs;
 617:lvgl/src/lv_widgets/lv_cont.c ****     }
 618:lvgl/src/lv_widgets/lv_cont.c ****     lv_obj_clear_protect(cont, LV_PROTECT_CHILD_CHG);
 619:lvgl/src/lv_widgets/lv_cont.c **** }
 620:lvgl/src/lv_widgets/lv_cont.c **** 
 621:lvgl/src/lv_widgets/lv_cont.c **** /**
 622:lvgl/src/lv_widgets/lv_cont.c ****  * Handle the grid layout. Align same-sized objects in a grid
 623:lvgl/src/lv_widgets/lv_cont.c ****  * @param cont pointer to an object which layout should be handled
 624:lvgl/src/lv_widgets/lv_cont.c ****  */
 625:lvgl/src/lv_widgets/lv_cont.c **** static void lv_cont_layout_grid(lv_obj_t * cont)
 626:lvgl/src/lv_widgets/lv_cont.c **** {
 303              		.loc 1 626 1 is_stmt 1 view -0
 304              		.cfi_startproc
 305              		@ args = 0, pretend = 0, frame = 8
 306              		@ frame_needed = 0, uses_anonymous_args = 0
 307              		.loc 1 626 1 is_stmt 0 view .LVU75
 308 0000 2DE9F04F 		push	{r4, r5, r6, r7, r8, r9, r10, fp, lr}
 309              	.LCFI4:
 310              		.cfi_def_cfa_offset 36
 311              		.cfi_offset 4, -36
 312              		.cfi_offset 5, -32
 313              		.cfi_offset 6, -28
 314              		.cfi_offset 7, -24
ARM GAS  D:\Temp\cchslsHM.s 			page 20


 315              		.cfi_offset 8, -20
 316              		.cfi_offset 9, -16
 317              		.cfi_offset 10, -12
 318              		.cfi_offset 11, -8
 319              		.cfi_offset 14, -4
 320 0004 83B0     		sub	sp, sp, #12
 321              	.LCFI5:
 322              		.cfi_def_cfa_offset 48
 323 0006 0446     		mov	r4, r0
 324 0008 0190     		str	r0, [sp, #4]
 627:lvgl/src/lv_widgets/lv_cont.c ****     lv_coord_t w_fit         =  lv_obj_get_width_fit(cont);
 325              		.loc 1 627 5 is_stmt 1 view .LVU76
 326              		.loc 1 627 33 is_stmt 0 view .LVU77
 327 000a FFF7FEFF 		bl	lv_obj_get_width_fit
 328              	.LVL45:
 329              		.loc 1 627 33 view .LVU78
 330 000e 8346     		mov	fp, r0
 331              	.LVL46:
 628:lvgl/src/lv_widgets/lv_cont.c ****     lv_coord_t inner = lv_obj_get_style_pad_inner(cont, LV_CONT_PART_MAIN);
 332              		.loc 1 628 5 is_stmt 1 view .LVU79
 333              	.LBB121:
 334              	.LBI121:
 335              		.loc 2 114 1 view .LVU80
 336              	.LBB122:
 337              		.loc 2 114 1 view .LVU81
 338 0010 1422     		movs	r2, #20
 339 0012 0021     		movs	r1, #0
 340 0014 2046     		mov	r0, r4
 341 0016 FFF7FEFF 		bl	_lv_obj_get_style_int
 342              	.LVL47:
 343 001a 8146     		mov	r9, r0
 344              	.LVL48:
 345              		.loc 2 114 1 is_stmt 0 view .LVU82
 346              	.LBE122:
 347              	.LBE121:
 629:lvgl/src/lv_widgets/lv_cont.c ****     lv_coord_t y_ofs = inner + lv_obj_get_height(lv_obj_get_child(cont, NULL));
 348              		.loc 1 629 5 is_stmt 1 view .LVU83
 349              		.loc 1 629 50 is_stmt 0 view .LVU84
 350 001c 0021     		movs	r1, #0
 351 001e 2046     		mov	r0, r4
 352 0020 FFF7FEFF 		bl	lv_obj_get_child
 353              	.LVL49:
 354              		.loc 1 629 32 view .LVU85
 355 0024 FFF7FEFF 		bl	lv_obj_get_height
 356              	.LVL50:
 357              		.loc 1 629 30 view .LVU86
 358 0028 1FFA89F9 		uxth	r9, r9
 359              		.loc 1 629 30 view .LVU87
 360 002c 19FA80F0 		uxtah	r0, r9, r0
 361 0030 87B2     		uxth	r7, r0
 362              	.LVL51:
 630:lvgl/src/lv_widgets/lv_cont.c **** 
 631:lvgl/src/lv_widgets/lv_cont.c ****     /* Disable child change action because the children will be moved a lot
 632:lvgl/src/lv_widgets/lv_cont.c ****      * an unnecessary child change signals could be sent*/
 633:lvgl/src/lv_widgets/lv_cont.c ****     lv_obj_add_protect(cont, LV_PROTECT_CHILD_CHG);
 363              		.loc 1 633 5 is_stmt 1 view .LVU88
 364 0032 0121     		movs	r1, #1
ARM GAS  D:\Temp\cchslsHM.s 			page 21


 365 0034 2046     		mov	r0, r4
 366 0036 FFF7FEFF 		bl	lv_obj_add_protect
 367              	.LVL52:
 634:lvgl/src/lv_widgets/lv_cont.c **** 
 635:lvgl/src/lv_widgets/lv_cont.c ****     /* Align the children */
 636:lvgl/src/lv_widgets/lv_cont.c ****     lv_coord_t left = lv_obj_get_style_pad_left(cont, LV_CONT_PART_MAIN);
 368              		.loc 1 636 5 view .LVU89
 369              	.LBB123:
 370              	.LBI123:
 112:lvgl/src/lv_widgets/../lv_core/lv_obj_style_dec.h **** _LV_OBJ_STYLE_SET_GET_DECLARE(PAD_RIGHT, pad_right, lv_style_int_t, _int, scalar)
 371              		.loc 2 112 1 view .LVU90
 372              	.LBB124:
 112:lvgl/src/lv_widgets/../lv_core/lv_obj_style_dec.h **** _LV_OBJ_STYLE_SET_GET_DECLARE(PAD_RIGHT, pad_right, lv_style_int_t, _int, scalar)
 373              		.loc 2 112 1 view .LVU91
 374 003a 1222     		movs	r2, #18
 375 003c 0021     		movs	r1, #0
 376 003e 2046     		mov	r0, r4
 377 0040 FFF7FEFF 		bl	_lv_obj_get_style_int
 378              	.LVL53:
 379 0044 8246     		mov	r10, r0
 380              	.LVL54:
 112:lvgl/src/lv_widgets/../lv_core/lv_obj_style_dec.h **** _LV_OBJ_STYLE_SET_GET_DECLARE(PAD_RIGHT, pad_right, lv_style_int_t, _int, scalar)
 381              		.loc 2 112 1 is_stmt 0 view .LVU92
 382              	.LBE124:
 383              	.LBE123:
 637:lvgl/src/lv_widgets/lv_cont.c ****     lv_coord_t act_x = left;
 384              		.loc 1 637 5 is_stmt 1 view .LVU93
 638:lvgl/src/lv_widgets/lv_cont.c ****     lv_coord_t act_y = lv_obj_get_style_pad_top(cont, LV_CONT_PART_MAIN);
 385              		.loc 1 638 5 view .LVU94
 386              	.LBB125:
 387              	.LBI125:
 110:lvgl/src/lv_widgets/../lv_core/lv_obj_style_dec.h **** _LV_OBJ_STYLE_SET_GET_DECLARE(PAD_BOTTOM, pad_bottom, lv_style_int_t, _int, scalar)
 388              		.loc 2 110 1 view .LVU95
 389              	.LBB126:
 110:lvgl/src/lv_widgets/../lv_core/lv_obj_style_dec.h **** _LV_OBJ_STYLE_SET_GET_DECLARE(PAD_BOTTOM, pad_bottom, lv_style_int_t, _int, scalar)
 390              		.loc 2 110 1 view .LVU96
 391 0046 1022     		movs	r2, #16
 392 0048 0021     		movs	r1, #0
 393 004a 2046     		mov	r0, r4
 394 004c FFF7FEFF 		bl	_lv_obj_get_style_int
 395              	.LVL55:
 396 0050 8046     		mov	r8, r0
 397              	.LVL56:
 110:lvgl/src/lv_widgets/../lv_core/lv_obj_style_dec.h **** _LV_OBJ_STYLE_SET_GET_DECLARE(PAD_BOTTOM, pad_bottom, lv_style_int_t, _int, scalar)
 398              		.loc 2 110 1 is_stmt 0 view .LVU97
 399              	.LBE126:
 400              	.LBE125:
 639:lvgl/src/lv_widgets/lv_cont.c ****     lv_obj_t * child;
 401              		.loc 1 639 5 is_stmt 1 view .LVU98
 640:lvgl/src/lv_widgets/lv_cont.c ****     _LV_LL_READ_BACK(cont->child_ll, child) {
 402              		.loc 1 640 5 view .LVU99
 403 0052 2346     		mov	r3, r4
 404 0054 0433     		adds	r3, r3, #4
 405 0056 0093     		str	r3, [sp]
 406 0058 1846     		mov	r0, r3
 407 005a FFF7FEFF 		bl	_lv_ll_get_tail
 408              	.LVL57:
ARM GAS  D:\Temp\cchslsHM.s 			page 22


 409 005e 0446     		mov	r4, r0
 410              	.LVL58:
 637:lvgl/src/lv_widgets/lv_cont.c ****     lv_coord_t act_y = lv_obj_get_style_pad_top(cont, LV_CONT_PART_MAIN);
 411              		.loc 1 637 16 is_stmt 0 view .LVU100
 412 0060 5546     		mov	r5, r10
 413              		.loc 1 640 5 view .LVU101
 414 0062 0DE0     		b	.L21
 415              	.LVL59:
 416              	.L25:
 417              	.LBB127:
 641:lvgl/src/lv_widgets/lv_cont.c ****         if(lv_obj_get_hidden(child) != false || lv_obj_is_protected(child, LV_PROTECT_POS) != false
 642:lvgl/src/lv_widgets/lv_cont.c ****         lv_coord_t obj_w = lv_obj_get_width(child);
 643:lvgl/src/lv_widgets/lv_cont.c ****         if(act_x + obj_w > w_fit + left) {
 644:lvgl/src/lv_widgets/lv_cont.c ****             act_x = left;
 645:lvgl/src/lv_widgets/lv_cont.c ****             act_y += y_ofs;
 646:lvgl/src/lv_widgets/lv_cont.c ****         }
 647:lvgl/src/lv_widgets/lv_cont.c **** 
 648:lvgl/src/lv_widgets/lv_cont.c ****         lv_obj_set_pos(child, act_x, act_y);
 418              		.loc 1 648 9 is_stmt 1 view .LVU102
 419 0064 4246     		mov	r2, r8
 420 0066 2946     		mov	r1, r5
 421 0068 2046     		mov	r0, r4
 422              	.LVL60:
 423              		.loc 1 648 9 is_stmt 0 view .LVU103
 424 006a FFF7FEFF 		bl	lv_obj_set_pos
 425              	.LVL61:
 649:lvgl/src/lv_widgets/lv_cont.c ****         act_x += inner + obj_w;
 426              		.loc 1 649 9 is_stmt 1 view .LVU104
 427              		.loc 1 649 24 is_stmt 0 view .LVU105
 428 006e 4E44     		add	r6, r6, r9
 429              		.loc 1 649 15 view .LVU106
 430 0070 15FA86F6 		uxtah	r6, r5, r6
 431 0074 35B2     		sxth	r5, r6
 432              	.LVL62:
 433              	.L24:
 434              		.loc 1 649 15 view .LVU107
 435              	.LBE127:
 640:lvgl/src/lv_widgets/lv_cont.c ****         if(lv_obj_get_hidden(child) != false || lv_obj_is_protected(child, LV_PROTECT_POS) != false
 436              		.loc 1 640 5 discriminator 2 view .LVU108
 437 0076 2146     		mov	r1, r4
 438 0078 0098     		ldr	r0, [sp]
 439 007a FFF7FEFF 		bl	_lv_ll_get_prev
 440              	.LVL63:
 441 007e 0446     		mov	r4, r0
 442              	.LVL64:
 443              	.L21:
 640:lvgl/src/lv_widgets/lv_cont.c ****         if(lv_obj_get_hidden(child) != false || lv_obj_is_protected(child, LV_PROTECT_POS) != false
 444              		.loc 1 640 5 discriminator 1 view .LVU109
 445 0080 C4B1     		cbz	r4, .L28
 446              	.LBB128:
 641:lvgl/src/lv_widgets/lv_cont.c ****         if(lv_obj_get_hidden(child) != false || lv_obj_is_protected(child, LV_PROTECT_POS) != false
 447              		.loc 1 641 9 is_stmt 1 view .LVU110
 641:lvgl/src/lv_widgets/lv_cont.c ****         if(lv_obj_get_hidden(child) != false || lv_obj_is_protected(child, LV_PROTECT_POS) != false
 448              		.loc 1 641 12 is_stmt 0 view .LVU111
 449 0082 2046     		mov	r0, r4
 641:lvgl/src/lv_widgets/lv_cont.c ****         if(lv_obj_get_hidden(child) != false || lv_obj_is_protected(child, LV_PROTECT_POS) != false
 450              		.loc 1 641 12 view .LVU112
ARM GAS  D:\Temp\cchslsHM.s 			page 23


 451 0084 FFF7FEFF 		bl	lv_obj_get_hidden
 452              	.LVL65:
 641:lvgl/src/lv_widgets/lv_cont.c ****         if(lv_obj_get_hidden(child) != false || lv_obj_is_protected(child, LV_PROTECT_POS) != false
 453              		.loc 1 641 11 view .LVU113
 454 0088 0028     		cmp	r0, #0
 455 008a F4D1     		bne	.L24
 641:lvgl/src/lv_widgets/lv_cont.c ****         if(lv_obj_get_hidden(child) != false || lv_obj_is_protected(child, LV_PROTECT_POS) != false
 456              		.loc 1 641 49 discriminator 2 view .LVU114
 457 008c 0421     		movs	r1, #4
 458 008e 2046     		mov	r0, r4
 459 0090 FFF7FEFF 		bl	lv_obj_is_protected
 460              	.LVL66:
 641:lvgl/src/lv_widgets/lv_cont.c ****         if(lv_obj_get_hidden(child) != false || lv_obj_is_protected(child, LV_PROTECT_POS) != false
 461              		.loc 1 641 46 discriminator 2 view .LVU115
 462 0094 0028     		cmp	r0, #0
 463 0096 EED1     		bne	.L24
 642:lvgl/src/lv_widgets/lv_cont.c ****         if(act_x + obj_w > w_fit + left) {
 464              		.loc 1 642 9 is_stmt 1 view .LVU116
 642:lvgl/src/lv_widgets/lv_cont.c ****         if(act_x + obj_w > w_fit + left) {
 465              		.loc 1 642 28 is_stmt 0 view .LVU117
 466 0098 2046     		mov	r0, r4
 467 009a FFF7FEFF 		bl	lv_obj_get_width
 468              	.LVL67:
 469 009e 0646     		mov	r6, r0
 470              	.LVL68:
 643:lvgl/src/lv_widgets/lv_cont.c ****             act_x = left;
 471              		.loc 1 643 9 is_stmt 1 view .LVU118
 643:lvgl/src/lv_widgets/lv_cont.c ****             act_x = left;
 472              		.loc 1 643 18 is_stmt 0 view .LVU119
 473 00a0 2A18     		adds	r2, r5, r0
 643:lvgl/src/lv_widgets/lv_cont.c ****             act_x = left;
 474              		.loc 1 643 34 view .LVU120
 475 00a2 0BEB0A03 		add	r3, fp, r10
 643:lvgl/src/lv_widgets/lv_cont.c ****             act_x = left;
 476              		.loc 1 643 11 view .LVU121
 477 00a6 9A42     		cmp	r2, r3
 478 00a8 DCDD     		ble	.L25
 644:lvgl/src/lv_widgets/lv_cont.c ****             act_y += y_ofs;
 479              		.loc 1 644 13 is_stmt 1 view .LVU122
 480              	.LVL69:
 645:lvgl/src/lv_widgets/lv_cont.c ****         }
 481              		.loc 1 645 13 view .LVU123
 645:lvgl/src/lv_widgets/lv_cont.c ****         }
 482              		.loc 1 645 19 is_stmt 0 view .LVU124
 483 00aa B844     		add	r8, r8, r7
 484              	.LVL70:
 645:lvgl/src/lv_widgets/lv_cont.c ****         }
 485              		.loc 1 645 19 view .LVU125
 486 00ac 0FFA88F8 		sxth	r8, r8
 487              	.LVL71:
 644:lvgl/src/lv_widgets/lv_cont.c ****             act_y += y_ofs;
 488              		.loc 1 644 19 view .LVU126
 489 00b0 5546     		mov	r5, r10
 490 00b2 D7E7     		b	.L25
 491              	.LVL72:
 492              	.L28:
 644:lvgl/src/lv_widgets/lv_cont.c ****             act_y += y_ofs;
ARM GAS  D:\Temp\cchslsHM.s 			page 24


 493              		.loc 1 644 19 view .LVU127
 494              	.LBE128:
 650:lvgl/src/lv_widgets/lv_cont.c ****     }
 651:lvgl/src/lv_widgets/lv_cont.c **** 
 652:lvgl/src/lv_widgets/lv_cont.c ****     lv_obj_clear_protect(cont, LV_PROTECT_CHILD_CHG);
 495              		.loc 1 652 5 is_stmt 1 view .LVU128
 496 00b4 0121     		movs	r1, #1
 497 00b6 0198     		ldr	r0, [sp, #4]
 498              	.LVL73:
 499              		.loc 1 652 5 is_stmt 0 view .LVU129
 500 00b8 FFF7FEFF 		bl	lv_obj_clear_protect
 501              	.LVL74:
 653:lvgl/src/lv_widgets/lv_cont.c **** }
 502              		.loc 1 653 1 view .LVU130
 503 00bc 03B0     		add	sp, sp, #12
 504              	.LCFI6:
 505              		.cfi_def_cfa_offset 36
 506              		@ sp needed
 507 00be BDE8F08F 		pop	{r4, r5, r6, r7, r8, r9, r10, fp, pc}
 508              		.loc 1 653 1 view .LVU131
 509              		.cfi_endproc
 510              	.LFE475:
 512              		.section	.text.lv_cont_refr_autofit,"ax",%progbits
 513              		.align	1
 514              		.syntax unified
 515              		.thumb
 516              		.thumb_func
 517              		.fpu fpv4-sp-d16
 519              	lv_cont_refr_autofit:
 520              	.LVL75:
 521              	.LFB476:
 654:lvgl/src/lv_widgets/lv_cont.c **** 
 655:lvgl/src/lv_widgets/lv_cont.c **** /**
 656:lvgl/src/lv_widgets/lv_cont.c ****  * Handle auto fit. Set the size of the object to involve all children.
 657:lvgl/src/lv_widgets/lv_cont.c ****  * @param cont pointer to an object which size will be modified
 658:lvgl/src/lv_widgets/lv_cont.c ****  */
 659:lvgl/src/lv_widgets/lv_cont.c **** static void lv_cont_refr_autofit(lv_obj_t * cont)
 660:lvgl/src/lv_widgets/lv_cont.c **** {
 522              		.loc 1 660 1 is_stmt 1 view -0
 523              		.cfi_startproc
 524              		@ args = 0, pretend = 0, frame = 32
 525              		@ frame_needed = 0, uses_anonymous_args = 0
 526              		.loc 1 660 1 is_stmt 0 view .LVU133
 527 0000 2DE9F043 		push	{r4, r5, r6, r7, r8, r9, lr}
 528              	.LCFI7:
 529              		.cfi_def_cfa_offset 28
 530              		.cfi_offset 4, -28
 531              		.cfi_offset 5, -24
 532              		.cfi_offset 6, -20
 533              		.cfi_offset 7, -16
 534              		.cfi_offset 8, -12
 535              		.cfi_offset 9, -8
 536              		.cfi_offset 14, -4
 537 0004 89B0     		sub	sp, sp, #36
 538              	.LCFI8:
 539              		.cfi_def_cfa_offset 64
 540 0006 0446     		mov	r4, r0
ARM GAS  D:\Temp\cchslsHM.s 			page 25


 661:lvgl/src/lv_widgets/lv_cont.c ****     if(lv_obj_is_protected(cont, LV_PROTECT_CHILD_CHG)) return;
 541              		.loc 1 661 5 is_stmt 1 view .LVU134
 542              		.loc 1 661 8 is_stmt 0 view .LVU135
 543 0008 0121     		movs	r1, #1
 544 000a FFF7FEFF 		bl	lv_obj_is_protected
 545              	.LVL76:
 546              		.loc 1 661 7 view .LVU136
 547 000e 10B1     		cbz	r0, .L72
 548              	.LVL77:
 549              	.L29:
 662:lvgl/src/lv_widgets/lv_cont.c ****     lv_cont_ext_t * ext = lv_obj_get_ext_attr(cont);
 663:lvgl/src/lv_widgets/lv_cont.c **** 
 664:lvgl/src/lv_widgets/lv_cont.c ****     if(ext->fit_left == LV_FIT_NONE && ext->fit_right == LV_FIT_NONE && ext->fit_top == LV_FIT_NONE
 665:lvgl/src/lv_widgets/lv_cont.c ****        ext->fit_bottom == LV_FIT_NONE) {
 666:lvgl/src/lv_widgets/lv_cont.c ****         return;
 667:lvgl/src/lv_widgets/lv_cont.c ****     }
 668:lvgl/src/lv_widgets/lv_cont.c **** 
 669:lvgl/src/lv_widgets/lv_cont.c ****     static int recursion_level = 0;
 670:lvgl/src/lv_widgets/lv_cont.c ****     recursion_level++;
 671:lvgl/src/lv_widgets/lv_cont.c ****     /*Ensure it won't keep recursing forever*/
 672:lvgl/src/lv_widgets/lv_cont.c ****     if(recursion_level <= LV_LAYOUT_MAX_RECURSION) {
 673:lvgl/src/lv_widgets/lv_cont.c ****         lv_area_t tight_area;
 674:lvgl/src/lv_widgets/lv_cont.c ****         lv_area_t ori;
 675:lvgl/src/lv_widgets/lv_cont.c ****         lv_obj_t * child_i;
 676:lvgl/src/lv_widgets/lv_cont.c **** 
 677:lvgl/src/lv_widgets/lv_cont.c ****         lv_obj_t * par               = lv_obj_get_parent(cont);
 678:lvgl/src/lv_widgets/lv_cont.c ****         lv_area_t parent_area;
 679:lvgl/src/lv_widgets/lv_cont.c ****         lv_area_copy(&parent_area, &par->coords);
 680:lvgl/src/lv_widgets/lv_cont.c ****         parent_area.x1 += lv_obj_get_style_pad_left(par, LV_OBJ_PART_MAIN);
 681:lvgl/src/lv_widgets/lv_cont.c ****         parent_area.x2 -= lv_obj_get_style_pad_right(par, LV_OBJ_PART_MAIN);
 682:lvgl/src/lv_widgets/lv_cont.c ****         parent_area.y1 += lv_obj_get_style_pad_top(par, LV_OBJ_PART_MAIN);
 683:lvgl/src/lv_widgets/lv_cont.c ****         parent_area.y2 -= lv_obj_get_style_pad_bottom(par, LV_OBJ_PART_MAIN);
 684:lvgl/src/lv_widgets/lv_cont.c **** 
 685:lvgl/src/lv_widgets/lv_cont.c ****         /*Search the side coordinates of the children*/
 686:lvgl/src/lv_widgets/lv_cont.c ****         lv_obj_get_coords(cont, &ori);
 687:lvgl/src/lv_widgets/lv_cont.c ****         lv_obj_get_coords(cont, &tight_area);
 688:lvgl/src/lv_widgets/lv_cont.c **** 
 689:lvgl/src/lv_widgets/lv_cont.c ****         bool has_children = _lv_ll_is_empty(&cont->child_ll) ? false : true;
 690:lvgl/src/lv_widgets/lv_cont.c **** 
 691:lvgl/src/lv_widgets/lv_cont.c ****         if(has_children) {
 692:lvgl/src/lv_widgets/lv_cont.c ****             tight_area.x1 = LV_COORD_MAX;
 693:lvgl/src/lv_widgets/lv_cont.c ****             tight_area.y1 = LV_COORD_MAX;
 694:lvgl/src/lv_widgets/lv_cont.c ****             tight_area.x2 = LV_COORD_MIN;
 695:lvgl/src/lv_widgets/lv_cont.c ****             tight_area.y2 = LV_COORD_MIN;
 696:lvgl/src/lv_widgets/lv_cont.c **** 
 697:lvgl/src/lv_widgets/lv_cont.c ****             _LV_LL_READ(cont->child_ll, child_i) {
 698:lvgl/src/lv_widgets/lv_cont.c ****                 if(lv_obj_get_hidden(child_i) != false) continue;
 699:lvgl/src/lv_widgets/lv_cont.c **** 
 700:lvgl/src/lv_widgets/lv_cont.c ****                 if(ext->fit_left != LV_FIT_PARENT) {
 701:lvgl/src/lv_widgets/lv_cont.c ****                     lv_style_int_t mleft = lv_obj_get_style_margin_left(child_i, LV_OBJ_PART_MAIN);
 702:lvgl/src/lv_widgets/lv_cont.c ****                     tight_area.x1 = LV_MATH_MIN(tight_area.x1, child_i->coords.x1 - mleft);
 703:lvgl/src/lv_widgets/lv_cont.c ****                 }
 704:lvgl/src/lv_widgets/lv_cont.c **** 
 705:lvgl/src/lv_widgets/lv_cont.c ****                 if(ext->fit_right != LV_FIT_PARENT) {
 706:lvgl/src/lv_widgets/lv_cont.c ****                     lv_style_int_t mright = lv_obj_get_style_margin_right(child_i, LV_OBJ_PART_MAIN
 707:lvgl/src/lv_widgets/lv_cont.c ****                     tight_area.x2 = LV_MATH_MAX(tight_area.x2, child_i->coords.x2 + mright);
 708:lvgl/src/lv_widgets/lv_cont.c ****                 }
ARM GAS  D:\Temp\cchslsHM.s 			page 26


 709:lvgl/src/lv_widgets/lv_cont.c **** 
 710:lvgl/src/lv_widgets/lv_cont.c ****                 if(ext->fit_top != LV_FIT_PARENT) {
 711:lvgl/src/lv_widgets/lv_cont.c ****                     lv_style_int_t mtop = lv_obj_get_style_margin_top(child_i, LV_OBJ_PART_MAIN);
 712:lvgl/src/lv_widgets/lv_cont.c ****                     tight_area.y1 = LV_MATH_MIN(tight_area.y1, child_i->coords.y1 - mtop);
 713:lvgl/src/lv_widgets/lv_cont.c ****                 }
 714:lvgl/src/lv_widgets/lv_cont.c **** 
 715:lvgl/src/lv_widgets/lv_cont.c ****                 if(ext->fit_bottom != LV_FIT_PARENT) {
 716:lvgl/src/lv_widgets/lv_cont.c ****                     lv_style_int_t mbottom = lv_obj_get_style_margin_bottom(child_i, LV_OBJ_PART_MA
 717:lvgl/src/lv_widgets/lv_cont.c ****                     tight_area.y2 = LV_MATH_MAX(tight_area.y2, child_i->coords.y2 + mbottom);
 718:lvgl/src/lv_widgets/lv_cont.c ****                 }
 719:lvgl/src/lv_widgets/lv_cont.c ****             }
 720:lvgl/src/lv_widgets/lv_cont.c **** 
 721:lvgl/src/lv_widgets/lv_cont.c ****             tight_area.x1 -= lv_obj_get_style_pad_left(cont, LV_CONT_PART_MAIN);
 722:lvgl/src/lv_widgets/lv_cont.c ****             tight_area.x2 += lv_obj_get_style_pad_right(cont, LV_CONT_PART_MAIN);
 723:lvgl/src/lv_widgets/lv_cont.c ****             tight_area.y1 -= lv_obj_get_style_pad_top(cont, LV_CONT_PART_MAIN);
 724:lvgl/src/lv_widgets/lv_cont.c ****             tight_area.y2 += lv_obj_get_style_pad_bottom(cont, LV_CONT_PART_MAIN);
 725:lvgl/src/lv_widgets/lv_cont.c ****         }
 726:lvgl/src/lv_widgets/lv_cont.c **** 
 727:lvgl/src/lv_widgets/lv_cont.c ****         lv_area_t new_area;
 728:lvgl/src/lv_widgets/lv_cont.c ****         lv_area_copy(&new_area, &ori);
 729:lvgl/src/lv_widgets/lv_cont.c **** 
 730:lvgl/src/lv_widgets/lv_cont.c ****         switch(ext->fit_left) {
 731:lvgl/src/lv_widgets/lv_cont.c ****             case LV_FIT_TIGHT:
 732:lvgl/src/lv_widgets/lv_cont.c ****                 new_area.x1 = tight_area.x1;
 733:lvgl/src/lv_widgets/lv_cont.c ****                 break;
 734:lvgl/src/lv_widgets/lv_cont.c ****             case LV_FIT_PARENT:
 735:lvgl/src/lv_widgets/lv_cont.c ****                 new_area.x1 = parent_area.x1;
 736:lvgl/src/lv_widgets/lv_cont.c ****                 break;
 737:lvgl/src/lv_widgets/lv_cont.c ****             case LV_FIT_MAX:
 738:lvgl/src/lv_widgets/lv_cont.c ****                 new_area.x1 = has_children ? LV_MATH_MIN(tight_area.x1, parent_area.x1) : parent_ar
 739:lvgl/src/lv_widgets/lv_cont.c ****                 break;
 740:lvgl/src/lv_widgets/lv_cont.c ****             default:
 741:lvgl/src/lv_widgets/lv_cont.c ****                 break;
 742:lvgl/src/lv_widgets/lv_cont.c ****         }
 743:lvgl/src/lv_widgets/lv_cont.c **** 
 744:lvgl/src/lv_widgets/lv_cont.c ****         switch(ext->fit_right) {
 745:lvgl/src/lv_widgets/lv_cont.c ****             case LV_FIT_TIGHT:
 746:lvgl/src/lv_widgets/lv_cont.c ****                 new_area.x2 = tight_area.x2;
 747:lvgl/src/lv_widgets/lv_cont.c ****                 break;
 748:lvgl/src/lv_widgets/lv_cont.c ****             case LV_FIT_PARENT:
 749:lvgl/src/lv_widgets/lv_cont.c ****                 new_area.x2 = parent_area.x2;
 750:lvgl/src/lv_widgets/lv_cont.c ****                 break;
 751:lvgl/src/lv_widgets/lv_cont.c ****             case LV_FIT_MAX:
 752:lvgl/src/lv_widgets/lv_cont.c ****                 new_area.x2 = has_children ? LV_MATH_MAX(tight_area.x2, parent_area.x2) : parent_ar
 753:lvgl/src/lv_widgets/lv_cont.c ****                 break;
 754:lvgl/src/lv_widgets/lv_cont.c ****             default:
 755:lvgl/src/lv_widgets/lv_cont.c ****                 break;
 756:lvgl/src/lv_widgets/lv_cont.c ****         }
 757:lvgl/src/lv_widgets/lv_cont.c **** 
 758:lvgl/src/lv_widgets/lv_cont.c ****         switch(ext->fit_top) {
 759:lvgl/src/lv_widgets/lv_cont.c ****             case LV_FIT_TIGHT:
 760:lvgl/src/lv_widgets/lv_cont.c ****                 new_area.y1 = tight_area.y1;
 761:lvgl/src/lv_widgets/lv_cont.c ****                 break;
 762:lvgl/src/lv_widgets/lv_cont.c ****             case LV_FIT_PARENT:
 763:lvgl/src/lv_widgets/lv_cont.c ****                 new_area.y1 = parent_area.y1;
 764:lvgl/src/lv_widgets/lv_cont.c ****                 break;
 765:lvgl/src/lv_widgets/lv_cont.c ****             case LV_FIT_MAX:
ARM GAS  D:\Temp\cchslsHM.s 			page 27


 766:lvgl/src/lv_widgets/lv_cont.c ****                 new_area.y1 = has_children ? LV_MATH_MIN(tight_area.y1, parent_area.y1) : parent_ar
 767:lvgl/src/lv_widgets/lv_cont.c ****                 break;
 768:lvgl/src/lv_widgets/lv_cont.c ****             default:
 769:lvgl/src/lv_widgets/lv_cont.c ****                 break;
 770:lvgl/src/lv_widgets/lv_cont.c ****         }
 771:lvgl/src/lv_widgets/lv_cont.c **** 
 772:lvgl/src/lv_widgets/lv_cont.c ****         switch(ext->fit_bottom) {
 773:lvgl/src/lv_widgets/lv_cont.c ****             case LV_FIT_TIGHT:
 774:lvgl/src/lv_widgets/lv_cont.c ****                 new_area.y2 = tight_area.y2;
 775:lvgl/src/lv_widgets/lv_cont.c ****                 break;
 776:lvgl/src/lv_widgets/lv_cont.c ****             case LV_FIT_PARENT:
 777:lvgl/src/lv_widgets/lv_cont.c ****                 new_area.y2 = parent_area.y2;
 778:lvgl/src/lv_widgets/lv_cont.c ****                 break;
 779:lvgl/src/lv_widgets/lv_cont.c ****             case LV_FIT_MAX:
 780:lvgl/src/lv_widgets/lv_cont.c ****                 new_area.y2 = has_children ? LV_MATH_MAX(tight_area.y2, parent_area.y2) : parent_ar
 781:lvgl/src/lv_widgets/lv_cont.c ****                 break;
 782:lvgl/src/lv_widgets/lv_cont.c ****             default:
 783:lvgl/src/lv_widgets/lv_cont.c ****                 break;
 784:lvgl/src/lv_widgets/lv_cont.c ****         }
 785:lvgl/src/lv_widgets/lv_cont.c **** 
 786:lvgl/src/lv_widgets/lv_cont.c ****         /*Do nothing if the coordinates are not changed*/
 787:lvgl/src/lv_widgets/lv_cont.c ****         if(cont->coords.x1 != new_area.x1 || cont->coords.y1 != new_area.y1 || cont->coords.x2 != n
 788:lvgl/src/lv_widgets/lv_cont.c ****            cont->coords.y2 != new_area.y2) {
 789:lvgl/src/lv_widgets/lv_cont.c **** 
 790:lvgl/src/lv_widgets/lv_cont.c ****             lv_obj_invalidate(cont);
 791:lvgl/src/lv_widgets/lv_cont.c ****             lv_area_copy(&cont->coords, &new_area);
 792:lvgl/src/lv_widgets/lv_cont.c ****             lv_obj_invalidate(cont);
 793:lvgl/src/lv_widgets/lv_cont.c **** 
 794:lvgl/src/lv_widgets/lv_cont.c ****             /*Notify the object about its new coordinates*/
 795:lvgl/src/lv_widgets/lv_cont.c ****             cont->signal_cb(cont, LV_SIGNAL_COORD_CHG, &ori);
 796:lvgl/src/lv_widgets/lv_cont.c **** 
 797:lvgl/src/lv_widgets/lv_cont.c ****             /*Inform the parent about the new coordinates*/
 798:lvgl/src/lv_widgets/lv_cont.c ****             par->signal_cb(par, LV_SIGNAL_CHILD_CHG, cont);
 799:lvgl/src/lv_widgets/lv_cont.c **** 
 800:lvgl/src/lv_widgets/lv_cont.c ****             if(lv_obj_get_auto_realign(cont)) {
 801:lvgl/src/lv_widgets/lv_cont.c ****                 lv_obj_realign(cont);
 802:lvgl/src/lv_widgets/lv_cont.c ****             }
 803:lvgl/src/lv_widgets/lv_cont.c **** 
 804:lvgl/src/lv_widgets/lv_cont.c ****             /*Tell the children the parent's size has changed*/
 805:lvgl/src/lv_widgets/lv_cont.c ****             _LV_LL_READ(cont->child_ll, child_i) {
 806:lvgl/src/lv_widgets/lv_cont.c ****                 child_i->signal_cb(child_i, LV_SIGNAL_PARENT_SIZE_CHG, &ori);
 807:lvgl/src/lv_widgets/lv_cont.c ****             }
 808:lvgl/src/lv_widgets/lv_cont.c ****         }
 809:lvgl/src/lv_widgets/lv_cont.c ****     }
 810:lvgl/src/lv_widgets/lv_cont.c ****     else {
 811:lvgl/src/lv_widgets/lv_cont.c ****         LV_LOG_ERROR("LV_LAYOUT_MAX_RECURSION reached! You may have encountered issue #1539.");
 812:lvgl/src/lv_widgets/lv_cont.c ****     }
 813:lvgl/src/lv_widgets/lv_cont.c **** 
 814:lvgl/src/lv_widgets/lv_cont.c ****     recursion_level--;
 815:lvgl/src/lv_widgets/lv_cont.c **** }
 550              		.loc 1 815 1 view .LVU137
 551 0010 09B0     		add	sp, sp, #36
 552              	.LCFI9:
 553              		.cfi_remember_state
 554              		.cfi_def_cfa_offset 28
 555              		@ sp needed
 556 0012 BDE8F083 		pop	{r4, r5, r6, r7, r8, r9, pc}
ARM GAS  D:\Temp\cchslsHM.s 			page 28


 557              	.LVL78:
 558              	.L72:
 559              	.LCFI10:
 560              		.cfi_restore_state
 662:lvgl/src/lv_widgets/lv_cont.c ****     lv_cont_ext_t * ext = lv_obj_get_ext_attr(cont);
 561              		.loc 1 662 5 is_stmt 1 view .LVU138
 662:lvgl/src/lv_widgets/lv_cont.c ****     lv_cont_ext_t * ext = lv_obj_get_ext_attr(cont);
 562              		.loc 1 662 27 is_stmt 0 view .LVU139
 563 0016 2046     		mov	r0, r4
 564 0018 FFF7FEFF 		bl	lv_obj_get_ext_attr
 565              	.LVL79:
 566 001c 0546     		mov	r5, r0
 567              	.LVL80:
 664:lvgl/src/lv_widgets/lv_cont.c ****        ext->fit_bottom == LV_FIT_NONE) {
 568              		.loc 1 664 5 is_stmt 1 view .LVU140
 664:lvgl/src/lv_widgets/lv_cont.c ****        ext->fit_bottom == LV_FIT_NONE) {
 569              		.loc 1 664 37 is_stmt 0 view .LVU141
 570 001e 0378     		ldrb	r3, [r0]	@ zero_extendqisi2
 664:lvgl/src/lv_widgets/lv_cont.c ****        ext->fit_bottom == LV_FIT_NONE) {
 571              		.loc 1 664 7 view .LVU142
 572 0020 13F0F00F 		tst	r3, #240
 573 0024 03D1     		bne	.L31
 664:lvgl/src/lv_widgets/lv_cont.c ****        ext->fit_bottom == LV_FIT_NONE) {
 574              		.loc 1 664 101 discriminator 1 view .LVU143
 575 0026 4378     		ldrb	r3, [r0, #1]	@ zero_extendqisi2
 576 0028 13F00F0F 		tst	r3, #15
 577 002c F0D0     		beq	.L29
 578              	.L31:
 669:lvgl/src/lv_widgets/lv_cont.c ****     recursion_level++;
 579              		.loc 1 669 5 is_stmt 1 view .LVU144
 670:lvgl/src/lv_widgets/lv_cont.c ****     /*Ensure it won't keep recursing forever*/
 580              		.loc 1 670 5 view .LVU145
 670:lvgl/src/lv_widgets/lv_cont.c ****     /*Ensure it won't keep recursing forever*/
 581              		.loc 1 670 20 is_stmt 0 view .LVU146
 582 002e CF4A     		ldr	r2, .L85
 583 0030 1368     		ldr	r3, [r2]
 584 0032 0133     		adds	r3, r3, #1
 585 0034 1360     		str	r3, [r2]
 672:lvgl/src/lv_widgets/lv_cont.c ****         lv_area_t tight_area;
 586              		.loc 1 672 5 is_stmt 1 view .LVU147
 672:lvgl/src/lv_widgets/lv_cont.c ****         lv_area_t tight_area;
 587              		.loc 1 672 7 is_stmt 0 view .LVU148
 588 0036 0A2B     		cmp	r3, #10
 589 0038 04DD     		ble	.L73
 590              	.LVL81:
 591              	.L32:
 811:lvgl/src/lv_widgets/lv_cont.c ****     }
 592              		.loc 1 811 95 is_stmt 1 view .LVU149
 814:lvgl/src/lv_widgets/lv_cont.c **** }
 593              		.loc 1 814 5 view .LVU150
 814:lvgl/src/lv_widgets/lv_cont.c **** }
 594              		.loc 1 814 20 is_stmt 0 view .LVU151
 595 003a CC4A     		ldr	r2, .L85
 596 003c 1368     		ldr	r3, [r2]
 597 003e 013B     		subs	r3, r3, #1
 598 0040 1360     		str	r3, [r2]
 599 0042 E5E7     		b	.L29
ARM GAS  D:\Temp\cchslsHM.s 			page 29


 600              	.LVL82:
 601              	.L73:
 602              	.LBB129:
 673:lvgl/src/lv_widgets/lv_cont.c ****         lv_area_t ori;
 603              		.loc 1 673 9 is_stmt 1 view .LVU152
 674:lvgl/src/lv_widgets/lv_cont.c ****         lv_obj_t * child_i;
 604              		.loc 1 674 9 view .LVU153
 675:lvgl/src/lv_widgets/lv_cont.c **** 
 605              		.loc 1 675 9 view .LVU154
 677:lvgl/src/lv_widgets/lv_cont.c ****         lv_area_t parent_area;
 606              		.loc 1 677 9 view .LVU155
 677:lvgl/src/lv_widgets/lv_cont.c ****         lv_area_t parent_area;
 607              		.loc 1 677 40 is_stmt 0 view .LVU156
 608 0044 2046     		mov	r0, r4
 609              	.LVL83:
 677:lvgl/src/lv_widgets/lv_cont.c ****         lv_area_t parent_area;
 610              		.loc 1 677 40 view .LVU157
 611 0046 FFF7FEFF 		bl	lv_obj_get_parent
 612              	.LVL84:
 613 004a 8046     		mov	r8, r0
 614              	.LVL85:
 678:lvgl/src/lv_widgets/lv_cont.c ****         lv_area_copy(&parent_area, &par->coords);
 615              		.loc 1 678 9 is_stmt 1 view .LVU158
 679:lvgl/src/lv_widgets/lv_cont.c ****         parent_area.x1 += lv_obj_get_style_pad_left(par, LV_OBJ_PART_MAIN);
 616              		.loc 1 679 9 view .LVU159
 679:lvgl/src/lv_widgets/lv_cont.c ****         parent_area.x1 += lv_obj_get_style_pad_left(par, LV_OBJ_PART_MAIN);
 617              		.loc 1 679 36 is_stmt 0 view .LVU160
 618 004c 00F11001 		add	r1, r0, #16
 619              	.LVL86:
 620              	.LBB130:
 621              	.LBI130:
 622              		.file 3 "d:\\_project\\stm32\\f407\\hack_rf_new\\lvgl\\src\\lv_misc\\lv_area.h"
   1:d:\_project\stm32\f407\hack_rf_new\lvgl\src\lv_misc\lv_area.h **** /**
   2:d:\_project\stm32\f407\hack_rf_new\lvgl\src\lv_misc\lv_area.h ****  * @file lv_area.h
   3:d:\_project\stm32\f407\hack_rf_new\lvgl\src\lv_misc\lv_area.h ****  *
   4:d:\_project\stm32\f407\hack_rf_new\lvgl\src\lv_misc\lv_area.h ****  */
   5:d:\_project\stm32\f407\hack_rf_new\lvgl\src\lv_misc\lv_area.h **** 
   6:d:\_project\stm32\f407\hack_rf_new\lvgl\src\lv_misc\lv_area.h **** #ifndef LV_AREA_H
   7:d:\_project\stm32\f407\hack_rf_new\lvgl\src\lv_misc\lv_area.h **** #define LV_AREA_H
   8:d:\_project\stm32\f407\hack_rf_new\lvgl\src\lv_misc\lv_area.h **** 
   9:d:\_project\stm32\f407\hack_rf_new\lvgl\src\lv_misc\lv_area.h **** #ifdef __cplusplus
  10:d:\_project\stm32\f407\hack_rf_new\lvgl\src\lv_misc\lv_area.h **** extern "C" {
  11:d:\_project\stm32\f407\hack_rf_new\lvgl\src\lv_misc\lv_area.h **** #endif
  12:d:\_project\stm32\f407\hack_rf_new\lvgl\src\lv_misc\lv_area.h **** 
  13:d:\_project\stm32\f407\hack_rf_new\lvgl\src\lv_misc\lv_area.h **** /*********************
  14:d:\_project\stm32\f407\hack_rf_new\lvgl\src\lv_misc\lv_area.h ****  *      INCLUDES
  15:d:\_project\stm32\f407\hack_rf_new\lvgl\src\lv_misc\lv_area.h ****  *********************/
  16:d:\_project\stm32\f407\hack_rf_new\lvgl\src\lv_misc\lv_area.h **** #include "../lv_conf_internal.h"
  17:d:\_project\stm32\f407\hack_rf_new\lvgl\src\lv_misc\lv_area.h **** #include <string.h>
  18:d:\_project\stm32\f407\hack_rf_new\lvgl\src\lv_misc\lv_area.h **** #include <stdbool.h>
  19:d:\_project\stm32\f407\hack_rf_new\lvgl\src\lv_misc\lv_area.h **** #include <stdint.h>
  20:d:\_project\stm32\f407\hack_rf_new\lvgl\src\lv_misc\lv_area.h **** #include "lv_mem.h"
  21:d:\_project\stm32\f407\hack_rf_new\lvgl\src\lv_misc\lv_area.h **** 
  22:d:\_project\stm32\f407\hack_rf_new\lvgl\src\lv_misc\lv_area.h **** /*********************
  23:d:\_project\stm32\f407\hack_rf_new\lvgl\src\lv_misc\lv_area.h ****  *      DEFINES
  24:d:\_project\stm32\f407\hack_rf_new\lvgl\src\lv_misc\lv_area.h ****  *********************/
  25:d:\_project\stm32\f407\hack_rf_new\lvgl\src\lv_misc\lv_area.h **** /*To avoid overflow don't let the max ranges (reduce with 1000) */
ARM GAS  D:\Temp\cchslsHM.s 			page 30


  26:d:\_project\stm32\f407\hack_rf_new\lvgl\src\lv_misc\lv_area.h **** #define LV_COORD_MAX ((lv_coord_t)((uint32_t)((uint32_t)1 << (8 * sizeof(lv_coord_t) - 1)) - 1000))
  27:d:\_project\stm32\f407\hack_rf_new\lvgl\src\lv_misc\lv_area.h **** #define LV_COORD_MIN (-LV_COORD_MAX)
  28:d:\_project\stm32\f407\hack_rf_new\lvgl\src\lv_misc\lv_area.h **** 
  29:d:\_project\stm32\f407\hack_rf_new\lvgl\src\lv_misc\lv_area.h **** LV_EXPORT_CONST_INT(LV_COORD_MAX);
  30:d:\_project\stm32\f407\hack_rf_new\lvgl\src\lv_misc\lv_area.h **** LV_EXPORT_CONST_INT(LV_COORD_MIN);
  31:d:\_project\stm32\f407\hack_rf_new\lvgl\src\lv_misc\lv_area.h **** 
  32:d:\_project\stm32\f407\hack_rf_new\lvgl\src\lv_misc\lv_area.h **** /**********************
  33:d:\_project\stm32\f407\hack_rf_new\lvgl\src\lv_misc\lv_area.h ****  *      TYPEDEFS
  34:d:\_project\stm32\f407\hack_rf_new\lvgl\src\lv_misc\lv_area.h ****  **********************/
  35:d:\_project\stm32\f407\hack_rf_new\lvgl\src\lv_misc\lv_area.h **** 
  36:d:\_project\stm32\f407\hack_rf_new\lvgl\src\lv_misc\lv_area.h **** /**
  37:d:\_project\stm32\f407\hack_rf_new\lvgl\src\lv_misc\lv_area.h ****  * Represents a point on the screen.
  38:d:\_project\stm32\f407\hack_rf_new\lvgl\src\lv_misc\lv_area.h ****  */
  39:d:\_project\stm32\f407\hack_rf_new\lvgl\src\lv_misc\lv_area.h **** typedef struct {
  40:d:\_project\stm32\f407\hack_rf_new\lvgl\src\lv_misc\lv_area.h ****     lv_coord_t x;
  41:d:\_project\stm32\f407\hack_rf_new\lvgl\src\lv_misc\lv_area.h ****     lv_coord_t y;
  42:d:\_project\stm32\f407\hack_rf_new\lvgl\src\lv_misc\lv_area.h **** } lv_point_t;
  43:d:\_project\stm32\f407\hack_rf_new\lvgl\src\lv_misc\lv_area.h **** 
  44:d:\_project\stm32\f407\hack_rf_new\lvgl\src\lv_misc\lv_area.h **** /** Represents an area of the screen. */
  45:d:\_project\stm32\f407\hack_rf_new\lvgl\src\lv_misc\lv_area.h **** typedef struct {
  46:d:\_project\stm32\f407\hack_rf_new\lvgl\src\lv_misc\lv_area.h ****     lv_coord_t x1;
  47:d:\_project\stm32\f407\hack_rf_new\lvgl\src\lv_misc\lv_area.h ****     lv_coord_t y1;
  48:d:\_project\stm32\f407\hack_rf_new\lvgl\src\lv_misc\lv_area.h ****     lv_coord_t x2;
  49:d:\_project\stm32\f407\hack_rf_new\lvgl\src\lv_misc\lv_area.h ****     lv_coord_t y2;
  50:d:\_project\stm32\f407\hack_rf_new\lvgl\src\lv_misc\lv_area.h **** } lv_area_t;
  51:d:\_project\stm32\f407\hack_rf_new\lvgl\src\lv_misc\lv_area.h **** 
  52:d:\_project\stm32\f407\hack_rf_new\lvgl\src\lv_misc\lv_area.h **** /** Alignments */
  53:d:\_project\stm32\f407\hack_rf_new\lvgl\src\lv_misc\lv_area.h **** enum {
  54:d:\_project\stm32\f407\hack_rf_new\lvgl\src\lv_misc\lv_area.h ****     LV_ALIGN_CENTER = 0,
  55:d:\_project\stm32\f407\hack_rf_new\lvgl\src\lv_misc\lv_area.h ****     LV_ALIGN_IN_TOP_LEFT,
  56:d:\_project\stm32\f407\hack_rf_new\lvgl\src\lv_misc\lv_area.h ****     LV_ALIGN_IN_TOP_MID,
  57:d:\_project\stm32\f407\hack_rf_new\lvgl\src\lv_misc\lv_area.h ****     LV_ALIGN_IN_TOP_RIGHT,
  58:d:\_project\stm32\f407\hack_rf_new\lvgl\src\lv_misc\lv_area.h ****     LV_ALIGN_IN_BOTTOM_LEFT,
  59:d:\_project\stm32\f407\hack_rf_new\lvgl\src\lv_misc\lv_area.h ****     LV_ALIGN_IN_BOTTOM_MID,
  60:d:\_project\stm32\f407\hack_rf_new\lvgl\src\lv_misc\lv_area.h ****     LV_ALIGN_IN_BOTTOM_RIGHT,
  61:d:\_project\stm32\f407\hack_rf_new\lvgl\src\lv_misc\lv_area.h ****     LV_ALIGN_IN_LEFT_MID,
  62:d:\_project\stm32\f407\hack_rf_new\lvgl\src\lv_misc\lv_area.h ****     LV_ALIGN_IN_RIGHT_MID,
  63:d:\_project\stm32\f407\hack_rf_new\lvgl\src\lv_misc\lv_area.h ****     LV_ALIGN_OUT_TOP_LEFT,
  64:d:\_project\stm32\f407\hack_rf_new\lvgl\src\lv_misc\lv_area.h ****     LV_ALIGN_OUT_TOP_MID,
  65:d:\_project\stm32\f407\hack_rf_new\lvgl\src\lv_misc\lv_area.h ****     LV_ALIGN_OUT_TOP_RIGHT,
  66:d:\_project\stm32\f407\hack_rf_new\lvgl\src\lv_misc\lv_area.h ****     LV_ALIGN_OUT_BOTTOM_LEFT,
  67:d:\_project\stm32\f407\hack_rf_new\lvgl\src\lv_misc\lv_area.h ****     LV_ALIGN_OUT_BOTTOM_MID,
  68:d:\_project\stm32\f407\hack_rf_new\lvgl\src\lv_misc\lv_area.h ****     LV_ALIGN_OUT_BOTTOM_RIGHT,
  69:d:\_project\stm32\f407\hack_rf_new\lvgl\src\lv_misc\lv_area.h ****     LV_ALIGN_OUT_LEFT_TOP,
  70:d:\_project\stm32\f407\hack_rf_new\lvgl\src\lv_misc\lv_area.h ****     LV_ALIGN_OUT_LEFT_MID,
  71:d:\_project\stm32\f407\hack_rf_new\lvgl\src\lv_misc\lv_area.h ****     LV_ALIGN_OUT_LEFT_BOTTOM,
  72:d:\_project\stm32\f407\hack_rf_new\lvgl\src\lv_misc\lv_area.h ****     LV_ALIGN_OUT_RIGHT_TOP,
  73:d:\_project\stm32\f407\hack_rf_new\lvgl\src\lv_misc\lv_area.h ****     LV_ALIGN_OUT_RIGHT_MID,
  74:d:\_project\stm32\f407\hack_rf_new\lvgl\src\lv_misc\lv_area.h ****     LV_ALIGN_OUT_RIGHT_BOTTOM,
  75:d:\_project\stm32\f407\hack_rf_new\lvgl\src\lv_misc\lv_area.h **** };
  76:d:\_project\stm32\f407\hack_rf_new\lvgl\src\lv_misc\lv_area.h **** typedef uint8_t lv_align_t;
  77:d:\_project\stm32\f407\hack_rf_new\lvgl\src\lv_misc\lv_area.h **** 
  78:d:\_project\stm32\f407\hack_rf_new\lvgl\src\lv_misc\lv_area.h **** /**********************
  79:d:\_project\stm32\f407\hack_rf_new\lvgl\src\lv_misc\lv_area.h ****  * GLOBAL PROTOTYPES
  80:d:\_project\stm32\f407\hack_rf_new\lvgl\src\lv_misc\lv_area.h ****  **********************/
  81:d:\_project\stm32\f407\hack_rf_new\lvgl\src\lv_misc\lv_area.h **** 
  82:d:\_project\stm32\f407\hack_rf_new\lvgl\src\lv_misc\lv_area.h **** /**
ARM GAS  D:\Temp\cchslsHM.s 			page 31


  83:d:\_project\stm32\f407\hack_rf_new\lvgl\src\lv_misc\lv_area.h ****  * Initialize an area
  84:d:\_project\stm32\f407\hack_rf_new\lvgl\src\lv_misc\lv_area.h ****  * @param area_p pointer to an area
  85:d:\_project\stm32\f407\hack_rf_new\lvgl\src\lv_misc\lv_area.h ****  * @param x1 left coordinate of the area
  86:d:\_project\stm32\f407\hack_rf_new\lvgl\src\lv_misc\lv_area.h ****  * @param y1 top coordinate of the area
  87:d:\_project\stm32\f407\hack_rf_new\lvgl\src\lv_misc\lv_area.h ****  * @param x2 right coordinate of the area
  88:d:\_project\stm32\f407\hack_rf_new\lvgl\src\lv_misc\lv_area.h ****  * @param y2 bottom coordinate of the area
  89:d:\_project\stm32\f407\hack_rf_new\lvgl\src\lv_misc\lv_area.h ****  */
  90:d:\_project\stm32\f407\hack_rf_new\lvgl\src\lv_misc\lv_area.h **** void lv_area_set(lv_area_t * area_p, lv_coord_t x1, lv_coord_t y1, lv_coord_t x2, lv_coord_t y2);
  91:d:\_project\stm32\f407\hack_rf_new\lvgl\src\lv_misc\lv_area.h **** 
  92:d:\_project\stm32\f407\hack_rf_new\lvgl\src\lv_misc\lv_area.h **** /**
  93:d:\_project\stm32\f407\hack_rf_new\lvgl\src\lv_misc\lv_area.h ****  * Copy an area
  94:d:\_project\stm32\f407\hack_rf_new\lvgl\src\lv_misc\lv_area.h ****  * @param dest pointer to the destination area
  95:d:\_project\stm32\f407\hack_rf_new\lvgl\src\lv_misc\lv_area.h ****  * @param src pointer to the source area
  96:d:\_project\stm32\f407\hack_rf_new\lvgl\src\lv_misc\lv_area.h ****  */
  97:d:\_project\stm32\f407\hack_rf_new\lvgl\src\lv_misc\lv_area.h **** inline static void lv_area_copy(lv_area_t * dest, const lv_area_t * src)
 623              		.loc 3 97 20 is_stmt 1 view .LVU161
 624              	.LBE130:
 625              	.LBE129:
  98:d:\_project\stm32\f407\hack_rf_new\lvgl\src\lv_misc\lv_area.h **** {
  99:d:\_project\stm32\f407\hack_rf_new\lvgl\src\lv_misc\lv_area.h ****     _lv_memcpy_small(dest, src, sizeof(lv_area_t));
 626              		.loc 3 99 5 view .LVU162
 627              	.LBB181:
 628              	.LBB135:
 629              	.LBB131:
 630              	.LBI131:
 631              		.file 4 "d:\\_project\\stm32\\f407\\hack_rf_new\\lvgl\\src\\lv_misc\\lv_mem.h"
   1:d:\_project\stm32\f407\hack_rf_new\lvgl\src\lv_misc\lv_mem.h **** /**
   2:d:\_project\stm32\f407\hack_rf_new\lvgl\src\lv_misc\lv_mem.h ****  * @file lv_mem.h
   3:d:\_project\stm32\f407\hack_rf_new\lvgl\src\lv_misc\lv_mem.h ****  *
   4:d:\_project\stm32\f407\hack_rf_new\lvgl\src\lv_misc\lv_mem.h ****  */
   5:d:\_project\stm32\f407\hack_rf_new\lvgl\src\lv_misc\lv_mem.h **** 
   6:d:\_project\stm32\f407\hack_rf_new\lvgl\src\lv_misc\lv_mem.h **** #ifndef LV_MEM_H
   7:d:\_project\stm32\f407\hack_rf_new\lvgl\src\lv_misc\lv_mem.h **** #define LV_MEM_H
   8:d:\_project\stm32\f407\hack_rf_new\lvgl\src\lv_misc\lv_mem.h **** 
   9:d:\_project\stm32\f407\hack_rf_new\lvgl\src\lv_misc\lv_mem.h **** #ifdef __cplusplus
  10:d:\_project\stm32\f407\hack_rf_new\lvgl\src\lv_misc\lv_mem.h **** extern "C" {
  11:d:\_project\stm32\f407\hack_rf_new\lvgl\src\lv_misc\lv_mem.h **** #endif
  12:d:\_project\stm32\f407\hack_rf_new\lvgl\src\lv_misc\lv_mem.h **** 
  13:d:\_project\stm32\f407\hack_rf_new\lvgl\src\lv_misc\lv_mem.h **** /*********************
  14:d:\_project\stm32\f407\hack_rf_new\lvgl\src\lv_misc\lv_mem.h ****  *      INCLUDES
  15:d:\_project\stm32\f407\hack_rf_new\lvgl\src\lv_misc\lv_mem.h ****  *********************/
  16:d:\_project\stm32\f407\hack_rf_new\lvgl\src\lv_misc\lv_mem.h **** #include "../lv_conf_internal.h"
  17:d:\_project\stm32\f407\hack_rf_new\lvgl\src\lv_misc\lv_mem.h **** 
  18:d:\_project\stm32\f407\hack_rf_new\lvgl\src\lv_misc\lv_mem.h **** #include <stdint.h>
  19:d:\_project\stm32\f407\hack_rf_new\lvgl\src\lv_misc\lv_mem.h **** #include <stddef.h>
  20:d:\_project\stm32\f407\hack_rf_new\lvgl\src\lv_misc\lv_mem.h **** #include "lv_log.h"
  21:d:\_project\stm32\f407\hack_rf_new\lvgl\src\lv_misc\lv_mem.h **** #include "lv_types.h"
  22:d:\_project\stm32\f407\hack_rf_new\lvgl\src\lv_misc\lv_mem.h **** 
  23:d:\_project\stm32\f407\hack_rf_new\lvgl\src\lv_misc\lv_mem.h **** #if LV_MEMCPY_MEMSET_STD
  24:d:\_project\stm32\f407\hack_rf_new\lvgl\src\lv_misc\lv_mem.h **** #include <string.h>
  25:d:\_project\stm32\f407\hack_rf_new\lvgl\src\lv_misc\lv_mem.h **** #endif
  26:d:\_project\stm32\f407\hack_rf_new\lvgl\src\lv_misc\lv_mem.h **** 
  27:d:\_project\stm32\f407\hack_rf_new\lvgl\src\lv_misc\lv_mem.h **** /*********************
  28:d:\_project\stm32\f407\hack_rf_new\lvgl\src\lv_misc\lv_mem.h ****  *      DEFINES
  29:d:\_project\stm32\f407\hack_rf_new\lvgl\src\lv_misc\lv_mem.h ****  *********************/
  30:d:\_project\stm32\f407\hack_rf_new\lvgl\src\lv_misc\lv_mem.h **** 
  31:d:\_project\stm32\f407\hack_rf_new\lvgl\src\lv_misc\lv_mem.h **** #ifndef LV_MEM_BUF_MAX_NUM
ARM GAS  D:\Temp\cchslsHM.s 			page 32


  32:d:\_project\stm32\f407\hack_rf_new\lvgl\src\lv_misc\lv_mem.h **** #define LV_MEM_BUF_MAX_NUM    16
  33:d:\_project\stm32\f407\hack_rf_new\lvgl\src\lv_misc\lv_mem.h **** #endif
  34:d:\_project\stm32\f407\hack_rf_new\lvgl\src\lv_misc\lv_mem.h **** 
  35:d:\_project\stm32\f407\hack_rf_new\lvgl\src\lv_misc\lv_mem.h **** /**********************
  36:d:\_project\stm32\f407\hack_rf_new\lvgl\src\lv_misc\lv_mem.h ****  *      TYPEDEFS
  37:d:\_project\stm32\f407\hack_rf_new\lvgl\src\lv_misc\lv_mem.h ****  **********************/
  38:d:\_project\stm32\f407\hack_rf_new\lvgl\src\lv_misc\lv_mem.h **** 
  39:d:\_project\stm32\f407\hack_rf_new\lvgl\src\lv_misc\lv_mem.h **** /**
  40:d:\_project\stm32\f407\hack_rf_new\lvgl\src\lv_misc\lv_mem.h ****  * Heap information structure.
  41:d:\_project\stm32\f407\hack_rf_new\lvgl\src\lv_misc\lv_mem.h ****  */
  42:d:\_project\stm32\f407\hack_rf_new\lvgl\src\lv_misc\lv_mem.h **** typedef struct {
  43:d:\_project\stm32\f407\hack_rf_new\lvgl\src\lv_misc\lv_mem.h ****     uint32_t total_size; /**< Total heap size */
  44:d:\_project\stm32\f407\hack_rf_new\lvgl\src\lv_misc\lv_mem.h ****     uint32_t free_cnt;
  45:d:\_project\stm32\f407\hack_rf_new\lvgl\src\lv_misc\lv_mem.h ****     uint32_t free_size; /**< Size of available memory */
  46:d:\_project\stm32\f407\hack_rf_new\lvgl\src\lv_misc\lv_mem.h ****     uint32_t free_biggest_size;
  47:d:\_project\stm32\f407\hack_rf_new\lvgl\src\lv_misc\lv_mem.h ****     uint32_t used_cnt;
  48:d:\_project\stm32\f407\hack_rf_new\lvgl\src\lv_misc\lv_mem.h ****     uint32_t max_used; /**< Max size of Heap memory used */
  49:d:\_project\stm32\f407\hack_rf_new\lvgl\src\lv_misc\lv_mem.h ****     uint8_t used_pct; /**< Percentage used */
  50:d:\_project\stm32\f407\hack_rf_new\lvgl\src\lv_misc\lv_mem.h ****     uint8_t frag_pct; /**< Amount of fragmentation */
  51:d:\_project\stm32\f407\hack_rf_new\lvgl\src\lv_misc\lv_mem.h **** } lv_mem_monitor_t;
  52:d:\_project\stm32\f407\hack_rf_new\lvgl\src\lv_misc\lv_mem.h **** 
  53:d:\_project\stm32\f407\hack_rf_new\lvgl\src\lv_misc\lv_mem.h **** typedef struct {
  54:d:\_project\stm32\f407\hack_rf_new\lvgl\src\lv_misc\lv_mem.h ****     void * p;
  55:d:\_project\stm32\f407\hack_rf_new\lvgl\src\lv_misc\lv_mem.h ****     uint16_t size;
  56:d:\_project\stm32\f407\hack_rf_new\lvgl\src\lv_misc\lv_mem.h ****     uint8_t used    : 1;
  57:d:\_project\stm32\f407\hack_rf_new\lvgl\src\lv_misc\lv_mem.h **** } lv_mem_buf_t;
  58:d:\_project\stm32\f407\hack_rf_new\lvgl\src\lv_misc\lv_mem.h **** 
  59:d:\_project\stm32\f407\hack_rf_new\lvgl\src\lv_misc\lv_mem.h **** typedef lv_mem_buf_t lv_mem_buf_arr_t[LV_MEM_BUF_MAX_NUM];
  60:d:\_project\stm32\f407\hack_rf_new\lvgl\src\lv_misc\lv_mem.h **** extern lv_mem_buf_arr_t _lv_mem_buf;
  61:d:\_project\stm32\f407\hack_rf_new\lvgl\src\lv_misc\lv_mem.h **** 
  62:d:\_project\stm32\f407\hack_rf_new\lvgl\src\lv_misc\lv_mem.h **** /**********************
  63:d:\_project\stm32\f407\hack_rf_new\lvgl\src\lv_misc\lv_mem.h ****  * GLOBAL PROTOTYPES
  64:d:\_project\stm32\f407\hack_rf_new\lvgl\src\lv_misc\lv_mem.h ****  **********************/
  65:d:\_project\stm32\f407\hack_rf_new\lvgl\src\lv_misc\lv_mem.h **** 
  66:d:\_project\stm32\f407\hack_rf_new\lvgl\src\lv_misc\lv_mem.h **** /**
  67:d:\_project\stm32\f407\hack_rf_new\lvgl\src\lv_misc\lv_mem.h ****  * Initialize the dyn_mem module (work memory and other variables)
  68:d:\_project\stm32\f407\hack_rf_new\lvgl\src\lv_misc\lv_mem.h ****  */
  69:d:\_project\stm32\f407\hack_rf_new\lvgl\src\lv_misc\lv_mem.h **** void _lv_mem_init(void);
  70:d:\_project\stm32\f407\hack_rf_new\lvgl\src\lv_misc\lv_mem.h **** 
  71:d:\_project\stm32\f407\hack_rf_new\lvgl\src\lv_misc\lv_mem.h **** /**
  72:d:\_project\stm32\f407\hack_rf_new\lvgl\src\lv_misc\lv_mem.h ****  * Clean up the memory buffer which frees all the allocated memories.
  73:d:\_project\stm32\f407\hack_rf_new\lvgl\src\lv_misc\lv_mem.h ****  * @note It work only if `LV_MEM_CUSTOM == 0`
  74:d:\_project\stm32\f407\hack_rf_new\lvgl\src\lv_misc\lv_mem.h ****  */
  75:d:\_project\stm32\f407\hack_rf_new\lvgl\src\lv_misc\lv_mem.h **** void _lv_mem_deinit(void);
  76:d:\_project\stm32\f407\hack_rf_new\lvgl\src\lv_misc\lv_mem.h **** 
  77:d:\_project\stm32\f407\hack_rf_new\lvgl\src\lv_misc\lv_mem.h **** /**
  78:d:\_project\stm32\f407\hack_rf_new\lvgl\src\lv_misc\lv_mem.h ****  * Allocate a memory dynamically
  79:d:\_project\stm32\f407\hack_rf_new\lvgl\src\lv_misc\lv_mem.h ****  * @param size size of the memory to allocate in bytes
  80:d:\_project\stm32\f407\hack_rf_new\lvgl\src\lv_misc\lv_mem.h ****  * @return pointer to the allocated memory
  81:d:\_project\stm32\f407\hack_rf_new\lvgl\src\lv_misc\lv_mem.h ****  */
  82:d:\_project\stm32\f407\hack_rf_new\lvgl\src\lv_misc\lv_mem.h **** void * lv_mem_alloc(size_t size);
  83:d:\_project\stm32\f407\hack_rf_new\lvgl\src\lv_misc\lv_mem.h **** 
  84:d:\_project\stm32\f407\hack_rf_new\lvgl\src\lv_misc\lv_mem.h **** /**
  85:d:\_project\stm32\f407\hack_rf_new\lvgl\src\lv_misc\lv_mem.h ****  * Free an allocated data
  86:d:\_project\stm32\f407\hack_rf_new\lvgl\src\lv_misc\lv_mem.h ****  * @param data pointer to an allocated memory
  87:d:\_project\stm32\f407\hack_rf_new\lvgl\src\lv_misc\lv_mem.h ****  */
  88:d:\_project\stm32\f407\hack_rf_new\lvgl\src\lv_misc\lv_mem.h **** void lv_mem_free(const void * data);
ARM GAS  D:\Temp\cchslsHM.s 			page 33


  89:d:\_project\stm32\f407\hack_rf_new\lvgl\src\lv_misc\lv_mem.h **** 
  90:d:\_project\stm32\f407\hack_rf_new\lvgl\src\lv_misc\lv_mem.h **** /**
  91:d:\_project\stm32\f407\hack_rf_new\lvgl\src\lv_misc\lv_mem.h ****  * Reallocate a memory with a new size. The old content will be kept.
  92:d:\_project\stm32\f407\hack_rf_new\lvgl\src\lv_misc\lv_mem.h ****  * @param data pointer to an allocated memory.
  93:d:\_project\stm32\f407\hack_rf_new\lvgl\src\lv_misc\lv_mem.h ****  * Its content will be copied to the new memory block and freed
  94:d:\_project\stm32\f407\hack_rf_new\lvgl\src\lv_misc\lv_mem.h ****  * @param new_size the desired new size in byte
  95:d:\_project\stm32\f407\hack_rf_new\lvgl\src\lv_misc\lv_mem.h ****  * @return pointer to the new memory
  96:d:\_project\stm32\f407\hack_rf_new\lvgl\src\lv_misc\lv_mem.h ****  */
  97:d:\_project\stm32\f407\hack_rf_new\lvgl\src\lv_misc\lv_mem.h **** void * lv_mem_realloc(void * data_p, size_t new_size);
  98:d:\_project\stm32\f407\hack_rf_new\lvgl\src\lv_misc\lv_mem.h **** 
  99:d:\_project\stm32\f407\hack_rf_new\lvgl\src\lv_misc\lv_mem.h **** /**
 100:d:\_project\stm32\f407\hack_rf_new\lvgl\src\lv_misc\lv_mem.h ****  * Join the adjacent free memory blocks
 101:d:\_project\stm32\f407\hack_rf_new\lvgl\src\lv_misc\lv_mem.h ****  */
 102:d:\_project\stm32\f407\hack_rf_new\lvgl\src\lv_misc\lv_mem.h **** void lv_mem_defrag(void);
 103:d:\_project\stm32\f407\hack_rf_new\lvgl\src\lv_misc\lv_mem.h **** 
 104:d:\_project\stm32\f407\hack_rf_new\lvgl\src\lv_misc\lv_mem.h **** /**
 105:d:\_project\stm32\f407\hack_rf_new\lvgl\src\lv_misc\lv_mem.h ****  *
 106:d:\_project\stm32\f407\hack_rf_new\lvgl\src\lv_misc\lv_mem.h ****  * @return
 107:d:\_project\stm32\f407\hack_rf_new\lvgl\src\lv_misc\lv_mem.h ****  */
 108:d:\_project\stm32\f407\hack_rf_new\lvgl\src\lv_misc\lv_mem.h **** lv_res_t lv_mem_test(void);
 109:d:\_project\stm32\f407\hack_rf_new\lvgl\src\lv_misc\lv_mem.h **** 
 110:d:\_project\stm32\f407\hack_rf_new\lvgl\src\lv_misc\lv_mem.h **** /**
 111:d:\_project\stm32\f407\hack_rf_new\lvgl\src\lv_misc\lv_mem.h ****  * Give information about the work memory of dynamic allocation
 112:d:\_project\stm32\f407\hack_rf_new\lvgl\src\lv_misc\lv_mem.h ****  * @param mon_p pointer to a dm_mon_p variable,
 113:d:\_project\stm32\f407\hack_rf_new\lvgl\src\lv_misc\lv_mem.h ****  *              the result of the analysis will be stored here
 114:d:\_project\stm32\f407\hack_rf_new\lvgl\src\lv_misc\lv_mem.h ****  */
 115:d:\_project\stm32\f407\hack_rf_new\lvgl\src\lv_misc\lv_mem.h **** void lv_mem_monitor(lv_mem_monitor_t * mon_p);
 116:d:\_project\stm32\f407\hack_rf_new\lvgl\src\lv_misc\lv_mem.h **** 
 117:d:\_project\stm32\f407\hack_rf_new\lvgl\src\lv_misc\lv_mem.h **** /**
 118:d:\_project\stm32\f407\hack_rf_new\lvgl\src\lv_misc\lv_mem.h ****  * Give the size of an allocated memory
 119:d:\_project\stm32\f407\hack_rf_new\lvgl\src\lv_misc\lv_mem.h ****  * @param data pointer to an allocated memory
 120:d:\_project\stm32\f407\hack_rf_new\lvgl\src\lv_misc\lv_mem.h ****  * @return the size of data memory in bytes
 121:d:\_project\stm32\f407\hack_rf_new\lvgl\src\lv_misc\lv_mem.h ****  */
 122:d:\_project\stm32\f407\hack_rf_new\lvgl\src\lv_misc\lv_mem.h **** uint32_t _lv_mem_get_size(const void * data);
 123:d:\_project\stm32\f407\hack_rf_new\lvgl\src\lv_misc\lv_mem.h **** 
 124:d:\_project\stm32\f407\hack_rf_new\lvgl\src\lv_misc\lv_mem.h **** /**
 125:d:\_project\stm32\f407\hack_rf_new\lvgl\src\lv_misc\lv_mem.h ****  * Get a temporal buffer with the given size.
 126:d:\_project\stm32\f407\hack_rf_new\lvgl\src\lv_misc\lv_mem.h ****  * @param size the required size
 127:d:\_project\stm32\f407\hack_rf_new\lvgl\src\lv_misc\lv_mem.h ****  */
 128:d:\_project\stm32\f407\hack_rf_new\lvgl\src\lv_misc\lv_mem.h **** void * _lv_mem_buf_get(uint32_t size);
 129:d:\_project\stm32\f407\hack_rf_new\lvgl\src\lv_misc\lv_mem.h **** 
 130:d:\_project\stm32\f407\hack_rf_new\lvgl\src\lv_misc\lv_mem.h **** /**
 131:d:\_project\stm32\f407\hack_rf_new\lvgl\src\lv_misc\lv_mem.h ****  * Release a memory buffer
 132:d:\_project\stm32\f407\hack_rf_new\lvgl\src\lv_misc\lv_mem.h ****  * @param p buffer to release
 133:d:\_project\stm32\f407\hack_rf_new\lvgl\src\lv_misc\lv_mem.h ****  */
 134:d:\_project\stm32\f407\hack_rf_new\lvgl\src\lv_misc\lv_mem.h **** void _lv_mem_buf_release(void * p);
 135:d:\_project\stm32\f407\hack_rf_new\lvgl\src\lv_misc\lv_mem.h **** 
 136:d:\_project\stm32\f407\hack_rf_new\lvgl\src\lv_misc\lv_mem.h **** /**
 137:d:\_project\stm32\f407\hack_rf_new\lvgl\src\lv_misc\lv_mem.h ****  * Free all memory buffers
 138:d:\_project\stm32\f407\hack_rf_new\lvgl\src\lv_misc\lv_mem.h ****  */
 139:d:\_project\stm32\f407\hack_rf_new\lvgl\src\lv_misc\lv_mem.h **** void _lv_mem_buf_free_all(void);
 140:d:\_project\stm32\f407\hack_rf_new\lvgl\src\lv_misc\lv_mem.h **** 
 141:d:\_project\stm32\f407\hack_rf_new\lvgl\src\lv_misc\lv_mem.h **** //! @cond Doxygen_Suppress
 142:d:\_project\stm32\f407\hack_rf_new\lvgl\src\lv_misc\lv_mem.h **** 
 143:d:\_project\stm32\f407\hack_rf_new\lvgl\src\lv_misc\lv_mem.h **** #if LV_MEMCPY_MEMSET_STD
 144:d:\_project\stm32\f407\hack_rf_new\lvgl\src\lv_misc\lv_mem.h **** 
 145:d:\_project\stm32\f407\hack_rf_new\lvgl\src\lv_misc\lv_mem.h **** /**
ARM GAS  D:\Temp\cchslsHM.s 			page 34


 146:d:\_project\stm32\f407\hack_rf_new\lvgl\src\lv_misc\lv_mem.h ****  * Wrapper for the standard memcpy
 147:d:\_project\stm32\f407\hack_rf_new\lvgl\src\lv_misc\lv_mem.h ****  * @param dst pointer to the destination buffer
 148:d:\_project\stm32\f407\hack_rf_new\lvgl\src\lv_misc\lv_mem.h ****  * @param src pointer to the source buffer
 149:d:\_project\stm32\f407\hack_rf_new\lvgl\src\lv_misc\lv_mem.h ****  * @param len number of byte to copy
 150:d:\_project\stm32\f407\hack_rf_new\lvgl\src\lv_misc\lv_mem.h ****  */
 151:d:\_project\stm32\f407\hack_rf_new\lvgl\src\lv_misc\lv_mem.h **** static inline void * _lv_memcpy(void * dst, const void * src, size_t len)
 152:d:\_project\stm32\f407\hack_rf_new\lvgl\src\lv_misc\lv_mem.h **** {
 153:d:\_project\stm32\f407\hack_rf_new\lvgl\src\lv_misc\lv_mem.h ****     return memcpy(dst, src, len);
 154:d:\_project\stm32\f407\hack_rf_new\lvgl\src\lv_misc\lv_mem.h **** }
 155:d:\_project\stm32\f407\hack_rf_new\lvgl\src\lv_misc\lv_mem.h **** 
 156:d:\_project\stm32\f407\hack_rf_new\lvgl\src\lv_misc\lv_mem.h **** /**
 157:d:\_project\stm32\f407\hack_rf_new\lvgl\src\lv_misc\lv_mem.h ****  * Wrapper for the standard memcpy
 158:d:\_project\stm32\f407\hack_rf_new\lvgl\src\lv_misc\lv_mem.h ****  * @param dst pointer to the destination buffer
 159:d:\_project\stm32\f407\hack_rf_new\lvgl\src\lv_misc\lv_mem.h ****  * @param src pointer to the source buffer
 160:d:\_project\stm32\f407\hack_rf_new\lvgl\src\lv_misc\lv_mem.h ****  * @param len number of byte to copy
 161:d:\_project\stm32\f407\hack_rf_new\lvgl\src\lv_misc\lv_mem.h ****  */
 162:d:\_project\stm32\f407\hack_rf_new\lvgl\src\lv_misc\lv_mem.h **** static inline void * _lv_memcpy_small(void * dst, const void * src, size_t len)
 163:d:\_project\stm32\f407\hack_rf_new\lvgl\src\lv_misc\lv_mem.h **** {
 164:d:\_project\stm32\f407\hack_rf_new\lvgl\src\lv_misc\lv_mem.h ****     return memcpy(dst, src, len);
 165:d:\_project\stm32\f407\hack_rf_new\lvgl\src\lv_misc\lv_mem.h **** }
 166:d:\_project\stm32\f407\hack_rf_new\lvgl\src\lv_misc\lv_mem.h **** 
 167:d:\_project\stm32\f407\hack_rf_new\lvgl\src\lv_misc\lv_mem.h **** /**
 168:d:\_project\stm32\f407\hack_rf_new\lvgl\src\lv_misc\lv_mem.h ****  * Wrapper for the standard memset
 169:d:\_project\stm32\f407\hack_rf_new\lvgl\src\lv_misc\lv_mem.h ****  * @param dst pointer to the destination buffer
 170:d:\_project\stm32\f407\hack_rf_new\lvgl\src\lv_misc\lv_mem.h ****  * @param v value to set [0..255]
 171:d:\_project\stm32\f407\hack_rf_new\lvgl\src\lv_misc\lv_mem.h ****  * @param len number of byte to set
 172:d:\_project\stm32\f407\hack_rf_new\lvgl\src\lv_misc\lv_mem.h ****  */
 173:d:\_project\stm32\f407\hack_rf_new\lvgl\src\lv_misc\lv_mem.h **** static inline void _lv_memset(void * dst, uint8_t v, size_t len)
 174:d:\_project\stm32\f407\hack_rf_new\lvgl\src\lv_misc\lv_mem.h **** {
 175:d:\_project\stm32\f407\hack_rf_new\lvgl\src\lv_misc\lv_mem.h ****     memset(dst, v, len);
 176:d:\_project\stm32\f407\hack_rf_new\lvgl\src\lv_misc\lv_mem.h **** }
 177:d:\_project\stm32\f407\hack_rf_new\lvgl\src\lv_misc\lv_mem.h **** 
 178:d:\_project\stm32\f407\hack_rf_new\lvgl\src\lv_misc\lv_mem.h **** /**
 179:d:\_project\stm32\f407\hack_rf_new\lvgl\src\lv_misc\lv_mem.h ****  * Wrapper for the standard memset with fixed 0x00 value
 180:d:\_project\stm32\f407\hack_rf_new\lvgl\src\lv_misc\lv_mem.h ****  * @param dst pointer to the destination buffer
 181:d:\_project\stm32\f407\hack_rf_new\lvgl\src\lv_misc\lv_mem.h ****  * @param len number of byte to set
 182:d:\_project\stm32\f407\hack_rf_new\lvgl\src\lv_misc\lv_mem.h ****  */
 183:d:\_project\stm32\f407\hack_rf_new\lvgl\src\lv_misc\lv_mem.h **** static inline void _lv_memset_00(void * dst, size_t len)
 184:d:\_project\stm32\f407\hack_rf_new\lvgl\src\lv_misc\lv_mem.h **** {
 185:d:\_project\stm32\f407\hack_rf_new\lvgl\src\lv_misc\lv_mem.h ****     memset(dst, 0x00, len);
 186:d:\_project\stm32\f407\hack_rf_new\lvgl\src\lv_misc\lv_mem.h **** }
 187:d:\_project\stm32\f407\hack_rf_new\lvgl\src\lv_misc\lv_mem.h **** 
 188:d:\_project\stm32\f407\hack_rf_new\lvgl\src\lv_misc\lv_mem.h **** /**
 189:d:\_project\stm32\f407\hack_rf_new\lvgl\src\lv_misc\lv_mem.h ****  * Wrapper for the standard memset with fixed 0xFF value
 190:d:\_project\stm32\f407\hack_rf_new\lvgl\src\lv_misc\lv_mem.h ****  * @param dst pointer to the destination buffer
 191:d:\_project\stm32\f407\hack_rf_new\lvgl\src\lv_misc\lv_mem.h ****  * @param len number of byte to set
 192:d:\_project\stm32\f407\hack_rf_new\lvgl\src\lv_misc\lv_mem.h ****  */
 193:d:\_project\stm32\f407\hack_rf_new\lvgl\src\lv_misc\lv_mem.h **** static inline void _lv_memset_ff(void * dst, size_t len)
 194:d:\_project\stm32\f407\hack_rf_new\lvgl\src\lv_misc\lv_mem.h **** {
 195:d:\_project\stm32\f407\hack_rf_new\lvgl\src\lv_misc\lv_mem.h ****     memset(dst, 0xFF, len);
 196:d:\_project\stm32\f407\hack_rf_new\lvgl\src\lv_misc\lv_mem.h **** }
 197:d:\_project\stm32\f407\hack_rf_new\lvgl\src\lv_misc\lv_mem.h **** 
 198:d:\_project\stm32\f407\hack_rf_new\lvgl\src\lv_misc\lv_mem.h **** #else
 199:d:\_project\stm32\f407\hack_rf_new\lvgl\src\lv_misc\lv_mem.h **** /**
 200:d:\_project\stm32\f407\hack_rf_new\lvgl\src\lv_misc\lv_mem.h ****  * Same as `memcpy` but optimized for 4 byte operation.
 201:d:\_project\stm32\f407\hack_rf_new\lvgl\src\lv_misc\lv_mem.h ****  * @param dst pointer to the destination buffer
 202:d:\_project\stm32\f407\hack_rf_new\lvgl\src\lv_misc\lv_mem.h ****  * @param src pointer to the source buffer
ARM GAS  D:\Temp\cchslsHM.s 			page 35


 203:d:\_project\stm32\f407\hack_rf_new\lvgl\src\lv_misc\lv_mem.h ****  * @param len number of byte to copy
 204:d:\_project\stm32\f407\hack_rf_new\lvgl\src\lv_misc\lv_mem.h ****  */
 205:d:\_project\stm32\f407\hack_rf_new\lvgl\src\lv_misc\lv_mem.h **** LV_ATTRIBUTE_FAST_MEM void * _lv_memcpy(void * dst, const void * src, size_t len);
 206:d:\_project\stm32\f407\hack_rf_new\lvgl\src\lv_misc\lv_mem.h **** 
 207:d:\_project\stm32\f407\hack_rf_new\lvgl\src\lv_misc\lv_mem.h **** /**
 208:d:\_project\stm32\f407\hack_rf_new\lvgl\src\lv_misc\lv_mem.h ****  * Same as `memcpy` but optimized to copy only a few bytes.
 209:d:\_project\stm32\f407\hack_rf_new\lvgl\src\lv_misc\lv_mem.h ****  * @param dst pointer to the destination buffer
 210:d:\_project\stm32\f407\hack_rf_new\lvgl\src\lv_misc\lv_mem.h ****  * @param src pointer to the source buffer
 211:d:\_project\stm32\f407\hack_rf_new\lvgl\src\lv_misc\lv_mem.h ****  * @param len number of byte to copy
 212:d:\_project\stm32\f407\hack_rf_new\lvgl\src\lv_misc\lv_mem.h ****  */
 213:d:\_project\stm32\f407\hack_rf_new\lvgl\src\lv_misc\lv_mem.h **** LV_ATTRIBUTE_FAST_MEM static inline void * _lv_memcpy_small(void * dst, const void * src, size_t le
 632              		.loc 4 213 44 view .LVU163
 633              	.LBB132:
 214:d:\_project\stm32\f407\hack_rf_new\lvgl\src\lv_misc\lv_mem.h **** {
 215:d:\_project\stm32\f407\hack_rf_new\lvgl\src\lv_misc\lv_mem.h ****     uint8_t * d8 = (uint8_t *)dst;
 634              		.loc 4 215 5 view .LVU164
 216:d:\_project\stm32\f407\hack_rf_new\lvgl\src\lv_misc\lv_mem.h ****     const uint8_t * s8 = (const uint8_t *)src;
 635              		.loc 4 216 5 view .LVU165
 217:d:\_project\stm32\f407\hack_rf_new\lvgl\src\lv_misc\lv_mem.h **** 
 218:d:\_project\stm32\f407\hack_rf_new\lvgl\src\lv_misc\lv_mem.h ****     while(len) {
 636              		.loc 4 218 5 view .LVU166
 215:d:\_project\stm32\f407\hack_rf_new\lvgl\src\lv_misc\lv_mem.h ****     const uint8_t * s8 = (const uint8_t *)src;
 637              		.loc 4 215 15 is_stmt 0 view .LVU167
 638 0050 04AA     		add	r2, sp, #16
 639              	.LVL87:
 215:d:\_project\stm32\f407\hack_rf_new\lvgl\src\lv_misc\lv_mem.h ****     const uint8_t * s8 = (const uint8_t *)src;
 640              		.loc 4 215 15 view .LVU168
 641              	.LBE132:
 642              	.LBE131:
 643              	.LBE135:
 679:lvgl/src/lv_widgets/lv_cont.c ****         parent_area.x1 += lv_obj_get_style_pad_left(par, LV_OBJ_PART_MAIN);
 644              		.loc 1 679 36 view .LVU169
 645 0052 0823     		movs	r3, #8
 646              	.LVL88:
 647              	.L33:
 648              	.LBB136:
 649              	.LBB134:
 650              	.LBB133:
 651              		.loc 4 218 10 view .LVU170
 652 0054 2BB1     		cbz	r3, .L74
 219:d:\_project\stm32\f407\hack_rf_new\lvgl\src\lv_misc\lv_mem.h ****         *d8 = *s8;
 653              		.loc 4 219 9 is_stmt 1 view .LVU171
 654              		.loc 4 219 15 is_stmt 0 view .LVU172
 655 0056 11F8010B 		ldrb	r0, [r1], #1	@ zero_extendqisi2
 656              	.LVL89:
 657              		.loc 4 219 13 view .LVU173
 658 005a 02F8010B 		strb	r0, [r2], #1
 659              	.LVL90:
 220:d:\_project\stm32\f407\hack_rf_new\lvgl\src\lv_misc\lv_mem.h ****         d8++;
 660              		.loc 4 220 9 is_stmt 1 view .LVU174
 221:d:\_project\stm32\f407\hack_rf_new\lvgl\src\lv_misc\lv_mem.h ****         s8++;
 661              		.loc 4 221 9 view .LVU175
 222:d:\_project\stm32\f407\hack_rf_new\lvgl\src\lv_misc\lv_mem.h ****         len--;
 662              		.loc 4 222 9 view .LVU176
 663              		.loc 4 222 12 is_stmt 0 view .LVU177
 664 005e 013B     		subs	r3, r3, #1
 665              	.LVL91:
ARM GAS  D:\Temp\cchslsHM.s 			page 36


 666              		.loc 4 222 12 view .LVU178
 667 0060 F8E7     		b	.L33
 668              	.L74:
 223:d:\_project\stm32\f407\hack_rf_new\lvgl\src\lv_misc\lv_mem.h ****     }
 224:d:\_project\stm32\f407\hack_rf_new\lvgl\src\lv_misc\lv_mem.h **** 
 225:d:\_project\stm32\f407\hack_rf_new\lvgl\src\lv_misc\lv_mem.h ****     return dst;
 669              		.loc 4 225 5 is_stmt 1 view .LVU179
 670              	.LVL92:
 671              		.loc 4 225 5 is_stmt 0 view .LVU180
 672              	.LBE133:
 673              	.LBE134:
 674              	.LBE136:
 680:lvgl/src/lv_widgets/lv_cont.c ****         parent_area.x2 -= lv_obj_get_style_pad_right(par, LV_OBJ_PART_MAIN);
 675              		.loc 1 680 9 is_stmt 1 view .LVU181
 676              	.LBB137:
 677              	.LBI137:
 112:lvgl/src/lv_widgets/../lv_core/lv_obj_style_dec.h **** _LV_OBJ_STYLE_SET_GET_DECLARE(PAD_RIGHT, pad_right, lv_style_int_t, _int, scalar)
 678              		.loc 2 112 1 view .LVU182
 679              	.LBB138:
 112:lvgl/src/lv_widgets/../lv_core/lv_obj_style_dec.h **** _LV_OBJ_STYLE_SET_GET_DECLARE(PAD_RIGHT, pad_right, lv_style_int_t, _int, scalar)
 680              		.loc 2 112 1 view .LVU183
 681 0062 1222     		movs	r2, #18
 682 0064 0021     		movs	r1, #0
 683 0066 4046     		mov	r0, r8
 684 0068 FFF7FEFF 		bl	_lv_obj_get_style_int
 685              	.LVL93:
 112:lvgl/src/lv_widgets/../lv_core/lv_obj_style_dec.h **** _LV_OBJ_STYLE_SET_GET_DECLARE(PAD_RIGHT, pad_right, lv_style_int_t, _int, scalar)
 686              		.loc 2 112 1 is_stmt 0 view .LVU184
 687              	.LBE138:
 688              	.LBE137:
 680:lvgl/src/lv_widgets/lv_cont.c ****         parent_area.x2 -= lv_obj_get_style_pad_right(par, LV_OBJ_PART_MAIN);
 689              		.loc 1 680 24 view .LVU185
 690 006c BDF81030 		ldrh	r3, [sp, #16]
 691 0070 13FA80F0 		uxtah	r0, r3, r0
 692 0074 ADF81000 		strh	r0, [sp, #16]	@ movhi
 681:lvgl/src/lv_widgets/lv_cont.c ****         parent_area.y1 += lv_obj_get_style_pad_top(par, LV_OBJ_PART_MAIN);
 693              		.loc 1 681 9 is_stmt 1 view .LVU186
 694              	.LVL94:
 695              	.LBB139:
 696              	.LBI139:
 113:lvgl/src/lv_widgets/../lv_core/lv_obj_style_dec.h **** _LV_OBJ_STYLE_SET_GET_DECLARE(PAD_INNER, pad_inner, lv_style_int_t, _int, scalar)
 697              		.loc 2 113 1 view .LVU187
 698              	.LBB140:
 113:lvgl/src/lv_widgets/../lv_core/lv_obj_style_dec.h **** _LV_OBJ_STYLE_SET_GET_DECLARE(PAD_INNER, pad_inner, lv_style_int_t, _int, scalar)
 699              		.loc 2 113 1 view .LVU188
 700 0078 1322     		movs	r2, #19
 701 007a 0021     		movs	r1, #0
 702 007c 4046     		mov	r0, r8
 703 007e FFF7FEFF 		bl	_lv_obj_get_style_int
 704              	.LVL95:
 113:lvgl/src/lv_widgets/../lv_core/lv_obj_style_dec.h **** _LV_OBJ_STYLE_SET_GET_DECLARE(PAD_INNER, pad_inner, lv_style_int_t, _int, scalar)
 705              		.loc 2 113 1 is_stmt 0 view .LVU189
 706              	.LBE140:
 707              	.LBE139:
 681:lvgl/src/lv_widgets/lv_cont.c ****         parent_area.y1 += lv_obj_get_style_pad_top(par, LV_OBJ_PART_MAIN);
 708              		.loc 1 681 27 view .LVU190
 709 0082 80B2     		uxth	r0, r0
ARM GAS  D:\Temp\cchslsHM.s 			page 37


 681:lvgl/src/lv_widgets/lv_cont.c ****         parent_area.y1 += lv_obj_get_style_pad_top(par, LV_OBJ_PART_MAIN);
 710              		.loc 1 681 24 view .LVU191
 711 0084 BDF81430 		ldrh	r3, [sp, #20]
 712 0088 1B1A     		subs	r3, r3, r0
 713 008a ADF81430 		strh	r3, [sp, #20]	@ movhi
 682:lvgl/src/lv_widgets/lv_cont.c ****         parent_area.y2 -= lv_obj_get_style_pad_bottom(par, LV_OBJ_PART_MAIN);
 714              		.loc 1 682 9 is_stmt 1 view .LVU192
 715              	.LVL96:
 716              	.LBB141:
 717              	.LBI141:
 110:lvgl/src/lv_widgets/../lv_core/lv_obj_style_dec.h **** _LV_OBJ_STYLE_SET_GET_DECLARE(PAD_BOTTOM, pad_bottom, lv_style_int_t, _int, scalar)
 718              		.loc 2 110 1 view .LVU193
 719              	.LBB142:
 110:lvgl/src/lv_widgets/../lv_core/lv_obj_style_dec.h **** _LV_OBJ_STYLE_SET_GET_DECLARE(PAD_BOTTOM, pad_bottom, lv_style_int_t, _int, scalar)
 720              		.loc 2 110 1 view .LVU194
 721 008e 1022     		movs	r2, #16
 722 0090 0021     		movs	r1, #0
 723 0092 4046     		mov	r0, r8
 724 0094 FFF7FEFF 		bl	_lv_obj_get_style_int
 725              	.LVL97:
 110:lvgl/src/lv_widgets/../lv_core/lv_obj_style_dec.h **** _LV_OBJ_STYLE_SET_GET_DECLARE(PAD_BOTTOM, pad_bottom, lv_style_int_t, _int, scalar)
 726              		.loc 2 110 1 is_stmt 0 view .LVU195
 727              	.LBE142:
 728              	.LBE141:
 682:lvgl/src/lv_widgets/lv_cont.c ****         parent_area.y2 -= lv_obj_get_style_pad_bottom(par, LV_OBJ_PART_MAIN);
 729              		.loc 1 682 24 view .LVU196
 730 0098 BDF81230 		ldrh	r3, [sp, #18]
 731 009c 13FA80F0 		uxtah	r0, r3, r0
 732 00a0 ADF81200 		strh	r0, [sp, #18]	@ movhi
 683:lvgl/src/lv_widgets/lv_cont.c **** 
 733              		.loc 1 683 9 is_stmt 1 view .LVU197
 734              	.LVL98:
 735              	.LBB143:
 736              	.LBI143:
 111:lvgl/src/lv_widgets/../lv_core/lv_obj_style_dec.h **** _LV_OBJ_STYLE_SET_GET_DECLARE(PAD_LEFT, pad_left, lv_style_int_t, _int, scalar)
 737              		.loc 2 111 1 view .LVU198
 738              	.LBB144:
 111:lvgl/src/lv_widgets/../lv_core/lv_obj_style_dec.h **** _LV_OBJ_STYLE_SET_GET_DECLARE(PAD_LEFT, pad_left, lv_style_int_t, _int, scalar)
 739              		.loc 2 111 1 view .LVU199
 740 00a4 1122     		movs	r2, #17
 741 00a6 0021     		movs	r1, #0
 742 00a8 4046     		mov	r0, r8
 743 00aa FFF7FEFF 		bl	_lv_obj_get_style_int
 744              	.LVL99:
 111:lvgl/src/lv_widgets/../lv_core/lv_obj_style_dec.h **** _LV_OBJ_STYLE_SET_GET_DECLARE(PAD_LEFT, pad_left, lv_style_int_t, _int, scalar)
 745              		.loc 2 111 1 is_stmt 0 view .LVU200
 746              	.LBE144:
 747              	.LBE143:
 683:lvgl/src/lv_widgets/lv_cont.c **** 
 748              		.loc 1 683 27 view .LVU201
 749 00ae 80B2     		uxth	r0, r0
 683:lvgl/src/lv_widgets/lv_cont.c **** 
 750              		.loc 1 683 24 view .LVU202
 751 00b0 BDF81630 		ldrh	r3, [sp, #22]
 752 00b4 1B1A     		subs	r3, r3, r0
 753 00b6 ADF81630 		strh	r3, [sp, #22]	@ movhi
 686:lvgl/src/lv_widgets/lv_cont.c ****         lv_obj_get_coords(cont, &tight_area);
ARM GAS  D:\Temp\cchslsHM.s 			page 38


 754              		.loc 1 686 9 is_stmt 1 view .LVU203
 755 00ba 02A9     		add	r1, sp, #8
 756 00bc 2046     		mov	r0, r4
 757 00be FFF7FEFF 		bl	lv_obj_get_coords
 758              	.LVL100:
 687:lvgl/src/lv_widgets/lv_cont.c **** 
 759              		.loc 1 687 9 view .LVU204
 760 00c2 6946     		mov	r1, sp
 761 00c4 2046     		mov	r0, r4
 762 00c6 FFF7FEFF 		bl	lv_obj_get_coords
 763              	.LVL101:
 689:lvgl/src/lv_widgets/lv_cont.c **** 
 764              		.loc 1 689 9 view .LVU205
 689:lvgl/src/lv_widgets/lv_cont.c **** 
 765              		.loc 1 689 29 is_stmt 0 view .LVU206
 766 00ca 271D     		adds	r7, r4, #4
 767 00cc 3846     		mov	r0, r7
 768 00ce FFF7FEFF 		bl	_lv_ll_is_empty
 769              	.LVL102:
 689:lvgl/src/lv_widgets/lv_cont.c **** 
 770              		.loc 1 689 14 view .LVU207
 771 00d2 80F00100 		eor	r0, r0, #1
 772              	.LVL103:
 691:lvgl/src/lv_widgets/lv_cont.c ****             tight_area.x1 = LV_COORD_MAX;
 773              		.loc 1 691 9 is_stmt 1 view .LVU208
 691:lvgl/src/lv_widgets/lv_cont.c ****             tight_area.x1 = LV_COORD_MAX;
 774              		.loc 1 691 11 is_stmt 0 view .LVU209
 775 00d6 10F0FF09 		ands	r9, r0, #255
 776 00da 0BD1     		bne	.L75
 777              	.LVL104:
 778              	.L35:
 679:lvgl/src/lv_widgets/lv_cont.c ****         parent_area.x1 += lv_obj_get_style_pad_left(par, LV_OBJ_PART_MAIN);
 779              		.loc 1 679 36 view .LVU210
 780 00dc 02A9     		add	r1, sp, #8
 781 00de 06AA     		add	r2, sp, #24
 782 00e0 0823     		movs	r3, #8
 783              	.L42:
 784              	.LVL105:
 785              	.LBB145:
 786              	.LBB146:
 787              	.LBB147:
 218:d:\_project\stm32\f407\hack_rf_new\lvgl\src\lv_misc\lv_mem.h ****         *d8 = *s8;
 788              		.loc 4 218 10 view .LVU211
 789 00e2 002B     		cmp	r3, #0
 790 00e4 00F0A380 		beq	.L76
 219:d:\_project\stm32\f407\hack_rf_new\lvgl\src\lv_misc\lv_mem.h ****         d8++;
 791              		.loc 4 219 9 is_stmt 1 view .LVU212
 219:d:\_project\stm32\f407\hack_rf_new\lvgl\src\lv_misc\lv_mem.h ****         d8++;
 792              		.loc 4 219 15 is_stmt 0 view .LVU213
 793 00e8 11F8010B 		ldrb	r0, [r1], #1	@ zero_extendqisi2
 794              	.LVL106:
 219:d:\_project\stm32\f407\hack_rf_new\lvgl\src\lv_misc\lv_mem.h ****         d8++;
 795              		.loc 4 219 13 view .LVU214
 796 00ec 02F8010B 		strb	r0, [r2], #1
 797              	.LVL107:
 220:d:\_project\stm32\f407\hack_rf_new\lvgl\src\lv_misc\lv_mem.h ****         s8++;
 798              		.loc 4 220 9 is_stmt 1 view .LVU215
ARM GAS  D:\Temp\cchslsHM.s 			page 39


 221:d:\_project\stm32\f407\hack_rf_new\lvgl\src\lv_misc\lv_mem.h ****         len--;
 799              		.loc 4 221 9 view .LVU216
 222:d:\_project\stm32\f407\hack_rf_new\lvgl\src\lv_misc\lv_mem.h ****     }
 800              		.loc 4 222 9 view .LVU217
 222:d:\_project\stm32\f407\hack_rf_new\lvgl\src\lv_misc\lv_mem.h ****     }
 801              		.loc 4 222 12 is_stmt 0 view .LVU218
 802 00f0 013B     		subs	r3, r3, #1
 803              	.LVL108:
 222:d:\_project\stm32\f407\hack_rf_new\lvgl\src\lv_misc\lv_mem.h ****     }
 804              		.loc 4 222 12 view .LVU219
 805 00f2 F6E7     		b	.L42
 806              	.LVL109:
 807              	.L75:
 222:d:\_project\stm32\f407\hack_rf_new\lvgl\src\lv_misc\lv_mem.h ****     }
 808              		.loc 4 222 12 view .LVU220
 809              	.LBE147:
 810              	.LBE146:
 811              	.LBE145:
 692:lvgl/src/lv_widgets/lv_cont.c ****             tight_area.y1 = LV_COORD_MAX;
 812              		.loc 1 692 13 is_stmt 1 view .LVU221
 692:lvgl/src/lv_widgets/lv_cont.c ****             tight_area.y1 = LV_COORD_MAX;
 813              		.loc 1 692 27 is_stmt 0 view .LVU222
 814 00f4 47F61843 		movw	r3, #31768
 815 00f8 ADF80030 		strh	r3, [sp]	@ movhi
 693:lvgl/src/lv_widgets/lv_cont.c ****             tight_area.x2 = LV_COORD_MIN;
 816              		.loc 1 693 13 is_stmt 1 view .LVU223
 693:lvgl/src/lv_widgets/lv_cont.c ****             tight_area.x2 = LV_COORD_MIN;
 817              		.loc 1 693 27 is_stmt 0 view .LVU224
 818 00fc ADF80230 		strh	r3, [sp, #2]	@ movhi
 694:lvgl/src/lv_widgets/lv_cont.c ****             tight_area.y2 = LV_COORD_MIN;
 819              		.loc 1 694 13 is_stmt 1 view .LVU225
 694:lvgl/src/lv_widgets/lv_cont.c ****             tight_area.y2 = LV_COORD_MIN;
 820              		.loc 1 694 27 is_stmt 0 view .LVU226
 821 0100 48F2E833 		movw	r3, #33768
 822 0104 ADF80430 		strh	r3, [sp, #4]	@ movhi
 695:lvgl/src/lv_widgets/lv_cont.c **** 
 823              		.loc 1 695 13 is_stmt 1 view .LVU227
 695:lvgl/src/lv_widgets/lv_cont.c **** 
 824              		.loc 1 695 27 is_stmt 0 view .LVU228
 825 0108 ADF80630 		strh	r3, [sp, #6]	@ movhi
 697:lvgl/src/lv_widgets/lv_cont.c ****                 if(lv_obj_get_hidden(child_i) != false) continue;
 826              		.loc 1 697 13 is_stmt 1 view .LVU229
 827 010c 3846     		mov	r0, r7
 828              	.LVL110:
 697:lvgl/src/lv_widgets/lv_cont.c ****                 if(lv_obj_get_hidden(child_i) != false) continue;
 829              		.loc 1 697 13 is_stmt 0 view .LVU230
 830 010e FFF7FEFF 		bl	_lv_ll_get_head
 831              	.LVL111:
 832 0112 0646     		mov	r6, r0
 833              	.LVL112:
 697:lvgl/src/lv_widgets/lv_cont.c ****                 if(lv_obj_get_hidden(child_i) != false) continue;
 834              		.loc 1 697 13 view .LVU231
 835 0114 43E0     		b	.L36
 836              	.LVL113:
 837              	.L78:
 838              	.LBB150:
 701:lvgl/src/lv_widgets/lv_cont.c ****                     tight_area.x1 = LV_MATH_MIN(tight_area.x1, child_i->coords.x1 - mleft);
ARM GAS  D:\Temp\cchslsHM.s 			page 40


 839              		.loc 1 701 21 is_stmt 1 view .LVU232
 840              	.LBB151:
 841              	.LBI151:
 115:lvgl/src/lv_widgets/../lv_core/lv_obj_style_dec.h **** _LV_OBJ_STYLE_SET_GET_DECLARE(MARGIN_TOP, margin_top, lv_style_int_t, _int, scalar)
 116:lvgl/src/lv_widgets/../lv_core/lv_obj_style_dec.h **** _LV_OBJ_STYLE_SET_GET_DECLARE(MARGIN_BOTTOM, margin_bottom, lv_style_int_t, _int, scalar)
 117:lvgl/src/lv_widgets/../lv_core/lv_obj_style_dec.h **** _LV_OBJ_STYLE_SET_GET_DECLARE(MARGIN_LEFT, margin_left, lv_style_int_t, _int, scalar)
 842              		.loc 2 117 1 view .LVU233
 843              	.LBB152:
 844              		.loc 2 117 1 view .LVU234
 845 0116 1722     		movs	r2, #23
 846 0118 0021     		movs	r1, #0
 847 011a 3046     		mov	r0, r6
 848 011c FFF7FEFF 		bl	_lv_obj_get_style_int
 849              	.LVL114:
 850              		.loc 2 117 1 is_stmt 0 view .LVU235
 851              	.LBE152:
 852              	.LBE151:
 702:lvgl/src/lv_widgets/lv_cont.c ****                 }
 853              		.loc 1 702 21 is_stmt 1 view .LVU236
 702:lvgl/src/lv_widgets/lv_cont.c ****                 }
 854              		.loc 1 702 37 is_stmt 0 view .LVU237
 855 0120 B6F91030 		ldrsh	r3, [r6, #16]
 856 0124 181A     		subs	r0, r3, r0
 857              	.LVL115:
 702:lvgl/src/lv_widgets/lv_cont.c ****                 }
 858              		.loc 1 702 37 view .LVU238
 859 0126 BDF90030 		ldrsh	r3, [sp]
 860 012a 9842     		cmp	r0, r3
 861 012c A8BF     		it	ge
 862 012e 1846     		movge	r0, r3
 702:lvgl/src/lv_widgets/lv_cont.c ****                 }
 863              		.loc 1 702 35 view .LVU239
 864 0130 ADF80000 		strh	r0, [sp]	@ movhi
 865 0134 3EE0     		b	.L38
 866              	.L79:
 702:lvgl/src/lv_widgets/lv_cont.c ****                 }
 867              		.loc 1 702 35 view .LVU240
 868              	.LBE150:
 869              	.LBB153:
 706:lvgl/src/lv_widgets/lv_cont.c ****                     tight_area.x2 = LV_MATH_MAX(tight_area.x2, child_i->coords.x2 + mright);
 870              		.loc 1 706 21 is_stmt 1 view .LVU241
 871              	.LVL116:
 872              	.LBB154:
 873              	.LBI154:
 118:lvgl/src/lv_widgets/../lv_core/lv_obj_style_dec.h **** _LV_OBJ_STYLE_SET_GET_DECLARE(MARGIN_RIGHT, margin_right, lv_style_int_t, _int, scalar)
 874              		.loc 2 118 1 view .LVU242
 875              	.LBB155:
 876              		.loc 2 118 1 view .LVU243
 877 0136 1822     		movs	r2, #24
 878 0138 0021     		movs	r1, #0
 879 013a 3046     		mov	r0, r6
 880 013c FFF7FEFF 		bl	_lv_obj_get_style_int
 881              	.LVL117:
 882              		.loc 2 118 1 is_stmt 0 view .LVU244
 883              	.LBE155:
 884              	.LBE154:
 707:lvgl/src/lv_widgets/lv_cont.c ****                 }
ARM GAS  D:\Temp\cchslsHM.s 			page 41


 885              		.loc 1 707 21 is_stmt 1 view .LVU245
 707:lvgl/src/lv_widgets/lv_cont.c ****                 }
 886              		.loc 1 707 37 is_stmt 0 view .LVU246
 887 0140 B6F91430 		ldrsh	r3, [r6, #20]
 888 0144 1844     		add	r0, r0, r3
 889              	.LVL118:
 707:lvgl/src/lv_widgets/lv_cont.c ****                 }
 890              		.loc 1 707 37 view .LVU247
 891 0146 BDF90430 		ldrsh	r3, [sp, #4]
 892 014a 9842     		cmp	r0, r3
 893 014c B8BF     		it	lt
 894 014e 1846     		movlt	r0, r3
 707:lvgl/src/lv_widgets/lv_cont.c ****                 }
 895              		.loc 1 707 35 view .LVU248
 896 0150 ADF80400 		strh	r0, [sp, #4]	@ movhi
 897 0154 33E0     		b	.L39
 898              	.L80:
 707:lvgl/src/lv_widgets/lv_cont.c ****                 }
 899              		.loc 1 707 35 view .LVU249
 900              	.LBE153:
 901              	.LBB156:
 711:lvgl/src/lv_widgets/lv_cont.c ****                     tight_area.y1 = LV_MATH_MIN(tight_area.y1, child_i->coords.y1 - mtop);
 902              		.loc 1 711 21 is_stmt 1 view .LVU250
 903              	.LVL119:
 904              	.LBB157:
 905              	.LBI157:
 115:lvgl/src/lv_widgets/../lv_core/lv_obj_style_dec.h **** _LV_OBJ_STYLE_SET_GET_DECLARE(MARGIN_BOTTOM, margin_bottom, lv_style_int_t, _int, scalar)
 906              		.loc 2 115 1 view .LVU251
 907              	.LBB158:
 115:lvgl/src/lv_widgets/../lv_core/lv_obj_style_dec.h **** _LV_OBJ_STYLE_SET_GET_DECLARE(MARGIN_BOTTOM, margin_bottom, lv_style_int_t, _int, scalar)
 908              		.loc 2 115 1 view .LVU252
 909 0156 1522     		movs	r2, #21
 910 0158 0021     		movs	r1, #0
 911 015a 3046     		mov	r0, r6
 912 015c FFF7FEFF 		bl	_lv_obj_get_style_int
 913              	.LVL120:
 115:lvgl/src/lv_widgets/../lv_core/lv_obj_style_dec.h **** _LV_OBJ_STYLE_SET_GET_DECLARE(MARGIN_BOTTOM, margin_bottom, lv_style_int_t, _int, scalar)
 914              		.loc 2 115 1 is_stmt 0 view .LVU253
 915              	.LBE158:
 916              	.LBE157:
 712:lvgl/src/lv_widgets/lv_cont.c ****                 }
 917              		.loc 1 712 21 is_stmt 1 view .LVU254
 712:lvgl/src/lv_widgets/lv_cont.c ****                 }
 918              		.loc 1 712 37 is_stmt 0 view .LVU255
 919 0160 B6F91230 		ldrsh	r3, [r6, #18]
 920 0164 181A     		subs	r0, r3, r0
 921              	.LVL121:
 712:lvgl/src/lv_widgets/lv_cont.c ****                 }
 922              		.loc 1 712 37 view .LVU256
 923 0166 BDF90230 		ldrsh	r3, [sp, #2]
 924 016a 9842     		cmp	r0, r3
 925 016c A8BF     		it	ge
 926 016e 1846     		movge	r0, r3
 712:lvgl/src/lv_widgets/lv_cont.c ****                 }
 927              		.loc 1 712 35 view .LVU257
 928 0170 ADF80200 		strh	r0, [sp, #2]	@ movhi
 929 0174 28E0     		b	.L40
ARM GAS  D:\Temp\cchslsHM.s 			page 42


 930              	.L81:
 712:lvgl/src/lv_widgets/lv_cont.c ****                 }
 931              		.loc 1 712 35 view .LVU258
 932              	.LBE156:
 933              	.LBB159:
 716:lvgl/src/lv_widgets/lv_cont.c ****                     tight_area.y2 = LV_MATH_MAX(tight_area.y2, child_i->coords.y2 + mbottom);
 934              		.loc 1 716 21 is_stmt 1 view .LVU259
 935              	.LVL122:
 936              	.LBB160:
 937              	.LBI160:
 116:lvgl/src/lv_widgets/../lv_core/lv_obj_style_dec.h **** _LV_OBJ_STYLE_SET_GET_DECLARE(MARGIN_LEFT, margin_left, lv_style_int_t, _int, scalar)
 938              		.loc 2 116 1 view .LVU260
 939              	.LBB161:
 116:lvgl/src/lv_widgets/../lv_core/lv_obj_style_dec.h **** _LV_OBJ_STYLE_SET_GET_DECLARE(MARGIN_LEFT, margin_left, lv_style_int_t, _int, scalar)
 940              		.loc 2 116 1 view .LVU261
 941 0176 1622     		movs	r2, #22
 942 0178 0021     		movs	r1, #0
 943 017a 3046     		mov	r0, r6
 944 017c FFF7FEFF 		bl	_lv_obj_get_style_int
 945              	.LVL123:
 116:lvgl/src/lv_widgets/../lv_core/lv_obj_style_dec.h **** _LV_OBJ_STYLE_SET_GET_DECLARE(MARGIN_LEFT, margin_left, lv_style_int_t, _int, scalar)
 946              		.loc 2 116 1 is_stmt 0 view .LVU262
 947              	.LBE161:
 948              	.LBE160:
 717:lvgl/src/lv_widgets/lv_cont.c ****                 }
 949              		.loc 1 717 21 is_stmt 1 view .LVU263
 717:lvgl/src/lv_widgets/lv_cont.c ****                 }
 950              		.loc 1 717 37 is_stmt 0 view .LVU264
 951 0180 B6F91630 		ldrsh	r3, [r6, #22]
 952 0184 1844     		add	r0, r0, r3
 953              	.LVL124:
 717:lvgl/src/lv_widgets/lv_cont.c ****                 }
 954              		.loc 1 717 37 view .LVU265
 955 0186 BDF90630 		ldrsh	r3, [sp, #6]
 956 018a 9842     		cmp	r0, r3
 957 018c B8BF     		it	lt
 958 018e 1846     		movlt	r0, r3
 717:lvgl/src/lv_widgets/lv_cont.c ****                 }
 959              		.loc 1 717 35 view .LVU266
 960 0190 ADF80600 		strh	r0, [sp, #6]	@ movhi
 961              	.L37:
 717:lvgl/src/lv_widgets/lv_cont.c ****                 }
 962              		.loc 1 717 35 view .LVU267
 963              	.LBE159:
 697:lvgl/src/lv_widgets/lv_cont.c ****                 if(lv_obj_get_hidden(child_i) != false) continue;
 964              		.loc 1 697 13 discriminator 2 view .LVU268
 965 0194 3146     		mov	r1, r6
 966 0196 3846     		mov	r0, r7
 967 0198 FFF7FEFF 		bl	_lv_ll_get_next
 968              	.LVL125:
 969 019c 0646     		mov	r6, r0
 970              	.LVL126:
 971              	.L36:
 697:lvgl/src/lv_widgets/lv_cont.c ****                 if(lv_obj_get_hidden(child_i) != false) continue;
 972              		.loc 1 697 13 discriminator 1 view .LVU269
 973 019e CEB1     		cbz	r6, .L77
 698:lvgl/src/lv_widgets/lv_cont.c **** 
ARM GAS  D:\Temp\cchslsHM.s 			page 43


 974              		.loc 1 698 17 is_stmt 1 view .LVU270
 698:lvgl/src/lv_widgets/lv_cont.c **** 
 975              		.loc 1 698 20 is_stmt 0 view .LVU271
 976 01a0 3046     		mov	r0, r6
 698:lvgl/src/lv_widgets/lv_cont.c **** 
 977              		.loc 1 698 20 view .LVU272
 978 01a2 FFF7FEFF 		bl	lv_obj_get_hidden
 979              	.LVL127:
 698:lvgl/src/lv_widgets/lv_cont.c **** 
 980              		.loc 1 698 19 view .LVU273
 981 01a6 0028     		cmp	r0, #0
 982 01a8 F4D1     		bne	.L37
 700:lvgl/src/lv_widgets/lv_cont.c ****                     lv_style_int_t mleft = lv_obj_get_style_margin_left(child_i, LV_OBJ_PART_MAIN);
 983              		.loc 1 700 17 is_stmt 1 view .LVU274
 700:lvgl/src/lv_widgets/lv_cont.c ****                     lv_style_int_t mleft = lv_obj_get_style_margin_left(child_i, LV_OBJ_PART_MAIN);
 984              		.loc 1 700 34 is_stmt 0 view .LVU275
 985 01aa 2B78     		ldrb	r3, [r5]	@ zero_extendqisi2
 986 01ac 03F03003 		and	r3, r3, #48
 700:lvgl/src/lv_widgets/lv_cont.c ****                     lv_style_int_t mleft = lv_obj_get_style_margin_left(child_i, LV_OBJ_PART_MAIN);
 987              		.loc 1 700 19 view .LVU276
 988 01b0 202B     		cmp	r3, #32
 989 01b2 B0D1     		bne	.L78
 990              	.L38:
 705:lvgl/src/lv_widgets/lv_cont.c ****                     lv_style_int_t mright = lv_obj_get_style_margin_right(child_i, LV_OBJ_PART_MAIN
 991              		.loc 1 705 17 is_stmt 1 view .LVU277
 705:lvgl/src/lv_widgets/lv_cont.c ****                     lv_style_int_t mright = lv_obj_get_style_margin_right(child_i, LV_OBJ_PART_MAIN
 992              		.loc 1 705 35 is_stmt 0 view .LVU278
 993 01b4 2B78     		ldrb	r3, [r5]	@ zero_extendqisi2
 994 01b6 03F0C003 		and	r3, r3, #192
 705:lvgl/src/lv_widgets/lv_cont.c ****                     lv_style_int_t mright = lv_obj_get_style_margin_right(child_i, LV_OBJ_PART_MAIN
 995              		.loc 1 705 19 view .LVU279
 996 01ba 802B     		cmp	r3, #128
 997 01bc BBD1     		bne	.L79
 998              	.L39:
 710:lvgl/src/lv_widgets/lv_cont.c ****                     lv_style_int_t mtop = lv_obj_get_style_margin_top(child_i, LV_OBJ_PART_MAIN);
 999              		.loc 1 710 17 is_stmt 1 view .LVU280
 710:lvgl/src/lv_widgets/lv_cont.c ****                     lv_style_int_t mtop = lv_obj_get_style_margin_top(child_i, LV_OBJ_PART_MAIN);
 1000              		.loc 1 710 33 is_stmt 0 view .LVU281
 1001 01be 6B78     		ldrb	r3, [r5, #1]	@ zero_extendqisi2
 1002 01c0 03F00303 		and	r3, r3, #3
 710:lvgl/src/lv_widgets/lv_cont.c ****                     lv_style_int_t mtop = lv_obj_get_style_margin_top(child_i, LV_OBJ_PART_MAIN);
 1003              		.loc 1 710 19 view .LVU282
 1004 01c4 022B     		cmp	r3, #2
 1005 01c6 C6D1     		bne	.L80
 1006              	.L40:
 715:lvgl/src/lv_widgets/lv_cont.c ****                     lv_style_int_t mbottom = lv_obj_get_style_margin_bottom(child_i, LV_OBJ_PART_MA
 1007              		.loc 1 715 17 is_stmt 1 view .LVU283
 715:lvgl/src/lv_widgets/lv_cont.c ****                     lv_style_int_t mbottom = lv_obj_get_style_margin_bottom(child_i, LV_OBJ_PART_MA
 1008              		.loc 1 715 36 is_stmt 0 view .LVU284
 1009 01c8 6B78     		ldrb	r3, [r5, #1]	@ zero_extendqisi2
 1010 01ca 03F00C03 		and	r3, r3, #12
 715:lvgl/src/lv_widgets/lv_cont.c ****                     lv_style_int_t mbottom = lv_obj_get_style_margin_bottom(child_i, LV_OBJ_PART_MA
 1011              		.loc 1 715 19 view .LVU285
 1012 01ce 082B     		cmp	r3, #8
 1013 01d0 E0D0     		beq	.L37
 1014 01d2 D0E7     		b	.L81
 1015              	.LVL128:
ARM GAS  D:\Temp\cchslsHM.s 			page 44


 1016              	.L77:
 721:lvgl/src/lv_widgets/lv_cont.c ****             tight_area.x2 += lv_obj_get_style_pad_right(cont, LV_CONT_PART_MAIN);
 1017              		.loc 1 721 13 is_stmt 1 view .LVU286
 1018              	.LBB162:
 1019              	.LBI162:
 112:lvgl/src/lv_widgets/../lv_core/lv_obj_style_dec.h **** _LV_OBJ_STYLE_SET_GET_DECLARE(PAD_RIGHT, pad_right, lv_style_int_t, _int, scalar)
 1020              		.loc 2 112 1 view .LVU287
 1021              	.LBB163:
 112:lvgl/src/lv_widgets/../lv_core/lv_obj_style_dec.h **** _LV_OBJ_STYLE_SET_GET_DECLARE(PAD_RIGHT, pad_right, lv_style_int_t, _int, scalar)
 1022              		.loc 2 112 1 view .LVU288
 1023 01d4 1222     		movs	r2, #18
 1024 01d6 0021     		movs	r1, #0
 1025 01d8 2046     		mov	r0, r4
 1026              	.LVL129:
 112:lvgl/src/lv_widgets/../lv_core/lv_obj_style_dec.h **** _LV_OBJ_STYLE_SET_GET_DECLARE(PAD_RIGHT, pad_right, lv_style_int_t, _int, scalar)
 1027              		.loc 2 112 1 is_stmt 0 view .LVU289
 1028 01da FFF7FEFF 		bl	_lv_obj_get_style_int
 1029              	.LVL130:
 112:lvgl/src/lv_widgets/../lv_core/lv_obj_style_dec.h **** _LV_OBJ_STYLE_SET_GET_DECLARE(PAD_RIGHT, pad_right, lv_style_int_t, _int, scalar)
 1030              		.loc 2 112 1 view .LVU290
 1031              	.LBE163:
 1032              	.LBE162:
 721:lvgl/src/lv_widgets/lv_cont.c ****             tight_area.x2 += lv_obj_get_style_pad_right(cont, LV_CONT_PART_MAIN);
 1033              		.loc 1 721 30 view .LVU291
 1034 01de 80B2     		uxth	r0, r0
 721:lvgl/src/lv_widgets/lv_cont.c ****             tight_area.x2 += lv_obj_get_style_pad_right(cont, LV_CONT_PART_MAIN);
 1035              		.loc 1 721 27 view .LVU292
 1036 01e0 BDF80030 		ldrh	r3, [sp]
 1037 01e4 1B1A     		subs	r3, r3, r0
 1038 01e6 ADF80030 		strh	r3, [sp]	@ movhi
 722:lvgl/src/lv_widgets/lv_cont.c ****             tight_area.y1 -= lv_obj_get_style_pad_top(cont, LV_CONT_PART_MAIN);
 1039              		.loc 1 722 13 is_stmt 1 view .LVU293
 1040              	.LVL131:
 1041              	.LBB164:
 1042              	.LBI164:
 113:lvgl/src/lv_widgets/../lv_core/lv_obj_style_dec.h **** _LV_OBJ_STYLE_SET_GET_DECLARE(PAD_INNER, pad_inner, lv_style_int_t, _int, scalar)
 1043              		.loc 2 113 1 view .LVU294
 1044              	.LBB165:
 113:lvgl/src/lv_widgets/../lv_core/lv_obj_style_dec.h **** _LV_OBJ_STYLE_SET_GET_DECLARE(PAD_INNER, pad_inner, lv_style_int_t, _int, scalar)
 1045              		.loc 2 113 1 view .LVU295
 1046 01ea 1322     		movs	r2, #19
 1047 01ec 0021     		movs	r1, #0
 1048 01ee 2046     		mov	r0, r4
 1049 01f0 FFF7FEFF 		bl	_lv_obj_get_style_int
 1050              	.LVL132:
 113:lvgl/src/lv_widgets/../lv_core/lv_obj_style_dec.h **** _LV_OBJ_STYLE_SET_GET_DECLARE(PAD_INNER, pad_inner, lv_style_int_t, _int, scalar)
 1051              		.loc 2 113 1 is_stmt 0 view .LVU296
 1052              	.LBE165:
 1053              	.LBE164:
 722:lvgl/src/lv_widgets/lv_cont.c ****             tight_area.y1 -= lv_obj_get_style_pad_top(cont, LV_CONT_PART_MAIN);
 1054              		.loc 1 722 27 view .LVU297
 1055 01f4 BDF80430 		ldrh	r3, [sp, #4]
 1056 01f8 13FA80F0 		uxtah	r0, r3, r0
 1057 01fc ADF80400 		strh	r0, [sp, #4]	@ movhi
 723:lvgl/src/lv_widgets/lv_cont.c ****             tight_area.y2 += lv_obj_get_style_pad_bottom(cont, LV_CONT_PART_MAIN);
 1058              		.loc 1 723 13 is_stmt 1 view .LVU298
 1059              	.LVL133:
ARM GAS  D:\Temp\cchslsHM.s 			page 45


 1060              	.LBB166:
 1061              	.LBI166:
 110:lvgl/src/lv_widgets/../lv_core/lv_obj_style_dec.h **** _LV_OBJ_STYLE_SET_GET_DECLARE(PAD_BOTTOM, pad_bottom, lv_style_int_t, _int, scalar)
 1062              		.loc 2 110 1 view .LVU299
 1063              	.LBB167:
 110:lvgl/src/lv_widgets/../lv_core/lv_obj_style_dec.h **** _LV_OBJ_STYLE_SET_GET_DECLARE(PAD_BOTTOM, pad_bottom, lv_style_int_t, _int, scalar)
 1064              		.loc 2 110 1 view .LVU300
 1065 0200 1022     		movs	r2, #16
 1066 0202 0021     		movs	r1, #0
 1067 0204 2046     		mov	r0, r4
 1068 0206 FFF7FEFF 		bl	_lv_obj_get_style_int
 1069              	.LVL134:
 110:lvgl/src/lv_widgets/../lv_core/lv_obj_style_dec.h **** _LV_OBJ_STYLE_SET_GET_DECLARE(PAD_BOTTOM, pad_bottom, lv_style_int_t, _int, scalar)
 1070              		.loc 2 110 1 is_stmt 0 view .LVU301
 1071              	.LBE167:
 1072              	.LBE166:
 723:lvgl/src/lv_widgets/lv_cont.c ****             tight_area.y2 += lv_obj_get_style_pad_bottom(cont, LV_CONT_PART_MAIN);
 1073              		.loc 1 723 30 view .LVU302
 1074 020a 80B2     		uxth	r0, r0
 723:lvgl/src/lv_widgets/lv_cont.c ****             tight_area.y2 += lv_obj_get_style_pad_bottom(cont, LV_CONT_PART_MAIN);
 1075              		.loc 1 723 27 view .LVU303
 1076 020c BDF80230 		ldrh	r3, [sp, #2]
 1077 0210 1B1A     		subs	r3, r3, r0
 1078 0212 ADF80230 		strh	r3, [sp, #2]	@ movhi
 724:lvgl/src/lv_widgets/lv_cont.c ****         }
 1079              		.loc 1 724 13 is_stmt 1 view .LVU304
 1080              	.LVL135:
 1081              	.LBB168:
 1082              	.LBI168:
 111:lvgl/src/lv_widgets/../lv_core/lv_obj_style_dec.h **** _LV_OBJ_STYLE_SET_GET_DECLARE(PAD_LEFT, pad_left, lv_style_int_t, _int, scalar)
 1083              		.loc 2 111 1 view .LVU305
 1084              	.LBB169:
 111:lvgl/src/lv_widgets/../lv_core/lv_obj_style_dec.h **** _LV_OBJ_STYLE_SET_GET_DECLARE(PAD_LEFT, pad_left, lv_style_int_t, _int, scalar)
 1085              		.loc 2 111 1 view .LVU306
 1086 0216 1122     		movs	r2, #17
 1087 0218 0021     		movs	r1, #0
 1088 021a 2046     		mov	r0, r4
 1089 021c FFF7FEFF 		bl	_lv_obj_get_style_int
 1090              	.LVL136:
 111:lvgl/src/lv_widgets/../lv_core/lv_obj_style_dec.h **** _LV_OBJ_STYLE_SET_GET_DECLARE(PAD_LEFT, pad_left, lv_style_int_t, _int, scalar)
 1091              		.loc 2 111 1 is_stmt 0 view .LVU307
 1092              	.LBE169:
 1093              	.LBE168:
 724:lvgl/src/lv_widgets/lv_cont.c ****         }
 1094              		.loc 1 724 27 view .LVU308
 1095 0220 BDF80630 		ldrh	r3, [sp, #6]
 1096 0224 13FA80F0 		uxtah	r0, r3, r0
 1097 0228 ADF80600 		strh	r0, [sp, #6]	@ movhi
 1098 022c 56E7     		b	.L35
 1099              	.LVL137:
 1100              	.L76:
 1101              	.LBB170:
 1102              	.LBB149:
 1103              	.LBB148:
 1104              		.loc 4 225 5 is_stmt 1 view .LVU309
 1105              		.loc 4 225 5 is_stmt 0 view .LVU310
 1106              	.LBE148:
ARM GAS  D:\Temp\cchslsHM.s 			page 46


 1107              	.LBE149:
 1108              	.LBE170:
 730:lvgl/src/lv_widgets/lv_cont.c ****             case LV_FIT_TIGHT:
 1109              		.loc 1 730 9 is_stmt 1 view .LVU311
 730:lvgl/src/lv_widgets/lv_cont.c ****             case LV_FIT_TIGHT:
 1110              		.loc 1 730 19 is_stmt 0 view .LVU312
 1111 022e 2B78     		ldrb	r3, [r5]	@ zero_extendqisi2
 1112 0230 C3F30113 		ubfx	r3, r3, #4, #2
 730:lvgl/src/lv_widgets/lv_cont.c ****             case LV_FIT_TIGHT:
 1113              		.loc 1 730 9 view .LVU313
 1114 0234 022B     		cmp	r3, #2
 1115 0236 44D0     		beq	.L44
 1116 0238 48D8     		bhi	.L45
 1117 023a 012B     		cmp	r3, #1
 1118 023c 03D1     		bne	.L46
 732:lvgl/src/lv_widgets/lv_cont.c ****                 break;
 1119              		.loc 1 732 17 is_stmt 1 view .LVU314
 732:lvgl/src/lv_widgets/lv_cont.c ****                 break;
 1120              		.loc 1 732 41 is_stmt 0 view .LVU315
 1121 023e BDF90030 		ldrsh	r3, [sp]
 732:lvgl/src/lv_widgets/lv_cont.c ****                 break;
 1122              		.loc 1 732 29 view .LVU316
 1123 0242 ADF81830 		strh	r3, [sp, #24]	@ movhi
 733:lvgl/src/lv_widgets/lv_cont.c ****             case LV_FIT_PARENT:
 1124              		.loc 1 733 17 is_stmt 1 view .LVU317
 1125              	.L46:
 744:lvgl/src/lv_widgets/lv_cont.c ****             case LV_FIT_TIGHT:
 1126              		.loc 1 744 9 view .LVU318
 744:lvgl/src/lv_widgets/lv_cont.c ****             case LV_FIT_TIGHT:
 1127              		.loc 1 744 19 is_stmt 0 view .LVU319
 1128 0246 2B78     		ldrb	r3, [r5]	@ zero_extendqisi2
 1129 0248 9B09     		lsrs	r3, r3, #6
 744:lvgl/src/lv_widgets/lv_cont.c ****             case LV_FIT_TIGHT:
 1130              		.loc 1 744 9 view .LVU320
 1131 024a 022B     		cmp	r3, #2
 1132 024c 4ED0     		beq	.L49
 1133 024e 52D8     		bhi	.L50
 1134 0250 012B     		cmp	r3, #1
 1135 0252 03D1     		bne	.L51
 746:lvgl/src/lv_widgets/lv_cont.c ****                 break;
 1136              		.loc 1 746 17 is_stmt 1 view .LVU321
 746:lvgl/src/lv_widgets/lv_cont.c ****                 break;
 1137              		.loc 1 746 41 is_stmt 0 view .LVU322
 1138 0254 BDF90430 		ldrsh	r3, [sp, #4]
 746:lvgl/src/lv_widgets/lv_cont.c ****                 break;
 1139              		.loc 1 746 29 view .LVU323
 1140 0258 ADF81C30 		strh	r3, [sp, #28]	@ movhi
 747:lvgl/src/lv_widgets/lv_cont.c ****             case LV_FIT_PARENT:
 1141              		.loc 1 747 17 is_stmt 1 view .LVU324
 1142              	.L51:
 758:lvgl/src/lv_widgets/lv_cont.c ****             case LV_FIT_TIGHT:
 1143              		.loc 1 758 9 view .LVU325
 758:lvgl/src/lv_widgets/lv_cont.c ****             case LV_FIT_TIGHT:
 1144              		.loc 1 758 19 is_stmt 0 view .LVU326
 1145 025c 6B78     		ldrb	r3, [r5, #1]	@ zero_extendqisi2
 1146 025e 03F00303 		and	r3, r3, #3
 758:lvgl/src/lv_widgets/lv_cont.c ****             case LV_FIT_TIGHT:
ARM GAS  D:\Temp\cchslsHM.s 			page 47


 1147              		.loc 1 758 9 view .LVU327
 1148 0262 022B     		cmp	r3, #2
 1149 0264 57D0     		beq	.L54
 1150 0266 5BD8     		bhi	.L55
 1151 0268 012B     		cmp	r3, #1
 1152 026a 03D1     		bne	.L56
 760:lvgl/src/lv_widgets/lv_cont.c ****                 break;
 1153              		.loc 1 760 17 is_stmt 1 view .LVU328
 760:lvgl/src/lv_widgets/lv_cont.c ****                 break;
 1154              		.loc 1 760 41 is_stmt 0 view .LVU329
 1155 026c BDF90230 		ldrsh	r3, [sp, #2]
 760:lvgl/src/lv_widgets/lv_cont.c ****                 break;
 1156              		.loc 1 760 29 view .LVU330
 1157 0270 ADF81A30 		strh	r3, [sp, #26]	@ movhi
 761:lvgl/src/lv_widgets/lv_cont.c ****             case LV_FIT_PARENT:
 1158              		.loc 1 761 17 is_stmt 1 view .LVU331
 1159              	.L56:
 772:lvgl/src/lv_widgets/lv_cont.c ****             case LV_FIT_TIGHT:
 1160              		.loc 1 772 9 view .LVU332
 772:lvgl/src/lv_widgets/lv_cont.c ****             case LV_FIT_TIGHT:
 1161              		.loc 1 772 19 is_stmt 0 view .LVU333
 1162 0274 6B78     		ldrb	r3, [r5, #1]	@ zero_extendqisi2
 1163 0276 C3F38103 		ubfx	r3, r3, #2, #2
 772:lvgl/src/lv_widgets/lv_cont.c ****             case LV_FIT_TIGHT:
 1164              		.loc 1 772 9 view .LVU334
 1165 027a 022B     		cmp	r3, #2
 1166 027c 60D0     		beq	.L59
 1167 027e 64D8     		bhi	.L60
 1168 0280 012B     		cmp	r3, #1
 1169 0282 03D1     		bne	.L61
 774:lvgl/src/lv_widgets/lv_cont.c ****                 break;
 1170              		.loc 1 774 17 is_stmt 1 view .LVU335
 774:lvgl/src/lv_widgets/lv_cont.c ****                 break;
 1171              		.loc 1 774 41 is_stmt 0 view .LVU336
 1172 0284 BDF90630 		ldrsh	r3, [sp, #6]
 774:lvgl/src/lv_widgets/lv_cont.c ****                 break;
 1173              		.loc 1 774 29 view .LVU337
 1174 0288 ADF81E30 		strh	r3, [sp, #30]	@ movhi
 775:lvgl/src/lv_widgets/lv_cont.c ****             case LV_FIT_PARENT:
 1175              		.loc 1 775 17 is_stmt 1 view .LVU338
 1176              	.L61:
 787:lvgl/src/lv_widgets/lv_cont.c ****            cont->coords.y2 != new_area.y2) {
 1177              		.loc 1 787 9 view .LVU339
 787:lvgl/src/lv_widgets/lv_cont.c ****            cont->coords.y2 != new_area.y2) {
 1178              		.loc 1 787 24 is_stmt 0 view .LVU340
 1179 028c B4F91020 		ldrsh	r2, [r4, #16]
 787:lvgl/src/lv_widgets/lv_cont.c ****            cont->coords.y2 != new_area.y2) {
 1180              		.loc 1 787 39 view .LVU341
 1181 0290 BDF91830 		ldrsh	r3, [sp, #24]
 787:lvgl/src/lv_widgets/lv_cont.c ****            cont->coords.y2 != new_area.y2) {
 1182              		.loc 1 787 11 view .LVU342
 1183 0294 9A42     		cmp	r2, r3
 1184 0296 05D1     		bne	.L64
 787:lvgl/src/lv_widgets/lv_cont.c ****            cont->coords.y2 != new_area.y2) {
 1185              		.loc 1 787 58 discriminator 1 view .LVU343
 1186 0298 B4F91220 		ldrsh	r2, [r4, #18]
 787:lvgl/src/lv_widgets/lv_cont.c ****            cont->coords.y2 != new_area.y2) {
ARM GAS  D:\Temp\cchslsHM.s 			page 48


 1187              		.loc 1 787 73 discriminator 1 view .LVU344
 1188 029c BDF91A30 		ldrsh	r3, [sp, #26]
 787:lvgl/src/lv_widgets/lv_cont.c ****            cont->coords.y2 != new_area.y2) {
 1189              		.loc 1 787 43 discriminator 1 view .LVU345
 1190 02a0 9A42     		cmp	r2, r3
 1191 02a2 65D0     		beq	.L82
 1192              	.L64:
 790:lvgl/src/lv_widgets/lv_cont.c ****             lv_area_copy(&cont->coords, &new_area);
 1193              		.loc 1 790 13 is_stmt 1 view .LVU346
 1194 02a4 2046     		mov	r0, r4
 1195 02a6 FFF7FEFF 		bl	lv_obj_invalidate
 1196              	.LVL138:
 791:lvgl/src/lv_widgets/lv_cont.c ****             lv_obj_invalidate(cont);
 1197              		.loc 1 791 13 view .LVU347
 1198 02aa 04F11001 		add	r1, r4, #16
 1199              	.LVL139:
 1200              	.LBB171:
 1201              	.LBI171:
  97:d:\_project\stm32\f407\hack_rf_new\lvgl\src\lv_misc\lv_area.h **** {
 1202              		.loc 3 97 20 view .LVU348
 1203              	.LBE171:
 1204              	.LBE181:
 1205              		.loc 3 99 5 view .LVU349
 1206              	.LBB182:
 1207              	.LBB178:
 1208              	.LBB172:
 1209              	.LBI172:
 213:d:\_project\stm32\f407\hack_rf_new\lvgl\src\lv_misc\lv_mem.h **** {
 1210              		.loc 4 213 44 view .LVU350
 1211              	.LBB173:
 215:d:\_project\stm32\f407\hack_rf_new\lvgl\src\lv_misc\lv_mem.h ****     const uint8_t * s8 = (const uint8_t *)src;
 1212              		.loc 4 215 5 view .LVU351
 216:d:\_project\stm32\f407\hack_rf_new\lvgl\src\lv_misc\lv_mem.h **** 
 1213              		.loc 4 216 5 view .LVU352
 218:d:\_project\stm32\f407\hack_rf_new\lvgl\src\lv_misc\lv_mem.h ****         *d8 = *s8;
 1214              		.loc 4 218 5 view .LVU353
 216:d:\_project\stm32\f407\hack_rf_new\lvgl\src\lv_misc\lv_mem.h **** 
 1215              		.loc 4 216 21 is_stmt 0 view .LVU354
 1216 02ae 06AA     		add	r2, sp, #24
 1217              	.LVL140:
 216:d:\_project\stm32\f407\hack_rf_new\lvgl\src\lv_misc\lv_mem.h **** 
 1218              		.loc 4 216 21 view .LVU355
 1219              	.LBE173:
 1220              	.LBE172:
 1221              	.LBE178:
 791:lvgl/src/lv_widgets/lv_cont.c ****             lv_obj_invalidate(cont);
 1222              		.loc 1 791 13 view .LVU356
 1223 02b0 0823     		movs	r3, #8
 1224              	.LVL141:
 1225              	.L66:
 1226              	.LBB179:
 1227              	.LBB176:
 1228              	.LBB174:
 218:d:\_project\stm32\f407\hack_rf_new\lvgl\src\lv_misc\lv_mem.h ****         *d8 = *s8;
 1229              		.loc 4 218 10 view .LVU357
 1230 02b2 002B     		cmp	r3, #0
 1231 02b4 69D0     		beq	.L83
ARM GAS  D:\Temp\cchslsHM.s 			page 49


 219:d:\_project\stm32\f407\hack_rf_new\lvgl\src\lv_misc\lv_mem.h ****         d8++;
 1232              		.loc 4 219 9 is_stmt 1 view .LVU358
 219:d:\_project\stm32\f407\hack_rf_new\lvgl\src\lv_misc\lv_mem.h ****         d8++;
 1233              		.loc 4 219 15 is_stmt 0 view .LVU359
 1234 02b6 12F8010B 		ldrb	r0, [r2], #1	@ zero_extendqisi2
 1235              	.LVL142:
 219:d:\_project\stm32\f407\hack_rf_new\lvgl\src\lv_misc\lv_mem.h ****         d8++;
 1236              		.loc 4 219 13 view .LVU360
 1237 02ba 01F8010B 		strb	r0, [r1], #1
 1238              	.LVL143:
 220:d:\_project\stm32\f407\hack_rf_new\lvgl\src\lv_misc\lv_mem.h ****         s8++;
 1239              		.loc 4 220 9 is_stmt 1 view .LVU361
 221:d:\_project\stm32\f407\hack_rf_new\lvgl\src\lv_misc\lv_mem.h ****         len--;
 1240              		.loc 4 221 9 view .LVU362
 222:d:\_project\stm32\f407\hack_rf_new\lvgl\src\lv_misc\lv_mem.h ****     }
 1241              		.loc 4 222 9 view .LVU363
 222:d:\_project\stm32\f407\hack_rf_new\lvgl\src\lv_misc\lv_mem.h ****     }
 1242              		.loc 4 222 12 is_stmt 0 view .LVU364
 1243 02be 013B     		subs	r3, r3, #1
 1244              	.LVL144:
 222:d:\_project\stm32\f407\hack_rf_new\lvgl\src\lv_misc\lv_mem.h ****     }
 1245              		.loc 4 222 12 view .LVU365
 1246 02c0 F7E7     		b	.L66
 1247              	.LVL145:
 1248              	.L44:
 222:d:\_project\stm32\f407\hack_rf_new\lvgl\src\lv_misc\lv_mem.h ****     }
 1249              		.loc 4 222 12 view .LVU366
 1250              	.LBE174:
 1251              	.LBE176:
 1252              	.LBE179:
 735:lvgl/src/lv_widgets/lv_cont.c ****                 break;
 1253              		.loc 1 735 17 is_stmt 1 view .LVU367
 735:lvgl/src/lv_widgets/lv_cont.c ****                 break;
 1254              		.loc 1 735 42 is_stmt 0 view .LVU368
 1255 02c2 BDF91030 		ldrsh	r3, [sp, #16]
 735:lvgl/src/lv_widgets/lv_cont.c ****                 break;
 1256              		.loc 1 735 29 view .LVU369
 1257 02c6 ADF81830 		strh	r3, [sp, #24]	@ movhi
 736:lvgl/src/lv_widgets/lv_cont.c ****             case LV_FIT_MAX:
 1258              		.loc 1 736 17 is_stmt 1 view .LVU370
 1259 02ca BCE7     		b	.L46
 1260              	.L45:
 738:lvgl/src/lv_widgets/lv_cont.c ****                 break;
 1261              		.loc 1 738 17 view .LVU371
 738:lvgl/src/lv_widgets/lv_cont.c ****                 break;
 1262              		.loc 1 738 29 is_stmt 0 view .LVU372
 1263 02cc B9F1000F 		cmp	r9, #0
 1264 02d0 09D0     		beq	.L47
 738:lvgl/src/lv_widgets/lv_cont.c ****                 break;
 1265              		.loc 1 738 46 discriminator 1 view .LVU373
 1266 02d2 BDF91030 		ldrsh	r3, [sp, #16]
 1267 02d6 BDF90020 		ldrsh	r2, [sp]
 738:lvgl/src/lv_widgets/lv_cont.c ****                 break;
 1268              		.loc 1 738 29 discriminator 1 view .LVU374
 1269 02da 9342     		cmp	r3, r2
 1270 02dc A8BF     		it	ge
 1271 02de 1346     		movge	r3, r2
ARM GAS  D:\Temp\cchslsHM.s 			page 50


 1272              	.L48:
 738:lvgl/src/lv_widgets/lv_cont.c ****                 break;
 1273              		.loc 1 738 29 discriminator 4 view .LVU375
 1274 02e0 ADF81830 		strh	r3, [sp, #24]	@ movhi
 739:lvgl/src/lv_widgets/lv_cont.c ****             default:
 1275              		.loc 1 739 17 is_stmt 1 discriminator 4 view .LVU376
 1276 02e4 AFE7     		b	.L46
 1277              	.L47:
 738:lvgl/src/lv_widgets/lv_cont.c ****                 break;
 1278              		.loc 1 738 29 is_stmt 0 discriminator 2 view .LVU377
 1279 02e6 BDF91030 		ldrsh	r3, [sp, #16]
 1280 02ea F9E7     		b	.L48
 1281              	.L49:
 749:lvgl/src/lv_widgets/lv_cont.c ****                 break;
 1282              		.loc 1 749 17 is_stmt 1 view .LVU378
 749:lvgl/src/lv_widgets/lv_cont.c ****                 break;
 1283              		.loc 1 749 42 is_stmt 0 view .LVU379
 1284 02ec BDF91430 		ldrsh	r3, [sp, #20]
 749:lvgl/src/lv_widgets/lv_cont.c ****                 break;
 1285              		.loc 1 749 29 view .LVU380
 1286 02f0 ADF81C30 		strh	r3, [sp, #28]	@ movhi
 750:lvgl/src/lv_widgets/lv_cont.c ****             case LV_FIT_MAX:
 1287              		.loc 1 750 17 is_stmt 1 view .LVU381
 1288 02f4 B2E7     		b	.L51
 1289              	.L50:
 752:lvgl/src/lv_widgets/lv_cont.c ****                 break;
 1290              		.loc 1 752 17 view .LVU382
 752:lvgl/src/lv_widgets/lv_cont.c ****                 break;
 1291              		.loc 1 752 29 is_stmt 0 view .LVU383
 1292 02f6 B9F1000F 		cmp	r9, #0
 1293 02fa 09D0     		beq	.L52
 752:lvgl/src/lv_widgets/lv_cont.c ****                 break;
 1294              		.loc 1 752 46 discriminator 1 view .LVU384
 1295 02fc BDF91430 		ldrsh	r3, [sp, #20]
 1296 0300 BDF90420 		ldrsh	r2, [sp, #4]
 752:lvgl/src/lv_widgets/lv_cont.c ****                 break;
 1297              		.loc 1 752 29 discriminator 1 view .LVU385
 1298 0304 9342     		cmp	r3, r2
 1299 0306 B8BF     		it	lt
 1300 0308 1346     		movlt	r3, r2
 1301              	.L53:
 752:lvgl/src/lv_widgets/lv_cont.c ****                 break;
 1302              		.loc 1 752 29 discriminator 4 view .LVU386
 1303 030a ADF81C30 		strh	r3, [sp, #28]	@ movhi
 753:lvgl/src/lv_widgets/lv_cont.c ****             default:
 1304              		.loc 1 753 17 is_stmt 1 discriminator 4 view .LVU387
 1305 030e A5E7     		b	.L51
 1306              	.L52:
 752:lvgl/src/lv_widgets/lv_cont.c ****                 break;
 1307              		.loc 1 752 29 is_stmt 0 discriminator 2 view .LVU388
 1308 0310 BDF91430 		ldrsh	r3, [sp, #20]
 1309 0314 F9E7     		b	.L53
 1310              	.L54:
 763:lvgl/src/lv_widgets/lv_cont.c ****                 break;
 1311              		.loc 1 763 17 is_stmt 1 view .LVU389
 763:lvgl/src/lv_widgets/lv_cont.c ****                 break;
 1312              		.loc 1 763 42 is_stmt 0 view .LVU390
ARM GAS  D:\Temp\cchslsHM.s 			page 51


 1313 0316 BDF91230 		ldrsh	r3, [sp, #18]
 763:lvgl/src/lv_widgets/lv_cont.c ****                 break;
 1314              		.loc 1 763 29 view .LVU391
 1315 031a ADF81A30 		strh	r3, [sp, #26]	@ movhi
 764:lvgl/src/lv_widgets/lv_cont.c ****             case LV_FIT_MAX:
 1316              		.loc 1 764 17 is_stmt 1 view .LVU392
 1317 031e A9E7     		b	.L56
 1318              	.L55:
 766:lvgl/src/lv_widgets/lv_cont.c ****                 break;
 1319              		.loc 1 766 17 view .LVU393
 766:lvgl/src/lv_widgets/lv_cont.c ****                 break;
 1320              		.loc 1 766 29 is_stmt 0 view .LVU394
 1321 0320 B9F1000F 		cmp	r9, #0
 1322 0324 09D0     		beq	.L57
 766:lvgl/src/lv_widgets/lv_cont.c ****                 break;
 1323              		.loc 1 766 46 discriminator 1 view .LVU395
 1324 0326 BDF91230 		ldrsh	r3, [sp, #18]
 1325 032a BDF90220 		ldrsh	r2, [sp, #2]
 766:lvgl/src/lv_widgets/lv_cont.c ****                 break;
 1326              		.loc 1 766 29 discriminator 1 view .LVU396
 1327 032e 9342     		cmp	r3, r2
 1328 0330 A8BF     		it	ge
 1329 0332 1346     		movge	r3, r2
 1330              	.L58:
 766:lvgl/src/lv_widgets/lv_cont.c ****                 break;
 1331              		.loc 1 766 29 discriminator 4 view .LVU397
 1332 0334 ADF81A30 		strh	r3, [sp, #26]	@ movhi
 767:lvgl/src/lv_widgets/lv_cont.c ****             default:
 1333              		.loc 1 767 17 is_stmt 1 discriminator 4 view .LVU398
 1334 0338 9CE7     		b	.L56
 1335              	.L57:
 766:lvgl/src/lv_widgets/lv_cont.c ****                 break;
 1336              		.loc 1 766 29 is_stmt 0 discriminator 2 view .LVU399
 1337 033a BDF91230 		ldrsh	r3, [sp, #18]
 1338 033e F9E7     		b	.L58
 1339              	.L59:
 777:lvgl/src/lv_widgets/lv_cont.c ****                 break;
 1340              		.loc 1 777 17 is_stmt 1 view .LVU400
 777:lvgl/src/lv_widgets/lv_cont.c ****                 break;
 1341              		.loc 1 777 42 is_stmt 0 view .LVU401
 1342 0340 BDF91630 		ldrsh	r3, [sp, #22]
 777:lvgl/src/lv_widgets/lv_cont.c ****                 break;
 1343              		.loc 1 777 29 view .LVU402
 1344 0344 ADF81E30 		strh	r3, [sp, #30]	@ movhi
 778:lvgl/src/lv_widgets/lv_cont.c ****             case LV_FIT_MAX:
 1345              		.loc 1 778 17 is_stmt 1 view .LVU403
 1346 0348 A0E7     		b	.L61
 1347              	.L60:
 780:lvgl/src/lv_widgets/lv_cont.c ****                 break;
 1348              		.loc 1 780 17 view .LVU404
 780:lvgl/src/lv_widgets/lv_cont.c ****                 break;
 1349              		.loc 1 780 29 is_stmt 0 view .LVU405
 1350 034a B9F1000F 		cmp	r9, #0
 1351 034e 09D0     		beq	.L62
 780:lvgl/src/lv_widgets/lv_cont.c ****                 break;
 1352              		.loc 1 780 46 discriminator 1 view .LVU406
 1353 0350 BDF91630 		ldrsh	r3, [sp, #22]
ARM GAS  D:\Temp\cchslsHM.s 			page 52


 1354 0354 BDF90620 		ldrsh	r2, [sp, #6]
 780:lvgl/src/lv_widgets/lv_cont.c ****                 break;
 1355              		.loc 1 780 29 discriminator 1 view .LVU407
 1356 0358 9342     		cmp	r3, r2
 1357 035a B8BF     		it	lt
 1358 035c 1346     		movlt	r3, r2
 1359              	.L63:
 780:lvgl/src/lv_widgets/lv_cont.c ****                 break;
 1360              		.loc 1 780 29 discriminator 4 view .LVU408
 1361 035e ADF81E30 		strh	r3, [sp, #30]	@ movhi
 781:lvgl/src/lv_widgets/lv_cont.c ****             default:
 1362              		.loc 1 781 17 is_stmt 1 discriminator 4 view .LVU409
 1363 0362 93E7     		b	.L61
 1364              	.L62:
 780:lvgl/src/lv_widgets/lv_cont.c ****                 break;
 1365              		.loc 1 780 29 is_stmt 0 discriminator 2 view .LVU410
 1366 0364 BDF91630 		ldrsh	r3, [sp, #22]
 1367 0368 F9E7     		b	.L63
 1368              	.L86:
 1369 036a 00BF     		.align	2
 1370              	.L85:
 1371 036c 00000000 		.word	.LANCHOR0
 1372              	.L82:
 787:lvgl/src/lv_widgets/lv_cont.c ****            cont->coords.y2 != new_area.y2) {
 1373              		.loc 1 787 92 discriminator 2 view .LVU411
 1374 0370 B4F91420 		ldrsh	r2, [r4, #20]
 787:lvgl/src/lv_widgets/lv_cont.c ****            cont->coords.y2 != new_area.y2) {
 1375              		.loc 1 787 107 discriminator 2 view .LVU412
 1376 0374 BDF91C30 		ldrsh	r3, [sp, #28]
 787:lvgl/src/lv_widgets/lv_cont.c ****            cont->coords.y2 != new_area.y2) {
 1377              		.loc 1 787 77 discriminator 2 view .LVU413
 1378 0378 9A42     		cmp	r2, r3
 1379 037a 93D1     		bne	.L64
 788:lvgl/src/lv_widgets/lv_cont.c **** 
 1380              		.loc 1 788 24 discriminator 3 view .LVU414
 1381 037c B4F91620 		ldrsh	r2, [r4, #22]
 788:lvgl/src/lv_widgets/lv_cont.c **** 
 1382              		.loc 1 788 39 discriminator 3 view .LVU415
 1383 0380 BDF91E30 		ldrsh	r3, [sp, #30]
 787:lvgl/src/lv_widgets/lv_cont.c ****            cont->coords.y2 != new_area.y2) {
 1384              		.loc 1 787 111 discriminator 3 view .LVU416
 1385 0384 9A42     		cmp	r2, r3
 1386 0386 8DD1     		bne	.L64
 1387 0388 57E6     		b	.L32
 1388              	.LVL146:
 1389              	.L83:
 1390              	.LBB180:
 1391              	.LBB177:
 1392              	.LBB175:
 1393              		.loc 4 225 5 is_stmt 1 view .LVU417
 1394              		.loc 4 225 5 is_stmt 0 view .LVU418
 1395              	.LBE175:
 1396              	.LBE177:
 1397              	.LBE180:
 792:lvgl/src/lv_widgets/lv_cont.c **** 
 1398              		.loc 1 792 13 is_stmt 1 view .LVU419
 1399 038a 2046     		mov	r0, r4
ARM GAS  D:\Temp\cchslsHM.s 			page 53


 1400 038c FFF7FEFF 		bl	lv_obj_invalidate
 1401              	.LVL147:
 795:lvgl/src/lv_widgets/lv_cont.c **** 
 1402              		.loc 1 795 13 view .LVU420
 795:lvgl/src/lv_widgets/lv_cont.c **** 
 1403              		.loc 1 795 17 is_stmt 0 view .LVU421
 1404 0390 E369     		ldr	r3, [r4, #28]
 795:lvgl/src/lv_widgets/lv_cont.c **** 
 1405              		.loc 1 795 13 view .LVU422
 1406 0392 02AA     		add	r2, sp, #8
 1407 0394 0221     		movs	r1, #2
 1408 0396 2046     		mov	r0, r4
 1409 0398 9847     		blx	r3
 1410              	.LVL148:
 798:lvgl/src/lv_widgets/lv_cont.c **** 
 1411              		.loc 1 798 13 is_stmt 1 view .LVU423
 798:lvgl/src/lv_widgets/lv_cont.c **** 
 1412              		.loc 1 798 16 is_stmt 0 view .LVU424
 1413 039a D8F81C30 		ldr	r3, [r8, #28]
 798:lvgl/src/lv_widgets/lv_cont.c **** 
 1414              		.loc 1 798 13 view .LVU425
 1415 039e 2246     		mov	r2, r4
 1416 03a0 0121     		movs	r1, #1
 1417 03a2 4046     		mov	r0, r8
 1418 03a4 9847     		blx	r3
 1419              	.LVL149:
 800:lvgl/src/lv_widgets/lv_cont.c ****                 lv_obj_realign(cont);
 1420              		.loc 1 800 13 is_stmt 1 view .LVU426
 800:lvgl/src/lv_widgets/lv_cont.c ****                 lv_obj_realign(cont);
 1421              		.loc 1 800 16 is_stmt 0 view .LVU427
 1422 03a6 2046     		mov	r0, r4
 1423 03a8 FFF7FEFF 		bl	lv_obj_get_auto_realign
 1424              	.LVL150:
 800:lvgl/src/lv_widgets/lv_cont.c ****                 lv_obj_realign(cont);
 1425              		.loc 1 800 15 view .LVU428
 1426 03ac 88B9     		cbnz	r0, .L84
 1427              	.L68:
 805:lvgl/src/lv_widgets/lv_cont.c ****                 child_i->signal_cb(child_i, LV_SIGNAL_PARENT_SIZE_CHG, &ori);
 1428              		.loc 1 805 13 is_stmt 1 view .LVU429
 1429 03ae 3846     		mov	r0, r7
 1430 03b0 FFF7FEFF 		bl	_lv_ll_get_head
 1431              	.LVL151:
 1432 03b4 0446     		mov	r4, r0
 1433              	.LVL152:
 1434              	.L69:
 805:lvgl/src/lv_widgets/lv_cont.c ****                 child_i->signal_cb(child_i, LV_SIGNAL_PARENT_SIZE_CHG, &ori);
 1435              		.loc 1 805 13 is_stmt 0 discriminator 1 view .LVU430
 1436 03b6 002C     		cmp	r4, #0
 1437 03b8 3FF43FAE 		beq	.L32
 806:lvgl/src/lv_widgets/lv_cont.c ****             }
 1438              		.loc 1 806 17 is_stmt 1 discriminator 3 view .LVU431
 806:lvgl/src/lv_widgets/lv_cont.c ****             }
 1439              		.loc 1 806 24 is_stmt 0 discriminator 3 view .LVU432
 1440 03bc E369     		ldr	r3, [r4, #28]
 806:lvgl/src/lv_widgets/lv_cont.c ****             }
 1441              		.loc 1 806 17 discriminator 3 view .LVU433
 1442 03be 02AA     		add	r2, sp, #8
ARM GAS  D:\Temp\cchslsHM.s 			page 54


 1443 03c0 0321     		movs	r1, #3
 1444 03c2 2046     		mov	r0, r4
 806:lvgl/src/lv_widgets/lv_cont.c ****             }
 1445              		.loc 1 806 17 discriminator 3 view .LVU434
 1446 03c4 9847     		blx	r3
 1447              	.LVL153:
 805:lvgl/src/lv_widgets/lv_cont.c ****                 child_i->signal_cb(child_i, LV_SIGNAL_PARENT_SIZE_CHG, &ori);
 1448              		.loc 1 805 13 discriminator 3 view .LVU435
 1449 03c6 2146     		mov	r1, r4
 1450 03c8 3846     		mov	r0, r7
 1451 03ca FFF7FEFF 		bl	_lv_ll_get_next
 1452              	.LVL154:
 1453 03ce 0446     		mov	r4, r0
 1454              	.LVL155:
 805:lvgl/src/lv_widgets/lv_cont.c ****                 child_i->signal_cb(child_i, LV_SIGNAL_PARENT_SIZE_CHG, &ori);
 1455              		.loc 1 805 13 discriminator 3 view .LVU436
 1456 03d0 F1E7     		b	.L69
 1457              	.LVL156:
 1458              	.L84:
 801:lvgl/src/lv_widgets/lv_cont.c ****             }
 1459              		.loc 1 801 17 is_stmt 1 view .LVU437
 1460 03d2 2046     		mov	r0, r4
 1461 03d4 FFF7FEFF 		bl	lv_obj_realign
 1462              	.LVL157:
 1463 03d8 E9E7     		b	.L68
 1464              	.LBE182:
 1465              		.cfi_endproc
 1466              	.LFE476:
 1468              		.section	.text.lv_cont_create,"ax",%progbits
 1469              		.align	1
 1470              		.global	lv_cont_create
 1471              		.syntax unified
 1472              		.thumb
 1473              		.thumb_func
 1474              		.fpu fpv4-sp-d16
 1476              	lv_cont_create:
 1477              	.LVL158:
 1478              	.LFB460:
  72:lvgl/src/lv_widgets/lv_cont.c **** 
 1479              		.loc 1 72 1 view -0
 1480              		.cfi_startproc
 1481              		@ args = 0, pretend = 0, frame = 0
 1482              		@ frame_needed = 0, uses_anonymous_args = 0
  72:lvgl/src/lv_widgets/lv_cont.c **** 
 1483              		.loc 1 72 1 is_stmt 0 view .LVU439
 1484 0000 F8B5     		push	{r3, r4, r5, r6, r7, lr}
 1485              	.LCFI11:
 1486              		.cfi_def_cfa_offset 24
 1487              		.cfi_offset 3, -24
 1488              		.cfi_offset 4, -20
 1489              		.cfi_offset 5, -16
 1490              		.cfi_offset 6, -12
 1491              		.cfi_offset 7, -8
 1492              		.cfi_offset 14, -4
 1493 0002 0746     		mov	r7, r0
 1494 0004 0E46     		mov	r6, r1
  74:lvgl/src/lv_widgets/lv_cont.c **** 
ARM GAS  D:\Temp\cchslsHM.s 			page 55


 1495              		.loc 1 74 45 is_stmt 1 view .LVU440
  77:lvgl/src/lv_widgets/lv_cont.c ****     LV_ASSERT_MEM(cont);
 1496              		.loc 1 77 5 view .LVU441
  77:lvgl/src/lv_widgets/lv_cont.c ****     LV_ASSERT_MEM(cont);
 1497              		.loc 1 77 23 is_stmt 0 view .LVU442
 1498 0006 FFF7FEFF 		bl	lv_obj_create
 1499              	.LVL159:
  77:lvgl/src/lv_widgets/lv_cont.c ****     LV_ASSERT_MEM(cont);
 1500              		.loc 1 77 23 view .LVU443
 1501 000a 0546     		mov	r5, r0
 1502              	.LVL160:
  78:lvgl/src/lv_widgets/lv_cont.c ****     if(cont == NULL) return NULL;
 1503              		.loc 1 78 5 is_stmt 1 view .LVU444
  78:lvgl/src/lv_widgets/lv_cont.c ****     if(cont == NULL) return NULL;
 1504              		.loc 1 78 5 view .LVU445
 1505 000c FFF7FEFF 		bl	lv_debug_check_null
 1506              	.LVL161:
  78:lvgl/src/lv_widgets/lv_cont.c ****     if(cont == NULL) return NULL;
 1507              		.loc 1 78 5 is_stmt 0 view .LVU446
 1508 0010 C8B1     		cbz	r0, .L98
  78:lvgl/src/lv_widgets/lv_cont.c ****     if(cont == NULL) return NULL;
 1509              		.loc 1 78 24 is_stmt 1 discriminator 2 view .LVU447
  79:lvgl/src/lv_widgets/lv_cont.c **** 
 1510              		.loc 1 79 5 discriminator 2 view .LVU448
  79:lvgl/src/lv_widgets/lv_cont.c **** 
 1511              		.loc 1 79 7 is_stmt 0 discriminator 2 view .LVU449
 1512 0012 002D     		cmp	r5, #0
 1513 0014 65D0     		beq	.L87
  81:lvgl/src/lv_widgets/lv_cont.c ****     if(ancestor_design == NULL) ancestor_design = lv_obj_get_design_cb(cont);
 1514              		.loc 1 81 5 is_stmt 1 view .LVU450
  81:lvgl/src/lv_widgets/lv_cont.c ****     if(ancestor_design == NULL) ancestor_design = lv_obj_get_design_cb(cont);
 1515              		.loc 1 81 24 is_stmt 0 view .LVU451
 1516 0016 374B     		ldr	r3, .L103
 1517 0018 1B68     		ldr	r3, [r3]
  81:lvgl/src/lv_widgets/lv_cont.c ****     if(ancestor_design == NULL) ancestor_design = lv_obj_get_design_cb(cont);
 1518              		.loc 1 81 7 view .LVU452
 1519 001a D3B1     		cbz	r3, .L99
 1520              	.L91:
  82:lvgl/src/lv_widgets/lv_cont.c **** 
 1521              		.loc 1 82 5 is_stmt 1 view .LVU453
  82:lvgl/src/lv_widgets/lv_cont.c **** 
 1522              		.loc 1 82 24 is_stmt 0 view .LVU454
 1523 001c 364B     		ldr	r3, .L103+4
 1524 001e 1B68     		ldr	r3, [r3]
  82:lvgl/src/lv_widgets/lv_cont.c **** 
 1525              		.loc 1 82 7 view .LVU455
 1526 0020 EBB1     		cbz	r3, .L100
 1527              	.L92:
  84:lvgl/src/lv_widgets/lv_cont.c ****     lv_cont_ext_t * ext = lv_obj_get_ext_attr(cont);
 1528              		.loc 1 84 5 is_stmt 1 view .LVU456
 1529 0022 0221     		movs	r1, #2
 1530 0024 2846     		mov	r0, r5
 1531 0026 FFF7FEFF 		bl	lv_obj_allocate_ext_attr
 1532              	.LVL162:
  85:lvgl/src/lv_widgets/lv_cont.c ****     if(ext == NULL) {
 1533              		.loc 1 85 5 view .LVU457
  85:lvgl/src/lv_widgets/lv_cont.c ****     if(ext == NULL) {
ARM GAS  D:\Temp\cchslsHM.s 			page 56


 1534              		.loc 1 85 27 is_stmt 0 view .LVU458
 1535 002a 2846     		mov	r0, r5
 1536 002c FFF7FEFF 		bl	lv_obj_get_ext_attr
 1537              	.LVL163:
  86:lvgl/src/lv_widgets/lv_cont.c ****         lv_obj_del(cont);
 1538              		.loc 1 86 5 is_stmt 1 view .LVU459
  86:lvgl/src/lv_widgets/lv_cont.c ****         lv_obj_del(cont);
 1539              		.loc 1 86 7 is_stmt 0 view .LVU460
 1540 0030 0446     		mov	r4, r0
 1541 0032 D0B1     		cbz	r0, .L101
  91:lvgl/src/lv_widgets/lv_cont.c ****     ext->fit_left   = LV_FIT_NONE;
 1542              		.loc 1 91 5 is_stmt 1 view .LVU461
  91:lvgl/src/lv_widgets/lv_cont.c ****     ext->fit_left   = LV_FIT_NONE;
 1543              		.loc 1 91 5 view .LVU462
 1544 0034 FFF7FEFF 		bl	lv_debug_check_null
 1545              	.LVL164:
  91:lvgl/src/lv_widgets/lv_cont.c ****     ext->fit_left   = LV_FIT_NONE;
 1546              		.loc 1 91 5 is_stmt 0 view .LVU463
 1547 0038 E0B9     		cbnz	r0, .L94
  91:lvgl/src/lv_widgets/lv_cont.c ****     ext->fit_left   = LV_FIT_NONE;
 1548              		.loc 1 91 5 is_stmt 1 discriminator 1 view .LVU464
  91:lvgl/src/lv_widgets/lv_cont.c ****     ext->fit_left   = LV_FIT_NONE;
 1549              		.loc 1 91 5 discriminator 1 view .LVU465
 1550 003a 2246     		mov	r2, r4
 1551 003c 0023     		movs	r3, #0
 1552 003e 2F48     		ldr	r0, .L103+8
 1553 0040 FFF7FEFF 		bl	lv_debug_log_error
 1554              	.LVL165:
 1555              	.L95:
  91:lvgl/src/lv_widgets/lv_cont.c ****     ext->fit_left   = LV_FIT_NONE;
 1556              		.loc 1 91 5 discriminator 2 view .LVU466
  91:lvgl/src/lv_widgets/lv_cont.c ****     ext->fit_left   = LV_FIT_NONE;
 1557              		.loc 1 91 5 discriminator 2 view .LVU467
 1558 0044 FEE7     		b	.L95
 1559              	.LVL166:
 1560              	.L98:
  78:lvgl/src/lv_widgets/lv_cont.c ****     if(cont == NULL) return NULL;
 1561              		.loc 1 78 5 discriminator 1 view .LVU468
  78:lvgl/src/lv_widgets/lv_cont.c ****     if(cont == NULL) return NULL;
 1562              		.loc 1 78 5 discriminator 1 view .LVU469
 1563 0046 2A46     		mov	r2, r5
 1564 0048 0023     		movs	r3, #0
 1565 004a 2C48     		ldr	r0, .L103+8
 1566 004c FFF7FEFF 		bl	lv_debug_log_error
 1567              	.LVL167:
 1568              	.L89:
  78:lvgl/src/lv_widgets/lv_cont.c ****     if(cont == NULL) return NULL;
 1569              		.loc 1 78 5 discriminator 1 view .LVU470
  78:lvgl/src/lv_widgets/lv_cont.c ****     if(cont == NULL) return NULL;
 1570              		.loc 1 78 5 discriminator 1 view .LVU471
 1571 0050 FEE7     		b	.L89
 1572              	.L99:
  81:lvgl/src/lv_widgets/lv_cont.c ****     if(ancestor_design == NULL) ancestor_design = lv_obj_get_design_cb(cont);
 1573              		.loc 1 81 33 discriminator 1 view .LVU472
  81:lvgl/src/lv_widgets/lv_cont.c ****     if(ancestor_design == NULL) ancestor_design = lv_obj_get_design_cb(cont);
 1574              		.loc 1 81 51 is_stmt 0 discriminator 1 view .LVU473
 1575 0052 2846     		mov	r0, r5
ARM GAS  D:\Temp\cchslsHM.s 			page 57


 1576 0054 FFF7FEFF 		bl	lv_obj_get_signal_cb
 1577              	.LVL168:
  81:lvgl/src/lv_widgets/lv_cont.c ****     if(ancestor_design == NULL) ancestor_design = lv_obj_get_design_cb(cont);
 1578              		.loc 1 81 49 discriminator 1 view .LVU474
 1579 0058 264B     		ldr	r3, .L103
 1580 005a 1860     		str	r0, [r3]
 1581 005c DEE7     		b	.L91
 1582              	.L100:
  82:lvgl/src/lv_widgets/lv_cont.c **** 
 1583              		.loc 1 82 33 is_stmt 1 discriminator 1 view .LVU475
  82:lvgl/src/lv_widgets/lv_cont.c **** 
 1584              		.loc 1 82 51 is_stmt 0 discriminator 1 view .LVU476
 1585 005e 2846     		mov	r0, r5
 1586 0060 FFF7FEFF 		bl	lv_obj_get_design_cb
 1587              	.LVL169:
  82:lvgl/src/lv_widgets/lv_cont.c **** 
 1588              		.loc 1 82 49 discriminator 1 view .LVU477
 1589 0064 244B     		ldr	r3, .L103+4
 1590 0066 1860     		str	r0, [r3]
 1591 0068 DBE7     		b	.L92
 1592              	.LVL170:
 1593              	.L101:
  87:lvgl/src/lv_widgets/lv_cont.c ****         return NULL;
 1594              		.loc 1 87 9 is_stmt 1 view .LVU478
 1595 006a 2846     		mov	r0, r5
 1596              	.LVL171:
  87:lvgl/src/lv_widgets/lv_cont.c ****         return NULL;
 1597              		.loc 1 87 9 is_stmt 0 view .LVU479
 1598 006c FFF7FEFF 		bl	lv_obj_del
 1599              	.LVL172:
  88:lvgl/src/lv_widgets/lv_cont.c ****     }
 1600              		.loc 1 88 9 is_stmt 1 view .LVU480
  88:lvgl/src/lv_widgets/lv_cont.c ****     }
 1601              		.loc 1 88 16 is_stmt 0 view .LVU481
 1602 0070 0025     		movs	r5, #0
 1603              	.LVL173:
  88:lvgl/src/lv_widgets/lv_cont.c ****     }
 1604              		.loc 1 88 16 view .LVU482
 1605 0072 36E0     		b	.L87
 1606              	.LVL174:
 1607              	.L94:
  91:lvgl/src/lv_widgets/lv_cont.c ****     ext->fit_left   = LV_FIT_NONE;
 1608              		.loc 1 91 23 is_stmt 1 discriminator 2 view .LVU483
  92:lvgl/src/lv_widgets/lv_cont.c ****     ext->fit_right  = LV_FIT_NONE;
 1609              		.loc 1 92 5 discriminator 2 view .LVU484
  92:lvgl/src/lv_widgets/lv_cont.c ****     ext->fit_right  = LV_FIT_NONE;
 1610              		.loc 1 92 21 is_stmt 0 discriminator 2 view .LVU485
 1611 0074 2378     		ldrb	r3, [r4]	@ zero_extendqisi2
  93:lvgl/src/lv_widgets/lv_cont.c ****     ext->fit_top    = LV_FIT_NONE;
 1612              		.loc 1 93 5 is_stmt 1 discriminator 2 view .LVU486
  94:lvgl/src/lv_widgets/lv_cont.c ****     ext->fit_bottom = LV_FIT_NONE;
 1613              		.loc 1 94 5 discriminator 2 view .LVU487
  94:lvgl/src/lv_widgets/lv_cont.c ****     ext->fit_bottom = LV_FIT_NONE;
 1614              		.loc 1 94 21 is_stmt 0 discriminator 2 view .LVU488
 1615 0076 6278     		ldrb	r2, [r4, #1]	@ zero_extendqisi2
  95:lvgl/src/lv_widgets/lv_cont.c ****     ext->layout     = LV_LAYOUT_OFF;
 1616              		.loc 1 95 5 is_stmt 1 discriminator 2 view .LVU489
ARM GAS  D:\Temp\cchslsHM.s 			page 58


  95:lvgl/src/lv_widgets/lv_cont.c ****     ext->layout     = LV_LAYOUT_OFF;
 1617              		.loc 1 95 21 is_stmt 0 discriminator 2 view .LVU490
 1618 0078 02F0FC02 		and	r2, r2, #252
 1619 007c 6FF38302 		bfc	r2, #2, #2
 1620 0080 6270     		strb	r2, [r4, #1]
  96:lvgl/src/lv_widgets/lv_cont.c **** 
 1621              		.loc 1 96 5 is_stmt 1 discriminator 2 view .LVU491
  96:lvgl/src/lv_widgets/lv_cont.c **** 
 1622              		.loc 1 96 21 is_stmt 0 discriminator 2 view .LVU492
 1623 0082 03F00F03 		and	r3, r3, #15
 1624 0086 6FF30303 		bfc	r3, #0, #4
 1625 008a 2370     		strb	r3, [r4]
  98:lvgl/src/lv_widgets/lv_cont.c **** 
 1626              		.loc 1 98 5 is_stmt 1 discriminator 2 view .LVU493
 1627 008c 1C49     		ldr	r1, .L103+12
 1628 008e 2846     		mov	r0, r5
 1629 0090 FFF7FEFF 		bl	lv_obj_set_signal_cb
 1630              	.LVL175:
 101:lvgl/src/lv_widgets/lv_cont.c ****         /*Set the default styles if it's not screen*/
 1631              		.loc 1 101 5 discriminator 2 view .LVU494
 101:lvgl/src/lv_widgets/lv_cont.c ****         /*Set the default styles if it's not screen*/
 1632              		.loc 1 101 7 is_stmt 0 discriminator 2 view .LVU495
 1633 0094 3EB3     		cbz	r6, .L102
 1634              	.LBB183:
 110:lvgl/src/lv_widgets/lv_cont.c ****         ext->fit_left            = copy_ext->fit_left;
 1635              		.loc 1 110 9 is_stmt 1 view .LVU496
 110:lvgl/src/lv_widgets/lv_cont.c ****         ext->fit_left            = copy_ext->fit_left;
 1636              		.loc 1 110 36 is_stmt 0 view .LVU497
 1637 0096 3046     		mov	r0, r6
 1638 0098 FFF7FEFF 		bl	lv_obj_get_ext_attr
 1639              	.LVL176:
 111:lvgl/src/lv_widgets/lv_cont.c ****         ext->fit_right           = copy_ext->fit_right;
 1640              		.loc 1 111 9 is_stmt 1 view .LVU498
 111:lvgl/src/lv_widgets/lv_cont.c ****         ext->fit_right           = copy_ext->fit_right;
 1641              		.loc 1 111 44 is_stmt 0 view .LVU499
 1642 009c 0378     		ldrb	r3, [r0]	@ zero_extendqisi2
 1643 009e C3F30113 		ubfx	r3, r3, #4, #2
 111:lvgl/src/lv_widgets/lv_cont.c ****         ext->fit_right           = copy_ext->fit_right;
 1644              		.loc 1 111 34 view .LVU500
 1645 00a2 2278     		ldrb	r2, [r4]	@ zero_extendqisi2
 1646 00a4 63F30512 		bfi	r2, r3, #4, #2
 1647 00a8 2270     		strb	r2, [r4]
 112:lvgl/src/lv_widgets/lv_cont.c ****         ext->fit_top             = copy_ext->fit_top;
 1648              		.loc 1 112 9 is_stmt 1 view .LVU501
 112:lvgl/src/lv_widgets/lv_cont.c ****         ext->fit_top             = copy_ext->fit_top;
 1649              		.loc 1 112 44 is_stmt 0 view .LVU502
 1650 00aa 0378     		ldrb	r3, [r0]	@ zero_extendqisi2
 1651 00ac 9B09     		lsrs	r3, r3, #6
 112:lvgl/src/lv_widgets/lv_cont.c ****         ext->fit_top             = copy_ext->fit_top;
 1652              		.loc 1 112 34 view .LVU503
 1653 00ae D2B2     		uxtb	r2, r2
 1654 00b0 63F38712 		bfi	r2, r3, #6, #2
 1655 00b4 2270     		strb	r2, [r4]
 113:lvgl/src/lv_widgets/lv_cont.c ****         ext->fit_bottom          = copy_ext->fit_bottom;
 1656              		.loc 1 113 9 is_stmt 1 view .LVU504
 113:lvgl/src/lv_widgets/lv_cont.c ****         ext->fit_bottom          = copy_ext->fit_bottom;
 1657              		.loc 1 113 44 is_stmt 0 view .LVU505
ARM GAS  D:\Temp\cchslsHM.s 			page 59


 1658 00b6 4278     		ldrb	r2, [r0, #1]	@ zero_extendqisi2
 113:lvgl/src/lv_widgets/lv_cont.c ****         ext->fit_bottom          = copy_ext->fit_bottom;
 1659              		.loc 1 113 34 view .LVU506
 1660 00b8 6378     		ldrb	r3, [r4, #1]	@ zero_extendqisi2
 1661 00ba 62F30103 		bfi	r3, r2, #0, #2
 1662 00be 6370     		strb	r3, [r4, #1]
 114:lvgl/src/lv_widgets/lv_cont.c ****         ext->layout              = copy_ext->layout;
 1663              		.loc 1 114 9 is_stmt 1 view .LVU507
 114:lvgl/src/lv_widgets/lv_cont.c ****         ext->layout              = copy_ext->layout;
 1664              		.loc 1 114 44 is_stmt 0 view .LVU508
 1665 00c0 4378     		ldrb	r3, [r0, #1]	@ zero_extendqisi2
 1666 00c2 C3F38103 		ubfx	r3, r3, #2, #2
 114:lvgl/src/lv_widgets/lv_cont.c ****         ext->layout              = copy_ext->layout;
 1667              		.loc 1 114 34 view .LVU509
 1668 00c6 6278     		ldrb	r2, [r4, #1]	@ zero_extendqisi2
 1669 00c8 63F38302 		bfi	r2, r3, #2, #2
 1670 00cc 6270     		strb	r2, [r4, #1]
 115:lvgl/src/lv_widgets/lv_cont.c **** 
 1671              		.loc 1 115 9 is_stmt 1 view .LVU510
 115:lvgl/src/lv_widgets/lv_cont.c **** 
 1672              		.loc 1 115 44 is_stmt 0 view .LVU511
 1673 00ce 0278     		ldrb	r2, [r0]	@ zero_extendqisi2
 115:lvgl/src/lv_widgets/lv_cont.c **** 
 1674              		.loc 1 115 34 view .LVU512
 1675 00d0 2378     		ldrb	r3, [r4]	@ zero_extendqisi2
 1676 00d2 62F30303 		bfi	r3, r2, #0, #4
 1677 00d6 2370     		strb	r3, [r4]
 118:lvgl/src/lv_widgets/lv_cont.c ****     }
 1678              		.loc 1 118 9 is_stmt 1 view .LVU513
 1679 00d8 FF22     		movs	r2, #255
 1680 00da 1146     		mov	r1, r2
 1681 00dc 2846     		mov	r0, r5
 1682              	.LVL177:
 118:lvgl/src/lv_widgets/lv_cont.c ****     }
 1683              		.loc 1 118 9 is_stmt 0 view .LVU514
 1684 00de FFF7FEFF 		bl	lv_obj_refresh_style
 1685              	.LVL178:
 1686              	.L87:
 118:lvgl/src/lv_widgets/lv_cont.c ****     }
 1687              		.loc 1 118 9 view .LVU515
 1688              	.LBE183:
 124:lvgl/src/lv_widgets/lv_cont.c **** 
 1689              		.loc 1 124 1 view .LVU516
 1690 00e2 2846     		mov	r0, r5
 1691 00e4 F8BD     		pop	{r3, r4, r5, r6, r7, pc}
 1692              	.LVL179:
 1693              	.L102:
 103:lvgl/src/lv_widgets/lv_cont.c ****             lv_theme_apply(cont, LV_THEME_CONT);
 1694              		.loc 1 103 9 is_stmt 1 view .LVU517
 103:lvgl/src/lv_widgets/lv_cont.c ****             lv_theme_apply(cont, LV_THEME_CONT);
 1695              		.loc 1 103 11 is_stmt 0 view .LVU518
 1696 00e6 002F     		cmp	r7, #0
 1697 00e8 FBD0     		beq	.L87
 104:lvgl/src/lv_widgets/lv_cont.c ****         }
 1698              		.loc 1 104 13 is_stmt 1 view .LVU519
 1699 00ea 0B21     		movs	r1, #11
 1700 00ec 2846     		mov	r0, r5
ARM GAS  D:\Temp\cchslsHM.s 			page 60


 1701 00ee FFF7FEFF 		bl	lv_theme_apply
 1702              	.LVL180:
 1703 00f2 F6E7     		b	.L87
 1704              	.L104:
 1705              		.align	2
 1706              	.L103:
 1707 00f4 00000000 		.word	.LANCHOR1
 1708 00f8 00000000 		.word	.LANCHOR2
 1709 00fc 00000000 		.word	.LC0
 1710 0100 00000000 		.word	lv_cont_signal
 1711              		.cfi_endproc
 1712              	.LFE460:
 1714              		.section	.text.lv_cont_set_layout,"ax",%progbits
 1715              		.align	1
 1716              		.global	lv_cont_set_layout
 1717              		.syntax unified
 1718              		.thumb
 1719              		.thumb_func
 1720              		.fpu fpv4-sp-d16
 1722              	lv_cont_set_layout:
 1723              	.LVL181:
 1724              	.LFB461:
 136:lvgl/src/lv_widgets/lv_cont.c ****     LV_ASSERT_OBJ(cont, LV_OBJX_NAME);
 1725              		.loc 1 136 1 view -0
 1726              		.cfi_startproc
 1727              		@ args = 0, pretend = 0, frame = 0
 1728              		@ frame_needed = 0, uses_anonymous_args = 0
 136:lvgl/src/lv_widgets/lv_cont.c ****     LV_ASSERT_OBJ(cont, LV_OBJX_NAME);
 1729              		.loc 1 136 1 is_stmt 0 view .LVU521
 1730 0000 38B5     		push	{r3, r4, r5, lr}
 1731              	.LCFI12:
 1732              		.cfi_def_cfa_offset 16
 1733              		.cfi_offset 3, -16
 1734              		.cfi_offset 4, -12
 1735              		.cfi_offset 5, -8
 1736              		.cfi_offset 14, -4
 1737 0002 0446     		mov	r4, r0
 1738 0004 0D46     		mov	r5, r1
 137:lvgl/src/lv_widgets/lv_cont.c **** 
 1739              		.loc 1 137 5 is_stmt 1 view .LVU522
 137:lvgl/src/lv_widgets/lv_cont.c **** 
 1740              		.loc 1 137 5 view .LVU523
 1741 0006 FFF7FEFF 		bl	lv_debug_check_null
 1742              	.LVL182:
 137:lvgl/src/lv_widgets/lv_cont.c **** 
 1743              		.loc 1 137 5 is_stmt 0 view .LVU524
 1744 000a 28B9     		cbnz	r0, .L106
 137:lvgl/src/lv_widgets/lv_cont.c **** 
 1745              		.loc 1 137 5 is_stmt 1 discriminator 1 view .LVU525
 137:lvgl/src/lv_widgets/lv_cont.c **** 
 1746              		.loc 1 137 5 discriminator 1 view .LVU526
 1747 000c 2246     		mov	r2, r4
 1748 000e 0023     		movs	r3, #0
 1749 0010 0A48     		ldr	r0, .L110
 1750 0012 FFF7FEFF 		bl	lv_debug_log_error
 1751              	.LVL183:
 1752              	.L107:
ARM GAS  D:\Temp\cchslsHM.s 			page 61


 137:lvgl/src/lv_widgets/lv_cont.c **** 
 1753              		.loc 1 137 5 discriminator 1 view .LVU527
 137:lvgl/src/lv_widgets/lv_cont.c **** 
 1754              		.loc 1 137 5 discriminator 1 view .LVU528
 1755 0016 FEE7     		b	.L107
 1756              	.L106:
 137:lvgl/src/lv_widgets/lv_cont.c **** 
 1757              		.loc 1 137 38 discriminator 2 view .LVU529
 139:lvgl/src/lv_widgets/lv_cont.c ****     if(ext->layout == layout) return;
 1758              		.loc 1 139 5 discriminator 2 view .LVU530
 139:lvgl/src/lv_widgets/lv_cont.c ****     if(ext->layout == layout) return;
 1759              		.loc 1 139 27 is_stmt 0 discriminator 2 view .LVU531
 1760 0018 2046     		mov	r0, r4
 1761 001a FFF7FEFF 		bl	lv_obj_get_ext_attr
 1762              	.LVL184:
 140:lvgl/src/lv_widgets/lv_cont.c **** 
 1763              		.loc 1 140 5 is_stmt 1 discriminator 2 view .LVU532
 140:lvgl/src/lv_widgets/lv_cont.c **** 
 1764              		.loc 1 140 11 is_stmt 0 discriminator 2 view .LVU533
 1765 001e 0378     		ldrb	r3, [r0]	@ zero_extendqisi2
 1766 0020 03F00F03 		and	r3, r3, #15
 140:lvgl/src/lv_widgets/lv_cont.c **** 
 1767              		.loc 1 140 7 discriminator 2 view .LVU534
 1768 0024 AB42     		cmp	r3, r5
 1769 0026 08D0     		beq	.L105
 142:lvgl/src/lv_widgets/lv_cont.c **** 
 1770              		.loc 1 142 5 is_stmt 1 view .LVU535
 142:lvgl/src/lv_widgets/lv_cont.c **** 
 1771              		.loc 1 142 17 is_stmt 0 view .LVU536
 1772 0028 0378     		ldrb	r3, [r0]	@ zero_extendqisi2
 1773 002a 65F30303 		bfi	r3, r5, #0, #4
 1774 002e 0370     		strb	r3, [r0]
 145:lvgl/src/lv_widgets/lv_cont.c **** }
 1775              		.loc 1 145 5 is_stmt 1 view .LVU537
 145:lvgl/src/lv_widgets/lv_cont.c **** }
 1776              		.loc 1 145 9 is_stmt 0 view .LVU538
 1777 0030 E369     		ldr	r3, [r4, #28]
 145:lvgl/src/lv_widgets/lv_cont.c **** }
 1778              		.loc 1 145 5 view .LVU539
 1779 0032 0022     		movs	r2, #0
 1780 0034 0121     		movs	r1, #1
 1781 0036 2046     		mov	r0, r4
 1782              	.LVL185:
 145:lvgl/src/lv_widgets/lv_cont.c **** }
 1783              		.loc 1 145 5 view .LVU540
 1784 0038 9847     		blx	r3
 1785              	.LVL186:
 1786              	.L105:
 146:lvgl/src/lv_widgets/lv_cont.c **** 
 1787              		.loc 1 146 1 view .LVU541
 1788 003a 38BD     		pop	{r3, r4, r5, pc}
 1789              	.LVL187:
 1790              	.L111:
 146:lvgl/src/lv_widgets/lv_cont.c **** 
 1791              		.loc 1 146 1 view .LVU542
 1792              		.align	2
 1793              	.L110:
ARM GAS  D:\Temp\cchslsHM.s 			page 62


 1794 003c 00000000 		.word	.LC1
 1795              		.cfi_endproc
 1796              	.LFE461:
 1798              		.section	.text.lv_cont_set_fit4,"ax",%progbits
 1799              		.align	1
 1800              		.global	lv_cont_set_fit4
 1801              		.syntax unified
 1802              		.thumb
 1803              		.thumb_func
 1804              		.fpu fpv4-sp-d16
 1806              	lv_cont_set_fit4:
 1807              	.LVL188:
 1808              	.LFB462:
 158:lvgl/src/lv_widgets/lv_cont.c ****     LV_ASSERT_OBJ(cont, LV_OBJX_NAME);
 1809              		.loc 1 158 1 is_stmt 1 view -0
 1810              		.cfi_startproc
 1811              		@ args = 4, pretend = 0, frame = 0
 1812              		@ frame_needed = 0, uses_anonymous_args = 0
 158:lvgl/src/lv_widgets/lv_cont.c ****     LV_ASSERT_OBJ(cont, LV_OBJX_NAME);
 1813              		.loc 1 158 1 is_stmt 0 view .LVU544
 1814 0000 2DE9F041 		push	{r4, r5, r6, r7, r8, lr}
 1815              	.LCFI13:
 1816              		.cfi_def_cfa_offset 24
 1817              		.cfi_offset 4, -24
 1818              		.cfi_offset 5, -20
 1819              		.cfi_offset 6, -16
 1820              		.cfi_offset 7, -12
 1821              		.cfi_offset 8, -8
 1822              		.cfi_offset 14, -4
 1823 0004 0446     		mov	r4, r0
 1824 0006 8846     		mov	r8, r1
 1825 0008 1746     		mov	r7, r2
 1826 000a 1E46     		mov	r6, r3
 1827 000c 9DF81850 		ldrb	r5, [sp, #24]	@ zero_extendqisi2
 159:lvgl/src/lv_widgets/lv_cont.c **** 
 1828              		.loc 1 159 5 is_stmt 1 view .LVU545
 159:lvgl/src/lv_widgets/lv_cont.c **** 
 1829              		.loc 1 159 5 view .LVU546
 1830 0010 FFF7FEFF 		bl	lv_debug_check_null
 1831              	.LVL189:
 159:lvgl/src/lv_widgets/lv_cont.c **** 
 1832              		.loc 1 159 5 is_stmt 0 view .LVU547
 1833 0014 28B9     		cbnz	r0, .L113
 159:lvgl/src/lv_widgets/lv_cont.c **** 
 1834              		.loc 1 159 5 is_stmt 1 discriminator 1 view .LVU548
 159:lvgl/src/lv_widgets/lv_cont.c **** 
 1835              		.loc 1 159 5 discriminator 1 view .LVU549
 1836 0016 2246     		mov	r2, r4
 1837 0018 0023     		movs	r3, #0
 1838 001a 1848     		ldr	r0, .L119
 1839 001c FFF7FEFF 		bl	lv_debug_log_error
 1840              	.LVL190:
 1841              	.L114:
 159:lvgl/src/lv_widgets/lv_cont.c **** 
 1842              		.loc 1 159 5 discriminator 1 view .LVU550
 159:lvgl/src/lv_widgets/lv_cont.c **** 
 1843              		.loc 1 159 5 discriminator 1 view .LVU551
ARM GAS  D:\Temp\cchslsHM.s 			page 63


 1844 0020 FEE7     		b	.L114
 1845              	.L113:
 159:lvgl/src/lv_widgets/lv_cont.c **** 
 1846              		.loc 1 159 38 discriminator 2 view .LVU552
 161:lvgl/src/lv_widgets/lv_cont.c ****     lv_cont_ext_t * ext = lv_obj_get_ext_attr(cont);
 1847              		.loc 1 161 5 discriminator 2 view .LVU553
 1848 0022 2046     		mov	r0, r4
 1849 0024 FFF7FEFF 		bl	lv_obj_invalidate
 1850              	.LVL191:
 162:lvgl/src/lv_widgets/lv_cont.c ****     if(ext->fit_left == left && ext->fit_right == right && ext->fit_top == top && ext->fit_bottom =
 1851              		.loc 1 162 5 discriminator 2 view .LVU554
 162:lvgl/src/lv_widgets/lv_cont.c ****     if(ext->fit_left == left && ext->fit_right == right && ext->fit_top == top && ext->fit_bottom =
 1852              		.loc 1 162 27 is_stmt 0 discriminator 2 view .LVU555
 1853 0028 2046     		mov	r0, r4
 1854 002a FFF7FEFF 		bl	lv_obj_get_ext_attr
 1855              	.LVL192:
 163:lvgl/src/lv_widgets/lv_cont.c ****         return;
 1856              		.loc 1 163 5 is_stmt 1 discriminator 2 view .LVU556
 163:lvgl/src/lv_widgets/lv_cont.c ****         return;
 1857              		.loc 1 163 11 is_stmt 0 discriminator 2 view .LVU557
 1858 002e 0378     		ldrb	r3, [r0]	@ zero_extendqisi2
 1859 0030 C3F30113 		ubfx	r3, r3, #4, #2
 163:lvgl/src/lv_widgets/lv_cont.c ****         return;
 1860              		.loc 1 163 7 discriminator 2 view .LVU558
 1861 0034 4345     		cmp	r3, r8
 1862 0036 12D0     		beq	.L118
 1863              	.L115:
 167:lvgl/src/lv_widgets/lv_cont.c ****     ext->fit_right  = right;
 1864              		.loc 1 167 5 is_stmt 1 view .LVU559
 167:lvgl/src/lv_widgets/lv_cont.c ****     ext->fit_right  = right;
 1865              		.loc 1 167 21 is_stmt 0 view .LVU560
 1866 0038 0378     		ldrb	r3, [r0]	@ zero_extendqisi2
 1867 003a 68F30513 		bfi	r3, r8, #4, #2
 168:lvgl/src/lv_widgets/lv_cont.c ****     ext->fit_top    = top;
 1868              		.loc 1 168 5 is_stmt 1 view .LVU561
 168:lvgl/src/lv_widgets/lv_cont.c ****     ext->fit_top    = top;
 1869              		.loc 1 168 21 is_stmt 0 view .LVU562
 1870 003e 67F38713 		bfi	r3, r7, #6, #2
 1871 0042 0370     		strb	r3, [r0]
 169:lvgl/src/lv_widgets/lv_cont.c ****     ext->fit_bottom = bottom;
 1872              		.loc 1 169 5 is_stmt 1 view .LVU563
 169:lvgl/src/lv_widgets/lv_cont.c ****     ext->fit_bottom = bottom;
 1873              		.loc 1 169 21 is_stmt 0 view .LVU564
 1874 0044 4378     		ldrb	r3, [r0, #1]	@ zero_extendqisi2
 1875 0046 66F30103 		bfi	r3, r6, #0, #2
 170:lvgl/src/lv_widgets/lv_cont.c **** 
 1876              		.loc 1 170 5 is_stmt 1 view .LVU565
 170:lvgl/src/lv_widgets/lv_cont.c **** 
 1877              		.loc 1 170 21 is_stmt 0 view .LVU566
 1878 004a 65F38303 		bfi	r3, r5, #2, #2
 1879 004e 4370     		strb	r3, [r0, #1]
 173:lvgl/src/lv_widgets/lv_cont.c **** }
 1880              		.loc 1 173 5 is_stmt 1 view .LVU567
 173:lvgl/src/lv_widgets/lv_cont.c **** }
 1881              		.loc 1 173 9 is_stmt 0 view .LVU568
 1882 0050 E369     		ldr	r3, [r4, #28]
 173:lvgl/src/lv_widgets/lv_cont.c **** }
ARM GAS  D:\Temp\cchslsHM.s 			page 64


 1883              		.loc 1 173 5 view .LVU569
 1884 0052 0022     		movs	r2, #0
 1885 0054 0121     		movs	r1, #1
 1886 0056 2046     		mov	r0, r4
 1887              	.LVL193:
 173:lvgl/src/lv_widgets/lv_cont.c **** }
 1888              		.loc 1 173 5 view .LVU570
 1889 0058 9847     		blx	r3
 1890              	.LVL194:
 1891              	.L112:
 174:lvgl/src/lv_widgets/lv_cont.c **** 
 1892              		.loc 1 174 1 view .LVU571
 1893 005a BDE8F081 		pop	{r4, r5, r6, r7, r8, pc}
 1894              	.LVL195:
 1895              	.L118:
 163:lvgl/src/lv_widgets/lv_cont.c ****         return;
 1896              		.loc 1 163 36 discriminator 1 view .LVU572
 1897 005e 0378     		ldrb	r3, [r0]	@ zero_extendqisi2
 163:lvgl/src/lv_widgets/lv_cont.c ****         return;
 1898              		.loc 1 163 30 discriminator 1 view .LVU573
 1899 0060 B7EB931F 		cmp	r7, r3, lsr #6
 1900 0064 E8D1     		bne	.L115
 163:lvgl/src/lv_widgets/lv_cont.c ****         return;
 1901              		.loc 1 163 63 discriminator 2 view .LVU574
 1902 0066 4378     		ldrb	r3, [r0, #1]	@ zero_extendqisi2
 1903 0068 03F00303 		and	r3, r3, #3
 163:lvgl/src/lv_widgets/lv_cont.c ****         return;
 1904              		.loc 1 163 57 discriminator 2 view .LVU575
 1905 006c B342     		cmp	r3, r6
 1906 006e E3D1     		bne	.L115
 163:lvgl/src/lv_widgets/lv_cont.c ****         return;
 1907              		.loc 1 163 86 discriminator 3 view .LVU576
 1908 0070 4378     		ldrb	r3, [r0, #1]	@ zero_extendqisi2
 1909 0072 C3F38103 		ubfx	r3, r3, #2, #2
 163:lvgl/src/lv_widgets/lv_cont.c ****         return;
 1910              		.loc 1 163 80 discriminator 3 view .LVU577
 1911 0076 AB42     		cmp	r3, r5
 1912 0078 DED1     		bne	.L115
 1913 007a EEE7     		b	.L112
 1914              	.L120:
 1915              		.align	2
 1916              	.L119:
 1917 007c 00000000 		.word	.LC1
 1918              		.cfi_endproc
 1919              	.LFE462:
 1921              		.section	.text.lv_cont_get_layout,"ax",%progbits
 1922              		.align	1
 1923              		.global	lv_cont_get_layout
 1924              		.syntax unified
 1925              		.thumb
 1926              		.thumb_func
 1927              		.fpu fpv4-sp-d16
 1929              	lv_cont_get_layout:
 1930              	.LVL196:
 1931              	.LFB463:
 186:lvgl/src/lv_widgets/lv_cont.c ****     LV_ASSERT_OBJ(cont, LV_OBJX_NAME);
 1932              		.loc 1 186 1 is_stmt 1 view -0
ARM GAS  D:\Temp\cchslsHM.s 			page 65


 1933              		.cfi_startproc
 1934              		@ args = 0, pretend = 0, frame = 0
 1935              		@ frame_needed = 0, uses_anonymous_args = 0
 186:lvgl/src/lv_widgets/lv_cont.c ****     LV_ASSERT_OBJ(cont, LV_OBJX_NAME);
 1936              		.loc 1 186 1 is_stmt 0 view .LVU579
 1937 0000 10B5     		push	{r4, lr}
 1938              	.LCFI14:
 1939              		.cfi_def_cfa_offset 8
 1940              		.cfi_offset 4, -8
 1941              		.cfi_offset 14, -4
 1942 0002 0446     		mov	r4, r0
 187:lvgl/src/lv_widgets/lv_cont.c **** 
 1943              		.loc 1 187 5 is_stmt 1 view .LVU580
 187:lvgl/src/lv_widgets/lv_cont.c **** 
 1944              		.loc 1 187 5 view .LVU581
 1945 0004 FFF7FEFF 		bl	lv_debug_check_null
 1946              	.LVL197:
 187:lvgl/src/lv_widgets/lv_cont.c **** 
 1947              		.loc 1 187 5 is_stmt 0 view .LVU582
 1948 0008 28B9     		cbnz	r0, .L122
 187:lvgl/src/lv_widgets/lv_cont.c **** 
 1949              		.loc 1 187 5 is_stmt 1 discriminator 1 view .LVU583
 187:lvgl/src/lv_widgets/lv_cont.c **** 
 1950              		.loc 1 187 5 discriminator 1 view .LVU584
 1951 000a 2246     		mov	r2, r4
 1952 000c 0023     		movs	r3, #0
 1953 000e 0548     		ldr	r0, .L125
 1954 0010 FFF7FEFF 		bl	lv_debug_log_error
 1955              	.LVL198:
 1956              	.L123:
 187:lvgl/src/lv_widgets/lv_cont.c **** 
 1957              		.loc 1 187 5 discriminator 1 view .LVU585
 187:lvgl/src/lv_widgets/lv_cont.c **** 
 1958              		.loc 1 187 5 discriminator 1 view .LVU586
 1959 0014 FEE7     		b	.L123
 1960              	.L122:
 187:lvgl/src/lv_widgets/lv_cont.c **** 
 1961              		.loc 1 187 38 discriminator 2 view .LVU587
 189:lvgl/src/lv_widgets/lv_cont.c ****     return ext->layout;
 1962              		.loc 1 189 5 discriminator 2 view .LVU588
 189:lvgl/src/lv_widgets/lv_cont.c ****     return ext->layout;
 1963              		.loc 1 189 27 is_stmt 0 discriminator 2 view .LVU589
 1964 0016 2046     		mov	r0, r4
 1965 0018 FFF7FEFF 		bl	lv_obj_get_ext_attr
 1966              	.LVL199:
 190:lvgl/src/lv_widgets/lv_cont.c **** }
 1967              		.loc 1 190 5 is_stmt 1 discriminator 2 view .LVU590
 190:lvgl/src/lv_widgets/lv_cont.c **** }
 1968              		.loc 1 190 15 is_stmt 0 discriminator 2 view .LVU591
 1969 001c 0078     		ldrb	r0, [r0]	@ zero_extendqisi2
 1970              	.LVL200:
 191:lvgl/src/lv_widgets/lv_cont.c **** 
 1971              		.loc 1 191 1 discriminator 2 view .LVU592
 1972 001e 00F00F00 		and	r0, r0, #15
 1973 0022 10BD     		pop	{r4, pc}
 1974              	.LVL201:
 1975              	.L126:
ARM GAS  D:\Temp\cchslsHM.s 			page 66


 191:lvgl/src/lv_widgets/lv_cont.c **** 
 1976              		.loc 1 191 1 discriminator 2 view .LVU593
 1977              		.align	2
 1978              	.L125:
 1979 0024 00000000 		.word	.LC1
 1980              		.cfi_endproc
 1981              	.LFE463:
 1983              		.section	.text.lv_cont_layout_col,"ax",%progbits
 1984              		.align	1
 1985              		.syntax unified
 1986              		.thumb
 1987              		.thumb_func
 1988              		.fpu fpv4-sp-d16
 1990              	lv_cont_layout_col:
 1991              	.LVL202:
 1992              	.LFB471:
 344:lvgl/src/lv_widgets/lv_cont.c ****     lv_coord_t left = lv_obj_get_style_pad_left(cont, LV_CONT_PART_MAIN);
 1993              		.loc 1 344 1 is_stmt 1 view -0
 1994              		.cfi_startproc
 1995              		@ args = 0, pretend = 0, frame = 8
 1996              		@ frame_needed = 0, uses_anonymous_args = 0
 344:lvgl/src/lv_widgets/lv_cont.c ****     lv_coord_t left = lv_obj_get_style_pad_left(cont, LV_CONT_PART_MAIN);
 1997              		.loc 1 344 1 is_stmt 0 view .LVU595
 1998 0000 2DE9F04F 		push	{r4, r5, r6, r7, r8, r9, r10, fp, lr}
 1999              	.LCFI15:
 2000              		.cfi_def_cfa_offset 36
 2001              		.cfi_offset 4, -36
 2002              		.cfi_offset 5, -32
 2003              		.cfi_offset 6, -28
 2004              		.cfi_offset 7, -24
 2005              		.cfi_offset 8, -20
 2006              		.cfi_offset 9, -16
 2007              		.cfi_offset 10, -12
 2008              		.cfi_offset 11, -8
 2009              		.cfi_offset 14, -4
 2010 0004 85B0     		sub	sp, sp, #20
 2011              	.LCFI16:
 2012              		.cfi_def_cfa_offset 56
 2013 0006 8046     		mov	r8, r0
 345:lvgl/src/lv_widgets/lv_cont.c ****     lv_coord_t right = lv_obj_get_style_pad_right(cont, LV_CONT_PART_MAIN);
 2014              		.loc 1 345 5 is_stmt 1 view .LVU596
 2015              	.LVL203:
 2016              	.LBB184:
 2017              	.LBI184:
 112:lvgl/src/lv_widgets/../lv_core/lv_obj_style_dec.h **** _LV_OBJ_STYLE_SET_GET_DECLARE(PAD_RIGHT, pad_right, lv_style_int_t, _int, scalar)
 2018              		.loc 2 112 1 view .LVU597
 2019              	.LBB185:
 112:lvgl/src/lv_widgets/../lv_core/lv_obj_style_dec.h **** _LV_OBJ_STYLE_SET_GET_DECLARE(PAD_RIGHT, pad_right, lv_style_int_t, _int, scalar)
 2020              		.loc 2 112 1 view .LVU598
 2021 0008 1222     		movs	r2, #18
 2022 000a 0021     		movs	r1, #0
 2023 000c FFF7FEFF 		bl	_lv_obj_get_style_int
 2024              	.LVL204:
 112:lvgl/src/lv_widgets/../lv_core/lv_obj_style_dec.h **** _LV_OBJ_STYLE_SET_GET_DECLARE(PAD_RIGHT, pad_right, lv_style_int_t, _int, scalar)
 2025              		.loc 2 112 1 is_stmt 0 view .LVU599
 2026 0010 8246     		mov	r10, r0
 2027              	.LVL205:
ARM GAS  D:\Temp\cchslsHM.s 			page 67


 112:lvgl/src/lv_widgets/../lv_core/lv_obj_style_dec.h **** _LV_OBJ_STYLE_SET_GET_DECLARE(PAD_RIGHT, pad_right, lv_style_int_t, _int, scalar)
 2028              		.loc 2 112 1 view .LVU600
 2029              	.LBE185:
 2030              	.LBE184:
 346:lvgl/src/lv_widgets/lv_cont.c ****     lv_coord_t top = lv_obj_get_style_pad_top(cont, LV_CONT_PART_MAIN);
 2031              		.loc 1 346 5 is_stmt 1 view .LVU601
 2032              	.LBB186:
 2033              	.LBI186:
 113:lvgl/src/lv_widgets/../lv_core/lv_obj_style_dec.h **** _LV_OBJ_STYLE_SET_GET_DECLARE(PAD_INNER, pad_inner, lv_style_int_t, _int, scalar)
 2034              		.loc 2 113 1 view .LVU602
 2035              	.LBB187:
 113:lvgl/src/lv_widgets/../lv_core/lv_obj_style_dec.h **** _LV_OBJ_STYLE_SET_GET_DECLARE(PAD_INNER, pad_inner, lv_style_int_t, _int, scalar)
 2036              		.loc 2 113 1 view .LVU603
 2037 0012 1322     		movs	r2, #19
 2038 0014 0021     		movs	r1, #0
 2039 0016 4046     		mov	r0, r8
 2040 0018 FFF7FEFF 		bl	_lv_obj_get_style_int
 2041              	.LVL206:
 2042 001c 0446     		mov	r4, r0
 2043              	.LVL207:
 113:lvgl/src/lv_widgets/../lv_core/lv_obj_style_dec.h **** _LV_OBJ_STYLE_SET_GET_DECLARE(PAD_INNER, pad_inner, lv_style_int_t, _int, scalar)
 2044              		.loc 2 113 1 is_stmt 0 view .LVU604
 2045              	.LBE187:
 2046              	.LBE186:
 347:lvgl/src/lv_widgets/lv_cont.c ****     lv_coord_t inner = lv_obj_get_style_pad_inner(cont, LV_CONT_PART_MAIN);
 2047              		.loc 1 347 5 is_stmt 1 view .LVU605
 2048              	.LBB188:
 2049              	.LBI188:
 110:lvgl/src/lv_widgets/../lv_core/lv_obj_style_dec.h **** _LV_OBJ_STYLE_SET_GET_DECLARE(PAD_BOTTOM, pad_bottom, lv_style_int_t, _int, scalar)
 2050              		.loc 2 110 1 view .LVU606
 2051              	.LBB189:
 110:lvgl/src/lv_widgets/../lv_core/lv_obj_style_dec.h **** _LV_OBJ_STYLE_SET_GET_DECLARE(PAD_BOTTOM, pad_bottom, lv_style_int_t, _int, scalar)
 2052              		.loc 2 110 1 view .LVU607
 2053 001e 1022     		movs	r2, #16
 2054 0020 0021     		movs	r1, #0
 2055 0022 4046     		mov	r0, r8
 2056 0024 FFF7FEFF 		bl	_lv_obj_get_style_int
 2057              	.LVL208:
 2058 0028 0546     		mov	r5, r0
 2059              	.LVL209:
 110:lvgl/src/lv_widgets/../lv_core/lv_obj_style_dec.h **** _LV_OBJ_STYLE_SET_GET_DECLARE(PAD_BOTTOM, pad_bottom, lv_style_int_t, _int, scalar)
 2060              		.loc 2 110 1 is_stmt 0 view .LVU608
 2061              	.LBE189:
 2062              	.LBE188:
 348:lvgl/src/lv_widgets/lv_cont.c **** 
 2063              		.loc 1 348 5 is_stmt 1 view .LVU609
 2064              	.LBB190:
 2065              	.LBI190:
 114:lvgl/src/lv_widgets/../lv_core/lv_obj_style_dec.h **** _LV_OBJ_STYLE_SET_GET_DECLARE(MARGIN_TOP, margin_top, lv_style_int_t, _int, scalar)
 2066              		.loc 2 114 1 view .LVU610
 2067              	.LBB191:
 114:lvgl/src/lv_widgets/../lv_core/lv_obj_style_dec.h **** _LV_OBJ_STYLE_SET_GET_DECLARE(MARGIN_TOP, margin_top, lv_style_int_t, _int, scalar)
 2068              		.loc 2 114 1 view .LVU611
 2069 002a 1422     		movs	r2, #20
 2070 002c 0021     		movs	r1, #0
 2071 002e 4046     		mov	r0, r8
 2072 0030 FFF7FEFF 		bl	_lv_obj_get_style_int
ARM GAS  D:\Temp\cchslsHM.s 			page 68


 2073              	.LVL210:
 2074 0034 8346     		mov	fp, r0
 2075              	.LVL211:
 114:lvgl/src/lv_widgets/../lv_core/lv_obj_style_dec.h **** _LV_OBJ_STYLE_SET_GET_DECLARE(MARGIN_TOP, margin_top, lv_style_int_t, _int, scalar)
 2076              		.loc 2 114 1 is_stmt 0 view .LVU612
 2077              	.LBE191:
 2078              	.LBE190:
 350:lvgl/src/lv_widgets/lv_cont.c ****     lv_obj_t * child;
 2079              		.loc 1 350 5 is_stmt 1 view .LVU613
 350:lvgl/src/lv_widgets/lv_cont.c ****     lv_obj_t * child;
 2080              		.loc 1 350 24 is_stmt 0 view .LVU614
 2081 0036 4046     		mov	r0, r8
 2082 0038 FFF7FEFF 		bl	lv_cont_get_layout
 2083              	.LVL212:
 351:lvgl/src/lv_widgets/lv_cont.c **** 
 2084              		.loc 1 351 5 is_stmt 1 view .LVU615
 354:lvgl/src/lv_widgets/lv_cont.c ****     lv_coord_t hpad_corr;
 2085              		.loc 1 354 5 view .LVU616
 355:lvgl/src/lv_widgets/lv_cont.c **** 
 2086              		.loc 1 355 5 view .LVU617
 357:lvgl/src/lv_widgets/lv_cont.c ****         case LV_LAYOUT_COLUMN_LEFT:
 2087              		.loc 1 357 5 view .LVU618
 2088 003c 0328     		cmp	r0, #3
 2089 003e 19D0     		beq	.L135
 2090 0040 0428     		cmp	r0, #4
 2091 0042 10D0     		beq	.L129
 2092 0044 0228     		cmp	r0, #2
 2093 0046 1AD0     		beq	.L136
 371:lvgl/src/lv_widgets/lv_cont.c ****             align     = LV_ALIGN_IN_TOP_LEFT;
 2094              		.loc 1 371 23 is_stmt 0 view .LVU619
 2095 0048 4FF0000A 		mov	r10, #0
 2096              	.LVL213:
 372:lvgl/src/lv_widgets/lv_cont.c ****             break;
 2097              		.loc 1 372 23 view .LVU620
 2098 004c 0123     		movs	r3, #1
 2099 004e 0393     		str	r3, [sp, #12]
 2100              	.L128:
 2101              	.LVL214:
 378:lvgl/src/lv_widgets/lv_cont.c ****     /* Align the children */
 2102              		.loc 1 378 5 is_stmt 1 view .LVU621
 2103 0050 0121     		movs	r1, #1
 2104 0052 4046     		mov	r0, r8
 2105              	.LVL215:
 378:lvgl/src/lv_widgets/lv_cont.c ****     /* Align the children */
 2106              		.loc 1 378 5 is_stmt 0 view .LVU622
 2107 0054 FFF7FEFF 		bl	lv_obj_add_protect
 2108              	.LVL216:
 380:lvgl/src/lv_widgets/lv_cont.c ****     _LV_LL_READ_BACK(cont->child_ll, child) {
 2109              		.loc 1 380 5 is_stmt 1 view .LVU623
 381:lvgl/src/lv_widgets/lv_cont.c ****         if(lv_obj_get_hidden(child) != false || lv_obj_is_protected(child, LV_PROTECT_POS) != false
 2110              		.loc 1 381 5 view .LVU624
 2111 0058 08F10406 		add	r6, r8, #4
 2112 005c 3046     		mov	r0, r6
 2113 005e FFF7FEFF 		bl	_lv_ll_get_tail
 2114              	.LVL217:
 2115 0062 0446     		mov	r4, r0
 2116              	.LVL218:
ARM GAS  D:\Temp\cchslsHM.s 			page 69


 381:lvgl/src/lv_widgets/lv_cont.c ****         if(lv_obj_get_hidden(child) != false || lv_obj_is_protected(child, LV_PROTECT_POS) != false
 2117              		.loc 1 381 5 is_stmt 0 view .LVU625
 2118 0064 13E0     		b	.L130
 2119              	.LVL219:
 2120              	.L129:
 367:lvgl/src/lv_widgets/lv_cont.c ****             align     = LV_ALIGN_IN_TOP_RIGHT;
 2121              		.loc 1 367 13 is_stmt 1 view .LVU626
 367:lvgl/src/lv_widgets/lv_cont.c ****             align     = LV_ALIGN_IN_TOP_RIGHT;
 2122              		.loc 1 367 23 is_stmt 0 view .LVU627
 2123 0066 C4F1000A 		rsb	r10, r4, #0
 2124              	.LVL220:
 367:lvgl/src/lv_widgets/lv_cont.c ****             align     = LV_ALIGN_IN_TOP_RIGHT;
 2125              		.loc 1 367 23 view .LVU628
 2126 006a 0FFA8AFA 		sxth	r10, r10
 2127              	.LVL221:
 368:lvgl/src/lv_widgets/lv_cont.c ****             break;
 2128              		.loc 1 368 13 is_stmt 1 view .LVU629
 369:lvgl/src/lv_widgets/lv_cont.c ****         default:
 2129              		.loc 1 369 13 view .LVU630
 368:lvgl/src/lv_widgets/lv_cont.c ****             break;
 2130              		.loc 1 368 23 is_stmt 0 view .LVU631
 2131 006e 0323     		movs	r3, #3
 2132 0070 0393     		str	r3, [sp, #12]
 369:lvgl/src/lv_widgets/lv_cont.c ****         default:
 2133              		.loc 1 369 13 view .LVU632
 2134 0072 EDE7     		b	.L128
 2135              	.LVL222:
 2136              	.L135:
 363:lvgl/src/lv_widgets/lv_cont.c ****             align     = LV_ALIGN_IN_TOP_MID;
 2137              		.loc 1 363 23 view .LVU633
 2138 0074 4FF0000A 		mov	r10, #0
 2139              	.LVL223:
 364:lvgl/src/lv_widgets/lv_cont.c ****             break;
 2140              		.loc 1 364 23 view .LVU634
 2141 0078 0223     		movs	r3, #2
 2142 007a 0393     		str	r3, [sp, #12]
 2143 007c E8E7     		b	.L128
 2144              	.LVL224:
 2145              	.L136:
 360:lvgl/src/lv_widgets/lv_cont.c ****             break;
 2146              		.loc 1 360 23 view .LVU635
 2147 007e 0123     		movs	r3, #1
 2148 0080 0393     		str	r3, [sp, #12]
 2149 0082 E5E7     		b	.L128
 2150              	.LVL225:
 2151              	.L133:
 381:lvgl/src/lv_widgets/lv_cont.c ****         if(lv_obj_get_hidden(child) != false || lv_obj_is_protected(child, LV_PROTECT_POS) != false
 2152              		.loc 1 381 5 discriminator 2 view .LVU636
 2153 0084 2146     		mov	r1, r4
 2154 0086 3046     		mov	r0, r6
 2155 0088 FFF7FEFF 		bl	_lv_ll_get_prev
 2156              	.LVL226:
 2157 008c 0446     		mov	r4, r0
 2158              	.LVL227:
 2159              	.L130:
 381:lvgl/src/lv_widgets/lv_cont.c ****         if(lv_obj_get_hidden(child) != false || lv_obj_is_protected(child, LV_PROTECT_POS) != false
 2160              		.loc 1 381 5 discriminator 1 view .LVU637
ARM GAS  D:\Temp\cchslsHM.s 			page 70


 2161 008e 84B3     		cbz	r4, .L138
 2162              	.LBB192:
 382:lvgl/src/lv_widgets/lv_cont.c ****         lv_style_int_t mtop = lv_obj_get_style_margin_top(child, LV_OBJ_PART_MAIN);
 2163              		.loc 1 382 9 is_stmt 1 view .LVU638
 382:lvgl/src/lv_widgets/lv_cont.c ****         lv_style_int_t mtop = lv_obj_get_style_margin_top(child, LV_OBJ_PART_MAIN);
 2164              		.loc 1 382 12 is_stmt 0 view .LVU639
 2165 0090 2046     		mov	r0, r4
 382:lvgl/src/lv_widgets/lv_cont.c ****         lv_style_int_t mtop = lv_obj_get_style_margin_top(child, LV_OBJ_PART_MAIN);
 2166              		.loc 1 382 12 view .LVU640
 2167 0092 FFF7FEFF 		bl	lv_obj_get_hidden
 2168              	.LVL228:
 382:lvgl/src/lv_widgets/lv_cont.c ****         lv_style_int_t mtop = lv_obj_get_style_margin_top(child, LV_OBJ_PART_MAIN);
 2169              		.loc 1 382 11 view .LVU641
 2170 0096 0028     		cmp	r0, #0
 2171 0098 F4D1     		bne	.L133
 382:lvgl/src/lv_widgets/lv_cont.c ****         lv_style_int_t mtop = lv_obj_get_style_margin_top(child, LV_OBJ_PART_MAIN);
 2172              		.loc 1 382 49 discriminator 2 view .LVU642
 2173 009a 0421     		movs	r1, #4
 2174 009c 2046     		mov	r0, r4
 2175 009e FFF7FEFF 		bl	lv_obj_is_protected
 2176              	.LVL229:
 382:lvgl/src/lv_widgets/lv_cont.c ****         lv_style_int_t mtop = lv_obj_get_style_margin_top(child, LV_OBJ_PART_MAIN);
 2177              		.loc 1 382 46 discriminator 2 view .LVU643
 2178 00a2 0028     		cmp	r0, #0
 2179 00a4 EED1     		bne	.L133
 383:lvgl/src/lv_widgets/lv_cont.c ****         lv_style_int_t mbottom = lv_obj_get_style_margin_bottom(child, LV_OBJ_PART_MAIN);
 2180              		.loc 1 383 9 is_stmt 1 view .LVU644
 2181              	.LVL230:
 2182              	.LBB193:
 2183              	.LBI193:
 115:lvgl/src/lv_widgets/../lv_core/lv_obj_style_dec.h **** _LV_OBJ_STYLE_SET_GET_DECLARE(MARGIN_BOTTOM, margin_bottom, lv_style_int_t, _int, scalar)
 2184              		.loc 2 115 1 view .LVU645
 2185              	.LBB194:
 115:lvgl/src/lv_widgets/../lv_core/lv_obj_style_dec.h **** _LV_OBJ_STYLE_SET_GET_DECLARE(MARGIN_BOTTOM, margin_bottom, lv_style_int_t, _int, scalar)
 2186              		.loc 2 115 1 view .LVU646
 2187 00a6 1522     		movs	r2, #21
 2188 00a8 0021     		movs	r1, #0
 2189 00aa 2046     		mov	r0, r4
 2190 00ac FFF7FEFF 		bl	_lv_obj_get_style_int
 2191              	.LVL231:
 2192 00b0 0746     		mov	r7, r0
 2193              	.LVL232:
 115:lvgl/src/lv_widgets/../lv_core/lv_obj_style_dec.h **** _LV_OBJ_STYLE_SET_GET_DECLARE(MARGIN_BOTTOM, margin_bottom, lv_style_int_t, _int, scalar)
 2194              		.loc 2 115 1 is_stmt 0 view .LVU647
 2195              	.LBE194:
 2196              	.LBE193:
 384:lvgl/src/lv_widgets/lv_cont.c ****         lv_style_int_t mleft = lv_obj_get_style_margin_left(child, LV_OBJ_PART_MAIN);
 2197              		.loc 1 384 9 is_stmt 1 view .LVU648
 2198              	.LBB195:
 2199              	.LBI195:
 116:lvgl/src/lv_widgets/../lv_core/lv_obj_style_dec.h **** _LV_OBJ_STYLE_SET_GET_DECLARE(MARGIN_LEFT, margin_left, lv_style_int_t, _int, scalar)
 2200              		.loc 2 116 1 view .LVU649
 2201              	.LBB196:
 116:lvgl/src/lv_widgets/../lv_core/lv_obj_style_dec.h **** _LV_OBJ_STYLE_SET_GET_DECLARE(MARGIN_LEFT, margin_left, lv_style_int_t, _int, scalar)
 2202              		.loc 2 116 1 view .LVU650
 2203 00b2 1622     		movs	r2, #22
 2204 00b4 0021     		movs	r1, #0
ARM GAS  D:\Temp\cchslsHM.s 			page 71


 2205 00b6 2046     		mov	r0, r4
 2206 00b8 FFF7FEFF 		bl	_lv_obj_get_style_int
 2207              	.LVL233:
 2208 00bc 8146     		mov	r9, r0
 2209              	.LVL234:
 116:lvgl/src/lv_widgets/../lv_core/lv_obj_style_dec.h **** _LV_OBJ_STYLE_SET_GET_DECLARE(MARGIN_LEFT, margin_left, lv_style_int_t, _int, scalar)
 2210              		.loc 2 116 1 is_stmt 0 view .LVU651
 2211              	.LBE196:
 2212              	.LBE195:
 385:lvgl/src/lv_widgets/lv_cont.c ****         lv_obj_align(child, cont, align, hpad_corr + mleft, last_cord + mtop);
 2213              		.loc 1 385 9 is_stmt 1 view .LVU652
 2214              	.LBB197:
 2215              	.LBI197:
 117:lvgl/src/lv_widgets/../lv_core/lv_obj_style_dec.h **** _LV_OBJ_STYLE_SET_GET_DECLARE(MARGIN_RIGHT, margin_right, lv_style_int_t, _int, scalar)
 2216              		.loc 2 117 1 view .LVU653
 2217              	.LBB198:
 117:lvgl/src/lv_widgets/../lv_core/lv_obj_style_dec.h **** _LV_OBJ_STYLE_SET_GET_DECLARE(MARGIN_RIGHT, margin_right, lv_style_int_t, _int, scalar)
 2218              		.loc 2 117 1 view .LVU654
 2219 00be 1722     		movs	r2, #23
 2220 00c0 0021     		movs	r1, #0
 2221 00c2 2046     		mov	r0, r4
 2222 00c4 FFF7FEFF 		bl	_lv_obj_get_style_int
 2223              	.LVL235:
 117:lvgl/src/lv_widgets/../lv_core/lv_obj_style_dec.h **** _LV_OBJ_STYLE_SET_GET_DECLARE(MARGIN_RIGHT, margin_right, lv_style_int_t, _int, scalar)
 2224              		.loc 2 117 1 is_stmt 0 view .LVU655
 2225              	.LBE198:
 2226              	.LBE197:
 386:lvgl/src/lv_widgets/lv_cont.c ****         last_cord += lv_obj_get_height(child) + inner + mtop + mbottom;
 2227              		.loc 1 386 9 is_stmt 1 view .LVU656
 386:lvgl/src/lv_widgets/lv_cont.c ****         last_cord += lv_obj_get_height(child) + inner + mtop + mbottom;
 2228              		.loc 1 386 52 is_stmt 0 view .LVU657
 2229 00c8 0AEB0003 		add	r3, r10, r0
 386:lvgl/src/lv_widgets/lv_cont.c ****         last_cord += lv_obj_get_height(child) + inner + mtop + mbottom;
 2230              		.loc 1 386 71 view .LVU658
 2231 00cc ADB2     		uxth	r5, r5
 386:lvgl/src/lv_widgets/lv_cont.c ****         last_cord += lv_obj_get_height(child) + inner + mtop + mbottom;
 2232              		.loc 1 386 71 view .LVU659
 2233 00ce EA19     		adds	r2, r5, r7
 386:lvgl/src/lv_widgets/lv_cont.c ****         last_cord += lv_obj_get_height(child) + inner + mtop + mbottom;
 2234              		.loc 1 386 9 view .LVU660
 2235 00d0 12B2     		sxth	r2, r2
 2236 00d2 0092     		str	r2, [sp]
 2237 00d4 1BB2     		sxth	r3, r3
 2238 00d6 039A     		ldr	r2, [sp, #12]
 2239 00d8 4146     		mov	r1, r8
 2240 00da 2046     		mov	r0, r4
 2241              	.LVL236:
 386:lvgl/src/lv_widgets/lv_cont.c ****         last_cord += lv_obj_get_height(child) + inner + mtop + mbottom;
 2242              		.loc 1 386 9 view .LVU661
 2243 00dc FFF7FEFF 		bl	lv_obj_align
 2244              	.LVL237:
 387:lvgl/src/lv_widgets/lv_cont.c ****     }
 2245              		.loc 1 387 9 is_stmt 1 view .LVU662
 387:lvgl/src/lv_widgets/lv_cont.c ****     }
 2246              		.loc 1 387 22 is_stmt 0 view .LVU663
 2247 00e0 2046     		mov	r0, r4
 2248 00e2 FFF7FEFF 		bl	lv_obj_get_height
ARM GAS  D:\Temp\cchslsHM.s 			page 72


 2249              	.LVL238:
 387:lvgl/src/lv_widgets/lv_cont.c ****     }
 2250              		.loc 1 387 47 view .LVU664
 2251 00e6 5844     		add	r0, r0, fp
 387:lvgl/src/lv_widgets/lv_cont.c ****     }
 2252              		.loc 1 387 55 view .LVU665
 2253 00e8 0744     		add	r7, r7, r0
 2254              	.LVL239:
 387:lvgl/src/lv_widgets/lv_cont.c ****     }
 2255              		.loc 1 387 62 view .LVU666
 2256 00ea 4F44     		add	r7, r7, r9
 387:lvgl/src/lv_widgets/lv_cont.c ****     }
 2257              		.loc 1 387 19 view .LVU667
 2258 00ec 3D44     		add	r5, r5, r7
 2259              	.LVL240:
 387:lvgl/src/lv_widgets/lv_cont.c ****     }
 2260              		.loc 1 387 19 view .LVU668
 2261 00ee 2DB2     		sxth	r5, r5
 2262              	.LVL241:
 387:lvgl/src/lv_widgets/lv_cont.c ****     }
 2263              		.loc 1 387 19 view .LVU669
 2264 00f0 C8E7     		b	.L133
 2265              	.LVL242:
 2266              	.L138:
 387:lvgl/src/lv_widgets/lv_cont.c ****     }
 2267              		.loc 1 387 19 view .LVU670
 2268              	.LBE192:
 390:lvgl/src/lv_widgets/lv_cont.c **** }
 2269              		.loc 1 390 5 is_stmt 1 view .LVU671
 2270 00f2 0121     		movs	r1, #1
 2271 00f4 4046     		mov	r0, r8
 2272              	.LVL243:
 390:lvgl/src/lv_widgets/lv_cont.c **** }
 2273              		.loc 1 390 5 is_stmt 0 view .LVU672
 2274 00f6 FFF7FEFF 		bl	lv_obj_clear_protect
 2275              	.LVL244:
 391:lvgl/src/lv_widgets/lv_cont.c **** 
 2276              		.loc 1 391 1 view .LVU673
 2277 00fa 05B0     		add	sp, sp, #20
 2278              	.LCFI17:
 2279              		.cfi_def_cfa_offset 36
 2280              		@ sp needed
 2281 00fc BDE8F08F 		pop	{r4, r5, r6, r7, r8, r9, r10, fp, pc}
 391:lvgl/src/lv_widgets/lv_cont.c **** 
 2282              		.loc 1 391 1 view .LVU674
 2283              		.cfi_endproc
 2284              	.LFE471:
 2286              		.section	.text.lv_cont_layout_row,"ax",%progbits
 2287              		.align	1
 2288              		.syntax unified
 2289              		.thumb
 2290              		.thumb_func
 2291              		.fpu fpv4-sp-d16
 2293              	lv_cont_layout_row:
 2294              	.LVL245:
 2295              	.LFB472:
 398:lvgl/src/lv_widgets/lv_cont.c **** 
ARM GAS  D:\Temp\cchslsHM.s 			page 73


 2296              		.loc 1 398 1 is_stmt 1 view -0
 2297              		.cfi_startproc
 2298              		@ args = 0, pretend = 0, frame = 0
 2299              		@ frame_needed = 0, uses_anonymous_args = 0
 398:lvgl/src/lv_widgets/lv_cont.c **** 
 2300              		.loc 1 398 1 is_stmt 0 view .LVU676
 2301 0000 2DE9F04F 		push	{r4, r5, r6, r7, r8, r9, r10, fp, lr}
 2302              	.LCFI18:
 2303              		.cfi_def_cfa_offset 36
 2304              		.cfi_offset 4, -36
 2305              		.cfi_offset 5, -32
 2306              		.cfi_offset 6, -28
 2307              		.cfi_offset 7, -24
 2308              		.cfi_offset 8, -20
 2309              		.cfi_offset 9, -16
 2310              		.cfi_offset 10, -12
 2311              		.cfi_offset 11, -8
 2312              		.cfi_offset 14, -4
 2313 0004 83B0     		sub	sp, sp, #12
 2314              	.LCFI19:
 2315              		.cfi_def_cfa_offset 48
 2316 0006 0546     		mov	r5, r0
 400:lvgl/src/lv_widgets/lv_cont.c ****     lv_obj_t * child;
 2317              		.loc 1 400 5 is_stmt 1 view .LVU677
 400:lvgl/src/lv_widgets/lv_cont.c ****     lv_obj_t * child;
 2318              		.loc 1 400 24 is_stmt 0 view .LVU678
 2319 0008 FFF7FEFF 		bl	lv_cont_get_layout
 2320              	.LVL246:
 400:lvgl/src/lv_widgets/lv_cont.c ****     lv_obj_t * child;
 2321              		.loc 1 400 24 view .LVU679
 2322 000c 0446     		mov	r4, r0
 2323              	.LVL247:
 401:lvgl/src/lv_widgets/lv_cont.c **** 
 2324              		.loc 1 401 5 is_stmt 1 view .LVU680
 404:lvgl/src/lv_widgets/lv_cont.c ****     lv_coord_t vpad_corr;
 2325              		.loc 1 404 5 view .LVU681
 405:lvgl/src/lv_widgets/lv_cont.c ****     lv_bidi_dir_t base_dir = lv_obj_get_base_dir(cont);
 2326              		.loc 1 405 5 view .LVU682
 406:lvgl/src/lv_widgets/lv_cont.c ****     switch(type) {
 2327              		.loc 1 406 5 view .LVU683
 406:lvgl/src/lv_widgets/lv_cont.c ****     switch(type) {
 2328              		.loc 1 406 30 is_stmt 0 view .LVU684
 2329 000e 2846     		mov	r0, r5
 2330 0010 FFF7FEFF 		bl	lv_obj_get_base_dir
 2331              	.LVL248:
 2332 0014 0746     		mov	r7, r0
 2333              	.LVL249:
 407:lvgl/src/lv_widgets/lv_cont.c ****         case LV_LAYOUT_ROW_TOP:
 2334              		.loc 1 407 5 is_stmt 1 view .LVU685
 2335 0016 062C     		cmp	r4, #6
 2336 0018 2FD0     		beq	.L140
 2337 001a 072C     		cmp	r4, #7
 2338 001c 39D0     		beq	.L141
 2339 001e 052C     		cmp	r4, #5
 2340 0020 06D0     		beq	.L158
 421:lvgl/src/lv_widgets/lv_cont.c ****             align     = base_dir == LV_BIDI_DIR_RTL ? LV_ALIGN_IN_TOP_RIGHT : LV_ALIGN_IN_TOP_LEFT;
 2341              		.loc 1 421 13 view .LVU686
ARM GAS  D:\Temp\cchslsHM.s 			page 74


 2342              	.LVL250:
 422:lvgl/src/lv_widgets/lv_cont.c ****             break;
 2343              		.loc 1 422 13 view .LVU687
 422:lvgl/src/lv_widgets/lv_cont.c ****             break;
 2344              		.loc 1 422 23 is_stmt 0 view .LVU688
 2345 0022 0128     		cmp	r0, #1
 2346 0024 48D0     		beq	.L159
 421:lvgl/src/lv_widgets/lv_cont.c ****             align     = base_dir == LV_BIDI_DIR_RTL ? LV_ALIGN_IN_TOP_RIGHT : LV_ALIGN_IN_TOP_LEFT;
 2347              		.loc 1 421 23 view .LVU689
 2348 0026 4FF00008 		mov	r8, #0
 422:lvgl/src/lv_widgets/lv_cont.c ****             break;
