ARM GAS  D:\Temp\cc0vPyDE.s 			page 1


   1              		.cpu cortex-m4
   2              		.eabi_attribute 27, 1
   3              		.eabi_attribute 28, 1
   4              		.eabi_attribute 20, 1
   5              		.eabi_attribute 21, 1
   6              		.eabi_attribute 23, 3
   7              		.eabi_attribute 24, 1
   8              		.eabi_attribute 25, 1
   9              		.eabi_attribute 26, 1
  10              		.eabi_attribute 30, 1
  11              		.eabi_attribute 34, 1
  12              		.eabi_attribute 18, 4
  13              		.file	"lv_canvas.c"
  14              		.text
  15              	.Ltext0:
  16              		.cfi_sections	.debug_frame
  17              		.section	.text.set_set_px_cb,"ax",%progbits
  18              		.align	1
  19              		.arch armv7e-m
  20              		.syntax unified
  21              		.thumb
  22              		.thumb_func
  23              		.fpu fpv4-sp-d16
  25              	set_set_px_cb:
  26              	.LVL0:
  27              	.LFB476:
  28              		.file 1 "lvgl/src/lv_widgets/lv_canvas.c"
   1:lvgl/src/lv_widgets/lv_canvas.c **** /**
   2:lvgl/src/lv_widgets/lv_canvas.c ****  * @file lv_canvas.c
   3:lvgl/src/lv_widgets/lv_canvas.c ****  *
   4:lvgl/src/lv_widgets/lv_canvas.c ****  */
   5:lvgl/src/lv_widgets/lv_canvas.c **** 
   6:lvgl/src/lv_widgets/lv_canvas.c **** /*********************
   7:lvgl/src/lv_widgets/lv_canvas.c ****  *      INCLUDES
   8:lvgl/src/lv_widgets/lv_canvas.c ****  *********************/
   9:lvgl/src/lv_widgets/lv_canvas.c **** #include <stdlib.h>
  10:lvgl/src/lv_widgets/lv_canvas.c **** #include "lv_canvas.h"
  11:lvgl/src/lv_widgets/lv_canvas.c **** #include "../lv_misc/lv_debug.h"
  12:lvgl/src/lv_widgets/lv_canvas.c **** #include "../lv_misc/lv_math.h"
  13:lvgl/src/lv_widgets/lv_canvas.c **** #include "../lv_draw/lv_draw.h"
  14:lvgl/src/lv_widgets/lv_canvas.c **** #include "../lv_core/lv_refr.h"
  15:lvgl/src/lv_widgets/lv_canvas.c **** #include "../lv_themes/lv_theme.h"
  16:lvgl/src/lv_widgets/lv_canvas.c **** 
  17:lvgl/src/lv_widgets/lv_canvas.c **** #if LV_USE_CANVAS != 0
  18:lvgl/src/lv_widgets/lv_canvas.c **** 
  19:lvgl/src/lv_widgets/lv_canvas.c **** /*********************
  20:lvgl/src/lv_widgets/lv_canvas.c ****  *      DEFINES
  21:lvgl/src/lv_widgets/lv_canvas.c ****  *********************/
  22:lvgl/src/lv_widgets/lv_canvas.c **** #define LV_OBJX_NAME "lv_canvas"
  23:lvgl/src/lv_widgets/lv_canvas.c **** 
  24:lvgl/src/lv_widgets/lv_canvas.c **** /**********************
  25:lvgl/src/lv_widgets/lv_canvas.c ****  *      TYPEDEFS
  26:lvgl/src/lv_widgets/lv_canvas.c ****  **********************/
  27:lvgl/src/lv_widgets/lv_canvas.c **** 
  28:lvgl/src/lv_widgets/lv_canvas.c **** /**********************
  29:lvgl/src/lv_widgets/lv_canvas.c ****  *  STATIC PROTOTYPES
  30:lvgl/src/lv_widgets/lv_canvas.c ****  **********************/
ARM GAS  D:\Temp\cc0vPyDE.s 			page 2


  31:lvgl/src/lv_widgets/lv_canvas.c **** static lv_res_t lv_canvas_signal(lv_obj_t * canvas, lv_signal_t sign, void * param);
  32:lvgl/src/lv_widgets/lv_canvas.c **** static void set_set_px_cb(lv_disp_drv_t * disp_drv, lv_img_cf_t cf);
  33:lvgl/src/lv_widgets/lv_canvas.c **** 
  34:lvgl/src/lv_widgets/lv_canvas.c **** static void set_px_true_color_alpha(lv_disp_drv_t * disp_drv, uint8_t * buf, lv_coord_t buf_w, lv_c
  35:lvgl/src/lv_widgets/lv_canvas.c ****                                     lv_coord_t y,
  36:lvgl/src/lv_widgets/lv_canvas.c ****                                     lv_color_t color, lv_opa_t opa);
  37:lvgl/src/lv_widgets/lv_canvas.c **** 
  38:lvgl/src/lv_widgets/lv_canvas.c **** static void set_px_cb_alpha1(lv_disp_drv_t * disp_drv, uint8_t * buf, lv_coord_t buf_w, lv_coord_t 
  39:lvgl/src/lv_widgets/lv_canvas.c ****                              lv_color_t color, lv_opa_t opa);
  40:lvgl/src/lv_widgets/lv_canvas.c **** 
  41:lvgl/src/lv_widgets/lv_canvas.c **** static void set_px_cb_alpha2(lv_disp_drv_t * disp_drv, uint8_t * buf, lv_coord_t buf_w, lv_coord_t 
  42:lvgl/src/lv_widgets/lv_canvas.c ****                              lv_color_t color, lv_opa_t opa);
  43:lvgl/src/lv_widgets/lv_canvas.c **** 
  44:lvgl/src/lv_widgets/lv_canvas.c **** static void set_px_cb_alpha4(lv_disp_drv_t * disp_drv, uint8_t * buf, lv_coord_t buf_w, lv_coord_t 
  45:lvgl/src/lv_widgets/lv_canvas.c ****                              lv_color_t color, lv_opa_t opa);
  46:lvgl/src/lv_widgets/lv_canvas.c **** 
  47:lvgl/src/lv_widgets/lv_canvas.c **** static void set_px_cb_alpha8(lv_disp_drv_t * disp_drv, uint8_t * buf, lv_coord_t buf_w, lv_coord_t 
  48:lvgl/src/lv_widgets/lv_canvas.c ****                              lv_color_t color, lv_opa_t opa);
  49:lvgl/src/lv_widgets/lv_canvas.c **** 
  50:lvgl/src/lv_widgets/lv_canvas.c **** static void set_px_alpha_generic(lv_img_dsc_t * d, lv_coord_t x, lv_coord_t y, lv_color_t color, lv
  51:lvgl/src/lv_widgets/lv_canvas.c **** 
  52:lvgl/src/lv_widgets/lv_canvas.c **** /**********************
  53:lvgl/src/lv_widgets/lv_canvas.c ****  *  STATIC VARIABLES
  54:lvgl/src/lv_widgets/lv_canvas.c ****  **********************/
  55:lvgl/src/lv_widgets/lv_canvas.c **** static lv_signal_cb_t ancestor_signal;
  56:lvgl/src/lv_widgets/lv_canvas.c **** static lv_design_cb_t ancestor_design;
  57:lvgl/src/lv_widgets/lv_canvas.c **** 
  58:lvgl/src/lv_widgets/lv_canvas.c **** /**********************
  59:lvgl/src/lv_widgets/lv_canvas.c ****  *      MACROS
  60:lvgl/src/lv_widgets/lv_canvas.c ****  **********************/
  61:lvgl/src/lv_widgets/lv_canvas.c **** 
  62:lvgl/src/lv_widgets/lv_canvas.c **** /**********************
  63:lvgl/src/lv_widgets/lv_canvas.c ****  *   GLOBAL FUNCTIONS
  64:lvgl/src/lv_widgets/lv_canvas.c ****  **********************/
  65:lvgl/src/lv_widgets/lv_canvas.c **** 
  66:lvgl/src/lv_widgets/lv_canvas.c **** /**
  67:lvgl/src/lv_widgets/lv_canvas.c ****  * Create a canvas object
  68:lvgl/src/lv_widgets/lv_canvas.c ****  * @param par pointer to an object, it will be the parent of the new canvas
  69:lvgl/src/lv_widgets/lv_canvas.c ****  * @param copy pointer to a canvas object, if not NULL then the new object will be copied from it
  70:lvgl/src/lv_widgets/lv_canvas.c ****  * @return pointer to the created canvas
  71:lvgl/src/lv_widgets/lv_canvas.c ****  */
  72:lvgl/src/lv_widgets/lv_canvas.c **** lv_obj_t * lv_canvas_create(lv_obj_t * par, const lv_obj_t * copy)
  73:lvgl/src/lv_widgets/lv_canvas.c **** {
  74:lvgl/src/lv_widgets/lv_canvas.c ****     LV_LOG_TRACE("canvas create started");
  75:lvgl/src/lv_widgets/lv_canvas.c **** 
  76:lvgl/src/lv_widgets/lv_canvas.c ****     /*Create the ancestor of canvas*/
  77:lvgl/src/lv_widgets/lv_canvas.c ****     lv_obj_t * new_canvas = lv_img_create(par, copy);
  78:lvgl/src/lv_widgets/lv_canvas.c ****     LV_ASSERT_MEM(new_canvas);
  79:lvgl/src/lv_widgets/lv_canvas.c ****     if(new_canvas == NULL) return NULL;
  80:lvgl/src/lv_widgets/lv_canvas.c **** 
  81:lvgl/src/lv_widgets/lv_canvas.c ****     /*Allocate the canvas type specific extended data*/
  82:lvgl/src/lv_widgets/lv_canvas.c ****     lv_canvas_ext_t * ext = lv_obj_allocate_ext_attr(new_canvas, sizeof(lv_canvas_ext_t));
  83:lvgl/src/lv_widgets/lv_canvas.c ****     LV_ASSERT_MEM(ext);
  84:lvgl/src/lv_widgets/lv_canvas.c ****     if(ext == NULL) {
  85:lvgl/src/lv_widgets/lv_canvas.c ****         lv_obj_del(new_canvas);
  86:lvgl/src/lv_widgets/lv_canvas.c ****         return NULL;
  87:lvgl/src/lv_widgets/lv_canvas.c ****     }
ARM GAS  D:\Temp\cc0vPyDE.s 			page 3


  88:lvgl/src/lv_widgets/lv_canvas.c **** 
  89:lvgl/src/lv_widgets/lv_canvas.c ****     if(ancestor_signal == NULL) ancestor_signal = lv_obj_get_signal_cb(new_canvas);
  90:lvgl/src/lv_widgets/lv_canvas.c ****     if(ancestor_design == NULL) ancestor_design = lv_obj_get_design_cb(new_canvas);
  91:lvgl/src/lv_widgets/lv_canvas.c **** 
  92:lvgl/src/lv_widgets/lv_canvas.c ****     /*Initialize the allocated 'ext' */
  93:lvgl/src/lv_widgets/lv_canvas.c ****     ext->dsc.header.always_zero = 0;
  94:lvgl/src/lv_widgets/lv_canvas.c ****     ext->dsc.header.cf          = LV_IMG_CF_TRUE_COLOR;
  95:lvgl/src/lv_widgets/lv_canvas.c ****     ext->dsc.header.h           = 0;
  96:lvgl/src/lv_widgets/lv_canvas.c ****     ext->dsc.header.w           = 0;
  97:lvgl/src/lv_widgets/lv_canvas.c ****     ext->dsc.data_size          = 0;
  98:lvgl/src/lv_widgets/lv_canvas.c ****     ext->dsc.data               = NULL;
  99:lvgl/src/lv_widgets/lv_canvas.c **** 
 100:lvgl/src/lv_widgets/lv_canvas.c ****     lv_img_set_src(new_canvas, &ext->dsc);
 101:lvgl/src/lv_widgets/lv_canvas.c **** 
 102:lvgl/src/lv_widgets/lv_canvas.c ****     /*The signal and design functions are not copied so set them here*/
 103:lvgl/src/lv_widgets/lv_canvas.c ****     lv_obj_set_signal_cb(new_canvas, lv_canvas_signal);
 104:lvgl/src/lv_widgets/lv_canvas.c **** 
 105:lvgl/src/lv_widgets/lv_canvas.c ****     /*Init the new canvas canvas*/
 106:lvgl/src/lv_widgets/lv_canvas.c ****     if(copy == NULL) {
 107:lvgl/src/lv_widgets/lv_canvas.c ****         lv_theme_apply(new_canvas, LV_THEME_CANVAS);
 108:lvgl/src/lv_widgets/lv_canvas.c ****     }
 109:lvgl/src/lv_widgets/lv_canvas.c ****     /*Copy an existing canvas*/
 110:lvgl/src/lv_widgets/lv_canvas.c ****     else {
 111:lvgl/src/lv_widgets/lv_canvas.c ****         /*Do not copy the image data because each canvas needs it's own buffer*/
 112:lvgl/src/lv_widgets/lv_canvas.c **** 
 113:lvgl/src/lv_widgets/lv_canvas.c ****     }
 114:lvgl/src/lv_widgets/lv_canvas.c **** 
 115:lvgl/src/lv_widgets/lv_canvas.c ****     LV_LOG_INFO("canvas created");
 116:lvgl/src/lv_widgets/lv_canvas.c **** 
 117:lvgl/src/lv_widgets/lv_canvas.c ****     return new_canvas;
 118:lvgl/src/lv_widgets/lv_canvas.c **** }
 119:lvgl/src/lv_widgets/lv_canvas.c **** 
 120:lvgl/src/lv_widgets/lv_canvas.c **** /*=====================
 121:lvgl/src/lv_widgets/lv_canvas.c ****  * Setter functions
 122:lvgl/src/lv_widgets/lv_canvas.c ****  *====================*/
 123:lvgl/src/lv_widgets/lv_canvas.c **** 
 124:lvgl/src/lv_widgets/lv_canvas.c **** /**
 125:lvgl/src/lv_widgets/lv_canvas.c ****  * Set a buffer for the canvas.
 126:lvgl/src/lv_widgets/lv_canvas.c ****  * @param buf a buffer where the content of the canvas will be.
 127:lvgl/src/lv_widgets/lv_canvas.c ****  * The required size is (lv_img_color_format_get_px_size(cf) * w * h) / 8)
 128:lvgl/src/lv_widgets/lv_canvas.c ****  * It can be allocated with `lv_mem_alloc()` or
 129:lvgl/src/lv_widgets/lv_canvas.c ****  * it can be statically allocated array (e.g. static lv_color_t buf[100*50]) or
 130:lvgl/src/lv_widgets/lv_canvas.c ****  * it can be an address in RAM or external SRAM
 131:lvgl/src/lv_widgets/lv_canvas.c ****  * @param canvas pointer to a canvas object
 132:lvgl/src/lv_widgets/lv_canvas.c ****  * @param w width of the canvas
 133:lvgl/src/lv_widgets/lv_canvas.c ****  * @param h height of the canvas
 134:lvgl/src/lv_widgets/lv_canvas.c ****  * @param cf color format. The following formats are supported:
 135:lvgl/src/lv_widgets/lv_canvas.c ****  *      LV_IMG_CF_TRUE_COLOR, LV_IMG_CF_TRUE_COLOR_CHROMA_KEYED, LV_IMG_CF_INDEXES_1/2/4/8BIT
 136:lvgl/src/lv_widgets/lv_canvas.c ****  *
 137:lvgl/src/lv_widgets/lv_canvas.c ****  */
 138:lvgl/src/lv_widgets/lv_canvas.c **** void lv_canvas_set_buffer(lv_obj_t * canvas, void * buf, lv_coord_t w, lv_coord_t h, lv_img_cf_t cf
 139:lvgl/src/lv_widgets/lv_canvas.c **** {
 140:lvgl/src/lv_widgets/lv_canvas.c ****     LV_ASSERT_OBJ(canvas, LV_OBJX_NAME);
 141:lvgl/src/lv_widgets/lv_canvas.c ****     LV_ASSERT_NULL(buf);
 142:lvgl/src/lv_widgets/lv_canvas.c **** 
 143:lvgl/src/lv_widgets/lv_canvas.c ****     lv_canvas_ext_t * ext = lv_obj_get_ext_attr(canvas);
 144:lvgl/src/lv_widgets/lv_canvas.c **** 
ARM GAS  D:\Temp\cc0vPyDE.s 			page 4


 145:lvgl/src/lv_widgets/lv_canvas.c ****     ext->dsc.header.cf = cf;
 146:lvgl/src/lv_widgets/lv_canvas.c ****     ext->dsc.header.w  = w;
 147:lvgl/src/lv_widgets/lv_canvas.c ****     ext->dsc.header.h  = h;
 148:lvgl/src/lv_widgets/lv_canvas.c ****     ext->dsc.data      = buf;
 149:lvgl/src/lv_widgets/lv_canvas.c **** 
 150:lvgl/src/lv_widgets/lv_canvas.c ****     lv_img_set_src(canvas, &ext->dsc);
 151:lvgl/src/lv_widgets/lv_canvas.c **** }
 152:lvgl/src/lv_widgets/lv_canvas.c **** 
 153:lvgl/src/lv_widgets/lv_canvas.c **** /**
 154:lvgl/src/lv_widgets/lv_canvas.c ****  * Set the color of a pixel on the canvas
 155:lvgl/src/lv_widgets/lv_canvas.c ****  * @param canvas pointer to canvas object
 156:lvgl/src/lv_widgets/lv_canvas.c ****  * @param x x coordinate of the point to set
 157:lvgl/src/lv_widgets/lv_canvas.c ****  * @param y x coordinate of the point to set
 158:lvgl/src/lv_widgets/lv_canvas.c ****  * @param c color of the point
 159:lvgl/src/lv_widgets/lv_canvas.c ****  */
 160:lvgl/src/lv_widgets/lv_canvas.c **** void lv_canvas_set_px(lv_obj_t * canvas, lv_coord_t x, lv_coord_t y, lv_color_t c)
 161:lvgl/src/lv_widgets/lv_canvas.c **** {
 162:lvgl/src/lv_widgets/lv_canvas.c ****     LV_ASSERT_OBJ(canvas, LV_OBJX_NAME);
 163:lvgl/src/lv_widgets/lv_canvas.c **** 
 164:lvgl/src/lv_widgets/lv_canvas.c ****     lv_canvas_ext_t * ext = lv_obj_get_ext_attr(canvas);
 165:lvgl/src/lv_widgets/lv_canvas.c **** 
 166:lvgl/src/lv_widgets/lv_canvas.c ****     lv_img_buf_set_px_color(&ext->dsc, x, y, c);
 167:lvgl/src/lv_widgets/lv_canvas.c ****     lv_obj_invalidate(canvas);
 168:lvgl/src/lv_widgets/lv_canvas.c **** }
 169:lvgl/src/lv_widgets/lv_canvas.c **** 
 170:lvgl/src/lv_widgets/lv_canvas.c **** /**
 171:lvgl/src/lv_widgets/lv_canvas.c ****  * Set the palette color of a canvas with index format. Valid only for `LV_IMG_CF_INDEXED1/2/4/8`
 172:lvgl/src/lv_widgets/lv_canvas.c ****  * @param canvas pointer to canvas object
 173:lvgl/src/lv_widgets/lv_canvas.c ****  * @param id the palette color to set:
 174:lvgl/src/lv_widgets/lv_canvas.c ****  *   - for `LV_IMG_CF_INDEXED1`: 0..1
 175:lvgl/src/lv_widgets/lv_canvas.c ****  *   - for `LV_IMG_CF_INDEXED2`: 0..3
 176:lvgl/src/lv_widgets/lv_canvas.c ****  *   - for `LV_IMG_CF_INDEXED4`: 0..15
 177:lvgl/src/lv_widgets/lv_canvas.c ****  *   - for `LV_IMG_CF_INDEXED8`: 0..255
 178:lvgl/src/lv_widgets/lv_canvas.c ****  * @param c the color to set
 179:lvgl/src/lv_widgets/lv_canvas.c ****  */
 180:lvgl/src/lv_widgets/lv_canvas.c **** void lv_canvas_set_palette(lv_obj_t * canvas, uint8_t id, lv_color_t c)
 181:lvgl/src/lv_widgets/lv_canvas.c **** {
 182:lvgl/src/lv_widgets/lv_canvas.c ****     LV_ASSERT_OBJ(canvas, LV_OBJX_NAME);
 183:lvgl/src/lv_widgets/lv_canvas.c **** 
 184:lvgl/src/lv_widgets/lv_canvas.c ****     lv_canvas_ext_t * ext = lv_obj_get_ext_attr(canvas);
 185:lvgl/src/lv_widgets/lv_canvas.c **** 
 186:lvgl/src/lv_widgets/lv_canvas.c ****     lv_img_buf_set_palette(&ext->dsc, id, c);
 187:lvgl/src/lv_widgets/lv_canvas.c ****     lv_obj_invalidate(canvas);
 188:lvgl/src/lv_widgets/lv_canvas.c **** }
 189:lvgl/src/lv_widgets/lv_canvas.c **** 
 190:lvgl/src/lv_widgets/lv_canvas.c **** /*=====================
 191:lvgl/src/lv_widgets/lv_canvas.c ****  * Getter functions
 192:lvgl/src/lv_widgets/lv_canvas.c ****  *====================*/
 193:lvgl/src/lv_widgets/lv_canvas.c **** 
 194:lvgl/src/lv_widgets/lv_canvas.c **** /**
 195:lvgl/src/lv_widgets/lv_canvas.c ****  * Get the color of a pixel on the canvas
 196:lvgl/src/lv_widgets/lv_canvas.c ****  * @param canvas
 197:lvgl/src/lv_widgets/lv_canvas.c ****  * @param x x coordinate of the point to set
 198:lvgl/src/lv_widgets/lv_canvas.c ****  * @param y x coordinate of the point to set
 199:lvgl/src/lv_widgets/lv_canvas.c ****  * @return color of the point
 200:lvgl/src/lv_widgets/lv_canvas.c ****  */
 201:lvgl/src/lv_widgets/lv_canvas.c **** lv_color_t lv_canvas_get_px(lv_obj_t * canvas, lv_coord_t x, lv_coord_t y)
ARM GAS  D:\Temp\cc0vPyDE.s 			page 5


 202:lvgl/src/lv_widgets/lv_canvas.c **** {
 203:lvgl/src/lv_widgets/lv_canvas.c ****     LV_ASSERT_OBJ(canvas, LV_OBJX_NAME);
 204:lvgl/src/lv_widgets/lv_canvas.c **** 
 205:lvgl/src/lv_widgets/lv_canvas.c ****     lv_canvas_ext_t * ext    = lv_obj_get_ext_attr(canvas);
 206:lvgl/src/lv_widgets/lv_canvas.c ****     lv_color_t color = lv_obj_get_style_image_recolor(canvas, LV_CANVAS_PART_MAIN);
 207:lvgl/src/lv_widgets/lv_canvas.c **** 
 208:lvgl/src/lv_widgets/lv_canvas.c ****     return lv_img_buf_get_px_color(&ext->dsc, x, y, color);
 209:lvgl/src/lv_widgets/lv_canvas.c **** }
 210:lvgl/src/lv_widgets/lv_canvas.c **** 
 211:lvgl/src/lv_widgets/lv_canvas.c **** /**
 212:lvgl/src/lv_widgets/lv_canvas.c ****  * Get the image of the canvas as a pointer to an `lv_img_dsc_t` variable.
 213:lvgl/src/lv_widgets/lv_canvas.c ****  * @param canvas pointer to a canvas object
 214:lvgl/src/lv_widgets/lv_canvas.c ****  * @return pointer to the image descriptor.
 215:lvgl/src/lv_widgets/lv_canvas.c ****  */
 216:lvgl/src/lv_widgets/lv_canvas.c **** lv_img_dsc_t * lv_canvas_get_img(lv_obj_t * canvas)
 217:lvgl/src/lv_widgets/lv_canvas.c **** {
 218:lvgl/src/lv_widgets/lv_canvas.c ****     LV_ASSERT_OBJ(canvas, LV_OBJX_NAME);
 219:lvgl/src/lv_widgets/lv_canvas.c **** 
 220:lvgl/src/lv_widgets/lv_canvas.c ****     lv_canvas_ext_t * ext = lv_obj_get_ext_attr(canvas);
 221:lvgl/src/lv_widgets/lv_canvas.c **** 
 222:lvgl/src/lv_widgets/lv_canvas.c ****     return &ext->dsc;
 223:lvgl/src/lv_widgets/lv_canvas.c **** }
 224:lvgl/src/lv_widgets/lv_canvas.c **** 
 225:lvgl/src/lv_widgets/lv_canvas.c **** /*=====================
 226:lvgl/src/lv_widgets/lv_canvas.c ****  * Other functions
 227:lvgl/src/lv_widgets/lv_canvas.c ****  *====================*/
 228:lvgl/src/lv_widgets/lv_canvas.c **** 
 229:lvgl/src/lv_widgets/lv_canvas.c **** /**
 230:lvgl/src/lv_widgets/lv_canvas.c ****  * Copy a buffer to the canvas
 231:lvgl/src/lv_widgets/lv_canvas.c ****  * @param canvas pointer to a canvas object
 232:lvgl/src/lv_widgets/lv_canvas.c ****  * @param to_copy buffer to copy. The color format has to match with the canvas's buffer color
 233:lvgl/src/lv_widgets/lv_canvas.c ****  * format
 234:lvgl/src/lv_widgets/lv_canvas.c ****  * @param w width of the buffer to copy
 235:lvgl/src/lv_widgets/lv_canvas.c ****  * @param h height of the buffer to copy
 236:lvgl/src/lv_widgets/lv_canvas.c ****  * @param x left side of the destination position
 237:lvgl/src/lv_widgets/lv_canvas.c ****  * @param y top side of the destination position
 238:lvgl/src/lv_widgets/lv_canvas.c ****  */
 239:lvgl/src/lv_widgets/lv_canvas.c **** void lv_canvas_copy_buf(lv_obj_t * canvas, const void * to_copy, lv_coord_t x, lv_coord_t y, lv_coo
 240:lvgl/src/lv_widgets/lv_canvas.c **** {
 241:lvgl/src/lv_widgets/lv_canvas.c ****     LV_ASSERT_OBJ(canvas, LV_OBJX_NAME);
 242:lvgl/src/lv_widgets/lv_canvas.c ****     LV_ASSERT_NULL(to_copy);
 243:lvgl/src/lv_widgets/lv_canvas.c **** 
 244:lvgl/src/lv_widgets/lv_canvas.c ****     lv_canvas_ext_t * ext = lv_obj_get_ext_attr(canvas);
 245:lvgl/src/lv_widgets/lv_canvas.c ****     if(x + w >= (lv_coord_t)ext->dsc.header.w || y + h >= (lv_coord_t)ext->dsc.header.h) {
 246:lvgl/src/lv_widgets/lv_canvas.c ****         LV_LOG_WARN("lv_canvas_copy_buf: x or y out of the canvas");
 247:lvgl/src/lv_widgets/lv_canvas.c ****         return;
 248:lvgl/src/lv_widgets/lv_canvas.c ****     }
 249:lvgl/src/lv_widgets/lv_canvas.c **** 
 250:lvgl/src/lv_widgets/lv_canvas.c ****     uint32_t px_size   = lv_img_cf_get_px_size(ext->dsc.header.cf) >> 3;
 251:lvgl/src/lv_widgets/lv_canvas.c ****     uint32_t px        = ext->dsc.header.w * y * px_size + x * px_size;
 252:lvgl/src/lv_widgets/lv_canvas.c ****     uint8_t * to_copy8 = (uint8_t *)to_copy;
 253:lvgl/src/lv_widgets/lv_canvas.c ****     lv_coord_t i;
 254:lvgl/src/lv_widgets/lv_canvas.c ****     for(i = 0; i < h; i++) {
 255:lvgl/src/lv_widgets/lv_canvas.c ****         _lv_memcpy((void *)&ext->dsc.data[px], to_copy8, w * px_size);
 256:lvgl/src/lv_widgets/lv_canvas.c ****         px += ext->dsc.header.w * px_size;
 257:lvgl/src/lv_widgets/lv_canvas.c ****         to_copy8 += w * px_size;
 258:lvgl/src/lv_widgets/lv_canvas.c ****     }
ARM GAS  D:\Temp\cc0vPyDE.s 			page 6


 259:lvgl/src/lv_widgets/lv_canvas.c **** }
 260:lvgl/src/lv_widgets/lv_canvas.c **** 
 261:lvgl/src/lv_widgets/lv_canvas.c **** /**
 262:lvgl/src/lv_widgets/lv_canvas.c ****  * Transform and image and store the result on a canvas.
 263:lvgl/src/lv_widgets/lv_canvas.c ****  * @param canvas pointer to a canvas object to store the result of the transformation.
 264:lvgl/src/lv_widgets/lv_canvas.c ****  * @param img pointer to an image descriptor to transform.
 265:lvgl/src/lv_widgets/lv_canvas.c ****  *             Can be the image descriptor of an other canvas too (`lv_canvas_get_img()`).
 266:lvgl/src/lv_widgets/lv_canvas.c ****  * @param angle the angle of rotation (0..3600), 0.1 deg resolution
 267:lvgl/src/lv_widgets/lv_canvas.c ****  * @param zoom zoom factor (256 no zoom);
 268:lvgl/src/lv_widgets/lv_canvas.c ****  * @param offset_x offset X to tell where to put the result data on destination canvas
 269:lvgl/src/lv_widgets/lv_canvas.c ****  * @param offset_y offset X to tell where to put the result data on destination canvas
 270:lvgl/src/lv_widgets/lv_canvas.c ****  * @param pivot_x pivot X of rotation. Relative to the source canvas
 271:lvgl/src/lv_widgets/lv_canvas.c ****  *                Set to `source width / 2` to rotate around the center
 272:lvgl/src/lv_widgets/lv_canvas.c ****  * @param pivot_y pivot Y of rotation. Relative to the source canvas
 273:lvgl/src/lv_widgets/lv_canvas.c ****  *                Set to `source height / 2` to rotate around the center
 274:lvgl/src/lv_widgets/lv_canvas.c ****  * @param antialias apply anti-aliasing during the transformation. Looks better but slower.
 275:lvgl/src/lv_widgets/lv_canvas.c ****  */
 276:lvgl/src/lv_widgets/lv_canvas.c **** void lv_canvas_transform(lv_obj_t * canvas, lv_img_dsc_t * img, int16_t angle, uint16_t zoom, lv_co
 277:lvgl/src/lv_widgets/lv_canvas.c ****                          lv_coord_t offset_y,
 278:lvgl/src/lv_widgets/lv_canvas.c ****                          int32_t pivot_x, int32_t pivot_y, bool antialias)
 279:lvgl/src/lv_widgets/lv_canvas.c **** {
 280:lvgl/src/lv_widgets/lv_canvas.c **** #if LV_USE_IMG_TRANSFORM
 281:lvgl/src/lv_widgets/lv_canvas.c ****     LV_ASSERT_OBJ(canvas, LV_OBJX_NAME);
 282:lvgl/src/lv_widgets/lv_canvas.c ****     LV_ASSERT_NULL(img);
 283:lvgl/src/lv_widgets/lv_canvas.c **** 
 284:lvgl/src/lv_widgets/lv_canvas.c ****     lv_canvas_ext_t * ext_dst = lv_obj_get_ext_attr(canvas);
 285:lvgl/src/lv_widgets/lv_canvas.c ****     lv_color_t color = lv_obj_get_style_image_recolor(canvas, LV_CANVAS_PART_MAIN);
 286:lvgl/src/lv_widgets/lv_canvas.c **** 
 287:lvgl/src/lv_widgets/lv_canvas.c ****     int32_t dest_width  = ext_dst->dsc.header.w;
 288:lvgl/src/lv_widgets/lv_canvas.c ****     int32_t dest_height = ext_dst->dsc.header.h;
 289:lvgl/src/lv_widgets/lv_canvas.c **** 
 290:lvgl/src/lv_widgets/lv_canvas.c ****     int32_t x;
 291:lvgl/src/lv_widgets/lv_canvas.c ****     int32_t y;
 292:lvgl/src/lv_widgets/lv_canvas.c ****     bool ret;
 293:lvgl/src/lv_widgets/lv_canvas.c **** 
 294:lvgl/src/lv_widgets/lv_canvas.c ****     lv_img_transform_dsc_t dsc;
 295:lvgl/src/lv_widgets/lv_canvas.c ****     dsc.cfg.angle = angle;
 296:lvgl/src/lv_widgets/lv_canvas.c ****     dsc.cfg.zoom = zoom;
 297:lvgl/src/lv_widgets/lv_canvas.c ****     dsc.cfg.src = img->data;
 298:lvgl/src/lv_widgets/lv_canvas.c ****     dsc.cfg.src_w = img->header.w;
 299:lvgl/src/lv_widgets/lv_canvas.c ****     dsc.cfg.src_h = img->header.h;
 300:lvgl/src/lv_widgets/lv_canvas.c ****     dsc.cfg.cf = img->header.cf;
 301:lvgl/src/lv_widgets/lv_canvas.c ****     dsc.cfg.pivot_x = pivot_x;
 302:lvgl/src/lv_widgets/lv_canvas.c ****     dsc.cfg.pivot_y = pivot_y;
 303:lvgl/src/lv_widgets/lv_canvas.c ****     dsc.cfg.color = color;
 304:lvgl/src/lv_widgets/lv_canvas.c ****     dsc.cfg.antialias = antialias;
 305:lvgl/src/lv_widgets/lv_canvas.c ****     _lv_img_buf_transform_init(&dsc);
 306:lvgl/src/lv_widgets/lv_canvas.c **** 
 307:lvgl/src/lv_widgets/lv_canvas.c ****     for(y = -offset_y; y < dest_height - offset_y; y++) {
 308:lvgl/src/lv_widgets/lv_canvas.c ****         for(x = -offset_x; x < dest_width - offset_x; x++) {
 309:lvgl/src/lv_widgets/lv_canvas.c **** 
 310:lvgl/src/lv_widgets/lv_canvas.c ****             ret = _lv_img_buf_transform(&dsc, x, y);
 311:lvgl/src/lv_widgets/lv_canvas.c **** 
 312:lvgl/src/lv_widgets/lv_canvas.c ****             if(ret == false) continue;
 313:lvgl/src/lv_widgets/lv_canvas.c **** 
 314:lvgl/src/lv_widgets/lv_canvas.c ****             if(x + offset_x >= 0 && x + offset_x < dest_width && y + offset_y >= 0 && y + offset_y 
 315:lvgl/src/lv_widgets/lv_canvas.c ****                 /*If the image has no alpha channel just simple set the result color on the canvas*
ARM GAS  D:\Temp\cc0vPyDE.s 			page 7


 316:lvgl/src/lv_widgets/lv_canvas.c ****                 if(lv_img_cf_has_alpha(img->header.cf) == false) {
 317:lvgl/src/lv_widgets/lv_canvas.c ****                     lv_img_buf_set_px_color(&ext_dst->dsc, x + offset_x, y + offset_y, dsc.res.colo
 318:lvgl/src/lv_widgets/lv_canvas.c ****                 }
 319:lvgl/src/lv_widgets/lv_canvas.c ****                 else {
 320:lvgl/src/lv_widgets/lv_canvas.c ****                     lv_color_t bg_color = lv_img_buf_get_px_color(&ext_dst->dsc, x + offset_x, y + 
 321:lvgl/src/lv_widgets/lv_canvas.c **** 
 322:lvgl/src/lv_widgets/lv_canvas.c ****                     /*If the canvas has no alpha but the image has mix the image's color with
 323:lvgl/src/lv_widgets/lv_canvas.c ****                      * canvas*/
 324:lvgl/src/lv_widgets/lv_canvas.c ****                     if(lv_img_cf_has_alpha(ext_dst->dsc.header.cf) == false) {
 325:lvgl/src/lv_widgets/lv_canvas.c ****                         if(dsc.res.opa < LV_OPA_MAX) dsc.res.color = lv_color_mix(dsc.res.color, bg
 326:lvgl/src/lv_widgets/lv_canvas.c ****                         lv_img_buf_set_px_color(&ext_dst->dsc, x + offset_x, y + offset_y, dsc.res.
 327:lvgl/src/lv_widgets/lv_canvas.c ****                     }
 328:lvgl/src/lv_widgets/lv_canvas.c ****                     /*Both the image and canvas has alpha channel. Some extra calculation is
 329:lvgl/src/lv_widgets/lv_canvas.c ****                        required*/
 330:lvgl/src/lv_widgets/lv_canvas.c ****                     else {
 331:lvgl/src/lv_widgets/lv_canvas.c ****                         lv_opa_t bg_opa = lv_img_buf_get_px_alpha(&ext_dst->dsc, x + offset_x, y + 
 332:lvgl/src/lv_widgets/lv_canvas.c ****                         /* Pick the foreground if it's fully opaque or the Background is fully
 333:lvgl/src/lv_widgets/lv_canvas.c ****                          * transparent*/
 334:lvgl/src/lv_widgets/lv_canvas.c ****                         if(dsc.res.opa >= LV_OPA_MAX || bg_opa <= LV_OPA_MIN) {
 335:lvgl/src/lv_widgets/lv_canvas.c ****                             lv_img_buf_set_px_color(&ext_dst->dsc, x + offset_x, y + offset_y, dsc.
 336:lvgl/src/lv_widgets/lv_canvas.c ****                             lv_img_buf_set_px_alpha(&ext_dst->dsc, x + offset_x, y + offset_y, dsc.
 337:lvgl/src/lv_widgets/lv_canvas.c ****                         }
 338:lvgl/src/lv_widgets/lv_canvas.c ****                         /*Opaque background: use simple mix*/
 339:lvgl/src/lv_widgets/lv_canvas.c ****                         else if(bg_opa >= LV_OPA_MAX) {
 340:lvgl/src/lv_widgets/lv_canvas.c ****                             lv_img_buf_set_px_color(&ext_dst->dsc, x + offset_x, y + offset_y,
 341:lvgl/src/lv_widgets/lv_canvas.c ****                                                     lv_color_mix(dsc.res.color, bg_color, dsc.res.o
 342:lvgl/src/lv_widgets/lv_canvas.c ****                         }
 343:lvgl/src/lv_widgets/lv_canvas.c ****                         /*Both colors have alpha. Expensive calculation need to be applied*/
 344:lvgl/src/lv_widgets/lv_canvas.c ****                         else {
 345:lvgl/src/lv_widgets/lv_canvas.c **** 
 346:lvgl/src/lv_widgets/lv_canvas.c ****                             /*Info:
 347:lvgl/src/lv_widgets/lv_canvas.c ****                              * https://en.wikipedia.org/wiki/Alpha_compositing#Analytical_derivatio
 348:lvgl/src/lv_widgets/lv_canvas.c ****                             lv_opa_t opa_res_2 = 255 - ((uint16_t)((uint16_t)(255 - dsc.res.opa) * 
 349:lvgl/src/lv_widgets/lv_canvas.c ****                             if(opa_res_2 == 0) {
 350:lvgl/src/lv_widgets/lv_canvas.c ****                                 opa_res_2 = 1; /*never happens, just to be sure*/
 351:lvgl/src/lv_widgets/lv_canvas.c ****                             }
 352:lvgl/src/lv_widgets/lv_canvas.c ****                             lv_opa_t ratio = (uint16_t)((uint16_t)dsc.res.opa * 255) / opa_res_2;
 353:lvgl/src/lv_widgets/lv_canvas.c **** 
 354:lvgl/src/lv_widgets/lv_canvas.c ****                             lv_img_buf_set_px_color(&ext_dst->dsc, x + offset_x, y + offset_y,
 355:lvgl/src/lv_widgets/lv_canvas.c ****                                                     lv_color_mix(dsc.res.color, bg_color, ratio));
 356:lvgl/src/lv_widgets/lv_canvas.c ****                             lv_img_buf_set_px_alpha(&ext_dst->dsc, x + offset_x, y + offset_y, opa_
 357:lvgl/src/lv_widgets/lv_canvas.c ****                         }
 358:lvgl/src/lv_widgets/lv_canvas.c ****                     }
 359:lvgl/src/lv_widgets/lv_canvas.c ****                 }
 360:lvgl/src/lv_widgets/lv_canvas.c ****             }
 361:lvgl/src/lv_widgets/lv_canvas.c ****         }
 362:lvgl/src/lv_widgets/lv_canvas.c ****     }
 363:lvgl/src/lv_widgets/lv_canvas.c **** 
 364:lvgl/src/lv_widgets/lv_canvas.c ****     lv_obj_invalidate(canvas);
 365:lvgl/src/lv_widgets/lv_canvas.c **** #else
 366:lvgl/src/lv_widgets/lv_canvas.c ****     LV_UNUSED(canvas);
 367:lvgl/src/lv_widgets/lv_canvas.c ****     LV_UNUSED(img);
 368:lvgl/src/lv_widgets/lv_canvas.c ****     LV_UNUSED(angle);
 369:lvgl/src/lv_widgets/lv_canvas.c ****     LV_UNUSED(zoom);
 370:lvgl/src/lv_widgets/lv_canvas.c ****     LV_UNUSED(offset_x);
 371:lvgl/src/lv_widgets/lv_canvas.c ****     LV_UNUSED(offset_y);
 372:lvgl/src/lv_widgets/lv_canvas.c ****     LV_UNUSED(pivot_x);
ARM GAS  D:\Temp\cc0vPyDE.s 			page 8


 373:lvgl/src/lv_widgets/lv_canvas.c ****     LV_UNUSED(pivot_y);
 374:lvgl/src/lv_widgets/lv_canvas.c ****     LV_UNUSED(antialias);
 375:lvgl/src/lv_widgets/lv_canvas.c ****     LV_LOG_WARN("LV_USE_IMG_TRANSFORM is disabled in lv_conf.h");
 376:lvgl/src/lv_widgets/lv_canvas.c **** #endif
 377:lvgl/src/lv_widgets/lv_canvas.c **** }
 378:lvgl/src/lv_widgets/lv_canvas.c **** 
 379:lvgl/src/lv_widgets/lv_canvas.c **** /**
 380:lvgl/src/lv_widgets/lv_canvas.c ****  * Apply horizontal blur on the canvas
 381:lvgl/src/lv_widgets/lv_canvas.c ****  * @param canvas pointer to a canvas object
 382:lvgl/src/lv_widgets/lv_canvas.c ****  * @param area the area to blur. If `NULL` the whole canvas will be blurred.
 383:lvgl/src/lv_widgets/lv_canvas.c ****  * @param r radius of the blur
 384:lvgl/src/lv_widgets/lv_canvas.c ****  */
 385:lvgl/src/lv_widgets/lv_canvas.c **** void lv_canvas_blur_hor(lv_obj_t * canvas, const lv_area_t * area, uint16_t r)
 386:lvgl/src/lv_widgets/lv_canvas.c **** {
 387:lvgl/src/lv_widgets/lv_canvas.c ****     LV_ASSERT_OBJ(canvas, LV_OBJX_NAME);
 388:lvgl/src/lv_widgets/lv_canvas.c **** 
 389:lvgl/src/lv_widgets/lv_canvas.c ****     if(r == 0) return;
 390:lvgl/src/lv_widgets/lv_canvas.c **** 
 391:lvgl/src/lv_widgets/lv_canvas.c ****     lv_canvas_ext_t * ext = lv_obj_get_ext_attr(canvas);
 392:lvgl/src/lv_widgets/lv_canvas.c **** 
 393:lvgl/src/lv_widgets/lv_canvas.c ****     lv_area_t a;
 394:lvgl/src/lv_widgets/lv_canvas.c ****     if(area) {
 395:lvgl/src/lv_widgets/lv_canvas.c ****         lv_area_copy(&a, area);
 396:lvgl/src/lv_widgets/lv_canvas.c ****         if(a.x1 < 0) a.x1 = 0;
 397:lvgl/src/lv_widgets/lv_canvas.c ****         if(a.y1 < 0) a.y1 = 0;
 398:lvgl/src/lv_widgets/lv_canvas.c ****         if(a.x2 > ext->dsc.header.w - 1) a.x2 = ext->dsc.header.w - 1;
 399:lvgl/src/lv_widgets/lv_canvas.c ****         if(a.y2 > ext->dsc.header.h - 1) a.y2 = ext->dsc.header.h - 1;
 400:lvgl/src/lv_widgets/lv_canvas.c ****     }
 401:lvgl/src/lv_widgets/lv_canvas.c ****     else {
 402:lvgl/src/lv_widgets/lv_canvas.c ****         a.x1 = 0;
 403:lvgl/src/lv_widgets/lv_canvas.c ****         a.y1 = 0;
 404:lvgl/src/lv_widgets/lv_canvas.c ****         a.x2 = ext->dsc.header.w - 1;
 405:lvgl/src/lv_widgets/lv_canvas.c ****         a.y2 = ext->dsc.header.h - 1;
 406:lvgl/src/lv_widgets/lv_canvas.c ****     }
 407:lvgl/src/lv_widgets/lv_canvas.c **** 
 408:lvgl/src/lv_widgets/lv_canvas.c ****     lv_color_t color = lv_obj_get_style_image_recolor(canvas, LV_CANVAS_PART_MAIN);
 409:lvgl/src/lv_widgets/lv_canvas.c **** 
 410:lvgl/src/lv_widgets/lv_canvas.c ****     uint16_t r_back = r / 2;
 411:lvgl/src/lv_widgets/lv_canvas.c ****     uint16_t r_front = r / 2;
 412:lvgl/src/lv_widgets/lv_canvas.c **** 
 413:lvgl/src/lv_widgets/lv_canvas.c ****     if((r & 0x1) == 0) r_back--;
 414:lvgl/src/lv_widgets/lv_canvas.c **** 
 415:lvgl/src/lv_widgets/lv_canvas.c ****     bool has_alpha = lv_img_cf_has_alpha(ext->dsc.header.cf);
 416:lvgl/src/lv_widgets/lv_canvas.c **** 
 417:lvgl/src/lv_widgets/lv_canvas.c ****     lv_coord_t line_w = lv_img_buf_get_img_size(ext->dsc.header.w, 1, ext->dsc.header.cf);
 418:lvgl/src/lv_widgets/lv_canvas.c ****     uint8_t * line_buf = _lv_mem_buf_get(line_w);
 419:lvgl/src/lv_widgets/lv_canvas.c **** 
 420:lvgl/src/lv_widgets/lv_canvas.c ****     lv_img_dsc_t line_img;
 421:lvgl/src/lv_widgets/lv_canvas.c ****     line_img.data = line_buf;
 422:lvgl/src/lv_widgets/lv_canvas.c ****     line_img.header.always_zero = 0;
 423:lvgl/src/lv_widgets/lv_canvas.c ****     line_img.header.w = ext->dsc.header.w;
 424:lvgl/src/lv_widgets/lv_canvas.c ****     line_img.header.h = 1;
 425:lvgl/src/lv_widgets/lv_canvas.c ****     line_img.header.cf = ext->dsc.header.cf;
 426:lvgl/src/lv_widgets/lv_canvas.c **** 
 427:lvgl/src/lv_widgets/lv_canvas.c ****     lv_coord_t x;
 428:lvgl/src/lv_widgets/lv_canvas.c ****     lv_coord_t y;
 429:lvgl/src/lv_widgets/lv_canvas.c ****     lv_coord_t x_safe;
ARM GAS  D:\Temp\cc0vPyDE.s 			page 9


 430:lvgl/src/lv_widgets/lv_canvas.c **** 
 431:lvgl/src/lv_widgets/lv_canvas.c ****     for(y = a.y1; y <= a.y2; y++) {
 432:lvgl/src/lv_widgets/lv_canvas.c ****         uint32_t asum = 0;
 433:lvgl/src/lv_widgets/lv_canvas.c ****         uint32_t rsum = 0;
 434:lvgl/src/lv_widgets/lv_canvas.c ****         uint32_t gsum = 0;
 435:lvgl/src/lv_widgets/lv_canvas.c ****         uint32_t bsum = 0;
 436:lvgl/src/lv_widgets/lv_canvas.c **** 
 437:lvgl/src/lv_widgets/lv_canvas.c ****         lv_color_t c;
 438:lvgl/src/lv_widgets/lv_canvas.c ****         lv_opa_t opa = LV_OPA_TRANSP;
 439:lvgl/src/lv_widgets/lv_canvas.c ****         _lv_memcpy(line_buf, &ext->dsc.data[y * line_w], line_w);
 440:lvgl/src/lv_widgets/lv_canvas.c **** 
 441:lvgl/src/lv_widgets/lv_canvas.c ****         for(x = a.x1 - r_back; x <= a.x1 + r_front; x++) {
 442:lvgl/src/lv_widgets/lv_canvas.c ****             x_safe = x < 0 ? 0 : x;
 443:lvgl/src/lv_widgets/lv_canvas.c ****             x_safe = x_safe > ext->dsc.header.w - 1 ? ext->dsc.header.w - 1 : x_safe;
 444:lvgl/src/lv_widgets/lv_canvas.c **** 
 445:lvgl/src/lv_widgets/lv_canvas.c ****             c = lv_img_buf_get_px_color(&line_img, x_safe, 0, color);
 446:lvgl/src/lv_widgets/lv_canvas.c ****             if(has_alpha) opa = lv_img_buf_get_px_alpha(&line_img, x_safe, 0);
 447:lvgl/src/lv_widgets/lv_canvas.c **** 
 448:lvgl/src/lv_widgets/lv_canvas.c ****             rsum += c.ch.red;
 449:lvgl/src/lv_widgets/lv_canvas.c **** #if LV_COLOR_DEPTH == 16 && LV_COLOR_16_SWAP
 450:lvgl/src/lv_widgets/lv_canvas.c ****             gsum += (c.ch.green_h << 3) + c.ch.green_l;
 451:lvgl/src/lv_widgets/lv_canvas.c **** #else
 452:lvgl/src/lv_widgets/lv_canvas.c ****             gsum += c.ch.green;
 453:lvgl/src/lv_widgets/lv_canvas.c **** #endif
 454:lvgl/src/lv_widgets/lv_canvas.c ****             bsum += c.ch.blue;
 455:lvgl/src/lv_widgets/lv_canvas.c ****             if(has_alpha) asum += opa;
 456:lvgl/src/lv_widgets/lv_canvas.c ****         }
 457:lvgl/src/lv_widgets/lv_canvas.c **** 
 458:lvgl/src/lv_widgets/lv_canvas.c ****         /*Just to indicate that the px is visible*/
 459:lvgl/src/lv_widgets/lv_canvas.c ****         if(has_alpha == false) asum = LV_OPA_COVER;
 460:lvgl/src/lv_widgets/lv_canvas.c **** 
 461:lvgl/src/lv_widgets/lv_canvas.c ****         for(x = a.x1; x <= a.x2; x++) {
 462:lvgl/src/lv_widgets/lv_canvas.c **** 
 463:lvgl/src/lv_widgets/lv_canvas.c ****             if(asum) {
 464:lvgl/src/lv_widgets/lv_canvas.c ****                 c.ch.red = rsum / r;
 465:lvgl/src/lv_widgets/lv_canvas.c **** #if LV_COLOR_DEPTH == 16 && LV_COLOR_16_SWAP
 466:lvgl/src/lv_widgets/lv_canvas.c ****                 uint8_t gtmp = gsum / r;
 467:lvgl/src/lv_widgets/lv_canvas.c ****                 c.ch.green_h = gtmp >> 3;
 468:lvgl/src/lv_widgets/lv_canvas.c ****                 c.ch.green_l = gtmp & 0x7;
 469:lvgl/src/lv_widgets/lv_canvas.c **** #else
 470:lvgl/src/lv_widgets/lv_canvas.c ****                 c.ch.green = gsum / r;
 471:lvgl/src/lv_widgets/lv_canvas.c **** #endif
 472:lvgl/src/lv_widgets/lv_canvas.c ****                 c.ch.blue = bsum / r;
 473:lvgl/src/lv_widgets/lv_canvas.c ****                 if(has_alpha) opa = asum / r;
 474:lvgl/src/lv_widgets/lv_canvas.c **** 
 475:lvgl/src/lv_widgets/lv_canvas.c ****                 lv_img_buf_set_px_color(&ext->dsc, x, y, c);
 476:lvgl/src/lv_widgets/lv_canvas.c ****             }
 477:lvgl/src/lv_widgets/lv_canvas.c ****             if(has_alpha) lv_img_buf_set_px_alpha(&ext->dsc, x, y, opa);
 478:lvgl/src/lv_widgets/lv_canvas.c **** 
 479:lvgl/src/lv_widgets/lv_canvas.c ****             x_safe = x - r_back;
 480:lvgl/src/lv_widgets/lv_canvas.c ****             x_safe = x_safe < 0 ? 0 : x_safe;
 481:lvgl/src/lv_widgets/lv_canvas.c ****             c = lv_img_buf_get_px_color(&line_img, x_safe, 0, color);
 482:lvgl/src/lv_widgets/lv_canvas.c ****             if(has_alpha) opa = lv_img_buf_get_px_alpha(&line_img, x_safe, 0);
 483:lvgl/src/lv_widgets/lv_canvas.c **** 
 484:lvgl/src/lv_widgets/lv_canvas.c ****             rsum -= c.ch.red;
 485:lvgl/src/lv_widgets/lv_canvas.c **** #if LV_COLOR_DEPTH == 16 && LV_COLOR_16_SWAP
 486:lvgl/src/lv_widgets/lv_canvas.c ****             gsum -= (c.ch.green_h << 3) + c.ch.green_l;
ARM GAS  D:\Temp\cc0vPyDE.s 			page 10


 487:lvgl/src/lv_widgets/lv_canvas.c **** #else
 488:lvgl/src/lv_widgets/lv_canvas.c ****             gsum -= c.ch.green;
 489:lvgl/src/lv_widgets/lv_canvas.c **** #endif
 490:lvgl/src/lv_widgets/lv_canvas.c ****             bsum -= c.ch.blue;
 491:lvgl/src/lv_widgets/lv_canvas.c ****             if(has_alpha) asum -= opa;
 492:lvgl/src/lv_widgets/lv_canvas.c **** 
 493:lvgl/src/lv_widgets/lv_canvas.c ****             x_safe = x + 1 + r_front;
 494:lvgl/src/lv_widgets/lv_canvas.c ****             x_safe = x_safe > ext->dsc.header.w - 1 ? ext->dsc.header.w - 1 : x_safe;
 495:lvgl/src/lv_widgets/lv_canvas.c ****             c = lv_img_buf_get_px_color(&line_img, x_safe, 0, LV_COLOR_RED);
 496:lvgl/src/lv_widgets/lv_canvas.c ****             if(has_alpha) opa = lv_img_buf_get_px_alpha(&line_img, x_safe, 0);
 497:lvgl/src/lv_widgets/lv_canvas.c **** 
 498:lvgl/src/lv_widgets/lv_canvas.c ****             rsum += c.ch.red;
 499:lvgl/src/lv_widgets/lv_canvas.c **** #if LV_COLOR_DEPTH == 16 && LV_COLOR_16_SWAP
 500:lvgl/src/lv_widgets/lv_canvas.c ****             gsum += (c.ch.green_h << 3) + c.ch.green_l;
 501:lvgl/src/lv_widgets/lv_canvas.c **** #else
 502:lvgl/src/lv_widgets/lv_canvas.c ****             gsum += c.ch.green;
 503:lvgl/src/lv_widgets/lv_canvas.c **** #endif
 504:lvgl/src/lv_widgets/lv_canvas.c ****             bsum += c.ch.blue;
 505:lvgl/src/lv_widgets/lv_canvas.c ****             if(has_alpha) asum += opa;
 506:lvgl/src/lv_widgets/lv_canvas.c ****         }
 507:lvgl/src/lv_widgets/lv_canvas.c ****     }
 508:lvgl/src/lv_widgets/lv_canvas.c ****     lv_obj_invalidate(canvas);
 509:lvgl/src/lv_widgets/lv_canvas.c **** 
 510:lvgl/src/lv_widgets/lv_canvas.c ****     _lv_mem_buf_release(line_buf);
 511:lvgl/src/lv_widgets/lv_canvas.c **** }
 512:lvgl/src/lv_widgets/lv_canvas.c **** 
 513:lvgl/src/lv_widgets/lv_canvas.c **** /**
 514:lvgl/src/lv_widgets/lv_canvas.c ****  * Apply vertical blur on the canvas
 515:lvgl/src/lv_widgets/lv_canvas.c ****  * @param canvas pointer to a canvas object
 516:lvgl/src/lv_widgets/lv_canvas.c ****  * @param area the area to blur. If `NULL` the whole canvas will be blurred.
 517:lvgl/src/lv_widgets/lv_canvas.c ****  * @param r radius of the blur
 518:lvgl/src/lv_widgets/lv_canvas.c ****  */
 519:lvgl/src/lv_widgets/lv_canvas.c **** void lv_canvas_blur_ver(lv_obj_t * canvas, const lv_area_t * area, uint16_t r)
 520:lvgl/src/lv_widgets/lv_canvas.c **** {
 521:lvgl/src/lv_widgets/lv_canvas.c ****     LV_ASSERT_OBJ(canvas, LV_OBJX_NAME);
 522:lvgl/src/lv_widgets/lv_canvas.c **** 
 523:lvgl/src/lv_widgets/lv_canvas.c ****     if(r == 0) return;
 524:lvgl/src/lv_widgets/lv_canvas.c **** 
 525:lvgl/src/lv_widgets/lv_canvas.c ****     lv_canvas_ext_t * ext = lv_obj_get_ext_attr(canvas);
 526:lvgl/src/lv_widgets/lv_canvas.c **** 
 527:lvgl/src/lv_widgets/lv_canvas.c ****     lv_area_t a;
 528:lvgl/src/lv_widgets/lv_canvas.c ****     if(area) {
 529:lvgl/src/lv_widgets/lv_canvas.c ****         lv_area_copy(&a, area);
 530:lvgl/src/lv_widgets/lv_canvas.c ****         if(a.x1 < 0) a.x1 = 0;
 531:lvgl/src/lv_widgets/lv_canvas.c ****         if(a.y1 < 0) a.y1 = 0;
 532:lvgl/src/lv_widgets/lv_canvas.c ****         if(a.x2 > ext->dsc.header.w - 1) a.x2 = ext->dsc.header.w - 1;
 533:lvgl/src/lv_widgets/lv_canvas.c ****         if(a.y2 > ext->dsc.header.h - 1) a.y2 = ext->dsc.header.h - 1;
 534:lvgl/src/lv_widgets/lv_canvas.c ****     }
 535:lvgl/src/lv_widgets/lv_canvas.c ****     else {
 536:lvgl/src/lv_widgets/lv_canvas.c ****         a.x1 = 0;
 537:lvgl/src/lv_widgets/lv_canvas.c ****         a.y1 = 0;
 538:lvgl/src/lv_widgets/lv_canvas.c ****         a.x2 = ext->dsc.header.w - 1;
 539:lvgl/src/lv_widgets/lv_canvas.c ****         a.y2 = ext->dsc.header.h - 1;
 540:lvgl/src/lv_widgets/lv_canvas.c ****     }
 541:lvgl/src/lv_widgets/lv_canvas.c **** 
 542:lvgl/src/lv_widgets/lv_canvas.c ****     lv_color_t color = lv_obj_get_style_image_recolor(canvas, LV_CANVAS_PART_MAIN);
 543:lvgl/src/lv_widgets/lv_canvas.c **** 
ARM GAS  D:\Temp\cc0vPyDE.s 			page 11


 544:lvgl/src/lv_widgets/lv_canvas.c ****     uint16_t r_back = r / 2;
 545:lvgl/src/lv_widgets/lv_canvas.c ****     uint16_t r_front = r / 2;
 546:lvgl/src/lv_widgets/lv_canvas.c **** 
 547:lvgl/src/lv_widgets/lv_canvas.c ****     if((r & 0x1) == 0) r_back--;
 548:lvgl/src/lv_widgets/lv_canvas.c **** 
 549:lvgl/src/lv_widgets/lv_canvas.c ****     bool has_alpha = lv_img_cf_has_alpha(ext->dsc.header.cf);
 550:lvgl/src/lv_widgets/lv_canvas.c ****     lv_coord_t col_w = lv_img_buf_get_img_size(1, ext->dsc.header.h, ext->dsc.header.cf);
 551:lvgl/src/lv_widgets/lv_canvas.c ****     uint8_t * col_buf = _lv_mem_buf_get(col_w);
 552:lvgl/src/lv_widgets/lv_canvas.c ****     lv_img_dsc_t line_img;
 553:lvgl/src/lv_widgets/lv_canvas.c **** 
 554:lvgl/src/lv_widgets/lv_canvas.c ****     line_img.data = col_buf;
 555:lvgl/src/lv_widgets/lv_canvas.c ****     line_img.header.always_zero = 0;
 556:lvgl/src/lv_widgets/lv_canvas.c ****     line_img.header.w = 1;
 557:lvgl/src/lv_widgets/lv_canvas.c ****     line_img.header.h = ext->dsc.header.h;
 558:lvgl/src/lv_widgets/lv_canvas.c ****     line_img.header.cf = ext->dsc.header.cf;
 559:lvgl/src/lv_widgets/lv_canvas.c **** 
 560:lvgl/src/lv_widgets/lv_canvas.c ****     lv_coord_t x;
 561:lvgl/src/lv_widgets/lv_canvas.c ****     lv_coord_t y;
 562:lvgl/src/lv_widgets/lv_canvas.c ****     lv_coord_t y_safe;
 563:lvgl/src/lv_widgets/lv_canvas.c **** 
 564:lvgl/src/lv_widgets/lv_canvas.c ****     for(x = a.x1; x <= a.x2; x++) {
 565:lvgl/src/lv_widgets/lv_canvas.c ****         uint32_t asum = 0;
 566:lvgl/src/lv_widgets/lv_canvas.c ****         uint32_t rsum = 0;
 567:lvgl/src/lv_widgets/lv_canvas.c ****         uint32_t gsum = 0;
 568:lvgl/src/lv_widgets/lv_canvas.c ****         uint32_t bsum = 0;
 569:lvgl/src/lv_widgets/lv_canvas.c **** 
 570:lvgl/src/lv_widgets/lv_canvas.c ****         lv_color_t c;
 571:lvgl/src/lv_widgets/lv_canvas.c ****         lv_opa_t opa = LV_OPA_COVER;
 572:lvgl/src/lv_widgets/lv_canvas.c **** 
 573:lvgl/src/lv_widgets/lv_canvas.c ****         for(y = a.y1 - r_back; y <= a.y1 + r_front; y++) {
 574:lvgl/src/lv_widgets/lv_canvas.c ****             y_safe = y < 0 ? 0 : y;
 575:lvgl/src/lv_widgets/lv_canvas.c ****             y_safe = y_safe > ext->dsc.header.h - 1 ? ext->dsc.header.h - 1 : y_safe;
 576:lvgl/src/lv_widgets/lv_canvas.c **** 
 577:lvgl/src/lv_widgets/lv_canvas.c ****             c = lv_img_buf_get_px_color(&ext->dsc, x, y_safe, color);
 578:lvgl/src/lv_widgets/lv_canvas.c ****             if(has_alpha) opa = lv_img_buf_get_px_alpha(&ext->dsc, x, y_safe);
 579:lvgl/src/lv_widgets/lv_canvas.c **** 
 580:lvgl/src/lv_widgets/lv_canvas.c ****             lv_img_buf_set_px_color(&line_img, 0, y_safe, c);
 581:lvgl/src/lv_widgets/lv_canvas.c ****             if(has_alpha) lv_img_buf_set_px_alpha(&line_img, 0, y_safe, opa);
 582:lvgl/src/lv_widgets/lv_canvas.c **** 
 583:lvgl/src/lv_widgets/lv_canvas.c ****             rsum += c.ch.red;
 584:lvgl/src/lv_widgets/lv_canvas.c **** #if LV_COLOR_DEPTH == 16 && LV_COLOR_16_SWAP
 585:lvgl/src/lv_widgets/lv_canvas.c ****             gsum += (c.ch.green_h << 3) + c.ch.green_l;
 586:lvgl/src/lv_widgets/lv_canvas.c **** #else
 587:lvgl/src/lv_widgets/lv_canvas.c ****             gsum += c.ch.green;
 588:lvgl/src/lv_widgets/lv_canvas.c **** #endif
 589:lvgl/src/lv_widgets/lv_canvas.c ****             bsum += c.ch.blue;
 590:lvgl/src/lv_widgets/lv_canvas.c ****             if(has_alpha) asum += opa;
 591:lvgl/src/lv_widgets/lv_canvas.c ****         }
 592:lvgl/src/lv_widgets/lv_canvas.c **** 
 593:lvgl/src/lv_widgets/lv_canvas.c ****         /*Just to indicate that the px is visible*/
 594:lvgl/src/lv_widgets/lv_canvas.c ****         if(has_alpha == false) asum = LV_OPA_COVER;
 595:lvgl/src/lv_widgets/lv_canvas.c **** 
 596:lvgl/src/lv_widgets/lv_canvas.c ****         for(y = a.y1; y <= a.y2; y++) {
 597:lvgl/src/lv_widgets/lv_canvas.c ****             if(asum) {
 598:lvgl/src/lv_widgets/lv_canvas.c ****                 c.ch.red = rsum / r;
 599:lvgl/src/lv_widgets/lv_canvas.c **** #if LV_COLOR_DEPTH == 16 && LV_COLOR_16_SWAP
 600:lvgl/src/lv_widgets/lv_canvas.c ****                 uint8_t gtmp = gsum / r;
ARM GAS  D:\Temp\cc0vPyDE.s 			page 12


 601:lvgl/src/lv_widgets/lv_canvas.c ****                 c.ch.green_h = gtmp >> 3;
 602:lvgl/src/lv_widgets/lv_canvas.c ****                 c.ch.green_l = gtmp & 0x7;
 603:lvgl/src/lv_widgets/lv_canvas.c **** #else
 604:lvgl/src/lv_widgets/lv_canvas.c ****                 c.ch.green = gsum / r;
 605:lvgl/src/lv_widgets/lv_canvas.c **** #endif
 606:lvgl/src/lv_widgets/lv_canvas.c ****                 c.ch.blue = bsum / r;
 607:lvgl/src/lv_widgets/lv_canvas.c ****                 if(has_alpha) opa = asum / r;
 608:lvgl/src/lv_widgets/lv_canvas.c **** 
 609:lvgl/src/lv_widgets/lv_canvas.c ****                 lv_img_buf_set_px_color(&ext->dsc, x, y, c);
 610:lvgl/src/lv_widgets/lv_canvas.c ****             }
 611:lvgl/src/lv_widgets/lv_canvas.c ****             if(has_alpha) lv_img_buf_set_px_alpha(&ext->dsc, x, y, opa);
 612:lvgl/src/lv_widgets/lv_canvas.c **** 
 613:lvgl/src/lv_widgets/lv_canvas.c ****             y_safe = y - r_back;
 614:lvgl/src/lv_widgets/lv_canvas.c ****             y_safe = y_safe < 0 ? 0 : y_safe;
 615:lvgl/src/lv_widgets/lv_canvas.c ****             c = lv_img_buf_get_px_color(&line_img, 0, y_safe, color);
 616:lvgl/src/lv_widgets/lv_canvas.c ****             if(has_alpha) opa = lv_img_buf_get_px_alpha(&line_img, 0, y_safe);
 617:lvgl/src/lv_widgets/lv_canvas.c **** 
 618:lvgl/src/lv_widgets/lv_canvas.c ****             rsum -= c.ch.red;
 619:lvgl/src/lv_widgets/lv_canvas.c **** #if LV_COLOR_DEPTH == 16 && LV_COLOR_16_SWAP
 620:lvgl/src/lv_widgets/lv_canvas.c ****             gsum -= (c.ch.green_h << 3) + c.ch.green_l;
 621:lvgl/src/lv_widgets/lv_canvas.c **** #else
 622:lvgl/src/lv_widgets/lv_canvas.c ****             gsum -= c.ch.green;
 623:lvgl/src/lv_widgets/lv_canvas.c **** #endif
 624:lvgl/src/lv_widgets/lv_canvas.c ****             bsum -= c.ch.blue;
 625:lvgl/src/lv_widgets/lv_canvas.c ****             if(has_alpha) asum -= opa;
 626:lvgl/src/lv_widgets/lv_canvas.c **** 
 627:lvgl/src/lv_widgets/lv_canvas.c ****             y_safe = y + 1 + r_front;
 628:lvgl/src/lv_widgets/lv_canvas.c ****             y_safe = y_safe > ext->dsc.header.h - 1 ? ext->dsc.header.h - 1 : y_safe;
 629:lvgl/src/lv_widgets/lv_canvas.c **** 
 630:lvgl/src/lv_widgets/lv_canvas.c ****             c = lv_img_buf_get_px_color(&ext->dsc, x, y_safe, color);
 631:lvgl/src/lv_widgets/lv_canvas.c ****             if(has_alpha) opa = lv_img_buf_get_px_alpha(&ext->dsc, x, y_safe);
 632:lvgl/src/lv_widgets/lv_canvas.c **** 
 633:lvgl/src/lv_widgets/lv_canvas.c ****             lv_img_buf_set_px_color(&line_img, 0, y_safe, c);
 634:lvgl/src/lv_widgets/lv_canvas.c ****             if(has_alpha) lv_img_buf_set_px_alpha(&line_img, 0, y_safe, opa);
 635:lvgl/src/lv_widgets/lv_canvas.c **** 
 636:lvgl/src/lv_widgets/lv_canvas.c ****             rsum += c.ch.red;
 637:lvgl/src/lv_widgets/lv_canvas.c **** #if LV_COLOR_DEPTH == 16 && LV_COLOR_16_SWAP
 638:lvgl/src/lv_widgets/lv_canvas.c ****             gsum += (c.ch.green_h << 3) + c.ch.green_l;
 639:lvgl/src/lv_widgets/lv_canvas.c **** #else
 640:lvgl/src/lv_widgets/lv_canvas.c ****             gsum += c.ch.green;
 641:lvgl/src/lv_widgets/lv_canvas.c **** #endif
 642:lvgl/src/lv_widgets/lv_canvas.c ****             bsum += c.ch.blue;
 643:lvgl/src/lv_widgets/lv_canvas.c ****             if(has_alpha) asum += opa;
 644:lvgl/src/lv_widgets/lv_canvas.c ****         }
 645:lvgl/src/lv_widgets/lv_canvas.c ****     }
 646:lvgl/src/lv_widgets/lv_canvas.c **** 
 647:lvgl/src/lv_widgets/lv_canvas.c ****     lv_obj_invalidate(canvas);
 648:lvgl/src/lv_widgets/lv_canvas.c **** 
 649:lvgl/src/lv_widgets/lv_canvas.c ****     _lv_mem_buf_release(col_buf);
 650:lvgl/src/lv_widgets/lv_canvas.c **** }
 651:lvgl/src/lv_widgets/lv_canvas.c **** 
 652:lvgl/src/lv_widgets/lv_canvas.c **** /**
 653:lvgl/src/lv_widgets/lv_canvas.c ****  * Fill the canvas with color
 654:lvgl/src/lv_widgets/lv_canvas.c ****  * @param canvas pointer to a canvas
 655:lvgl/src/lv_widgets/lv_canvas.c ****  * @param color the background color
 656:lvgl/src/lv_widgets/lv_canvas.c ****  * @param opa the desired opacity
 657:lvgl/src/lv_widgets/lv_canvas.c ****  */
ARM GAS  D:\Temp\cc0vPyDE.s 			page 13


 658:lvgl/src/lv_widgets/lv_canvas.c **** void lv_canvas_fill_bg(lv_obj_t * canvas, lv_color_t color, lv_opa_t opa)
 659:lvgl/src/lv_widgets/lv_canvas.c **** {
 660:lvgl/src/lv_widgets/lv_canvas.c ****     LV_ASSERT_OBJ(canvas, LV_OBJX_NAME);
 661:lvgl/src/lv_widgets/lv_canvas.c **** 
 662:lvgl/src/lv_widgets/lv_canvas.c ****     lv_img_dsc_t * dsc = lv_canvas_get_img(canvas);
 663:lvgl/src/lv_widgets/lv_canvas.c **** 
 664:lvgl/src/lv_widgets/lv_canvas.c ****     if(dsc->header.cf == LV_IMG_CF_INDEXED_1BIT) {
 665:lvgl/src/lv_widgets/lv_canvas.c ****         uint32_t row_byte_cnt = (dsc->header.w + 7) >> 3;
 666:lvgl/src/lv_widgets/lv_canvas.c ****         /*+8 skip the palette*/
 667:lvgl/src/lv_widgets/lv_canvas.c ****         _lv_memset((uint8_t *)dsc->data + 8, color.full ? 0xff : 0x00, row_byte_cnt * dsc->header.h
 668:lvgl/src/lv_widgets/lv_canvas.c ****     }
 669:lvgl/src/lv_widgets/lv_canvas.c ****     else if(dsc->header.cf == LV_IMG_CF_ALPHA_1BIT) {
 670:lvgl/src/lv_widgets/lv_canvas.c ****         uint32_t row_byte_cnt = (dsc->header.w + 7) >> 3;
 671:lvgl/src/lv_widgets/lv_canvas.c ****         _lv_memset((uint8_t *)dsc->data, opa > LV_OPA_50 ? 0xff : 0x00, row_byte_cnt * dsc->header.
 672:lvgl/src/lv_widgets/lv_canvas.c ****     }
 673:lvgl/src/lv_widgets/lv_canvas.c ****     else {
 674:lvgl/src/lv_widgets/lv_canvas.c ****         uint32_t x;
 675:lvgl/src/lv_widgets/lv_canvas.c ****         uint32_t y;
 676:lvgl/src/lv_widgets/lv_canvas.c ****         for(y = 0; y < dsc->header.h; y++) {
 677:lvgl/src/lv_widgets/lv_canvas.c ****             for(x = 0; x < dsc->header.w; x++) {
 678:lvgl/src/lv_widgets/lv_canvas.c ****                 lv_img_buf_set_px_color(dsc, x, y, color);
 679:lvgl/src/lv_widgets/lv_canvas.c ****                 lv_img_buf_set_px_alpha(dsc, x, y, opa);
 680:lvgl/src/lv_widgets/lv_canvas.c ****             }
 681:lvgl/src/lv_widgets/lv_canvas.c ****         }
 682:lvgl/src/lv_widgets/lv_canvas.c ****     }
 683:lvgl/src/lv_widgets/lv_canvas.c **** 
 684:lvgl/src/lv_widgets/lv_canvas.c ****     lv_obj_invalidate(canvas);
 685:lvgl/src/lv_widgets/lv_canvas.c **** }
 686:lvgl/src/lv_widgets/lv_canvas.c **** 
 687:lvgl/src/lv_widgets/lv_canvas.c **** /**
 688:lvgl/src/lv_widgets/lv_canvas.c ****  * Draw a rectangle on the canvas
 689:lvgl/src/lv_widgets/lv_canvas.c ****  * @param canvas pointer to a canvas object
 690:lvgl/src/lv_widgets/lv_canvas.c ****  * @param x left coordinate of the rectangle
 691:lvgl/src/lv_widgets/lv_canvas.c ****  * @param y top coordinate of the rectangle
 692:lvgl/src/lv_widgets/lv_canvas.c ****  * @param w width of the rectangle
 693:lvgl/src/lv_widgets/lv_canvas.c ****  * @param h height of the rectangle
 694:lvgl/src/lv_widgets/lv_canvas.c ****  * @param rect_dsc descriptor of the rectangle
 695:lvgl/src/lv_widgets/lv_canvas.c ****  */
 696:lvgl/src/lv_widgets/lv_canvas.c **** void lv_canvas_draw_rect(lv_obj_t * canvas, lv_coord_t x, lv_coord_t y, lv_coord_t w, lv_coord_t h,
 697:lvgl/src/lv_widgets/lv_canvas.c ****                          const lv_draw_rect_dsc_t * rect_dsc)
 698:lvgl/src/lv_widgets/lv_canvas.c **** {
 699:lvgl/src/lv_widgets/lv_canvas.c ****     LV_ASSERT_OBJ(canvas, LV_OBJX_NAME);
 700:lvgl/src/lv_widgets/lv_canvas.c **** 
 701:lvgl/src/lv_widgets/lv_canvas.c ****     lv_img_dsc_t * dsc = lv_canvas_get_img(canvas);
 702:lvgl/src/lv_widgets/lv_canvas.c **** 
 703:lvgl/src/lv_widgets/lv_canvas.c ****     if(dsc->header.cf >= LV_IMG_CF_INDEXED_1BIT && dsc->header.cf <= LV_IMG_CF_INDEXED_8BIT) {
 704:lvgl/src/lv_widgets/lv_canvas.c ****         LV_LOG_WARN("lv_canvas_draw_rect: can't draw to LV_IMG_CF_INDEXED canvas");
 705:lvgl/src/lv_widgets/lv_canvas.c ****         return;
 706:lvgl/src/lv_widgets/lv_canvas.c ****     }
 707:lvgl/src/lv_widgets/lv_canvas.c **** 
 708:lvgl/src/lv_widgets/lv_canvas.c ****     /* Create a dummy display to fool the lv_draw function.
 709:lvgl/src/lv_widgets/lv_canvas.c ****      * It will think it draws to real screen. */
 710:lvgl/src/lv_widgets/lv_canvas.c ****     lv_area_t mask;
 711:lvgl/src/lv_widgets/lv_canvas.c ****     mask.x1 = 0;
 712:lvgl/src/lv_widgets/lv_canvas.c ****     mask.x2 = dsc->header.w - 1;
 713:lvgl/src/lv_widgets/lv_canvas.c ****     mask.y1 = 0;
 714:lvgl/src/lv_widgets/lv_canvas.c ****     mask.y2 = dsc->header.h - 1;
ARM GAS  D:\Temp\cc0vPyDE.s 			page 14


 715:lvgl/src/lv_widgets/lv_canvas.c **** 
 716:lvgl/src/lv_widgets/lv_canvas.c ****     lv_area_t coords;
 717:lvgl/src/lv_widgets/lv_canvas.c ****     coords.x1 = x;
 718:lvgl/src/lv_widgets/lv_canvas.c ****     coords.y1 = y;
 719:lvgl/src/lv_widgets/lv_canvas.c ****     coords.x2 = x + w - 1;
 720:lvgl/src/lv_widgets/lv_canvas.c ****     coords.y2 = y + h - 1;
 721:lvgl/src/lv_widgets/lv_canvas.c **** 
 722:lvgl/src/lv_widgets/lv_canvas.c ****     lv_disp_t disp;
 723:lvgl/src/lv_widgets/lv_canvas.c ****     _lv_memset_00(&disp, sizeof(lv_disp_t));
 724:lvgl/src/lv_widgets/lv_canvas.c **** 
 725:lvgl/src/lv_widgets/lv_canvas.c ****     lv_disp_buf_t disp_buf;
 726:lvgl/src/lv_widgets/lv_canvas.c ****     lv_disp_buf_init(&disp_buf, (void *)dsc->data, NULL, dsc->header.w * dsc->header.h);
 727:lvgl/src/lv_widgets/lv_canvas.c ****     lv_area_copy(&disp_buf.area, &mask);
 728:lvgl/src/lv_widgets/lv_canvas.c **** 
 729:lvgl/src/lv_widgets/lv_canvas.c ****     lv_disp_drv_init(&disp.driver);
 730:lvgl/src/lv_widgets/lv_canvas.c **** 
 731:lvgl/src/lv_widgets/lv_canvas.c ****     disp.driver.buffer  = &disp_buf;
 732:lvgl/src/lv_widgets/lv_canvas.c ****     disp.driver.hor_res = dsc->header.w;
 733:lvgl/src/lv_widgets/lv_canvas.c ****     disp.driver.ver_res = dsc->header.h;
 734:lvgl/src/lv_widgets/lv_canvas.c **** 
 735:lvgl/src/lv_widgets/lv_canvas.c ****     set_set_px_cb(&disp.driver, dsc->header.cf);
 736:lvgl/src/lv_widgets/lv_canvas.c **** 
 737:lvgl/src/lv_widgets/lv_canvas.c **** #if LV_ANTIALIAS
 738:lvgl/src/lv_widgets/lv_canvas.c **** 
 739:lvgl/src/lv_widgets/lv_canvas.c ****     /*Disable anti-aliasing if drawing with transparent color to chroma keyed canvas*/
 740:lvgl/src/lv_widgets/lv_canvas.c ****     lv_color_t ctransp = LV_COLOR_TRANSP;
 741:lvgl/src/lv_widgets/lv_canvas.c ****     if(dsc->header.cf == LV_IMG_CF_TRUE_COLOR_CHROMA_KEYED &&
 742:lvgl/src/lv_widgets/lv_canvas.c ****        rect_dsc->bg_color.full == ctransp.full) {
 743:lvgl/src/lv_widgets/lv_canvas.c ****         disp.driver.antialiasing = 0;
 744:lvgl/src/lv_widgets/lv_canvas.c ****     }
 745:lvgl/src/lv_widgets/lv_canvas.c **** #endif
 746:lvgl/src/lv_widgets/lv_canvas.c **** 
 747:lvgl/src/lv_widgets/lv_canvas.c ****     lv_disp_t * refr_ori = _lv_refr_get_disp_refreshing();
 748:lvgl/src/lv_widgets/lv_canvas.c ****     _lv_refr_set_disp_refreshing(&disp);
 749:lvgl/src/lv_widgets/lv_canvas.c **** 
 750:lvgl/src/lv_widgets/lv_canvas.c ****     lv_draw_rect(&coords, &mask, rect_dsc);
 751:lvgl/src/lv_widgets/lv_canvas.c **** 
 752:lvgl/src/lv_widgets/lv_canvas.c ****     _lv_refr_set_disp_refreshing(refr_ori);
 753:lvgl/src/lv_widgets/lv_canvas.c **** 
 754:lvgl/src/lv_widgets/lv_canvas.c ****     lv_obj_invalidate(canvas);
 755:lvgl/src/lv_widgets/lv_canvas.c **** }
 756:lvgl/src/lv_widgets/lv_canvas.c **** 
 757:lvgl/src/lv_widgets/lv_canvas.c **** /**
 758:lvgl/src/lv_widgets/lv_canvas.c ****  * Draw a text on the canvas.
 759:lvgl/src/lv_widgets/lv_canvas.c ****  * @param canvas pointer to a canvas object
 760:lvgl/src/lv_widgets/lv_canvas.c ****  * @param x left coordinate of the text
 761:lvgl/src/lv_widgets/lv_canvas.c ****  * @param y top coordinate of the text
 762:lvgl/src/lv_widgets/lv_canvas.c ****  * @param max_w max width of the text. The text will be wrapped to fit into this size
 763:lvgl/src/lv_widgets/lv_canvas.c ****  * @param label_draw_dsc pointer to a valid label descriptor `lv_draw_label_dsc_t`
 764:lvgl/src/lv_widgets/lv_canvas.c ****  * @param txt text to display
 765:lvgl/src/lv_widgets/lv_canvas.c ****  * @param align align of the text (`LV_LABEL_ALIGN_LEFT/RIGHT/CENTER`)
 766:lvgl/src/lv_widgets/lv_canvas.c ****  */
 767:lvgl/src/lv_widgets/lv_canvas.c **** void lv_canvas_draw_text(lv_obj_t * canvas, lv_coord_t x, lv_coord_t y, lv_coord_t max_w,
 768:lvgl/src/lv_widgets/lv_canvas.c ****                          lv_draw_label_dsc_t * label_draw_dsc,
 769:lvgl/src/lv_widgets/lv_canvas.c ****                          const char * txt, lv_label_align_t align)
 770:lvgl/src/lv_widgets/lv_canvas.c **** {
 771:lvgl/src/lv_widgets/lv_canvas.c ****     LV_ASSERT_OBJ(canvas, LV_OBJX_NAME);
ARM GAS  D:\Temp\cc0vPyDE.s 			page 15


 772:lvgl/src/lv_widgets/lv_canvas.c **** 
 773:lvgl/src/lv_widgets/lv_canvas.c ****     lv_img_dsc_t * dsc = lv_canvas_get_img(canvas);
 774:lvgl/src/lv_widgets/lv_canvas.c **** 
 775:lvgl/src/lv_widgets/lv_canvas.c ****     if(dsc->header.cf >= LV_IMG_CF_INDEXED_1BIT && dsc->header.cf <= LV_IMG_CF_INDEXED_8BIT) {
 776:lvgl/src/lv_widgets/lv_canvas.c ****         LV_LOG_WARN("lv_canvas_draw_text: can't draw to LV_IMG_CF_INDEXED canvas");
 777:lvgl/src/lv_widgets/lv_canvas.c ****         return;
 778:lvgl/src/lv_widgets/lv_canvas.c ****     }
 779:lvgl/src/lv_widgets/lv_canvas.c **** 
 780:lvgl/src/lv_widgets/lv_canvas.c ****     /* Create a dummy display to fool the lv_draw function.
 781:lvgl/src/lv_widgets/lv_canvas.c ****      * It will think it draws to real screen. */
 782:lvgl/src/lv_widgets/lv_canvas.c ****     lv_area_t mask;
 783:lvgl/src/lv_widgets/lv_canvas.c ****     mask.x1 = 0;
 784:lvgl/src/lv_widgets/lv_canvas.c ****     mask.x2 = dsc->header.w - 1;
 785:lvgl/src/lv_widgets/lv_canvas.c ****     mask.y1 = 0;
 786:lvgl/src/lv_widgets/lv_canvas.c ****     mask.y2 = dsc->header.h - 1;
 787:lvgl/src/lv_widgets/lv_canvas.c **** 
 788:lvgl/src/lv_widgets/lv_canvas.c ****     lv_area_t coords;
 789:lvgl/src/lv_widgets/lv_canvas.c ****     coords.x1 = x;
 790:lvgl/src/lv_widgets/lv_canvas.c ****     coords.y1 = y;
 791:lvgl/src/lv_widgets/lv_canvas.c ****     coords.x2 = x + max_w - 1;
 792:lvgl/src/lv_widgets/lv_canvas.c ****     coords.y2 = dsc->header.h - 1;
 793:lvgl/src/lv_widgets/lv_canvas.c **** 
 794:lvgl/src/lv_widgets/lv_canvas.c ****     lv_disp_t disp;
 795:lvgl/src/lv_widgets/lv_canvas.c ****     _lv_memset_00(&disp, sizeof(lv_disp_t));
 796:lvgl/src/lv_widgets/lv_canvas.c **** 
 797:lvgl/src/lv_widgets/lv_canvas.c ****     lv_disp_buf_t disp_buf;
 798:lvgl/src/lv_widgets/lv_canvas.c ****     lv_disp_buf_init(&disp_buf, (void *)dsc->data, NULL, dsc->header.w * dsc->header.h);
 799:lvgl/src/lv_widgets/lv_canvas.c ****     lv_area_copy(&disp_buf.area, &mask);
 800:lvgl/src/lv_widgets/lv_canvas.c **** 
 801:lvgl/src/lv_widgets/lv_canvas.c ****     lv_disp_drv_init(&disp.driver);
 802:lvgl/src/lv_widgets/lv_canvas.c **** 
 803:lvgl/src/lv_widgets/lv_canvas.c ****     disp.driver.buffer  = &disp_buf;
 804:lvgl/src/lv_widgets/lv_canvas.c ****     disp.driver.hor_res = dsc->header.w;
 805:lvgl/src/lv_widgets/lv_canvas.c ****     disp.driver.ver_res = dsc->header.h;
 806:lvgl/src/lv_widgets/lv_canvas.c **** 
 807:lvgl/src/lv_widgets/lv_canvas.c ****     set_set_px_cb(&disp.driver, dsc->header.cf);
 808:lvgl/src/lv_widgets/lv_canvas.c **** 
 809:lvgl/src/lv_widgets/lv_canvas.c ****     lv_disp_t * refr_ori = _lv_refr_get_disp_refreshing();
 810:lvgl/src/lv_widgets/lv_canvas.c ****     _lv_refr_set_disp_refreshing(&disp);
 811:lvgl/src/lv_widgets/lv_canvas.c **** 
 812:lvgl/src/lv_widgets/lv_canvas.c ****     lv_txt_flag_t flag;
 813:lvgl/src/lv_widgets/lv_canvas.c ****     switch(align) {
 814:lvgl/src/lv_widgets/lv_canvas.c ****         case LV_LABEL_ALIGN_LEFT:
 815:lvgl/src/lv_widgets/lv_canvas.c ****             flag = LV_TXT_FLAG_NONE;
 816:lvgl/src/lv_widgets/lv_canvas.c ****             break;
 817:lvgl/src/lv_widgets/lv_canvas.c ****         case LV_LABEL_ALIGN_RIGHT:
 818:lvgl/src/lv_widgets/lv_canvas.c ****             flag = LV_TXT_FLAG_RIGHT;
 819:lvgl/src/lv_widgets/lv_canvas.c ****             break;
 820:lvgl/src/lv_widgets/lv_canvas.c ****         case LV_LABEL_ALIGN_CENTER:
 821:lvgl/src/lv_widgets/lv_canvas.c ****             flag = LV_TXT_FLAG_CENTER;
 822:lvgl/src/lv_widgets/lv_canvas.c ****             break;
 823:lvgl/src/lv_widgets/lv_canvas.c ****         default:
 824:lvgl/src/lv_widgets/lv_canvas.c ****             flag = LV_TXT_FLAG_NONE;
 825:lvgl/src/lv_widgets/lv_canvas.c ****             break;
 826:lvgl/src/lv_widgets/lv_canvas.c ****     }
 827:lvgl/src/lv_widgets/lv_canvas.c **** 
 828:lvgl/src/lv_widgets/lv_canvas.c ****     label_draw_dsc->flag = flag;
ARM GAS  D:\Temp\cc0vPyDE.s 			page 16


 829:lvgl/src/lv_widgets/lv_canvas.c **** 
 830:lvgl/src/lv_widgets/lv_canvas.c ****     lv_draw_label(&coords, &mask, label_draw_dsc, txt, NULL);
 831:lvgl/src/lv_widgets/lv_canvas.c **** 
 832:lvgl/src/lv_widgets/lv_canvas.c ****     _lv_refr_set_disp_refreshing(refr_ori);
 833:lvgl/src/lv_widgets/lv_canvas.c **** 
 834:lvgl/src/lv_widgets/lv_canvas.c ****     lv_obj_invalidate(canvas);
 835:lvgl/src/lv_widgets/lv_canvas.c **** }
 836:lvgl/src/lv_widgets/lv_canvas.c **** 
 837:lvgl/src/lv_widgets/lv_canvas.c **** /**
 838:lvgl/src/lv_widgets/lv_canvas.c ****  * Draw an image on the canvas
 839:lvgl/src/lv_widgets/lv_canvas.c ****  * @param canvas pointer to a canvas object
 840:lvgl/src/lv_widgets/lv_canvas.c ****  * @param src image source. Can be a pointer an `lv_img_dsc_t` variable or a path an image.
 841:lvgl/src/lv_widgets/lv_canvas.c ****  * @param img_draw_dsc pointer to a valid label descriptor `lv_draw_img_dsc_t`
 842:lvgl/src/lv_widgets/lv_canvas.c ****  */
 843:lvgl/src/lv_widgets/lv_canvas.c **** void lv_canvas_draw_img(lv_obj_t * canvas, lv_coord_t x, lv_coord_t y, const void * src,
 844:lvgl/src/lv_widgets/lv_canvas.c ****                         const lv_draw_img_dsc_t * img_draw_dsc)
 845:lvgl/src/lv_widgets/lv_canvas.c **** {
 846:lvgl/src/lv_widgets/lv_canvas.c ****     LV_ASSERT_OBJ(canvas, LV_OBJX_NAME);
 847:lvgl/src/lv_widgets/lv_canvas.c **** 
 848:lvgl/src/lv_widgets/lv_canvas.c ****     lv_img_dsc_t * dsc = lv_canvas_get_img(canvas);
 849:lvgl/src/lv_widgets/lv_canvas.c **** 
 850:lvgl/src/lv_widgets/lv_canvas.c ****     if(dsc->header.cf >= LV_IMG_CF_INDEXED_1BIT && dsc->header.cf <= LV_IMG_CF_INDEXED_8BIT) {
 851:lvgl/src/lv_widgets/lv_canvas.c ****         LV_LOG_WARN("lv_canvas_draw_img: can't draw to LV_IMG_CF_INDEXED canvas");
 852:lvgl/src/lv_widgets/lv_canvas.c ****         return;
 853:lvgl/src/lv_widgets/lv_canvas.c ****     }
 854:lvgl/src/lv_widgets/lv_canvas.c **** 
 855:lvgl/src/lv_widgets/lv_canvas.c ****     /* Create a dummy display to fool the lv_draw function.
 856:lvgl/src/lv_widgets/lv_canvas.c ****      * It will think it draws to real screen. */
 857:lvgl/src/lv_widgets/lv_canvas.c ****     lv_area_t mask;
 858:lvgl/src/lv_widgets/lv_canvas.c ****     mask.x1 = 0;
 859:lvgl/src/lv_widgets/lv_canvas.c ****     mask.x2 = dsc->header.w - 1;
 860:lvgl/src/lv_widgets/lv_canvas.c ****     mask.y1 = 0;
 861:lvgl/src/lv_widgets/lv_canvas.c ****     mask.y2 = dsc->header.h - 1;
 862:lvgl/src/lv_widgets/lv_canvas.c **** 
 863:lvgl/src/lv_widgets/lv_canvas.c ****     lv_img_header_t header;
 864:lvgl/src/lv_widgets/lv_canvas.c ****     lv_res_t res = lv_img_decoder_get_info(src, &header);
 865:lvgl/src/lv_widgets/lv_canvas.c ****     if(res != LV_RES_OK) {
 866:lvgl/src/lv_widgets/lv_canvas.c ****         LV_LOG_WARN("lv_canvas_draw_img: Couldn't get the image data.");
 867:lvgl/src/lv_widgets/lv_canvas.c ****         return;
 868:lvgl/src/lv_widgets/lv_canvas.c ****     }
 869:lvgl/src/lv_widgets/lv_canvas.c **** 
 870:lvgl/src/lv_widgets/lv_canvas.c ****     lv_area_t coords;
 871:lvgl/src/lv_widgets/lv_canvas.c ****     coords.x1 = x;
 872:lvgl/src/lv_widgets/lv_canvas.c ****     coords.y1 = y;
 873:lvgl/src/lv_widgets/lv_canvas.c ****     coords.x2 = x + header.w - 1;
 874:lvgl/src/lv_widgets/lv_canvas.c ****     coords.y2 = y + header.h - 1;
 875:lvgl/src/lv_widgets/lv_canvas.c **** 
 876:lvgl/src/lv_widgets/lv_canvas.c ****     lv_disp_t disp;
 877:lvgl/src/lv_widgets/lv_canvas.c ****     _lv_memset_00(&disp, sizeof(lv_disp_t));
 878:lvgl/src/lv_widgets/lv_canvas.c **** 
 879:lvgl/src/lv_widgets/lv_canvas.c ****     lv_disp_buf_t disp_buf;
 880:lvgl/src/lv_widgets/lv_canvas.c ****     lv_disp_buf_init(&disp_buf, (void *)dsc->data, NULL, dsc->header.w * dsc->header.h);
 881:lvgl/src/lv_widgets/lv_canvas.c ****     lv_area_copy(&disp_buf.area, &mask);
 882:lvgl/src/lv_widgets/lv_canvas.c **** 
 883:lvgl/src/lv_widgets/lv_canvas.c ****     lv_disp_drv_init(&disp.driver);
 884:lvgl/src/lv_widgets/lv_canvas.c **** 
 885:lvgl/src/lv_widgets/lv_canvas.c ****     disp.driver.buffer  = &disp_buf;
ARM GAS  D:\Temp\cc0vPyDE.s 			page 17


 886:lvgl/src/lv_widgets/lv_canvas.c ****     disp.driver.hor_res = dsc->header.w;
 887:lvgl/src/lv_widgets/lv_canvas.c ****     disp.driver.ver_res = dsc->header.h;
 888:lvgl/src/lv_widgets/lv_canvas.c **** 
 889:lvgl/src/lv_widgets/lv_canvas.c ****     set_set_px_cb(&disp.driver, dsc->header.cf);
 890:lvgl/src/lv_widgets/lv_canvas.c **** 
 891:lvgl/src/lv_widgets/lv_canvas.c ****     lv_disp_t * refr_ori = _lv_refr_get_disp_refreshing();
 892:lvgl/src/lv_widgets/lv_canvas.c ****     _lv_refr_set_disp_refreshing(&disp);
 893:lvgl/src/lv_widgets/lv_canvas.c **** 
 894:lvgl/src/lv_widgets/lv_canvas.c ****     lv_draw_img(&coords, &mask, src, img_draw_dsc);
 895:lvgl/src/lv_widgets/lv_canvas.c **** 
 896:lvgl/src/lv_widgets/lv_canvas.c ****     _lv_refr_set_disp_refreshing(refr_ori);
 897:lvgl/src/lv_widgets/lv_canvas.c **** 
 898:lvgl/src/lv_widgets/lv_canvas.c ****     lv_obj_invalidate(canvas);
 899:lvgl/src/lv_widgets/lv_canvas.c **** }
 900:lvgl/src/lv_widgets/lv_canvas.c **** 
 901:lvgl/src/lv_widgets/lv_canvas.c **** /**
 902:lvgl/src/lv_widgets/lv_canvas.c ****  * Draw a line on the canvas
 903:lvgl/src/lv_widgets/lv_canvas.c ****  * @param canvas pointer to a canvas object
 904:lvgl/src/lv_widgets/lv_canvas.c ****  * @param points point of the line
 905:lvgl/src/lv_widgets/lv_canvas.c ****  * @param point_cnt number of points
 906:lvgl/src/lv_widgets/lv_canvas.c ****  * @param line_draw_dsc pointer to an initialized `lv_draw_line_dsc_t` variable
 907:lvgl/src/lv_widgets/lv_canvas.c ****  */
 908:lvgl/src/lv_widgets/lv_canvas.c **** void lv_canvas_draw_line(lv_obj_t * canvas, const lv_point_t points[], uint32_t point_cnt,
 909:lvgl/src/lv_widgets/lv_canvas.c ****                          const lv_draw_line_dsc_t * line_draw_dsc)
 910:lvgl/src/lv_widgets/lv_canvas.c **** {
 911:lvgl/src/lv_widgets/lv_canvas.c ****     LV_ASSERT_OBJ(canvas, LV_OBJX_NAME);
 912:lvgl/src/lv_widgets/lv_canvas.c **** 
 913:lvgl/src/lv_widgets/lv_canvas.c ****     lv_img_dsc_t * dsc = lv_canvas_get_img(canvas);
 914:lvgl/src/lv_widgets/lv_canvas.c **** 
 915:lvgl/src/lv_widgets/lv_canvas.c ****     if(dsc->header.cf >= LV_IMG_CF_INDEXED_1BIT && dsc->header.cf <= LV_IMG_CF_INDEXED_8BIT) {
 916:lvgl/src/lv_widgets/lv_canvas.c ****         LV_LOG_WARN("lv_canvas_draw_line: can't draw to LV_IMG_CF_INDEXED canvas");
 917:lvgl/src/lv_widgets/lv_canvas.c ****         return;
 918:lvgl/src/lv_widgets/lv_canvas.c ****     }
 919:lvgl/src/lv_widgets/lv_canvas.c ****     /* Create a dummy display to fool the lv_draw function.
 920:lvgl/src/lv_widgets/lv_canvas.c ****      * It will think it draws to real screen. */
 921:lvgl/src/lv_widgets/lv_canvas.c ****     lv_area_t mask;
 922:lvgl/src/lv_widgets/lv_canvas.c ****     mask.x1 = 0;
 923:lvgl/src/lv_widgets/lv_canvas.c ****     mask.x2 = dsc->header.w - 1;
 924:lvgl/src/lv_widgets/lv_canvas.c ****     mask.y1 = 0;
 925:lvgl/src/lv_widgets/lv_canvas.c ****     mask.y2 = dsc->header.h - 1;
 926:lvgl/src/lv_widgets/lv_canvas.c **** 
 927:lvgl/src/lv_widgets/lv_canvas.c ****     lv_disp_t disp;
 928:lvgl/src/lv_widgets/lv_canvas.c ****     _lv_memset_00(&disp, sizeof(lv_disp_t));
 929:lvgl/src/lv_widgets/lv_canvas.c **** 
 930:lvgl/src/lv_widgets/lv_canvas.c ****     lv_disp_buf_t disp_buf;
 931:lvgl/src/lv_widgets/lv_canvas.c ****     lv_disp_buf_init(&disp_buf, (void *)dsc->data, NULL, dsc->header.w * dsc->header.h);
 932:lvgl/src/lv_widgets/lv_canvas.c ****     lv_area_copy(&disp_buf.area, &mask);
 933:lvgl/src/lv_widgets/lv_canvas.c **** 
 934:lvgl/src/lv_widgets/lv_canvas.c ****     lv_disp_drv_init(&disp.driver);
 935:lvgl/src/lv_widgets/lv_canvas.c **** 
 936:lvgl/src/lv_widgets/lv_canvas.c ****     disp.driver.buffer  = &disp_buf;
 937:lvgl/src/lv_widgets/lv_canvas.c ****     disp.driver.hor_res = dsc->header.w;
 938:lvgl/src/lv_widgets/lv_canvas.c ****     disp.driver.ver_res = dsc->header.h;
 939:lvgl/src/lv_widgets/lv_canvas.c **** 
 940:lvgl/src/lv_widgets/lv_canvas.c ****     set_set_px_cb(&disp.driver, dsc->header.cf);
 941:lvgl/src/lv_widgets/lv_canvas.c **** 
 942:lvgl/src/lv_widgets/lv_canvas.c **** #if LV_ANTIALIAS
ARM GAS  D:\Temp\cc0vPyDE.s 			page 18


 943:lvgl/src/lv_widgets/lv_canvas.c ****     /*Disable anti-aliasing if drawing with transparent color to chroma keyed canvas*/
 944:lvgl/src/lv_widgets/lv_canvas.c ****     lv_color_t ctransp = LV_COLOR_TRANSP;
 945:lvgl/src/lv_widgets/lv_canvas.c ****     if(dsc->header.cf == LV_IMG_CF_TRUE_COLOR_CHROMA_KEYED &&
 946:lvgl/src/lv_widgets/lv_canvas.c ****        line_draw_dsc->color.full == ctransp.full) {
 947:lvgl/src/lv_widgets/lv_canvas.c ****         disp.driver.antialiasing = 0;
 948:lvgl/src/lv_widgets/lv_canvas.c ****     }
 949:lvgl/src/lv_widgets/lv_canvas.c **** #endif
 950:lvgl/src/lv_widgets/lv_canvas.c **** 
 951:lvgl/src/lv_widgets/lv_canvas.c ****     lv_disp_t * refr_ori = _lv_refr_get_disp_refreshing();
 952:lvgl/src/lv_widgets/lv_canvas.c ****     _lv_refr_set_disp_refreshing(&disp);
 953:lvgl/src/lv_widgets/lv_canvas.c **** 
 954:lvgl/src/lv_widgets/lv_canvas.c ****     uint32_t i;
 955:lvgl/src/lv_widgets/lv_canvas.c ****     for(i = 0; i < point_cnt - 1; i++) {
 956:lvgl/src/lv_widgets/lv_canvas.c ****         lv_draw_line(&points[i], &points[i + 1], &mask, line_draw_dsc);
 957:lvgl/src/lv_widgets/lv_canvas.c ****     }
 958:lvgl/src/lv_widgets/lv_canvas.c **** 
 959:lvgl/src/lv_widgets/lv_canvas.c ****     _lv_refr_set_disp_refreshing(refr_ori);
 960:lvgl/src/lv_widgets/lv_canvas.c **** 
 961:lvgl/src/lv_widgets/lv_canvas.c ****     lv_obj_invalidate(canvas);
 962:lvgl/src/lv_widgets/lv_canvas.c **** }
 963:lvgl/src/lv_widgets/lv_canvas.c **** 
 964:lvgl/src/lv_widgets/lv_canvas.c **** /**
 965:lvgl/src/lv_widgets/lv_canvas.c ****  * Draw a polygon on the canvas
 966:lvgl/src/lv_widgets/lv_canvas.c ****  * @param canvas pointer to a canvas object
 967:lvgl/src/lv_widgets/lv_canvas.c ****  * @param points point of the polygon
 968:lvgl/src/lv_widgets/lv_canvas.c ****  * @param point_cnt number of points
 969:lvgl/src/lv_widgets/lv_canvas.c ****  * @param poly_draw_dsc pointer to an initialized `lv_draw_rect_dsc_t` variable
 970:lvgl/src/lv_widgets/lv_canvas.c ****  */
 971:lvgl/src/lv_widgets/lv_canvas.c **** void lv_canvas_draw_polygon(lv_obj_t * canvas, const lv_point_t points[], uint32_t point_cnt,
 972:lvgl/src/lv_widgets/lv_canvas.c ****                             const lv_draw_rect_dsc_t * poly_draw_dsc)
 973:lvgl/src/lv_widgets/lv_canvas.c **** {
 974:lvgl/src/lv_widgets/lv_canvas.c ****     LV_ASSERT_OBJ(canvas, LV_OBJX_NAME);
 975:lvgl/src/lv_widgets/lv_canvas.c **** 
 976:lvgl/src/lv_widgets/lv_canvas.c ****     lv_img_dsc_t * dsc = lv_canvas_get_img(canvas);
 977:lvgl/src/lv_widgets/lv_canvas.c **** 
 978:lvgl/src/lv_widgets/lv_canvas.c ****     if(dsc->header.cf >= LV_IMG_CF_INDEXED_1BIT && dsc->header.cf <= LV_IMG_CF_INDEXED_8BIT) {
 979:lvgl/src/lv_widgets/lv_canvas.c ****         LV_LOG_WARN("lv_canvas_draw_polygon: can't draw to LV_IMG_CF_INDEXED canvas");
 980:lvgl/src/lv_widgets/lv_canvas.c ****         return;
 981:lvgl/src/lv_widgets/lv_canvas.c ****     }
 982:lvgl/src/lv_widgets/lv_canvas.c **** 
 983:lvgl/src/lv_widgets/lv_canvas.c ****     /* Create a dummy display to fool the lv_draw function.
 984:lvgl/src/lv_widgets/lv_canvas.c ****      * It will think it draws to real screen. */
 985:lvgl/src/lv_widgets/lv_canvas.c ****     lv_area_t mask;
 986:lvgl/src/lv_widgets/lv_canvas.c ****     mask.x1 = 0;
 987:lvgl/src/lv_widgets/lv_canvas.c ****     mask.x2 = dsc->header.w - 1;
 988:lvgl/src/lv_widgets/lv_canvas.c ****     mask.y1 = 0;
 989:lvgl/src/lv_widgets/lv_canvas.c ****     mask.y2 = dsc->header.h - 1;
 990:lvgl/src/lv_widgets/lv_canvas.c **** 
 991:lvgl/src/lv_widgets/lv_canvas.c ****     lv_disp_t disp;
 992:lvgl/src/lv_widgets/lv_canvas.c ****     _lv_memset_00(&disp, sizeof(lv_disp_t));
 993:lvgl/src/lv_widgets/lv_canvas.c **** 
 994:lvgl/src/lv_widgets/lv_canvas.c ****     lv_disp_buf_t disp_buf;
 995:lvgl/src/lv_widgets/lv_canvas.c ****     lv_disp_buf_init(&disp_buf, (void *)dsc->data, NULL, dsc->header.w * dsc->header.h);
 996:lvgl/src/lv_widgets/lv_canvas.c ****     lv_area_copy(&disp_buf.area, &mask);
 997:lvgl/src/lv_widgets/lv_canvas.c **** 
 998:lvgl/src/lv_widgets/lv_canvas.c ****     lv_disp_drv_init(&disp.driver);
 999:lvgl/src/lv_widgets/lv_canvas.c **** 
ARM GAS  D:\Temp\cc0vPyDE.s 			page 19


1000:lvgl/src/lv_widgets/lv_canvas.c ****     disp.driver.buffer  = &disp_buf;
1001:lvgl/src/lv_widgets/lv_canvas.c ****     disp.driver.hor_res = dsc->header.w;
1002:lvgl/src/lv_widgets/lv_canvas.c ****     disp.driver.ver_res = dsc->header.h;
1003:lvgl/src/lv_widgets/lv_canvas.c **** 
1004:lvgl/src/lv_widgets/lv_canvas.c ****     set_set_px_cb(&disp.driver, dsc->header.cf);
1005:lvgl/src/lv_widgets/lv_canvas.c **** 
1006:lvgl/src/lv_widgets/lv_canvas.c **** #if LV_ANTIALIAS
1007:lvgl/src/lv_widgets/lv_canvas.c ****     /*Disable anti-aliasing if drawing with transparent color to chroma keyed canvas*/
1008:lvgl/src/lv_widgets/lv_canvas.c ****     lv_color_t ctransp = LV_COLOR_TRANSP;
1009:lvgl/src/lv_widgets/lv_canvas.c ****     if(dsc->header.cf == LV_IMG_CF_TRUE_COLOR_CHROMA_KEYED &&
1010:lvgl/src/lv_widgets/lv_canvas.c ****        poly_draw_dsc->bg_color.full == ctransp.full) {
1011:lvgl/src/lv_widgets/lv_canvas.c ****         disp.driver.antialiasing = 0;
1012:lvgl/src/lv_widgets/lv_canvas.c ****     }
1013:lvgl/src/lv_widgets/lv_canvas.c **** #endif
1014:lvgl/src/lv_widgets/lv_canvas.c **** 
1015:lvgl/src/lv_widgets/lv_canvas.c ****     lv_disp_t * refr_ori = _lv_refr_get_disp_refreshing();
1016:lvgl/src/lv_widgets/lv_canvas.c ****     _lv_refr_set_disp_refreshing(&disp);
1017:lvgl/src/lv_widgets/lv_canvas.c **** 
1018:lvgl/src/lv_widgets/lv_canvas.c ****     lv_draw_polygon(points, point_cnt, &mask, poly_draw_dsc);
1019:lvgl/src/lv_widgets/lv_canvas.c **** 
1020:lvgl/src/lv_widgets/lv_canvas.c ****     _lv_refr_set_disp_refreshing(refr_ori);
1021:lvgl/src/lv_widgets/lv_canvas.c **** 
1022:lvgl/src/lv_widgets/lv_canvas.c ****     lv_obj_invalidate(canvas);
1023:lvgl/src/lv_widgets/lv_canvas.c **** }
1024:lvgl/src/lv_widgets/lv_canvas.c **** 
1025:lvgl/src/lv_widgets/lv_canvas.c **** /**
1026:lvgl/src/lv_widgets/lv_canvas.c ****  * Draw an arc on the canvas
1027:lvgl/src/lv_widgets/lv_canvas.c ****  * @param canvas pointer to a canvas object
1028:lvgl/src/lv_widgets/lv_canvas.c ****  * @param x origo x of the arc
1029:lvgl/src/lv_widgets/lv_canvas.c ****  * @param y origo y of the arc
1030:lvgl/src/lv_widgets/lv_canvas.c ****  * @param r radius of the arc
1031:lvgl/src/lv_widgets/lv_canvas.c ****  * @param start_angle start angle in degrees
1032:lvgl/src/lv_widgets/lv_canvas.c ****  * @param end_angle end angle in degrees
1033:lvgl/src/lv_widgets/lv_canvas.c ****  * @param arc_draw_dsc pointer to an initialized `lv_draw_line_dsc_t` variable
1034:lvgl/src/lv_widgets/lv_canvas.c ****  */
1035:lvgl/src/lv_widgets/lv_canvas.c **** void lv_canvas_draw_arc(lv_obj_t * canvas, lv_coord_t x, lv_coord_t y, lv_coord_t r, int32_t start_
1036:lvgl/src/lv_widgets/lv_canvas.c ****                         int32_t end_angle, const lv_draw_line_dsc_t * arc_draw_dsc)
1037:lvgl/src/lv_widgets/lv_canvas.c **** {
1038:lvgl/src/lv_widgets/lv_canvas.c ****     LV_ASSERT_OBJ(canvas, LV_OBJX_NAME);
1039:lvgl/src/lv_widgets/lv_canvas.c **** 
1040:lvgl/src/lv_widgets/lv_canvas.c ****     lv_img_dsc_t * dsc = lv_canvas_get_img(canvas);
1041:lvgl/src/lv_widgets/lv_canvas.c **** 
1042:lvgl/src/lv_widgets/lv_canvas.c ****     if(dsc->header.cf >= LV_IMG_CF_INDEXED_1BIT && dsc->header.cf <= LV_IMG_CF_INDEXED_8BIT) {
1043:lvgl/src/lv_widgets/lv_canvas.c ****         LV_LOG_WARN("lv_canvas_draw_arc: can't draw to LV_IMG_CF_INDEXED canvas");
1044:lvgl/src/lv_widgets/lv_canvas.c ****         return;
1045:lvgl/src/lv_widgets/lv_canvas.c ****     }
1046:lvgl/src/lv_widgets/lv_canvas.c **** 
1047:lvgl/src/lv_widgets/lv_canvas.c ****     /* Create a dummy display to fool the lv_draw function.
1048:lvgl/src/lv_widgets/lv_canvas.c ****      * It will think it draws to real screen. */
1049:lvgl/src/lv_widgets/lv_canvas.c ****     lv_area_t mask;
1050:lvgl/src/lv_widgets/lv_canvas.c ****     mask.x1 = 0;
1051:lvgl/src/lv_widgets/lv_canvas.c ****     mask.x2 = dsc->header.w - 1;
1052:lvgl/src/lv_widgets/lv_canvas.c ****     mask.y1 = 0;
1053:lvgl/src/lv_widgets/lv_canvas.c ****     mask.y2 = dsc->header.h - 1;
1054:lvgl/src/lv_widgets/lv_canvas.c **** 
1055:lvgl/src/lv_widgets/lv_canvas.c ****     lv_disp_t disp;
1056:lvgl/src/lv_widgets/lv_canvas.c ****     _lv_memset_00(&disp, sizeof(lv_disp_t));
ARM GAS  D:\Temp\cc0vPyDE.s 			page 20


1057:lvgl/src/lv_widgets/lv_canvas.c **** 
1058:lvgl/src/lv_widgets/lv_canvas.c ****     lv_disp_buf_t disp_buf;
1059:lvgl/src/lv_widgets/lv_canvas.c ****     lv_disp_buf_init(&disp_buf, (void *)dsc->data, NULL, dsc->header.w * dsc->header.h);
1060:lvgl/src/lv_widgets/lv_canvas.c ****     lv_area_copy(&disp_buf.area, &mask);
1061:lvgl/src/lv_widgets/lv_canvas.c **** 
1062:lvgl/src/lv_widgets/lv_canvas.c ****     lv_disp_drv_init(&disp.driver);
1063:lvgl/src/lv_widgets/lv_canvas.c **** 
1064:lvgl/src/lv_widgets/lv_canvas.c ****     disp.driver.buffer  = &disp_buf;
1065:lvgl/src/lv_widgets/lv_canvas.c ****     disp.driver.hor_res = dsc->header.w;
1066:lvgl/src/lv_widgets/lv_canvas.c ****     disp.driver.ver_res = dsc->header.h;
1067:lvgl/src/lv_widgets/lv_canvas.c **** 
1068:lvgl/src/lv_widgets/lv_canvas.c ****     set_set_px_cb(&disp.driver, dsc->header.cf);
1069:lvgl/src/lv_widgets/lv_canvas.c **** 
1070:lvgl/src/lv_widgets/lv_canvas.c **** #if LV_ANTIALIAS
1071:lvgl/src/lv_widgets/lv_canvas.c ****     /*Disable anti-aliasing if drawing with transparent color to chroma keyed canvas*/
1072:lvgl/src/lv_widgets/lv_canvas.c ****     lv_color_t ctransp = LV_COLOR_TRANSP;
1073:lvgl/src/lv_widgets/lv_canvas.c ****     if(dsc->header.cf == LV_IMG_CF_TRUE_COLOR_CHROMA_KEYED &&
1074:lvgl/src/lv_widgets/lv_canvas.c ****        arc_draw_dsc->color.full == ctransp.full) {
1075:lvgl/src/lv_widgets/lv_canvas.c ****         disp.driver.antialiasing = 0;
1076:lvgl/src/lv_widgets/lv_canvas.c ****     }
1077:lvgl/src/lv_widgets/lv_canvas.c **** #endif
1078:lvgl/src/lv_widgets/lv_canvas.c **** 
1079:lvgl/src/lv_widgets/lv_canvas.c ****     lv_disp_t * refr_ori = _lv_refr_get_disp_refreshing();
1080:lvgl/src/lv_widgets/lv_canvas.c ****     _lv_refr_set_disp_refreshing(&disp);
1081:lvgl/src/lv_widgets/lv_canvas.c **** 
1082:lvgl/src/lv_widgets/lv_canvas.c ****     lv_draw_arc(x, y, r,  start_angle, end_angle, &mask, arc_draw_dsc);
1083:lvgl/src/lv_widgets/lv_canvas.c **** 
1084:lvgl/src/lv_widgets/lv_canvas.c ****     _lv_refr_set_disp_refreshing(refr_ori);
1085:lvgl/src/lv_widgets/lv_canvas.c **** 
1086:lvgl/src/lv_widgets/lv_canvas.c ****     lv_obj_invalidate(canvas);
1087:lvgl/src/lv_widgets/lv_canvas.c **** }
1088:lvgl/src/lv_widgets/lv_canvas.c **** 
1089:lvgl/src/lv_widgets/lv_canvas.c **** /**********************
1090:lvgl/src/lv_widgets/lv_canvas.c ****  *   STATIC FUNCTIONS
1091:lvgl/src/lv_widgets/lv_canvas.c ****  **********************/
1092:lvgl/src/lv_widgets/lv_canvas.c **** 
1093:lvgl/src/lv_widgets/lv_canvas.c **** /**
1094:lvgl/src/lv_widgets/lv_canvas.c ****  * Signal function of the canvas
1095:lvgl/src/lv_widgets/lv_canvas.c ****  * @param canvas pointer to a canvas object
1096:lvgl/src/lv_widgets/lv_canvas.c ****  * @param sign a signal type from lv_signal_t enum
1097:lvgl/src/lv_widgets/lv_canvas.c ****  * @param param pointer to a signal specific variable
1098:lvgl/src/lv_widgets/lv_canvas.c ****  * @return LV_RES_OK: the object is not deleted in the function; LV_RES_INV: the object is deleted
1099:lvgl/src/lv_widgets/lv_canvas.c ****  */
1100:lvgl/src/lv_widgets/lv_canvas.c **** static lv_res_t lv_canvas_signal(lv_obj_t * canvas, lv_signal_t sign, void * param)
1101:lvgl/src/lv_widgets/lv_canvas.c **** {
1102:lvgl/src/lv_widgets/lv_canvas.c ****     lv_res_t res;
1103:lvgl/src/lv_widgets/lv_canvas.c **** 
1104:lvgl/src/lv_widgets/lv_canvas.c ****     /* Include the ancient signal function */
1105:lvgl/src/lv_widgets/lv_canvas.c ****     res = ancestor_signal(canvas, sign, param);
1106:lvgl/src/lv_widgets/lv_canvas.c ****     if(res != LV_RES_OK) return res;
1107:lvgl/src/lv_widgets/lv_canvas.c ****     if(sign == LV_SIGNAL_GET_TYPE) return lv_obj_handle_get_type_signal(param, LV_OBJX_NAME);
1108:lvgl/src/lv_widgets/lv_canvas.c **** 
1109:lvgl/src/lv_widgets/lv_canvas.c ****     if(sign == LV_SIGNAL_CLEANUP) {
1110:lvgl/src/lv_widgets/lv_canvas.c ****         /*Nothing to cleanup. (No dynamically allocated memory in 'ext')*/
1111:lvgl/src/lv_widgets/lv_canvas.c ****     }
1112:lvgl/src/lv_widgets/lv_canvas.c **** 
1113:lvgl/src/lv_widgets/lv_canvas.c ****     return res;
ARM GAS  D:\Temp\cc0vPyDE.s 			page 21


1114:lvgl/src/lv_widgets/lv_canvas.c **** }
1115:lvgl/src/lv_widgets/lv_canvas.c **** 
1116:lvgl/src/lv_widgets/lv_canvas.c **** static void set_set_px_cb(lv_disp_drv_t * disp_drv, lv_img_cf_t cf)
1117:lvgl/src/lv_widgets/lv_canvas.c **** {
  29              		.loc 1 1117 1 view -0
  30              		.cfi_startproc
  31              		@ args = 0, pretend = 0, frame = 0
  32              		@ frame_needed = 0, uses_anonymous_args = 0
  33              		@ link register save eliminated.
1118:lvgl/src/lv_widgets/lv_canvas.c ****     switch(cf) {
  34              		.loc 1 1118 5 view .LVU1
  35 0000 0539     		subs	r1, r1, #5
  36              	.LVL1:
  37              		.loc 1 1118 5 is_stmt 0 view .LVU2
  38 0002 0929     		cmp	r1, #9
  39 0004 15D8     		bhi	.L2
  40 0006 DFE801F0 		tbb	[pc, r1]
  41              	.L4:
  42 000a 05       		.byte	(.L8-.L4)/2
  43 000b 14       		.byte	(.L2-.L4)/2
  44 000c 14       		.byte	(.L2-.L4)/2
  45 000d 14       		.byte	(.L2-.L4)/2
  46 000e 14       		.byte	(.L2-.L4)/2
  47 000f 14       		.byte	(.L2-.L4)/2
  48 0010 08       		.byte	(.L7-.L4)/2
  49 0011 0B       		.byte	(.L6-.L4)/2
  50 0012 0E       		.byte	(.L5-.L4)/2
  51 0013 11       		.byte	(.L3-.L4)/2
  52              		.p2align 1
  53              	.L8:
1119:lvgl/src/lv_widgets/lv_canvas.c ****         case LV_IMG_CF_TRUE_COLOR_ALPHA:
1120:lvgl/src/lv_widgets/lv_canvas.c ****             disp_drv->set_px_cb = set_px_true_color_alpha;
  54              		.loc 1 1120 13 is_stmt 1 view .LVU3
  55              		.loc 1 1120 33 is_stmt 0 view .LVU4
  56 0014 084B     		ldr	r3, .L10
  57 0016 4361     		str	r3, [r0, #20]
1121:lvgl/src/lv_widgets/lv_canvas.c ****             break;
  58              		.loc 1 1121 13 is_stmt 1 view .LVU5
  59 0018 7047     		bx	lr
  60              	.L7:
1122:lvgl/src/lv_widgets/lv_canvas.c ****         case LV_IMG_CF_ALPHA_1BIT:
1123:lvgl/src/lv_widgets/lv_canvas.c ****             disp_drv->set_px_cb = set_px_cb_alpha1;
  61              		.loc 1 1123 13 view .LVU6
  62              		.loc 1 1123 33 is_stmt 0 view .LVU7
  63 001a 084B     		ldr	r3, .L10+4
  64 001c 4361     		str	r3, [r0, #20]
1124:lvgl/src/lv_widgets/lv_canvas.c ****             break;
  65              		.loc 1 1124 13 is_stmt 1 view .LVU8
  66 001e 7047     		bx	lr
  67              	.L6:
1125:lvgl/src/lv_widgets/lv_canvas.c ****         case LV_IMG_CF_ALPHA_2BIT:
1126:lvgl/src/lv_widgets/lv_canvas.c ****             disp_drv->set_px_cb = set_px_cb_alpha2;
  68              		.loc 1 1126 13 view .LVU9
  69              		.loc 1 1126 33 is_stmt 0 view .LVU10
  70 0020 074B     		ldr	r3, .L10+8
  71 0022 4361     		str	r3, [r0, #20]
1127:lvgl/src/lv_widgets/lv_canvas.c ****             break;
ARM GAS  D:\Temp\cc0vPyDE.s 			page 22


  72              		.loc 1 1127 13 is_stmt 1 view .LVU11
  73 0024 7047     		bx	lr
  74              	.L5:
1128:lvgl/src/lv_widgets/lv_canvas.c ****         case LV_IMG_CF_ALPHA_4BIT:
1129:lvgl/src/lv_widgets/lv_canvas.c ****             disp_drv->set_px_cb = set_px_cb_alpha4;
  75              		.loc 1 1129 13 view .LVU12
  76              		.loc 1 1129 33 is_stmt 0 view .LVU13
  77 0026 074B     		ldr	r3, .L10+12
  78 0028 4361     		str	r3, [r0, #20]
1130:lvgl/src/lv_widgets/lv_canvas.c ****             break;
  79              		.loc 1 1130 13 is_stmt 1 view .LVU14
  80 002a 7047     		bx	lr
  81              	.L3:
1131:lvgl/src/lv_widgets/lv_canvas.c ****         case LV_IMG_CF_ALPHA_8BIT:
1132:lvgl/src/lv_widgets/lv_canvas.c ****             disp_drv->set_px_cb = set_px_cb_alpha8;
  82              		.loc 1 1132 13 view .LVU15
  83              		.loc 1 1132 33 is_stmt 0 view .LVU16
  84 002c 064B     		ldr	r3, .L10+16
  85 002e 4361     		str	r3, [r0, #20]
1133:lvgl/src/lv_widgets/lv_canvas.c ****             break;
  86              		.loc 1 1133 13 is_stmt 1 view .LVU17
  87 0030 7047     		bx	lr
  88              	.L2:
1134:lvgl/src/lv_widgets/lv_canvas.c ****         default:
1135:lvgl/src/lv_widgets/lv_canvas.c ****             disp_drv->set_px_cb = NULL;
  89              		.loc 1 1135 13 view .LVU18
  90              		.loc 1 1135 33 is_stmt 0 view .LVU19
  91 0032 0023     		movs	r3, #0
  92 0034 4361     		str	r3, [r0, #20]
1136:lvgl/src/lv_widgets/lv_canvas.c ****     }
1137:lvgl/src/lv_widgets/lv_canvas.c **** }
  93              		.loc 1 1137 1 view .LVU20
  94 0036 7047     		bx	lr
  95              	.L11:
  96              		.align	2
  97              	.L10:
  98 0038 00000000 		.word	set_px_true_color_alpha
  99 003c 00000000 		.word	set_px_cb_alpha1
 100 0040 00000000 		.word	set_px_cb_alpha2
 101 0044 00000000 		.word	set_px_cb_alpha4
 102 0048 00000000 		.word	set_px_cb_alpha8
 103              		.cfi_endproc
 104              	.LFE476:
 106              		.section	.text.lv_canvas_signal,"ax",%progbits
 107              		.align	1
 108              		.syntax unified
 109              		.thumb
 110              		.thumb_func
 111              		.fpu fpv4-sp-d16
 113              	lv_canvas_signal:
 114              	.LVL2:
 115              	.LFB475:
1101:lvgl/src/lv_widgets/lv_canvas.c ****     lv_res_t res;
 116              		.loc 1 1101 1 is_stmt 1 view -0
 117              		.cfi_startproc
 118              		@ args = 0, pretend = 0, frame = 0
 119              		@ frame_needed = 0, uses_anonymous_args = 0
ARM GAS  D:\Temp\cc0vPyDE.s 			page 23


1101:lvgl/src/lv_widgets/lv_canvas.c ****     lv_res_t res;
 120              		.loc 1 1101 1 is_stmt 0 view .LVU22
 121 0000 38B5     		push	{r3, r4, r5, lr}
 122              	.LCFI0:
 123              		.cfi_def_cfa_offset 16
 124              		.cfi_offset 3, -16
 125              		.cfi_offset 4, -12
 126              		.cfi_offset 5, -8
 127              		.cfi_offset 14, -4
 128 0002 0C46     		mov	r4, r1
 129 0004 1546     		mov	r5, r2
1102:lvgl/src/lv_widgets/lv_canvas.c **** 
 130              		.loc 1 1102 5 is_stmt 1 view .LVU23
1105:lvgl/src/lv_widgets/lv_canvas.c ****     if(res != LV_RES_OK) return res;
 131              		.loc 1 1105 5 view .LVU24
1105:lvgl/src/lv_widgets/lv_canvas.c ****     if(res != LV_RES_OK) return res;
 132              		.loc 1 1105 11 is_stmt 0 view .LVU25
 133 0006 064B     		ldr	r3, .L16
 134 0008 1B68     		ldr	r3, [r3]
 135 000a 9847     		blx	r3
 136              	.LVL3:
1106:lvgl/src/lv_widgets/lv_canvas.c ****     if(sign == LV_SIGNAL_GET_TYPE) return lv_obj_handle_get_type_signal(param, LV_OBJX_NAME);
 137              		.loc 1 1106 5 is_stmt 1 view .LVU26
1106:lvgl/src/lv_widgets/lv_canvas.c ****     if(sign == LV_SIGNAL_GET_TYPE) return lv_obj_handle_get_type_signal(param, LV_OBJX_NAME);
 138              		.loc 1 1106 7 is_stmt 0 view .LVU27
 139 000c 0128     		cmp	r0, #1
 140 000e 01D1     		bne	.L13
1107:lvgl/src/lv_widgets/lv_canvas.c **** 
 141              		.loc 1 1107 5 is_stmt 1 view .LVU28
1107:lvgl/src/lv_widgets/lv_canvas.c **** 
 142              		.loc 1 1107 7 is_stmt 0 view .LVU29
 143 0010 072C     		cmp	r4, #7
 144 0012 00D0     		beq	.L15
 145              	.LVL4:
 146              	.L13:
1114:lvgl/src/lv_widgets/lv_canvas.c **** 
 147              		.loc 1 1114 1 view .LVU30
 148 0014 38BD     		pop	{r3, r4, r5, pc}
 149              	.LVL5:
 150              	.L15:
1107:lvgl/src/lv_widgets/lv_canvas.c **** 
 151              		.loc 1 1107 36 is_stmt 1 discriminator 1 view .LVU31
1107:lvgl/src/lv_widgets/lv_canvas.c **** 
 152              		.loc 1 1107 43 is_stmt 0 discriminator 1 view .LVU32
 153 0016 0349     		ldr	r1, .L16+4
 154 0018 2846     		mov	r0, r5
 155              	.LVL6:
1107:lvgl/src/lv_widgets/lv_canvas.c **** 
 156              		.loc 1 1107 43 discriminator 1 view .LVU33
 157 001a FFF7FEFF 		bl	lv_obj_handle_get_type_signal
 158              	.LVL7:
 159 001e F9E7     		b	.L13
 160              	.L17:
 161              		.align	2
 162              	.L16:
 163 0020 00000000 		.word	.LANCHOR0
 164 0024 00000000 		.word	.LC0
ARM GAS  D:\Temp\cc0vPyDE.s 			page 24


 165              		.cfi_endproc
 166              	.LFE475:
 168              		.section	.text.set_px_alpha_generic,"ax",%progbits
 169              		.align	1
 170              		.syntax unified
 171              		.thumb
 172              		.thumb_func
 173              		.fpu fpv4-sp-d16
 175              	set_px_alpha_generic:
 176              	.LVL8:
 177              	.LFB481:
1138:lvgl/src/lv_widgets/lv_canvas.c **** 
1139:lvgl/src/lv_widgets/lv_canvas.c **** static void set_px_cb_alpha1(lv_disp_drv_t * disp_drv, uint8_t * buf, lv_coord_t buf_w, lv_coord_t 
1140:lvgl/src/lv_widgets/lv_canvas.c ****                              lv_color_t color, lv_opa_t opa)
1141:lvgl/src/lv_widgets/lv_canvas.c **** {
1142:lvgl/src/lv_widgets/lv_canvas.c ****     (void) disp_drv; /*Unused*/
1143:lvgl/src/lv_widgets/lv_canvas.c **** 
1144:lvgl/src/lv_widgets/lv_canvas.c ****     if(opa <= LV_OPA_MIN) return;
1145:lvgl/src/lv_widgets/lv_canvas.c ****     lv_img_dsc_t d;
1146:lvgl/src/lv_widgets/lv_canvas.c ****     d.data = buf;
1147:lvgl/src/lv_widgets/lv_canvas.c ****     d.header.w = buf_w;
1148:lvgl/src/lv_widgets/lv_canvas.c ****     d.header.cf = LV_IMG_CF_ALPHA_1BIT;
1149:lvgl/src/lv_widgets/lv_canvas.c **** 
1150:lvgl/src/lv_widgets/lv_canvas.c ****     set_px_alpha_generic(&d, x, y, color, opa);
1151:lvgl/src/lv_widgets/lv_canvas.c **** }
1152:lvgl/src/lv_widgets/lv_canvas.c **** 
1153:lvgl/src/lv_widgets/lv_canvas.c **** static void set_px_cb_alpha2(lv_disp_drv_t * disp_drv, uint8_t * buf, lv_coord_t buf_w, lv_coord_t 
1154:lvgl/src/lv_widgets/lv_canvas.c ****                              lv_color_t color, lv_opa_t opa)
1155:lvgl/src/lv_widgets/lv_canvas.c **** {
1156:lvgl/src/lv_widgets/lv_canvas.c ****     (void) disp_drv; /*Unused*/
1157:lvgl/src/lv_widgets/lv_canvas.c **** 
1158:lvgl/src/lv_widgets/lv_canvas.c ****     if(opa <= LV_OPA_MIN) return;
1159:lvgl/src/lv_widgets/lv_canvas.c ****     lv_img_dsc_t d;
1160:lvgl/src/lv_widgets/lv_canvas.c ****     d.data = buf;
1161:lvgl/src/lv_widgets/lv_canvas.c ****     d.header.w = buf_w;
1162:lvgl/src/lv_widgets/lv_canvas.c ****     d.header.cf = LV_IMG_CF_ALPHA_2BIT;
1163:lvgl/src/lv_widgets/lv_canvas.c **** 
1164:lvgl/src/lv_widgets/lv_canvas.c ****     set_px_alpha_generic(&d, x, y, color, opa);
1165:lvgl/src/lv_widgets/lv_canvas.c **** }
1166:lvgl/src/lv_widgets/lv_canvas.c **** 
1167:lvgl/src/lv_widgets/lv_canvas.c **** static void set_px_cb_alpha4(lv_disp_drv_t * disp_drv, uint8_t * buf, lv_coord_t buf_w, lv_coord_t 
1168:lvgl/src/lv_widgets/lv_canvas.c ****                              lv_color_t color, lv_opa_t opa)
1169:lvgl/src/lv_widgets/lv_canvas.c **** {
1170:lvgl/src/lv_widgets/lv_canvas.c ****     (void) disp_drv; /*Unused*/
1171:lvgl/src/lv_widgets/lv_canvas.c **** 
1172:lvgl/src/lv_widgets/lv_canvas.c ****     if(opa <= LV_OPA_MIN) return;
1173:lvgl/src/lv_widgets/lv_canvas.c ****     lv_img_dsc_t d;
1174:lvgl/src/lv_widgets/lv_canvas.c ****     d.data = buf;
1175:lvgl/src/lv_widgets/lv_canvas.c ****     d.header.w = buf_w;
1176:lvgl/src/lv_widgets/lv_canvas.c ****     d.header.cf = LV_IMG_CF_ALPHA_4BIT;
1177:lvgl/src/lv_widgets/lv_canvas.c **** 
1178:lvgl/src/lv_widgets/lv_canvas.c ****     set_px_alpha_generic(&d, x, y, color, opa);
1179:lvgl/src/lv_widgets/lv_canvas.c **** }
1180:lvgl/src/lv_widgets/lv_canvas.c **** 
1181:lvgl/src/lv_widgets/lv_canvas.c **** static void set_px_cb_alpha8(lv_disp_drv_t * disp_drv, uint8_t * buf, lv_coord_t buf_w, lv_coord_t 
1182:lvgl/src/lv_widgets/lv_canvas.c ****                              lv_color_t color, lv_opa_t opa)
1183:lvgl/src/lv_widgets/lv_canvas.c **** {
ARM GAS  D:\Temp\cc0vPyDE.s 			page 25


1184:lvgl/src/lv_widgets/lv_canvas.c ****     (void) disp_drv; /*Unused*/
1185:lvgl/src/lv_widgets/lv_canvas.c **** 
1186:lvgl/src/lv_widgets/lv_canvas.c ****     if(opa <= LV_OPA_MIN) return;
1187:lvgl/src/lv_widgets/lv_canvas.c ****     lv_img_dsc_t d;
1188:lvgl/src/lv_widgets/lv_canvas.c ****     d.data = buf;
1189:lvgl/src/lv_widgets/lv_canvas.c ****     d.header.w = buf_w;
1190:lvgl/src/lv_widgets/lv_canvas.c ****     d.header.cf = LV_IMG_CF_ALPHA_8BIT;
1191:lvgl/src/lv_widgets/lv_canvas.c **** 
1192:lvgl/src/lv_widgets/lv_canvas.c ****     set_px_alpha_generic(&d, x, y, color, opa);
1193:lvgl/src/lv_widgets/lv_canvas.c **** }
1194:lvgl/src/lv_widgets/lv_canvas.c **** 
1195:lvgl/src/lv_widgets/lv_canvas.c **** static void set_px_alpha_generic(lv_img_dsc_t * d, lv_coord_t x, lv_coord_t y, lv_color_t color, lv
1196:lvgl/src/lv_widgets/lv_canvas.c **** {
 178              		.loc 1 1196 1 is_stmt 1 view -0
 179              		.cfi_startproc
 180              		@ args = 4, pretend = 0, frame = 0
 181              		@ frame_needed = 0, uses_anonymous_args = 0
 182              		.loc 1 1196 1 is_stmt 0 view .LVU35
 183 0000 2DE9F041 		push	{r4, r5, r6, r7, r8, lr}
 184              	.LCFI1:
 185              		.cfi_def_cfa_offset 24
 186              		.cfi_offset 4, -24
 187              		.cfi_offset 5, -20
 188              		.cfi_offset 6, -16
 189              		.cfi_offset 7, -12
 190              		.cfi_offset 8, -8
 191              		.cfi_offset 14, -4
 192 0004 0446     		mov	r4, r0
 193 0006 0E46     		mov	r6, r1
 194 0008 1746     		mov	r7, r2
 195 000a 9DF81850 		ldrb	r5, [sp, #24]	@ zero_extendqisi2
1197:lvgl/src/lv_widgets/lv_canvas.c ****     d->header.always_zero = 0;
 196              		.loc 1 1197 5 is_stmt 1 view .LVU36
 197              		.loc 1 1197 27 is_stmt 0 view .LVU37
 198 000e 0278     		ldrb	r2, [r0]	@ zero_extendqisi2
 199              	.LVL9:
 200              		.loc 1 1197 27 view .LVU38
 201 0010 6FF34712 		bfc	r2, #5, #3
 202 0014 0270     		strb	r2, [r0]
1198:lvgl/src/lv_widgets/lv_canvas.c ****     d->header.h = LV_VER_RES_MAX;
 203              		.loc 1 1198 5 is_stmt 1 view .LVU39
 204              		.loc 1 1198 17 is_stmt 0 view .LVU40
 205 0016 4288     		ldrh	r2, [r0, #2]
 206 0018 F021     		movs	r1, #240
 207              	.LVL10:
 208              		.loc 1 1198 17 view .LVU41
 209 001a 61F34F12 		bfi	r2, r1, #5, #11
 210 001e 4280     		strh	r2, [r0, #2]	@ movhi
1199:lvgl/src/lv_widgets/lv_canvas.c **** 
1200:lvgl/src/lv_widgets/lv_canvas.c ****     uint8_t br = lv_color_brightness(color);
 211              		.loc 1 1200 5 is_stmt 1 view .LVU42
 212              	.LBB61:
 213              	.LBI61:
 214              		.file 2 "lvgl/src/lv_widgets/../lv_core/../lv_misc/lv_color.h"
   1:lvgl/src/lv_widgets/../lv_core/../lv_misc/lv_color.h **** /**
   2:lvgl/src/lv_widgets/../lv_core/../lv_misc/lv_color.h ****  * @file lv_color.h
   3:lvgl/src/lv_widgets/../lv_core/../lv_misc/lv_color.h ****  *
ARM GAS  D:\Temp\cc0vPyDE.s 			page 26


   4:lvgl/src/lv_widgets/../lv_core/../lv_misc/lv_color.h ****  */
   5:lvgl/src/lv_widgets/../lv_core/../lv_misc/lv_color.h **** 
   6:lvgl/src/lv_widgets/../lv_core/../lv_misc/lv_color.h **** #ifndef LV_COLOR_H
   7:lvgl/src/lv_widgets/../lv_core/../lv_misc/lv_color.h **** #define LV_COLOR_H
   8:lvgl/src/lv_widgets/../lv_core/../lv_misc/lv_color.h **** 
   9:lvgl/src/lv_widgets/../lv_core/../lv_misc/lv_color.h **** #ifdef __cplusplus
  10:lvgl/src/lv_widgets/../lv_core/../lv_misc/lv_color.h **** extern "C" {
  11:lvgl/src/lv_widgets/../lv_core/../lv_misc/lv_color.h **** #endif
  12:lvgl/src/lv_widgets/../lv_core/../lv_misc/lv_color.h **** 
  13:lvgl/src/lv_widgets/../lv_core/../lv_misc/lv_color.h **** /*********************
  14:lvgl/src/lv_widgets/../lv_core/../lv_misc/lv_color.h ****  *      INCLUDES
  15:lvgl/src/lv_widgets/../lv_core/../lv_misc/lv_color.h ****  *********************/
  16:lvgl/src/lv_widgets/../lv_core/../lv_misc/lv_color.h **** #include "../lv_conf_internal.h"
  17:lvgl/src/lv_widgets/../lv_core/../lv_misc/lv_color.h **** #include "lv_math.h"
  18:lvgl/src/lv_widgets/../lv_core/../lv_misc/lv_color.h **** 
  19:lvgl/src/lv_widgets/../lv_core/../lv_misc/lv_color.h **** /*Error checking*/
  20:lvgl/src/lv_widgets/../lv_core/../lv_misc/lv_color.h **** #if LV_COLOR_DEPTH == 24
  21:lvgl/src/lv_widgets/../lv_core/../lv_misc/lv_color.h **** #error "LV_COLOR_DEPTH 24 is deprecated. Use LV_COLOR_DEPTH 32 instead (lv_conf.h)"
  22:lvgl/src/lv_widgets/../lv_core/../lv_misc/lv_color.h **** #endif
  23:lvgl/src/lv_widgets/../lv_core/../lv_misc/lv_color.h **** 
  24:lvgl/src/lv_widgets/../lv_core/../lv_misc/lv_color.h **** #if LV_COLOR_DEPTH != 32 && LV_COLOR_SCREEN_TRANSP != 0
  25:lvgl/src/lv_widgets/../lv_core/../lv_misc/lv_color.h **** #error "LV_COLOR_SCREEN_TRANSP requires LV_COLOR_DEPTH == 32. Set it in lv_conf.h"
  26:lvgl/src/lv_widgets/../lv_core/../lv_misc/lv_color.h **** #endif
  27:lvgl/src/lv_widgets/../lv_core/../lv_misc/lv_color.h **** 
  28:lvgl/src/lv_widgets/../lv_core/../lv_misc/lv_color.h **** #if LV_COLOR_DEPTH != 16 && LV_COLOR_16_SWAP != 0
  29:lvgl/src/lv_widgets/../lv_core/../lv_misc/lv_color.h **** #error "LV_COLOR_16_SWAP requires LV_COLOR_DEPTH == 16. Set it in lv_conf.h"
  30:lvgl/src/lv_widgets/../lv_core/../lv_misc/lv_color.h **** #endif
  31:lvgl/src/lv_widgets/../lv_core/../lv_misc/lv_color.h **** 
  32:lvgl/src/lv_widgets/../lv_core/../lv_misc/lv_color.h **** #include <stdint.h>
  33:lvgl/src/lv_widgets/../lv_core/../lv_misc/lv_color.h **** 
  34:lvgl/src/lv_widgets/../lv_core/../lv_misc/lv_color.h **** /*********************
  35:lvgl/src/lv_widgets/../lv_core/../lv_misc/lv_color.h ****  *      DEFINES
  36:lvgl/src/lv_widgets/../lv_core/../lv_misc/lv_color.h ****  *********************/
  37:lvgl/src/lv_widgets/../lv_core/../lv_misc/lv_color.h **** #define LV_COLOR_WHITE   LV_COLOR_MAKE(0xFF, 0xFF, 0xFF)
  38:lvgl/src/lv_widgets/../lv_core/../lv_misc/lv_color.h **** #define LV_COLOR_SILVER  LV_COLOR_MAKE(0xC0, 0xC0, 0xC0)
  39:lvgl/src/lv_widgets/../lv_core/../lv_misc/lv_color.h **** #define LV_COLOR_GRAY    LV_COLOR_MAKE(0x80, 0x80, 0x80)
  40:lvgl/src/lv_widgets/../lv_core/../lv_misc/lv_color.h **** #define LV_COLOR_BLACK   LV_COLOR_MAKE(0x00, 0x00, 0x00)
  41:lvgl/src/lv_widgets/../lv_core/../lv_misc/lv_color.h **** #define LV_COLOR_RED     LV_COLOR_MAKE(0xFF, 0x00, 0x00)
  42:lvgl/src/lv_widgets/../lv_core/../lv_misc/lv_color.h **** #define LV_COLOR_MAROON  LV_COLOR_MAKE(0x80, 0x00, 0x00)
  43:lvgl/src/lv_widgets/../lv_core/../lv_misc/lv_color.h **** #define LV_COLOR_YELLOW  LV_COLOR_MAKE(0xFF, 0xFF, 0x00)
  44:lvgl/src/lv_widgets/../lv_core/../lv_misc/lv_color.h **** #define LV_COLOR_OLIVE   LV_COLOR_MAKE(0x80, 0x80, 0x00)
  45:lvgl/src/lv_widgets/../lv_core/../lv_misc/lv_color.h **** #define LV_COLOR_LIME    LV_COLOR_MAKE(0x00, 0xFF, 0x00)
  46:lvgl/src/lv_widgets/../lv_core/../lv_misc/lv_color.h **** #define LV_COLOR_GREEN   LV_COLOR_MAKE(0x00, 0x80, 0x00)
  47:lvgl/src/lv_widgets/../lv_core/../lv_misc/lv_color.h **** #define LV_COLOR_CYAN    LV_COLOR_MAKE(0x00, 0xFF, 0xFF)
  48:lvgl/src/lv_widgets/../lv_core/../lv_misc/lv_color.h **** #define LV_COLOR_AQUA    LV_COLOR_CYAN
  49:lvgl/src/lv_widgets/../lv_core/../lv_misc/lv_color.h **** #define LV_COLOR_TEAL    LV_COLOR_MAKE(0x00, 0x80, 0x80)
  50:lvgl/src/lv_widgets/../lv_core/../lv_misc/lv_color.h **** #define LV_COLOR_BLUE    LV_COLOR_MAKE(0x00, 0x00, 0xFF)
  51:lvgl/src/lv_widgets/../lv_core/../lv_misc/lv_color.h **** #define LV_COLOR_NAVY    LV_COLOR_MAKE(0x00, 0x00, 0x80)
  52:lvgl/src/lv_widgets/../lv_core/../lv_misc/lv_color.h **** #define LV_COLOR_MAGENTA LV_COLOR_MAKE(0xFF, 0x00, 0xFF)
  53:lvgl/src/lv_widgets/../lv_core/../lv_misc/lv_color.h **** #define LV_COLOR_PURPLE  LV_COLOR_MAKE(0x80, 0x00, 0x80)
  54:lvgl/src/lv_widgets/../lv_core/../lv_misc/lv_color.h **** #define LV_COLOR_ORANGE  LV_COLOR_MAKE(0xFF, 0xA5, 0x00)
  55:lvgl/src/lv_widgets/../lv_core/../lv_misc/lv_color.h **** 
  56:lvgl/src/lv_widgets/../lv_core/../lv_misc/lv_color.h **** /**
  57:lvgl/src/lv_widgets/../lv_core/../lv_misc/lv_color.h ****  * Opacity percentages.
  58:lvgl/src/lv_widgets/../lv_core/../lv_misc/lv_color.h ****  */
  59:lvgl/src/lv_widgets/../lv_core/../lv_misc/lv_color.h **** enum {
  60:lvgl/src/lv_widgets/../lv_core/../lv_misc/lv_color.h ****     LV_OPA_TRANSP = 0,
ARM GAS  D:\Temp\cc0vPyDE.s 			page 27


  61:lvgl/src/lv_widgets/../lv_core/../lv_misc/lv_color.h ****     LV_OPA_0      = 0,
  62:lvgl/src/lv_widgets/../lv_core/../lv_misc/lv_color.h ****     LV_OPA_10     = 25,
  63:lvgl/src/lv_widgets/../lv_core/../lv_misc/lv_color.h ****     LV_OPA_20     = 51,
  64:lvgl/src/lv_widgets/../lv_core/../lv_misc/lv_color.h ****     LV_OPA_30     = 76,
  65:lvgl/src/lv_widgets/../lv_core/../lv_misc/lv_color.h ****     LV_OPA_40     = 102,
  66:lvgl/src/lv_widgets/../lv_core/../lv_misc/lv_color.h ****     LV_OPA_50     = 127,
  67:lvgl/src/lv_widgets/../lv_core/../lv_misc/lv_color.h ****     LV_OPA_60     = 153,
  68:lvgl/src/lv_widgets/../lv_core/../lv_misc/lv_color.h ****     LV_OPA_70     = 178,
  69:lvgl/src/lv_widgets/../lv_core/../lv_misc/lv_color.h ****     LV_OPA_80     = 204,
  70:lvgl/src/lv_widgets/../lv_core/../lv_misc/lv_color.h ****     LV_OPA_90     = 229,
  71:lvgl/src/lv_widgets/../lv_core/../lv_misc/lv_color.h ****     LV_OPA_100    = 255,
  72:lvgl/src/lv_widgets/../lv_core/../lv_misc/lv_color.h ****     LV_OPA_COVER  = 255,
  73:lvgl/src/lv_widgets/../lv_core/../lv_misc/lv_color.h **** };
  74:lvgl/src/lv_widgets/../lv_core/../lv_misc/lv_color.h **** 
  75:lvgl/src/lv_widgets/../lv_core/../lv_misc/lv_color.h **** #define LV_OPA_MIN 2    /*Opacities below this will be transparent*/
  76:lvgl/src/lv_widgets/../lv_core/../lv_misc/lv_color.h **** #define LV_OPA_MAX 253  /*Opacities above this will fully cover*/
  77:lvgl/src/lv_widgets/../lv_core/../lv_misc/lv_color.h **** 
  78:lvgl/src/lv_widgets/../lv_core/../lv_misc/lv_color.h **** #if LV_COLOR_DEPTH == 1
  79:lvgl/src/lv_widgets/../lv_core/../lv_misc/lv_color.h **** #define LV_COLOR_SIZE 8
  80:lvgl/src/lv_widgets/../lv_core/../lv_misc/lv_color.h **** #elif LV_COLOR_DEPTH == 8
  81:lvgl/src/lv_widgets/../lv_core/../lv_misc/lv_color.h **** #define LV_COLOR_SIZE 8
  82:lvgl/src/lv_widgets/../lv_core/../lv_misc/lv_color.h **** #elif LV_COLOR_DEPTH == 16
  83:lvgl/src/lv_widgets/../lv_core/../lv_misc/lv_color.h **** #define LV_COLOR_SIZE 16
  84:lvgl/src/lv_widgets/../lv_core/../lv_misc/lv_color.h **** #elif LV_COLOR_DEPTH == 32
  85:lvgl/src/lv_widgets/../lv_core/../lv_misc/lv_color.h **** #define LV_COLOR_SIZE 32
  86:lvgl/src/lv_widgets/../lv_core/../lv_misc/lv_color.h **** #else
  87:lvgl/src/lv_widgets/../lv_core/../lv_misc/lv_color.h **** #error "Invalid LV_COLOR_DEPTH in lv_conf.h! Set it to 1, 8, 16 or 32!"
  88:lvgl/src/lv_widgets/../lv_core/../lv_misc/lv_color.h **** #endif
  89:lvgl/src/lv_widgets/../lv_core/../lv_misc/lv_color.h **** 
  90:lvgl/src/lv_widgets/../lv_core/../lv_misc/lv_color.h **** /* Adjust color mix functions rounding.
  91:lvgl/src/lv_widgets/../lv_core/../lv_misc/lv_color.h ****  * GPUs might calculate color mix (blending) differently.
  92:lvgl/src/lv_widgets/../lv_core/../lv_misc/lv_color.h ****  * Should be in range of 0..254
  93:lvgl/src/lv_widgets/../lv_core/../lv_misc/lv_color.h ****  * 0: no adjustment, get the integer part of the result (round down)
  94:lvgl/src/lv_widgets/../lv_core/../lv_misc/lv_color.h ****  * 64: round up from x.75
  95:lvgl/src/lv_widgets/../lv_core/../lv_misc/lv_color.h ****  * 128: round up from half
  96:lvgl/src/lv_widgets/../lv_core/../lv_misc/lv_color.h ****  * 192: round up from x.25
  97:lvgl/src/lv_widgets/../lv_core/../lv_misc/lv_color.h ****  * 254: round up */
  98:lvgl/src/lv_widgets/../lv_core/../lv_misc/lv_color.h **** #ifndef LV_COLOR_MIX_ROUND_OFS
  99:lvgl/src/lv_widgets/../lv_core/../lv_misc/lv_color.h **** #if LV_COLOR_DEPTH == 32
 100:lvgl/src/lv_widgets/../lv_core/../lv_misc/lv_color.h **** #define LV_COLOR_MIX_ROUND_OFS 0
 101:lvgl/src/lv_widgets/../lv_core/../lv_misc/lv_color.h **** #else
 102:lvgl/src/lv_widgets/../lv_core/../lv_misc/lv_color.h **** #define LV_COLOR_MIX_ROUND_OFS 128
 103:lvgl/src/lv_widgets/../lv_core/../lv_misc/lv_color.h **** #endif
 104:lvgl/src/lv_widgets/../lv_core/../lv_misc/lv_color.h **** #endif
 105:lvgl/src/lv_widgets/../lv_core/../lv_misc/lv_color.h **** 
 106:lvgl/src/lv_widgets/../lv_core/../lv_misc/lv_color.h **** /*---------------------------------------
 107:lvgl/src/lv_widgets/../lv_core/../lv_misc/lv_color.h ****  * Macros for all existing color depths
 108:lvgl/src/lv_widgets/../lv_core/../lv_misc/lv_color.h ****  * to set/get values of the color channels
 109:lvgl/src/lv_widgets/../lv_core/../lv_misc/lv_color.h ****  *------------------------------------------*/
 110:lvgl/src/lv_widgets/../lv_core/../lv_misc/lv_color.h **** # define LV_COLOR_SET_R1(c, v) (c).ch.red = (uint8_t)((v) & 0x1)
 111:lvgl/src/lv_widgets/../lv_core/../lv_misc/lv_color.h **** # define LV_COLOR_SET_G1(c, v) (c).ch.green = (uint8_t)((v) & 0x1)
 112:lvgl/src/lv_widgets/../lv_core/../lv_misc/lv_color.h **** # define LV_COLOR_SET_B1(c, v) (c).ch.blue = (uint8_t)((v) & 0x1)
 113:lvgl/src/lv_widgets/../lv_core/../lv_misc/lv_color.h **** # define LV_COLOR_SET_A1(c, v) do {} while(0)
 114:lvgl/src/lv_widgets/../lv_core/../lv_misc/lv_color.h **** 
 115:lvgl/src/lv_widgets/../lv_core/../lv_misc/lv_color.h **** # define LV_COLOR_GET_R1(c) (c).ch.red
 116:lvgl/src/lv_widgets/../lv_core/../lv_misc/lv_color.h **** # define LV_COLOR_GET_G1(c) (c).ch.green
 117:lvgl/src/lv_widgets/../lv_core/../lv_misc/lv_color.h **** # define LV_COLOR_GET_B1(c) (c).ch.blue
ARM GAS  D:\Temp\cc0vPyDE.s 			page 28


 118:lvgl/src/lv_widgets/../lv_core/../lv_misc/lv_color.h **** # define LV_COLOR_GET_A1(c) 0xFF
 119:lvgl/src/lv_widgets/../lv_core/../lv_misc/lv_color.h **** 
 120:lvgl/src/lv_widgets/../lv_core/../lv_misc/lv_color.h **** # define LV_COLOR_SET_R8(c, v) (c).ch.red = (uint8_t)((v) & 0x7U)
 121:lvgl/src/lv_widgets/../lv_core/../lv_misc/lv_color.h **** # define LV_COLOR_SET_G8(c, v) (c).ch.green = (uint8_t)((v) & 0x7U)
 122:lvgl/src/lv_widgets/../lv_core/../lv_misc/lv_color.h **** # define LV_COLOR_SET_B8(c, v) (c).ch.blue = (uint8_t)((v) & 0x3U)
 123:lvgl/src/lv_widgets/../lv_core/../lv_misc/lv_color.h **** # define LV_COLOR_SET_A8(c, v) do {} while(0)
 124:lvgl/src/lv_widgets/../lv_core/../lv_misc/lv_color.h **** 
 125:lvgl/src/lv_widgets/../lv_core/../lv_misc/lv_color.h **** # define LV_COLOR_GET_R8(c) (c).ch.red
 126:lvgl/src/lv_widgets/../lv_core/../lv_misc/lv_color.h **** # define LV_COLOR_GET_G8(c) (c).ch.green
 127:lvgl/src/lv_widgets/../lv_core/../lv_misc/lv_color.h **** # define LV_COLOR_GET_B8(c) (c).ch.blue
 128:lvgl/src/lv_widgets/../lv_core/../lv_misc/lv_color.h **** # define LV_COLOR_GET_A8(c) 0xFF
 129:lvgl/src/lv_widgets/../lv_core/../lv_misc/lv_color.h **** 
 130:lvgl/src/lv_widgets/../lv_core/../lv_misc/lv_color.h **** # define LV_COLOR_SET_R16(c, v) (c).ch.red = (uint8_t)((v) & 0x1FU)
 131:lvgl/src/lv_widgets/../lv_core/../lv_misc/lv_color.h **** #if LV_COLOR_16_SWAP == 0
 132:lvgl/src/lv_widgets/../lv_core/../lv_misc/lv_color.h **** # define LV_COLOR_SET_G16(c, v) (c).ch.green = (uint8_t)((v) & 0x3FU)
 133:lvgl/src/lv_widgets/../lv_core/../lv_misc/lv_color.h **** #else
 134:lvgl/src/lv_widgets/../lv_core/../lv_misc/lv_color.h **** # define LV_COLOR_SET_G16(c, v) {(c).ch.green_h = (uint8_t)(((v) >> 3) & 0x7); (c).ch.green_l = (ui
 135:lvgl/src/lv_widgets/../lv_core/../lv_misc/lv_color.h **** #endif
 136:lvgl/src/lv_widgets/../lv_core/../lv_misc/lv_color.h **** # define LV_COLOR_SET_B16(c, v) (c).ch.blue = (uint8_t)((v) & 0x1FU)
 137:lvgl/src/lv_widgets/../lv_core/../lv_misc/lv_color.h **** # define LV_COLOR_SET_A16(c, v) do {} while(0)
 138:lvgl/src/lv_widgets/../lv_core/../lv_misc/lv_color.h **** 
 139:lvgl/src/lv_widgets/../lv_core/../lv_misc/lv_color.h **** # define LV_COLOR_GET_R16(c) (c).ch.red
 140:lvgl/src/lv_widgets/../lv_core/../lv_misc/lv_color.h **** #if LV_COLOR_16_SWAP == 0
 141:lvgl/src/lv_widgets/../lv_core/../lv_misc/lv_color.h **** # define LV_COLOR_GET_G16(c) (c).ch.green
 142:lvgl/src/lv_widgets/../lv_core/../lv_misc/lv_color.h **** #else
 143:lvgl/src/lv_widgets/../lv_core/../lv_misc/lv_color.h **** # define LV_COLOR_GET_G16(c) (((c).ch.green_h << 3) + (c).ch.green_l)
 144:lvgl/src/lv_widgets/../lv_core/../lv_misc/lv_color.h **** #endif
 145:lvgl/src/lv_widgets/../lv_core/../lv_misc/lv_color.h **** # define LV_COLOR_GET_B16(c) (c).ch.blue
 146:lvgl/src/lv_widgets/../lv_core/../lv_misc/lv_color.h **** # define LV_COLOR_GET_A16(c) 0xFF
 147:lvgl/src/lv_widgets/../lv_core/../lv_misc/lv_color.h **** 
 148:lvgl/src/lv_widgets/../lv_core/../lv_misc/lv_color.h **** # define LV_COLOR_SET_R32(c, v) (c).ch.red = (uint8_t)((v) & 0xFF)
 149:lvgl/src/lv_widgets/../lv_core/../lv_misc/lv_color.h **** # define LV_COLOR_SET_G32(c, v) (c).ch.green = (uint8_t)((v) & 0xFF)
 150:lvgl/src/lv_widgets/../lv_core/../lv_misc/lv_color.h **** # define LV_COLOR_SET_B32(c, v) (c).ch.blue = (uint8_t)((v) & 0xFF)
 151:lvgl/src/lv_widgets/../lv_core/../lv_misc/lv_color.h **** # define LV_COLOR_SET_A32(c, v) (c).ch.alpha = (uint8_t)((v) & 0xFF)
 152:lvgl/src/lv_widgets/../lv_core/../lv_misc/lv_color.h **** 
 153:lvgl/src/lv_widgets/../lv_core/../lv_misc/lv_color.h **** # define LV_COLOR_GET_R32(c) (c).ch.red
 154:lvgl/src/lv_widgets/../lv_core/../lv_misc/lv_color.h **** # define LV_COLOR_GET_G32(c) (c).ch.green
 155:lvgl/src/lv_widgets/../lv_core/../lv_misc/lv_color.h **** # define LV_COLOR_GET_B32(c) (c).ch.blue
 156:lvgl/src/lv_widgets/../lv_core/../lv_misc/lv_color.h **** # define LV_COLOR_GET_A32(c) (c).ch.alpha
 157:lvgl/src/lv_widgets/../lv_core/../lv_misc/lv_color.h **** 
 158:lvgl/src/lv_widgets/../lv_core/../lv_misc/lv_color.h **** /*---------------------------------------
 159:lvgl/src/lv_widgets/../lv_core/../lv_misc/lv_color.h ****  * Macros for the current color depth
 160:lvgl/src/lv_widgets/../lv_core/../lv_misc/lv_color.h ****  * to set/get values of the color channels
 161:lvgl/src/lv_widgets/../lv_core/../lv_misc/lv_color.h ****  *------------------------------------------*/
 162:lvgl/src/lv_widgets/../lv_core/../lv_misc/lv_color.h **** #if LV_COLOR_DEPTH == 1
 163:lvgl/src/lv_widgets/../lv_core/../lv_misc/lv_color.h **** # define LV_COLOR_SET_R(c, v) LV_COLOR_SET_R1(c,v)
 164:lvgl/src/lv_widgets/../lv_core/../lv_misc/lv_color.h **** # define LV_COLOR_SET_G(c, v) LV_COLOR_SET_G1(c,v)
 165:lvgl/src/lv_widgets/../lv_core/../lv_misc/lv_color.h **** # define LV_COLOR_SET_B(c, v) LV_COLOR_SET_B1(c,v)
 166:lvgl/src/lv_widgets/../lv_core/../lv_misc/lv_color.h **** # define LV_COLOR_SET_A(c, v) LV_COLOR_SET_A1(c,v)
 167:lvgl/src/lv_widgets/../lv_core/../lv_misc/lv_color.h **** 
 168:lvgl/src/lv_widgets/../lv_core/../lv_misc/lv_color.h **** # define LV_COLOR_GET_R(c) LV_COLOR_GET_R1(c)
 169:lvgl/src/lv_widgets/../lv_core/../lv_misc/lv_color.h **** # define LV_COLOR_GET_G(c) LV_COLOR_GET_G1(c)
 170:lvgl/src/lv_widgets/../lv_core/../lv_misc/lv_color.h **** # define LV_COLOR_GET_B(c) LV_COLOR_GET_B1(c)
 171:lvgl/src/lv_widgets/../lv_core/../lv_misc/lv_color.h **** # define LV_COLOR_GET_A(c) LV_COLOR_GET_A1(c)
 172:lvgl/src/lv_widgets/../lv_core/../lv_misc/lv_color.h **** 
 173:lvgl/src/lv_widgets/../lv_core/../lv_misc/lv_color.h **** #elif LV_COLOR_DEPTH == 8
 174:lvgl/src/lv_widgets/../lv_core/../lv_misc/lv_color.h **** # define LV_COLOR_SET_R(c, v) LV_COLOR_SET_R8(c,v)
ARM GAS  D:\Temp\cc0vPyDE.s 			page 29


 175:lvgl/src/lv_widgets/../lv_core/../lv_misc/lv_color.h **** # define LV_COLOR_SET_G(c, v) LV_COLOR_SET_G8(c,v)
 176:lvgl/src/lv_widgets/../lv_core/../lv_misc/lv_color.h **** # define LV_COLOR_SET_B(c, v) LV_COLOR_SET_B8(c,v)
 177:lvgl/src/lv_widgets/../lv_core/../lv_misc/lv_color.h **** # define LV_COLOR_SET_A(c, v) LV_COLOR_SET_A8(c,v)
 178:lvgl/src/lv_widgets/../lv_core/../lv_misc/lv_color.h **** 
 179:lvgl/src/lv_widgets/../lv_core/../lv_misc/lv_color.h **** # define LV_COLOR_GET_R(c) LV_COLOR_GET_R8(c)
 180:lvgl/src/lv_widgets/../lv_core/../lv_misc/lv_color.h **** # define LV_COLOR_GET_G(c) LV_COLOR_GET_G8(c)
 181:lvgl/src/lv_widgets/../lv_core/../lv_misc/lv_color.h **** # define LV_COLOR_GET_B(c) LV_COLOR_GET_B8(c)
 182:lvgl/src/lv_widgets/../lv_core/../lv_misc/lv_color.h **** # define LV_COLOR_GET_A(c) LV_COLOR_GET_A8(c)
 183:lvgl/src/lv_widgets/../lv_core/../lv_misc/lv_color.h **** 
 184:lvgl/src/lv_widgets/../lv_core/../lv_misc/lv_color.h **** #elif LV_COLOR_DEPTH == 16
 185:lvgl/src/lv_widgets/../lv_core/../lv_misc/lv_color.h **** # define LV_COLOR_SET_R(c, v) LV_COLOR_SET_R16(c,v)
 186:lvgl/src/lv_widgets/../lv_core/../lv_misc/lv_color.h **** # define LV_COLOR_SET_G(c, v) LV_COLOR_SET_G16(c,v)
 187:lvgl/src/lv_widgets/../lv_core/../lv_misc/lv_color.h **** # define LV_COLOR_SET_B(c, v) LV_COLOR_SET_B16(c,v)
 188:lvgl/src/lv_widgets/../lv_core/../lv_misc/lv_color.h **** # define LV_COLOR_SET_A(c, v) LV_COLOR_SET_A16(c,v)
 189:lvgl/src/lv_widgets/../lv_core/../lv_misc/lv_color.h **** 
 190:lvgl/src/lv_widgets/../lv_core/../lv_misc/lv_color.h **** # define LV_COLOR_GET_R(c) LV_COLOR_GET_R16(c)
 191:lvgl/src/lv_widgets/../lv_core/../lv_misc/lv_color.h **** # define LV_COLOR_GET_G(c) LV_COLOR_GET_G16(c)
 192:lvgl/src/lv_widgets/../lv_core/../lv_misc/lv_color.h **** # define LV_COLOR_GET_B(c) LV_COLOR_GET_B16(c)
 193:lvgl/src/lv_widgets/../lv_core/../lv_misc/lv_color.h **** # define LV_COLOR_GET_A(c) LV_COLOR_GET_A16(c)
 194:lvgl/src/lv_widgets/../lv_core/../lv_misc/lv_color.h **** 
 195:lvgl/src/lv_widgets/../lv_core/../lv_misc/lv_color.h **** #elif LV_COLOR_DEPTH == 32
 196:lvgl/src/lv_widgets/../lv_core/../lv_misc/lv_color.h **** # define LV_COLOR_SET_R(c, v) LV_COLOR_SET_R32(c,v)
 197:lvgl/src/lv_widgets/../lv_core/../lv_misc/lv_color.h **** # define LV_COLOR_SET_G(c, v) LV_COLOR_SET_G32(c,v)
 198:lvgl/src/lv_widgets/../lv_core/../lv_misc/lv_color.h **** # define LV_COLOR_SET_B(c, v) LV_COLOR_SET_B32(c,v)
 199:lvgl/src/lv_widgets/../lv_core/../lv_misc/lv_color.h **** # define LV_COLOR_SET_A(c, v) LV_COLOR_SET_A32(c,v)
 200:lvgl/src/lv_widgets/../lv_core/../lv_misc/lv_color.h **** 
 201:lvgl/src/lv_widgets/../lv_core/../lv_misc/lv_color.h **** # define LV_COLOR_GET_R(c) LV_COLOR_GET_R32(c)
 202:lvgl/src/lv_widgets/../lv_core/../lv_misc/lv_color.h **** # define LV_COLOR_GET_G(c) LV_COLOR_GET_G32(c)
 203:lvgl/src/lv_widgets/../lv_core/../lv_misc/lv_color.h **** # define LV_COLOR_GET_B(c) LV_COLOR_GET_B32(c)
 204:lvgl/src/lv_widgets/../lv_core/../lv_misc/lv_color.h **** # define LV_COLOR_GET_A(c) LV_COLOR_GET_A32(c)
 205:lvgl/src/lv_widgets/../lv_core/../lv_misc/lv_color.h **** #endif
 206:lvgl/src/lv_widgets/../lv_core/../lv_misc/lv_color.h **** 
 207:lvgl/src/lv_widgets/../lv_core/../lv_misc/lv_color.h **** /**********************
 208:lvgl/src/lv_widgets/../lv_core/../lv_misc/lv_color.h ****  *      TYPEDEFS
 209:lvgl/src/lv_widgets/../lv_core/../lv_misc/lv_color.h ****  **********************/
 210:lvgl/src/lv_widgets/../lv_core/../lv_misc/lv_color.h **** 
 211:lvgl/src/lv_widgets/../lv_core/../lv_misc/lv_color.h **** typedef union {
 212:lvgl/src/lv_widgets/../lv_core/../lv_misc/lv_color.h ****     uint8_t full; /*must be declared first to set all bits of byte via initializer list */
 213:lvgl/src/lv_widgets/../lv_core/../lv_misc/lv_color.h ****     union {
 214:lvgl/src/lv_widgets/../lv_core/../lv_misc/lv_color.h ****         uint8_t blue : 1;
 215:lvgl/src/lv_widgets/../lv_core/../lv_misc/lv_color.h ****         uint8_t green : 1;
 216:lvgl/src/lv_widgets/../lv_core/../lv_misc/lv_color.h ****         uint8_t red : 1;
 217:lvgl/src/lv_widgets/../lv_core/../lv_misc/lv_color.h ****     } ch;
 218:lvgl/src/lv_widgets/../lv_core/../lv_misc/lv_color.h **** } lv_color1_t;
 219:lvgl/src/lv_widgets/../lv_core/../lv_misc/lv_color.h **** 
 220:lvgl/src/lv_widgets/../lv_core/../lv_misc/lv_color.h **** typedef union {
 221:lvgl/src/lv_widgets/../lv_core/../lv_misc/lv_color.h ****     struct {
 222:lvgl/src/lv_widgets/../lv_core/../lv_misc/lv_color.h ****         uint8_t blue : 2;
 223:lvgl/src/lv_widgets/../lv_core/../lv_misc/lv_color.h ****         uint8_t green : 3;
 224:lvgl/src/lv_widgets/../lv_core/../lv_misc/lv_color.h ****         uint8_t red : 3;
 225:lvgl/src/lv_widgets/../lv_core/../lv_misc/lv_color.h ****     } ch;
 226:lvgl/src/lv_widgets/../lv_core/../lv_misc/lv_color.h ****     uint8_t full;
 227:lvgl/src/lv_widgets/../lv_core/../lv_misc/lv_color.h **** } lv_color8_t;
 228:lvgl/src/lv_widgets/../lv_core/../lv_misc/lv_color.h **** 
 229:lvgl/src/lv_widgets/../lv_core/../lv_misc/lv_color.h **** typedef union {
 230:lvgl/src/lv_widgets/../lv_core/../lv_misc/lv_color.h ****     struct {
 231:lvgl/src/lv_widgets/../lv_core/../lv_misc/lv_color.h **** #if LV_COLOR_16_SWAP == 0
ARM GAS  D:\Temp\cc0vPyDE.s 			page 30


 232:lvgl/src/lv_widgets/../lv_core/../lv_misc/lv_color.h ****         uint16_t blue : 5;
 233:lvgl/src/lv_widgets/../lv_core/../lv_misc/lv_color.h ****         uint16_t green : 6;
 234:lvgl/src/lv_widgets/../lv_core/../lv_misc/lv_color.h ****         uint16_t red : 5;
 235:lvgl/src/lv_widgets/../lv_core/../lv_misc/lv_color.h **** #else
 236:lvgl/src/lv_widgets/../lv_core/../lv_misc/lv_color.h ****         uint16_t green_h : 3;
 237:lvgl/src/lv_widgets/../lv_core/../lv_misc/lv_color.h ****         uint16_t red : 5;
 238:lvgl/src/lv_widgets/../lv_core/../lv_misc/lv_color.h ****         uint16_t blue : 5;
 239:lvgl/src/lv_widgets/../lv_core/../lv_misc/lv_color.h ****         uint16_t green_l : 3;
 240:lvgl/src/lv_widgets/../lv_core/../lv_misc/lv_color.h **** #endif
 241:lvgl/src/lv_widgets/../lv_core/../lv_misc/lv_color.h ****     } ch;
 242:lvgl/src/lv_widgets/../lv_core/../lv_misc/lv_color.h ****     uint16_t full;
 243:lvgl/src/lv_widgets/../lv_core/../lv_misc/lv_color.h **** } lv_color16_t;
 244:lvgl/src/lv_widgets/../lv_core/../lv_misc/lv_color.h **** 
 245:lvgl/src/lv_widgets/../lv_core/../lv_misc/lv_color.h **** typedef union {
 246:lvgl/src/lv_widgets/../lv_core/../lv_misc/lv_color.h ****     struct {
 247:lvgl/src/lv_widgets/../lv_core/../lv_misc/lv_color.h ****         uint8_t blue;
 248:lvgl/src/lv_widgets/../lv_core/../lv_misc/lv_color.h ****         uint8_t green;
 249:lvgl/src/lv_widgets/../lv_core/../lv_misc/lv_color.h ****         uint8_t red;
 250:lvgl/src/lv_widgets/../lv_core/../lv_misc/lv_color.h ****         uint8_t alpha;
 251:lvgl/src/lv_widgets/../lv_core/../lv_misc/lv_color.h ****     } ch;
 252:lvgl/src/lv_widgets/../lv_core/../lv_misc/lv_color.h ****     uint32_t full;
 253:lvgl/src/lv_widgets/../lv_core/../lv_misc/lv_color.h **** } lv_color32_t;
 254:lvgl/src/lv_widgets/../lv_core/../lv_misc/lv_color.h **** 
 255:lvgl/src/lv_widgets/../lv_core/../lv_misc/lv_color.h **** #if LV_COLOR_DEPTH == 1
 256:lvgl/src/lv_widgets/../lv_core/../lv_misc/lv_color.h **** typedef uint8_t lv_color_int_t;
 257:lvgl/src/lv_widgets/../lv_core/../lv_misc/lv_color.h **** typedef lv_color1_t lv_color_t;
 258:lvgl/src/lv_widgets/../lv_core/../lv_misc/lv_color.h **** #define _LV_COLOR_ZERO_INITIALIZER {0x00}
 259:lvgl/src/lv_widgets/../lv_core/../lv_misc/lv_color.h **** #elif LV_COLOR_DEPTH == 8
 260:lvgl/src/lv_widgets/../lv_core/../lv_misc/lv_color.h **** typedef uint8_t lv_color_int_t;
 261:lvgl/src/lv_widgets/../lv_core/../lv_misc/lv_color.h **** typedef lv_color8_t lv_color_t;
 262:lvgl/src/lv_widgets/../lv_core/../lv_misc/lv_color.h **** #define _LV_COLOR_ZERO_INITIALIZER {{0x00, 0x00, 0x00}}
 263:lvgl/src/lv_widgets/../lv_core/../lv_misc/lv_color.h **** #elif LV_COLOR_DEPTH == 16
 264:lvgl/src/lv_widgets/../lv_core/../lv_misc/lv_color.h **** typedef uint16_t lv_color_int_t;
 265:lvgl/src/lv_widgets/../lv_core/../lv_misc/lv_color.h **** typedef lv_color16_t lv_color_t;
 266:lvgl/src/lv_widgets/../lv_core/../lv_misc/lv_color.h **** # if LV_COLOR_16_SWAP == 0
 267:lvgl/src/lv_widgets/../lv_core/../lv_misc/lv_color.h **** #  define _LV_COLOR_ZERO_INITIALIZER {{0x00, 0x00, 0x00}}
 268:lvgl/src/lv_widgets/../lv_core/../lv_misc/lv_color.h **** # else
 269:lvgl/src/lv_widgets/../lv_core/../lv_misc/lv_color.h **** #  define _LV_COLOR_ZERO_INITIALIZER {{0x00, 0x00, 0x00, 0x00}}
 270:lvgl/src/lv_widgets/../lv_core/../lv_misc/lv_color.h **** # endif
 271:lvgl/src/lv_widgets/../lv_core/../lv_misc/lv_color.h **** #elif LV_COLOR_DEPTH == 32
 272:lvgl/src/lv_widgets/../lv_core/../lv_misc/lv_color.h **** typedef uint32_t lv_color_int_t;
 273:lvgl/src/lv_widgets/../lv_core/../lv_misc/lv_color.h **** typedef lv_color32_t lv_color_t;
 274:lvgl/src/lv_widgets/../lv_core/../lv_misc/lv_color.h **** #define _LV_COLOR_ZERO_INITIALIZER {{0x00, 0x00, 0x00, 0x00}}
 275:lvgl/src/lv_widgets/../lv_core/../lv_misc/lv_color.h **** #else
 276:lvgl/src/lv_widgets/../lv_core/../lv_misc/lv_color.h **** #error "Invalid LV_COLOR_DEPTH in lv_conf.h! Set it to 1, 8, 16 or 32!"
 277:lvgl/src/lv_widgets/../lv_core/../lv_misc/lv_color.h **** #endif
 278:lvgl/src/lv_widgets/../lv_core/../lv_misc/lv_color.h **** 
 279:lvgl/src/lv_widgets/../lv_core/../lv_misc/lv_color.h **** typedef struct {
 280:lvgl/src/lv_widgets/../lv_core/../lv_misc/lv_color.h ****     uint16_t h;
 281:lvgl/src/lv_widgets/../lv_core/../lv_misc/lv_color.h ****     uint8_t s;
 282:lvgl/src/lv_widgets/../lv_core/../lv_misc/lv_color.h ****     uint8_t v;
 283:lvgl/src/lv_widgets/../lv_core/../lv_misc/lv_color.h **** } lv_color_hsv_t;
 284:lvgl/src/lv_widgets/../lv_core/../lv_misc/lv_color.h **** 
 285:lvgl/src/lv_widgets/../lv_core/../lv_misc/lv_color.h **** //! @cond Doxygen_Suppress
 286:lvgl/src/lv_widgets/../lv_core/../lv_misc/lv_color.h **** /*No idea where the guard is required but else throws warnings in the docs*/
 287:lvgl/src/lv_widgets/../lv_core/../lv_misc/lv_color.h **** typedef uint8_t lv_opa_t;
 288:lvgl/src/lv_widgets/../lv_core/../lv_misc/lv_color.h **** //! @endcond
ARM GAS  D:\Temp\cc0vPyDE.s 			page 31


 289:lvgl/src/lv_widgets/../lv_core/../lv_misc/lv_color.h **** 
 290:lvgl/src/lv_widgets/../lv_core/../lv_misc/lv_color.h **** /**********************
 291:lvgl/src/lv_widgets/../lv_core/../lv_misc/lv_color.h ****  * GLOBAL PROTOTYPES
 292:lvgl/src/lv_widgets/../lv_core/../lv_misc/lv_color.h ****  **********************/
 293:lvgl/src/lv_widgets/../lv_core/../lv_misc/lv_color.h **** 
 294:lvgl/src/lv_widgets/../lv_core/../lv_misc/lv_color.h **** /*In color conversations:
 295:lvgl/src/lv_widgets/../lv_core/../lv_misc/lv_color.h ****  * - When converting to bigger color type the LSB weight of 1 LSB is calculated
 296:lvgl/src/lv_widgets/../lv_core/../lv_misc/lv_color.h ****  *   E.g. 16 bit Red has 5 bits
 297:lvgl/src/lv_widgets/../lv_core/../lv_misc/lv_color.h ****  *         8 bit Red has 3 bits
 298:lvgl/src/lv_widgets/../lv_core/../lv_misc/lv_color.h ****  *        ----------------------
 299:lvgl/src/lv_widgets/../lv_core/../lv_misc/lv_color.h ****  *        8 bit red LSB = (2^5 - 1) / (2^3 - 1) = 31 / 7 = 4
 300:lvgl/src/lv_widgets/../lv_core/../lv_misc/lv_color.h ****  *
 301:lvgl/src/lv_widgets/../lv_core/../lv_misc/lv_color.h ****  * - When calculating to smaller color type simply shift out the LSBs
 302:lvgl/src/lv_widgets/../lv_core/../lv_misc/lv_color.h ****  *   E.g.  8 bit Red has 3 bits
 303:lvgl/src/lv_widgets/../lv_core/../lv_misc/lv_color.h ****  *        16 bit Red has 5 bits
 304:lvgl/src/lv_widgets/../lv_core/../lv_misc/lv_color.h ****  *        ----------------------
 305:lvgl/src/lv_widgets/../lv_core/../lv_misc/lv_color.h ****  *         Shift right with 5 - 3 = 2
 306:lvgl/src/lv_widgets/../lv_core/../lv_misc/lv_color.h ****  */
 307:lvgl/src/lv_widgets/../lv_core/../lv_misc/lv_color.h **** static inline uint8_t lv_color_to1(lv_color_t color)
 308:lvgl/src/lv_widgets/../lv_core/../lv_misc/lv_color.h **** {
 309:lvgl/src/lv_widgets/../lv_core/../lv_misc/lv_color.h **** #if LV_COLOR_DEPTH == 1
 310:lvgl/src/lv_widgets/../lv_core/../lv_misc/lv_color.h ****     return color.full;
 311:lvgl/src/lv_widgets/../lv_core/../lv_misc/lv_color.h **** #elif LV_COLOR_DEPTH == 8
 312:lvgl/src/lv_widgets/../lv_core/../lv_misc/lv_color.h ****     if((LV_COLOR_GET_R(color) & 0x4) || (LV_COLOR_GET_G(color) & 0x4) || (LV_COLOR_GET_B(color) & 0
 313:lvgl/src/lv_widgets/../lv_core/../lv_misc/lv_color.h ****         return 1;
 314:lvgl/src/lv_widgets/../lv_core/../lv_misc/lv_color.h ****     }
 315:lvgl/src/lv_widgets/../lv_core/../lv_misc/lv_color.h ****     else {
 316:lvgl/src/lv_widgets/../lv_core/../lv_misc/lv_color.h ****         return 0;
 317:lvgl/src/lv_widgets/../lv_core/../lv_misc/lv_color.h ****     }
 318:lvgl/src/lv_widgets/../lv_core/../lv_misc/lv_color.h **** #elif LV_COLOR_DEPTH == 16
 319:lvgl/src/lv_widgets/../lv_core/../lv_misc/lv_color.h ****     if((LV_COLOR_GET_R(color) & 0x10) || (LV_COLOR_GET_G(color) & 0x20) || (LV_COLOR_GET_B(color) &
 320:lvgl/src/lv_widgets/../lv_core/../lv_misc/lv_color.h ****         return 1;
 321:lvgl/src/lv_widgets/../lv_core/../lv_misc/lv_color.h ****     }
 322:lvgl/src/lv_widgets/../lv_core/../lv_misc/lv_color.h ****     else {
 323:lvgl/src/lv_widgets/../lv_core/../lv_misc/lv_color.h ****         return 0;
 324:lvgl/src/lv_widgets/../lv_core/../lv_misc/lv_color.h ****     }
 325:lvgl/src/lv_widgets/../lv_core/../lv_misc/lv_color.h **** #elif LV_COLOR_DEPTH == 32
 326:lvgl/src/lv_widgets/../lv_core/../lv_misc/lv_color.h ****     if((LV_COLOR_GET_R(color) & 0x80) || (LV_COLOR_GET_G(color) & 0x80) || (LV_COLOR_GET_B(color) &
 327:lvgl/src/lv_widgets/../lv_core/../lv_misc/lv_color.h ****         return 1;
 328:lvgl/src/lv_widgets/../lv_core/../lv_misc/lv_color.h ****     }
 329:lvgl/src/lv_widgets/../lv_core/../lv_misc/lv_color.h ****     else {
 330:lvgl/src/lv_widgets/../lv_core/../lv_misc/lv_color.h ****         return 0;
 331:lvgl/src/lv_widgets/../lv_core/../lv_misc/lv_color.h ****     }
 332:lvgl/src/lv_widgets/../lv_core/../lv_misc/lv_color.h **** #endif
 333:lvgl/src/lv_widgets/../lv_core/../lv_misc/lv_color.h **** }
 334:lvgl/src/lv_widgets/../lv_core/../lv_misc/lv_color.h **** 
 335:lvgl/src/lv_widgets/../lv_core/../lv_misc/lv_color.h **** static inline uint8_t lv_color_to8(lv_color_t color)
 336:lvgl/src/lv_widgets/../lv_core/../lv_misc/lv_color.h **** {
 337:lvgl/src/lv_widgets/../lv_core/../lv_misc/lv_color.h **** #if LV_COLOR_DEPTH == 1
 338:lvgl/src/lv_widgets/../lv_core/../lv_misc/lv_color.h ****     if(color.full == 0)
 339:lvgl/src/lv_widgets/../lv_core/../lv_misc/lv_color.h ****         return 0;
 340:lvgl/src/lv_widgets/../lv_core/../lv_misc/lv_color.h ****     else
 341:lvgl/src/lv_widgets/../lv_core/../lv_misc/lv_color.h ****         return 0xFF;
 342:lvgl/src/lv_widgets/../lv_core/../lv_misc/lv_color.h **** #elif LV_COLOR_DEPTH == 8
 343:lvgl/src/lv_widgets/../lv_core/../lv_misc/lv_color.h ****     return color.full;
 344:lvgl/src/lv_widgets/../lv_core/../lv_misc/lv_color.h **** #elif LV_COLOR_DEPTH == 16
 345:lvgl/src/lv_widgets/../lv_core/../lv_misc/lv_color.h ****     lv_color8_t ret;
ARM GAS  D:\Temp\cc0vPyDE.s 			page 32


 346:lvgl/src/lv_widgets/../lv_core/../lv_misc/lv_color.h ****     LV_COLOR_SET_R8(ret, LV_COLOR_GET_R(color) >> 2); /* 5 - 3  = 2*/
 347:lvgl/src/lv_widgets/../lv_core/../lv_misc/lv_color.h ****     LV_COLOR_SET_G8(ret, LV_COLOR_GET_G(color) >> 3); /* 6 - 3  = 3*/
 348:lvgl/src/lv_widgets/../lv_core/../lv_misc/lv_color.h ****     LV_COLOR_SET_B8(ret, LV_COLOR_GET_B(color) >> 3); /* 5 - 2  = 3*/
 349:lvgl/src/lv_widgets/../lv_core/../lv_misc/lv_color.h ****     return ret.full;
 350:lvgl/src/lv_widgets/../lv_core/../lv_misc/lv_color.h **** #elif LV_COLOR_DEPTH == 32
 351:lvgl/src/lv_widgets/../lv_core/../lv_misc/lv_color.h ****     lv_color8_t ret;
 352:lvgl/src/lv_widgets/../lv_core/../lv_misc/lv_color.h ****     LV_COLOR_SET_R8(ret, LV_COLOR_GET_R(color) >> 5); /* 8 - 3  = 5*/
 353:lvgl/src/lv_widgets/../lv_core/../lv_misc/lv_color.h ****     LV_COLOR_SET_G8(ret, LV_COLOR_GET_G(color) >> 5); /* 8 - 3  = 5*/
 354:lvgl/src/lv_widgets/../lv_core/../lv_misc/lv_color.h ****     LV_COLOR_SET_B8(ret, LV_COLOR_GET_B(color) >> 6); /* 8 - 2  = 6*/
 355:lvgl/src/lv_widgets/../lv_core/../lv_misc/lv_color.h ****     return ret.full;
 356:lvgl/src/lv_widgets/../lv_core/../lv_misc/lv_color.h **** #endif
 357:lvgl/src/lv_widgets/../lv_core/../lv_misc/lv_color.h **** }
 358:lvgl/src/lv_widgets/../lv_core/../lv_misc/lv_color.h **** 
 359:lvgl/src/lv_widgets/../lv_core/../lv_misc/lv_color.h **** static inline uint16_t lv_color_to16(lv_color_t color)
 360:lvgl/src/lv_widgets/../lv_core/../lv_misc/lv_color.h **** {
 361:lvgl/src/lv_widgets/../lv_core/../lv_misc/lv_color.h **** #if LV_COLOR_DEPTH == 1
 362:lvgl/src/lv_widgets/../lv_core/../lv_misc/lv_color.h ****     if(color.full == 0)
 363:lvgl/src/lv_widgets/../lv_core/../lv_misc/lv_color.h ****         return 0;
 364:lvgl/src/lv_widgets/../lv_core/../lv_misc/lv_color.h ****     else
 365:lvgl/src/lv_widgets/../lv_core/../lv_misc/lv_color.h ****         return 0xFFFF;
 366:lvgl/src/lv_widgets/../lv_core/../lv_misc/lv_color.h **** #elif LV_COLOR_DEPTH == 8
 367:lvgl/src/lv_widgets/../lv_core/../lv_misc/lv_color.h ****     lv_color16_t ret;
 368:lvgl/src/lv_widgets/../lv_core/../lv_misc/lv_color.h ****     LV_COLOR_SET_R16(ret, LV_COLOR_GET_R(color) * 4);  /*(2^5 - 1)/(2^3 - 1) = 31/7 = 4*/
 369:lvgl/src/lv_widgets/../lv_core/../lv_misc/lv_color.h ****     LV_COLOR_SET_G16(ret, LV_COLOR_GET_G(color) * 9);  /*(2^6 - 1)/(2^3 - 1) = 63/7 = 9*/
 370:lvgl/src/lv_widgets/../lv_core/../lv_misc/lv_color.h ****     LV_COLOR_SET_B16(ret, LV_COLOR_GET_B(color) * 10); /*(2^5 - 1)/(2^2 - 1) = 31/3 = 10*/
 371:lvgl/src/lv_widgets/../lv_core/../lv_misc/lv_color.h ****     return ret.full;
 372:lvgl/src/lv_widgets/../lv_core/../lv_misc/lv_color.h **** #elif LV_COLOR_DEPTH == 16
 373:lvgl/src/lv_widgets/../lv_core/../lv_misc/lv_color.h ****     return color.full;
 374:lvgl/src/lv_widgets/../lv_core/../lv_misc/lv_color.h **** #elif LV_COLOR_DEPTH == 32
 375:lvgl/src/lv_widgets/../lv_core/../lv_misc/lv_color.h ****     lv_color16_t ret;
 376:lvgl/src/lv_widgets/../lv_core/../lv_misc/lv_color.h ****     LV_COLOR_SET_R16(ret, LV_COLOR_GET_R(color) >> 3); /* 8 - 5  = 3*/
 377:lvgl/src/lv_widgets/../lv_core/../lv_misc/lv_color.h ****     LV_COLOR_SET_G16(ret, LV_COLOR_GET_G(color) >> 2); /* 8 - 6  = 2*/
 378:lvgl/src/lv_widgets/../lv_core/../lv_misc/lv_color.h ****     LV_COLOR_SET_B16(ret, LV_COLOR_GET_B(color) >> 3); /* 8 - 5  = 3*/
 379:lvgl/src/lv_widgets/../lv_core/../lv_misc/lv_color.h ****     return ret.full;
 380:lvgl/src/lv_widgets/../lv_core/../lv_misc/lv_color.h **** #endif
 381:lvgl/src/lv_widgets/../lv_core/../lv_misc/lv_color.h **** }
 382:lvgl/src/lv_widgets/../lv_core/../lv_misc/lv_color.h **** 
 383:lvgl/src/lv_widgets/../lv_core/../lv_misc/lv_color.h **** static inline uint32_t lv_color_to32(lv_color_t color)
 384:lvgl/src/lv_widgets/../lv_core/../lv_misc/lv_color.h **** {
 385:lvgl/src/lv_widgets/../lv_core/../lv_misc/lv_color.h **** #if LV_COLOR_DEPTH == 1
 386:lvgl/src/lv_widgets/../lv_core/../lv_misc/lv_color.h ****     if(color.full == 0)
 387:lvgl/src/lv_widgets/../lv_core/../lv_misc/lv_color.h ****         return 0xFF000000;
 388:lvgl/src/lv_widgets/../lv_core/../lv_misc/lv_color.h ****     else
 389:lvgl/src/lv_widgets/../lv_core/../lv_misc/lv_color.h ****         return 0xFFFFFFFF;
 390:lvgl/src/lv_widgets/../lv_core/../lv_misc/lv_color.h **** #elif LV_COLOR_DEPTH == 8
 391:lvgl/src/lv_widgets/../lv_core/../lv_misc/lv_color.h ****     lv_color32_t ret;
 392:lvgl/src/lv_widgets/../lv_core/../lv_misc/lv_color.h ****     LV_COLOR_SET_R32(ret, LV_COLOR_GET_R(color) * 36); /*(2^8 - 1)/(2^3 - 1) = 255/7 = 36*/
 393:lvgl/src/lv_widgets/../lv_core/../lv_misc/lv_color.h ****     LV_COLOR_SET_G32(ret, LV_COLOR_GET_G(color) * 36); /*(2^8 - 1)/(2^3 - 1) = 255/7 = 36*/
 394:lvgl/src/lv_widgets/../lv_core/../lv_misc/lv_color.h ****     LV_COLOR_SET_B32(ret, LV_COLOR_GET_B(color) * 85); /*(2^8 - 1)/(2^2 - 1) = 255/3 = 85*/
 395:lvgl/src/lv_widgets/../lv_core/../lv_misc/lv_color.h ****     LV_COLOR_SET_A32(ret, 0xFF);
 396:lvgl/src/lv_widgets/../lv_core/../lv_misc/lv_color.h ****     return ret.full;
 397:lvgl/src/lv_widgets/../lv_core/../lv_misc/lv_color.h **** #elif LV_COLOR_DEPTH == 16
 398:lvgl/src/lv_widgets/../lv_core/../lv_misc/lv_color.h ****     /**
 399:lvgl/src/lv_widgets/../lv_core/../lv_misc/lv_color.h ****      * The floating point math for conversion is:
 400:lvgl/src/lv_widgets/../lv_core/../lv_misc/lv_color.h ****      *  valueto = valuefrom * ( (2^bitsto - 1) / (float)(2^bitsfrom - 1) )
 401:lvgl/src/lv_widgets/../lv_core/../lv_misc/lv_color.h ****      * The faster integer math for conversion is:
 402:lvgl/src/lv_widgets/../lv_core/../lv_misc/lv_color.h ****      *  valueto = ( valuefrom * multiplier + adder ) >> divisor
ARM GAS  D:\Temp\cc0vPyDE.s 			page 33


 403:lvgl/src/lv_widgets/../lv_core/../lv_misc/lv_color.h ****      *   multiplier = FLOOR( ( (2^bitsto - 1) << divisor ) / (float)(2^bitsfrom - 1) )
 404:lvgl/src/lv_widgets/../lv_core/../lv_misc/lv_color.h ****      *
 405:lvgl/src/lv_widgets/../lv_core/../lv_misc/lv_color.h ****      * Find the first divisor where ( adder >> divisor ) <= 0
 406:lvgl/src/lv_widgets/../lv_core/../lv_misc/lv_color.h ****      *
 407:lvgl/src/lv_widgets/../lv_core/../lv_misc/lv_color.h ****      * 5-bit to 8-bit: ( 31 * multiplier + adder ) >> divisor = 255
 408:lvgl/src/lv_widgets/../lv_core/../lv_misc/lv_color.h ****      * divisor  multiplier  adder  min (0)  max (31)
 409:lvgl/src/lv_widgets/../lv_core/../lv_misc/lv_color.h ****      *       0           8      7        7       255
 410:lvgl/src/lv_widgets/../lv_core/../lv_misc/lv_color.h ****      *       1          16     14        7       255
 411:lvgl/src/lv_widgets/../lv_core/../lv_misc/lv_color.h ****      *       2          32     28        7       255
 412:lvgl/src/lv_widgets/../lv_core/../lv_misc/lv_color.h ****      *       3          65     25        3       255
 413:lvgl/src/lv_widgets/../lv_core/../lv_misc/lv_color.h ****      *       4         131     19        1       255
 414:lvgl/src/lv_widgets/../lv_core/../lv_misc/lv_color.h ****      *       5         263      7        0       255
 415:lvgl/src/lv_widgets/../lv_core/../lv_misc/lv_color.h ****      *
 416:lvgl/src/lv_widgets/../lv_core/../lv_misc/lv_color.h ****      * 6-bit to 8-bit: 255 = ( 63 * multiplier + adder ) >> divisor
 417:lvgl/src/lv_widgets/../lv_core/../lv_misc/lv_color.h ****      * divisor  multiplier  adder  min (0)  max (63)
 418:lvgl/src/lv_widgets/../lv_core/../lv_misc/lv_color.h ****      *       0           4      3        3       255
 419:lvgl/src/lv_widgets/../lv_core/../lv_misc/lv_color.h ****      *       1           8      6        3       255
 420:lvgl/src/lv_widgets/../lv_core/../lv_misc/lv_color.h ****      *       2          16     12        3       255
 421:lvgl/src/lv_widgets/../lv_core/../lv_misc/lv_color.h ****      *       3          32     24        3       255
 422:lvgl/src/lv_widgets/../lv_core/../lv_misc/lv_color.h ****      *       4          64     48        3       255
 423:lvgl/src/lv_widgets/../lv_core/../lv_misc/lv_color.h ****      *       5         129     33        1       255
 424:lvgl/src/lv_widgets/../lv_core/../lv_misc/lv_color.h ****      *       6         259      3        0       255
 425:lvgl/src/lv_widgets/../lv_core/../lv_misc/lv_color.h ****      */
 426:lvgl/src/lv_widgets/../lv_core/../lv_misc/lv_color.h **** 
 427:lvgl/src/lv_widgets/../lv_core/../lv_misc/lv_color.h ****     lv_color32_t ret;
 428:lvgl/src/lv_widgets/../lv_core/../lv_misc/lv_color.h ****     LV_COLOR_SET_R32(ret, (LV_COLOR_GET_R(color) * 263 + 7) >> 5);
 429:lvgl/src/lv_widgets/../lv_core/../lv_misc/lv_color.h ****     LV_COLOR_SET_G32(ret, (LV_COLOR_GET_G(color) * 259 + 3) >> 6);
 430:lvgl/src/lv_widgets/../lv_core/../lv_misc/lv_color.h ****     LV_COLOR_SET_B32(ret, (LV_COLOR_GET_B(color) * 263 + 7) >> 5);
 431:lvgl/src/lv_widgets/../lv_core/../lv_misc/lv_color.h ****     LV_COLOR_SET_A32(ret, 0xFF);
 432:lvgl/src/lv_widgets/../lv_core/../lv_misc/lv_color.h ****     return ret.full;
 433:lvgl/src/lv_widgets/../lv_core/../lv_misc/lv_color.h **** #elif LV_COLOR_DEPTH == 32
 434:lvgl/src/lv_widgets/../lv_core/../lv_misc/lv_color.h ****     return color.full;
 435:lvgl/src/lv_widgets/../lv_core/../lv_misc/lv_color.h **** #endif
 436:lvgl/src/lv_widgets/../lv_core/../lv_misc/lv_color.h **** }
 437:lvgl/src/lv_widgets/../lv_core/../lv_misc/lv_color.h **** 
 438:lvgl/src/lv_widgets/../lv_core/../lv_misc/lv_color.h **** //! @cond Doxygen_Suppress
 439:lvgl/src/lv_widgets/../lv_core/../lv_misc/lv_color.h **** 
 440:lvgl/src/lv_widgets/../lv_core/../lv_misc/lv_color.h **** /**
 441:lvgl/src/lv_widgets/../lv_core/../lv_misc/lv_color.h ****  * Mix two colors with a given ratio.
 442:lvgl/src/lv_widgets/../lv_core/../lv_misc/lv_color.h ****  * @param c1 the first color to mix (usually the foreground)
 443:lvgl/src/lv_widgets/../lv_core/../lv_misc/lv_color.h ****  * @param c2 the second color to mix (usually the background)
 444:lvgl/src/lv_widgets/../lv_core/../lv_misc/lv_color.h ****  * @param mix The ratio of the colors. 0: full `c2`, 255: full `c1`, 127: half `c1` and half`c2`
 445:lvgl/src/lv_widgets/../lv_core/../lv_misc/lv_color.h ****  * @return the mixed color
 446:lvgl/src/lv_widgets/../lv_core/../lv_misc/lv_color.h ****  */
 447:lvgl/src/lv_widgets/../lv_core/../lv_misc/lv_color.h **** LV_ATTRIBUTE_FAST_MEM static inline lv_color_t lv_color_mix(lv_color_t c1, lv_color_t c2, uint8_t m
 448:lvgl/src/lv_widgets/../lv_core/../lv_misc/lv_color.h **** {
 449:lvgl/src/lv_widgets/../lv_core/../lv_misc/lv_color.h ****     lv_color_t ret;
 450:lvgl/src/lv_widgets/../lv_core/../lv_misc/lv_color.h **** #if LV_COLOR_DEPTH != 1
 451:lvgl/src/lv_widgets/../lv_core/../lv_misc/lv_color.h ****     /*LV_COLOR_DEPTH == 8, 16 or 32*/
 452:lvgl/src/lv_widgets/../lv_core/../lv_misc/lv_color.h ****     LV_COLOR_SET_R(ret, LV_MATH_UDIV255((uint16_t) LV_COLOR_GET_R(c1) * mix + LV_COLOR_GET_R(c2) *
 453:lvgl/src/lv_widgets/../lv_core/../lv_misc/lv_color.h ****                                         (255 - mix) + LV_COLOR_MIX_ROUND_OFS));
 454:lvgl/src/lv_widgets/../lv_core/../lv_misc/lv_color.h ****     LV_COLOR_SET_G(ret, LV_MATH_UDIV255((uint16_t) LV_COLOR_GET_G(c1) * mix + LV_COLOR_GET_G(c2) *
 455:lvgl/src/lv_widgets/../lv_core/../lv_misc/lv_color.h ****                                         (255 - mix) + LV_COLOR_MIX_ROUND_OFS));
 456:lvgl/src/lv_widgets/../lv_core/../lv_misc/lv_color.h ****     LV_COLOR_SET_B(ret, LV_MATH_UDIV255((uint16_t) LV_COLOR_GET_B(c1) * mix + LV_COLOR_GET_B(c2) *
 457:lvgl/src/lv_widgets/../lv_core/../lv_misc/lv_color.h ****                                         (255 - mix) + LV_COLOR_MIX_ROUND_OFS));
 458:lvgl/src/lv_widgets/../lv_core/../lv_misc/lv_color.h ****     LV_COLOR_SET_A(ret, 0xFF);
 459:lvgl/src/lv_widgets/../lv_core/../lv_misc/lv_color.h **** #else
ARM GAS  D:\Temp\cc0vPyDE.s 			page 34


 460:lvgl/src/lv_widgets/../lv_core/../lv_misc/lv_color.h ****     /*LV_COLOR_DEPTH == 1*/
 461:lvgl/src/lv_widgets/../lv_core/../lv_misc/lv_color.h ****     ret.full = mix > LV_OPA_50 ? c1.full : c2.full;
 462:lvgl/src/lv_widgets/../lv_core/../lv_misc/lv_color.h **** #endif
 463:lvgl/src/lv_widgets/../lv_core/../lv_misc/lv_color.h **** 
 464:lvgl/src/lv_widgets/../lv_core/../lv_misc/lv_color.h ****     return ret;
 465:lvgl/src/lv_widgets/../lv_core/../lv_misc/lv_color.h **** }
 466:lvgl/src/lv_widgets/../lv_core/../lv_misc/lv_color.h **** 
 467:lvgl/src/lv_widgets/../lv_core/../lv_misc/lv_color.h **** LV_ATTRIBUTE_FAST_MEM static inline void lv_color_premult(lv_color_t c, uint8_t mix, uint16_t * out
 468:lvgl/src/lv_widgets/../lv_core/../lv_misc/lv_color.h **** {
 469:lvgl/src/lv_widgets/../lv_core/../lv_misc/lv_color.h **** #if LV_COLOR_DEPTH != 1
 470:lvgl/src/lv_widgets/../lv_core/../lv_misc/lv_color.h ****     out[0] = (uint16_t) LV_COLOR_GET_R(c) * mix;
 471:lvgl/src/lv_widgets/../lv_core/../lv_misc/lv_color.h ****     out[1] = (uint16_t) LV_COLOR_GET_G(c) * mix;
 472:lvgl/src/lv_widgets/../lv_core/../lv_misc/lv_color.h ****     out[2] = (uint16_t) LV_COLOR_GET_B(c) * mix;
 473:lvgl/src/lv_widgets/../lv_core/../lv_misc/lv_color.h **** #else
 474:lvgl/src/lv_widgets/../lv_core/../lv_misc/lv_color.h ****     (void) mix;
 475:lvgl/src/lv_widgets/../lv_core/../lv_misc/lv_color.h ****     /*Pre-multiplication can't be used with 1 bpp*/
 476:lvgl/src/lv_widgets/../lv_core/../lv_misc/lv_color.h ****     out[0] = LV_COLOR_GET_R(c);
 477:lvgl/src/lv_widgets/../lv_core/../lv_misc/lv_color.h ****     out[1] = LV_COLOR_GET_G(c);
 478:lvgl/src/lv_widgets/../lv_core/../lv_misc/lv_color.h ****     out[2] = LV_COLOR_GET_B(c);
 479:lvgl/src/lv_widgets/../lv_core/../lv_misc/lv_color.h **** #endif
 480:lvgl/src/lv_widgets/../lv_core/../lv_misc/lv_color.h **** 
 481:lvgl/src/lv_widgets/../lv_core/../lv_misc/lv_color.h **** }
 482:lvgl/src/lv_widgets/../lv_core/../lv_misc/lv_color.h **** 
 483:lvgl/src/lv_widgets/../lv_core/../lv_misc/lv_color.h **** /**
 484:lvgl/src/lv_widgets/../lv_core/../lv_misc/lv_color.h ****  * Mix two colors with a given ratio. It runs faster then `lv_color_mix` but requires some pre comp
 485:lvgl/src/lv_widgets/../lv_core/../lv_misc/lv_color.h ****  * @param premult_c1 The first color. Should be preprocessed with `lv_color_premult(c1)`
 486:lvgl/src/lv_widgets/../lv_core/../lv_misc/lv_color.h ****  * @param c2 The second color. As it is no pre computation required on it
 487:lvgl/src/lv_widgets/../lv_core/../lv_misc/lv_color.h ****  * @param mix The ratio of the colors. 0: full `c1`, 255: full `c2`, 127: half `c1` and half `c2`.
 488:lvgl/src/lv_widgets/../lv_core/../lv_misc/lv_color.h ****  *            Should be modified like mix = `255 - mix`
 489:lvgl/src/lv_widgets/../lv_core/../lv_misc/lv_color.h ****  * @return the mixed color
 490:lvgl/src/lv_widgets/../lv_core/../lv_misc/lv_color.h ****  * @note 255 won't give clearly `c1`.
 491:lvgl/src/lv_widgets/../lv_core/../lv_misc/lv_color.h ****  */
 492:lvgl/src/lv_widgets/../lv_core/../lv_misc/lv_color.h **** LV_ATTRIBUTE_FAST_MEM static inline lv_color_t lv_color_mix_premult(uint16_t * premult_c1, lv_color
 493:lvgl/src/lv_widgets/../lv_core/../lv_misc/lv_color.h **** {
 494:lvgl/src/lv_widgets/../lv_core/../lv_misc/lv_color.h ****     lv_color_t ret;
 495:lvgl/src/lv_widgets/../lv_core/../lv_misc/lv_color.h **** #if LV_COLOR_DEPTH != 1
 496:lvgl/src/lv_widgets/../lv_core/../lv_misc/lv_color.h ****     /*LV_COLOR_DEPTH == 8, 16 or 32*/
 497:lvgl/src/lv_widgets/../lv_core/../lv_misc/lv_color.h ****     LV_COLOR_SET_R(ret, LV_MATH_UDIV255(premult_c1[0] + LV_COLOR_GET_R(c2) * mix + LV_COLOR_MIX_ROU
 498:lvgl/src/lv_widgets/../lv_core/../lv_misc/lv_color.h ****     LV_COLOR_SET_G(ret, LV_MATH_UDIV255(premult_c1[1] + LV_COLOR_GET_G(c2) * mix + LV_COLOR_MIX_ROU
 499:lvgl/src/lv_widgets/../lv_core/../lv_misc/lv_color.h ****     LV_COLOR_SET_B(ret, LV_MATH_UDIV255(premult_c1[2] + LV_COLOR_GET_B(c2) * mix + LV_COLOR_MIX_ROU
 500:lvgl/src/lv_widgets/../lv_core/../lv_misc/lv_color.h ****     LV_COLOR_SET_A(ret, 0xFF);
 501:lvgl/src/lv_widgets/../lv_core/../lv_misc/lv_color.h **** #else
 502:lvgl/src/lv_widgets/../lv_core/../lv_misc/lv_color.h ****     /*LV_COLOR_DEPTH == 1*/
 503:lvgl/src/lv_widgets/../lv_core/../lv_misc/lv_color.h ****     /*Restore color1*/
 504:lvgl/src/lv_widgets/../lv_core/../lv_misc/lv_color.h ****     lv_color_t c1;
 505:lvgl/src/lv_widgets/../lv_core/../lv_misc/lv_color.h ****     LV_COLOR_SET_R(c1, premult_c1[0]);
 506:lvgl/src/lv_widgets/../lv_core/../lv_misc/lv_color.h ****     LV_COLOR_SET_G(c1, premult_c1[1]);
 507:lvgl/src/lv_widgets/../lv_core/../lv_misc/lv_color.h ****     LV_COLOR_SET_B(c1, premult_c1[2]);
 508:lvgl/src/lv_widgets/../lv_core/../lv_misc/lv_color.h ****     ret.full = mix > LV_OPA_50 ? c2.full : c1.full;
 509:lvgl/src/lv_widgets/../lv_core/../lv_misc/lv_color.h **** #endif
 510:lvgl/src/lv_widgets/../lv_core/../lv_misc/lv_color.h **** 
 511:lvgl/src/lv_widgets/../lv_core/../lv_misc/lv_color.h ****     return ret;
 512:lvgl/src/lv_widgets/../lv_core/../lv_misc/lv_color.h **** }
 513:lvgl/src/lv_widgets/../lv_core/../lv_misc/lv_color.h **** 
 514:lvgl/src/lv_widgets/../lv_core/../lv_misc/lv_color.h **** /**
 515:lvgl/src/lv_widgets/../lv_core/../lv_misc/lv_color.h ****  * Mix two colors. Both color can have alpha value.
 516:lvgl/src/lv_widgets/../lv_core/../lv_misc/lv_color.h ****  * @param bg_color background color
ARM GAS  D:\Temp\cc0vPyDE.s 			page 35


 517:lvgl/src/lv_widgets/../lv_core/../lv_misc/lv_color.h ****  * @param bg_opa alpha of the background color
 518:lvgl/src/lv_widgets/../lv_core/../lv_misc/lv_color.h ****  * @param fg_color foreground color
 519:lvgl/src/lv_widgets/../lv_core/../lv_misc/lv_color.h ****  * @param fg_opa alpha of the foreground color
 520:lvgl/src/lv_widgets/../lv_core/../lv_misc/lv_color.h ****  * @param res_color the result color
 521:lvgl/src/lv_widgets/../lv_core/../lv_misc/lv_color.h ****  * @param res_opa the result opacity
 522:lvgl/src/lv_widgets/../lv_core/../lv_misc/lv_color.h ****  */
 523:lvgl/src/lv_widgets/../lv_core/../lv_misc/lv_color.h **** LV_ATTRIBUTE_FAST_MEM static inline void lv_color_mix_with_alpha(lv_color_t bg_color, lv_opa_t bg_o
 524:lvgl/src/lv_widgets/../lv_core/../lv_misc/lv_color.h ****                                                                  lv_color_t fg_color, lv_opa_t fg_o
 525:lvgl/src/lv_widgets/../lv_core/../lv_misc/lv_color.h ****                                                                  lv_color_t * res_color, lv_opa_t *
 526:lvgl/src/lv_widgets/../lv_core/../lv_misc/lv_color.h **** {
 527:lvgl/src/lv_widgets/../lv_core/../lv_misc/lv_color.h ****     /* Pick the foreground if it's fully opaque or the Background is fully transparent*/
 528:lvgl/src/lv_widgets/../lv_core/../lv_misc/lv_color.h ****     if(fg_opa >= LV_OPA_MAX || bg_opa <= LV_OPA_MIN) {
 529:lvgl/src/lv_widgets/../lv_core/../lv_misc/lv_color.h ****         res_color->full = fg_color.full;
 530:lvgl/src/lv_widgets/../lv_core/../lv_misc/lv_color.h ****         *res_opa = fg_opa;
 531:lvgl/src/lv_widgets/../lv_core/../lv_misc/lv_color.h ****     }
 532:lvgl/src/lv_widgets/../lv_core/../lv_misc/lv_color.h ****     /*Transparent foreground: use the Background*/
 533:lvgl/src/lv_widgets/../lv_core/../lv_misc/lv_color.h ****     else if(fg_opa <= LV_OPA_MIN) {
 534:lvgl/src/lv_widgets/../lv_core/../lv_misc/lv_color.h ****         res_color->full = bg_color.full;
 535:lvgl/src/lv_widgets/../lv_core/../lv_misc/lv_color.h ****         *res_opa = bg_opa;
 536:lvgl/src/lv_widgets/../lv_core/../lv_misc/lv_color.h ****     }
 537:lvgl/src/lv_widgets/../lv_core/../lv_misc/lv_color.h ****     /*Opaque background: use simple mix*/
 538:lvgl/src/lv_widgets/../lv_core/../lv_misc/lv_color.h ****     else if(bg_opa >= LV_OPA_MAX) {
 539:lvgl/src/lv_widgets/../lv_core/../lv_misc/lv_color.h ****         *res_color = lv_color_mix(fg_color, bg_color, fg_opa);
 540:lvgl/src/lv_widgets/../lv_core/../lv_misc/lv_color.h ****         *res_opa = LV_OPA_COVER;
 541:lvgl/src/lv_widgets/../lv_core/../lv_misc/lv_color.h ****     }
 542:lvgl/src/lv_widgets/../lv_core/../lv_misc/lv_color.h ****     /*Both colors have alpha. Expensive calculation need to be applied*/
 543:lvgl/src/lv_widgets/../lv_core/../lv_misc/lv_color.h ****     else {
 544:lvgl/src/lv_widgets/../lv_core/../lv_misc/lv_color.h ****         /*Save the parameters and the result. If they will be asked again don't compute again*/
 545:lvgl/src/lv_widgets/../lv_core/../lv_misc/lv_color.h ****         static lv_opa_t fg_opa_save     = 0;
 546:lvgl/src/lv_widgets/../lv_core/../lv_misc/lv_color.h ****         static lv_opa_t bg_opa_save     = 0;
 547:lvgl/src/lv_widgets/../lv_core/../lv_misc/lv_color.h ****         static lv_color_t fg_color_save = _LV_COLOR_ZERO_INITIALIZER;
 548:lvgl/src/lv_widgets/../lv_core/../lv_misc/lv_color.h ****         static lv_color_t bg_color_save = _LV_COLOR_ZERO_INITIALIZER;
 549:lvgl/src/lv_widgets/../lv_core/../lv_misc/lv_color.h ****         static lv_color_t res_color_saved = _LV_COLOR_ZERO_INITIALIZER;
 550:lvgl/src/lv_widgets/../lv_core/../lv_misc/lv_color.h ****         static lv_opa_t res_opa_saved = 0;
 551:lvgl/src/lv_widgets/../lv_core/../lv_misc/lv_color.h **** 
 552:lvgl/src/lv_widgets/../lv_core/../lv_misc/lv_color.h ****         if(fg_opa != fg_opa_save || bg_opa != bg_opa_save || fg_color.full != fg_color_save.full ||
 553:lvgl/src/lv_widgets/../lv_core/../lv_misc/lv_color.h ****            bg_color.full != bg_color_save.full) {
 554:lvgl/src/lv_widgets/../lv_core/../lv_misc/lv_color.h ****             fg_opa_save        = fg_opa;
 555:lvgl/src/lv_widgets/../lv_core/../lv_misc/lv_color.h ****             bg_opa_save        = bg_opa;
 556:lvgl/src/lv_widgets/../lv_core/../lv_misc/lv_color.h ****             fg_color_save.full = fg_color.full;
 557:lvgl/src/lv_widgets/../lv_core/../lv_misc/lv_color.h ****             bg_color_save.full = bg_color.full;
 558:lvgl/src/lv_widgets/../lv_core/../lv_misc/lv_color.h ****             /*Info:
 559:lvgl/src/lv_widgets/../lv_core/../lv_misc/lv_color.h ****              * https://en.wikipedia.org/wiki/Alpha_compositing#Analytical_derivation_of_the_over_op
 560:lvgl/src/lv_widgets/../lv_core/../lv_misc/lv_color.h ****             res_opa_saved = 255 - ((uint16_t)((uint16_t)(255 - fg_opa) * (255 - bg_opa)) >> 8);
 561:lvgl/src/lv_widgets/../lv_core/../lv_misc/lv_color.h ****             if(res_opa_saved == 0) {
 562:lvgl/src/lv_widgets/../lv_core/../lv_misc/lv_color.h ****                 while(1)
 563:lvgl/src/lv_widgets/../lv_core/../lv_misc/lv_color.h ****                     ;
 564:lvgl/src/lv_widgets/../lv_core/../lv_misc/lv_color.h ****             }
 565:lvgl/src/lv_widgets/../lv_core/../lv_misc/lv_color.h ****             lv_opa_t ratio = (uint16_t)((uint16_t)fg_opa * 255) / res_opa_saved;
 566:lvgl/src/lv_widgets/../lv_core/../lv_misc/lv_color.h ****             res_color_saved = lv_color_mix(fg_color, bg_color, ratio);
 567:lvgl/src/lv_widgets/../lv_core/../lv_misc/lv_color.h **** 
 568:lvgl/src/lv_widgets/../lv_core/../lv_misc/lv_color.h ****         }
 569:lvgl/src/lv_widgets/../lv_core/../lv_misc/lv_color.h **** 
 570:lvgl/src/lv_widgets/../lv_core/../lv_misc/lv_color.h ****         res_color->full = res_color_saved.full;
 571:lvgl/src/lv_widgets/../lv_core/../lv_misc/lv_color.h ****         *res_opa = res_opa_saved;
 572:lvgl/src/lv_widgets/../lv_core/../lv_misc/lv_color.h ****     }
 573:lvgl/src/lv_widgets/../lv_core/../lv_misc/lv_color.h **** }
ARM GAS  D:\Temp\cc0vPyDE.s 			page 36


 574:lvgl/src/lv_widgets/../lv_core/../lv_misc/lv_color.h **** 
 575:lvgl/src/lv_widgets/../lv_core/../lv_misc/lv_color.h **** //! @endcond
 576:lvgl/src/lv_widgets/../lv_core/../lv_misc/lv_color.h **** 
 577:lvgl/src/lv_widgets/../lv_core/../lv_misc/lv_color.h **** /**
 578:lvgl/src/lv_widgets/../lv_core/../lv_misc/lv_color.h ****  * Get the brightness of a color
 579:lvgl/src/lv_widgets/../lv_core/../lv_misc/lv_color.h ****  * @param color a color
 580:lvgl/src/lv_widgets/../lv_core/../lv_misc/lv_color.h ****  * @return the brightness [0..255]
 581:lvgl/src/lv_widgets/../lv_core/../lv_misc/lv_color.h ****  */
 582:lvgl/src/lv_widgets/../lv_core/../lv_misc/lv_color.h **** static inline uint8_t lv_color_brightness(lv_color_t color)
 215              		.loc 2 582 23 view .LVU43
 216              	.LBB62:
 583:lvgl/src/lv_widgets/../lv_core/../lv_misc/lv_color.h **** {
 584:lvgl/src/lv_widgets/../lv_core/../lv_misc/lv_color.h ****     lv_color32_t c32;
 217              		.loc 2 584 5 view .LVU44
 585:lvgl/src/lv_widgets/../lv_core/../lv_misc/lv_color.h ****     c32.full        = lv_color_to32(color);
 218              		.loc 2 585 5 view .LVU45
 219              	.LBB63:
 220              	.LBI63:
 383:lvgl/src/lv_widgets/../lv_core/../lv_misc/lv_color.h **** {
 221              		.loc 2 383 24 view .LVU46
 222              	.LBB64:
 427:lvgl/src/lv_widgets/../lv_core/../lv_misc/lv_color.h ****     LV_COLOR_SET_R32(ret, (LV_COLOR_GET_R(color) * 263 + 7) >> 5);
 223              		.loc 2 427 5 view .LVU47
 428:lvgl/src/lv_widgets/../lv_core/../lv_misc/lv_color.h ****     LV_COLOR_SET_G32(ret, (LV_COLOR_GET_G(color) * 259 + 3) >> 6);
 224              		.loc 2 428 5 view .LVU48
 225 0020 C3F3C422 		ubfx	r2, r3, #11, #5
 226 0024 02EB4211 		add	r1, r2, r2, lsl #5
 227 0028 C2EBC101 		rsb	r1, r2, r1, lsl #3
 228 002c 0731     		adds	r1, r1, #7
 229 002e C1F34711 		ubfx	r1, r1, #5, #8
 230 0032 0022     		movs	r2, #0
 231              	.LVL11:
 428:lvgl/src/lv_widgets/../lv_core/../lv_misc/lv_color.h ****     LV_COLOR_SET_G32(ret, (LV_COLOR_GET_G(color) * 259 + 3) >> 6);
 232              		.loc 2 428 5 is_stmt 0 view .LVU49
 233 0034 61F31742 		bfi	r2, r1, #16, #8
 234              	.LVL12:
 429:lvgl/src/lv_widgets/../lv_core/../lv_misc/lv_color.h ****     LV_COLOR_SET_B32(ret, (LV_COLOR_GET_B(color) * 263 + 7) >> 5);
 235              		.loc 2 429 5 is_stmt 1 view .LVU50
 236 0038 C3F34511 		ubfx	r1, r3, #5, #6
 237 003c 01EBC110 		add	r0, r1, r1, lsl #7
 238              	.LVL13:
 429:lvgl/src/lv_widgets/../lv_core/../lv_misc/lv_color.h ****     LV_COLOR_SET_B32(ret, (LV_COLOR_GET_B(color) * 263 + 7) >> 5);
 239              		.loc 2 429 5 is_stmt 0 view .LVU51
 240 0040 01EB4001 		add	r1, r1, r0, lsl #1
 241 0044 0331     		adds	r1, r1, #3
 242 0046 C1F38711 		ubfx	r1, r1, #6, #8
 243 004a 61F30F22 		bfi	r2, r1, #8, #8
 430:lvgl/src/lv_widgets/../lv_core/../lv_misc/lv_color.h ****     LV_COLOR_SET_A32(ret, 0xFF);
 244              		.loc 2 430 5 is_stmt 1 view .LVU52
 245 004e 03F01F03 		and	r3, r3, #31
 246              	.LVL14:
 430:lvgl/src/lv_widgets/../lv_core/../lv_misc/lv_color.h ****     LV_COLOR_SET_A32(ret, 0xFF);
 247              		.loc 2 430 5 is_stmt 0 view .LVU53
 248 0052 03EB4311 		add	r1, r3, r3, lsl #5
 249 0056 C3EBC103 		rsb	r3, r3, r1, lsl #3
 250 005a 0733     		adds	r3, r3, #7
 251 005c C3F34713 		ubfx	r3, r3, #5, #8
ARM GAS  D:\Temp\cc0vPyDE.s 			page 37


 252 0060 63F30702 		bfi	r2, r3, #0, #8
 431:lvgl/src/lv_widgets/../lv_core/../lv_misc/lv_color.h ****     return ret.full;
 253              		.loc 2 431 5 is_stmt 1 view .LVU54
 254 0064 42F07F42 		orr	r2, r2, #-16777216
 255              	.LVL15:
 432:lvgl/src/lv_widgets/../lv_core/../lv_misc/lv_color.h **** #elif LV_COLOR_DEPTH == 32
 256              		.loc 2 432 5 view .LVU55
 257              	.LBE64:
 258              	.LBE63:
 586:lvgl/src/lv_widgets/../lv_core/../lv_misc/lv_color.h ****     uint16_t bright = (uint16_t)(3u * LV_COLOR_GET_R32(c32) + LV_COLOR_GET_B32(c32) + 4u * LV_COLOR
 259              		.loc 2 586 5 view .LVU56
 260              		.loc 2 586 39 is_stmt 0 view .LVU57
 261 0068 C2F30743 		ubfx	r3, r2, #16, #8
 262              		.loc 2 586 37 view .LVU58
 263 006c 03EB4303 		add	r3, r3, r3, lsl #1
 264              		.loc 2 586 92 view .LVU59
 265 0070 C2F30728 		ubfx	r8, r2, #8, #8
 266              		.loc 2 586 85 view .LVU60
 267 0074 03EB8808 		add	r8, r3, r8, lsl #2
 268              		.loc 2 586 63 view .LVU61
 269 0078 D2B2     		uxtb	r2, r2
 270              	.LVL16:
 271              		.loc 2 586 14 view .LVU62
 272 007a 12FA88F8 		uxtah	r8, r2, r8
 273              	.LVL17:
 587:lvgl/src/lv_widgets/../lv_core/../lv_misc/lv_color.h ****     return (uint8_t)(bright >> 3);
 274              		.loc 2 587 5 is_stmt 1 view .LVU63
 275              		.loc 2 587 12 is_stmt 0 view .LVU64
 276 007e C8F3C708 		ubfx	r8, r8, #3, #8
 277              	.LVL18:
 278              		.loc 2 587 12 view .LVU65
 279              	.LBE62:
 280              	.LBE61:
1201:lvgl/src/lv_widgets/lv_canvas.c ****     if(opa < LV_OPA_MAX) {
 281              		.loc 1 1201 5 is_stmt 1 view .LVU66
 282              		.loc 1 1201 7 is_stmt 0 view .LVU67
 283 0082 FC2D     		cmp	r5, #252
 284 0084 07D9     		bls	.L21
 285              	.L19:
1202:lvgl/src/lv_widgets/lv_canvas.c ****         uint8_t bg = lv_img_buf_get_px_alpha(d, x, y);
1203:lvgl/src/lv_widgets/lv_canvas.c ****         br = (uint16_t)((uint16_t)br * opa + (bg * (255 - opa))) >> 8;
1204:lvgl/src/lv_widgets/lv_canvas.c ****     }
1205:lvgl/src/lv_widgets/lv_canvas.c **** 
1206:lvgl/src/lv_widgets/lv_canvas.c ****     lv_img_buf_set_px_alpha(d, x, y, br);
 286              		.loc 1 1206 5 is_stmt 1 view .LVU68
 287 0086 4346     		mov	r3, r8
 288 0088 3A46     		mov	r2, r7
 289 008a 3146     		mov	r1, r6
 290 008c 2046     		mov	r0, r4
 291 008e FFF7FEFF 		bl	lv_img_buf_set_px_alpha
 292              	.LVL19:
1207:lvgl/src/lv_widgets/lv_canvas.c **** }
 293              		.loc 1 1207 1 is_stmt 0 view .LVU69
 294 0092 BDE8F081 		pop	{r4, r5, r6, r7, r8, pc}
 295              	.LVL20:
 296              	.L21:
 297              	.LBB65:
ARM GAS  D:\Temp\cc0vPyDE.s 			page 38


1202:lvgl/src/lv_widgets/lv_canvas.c ****         uint8_t bg = lv_img_buf_get_px_alpha(d, x, y);
 298              		.loc 1 1202 9 is_stmt 1 view .LVU70
1202:lvgl/src/lv_widgets/lv_canvas.c ****         uint8_t bg = lv_img_buf_get_px_alpha(d, x, y);
 299              		.loc 1 1202 22 is_stmt 0 view .LVU71
 300 0096 3A46     		mov	r2, r7
 301 0098 3146     		mov	r1, r6
 302 009a 2046     		mov	r0, r4
 303 009c FFF7FEFF 		bl	lv_img_buf_get_px_alpha
 304              	.LVL21:
1203:lvgl/src/lv_widgets/lv_canvas.c ****     }
 305              		.loc 1 1203 9 is_stmt 1 view .LVU72
1203:lvgl/src/lv_widgets/lv_canvas.c ****     }
 306              		.loc 1 1203 57 is_stmt 0 view .LVU73
 307 00a0 C5F1FF03 		rsb	r3, r5, #255
1203:lvgl/src/lv_widgets/lv_canvas.c ****     }
 308              		.loc 1 1203 14 view .LVU74
 309 00a4 10FB03F0 		smulbb	r0, r0, r3
 310              	.LVL22:
1203:lvgl/src/lv_widgets/lv_canvas.c ****     }
 311              		.loc 1 1203 14 view .LVU75
 312 00a8 08FB0508 		mla	r8, r8, r5, r0
 313              	.LVL23:
1203:lvgl/src/lv_widgets/lv_canvas.c ****     }
 314              		.loc 1 1203 12 view .LVU76
 315 00ac C8F30728 		ubfx	r8, r8, #8, #8
 316              	.LVL24:
1203:lvgl/src/lv_widgets/lv_canvas.c ****     }
 317              		.loc 1 1203 12 view .LVU77
 318 00b0 E9E7     		b	.L19
 319              	.LBE65:
 320              		.cfi_endproc
 321              	.LFE481:
 323              		.section	.text.set_px_cb_alpha8,"ax",%progbits
 324              		.align	1
 325              		.syntax unified
 326              		.thumb
 327              		.thumb_func
 328              		.fpu fpv4-sp-d16
 330              	set_px_cb_alpha8:
 331              	.LVL25:
 332              	.LFB480:
1183:lvgl/src/lv_widgets/lv_canvas.c ****     (void) disp_drv; /*Unused*/
 333              		.loc 1 1183 1 is_stmt 1 view -0
 334              		.cfi_startproc
 335              		@ args = 12, pretend = 0, frame = 16
 336              		@ frame_needed = 0, uses_anonymous_args = 0
1183:lvgl/src/lv_widgets/lv_canvas.c ****     (void) disp_drv; /*Unused*/
 337              		.loc 1 1183 1 is_stmt 0 view .LVU79
 338 0000 30B5     		push	{r4, r5, lr}
 339              	.LCFI2:
 340              		.cfi_def_cfa_offset 12
 341              		.cfi_offset 4, -12
 342              		.cfi_offset 5, -8
 343              		.cfi_offset 14, -4
 344 0002 87B0     		sub	sp, sp, #28
 345              	.LCFI3:
 346              		.cfi_def_cfa_offset 40
ARM GAS  D:\Temp\cc0vPyDE.s 			page 39


 347 0004 9DF83040 		ldrb	r4, [sp, #48]	@ zero_extendqisi2
1184:lvgl/src/lv_widgets/lv_canvas.c **** 
 348              		.loc 1 1184 5 is_stmt 1 view .LVU80
1186:lvgl/src/lv_widgets/lv_canvas.c ****     lv_img_dsc_t d;
 349              		.loc 1 1186 5 view .LVU81
1186:lvgl/src/lv_widgets/lv_canvas.c ****     lv_img_dsc_t d;
 350              		.loc 1 1186 7 is_stmt 0 view .LVU82
 351 0008 022C     		cmp	r4, #2
 352 000a 01D8     		bhi	.L26
 353              	.LVL26:
 354              	.L22:
1193:lvgl/src/lv_widgets/lv_canvas.c **** 
 355              		.loc 1 1193 1 view .LVU83
 356 000c 07B0     		add	sp, sp, #28
 357              	.LCFI4:
 358              		.cfi_remember_state
 359              		.cfi_def_cfa_offset 12
 360              		@ sp needed
 361 000e 30BD     		pop	{r4, r5, pc}
 362              	.LVL27:
 363              	.L26:
 364              	.LCFI5:
 365              		.cfi_restore_state
1193:lvgl/src/lv_widgets/lv_canvas.c **** 
 366              		.loc 1 1193 1 view .LVU84
 367 0010 1D46     		mov	r5, r3
1187:lvgl/src/lv_widgets/lv_canvas.c ****     d.data = buf;
 368              		.loc 1 1187 5 is_stmt 1 view .LVU85
1188:lvgl/src/lv_widgets/lv_canvas.c ****     d.header.w = buf_w;
 369              		.loc 1 1188 5 view .LVU86
1188:lvgl/src/lv_widgets/lv_canvas.c ****     d.header.w = buf_w;
 370              		.loc 1 1188 12 is_stmt 0 view .LVU87
 371 0012 0591     		str	r1, [sp, #20]
1189:lvgl/src/lv_widgets/lv_canvas.c ****     d.header.cf = LV_IMG_CF_ALPHA_8BIT;
 372              		.loc 1 1189 5 is_stmt 1 view .LVU88
1189:lvgl/src/lv_widgets/lv_canvas.c ****     d.header.cf = LV_IMG_CF_ALPHA_8BIT;
 373              		.loc 1 1189 16 is_stmt 0 view .LVU89
 374 0014 0398     		ldr	r0, [sp, #12]
 375              	.LVL28:
1189:lvgl/src/lv_widgets/lv_canvas.c ****     d.header.cf = LV_IMG_CF_ALPHA_8BIT;
 376              		.loc 1 1189 16 view .LVU90
 377 0016 62F39420 		bfi	r0, r2, #10, #11
 378 001a 0390     		str	r0, [sp, #12]
1190:lvgl/src/lv_widgets/lv_canvas.c **** 
 379              		.loc 1 1190 5 is_stmt 1 view .LVU91
1190:lvgl/src/lv_widgets/lv_canvas.c **** 
 380              		.loc 1 1190 17 is_stmt 0 view .LVU92
 381 001c 0E23     		movs	r3, #14
 382              	.LVL29:
1190:lvgl/src/lv_widgets/lv_canvas.c **** 
 383              		.loc 1 1190 17 view .LVU93
 384 001e 63F30400 		bfi	r0, r3, #0, #5
 385 0022 8DF80C00 		strb	r0, [sp, #12]
1192:lvgl/src/lv_widgets/lv_canvas.c **** }
 386              		.loc 1 1192 5 is_stmt 1 view .LVU94
 387 0026 0094     		str	r4, [sp]
 388 0028 BDF82C30 		ldrh	r3, [sp, #44]
ARM GAS  D:\Temp\cc0vPyDE.s 			page 40


 389 002c BDF92820 		ldrsh	r2, [sp, #40]
 390              	.LVL30:
1192:lvgl/src/lv_widgets/lv_canvas.c **** }
 391              		.loc 1 1192 5 is_stmt 0 view .LVU95
 392 0030 2946     		mov	r1, r5
 393              	.LVL31:
1192:lvgl/src/lv_widgets/lv_canvas.c **** }
 394              		.loc 1 1192 5 view .LVU96
 395 0032 03A8     		add	r0, sp, #12
 396 0034 FFF7FEFF 		bl	set_px_alpha_generic
 397              	.LVL32:
1192:lvgl/src/lv_widgets/lv_canvas.c **** }
 398              		.loc 1 1192 5 view .LVU97
 399 0038 E8E7     		b	.L22
 400              		.cfi_endproc
 401              	.LFE480:
 403              		.section	.text.set_px_cb_alpha4,"ax",%progbits
 404              		.align	1
 405              		.syntax unified
 406              		.thumb
 407              		.thumb_func
 408              		.fpu fpv4-sp-d16
 410              	set_px_cb_alpha4:
 411              	.LVL33:
 412              	.LFB479:
1169:lvgl/src/lv_widgets/lv_canvas.c ****     (void) disp_drv; /*Unused*/
 413              		.loc 1 1169 1 is_stmt 1 view -0
 414              		.cfi_startproc
 415              		@ args = 12, pretend = 0, frame = 16
 416              		@ frame_needed = 0, uses_anonymous_args = 0
1169:lvgl/src/lv_widgets/lv_canvas.c ****     (void) disp_drv; /*Unused*/
 417              		.loc 1 1169 1 is_stmt 0 view .LVU99
 418 0000 30B5     		push	{r4, r5, lr}
 419              	.LCFI6:
 420              		.cfi_def_cfa_offset 12
 421              		.cfi_offset 4, -12
 422              		.cfi_offset 5, -8
 423              		.cfi_offset 14, -4
 424 0002 87B0     		sub	sp, sp, #28
 425              	.LCFI7:
 426              		.cfi_def_cfa_offset 40
 427 0004 9DF83040 		ldrb	r4, [sp, #48]	@ zero_extendqisi2
1170:lvgl/src/lv_widgets/lv_canvas.c **** 
 428              		.loc 1 1170 5 is_stmt 1 view .LVU100
1172:lvgl/src/lv_widgets/lv_canvas.c ****     lv_img_dsc_t d;
 429              		.loc 1 1172 5 view .LVU101
1172:lvgl/src/lv_widgets/lv_canvas.c ****     lv_img_dsc_t d;
 430              		.loc 1 1172 7 is_stmt 0 view .LVU102
 431 0008 022C     		cmp	r4, #2
 432 000a 01D8     		bhi	.L31
 433              	.LVL34:
 434              	.L27:
1179:lvgl/src/lv_widgets/lv_canvas.c **** 
 435              		.loc 1 1179 1 view .LVU103
 436 000c 07B0     		add	sp, sp, #28
 437              	.LCFI8:
 438              		.cfi_remember_state
ARM GAS  D:\Temp\cc0vPyDE.s 			page 41


 439              		.cfi_def_cfa_offset 12
 440              		@ sp needed
 441 000e 30BD     		pop	{r4, r5, pc}
 442              	.LVL35:
 443              	.L31:
 444              	.LCFI9:
 445              		.cfi_restore_state
1179:lvgl/src/lv_widgets/lv_canvas.c **** 
 446              		.loc 1 1179 1 view .LVU104
 447 0010 1D46     		mov	r5, r3
1173:lvgl/src/lv_widgets/lv_canvas.c ****     d.data = buf;
 448              		.loc 1 1173 5 is_stmt 1 view .LVU105
1174:lvgl/src/lv_widgets/lv_canvas.c ****     d.header.w = buf_w;
 449              		.loc 1 1174 5 view .LVU106
1174:lvgl/src/lv_widgets/lv_canvas.c ****     d.header.w = buf_w;
 450              		.loc 1 1174 12 is_stmt 0 view .LVU107
 451 0012 0591     		str	r1, [sp, #20]
1175:lvgl/src/lv_widgets/lv_canvas.c ****     d.header.cf = LV_IMG_CF_ALPHA_4BIT;
 452              		.loc 1 1175 5 is_stmt 1 view .LVU108
1175:lvgl/src/lv_widgets/lv_canvas.c ****     d.header.cf = LV_IMG_CF_ALPHA_4BIT;
 453              		.loc 1 1175 16 is_stmt 0 view .LVU109
 454 0014 0398     		ldr	r0, [sp, #12]
 455              	.LVL36:
1175:lvgl/src/lv_widgets/lv_canvas.c ****     d.header.cf = LV_IMG_CF_ALPHA_4BIT;
 456              		.loc 1 1175 16 view .LVU110
 457 0016 62F39420 		bfi	r0, r2, #10, #11
 458 001a 0390     		str	r0, [sp, #12]
1176:lvgl/src/lv_widgets/lv_canvas.c **** 
 459              		.loc 1 1176 5 is_stmt 1 view .LVU111
1176:lvgl/src/lv_widgets/lv_canvas.c **** 
 460              		.loc 1 1176 17 is_stmt 0 view .LVU112
 461 001c 0D23     		movs	r3, #13
 462              	.LVL37:
1176:lvgl/src/lv_widgets/lv_canvas.c **** 
 463              		.loc 1 1176 17 view .LVU113
 464 001e 63F30400 		bfi	r0, r3, #0, #5
 465 0022 8DF80C00 		strb	r0, [sp, #12]
1178:lvgl/src/lv_widgets/lv_canvas.c **** }
 466              		.loc 1 1178 5 is_stmt 1 view .LVU114
 467 0026 0094     		str	r4, [sp]
 468 0028 BDF82C30 		ldrh	r3, [sp, #44]
 469 002c BDF92820 		ldrsh	r2, [sp, #40]
 470              	.LVL38:
1178:lvgl/src/lv_widgets/lv_canvas.c **** }
 471              		.loc 1 1178 5 is_stmt 0 view .LVU115
 472 0030 2946     		mov	r1, r5
 473              	.LVL39:
1178:lvgl/src/lv_widgets/lv_canvas.c **** }
 474              		.loc 1 1178 5 view .LVU116
 475 0032 03A8     		add	r0, sp, #12
 476 0034 FFF7FEFF 		bl	set_px_alpha_generic
 477              	.LVL40:
1178:lvgl/src/lv_widgets/lv_canvas.c **** }
 478              		.loc 1 1178 5 view .LVU117
 479 0038 E8E7     		b	.L27
 480              		.cfi_endproc
 481              	.LFE479:
ARM GAS  D:\Temp\cc0vPyDE.s 			page 42


 483              		.section	.text.set_px_cb_alpha2,"ax",%progbits
 484              		.align	1
 485              		.syntax unified
 486              		.thumb
 487              		.thumb_func
 488              		.fpu fpv4-sp-d16
 490              	set_px_cb_alpha2:
 491              	.LVL41:
 492              	.LFB478:
1155:lvgl/src/lv_widgets/lv_canvas.c ****     (void) disp_drv; /*Unused*/
 493              		.loc 1 1155 1 is_stmt 1 view -0
 494              		.cfi_startproc
 495              		@ args = 12, pretend = 0, frame = 16
 496              		@ frame_needed = 0, uses_anonymous_args = 0
1155:lvgl/src/lv_widgets/lv_canvas.c ****     (void) disp_drv; /*Unused*/
 497              		.loc 1 1155 1 is_stmt 0 view .LVU119
 498 0000 30B5     		push	{r4, r5, lr}
 499              	.LCFI10:
 500              		.cfi_def_cfa_offset 12
 501              		.cfi_offset 4, -12
 502              		.cfi_offset 5, -8
 503              		.cfi_offset 14, -4
 504 0002 87B0     		sub	sp, sp, #28
 505              	.LCFI11:
 506              		.cfi_def_cfa_offset 40
 507 0004 9DF83040 		ldrb	r4, [sp, #48]	@ zero_extendqisi2
1156:lvgl/src/lv_widgets/lv_canvas.c **** 
 508              		.loc 1 1156 5 is_stmt 1 view .LVU120
1158:lvgl/src/lv_widgets/lv_canvas.c ****     lv_img_dsc_t d;
 509              		.loc 1 1158 5 view .LVU121
1158:lvgl/src/lv_widgets/lv_canvas.c ****     lv_img_dsc_t d;
 510              		.loc 1 1158 7 is_stmt 0 view .LVU122
 511 0008 022C     		cmp	r4, #2
 512 000a 01D8     		bhi	.L36
 513              	.LVL42:
 514              	.L32:
1165:lvgl/src/lv_widgets/lv_canvas.c **** 
 515              		.loc 1 1165 1 view .LVU123
 516 000c 07B0     		add	sp, sp, #28
 517              	.LCFI12:
 518              		.cfi_remember_state
 519              		.cfi_def_cfa_offset 12
 520              		@ sp needed
 521 000e 30BD     		pop	{r4, r5, pc}
 522              	.LVL43:
 523              	.L36:
 524              	.LCFI13:
 525              		.cfi_restore_state
1165:lvgl/src/lv_widgets/lv_canvas.c **** 
 526              		.loc 1 1165 1 view .LVU124
 527 0010 1D46     		mov	r5, r3
1159:lvgl/src/lv_widgets/lv_canvas.c ****     d.data = buf;
 528              		.loc 1 1159 5 is_stmt 1 view .LVU125
1160:lvgl/src/lv_widgets/lv_canvas.c ****     d.header.w = buf_w;
 529              		.loc 1 1160 5 view .LVU126
1160:lvgl/src/lv_widgets/lv_canvas.c ****     d.header.w = buf_w;
 530              		.loc 1 1160 12 is_stmt 0 view .LVU127
ARM GAS  D:\Temp\cc0vPyDE.s 			page 43


 531 0012 0591     		str	r1, [sp, #20]
1161:lvgl/src/lv_widgets/lv_canvas.c ****     d.header.cf = LV_IMG_CF_ALPHA_2BIT;
 532              		.loc 1 1161 5 is_stmt 1 view .LVU128
1161:lvgl/src/lv_widgets/lv_canvas.c ****     d.header.cf = LV_IMG_CF_ALPHA_2BIT;
 533              		.loc 1 1161 16 is_stmt 0 view .LVU129
 534 0014 0398     		ldr	r0, [sp, #12]
 535              	.LVL44:
1161:lvgl/src/lv_widgets/lv_canvas.c ****     d.header.cf = LV_IMG_CF_ALPHA_2BIT;
 536              		.loc 1 1161 16 view .LVU130
 537 0016 62F39420 		bfi	r0, r2, #10, #11
 538 001a 0390     		str	r0, [sp, #12]
1162:lvgl/src/lv_widgets/lv_canvas.c **** 
 539              		.loc 1 1162 5 is_stmt 1 view .LVU131
1162:lvgl/src/lv_widgets/lv_canvas.c **** 
 540              		.loc 1 1162 17 is_stmt 0 view .LVU132
 541 001c 0C23     		movs	r3, #12
 542              	.LVL45:
1162:lvgl/src/lv_widgets/lv_canvas.c **** 
 543              		.loc 1 1162 17 view .LVU133
 544 001e 63F30400 		bfi	r0, r3, #0, #5
 545 0022 8DF80C00 		strb	r0, [sp, #12]
1164:lvgl/src/lv_widgets/lv_canvas.c **** }
 546              		.loc 1 1164 5 is_stmt 1 view .LVU134
 547 0026 0094     		str	r4, [sp]
 548 0028 BDF82C30 		ldrh	r3, [sp, #44]
 549 002c BDF92820 		ldrsh	r2, [sp, #40]
 550              	.LVL46:
1164:lvgl/src/lv_widgets/lv_canvas.c **** }
 551              		.loc 1 1164 5 is_stmt 0 view .LVU135
 552 0030 2946     		mov	r1, r5
 553              	.LVL47:
1164:lvgl/src/lv_widgets/lv_canvas.c **** }
 554              		.loc 1 1164 5 view .LVU136
 555 0032 03A8     		add	r0, sp, #12
 556 0034 FFF7FEFF 		bl	set_px_alpha_generic
 557              	.LVL48:
1164:lvgl/src/lv_widgets/lv_canvas.c **** }
 558              		.loc 1 1164 5 view .LVU137
 559 0038 E8E7     		b	.L32
 560              		.cfi_endproc
 561              	.LFE478:
 563              		.section	.text.set_px_cb_alpha1,"ax",%progbits
 564              		.align	1
 565              		.syntax unified
 566              		.thumb
 567              		.thumb_func
 568              		.fpu fpv4-sp-d16
 570              	set_px_cb_alpha1:
 571              	.LVL49:
 572              	.LFB477:
1141:lvgl/src/lv_widgets/lv_canvas.c ****     (void) disp_drv; /*Unused*/
 573              		.loc 1 1141 1 is_stmt 1 view -0
 574              		.cfi_startproc
 575              		@ args = 12, pretend = 0, frame = 16
 576              		@ frame_needed = 0, uses_anonymous_args = 0
1141:lvgl/src/lv_widgets/lv_canvas.c ****     (void) disp_drv; /*Unused*/
 577              		.loc 1 1141 1 is_stmt 0 view .LVU139
ARM GAS  D:\Temp\cc0vPyDE.s 			page 44


 578 0000 30B5     		push	{r4, r5, lr}
 579              	.LCFI14:
 580              		.cfi_def_cfa_offset 12
 581              		.cfi_offset 4, -12
 582              		.cfi_offset 5, -8
 583              		.cfi_offset 14, -4
 584 0002 87B0     		sub	sp, sp, #28
 585              	.LCFI15:
 586              		.cfi_def_cfa_offset 40
 587 0004 9DF83040 		ldrb	r4, [sp, #48]	@ zero_extendqisi2
1142:lvgl/src/lv_widgets/lv_canvas.c **** 
 588              		.loc 1 1142 5 is_stmt 1 view .LVU140
1144:lvgl/src/lv_widgets/lv_canvas.c ****     lv_img_dsc_t d;
 589              		.loc 1 1144 5 view .LVU141
1144:lvgl/src/lv_widgets/lv_canvas.c ****     lv_img_dsc_t d;
 590              		.loc 1 1144 7 is_stmt 0 view .LVU142
 591 0008 022C     		cmp	r4, #2
 592 000a 01D8     		bhi	.L41
 593              	.LVL50:
 594              	.L37:
1151:lvgl/src/lv_widgets/lv_canvas.c **** 
 595              		.loc 1 1151 1 view .LVU143
 596 000c 07B0     		add	sp, sp, #28
 597              	.LCFI16:
 598              		.cfi_remember_state
 599              		.cfi_def_cfa_offset 12
 600              		@ sp needed
 601 000e 30BD     		pop	{r4, r5, pc}
 602              	.LVL51:
 603              	.L41:
 604              	.LCFI17:
 605              		.cfi_restore_state
1151:lvgl/src/lv_widgets/lv_canvas.c **** 
 606              		.loc 1 1151 1 view .LVU144
 607 0010 1D46     		mov	r5, r3
1145:lvgl/src/lv_widgets/lv_canvas.c ****     d.data = buf;
 608              		.loc 1 1145 5 is_stmt 1 view .LVU145
1146:lvgl/src/lv_widgets/lv_canvas.c ****     d.header.w = buf_w;
 609              		.loc 1 1146 5 view .LVU146
1146:lvgl/src/lv_widgets/lv_canvas.c ****     d.header.w = buf_w;
 610              		.loc 1 1146 12 is_stmt 0 view .LVU147
 611 0012 0591     		str	r1, [sp, #20]
1147:lvgl/src/lv_widgets/lv_canvas.c ****     d.header.cf = LV_IMG_CF_ALPHA_1BIT;
 612              		.loc 1 1147 5 is_stmt 1 view .LVU148
1147:lvgl/src/lv_widgets/lv_canvas.c ****     d.header.cf = LV_IMG_CF_ALPHA_1BIT;
 613              		.loc 1 1147 16 is_stmt 0 view .LVU149
 614 0014 0398     		ldr	r0, [sp, #12]
 615              	.LVL52:
1147:lvgl/src/lv_widgets/lv_canvas.c ****     d.header.cf = LV_IMG_CF_ALPHA_1BIT;
 616              		.loc 1 1147 16 view .LVU150
 617 0016 62F39420 		bfi	r0, r2, #10, #11
 618 001a 0390     		str	r0, [sp, #12]
1148:lvgl/src/lv_widgets/lv_canvas.c **** 
 619              		.loc 1 1148 5 is_stmt 1 view .LVU151
1148:lvgl/src/lv_widgets/lv_canvas.c **** 
 620              		.loc 1 1148 17 is_stmt 0 view .LVU152
 621 001c 0B23     		movs	r3, #11
ARM GAS  D:\Temp\cc0vPyDE.s 			page 45


 622              	.LVL53:
1148:lvgl/src/lv_widgets/lv_canvas.c **** 
 623              		.loc 1 1148 17 view .LVU153
 624 001e 63F30400 		bfi	r0, r3, #0, #5
 625 0022 8DF80C00 		strb	r0, [sp, #12]
1150:lvgl/src/lv_widgets/lv_canvas.c **** }
 626              		.loc 1 1150 5 is_stmt 1 view .LVU154
 627 0026 0094     		str	r4, [sp]
 628 0028 BDF82C30 		ldrh	r3, [sp, #44]
 629 002c BDF92820 		ldrsh	r2, [sp, #40]
 630              	.LVL54:
1150:lvgl/src/lv_widgets/lv_canvas.c **** }
 631              		.loc 1 1150 5 is_stmt 0 view .LVU155
 632 0030 2946     		mov	r1, r5
 633              	.LVL55:
1150:lvgl/src/lv_widgets/lv_canvas.c **** }
 634              		.loc 1 1150 5 view .LVU156
 635 0032 03A8     		add	r0, sp, #12
 636 0034 FFF7FEFF 		bl	set_px_alpha_generic
 637              	.LVL56:
1150:lvgl/src/lv_widgets/lv_canvas.c **** }
 638              		.loc 1 1150 5 view .LVU157
 639 0038 E8E7     		b	.L37
 640              		.cfi_endproc
 641              	.LFE477:
 643              		.section	.text.set_px_true_color_alpha,"ax",%progbits
 644              		.align	1
 645              		.syntax unified
 646              		.thumb
 647              		.thumb_func
 648              		.fpu fpv4-sp-d16
 650              	set_px_true_color_alpha:
 651              	.LVL57:
 652              	.LFB482:
1208:lvgl/src/lv_widgets/lv_canvas.c **** 
1209:lvgl/src/lv_widgets/lv_canvas.c **** static void set_px_true_color_alpha(lv_disp_drv_t * disp_drv, uint8_t * buf, lv_coord_t buf_w, lv_c
1210:lvgl/src/lv_widgets/lv_canvas.c ****                                     lv_coord_t y,
1211:lvgl/src/lv_widgets/lv_canvas.c ****                                     lv_color_t color, lv_opa_t opa)
1212:lvgl/src/lv_widgets/lv_canvas.c **** {
 653              		.loc 1 1212 1 is_stmt 1 view -0
 654              		.cfi_startproc
 655              		@ args = 12, pretend = 0, frame = 24
 656              		@ frame_needed = 0, uses_anonymous_args = 0
 657              		.loc 1 1212 1 is_stmt 0 view .LVU159
 658 0000 F0B5     		push	{r4, r5, r6, r7, lr}
 659              	.LCFI18:
 660              		.cfi_def_cfa_offset 20
 661              		.cfi_offset 4, -20
 662              		.cfi_offset 5, -16
 663              		.cfi_offset 6, -12
 664              		.cfi_offset 7, -8
 665              		.cfi_offset 14, -4
 666 0002 87B0     		sub	sp, sp, #28
 667              	.LCFI19:
 668              		.cfi_def_cfa_offset 48
 669 0004 BDF93060 		ldrsh	r6, [sp, #48]
 670 0008 BDF83400 		ldrh	r0, [sp, #52]
ARM GAS  D:\Temp\cc0vPyDE.s 			page 46


 671              	.LVL58:
 672              		.loc 1 1212 1 view .LVU160
 673 000c ADF80400 		strh	r0, [sp, #4]	@ movhi
 674 0010 9DF83840 		ldrb	r4, [sp, #56]	@ zero_extendqisi2
1213:lvgl/src/lv_widgets/lv_canvas.c ****     (void) disp_drv; /*Unused*/
 675              		.loc 1 1213 5 is_stmt 1 view .LVU161
1214:lvgl/src/lv_widgets/lv_canvas.c **** 
1215:lvgl/src/lv_widgets/lv_canvas.c ****     if(opa <= LV_OPA_MIN) return;
 676              		.loc 1 1215 5 view .LVU162
 677              		.loc 1 1215 7 is_stmt 0 view .LVU163
 678 0014 022C     		cmp	r4, #2
 679 0016 01D8     		bhi	.L53
 680              	.LVL59:
 681              	.L42:
1216:lvgl/src/lv_widgets/lv_canvas.c ****     lv_img_dsc_t d;
1217:lvgl/src/lv_widgets/lv_canvas.c ****     d.data = buf;
1218:lvgl/src/lv_widgets/lv_canvas.c ****     d.header.always_zero = 0;
1219:lvgl/src/lv_widgets/lv_canvas.c ****     d.header.h = LV_VER_RES_MAX;
1220:lvgl/src/lv_widgets/lv_canvas.c ****     d.header.w = buf_w;
1221:lvgl/src/lv_widgets/lv_canvas.c ****     d.header.cf = LV_IMG_CF_TRUE_COLOR_ALPHA;
1222:lvgl/src/lv_widgets/lv_canvas.c **** 
1223:lvgl/src/lv_widgets/lv_canvas.c ****     lv_color_t bg_color = lv_img_buf_get_px_color(&d, x, y, LV_COLOR_BLACK);
1224:lvgl/src/lv_widgets/lv_canvas.c ****     lv_opa_t bg_opa = lv_img_buf_get_px_alpha(&d, x, y);
1225:lvgl/src/lv_widgets/lv_canvas.c **** 
1226:lvgl/src/lv_widgets/lv_canvas.c ****     lv_opa_t res_opa;
1227:lvgl/src/lv_widgets/lv_canvas.c ****     lv_color_t res_color;
1228:lvgl/src/lv_widgets/lv_canvas.c **** 
1229:lvgl/src/lv_widgets/lv_canvas.c ****     lv_color_mix_with_alpha(bg_color, bg_opa, color, opa, &res_color, &res_opa);
1230:lvgl/src/lv_widgets/lv_canvas.c **** 
1231:lvgl/src/lv_widgets/lv_canvas.c ****     lv_img_buf_set_px_alpha(&d, x, y, res_opa);
1232:lvgl/src/lv_widgets/lv_canvas.c ****     lv_img_buf_set_px_color(&d, x, y, res_color);
1233:lvgl/src/lv_widgets/lv_canvas.c **** }
 682              		.loc 1 1233 1 view .LVU164
 683 0018 07B0     		add	sp, sp, #28
 684              	.LCFI20:
 685              		.cfi_remember_state
 686              		.cfi_def_cfa_offset 20
 687              		@ sp needed
 688 001a F0BD     		pop	{r4, r5, r6, r7, pc}
 689              	.LVL60:
 690              	.L53:
 691              	.LCFI21:
 692              		.cfi_restore_state
 693              		.loc 1 1233 1 view .LVU165
 694 001c 1D46     		mov	r5, r3
1216:lvgl/src/lv_widgets/lv_canvas.c ****     lv_img_dsc_t d;
 695              		.loc 1 1216 5 is_stmt 1 view .LVU166
1217:lvgl/src/lv_widgets/lv_canvas.c ****     d.header.always_zero = 0;
 696              		.loc 1 1217 5 view .LVU167
1217:lvgl/src/lv_widgets/lv_canvas.c ****     d.header.always_zero = 0;
 697              		.loc 1 1217 12 is_stmt 0 view .LVU168
 698 001e 0591     		str	r1, [sp, #20]
1218:lvgl/src/lv_widgets/lv_canvas.c ****     d.header.h = LV_VER_RES_MAX;
 699              		.loc 1 1218 5 is_stmt 1 view .LVU169
1218:lvgl/src/lv_widgets/lv_canvas.c ****     d.header.h = LV_VER_RES_MAX;
 700              		.loc 1 1218 26 is_stmt 0 view .LVU170
 701 0020 9DF80C30 		ldrb	r3, [sp, #12]	@ zero_extendqisi2
ARM GAS  D:\Temp\cc0vPyDE.s 			page 47


 702              	.LVL61:
1218:lvgl/src/lv_widgets/lv_canvas.c ****     d.header.h = LV_VER_RES_MAX;
 703              		.loc 1 1218 26 view .LVU171
 704 0024 6FF34713 		bfc	r3, #5, #3
 705 0028 8DF80C30 		strb	r3, [sp, #12]
1219:lvgl/src/lv_widgets/lv_canvas.c ****     d.header.w = buf_w;
 706              		.loc 1 1219 5 is_stmt 1 view .LVU172
1219:lvgl/src/lv_widgets/lv_canvas.c ****     d.header.w = buf_w;
 707              		.loc 1 1219 16 is_stmt 0 view .LVU173
 708 002c BDF80E30 		ldrh	r3, [sp, #14]
 709 0030 F021     		movs	r1, #240
 710              	.LVL62:
1219:lvgl/src/lv_widgets/lv_canvas.c ****     d.header.w = buf_w;
 711              		.loc 1 1219 16 view .LVU174
 712 0032 61F34F13 		bfi	r3, r1, #5, #11
 713 0036 ADF80E30 		strh	r3, [sp, #14]	@ movhi
1220:lvgl/src/lv_widgets/lv_canvas.c ****     d.header.cf = LV_IMG_CF_TRUE_COLOR_ALPHA;
 714              		.loc 1 1220 5 is_stmt 1 view .LVU175
1220:lvgl/src/lv_widgets/lv_canvas.c ****     d.header.cf = LV_IMG_CF_TRUE_COLOR_ALPHA;
 715              		.loc 1 1220 16 is_stmt 0 view .LVU176
 716 003a 039B     		ldr	r3, [sp, #12]
 717 003c 62F39423 		bfi	r3, r2, #10, #11
 718 0040 0393     		str	r3, [sp, #12]
1221:lvgl/src/lv_widgets/lv_canvas.c **** 
 719              		.loc 1 1221 5 is_stmt 1 view .LVU177
1221:lvgl/src/lv_widgets/lv_canvas.c **** 
 720              		.loc 1 1221 17 is_stmt 0 view .LVU178
 721 0042 0522     		movs	r2, #5
 722              	.LVL63:
1221:lvgl/src/lv_widgets/lv_canvas.c **** 
 723              		.loc 1 1221 17 view .LVU179
 724 0044 62F30403 		bfi	r3, r2, #0, #5
 725 0048 8DF80C30 		strb	r3, [sp, #12]
1223:lvgl/src/lv_widgets/lv_canvas.c ****     lv_opa_t bg_opa = lv_img_buf_get_px_alpha(&d, x, y);
 726              		.loc 1 1223 5 is_stmt 1 view .LVU180
1223:lvgl/src/lv_widgets/lv_canvas.c ****     lv_opa_t bg_opa = lv_img_buf_get_px_alpha(&d, x, y);
 727              		.loc 1 1223 27 is_stmt 0 view .LVU181
 728 004c 4FF00003 		mov	r3, #0	@ movhi
 729 0050 3246     		mov	r2, r6
 730 0052 2946     		mov	r1, r5
 731 0054 03A8     		add	r0, sp, #12
 732 0056 FFF7FEFF 		bl	lv_img_buf_get_px_color
 733              	.LVL64:
1223:lvgl/src/lv_widgets/lv_canvas.c ****     lv_opa_t bg_opa = lv_img_buf_get_px_alpha(&d, x, y);
 734              		.loc 1 1223 27 view .LVU182
 735 005a 0746     		mov	r7, r0	@ movhi
 736              	.LVL65:
1224:lvgl/src/lv_widgets/lv_canvas.c **** 
 737              		.loc 1 1224 5 is_stmt 1 view .LVU183
1224:lvgl/src/lv_widgets/lv_canvas.c **** 
 738              		.loc 1 1224 23 is_stmt 0 view .LVU184
 739 005c 3246     		mov	r2, r6
 740 005e 2946     		mov	r1, r5
 741 0060 03A8     		add	r0, sp, #12
 742 0062 FFF7FEFF 		bl	lv_img_buf_get_px_alpha
 743              	.LVL66:
1226:lvgl/src/lv_widgets/lv_canvas.c ****     lv_color_t res_color;
ARM GAS  D:\Temp\cc0vPyDE.s 			page 48


 744              		.loc 1 1226 5 is_stmt 1 view .LVU185
1227:lvgl/src/lv_widgets/lv_canvas.c **** 
 745              		.loc 1 1227 5 view .LVU186
1229:lvgl/src/lv_widgets/lv_canvas.c **** 
 746              		.loc 1 1229 5 view .LVU187
 747              	.LBB74:
 748              	.LBI74:
 523:lvgl/src/lv_widgets/../lv_core/../lv_misc/lv_color.h ****                                                                  lv_color_t fg_color, lv_opa_t fg_o
 749              		.loc 2 523 42 view .LVU188
 750              	.LBB75:
 528:lvgl/src/lv_widgets/../lv_core/../lv_misc/lv_color.h ****         res_color->full = fg_color.full;
 751              		.loc 2 528 5 view .LVU189
 528:lvgl/src/lv_widgets/../lv_core/../lv_misc/lv_color.h ****         res_color->full = fg_color.full;
 752              		.loc 2 528 7 is_stmt 0 view .LVU190
 753 0066 FC2C     		cmp	r4, #252
 754 0068 01D8     		bhi	.L45
 528:lvgl/src/lv_widgets/../lv_core/../lv_misc/lv_color.h ****         res_color->full = fg_color.full;
 755              		.loc 2 528 29 view .LVU191
 756 006a 0228     		cmp	r0, #2
 757 006c 0ED8     		bhi	.L46
 758              	.L45:
 529:lvgl/src/lv_widgets/../lv_core/../lv_misc/lv_color.h ****         *res_opa = fg_opa;
 759              		.loc 2 529 9 is_stmt 1 view .LVU192
 529:lvgl/src/lv_widgets/../lv_core/../lv_misc/lv_color.h ****         *res_opa = fg_opa;
 760              		.loc 2 529 25 is_stmt 0 view .LVU193
 761 006e BDF80470 		ldrh	r7, [sp, #4]
 530:lvgl/src/lv_widgets/../lv_core/../lv_misc/lv_color.h ****     }
 762              		.loc 2 530 9 is_stmt 1 view .LVU194
 763              	.LVL67:
 764              	.L47:
 530:lvgl/src/lv_widgets/../lv_core/../lv_misc/lv_color.h ****     }
 765              		.loc 2 530 9 is_stmt 0 view .LVU195
 766              	.LBE75:
 767              	.LBE74:
1231:lvgl/src/lv_widgets/lv_canvas.c ****     lv_img_buf_set_px_color(&d, x, y, res_color);
 768              		.loc 1 1231 5 is_stmt 1 view .LVU196
 769 0072 2346     		mov	r3, r4
 770 0074 3246     		mov	r2, r6
 771              	.LVL68:
1231:lvgl/src/lv_widgets/lv_canvas.c ****     lv_img_buf_set_px_color(&d, x, y, res_color);
 772              		.loc 1 1231 5 is_stmt 0 view .LVU197
 773 0076 2946     		mov	r1, r5
 774              	.LVL69:
1231:lvgl/src/lv_widgets/lv_canvas.c ****     lv_img_buf_set_px_color(&d, x, y, res_color);
 775              		.loc 1 1231 5 view .LVU198
 776 0078 03A8     		add	r0, sp, #12
 777 007a FFF7FEFF 		bl	lv_img_buf_set_px_alpha
 778              	.LVL70:
1232:lvgl/src/lv_widgets/lv_canvas.c **** }
 779              		.loc 1 1232 5 is_stmt 1 view .LVU199
1232:lvgl/src/lv_widgets/lv_canvas.c **** }
 780              		.loc 1 1232 5 is_stmt 0 view .LVU200
 781 007e 3B46     		mov	r3, r7	@ movhi
 782 0080 3246     		mov	r2, r6
 783 0082 2946     		mov	r1, r5
 784 0084 03A8     		add	r0, sp, #12
 785 0086 FFF7FEFF 		bl	lv_img_buf_set_px_color
ARM GAS  D:\Temp\cc0vPyDE.s 			page 49


 786              	.LVL71:
1232:lvgl/src/lv_widgets/lv_canvas.c **** }
 787              		.loc 1 1232 5 view .LVU201
 788 008a C5E7     		b	.L42
 789              	.LVL72:
 790              	.L46:
 791              	.LBB83:
 792              	.LBB82:
 533:lvgl/src/lv_widgets/../lv_core/../lv_misc/lv_color.h ****         res_color->full = bg_color.full;
 793              		.loc 2 533 10 is_stmt 1 view .LVU202
 533:lvgl/src/lv_widgets/../lv_core/../lv_misc/lv_color.h ****         res_color->full = bg_color.full;
 794              		.loc 2 533 12 is_stmt 0 view .LVU203
 795 008c 022C     		cmp	r4, #2
 796 008e 01D8     		bhi	.L48
 534:lvgl/src/lv_widgets/../lv_core/../lv_misc/lv_color.h ****         *res_opa = bg_opa;
 797              		.loc 2 534 9 is_stmt 1 view .LVU204
 535:lvgl/src/lv_widgets/../lv_core/../lv_misc/lv_color.h ****     }
 798              		.loc 2 535 9 view .LVU205
 799              	.LVL73:
 535:lvgl/src/lv_widgets/../lv_core/../lv_misc/lv_color.h ****     }
 800              		.loc 2 535 18 is_stmt 0 view .LVU206
 801 0090 0446     		mov	r4, r0
 802              	.LVL74:
 535:lvgl/src/lv_widgets/../lv_core/../lv_misc/lv_color.h ****     }
 803              		.loc 2 535 18 view .LVU207
 804 0092 EEE7     		b	.L47
 805              	.LVL75:
 806              	.L48:
 538:lvgl/src/lv_widgets/../lv_core/../lv_misc/lv_color.h ****         *res_color = lv_color_mix(fg_color, bg_color, fg_opa);
 807              		.loc 2 538 10 is_stmt 1 view .LVU208
 538:lvgl/src/lv_widgets/../lv_core/../lv_misc/lv_color.h ****         *res_color = lv_color_mix(fg_color, bg_color, fg_opa);
 808              		.loc 2 538 12 is_stmt 0 view .LVU209
 809 0094 FC28     		cmp	r0, #252
 810 0096 3ED9     		bls	.L49
 539:lvgl/src/lv_widgets/../lv_core/../lv_misc/lv_color.h ****         *res_opa = LV_OPA_COVER;
 811              		.loc 2 539 9 is_stmt 1 view .LVU210
 812              	.LVL76:
 813              	.LBB76:
 814              	.LBI76:
 447:lvgl/src/lv_widgets/../lv_core/../lv_misc/lv_color.h **** {
 815              		.loc 2 447 48 view .LVU211
 816              	.LBB77:
 449:lvgl/src/lv_widgets/../lv_core/../lv_misc/lv_color.h **** #if LV_COLOR_DEPTH != 1
 817              		.loc 2 449 5 view .LVU212
 452:lvgl/src/lv_widgets/../lv_core/../lv_misc/lv_color.h ****                                         (255 - mix) + LV_COLOR_MIX_ROUND_OFS));
 818              		.loc 2 452 5 view .LVU213
 819 0098 BDF80430 		ldrh	r3, [sp, #4]
 820 009c DB0A     		lsrs	r3, r3, #11
 821              	.LVL77:
 452:lvgl/src/lv_widgets/../lv_core/../lv_misc/lv_color.h ****                                         (255 - mix) + LV_COLOR_MIX_ROUND_OFS));
 822              		.loc 2 452 5 is_stmt 0 view .LVU214
 823 009e C7F3C422 		ubfx	r2, r7, #11, #5
 824 00a2 C4F1FF01 		rsb	r1, r4, #255
 825 00a6 01FB02F2 		mul	r2, r1, r2
 826 00aa 04FB0323 		mla	r3, r4, r3, r2
 827 00ae 8033     		adds	r3, r3, #128
 828 00b0 03EB0322 		add	r2, r3, r3, lsl #8
ARM GAS  D:\Temp\cc0vPyDE.s 			page 50


 829 00b4 03EBC213 		add	r3, r3, r2, lsl #7
 830 00b8 C3F3C453 		ubfx	r3, r3, #23, #5
 831 00bc 4FF00002 		mov	r2, #0	@ movhi
 452:lvgl/src/lv_widgets/../lv_core/../lv_misc/lv_color.h ****                                         (255 - mix) + LV_COLOR_MIX_ROUND_OFS));
 832              		.loc 2 452 5 view .LVU215
 833 00c0 63F3CF22 		bfi	r2, r3, #11, #5
 834              	.LVL78:
 454:lvgl/src/lv_widgets/../lv_core/../lv_misc/lv_color.h ****                                         (255 - mix) + LV_COLOR_MIX_ROUND_OFS));
 835              		.loc 2 454 5 is_stmt 1 view .LVU216
 836 00c4 BDF80430 		ldrh	r3, [sp, #4]
 837 00c8 C3F34513 		ubfx	r3, r3, #5, #6
 838 00cc C7F34510 		ubfx	r0, r7, #5, #6
 839              	.LVL79:
 454:lvgl/src/lv_widgets/../lv_core/../lv_misc/lv_color.h ****                                         (255 - mix) + LV_COLOR_MIX_ROUND_OFS));
 840              		.loc 2 454 5 is_stmt 0 view .LVU217
 841 00d0 00FB01F0 		mul	r0, r0, r1
 842 00d4 03FB0403 		mla	r3, r3, r4, r0
 843 00d8 8033     		adds	r3, r3, #128
 844 00da 03EB0320 		add	r0, r3, r3, lsl #8
 845 00de 03EBC013 		add	r3, r3, r0, lsl #7
 846 00e2 C3F3C553 		ubfx	r3, r3, #23, #6
 847 00e6 63F34A12 		bfi	r2, r3, #5, #6
 456:lvgl/src/lv_widgets/../lv_core/../lv_misc/lv_color.h ****                                         (255 - mix) + LV_COLOR_MIX_ROUND_OFS));
 848              		.loc 2 456 5 is_stmt 1 view .LVU218
 849 00ea BDF80430 		ldrh	r3, [sp, #4]
 850 00ee 03F01F03 		and	r3, r3, #31
 851 00f2 07F01F07 		and	r7, r7, #31
 852              	.LVL80:
 456:lvgl/src/lv_widgets/../lv_core/../lv_misc/lv_color.h ****                                         (255 - mix) + LV_COLOR_MIX_ROUND_OFS));
 853              		.loc 2 456 5 is_stmt 0 view .LVU219
 854 00f6 07FB01F1 		mul	r1, r7, r1
 855 00fa 03FB0414 		mla	r4, r3, r4, r1
 856              	.LVL81:
 456:lvgl/src/lv_widgets/../lv_core/../lv_misc/lv_color.h ****                                         (255 - mix) + LV_COLOR_MIX_ROUND_OFS));
 857              		.loc 2 456 5 view .LVU220
 858 00fe 8034     		adds	r4, r4, #128
 859 0100 04EB0423 		add	r3, r4, r4, lsl #8
 860 0104 04EBC314 		add	r4, r4, r3, lsl #7
 861 0108 C4F3C454 		ubfx	r4, r4, #23, #5
 862 010c 64F30402 		bfi	r2, r4, #0, #5
 458:lvgl/src/lv_widgets/../lv_core/../lv_misc/lv_color.h **** #else
 863              		.loc 2 458 5 is_stmt 1 view .LVU221
 458:lvgl/src/lv_widgets/../lv_core/../lv_misc/lv_color.h **** #else
 864              		.loc 2 458 5 view .LVU222
 464:lvgl/src/lv_widgets/../lv_core/../lv_misc/lv_color.h **** }
 865              		.loc 2 464 5 view .LVU223
 464:lvgl/src/lv_widgets/../lv_core/../lv_misc/lv_color.h **** }
 866              		.loc 2 464 5 is_stmt 0 view .LVU224
 867              	.LBE77:
 868              	.LBE76:
 539:lvgl/src/lv_widgets/../lv_core/../lv_misc/lv_color.h ****         *res_opa = LV_OPA_COVER;
 869              		.loc 2 539 22 view .LVU225
 870 0110 1746     		mov	r7, r2	@ movhi
 540:lvgl/src/lv_widgets/../lv_core/../lv_misc/lv_color.h ****     }
 871              		.loc 2 540 9 is_stmt 1 view .LVU226
 872              	.LVL82:
 540:lvgl/src/lv_widgets/../lv_core/../lv_misc/lv_color.h ****     }
ARM GAS  D:\Temp\cc0vPyDE.s 			page 51


 873              		.loc 2 540 18 is_stmt 0 view .LVU227
 874 0112 FF24     		movs	r4, #255
 875 0114 ADE7     		b	.L47
 876              	.LVL83:
 877              	.L49:
 878              	.LBB78:
 545:lvgl/src/lv_widgets/../lv_core/../lv_misc/lv_color.h ****         static lv_opa_t bg_opa_save     = 0;
 879              		.loc 2 545 9 is_stmt 1 view .LVU228
 546:lvgl/src/lv_widgets/../lv_core/../lv_misc/lv_color.h ****         static lv_color_t fg_color_save = _LV_COLOR_ZERO_INITIALIZER;
 880              		.loc 2 546 9 view .LVU229
 547:lvgl/src/lv_widgets/../lv_core/../lv_misc/lv_color.h ****         static lv_color_t bg_color_save = _LV_COLOR_ZERO_INITIALIZER;
 881              		.loc 2 547 9 view .LVU230
 548:lvgl/src/lv_widgets/../lv_core/../lv_misc/lv_color.h ****         static lv_color_t res_color_saved = _LV_COLOR_ZERO_INITIALIZER;
 882              		.loc 2 548 9 view .LVU231
 549:lvgl/src/lv_widgets/../lv_core/../lv_misc/lv_color.h ****         static lv_opa_t res_opa_saved = 0;
 883              		.loc 2 549 9 view .LVU232
 550:lvgl/src/lv_widgets/../lv_core/../lv_misc/lv_color.h **** 
 884              		.loc 2 550 9 view .LVU233
 552:lvgl/src/lv_widgets/../lv_core/../lv_misc/lv_color.h ****            bg_color.full != bg_color_save.full) {
 885              		.loc 2 552 9 view .LVU234
 552:lvgl/src/lv_widgets/../lv_core/../lv_misc/lv_color.h ****            bg_color.full != bg_color_save.full) {
 886              		.loc 2 552 19 is_stmt 0 view .LVU235
 887 0116 3A4B     		ldr	r3, .L55
 888 0118 1B78     		ldrb	r3, [r3]	@ zero_extendqisi2
 552:lvgl/src/lv_widgets/../lv_core/../lv_misc/lv_color.h ****            bg_color.full != bg_color_save.full) {
 889              		.loc 2 552 11 view .LVU236
 890 011a 9C42     		cmp	r4, r3
 891 011c 5FD0     		beq	.L54
 892              	.LVL84:
 893              	.L50:
 894              	.LBB79:
 554:lvgl/src/lv_widgets/../lv_core/../lv_misc/lv_color.h ****             bg_opa_save        = bg_opa;
 895              		.loc 2 554 13 is_stmt 1 view .LVU237
 554:lvgl/src/lv_widgets/../lv_core/../lv_misc/lv_color.h ****             bg_opa_save        = bg_opa;
 896              		.loc 2 554 32 is_stmt 0 view .LVU238
 897 011e 384B     		ldr	r3, .L55
 898 0120 1C70     		strb	r4, [r3]
 555:lvgl/src/lv_widgets/../lv_core/../lv_misc/lv_color.h ****             fg_color_save.full = fg_color.full;
 899              		.loc 2 555 13 is_stmt 1 view .LVU239
 555:lvgl/src/lv_widgets/../lv_core/../lv_misc/lv_color.h ****             fg_color_save.full = fg_color.full;
 900              		.loc 2 555 32 is_stmt 0 view .LVU240
 901 0122 384B     		ldr	r3, .L55+4
 902 0124 1870     		strb	r0, [r3]
 556:lvgl/src/lv_widgets/../lv_core/../lv_misc/lv_color.h ****             bg_color_save.full = bg_color.full;
 903              		.loc 2 556 13 is_stmt 1 view .LVU241
 556:lvgl/src/lv_widgets/../lv_core/../lv_misc/lv_color.h ****             bg_color_save.full = bg_color.full;
 904              		.loc 2 556 32 is_stmt 0 view .LVU242
 905 0126 384B     		ldr	r3, .L55+8
 906 0128 BDF80420 		ldrh	r2, [sp, #4]
 907              	.LVL85:
 556:lvgl/src/lv_widgets/../lv_core/../lv_misc/lv_color.h ****             bg_color_save.full = bg_color.full;
 908              		.loc 2 556 32 view .LVU243
 909 012c 1A80     		strh	r2, [r3]	@ movhi
 557:lvgl/src/lv_widgets/../lv_core/../lv_misc/lv_color.h ****             /*Info:
 910              		.loc 2 557 13 is_stmt 1 view .LVU244
 557:lvgl/src/lv_widgets/../lv_core/../lv_misc/lv_color.h ****             /*Info:
 911              		.loc 2 557 32 is_stmt 0 view .LVU245
ARM GAS  D:\Temp\cc0vPyDE.s 			page 52


 912 012e 374B     		ldr	r3, .L55+12
 913 0130 1F80     		strh	r7, [r3]	@ movhi
 560:lvgl/src/lv_widgets/../lv_core/../lv_misc/lv_color.h ****             if(res_opa_saved == 0) {
 914              		.loc 2 560 13 is_stmt 1 view .LVU246
 560:lvgl/src/lv_widgets/../lv_core/../lv_misc/lv_color.h ****             if(res_opa_saved == 0) {
 915              		.loc 2 560 47 is_stmt 0 view .LVU247
 916 0132 A4B2     		uxth	r4, r4
 917              	.LVL86:
 560:lvgl/src/lv_widgets/../lv_core/../lv_misc/lv_color.h ****             if(res_opa_saved == 0) {
 918              		.loc 2 560 47 view .LVU248
 919 0134 C4F1FF02 		rsb	r2, r4, #255
 920              	.LVL87:
 560:lvgl/src/lv_widgets/../lv_core/../lv_misc/lv_color.h ****             if(res_opa_saved == 0) {
 921              		.loc 2 560 79 view .LVU249
 922 0138 C0F1FF03 		rsb	r3, r0, #255
 560:lvgl/src/lv_widgets/../lv_core/../lv_misc/lv_color.h ****             if(res_opa_saved == 0) {
 923              		.loc 2 560 36 view .LVU250
 924 013c 13FB02F3 		smulbb	r3, r3, r2
 560:lvgl/src/lv_widgets/../lv_core/../lv_misc/lv_color.h ****             if(res_opa_saved == 0) {
 925              		.loc 2 560 33 view .LVU251
 926 0140 C3F30723 		ubfx	r3, r3, #8, #8
 927 0144 DB43     		mvns	r3, r3
 928 0146 DBB2     		uxtb	r3, r3
 560:lvgl/src/lv_widgets/../lv_core/../lv_misc/lv_color.h ****             if(res_opa_saved == 0) {
 929              		.loc 2 560 27 view .LVU252
 930 0148 314A     		ldr	r2, .L55+16
 931 014a 1370     		strb	r3, [r2]
 561:lvgl/src/lv_widgets/../lv_core/../lv_misc/lv_color.h ****                 while(1)
 932              		.loc 2 561 13 is_stmt 1 view .LVU253
 565:lvgl/src/lv_widgets/../lv_core/../lv_misc/lv_color.h ****             res_color_saved = lv_color_mix(fg_color, bg_color, ratio);
 933              		.loc 2 565 13 view .LVU254
 565:lvgl/src/lv_widgets/../lv_core/../lv_misc/lv_color.h ****             res_color_saved = lv_color_mix(fg_color, bg_color, ratio);
 934              		.loc 2 565 30 is_stmt 0 view .LVU255
 935 014c C4EB0424 		rsb	r4, r4, r4, lsl #8
 936 0150 A2B2     		uxth	r2, r4
 565:lvgl/src/lv_widgets/../lv_core/../lv_misc/lv_color.h ****             res_color_saved = lv_color_mix(fg_color, bg_color, ratio);
 937              		.loc 2 565 65 view .LVU256
 938 0152 92FBF3F3 		sdiv	r3, r2, r3
 565:lvgl/src/lv_widgets/../lv_core/../lv_misc/lv_color.h ****             res_color_saved = lv_color_mix(fg_color, bg_color, ratio);
 939              		.loc 2 565 22 view .LVU257
 940 0156 DAB2     		uxtb	r2, r3
 941              	.LVL88:
 566:lvgl/src/lv_widgets/../lv_core/../lv_misc/lv_color.h **** 
 942              		.loc 2 566 13 is_stmt 1 view .LVU258
 943              	.LBB80:
 944              	.LBI80:
 447:lvgl/src/lv_widgets/../lv_core/../lv_misc/lv_color.h **** {
 945              		.loc 2 447 48 view .LVU259
 946              	.LBB81:
 449:lvgl/src/lv_widgets/../lv_core/../lv_misc/lv_color.h **** #if LV_COLOR_DEPTH != 1
 947              		.loc 2 449 5 view .LVU260
 452:lvgl/src/lv_widgets/../lv_core/../lv_misc/lv_color.h ****                                         (255 - mix) + LV_COLOR_MIX_ROUND_OFS));
 948              		.loc 2 452 5 view .LVU261
 949 0158 BDF80430 		ldrh	r3, [sp, #4]
 950 015c DB0A     		lsrs	r3, r3, #11
 951 015e C7F3C421 		ubfx	r1, r7, #11, #5
 952 0162 C2F1FF00 		rsb	r0, r2, #255
ARM GAS  D:\Temp\cc0vPyDE.s 			page 53


 953              	.LVL89:
 452:lvgl/src/lv_widgets/../lv_core/../lv_misc/lv_color.h ****                                         (255 - mix) + LV_COLOR_MIX_ROUND_OFS));
 954              		.loc 2 452 5 is_stmt 0 view .LVU262
 955 0166 00FB01F1 		mul	r1, r0, r1
 956 016a 02FB0313 		mla	r3, r2, r3, r1
 957 016e 8033     		adds	r3, r3, #128
 958 0170 03EB0321 		add	r1, r3, r3, lsl #8
 959 0174 03EBC113 		add	r3, r3, r1, lsl #7
 960 0178 C3F3C453 		ubfx	r3, r3, #23, #5
 961 017c 4FF00001 		mov	r1, #0	@ movhi
 452:lvgl/src/lv_widgets/../lv_core/../lv_misc/lv_color.h ****                                         (255 - mix) + LV_COLOR_MIX_ROUND_OFS));
 962              		.loc 2 452 5 view .LVU263
 963 0180 63F3CF21 		bfi	r1, r3, #11, #5
 964              	.LVL90:
 454:lvgl/src/lv_widgets/../lv_core/../lv_misc/lv_color.h ****                                         (255 - mix) + LV_COLOR_MIX_ROUND_OFS));
 965              		.loc 2 454 5 is_stmt 1 view .LVU264
 966 0184 BDF80430 		ldrh	r3, [sp, #4]
 967 0188 C3F34513 		ubfx	r3, r3, #5, #6
 968 018c C7F34514 		ubfx	r4, r7, #5, #6
 969 0190 04FB00F4 		mul	r4, r4, r0
 970 0194 03FB0243 		mla	r3, r3, r2, r4
 971 0198 8033     		adds	r3, r3, #128
 972 019a 03EB0324 		add	r4, r3, r3, lsl #8
 973 019e 03EBC413 		add	r3, r3, r4, lsl #7
 974 01a2 C3F3C553 		ubfx	r3, r3, #23, #6
 975 01a6 63F34A11 		bfi	r1, r3, #5, #6
 456:lvgl/src/lv_widgets/../lv_core/../lv_misc/lv_color.h ****                                         (255 - mix) + LV_COLOR_MIX_ROUND_OFS));
 976              		.loc 2 456 5 view .LVU265
 977 01aa BDF80430 		ldrh	r3, [sp, #4]
 978 01ae 03F01F03 		and	r3, r3, #31
 979 01b2 07F01F07 		and	r7, r7, #31
 980              	.LVL91:
 456:lvgl/src/lv_widgets/../lv_core/../lv_misc/lv_color.h ****                                         (255 - mix) + LV_COLOR_MIX_ROUND_OFS));
 981              		.loc 2 456 5 is_stmt 0 view .LVU266
 982 01b6 07FB00F7 		mul	r7, r7, r0
 983 01ba 03FB0273 		mla	r3, r3, r2, r7
 984 01be 8033     		adds	r3, r3, #128
 985 01c0 03EB0322 		add	r2, r3, r3, lsl #8
 986              	.LVL92:
 456:lvgl/src/lv_widgets/../lv_core/../lv_misc/lv_color.h ****                                         (255 - mix) + LV_COLOR_MIX_ROUND_OFS));
 987              		.loc 2 456 5 view .LVU267
 988 01c4 03EBC213 		add	r3, r3, r2, lsl #7
 989 01c8 C3F3C453 		ubfx	r3, r3, #23, #5
 990 01cc 63F30401 		bfi	r1, r3, #0, #5
 458:lvgl/src/lv_widgets/../lv_core/../lv_misc/lv_color.h **** #else
 991              		.loc 2 458 5 is_stmt 1 view .LVU268
 458:lvgl/src/lv_widgets/../lv_core/../lv_misc/lv_color.h **** #else
 992              		.loc 2 458 5 view .LVU269
 464:lvgl/src/lv_widgets/../lv_core/../lv_misc/lv_color.h **** }
 993              		.loc 2 464 5 view .LVU270
 464:lvgl/src/lv_widgets/../lv_core/../lv_misc/lv_color.h **** }
 994              		.loc 2 464 5 is_stmt 0 view .LVU271
 995              	.LBE81:
 996              	.LBE80:
 566:lvgl/src/lv_widgets/../lv_core/../lv_misc/lv_color.h **** 
 997              		.loc 2 566 31 view .LVU272
 998 01d0 104B     		ldr	r3, .L55+20
ARM GAS  D:\Temp\cc0vPyDE.s 			page 54


 999 01d2 1980     		strh	r1, [r3]	@ movhi
 1000              	.LVL93:
 1001              	.L51:
 566:lvgl/src/lv_widgets/../lv_core/../lv_misc/lv_color.h **** 
 1002              		.loc 2 566 31 view .LVU273
 1003              	.LBE79:
 570:lvgl/src/lv_widgets/../lv_core/../lv_misc/lv_color.h ****         *res_opa = res_opa_saved;
 1004              		.loc 2 570 9 is_stmt 1 view .LVU274
 570:lvgl/src/lv_widgets/../lv_core/../lv_misc/lv_color.h ****         *res_opa = res_opa_saved;
 1005              		.loc 2 570 25 is_stmt 0 view .LVU275
 1006 01d4 0F4B     		ldr	r3, .L55+20
 1007 01d6 1F88     		ldrh	r7, [r3]
 1008              	.LVL94:
 571:lvgl/src/lv_widgets/../lv_core/../lv_misc/lv_color.h ****     }
 1009              		.loc 2 571 9 is_stmt 1 view .LVU276
 571:lvgl/src/lv_widgets/../lv_core/../lv_misc/lv_color.h ****     }
 1010              		.loc 2 571 18 is_stmt 0 view .LVU277
 1011 01d8 0D4B     		ldr	r3, .L55+16
 1012 01da 1C78     		ldrb	r4, [r3]	@ zero_extendqisi2
 1013              	.LVL95:
 571:lvgl/src/lv_widgets/../lv_core/../lv_misc/lv_color.h ****     }
 1014              		.loc 2 571 18 view .LVU278
 1015 01dc 49E7     		b	.L47
 1016              	.LVL96:
 1017              	.L54:
 552:lvgl/src/lv_widgets/../lv_core/../lv_misc/lv_color.h ****            bg_color.full != bg_color_save.full) {
 1018              		.loc 2 552 44 view .LVU279
 1019 01de 094B     		ldr	r3, .L55+4
 1020 01e0 1B78     		ldrb	r3, [r3]	@ zero_extendqisi2
 552:lvgl/src/lv_widgets/../lv_core/../lv_misc/lv_color.h ****            bg_color.full != bg_color_save.full) {
 1021              		.loc 2 552 34 view .LVU280
 1022 01e2 9842     		cmp	r0, r3
 1023 01e4 9BD1     		bne	.L50
 552:lvgl/src/lv_widgets/../lv_core/../lv_misc/lv_color.h ****            bg_color.full != bg_color_save.full) {
 1024              		.loc 2 552 70 view .LVU281
 1025 01e6 BDF80420 		ldrh	r2, [sp, #4]
 552:lvgl/src/lv_widgets/../lv_core/../lv_misc/lv_color.h ****            bg_color.full != bg_color_save.full) {
 1026              		.loc 2 552 92 view .LVU282
 1027 01ea 074B     		ldr	r3, .L55+8
 1028 01ec 1B88     		ldrh	r3, [r3]
 552:lvgl/src/lv_widgets/../lv_core/../lv_misc/lv_color.h ****            bg_color.full != bg_color_save.full) {
 1029              		.loc 2 552 59 view .LVU283
 1030 01ee 9A42     		cmp	r2, r3
 1031 01f0 95D1     		bne	.L50
 1032              	.LVL97:
 553:lvgl/src/lv_widgets/../lv_core/../lv_misc/lv_color.h ****             fg_opa_save        = fg_opa;
 1033              		.loc 2 553 20 view .LVU284
 1034 01f2 BBB2     		uxth	r3, r7
 553:lvgl/src/lv_widgets/../lv_core/../lv_misc/lv_color.h ****             fg_opa_save        = fg_opa;
 1035              		.loc 2 553 42 view .LVU285
 1036 01f4 054A     		ldr	r2, .L55+12
 1037 01f6 1288     		ldrh	r2, [r2]
 552:lvgl/src/lv_widgets/../lv_core/../lv_misc/lv_color.h ****            bg_color.full != bg_color_save.full) {
 1038              		.loc 2 552 98 view .LVU286
 1039 01f8 9342     		cmp	r3, r2
 1040 01fa 90D1     		bne	.L50
 1041 01fc EAE7     		b	.L51
ARM GAS  D:\Temp\cc0vPyDE.s 			page 55


 1042              	.L56:
 1043 01fe 00BF     		.align	2
 1044              	.L55:
 1045 0200 00000000 		.word	.LANCHOR1
 1046 0204 00000000 		.word	.LANCHOR2
 1047 0208 00000000 		.word	.LANCHOR3
 1048 020c 00000000 		.word	.LANCHOR4
 1049 0210 00000000 		.word	.LANCHOR5
 1050 0214 00000000 		.word	.LANCHOR6
 1051              	.LBE78:
 1052              	.LBE82:
 1053              	.LBE83:
 1054              		.cfi_endproc
 1055              	.LFE482:
 1057              		.section	.text.lv_canvas_create,"ax",%progbits
 1058              		.align	1
 1059              		.global	lv_canvas_create
 1060              		.syntax unified
 1061              		.thumb
 1062              		.thumb_func
 1063              		.fpu fpv4-sp-d16
 1065              	lv_canvas_create:
 1066              	.LVL98:
 1067              	.LFB458:
  73:lvgl/src/lv_widgets/lv_canvas.c ****     LV_LOG_TRACE("canvas create started");
 1068              		.loc 1 73 1 is_stmt 1 view -0
 1069              		.cfi_startproc
 1070              		@ args = 0, pretend = 0, frame = 0
 1071              		@ frame_needed = 0, uses_anonymous_args = 0
  73:lvgl/src/lv_widgets/lv_canvas.c ****     LV_LOG_TRACE("canvas create started");
 1072              		.loc 1 73 1 is_stmt 0 view .LVU288
 1073 0000 70B5     		push	{r4, r5, r6, lr}
 1074              	.LCFI22:
 1075              		.cfi_def_cfa_offset 16
 1076              		.cfi_offset 4, -16
 1077              		.cfi_offset 5, -12
 1078              		.cfi_offset 6, -8
 1079              		.cfi_offset 14, -4
 1080 0002 0E46     		mov	r6, r1
  74:lvgl/src/lv_widgets/lv_canvas.c **** 
 1081              		.loc 1 74 42 is_stmt 1 view .LVU289
  77:lvgl/src/lv_widgets/lv_canvas.c ****     LV_ASSERT_MEM(new_canvas);
 1082              		.loc 1 77 5 view .LVU290
  77:lvgl/src/lv_widgets/lv_canvas.c ****     LV_ASSERT_MEM(new_canvas);
 1083              		.loc 1 77 29 is_stmt 0 view .LVU291
 1084 0004 FFF7FEFF 		bl	lv_img_create
 1085              	.LVL99:
  77:lvgl/src/lv_widgets/lv_canvas.c ****     LV_ASSERT_MEM(new_canvas);
 1086              		.loc 1 77 29 view .LVU292
 1087 0008 0446     		mov	r4, r0
 1088              	.LVL100:
  78:lvgl/src/lv_widgets/lv_canvas.c ****     if(new_canvas == NULL) return NULL;
 1089              		.loc 1 78 5 is_stmt 1 view .LVU293
  78:lvgl/src/lv_widgets/lv_canvas.c ****     if(new_canvas == NULL) return NULL;
 1090              		.loc 1 78 5 view .LVU294
 1091 000a FFF7FEFF 		bl	lv_debug_check_null
 1092              	.LVL101:
ARM GAS  D:\Temp\cc0vPyDE.s 			page 56


  78:lvgl/src/lv_widgets/lv_canvas.c ****     if(new_canvas == NULL) return NULL;
 1093              		.loc 1 78 5 is_stmt 0 view .LVU295
 1094 000e 0028     		cmp	r0, #0
 1095 0010 32D0     		beq	.L67
  78:lvgl/src/lv_widgets/lv_canvas.c ****     if(new_canvas == NULL) return NULL;
 1096              		.loc 1 78 30 is_stmt 1 discriminator 2 view .LVU296
  79:lvgl/src/lv_widgets/lv_canvas.c **** 
 1097              		.loc 1 79 5 discriminator 2 view .LVU297
  79:lvgl/src/lv_widgets/lv_canvas.c **** 
 1098              		.loc 1 79 7 is_stmt 0 discriminator 2 view .LVU298
 1099 0012 002C     		cmp	r4, #0
 1100 0014 2ED0     		beq	.L57
  82:lvgl/src/lv_widgets/lv_canvas.c ****     LV_ASSERT_MEM(ext);
 1101              		.loc 1 82 5 is_stmt 1 view .LVU299
  82:lvgl/src/lv_widgets/lv_canvas.c ****     LV_ASSERT_MEM(ext);
 1102              		.loc 1 82 29 is_stmt 0 view .LVU300
 1103 0016 2421     		movs	r1, #36
 1104 0018 2046     		mov	r0, r4
 1105 001a FFF7FEFF 		bl	lv_obj_allocate_ext_attr
 1106              	.LVL102:
 1107 001e 0546     		mov	r5, r0
 1108              	.LVL103:
  83:lvgl/src/lv_widgets/lv_canvas.c ****     if(ext == NULL) {
 1109              		.loc 1 83 5 is_stmt 1 view .LVU301
  83:lvgl/src/lv_widgets/lv_canvas.c ****     if(ext == NULL) {
 1110              		.loc 1 83 5 view .LVU302
 1111 0020 FFF7FEFF 		bl	lv_debug_check_null
 1112              	.LVL104:
  83:lvgl/src/lv_widgets/lv_canvas.c ****     if(ext == NULL) {
 1113              		.loc 1 83 5 is_stmt 0 view .LVU303
 1114 0024 0028     		cmp	r0, #0
 1115 0026 2DD0     		beq	.L68
  83:lvgl/src/lv_widgets/lv_canvas.c ****     if(ext == NULL) {
 1116              		.loc 1 83 23 is_stmt 1 discriminator 2 view .LVU304
  84:lvgl/src/lv_widgets/lv_canvas.c ****         lv_obj_del(new_canvas);
 1117              		.loc 1 84 5 discriminator 2 view .LVU305
  84:lvgl/src/lv_widgets/lv_canvas.c ****         lv_obj_del(new_canvas);
 1118              		.loc 1 84 7 is_stmt 0 discriminator 2 view .LVU306
 1119 0028 002D     		cmp	r5, #0
 1120 002a 31D0     		beq	.L69
  89:lvgl/src/lv_widgets/lv_canvas.c ****     if(ancestor_design == NULL) ancestor_design = lv_obj_get_design_cb(new_canvas);
 1121              		.loc 1 89 5 is_stmt 1 view .LVU307
  89:lvgl/src/lv_widgets/lv_canvas.c ****     if(ancestor_design == NULL) ancestor_design = lv_obj_get_design_cb(new_canvas);
 1122              		.loc 1 89 24 is_stmt 0 view .LVU308
 1123 002c 234B     		ldr	r3, .L73
 1124 002e 1B68     		ldr	r3, [r3]
  89:lvgl/src/lv_widgets/lv_canvas.c ****     if(ancestor_design == NULL) ancestor_design = lv_obj_get_design_cb(new_canvas);
 1125              		.loc 1 89 7 view .LVU309
 1126 0030 002B     		cmp	r3, #0
 1127 0032 32D0     		beq	.L70
 1128              	.L64:
  90:lvgl/src/lv_widgets/lv_canvas.c **** 
 1129              		.loc 1 90 5 is_stmt 1 view .LVU310
  90:lvgl/src/lv_widgets/lv_canvas.c **** 
 1130              		.loc 1 90 24 is_stmt 0 view .LVU311
 1131 0034 224B     		ldr	r3, .L73+4
 1132 0036 1B68     		ldr	r3, [r3]
ARM GAS  D:\Temp\cc0vPyDE.s 			page 57


  90:lvgl/src/lv_widgets/lv_canvas.c **** 
 1133              		.loc 1 90 7 view .LVU312
 1134 0038 002B     		cmp	r3, #0
 1135 003a 34D0     		beq	.L71
 1136              	.L65:
  93:lvgl/src/lv_widgets/lv_canvas.c ****     ext->dsc.header.cf          = LV_IMG_CF_TRUE_COLOR;
 1137              		.loc 1 93 5 is_stmt 1 view .LVU313
  93:lvgl/src/lv_widgets/lv_canvas.c ****     ext->dsc.header.cf          = LV_IMG_CF_TRUE_COLOR;
 1138              		.loc 1 93 33 is_stmt 0 view .LVU314
 1139 003c 2B7E     		ldrb	r3, [r5, #24]	@ zero_extendqisi2
  94:lvgl/src/lv_widgets/lv_canvas.c ****     ext->dsc.header.h           = 0;
 1140              		.loc 1 94 5 is_stmt 1 view .LVU315
  94:lvgl/src/lv_widgets/lv_canvas.c ****     ext->dsc.header.h           = 0;
 1141              		.loc 1 94 33 is_stmt 0 view .LVU316
 1142 003e 03F01F03 		and	r3, r3, #31
 1143 0042 0422     		movs	r2, #4
 1144 0044 62F30403 		bfi	r3, r2, #0, #5
 1145 0048 2B76     		strb	r3, [r5, #24]
  95:lvgl/src/lv_widgets/lv_canvas.c ****     ext->dsc.header.w           = 0;
 1146              		.loc 1 95 5 is_stmt 1 view .LVU317
  95:lvgl/src/lv_widgets/lv_canvas.c ****     ext->dsc.header.w           = 0;
 1147              		.loc 1 95 33 is_stmt 0 view .LVU318
 1148 004a 6B8B     		ldrh	r3, [r5, #26]
 1149 004c 6FF34F13 		bfc	r3, #5, #11
 1150 0050 6B83     		strh	r3, [r5, #26]	@ movhi
  96:lvgl/src/lv_widgets/lv_canvas.c ****     ext->dsc.data_size          = 0;
 1151              		.loc 1 96 5 is_stmt 1 view .LVU319
  96:lvgl/src/lv_widgets/lv_canvas.c ****     ext->dsc.data_size          = 0;
 1152              		.loc 1 96 33 is_stmt 0 view .LVU320
 1153 0052 AB69     		ldr	r3, [r5, #24]
 1154 0054 6FF39423 		bfc	r3, #10, #11
 1155 0058 AB61     		str	r3, [r5, #24]
  97:lvgl/src/lv_widgets/lv_canvas.c ****     ext->dsc.data               = NULL;
 1156              		.loc 1 97 5 is_stmt 1 view .LVU321
  97:lvgl/src/lv_widgets/lv_canvas.c ****     ext->dsc.data               = NULL;
 1157              		.loc 1 97 33 is_stmt 0 view .LVU322
 1158 005a 0023     		movs	r3, #0
 1159 005c EB61     		str	r3, [r5, #28]
  98:lvgl/src/lv_widgets/lv_canvas.c **** 
 1160              		.loc 1 98 5 is_stmt 1 view .LVU323
  98:lvgl/src/lv_widgets/lv_canvas.c **** 
 1161              		.loc 1 98 33 is_stmt 0 view .LVU324
 1162 005e 2B62     		str	r3, [r5, #32]
 100:lvgl/src/lv_widgets/lv_canvas.c **** 
 1163              		.loc 1 100 5 is_stmt 1 view .LVU325
 1164 0060 05F11801 		add	r1, r5, #24
 1165 0064 2046     		mov	r0, r4
 1166 0066 FFF7FEFF 		bl	lv_img_set_src
 1167              	.LVL105:
 103:lvgl/src/lv_widgets/lv_canvas.c **** 
 1168              		.loc 1 103 5 view .LVU326
 1169 006a 1649     		ldr	r1, .L73+8
 1170 006c 2046     		mov	r0, r4
 1171 006e FFF7FEFF 		bl	lv_obj_set_signal_cb
 1172              	.LVL106:
 106:lvgl/src/lv_widgets/lv_canvas.c ****         lv_theme_apply(new_canvas, LV_THEME_CANVAS);
 1173              		.loc 1 106 5 view .LVU327
ARM GAS  D:\Temp\cc0vPyDE.s 			page 58


 106:lvgl/src/lv_widgets/lv_canvas.c ****         lv_theme_apply(new_canvas, LV_THEME_CANVAS);
 1174              		.loc 1 106 7 is_stmt 0 view .LVU328
 1175 0072 F6B1     		cbz	r6, .L72
 1176              	.LVL107:
 1177              	.L57:
 118:lvgl/src/lv_widgets/lv_canvas.c **** 
 1178              		.loc 1 118 1 view .LVU329
 1179 0074 2046     		mov	r0, r4
 1180 0076 70BD     		pop	{r4, r5, r6, pc}
 1181              	.LVL108:
 1182              	.L67:
  78:lvgl/src/lv_widgets/lv_canvas.c ****     if(new_canvas == NULL) return NULL;
 1183              		.loc 1 78 5 is_stmt 1 discriminator 1 view .LVU330
  78:lvgl/src/lv_widgets/lv_canvas.c ****     if(new_canvas == NULL) return NULL;
 1184              		.loc 1 78 5 discriminator 1 view .LVU331
 1185 0078 2246     		mov	r2, r4
 1186 007a 0023     		movs	r3, #0
 1187 007c 1248     		ldr	r0, .L73+12
 1188 007e FFF7FEFF 		bl	lv_debug_log_error
 1189              	.LVL109:
 1190              	.L59:
  78:lvgl/src/lv_widgets/lv_canvas.c ****     if(new_canvas == NULL) return NULL;
 1191              		.loc 1 78 5 discriminator 1 view .LVU332
  78:lvgl/src/lv_widgets/lv_canvas.c ****     if(new_canvas == NULL) return NULL;
 1192              		.loc 1 78 5 discriminator 1 view .LVU333
 1193 0082 FEE7     		b	.L59
 1194              	.LVL110:
 1195              	.L68:
  83:lvgl/src/lv_widgets/lv_canvas.c ****     if(ext == NULL) {
 1196              		.loc 1 83 5 discriminator 1 view .LVU334
  83:lvgl/src/lv_widgets/lv_canvas.c ****     if(ext == NULL) {
 1197              		.loc 1 83 5 discriminator 1 view .LVU335
 1198 0084 2A46     		mov	r2, r5
 1199 0086 0023     		movs	r3, #0
 1200 0088 0F48     		ldr	r0, .L73+12
 1201 008a FFF7FEFF 		bl	lv_debug_log_error
 1202              	.LVL111:
 1203              	.L62:
  83:lvgl/src/lv_widgets/lv_canvas.c ****     if(ext == NULL) {
 1204              		.loc 1 83 5 discriminator 2 view .LVU336
  83:lvgl/src/lv_widgets/lv_canvas.c ****     if(ext == NULL) {
 1205              		.loc 1 83 5 discriminator 2 view .LVU337
 1206 008e FEE7     		b	.L62
 1207              	.L69:
  85:lvgl/src/lv_widgets/lv_canvas.c ****         return NULL;
 1208              		.loc 1 85 9 view .LVU338
 1209 0090 2046     		mov	r0, r4
 1210 0092 FFF7FEFF 		bl	lv_obj_del
 1211              	.LVL112:
  86:lvgl/src/lv_widgets/lv_canvas.c ****     }
 1212              		.loc 1 86 9 view .LVU339
  86:lvgl/src/lv_widgets/lv_canvas.c ****     }
 1213              		.loc 1 86 16 is_stmt 0 view .LVU340
 1214 0096 0024     		movs	r4, #0
 1215              	.LVL113:
  86:lvgl/src/lv_widgets/lv_canvas.c ****     }
 1216              		.loc 1 86 16 view .LVU341
ARM GAS  D:\Temp\cc0vPyDE.s 			page 59


 1217 0098 ECE7     		b	.L57
 1218              	.LVL114:
 1219              	.L70:
  89:lvgl/src/lv_widgets/lv_canvas.c ****     if(ancestor_design == NULL) ancestor_design = lv_obj_get_design_cb(new_canvas);
 1220              		.loc 1 89 33 is_stmt 1 discriminator 1 view .LVU342
  89:lvgl/src/lv_widgets/lv_canvas.c ****     if(ancestor_design == NULL) ancestor_design = lv_obj_get_design_cb(new_canvas);
 1221              		.loc 1 89 51 is_stmt 0 discriminator 1 view .LVU343
 1222 009a 2046     		mov	r0, r4
 1223 009c FFF7FEFF 		bl	lv_obj_get_signal_cb
 1224              	.LVL115:
  89:lvgl/src/lv_widgets/lv_canvas.c ****     if(ancestor_design == NULL) ancestor_design = lv_obj_get_design_cb(new_canvas);
 1225              		.loc 1 89 49 discriminator 1 view .LVU344
 1226 00a0 064B     		ldr	r3, .L73
 1227 00a2 1860     		str	r0, [r3]
 1228 00a4 C6E7     		b	.L64
 1229              	.L71:
  90:lvgl/src/lv_widgets/lv_canvas.c **** 
 1230              		.loc 1 90 33 is_stmt 1 discriminator 1 view .LVU345
  90:lvgl/src/lv_widgets/lv_canvas.c **** 
 1231              		.loc 1 90 51 is_stmt 0 discriminator 1 view .LVU346
 1232 00a6 2046     		mov	r0, r4
 1233 00a8 FFF7FEFF 		bl	lv_obj_get_design_cb
 1234              	.LVL116:
  90:lvgl/src/lv_widgets/lv_canvas.c **** 
 1235              		.loc 1 90 49 discriminator 1 view .LVU347
 1236 00ac 044B     		ldr	r3, .L73+4
 1237 00ae 1860     		str	r0, [r3]
 1238 00b0 C4E7     		b	.L65
 1239              	.L72:
 107:lvgl/src/lv_widgets/lv_canvas.c ****     }
 1240              		.loc 1 107 9 is_stmt 1 view .LVU348
 1241 00b2 0821     		movs	r1, #8
 1242 00b4 2046     		mov	r0, r4
 1243 00b6 FFF7FEFF 		bl	lv_theme_apply
 1244              	.LVL117:
 1245 00ba DBE7     		b	.L57
 1246              	.L74:
 1247              		.align	2
 1248              	.L73:
 1249 00bc 00000000 		.word	.LANCHOR0
 1250 00c0 00000000 		.word	.LANCHOR7
 1251 00c4 00000000 		.word	lv_canvas_signal
 1252 00c8 00000000 		.word	.LC1
 1253              		.cfi_endproc
 1254              	.LFE458:
 1256              		.section	.text.lv_canvas_set_buffer,"ax",%progbits
 1257              		.align	1
 1258              		.global	lv_canvas_set_buffer
 1259              		.syntax unified
 1260              		.thumb
 1261              		.thumb_func
 1262              		.fpu fpv4-sp-d16
 1264              	lv_canvas_set_buffer:
 1265              	.LVL118:
 1266              	.LFB459:
 139:lvgl/src/lv_widgets/lv_canvas.c ****     LV_ASSERT_OBJ(canvas, LV_OBJX_NAME);
 1267              		.loc 1 139 1 view -0
ARM GAS  D:\Temp\cc0vPyDE.s 			page 60


 1268              		.cfi_startproc
 1269              		@ args = 4, pretend = 0, frame = 0
 1270              		@ frame_needed = 0, uses_anonymous_args = 0
 139:lvgl/src/lv_widgets/lv_canvas.c ****     LV_ASSERT_OBJ(canvas, LV_OBJX_NAME);
 1271              		.loc 1 139 1 is_stmt 0 view .LVU350
 1272 0000 F8B5     		push	{r3, r4, r5, r6, r7, lr}
 1273              	.LCFI23:
 1274              		.cfi_def_cfa_offset 24
 1275              		.cfi_offset 3, -24
 1276              		.cfi_offset 4, -20
 1277              		.cfi_offset 5, -16
 1278              		.cfi_offset 6, -12
 1279              		.cfi_offset 7, -8
 1280              		.cfi_offset 14, -4
 1281 0002 0446     		mov	r4, r0
 1282 0004 0D46     		mov	r5, r1
 1283 0006 1746     		mov	r7, r2
 1284 0008 1E46     		mov	r6, r3
 140:lvgl/src/lv_widgets/lv_canvas.c ****     LV_ASSERT_NULL(buf);
 1285              		.loc 1 140 5 is_stmt 1 view .LVU351
 140:lvgl/src/lv_widgets/lv_canvas.c ****     LV_ASSERT_NULL(buf);
 1286              		.loc 1 140 5 view .LVU352
 1287 000a FFF7FEFF 		bl	lv_debug_check_null
 1288              	.LVL119:
 140:lvgl/src/lv_widgets/lv_canvas.c ****     LV_ASSERT_NULL(buf);
 1289              		.loc 1 140 5 is_stmt 0 view .LVU353
 1290 000e 28B9     		cbnz	r0, .L76
 140:lvgl/src/lv_widgets/lv_canvas.c ****     LV_ASSERT_NULL(buf);
 1291              		.loc 1 140 5 is_stmt 1 discriminator 1 view .LVU354
 140:lvgl/src/lv_widgets/lv_canvas.c ****     LV_ASSERT_NULL(buf);
 1292              		.loc 1 140 5 discriminator 1 view .LVU355
 1293 0010 2246     		mov	r2, r4
 1294 0012 0023     		movs	r3, #0
 1295 0014 1348     		ldr	r0, .L81
 1296 0016 FFF7FEFF 		bl	lv_debug_log_error
 1297              	.LVL120:
 1298              	.L77:
 140:lvgl/src/lv_widgets/lv_canvas.c ****     LV_ASSERT_NULL(buf);
 1299              		.loc 1 140 5 discriminator 1 view .LVU356
 140:lvgl/src/lv_widgets/lv_canvas.c ****     LV_ASSERT_NULL(buf);
 1300              		.loc 1 140 5 discriminator 1 view .LVU357
 1301 001a FEE7     		b	.L77
 1302              	.L76:
 140:lvgl/src/lv_widgets/lv_canvas.c ****     LV_ASSERT_NULL(buf);
 1303              		.loc 1 140 40 discriminator 2 view .LVU358
 141:lvgl/src/lv_widgets/lv_canvas.c **** 
 1304              		.loc 1 141 5 discriminator 2 view .LVU359
 141:lvgl/src/lv_widgets/lv_canvas.c **** 
 1305              		.loc 1 141 5 discriminator 2 view .LVU360
 1306 001c 2846     		mov	r0, r5
 1307 001e FFF7FEFF 		bl	lv_debug_check_null
 1308              	.LVL121:
 1309 0022 28B9     		cbnz	r0, .L78
 141:lvgl/src/lv_widgets/lv_canvas.c **** 
 1310              		.loc 1 141 5 discriminator 1 view .LVU361
 141:lvgl/src/lv_widgets/lv_canvas.c **** 
 1311              		.loc 1 141 5 discriminator 1 view .LVU362
ARM GAS  D:\Temp\cc0vPyDE.s 			page 61


 1312 0024 2A46     		mov	r2, r5
 1313 0026 0023     		movs	r3, #0
 1314 0028 0E48     		ldr	r0, .L81
 1315 002a FFF7FEFF 		bl	lv_debug_log_error
 1316              	.LVL122:
 1317              	.L79:
 141:lvgl/src/lv_widgets/lv_canvas.c **** 
 1318              		.loc 1 141 5 discriminator 2 view .LVU363
 141:lvgl/src/lv_widgets/lv_canvas.c **** 
 1319              		.loc 1 141 5 discriminator 2 view .LVU364
 1320 002e FEE7     		b	.L79
 1321              	.L78:
 141:lvgl/src/lv_widgets/lv_canvas.c **** 
 1322              		.loc 1 141 24 discriminator 2 view .LVU365
 143:lvgl/src/lv_widgets/lv_canvas.c **** 
 1323              		.loc 1 143 5 discriminator 2 view .LVU366
 143:lvgl/src/lv_widgets/lv_canvas.c **** 
 1324              		.loc 1 143 29 is_stmt 0 discriminator 2 view .LVU367
 1325 0030 2046     		mov	r0, r4
 1326 0032 FFF7FEFF 		bl	lv_obj_get_ext_attr
 1327              	.LVL123:
 145:lvgl/src/lv_widgets/lv_canvas.c ****     ext->dsc.header.w  = w;
 1328              		.loc 1 145 5 is_stmt 1 discriminator 2 view .LVU368
 145:lvgl/src/lv_widgets/lv_canvas.c ****     ext->dsc.header.w  = w;
 1329              		.loc 1 145 24 is_stmt 0 discriminator 2 view .LVU369
 1330 0036 037E     		ldrb	r3, [r0, #24]	@ zero_extendqisi2
 1331 0038 9DF81820 		ldrb	r2, [sp, #24]	@ zero_extendqisi2
 1332 003c 62F30403 		bfi	r3, r2, #0, #5
 1333 0040 0376     		strb	r3, [r0, #24]
 146:lvgl/src/lv_widgets/lv_canvas.c ****     ext->dsc.header.h  = h;
 1334              		.loc 1 146 5 is_stmt 1 discriminator 2 view .LVU370
 146:lvgl/src/lv_widgets/lv_canvas.c ****     ext->dsc.header.h  = h;
 1335              		.loc 1 146 24 is_stmt 0 discriminator 2 view .LVU371
 1336 0042 8369     		ldr	r3, [r0, #24]
 1337 0044 67F39423 		bfi	r3, r7, #10, #11
 1338 0048 8361     		str	r3, [r0, #24]
 1339              	.LVL124:
 147:lvgl/src/lv_widgets/lv_canvas.c ****     ext->dsc.data      = buf;
 1340              		.loc 1 147 5 is_stmt 1 discriminator 2 view .LVU372
 147:lvgl/src/lv_widgets/lv_canvas.c ****     ext->dsc.data      = buf;
 1341              		.loc 1 147 24 is_stmt 0 discriminator 2 view .LVU373
 1342 004a C3F30F43 		ubfx	r3, r3, #16, #16
 1343 004e 66F34F13 		bfi	r3, r6, #5, #11
 1344              	.LVL125:
 147:lvgl/src/lv_widgets/lv_canvas.c ****     ext->dsc.data      = buf;
 1345              		.loc 1 147 24 discriminator 2 view .LVU374
 1346 0052 4383     		strh	r3, [r0, #26]	@ movhi
 148:lvgl/src/lv_widgets/lv_canvas.c **** 
 1347              		.loc 1 148 5 is_stmt 1 discriminator 2 view .LVU375
 148:lvgl/src/lv_widgets/lv_canvas.c **** 
 1348              		.loc 1 148 24 is_stmt 0 discriminator 2 view .LVU376
 1349 0054 0562     		str	r5, [r0, #32]
 150:lvgl/src/lv_widgets/lv_canvas.c **** }
 1350              		.loc 1 150 5 is_stmt 1 discriminator 2 view .LVU377
 1351 0056 00F11801 		add	r1, r0, #24
 1352 005a 2046     		mov	r0, r4
 1353              	.LVL126:
ARM GAS  D:\Temp\cc0vPyDE.s 			page 62


 150:lvgl/src/lv_widgets/lv_canvas.c **** }
 1354              		.loc 1 150 5 is_stmt 0 discriminator 2 view .LVU378
 1355 005c FFF7FEFF 		bl	lv_img_set_src
 1356              	.LVL127:
 151:lvgl/src/lv_widgets/lv_canvas.c **** 
 1357              		.loc 1 151 1 discriminator 2 view .LVU379
 1358 0060 F8BD     		pop	{r3, r4, r5, r6, r7, pc}
 1359              	.LVL128:
 1360              	.L82:
 151:lvgl/src/lv_widgets/lv_canvas.c **** 
 1361              		.loc 1 151 1 discriminator 2 view .LVU380
 1362 0062 00BF     		.align	2
 1363              	.L81:
 1364 0064 00000000 		.word	.LC2
 1365              		.cfi_endproc
 1366              	.LFE459:
 1368              		.section	.text.lv_canvas_set_px,"ax",%progbits
 1369              		.align	1
 1370              		.global	lv_canvas_set_px
 1371              		.syntax unified
 1372              		.thumb
 1373              		.thumb_func
 1374              		.fpu fpv4-sp-d16
 1376              	lv_canvas_set_px:
 1377              	.LVL129:
 1378              	.LFB460:
 161:lvgl/src/lv_widgets/lv_canvas.c ****     LV_ASSERT_OBJ(canvas, LV_OBJX_NAME);
 1379              		.loc 1 161 1 is_stmt 1 view -0
 1380              		.cfi_startproc
 1381              		@ args = 0, pretend = 0, frame = 0
 1382              		@ frame_needed = 0, uses_anonymous_args = 0
 161:lvgl/src/lv_widgets/lv_canvas.c ****     LV_ASSERT_OBJ(canvas, LV_OBJX_NAME);
 1383              		.loc 1 161 1 is_stmt 0 view .LVU382
 1384 0000 F8B5     		push	{r3, r4, r5, r6, r7, lr}
 1385              	.LCFI24:
 1386              		.cfi_def_cfa_offset 24
 1387              		.cfi_offset 3, -24
 1388              		.cfi_offset 4, -20
 1389              		.cfi_offset 5, -16
 1390              		.cfi_offset 6, -12
 1391              		.cfi_offset 7, -8
 1392              		.cfi_offset 14, -4
 1393 0002 0446     		mov	r4, r0
 1394 0004 0D46     		mov	r5, r1
 1395 0006 1646     		mov	r6, r2
 1396 0008 1F46     		mov	r7, r3	@ movhi
 162:lvgl/src/lv_widgets/lv_canvas.c **** 
 1397              		.loc 1 162 5 is_stmt 1 view .LVU383
 162:lvgl/src/lv_widgets/lv_canvas.c **** 
 1398              		.loc 1 162 5 view .LVU384
 1399 000a FFF7FEFF 		bl	lv_debug_check_null
 1400              	.LVL130:
 162:lvgl/src/lv_widgets/lv_canvas.c **** 
 1401              		.loc 1 162 5 is_stmt 0 view .LVU385
 1402 000e 28B9     		cbnz	r0, .L84
 162:lvgl/src/lv_widgets/lv_canvas.c **** 
 1403              		.loc 1 162 5 is_stmt 1 discriminator 1 view .LVU386
ARM GAS  D:\Temp\cc0vPyDE.s 			page 63


 162:lvgl/src/lv_widgets/lv_canvas.c **** 
 1404              		.loc 1 162 5 discriminator 1 view .LVU387
 1405 0010 2246     		mov	r2, r4
 1406 0012 0023     		movs	r3, #0
 1407 0014 0848     		ldr	r0, .L87
 1408 0016 FFF7FEFF 		bl	lv_debug_log_error
 1409              	.LVL131:
 1410              	.L85:
 162:lvgl/src/lv_widgets/lv_canvas.c **** 
 1411              		.loc 1 162 5 discriminator 1 view .LVU388
 162:lvgl/src/lv_widgets/lv_canvas.c **** 
 1412              		.loc 1 162 5 discriminator 1 view .LVU389
 1413 001a FEE7     		b	.L85
 1414              	.L84:
 162:lvgl/src/lv_widgets/lv_canvas.c **** 
 1415              		.loc 1 162 40 discriminator 2 view .LVU390
 164:lvgl/src/lv_widgets/lv_canvas.c **** 
 1416              		.loc 1 164 5 discriminator 2 view .LVU391
 164:lvgl/src/lv_widgets/lv_canvas.c **** 
 1417              		.loc 1 164 29 is_stmt 0 discriminator 2 view .LVU392
 1418 001c 2046     		mov	r0, r4
 1419 001e FFF7FEFF 		bl	lv_obj_get_ext_attr
 1420              	.LVL132:
 166:lvgl/src/lv_widgets/lv_canvas.c ****     lv_obj_invalidate(canvas);
 1421              		.loc 1 166 5 is_stmt 1 discriminator 2 view .LVU393
 166:lvgl/src/lv_widgets/lv_canvas.c ****     lv_obj_invalidate(canvas);
 1422              		.loc 1 166 5 is_stmt 0 discriminator 2 view .LVU394
 1423 0022 3B46     		mov	r3, r7	@ movhi
 1424 0024 3246     		mov	r2, r6
 1425 0026 2946     		mov	r1, r5
 1426 0028 1830     		adds	r0, r0, #24
 1427              	.LVL133:
 166:lvgl/src/lv_widgets/lv_canvas.c ****     lv_obj_invalidate(canvas);
 1428              		.loc 1 166 5 discriminator 2 view .LVU395
 1429 002a FFF7FEFF 		bl	lv_img_buf_set_px_color
 1430              	.LVL134:
 167:lvgl/src/lv_widgets/lv_canvas.c **** }
 1431              		.loc 1 167 5 is_stmt 1 discriminator 2 view .LVU396
 1432 002e 2046     		mov	r0, r4
 1433 0030 FFF7FEFF 		bl	lv_obj_invalidate
 1434              	.LVL135:
 168:lvgl/src/lv_widgets/lv_canvas.c **** 
 1435              		.loc 1 168 1 is_stmt 0 discriminator 2 view .LVU397
 1436 0034 F8BD     		pop	{r3, r4, r5, r6, r7, pc}
 1437              	.LVL136:
 1438              	.L88:
 168:lvgl/src/lv_widgets/lv_canvas.c **** 
 1439              		.loc 1 168 1 discriminator 2 view .LVU398
 1440 0036 00BF     		.align	2
 1441              	.L87:
 1442 0038 00000000 		.word	.LC2
 1443              		.cfi_endproc
 1444              	.LFE460:
 1446              		.section	.text.lv_canvas_set_palette,"ax",%progbits
 1447              		.align	1
 1448              		.global	lv_canvas_set_palette
 1449              		.syntax unified
ARM GAS  D:\Temp\cc0vPyDE.s 			page 64


 1450              		.thumb
 1451              		.thumb_func
 1452              		.fpu fpv4-sp-d16
 1454              	lv_canvas_set_palette:
 1455              	.LVL137:
 1456              	.LFB461:
 181:lvgl/src/lv_widgets/lv_canvas.c ****     LV_ASSERT_OBJ(canvas, LV_OBJX_NAME);
 1457              		.loc 1 181 1 is_stmt 1 view -0
 1458              		.cfi_startproc
 1459              		@ args = 0, pretend = 0, frame = 0
 1460              		@ frame_needed = 0, uses_anonymous_args = 0
 181:lvgl/src/lv_widgets/lv_canvas.c ****     LV_ASSERT_OBJ(canvas, LV_OBJX_NAME);
 1461              		.loc 1 181 1 is_stmt 0 view .LVU400
 1462 0000 70B5     		push	{r4, r5, r6, lr}
 1463              	.LCFI25:
 1464              		.cfi_def_cfa_offset 16
 1465              		.cfi_offset 4, -16
 1466              		.cfi_offset 5, -12
 1467              		.cfi_offset 6, -8
 1468              		.cfi_offset 14, -4
 1469 0002 0446     		mov	r4, r0
 1470 0004 0D46     		mov	r5, r1
 1471 0006 1646     		mov	r6, r2	@ movhi
 182:lvgl/src/lv_widgets/lv_canvas.c **** 
 1472              		.loc 1 182 5 is_stmt 1 view .LVU401
 182:lvgl/src/lv_widgets/lv_canvas.c **** 
 1473              		.loc 1 182 5 view .LVU402
 1474 0008 FFF7FEFF 		bl	lv_debug_check_null
 1475              	.LVL138:
 182:lvgl/src/lv_widgets/lv_canvas.c **** 
 1476              		.loc 1 182 5 is_stmt 0 view .LVU403
 1477 000c 28B9     		cbnz	r0, .L90
 182:lvgl/src/lv_widgets/lv_canvas.c **** 
 1478              		.loc 1 182 5 is_stmt 1 discriminator 1 view .LVU404
 182:lvgl/src/lv_widgets/lv_canvas.c **** 
 1479              		.loc 1 182 5 discriminator 1 view .LVU405
 1480 000e 2246     		mov	r2, r4
 1481 0010 0023     		movs	r3, #0
 1482 0012 0848     		ldr	r0, .L93
 1483 0014 FFF7FEFF 		bl	lv_debug_log_error
 1484              	.LVL139:
 1485              	.L91:
 182:lvgl/src/lv_widgets/lv_canvas.c **** 
 1486              		.loc 1 182 5 discriminator 1 view .LVU406
 182:lvgl/src/lv_widgets/lv_canvas.c **** 
 1487              		.loc 1 182 5 discriminator 1 view .LVU407
 1488 0018 FEE7     		b	.L91
 1489              	.L90:
 182:lvgl/src/lv_widgets/lv_canvas.c **** 
 1490              		.loc 1 182 40 discriminator 2 view .LVU408
 184:lvgl/src/lv_widgets/lv_canvas.c **** 
 1491              		.loc 1 184 5 discriminator 2 view .LVU409
 184:lvgl/src/lv_widgets/lv_canvas.c **** 
 1492              		.loc 1 184 29 is_stmt 0 discriminator 2 view .LVU410
 1493 001a 2046     		mov	r0, r4
 1494 001c FFF7FEFF 		bl	lv_obj_get_ext_attr
 1495              	.LVL140:
ARM GAS  D:\Temp\cc0vPyDE.s 			page 65


 186:lvgl/src/lv_widgets/lv_canvas.c ****     lv_obj_invalidate(canvas);
 1496              		.loc 1 186 5 is_stmt 1 discriminator 2 view .LVU411
 186:lvgl/src/lv_widgets/lv_canvas.c ****     lv_obj_invalidate(canvas);
 1497              		.loc 1 186 5 is_stmt 0 discriminator 2 view .LVU412
 1498 0020 3246     		mov	r2, r6	@ movhi
 1499 0022 2946     		mov	r1, r5
 1500 0024 1830     		adds	r0, r0, #24
 1501              	.LVL141:
 186:lvgl/src/lv_widgets/lv_canvas.c ****     lv_obj_invalidate(canvas);
 1502              		.loc 1 186 5 discriminator 2 view .LVU413
 1503 0026 FFF7FEFF 		bl	lv_img_buf_set_palette
 1504              	.LVL142:
 187:lvgl/src/lv_widgets/lv_canvas.c **** }
 1505              		.loc 1 187 5 is_stmt 1 discriminator 2 view .LVU414
 1506 002a 2046     		mov	r0, r4
 1507 002c FFF7FEFF 		bl	lv_obj_invalidate
 1508              	.LVL143:
 188:lvgl/src/lv_widgets/lv_canvas.c **** 
 1509              		.loc 1 188 1 is_stmt 0 discriminator 2 view .LVU415
 1510 0030 70BD     		pop	{r4, r5, r6, pc}
 1511              	.LVL144:
 1512              	.L94:
 188:lvgl/src/lv_widgets/lv_canvas.c **** 
 1513              		.loc 1 188 1 discriminator 2 view .LVU416
 1514 0032 00BF     		.align	2
 1515              	.L93:
 1516 0034 00000000 		.word	.LC2
 1517              		.cfi_endproc
 1518              	.LFE461:
 1520              		.section	.text.lv_canvas_get_px,"ax",%progbits
 1521              		.align	1
 1522              		.global	lv_canvas_get_px
 1523              		.syntax unified
 1524              		.thumb
 1525              		.thumb_func
 1526              		.fpu fpv4-sp-d16
 1528              	lv_canvas_get_px:
 1529              	.LVL145:
 1530              	.LFB462:
 202:lvgl/src/lv_widgets/lv_canvas.c ****     LV_ASSERT_OBJ(canvas, LV_OBJX_NAME);
 1531              		.loc 1 202 1 is_stmt 1 view -0
 1532              		.cfi_startproc
 1533              		@ args = 0, pretend = 0, frame = 0
 1534              		@ frame_needed = 0, uses_anonymous_args = 0
 202:lvgl/src/lv_widgets/lv_canvas.c ****     LV_ASSERT_OBJ(canvas, LV_OBJX_NAME);
 1535              		.loc 1 202 1 is_stmt 0 view .LVU418
 1536 0000 F8B5     		push	{r3, r4, r5, r6, r7, lr}
 1537              	.LCFI26:
 1538              		.cfi_def_cfa_offset 24
 1539              		.cfi_offset 3, -24
 1540              		.cfi_offset 4, -20
 1541              		.cfi_offset 5, -16
 1542              		.cfi_offset 6, -12
 1543              		.cfi_offset 7, -8
 1544              		.cfi_offset 14, -4
 1545 0002 0446     		mov	r4, r0
 1546 0004 0E46     		mov	r6, r1
ARM GAS  D:\Temp\cc0vPyDE.s 			page 66


 1547 0006 1746     		mov	r7, r2
 203:lvgl/src/lv_widgets/lv_canvas.c **** 
 1548              		.loc 1 203 5 is_stmt 1 view .LVU419
 203:lvgl/src/lv_widgets/lv_canvas.c **** 
 1549              		.loc 1 203 5 view .LVU420
 1550 0008 FFF7FEFF 		bl	lv_debug_check_null
 1551              	.LVL146:
 203:lvgl/src/lv_widgets/lv_canvas.c **** 
 1552              		.loc 1 203 5 is_stmt 0 view .LVU421
 1553 000c 28B9     		cbnz	r0, .L96
 203:lvgl/src/lv_widgets/lv_canvas.c **** 
 1554              		.loc 1 203 5 is_stmt 1 discriminator 1 view .LVU422
 203:lvgl/src/lv_widgets/lv_canvas.c **** 
 1555              		.loc 1 203 5 discriminator 1 view .LVU423
 1556 000e 2246     		mov	r2, r4
 1557 0010 0023     		movs	r3, #0
 1558 0012 0B48     		ldr	r0, .L99
 1559 0014 FFF7FEFF 		bl	lv_debug_log_error
 1560              	.LVL147:
 1561              	.L97:
 203:lvgl/src/lv_widgets/lv_canvas.c **** 
 1562              		.loc 1 203 5 discriminator 1 view .LVU424
 203:lvgl/src/lv_widgets/lv_canvas.c **** 
 1563              		.loc 1 203 5 discriminator 1 view .LVU425
 1564 0018 FEE7     		b	.L97
 1565              	.L96:
 203:lvgl/src/lv_widgets/lv_canvas.c **** 
 1566              		.loc 1 203 40 discriminator 2 view .LVU426
 205:lvgl/src/lv_widgets/lv_canvas.c ****     lv_color_t color = lv_obj_get_style_image_recolor(canvas, LV_CANVAS_PART_MAIN);
 1567              		.loc 1 205 5 discriminator 2 view .LVU427
 205:lvgl/src/lv_widgets/lv_canvas.c ****     lv_color_t color = lv_obj_get_style_image_recolor(canvas, LV_CANVAS_PART_MAIN);
 1568              		.loc 1 205 32 is_stmt 0 discriminator 2 view .LVU428
 1569 001a 2046     		mov	r0, r4
 1570 001c FFF7FEFF 		bl	lv_obj_get_ext_attr
 1571              	.LVL148:
 1572 0020 0546     		mov	r5, r0
 1573              	.LVL149:
 206:lvgl/src/lv_widgets/lv_canvas.c **** 
 1574              		.loc 1 206 5 is_stmt 1 discriminator 2 view .LVU429
 1575              	.LBB84:
 1576              	.LBI84:
 1577              		.file 3 "lvgl/src/lv_widgets/../lv_core/lv_obj_style_dec.h"
   1:lvgl/src/lv_widgets/../lv_core/lv_obj_style_dec.h **** 
   2:lvgl/src/lv_widgets/../lv_core/lv_obj_style_dec.h **** /**
   3:lvgl/src/lv_widgets/../lv_core/lv_obj_style_dec.h ****  * @file lv_obj_style_dec.h
   4:lvgl/src/lv_widgets/../lv_core/lv_obj_style_dec.h ****  *
   5:lvgl/src/lv_widgets/../lv_core/lv_obj_style_dec.h ****  */
   6:lvgl/src/lv_widgets/../lv_core/lv_obj_style_dec.h **** 
   7:lvgl/src/lv_widgets/../lv_core/lv_obj_style_dec.h **** #ifndef LV_OBJ_STYLE_DEC_H
   8:lvgl/src/lv_widgets/../lv_core/lv_obj_style_dec.h **** #define LV_OBJ_STYLE_DEC_H
   9:lvgl/src/lv_widgets/../lv_core/lv_obj_style_dec.h **** 
  10:lvgl/src/lv_widgets/../lv_core/lv_obj_style_dec.h **** #ifdef __cplusplus
  11:lvgl/src/lv_widgets/../lv_core/lv_obj_style_dec.h **** extern "C" {
  12:lvgl/src/lv_widgets/../lv_core/lv_obj_style_dec.h **** #endif
  13:lvgl/src/lv_widgets/../lv_core/lv_obj_style_dec.h **** 
  14:lvgl/src/lv_widgets/../lv_core/lv_obj_style_dec.h **** /*********************
  15:lvgl/src/lv_widgets/../lv_core/lv_obj_style_dec.h ****  *      DEFINES
ARM GAS  D:\Temp\cc0vPyDE.s 			page 67


  16:lvgl/src/lv_widgets/../lv_core/lv_obj_style_dec.h ****  *********************/
  17:lvgl/src/lv_widgets/../lv_core/lv_obj_style_dec.h **** 
  18:lvgl/src/lv_widgets/../lv_core/lv_obj_style_dec.h **** /**
  19:lvgl/src/lv_widgets/../lv_core/lv_obj_style_dec.h ****  * Macro to declare the most important style set/get API functions.
  20:lvgl/src/lv_widgets/../lv_core/lv_obj_style_dec.h ****  *
  21:lvgl/src/lv_widgets/../lv_core/lv_obj_style_dec.h ****  * Get the value of a style property from an object in the object's current state
  22:lvgl/src/lv_widgets/../lv_core/lv_obj_style_dec.h ****  * -----------------------------------------------------------------------------
  23:lvgl/src/lv_widgets/../lv_core/lv_obj_style_dec.h ****  *  - Get the value of a style property from an object in the object's current state.
  24:lvgl/src/lv_widgets/../lv_core/lv_obj_style_dec.h ****  *  - Transition animation is taken into account.
  25:lvgl/src/lv_widgets/../lv_core/lv_obj_style_dec.h ****  *  - If the property is not set in the object's styles check the parent(s) if the property can be 
  26:lvgl/src/lv_widgets/../lv_core/lv_obj_style_dec.h ****  *  - If still not found return a default value.
  27:lvgl/src/lv_widgets/../lv_core/lv_obj_style_dec.h ****  *  - For example:
  28:lvgl/src/lv_widgets/../lv_core/lv_obj_style_dec.h ****  *      `lv_style_int_t w = lv_obj_get_style_border_width(btn1, LV_BTN_PART_MAIN);`
  29:lvgl/src/lv_widgets/../lv_core/lv_obj_style_dec.h ****  *
  30:lvgl/src/lv_widgets/../lv_core/lv_obj_style_dec.h ****  * Set a local style property for an object in a given state
  31:lvgl/src/lv_widgets/../lv_core/lv_obj_style_dec.h ****  * ---------------------------------------------------------
  32:lvgl/src/lv_widgets/../lv_core/lv_obj_style_dec.h ****  *  - For example:
  33:lvgl/src/lv_widgets/../lv_core/lv_obj_style_dec.h ****  *      `lv_obj_set_style_local_border_width(btn1, LV_BTN_PART_MAIN, LV_STATE_PRESSED, 2);`
  34:lvgl/src/lv_widgets/../lv_core/lv_obj_style_dec.h ****  *
  35:lvgl/src/lv_widgets/../lv_core/lv_obj_style_dec.h ****  * Get a local style property's value of an object in a given state
  36:lvgl/src/lv_widgets/../lv_core/lv_obj_style_dec.h ****  * ----------------------------------------------------------------
  37:lvgl/src/lv_widgets/../lv_core/lv_obj_style_dec.h ****  *  - Return the best matching property in the given state.
  38:lvgl/src/lv_widgets/../lv_core/lv_obj_style_dec.h ****  *  - E.g. if `state` parameter is LV_STATE_PRESSED | LV_STATE_CHECKED` but the property defined on
  39:lvgl/src/lv_widgets/../lv_core/lv_obj_style_dec.h ****  *    `LV_STATE_PRESSED` and `LV_STATE_DEFAULT` the best matching state is `LV_STATE_PRESSED`
  40:lvgl/src/lv_widgets/../lv_core/lv_obj_style_dec.h ****  *    (because it has higher precedence) and it will be returned.
  41:lvgl/src/lv_widgets/../lv_core/lv_obj_style_dec.h ****  *  - If the property is not found even in `LV_STATE_DEFAULT` `-1` is returned.
  42:lvgl/src/lv_widgets/../lv_core/lv_obj_style_dec.h ****  *  - For example:
  43:lvgl/src/lv_widgets/../lv_core/lv_obj_style_dec.h ****  *      `//Type of result should be lv_style_int_t/lv_opa_t/lv_color_t/const void * according to th
  44:lvgl/src/lv_widgets/../lv_core/lv_obj_style_dec.h ****  *      `lv_style_int_t result;`
  45:lvgl/src/lv_widgets/../lv_core/lv_obj_style_dec.h ****  *      `lv_obj_get_style_local_border_width(btn1, LV_BTN_PART_MAIN, LV_STATE_PRESSED, &result);`
  46:lvgl/src/lv_widgets/../lv_core/lv_obj_style_dec.h ****  *      `if(weight > 0) ...the property is found and loaded into result...`
  47:lvgl/src/lv_widgets/../lv_core/lv_obj_style_dec.h ****  *
  48:lvgl/src/lv_widgets/../lv_core/lv_obj_style_dec.h ****  * Get the value from a style in a given state
  49:lvgl/src/lv_widgets/../lv_core/lv_obj_style_dec.h ****  * -------------------------------------------
  50:lvgl/src/lv_widgets/../lv_core/lv_obj_style_dec.h ****  * - The same rules applies to the return value then for "lv_obj_get_style_local_...()" above
  51:lvgl/src/lv_widgets/../lv_core/lv_obj_style_dec.h ****  * - For example
  52:lvgl/src/lv_widgets/../lv_core/lv_obj_style_dec.h ****  *      `int16_t weight = lv_style_get_border_width(&style1, LV_STATE_PRESSED, &result);`
  53:lvgl/src/lv_widgets/../lv_core/lv_obj_style_dec.h ****  *      `if(weight > 0) ...the property is found and loaded into result...`
  54:lvgl/src/lv_widgets/../lv_core/lv_obj_style_dec.h **** 
  55:lvgl/src/lv_widgets/../lv_core/lv_obj_style_dec.h ****  * Set a value in a style in a given state
  56:lvgl/src/lv_widgets/../lv_core/lv_obj_style_dec.h ****  * ---------------------------------------
  57:lvgl/src/lv_widgets/../lv_core/lv_obj_style_dec.h ****  * - For example
  58:lvgl/src/lv_widgets/../lv_core/lv_obj_style_dec.h ****  *      `lv_style_set_border_width(&style1, LV_STATE_PRESSED, 2);`
  59:lvgl/src/lv_widgets/../lv_core/lv_obj_style_dec.h ****  */
  60:lvgl/src/lv_widgets/../lv_core/lv_obj_style_dec.h **** 
  61:lvgl/src/lv_widgets/../lv_core/lv_obj_style_dec.h **** #define _OBJ_GET_STYLE_scalar(prop_name, func_name, value_type, style_type)                        
  62:lvgl/src/lv_widgets/../lv_core/lv_obj_style_dec.h ****     static inline value_type lv_obj_get_style_##func_name (const lv_obj_t * obj, uint8_t part)     
  63:lvgl/src/lv_widgets/../lv_core/lv_obj_style_dec.h ****     {                                                                                              
  64:lvgl/src/lv_widgets/../lv_core/lv_obj_style_dec.h ****         return (value_type) _lv_obj_get_style##style_type (obj, part, LV_STYLE_##prop_name);       
  65:lvgl/src/lv_widgets/../lv_core/lv_obj_style_dec.h ****     }
  66:lvgl/src/lv_widgets/../lv_core/lv_obj_style_dec.h **** 
  67:lvgl/src/lv_widgets/../lv_core/lv_obj_style_dec.h **** #define _OBJ_GET_STYLE_nonscalar(prop_name, func_name, value_type, style_type)                     
  68:lvgl/src/lv_widgets/../lv_core/lv_obj_style_dec.h ****     static inline value_type lv_obj_get_style_##func_name (const lv_obj_t * obj, uint8_t part)     
  69:lvgl/src/lv_widgets/../lv_core/lv_obj_style_dec.h ****     {                                                                                              
  70:lvgl/src/lv_widgets/../lv_core/lv_obj_style_dec.h ****         return _lv_obj_get_style##style_type (obj, part, LV_STYLE_##prop_name);                    
  71:lvgl/src/lv_widgets/../lv_core/lv_obj_style_dec.h ****     }
  72:lvgl/src/lv_widgets/../lv_core/lv_obj_style_dec.h **** 
ARM GAS  D:\Temp\cc0vPyDE.s 			page 68


  73:lvgl/src/lv_widgets/../lv_core/lv_obj_style_dec.h **** #define _OBJ_SET_STYLE_LOCAL_scalar(prop_name, func_name, value_type, style_type)                  
  74:lvgl/src/lv_widgets/../lv_core/lv_obj_style_dec.h ****     static inline void lv_obj_set_style_local_##func_name (lv_obj_t * obj, uint8_t part, lv_state_t
  75:lvgl/src/lv_widgets/../lv_core/lv_obj_style_dec.h ****     {                                                                                              
  76:lvgl/src/lv_widgets/../lv_core/lv_obj_style_dec.h ****         _lv_obj_set_style_local##style_type (obj, part, LV_STYLE_##prop_name | (state << LV_STYLE_S
  77:lvgl/src/lv_widgets/../lv_core/lv_obj_style_dec.h ****     }
  78:lvgl/src/lv_widgets/../lv_core/lv_obj_style_dec.h **** 
  79:lvgl/src/lv_widgets/../lv_core/lv_obj_style_dec.h **** #define _OBJ_SET_STYLE_LOCAL_nonscalar(prop_name, func_name, value_type, style_type)               
  80:lvgl/src/lv_widgets/../lv_core/lv_obj_style_dec.h ****     static inline void lv_obj_set_style_local_##func_name (lv_obj_t * obj, uint8_t part, lv_state_t
  81:lvgl/src/lv_widgets/../lv_core/lv_obj_style_dec.h ****     {                                                                                              
  82:lvgl/src/lv_widgets/../lv_core/lv_obj_style_dec.h ****         _lv_obj_set_style_local##style_type (obj, part, LV_STYLE_##prop_name | (state << LV_STYLE_S
  83:lvgl/src/lv_widgets/../lv_core/lv_obj_style_dec.h ****     }
  84:lvgl/src/lv_widgets/../lv_core/lv_obj_style_dec.h **** 
  85:lvgl/src/lv_widgets/../lv_core/lv_obj_style_dec.h **** #define _OBJ_SET_STYLE_scalar(prop_name, func_name, value_type, style_type)                        
  86:lvgl/src/lv_widgets/../lv_core/lv_obj_style_dec.h ****     static inline void lv_style_set_##func_name (lv_style_t * style, lv_state_t state, value_type v
  87:lvgl/src/lv_widgets/../lv_core/lv_obj_style_dec.h ****     {                                                                                              
  88:lvgl/src/lv_widgets/../lv_core/lv_obj_style_dec.h ****         _lv_style_set##style_type (style, LV_STYLE_##prop_name | (state << LV_STYLE_STATE_POS), val
  89:lvgl/src/lv_widgets/../lv_core/lv_obj_style_dec.h ****     }
  90:lvgl/src/lv_widgets/../lv_core/lv_obj_style_dec.h **** 
  91:lvgl/src/lv_widgets/../lv_core/lv_obj_style_dec.h **** #define _OBJ_SET_STYLE_nonscalar(prop_name, func_name, value_type, style_type)                     
  92:lvgl/src/lv_widgets/../lv_core/lv_obj_style_dec.h ****     static inline void lv_style_set_##func_name (lv_style_t * style, lv_state_t state, value_type v
  93:lvgl/src/lv_widgets/../lv_core/lv_obj_style_dec.h ****     {                                                                                              
  94:lvgl/src/lv_widgets/../lv_core/lv_obj_style_dec.h ****         _lv_style_set##style_type (style, LV_STYLE_##prop_name | (state << LV_STYLE_STATE_POS), val
  95:lvgl/src/lv_widgets/../lv_core/lv_obj_style_dec.h ****     }
  96:lvgl/src/lv_widgets/../lv_core/lv_obj_style_dec.h **** 
  97:lvgl/src/lv_widgets/../lv_core/lv_obj_style_dec.h **** #define _LV_OBJ_STYLE_SET_GET_DECLARE(prop_name, func_name, value_type, style_type, scalar)        
  98:lvgl/src/lv_widgets/../lv_core/lv_obj_style_dec.h ****     _OBJ_GET_STYLE_##scalar(prop_name, func_name, value_type, style_type)                          
  99:lvgl/src/lv_widgets/../lv_core/lv_obj_style_dec.h ****     _OBJ_SET_STYLE_LOCAL_##scalar(prop_name, func_name, value_type, style_type)                    
 100:lvgl/src/lv_widgets/../lv_core/lv_obj_style_dec.h ****     _OBJ_SET_STYLE_##scalar(prop_name, func_name, value_type, style_type)
 101:lvgl/src/lv_widgets/../lv_core/lv_obj_style_dec.h **** 
 102:lvgl/src/lv_widgets/../lv_core/lv_obj_style_dec.h **** _LV_OBJ_STYLE_SET_GET_DECLARE(RADIUS, radius, lv_style_int_t, _int, scalar)
 103:lvgl/src/lv_widgets/../lv_core/lv_obj_style_dec.h **** _LV_OBJ_STYLE_SET_GET_DECLARE(CLIP_CORNER, clip_corner, bool, _int, scalar)
 104:lvgl/src/lv_widgets/../lv_core/lv_obj_style_dec.h **** _LV_OBJ_STYLE_SET_GET_DECLARE(SIZE, size, lv_style_int_t, _int, scalar)
 105:lvgl/src/lv_widgets/../lv_core/lv_obj_style_dec.h **** _LV_OBJ_STYLE_SET_GET_DECLARE(TRANSFORM_WIDTH, transform_width, lv_style_int_t, _int, scalar)
 106:lvgl/src/lv_widgets/../lv_core/lv_obj_style_dec.h **** _LV_OBJ_STYLE_SET_GET_DECLARE(TRANSFORM_HEIGHT, transform_height, lv_style_int_t, _int, scalar)
 107:lvgl/src/lv_widgets/../lv_core/lv_obj_style_dec.h **** _LV_OBJ_STYLE_SET_GET_DECLARE(TRANSFORM_ANGLE, transform_angle, lv_style_int_t, _int, scalar)
 108:lvgl/src/lv_widgets/../lv_core/lv_obj_style_dec.h **** _LV_OBJ_STYLE_SET_GET_DECLARE(TRANSFORM_ZOOM, transform_zoom, lv_style_int_t, _int, scalar)
 109:lvgl/src/lv_widgets/../lv_core/lv_obj_style_dec.h **** _LV_OBJ_STYLE_SET_GET_DECLARE(OPA_SCALE, opa_scale, lv_opa_t, _opa, scalar)
 110:lvgl/src/lv_widgets/../lv_core/lv_obj_style_dec.h **** _LV_OBJ_STYLE_SET_GET_DECLARE(PAD_TOP, pad_top, lv_style_int_t, _int, scalar)
 111:lvgl/src/lv_widgets/../lv_core/lv_obj_style_dec.h **** _LV_OBJ_STYLE_SET_GET_DECLARE(PAD_BOTTOM, pad_bottom, lv_style_int_t, _int, scalar)
 112:lvgl/src/lv_widgets/../lv_core/lv_obj_style_dec.h **** _LV_OBJ_STYLE_SET_GET_DECLARE(PAD_LEFT, pad_left, lv_style_int_t, _int, scalar)
 113:lvgl/src/lv_widgets/../lv_core/lv_obj_style_dec.h **** _LV_OBJ_STYLE_SET_GET_DECLARE(PAD_RIGHT, pad_right, lv_style_int_t, _int, scalar)
 114:lvgl/src/lv_widgets/../lv_core/lv_obj_style_dec.h **** _LV_OBJ_STYLE_SET_GET_DECLARE(PAD_INNER, pad_inner, lv_style_int_t, _int, scalar)
 115:lvgl/src/lv_widgets/../lv_core/lv_obj_style_dec.h **** _LV_OBJ_STYLE_SET_GET_DECLARE(MARGIN_TOP, margin_top, lv_style_int_t, _int, scalar)
 116:lvgl/src/lv_widgets/../lv_core/lv_obj_style_dec.h **** _LV_OBJ_STYLE_SET_GET_DECLARE(MARGIN_BOTTOM, margin_bottom, lv_style_int_t, _int, scalar)
 117:lvgl/src/lv_widgets/../lv_core/lv_obj_style_dec.h **** _LV_OBJ_STYLE_SET_GET_DECLARE(MARGIN_LEFT, margin_left, lv_style_int_t, _int, scalar)
 118:lvgl/src/lv_widgets/../lv_core/lv_obj_style_dec.h **** _LV_OBJ_STYLE_SET_GET_DECLARE(MARGIN_RIGHT, margin_right, lv_style_int_t, _int, scalar)
 119:lvgl/src/lv_widgets/../lv_core/lv_obj_style_dec.h **** _LV_OBJ_STYLE_SET_GET_DECLARE(BG_BLEND_MODE, bg_blend_mode, lv_blend_mode_t, _int, scalar)
 120:lvgl/src/lv_widgets/../lv_core/lv_obj_style_dec.h **** _LV_OBJ_STYLE_SET_GET_DECLARE(BG_MAIN_STOP, bg_main_stop, lv_style_int_t, _int, scalar)
 121:lvgl/src/lv_widgets/../lv_core/lv_obj_style_dec.h **** _LV_OBJ_STYLE_SET_GET_DECLARE(BG_GRAD_STOP, bg_grad_stop, lv_style_int_t, _int, scalar)
 122:lvgl/src/lv_widgets/../lv_core/lv_obj_style_dec.h **** _LV_OBJ_STYLE_SET_GET_DECLARE(BG_GRAD_DIR, bg_grad_dir, lv_grad_dir_t, _int, scalar)
 123:lvgl/src/lv_widgets/../lv_core/lv_obj_style_dec.h **** _LV_OBJ_STYLE_SET_GET_DECLARE(BG_COLOR, bg_color, lv_color_t, _color, nonscalar)
 124:lvgl/src/lv_widgets/../lv_core/lv_obj_style_dec.h **** _LV_OBJ_STYLE_SET_GET_DECLARE(BG_GRAD_COLOR, bg_grad_color, lv_color_t, _color, nonscalar)
 125:lvgl/src/lv_widgets/../lv_core/lv_obj_style_dec.h **** _LV_OBJ_STYLE_SET_GET_DECLARE(BG_OPA, bg_opa, lv_opa_t, _opa, scalar)
 126:lvgl/src/lv_widgets/../lv_core/lv_obj_style_dec.h **** _LV_OBJ_STYLE_SET_GET_DECLARE(BORDER_WIDTH, border_width, lv_style_int_t, _int, scalar)
 127:lvgl/src/lv_widgets/../lv_core/lv_obj_style_dec.h **** _LV_OBJ_STYLE_SET_GET_DECLARE(BORDER_SIDE, border_side, lv_border_side_t, _int, scalar)
 128:lvgl/src/lv_widgets/../lv_core/lv_obj_style_dec.h **** _LV_OBJ_STYLE_SET_GET_DECLARE(BORDER_BLEND_MODE, border_blend_mode, lv_blend_mode_t, _int, scalar)
 129:lvgl/src/lv_widgets/../lv_core/lv_obj_style_dec.h **** _LV_OBJ_STYLE_SET_GET_DECLARE(BORDER_POST, border_post, bool, _int, scalar)
ARM GAS  D:\Temp\cc0vPyDE.s 			page 69


 130:lvgl/src/lv_widgets/../lv_core/lv_obj_style_dec.h **** _LV_OBJ_STYLE_SET_GET_DECLARE(BORDER_COLOR, border_color, lv_color_t, _color, nonscalar)
 131:lvgl/src/lv_widgets/../lv_core/lv_obj_style_dec.h **** _LV_OBJ_STYLE_SET_GET_DECLARE(BORDER_OPA, border_opa, lv_opa_t, _opa, scalar)
 132:lvgl/src/lv_widgets/../lv_core/lv_obj_style_dec.h **** _LV_OBJ_STYLE_SET_GET_DECLARE(OUTLINE_WIDTH, outline_width, lv_style_int_t, _int, scalar)
 133:lvgl/src/lv_widgets/../lv_core/lv_obj_style_dec.h **** _LV_OBJ_STYLE_SET_GET_DECLARE(OUTLINE_PAD, outline_pad, lv_style_int_t, _int, scalar)
 134:lvgl/src/lv_widgets/../lv_core/lv_obj_style_dec.h **** _LV_OBJ_STYLE_SET_GET_DECLARE(OUTLINE_BLEND_MODE, outline_blend_mode, lv_blend_mode_t, _int, scalar
 135:lvgl/src/lv_widgets/../lv_core/lv_obj_style_dec.h **** _LV_OBJ_STYLE_SET_GET_DECLARE(OUTLINE_COLOR, outline_color, lv_color_t, _color, nonscalar)
 136:lvgl/src/lv_widgets/../lv_core/lv_obj_style_dec.h **** _LV_OBJ_STYLE_SET_GET_DECLARE(OUTLINE_OPA, outline_opa, lv_opa_t, _opa, scalar)
 137:lvgl/src/lv_widgets/../lv_core/lv_obj_style_dec.h **** _LV_OBJ_STYLE_SET_GET_DECLARE(SHADOW_WIDTH, shadow_width, lv_style_int_t, _int, scalar)
 138:lvgl/src/lv_widgets/../lv_core/lv_obj_style_dec.h **** _LV_OBJ_STYLE_SET_GET_DECLARE(SHADOW_OFS_X, shadow_ofs_x, lv_style_int_t, _int, scalar)
 139:lvgl/src/lv_widgets/../lv_core/lv_obj_style_dec.h **** _LV_OBJ_STYLE_SET_GET_DECLARE(SHADOW_OFS_Y, shadow_ofs_y, lv_style_int_t, _int, scalar)
 140:lvgl/src/lv_widgets/../lv_core/lv_obj_style_dec.h **** _LV_OBJ_STYLE_SET_GET_DECLARE(SHADOW_SPREAD, shadow_spread, lv_style_int_t, _int, scalar)
 141:lvgl/src/lv_widgets/../lv_core/lv_obj_style_dec.h **** _LV_OBJ_STYLE_SET_GET_DECLARE(SHADOW_BLEND_MODE, shadow_blend_mode, lv_blend_mode_t, _int, scalar)
 142:lvgl/src/lv_widgets/../lv_core/lv_obj_style_dec.h **** _LV_OBJ_STYLE_SET_GET_DECLARE(SHADOW_COLOR, shadow_color, lv_color_t, _color, nonscalar)
 143:lvgl/src/lv_widgets/../lv_core/lv_obj_style_dec.h **** _LV_OBJ_STYLE_SET_GET_DECLARE(SHADOW_OPA, shadow_opa, lv_opa_t, _opa, scalar)
 144:lvgl/src/lv_widgets/../lv_core/lv_obj_style_dec.h **** _LV_OBJ_STYLE_SET_GET_DECLARE(PATTERN_REPEAT, pattern_repeat, bool, _int, scalar)
 145:lvgl/src/lv_widgets/../lv_core/lv_obj_style_dec.h **** _LV_OBJ_STYLE_SET_GET_DECLARE(PATTERN_BLEND_MODE, pattern_blend_mode, lv_blend_mode_t, _int, scalar
 146:lvgl/src/lv_widgets/../lv_core/lv_obj_style_dec.h **** _LV_OBJ_STYLE_SET_GET_DECLARE(PATTERN_RECOLOR, pattern_recolor, lv_color_t, _color, nonscalar)
 147:lvgl/src/lv_widgets/../lv_core/lv_obj_style_dec.h **** _LV_OBJ_STYLE_SET_GET_DECLARE(PATTERN_OPA, pattern_opa, lv_opa_t, _opa, scalar)
 148:lvgl/src/lv_widgets/../lv_core/lv_obj_style_dec.h **** _LV_OBJ_STYLE_SET_GET_DECLARE(PATTERN_RECOLOR_OPA, pattern_recolor_opa, lv_opa_t, _opa, scalar)
 149:lvgl/src/lv_widgets/../lv_core/lv_obj_style_dec.h **** _LV_OBJ_STYLE_SET_GET_DECLARE(PATTERN_IMAGE, pattern_image, const void *, _ptr, scalar)
 150:lvgl/src/lv_widgets/../lv_core/lv_obj_style_dec.h **** _LV_OBJ_STYLE_SET_GET_DECLARE(VALUE_LETTER_SPACE, value_letter_space, lv_style_int_t, _int, scalar)
 151:lvgl/src/lv_widgets/../lv_core/lv_obj_style_dec.h **** _LV_OBJ_STYLE_SET_GET_DECLARE(VALUE_LINE_SPACE, value_line_space, lv_style_int_t, _int, scalar)
 152:lvgl/src/lv_widgets/../lv_core/lv_obj_style_dec.h **** _LV_OBJ_STYLE_SET_GET_DECLARE(VALUE_BLEND_MODE, value_blend_mode, lv_blend_mode_t, _int, scalar)
 153:lvgl/src/lv_widgets/../lv_core/lv_obj_style_dec.h **** _LV_OBJ_STYLE_SET_GET_DECLARE(VALUE_OFS_X, value_ofs_x, lv_style_int_t, _int, scalar)
 154:lvgl/src/lv_widgets/../lv_core/lv_obj_style_dec.h **** _LV_OBJ_STYLE_SET_GET_DECLARE(VALUE_OFS_Y, value_ofs_y, lv_style_int_t, _int, scalar)
 155:lvgl/src/lv_widgets/../lv_core/lv_obj_style_dec.h **** _LV_OBJ_STYLE_SET_GET_DECLARE(VALUE_ALIGN, value_align, lv_align_t, _int, scalar)
 156:lvgl/src/lv_widgets/../lv_core/lv_obj_style_dec.h **** _LV_OBJ_STYLE_SET_GET_DECLARE(VALUE_COLOR, value_color, lv_color_t, _color, nonscalar)
 157:lvgl/src/lv_widgets/../lv_core/lv_obj_style_dec.h **** _LV_OBJ_STYLE_SET_GET_DECLARE(VALUE_OPA, value_opa, lv_opa_t, _opa, scalar)
 158:lvgl/src/lv_widgets/../lv_core/lv_obj_style_dec.h **** _LV_OBJ_STYLE_SET_GET_DECLARE(VALUE_FONT, value_font, const lv_font_t *, _ptr, scalar)
 159:lvgl/src/lv_widgets/../lv_core/lv_obj_style_dec.h **** _LV_OBJ_STYLE_SET_GET_DECLARE(VALUE_STR, value_str, const char *, _ptr, scalar)
 160:lvgl/src/lv_widgets/../lv_core/lv_obj_style_dec.h **** _LV_OBJ_STYLE_SET_GET_DECLARE(TEXT_LETTER_SPACE, text_letter_space, lv_style_int_t, _int, scalar)
 161:lvgl/src/lv_widgets/../lv_core/lv_obj_style_dec.h **** _LV_OBJ_STYLE_SET_GET_DECLARE(TEXT_LINE_SPACE, text_line_space, lv_style_int_t, _int, scalar)
 162:lvgl/src/lv_widgets/../lv_core/lv_obj_style_dec.h **** _LV_OBJ_STYLE_SET_GET_DECLARE(TEXT_DECOR, text_decor, lv_text_decor_t, _int, scalar)
 163:lvgl/src/lv_widgets/../lv_core/lv_obj_style_dec.h **** _LV_OBJ_STYLE_SET_GET_DECLARE(TEXT_BLEND_MODE, text_blend_mode, lv_blend_mode_t, _int, scalar)
 164:lvgl/src/lv_widgets/../lv_core/lv_obj_style_dec.h **** _LV_OBJ_STYLE_SET_GET_DECLARE(TEXT_COLOR, text_color, lv_color_t, _color, nonscalar)
 165:lvgl/src/lv_widgets/../lv_core/lv_obj_style_dec.h **** _LV_OBJ_STYLE_SET_GET_DECLARE(TEXT_SEL_COLOR, text_sel_color, lv_color_t, _color, nonscalar)
 166:lvgl/src/lv_widgets/../lv_core/lv_obj_style_dec.h **** _LV_OBJ_STYLE_SET_GET_DECLARE(TEXT_SEL_BG_COLOR, text_sel_bg_color, lv_color_t, _color, nonscalar)
 167:lvgl/src/lv_widgets/../lv_core/lv_obj_style_dec.h **** _LV_OBJ_STYLE_SET_GET_DECLARE(TEXT_OPA, text_opa, lv_opa_t, _opa, scalar)
 168:lvgl/src/lv_widgets/../lv_core/lv_obj_style_dec.h **** _LV_OBJ_STYLE_SET_GET_DECLARE(TEXT_FONT, text_font, const lv_font_t *, _ptr, scalar)
 169:lvgl/src/lv_widgets/../lv_core/lv_obj_style_dec.h **** _LV_OBJ_STYLE_SET_GET_DECLARE(LINE_WIDTH, line_width, lv_style_int_t, _int, scalar)
 170:lvgl/src/lv_widgets/../lv_core/lv_obj_style_dec.h **** _LV_OBJ_STYLE_SET_GET_DECLARE(LINE_BLEND_MODE, line_blend_mode, lv_blend_mode_t, _int, scalar)
 171:lvgl/src/lv_widgets/../lv_core/lv_obj_style_dec.h **** _LV_OBJ_STYLE_SET_GET_DECLARE(LINE_DASH_WIDTH, line_dash_width, lv_style_int_t, _int, scalar)
 172:lvgl/src/lv_widgets/../lv_core/lv_obj_style_dec.h **** _LV_OBJ_STYLE_SET_GET_DECLARE(LINE_DASH_GAP, line_dash_gap, lv_style_int_t, _int, scalar)
 173:lvgl/src/lv_widgets/../lv_core/lv_obj_style_dec.h **** _LV_OBJ_STYLE_SET_GET_DECLARE(LINE_ROUNDED, line_rounded, bool, _int, scalar)
 174:lvgl/src/lv_widgets/../lv_core/lv_obj_style_dec.h **** _LV_OBJ_STYLE_SET_GET_DECLARE(LINE_COLOR, line_color, lv_color_t, _color, nonscalar)
 175:lvgl/src/lv_widgets/../lv_core/lv_obj_style_dec.h **** _LV_OBJ_STYLE_SET_GET_DECLARE(LINE_OPA, line_opa, lv_opa_t, _opa, scalar)
 176:lvgl/src/lv_widgets/../lv_core/lv_obj_style_dec.h **** _LV_OBJ_STYLE_SET_GET_DECLARE(IMAGE_BLEND_MODE, image_blend_mode, lv_blend_mode_t, _int, scalar)
 177:lvgl/src/lv_widgets/../lv_core/lv_obj_style_dec.h **** _LV_OBJ_STYLE_SET_GET_DECLARE(IMAGE_RECOLOR, image_recolor, lv_color_t, _color, nonscalar)
 1578              		.loc 3 177 1 discriminator 2 view .LVU430
 1579              	.LBB85:
 1580              		.loc 3 177 1 discriminator 2 view .LVU431
 1581 0022 48F2A902 		movw	r2, #32937
 1582 0026 0021     		movs	r1, #0
 1583 0028 2046     		mov	r0, r4
 1584              	.LVL150:
 1585              		.loc 3 177 1 is_stmt 0 discriminator 2 view .LVU432
 1586 002a FFF7FEFF 		bl	_lv_obj_get_style_color
ARM GAS  D:\Temp\cc0vPyDE.s 			page 70


 1587              	.LVL151:
 1588              		.loc 3 177 1 discriminator 2 view .LVU433
 1589              	.LBE85:
 1590              	.LBE84:
 208:lvgl/src/lv_widgets/lv_canvas.c **** }
 1591              		.loc 1 208 5 is_stmt 1 discriminator 2 view .LVU434
 208:lvgl/src/lv_widgets/lv_canvas.c **** }
 1592              		.loc 1 208 12 is_stmt 0 discriminator 2 view .LVU435
 1593 002e 0346     		mov	r3, r0	@ movhi
 1594 0030 3A46     		mov	r2, r7
 1595 0032 3146     		mov	r1, r6
 1596 0034 05F11800 		add	r0, r5, #24
 1597 0038 FFF7FEFF 		bl	lv_img_buf_get_px_color
 1598              	.LVL152:
 209:lvgl/src/lv_widgets/lv_canvas.c **** 
 1599              		.loc 1 209 1 discriminator 2 view .LVU436
 1600 003c F8BD     		pop	{r3, r4, r5, r6, r7, pc}
 1601              	.LVL153:
 1602              	.L100:
 209:lvgl/src/lv_widgets/lv_canvas.c **** 
 1603              		.loc 1 209 1 discriminator 2 view .LVU437
 1604 003e 00BF     		.align	2
 1605              	.L99:
 1606 0040 00000000 		.word	.LC2
 1607              		.cfi_endproc
 1608              	.LFE462:
 1610              		.section	.text.lv_canvas_get_img,"ax",%progbits
 1611              		.align	1
 1612              		.global	lv_canvas_get_img
 1613              		.syntax unified
 1614              		.thumb
 1615              		.thumb_func
 1616              		.fpu fpv4-sp-d16
 1618              	lv_canvas_get_img:
 1619              	.LVL154:
 1620              	.LFB463:
 217:lvgl/src/lv_widgets/lv_canvas.c ****     LV_ASSERT_OBJ(canvas, LV_OBJX_NAME);
 1621              		.loc 1 217 1 is_stmt 1 view -0
 1622              		.cfi_startproc
 1623              		@ args = 0, pretend = 0, frame = 0
 1624              		@ frame_needed = 0, uses_anonymous_args = 0
 217:lvgl/src/lv_widgets/lv_canvas.c ****     LV_ASSERT_OBJ(canvas, LV_OBJX_NAME);
 1625              		.loc 1 217 1 is_stmt 0 view .LVU439
 1626 0000 10B5     		push	{r4, lr}
 1627              	.LCFI27:
 1628              		.cfi_def_cfa_offset 8
 1629              		.cfi_offset 4, -8
 1630              		.cfi_offset 14, -4
 1631 0002 0446     		mov	r4, r0
 218:lvgl/src/lv_widgets/lv_canvas.c **** 
 1632              		.loc 1 218 5 is_stmt 1 view .LVU440
 218:lvgl/src/lv_widgets/lv_canvas.c **** 
 1633              		.loc 1 218 5 view .LVU441
 1634 0004 FFF7FEFF 		bl	lv_debug_check_null
 1635              	.LVL155:
 218:lvgl/src/lv_widgets/lv_canvas.c **** 
 1636              		.loc 1 218 5 is_stmt 0 view .LVU442
ARM GAS  D:\Temp\cc0vPyDE.s 			page 71


 1637 0008 28B9     		cbnz	r0, .L102
 218:lvgl/src/lv_widgets/lv_canvas.c **** 
 1638              		.loc 1 218 5 is_stmt 1 discriminator 1 view .LVU443
 218:lvgl/src/lv_widgets/lv_canvas.c **** 
 1639              		.loc 1 218 5 discriminator 1 view .LVU444
 1640 000a 2246     		mov	r2, r4
 1641 000c 0023     		movs	r3, #0
 1642 000e 0448     		ldr	r0, .L105
 1643 0010 FFF7FEFF 		bl	lv_debug_log_error
 1644              	.LVL156:
 1645              	.L103:
 218:lvgl/src/lv_widgets/lv_canvas.c **** 
 1646              		.loc 1 218 5 discriminator 1 view .LVU445
 218:lvgl/src/lv_widgets/lv_canvas.c **** 
 1647              		.loc 1 218 5 discriminator 1 view .LVU446
 1648 0014 FEE7     		b	.L103
 1649              	.L102:
 218:lvgl/src/lv_widgets/lv_canvas.c **** 
 1650              		.loc 1 218 40 discriminator 2 view .LVU447
 220:lvgl/src/lv_widgets/lv_canvas.c **** 
 1651              		.loc 1 220 5 discriminator 2 view .LVU448
 220:lvgl/src/lv_widgets/lv_canvas.c **** 
 1652              		.loc 1 220 29 is_stmt 0 discriminator 2 view .LVU449
 1653 0016 2046     		mov	r0, r4
 1654 0018 FFF7FEFF 		bl	lv_obj_get_ext_attr
 1655              	.LVL157:
 222:lvgl/src/lv_widgets/lv_canvas.c **** }
 1656              		.loc 1 222 5 is_stmt 1 discriminator 2 view .LVU450
 223:lvgl/src/lv_widgets/lv_canvas.c **** 
 1657              		.loc 1 223 1 is_stmt 0 discriminator 2 view .LVU451
 1658 001c 1830     		adds	r0, r0, #24
 1659              	.LVL158:
 223:lvgl/src/lv_widgets/lv_canvas.c **** 
 1660              		.loc 1 223 1 discriminator 2 view .LVU452
 1661 001e 10BD     		pop	{r4, pc}
 1662              	.LVL159:
 1663              	.L106:
 223:lvgl/src/lv_widgets/lv_canvas.c **** 
 1664              		.loc 1 223 1 discriminator 2 view .LVU453
 1665              		.align	2
 1666              	.L105:
 1667 0020 00000000 		.word	.LC2
 1668              		.cfi_endproc
 1669              	.LFE463:
 1671              		.section	.text.lv_canvas_copy_buf,"ax",%progbits
 1672              		.align	1
 1673              		.global	lv_canvas_copy_buf
 1674              		.syntax unified
 1675              		.thumb
 1676              		.thumb_func
 1677              		.fpu fpv4-sp-d16
 1679              	lv_canvas_copy_buf:
 1680              	.LVL160:
 1681              	.LFB464:
 240:lvgl/src/lv_widgets/lv_canvas.c ****     LV_ASSERT_OBJ(canvas, LV_OBJX_NAME);
 1682              		.loc 1 240 1 is_stmt 1 view -0
 1683              		.cfi_startproc
ARM GAS  D:\Temp\cc0vPyDE.s 			page 72


 1684              		@ args = 8, pretend = 0, frame = 0
 1685              		@ frame_needed = 0, uses_anonymous_args = 0
 240:lvgl/src/lv_widgets/lv_canvas.c ****     LV_ASSERT_OBJ(canvas, LV_OBJX_NAME);
 1686              		.loc 1 240 1 is_stmt 0 view .LVU455
 1687 0000 2DE9F84F 		push	{r3, r4, r5, r6, r7, r8, r9, r10, fp, lr}
 1688              	.LCFI28:
 1689              		.cfi_def_cfa_offset 40
 1690              		.cfi_offset 3, -40
 1691              		.cfi_offset 4, -36
 1692              		.cfi_offset 5, -32
 1693              		.cfi_offset 6, -28
 1694              		.cfi_offset 7, -24
 1695              		.cfi_offset 8, -20
 1696              		.cfi_offset 9, -16
 1697              		.cfi_offset 10, -12
 1698              		.cfi_offset 11, -8
 1699              		.cfi_offset 14, -4
 1700 0004 0546     		mov	r5, r0
 1701 0006 0F46     		mov	r7, r1
 1702 0008 1646     		mov	r6, r2
 1703 000a 1C46     		mov	r4, r3
 1704 000c BDF92890 		ldrsh	r9, [sp, #40]
 1705 0010 BDF92CA0 		ldrsh	r10, [sp, #44]
 241:lvgl/src/lv_widgets/lv_canvas.c ****     LV_ASSERT_NULL(to_copy);
 1706              		.loc 1 241 5 is_stmt 1 view .LVU456
 241:lvgl/src/lv_widgets/lv_canvas.c ****     LV_ASSERT_NULL(to_copy);
 1707              		.loc 1 241 5 view .LVU457
 1708 0014 FFF7FEFF 		bl	lv_debug_check_null
 1709              	.LVL161:
 241:lvgl/src/lv_widgets/lv_canvas.c ****     LV_ASSERT_NULL(to_copy);
 1710              		.loc 1 241 5 is_stmt 0 view .LVU458
 1711 0018 28B9     		cbnz	r0, .L108
 241:lvgl/src/lv_widgets/lv_canvas.c ****     LV_ASSERT_NULL(to_copy);
 1712              		.loc 1 241 5 is_stmt 1 discriminator 1 view .LVU459
 241:lvgl/src/lv_widgets/lv_canvas.c ****     LV_ASSERT_NULL(to_copy);
 1713              		.loc 1 241 5 discriminator 1 view .LVU460
 1714 001a 2A46     		mov	r2, r5
 1715 001c 0023     		movs	r3, #0
 1716 001e 2248     		ldr	r0, .L117
 1717 0020 FFF7FEFF 		bl	lv_debug_log_error
 1718              	.LVL162:
 1719              	.L109:
 241:lvgl/src/lv_widgets/lv_canvas.c ****     LV_ASSERT_NULL(to_copy);
 1720              		.loc 1 241 5 discriminator 1 view .LVU461
 241:lvgl/src/lv_widgets/lv_canvas.c ****     LV_ASSERT_NULL(to_copy);
 1721              		.loc 1 241 5 discriminator 1 view .LVU462
 1722 0024 FEE7     		b	.L109
 1723              	.L108:
 241:lvgl/src/lv_widgets/lv_canvas.c ****     LV_ASSERT_NULL(to_copy);
 1724              		.loc 1 241 40 discriminator 2 view .LVU463
 242:lvgl/src/lv_widgets/lv_canvas.c **** 
 1725              		.loc 1 242 5 discriminator 2 view .LVU464
 242:lvgl/src/lv_widgets/lv_canvas.c **** 
 1726              		.loc 1 242 5 discriminator 2 view .LVU465
 1727 0026 3846     		mov	r0, r7
 1728 0028 FFF7FEFF 		bl	lv_debug_check_null
 1729              	.LVL163:
ARM GAS  D:\Temp\cc0vPyDE.s 			page 73


 1730 002c 28B9     		cbnz	r0, .L110
 242:lvgl/src/lv_widgets/lv_canvas.c **** 
 1731              		.loc 1 242 5 discriminator 1 view .LVU466
 242:lvgl/src/lv_widgets/lv_canvas.c **** 
 1732              		.loc 1 242 5 discriminator 1 view .LVU467
 1733 002e 3A46     		mov	r2, r7
 1734 0030 0023     		movs	r3, #0
 1735 0032 1D48     		ldr	r0, .L117
 1736 0034 FFF7FEFF 		bl	lv_debug_log_error
 1737              	.LVL164:
 1738              	.L111:
 242:lvgl/src/lv_widgets/lv_canvas.c **** 
 1739              		.loc 1 242 5 discriminator 2 view .LVU468
 242:lvgl/src/lv_widgets/lv_canvas.c **** 
 1740              		.loc 1 242 5 discriminator 2 view .LVU469
 1741 0038 FEE7     		b	.L111
 1742              	.L110:
 242:lvgl/src/lv_widgets/lv_canvas.c **** 
 1743              		.loc 1 242 28 discriminator 2 view .LVU470
 244:lvgl/src/lv_widgets/lv_canvas.c ****     if(x + w >= (lv_coord_t)ext->dsc.header.w || y + h >= (lv_coord_t)ext->dsc.header.h) {
 1744              		.loc 1 244 5 discriminator 2 view .LVU471
 244:lvgl/src/lv_widgets/lv_canvas.c ****     if(x + w >= (lv_coord_t)ext->dsc.header.w || y + h >= (lv_coord_t)ext->dsc.header.h) {
 1745              		.loc 1 244 29 is_stmt 0 discriminator 2 view .LVU472
 1746 003a 2846     		mov	r0, r5
 1747 003c FFF7FEFF 		bl	lv_obj_get_ext_attr
 1748              	.LVL165:
 1749 0040 0546     		mov	r5, r0
 1750              	.LVL166:
 245:lvgl/src/lv_widgets/lv_canvas.c ****         LV_LOG_WARN("lv_canvas_copy_buf: x or y out of the canvas");
 1751              		.loc 1 245 5 is_stmt 1 discriminator 2 view .LVU473
 245:lvgl/src/lv_widgets/lv_canvas.c ****         LV_LOG_WARN("lv_canvas_copy_buf: x or y out of the canvas");
 1752              		.loc 1 245 10 is_stmt 0 discriminator 2 view .LVU474
 1753 0042 06EB0902 		add	r2, r6, r9
 245:lvgl/src/lv_widgets/lv_canvas.c ****         LV_LOG_WARN("lv_canvas_copy_buf: x or y out of the canvas");
 1754              		.loc 1 245 44 discriminator 2 view .LVU475
 1755 0046 8369     		ldr	r3, [r0, #24]
 1756 0048 C3F38A23 		ubfx	r3, r3, #10, #11
 245:lvgl/src/lv_widgets/lv_canvas.c ****         LV_LOG_WARN("lv_canvas_copy_buf: x or y out of the canvas");
 1757              		.loc 1 245 7 discriminator 2 view .LVU476
 1758 004c 9A42     		cmp	r2, r3
 1759 004e 05DA     		bge	.L107
 245:lvgl/src/lv_widgets/lv_canvas.c ****         LV_LOG_WARN("lv_canvas_copy_buf: x or y out of the canvas");
 1760              		.loc 1 245 52 discriminator 1 view .LVU477
 1761 0050 0AEB0403 		add	r3, r10, r4
 245:lvgl/src/lv_widgets/lv_canvas.c ****         LV_LOG_WARN("lv_canvas_copy_buf: x or y out of the canvas");
 1762              		.loc 1 245 86 discriminator 1 view .LVU478
 1763 0054 428B     		ldrh	r2, [r0, #26]
 245:lvgl/src/lv_widgets/lv_canvas.c ****         LV_LOG_WARN("lv_canvas_copy_buf: x or y out of the canvas");
 1764              		.loc 1 245 47 discriminator 1 view .LVU479
 1765 0056 B3EB521F 		cmp	r3, r2, lsr #5
 1766 005a 01DB     		blt	.L116
 1767              	.LVL167:
 1768              	.L107:
 259:lvgl/src/lv_widgets/lv_canvas.c **** 
 1769              		.loc 1 259 1 view .LVU480
 1770 005c BDE8F88F 		pop	{r3, r4, r5, r6, r7, r8, r9, r10, fp, pc}
 1771              	.LVL168:
ARM GAS  D:\Temp\cc0vPyDE.s 			page 74


 1772              	.L116:
 250:lvgl/src/lv_widgets/lv_canvas.c ****     uint32_t px        = ext->dsc.header.w * y * px_size + x * px_size;
 1773              		.loc 1 250 5 is_stmt 1 view .LVU481
 250:lvgl/src/lv_widgets/lv_canvas.c ****     uint32_t px        = ext->dsc.header.w * y * px_size + x * px_size;
 1774              		.loc 1 250 63 is_stmt 0 view .LVU482
 1775 0060 007E     		ldrb	r0, [r0, #24]	@ zero_extendqisi2
 1776              	.LVL169:
 250:lvgl/src/lv_widgets/lv_canvas.c ****     uint32_t px        = ext->dsc.header.w * y * px_size + x * px_size;
 1777              		.loc 1 250 26 view .LVU483
 1778 0062 00F01F00 		and	r0, r0, #31
 1779 0066 FFF7FEFF 		bl	lv_img_cf_get_px_size
 1780              	.LVL170:
 250:lvgl/src/lv_widgets/lv_canvas.c ****     uint32_t px        = ext->dsc.header.w * y * px_size + x * px_size;
 1781              		.loc 1 250 68 view .LVU484
 1782 006a C0F3C708 		ubfx	r8, r0, #3, #8
 1783              	.LVL171:
 251:lvgl/src/lv_widgets/lv_canvas.c ****     uint8_t * to_copy8 = (uint8_t *)to_copy;
 1784              		.loc 1 251 5 is_stmt 1 view .LVU485
 251:lvgl/src/lv_widgets/lv_canvas.c ****     uint8_t * to_copy8 = (uint8_t *)to_copy;
 1785              		.loc 1 251 41 is_stmt 0 view .LVU486
 1786 006e AB69     		ldr	r3, [r5, #24]
 1787 0070 C3F38A23 		ubfx	r3, r3, #10, #11
 251:lvgl/src/lv_widgets/lv_canvas.c ****     uint8_t * to_copy8 = (uint8_t *)to_copy;
 1788              		.loc 1 251 58 view .LVU487
 1789 0074 03FB0464 		mla	r4, r3, r4, r6
 251:lvgl/src/lv_widgets/lv_canvas.c ****     uint8_t * to_copy8 = (uint8_t *)to_copy;
 1790              		.loc 1 251 14 view .LVU488
 1791 0078 08FB04F4 		mul	r4, r8, r4
 1792              	.LVL172:
 252:lvgl/src/lv_widgets/lv_canvas.c ****     lv_coord_t i;
 1793              		.loc 1 252 5 is_stmt 1 view .LVU489
 253:lvgl/src/lv_widgets/lv_canvas.c ****     for(i = 0; i < h; i++) {
 1794              		.loc 1 253 5 view .LVU490
 254:lvgl/src/lv_widgets/lv_canvas.c ****         _lv_memcpy((void *)&ext->dsc.data[px], to_copy8, w * px_size);
 1795              		.loc 1 254 5 view .LVU491
 254:lvgl/src/lv_widgets/lv_canvas.c ****         _lv_memcpy((void *)&ext->dsc.data[px], to_copy8, w * px_size);
 1796              		.loc 1 254 11 is_stmt 0 view .LVU492
 1797 007c 0026     		movs	r6, #0
 254:lvgl/src/lv_widgets/lv_canvas.c ****         _lv_memcpy((void *)&ext->dsc.data[px], to_copy8, w * px_size);
 1798              		.loc 1 254 5 view .LVU493
 1799 007e 0FE0     		b	.L113
 1800              	.LVL173:
 1801              	.L114:
 255:lvgl/src/lv_widgets/lv_canvas.c ****         px += ext->dsc.header.w * px_size;
 1802              		.loc 1 255 9 is_stmt 1 discriminator 3 view .LVU494
 255:lvgl/src/lv_widgets/lv_canvas.c ****         px += ext->dsc.header.w * px_size;
 1803              		.loc 1 255 37 is_stmt 0 discriminator 3 view .LVU495
 1804 0080 286A     		ldr	r0, [r5, #32]
 255:lvgl/src/lv_widgets/lv_canvas.c ****         px += ext->dsc.header.w * px_size;
 1805              		.loc 1 255 60 discriminator 3 view .LVU496
 1806 0082 08FB09FB 		mul	fp, r8, r9
 255:lvgl/src/lv_widgets/lv_canvas.c ****         px += ext->dsc.header.w * px_size;
 1807              		.loc 1 255 9 discriminator 3 view .LVU497
 1808 0086 5A46     		mov	r2, fp
 1809 0088 3946     		mov	r1, r7
 1810 008a 2044     		add	r0, r0, r4
 1811 008c FFF7FEFF 		bl	_lv_memcpy
ARM GAS  D:\Temp\cc0vPyDE.s 			page 75


 1812              	.LVL174:
 256:lvgl/src/lv_widgets/lv_canvas.c ****         to_copy8 += w * px_size;
 1813              		.loc 1 256 9 is_stmt 1 discriminator 3 view .LVU498
 256:lvgl/src/lv_widgets/lv_canvas.c ****         to_copy8 += w * px_size;
 1814              		.loc 1 256 30 is_stmt 0 discriminator 3 view .LVU499
 1815 0090 AB69     		ldr	r3, [r5, #24]
 1816 0092 C3F38A23 		ubfx	r3, r3, #10, #11
 256:lvgl/src/lv_widgets/lv_canvas.c ****         to_copy8 += w * px_size;
 1817              		.loc 1 256 12 discriminator 3 view .LVU500
 1818 0096 08FB0344 		mla	r4, r8, r3, r4
 1819              	.LVL175:
 257:lvgl/src/lv_widgets/lv_canvas.c ****     }
 1820              		.loc 1 257 9 is_stmt 1 discriminator 3 view .LVU501
 257:lvgl/src/lv_widgets/lv_canvas.c ****     }
 1821              		.loc 1 257 18 is_stmt 0 discriminator 3 view .LVU502
 1822 009a 5F44     		add	r7, r7, fp
 1823              	.LVL176:
 254:lvgl/src/lv_widgets/lv_canvas.c ****         _lv_memcpy((void *)&ext->dsc.data[px], to_copy8, w * px_size);
 1824              		.loc 1 254 24 discriminator 3 view .LVU503
 1825 009c 0136     		adds	r6, r6, #1
 1826              	.LVL177:
 254:lvgl/src/lv_widgets/lv_canvas.c ****         _lv_memcpy((void *)&ext->dsc.data[px], to_copy8, w * px_size);
 1827              		.loc 1 254 24 discriminator 3 view .LVU504
 1828 009e 36B2     		sxth	r6, r6
 1829              	.LVL178:
 1830              	.L113:
 254:lvgl/src/lv_widgets/lv_canvas.c ****         _lv_memcpy((void *)&ext->dsc.data[px], to_copy8, w * px_size);
 1831              		.loc 1 254 5 discriminator 1 view .LVU505
 1832 00a0 5645     		cmp	r6, r10
 1833 00a2 EDDB     		blt	.L114
 254:lvgl/src/lv_widgets/lv_canvas.c ****         _lv_memcpy((void *)&ext->dsc.data[px], to_copy8, w * px_size);
 1834              		.loc 1 254 5 discriminator 1 view .LVU506
 1835 00a4 DAE7     		b	.L107
 1836              	.L118:
 1837 00a6 00BF     		.align	2
 1838              	.L117:
 1839 00a8 00000000 		.word	.LC2
 1840              		.cfi_endproc
 1841              	.LFE464:
 1843              		.section	.text.lv_canvas_transform,"ax",%progbits
 1844              		.align	1
 1845              		.global	lv_canvas_transform
 1846              		.syntax unified
 1847              		.thumb
 1848              		.thumb_func
 1849              		.fpu fpv4-sp-d16
 1851              	lv_canvas_transform:
 1852              	.LVL179:
 1853              	.LFB465:
 279:lvgl/src/lv_widgets/lv_canvas.c **** #if LV_USE_IMG_TRANSFORM
 1854              		.loc 1 279 1 is_stmt 1 view -0
 1855              		.cfi_startproc
 1856              		@ args = 20, pretend = 0, frame = 136
 1857              		@ frame_needed = 0, uses_anonymous_args = 0
 279:lvgl/src/lv_widgets/lv_canvas.c **** #if LV_USE_IMG_TRANSFORM
 1858              		.loc 1 279 1 is_stmt 0 view .LVU508
 1859 0000 2DE9F04F 		push	{r4, r5, r6, r7, r8, r9, r10, fp, lr}
ARM GAS  D:\Temp\cc0vPyDE.s 			page 76


 1860              	.LCFI29:
 1861              		.cfi_def_cfa_offset 36
 1862              		.cfi_offset 4, -36
 1863              		.cfi_offset 5, -32
 1864              		.cfi_offset 6, -28
 1865              		.cfi_offset 7, -24
 1866              		.cfi_offset 8, -20
 1867              		.cfi_offset 9, -16
 1868              		.cfi_offset 10, -12
 1869              		.cfi_offset 11, -8
 1870              		.cfi_offset 14, -4
 1871 0004 A3B0     		sub	sp, sp, #140
 1872              	.LCFI30:
 1873              		.cfi_def_cfa_offset 176
 1874 0006 0646     		mov	r6, r0
 1875 0008 0A90     		str	r0, [sp, #40]
 1876 000a 0491     		str	r1, [sp, #16]
 1877 000c 1546     		mov	r5, r2
 1878 000e 1C46     		mov	r4, r3
 1879 0010 BDF9B030 		ldrsh	r3, [sp, #176]
 1880              	.LVL180:
 279:lvgl/src/lv_widgets/lv_canvas.c **** #if LV_USE_IMG_TRANSFORM
 1881              		.loc 1 279 1 view .LVU509
 1882 0014 0593     		str	r3, [sp, #20]
 1883 0016 BDF9B430 		ldrsh	r3, [sp, #180]
 1884 001a 0693     		str	r3, [sp, #24]
 281:lvgl/src/lv_widgets/lv_canvas.c ****     LV_ASSERT_NULL(img);
 1885              		.loc 1 281 5 is_stmt 1 view .LVU510
 281:lvgl/src/lv_widgets/lv_canvas.c ****     LV_ASSERT_NULL(img);
 1886              		.loc 1 281 5 view .LVU511
 1887 001c FFF7FEFF 		bl	lv_debug_check_null
 1888              	.LVL181:
 281:lvgl/src/lv_widgets/lv_canvas.c ****     LV_ASSERT_NULL(img);
 1889              		.loc 1 281 5 is_stmt 0 view .LVU512
 1890 0020 28B9     		cbnz	r0, .L120
 281:lvgl/src/lv_widgets/lv_canvas.c ****     LV_ASSERT_NULL(img);
 1891              		.loc 1 281 5 is_stmt 1 discriminator 1 view .LVU513
 281:lvgl/src/lv_widgets/lv_canvas.c ****     LV_ASSERT_NULL(img);
 1892              		.loc 1 281 5 discriminator 1 view .LVU514
 1893 0022 3246     		mov	r2, r6
 1894 0024 0023     		movs	r3, #0
 1895 0026 A648     		ldr	r0, .L162
 1896 0028 FFF7FEFF 		bl	lv_debug_log_error
 1897              	.LVL182:
 1898              	.L121:
 281:lvgl/src/lv_widgets/lv_canvas.c ****     LV_ASSERT_NULL(img);
 1899              		.loc 1 281 5 discriminator 1 view .LVU515
 281:lvgl/src/lv_widgets/lv_canvas.c ****     LV_ASSERT_NULL(img);
 1900              		.loc 1 281 5 discriminator 1 view .LVU516
 1901 002c FEE7     		b	.L121
 1902              	.L120:
 281:lvgl/src/lv_widgets/lv_canvas.c ****     LV_ASSERT_NULL(img);
 1903              		.loc 1 281 40 discriminator 2 view .LVU517
 282:lvgl/src/lv_widgets/lv_canvas.c **** 
 1904              		.loc 1 282 5 discriminator 2 view .LVU518
 282:lvgl/src/lv_widgets/lv_canvas.c **** 
 1905              		.loc 1 282 5 discriminator 2 view .LVU519
ARM GAS  D:\Temp\cc0vPyDE.s 			page 77


 1906 002e 049E     		ldr	r6, [sp, #16]
 1907              	.LVL183:
 282:lvgl/src/lv_widgets/lv_canvas.c **** 
 1908              		.loc 1 282 5 is_stmt 0 discriminator 2 view .LVU520
 1909 0030 3046     		mov	r0, r6
 1910 0032 FFF7FEFF 		bl	lv_debug_check_null
 1911              	.LVL184:
 1912 0036 0B90     		str	r0, [sp, #44]
 1913 0038 28B9     		cbnz	r0, .L122
 282:lvgl/src/lv_widgets/lv_canvas.c **** 
 1914              		.loc 1 282 5 is_stmt 1 discriminator 1 view .LVU521
 282:lvgl/src/lv_widgets/lv_canvas.c **** 
 1915              		.loc 1 282 5 discriminator 1 view .LVU522
 1916 003a 3246     		mov	r2, r6
 1917 003c 0023     		movs	r3, #0
 1918 003e A048     		ldr	r0, .L162
 1919 0040 FFF7FEFF 		bl	lv_debug_log_error
 1920              	.LVL185:
 1921              	.L123:
 282:lvgl/src/lv_widgets/lv_canvas.c **** 
 1922              		.loc 1 282 5 discriminator 2 view .LVU523
 282:lvgl/src/lv_widgets/lv_canvas.c **** 
 1923              		.loc 1 282 5 discriminator 2 view .LVU524
 1924 0044 FEE7     		b	.L123
 1925              	.L122:
 282:lvgl/src/lv_widgets/lv_canvas.c **** 
 1926              		.loc 1 282 24 discriminator 2 view .LVU525
 284:lvgl/src/lv_widgets/lv_canvas.c ****     lv_color_t color = lv_obj_get_style_image_recolor(canvas, LV_CANVAS_PART_MAIN);
 1927              		.loc 1 284 5 discriminator 2 view .LVU526
 284:lvgl/src/lv_widgets/lv_canvas.c ****     lv_color_t color = lv_obj_get_style_image_recolor(canvas, LV_CANVAS_PART_MAIN);
 1928              		.loc 1 284 33 is_stmt 0 discriminator 2 view .LVU527
 1929 0046 0A9F     		ldr	r7, [sp, #40]
 1930 0048 3846     		mov	r0, r7
 1931 004a FFF7FEFF 		bl	lv_obj_get_ext_attr
 1932              	.LVL186:
 1933 004e 0646     		mov	r6, r0
 1934 0050 0890     		str	r0, [sp, #32]
 1935              	.LVL187:
 285:lvgl/src/lv_widgets/lv_canvas.c **** 
 1936              		.loc 1 285 5 is_stmt 1 discriminator 2 view .LVU528
 1937              	.LBB104:
 1938              	.LBI104:
 1939              		.loc 3 177 1 discriminator 2 view .LVU529
 1940              	.LBB105:
 1941              		.loc 3 177 1 discriminator 2 view .LVU530
 1942 0052 48F2A902 		movw	r2, #32937
 1943 0056 0021     		movs	r1, #0
 1944 0058 3846     		mov	r0, r7
 1945              	.LVL188:
 1946              		.loc 3 177 1 is_stmt 0 discriminator 2 view .LVU531
 1947 005a FFF7FEFF 		bl	_lv_obj_get_style_color
 1948              	.LVL189:
 1949              		.loc 3 177 1 discriminator 2 view .LVU532
 1950              	.LBE105:
 1951              	.LBE104:
 287:lvgl/src/lv_widgets/lv_canvas.c ****     int32_t dest_height = ext_dst->dsc.header.h;
 1952              		.loc 1 287 5 is_stmt 1 discriminator 2 view .LVU533
ARM GAS  D:\Temp\cc0vPyDE.s 			page 78


 287:lvgl/src/lv_widgets/lv_canvas.c ****     int32_t dest_height = ext_dst->dsc.header.h;
 1953              		.loc 1 287 46 is_stmt 0 discriminator 2 view .LVU534
 1954 005e B369     		ldr	r3, [r6, #24]
 1955 0060 C3F38A23 		ubfx	r3, r3, #10, #11
 1956 0064 0393     		str	r3, [sp, #12]
 1957              	.LVL190:
 288:lvgl/src/lv_widgets/lv_canvas.c **** 
 1958              		.loc 1 288 5 is_stmt 1 discriminator 2 view .LVU535
 288:lvgl/src/lv_widgets/lv_canvas.c **** 
 1959              		.loc 1 288 46 is_stmt 0 discriminator 2 view .LVU536
 1960 0066 738B     		ldrh	r3, [r6, #26]
 1961              	.LVL191:
 288:lvgl/src/lv_widgets/lv_canvas.c **** 
 1962              		.loc 1 288 46 discriminator 2 view .LVU537
 1963 0068 5B09     		lsrs	r3, r3, #5
 1964 006a 0993     		str	r3, [sp, #36]
 1965              	.LVL192:
 290:lvgl/src/lv_widgets/lv_canvas.c ****     int32_t y;
 1966              		.loc 1 290 5 is_stmt 1 discriminator 2 view .LVU538
 291:lvgl/src/lv_widgets/lv_canvas.c ****     bool ret;
 1967              		.loc 1 291 5 discriminator 2 view .LVU539
 292:lvgl/src/lv_widgets/lv_canvas.c **** 
 1968              		.loc 1 292 5 discriminator 2 view .LVU540
 294:lvgl/src/lv_widgets/lv_canvas.c ****     dsc.cfg.angle = angle;
 1969              		.loc 1 294 5 discriminator 2 view .LVU541
 295:lvgl/src/lv_widgets/lv_canvas.c ****     dsc.cfg.zoom = zoom;
 1970              		.loc 1 295 5 discriminator 2 view .LVU542
 295:lvgl/src/lv_widgets/lv_canvas.c ****     dsc.cfg.zoom = zoom;
 1971              		.loc 1 295 19 is_stmt 0 discriminator 2 view .LVU543
 1972 006c ADF84850 		strh	r5, [sp, #72]	@ movhi
 296:lvgl/src/lv_widgets/lv_canvas.c ****     dsc.cfg.src = img->data;
 1973              		.loc 1 296 5 is_stmt 1 discriminator 2 view .LVU544
 296:lvgl/src/lv_widgets/lv_canvas.c ****     dsc.cfg.src = img->data;
 1974              		.loc 1 296 18 is_stmt 0 discriminator 2 view .LVU545
 1975 0070 ADF84A40 		strh	r4, [sp, #74]	@ movhi
 297:lvgl/src/lv_widgets/lv_canvas.c ****     dsc.cfg.src_w = img->header.w;
 1976              		.loc 1 297 5 is_stmt 1 discriminator 2 view .LVU546
 297:lvgl/src/lv_widgets/lv_canvas.c ****     dsc.cfg.src_w = img->header.w;
 1977              		.loc 1 297 22 is_stmt 0 discriminator 2 view .LVU547
 1978 0074 049A     		ldr	r2, [sp, #16]
 1979 0076 9368     		ldr	r3, [r2, #8]
 1980              	.LVL193:
 297:lvgl/src/lv_widgets/lv_canvas.c ****     dsc.cfg.src_w = img->header.w;
 1981              		.loc 1 297 17 discriminator 2 view .LVU548
 1982 0078 0F93     		str	r3, [sp, #60]
 298:lvgl/src/lv_widgets/lv_canvas.c ****     dsc.cfg.src_h = img->header.h;
 1983              		.loc 1 298 5 is_stmt 1 discriminator 2 view .LVU549
 298:lvgl/src/lv_widgets/lv_canvas.c ****     dsc.cfg.src_h = img->header.h;
 1984              		.loc 1 298 32 is_stmt 0 discriminator 2 view .LVU550
 1985 007a 1368     		ldr	r3, [r2]
 1986 007c C3F38A23 		ubfx	r3, r3, #10, #11
 298:lvgl/src/lv_widgets/lv_canvas.c ****     dsc.cfg.src_h = img->header.h;
 1987              		.loc 1 298 19 discriminator 2 view .LVU551
 1988 0080 ADF84030 		strh	r3, [sp, #64]	@ movhi
 299:lvgl/src/lv_widgets/lv_canvas.c ****     dsc.cfg.cf = img->header.cf;
 1989              		.loc 1 299 5 is_stmt 1 discriminator 2 view .LVU552
 299:lvgl/src/lv_widgets/lv_canvas.c ****     dsc.cfg.cf = img->header.cf;
ARM GAS  D:\Temp\cc0vPyDE.s 			page 79


 1990              		.loc 1 299 32 is_stmt 0 discriminator 2 view .LVU553
 1991 0084 5388     		ldrh	r3, [r2, #2]
 1992 0086 C3F34A13 		ubfx	r3, r3, #5, #11
 299:lvgl/src/lv_widgets/lv_canvas.c ****     dsc.cfg.cf = img->header.cf;
 1993              		.loc 1 299 19 discriminator 2 view .LVU554
 1994 008a ADF84230 		strh	r3, [sp, #66]	@ movhi
 300:lvgl/src/lv_widgets/lv_canvas.c ****     dsc.cfg.pivot_x = pivot_x;
 1995              		.loc 1 300 5 is_stmt 1 discriminator 2 view .LVU555
 300:lvgl/src/lv_widgets/lv_canvas.c ****     dsc.cfg.pivot_x = pivot_x;
 1996              		.loc 1 300 29 is_stmt 0 discriminator 2 view .LVU556
 1997 008e 1378     		ldrb	r3, [r2]	@ zero_extendqisi2
 1998 0090 C3F30403 		ubfx	r3, r3, #0, #5
 300:lvgl/src/lv_widgets/lv_canvas.c ****     dsc.cfg.pivot_x = pivot_x;
 1999              		.loc 1 300 16 discriminator 2 view .LVU557
 2000 0094 8DF84E30 		strb	r3, [sp, #78]
 301:lvgl/src/lv_widgets/lv_canvas.c ****     dsc.cfg.pivot_y = pivot_y;
 2001              		.loc 1 301 5 is_stmt 1 discriminator 2 view .LVU558
 301:lvgl/src/lv_widgets/lv_canvas.c ****     dsc.cfg.pivot_y = pivot_y;
 2002              		.loc 1 301 21 is_stmt 0 discriminator 2 view .LVU559
 2003 0098 2E9B     		ldr	r3, [sp, #184]
 2004 009a ADF84430 		strh	r3, [sp, #68]	@ movhi
 302:lvgl/src/lv_widgets/lv_canvas.c ****     dsc.cfg.color = color;
 2005              		.loc 1 302 5 is_stmt 1 discriminator 2 view .LVU560
 302:lvgl/src/lv_widgets/lv_canvas.c ****     dsc.cfg.color = color;
 2006              		.loc 1 302 21 is_stmt 0 discriminator 2 view .LVU561
 2007 009e 2F9B     		ldr	r3, [sp, #188]
 2008 00a0 ADF84630 		strh	r3, [sp, #70]	@ movhi
 303:lvgl/src/lv_widgets/lv_canvas.c ****     dsc.cfg.antialias = antialias;
 2009              		.loc 1 303 5 is_stmt 1 discriminator 2 view .LVU562
 303:lvgl/src/lv_widgets/lv_canvas.c ****     dsc.cfg.antialias = antialias;
 2010              		.loc 1 303 19 is_stmt 0 discriminator 2 view .LVU563
 2011 00a4 ADF84C00 		strh	r0, [sp, #76]	@ movhi
 304:lvgl/src/lv_widgets/lv_canvas.c ****     _lv_img_buf_transform_init(&dsc);
 2012              		.loc 1 304 5 is_stmt 1 discriminator 2 view .LVU564
 304:lvgl/src/lv_widgets/lv_canvas.c ****     _lv_img_buf_transform_init(&dsc);
 2013              		.loc 1 304 23 is_stmt 0 discriminator 2 view .LVU565
 2014 00a8 9DF8C030 		ldrb	r3, [sp, #192]	@ zero_extendqisi2
 2015 00ac 8DF84F30 		strb	r3, [sp, #79]
 305:lvgl/src/lv_widgets/lv_canvas.c **** 
 2016              		.loc 1 305 5 is_stmt 1 discriminator 2 view .LVU566
 2017 00b0 0FA8     		add	r0, sp, #60
 2018 00b2 FFF7FEFF 		bl	_lv_img_buf_transform_init
 2019              	.LVL194:
 307:lvgl/src/lv_widgets/lv_canvas.c ****         for(x = -offset_x; x < dest_width - offset_x; x++) {
 2020              		.loc 1 307 5 discriminator 2 view .LVU567
 307:lvgl/src/lv_widgets/lv_canvas.c ****         for(x = -offset_x; x < dest_width - offset_x; x++) {
 2021              		.loc 1 307 13 is_stmt 0 discriminator 2 view .LVU568
 2022 00b6 069B     		ldr	r3, [sp, #24]
 2023 00b8 0793     		str	r3, [sp, #28]
 307:lvgl/src/lv_widgets/lv_canvas.c ****         for(x = -offset_x; x < dest_width - offset_x; x++) {
 2024              		.loc 1 307 11 discriminator 2 view .LVU569
 2025 00ba 5B42     		rsbs	r3, r3, #0
 2026 00bc 0093     		str	r3, [sp]
 2027              	.LVL195:
 307:lvgl/src/lv_widgets/lv_canvas.c ****         for(x = -offset_x; x < dest_width - offset_x; x++) {
 2028              		.loc 1 307 11 discriminator 2 view .LVU570
 2029 00be D046     		mov	r8, r10	@ movhi
ARM GAS  D:\Temp\cc0vPyDE.s 			page 80


 307:lvgl/src/lv_widgets/lv_canvas.c ****         for(x = -offset_x; x < dest_width - offset_x; x++) {
 2030              		.loc 1 307 5 discriminator 2 view .LVU571
 2031 00c0 11E2     		b	.L124
 2032              	.LVL196:
 2033              	.L159:
 2034              	.LBB106:
 2035              	.LBB107:
 2036              		.file 4 "lvgl/src/lv_widgets/../lv_core/../lv_draw/lv_img_buf.h"
   1:lvgl/src/lv_widgets/../lv_core/../lv_draw/lv_img_buf.h **** /**
   2:lvgl/src/lv_widgets/../lv_core/../lv_draw/lv_img_buf.h ****  * @file lv_img_buf.h
   3:lvgl/src/lv_widgets/../lv_core/../lv_draw/lv_img_buf.h ****  *
   4:lvgl/src/lv_widgets/../lv_core/../lv_draw/lv_img_buf.h ****  */
   5:lvgl/src/lv_widgets/../lv_core/../lv_draw/lv_img_buf.h **** 
   6:lvgl/src/lv_widgets/../lv_core/../lv_draw/lv_img_buf.h **** #ifndef LV_IMG_BUF_H
   7:lvgl/src/lv_widgets/../lv_core/../lv_draw/lv_img_buf.h **** #define LV_IMG_BUF_H
   8:lvgl/src/lv_widgets/../lv_core/../lv_draw/lv_img_buf.h **** 
   9:lvgl/src/lv_widgets/../lv_core/../lv_draw/lv_img_buf.h **** #ifdef __cplusplus
  10:lvgl/src/lv_widgets/../lv_core/../lv_draw/lv_img_buf.h **** extern "C" {
  11:lvgl/src/lv_widgets/../lv_core/../lv_draw/lv_img_buf.h **** #endif
  12:lvgl/src/lv_widgets/../lv_core/../lv_draw/lv_img_buf.h **** 
  13:lvgl/src/lv_widgets/../lv_core/../lv_draw/lv_img_buf.h **** /*********************
  14:lvgl/src/lv_widgets/../lv_core/../lv_draw/lv_img_buf.h ****  *      INCLUDES
  15:lvgl/src/lv_widgets/../lv_core/../lv_draw/lv_img_buf.h ****  *********************/
  16:lvgl/src/lv_widgets/../lv_core/../lv_draw/lv_img_buf.h **** #include <stdbool.h>
  17:lvgl/src/lv_widgets/../lv_core/../lv_draw/lv_img_buf.h **** #include "../lv_misc/lv_color.h"
  18:lvgl/src/lv_widgets/../lv_core/../lv_draw/lv_img_buf.h **** #include "../lv_misc/lv_area.h"
  19:lvgl/src/lv_widgets/../lv_core/../lv_draw/lv_img_buf.h **** 
  20:lvgl/src/lv_widgets/../lv_core/../lv_draw/lv_img_buf.h **** /*********************
  21:lvgl/src/lv_widgets/../lv_core/../lv_draw/lv_img_buf.h ****  *      DEFINES
  22:lvgl/src/lv_widgets/../lv_core/../lv_draw/lv_img_buf.h ****  *********************/
  23:lvgl/src/lv_widgets/../lv_core/../lv_draw/lv_img_buf.h **** /*If image pixels contains alpha we need to know how much byte is a pixel*/
  24:lvgl/src/lv_widgets/../lv_core/../lv_draw/lv_img_buf.h **** #if LV_COLOR_DEPTH == 1 || LV_COLOR_DEPTH == 8
  25:lvgl/src/lv_widgets/../lv_core/../lv_draw/lv_img_buf.h **** #define LV_IMG_PX_SIZE_ALPHA_BYTE 2
  26:lvgl/src/lv_widgets/../lv_core/../lv_draw/lv_img_buf.h **** #elif LV_COLOR_DEPTH == 16
  27:lvgl/src/lv_widgets/../lv_core/../lv_draw/lv_img_buf.h **** #define LV_IMG_PX_SIZE_ALPHA_BYTE 3
  28:lvgl/src/lv_widgets/../lv_core/../lv_draw/lv_img_buf.h **** #elif LV_COLOR_DEPTH == 32
  29:lvgl/src/lv_widgets/../lv_core/../lv_draw/lv_img_buf.h **** #define LV_IMG_PX_SIZE_ALPHA_BYTE 4
  30:lvgl/src/lv_widgets/../lv_core/../lv_draw/lv_img_buf.h **** #endif
  31:lvgl/src/lv_widgets/../lv_core/../lv_draw/lv_img_buf.h **** 
  32:lvgl/src/lv_widgets/../lv_core/../lv_draw/lv_img_buf.h **** #define LV_IMG_BUF_SIZE_TRUE_COLOR(w, h) ((LV_COLOR_SIZE / 8) * w * h)
  33:lvgl/src/lv_widgets/../lv_core/../lv_draw/lv_img_buf.h **** #define LV_IMG_BUF_SIZE_TRUE_COLOR_CHROMA_KEYED(w, h) ((LV_COLOR_SIZE / 8) * w * h)
  34:lvgl/src/lv_widgets/../lv_core/../lv_draw/lv_img_buf.h **** #define LV_IMG_BUF_SIZE_TRUE_COLOR_ALPHA(w, h) (LV_IMG_PX_SIZE_ALPHA_BYTE * w * h)
  35:lvgl/src/lv_widgets/../lv_core/../lv_draw/lv_img_buf.h **** 
  36:lvgl/src/lv_widgets/../lv_core/../lv_draw/lv_img_buf.h **** /*+ 1: to be sure no fractional row*/
  37:lvgl/src/lv_widgets/../lv_core/../lv_draw/lv_img_buf.h **** #define LV_IMG_BUF_SIZE_ALPHA_1BIT(w, h) ((((w / 8) + 1) * h))
  38:lvgl/src/lv_widgets/../lv_core/../lv_draw/lv_img_buf.h **** #define LV_IMG_BUF_SIZE_ALPHA_2BIT(w, h) ((((w / 4) + 1) * h))
  39:lvgl/src/lv_widgets/../lv_core/../lv_draw/lv_img_buf.h **** #define LV_IMG_BUF_SIZE_ALPHA_4BIT(w, h) ((((w / 2) + 1) * h))
  40:lvgl/src/lv_widgets/../lv_core/../lv_draw/lv_img_buf.h **** #define LV_IMG_BUF_SIZE_ALPHA_8BIT(w, h) ((w * h))
  41:lvgl/src/lv_widgets/../lv_core/../lv_draw/lv_img_buf.h **** 
  42:lvgl/src/lv_widgets/../lv_core/../lv_draw/lv_img_buf.h **** /*4 * X: for palette*/
  43:lvgl/src/lv_widgets/../lv_core/../lv_draw/lv_img_buf.h **** #define LV_IMG_BUF_SIZE_INDEXED_1BIT(w, h) (LV_IMG_BUF_SIZE_ALPHA_1BIT(w, h) + 4 * 2)
  44:lvgl/src/lv_widgets/../lv_core/../lv_draw/lv_img_buf.h **** #define LV_IMG_BUF_SIZE_INDEXED_2BIT(w, h) (LV_IMG_BUF_SIZE_ALPHA_2BIT(w, h) + 4 * 4)
  45:lvgl/src/lv_widgets/../lv_core/../lv_draw/lv_img_buf.h **** #define LV_IMG_BUF_SIZE_INDEXED_4BIT(w, h) (LV_IMG_BUF_SIZE_ALPHA_4BIT(w, h) + 4 * 16)
  46:lvgl/src/lv_widgets/../lv_core/../lv_draw/lv_img_buf.h **** #define LV_IMG_BUF_SIZE_INDEXED_8BIT(w, h) (LV_IMG_BUF_SIZE_ALPHA_8BIT(w, h) + 4 * 256)
  47:lvgl/src/lv_widgets/../lv_core/../lv_draw/lv_img_buf.h **** 
  48:lvgl/src/lv_widgets/../lv_core/../lv_draw/lv_img_buf.h **** #define LV_IMG_ZOOM_NONE   256
  49:lvgl/src/lv_widgets/../lv_core/../lv_draw/lv_img_buf.h **** 
ARM GAS  D:\Temp\cc0vPyDE.s 			page 81


  50:lvgl/src/lv_widgets/../lv_core/../lv_draw/lv_img_buf.h **** #define _LV_TRANSFORM_TRIGO_SHIFT 10
  51:lvgl/src/lv_widgets/../lv_core/../lv_draw/lv_img_buf.h **** #define _LV_ZOOM_INV_UPSCALE 5
  52:lvgl/src/lv_widgets/../lv_core/../lv_draw/lv_img_buf.h **** 
  53:lvgl/src/lv_widgets/../lv_core/../lv_draw/lv_img_buf.h **** /**********************
  54:lvgl/src/lv_widgets/../lv_core/../lv_draw/lv_img_buf.h ****  *      TYPEDEFS
  55:lvgl/src/lv_widgets/../lv_core/../lv_draw/lv_img_buf.h ****  **********************/
  56:lvgl/src/lv_widgets/../lv_core/../lv_draw/lv_img_buf.h **** 
  57:lvgl/src/lv_widgets/../lv_core/../lv_draw/lv_img_buf.h **** /*Image color format*/
  58:lvgl/src/lv_widgets/../lv_core/../lv_draw/lv_img_buf.h **** enum {
  59:lvgl/src/lv_widgets/../lv_core/../lv_draw/lv_img_buf.h ****     LV_IMG_CF_UNKNOWN = 0,
  60:lvgl/src/lv_widgets/../lv_core/../lv_draw/lv_img_buf.h **** 
  61:lvgl/src/lv_widgets/../lv_core/../lv_draw/lv_img_buf.h ****     LV_IMG_CF_RAW,              /**< Contains the file as it is. Needs custom decoder function*/
  62:lvgl/src/lv_widgets/../lv_core/../lv_draw/lv_img_buf.h ****     LV_IMG_CF_RAW_ALPHA,        /**< Contains the file as it is. The image has alpha. Needs custom 
  63:lvgl/src/lv_widgets/../lv_core/../lv_draw/lv_img_buf.h ****                                    function*/
  64:lvgl/src/lv_widgets/../lv_core/../lv_draw/lv_img_buf.h ****     LV_IMG_CF_RAW_CHROMA_KEYED, /**< Contains the file as it is. The image is chroma keyed. Needs
  65:lvgl/src/lv_widgets/../lv_core/../lv_draw/lv_img_buf.h ****                                    custom decoder function*/
  66:lvgl/src/lv_widgets/../lv_core/../lv_draw/lv_img_buf.h **** 
  67:lvgl/src/lv_widgets/../lv_core/../lv_draw/lv_img_buf.h ****     LV_IMG_CF_TRUE_COLOR,              /**< Color format and depth should match with LV_COLOR setti
  68:lvgl/src/lv_widgets/../lv_core/../lv_draw/lv_img_buf.h ****     LV_IMG_CF_TRUE_COLOR_ALPHA,        /**< Same as `LV_IMG_CF_TRUE_COLOR` but every pixel has an a
  69:lvgl/src/lv_widgets/../lv_core/../lv_draw/lv_img_buf.h ****     LV_IMG_CF_TRUE_COLOR_CHROMA_KEYED, /**< Same as `LV_IMG_CF_TRUE_COLOR` but LV_COLOR_TRANSP pixe
  70:lvgl/src/lv_widgets/../lv_core/../lv_draw/lv_img_buf.h ****                                           will be transparent*/
  71:lvgl/src/lv_widgets/../lv_core/../lv_draw/lv_img_buf.h **** 
  72:lvgl/src/lv_widgets/../lv_core/../lv_draw/lv_img_buf.h ****     LV_IMG_CF_INDEXED_1BIT, /**< Can have 2 different colors in a palette (always chroma keyed)*/
  73:lvgl/src/lv_widgets/../lv_core/../lv_draw/lv_img_buf.h ****     LV_IMG_CF_INDEXED_2BIT, /**< Can have 4 different colors in a palette (always chroma keyed)*/
  74:lvgl/src/lv_widgets/../lv_core/../lv_draw/lv_img_buf.h ****     LV_IMG_CF_INDEXED_4BIT, /**< Can have 16 different colors in a palette (always chroma keyed)*/
  75:lvgl/src/lv_widgets/../lv_core/../lv_draw/lv_img_buf.h ****     LV_IMG_CF_INDEXED_8BIT, /**< Can have 256 different colors in a palette (always chroma keyed)*/
  76:lvgl/src/lv_widgets/../lv_core/../lv_draw/lv_img_buf.h **** 
  77:lvgl/src/lv_widgets/../lv_core/../lv_draw/lv_img_buf.h ****     LV_IMG_CF_ALPHA_1BIT, /**< Can have one color and it can be drawn or not*/
  78:lvgl/src/lv_widgets/../lv_core/../lv_draw/lv_img_buf.h ****     LV_IMG_CF_ALPHA_2BIT, /**< Can have one color but 4 different alpha value*/
  79:lvgl/src/lv_widgets/../lv_core/../lv_draw/lv_img_buf.h ****     LV_IMG_CF_ALPHA_4BIT, /**< Can have one color but 16 different alpha value*/
  80:lvgl/src/lv_widgets/../lv_core/../lv_draw/lv_img_buf.h ****     LV_IMG_CF_ALPHA_8BIT, /**< Can have one color but 256 different alpha value*/
  81:lvgl/src/lv_widgets/../lv_core/../lv_draw/lv_img_buf.h **** 
  82:lvgl/src/lv_widgets/../lv_core/../lv_draw/lv_img_buf.h ****     LV_IMG_CF_RESERVED_15,              /**< Reserved for further use. */
  83:lvgl/src/lv_widgets/../lv_core/../lv_draw/lv_img_buf.h ****     LV_IMG_CF_RESERVED_16,              /**< Reserved for further use. */
  84:lvgl/src/lv_widgets/../lv_core/../lv_draw/lv_img_buf.h ****     LV_IMG_CF_RESERVED_17,              /**< Reserved for further use. */
  85:lvgl/src/lv_widgets/../lv_core/../lv_draw/lv_img_buf.h ****     LV_IMG_CF_RESERVED_18,              /**< Reserved for further use. */
  86:lvgl/src/lv_widgets/../lv_core/../lv_draw/lv_img_buf.h ****     LV_IMG_CF_RESERVED_19,              /**< Reserved for further use. */
  87:lvgl/src/lv_widgets/../lv_core/../lv_draw/lv_img_buf.h ****     LV_IMG_CF_RESERVED_20,              /**< Reserved for further use. */
  88:lvgl/src/lv_widgets/../lv_core/../lv_draw/lv_img_buf.h ****     LV_IMG_CF_RESERVED_21,              /**< Reserved for further use. */
  89:lvgl/src/lv_widgets/../lv_core/../lv_draw/lv_img_buf.h ****     LV_IMG_CF_RESERVED_22,              /**< Reserved for further use. */
  90:lvgl/src/lv_widgets/../lv_core/../lv_draw/lv_img_buf.h ****     LV_IMG_CF_RESERVED_23,              /**< Reserved for further use. */
  91:lvgl/src/lv_widgets/../lv_core/../lv_draw/lv_img_buf.h **** 
  92:lvgl/src/lv_widgets/../lv_core/../lv_draw/lv_img_buf.h ****     LV_IMG_CF_USER_ENCODED_0,          /**< User holder encoding format. */
  93:lvgl/src/lv_widgets/../lv_core/../lv_draw/lv_img_buf.h ****     LV_IMG_CF_USER_ENCODED_1,          /**< User holder encoding format. */
  94:lvgl/src/lv_widgets/../lv_core/../lv_draw/lv_img_buf.h ****     LV_IMG_CF_USER_ENCODED_2,          /**< User holder encoding format. */
  95:lvgl/src/lv_widgets/../lv_core/../lv_draw/lv_img_buf.h ****     LV_IMG_CF_USER_ENCODED_3,          /**< User holder encoding format. */
  96:lvgl/src/lv_widgets/../lv_core/../lv_draw/lv_img_buf.h ****     LV_IMG_CF_USER_ENCODED_4,          /**< User holder encoding format. */
  97:lvgl/src/lv_widgets/../lv_core/../lv_draw/lv_img_buf.h ****     LV_IMG_CF_USER_ENCODED_5,          /**< User holder encoding format. */
  98:lvgl/src/lv_widgets/../lv_core/../lv_draw/lv_img_buf.h ****     LV_IMG_CF_USER_ENCODED_6,          /**< User holder encoding format. */
  99:lvgl/src/lv_widgets/../lv_core/../lv_draw/lv_img_buf.h ****     LV_IMG_CF_USER_ENCODED_7,          /**< User holder encoding format. */
 100:lvgl/src/lv_widgets/../lv_core/../lv_draw/lv_img_buf.h **** };
 101:lvgl/src/lv_widgets/../lv_core/../lv_draw/lv_img_buf.h **** typedef uint8_t lv_img_cf_t;
 102:lvgl/src/lv_widgets/../lv_core/../lv_draw/lv_img_buf.h **** 
 103:lvgl/src/lv_widgets/../lv_core/../lv_draw/lv_img_buf.h **** /**
 104:lvgl/src/lv_widgets/../lv_core/../lv_draw/lv_img_buf.h ****  * LVGL image header
 105:lvgl/src/lv_widgets/../lv_core/../lv_draw/lv_img_buf.h ****  */
 106:lvgl/src/lv_widgets/../lv_core/../lv_draw/lv_img_buf.h **** /* The first 8 bit is very important to distinguish the different source types.
ARM GAS  D:\Temp\cc0vPyDE.s 			page 82


 107:lvgl/src/lv_widgets/../lv_core/../lv_draw/lv_img_buf.h ****  * For more info see `lv_img_get_src_type()` in lv_img.c
 108:lvgl/src/lv_widgets/../lv_core/../lv_draw/lv_img_buf.h ****  * On big endian systems the order is reversed so cf and always_zero must be at
 109:lvgl/src/lv_widgets/../lv_core/../lv_draw/lv_img_buf.h ****  * the end of the struct.
 110:lvgl/src/lv_widgets/../lv_core/../lv_draw/lv_img_buf.h ****  * */
 111:lvgl/src/lv_widgets/../lv_core/../lv_draw/lv_img_buf.h **** #if LV_BIG_ENDIAN_SYSTEM
 112:lvgl/src/lv_widgets/../lv_core/../lv_draw/lv_img_buf.h **** typedef struct {
 113:lvgl/src/lv_widgets/../lv_core/../lv_draw/lv_img_buf.h **** 
 114:lvgl/src/lv_widgets/../lv_core/../lv_draw/lv_img_buf.h ****     uint32_t h : 11; /*Height of the image map*/
 115:lvgl/src/lv_widgets/../lv_core/../lv_draw/lv_img_buf.h ****     uint32_t w : 11; /*Width of the image map*/
 116:lvgl/src/lv_widgets/../lv_core/../lv_draw/lv_img_buf.h ****     uint32_t reserved : 2; /*Reserved to be used later*/
 117:lvgl/src/lv_widgets/../lv_core/../lv_draw/lv_img_buf.h ****     uint32_t always_zero : 3; /*It the upper bits of the first byte. Always zero to look like a
 118:lvgl/src/lv_widgets/../lv_core/../lv_draw/lv_img_buf.h ****                                  non-printable character*/
 119:lvgl/src/lv_widgets/../lv_core/../lv_draw/lv_img_buf.h ****     uint32_t cf : 5;          /* Color format: See `lv_img_color_format_t`*/
 120:lvgl/src/lv_widgets/../lv_core/../lv_draw/lv_img_buf.h **** 
 121:lvgl/src/lv_widgets/../lv_core/../lv_draw/lv_img_buf.h **** } lv_img_header_t;
 122:lvgl/src/lv_widgets/../lv_core/../lv_draw/lv_img_buf.h **** #else
 123:lvgl/src/lv_widgets/../lv_core/../lv_draw/lv_img_buf.h **** typedef struct {
 124:lvgl/src/lv_widgets/../lv_core/../lv_draw/lv_img_buf.h **** 
 125:lvgl/src/lv_widgets/../lv_core/../lv_draw/lv_img_buf.h ****     uint32_t cf : 5;          /* Color format: See `lv_img_color_format_t`*/
 126:lvgl/src/lv_widgets/../lv_core/../lv_draw/lv_img_buf.h ****     uint32_t always_zero : 3; /*It the upper bits of the first byte. Always zero to look like a
 127:lvgl/src/lv_widgets/../lv_core/../lv_draw/lv_img_buf.h ****                                  non-printable character*/
 128:lvgl/src/lv_widgets/../lv_core/../lv_draw/lv_img_buf.h **** 
 129:lvgl/src/lv_widgets/../lv_core/../lv_draw/lv_img_buf.h ****     uint32_t reserved : 2; /*Reserved to be used later*/
 130:lvgl/src/lv_widgets/../lv_core/../lv_draw/lv_img_buf.h **** 
 131:lvgl/src/lv_widgets/../lv_core/../lv_draw/lv_img_buf.h ****     uint32_t w : 11; /*Width of the image map*/
 132:lvgl/src/lv_widgets/../lv_core/../lv_draw/lv_img_buf.h ****     uint32_t h : 11; /*Height of the image map*/
 133:lvgl/src/lv_widgets/../lv_core/../lv_draw/lv_img_buf.h **** } lv_img_header_t;
 134:lvgl/src/lv_widgets/../lv_core/../lv_draw/lv_img_buf.h **** #endif
 135:lvgl/src/lv_widgets/../lv_core/../lv_draw/lv_img_buf.h **** 
 136:lvgl/src/lv_widgets/../lv_core/../lv_draw/lv_img_buf.h **** /** Image header it is compatible with
 137:lvgl/src/lv_widgets/../lv_core/../lv_draw/lv_img_buf.h ****  * the result from image converter utility*/
 138:lvgl/src/lv_widgets/../lv_core/../lv_draw/lv_img_buf.h **** typedef struct {
 139:lvgl/src/lv_widgets/../lv_core/../lv_draw/lv_img_buf.h ****     lv_img_header_t header;
 140:lvgl/src/lv_widgets/../lv_core/../lv_draw/lv_img_buf.h ****     uint32_t data_size;
 141:lvgl/src/lv_widgets/../lv_core/../lv_draw/lv_img_buf.h ****     const uint8_t * data;
 142:lvgl/src/lv_widgets/../lv_core/../lv_draw/lv_img_buf.h **** } lv_img_dsc_t;
 143:lvgl/src/lv_widgets/../lv_core/../lv_draw/lv_img_buf.h **** 
 144:lvgl/src/lv_widgets/../lv_core/../lv_draw/lv_img_buf.h **** typedef struct {
 145:lvgl/src/lv_widgets/../lv_core/../lv_draw/lv_img_buf.h ****     struct {
 146:lvgl/src/lv_widgets/../lv_core/../lv_draw/lv_img_buf.h ****         const void * src;           /*image source (array of pixels)*/
 147:lvgl/src/lv_widgets/../lv_core/../lv_draw/lv_img_buf.h ****         lv_coord_t src_w;           /*width of the image source*/
 148:lvgl/src/lv_widgets/../lv_core/../lv_draw/lv_img_buf.h ****         lv_coord_t src_h;           /*height of the image source*/
 149:lvgl/src/lv_widgets/../lv_core/../lv_draw/lv_img_buf.h ****         lv_coord_t pivot_x;         /*pivot x*/
 150:lvgl/src/lv_widgets/../lv_core/../lv_draw/lv_img_buf.h ****         lv_coord_t pivot_y;         /* pivot y*/
 151:lvgl/src/lv_widgets/../lv_core/../lv_draw/lv_img_buf.h ****         int16_t angle;              /*angle to rotate*/
 152:lvgl/src/lv_widgets/../lv_core/../lv_draw/lv_img_buf.h ****         uint16_t zoom;              /*256 no zoom, 128 half size, 512 double size*/
 153:lvgl/src/lv_widgets/../lv_core/../lv_draw/lv_img_buf.h ****         lv_color_t color;           /*a color used for `LV_IMG_CF_INDEXED_1/2/4/8BIT` color formats
 154:lvgl/src/lv_widgets/../lv_core/../lv_draw/lv_img_buf.h ****         lv_img_cf_t cf;             /*color format of the image to rotate*/
 155:lvgl/src/lv_widgets/../lv_core/../lv_draw/lv_img_buf.h ****         bool antialias;
 156:lvgl/src/lv_widgets/../lv_core/../lv_draw/lv_img_buf.h ****     } cfg;
 157:lvgl/src/lv_widgets/../lv_core/../lv_draw/lv_img_buf.h **** 
 158:lvgl/src/lv_widgets/../lv_core/../lv_draw/lv_img_buf.h ****     struct {
 159:lvgl/src/lv_widgets/../lv_core/../lv_draw/lv_img_buf.h ****         lv_color_t color;
 160:lvgl/src/lv_widgets/../lv_core/../lv_draw/lv_img_buf.h ****         lv_opa_t opa;
 161:lvgl/src/lv_widgets/../lv_core/../lv_draw/lv_img_buf.h ****     } res;
 162:lvgl/src/lv_widgets/../lv_core/../lv_draw/lv_img_buf.h **** 
 163:lvgl/src/lv_widgets/../lv_core/../lv_draw/lv_img_buf.h ****     struct {
ARM GAS  D:\Temp\cc0vPyDE.s 			page 83


 164:lvgl/src/lv_widgets/../lv_core/../lv_draw/lv_img_buf.h ****         lv_img_dsc_t img_dsc;
 165:lvgl/src/lv_widgets/../lv_core/../lv_draw/lv_img_buf.h ****         int32_t pivot_x_256;
 166:lvgl/src/lv_widgets/../lv_core/../lv_draw/lv_img_buf.h ****         int32_t pivot_y_256;
 167:lvgl/src/lv_widgets/../lv_core/../lv_draw/lv_img_buf.h ****         int32_t sinma;
 168:lvgl/src/lv_widgets/../lv_core/../lv_draw/lv_img_buf.h ****         int32_t cosma;
 169:lvgl/src/lv_widgets/../lv_core/../lv_draw/lv_img_buf.h **** 
 170:lvgl/src/lv_widgets/../lv_core/../lv_draw/lv_img_buf.h ****         uint8_t chroma_keyed : 1;
 171:lvgl/src/lv_widgets/../lv_core/../lv_draw/lv_img_buf.h ****         uint8_t has_alpha : 1;
 172:lvgl/src/lv_widgets/../lv_core/../lv_draw/lv_img_buf.h ****         uint8_t native_color : 1;
 173:lvgl/src/lv_widgets/../lv_core/../lv_draw/lv_img_buf.h **** 
 174:lvgl/src/lv_widgets/../lv_core/../lv_draw/lv_img_buf.h ****         uint32_t zoom_inv;
 175:lvgl/src/lv_widgets/../lv_core/../lv_draw/lv_img_buf.h **** 
 176:lvgl/src/lv_widgets/../lv_core/../lv_draw/lv_img_buf.h ****         /*Runtime data*/
 177:lvgl/src/lv_widgets/../lv_core/../lv_draw/lv_img_buf.h ****         lv_coord_t xs;
 178:lvgl/src/lv_widgets/../lv_core/../lv_draw/lv_img_buf.h ****         lv_coord_t ys;
 179:lvgl/src/lv_widgets/../lv_core/../lv_draw/lv_img_buf.h ****         lv_coord_t xs_int;
 180:lvgl/src/lv_widgets/../lv_core/../lv_draw/lv_img_buf.h ****         lv_coord_t ys_int;
 181:lvgl/src/lv_widgets/../lv_core/../lv_draw/lv_img_buf.h ****         uint32_t pxi;
 182:lvgl/src/lv_widgets/../lv_core/../lv_draw/lv_img_buf.h ****         uint8_t px_size;
 183:lvgl/src/lv_widgets/../lv_core/../lv_draw/lv_img_buf.h ****     } tmp;
 184:lvgl/src/lv_widgets/../lv_core/../lv_draw/lv_img_buf.h **** } lv_img_transform_dsc_t;
 185:lvgl/src/lv_widgets/../lv_core/../lv_draw/lv_img_buf.h **** 
 186:lvgl/src/lv_widgets/../lv_core/../lv_draw/lv_img_buf.h **** /**********************
 187:lvgl/src/lv_widgets/../lv_core/../lv_draw/lv_img_buf.h ****  * GLOBAL PROTOTYPES
 188:lvgl/src/lv_widgets/../lv_core/../lv_draw/lv_img_buf.h ****  **********************/
 189:lvgl/src/lv_widgets/../lv_core/../lv_draw/lv_img_buf.h **** 
 190:lvgl/src/lv_widgets/../lv_core/../lv_draw/lv_img_buf.h **** /**
 191:lvgl/src/lv_widgets/../lv_core/../lv_draw/lv_img_buf.h ****  * Allocate an image buffer in RAM
 192:lvgl/src/lv_widgets/../lv_core/../lv_draw/lv_img_buf.h ****  * @param w width of image
 193:lvgl/src/lv_widgets/../lv_core/../lv_draw/lv_img_buf.h ****  * @param h height of image
 194:lvgl/src/lv_widgets/../lv_core/../lv_draw/lv_img_buf.h ****  * @param cf a color format (`LV_IMG_CF_...`)
 195:lvgl/src/lv_widgets/../lv_core/../lv_draw/lv_img_buf.h ****  * @return an allocated image, or NULL on failure
 196:lvgl/src/lv_widgets/../lv_core/../lv_draw/lv_img_buf.h ****  */
 197:lvgl/src/lv_widgets/../lv_core/../lv_draw/lv_img_buf.h **** lv_img_dsc_t * lv_img_buf_alloc(lv_coord_t w, lv_coord_t h, lv_img_cf_t cf);
 198:lvgl/src/lv_widgets/../lv_core/../lv_draw/lv_img_buf.h **** 
 199:lvgl/src/lv_widgets/../lv_core/../lv_draw/lv_img_buf.h **** /**
 200:lvgl/src/lv_widgets/../lv_core/../lv_draw/lv_img_buf.h ****  * Get the color of an image's pixel
 201:lvgl/src/lv_widgets/../lv_core/../lv_draw/lv_img_buf.h ****  * @param dsc an image descriptor
 202:lvgl/src/lv_widgets/../lv_core/../lv_draw/lv_img_buf.h ****  * @param x x coordinate of the point to get
 203:lvgl/src/lv_widgets/../lv_core/../lv_draw/lv_img_buf.h ****  * @param y x coordinate of the point to get
 204:lvgl/src/lv_widgets/../lv_core/../lv_draw/lv_img_buf.h ****  * @param color the color of the image. In case of `LV_IMG_CF_ALPHA_1/2/4/8` this color is used.
 205:lvgl/src/lv_widgets/../lv_core/../lv_draw/lv_img_buf.h ****  * Not used in other cases.
 206:lvgl/src/lv_widgets/../lv_core/../lv_draw/lv_img_buf.h ****  * @param safe true: check out of bounds
 207:lvgl/src/lv_widgets/../lv_core/../lv_draw/lv_img_buf.h ****  * @return color of the point
 208:lvgl/src/lv_widgets/../lv_core/../lv_draw/lv_img_buf.h ****  */
 209:lvgl/src/lv_widgets/../lv_core/../lv_draw/lv_img_buf.h **** lv_color_t lv_img_buf_get_px_color(lv_img_dsc_t * dsc, lv_coord_t x, lv_coord_t y, lv_color_t color
 210:lvgl/src/lv_widgets/../lv_core/../lv_draw/lv_img_buf.h **** 
 211:lvgl/src/lv_widgets/../lv_core/../lv_draw/lv_img_buf.h **** /**
 212:lvgl/src/lv_widgets/../lv_core/../lv_draw/lv_img_buf.h ****  * Get the alpha value of an image's pixel
 213:lvgl/src/lv_widgets/../lv_core/../lv_draw/lv_img_buf.h ****  * @param dsc pointer to an image descriptor
 214:lvgl/src/lv_widgets/../lv_core/../lv_draw/lv_img_buf.h ****  * @param x x coordinate of the point to set
 215:lvgl/src/lv_widgets/../lv_core/../lv_draw/lv_img_buf.h ****  * @param y x coordinate of the point to set
 216:lvgl/src/lv_widgets/../lv_core/../lv_draw/lv_img_buf.h ****  * @param safe true: check out of bounds
 217:lvgl/src/lv_widgets/../lv_core/../lv_draw/lv_img_buf.h ****  * @return alpha value of the point
 218:lvgl/src/lv_widgets/../lv_core/../lv_draw/lv_img_buf.h ****  */
 219:lvgl/src/lv_widgets/../lv_core/../lv_draw/lv_img_buf.h **** lv_opa_t lv_img_buf_get_px_alpha(lv_img_dsc_t * dsc, lv_coord_t x, lv_coord_t y);
 220:lvgl/src/lv_widgets/../lv_core/../lv_draw/lv_img_buf.h **** 
ARM GAS  D:\Temp\cc0vPyDE.s 			page 84


 221:lvgl/src/lv_widgets/../lv_core/../lv_draw/lv_img_buf.h **** /**
 222:lvgl/src/lv_widgets/../lv_core/../lv_draw/lv_img_buf.h ****  * Set the color of a pixel of an image. The alpha channel won't be affected.
 223:lvgl/src/lv_widgets/../lv_core/../lv_draw/lv_img_buf.h ****  * @param dsc pointer to an image descriptor
 224:lvgl/src/lv_widgets/../lv_core/../lv_draw/lv_img_buf.h ****  * @param x x coordinate of the point to set
 225:lvgl/src/lv_widgets/../lv_core/../lv_draw/lv_img_buf.h ****  * @param y x coordinate of the point to set
 226:lvgl/src/lv_widgets/../lv_core/../lv_draw/lv_img_buf.h ****  * @param c color of the point
 227:lvgl/src/lv_widgets/../lv_core/../lv_draw/lv_img_buf.h ****  * @param safe true: check out of bounds
 228:lvgl/src/lv_widgets/../lv_core/../lv_draw/lv_img_buf.h ****  */
 229:lvgl/src/lv_widgets/../lv_core/../lv_draw/lv_img_buf.h **** void lv_img_buf_set_px_color(lv_img_dsc_t * dsc, lv_coord_t x, lv_coord_t y, lv_color_t c);
 230:lvgl/src/lv_widgets/../lv_core/../lv_draw/lv_img_buf.h **** 
 231:lvgl/src/lv_widgets/../lv_core/../lv_draw/lv_img_buf.h **** /**
 232:lvgl/src/lv_widgets/../lv_core/../lv_draw/lv_img_buf.h ****  * Set the alpha value of a pixel of an image. The color won't be affected
 233:lvgl/src/lv_widgets/../lv_core/../lv_draw/lv_img_buf.h ****  * @param dsc pointer to an image descriptor
 234:lvgl/src/lv_widgets/../lv_core/../lv_draw/lv_img_buf.h ****  * @param x x coordinate of the point to set
 235:lvgl/src/lv_widgets/../lv_core/../lv_draw/lv_img_buf.h ****  * @param y x coordinate of the point to set
 236:lvgl/src/lv_widgets/../lv_core/../lv_draw/lv_img_buf.h ****  * @param opa the desired opacity
 237:lvgl/src/lv_widgets/../lv_core/../lv_draw/lv_img_buf.h ****  * @param safe true: check out of bounds
 238:lvgl/src/lv_widgets/../lv_core/../lv_draw/lv_img_buf.h ****  */
 239:lvgl/src/lv_widgets/../lv_core/../lv_draw/lv_img_buf.h **** void lv_img_buf_set_px_alpha(lv_img_dsc_t * dsc, lv_coord_t x, lv_coord_t y, lv_opa_t opa);
 240:lvgl/src/lv_widgets/../lv_core/../lv_draw/lv_img_buf.h **** 
 241:lvgl/src/lv_widgets/../lv_core/../lv_draw/lv_img_buf.h **** /**
 242:lvgl/src/lv_widgets/../lv_core/../lv_draw/lv_img_buf.h ****  * Set the palette color of an indexed image. Valid only for `LV_IMG_CF_INDEXED1/2/4/8`
 243:lvgl/src/lv_widgets/../lv_core/../lv_draw/lv_img_buf.h ****  * @param dsc pointer to an image descriptor
 244:lvgl/src/lv_widgets/../lv_core/../lv_draw/lv_img_buf.h ****  * @param id the palette color to set:
 245:lvgl/src/lv_widgets/../lv_core/../lv_draw/lv_img_buf.h ****  *   - for `LV_IMG_CF_INDEXED1`: 0..1
 246:lvgl/src/lv_widgets/../lv_core/../lv_draw/lv_img_buf.h ****  *   - for `LV_IMG_CF_INDEXED2`: 0..3
 247:lvgl/src/lv_widgets/../lv_core/../lv_draw/lv_img_buf.h ****  *   - for `LV_IMG_CF_INDEXED4`: 0..15
 248:lvgl/src/lv_widgets/../lv_core/../lv_draw/lv_img_buf.h ****  *   - for `LV_IMG_CF_INDEXED8`: 0..255
 249:lvgl/src/lv_widgets/../lv_core/../lv_draw/lv_img_buf.h ****  * @param c the color to set
 250:lvgl/src/lv_widgets/../lv_core/../lv_draw/lv_img_buf.h ****  */
 251:lvgl/src/lv_widgets/../lv_core/../lv_draw/lv_img_buf.h **** void lv_img_buf_set_palette(lv_img_dsc_t * dsc, uint8_t id, lv_color_t c);
 252:lvgl/src/lv_widgets/../lv_core/../lv_draw/lv_img_buf.h **** 
 253:lvgl/src/lv_widgets/../lv_core/../lv_draw/lv_img_buf.h **** /**
 254:lvgl/src/lv_widgets/../lv_core/../lv_draw/lv_img_buf.h ****  * Free an allocated image buffer
 255:lvgl/src/lv_widgets/../lv_core/../lv_draw/lv_img_buf.h ****  * @param dsc image buffer to free
 256:lvgl/src/lv_widgets/../lv_core/../lv_draw/lv_img_buf.h ****  */
 257:lvgl/src/lv_widgets/../lv_core/../lv_draw/lv_img_buf.h **** void lv_img_buf_free(lv_img_dsc_t * dsc);
 258:lvgl/src/lv_widgets/../lv_core/../lv_draw/lv_img_buf.h **** 
 259:lvgl/src/lv_widgets/../lv_core/../lv_draw/lv_img_buf.h **** /**
 260:lvgl/src/lv_widgets/../lv_core/../lv_draw/lv_img_buf.h ****  * Get the memory consumption of a raw bitmap, given color format and dimensions.
 261:lvgl/src/lv_widgets/../lv_core/../lv_draw/lv_img_buf.h ****  * @param w width
 262:lvgl/src/lv_widgets/../lv_core/../lv_draw/lv_img_buf.h ****  * @param h height
 263:lvgl/src/lv_widgets/../lv_core/../lv_draw/lv_img_buf.h ****  * @param cf color format
 264:lvgl/src/lv_widgets/../lv_core/../lv_draw/lv_img_buf.h ****  * @return size in bytes
 265:lvgl/src/lv_widgets/../lv_core/../lv_draw/lv_img_buf.h ****  */
 266:lvgl/src/lv_widgets/../lv_core/../lv_draw/lv_img_buf.h **** uint32_t lv_img_buf_get_img_size(lv_coord_t w, lv_coord_t h, lv_img_cf_t cf);
 267:lvgl/src/lv_widgets/../lv_core/../lv_draw/lv_img_buf.h **** 
 268:lvgl/src/lv_widgets/../lv_core/../lv_draw/lv_img_buf.h **** #if LV_USE_IMG_TRANSFORM
 269:lvgl/src/lv_widgets/../lv_core/../lv_draw/lv_img_buf.h **** /**
 270:lvgl/src/lv_widgets/../lv_core/../lv_draw/lv_img_buf.h ****  * Initialize a descriptor to rotate an image
 271:lvgl/src/lv_widgets/../lv_core/../lv_draw/lv_img_buf.h ****  * @param dsc pointer to an `lv_img_transform_dsc_t` variable whose `cfg` field is initialized
 272:lvgl/src/lv_widgets/../lv_core/../lv_draw/lv_img_buf.h ****  */
 273:lvgl/src/lv_widgets/../lv_core/../lv_draw/lv_img_buf.h **** void _lv_img_buf_transform_init(lv_img_transform_dsc_t * dsc);
 274:lvgl/src/lv_widgets/../lv_core/../lv_draw/lv_img_buf.h **** 
 275:lvgl/src/lv_widgets/../lv_core/../lv_draw/lv_img_buf.h **** /**
 276:lvgl/src/lv_widgets/../lv_core/../lv_draw/lv_img_buf.h ****  * Continue transformation by taking the neighbors into account
 277:lvgl/src/lv_widgets/../lv_core/../lv_draw/lv_img_buf.h ****  * @param dsc pointer to the transformation descriptor
ARM GAS  D:\Temp\cc0vPyDE.s 			page 85


 278:lvgl/src/lv_widgets/../lv_core/../lv_draw/lv_img_buf.h ****  */
 279:lvgl/src/lv_widgets/../lv_core/../lv_draw/lv_img_buf.h **** bool _lv_img_buf_transform_anti_alias(lv_img_transform_dsc_t * dsc);
 280:lvgl/src/lv_widgets/../lv_core/../lv_draw/lv_img_buf.h **** 
 281:lvgl/src/lv_widgets/../lv_core/../lv_draw/lv_img_buf.h **** /**
 282:lvgl/src/lv_widgets/../lv_core/../lv_draw/lv_img_buf.h ****  * Get which color and opa would come to a pixel if it were rotated
 283:lvgl/src/lv_widgets/../lv_core/../lv_draw/lv_img_buf.h ****  * @param dsc a descriptor initialized by `lv_img_buf_rotate_init`
 284:lvgl/src/lv_widgets/../lv_core/../lv_draw/lv_img_buf.h ****  * @param x the coordinate which color and opa should be get
 285:lvgl/src/lv_widgets/../lv_core/../lv_draw/lv_img_buf.h ****  * @param y the coordinate which color and opa should be get
 286:lvgl/src/lv_widgets/../lv_core/../lv_draw/lv_img_buf.h ****  * @return true: there is valid pixel on these x/y coordinates; false: the rotated pixel was out of
 287:lvgl/src/lv_widgets/../lv_core/../lv_draw/lv_img_buf.h ****  * @note the result is written back to `dsc->res_color` and `dsc->res_opa`
 288:lvgl/src/lv_widgets/../lv_core/../lv_draw/lv_img_buf.h ****  */
 289:lvgl/src/lv_widgets/../lv_core/../lv_draw/lv_img_buf.h **** static inline bool _lv_img_buf_transform(lv_img_transform_dsc_t * dsc, lv_coord_t x, lv_coord_t y)
 290:lvgl/src/lv_widgets/../lv_core/../lv_draw/lv_img_buf.h **** {
 291:lvgl/src/lv_widgets/../lv_core/../lv_draw/lv_img_buf.h ****     const uint8_t * src_u8 = (const uint8_t *)dsc->cfg.src;
 292:lvgl/src/lv_widgets/../lv_core/../lv_draw/lv_img_buf.h **** 
 293:lvgl/src/lv_widgets/../lv_core/../lv_draw/lv_img_buf.h ****     /*Get the target point relative coordinates to the pivot*/
 294:lvgl/src/lv_widgets/../lv_core/../lv_draw/lv_img_buf.h ****     int32_t xt = x - dsc->cfg.pivot_x;
 295:lvgl/src/lv_widgets/../lv_core/../lv_draw/lv_img_buf.h ****     int32_t yt = y - dsc->cfg.pivot_y;
 296:lvgl/src/lv_widgets/../lv_core/../lv_draw/lv_img_buf.h **** 
 297:lvgl/src/lv_widgets/../lv_core/../lv_draw/lv_img_buf.h ****     int32_t xs;
 298:lvgl/src/lv_widgets/../lv_core/../lv_draw/lv_img_buf.h ****     int32_t ys;
 299:lvgl/src/lv_widgets/../lv_core/../lv_draw/lv_img_buf.h ****     if(dsc->cfg.zoom == LV_IMG_ZOOM_NONE) {
 300:lvgl/src/lv_widgets/../lv_core/../lv_draw/lv_img_buf.h ****         /*Get the source pixel from the upscaled image*/
 301:lvgl/src/lv_widgets/../lv_core/../lv_draw/lv_img_buf.h ****         xs = ((dsc->tmp.cosma * xt - dsc->tmp.sinma * yt) >> (_LV_TRANSFORM_TRIGO_SHIFT - 8)) + dsc
 2037              		.loc 4 301 9 is_stmt 1 view .LVU572
 2038              		.loc 4 301 24 is_stmt 0 view .LVU573
 2039 00c2 1B9C     		ldr	r4, [sp, #108]
 2040              		.loc 4 301 31 view .LVU574
 2041 00c4 04FB03F5 		mul	r5, r4, r3
 2042              		.loc 4 301 46 view .LVU575
 2043 00c8 1A98     		ldr	r0, [sp, #104]
 2044              		.loc 4 301 36 view .LVU576
 2045 00ca 00FB1156 		mls	r6, r0, r1, r5
 2046              		.loc 4 301 105 view .LVU577
 2047 00ce 189D     		ldr	r5, [sp, #96]
 2048              		.loc 4 301 12 view .LVU578
 2049 00d0 05EBA605 		add	r5, r5, r6, asr #2
 2050              	.LVL197:
 302:lvgl/src/lv_widgets/../lv_core/../lv_draw/lv_img_buf.h ****         ys = ((dsc->tmp.sinma * xt + dsc->tmp.cosma * yt) >> (_LV_TRANSFORM_TRIGO_SHIFT - 8)) + dsc
 2051              		.loc 4 302 9 is_stmt 1 view .LVU579
 2052              		.loc 4 302 53 is_stmt 0 view .LVU580
 2053 00d4 04FB01F4 		mul	r4, r4, r1
 2054              		.loc 4 302 36 view .LVU581
 2055 00d8 00FB0343 		mla	r3, r0, r3, r4
 2056              	.LVL198:
 2057              		.loc 4 302 105 view .LVU582
 2058 00dc 199C     		ldr	r4, [sp, #100]
 2059              		.loc 4 302 12 view .LVU583
 2060 00de 04EBA304 		add	r4, r4, r3, asr #2
 2061              	.LVL199:
 2062              	.L127:
 303:lvgl/src/lv_widgets/../lv_core/../lv_draw/lv_img_buf.h ****     }
 304:lvgl/src/lv_widgets/../lv_core/../lv_draw/lv_img_buf.h ****     else if(dsc->cfg.angle == 0) {
 305:lvgl/src/lv_widgets/../lv_core/../lv_draw/lv_img_buf.h ****         xt = (int32_t)((int32_t)xt * dsc->tmp.zoom_inv) >> _LV_ZOOM_INV_UPSCALE;
 306:lvgl/src/lv_widgets/../lv_core/../lv_draw/lv_img_buf.h ****         yt = (int32_t)((int32_t)yt * dsc->tmp.zoom_inv) >> _LV_ZOOM_INV_UPSCALE;
 307:lvgl/src/lv_widgets/../lv_core/../lv_draw/lv_img_buf.h ****         xs = xt + dsc->tmp.pivot_x_256;
 308:lvgl/src/lv_widgets/../lv_core/../lv_draw/lv_img_buf.h ****         ys = yt + dsc->tmp.pivot_y_256;
ARM GAS  D:\Temp\cc0vPyDE.s 			page 86


 309:lvgl/src/lv_widgets/../lv_core/../lv_draw/lv_img_buf.h ****     }
 310:lvgl/src/lv_widgets/../lv_core/../lv_draw/lv_img_buf.h ****     else {
 311:lvgl/src/lv_widgets/../lv_core/../lv_draw/lv_img_buf.h ****         xt = (int32_t)((int32_t)xt * dsc->tmp.zoom_inv) >> _LV_ZOOM_INV_UPSCALE;
 312:lvgl/src/lv_widgets/../lv_core/../lv_draw/lv_img_buf.h ****         yt = (int32_t)((int32_t)yt * dsc->tmp.zoom_inv) >> _LV_ZOOM_INV_UPSCALE;
 313:lvgl/src/lv_widgets/../lv_core/../lv_draw/lv_img_buf.h ****         xs = ((dsc->tmp.cosma * xt - dsc->tmp.sinma * yt) >> (_LV_TRANSFORM_TRIGO_SHIFT)) + dsc->tm
 314:lvgl/src/lv_widgets/../lv_core/../lv_draw/lv_img_buf.h ****         ys = ((dsc->tmp.sinma * xt + dsc->tmp.cosma * yt) >> (_LV_TRANSFORM_TRIGO_SHIFT)) + dsc->tm
 315:lvgl/src/lv_widgets/../lv_core/../lv_draw/lv_img_buf.h ****     }
 316:lvgl/src/lv_widgets/../lv_core/../lv_draw/lv_img_buf.h **** 
 317:lvgl/src/lv_widgets/../lv_core/../lv_draw/lv_img_buf.h ****     /*Get the integer part of the source pixel*/
 318:lvgl/src/lv_widgets/../lv_core/../lv_draw/lv_img_buf.h ****     int32_t xs_int = xs >> 8;
 2063              		.loc 4 318 5 is_stmt 1 view .LVU584
 2064              		.loc 4 318 13 is_stmt 0 view .LVU585
 2065 00e2 2E12     		asrs	r6, r5, #8
 2066              	.LVL200:
 319:lvgl/src/lv_widgets/../lv_core/../lv_draw/lv_img_buf.h ****     int32_t ys_int = ys >> 8;
 2067              		.loc 4 319 5 is_stmt 1 view .LVU586
 2068              		.loc 4 319 13 is_stmt 0 view .LVU587
 2069 00e4 2712     		asrs	r7, r4, #8
 2070              	.LVL201:
 320:lvgl/src/lv_widgets/../lv_core/../lv_draw/lv_img_buf.h **** 
 321:lvgl/src/lv_widgets/../lv_core/../lv_draw/lv_img_buf.h ****     if(xs_int >= dsc->cfg.src_w) return false;
 2071              		.loc 4 321 5 is_stmt 1 view .LVU588
 2072              		.loc 4 321 26 is_stmt 0 view .LVU589
 2073 00e6 BDF94030 		ldrsh	r3, [sp, #64]
 2074              		.loc 4 321 7 view .LVU590
 2075 00ea 9E42     		cmp	r6, r3
 2076 00ec 80F29280 		bge	.L149
 322:lvgl/src/lv_widgets/../lv_core/../lv_draw/lv_img_buf.h ****     else if(xs_int < 0) return false;
 2077              		.loc 4 322 10 is_stmt 1 view .LVU591
 2078              		.loc 4 322 12 is_stmt 0 view .LVU592
 2079 00f0 002E     		cmp	r6, #0
 2080 00f2 C0F2C980 		blt	.L150
 323:lvgl/src/lv_widgets/../lv_core/../lv_draw/lv_img_buf.h **** 
 324:lvgl/src/lv_widgets/../lv_core/../lv_draw/lv_img_buf.h ****     if(ys_int >= dsc->cfg.src_h) return false;
 2081              		.loc 4 324 5 is_stmt 1 view .LVU593
 2082              		.loc 4 324 26 is_stmt 0 view .LVU594
 2083 00f6 BDF94210 		ldrsh	r1, [sp, #66]
 2084              		.loc 4 324 7 view .LVU595
 2085 00fa 8F42     		cmp	r7, r1
 2086 00fc 80F2C680 		bge	.L151
 325:lvgl/src/lv_widgets/../lv_core/../lv_draw/lv_img_buf.h ****     else if(ys_int < 0) return false;
 2087              		.loc 4 325 10 is_stmt 1 view .LVU596
 2088              		.loc 4 325 12 is_stmt 0 view .LVU597
 2089 0100 002F     		cmp	r7, #0
 2090 0102 C0F2C580 		blt	.L152
 326:lvgl/src/lv_widgets/../lv_core/../lv_draw/lv_img_buf.h **** 
 327:lvgl/src/lv_widgets/../lv_core/../lv_draw/lv_img_buf.h ****     uint8_t px_size;
 2091              		.loc 4 327 5 is_stmt 1 view .LVU598
 328:lvgl/src/lv_widgets/../lv_core/../lv_draw/lv_img_buf.h ****     uint32_t pxi;
 2092              		.loc 4 328 5 view .LVU599
 329:lvgl/src/lv_widgets/../lv_core/../lv_draw/lv_img_buf.h ****     if(dsc->tmp.native_color) {
 2093              		.loc 4 329 5 view .LVU600
 2094              		.loc 4 329 8 is_stmt 0 view .LVU601
 2095 0106 9DF87010 		ldrb	r1, [sp, #112]	@ zero_extendqisi2
 2096              		.loc 4 329 7 view .LVU602
 2097 010a 11F0040F 		tst	r1, #4
 2098 010e 5AD0     		beq	.L130
ARM GAS  D:\Temp\cc0vPyDE.s 			page 87


 330:lvgl/src/lv_widgets/../lv_core/../lv_draw/lv_img_buf.h ****         if(dsc->tmp.has_alpha == 0) {
 2099              		.loc 4 330 9 is_stmt 1 view .LVU603
 2100              		.loc 4 330 11 is_stmt 0 view .LVU604
 2101 0110 11F0020F 		tst	r1, #2
 2102 0114 40D1     		bne	.L131
 331:lvgl/src/lv_widgets/../lv_core/../lv_draw/lv_img_buf.h ****             px_size = LV_COLOR_SIZE >> 3;
 2103              		.loc 4 331 13 is_stmt 1 view .LVU605
 2104              	.LVL202:
 332:lvgl/src/lv_widgets/../lv_core/../lv_draw/lv_img_buf.h **** 
 333:lvgl/src/lv_widgets/../lv_core/../lv_draw/lv_img_buf.h ****             pxi     = dsc->cfg.src_w * ys_int * px_size + xs_int * px_size;
 2105              		.loc 4 333 13 view .LVU606
 2106              		.loc 4 333 57 is_stmt 0 view .LVU607
 2107 0116 03FB0763 		mla	r3, r3, r7, r6
 2108 011a 5B00     		lsls	r3, r3, #1
 2109 011c 0293     		str	r3, [sp, #8]
 2110              	.LVL203:
 334:lvgl/src/lv_widgets/../lv_core/../lv_draw/lv_img_buf.h ****             _lv_memcpy_small(&dsc->res.color, &src_u8[pxi], px_size);
 2111              		.loc 4 334 13 is_stmt 1 view .LVU608
 2112              		.loc 4 334 47 is_stmt 0 view .LVU609
 2113 011e 1A44     		add	r2, r2, r3
 2114              	.LVL204:
 2115              	.LBB108:
 2116              	.LBI108:
 2117              		.file 5 "d:\\_project\\stm32\\f407\\hack_rf_new\\lvgl\\src\\lv_misc\\lv_mem.h"
   1:d:\_project\stm32\f407\hack_rf_new\lvgl\src\lv_misc\lv_mem.h **** /**
   2:d:\_project\stm32\f407\hack_rf_new\lvgl\src\lv_misc\lv_mem.h ****  * @file lv_mem.h
   3:d:\_project\stm32\f407\hack_rf_new\lvgl\src\lv_misc\lv_mem.h ****  *
   4:d:\_project\stm32\f407\hack_rf_new\lvgl\src\lv_misc\lv_mem.h ****  */
   5:d:\_project\stm32\f407\hack_rf_new\lvgl\src\lv_misc\lv_mem.h **** 
   6:d:\_project\stm32\f407\hack_rf_new\lvgl\src\lv_misc\lv_mem.h **** #ifndef LV_MEM_H
   7:d:\_project\stm32\f407\hack_rf_new\lvgl\src\lv_misc\lv_mem.h **** #define LV_MEM_H
   8:d:\_project\stm32\f407\hack_rf_new\lvgl\src\lv_misc\lv_mem.h **** 
   9:d:\_project\stm32\f407\hack_rf_new\lvgl\src\lv_misc\lv_mem.h **** #ifdef __cplusplus
  10:d:\_project\stm32\f407\hack_rf_new\lvgl\src\lv_misc\lv_mem.h **** extern "C" {
  11:d:\_project\stm32\f407\hack_rf_new\lvgl\src\lv_misc\lv_mem.h **** #endif
  12:d:\_project\stm32\f407\hack_rf_new\lvgl\src\lv_misc\lv_mem.h **** 
  13:d:\_project\stm32\f407\hack_rf_new\lvgl\src\lv_misc\lv_mem.h **** /*********************
  14:d:\_project\stm32\f407\hack_rf_new\lvgl\src\lv_misc\lv_mem.h ****  *      INCLUDES
  15:d:\_project\stm32\f407\hack_rf_new\lvgl\src\lv_misc\lv_mem.h ****  *********************/
  16:d:\_project\stm32\f407\hack_rf_new\lvgl\src\lv_misc\lv_mem.h **** #include "../lv_conf_internal.h"
  17:d:\_project\stm32\f407\hack_rf_new\lvgl\src\lv_misc\lv_mem.h **** 
  18:d:\_project\stm32\f407\hack_rf_new\lvgl\src\lv_misc\lv_mem.h **** #include <stdint.h>
  19:d:\_project\stm32\f407\hack_rf_new\lvgl\src\lv_misc\lv_mem.h **** #include <stddef.h>
  20:d:\_project\stm32\f407\hack_rf_new\lvgl\src\lv_misc\lv_mem.h **** #include "lv_log.h"
  21:d:\_project\stm32\f407\hack_rf_new\lvgl\src\lv_misc\lv_mem.h **** #include "lv_types.h"
  22:d:\_project\stm32\f407\hack_rf_new\lvgl\src\lv_misc\lv_mem.h **** 
  23:d:\_project\stm32\f407\hack_rf_new\lvgl\src\lv_misc\lv_mem.h **** #if LV_MEMCPY_MEMSET_STD
  24:d:\_project\stm32\f407\hack_rf_new\lvgl\src\lv_misc\lv_mem.h **** #include <string.h>
  25:d:\_project\stm32\f407\hack_rf_new\lvgl\src\lv_misc\lv_mem.h **** #endif
  26:d:\_project\stm32\f407\hack_rf_new\lvgl\src\lv_misc\lv_mem.h **** 
  27:d:\_project\stm32\f407\hack_rf_new\lvgl\src\lv_misc\lv_mem.h **** /*********************
  28:d:\_project\stm32\f407\hack_rf_new\lvgl\src\lv_misc\lv_mem.h ****  *      DEFINES
  29:d:\_project\stm32\f407\hack_rf_new\lvgl\src\lv_misc\lv_mem.h ****  *********************/
  30:d:\_project\stm32\f407\hack_rf_new\lvgl\src\lv_misc\lv_mem.h **** 
  31:d:\_project\stm32\f407\hack_rf_new\lvgl\src\lv_misc\lv_mem.h **** #ifndef LV_MEM_BUF_MAX_NUM
  32:d:\_project\stm32\f407\hack_rf_new\lvgl\src\lv_misc\lv_mem.h **** #define LV_MEM_BUF_MAX_NUM    16
  33:d:\_project\stm32\f407\hack_rf_new\lvgl\src\lv_misc\lv_mem.h **** #endif
ARM GAS  D:\Temp\cc0vPyDE.s 			page 88


  34:d:\_project\stm32\f407\hack_rf_new\lvgl\src\lv_misc\lv_mem.h **** 
  35:d:\_project\stm32\f407\hack_rf_new\lvgl\src\lv_misc\lv_mem.h **** /**********************
  36:d:\_project\stm32\f407\hack_rf_new\lvgl\src\lv_misc\lv_mem.h ****  *      TYPEDEFS
  37:d:\_project\stm32\f407\hack_rf_new\lvgl\src\lv_misc\lv_mem.h ****  **********************/
  38:d:\_project\stm32\f407\hack_rf_new\lvgl\src\lv_misc\lv_mem.h **** 
  39:d:\_project\stm32\f407\hack_rf_new\lvgl\src\lv_misc\lv_mem.h **** /**
  40:d:\_project\stm32\f407\hack_rf_new\lvgl\src\lv_misc\lv_mem.h ****  * Heap information structure.
  41:d:\_project\stm32\f407\hack_rf_new\lvgl\src\lv_misc\lv_mem.h ****  */
  42:d:\_project\stm32\f407\hack_rf_new\lvgl\src\lv_misc\lv_mem.h **** typedef struct {
  43:d:\_project\stm32\f407\hack_rf_new\lvgl\src\lv_misc\lv_mem.h ****     uint32_t total_size; /**< Total heap size */
  44:d:\_project\stm32\f407\hack_rf_new\lvgl\src\lv_misc\lv_mem.h ****     uint32_t free_cnt;
  45:d:\_project\stm32\f407\hack_rf_new\lvgl\src\lv_misc\lv_mem.h ****     uint32_t free_size; /**< Size of available memory */
  46:d:\_project\stm32\f407\hack_rf_new\lvgl\src\lv_misc\lv_mem.h ****     uint32_t free_biggest_size;
  47:d:\_project\stm32\f407\hack_rf_new\lvgl\src\lv_misc\lv_mem.h ****     uint32_t used_cnt;
  48:d:\_project\stm32\f407\hack_rf_new\lvgl\src\lv_misc\lv_mem.h ****     uint32_t max_used; /**< Max size of Heap memory used */
  49:d:\_project\stm32\f407\hack_rf_new\lvgl\src\lv_misc\lv_mem.h ****     uint8_t used_pct; /**< Percentage used */
  50:d:\_project\stm32\f407\hack_rf_new\lvgl\src\lv_misc\lv_mem.h ****     uint8_t frag_pct; /**< Amount of fragmentation */
  51:d:\_project\stm32\f407\hack_rf_new\lvgl\src\lv_misc\lv_mem.h **** } lv_mem_monitor_t;
  52:d:\_project\stm32\f407\hack_rf_new\lvgl\src\lv_misc\lv_mem.h **** 
  53:d:\_project\stm32\f407\hack_rf_new\lvgl\src\lv_misc\lv_mem.h **** typedef struct {
  54:d:\_project\stm32\f407\hack_rf_new\lvgl\src\lv_misc\lv_mem.h ****     void * p;
  55:d:\_project\stm32\f407\hack_rf_new\lvgl\src\lv_misc\lv_mem.h ****     uint16_t size;
  56:d:\_project\stm32\f407\hack_rf_new\lvgl\src\lv_misc\lv_mem.h ****     uint8_t used    : 1;
  57:d:\_project\stm32\f407\hack_rf_new\lvgl\src\lv_misc\lv_mem.h **** } lv_mem_buf_t;
  58:d:\_project\stm32\f407\hack_rf_new\lvgl\src\lv_misc\lv_mem.h **** 
  59:d:\_project\stm32\f407\hack_rf_new\lvgl\src\lv_misc\lv_mem.h **** typedef lv_mem_buf_t lv_mem_buf_arr_t[LV_MEM_BUF_MAX_NUM];
  60:d:\_project\stm32\f407\hack_rf_new\lvgl\src\lv_misc\lv_mem.h **** extern lv_mem_buf_arr_t _lv_mem_buf;
  61:d:\_project\stm32\f407\hack_rf_new\lvgl\src\lv_misc\lv_mem.h **** 
  62:d:\_project\stm32\f407\hack_rf_new\lvgl\src\lv_misc\lv_mem.h **** /**********************
  63:d:\_project\stm32\f407\hack_rf_new\lvgl\src\lv_misc\lv_mem.h ****  * GLOBAL PROTOTYPES
  64:d:\_project\stm32\f407\hack_rf_new\lvgl\src\lv_misc\lv_mem.h ****  **********************/
  65:d:\_project\stm32\f407\hack_rf_new\lvgl\src\lv_misc\lv_mem.h **** 
  66:d:\_project\stm32\f407\hack_rf_new\lvgl\src\lv_misc\lv_mem.h **** /**
  67:d:\_project\stm32\f407\hack_rf_new\lvgl\src\lv_misc\lv_mem.h ****  * Initialize the dyn_mem module (work memory and other variables)
  68:d:\_project\stm32\f407\hack_rf_new\lvgl\src\lv_misc\lv_mem.h ****  */
  69:d:\_project\stm32\f407\hack_rf_new\lvgl\src\lv_misc\lv_mem.h **** void _lv_mem_init(void);
  70:d:\_project\stm32\f407\hack_rf_new\lvgl\src\lv_misc\lv_mem.h **** 
  71:d:\_project\stm32\f407\hack_rf_new\lvgl\src\lv_misc\lv_mem.h **** /**
  72:d:\_project\stm32\f407\hack_rf_new\lvgl\src\lv_misc\lv_mem.h ****  * Clean up the memory buffer which frees all the allocated memories.
  73:d:\_project\stm32\f407\hack_rf_new\lvgl\src\lv_misc\lv_mem.h ****  * @note It work only if `LV_MEM_CUSTOM == 0`
  74:d:\_project\stm32\f407\hack_rf_new\lvgl\src\lv_misc\lv_mem.h ****  */
  75:d:\_project\stm32\f407\hack_rf_new\lvgl\src\lv_misc\lv_mem.h **** void _lv_mem_deinit(void);
  76:d:\_project\stm32\f407\hack_rf_new\lvgl\src\lv_misc\lv_mem.h **** 
  77:d:\_project\stm32\f407\hack_rf_new\lvgl\src\lv_misc\lv_mem.h **** /**
  78:d:\_project\stm32\f407\hack_rf_new\lvgl\src\lv_misc\lv_mem.h ****  * Allocate a memory dynamically
  79:d:\_project\stm32\f407\hack_rf_new\lvgl\src\lv_misc\lv_mem.h ****  * @param size size of the memory to allocate in bytes
  80:d:\_project\stm32\f407\hack_rf_new\lvgl\src\lv_misc\lv_mem.h ****  * @return pointer to the allocated memory
  81:d:\_project\stm32\f407\hack_rf_new\lvgl\src\lv_misc\lv_mem.h ****  */
  82:d:\_project\stm32\f407\hack_rf_new\lvgl\src\lv_misc\lv_mem.h **** void * lv_mem_alloc(size_t size);
  83:d:\_project\stm32\f407\hack_rf_new\lvgl\src\lv_misc\lv_mem.h **** 
  84:d:\_project\stm32\f407\hack_rf_new\lvgl\src\lv_misc\lv_mem.h **** /**
  85:d:\_project\stm32\f407\hack_rf_new\lvgl\src\lv_misc\lv_mem.h ****  * Free an allocated data
  86:d:\_project\stm32\f407\hack_rf_new\lvgl\src\lv_misc\lv_mem.h ****  * @param data pointer to an allocated memory
  87:d:\_project\stm32\f407\hack_rf_new\lvgl\src\lv_misc\lv_mem.h ****  */
  88:d:\_project\stm32\f407\hack_rf_new\lvgl\src\lv_misc\lv_mem.h **** void lv_mem_free(const void * data);
  89:d:\_project\stm32\f407\hack_rf_new\lvgl\src\lv_misc\lv_mem.h **** 
  90:d:\_project\stm32\f407\hack_rf_new\lvgl\src\lv_misc\lv_mem.h **** /**
ARM GAS  D:\Temp\cc0vPyDE.s 			page 89


  91:d:\_project\stm32\f407\hack_rf_new\lvgl\src\lv_misc\lv_mem.h ****  * Reallocate a memory with a new size. The old content will be kept.
  92:d:\_project\stm32\f407\hack_rf_new\lvgl\src\lv_misc\lv_mem.h ****  * @param data pointer to an allocated memory.
  93:d:\_project\stm32\f407\hack_rf_new\lvgl\src\lv_misc\lv_mem.h ****  * Its content will be copied to the new memory block and freed
  94:d:\_project\stm32\f407\hack_rf_new\lvgl\src\lv_misc\lv_mem.h ****  * @param new_size the desired new size in byte
  95:d:\_project\stm32\f407\hack_rf_new\lvgl\src\lv_misc\lv_mem.h ****  * @return pointer to the new memory
  96:d:\_project\stm32\f407\hack_rf_new\lvgl\src\lv_misc\lv_mem.h ****  */
  97:d:\_project\stm32\f407\hack_rf_new\lvgl\src\lv_misc\lv_mem.h **** void * lv_mem_realloc(void * data_p, size_t new_size);
  98:d:\_project\stm32\f407\hack_rf_new\lvgl\src\lv_misc\lv_mem.h **** 
  99:d:\_project\stm32\f407\hack_rf_new\lvgl\src\lv_misc\lv_mem.h **** /**
 100:d:\_project\stm32\f407\hack_rf_new\lvgl\src\lv_misc\lv_mem.h ****  * Join the adjacent free memory blocks
 101:d:\_project\stm32\f407\hack_rf_new\lvgl\src\lv_misc\lv_mem.h ****  */
 102:d:\_project\stm32\f407\hack_rf_new\lvgl\src\lv_misc\lv_mem.h **** void lv_mem_defrag(void);
 103:d:\_project\stm32\f407\hack_rf_new\lvgl\src\lv_misc\lv_mem.h **** 
 104:d:\_project\stm32\f407\hack_rf_new\lvgl\src\lv_misc\lv_mem.h **** /**
 105:d:\_project\stm32\f407\hack_rf_new\lvgl\src\lv_misc\lv_mem.h ****  *
 106:d:\_project\stm32\f407\hack_rf_new\lvgl\src\lv_misc\lv_mem.h ****  * @return
 107:d:\_project\stm32\f407\hack_rf_new\lvgl\src\lv_misc\lv_mem.h ****  */
 108:d:\_project\stm32\f407\hack_rf_new\lvgl\src\lv_misc\lv_mem.h **** lv_res_t lv_mem_test(void);
 109:d:\_project\stm32\f407\hack_rf_new\lvgl\src\lv_misc\lv_mem.h **** 
 110:d:\_project\stm32\f407\hack_rf_new\lvgl\src\lv_misc\lv_mem.h **** /**
 111:d:\_project\stm32\f407\hack_rf_new\lvgl\src\lv_misc\lv_mem.h ****  * Give information about the work memory of dynamic allocation
 112:d:\_project\stm32\f407\hack_rf_new\lvgl\src\lv_misc\lv_mem.h ****  * @param mon_p pointer to a dm_mon_p variable,
 113:d:\_project\stm32\f407\hack_rf_new\lvgl\src\lv_misc\lv_mem.h ****  *              the result of the analysis will be stored here
 114:d:\_project\stm32\f407\hack_rf_new\lvgl\src\lv_misc\lv_mem.h ****  */
 115:d:\_project\stm32\f407\hack_rf_new\lvgl\src\lv_misc\lv_mem.h **** void lv_mem_monitor(lv_mem_monitor_t * mon_p);
 116:d:\_project\stm32\f407\hack_rf_new\lvgl\src\lv_misc\lv_mem.h **** 
 117:d:\_project\stm32\f407\hack_rf_new\lvgl\src\lv_misc\lv_mem.h **** /**
 118:d:\_project\stm32\f407\hack_rf_new\lvgl\src\lv_misc\lv_mem.h ****  * Give the size of an allocated memory
 119:d:\_project\stm32\f407\hack_rf_new\lvgl\src\lv_misc\lv_mem.h ****  * @param data pointer to an allocated memory
 120:d:\_project\stm32\f407\hack_rf_new\lvgl\src\lv_misc\lv_mem.h ****  * @return the size of data memory in bytes
 121:d:\_project\stm32\f407\hack_rf_new\lvgl\src\lv_misc\lv_mem.h ****  */
 122:d:\_project\stm32\f407\hack_rf_new\lvgl\src\lv_misc\lv_mem.h **** uint32_t _lv_mem_get_size(const void * data);
 123:d:\_project\stm32\f407\hack_rf_new\lvgl\src\lv_misc\lv_mem.h **** 
 124:d:\_project\stm32\f407\hack_rf_new\lvgl\src\lv_misc\lv_mem.h **** /**
 125:d:\_project\stm32\f407\hack_rf_new\lvgl\src\lv_misc\lv_mem.h ****  * Get a temporal buffer with the given size.
 126:d:\_project\stm32\f407\hack_rf_new\lvgl\src\lv_misc\lv_mem.h ****  * @param size the required size
 127:d:\_project\stm32\f407\hack_rf_new\lvgl\src\lv_misc\lv_mem.h ****  */
 128:d:\_project\stm32\f407\hack_rf_new\lvgl\src\lv_misc\lv_mem.h **** void * _lv_mem_buf_get(uint32_t size);
 129:d:\_project\stm32\f407\hack_rf_new\lvgl\src\lv_misc\lv_mem.h **** 
 130:d:\_project\stm32\f407\hack_rf_new\lvgl\src\lv_misc\lv_mem.h **** /**
 131:d:\_project\stm32\f407\hack_rf_new\lvgl\src\lv_misc\lv_mem.h ****  * Release a memory buffer
 132:d:\_project\stm32\f407\hack_rf_new\lvgl\src\lv_misc\lv_mem.h ****  * @param p buffer to release
 133:d:\_project\stm32\f407\hack_rf_new\lvgl\src\lv_misc\lv_mem.h ****  */
 134:d:\_project\stm32\f407\hack_rf_new\lvgl\src\lv_misc\lv_mem.h **** void _lv_mem_buf_release(void * p);
 135:d:\_project\stm32\f407\hack_rf_new\lvgl\src\lv_misc\lv_mem.h **** 
 136:d:\_project\stm32\f407\hack_rf_new\lvgl\src\lv_misc\lv_mem.h **** /**
 137:d:\_project\stm32\f407\hack_rf_new\lvgl\src\lv_misc\lv_mem.h ****  * Free all memory buffers
 138:d:\_project\stm32\f407\hack_rf_new\lvgl\src\lv_misc\lv_mem.h ****  */
 139:d:\_project\stm32\f407\hack_rf_new\lvgl\src\lv_misc\lv_mem.h **** void _lv_mem_buf_free_all(void);
 140:d:\_project\stm32\f407\hack_rf_new\lvgl\src\lv_misc\lv_mem.h **** 
 141:d:\_project\stm32\f407\hack_rf_new\lvgl\src\lv_misc\lv_mem.h **** //! @cond Doxygen_Suppress
 142:d:\_project\stm32\f407\hack_rf_new\lvgl\src\lv_misc\lv_mem.h **** 
 143:d:\_project\stm32\f407\hack_rf_new\lvgl\src\lv_misc\lv_mem.h **** #if LV_MEMCPY_MEMSET_STD
 144:d:\_project\stm32\f407\hack_rf_new\lvgl\src\lv_misc\lv_mem.h **** 
 145:d:\_project\stm32\f407\hack_rf_new\lvgl\src\lv_misc\lv_mem.h **** /**
 146:d:\_project\stm32\f407\hack_rf_new\lvgl\src\lv_misc\lv_mem.h ****  * Wrapper for the standard memcpy
 147:d:\_project\stm32\f407\hack_rf_new\lvgl\src\lv_misc\lv_mem.h ****  * @param dst pointer to the destination buffer
ARM GAS  D:\Temp\cc0vPyDE.s 			page 90


 148:d:\_project\stm32\f407\hack_rf_new\lvgl\src\lv_misc\lv_mem.h ****  * @param src pointer to the source buffer
 149:d:\_project\stm32\f407\hack_rf_new\lvgl\src\lv_misc\lv_mem.h ****  * @param len number of byte to copy
 150:d:\_project\stm32\f407\hack_rf_new\lvgl\src\lv_misc\lv_mem.h ****  */
 151:d:\_project\stm32\f407\hack_rf_new\lvgl\src\lv_misc\lv_mem.h **** static inline void * _lv_memcpy(void * dst, const void * src, size_t len)
 152:d:\_project\stm32\f407\hack_rf_new\lvgl\src\lv_misc\lv_mem.h **** {
 153:d:\_project\stm32\f407\hack_rf_new\lvgl\src\lv_misc\lv_mem.h ****     return memcpy(dst, src, len);
 154:d:\_project\stm32\f407\hack_rf_new\lvgl\src\lv_misc\lv_mem.h **** }
 155:d:\_project\stm32\f407\hack_rf_new\lvgl\src\lv_misc\lv_mem.h **** 
 156:d:\_project\stm32\f407\hack_rf_new\lvgl\src\lv_misc\lv_mem.h **** /**
 157:d:\_project\stm32\f407\hack_rf_new\lvgl\src\lv_misc\lv_mem.h ****  * Wrapper for the standard memcpy
 158:d:\_project\stm32\f407\hack_rf_new\lvgl\src\lv_misc\lv_mem.h ****  * @param dst pointer to the destination buffer
 159:d:\_project\stm32\f407\hack_rf_new\lvgl\src\lv_misc\lv_mem.h ****  * @param src pointer to the source buffer
 160:d:\_project\stm32\f407\hack_rf_new\lvgl\src\lv_misc\lv_mem.h ****  * @param len number of byte to copy
 161:d:\_project\stm32\f407\hack_rf_new\lvgl\src\lv_misc\lv_mem.h ****  */
 162:d:\_project\stm32\f407\hack_rf_new\lvgl\src\lv_misc\lv_mem.h **** static inline void * _lv_memcpy_small(void * dst, const void * src, size_t len)
 163:d:\_project\stm32\f407\hack_rf_new\lvgl\src\lv_misc\lv_mem.h **** {
 164:d:\_project\stm32\f407\hack_rf_new\lvgl\src\lv_misc\lv_mem.h ****     return memcpy(dst, src, len);
 165:d:\_project\stm32\f407\hack_rf_new\lvgl\src\lv_misc\lv_mem.h **** }
 166:d:\_project\stm32\f407\hack_rf_new\lvgl\src\lv_misc\lv_mem.h **** 
 167:d:\_project\stm32\f407\hack_rf_new\lvgl\src\lv_misc\lv_mem.h **** /**
 168:d:\_project\stm32\f407\hack_rf_new\lvgl\src\lv_misc\lv_mem.h ****  * Wrapper for the standard memset
 169:d:\_project\stm32\f407\hack_rf_new\lvgl\src\lv_misc\lv_mem.h ****  * @param dst pointer to the destination buffer
 170:d:\_project\stm32\f407\hack_rf_new\lvgl\src\lv_misc\lv_mem.h ****  * @param v value to set [0..255]
 171:d:\_project\stm32\f407\hack_rf_new\lvgl\src\lv_misc\lv_mem.h ****  * @param len number of byte to set
 172:d:\_project\stm32\f407\hack_rf_new\lvgl\src\lv_misc\lv_mem.h ****  */
 173:d:\_project\stm32\f407\hack_rf_new\lvgl\src\lv_misc\lv_mem.h **** static inline void _lv_memset(void * dst, uint8_t v, size_t len)
 174:d:\_project\stm32\f407\hack_rf_new\lvgl\src\lv_misc\lv_mem.h **** {
 175:d:\_project\stm32\f407\hack_rf_new\lvgl\src\lv_misc\lv_mem.h ****     memset(dst, v, len);
 176:d:\_project\stm32\f407\hack_rf_new\lvgl\src\lv_misc\lv_mem.h **** }
 177:d:\_project\stm32\f407\hack_rf_new\lvgl\src\lv_misc\lv_mem.h **** 
 178:d:\_project\stm32\f407\hack_rf_new\lvgl\src\lv_misc\lv_mem.h **** /**
 179:d:\_project\stm32\f407\hack_rf_new\lvgl\src\lv_misc\lv_mem.h ****  * Wrapper for the standard memset with fixed 0x00 value
 180:d:\_project\stm32\f407\hack_rf_new\lvgl\src\lv_misc\lv_mem.h ****  * @param dst pointer to the destination buffer
 181:d:\_project\stm32\f407\hack_rf_new\lvgl\src\lv_misc\lv_mem.h ****  * @param len number of byte to set
 182:d:\_project\stm32\f407\hack_rf_new\lvgl\src\lv_misc\lv_mem.h ****  */
 183:d:\_project\stm32\f407\hack_rf_new\lvgl\src\lv_misc\lv_mem.h **** static inline void _lv_memset_00(void * dst, size_t len)
 184:d:\_project\stm32\f407\hack_rf_new\lvgl\src\lv_misc\lv_mem.h **** {
 185:d:\_project\stm32\f407\hack_rf_new\lvgl\src\lv_misc\lv_mem.h ****     memset(dst, 0x00, len);
 186:d:\_project\stm32\f407\hack_rf_new\lvgl\src\lv_misc\lv_mem.h **** }
 187:d:\_project\stm32\f407\hack_rf_new\lvgl\src\lv_misc\lv_mem.h **** 
 188:d:\_project\stm32\f407\hack_rf_new\lvgl\src\lv_misc\lv_mem.h **** /**
 189:d:\_project\stm32\f407\hack_rf_new\lvgl\src\lv_misc\lv_mem.h ****  * Wrapper for the standard memset with fixed 0xFF value
 190:d:\_project\stm32\f407\hack_rf_new\lvgl\src\lv_misc\lv_mem.h ****  * @param dst pointer to the destination buffer
 191:d:\_project\stm32\f407\hack_rf_new\lvgl\src\lv_misc\lv_mem.h ****  * @param len number of byte to set
 192:d:\_project\stm32\f407\hack_rf_new\lvgl\src\lv_misc\lv_mem.h ****  */
 193:d:\_project\stm32\f407\hack_rf_new\lvgl\src\lv_misc\lv_mem.h **** static inline void _lv_memset_ff(void * dst, size_t len)
 194:d:\_project\stm32\f407\hack_rf_new\lvgl\src\lv_misc\lv_mem.h **** {
 195:d:\_project\stm32\f407\hack_rf_new\lvgl\src\lv_misc\lv_mem.h ****     memset(dst, 0xFF, len);
 196:d:\_project\stm32\f407\hack_rf_new\lvgl\src\lv_misc\lv_mem.h **** }
 197:d:\_project\stm32\f407\hack_rf_new\lvgl\src\lv_misc\lv_mem.h **** 
 198:d:\_project\stm32\f407\hack_rf_new\lvgl\src\lv_misc\lv_mem.h **** #else
 199:d:\_project\stm32\f407\hack_rf_new\lvgl\src\lv_misc\lv_mem.h **** /**
 200:d:\_project\stm32\f407\hack_rf_new\lvgl\src\lv_misc\lv_mem.h ****  * Same as `memcpy` but optimized for 4 byte operation.
 201:d:\_project\stm32\f407\hack_rf_new\lvgl\src\lv_misc\lv_mem.h ****  * @param dst pointer to the destination buffer
 202:d:\_project\stm32\f407\hack_rf_new\lvgl\src\lv_misc\lv_mem.h ****  * @param src pointer to the source buffer
 203:d:\_project\stm32\f407\hack_rf_new\lvgl\src\lv_misc\lv_mem.h ****  * @param len number of byte to copy
 204:d:\_project\stm32\f407\hack_rf_new\lvgl\src\lv_misc\lv_mem.h ****  */
ARM GAS  D:\Temp\cc0vPyDE.s 			page 91


 205:d:\_project\stm32\f407\hack_rf_new\lvgl\src\lv_misc\lv_mem.h **** LV_ATTRIBUTE_FAST_MEM void * _lv_memcpy(void * dst, const void * src, size_t len);
 206:d:\_project\stm32\f407\hack_rf_new\lvgl\src\lv_misc\lv_mem.h **** 
 207:d:\_project\stm32\f407\hack_rf_new\lvgl\src\lv_misc\lv_mem.h **** /**
 208:d:\_project\stm32\f407\hack_rf_new\lvgl\src\lv_misc\lv_mem.h ****  * Same as `memcpy` but optimized to copy only a few bytes.
 209:d:\_project\stm32\f407\hack_rf_new\lvgl\src\lv_misc\lv_mem.h ****  * @param dst pointer to the destination buffer
 210:d:\_project\stm32\f407\hack_rf_new\lvgl\src\lv_misc\lv_mem.h ****  * @param src pointer to the source buffer
 211:d:\_project\stm32\f407\hack_rf_new\lvgl\src\lv_misc\lv_mem.h ****  * @param len number of byte to copy
 212:d:\_project\stm32\f407\hack_rf_new\lvgl\src\lv_misc\lv_mem.h ****  */
 213:d:\_project\stm32\f407\hack_rf_new\lvgl\src\lv_misc\lv_mem.h **** LV_ATTRIBUTE_FAST_MEM static inline void * _lv_memcpy_small(void * dst, const void * src, size_t le
 2118              		.loc 5 213 44 is_stmt 1 view .LVU610
 2119              	.LBB109:
 214:d:\_project\stm32\f407\hack_rf_new\lvgl\src\lv_misc\lv_mem.h **** {
 215:d:\_project\stm32\f407\hack_rf_new\lvgl\src\lv_misc\lv_mem.h ****     uint8_t * d8 = (uint8_t *)dst;
 2120              		.loc 5 215 5 view .LVU611
 216:d:\_project\stm32\f407\hack_rf_new\lvgl\src\lv_misc\lv_mem.h ****     const uint8_t * s8 = (const uint8_t *)src;
 2121              		.loc 5 216 5 view .LVU612
 217:d:\_project\stm32\f407\hack_rf_new\lvgl\src\lv_misc\lv_mem.h **** 
 218:d:\_project\stm32\f407\hack_rf_new\lvgl\src\lv_misc\lv_mem.h ****     while(len) {
 2122              		.loc 5 218 5 view .LVU613
 215:d:\_project\stm32\f407\hack_rf_new\lvgl\src\lv_misc\lv_mem.h ****     const uint8_t * s8 = (const uint8_t *)src;
 2123              		.loc 5 215 15 is_stmt 0 view .LVU614
 2124 0120 14A9     		add	r1, sp, #80
 2125              	.LVL205:
 215:d:\_project\stm32\f407\hack_rf_new\lvgl\src\lv_misc\lv_mem.h ****     const uint8_t * s8 = (const uint8_t *)src;
 2126              		.loc 5 215 15 view .LVU615
 2127              	.LBE109:
 2128              	.LBE108:
 2129              		.loc 4 334 47 view .LVU616
 2130 0122 0223     		movs	r3, #2
 2131              	.LVL206:
 2132              		.loc 4 334 47 view .LVU617
 2133 0124 1CE0     		b	.L132
 2134              	.LVL207:
 2135              	.L128:
 311:lvgl/src/lv_widgets/../lv_core/../lv_draw/lv_img_buf.h ****         yt = (int32_t)((int32_t)yt * dsc->tmp.zoom_inv) >> _LV_ZOOM_INV_UPSCALE;
 2136              		.loc 4 311 9 is_stmt 1 view .LVU618
 311:lvgl/src/lv_widgets/../lv_core/../lv_draw/lv_img_buf.h ****         yt = (int32_t)((int32_t)yt * dsc->tmp.zoom_inv) >> _LV_ZOOM_INV_UPSCALE;
 2137              		.loc 4 311 46 is_stmt 0 view .LVU619
 2138 0126 1D98     		ldr	r0, [sp, #116]
 311:lvgl/src/lv_widgets/../lv_core/../lv_draw/lv_img_buf.h ****         yt = (int32_t)((int32_t)yt * dsc->tmp.zoom_inv) >> _LV_ZOOM_INV_UPSCALE;
 2139              		.loc 4 311 36 view .LVU620
 2140 0128 03FB00F3 		mul	r3, r3, r0
 2141              	.LVL208:
 311:lvgl/src/lv_widgets/../lv_core/../lv_draw/lv_img_buf.h ****         yt = (int32_t)((int32_t)yt * dsc->tmp.zoom_inv) >> _LV_ZOOM_INV_UPSCALE;
 2142              		.loc 4 311 12 view .LVU621
 2143 012c 5B11     		asrs	r3, r3, #5
 2144              	.LVL209:
 312:lvgl/src/lv_widgets/../lv_core/../lv_draw/lv_img_buf.h ****         xs = ((dsc->tmp.cosma * xt - dsc->tmp.sinma * yt) >> (_LV_TRANSFORM_TRIGO_SHIFT)) + dsc->tm
 2145              		.loc 4 312 9 is_stmt 1 view .LVU622
 312:lvgl/src/lv_widgets/../lv_core/../lv_draw/lv_img_buf.h ****         xs = ((dsc->tmp.cosma * xt - dsc->tmp.sinma * yt) >> (_LV_TRANSFORM_TRIGO_SHIFT)) + dsc->tm
 2146              		.loc 4 312 36 is_stmt 0 view .LVU623
 2147 012e 01FB00F1 		mul	r1, r1, r0
 2148              	.LVL210:
 312:lvgl/src/lv_widgets/../lv_core/../lv_draw/lv_img_buf.h ****         xs = ((dsc->tmp.cosma * xt - dsc->tmp.sinma * yt) >> (_LV_TRANSFORM_TRIGO_SHIFT)) + dsc->tm
 2149              		.loc 4 312 12 view .LVU624
 2150 0132 4911     		asrs	r1, r1, #5
 2151              	.LVL211:
ARM GAS  D:\Temp\cc0vPyDE.s 			page 92


 313:lvgl/src/lv_widgets/../lv_core/../lv_draw/lv_img_buf.h ****         ys = ((dsc->tmp.sinma * xt + dsc->tmp.cosma * yt) >> (_LV_TRANSFORM_TRIGO_SHIFT)) + dsc->tm
 2152              		.loc 4 313 9 is_stmt 1 view .LVU625
 313:lvgl/src/lv_widgets/../lv_core/../lv_draw/lv_img_buf.h ****         ys = ((dsc->tmp.sinma * xt + dsc->tmp.cosma * yt) >> (_LV_TRANSFORM_TRIGO_SHIFT)) + dsc->tm
 2153              		.loc 4 313 24 is_stmt 0 view .LVU626
 2154 0134 1B98     		ldr	r0, [sp, #108]
 313:lvgl/src/lv_widgets/../lv_core/../lv_draw/lv_img_buf.h ****         ys = ((dsc->tmp.sinma * xt + dsc->tmp.cosma * yt) >> (_LV_TRANSFORM_TRIGO_SHIFT)) + dsc->tm
 2155              		.loc 4 313 31 view .LVU627
 2156 0136 00FB03F5 		mul	r5, r0, r3
 313:lvgl/src/lv_widgets/../lv_core/../lv_draw/lv_img_buf.h ****         ys = ((dsc->tmp.sinma * xt + dsc->tmp.cosma * yt) >> (_LV_TRANSFORM_TRIGO_SHIFT)) + dsc->tm
 2157              		.loc 4 313 46 view .LVU628
 2158 013a 1A9C     		ldr	r4, [sp, #104]
 313:lvgl/src/lv_widgets/../lv_core/../lv_draw/lv_img_buf.h ****         ys = ((dsc->tmp.sinma * xt + dsc->tmp.cosma * yt) >> (_LV_TRANSFORM_TRIGO_SHIFT)) + dsc->tm
 2159              		.loc 4 313 36 view .LVU629
 2160 013c 04FB1156 		mls	r6, r4, r1, r5
 313:lvgl/src/lv_widgets/../lv_core/../lv_draw/lv_img_buf.h ****         ys = ((dsc->tmp.sinma * xt + dsc->tmp.cosma * yt) >> (_LV_TRANSFORM_TRIGO_SHIFT)) + dsc->tm
 2161              		.loc 4 313 101 view .LVU630
 2162 0140 189D     		ldr	r5, [sp, #96]
 313:lvgl/src/lv_widgets/../lv_core/../lv_draw/lv_img_buf.h ****         ys = ((dsc->tmp.sinma * xt + dsc->tmp.cosma * yt) >> (_LV_TRANSFORM_TRIGO_SHIFT)) + dsc->tm
 2163              		.loc 4 313 12 view .LVU631
 2164 0142 05EBA625 		add	r5, r5, r6, asr #10
 2165              	.LVL212:
 314:lvgl/src/lv_widgets/../lv_core/../lv_draw/lv_img_buf.h ****     }
 2166              		.loc 4 314 9 is_stmt 1 view .LVU632
 314:lvgl/src/lv_widgets/../lv_core/../lv_draw/lv_img_buf.h ****     }
 2167              		.loc 4 314 53 is_stmt 0 view .LVU633
 2168 0146 00FB01F1 		mul	r1, r0, r1
 2169              	.LVL213:
 314:lvgl/src/lv_widgets/../lv_core/../lv_draw/lv_img_buf.h ****     }
 2170              		.loc 4 314 36 view .LVU634
 2171 014a 04FB0313 		mla	r3, r4, r3, r1
 2172              	.LVL214:
 314:lvgl/src/lv_widgets/../lv_core/../lv_draw/lv_img_buf.h ****     }
 2173              		.loc 4 314 101 view .LVU635
 2174 014e 199C     		ldr	r4, [sp, #100]
 314:lvgl/src/lv_widgets/../lv_core/../lv_draw/lv_img_buf.h ****     }
 2175              		.loc 4 314 12 view .LVU636
 2176 0150 04EBA324 		add	r4, r4, r3, asr #10
 2177              	.LVL215:
 314:lvgl/src/lv_widgets/../lv_core/../lv_draw/lv_img_buf.h ****     }
 2178              		.loc 4 314 12 view .LVU637
 2179 0154 C5E7     		b	.L127
 2180              	.LVL216:
 2181              	.L133:
 2182              	.LBB111:
 2183              	.LBB110:
 219:d:\_project\stm32\f407\hack_rf_new\lvgl\src\lv_misc\lv_mem.h ****         *d8 = *s8;
 2184              		.loc 5 219 9 is_stmt 1 view .LVU638
 2185              		.loc 5 219 15 is_stmt 0 view .LVU639
 2186 0156 12F8010B 		ldrb	r0, [r2], #1	@ zero_extendqisi2
 2187              	.LVL217:
 2188              		.loc 5 219 13 view .LVU640
 2189 015a 01F8010B 		strb	r0, [r1], #1
 2190              	.LVL218:
 220:d:\_project\stm32\f407\hack_rf_new\lvgl\src\lv_misc\lv_mem.h ****         d8++;
 2191              		.loc 5 220 9 is_stmt 1 view .LVU641
 221:d:\_project\stm32\f407\hack_rf_new\lvgl\src\lv_misc\lv_mem.h ****         s8++;
 2192              		.loc 5 221 9 view .LVU642
ARM GAS  D:\Temp\cc0vPyDE.s 			page 93


 222:d:\_project\stm32\f407\hack_rf_new\lvgl\src\lv_misc\lv_mem.h ****         len--;
 2193              		.loc 5 222 9 view .LVU643
 2194              		.loc 5 222 12 is_stmt 0 view .LVU644
 2195 015e 013B     		subs	r3, r3, #1
 2196              	.LVL219:
 2197              	.L132:
 218:d:\_project\stm32\f407\hack_rf_new\lvgl\src\lv_misc\lv_mem.h ****         *d8 = *s8;
 2198              		.loc 5 218 10 view .LVU645
 2199 0160 002B     		cmp	r3, #0
 2200 0162 F8D1     		bne	.L133
 218:d:\_project\stm32\f407\hack_rf_new\lvgl\src\lv_misc\lv_mem.h ****         *d8 = *s8;
 2201              		.loc 5 218 10 view .LVU646
 2202              	.LBE110:
 2203              	.LBE111:
 331:lvgl/src/lv_widgets/../lv_core/../lv_draw/lv_img_buf.h **** 
 2204              		.loc 4 331 21 view .LVU647
 2205 0164 0223     		movs	r3, #2
 2206              	.LVL220:
 2207              	.L134:
 335:lvgl/src/lv_widgets/../lv_core/../lv_draw/lv_img_buf.h ****         }
 336:lvgl/src/lv_widgets/../lv_core/../lv_draw/lv_img_buf.h ****         else {
 337:lvgl/src/lv_widgets/../lv_core/../lv_draw/lv_img_buf.h ****             px_size = LV_IMG_PX_SIZE_ALPHA_BYTE;
 338:lvgl/src/lv_widgets/../lv_core/../lv_draw/lv_img_buf.h ****             pxi     = dsc->cfg.src_w * ys_int * px_size + xs_int * px_size;
 339:lvgl/src/lv_widgets/../lv_core/../lv_draw/lv_img_buf.h ****             _lv_memcpy_small(&dsc->res.color, &src_u8[pxi], px_size - 1);
 340:lvgl/src/lv_widgets/../lv_core/../lv_draw/lv_img_buf.h ****             dsc->res.opa = src_u8[pxi + px_size - 1];
 341:lvgl/src/lv_widgets/../lv_core/../lv_draw/lv_img_buf.h ****         }
 342:lvgl/src/lv_widgets/../lv_core/../lv_draw/lv_img_buf.h ****     }
 343:lvgl/src/lv_widgets/../lv_core/../lv_draw/lv_img_buf.h ****     else {
 344:lvgl/src/lv_widgets/../lv_core/../lv_draw/lv_img_buf.h ****         pxi = 0; /*unused*/
 345:lvgl/src/lv_widgets/../lv_core/../lv_draw/lv_img_buf.h ****         px_size = 0;    /*unused*/
 346:lvgl/src/lv_widgets/../lv_core/../lv_draw/lv_img_buf.h ****         dsc->res.color = lv_img_buf_get_px_color(&dsc->tmp.img_dsc, xs_int, ys_int, dsc->cfg.color)
 347:lvgl/src/lv_widgets/../lv_core/../lv_draw/lv_img_buf.h ****         dsc->res.opa = lv_img_buf_get_px_alpha(&dsc->tmp.img_dsc, xs_int, ys_int);
 348:lvgl/src/lv_widgets/../lv_core/../lv_draw/lv_img_buf.h ****     }
 349:lvgl/src/lv_widgets/../lv_core/../lv_draw/lv_img_buf.h **** 
 350:lvgl/src/lv_widgets/../lv_core/../lv_draw/lv_img_buf.h ****     if(dsc->tmp.chroma_keyed) {
 2208              		.loc 4 350 5 is_stmt 1 view .LVU648
 2209              		.loc 4 350 8 is_stmt 0 view .LVU649
 2210 0166 9DF87020 		ldrb	r2, [sp, #112]	@ zero_extendqisi2
 2211              		.loc 4 350 7 view .LVU650
 2212 016a 12F0010F 		tst	r2, #1
 2213 016e 0ED0     		beq	.L137
 2214              	.LBB112:
 351:lvgl/src/lv_widgets/../lv_core/../lv_draw/lv_img_buf.h ****         lv_color_t ct = LV_COLOR_TRANSP;
 2215              		.loc 4 351 9 is_stmt 1 view .LVU651
 2216              		.loc 4 351 20 is_stmt 0 view .LVU652
 2217 0170 BDF83420 		ldrh	r2, [sp, #52]
 2218 0174 6FF30402 		bfc	r2, #0, #5
 2219 0178 42F4FC62 		orr	r2, r2, #2016
 2220 017c 6FF3CF22 		bfc	r2, #11, #5
 2221              	.LVL221:
 2222              		.loc 4 351 20 view .LVU653
 2223 0180 ADF83420 		strh	r2, [sp, #52]	@ movhi
 352:lvgl/src/lv_widgets/../lv_core/../lv_draw/lv_img_buf.h ****         if(dsc->res.color.full == ct.full) return false;
 2224              		.loc 4 352 9 is_stmt 1 view .LVU654
 2225              		.loc 4 352 26 is_stmt 0 view .LVU655
 2226 0184 BDF85010 		ldrh	r1, [sp, #80]
 2227              		.loc 4 352 37 view .LVU656
ARM GAS  D:\Temp\cc0vPyDE.s 			page 94


 2228 0188 92B2     		uxth	r2, r2
 2229              	.LVL222:
 2230              		.loc 4 352 11 view .LVU657
 2231 018a 9142     		cmp	r1, r2
 2232 018c 30D0     		beq	.L155
 2233              	.L137:
 2234              	.LBE112:
 353:lvgl/src/lv_widgets/../lv_core/../lv_draw/lv_img_buf.h ****     }
 354:lvgl/src/lv_widgets/../lv_core/../lv_draw/lv_img_buf.h **** 
 355:lvgl/src/lv_widgets/../lv_core/../lv_draw/lv_img_buf.h ****     if(dsc->cfg.antialias == false) return true;
 2235              		.loc 4 355 5 is_stmt 1 view .LVU658
 2236              		.loc 4 355 16 is_stmt 0 view .LVU659
 2237 018e 9DF84F20 		ldrb	r2, [sp, #79]	@ zero_extendqisi2
 2238              		.loc 4 355 7 view .LVU660
 2239 0192 7ABB     		cbnz	r2, .L156
 2240              		.loc 4 355 44 view .LVU661
 2241 0194 0B98     		ldr	r0, [sp, #44]
 2242 0196 3EE0     		b	.L129
 2243              	.LVL223:
 2244              	.L131:
 337:lvgl/src/lv_widgets/../lv_core/../lv_draw/lv_img_buf.h ****             pxi     = dsc->cfg.src_w * ys_int * px_size + xs_int * px_size;
 2245              		.loc 4 337 13 is_stmt 1 view .LVU662
 338:lvgl/src/lv_widgets/../lv_core/../lv_draw/lv_img_buf.h ****             _lv_memcpy_small(&dsc->res.color, &src_u8[pxi], px_size - 1);
 2246              		.loc 4 338 13 view .LVU663
 338:lvgl/src/lv_widgets/../lv_core/../lv_draw/lv_img_buf.h ****             _lv_memcpy_small(&dsc->res.color, &src_u8[pxi], px_size - 1);
 2247              		.loc 4 338 57 is_stmt 0 view .LVU664
 2248 0198 03FB0763 		mla	r3, r3, r7, r6
 2249 019c 03EB4303 		add	r3, r3, r3, lsl #1
 338:lvgl/src/lv_widgets/../lv_core/../lv_draw/lv_img_buf.h ****             _lv_memcpy_small(&dsc->res.color, &src_u8[pxi], px_size - 1);
 2250              		.loc 4 338 21 view .LVU665
 2251 01a0 0293     		str	r3, [sp, #8]
 2252              	.LVL224:
 339:lvgl/src/lv_widgets/../lv_core/../lv_draw/lv_img_buf.h ****             dsc->res.opa = src_u8[pxi + px_size - 1];
 2253              		.loc 4 339 13 is_stmt 1 view .LVU666
 339:lvgl/src/lv_widgets/../lv_core/../lv_draw/lv_img_buf.h ****             dsc->res.opa = src_u8[pxi + px_size - 1];
 2254              		.loc 4 339 47 is_stmt 0 view .LVU667
 2255 01a2 02EB030C 		add	ip, r2, r3
 2256              	.LVL225:
 2257              	.LBB113:
 2258              	.LBI113:
 213:d:\_project\stm32\f407\hack_rf_new\lvgl\src\lv_misc\lv_mem.h **** {
 2259              		.loc 5 213 44 is_stmt 1 view .LVU668
 2260              	.LBB114:
 215:d:\_project\stm32\f407\hack_rf_new\lvgl\src\lv_misc\lv_mem.h ****     const uint8_t * s8 = (const uint8_t *)src;
 2261              		.loc 5 215 5 view .LVU669
 216:d:\_project\stm32\f407\hack_rf_new\lvgl\src\lv_misc\lv_mem.h **** 
 2262              		.loc 5 216 5 view .LVU670
 218:d:\_project\stm32\f407\hack_rf_new\lvgl\src\lv_misc\lv_mem.h ****         *d8 = *s8;
 2263              		.loc 5 218 5 view .LVU671
 215:d:\_project\stm32\f407\hack_rf_new\lvgl\src\lv_misc\lv_mem.h ****     const uint8_t * s8 = (const uint8_t *)src;
 2264              		.loc 5 215 15 is_stmt 0 view .LVU672
 2265 01a6 14A8     		add	r0, sp, #80
 2266              	.LVL226:
 215:d:\_project\stm32\f407\hack_rf_new\lvgl\src\lv_misc\lv_mem.h ****     const uint8_t * s8 = (const uint8_t *)src;
 2267              		.loc 5 215 15 view .LVU673
 2268              	.LBE114:
 2269              	.LBE113:
ARM GAS  D:\Temp\cc0vPyDE.s 			page 95


 339:lvgl/src/lv_widgets/../lv_core/../lv_draw/lv_img_buf.h ****             dsc->res.opa = src_u8[pxi + px_size - 1];
 2270              		.loc 4 339 47 view .LVU674
 2271 01a8 0221     		movs	r1, #2
 2272 01aa 04E0     		b	.L135
 2273              	.LVL227:
 2274              	.L136:
 2275              	.LBB116:
 2276              	.LBB115:
 219:d:\_project\stm32\f407\hack_rf_new\lvgl\src\lv_misc\lv_mem.h ****         d8++;
 2277              		.loc 5 219 9 is_stmt 1 view .LVU675
 219:d:\_project\stm32\f407\hack_rf_new\lvgl\src\lv_misc\lv_mem.h ****         d8++;
 2278              		.loc 5 219 15 is_stmt 0 view .LVU676
 2279 01ac 1CF801EB 		ldrb	lr, [ip], #1	@ zero_extendqisi2
 2280              	.LVL228:
 219:d:\_project\stm32\f407\hack_rf_new\lvgl\src\lv_misc\lv_mem.h ****         d8++;
 2281              		.loc 5 219 13 view .LVU677
 2282 01b0 00F801EB 		strb	lr, [r0], #1
 2283              	.LVL229:
 220:d:\_project\stm32\f407\hack_rf_new\lvgl\src\lv_misc\lv_mem.h ****         s8++;
 2284              		.loc 5 220 9 is_stmt 1 view .LVU678
 221:d:\_project\stm32\f407\hack_rf_new\lvgl\src\lv_misc\lv_mem.h ****         len--;
 2285              		.loc 5 221 9 view .LVU679
 2286              		.loc 5 222 9 view .LVU680
 2287              		.loc 5 222 12 is_stmt 0 view .LVU681
 2288 01b4 0139     		subs	r1, r1, #1
 2289              	.LVL230:
 2290              	.L135:
 218:d:\_project\stm32\f407\hack_rf_new\lvgl\src\lv_misc\lv_mem.h ****         *d8 = *s8;
 2291              		.loc 5 218 10 view .LVU682
 2292 01b6 0029     		cmp	r1, #0
 2293 01b8 F8D1     		bne	.L136
 223:d:\_project\stm32\f407\hack_rf_new\lvgl\src\lv_misc\lv_mem.h ****     }
 224:d:\_project\stm32\f407\hack_rf_new\lvgl\src\lv_misc\lv_mem.h **** 
 225:d:\_project\stm32\f407\hack_rf_new\lvgl\src\lv_misc\lv_mem.h ****     return dst;
 2294              		.loc 5 225 5 is_stmt 1 view .LVU683
 2295              	.LVL231:
 2296              		.loc 5 225 5 is_stmt 0 view .LVU684
 2297              	.LBE115:
 2298              	.LBE116:
 340:lvgl/src/lv_widgets/../lv_core/../lv_draw/lv_img_buf.h ****         }
 2299              		.loc 4 340 13 is_stmt 1 view .LVU685
 340:lvgl/src/lv_widgets/../lv_core/../lv_draw/lv_img_buf.h ****         }
 2300              		.loc 4 340 34 is_stmt 0 view .LVU686
 2301 01ba 1344     		add	r3, r3, r2
 2302              	.LVL232:
 340:lvgl/src/lv_widgets/../lv_core/../lv_draw/lv_img_buf.h ****         }
 2303              		.loc 4 340 34 view .LVU687
 2304 01bc 9B78     		ldrb	r3, [r3, #2]	@ zero_extendqisi2
 340:lvgl/src/lv_widgets/../lv_core/../lv_draw/lv_img_buf.h ****         }
 2305              		.loc 4 340 26 view .LVU688
 2306 01be 8DF85230 		strb	r3, [sp, #82]
 337:lvgl/src/lv_widgets/../lv_core/../lv_draw/lv_img_buf.h ****             pxi     = dsc->cfg.src_w * ys_int * px_size + xs_int * px_size;
 2307              		.loc 4 337 21 view .LVU689
 2308 01c2 0323     		movs	r3, #3
 2309 01c4 CFE7     		b	.L134
 2310              	.LVL233:
 2311              	.L130:
ARM GAS  D:\Temp\cc0vPyDE.s 			page 96


 344:lvgl/src/lv_widgets/../lv_core/../lv_draw/lv_img_buf.h ****         px_size = 0;    /*unused*/
 2312              		.loc 4 344 9 is_stmt 1 view .LVU690
 345:lvgl/src/lv_widgets/../lv_core/../lv_draw/lv_img_buf.h ****         dsc->res.color = lv_img_buf_get_px_color(&dsc->tmp.img_dsc, xs_int, ys_int, dsc->cfg.color)
 2313              		.loc 4 345 9 view .LVU691
 346:lvgl/src/lv_widgets/../lv_core/../lv_draw/lv_img_buf.h ****         dsc->res.opa = lv_img_buf_get_px_alpha(&dsc->tmp.img_dsc, xs_int, ys_int);
 2314              		.loc 4 346 9 view .LVU692
 346:lvgl/src/lv_widgets/../lv_core/../lv_draw/lv_img_buf.h ****         dsc->res.opa = lv_img_buf_get_px_alpha(&dsc->tmp.img_dsc, xs_int, ys_int);
 2315              		.loc 4 346 26 is_stmt 0 view .LVU693
 2316 01c6 31B2     		sxth	r1, r6
 2317 01c8 3AB2     		sxth	r2, r7
 2318              	.LVL234:
 346:lvgl/src/lv_widgets/../lv_core/../lv_draw/lv_img_buf.h ****         dsc->res.opa = lv_img_buf_get_px_alpha(&dsc->tmp.img_dsc, xs_int, ys_int);
 2319              		.loc 4 346 26 view .LVU694
 2320 01ca BDF84C30 		ldrh	r3, [sp, #76]
 2321 01ce 0C92     		str	r2, [sp, #48]
 2322 01d0 0291     		str	r1, [sp, #8]
 2323 01d2 15A8     		add	r0, sp, #84
 2324 01d4 FFF7FEFF 		bl	lv_img_buf_get_px_color
 2325              	.LVL235:
 346:lvgl/src/lv_widgets/../lv_core/../lv_draw/lv_img_buf.h ****         dsc->res.opa = lv_img_buf_get_px_alpha(&dsc->tmp.img_dsc, xs_int, ys_int);
 2326              		.loc 4 346 26 view .LVU695
 2327 01d8 ADF85000 		strh	r0, [sp, #80]	@ movhi
 347:lvgl/src/lv_widgets/../lv_core/../lv_draw/lv_img_buf.h ****     }
 2328              		.loc 4 347 9 is_stmt 1 view .LVU696
 347:lvgl/src/lv_widgets/../lv_core/../lv_draw/lv_img_buf.h ****     }
 2329              		.loc 4 347 24 is_stmt 0 view .LVU697
 2330 01dc 0C9A     		ldr	r2, [sp, #48]
 2331 01de 0299     		ldr	r1, [sp, #8]
 2332 01e0 15A8     		add	r0, sp, #84
 2333 01e2 FFF7FEFF 		bl	lv_img_buf_get_px_alpha
 2334              	.LVL236:
 347:lvgl/src/lv_widgets/../lv_core/../lv_draw/lv_img_buf.h ****     }
 2335              		.loc 4 347 22 view .LVU698
 2336 01e6 8DF85200 		strb	r0, [sp, #82]
 344:lvgl/src/lv_widgets/../lv_core/../lv_draw/lv_img_buf.h ****         px_size = 0;    /*unused*/
 2337              		.loc 4 344 13 view .LVU699
 2338 01ea 0023     		movs	r3, #0
 2339 01ec 0293     		str	r3, [sp, #8]
 2340 01ee BAE7     		b	.L134
 2341              	.LVL237:
 2342              	.L155:
 2343              	.LBB117:
 352:lvgl/src/lv_widgets/../lv_core/../lv_draw/lv_img_buf.h ****     }
 2344              		.loc 4 352 44 is_stmt 1 view .LVU700
 352:lvgl/src/lv_widgets/../lv_core/../lv_draw/lv_img_buf.h ****     }
 2345              		.loc 4 352 51 is_stmt 0 view .LVU701
 2346 01f0 0020     		movs	r0, #0
 2347 01f2 10E0     		b	.L129
 2348              	.L156:
 2349              	.LBE117:
 356:lvgl/src/lv_widgets/../lv_core/../lv_draw/lv_img_buf.h **** 
 357:lvgl/src/lv_widgets/../lv_core/../lv_draw/lv_img_buf.h ****     dsc->tmp.xs = xs;
 2350              		.loc 4 357 5 is_stmt 1 view .LVU702
 2351              		.loc 4 357 17 is_stmt 0 view .LVU703
 2352 01f4 ADF87850 		strh	r5, [sp, #120]	@ movhi
 358:lvgl/src/lv_widgets/../lv_core/../lv_draw/lv_img_buf.h ****     dsc->tmp.ys = ys;
 2353              		.loc 4 358 5 is_stmt 1 view .LVU704
ARM GAS  D:\Temp\cc0vPyDE.s 			page 97


 2354              		.loc 4 358 17 is_stmt 0 view .LVU705
 2355 01f8 ADF87A40 		strh	r4, [sp, #122]	@ movhi
 359:lvgl/src/lv_widgets/../lv_core/../lv_draw/lv_img_buf.h ****     dsc->tmp.xs_int = xs_int;
 2356              		.loc 4 359 5 is_stmt 1 view .LVU706
 2357              		.loc 4 359 21 is_stmt 0 view .LVU707
 2358 01fc ADF87C60 		strh	r6, [sp, #124]	@ movhi
 360:lvgl/src/lv_widgets/../lv_core/../lv_draw/lv_img_buf.h ****     dsc->tmp.ys_int = ys_int;
 2359              		.loc 4 360 5 is_stmt 1 view .LVU708
 2360              		.loc 4 360 21 is_stmt 0 view .LVU709
 2361 0200 ADF87E70 		strh	r7, [sp, #126]	@ movhi
 361:lvgl/src/lv_widgets/../lv_core/../lv_draw/lv_img_buf.h ****     dsc->tmp.pxi = pxi;
 2362              		.loc 4 361 5 is_stmt 1 view .LVU710
 2363              		.loc 4 361 18 is_stmt 0 view .LVU711
 2364 0204 029A     		ldr	r2, [sp, #8]
 2365 0206 2092     		str	r2, [sp, #128]
 362:lvgl/src/lv_widgets/../lv_core/../lv_draw/lv_img_buf.h ****     dsc->tmp.px_size = px_size;
 2366              		.loc 4 362 5 is_stmt 1 view .LVU712
 2367              		.loc 4 362 22 is_stmt 0 view .LVU713
 2368 0208 8DF88430 		strb	r3, [sp, #132]
 363:lvgl/src/lv_widgets/../lv_core/../lv_draw/lv_img_buf.h **** 
 364:lvgl/src/lv_widgets/../lv_core/../lv_draw/lv_img_buf.h ****     bool ret;
 2369              		.loc 4 364 5 is_stmt 1 view .LVU714
 365:lvgl/src/lv_widgets/../lv_core/../lv_draw/lv_img_buf.h ****     ret = _lv_img_buf_transform_anti_alias(dsc);
 2370              		.loc 4 365 5 view .LVU715
 2371              		.loc 4 365 11 is_stmt 0 view .LVU716
 2372 020c 0FA8     		add	r0, sp, #60
 2373              	.LVL238:
 2374              		.loc 4 365 11 view .LVU717
 2375 020e FFF7FEFF 		bl	_lv_img_buf_transform_anti_alias
 2376              	.LVL239:
 366:lvgl/src/lv_widgets/../lv_core/../lv_draw/lv_img_buf.h **** 
 367:lvgl/src/lv_widgets/../lv_core/../lv_draw/lv_img_buf.h ****     return ret;
 2377              		.loc 4 367 5 is_stmt 1 view .LVU718
 2378 0212 00E0     		b	.L129
 2379              	.LVL240:
 2380              	.L149:
 321:lvgl/src/lv_widgets/../lv_core/../lv_draw/lv_img_buf.h ****     else if(xs_int < 0) return false;
 2381              		.loc 4 321 41 is_stmt 0 view .LVU719
 2382 0214 0020     		movs	r0, #0
 2383              	.LVL241:
 2384              	.L129:
 321:lvgl/src/lv_widgets/../lv_core/../lv_draw/lv_img_buf.h ****     else if(xs_int < 0) return false;
 2385              		.loc 4 321 41 view .LVU720
 2386              	.LBE107:
 2387              	.LBE106:
 312:lvgl/src/lv_widgets/lv_canvas.c **** 
 2388              		.loc 1 312 13 is_stmt 1 view .LVU721
 312:lvgl/src/lv_widgets/lv_canvas.c **** 
 2389              		.loc 1 312 15 is_stmt 0 view .LVU722
 2390 0216 68B1     		cbz	r0, .L139
 314:lvgl/src/lv_widgets/lv_canvas.c ****                 /*If the image has no alpha channel just simple set the result color on the canvas*
 2391              		.loc 1 314 13 is_stmt 1 view .LVU723
 314:lvgl/src/lv_widgets/lv_canvas.c ****                 /*If the image has no alpha channel just simple set the result color on the canvas*
 2392              		.loc 1 314 15 is_stmt 0 view .LVU724
 2393 0218 019B     		ldr	r3, [sp, #4]
 2394 021a 13EB0A03 		adds	r3, r3, r10
 2395 021e 09D4     		bmi	.L139
ARM GAS  D:\Temp\cc0vPyDE.s 			page 98


 314:lvgl/src/lv_widgets/lv_canvas.c ****                 /*If the image has no alpha channel just simple set the result color on the canvas*
 2396              		.loc 1 314 34 discriminator 1 view .LVU725
 2397 0220 039A     		ldr	r2, [sp, #12]
 2398 0222 9342     		cmp	r3, r2
 2399 0224 06DA     		bge	.L139
 314:lvgl/src/lv_widgets/lv_canvas.c ****                 /*If the image has no alpha channel just simple set the result color on the canvas*
 2400              		.loc 1 314 63 discriminator 2 view .LVU726
 2401 0226 079B     		ldr	r3, [sp, #28]
 2402 0228 009A     		ldr	r2, [sp]
 2403 022a 9B18     		adds	r3, r3, r2
 2404 022c 02D4     		bmi	.L139
 314:lvgl/src/lv_widgets/lv_canvas.c ****                 /*If the image has no alpha channel just simple set the result color on the canvas*
 2405              		.loc 1 314 84 discriminator 3 view .LVU727
 2406 022e 099A     		ldr	r2, [sp, #36]
 2407 0230 9342     		cmp	r3, r2
 2408 0232 2FDB     		blt	.L157
 2409              	.LVL242:
 2410              	.L139:
 308:lvgl/src/lv_widgets/lv_canvas.c **** 
 2411              		.loc 1 308 56 discriminator 2 view .LVU728
 2412 0234 0AF1010A 		add	r10, r10, #1
 2413              	.LVL243:
 2414              	.L125:
 308:lvgl/src/lv_widgets/lv_canvas.c **** 
 2415              		.loc 1 308 43 discriminator 1 view .LVU729
 2416 0238 039B     		ldr	r3, [sp, #12]
 2417 023a 019A     		ldr	r2, [sp, #4]
 2418 023c 9B1A     		subs	r3, r3, r2
 308:lvgl/src/lv_widgets/lv_canvas.c **** 
 2419              		.loc 1 308 9 discriminator 1 view .LVU730
 2420 023e 5345     		cmp	r3, r10
 2421 0240 40F34E81 		ble	.L158
 310:lvgl/src/lv_widgets/lv_canvas.c **** 
 2422              		.loc 1 310 13 is_stmt 1 view .LVU731
 310:lvgl/src/lv_widgets/lv_canvas.c **** 
 2423              		.loc 1 310 19 is_stmt 0 view .LVU732
 2424 0244 0FFA8AF3 		sxth	r3, r10
 2425 0248 BDF90010 		ldrsh	r1, [sp]
 2426              	.LVL244:
 2427              	.LBB119:
 2428              	.LBI106:
 289:lvgl/src/lv_widgets/../lv_core/../lv_draw/lv_img_buf.h **** {
 2429              		.loc 4 289 20 is_stmt 1 view .LVU733
 2430              	.LBB118:
 291:lvgl/src/lv_widgets/../lv_core/../lv_draw/lv_img_buf.h **** 
 2431              		.loc 4 291 5 view .LVU734
 291:lvgl/src/lv_widgets/../lv_core/../lv_draw/lv_img_buf.h **** 
 2432              		.loc 4 291 21 is_stmt 0 view .LVU735
 2433 024c 0F9A     		ldr	r2, [sp, #60]
 2434              	.LVL245:
 294:lvgl/src/lv_widgets/../lv_core/../lv_draw/lv_img_buf.h ****     int32_t yt = y - dsc->cfg.pivot_y;
 2435              		.loc 4 294 5 is_stmt 1 view .LVU736
 294:lvgl/src/lv_widgets/../lv_core/../lv_draw/lv_img_buf.h ****     int32_t yt = y - dsc->cfg.pivot_y;
 2436              		.loc 4 294 30 is_stmt 0 view .LVU737
 2437 024e BDF94400 		ldrsh	r0, [sp, #68]
 294:lvgl/src/lv_widgets/../lv_core/../lv_draw/lv_img_buf.h ****     int32_t yt = y - dsc->cfg.pivot_y;
 2438              		.loc 4 294 13 view .LVU738
ARM GAS  D:\Temp\cc0vPyDE.s 			page 99


 2439 0252 1B1A     		subs	r3, r3, r0
 2440              	.LVL246:
 295:lvgl/src/lv_widgets/../lv_core/../lv_draw/lv_img_buf.h **** 
 2441              		.loc 4 295 5 is_stmt 1 view .LVU739
 295:lvgl/src/lv_widgets/../lv_core/../lv_draw/lv_img_buf.h **** 
 2442              		.loc 4 295 30 is_stmt 0 view .LVU740
 2443 0254 BDF94600 		ldrsh	r0, [sp, #70]
 295:lvgl/src/lv_widgets/../lv_core/../lv_draw/lv_img_buf.h **** 
 2444              		.loc 4 295 13 view .LVU741
 2445 0258 091A     		subs	r1, r1, r0
 2446              	.LVL247:
 297:lvgl/src/lv_widgets/../lv_core/../lv_draw/lv_img_buf.h ****     int32_t ys;
 2447              		.loc 4 297 5 is_stmt 1 view .LVU742
 298:lvgl/src/lv_widgets/../lv_core/../lv_draw/lv_img_buf.h ****     if(dsc->cfg.zoom == LV_IMG_ZOOM_NONE) {
 2448              		.loc 4 298 5 view .LVU743
 299:lvgl/src/lv_widgets/../lv_core/../lv_draw/lv_img_buf.h ****         /*Get the source pixel from the upscaled image*/
 2449              		.loc 4 299 5 view .LVU744
 299:lvgl/src/lv_widgets/../lv_core/../lv_draw/lv_img_buf.h ****         /*Get the source pixel from the upscaled image*/
 2450              		.loc 4 299 16 is_stmt 0 view .LVU745
 2451 025a BDF84A00 		ldrh	r0, [sp, #74]
 299:lvgl/src/lv_widgets/../lv_core/../lv_draw/lv_img_buf.h ****         /*Get the source pixel from the upscaled image*/
 2452              		.loc 4 299 7 view .LVU746
 2453 025e B0F5807F 		cmp	r0, #256
 2454 0262 3FF42EAF 		beq	.L159
 304:lvgl/src/lv_widgets/../lv_core/../lv_draw/lv_img_buf.h ****         xt = (int32_t)((int32_t)xt * dsc->tmp.zoom_inv) >> _LV_ZOOM_INV_UPSCALE;
 2455              		.loc 4 304 10 is_stmt 1 view .LVU747
 304:lvgl/src/lv_widgets/../lv_core/../lv_draw/lv_img_buf.h ****         xt = (int32_t)((int32_t)xt * dsc->tmp.zoom_inv) >> _LV_ZOOM_INV_UPSCALE;
 2456              		.loc 4 304 21 is_stmt 0 view .LVU748
 2457 0266 BDF94800 		ldrsh	r0, [sp, #72]
 304:lvgl/src/lv_widgets/../lv_core/../lv_draw/lv_img_buf.h ****         xt = (int32_t)((int32_t)xt * dsc->tmp.zoom_inv) >> _LV_ZOOM_INV_UPSCALE;
 2458              		.loc 4 304 12 view .LVU749
 2459 026a 0028     		cmp	r0, #0
 2460 026c 7FF45BAF 		bne	.L128
 305:lvgl/src/lv_widgets/../lv_core/../lv_draw/lv_img_buf.h ****         yt = (int32_t)((int32_t)yt * dsc->tmp.zoom_inv) >> _LV_ZOOM_INV_UPSCALE;
 2461              		.loc 4 305 9 is_stmt 1 view .LVU750
 305:lvgl/src/lv_widgets/../lv_core/../lv_draw/lv_img_buf.h ****         yt = (int32_t)((int32_t)yt * dsc->tmp.zoom_inv) >> _LV_ZOOM_INV_UPSCALE;
 2462              		.loc 4 305 46 is_stmt 0 view .LVU751
 2463 0270 1D98     		ldr	r0, [sp, #116]
 305:lvgl/src/lv_widgets/../lv_core/../lv_draw/lv_img_buf.h ****         yt = (int32_t)((int32_t)yt * dsc->tmp.zoom_inv) >> _LV_ZOOM_INV_UPSCALE;
 2464              		.loc 4 305 36 view .LVU752
 2465 0272 03FB00F3 		mul	r3, r3, r0
 2466              	.LVL248:
 306:lvgl/src/lv_widgets/../lv_core/../lv_draw/lv_img_buf.h ****         xs = xt + dsc->tmp.pivot_x_256;
 2467              		.loc 4 306 9 is_stmt 1 view .LVU753
 306:lvgl/src/lv_widgets/../lv_core/../lv_draw/lv_img_buf.h ****         xs = xt + dsc->tmp.pivot_x_256;
 2468              		.loc 4 306 36 is_stmt 0 view .LVU754
 2469 0276 01FB00F1 		mul	r1, r1, r0
 2470              	.LVL249:
 307:lvgl/src/lv_widgets/../lv_core/../lv_draw/lv_img_buf.h ****         ys = yt + dsc->tmp.pivot_y_256;
 2471              		.loc 4 307 9 is_stmt 1 view .LVU755
 307:lvgl/src/lv_widgets/../lv_core/../lv_draw/lv_img_buf.h ****         ys = yt + dsc->tmp.pivot_y_256;
 2472              		.loc 4 307 27 is_stmt 0 view .LVU756
 2473 027a 189D     		ldr	r5, [sp, #96]
 307:lvgl/src/lv_widgets/../lv_core/../lv_draw/lv_img_buf.h ****         ys = yt + dsc->tmp.pivot_y_256;
 2474              		.loc 4 307 12 view .LVU757
 2475 027c 05EB6315 		add	r5, r5, r3, asr #5
 2476              	.LVL250:
ARM GAS  D:\Temp\cc0vPyDE.s 			page 100


 308:lvgl/src/lv_widgets/../lv_core/../lv_draw/lv_img_buf.h ****     }
 2477              		.loc 4 308 9 is_stmt 1 view .LVU758
 308:lvgl/src/lv_widgets/../lv_core/../lv_draw/lv_img_buf.h ****     }
 2478              		.loc 4 308 27 is_stmt 0 view .LVU759
 2479 0280 199C     		ldr	r4, [sp, #100]
 308:lvgl/src/lv_widgets/../lv_core/../lv_draw/lv_img_buf.h ****     }
 2480              		.loc 4 308 12 view .LVU760
 2481 0282 04EB6114 		add	r4, r4, r1, asr #5
 2482              	.LVL251:
 308:lvgl/src/lv_widgets/../lv_core/../lv_draw/lv_img_buf.h ****     }
 2483              		.loc 4 308 12 view .LVU761
 2484 0286 2CE7     		b	.L127
 2485              	.LVL252:
 2486              	.L150:
 322:lvgl/src/lv_widgets/../lv_core/../lv_draw/lv_img_buf.h **** 
 2487              		.loc 4 322 32 view .LVU762
 2488 0288 0020     		movs	r0, #0
 2489 028a C4E7     		b	.L129
 2490              	.L151:
 324:lvgl/src/lv_widgets/../lv_core/../lv_draw/lv_img_buf.h ****     else if(ys_int < 0) return false;
 2491              		.loc 4 324 41 view .LVU763
 2492 028c 0020     		movs	r0, #0
 2493 028e C2E7     		b	.L129
 2494              	.L152:
 325:lvgl/src/lv_widgets/../lv_core/../lv_draw/lv_img_buf.h **** 
 2495              		.loc 4 325 32 view .LVU764
 2496 0290 0020     		movs	r0, #0
 2497 0292 C0E7     		b	.L129
 2498              	.LVL253:
 2499              	.L157:
 325:lvgl/src/lv_widgets/../lv_core/../lv_draw/lv_img_buf.h **** 
 2500              		.loc 4 325 32 view .LVU765
 2501              	.LBE118:
 2502              	.LBE119:
 316:lvgl/src/lv_widgets/lv_canvas.c ****                     lv_img_buf_set_px_color(&ext_dst->dsc, x + offset_x, y + offset_y, dsc.res.colo
 2503              		.loc 1 316 17 is_stmt 1 view .LVU766
 316:lvgl/src/lv_widgets/lv_canvas.c ****                     lv_img_buf_set_px_color(&ext_dst->dsc, x + offset_x, y + offset_y, dsc.res.colo
 2504              		.loc 1 316 51 is_stmt 0 view .LVU767
 2505 0294 049B     		ldr	r3, [sp, #16]
 2506 0296 1878     		ldrb	r0, [r3]	@ zero_extendqisi2
 2507              	.LVL254:
 316:lvgl/src/lv_widgets/lv_canvas.c ****                     lv_img_buf_set_px_color(&ext_dst->dsc, x + offset_x, y + offset_y, dsc.res.colo
 2508              		.loc 1 316 20 view .LVU768
 2509 0298 00F01F00 		and	r0, r0, #31
 2510 029c FFF7FEFF 		bl	lv_img_cf_has_alpha
 2511              	.LVL255:
 316:lvgl/src/lv_widgets/lv_canvas.c ****                     lv_img_buf_set_px_color(&ext_dst->dsc, x + offset_x, y + offset_y, dsc.res.colo
 2512              		.loc 1 316 19 view .LVU769
 2513 02a0 80B9     		cbnz	r0, .L140
 317:lvgl/src/lv_widgets/lv_canvas.c ****                 }
 2514              		.loc 1 317 21 is_stmt 1 view .LVU770
 317:lvgl/src/lv_widgets/lv_canvas.c ****                 }
 2515              		.loc 1 317 62 is_stmt 0 view .LVU771
 2516 02a2 059B     		ldr	r3, [sp, #20]
 2517 02a4 0AEB0301 		add	r1, r10, r3
 317:lvgl/src/lv_widgets/lv_canvas.c ****                 }
 2518              		.loc 1 317 76 view .LVU772
ARM GAS  D:\Temp\cc0vPyDE.s 			page 101


 2519 02a8 009B     		ldr	r3, [sp]
 2520 02aa 069A     		ldr	r2, [sp, #24]
 2521 02ac 9A18     		adds	r2, r3, r2
 317:lvgl/src/lv_widgets/lv_canvas.c ****                 }
 2522              		.loc 1 317 21 view .LVU773
 2523 02ae BDF85030 		ldrh	r3, [sp, #80]
 2524 02b2 12B2     		sxth	r2, r2
 2525 02b4 09B2     		sxth	r1, r1
 2526 02b6 0898     		ldr	r0, [sp, #32]
 2527 02b8 1830     		adds	r0, r0, #24
 2528 02ba FFF7FEFF 		bl	lv_img_buf_set_px_color
 2529              	.LVL256:
 2530 02be B9E7     		b	.L139
 2531              	.L163:
 2532              		.align	2
 2533              	.L162:
 2534 02c0 00000000 		.word	.LC2
 2535              	.L140:
 2536              	.LBB120:
 320:lvgl/src/lv_widgets/lv_canvas.c **** 
 2537              		.loc 1 320 21 is_stmt 1 view .LVU774
 320:lvgl/src/lv_widgets/lv_canvas.c **** 
 2538              		.loc 1 320 43 is_stmt 0 view .LVU775
 2539 02c4 089F     		ldr	r7, [sp, #32]
 2540 02c6 07F11800 		add	r0, r7, #24
 2541 02ca 0290     		str	r0, [sp, #8]
 320:lvgl/src/lv_widgets/lv_canvas.c **** 
 2542              		.loc 1 320 84 view .LVU776
 2543 02cc 059B     		ldr	r3, [sp, #20]
 2544 02ce 0AEB0305 		add	r5, r10, r3
 320:lvgl/src/lv_widgets/lv_canvas.c **** 
 2545              		.loc 1 320 43 view .LVU777
 2546 02d2 2DB2     		sxth	r5, r5
 320:lvgl/src/lv_widgets/lv_canvas.c **** 
 2547              		.loc 1 320 98 view .LVU778
 2548 02d4 009B     		ldr	r3, [sp]
 2549 02d6 069A     		ldr	r2, [sp, #24]
 2550 02d8 9E18     		adds	r6, r3, r2
 320:lvgl/src/lv_widgets/lv_canvas.c **** 
 2551              		.loc 1 320 43 view .LVU779
 2552 02da 36B2     		sxth	r6, r6
 2553 02dc BDF84C30 		ldrh	r3, [sp, #76]
 2554 02e0 3246     		mov	r2, r6
 2555 02e2 2946     		mov	r1, r5
 2556 02e4 FFF7FEFF 		bl	lv_img_buf_get_px_color
 2557              	.LVL257:
 2558 02e8 0446     		mov	r4, r0	@ movhi
 2559              	.LVL258:
 324:lvgl/src/lv_widgets/lv_canvas.c ****                         if(dsc.res.opa < LV_OPA_MAX) dsc.res.color = lv_color_mix(dsc.res.color, bg
 2560              		.loc 1 324 21 is_stmt 1 view .LVU780
 324:lvgl/src/lv_widgets/lv_canvas.c ****                         if(dsc.res.opa < LV_OPA_MAX) dsc.res.color = lv_color_mix(dsc.res.color, bg
 2561              		.loc 1 324 63 is_stmt 0 view .LVU781
 2562 02ea 387E     		ldrb	r0, [r7, #24]	@ zero_extendqisi2
 324:lvgl/src/lv_widgets/lv_canvas.c ****                         if(dsc.res.opa < LV_OPA_MAX) dsc.res.color = lv_color_mix(dsc.res.color, bg
 2563              		.loc 1 324 24 view .LVU782
 2564 02ec 00F01F00 		and	r0, r0, #31
 2565 02f0 FFF7FEFF 		bl	lv_img_cf_has_alpha
ARM GAS  D:\Temp\cc0vPyDE.s 			page 102


 2566              	.LVL259:
 324:lvgl/src/lv_widgets/lv_canvas.c ****                         if(dsc.res.opa < LV_OPA_MAX) dsc.res.color = lv_color_mix(dsc.res.color, bg
 2567              		.loc 1 324 23 view .LVU783
 2568 02f4 0028     		cmp	r0, #0
 2569 02f6 43D1     		bne	.L141
 325:lvgl/src/lv_widgets/lv_canvas.c ****                         lv_img_buf_set_px_color(&ext_dst->dsc, x + offset_x, y + offset_y, dsc.res.
 2570              		.loc 1 325 25 is_stmt 1 view .LVU784
 325:lvgl/src/lv_widgets/lv_canvas.c ****                         lv_img_buf_set_px_color(&ext_dst->dsc, x + offset_x, y + offset_y, dsc.res.
 2571              		.loc 1 325 35 is_stmt 0 view .LVU785
 2572 02f8 9DF85230 		ldrb	r3, [sp, #82]	@ zero_extendqisi2
 325:lvgl/src/lv_widgets/lv_canvas.c ****                         lv_img_buf_set_px_color(&ext_dst->dsc, x + offset_x, y + offset_y, dsc.res.
 2573              		.loc 1 325 27 view .LVU786
 2574 02fc FC2B     		cmp	r3, #252
 2575 02fe 37D8     		bhi	.L142
 325:lvgl/src/lv_widgets/lv_canvas.c ****                         lv_img_buf_set_px_color(&ext_dst->dsc, x + offset_x, y + offset_y, dsc.res.
 2576              		.loc 1 325 54 is_stmt 1 discriminator 1 view .LVU787
 2577 0300 BDF85010 		ldrh	r1, [sp, #80]
 2578              	.LVL260:
 2579              	.LBB121:
 2580              	.LBI121:
 447:lvgl/src/lv_widgets/../lv_core/../lv_misc/lv_color.h **** {
 2581              		.loc 2 447 48 discriminator 1 view .LVU788
 2582              	.LBB122:
 449:lvgl/src/lv_widgets/../lv_core/../lv_misc/lv_color.h **** #if LV_COLOR_DEPTH != 1
 2583              		.loc 2 449 5 discriminator 1 view .LVU789
 452:lvgl/src/lv_widgets/../lv_core/../lv_misc/lv_color.h ****                                         (255 - mix) + LV_COLOR_MIX_ROUND_OFS));
 2584              		.loc 2 452 5 discriminator 1 view .LVU790
 452:lvgl/src/lv_widgets/../lv_core/../lv_misc/lv_color.h ****                                         (255 - mix) + LV_COLOR_MIX_ROUND_OFS));
 2585              		.loc 2 452 5 is_stmt 0 discriminator 1 view .LVU791
 2586 0304 CA0A     		lsrs	r2, r1, #11
 2587              	.LVL261:
 452:lvgl/src/lv_widgets/../lv_core/../lv_misc/lv_color.h ****                                         (255 - mix) + LV_COLOR_MIX_ROUND_OFS));
 2588              		.loc 2 452 5 discriminator 1 view .LVU792
 2589 0306 C4F3C42C 		ubfx	ip, r4, #11, #5
 2590 030a C3F1FF00 		rsb	r0, r3, #255
 2591 030e 00FB0CFC 		mul	ip, r0, ip
 2592 0312 03FB02C2 		mla	r2, r3, r2, ip
 2593 0316 8032     		adds	r2, r2, #128
 2594 0318 02EB022C 		add	ip, r2, r2, lsl #8
 2595 031c 02EBCC12 		add	r2, r2, ip, lsl #7
 2596 0320 C2F3C452 		ubfx	r2, r2, #23, #5
 2597 0324 62F3CF2B 		bfi	fp, r2, #11, #5
 454:lvgl/src/lv_widgets/../lv_core/../lv_misc/lv_color.h ****                                         (255 - mix) + LV_COLOR_MIX_ROUND_OFS));
 2598              		.loc 2 454 5 is_stmt 1 discriminator 1 view .LVU793
 2599 0328 C1F34512 		ubfx	r2, r1, #5, #6
 2600 032c C4F3451C 		ubfx	ip, r4, #5, #6
 2601 0330 0CFB00FC 		mul	ip, ip, r0
 2602 0334 02FB03C2 		mla	r2, r2, r3, ip
 2603 0338 8032     		adds	r2, r2, #128
 2604 033a 02EB022C 		add	ip, r2, r2, lsl #8
 2605 033e 02EBCC12 		add	r2, r2, ip, lsl #7
 2606 0342 C2F3C552 		ubfx	r2, r2, #23, #6
 2607 0346 62F34A1B 		bfi	fp, r2, #5, #6
 456:lvgl/src/lv_widgets/../lv_core/../lv_misc/lv_color.h ****                                         (255 - mix) + LV_COLOR_MIX_ROUND_OFS));
 2608              		.loc 2 456 5 discriminator 1 view .LVU794
 2609 034a 01F01F01 		and	r1, r1, #31
 2610              	.LVL262:
ARM GAS  D:\Temp\cc0vPyDE.s 			page 103


 456:lvgl/src/lv_widgets/../lv_core/../lv_misc/lv_color.h ****                                         (255 - mix) + LV_COLOR_MIX_ROUND_OFS));
 2611              		.loc 2 456 5 is_stmt 0 discriminator 1 view .LVU795
 2612 034e 04F01F04 		and	r4, r4, #31
 2613              	.LVL263:
 456:lvgl/src/lv_widgets/../lv_core/../lv_misc/lv_color.h ****                                         (255 - mix) + LV_COLOR_MIX_ROUND_OFS));
 2614              		.loc 2 456 5 discriminator 1 view .LVU796
 2615 0352 04FB00F0 		mul	r0, r4, r0
 2616 0356 01FB0303 		mla	r3, r1, r3, r0
 2617              	.LVL264:
 456:lvgl/src/lv_widgets/../lv_core/../lv_misc/lv_color.h ****                                         (255 - mix) + LV_COLOR_MIX_ROUND_OFS));
 2618              		.loc 2 456 5 discriminator 1 view .LVU797
 2619 035a 8033     		adds	r3, r3, #128
 2620 035c 03EB0322 		add	r2, r3, r3, lsl #8
 2621 0360 03EBC213 		add	r3, r3, r2, lsl #7
 2622 0364 C3F3C453 		ubfx	r3, r3, #23, #5
 2623 0368 63F3040B 		bfi	fp, r3, #0, #5
 458:lvgl/src/lv_widgets/../lv_core/../lv_misc/lv_color.h **** #else
 2624              		.loc 2 458 5 is_stmt 1 discriminator 1 view .LVU798
 458:lvgl/src/lv_widgets/../lv_core/../lv_misc/lv_color.h **** #else
 2625              		.loc 2 458 5 discriminator 1 view .LVU799
 464:lvgl/src/lv_widgets/../lv_core/../lv_misc/lv_color.h **** }
 2626              		.loc 2 464 5 discriminator 1 view .LVU800
 2627              	.LVL265:
 464:lvgl/src/lv_widgets/../lv_core/../lv_misc/lv_color.h **** }
 2628              		.loc 2 464 5 is_stmt 0 discriminator 1 view .LVU801
 2629              	.LBE122:
 2630              	.LBE121:
 325:lvgl/src/lv_widgets/lv_canvas.c ****                         lv_img_buf_set_px_color(&ext_dst->dsc, x + offset_x, y + offset_y, dsc.res.
 2631              		.loc 1 325 70 discriminator 1 view .LVU802
 2632 036c ADF850B0 		strh	fp, [sp, #80]	@ movhi
 2633              	.L142:
 326:lvgl/src/lv_widgets/lv_canvas.c ****                     }
 2634              		.loc 1 326 25 is_stmt 1 view .LVU803
 2635 0370 BDF85030 		ldrh	r3, [sp, #80]
 2636 0374 3246     		mov	r2, r6
 2637 0376 2946     		mov	r1, r5
 2638 0378 0298     		ldr	r0, [sp, #8]
 2639 037a FFF7FEFF 		bl	lv_img_buf_set_px_color
 2640              	.LVL266:
 2641 037e 59E7     		b	.L139
 2642              	.L141:
 2643              	.LBB123:
 331:lvgl/src/lv_widgets/lv_canvas.c ****                         /* Pick the foreground if it's fully opaque or the Background is fully
 2644              		.loc 1 331 25 view .LVU804
 331:lvgl/src/lv_widgets/lv_canvas.c ****                         /* Pick the foreground if it's fully opaque or the Background is fully
 2645              		.loc 1 331 43 is_stmt 0 view .LVU805
 2646 0380 3246     		mov	r2, r6
 2647 0382 2946     		mov	r1, r5
 2648 0384 0298     		ldr	r0, [sp, #8]
 2649 0386 FFF7FEFF 		bl	lv_img_buf_get_px_alpha
 2650              	.LVL267:
 334:lvgl/src/lv_widgets/lv_canvas.c ****                             lv_img_buf_set_px_color(&ext_dst->dsc, x + offset_x, y + offset_y, dsc.
 2651              		.loc 1 334 25 is_stmt 1 view .LVU806
 334:lvgl/src/lv_widgets/lv_canvas.c ****                             lv_img_buf_set_px_color(&ext_dst->dsc, x + offset_x, y + offset_y, dsc.
 2652              		.loc 1 334 35 is_stmt 0 view .LVU807
 2653 038a 9DF85230 		ldrb	r3, [sp, #82]	@ zero_extendqisi2
 334:lvgl/src/lv_widgets/lv_canvas.c ****                             lv_img_buf_set_px_color(&ext_dst->dsc, x + offset_x, y + offset_y, dsc.
ARM GAS  D:\Temp\cc0vPyDE.s 			page 104


 2654              		.loc 1 334 27 view .LVU808
 2655 038e FC2B     		cmp	r3, #252
 2656 0390 01D8     		bhi	.L144
 334:lvgl/src/lv_widgets/lv_canvas.c ****                             lv_img_buf_set_px_color(&ext_dst->dsc, x + offset_x, y + offset_y, dsc.
 2657              		.loc 1 334 54 discriminator 1 view .LVU809
 2658 0392 0228     		cmp	r0, #2
 2659 0394 0FD8     		bhi	.L145
 2660              	.L144:
 335:lvgl/src/lv_widgets/lv_canvas.c ****                             lv_img_buf_set_px_alpha(&ext_dst->dsc, x + offset_x, y + offset_y, dsc.
 2661              		.loc 1 335 29 is_stmt 1 view .LVU810
 2662 0396 BDF85030 		ldrh	r3, [sp, #80]
 2663 039a 3246     		mov	r2, r6
 2664 039c 2946     		mov	r1, r5
 2665 039e 029C     		ldr	r4, [sp, #8]
 2666 03a0 2046     		mov	r0, r4
 2667              	.LVL268:
 335:lvgl/src/lv_widgets/lv_canvas.c ****                             lv_img_buf_set_px_alpha(&ext_dst->dsc, x + offset_x, y + offset_y, dsc.
 2668              		.loc 1 335 29 is_stmt 0 view .LVU811
 2669 03a2 FFF7FEFF 		bl	lv_img_buf_set_px_color
 2670              	.LVL269:
 336:lvgl/src/lv_widgets/lv_canvas.c ****                         }
 2671              		.loc 1 336 29 is_stmt 1 view .LVU812
 2672 03a6 9DF85230 		ldrb	r3, [sp, #82]	@ zero_extendqisi2
 2673 03aa 3246     		mov	r2, r6
 2674 03ac 2946     		mov	r1, r5
 2675 03ae 2046     		mov	r0, r4
 2676 03b0 FFF7FEFF 		bl	lv_img_buf_set_px_alpha
 2677              	.LVL270:
 2678 03b4 3EE7     		b	.L139
 2679              	.LVL271:
 2680              	.L145:
 339:lvgl/src/lv_widgets/lv_canvas.c ****                             lv_img_buf_set_px_color(&ext_dst->dsc, x + offset_x, y + offset_y,
 2681              		.loc 1 339 30 view .LVU813
 339:lvgl/src/lv_widgets/lv_canvas.c ****                             lv_img_buf_set_px_color(&ext_dst->dsc, x + offset_x, y + offset_y,
 2682              		.loc 1 339 32 is_stmt 0 view .LVU814
 2683 03b6 FC28     		cmp	r0, #252
 2684 03b8 55D8     		bhi	.L160
 2685              	.LBB124:
 348:lvgl/src/lv_widgets/lv_canvas.c ****                             if(opa_res_2 == 0) {
 2686              		.loc 1 348 29 is_stmt 1 view .LVU815
 348:lvgl/src/lv_widgets/lv_canvas.c ****                             if(opa_res_2 == 0) {
 2687              		.loc 1 348 92 is_stmt 0 view .LVU816
 2688 03ba 9BB2     		uxth	r3, r3
 348:lvgl/src/lv_widgets/lv_canvas.c ****                             if(opa_res_2 == 0) {
 2689              		.loc 1 348 68 view .LVU817
 2690 03bc C3F1FF02 		rsb	r2, r3, #255
 2691 03c0 91B2     		uxth	r1, r2
 348:lvgl/src/lv_widgets/lv_canvas.c ****                             if(opa_res_2 == 0) {
 2692              		.loc 1 348 105 view .LVU818
 2693 03c2 C0F1FF02 		rsb	r2, r0, #255
 348:lvgl/src/lv_widgets/lv_canvas.c ****                             if(opa_res_2 == 0) {
 2694              		.loc 1 348 57 view .LVU819
 2695 03c6 12FB01F2 		smulbb	r2, r2, r1
 348:lvgl/src/lv_widgets/lv_canvas.c ****                             if(opa_res_2 == 0) {
 2696              		.loc 1 348 54 view .LVU820
 2697 03ca C2F30722 		ubfx	r2, r2, #8, #8
 348:lvgl/src/lv_widgets/lv_canvas.c ****                             if(opa_res_2 == 0) {
ARM GAS  D:\Temp\cc0vPyDE.s 			page 105


 2698              		.loc 1 348 38 view .LVU821
 2699 03ce D243     		mvns	r2, r2
 2700 03d0 D7B2     		uxtb	r7, r2
 2701              	.LVL272:
 349:lvgl/src/lv_widgets/lv_canvas.c ****                                 opa_res_2 = 1; /*never happens, just to be sure*/
 2702              		.loc 1 349 29 is_stmt 1 view .LVU822
 352:lvgl/src/lv_widgets/lv_canvas.c **** 
 2703              		.loc 1 352 29 view .LVU823
 352:lvgl/src/lv_widgets/lv_canvas.c **** 
 2704              		.loc 1 352 46 is_stmt 0 view .LVU824
 2705 03d2 C3EB0323 		rsb	r3, r3, r3, lsl #8
 2706 03d6 9BB2     		uxth	r3, r3
 352:lvgl/src/lv_widgets/lv_canvas.c **** 
 2707              		.loc 1 352 86 view .LVU825
 2708 03d8 93FBF7F3 		sdiv	r3, r3, r7
 352:lvgl/src/lv_widgets/lv_canvas.c **** 
 2709              		.loc 1 352 38 view .LVU826
 2710 03dc DBB2     		uxtb	r3, r3
 2711              	.LVL273:
 354:lvgl/src/lv_widgets/lv_canvas.c ****                                                     lv_color_mix(dsc.res.color, bg_color, ratio));
 2712              		.loc 1 354 29 is_stmt 1 view .LVU827
 2713 03de BDF85000 		ldrh	r0, [sp, #80]
 2714              	.LVL274:
 2715              	.LBB125:
 2716              	.LBI125:
 447:lvgl/src/lv_widgets/../lv_core/../lv_misc/lv_color.h **** {
 2717              		.loc 2 447 48 view .LVU828
 2718              	.LBB126:
 449:lvgl/src/lv_widgets/../lv_core/../lv_misc/lv_color.h **** #if LV_COLOR_DEPTH != 1
 2719              		.loc 2 449 5 view .LVU829
 452:lvgl/src/lv_widgets/../lv_core/../lv_misc/lv_color.h ****                                         (255 - mix) + LV_COLOR_MIX_ROUND_OFS));
 2720              		.loc 2 452 5 view .LVU830
 452:lvgl/src/lv_widgets/../lv_core/../lv_misc/lv_color.h ****                                         (255 - mix) + LV_COLOR_MIX_ROUND_OFS));
 2721              		.loc 2 452 5 is_stmt 0 view .LVU831
 2722 03e2 C20A     		lsrs	r2, r0, #11
 2723              	.LVL275:
 452:lvgl/src/lv_widgets/../lv_core/../lv_misc/lv_color.h ****                                         (255 - mix) + LV_COLOR_MIX_ROUND_OFS));
 2724              		.loc 2 452 5 view .LVU832
 2725 03e4 C4F3C42C 		ubfx	ip, r4, #11, #5
 2726 03e8 C3F1FF01 		rsb	r1, r3, #255
 2727 03ec 01FB0CFC 		mul	ip, r1, ip
 2728 03f0 03FB02C2 		mla	r2, r3, r2, ip
 2729 03f4 8032     		adds	r2, r2, #128
 2730 03f6 02EB022C 		add	ip, r2, r2, lsl #8
 2731 03fa 02EBCC12 		add	r2, r2, ip, lsl #7
 2732 03fe C2F3C452 		ubfx	r2, r2, #23, #5
 2733 0402 62F3CF29 		bfi	r9, r2, #11, #5
 454:lvgl/src/lv_widgets/../lv_core/../lv_misc/lv_color.h ****                                         (255 - mix) + LV_COLOR_MIX_ROUND_OFS));
 2734              		.loc 2 454 5 is_stmt 1 view .LVU833
 2735 0406 C0F34512 		ubfx	r2, r0, #5, #6
 2736 040a C4F3451C 		ubfx	ip, r4, #5, #6
 2737 040e 0CFB01FC 		mul	ip, ip, r1
 2738 0412 02FB03C2 		mla	r2, r2, r3, ip
 2739 0416 8032     		adds	r2, r2, #128
 2740 0418 02EB022C 		add	ip, r2, r2, lsl #8
 2741 041c 02EBCC12 		add	r2, r2, ip, lsl #7
 2742 0420 C2F3C552 		ubfx	r2, r2, #23, #6
ARM GAS  D:\Temp\cc0vPyDE.s 			page 106


 2743 0424 62F34A19 		bfi	r9, r2, #5, #6
 456:lvgl/src/lv_widgets/../lv_core/../lv_misc/lv_color.h ****                                         (255 - mix) + LV_COLOR_MIX_ROUND_OFS));
 2744              		.loc 2 456 5 view .LVU834
 2745 0428 00F01F00 		and	r0, r0, #31
 2746              	.LVL276:
 456:lvgl/src/lv_widgets/../lv_core/../lv_misc/lv_color.h ****                                         (255 - mix) + LV_COLOR_MIX_ROUND_OFS));
 2747              		.loc 2 456 5 is_stmt 0 view .LVU835
 2748 042c 04F01F02 		and	r2, r4, #31
 2749 0430 02FB01F2 		mul	r2, r2, r1
 2750 0434 00FB0323 		mla	r3, r0, r3, r2
 2751              	.LVL277:
 456:lvgl/src/lv_widgets/../lv_core/../lv_misc/lv_color.h ****                                         (255 - mix) + LV_COLOR_MIX_ROUND_OFS));
 2752              		.loc 2 456 5 view .LVU836
 2753 0438 8033     		adds	r3, r3, #128
 2754 043a 03EB0322 		add	r2, r3, r3, lsl #8
 2755 043e 03EBC213 		add	r3, r3, r2, lsl #7
 2756 0442 C3F3C453 		ubfx	r3, r3, #23, #5
 2757 0446 63F30409 		bfi	r9, r3, #0, #5
 458:lvgl/src/lv_widgets/../lv_core/../lv_misc/lv_color.h **** #else
 2758              		.loc 2 458 5 is_stmt 1 view .LVU837
 458:lvgl/src/lv_widgets/../lv_core/../lv_misc/lv_color.h **** #else
 2759              		.loc 2 458 5 view .LVU838
 464:lvgl/src/lv_widgets/../lv_core/../lv_misc/lv_color.h **** }
 2760              		.loc 2 464 5 view .LVU839
 464:lvgl/src/lv_widgets/../lv_core/../lv_misc/lv_color.h **** }
 2761              		.loc 2 464 5 is_stmt 0 view .LVU840
 2762              	.LBE126:
 2763              	.LBE125:
 354:lvgl/src/lv_widgets/lv_canvas.c ****                                                     lv_color_mix(dsc.res.color, bg_color, ratio));
 2764              		.loc 1 354 29 view .LVU841
 2765 044a 4B46     		mov	r3, r9	@ movhi
 2766 044c 3246     		mov	r2, r6
 2767 044e 2946     		mov	r1, r5
 2768 0450 029C     		ldr	r4, [sp, #8]
 2769              	.LVL278:
 354:lvgl/src/lv_widgets/lv_canvas.c ****                                                     lv_color_mix(dsc.res.color, bg_color, ratio));
 2770              		.loc 1 354 29 view .LVU842
 2771 0452 2046     		mov	r0, r4
 2772 0454 FFF7FEFF 		bl	lv_img_buf_set_px_color
 2773              	.LVL279:
 356:lvgl/src/lv_widgets/lv_canvas.c ****                         }
 2774              		.loc 1 356 29 is_stmt 1 view .LVU843
 2775 0458 3B46     		mov	r3, r7
 2776 045a 3246     		mov	r2, r6
 2777 045c 2946     		mov	r1, r5
 2778 045e 2046     		mov	r0, r4
 2779 0460 FFF7FEFF 		bl	lv_img_buf_set_px_alpha
 2780              	.LVL280:
 2781 0464 E6E6     		b	.L139
 2782              	.LVL281:
 2783              	.L160:
 356:lvgl/src/lv_widgets/lv_canvas.c ****                         }
 2784              		.loc 1 356 29 is_stmt 0 view .LVU844
 2785              	.LBE124:
 340:lvgl/src/lv_widgets/lv_canvas.c ****                                                     lv_color_mix(dsc.res.color, bg_color, dsc.res.o
 2786              		.loc 1 340 29 is_stmt 1 view .LVU845
 2787 0466 BDF85020 		ldrh	r2, [sp, #80]
ARM GAS  D:\Temp\cc0vPyDE.s 			page 107


 2788              	.LVL282:
 2789              	.LBB127:
 2790              	.LBI127:
 447:lvgl/src/lv_widgets/../lv_core/../lv_misc/lv_color.h **** {
 2791              		.loc 2 447 48 view .LVU846
 2792              	.LBB128:
 449:lvgl/src/lv_widgets/../lv_core/../lv_misc/lv_color.h **** #if LV_COLOR_DEPTH != 1
 2793              		.loc 2 449 5 view .LVU847
 452:lvgl/src/lv_widgets/../lv_core/../lv_misc/lv_color.h ****                                         (255 - mix) + LV_COLOR_MIX_ROUND_OFS));
 2794              		.loc 2 452 5 view .LVU848
 452:lvgl/src/lv_widgets/../lv_core/../lv_misc/lv_color.h ****                                         (255 - mix) + LV_COLOR_MIX_ROUND_OFS));
 2795              		.loc 2 452 5 is_stmt 0 view .LVU849
 2796 046a D10A     		lsrs	r1, r2, #11
 2797              	.LVL283:
 452:lvgl/src/lv_widgets/../lv_core/../lv_misc/lv_color.h ****                                         (255 - mix) + LV_COLOR_MIX_ROUND_OFS));
 2798              		.loc 2 452 5 view .LVU850
 2799 046c C4F3C42C 		ubfx	ip, r4, #11, #5
 2800 0470 C3F1FF00 		rsb	r0, r3, #255
 2801              	.LVL284:
 452:lvgl/src/lv_widgets/../lv_core/../lv_misc/lv_color.h ****                                         (255 - mix) + LV_COLOR_MIX_ROUND_OFS));
 2802              		.loc 2 452 5 view .LVU851
 2803 0474 00FB0CFC 		mul	ip, r0, ip
 2804 0478 03FB01C1 		mla	r1, r3, r1, ip
 2805 047c 8031     		adds	r1, r1, #128
 2806 047e 01EB012C 		add	ip, r1, r1, lsl #8
 2807 0482 01EBCC11 		add	r1, r1, ip, lsl #7
 2808 0486 C1F3C451 		ubfx	r1, r1, #23, #5
 2809 048a 61F3CF28 		bfi	r8, r1, #11, #5
 454:lvgl/src/lv_widgets/../lv_core/../lv_misc/lv_color.h ****                                         (255 - mix) + LV_COLOR_MIX_ROUND_OFS));
 2810              		.loc 2 454 5 is_stmt 1 view .LVU852
 2811 048e C2F34511 		ubfx	r1, r2, #5, #6
 2812 0492 C4F3451C 		ubfx	ip, r4, #5, #6
 2813 0496 0CFB00FC 		mul	ip, ip, r0
 2814 049a 01FB03C1 		mla	r1, r1, r3, ip
 2815 049e 8031     		adds	r1, r1, #128
 2816 04a0 01EB012C 		add	ip, r1, r1, lsl #8
 2817 04a4 01EBCC11 		add	r1, r1, ip, lsl #7
 2818 04a8 C1F3C551 		ubfx	r1, r1, #23, #6
 2819 04ac 61F34A18 		bfi	r8, r1, #5, #6
 456:lvgl/src/lv_widgets/../lv_core/../lv_misc/lv_color.h ****                                         (255 - mix) + LV_COLOR_MIX_ROUND_OFS));
 2820              		.loc 2 456 5 view .LVU853
 2821 04b0 02F01F02 		and	r2, r2, #31
 2822              	.LVL285:
 456:lvgl/src/lv_widgets/../lv_core/../lv_misc/lv_color.h ****                                         (255 - mix) + LV_COLOR_MIX_ROUND_OFS));
 2823              		.loc 2 456 5 is_stmt 0 view .LVU854
 2824 04b4 04F01F04 		and	r4, r4, #31
 2825              	.LVL286:
 456:lvgl/src/lv_widgets/../lv_core/../lv_misc/lv_color.h ****                                         (255 - mix) + LV_COLOR_MIX_ROUND_OFS));
 2826              		.loc 2 456 5 view .LVU855
 2827 04b8 04FB00F0 		mul	r0, r4, r0
 2828 04bc 02FB0303 		mla	r3, r2, r3, r0
 2829              	.LVL287:
 456:lvgl/src/lv_widgets/../lv_core/../lv_misc/lv_color.h ****                                         (255 - mix) + LV_COLOR_MIX_ROUND_OFS));
 2830              		.loc 2 456 5 view .LVU856
 2831 04c0 8033     		adds	r3, r3, #128
 2832 04c2 03EB0322 		add	r2, r3, r3, lsl #8
 2833 04c6 03EBC213 		add	r3, r3, r2, lsl #7
ARM GAS  D:\Temp\cc0vPyDE.s 			page 108


 2834 04ca C3F3C453 		ubfx	r3, r3, #23, #5
 2835 04ce 63F30408 		bfi	r8, r3, #0, #5
 458:lvgl/src/lv_widgets/../lv_core/../lv_misc/lv_color.h **** #else
 2836              		.loc 2 458 5 is_stmt 1 view .LVU857
 458:lvgl/src/lv_widgets/../lv_core/../lv_misc/lv_color.h **** #else
 2837              		.loc 2 458 5 view .LVU858
 464:lvgl/src/lv_widgets/../lv_core/../lv_misc/lv_color.h **** }
 2838              		.loc 2 464 5 view .LVU859
 464:lvgl/src/lv_widgets/../lv_core/../lv_misc/lv_color.h **** }
 2839              		.loc 2 464 5 is_stmt 0 view .LVU860
 2840              	.LBE128:
 2841              	.LBE127:
 340:lvgl/src/lv_widgets/lv_canvas.c ****                                                     lv_color_mix(dsc.res.color, bg_color, dsc.res.o
 2842              		.loc 1 340 29 view .LVU861
 2843 04d2 4346     		mov	r3, r8	@ movhi
 2844 04d4 3246     		mov	r2, r6
 2845 04d6 2946     		mov	r1, r5
 2846 04d8 0298     		ldr	r0, [sp, #8]
 2847 04da FFF7FEFF 		bl	lv_img_buf_set_px_color
 2848              	.LVL288:
 2849 04de A9E6     		b	.L139
 2850              	.L158:
 340:lvgl/src/lv_widgets/lv_canvas.c ****                                                     lv_color_mix(dsc.res.color, bg_color, dsc.res.o
 2851              		.loc 1 340 29 view .LVU862
 2852              	.LBE123:
 2853              	.LBE120:
 307:lvgl/src/lv_widgets/lv_canvas.c ****         for(x = -offset_x; x < dest_width - offset_x; x++) {
 2854              		.loc 1 307 53 discriminator 2 view .LVU863
 2855 04e0 009B     		ldr	r3, [sp]
 2856 04e2 0133     		adds	r3, r3, #1
 2857 04e4 0093     		str	r3, [sp]
 2858              	.LVL289:
 2859              	.L124:
 307:lvgl/src/lv_widgets/lv_canvas.c ****         for(x = -offset_x; x < dest_width - offset_x; x++) {
 2860              		.loc 1 307 40 discriminator 1 view .LVU864
 2861 04e6 099B     		ldr	r3, [sp, #36]
 2862 04e8 079A     		ldr	r2, [sp, #28]
 2863 04ea 9B1A     		subs	r3, r3, r2
 307:lvgl/src/lv_widgets/lv_canvas.c ****         for(x = -offset_x; x < dest_width - offset_x; x++) {
 2864              		.loc 1 307 5 discriminator 1 view .LVU865
 2865 04ec 009A     		ldr	r2, [sp]
 2866 04ee 9342     		cmp	r3, r2
 2867 04f0 04DD     		ble	.L161
 308:lvgl/src/lv_widgets/lv_canvas.c **** 
 2868              		.loc 1 308 9 is_stmt 1 view .LVU866
 308:lvgl/src/lv_widgets/lv_canvas.c **** 
 2869              		.loc 1 308 17 is_stmt 0 view .LVU867
 2870 04f2 059B     		ldr	r3, [sp, #20]
 2871 04f4 0193     		str	r3, [sp, #4]
 308:lvgl/src/lv_widgets/lv_canvas.c **** 
 2872              		.loc 1 308 15 view .LVU868
 2873 04f6 C3F1000A 		rsb	r10, r3, #0
 2874              	.LVL290:
 308:lvgl/src/lv_widgets/lv_canvas.c **** 
 2875              		.loc 1 308 9 view .LVU869
 2876 04fa 9DE6     		b	.L125
 2877              	.LVL291:
ARM GAS  D:\Temp\cc0vPyDE.s 			page 109


 2878              	.L161:
 364:lvgl/src/lv_widgets/lv_canvas.c **** #else
 2879              		.loc 1 364 5 is_stmt 1 view .LVU870
 2880 04fc 0A98     		ldr	r0, [sp, #40]
 2881 04fe FFF7FEFF 		bl	lv_obj_invalidate
 2882              	.LVL292:
 377:lvgl/src/lv_widgets/lv_canvas.c **** 
 2883              		.loc 1 377 1 is_stmt 0 view .LVU871
 2884 0502 23B0     		add	sp, sp, #140
 2885              	.LCFI31:
 2886              		.cfi_def_cfa_offset 36
 2887              	.LVL293:
 377:lvgl/src/lv_widgets/lv_canvas.c **** 
 2888              		.loc 1 377 1 view .LVU872
 2889              		@ sp needed
 2890 0504 BDE8F08F 		pop	{r4, r5, r6, r7, r8, r9, r10, fp, pc}
 377:lvgl/src/lv_widgets/lv_canvas.c **** 
 2891              		.loc 1 377 1 view .LVU873
 2892              		.cfi_endproc
 2893              	.LFE465:
 2895              		.section	.text.lv_canvas_blur_hor,"ax",%progbits
 2896              		.align	1
 2897              		.global	lv_canvas_blur_hor
 2898              		.syntax unified
 2899              		.thumb
 2900              		.thumb_func
 2901              		.fpu fpv4-sp-d16
 2903              	lv_canvas_blur_hor:
 2904              	.LVL294:
 2905              	.LFB466:
 386:lvgl/src/lv_widgets/lv_canvas.c ****     LV_ASSERT_OBJ(canvas, LV_OBJX_NAME);
 2906              		.loc 1 386 1 is_stmt 1 view -0
 2907              		.cfi_startproc
 2908              		@ args = 0, pretend = 0, frame = 72
 2909              		@ frame_needed = 0, uses_anonymous_args = 0
 386:lvgl/src/lv_widgets/lv_canvas.c ****     LV_ASSERT_OBJ(canvas, LV_OBJX_NAME);
 2910              		.loc 1 386 1 is_stmt 0 view .LVU875
 2911 0000 2DE9F04F 		push	{r4, r5, r6, r7, r8, r9, r10, fp, lr}
 2912              	.LCFI32:
 2913              		.cfi_def_cfa_offset 36
 2914              		.cfi_offset 4, -36
 2915              		.cfi_offset 5, -32
 2916              		.cfi_offset 6, -28
 2917              		.cfi_offset 7, -24
 2918              		.cfi_offset 8, -20
 2919              		.cfi_offset 9, -16
 2920              		.cfi_offset 10, -12
 2921              		.cfi_offset 11, -8
 2922              		.cfi_offset 14, -4
 2923 0004 93B0     		sub	sp, sp, #76
 2924              	.LCFI33:
 2925              		.cfi_def_cfa_offset 112
 2926 0006 0790     		str	r0, [sp, #28]
 2927 0008 0C46     		mov	r4, r1
 2928 000a 0692     		str	r2, [sp, #24]
 387:lvgl/src/lv_widgets/lv_canvas.c **** 
 2929              		.loc 1 387 5 is_stmt 1 view .LVU876
ARM GAS  D:\Temp\cc0vPyDE.s 			page 110


 387:lvgl/src/lv_widgets/lv_canvas.c **** 
 2930              		.loc 1 387 5 view .LVU877
 2931 000c FFF7FEFF 		bl	lv_debug_check_null
 2932              	.LVL295:
 387:lvgl/src/lv_widgets/lv_canvas.c **** 
 2933              		.loc 1 387 5 is_stmt 0 view .LVU878
 2934 0010 20B1     		cbz	r0, .L201
 387:lvgl/src/lv_widgets/lv_canvas.c **** 
 2935              		.loc 1 387 40 is_stmt 1 discriminator 2 view .LVU879
 389:lvgl/src/lv_widgets/lv_canvas.c **** 
 2936              		.loc 1 389 5 discriminator 2 view .LVU880
 389:lvgl/src/lv_widgets/lv_canvas.c **** 
 2937              		.loc 1 389 7 is_stmt 0 discriminator 2 view .LVU881
 2938 0012 069B     		ldr	r3, [sp, #24]
 2939 0014 43B9     		cbnz	r3, .L202
 2940              	.LVL296:
 2941              	.L164:
 511:lvgl/src/lv_widgets/lv_canvas.c **** 
 2942              		.loc 1 511 1 view .LVU882
 2943 0016 13B0     		add	sp, sp, #76
 2944              	.LCFI34:
 2945              		.cfi_remember_state
 2946              		.cfi_def_cfa_offset 36
 2947              		@ sp needed
 2948 0018 BDE8F08F 		pop	{r4, r5, r6, r7, r8, r9, r10, fp, pc}
 2949              	.LVL297:
 2950              	.L201:
 2951              	.LCFI35:
 2952              		.cfi_restore_state
 387:lvgl/src/lv_widgets/lv_canvas.c **** 
 2953              		.loc 1 387 5 is_stmt 1 discriminator 1 view .LVU883
 387:lvgl/src/lv_widgets/lv_canvas.c **** 
 2954              		.loc 1 387 5 discriminator 1 view .LVU884
 2955 001c 079A     		ldr	r2, [sp, #28]
 2956 001e 0023     		movs	r3, #0
 2957 0020 BD48     		ldr	r0, .L213
 2958 0022 FFF7FEFF 		bl	lv_debug_log_error
 2959              	.LVL298:
 2960              	.L166:
 387:lvgl/src/lv_widgets/lv_canvas.c **** 
 2961              		.loc 1 387 5 discriminator 1 view .LVU885
 387:lvgl/src/lv_widgets/lv_canvas.c **** 
 2962              		.loc 1 387 5 discriminator 1 view .LVU886
 2963 0026 FEE7     		b	.L166
 2964              	.L202:
 391:lvgl/src/lv_widgets/lv_canvas.c **** 
 2965              		.loc 1 391 5 view .LVU887
 391:lvgl/src/lv_widgets/lv_canvas.c **** 
 2966              		.loc 1 391 29 is_stmt 0 view .LVU888
 2967 0028 0798     		ldr	r0, [sp, #28]
 2968 002a FFF7FEFF 		bl	lv_obj_get_ext_attr
 2969              	.LVL299:
 2970 002e 8146     		mov	r9, r0
 2971              	.LVL300:
 393:lvgl/src/lv_widgets/lv_canvas.c ****     if(area) {
 2972              		.loc 1 393 5 is_stmt 1 view .LVU889
 394:lvgl/src/lv_widgets/lv_canvas.c ****         lv_area_copy(&a, area);
ARM GAS  D:\Temp\cc0vPyDE.s 			page 111


 2973              		.loc 1 394 5 view .LVU890
 394:lvgl/src/lv_widgets/lv_canvas.c ****         lv_area_copy(&a, area);
 2974              		.loc 1 394 7 is_stmt 0 view .LVU891
 2975 0030 002C     		cmp	r4, #0
 2976 0032 7CD0     		beq	.L203
 2977              	.LBB129:
 2978              	.LBB130:
 2979              	.LBB131:
 215:d:\_project\stm32\f407\hack_rf_new\lvgl\src\lv_misc\lv_mem.h ****     const uint8_t * s8 = (const uint8_t *)src;
 2980              		.loc 5 215 15 view .LVU892
 2981 0034 10AA     		add	r2, sp, #64
 2982              	.LBE131:
 2983              	.LBE130:
 2984              	.LBE129:
 2985 0036 0823     		movs	r3, #8
 2986 0038 04E0     		b	.L169
 2987              	.LVL301:
 2988              	.L171:
 2989              	.LBB134:
 2990              	.LBB133:
 2991              	.LBB132:
 219:d:\_project\stm32\f407\hack_rf_new\lvgl\src\lv_misc\lv_mem.h ****         d8++;
 2992              		.loc 5 219 9 is_stmt 1 view .LVU893
 219:d:\_project\stm32\f407\hack_rf_new\lvgl\src\lv_misc\lv_mem.h ****         d8++;
 2993              		.loc 5 219 15 is_stmt 0 view .LVU894
 2994 003a 14F8011B 		ldrb	r1, [r4], #1	@ zero_extendqisi2
 2995              	.LVL302:
 219:d:\_project\stm32\f407\hack_rf_new\lvgl\src\lv_misc\lv_mem.h ****         d8++;
 2996              		.loc 5 219 13 view .LVU895
 2997 003e 02F8011B 		strb	r1, [r2], #1
 2998              	.LVL303:
 220:d:\_project\stm32\f407\hack_rf_new\lvgl\src\lv_misc\lv_mem.h ****         s8++;
 2999              		.loc 5 220 9 is_stmt 1 view .LVU896
 221:d:\_project\stm32\f407\hack_rf_new\lvgl\src\lv_misc\lv_mem.h ****         len--;
 3000              		.loc 5 221 9 view .LVU897
 222:d:\_project\stm32\f407\hack_rf_new\lvgl\src\lv_misc\lv_mem.h ****     }
 3001              		.loc 5 222 9 view .LVU898
 222:d:\_project\stm32\f407\hack_rf_new\lvgl\src\lv_misc\lv_mem.h ****     }
 3002              		.loc 5 222 12 is_stmt 0 view .LVU899
 3003 0042 013B     		subs	r3, r3, #1
 3004              	.LVL304:
 3005              	.L169:
 218:d:\_project\stm32\f407\hack_rf_new\lvgl\src\lv_misc\lv_mem.h ****         *d8 = *s8;
 3006              		.loc 5 218 10 view .LVU900
 3007 0044 002B     		cmp	r3, #0
 3008 0046 F8D1     		bne	.L171
 3009              		.loc 5 225 5 is_stmt 1 view .LVU901
 3010              	.LVL305:
 3011              		.loc 5 225 5 is_stmt 0 view .LVU902
 3012              	.LBE132:
 3013              	.LBE133:
 3014              	.LBE134:
 396:lvgl/src/lv_widgets/lv_canvas.c ****         if(a.y1 < 0) a.y1 = 0;
 3015              		.loc 1 396 9 is_stmt 1 view .LVU903
 396:lvgl/src/lv_widgets/lv_canvas.c ****         if(a.y1 < 0) a.y1 = 0;
 3016              		.loc 1 396 13 is_stmt 0 view .LVU904
 3017 0048 BDF94030 		ldrsh	r3, [sp, #64]
ARM GAS  D:\Temp\cc0vPyDE.s 			page 112


 396:lvgl/src/lv_widgets/lv_canvas.c ****         if(a.y1 < 0) a.y1 = 0;
 3018              		.loc 1 396 11 view .LVU905
 3019 004c 002B     		cmp	r3, #0
 3020 004e 66DB     		blt	.L204
 3021              	.L172:
 397:lvgl/src/lv_widgets/lv_canvas.c ****         if(a.x2 > ext->dsc.header.w - 1) a.x2 = ext->dsc.header.w - 1;
 3022              		.loc 1 397 9 is_stmt 1 view .LVU906
 397:lvgl/src/lv_widgets/lv_canvas.c ****         if(a.x2 > ext->dsc.header.w - 1) a.x2 = ext->dsc.header.w - 1;
 3023              		.loc 1 397 13 is_stmt 0 view .LVU907
 3024 0050 BDF94230 		ldrsh	r3, [sp, #66]
 397:lvgl/src/lv_widgets/lv_canvas.c ****         if(a.x2 > ext->dsc.header.w - 1) a.x2 = ext->dsc.header.w - 1;
 3025              		.loc 1 397 11 view .LVU908
 3026 0054 002B     		cmp	r3, #0
 3027 0056 66DB     		blt	.L205
 3028              	.L173:
 398:lvgl/src/lv_widgets/lv_canvas.c ****         if(a.y2 > ext->dsc.header.h - 1) a.y2 = ext->dsc.header.h - 1;
 3029              		.loc 1 398 9 is_stmt 1 view .LVU909
 398:lvgl/src/lv_widgets/lv_canvas.c ****         if(a.y2 > ext->dsc.header.h - 1) a.y2 = ext->dsc.header.h - 1;
 3030              		.loc 1 398 34 is_stmt 0 view .LVU910
 3031 0058 D9F81830 		ldr	r3, [r9, #24]
 3032 005c C3F38A23 		ubfx	r3, r3, #10, #11
 398:lvgl/src/lv_widgets/lv_canvas.c ****         if(a.y2 > ext->dsc.header.h - 1) a.y2 = ext->dsc.header.h - 1;
 3033              		.loc 1 398 13 view .LVU911
 3034 0060 BDF94420 		ldrsh	r2, [sp, #68]
 398:lvgl/src/lv_widgets/lv_canvas.c ****         if(a.y2 > ext->dsc.header.h - 1) a.y2 = ext->dsc.header.h - 1;
 3035              		.loc 1 398 11 view .LVU912
 3036 0064 9342     		cmp	r3, r2
 3037 0066 02DC     		bgt	.L174
 398:lvgl/src/lv_widgets/lv_canvas.c ****         if(a.y2 > ext->dsc.header.h - 1) a.y2 = ext->dsc.header.h - 1;
 3038              		.loc 1 398 42 is_stmt 1 discriminator 1 view .LVU913
 398:lvgl/src/lv_widgets/lv_canvas.c ****         if(a.y2 > ext->dsc.header.h - 1) a.y2 = ext->dsc.header.h - 1;
 3039              		.loc 1 398 67 is_stmt 0 discriminator 1 view .LVU914
 3040 0068 013B     		subs	r3, r3, #1
 398:lvgl/src/lv_widgets/lv_canvas.c ****         if(a.y2 > ext->dsc.header.h - 1) a.y2 = ext->dsc.header.h - 1;
 3041              		.loc 1 398 47 discriminator 1 view .LVU915
 3042 006a ADF84430 		strh	r3, [sp, #68]	@ movhi
 3043              	.L174:
 399:lvgl/src/lv_widgets/lv_canvas.c ****     }
 3044              		.loc 1 399 9 is_stmt 1 view .LVU916
 399:lvgl/src/lv_widgets/lv_canvas.c ****     }
 3045              		.loc 1 399 34 is_stmt 0 view .LVU917
 3046 006e B9F81A30 		ldrh	r3, [r9, #26]
 3047 0072 5B09     		lsrs	r3, r3, #5
 399:lvgl/src/lv_widgets/lv_canvas.c ****     }
 3048              		.loc 1 399 13 view .LVU918
 3049 0074 BDF94620 		ldrsh	r2, [sp, #70]
 399:lvgl/src/lv_widgets/lv_canvas.c ****     }
 3050              		.loc 1 399 11 view .LVU919
 3051 0078 9342     		cmp	r3, r2
 3052 007a 02DC     		bgt	.L175
 399:lvgl/src/lv_widgets/lv_canvas.c ****     }
 3053              		.loc 1 399 42 is_stmt 1 discriminator 1 view .LVU920
 399:lvgl/src/lv_widgets/lv_canvas.c ****     }
 3054              		.loc 1 399 67 is_stmt 0 discriminator 1 view .LVU921
 3055 007c 013B     		subs	r3, r3, #1
 399:lvgl/src/lv_widgets/lv_canvas.c ****     }
 3056              		.loc 1 399 47 discriminator 1 view .LVU922
ARM GAS  D:\Temp\cc0vPyDE.s 			page 113


 3057 007e ADF84630 		strh	r3, [sp, #70]	@ movhi
 3058              	.L175:
 408:lvgl/src/lv_widgets/lv_canvas.c **** 
 3059              		.loc 1 408 5 is_stmt 1 view .LVU923
 3060              	.LVL306:
 3061              	.LBB135:
 3062              	.LBI135:
 3063              		.loc 3 177 1 view .LVU924
 3064              	.LBB136:
 3065              		.loc 3 177 1 view .LVU925
 3066 0082 48F2A902 		movw	r2, #32937
 3067 0086 0021     		movs	r1, #0
 3068 0088 0798     		ldr	r0, [sp, #28]
 3069              	.LVL307:
 3070              		.loc 3 177 1 is_stmt 0 view .LVU926
 3071 008a FFF7FEFF 		bl	_lv_obj_get_style_color
 3072              	.LVL308:
 3073 008e ADF82C00 		strh	r0, [sp, #44]	@ movhi
 3074              	.LVL309:
 3075              		.loc 3 177 1 view .LVU927
 3076              	.LBE136:
 3077              	.LBE135:
 410:lvgl/src/lv_widgets/lv_canvas.c ****     uint16_t r_front = r / 2;
 3078              		.loc 1 410 5 is_stmt 1 view .LVU928
 410:lvgl/src/lv_widgets/lv_canvas.c ****     uint16_t r_front = r / 2;
 3079              		.loc 1 410 14 is_stmt 0 view .LVU929
 3080 0092 069A     		ldr	r2, [sp, #24]
 3081 0094 5308     		lsrs	r3, r2, #1
 3082 0096 0293     		str	r3, [sp, #8]
 3083              	.LVL310:
 411:lvgl/src/lv_widgets/lv_canvas.c **** 
 3084              		.loc 1 411 5 is_stmt 1 view .LVU930
 413:lvgl/src/lv_widgets/lv_canvas.c **** 
 3085              		.loc 1 413 5 view .LVU931
 413:lvgl/src/lv_widgets/lv_canvas.c **** 
 3086              		.loc 1 413 7 is_stmt 0 view .LVU932
 3087 0098 12F0010F 		tst	r2, #1
 3088 009c 58D1     		bne	.L197
 413:lvgl/src/lv_widgets/lv_canvas.c **** 
 3089              		.loc 1 413 24 is_stmt 1 discriminator 1 view .LVU933
 413:lvgl/src/lv_widgets/lv_canvas.c **** 
 3090              		.loc 1 413 30 is_stmt 0 discriminator 1 view .LVU934
 3091 009e 013B     		subs	r3, r3, #1
 3092              	.LVL311:
 413:lvgl/src/lv_widgets/lv_canvas.c **** 
 3093              		.loc 1 413 30 discriminator 1 view .LVU935
 3094 00a0 9BB2     		uxth	r3, r3
 3095 00a2 0593     		str	r3, [sp, #20]
 3096              	.LVL312:
 3097              	.L176:
 415:lvgl/src/lv_widgets/lv_canvas.c **** 
 3098              		.loc 1 415 5 is_stmt 1 view .LVU936
 415:lvgl/src/lv_widgets/lv_canvas.c **** 
 3099              		.loc 1 415 57 is_stmt 0 view .LVU937
 3100 00a4 99F81800 		ldrb	r0, [r9, #24]	@ zero_extendqisi2
 415:lvgl/src/lv_widgets/lv_canvas.c **** 
 3101              		.loc 1 415 22 view .LVU938
ARM GAS  D:\Temp\cc0vPyDE.s 			page 114


 3102 00a8 00F01F00 		and	r0, r0, #31
 3103 00ac FFF7FEFF 		bl	lv_img_cf_has_alpha
 3104              	.LVL313:
 3105 00b0 0746     		mov	r7, r0
 3106              	.LVL314:
 417:lvgl/src/lv_widgets/lv_canvas.c ****     uint8_t * line_buf = _lv_mem_buf_get(line_w);
 3107              		.loc 1 417 5 is_stmt 1 view .LVU939
 417:lvgl/src/lv_widgets/lv_canvas.c ****     uint8_t * line_buf = _lv_mem_buf_get(line_w);
 3108              		.loc 1 417 64 is_stmt 0 view .LVU940
 3109 00b2 D9F81800 		ldr	r0, [r9, #24]
 417:lvgl/src/lv_widgets/lv_canvas.c ****     uint8_t * line_buf = _lv_mem_buf_get(line_w);
 3110              		.loc 1 417 86 view .LVU941
 3111 00b6 99F81820 		ldrb	r2, [r9, #24]	@ zero_extendqisi2
 417:lvgl/src/lv_widgets/lv_canvas.c ****     uint8_t * line_buf = _lv_mem_buf_get(line_w);
 3112              		.loc 1 417 25 view .LVU942
 3113 00ba 02F01F02 		and	r2, r2, #31
 3114 00be 0121     		movs	r1, #1
 3115 00c0 C0F38A20 		ubfx	r0, r0, #10, #11
 3116 00c4 FFF7FEFF 		bl	lv_img_buf_get_img_size
 3117              	.LVL315:
 417:lvgl/src/lv_widgets/lv_canvas.c ****     uint8_t * line_buf = _lv_mem_buf_get(line_w);
 3118              		.loc 1 417 16 view .LVU943
 3119 00c8 03B2     		sxth	r3, r0
 3120 00ca 0A93     		str	r3, [sp, #40]
 3121              	.LVL316:
 418:lvgl/src/lv_widgets/lv_canvas.c **** 
 3122              		.loc 1 418 5 is_stmt 1 view .LVU944
 418:lvgl/src/lv_widgets/lv_canvas.c **** 
 3123              		.loc 1 418 26 is_stmt 0 view .LVU945
 3124 00cc 0993     		str	r3, [sp, #36]
 3125 00ce 1846     		mov	r0, r3
 3126 00d0 FFF7FEFF 		bl	_lv_mem_buf_get
 3127              	.LVL317:
 418:lvgl/src/lv_widgets/lv_canvas.c **** 
 3128              		.loc 1 418 26 view .LVU946
 3129 00d4 0890     		str	r0, [sp, #32]
 3130              	.LVL318:
 420:lvgl/src/lv_widgets/lv_canvas.c ****     line_img.data = line_buf;
 3131              		.loc 1 420 5 is_stmt 1 view .LVU947
 421:lvgl/src/lv_widgets/lv_canvas.c ****     line_img.header.always_zero = 0;
 3132              		.loc 1 421 5 view .LVU948
 421:lvgl/src/lv_widgets/lv_canvas.c ****     line_img.header.always_zero = 0;
 3133              		.loc 1 421 19 is_stmt 0 view .LVU949
 3134 00d6 0F90     		str	r0, [sp, #60]
 422:lvgl/src/lv_widgets/lv_canvas.c ****     line_img.header.w = ext->dsc.header.w;
 3135              		.loc 1 422 5 is_stmt 1 view .LVU950
 422:lvgl/src/lv_widgets/lv_canvas.c ****     line_img.header.w = ext->dsc.header.w;
 3136              		.loc 1 422 33 is_stmt 0 view .LVU951
 3137 00d8 9DF83430 		ldrb	r3, [sp, #52]	@ zero_extendqisi2
 3138 00dc 6FF34713 		bfc	r3, #5, #3
 3139 00e0 8DF83430 		strb	r3, [sp, #52]
 423:lvgl/src/lv_widgets/lv_canvas.c ****     line_img.header.h = 1;
 3140              		.loc 1 423 5 is_stmt 1 view .LVU952
 423:lvgl/src/lv_widgets/lv_canvas.c ****     line_img.header.h = 1;
 3141              		.loc 1 423 40 is_stmt 0 view .LVU953
 3142 00e4 D9F81830 		ldr	r3, [r9, #24]
 3143 00e8 C3F38A22 		ubfx	r2, r3, #10, #11
ARM GAS  D:\Temp\cc0vPyDE.s 			page 115


 423:lvgl/src/lv_widgets/lv_canvas.c ****     line_img.header.h = 1;
 3144              		.loc 1 423 23 view .LVU954
 3145 00ec 0D9B     		ldr	r3, [sp, #52]
 3146 00ee 62F39423 		bfi	r3, r2, #10, #11
 3147 00f2 0D93     		str	r3, [sp, #52]
 424:lvgl/src/lv_widgets/lv_canvas.c ****     line_img.header.cf = ext->dsc.header.cf;
 3148              		.loc 1 424 5 is_stmt 1 view .LVU955
 424:lvgl/src/lv_widgets/lv_canvas.c ****     line_img.header.cf = ext->dsc.header.cf;
 3149              		.loc 1 424 23 is_stmt 0 view .LVU956
 3150 00f4 C3F30F43 		ubfx	r3, r3, #16, #16
 3151 00f8 0122     		movs	r2, #1
 3152 00fa 62F34F13 		bfi	r3, r2, #5, #11
 3153 00fe ADF83630 		strh	r3, [sp, #54]	@ movhi
 425:lvgl/src/lv_widgets/lv_canvas.c **** 
 3154              		.loc 1 425 5 is_stmt 1 view .LVU957
 425:lvgl/src/lv_widgets/lv_canvas.c **** 
 3155              		.loc 1 425 41 is_stmt 0 view .LVU958
 3156 0102 99F81820 		ldrb	r2, [r9, #24]	@ zero_extendqisi2
 425:lvgl/src/lv_widgets/lv_canvas.c **** 
 3157              		.loc 1 425 24 view .LVU959
 3158 0106 9DF83430 		ldrb	r3, [sp, #52]	@ zero_extendqisi2
 3159 010a 62F30403 		bfi	r3, r2, #0, #5
 3160 010e 8DF83430 		strb	r3, [sp, #52]
 427:lvgl/src/lv_widgets/lv_canvas.c ****     lv_coord_t y;
 3161              		.loc 1 427 5 is_stmt 1 view .LVU960
 428:lvgl/src/lv_widgets/lv_canvas.c ****     lv_coord_t x_safe;
 3162              		.loc 1 428 5 view .LVU961
 429:lvgl/src/lv_widgets/lv_canvas.c **** 
 3163              		.loc 1 429 5 view .LVU962
 431:lvgl/src/lv_widgets/lv_canvas.c ****         uint32_t asum = 0;
 3164              		.loc 1 431 5 view .LVU963
 431:lvgl/src/lv_widgets/lv_canvas.c ****         uint32_t asum = 0;
 3165              		.loc 1 431 11 is_stmt 0 view .LVU964
 3166 0112 BDF94230 		ldrsh	r3, [sp, #66]
 3167 0116 0493     		str	r3, [sp, #16]
 3168              	.LVL319:
 431:lvgl/src/lv_widgets/lv_canvas.c ****         uint32_t asum = 0;
 3169              		.loc 1 431 11 view .LVU965
 3170 0118 CDF80C90 		str	r9, [sp, #12]
 431:lvgl/src/lv_widgets/lv_canvas.c ****         uint32_t asum = 0;
 3171              		.loc 1 431 5 view .LVU966
 3172 011c DDE0     		b	.L177
 3173              	.LVL320:
 3174              	.L204:
 396:lvgl/src/lv_widgets/lv_canvas.c ****         if(a.y1 < 0) a.y1 = 0;
 3175              		.loc 1 396 22 is_stmt 1 discriminator 1 view .LVU967
 396:lvgl/src/lv_widgets/lv_canvas.c ****         if(a.y1 < 0) a.y1 = 0;
 3176              		.loc 1 396 27 is_stmt 0 discriminator 1 view .LVU968
 3177 011e 0023     		movs	r3, #0
 3178 0120 ADF84030 		strh	r3, [sp, #64]	@ movhi
 3179 0124 94E7     		b	.L172
 3180              	.L205:
 397:lvgl/src/lv_widgets/lv_canvas.c ****         if(a.x2 > ext->dsc.header.w - 1) a.x2 = ext->dsc.header.w - 1;
 3181              		.loc 1 397 22 is_stmt 1 discriminator 1 view .LVU969
 397:lvgl/src/lv_widgets/lv_canvas.c ****         if(a.x2 > ext->dsc.header.w - 1) a.x2 = ext->dsc.header.w - 1;
 3182              		.loc 1 397 27 is_stmt 0 discriminator 1 view .LVU970
 3183 0126 0023     		movs	r3, #0
ARM GAS  D:\Temp\cc0vPyDE.s 			page 116


 3184 0128 ADF84230 		strh	r3, [sp, #66]	@ movhi
 3185 012c 94E7     		b	.L173
 3186              	.LVL321:
 3187              	.L203:
 402:lvgl/src/lv_widgets/lv_canvas.c ****         a.y1 = 0;
 3188              		.loc 1 402 9 is_stmt 1 view .LVU971
 402:lvgl/src/lv_widgets/lv_canvas.c ****         a.y1 = 0;
 3189              		.loc 1 402 14 is_stmt 0 view .LVU972
 3190 012e 0023     		movs	r3, #0
 3191 0130 ADF84030 		strh	r3, [sp, #64]	@ movhi
 403:lvgl/src/lv_widgets/lv_canvas.c ****         a.x2 = ext->dsc.header.w - 1;
 3192              		.loc 1 403 9 is_stmt 1 view .LVU973
 403:lvgl/src/lv_widgets/lv_canvas.c ****         a.x2 = ext->dsc.header.w - 1;
 3193              		.loc 1 403 14 is_stmt 0 view .LVU974
 3194 0134 ADF84230 		strh	r3, [sp, #66]	@ movhi
 404:lvgl/src/lv_widgets/lv_canvas.c ****         a.y2 = ext->dsc.header.h - 1;
 3195              		.loc 1 404 9 is_stmt 1 view .LVU975
 404:lvgl/src/lv_widgets/lv_canvas.c ****         a.y2 = ext->dsc.header.h - 1;
 3196              		.loc 1 404 31 is_stmt 0 view .LVU976
 3197 0138 8369     		ldr	r3, [r0, #24]
 3198 013a C3F38A23 		ubfx	r3, r3, #10, #11
 404:lvgl/src/lv_widgets/lv_canvas.c ****         a.y2 = ext->dsc.header.h - 1;
 3199              		.loc 1 404 34 view .LVU977
 3200 013e 013B     		subs	r3, r3, #1
 404:lvgl/src/lv_widgets/lv_canvas.c ****         a.y2 = ext->dsc.header.h - 1;
 3201              		.loc 1 404 14 view .LVU978
 3202 0140 ADF84430 		strh	r3, [sp, #68]	@ movhi
 405:lvgl/src/lv_widgets/lv_canvas.c ****     }
 3203              		.loc 1 405 9 is_stmt 1 view .LVU979
 405:lvgl/src/lv_widgets/lv_canvas.c ****     }
 3204              		.loc 1 405 31 is_stmt 0 view .LVU980
 3205 0144 438B     		ldrh	r3, [r0, #26]
 3206 0146 5B09     		lsrs	r3, r3, #5
 405:lvgl/src/lv_widgets/lv_canvas.c ****     }
 3207              		.loc 1 405 34 view .LVU981
 3208 0148 013B     		subs	r3, r3, #1
 405:lvgl/src/lv_widgets/lv_canvas.c ****     }
 3209              		.loc 1 405 14 view .LVU982
 3210 014a ADF84630 		strh	r3, [sp, #70]	@ movhi
 3211 014e 98E7     		b	.L175
 3212              	.LVL322:
 3213              	.L197:
 410:lvgl/src/lv_widgets/lv_canvas.c ****     uint16_t r_front = r / 2;
 3214              		.loc 1 410 14 view .LVU983
 3215 0150 029B     		ldr	r3, [sp, #8]
 3216              	.LVL323:
 410:lvgl/src/lv_widgets/lv_canvas.c ****     uint16_t r_front = r / 2;
 3217              		.loc 1 410 14 view .LVU984
 3218 0152 0593     		str	r3, [sp, #20]
 3219 0154 A6E7     		b	.L176
 3220              	.LVL324:
 3221              	.L207:
 3222              	.LBB137:
 446:lvgl/src/lv_widgets/lv_canvas.c **** 
 3223              		.loc 1 446 27 is_stmt 1 discriminator 1 view .LVU985
 446:lvgl/src/lv_widgets/lv_canvas.c **** 
 3224              		.loc 1 446 33 is_stmt 0 discriminator 1 view .LVU986
ARM GAS  D:\Temp\cc0vPyDE.s 			page 117


 3225 0156 0022     		movs	r2, #0
 3226 0158 2946     		mov	r1, r5
 3227 015a 0DA8     		add	r0, sp, #52
 3228 015c FFF7FEFF 		bl	lv_img_buf_get_px_alpha
 3229              	.LVL325:
 3230 0160 0190     		str	r0, [sp, #4]
 3231              	.LVL326:
 446:lvgl/src/lv_widgets/lv_canvas.c **** 
 3232              		.loc 1 446 33 discriminator 1 view .LVU987
 3233 0162 1AE0     		b	.L180
 3234              	.LVL327:
 3235              	.L181:
 441:lvgl/src/lv_widgets/lv_canvas.c ****             x_safe = x < 0 ? 0 : x;
 3236              		.loc 1 441 54 discriminator 2 view .LVU988
 3237 0164 0136     		adds	r6, r6, #1
 3238              	.LVL328:
 441:lvgl/src/lv_widgets/lv_canvas.c ****             x_safe = x < 0 ? 0 : x;
 3239              		.loc 1 441 54 discriminator 2 view .LVU989
 3240 0166 36B2     		sxth	r6, r6
 3241              	.LVL329:
 3242              	.L178:
 441:lvgl/src/lv_widgets/lv_canvas.c ****             x_safe = x < 0 ? 0 : x;
 3243              		.loc 1 441 38 discriminator 1 view .LVU990
 3244 0168 BDF94050 		ldrsh	r5, [sp, #64]
 441:lvgl/src/lv_widgets/lv_canvas.c ****             x_safe = x < 0 ? 0 : x;
 3245              		.loc 1 441 42 discriminator 1 view .LVU991
 3246 016c 029B     		ldr	r3, [sp, #8]
 3247 016e 2B44     		add	r3, r3, r5
 441:lvgl/src/lv_widgets/lv_canvas.c ****             x_safe = x < 0 ? 0 : x;
 3248              		.loc 1 441 9 discriminator 1 view .LVU992
 3249 0170 9E42     		cmp	r6, r3
 3250 0172 22DC     		bgt	.L206
 442:lvgl/src/lv_widgets/lv_canvas.c ****             x_safe = x_safe > ext->dsc.header.w - 1 ? ext->dsc.header.w - 1 : x_safe;
 3251              		.loc 1 442 13 is_stmt 1 view .LVU993
 442:lvgl/src/lv_widgets/lv_canvas.c ****             x_safe = x_safe > ext->dsc.header.w - 1 ? ext->dsc.header.w - 1 : x_safe;
 3252              		.loc 1 442 20 is_stmt 0 view .LVU994
 3253 0174 26EAE675 		bic	r5, r6, r6, asr #31
 3254              	.LVL330:
 443:lvgl/src/lv_widgets/lv_canvas.c **** 
 3255              		.loc 1 443 13 is_stmt 1 view .LVU995
 443:lvgl/src/lv_widgets/lv_canvas.c **** 
 3256              		.loc 1 443 46 is_stmt 0 view .LVU996
 3257 0178 D8F81830 		ldr	r3, [r8, #24]
 3258 017c C3F38A23 		ubfx	r3, r3, #10, #11
 443:lvgl/src/lv_widgets/lv_canvas.c **** 
 3259              		.loc 1 443 20 view .LVU997
 3260 0180 AB42     		cmp	r3, r5
 3261 0182 00DC     		bgt	.L179
 443:lvgl/src/lv_widgets/lv_canvas.c **** 
 3262              		.loc 1 443 20 discriminator 1 view .LVU998
 3263 0184 5D1E     		subs	r5, r3, #1
 3264              	.LVL331:
 3265              	.L179:
 445:lvgl/src/lv_widgets/lv_canvas.c ****             if(has_alpha) opa = lv_img_buf_get_px_alpha(&line_img, x_safe, 0);
 3266              		.loc 1 445 13 is_stmt 1 discriminator 4 view .LVU999
 445:lvgl/src/lv_widgets/lv_canvas.c ****             if(has_alpha) opa = lv_img_buf_get_px_alpha(&line_img, x_safe, 0);
 3267              		.loc 1 445 17 is_stmt 0 discriminator 4 view .LVU1000
ARM GAS  D:\Temp\cc0vPyDE.s 			page 118


 3268 0186 BDF82C30 		ldrh	r3, [sp, #44]
 3269 018a 0022     		movs	r2, #0
 3270 018c 2946     		mov	r1, r5
 3271 018e 0DA8     		add	r0, sp, #52
 3272 0190 FFF7FEFF 		bl	lv_img_buf_get_px_color
 3273              	.LVL332:
 3274 0194 8246     		mov	r10, r0	@ movhi
 3275              	.LVL333:
 446:lvgl/src/lv_widgets/lv_canvas.c **** 
 3276              		.loc 1 446 13 is_stmt 1 discriminator 4 view .LVU1001
 446:lvgl/src/lv_widgets/lv_canvas.c **** 
 3277              		.loc 1 446 15 is_stmt 0 discriminator 4 view .LVU1002
 3278 0196 002F     		cmp	r7, #0
 3279 0198 DDD1     		bne	.L207
 3280              	.L180:
 448:lvgl/src/lv_widgets/lv_canvas.c **** #if LV_COLOR_DEPTH == 16 && LV_COLOR_16_SWAP
 3281              		.loc 1 448 13 is_stmt 1 view .LVU1003
 3282              	.LVL334:
 448:lvgl/src/lv_widgets/lv_canvas.c **** #if LV_COLOR_DEPTH == 16 && LV_COLOR_16_SWAP
 3283              		.loc 1 448 25 is_stmt 0 view .LVU1004
 3284 019a CAF3C423 		ubfx	r3, r10, #11, #5
 448:lvgl/src/lv_widgets/lv_canvas.c **** #if LV_COLOR_DEPTH == 16 && LV_COLOR_16_SWAP
 3285              		.loc 1 448 18 view .LVU1005
 3286 019e 9B44     		add	fp, fp, r3
 3287              	.LVL335:
 452:lvgl/src/lv_widgets/lv_canvas.c **** #endif
 3288              		.loc 1 452 13 is_stmt 1 view .LVU1006
 452:lvgl/src/lv_widgets/lv_canvas.c **** #endif
 3289              		.loc 1 452 25 is_stmt 0 view .LVU1007
 3290 01a0 CAF34513 		ubfx	r3, r10, #5, #6
 452:lvgl/src/lv_widgets/lv_canvas.c **** #endif
 3291              		.loc 1 452 18 view .LVU1008
 3292 01a4 9944     		add	r9, r9, r3
 3293              	.LVL336:
 454:lvgl/src/lv_widgets/lv_canvas.c ****             if(has_alpha) asum += opa;
 3294              		.loc 1 454 13 is_stmt 1 view .LVU1009
 454:lvgl/src/lv_widgets/lv_canvas.c ****             if(has_alpha) asum += opa;
 3295              		.loc 1 454 25 is_stmt 0 view .LVU1010
 3296 01a6 0AF01F03 		and	r3, r10, #31
 454:lvgl/src/lv_widgets/lv_canvas.c ****             if(has_alpha) asum += opa;
 3297              		.loc 1 454 18 view .LVU1011
 3298 01aa 1C44     		add	r4, r4, r3
 3299              	.LVL337:
 455:lvgl/src/lv_widgets/lv_canvas.c ****         }
 3300              		.loc 1 455 13 is_stmt 1 view .LVU1012
 455:lvgl/src/lv_widgets/lv_canvas.c ****         }
 3301              		.loc 1 455 15 is_stmt 0 view .LVU1013
 3302 01ac 002F     		cmp	r7, #0
 3303 01ae D9D0     		beq	.L181
 455:lvgl/src/lv_widgets/lv_canvas.c ****         }
 3304              		.loc 1 455 27 is_stmt 1 discriminator 1 view .LVU1014
 455:lvgl/src/lv_widgets/lv_canvas.c ****         }
 3305              		.loc 1 455 32 is_stmt 0 discriminator 1 view .LVU1015
 3306 01b0 009B     		ldr	r3, [sp]
 3307 01b2 019A     		ldr	r2, [sp, #4]
 3308 01b4 1344     		add	r3, r3, r2
 3309 01b6 0093     		str	r3, [sp]
ARM GAS  D:\Temp\cc0vPyDE.s 			page 119


 3310              	.LVL338:
 455:lvgl/src/lv_widgets/lv_canvas.c ****         }
 3311              		.loc 1 455 32 discriminator 1 view .LVU1016
 3312 01b8 D4E7     		b	.L181
 3313              	.LVL339:
 3314              	.L206:
 455:lvgl/src/lv_widgets/lv_canvas.c ****         }
 3315              		.loc 1 455 32 discriminator 1 view .LVU1017
 3316 01ba BDF82E80 		ldrh	r8, [sp, #46]
 459:lvgl/src/lv_widgets/lv_canvas.c **** 
 3317              		.loc 1 459 9 is_stmt 1 view .LVU1018
 459:lvgl/src/lv_widgets/lv_canvas.c **** 
 3318              		.loc 1 459 11 is_stmt 0 view .LVU1019
 3319 01be 002F     		cmp	r7, #0
 3320 01c0 56D1     		bne	.L193
 459:lvgl/src/lv_widgets/lv_canvas.c **** 
 3321              		.loc 1 459 37 view .LVU1020
 3322 01c2 FF23     		movs	r3, #255
 3323 01c4 0093     		str	r3, [sp]
 3324              	.LVL340:
 459:lvgl/src/lv_widgets/lv_canvas.c **** 
 3325              		.loc 1 459 37 view .LVU1021
 3326 01c6 53E0     		b	.L193
 3327              	.LVL341:
 3328              	.L186:
 475:lvgl/src/lv_widgets/lv_canvas.c ****             }
 3329              		.loc 1 475 17 is_stmt 1 view .LVU1022
 3330 01c8 5346     		mov	r3, r10	@ movhi
 3331 01ca 049A     		ldr	r2, [sp, #16]
 3332              	.LVL342:
 475:lvgl/src/lv_widgets/lv_canvas.c ****             }
 3333              		.loc 1 475 17 is_stmt 0 view .LVU1023
 3334 01cc 2946     		mov	r1, r5
 3335 01ce 0398     		ldr	r0, [sp, #12]
 3336 01d0 1830     		adds	r0, r0, #24
 3337 01d2 FFF7FEFF 		bl	lv_img_buf_set_px_color
 3338              	.LVL343:
 3339              	.L185:
 477:lvgl/src/lv_widgets/lv_canvas.c **** 
 3340              		.loc 1 477 13 is_stmt 1 view .LVU1024
 477:lvgl/src/lv_widgets/lv_canvas.c **** 
 3341              		.loc 1 477 15 is_stmt 0 view .LVU1025
 3342 01d6 002F     		cmp	r7, #0
 3343 01d8 65D1     		bne	.L208
 3344              	.L187:
 479:lvgl/src/lv_widgets/lv_canvas.c ****             x_safe = x_safe < 0 ? 0 : x_safe;
 3345              		.loc 1 479 13 is_stmt 1 view .LVU1026
 479:lvgl/src/lv_widgets/lv_canvas.c ****             x_safe = x_safe < 0 ? 0 : x_safe;
 3346              		.loc 1 479 24 is_stmt 0 view .LVU1027
 3347 01da ADB2     		uxth	r5, r5
 479:lvgl/src/lv_widgets/lv_canvas.c ****             x_safe = x_safe < 0 ? 0 : x_safe;
 3348              		.loc 1 479 24 view .LVU1028
 3349 01dc 059B     		ldr	r3, [sp, #20]
 3350 01de EE1A     		subs	r6, r5, r3
 479:lvgl/src/lv_widgets/lv_canvas.c ****             x_safe = x_safe < 0 ? 0 : x_safe;
 3351              		.loc 1 479 20 view .LVU1029
 3352 01e0 36B2     		sxth	r6, r6
ARM GAS  D:\Temp\cc0vPyDE.s 			page 120


 3353              	.LVL344:
 480:lvgl/src/lv_widgets/lv_canvas.c ****             c = lv_img_buf_get_px_color(&line_img, x_safe, 0, color);
 3354              		.loc 1 480 13 is_stmt 1 view .LVU1030
 480:lvgl/src/lv_widgets/lv_canvas.c ****             c = lv_img_buf_get_px_color(&line_img, x_safe, 0, color);
 3355              		.loc 1 480 20 is_stmt 0 view .LVU1031
 3356 01e2 26EAE676 		bic	r6, r6, r6, asr #31
 3357              	.LVL345:
 481:lvgl/src/lv_widgets/lv_canvas.c ****             if(has_alpha) opa = lv_img_buf_get_px_alpha(&line_img, x_safe, 0);
 3358              		.loc 1 481 13 is_stmt 1 view .LVU1032
 481:lvgl/src/lv_widgets/lv_canvas.c ****             if(has_alpha) opa = lv_img_buf_get_px_alpha(&line_img, x_safe, 0);
 3359              		.loc 1 481 17 is_stmt 0 view .LVU1033
 3360 01e6 BDF82C30 		ldrh	r3, [sp, #44]
 3361 01ea 0022     		movs	r2, #0
 3362 01ec 3146     		mov	r1, r6
 3363 01ee 0DA8     		add	r0, sp, #52
 3364 01f0 FFF7FEFF 		bl	lv_img_buf_get_px_color
 3365              	.LVL346:
 3366 01f4 8246     		mov	r10, r0	@ movhi
 3367              	.LVL347:
 482:lvgl/src/lv_widgets/lv_canvas.c **** 
 3368              		.loc 1 482 13 is_stmt 1 view .LVU1034
 482:lvgl/src/lv_widgets/lv_canvas.c **** 
 3369              		.loc 1 482 15 is_stmt 0 view .LVU1035
 3370 01f6 002F     		cmp	r7, #0
 3371 01f8 5DD1     		bne	.L209
 3372              	.L188:
 484:lvgl/src/lv_widgets/lv_canvas.c **** #if LV_COLOR_DEPTH == 16 && LV_COLOR_16_SWAP
 3373              		.loc 1 484 13 is_stmt 1 view .LVU1036
 3374              	.LVL348:
 484:lvgl/src/lv_widgets/lv_canvas.c **** #if LV_COLOR_DEPTH == 16 && LV_COLOR_16_SWAP
 3375              		.loc 1 484 25 is_stmt 0 view .LVU1037
 3376 01fa CAF3C423 		ubfx	r3, r10, #11, #5
 484:lvgl/src/lv_widgets/lv_canvas.c **** #if LV_COLOR_DEPTH == 16 && LV_COLOR_16_SWAP
 3377              		.loc 1 484 18 view .LVU1038
 3378 01fe ABEB030B 		sub	fp, fp, r3
 3379              	.LVL349:
 488:lvgl/src/lv_widgets/lv_canvas.c **** #endif
 3380              		.loc 1 488 13 is_stmt 1 view .LVU1039
 488:lvgl/src/lv_widgets/lv_canvas.c **** #endif
 3381              		.loc 1 488 25 is_stmt 0 view .LVU1040
 3382 0202 CAF34513 		ubfx	r3, r10, #5, #6
 488:lvgl/src/lv_widgets/lv_canvas.c **** #endif
 3383              		.loc 1 488 18 view .LVU1041
 3384 0206 A9EB0309 		sub	r9, r9, r3
 3385              	.LVL350:
 490:lvgl/src/lv_widgets/lv_canvas.c ****             if(has_alpha) asum -= opa;
 3386              		.loc 1 490 13 is_stmt 1 view .LVU1042
 490:lvgl/src/lv_widgets/lv_canvas.c ****             if(has_alpha) asum -= opa;
 3387              		.loc 1 490 25 is_stmt 0 view .LVU1043
 3388 020a 0AF01F0A 		and	r10, r10, #31
 3389              	.LVL351:
 490:lvgl/src/lv_widgets/lv_canvas.c ****             if(has_alpha) asum -= opa;
 3390              		.loc 1 490 18 view .LVU1044
 3391 020e A4EB0A04 		sub	r4, r4, r10
 3392              	.LVL352:
 491:lvgl/src/lv_widgets/lv_canvas.c **** 
 3393              		.loc 1 491 13 is_stmt 1 view .LVU1045
ARM GAS  D:\Temp\cc0vPyDE.s 			page 121


 491:lvgl/src/lv_widgets/lv_canvas.c **** 
 3394              		.loc 1 491 15 is_stmt 0 view .LVU1046
 3395 0212 1FB1     		cbz	r7, .L189
 491:lvgl/src/lv_widgets/lv_canvas.c **** 
 3396              		.loc 1 491 27 is_stmt 1 discriminator 1 view .LVU1047
 491:lvgl/src/lv_widgets/lv_canvas.c **** 
 3397              		.loc 1 491 32 is_stmt 0 discriminator 1 view .LVU1048
 3398 0214 009B     		ldr	r3, [sp]
 3399 0216 019A     		ldr	r2, [sp, #4]
 3400 0218 9B1A     		subs	r3, r3, r2
 3401 021a 0093     		str	r3, [sp]
 3402              	.LVL353:
 3403              	.L189:
 493:lvgl/src/lv_widgets/lv_canvas.c ****             x_safe = x_safe > ext->dsc.header.w - 1 ? ext->dsc.header.w - 1 : x_safe;
 3404              		.loc 1 493 13 is_stmt 1 view .LVU1049
 493:lvgl/src/lv_widgets/lv_canvas.c ****             x_safe = x_safe > ext->dsc.header.w - 1 ? ext->dsc.header.w - 1 : x_safe;
 3405              		.loc 1 493 28 is_stmt 0 view .LVU1050
 3406 021c 029B     		ldr	r3, [sp, #8]
 3407 021e EE18     		adds	r6, r5, r3
 3408              	.LVL354:
 493:lvgl/src/lv_widgets/lv_canvas.c ****             x_safe = x_safe > ext->dsc.header.w - 1 ? ext->dsc.header.w - 1 : x_safe;
 3409              		.loc 1 493 28 view .LVU1051
 3410 0220 0136     		adds	r6, r6, #1
 493:lvgl/src/lv_widgets/lv_canvas.c ****             x_safe = x_safe > ext->dsc.header.w - 1 ? ext->dsc.header.w - 1 : x_safe;
 3411              		.loc 1 493 20 view .LVU1052
 3412 0222 36B2     		sxth	r6, r6
 3413              	.LVL355:
 494:lvgl/src/lv_widgets/lv_canvas.c ****             c = lv_img_buf_get_px_color(&line_img, x_safe, 0, LV_COLOR_RED);
 3414              		.loc 1 494 13 is_stmt 1 view .LVU1053
 494:lvgl/src/lv_widgets/lv_canvas.c ****             c = lv_img_buf_get_px_color(&line_img, x_safe, 0, LV_COLOR_RED);
 3415              		.loc 1 494 46 is_stmt 0 view .LVU1054
 3416 0224 039B     		ldr	r3, [sp, #12]
 3417 0226 9B69     		ldr	r3, [r3, #24]
 3418 0228 C3F38A23 		ubfx	r3, r3, #10, #11
 494:lvgl/src/lv_widgets/lv_canvas.c ****             c = lv_img_buf_get_px_color(&line_img, x_safe, 0, LV_COLOR_RED);
 3419              		.loc 1 494 20 view .LVU1055
 3420 022c B342     		cmp	r3, r6
 3421 022e 00DC     		bgt	.L190
 494:lvgl/src/lv_widgets/lv_canvas.c ****             c = lv_img_buf_get_px_color(&line_img, x_safe, 0, LV_COLOR_RED);
 3422              		.loc 1 494 20 discriminator 1 view .LVU1056
 3423 0230 5E1E     		subs	r6, r3, #1
 3424              	.LVL356:
 3425              	.L190:
 495:lvgl/src/lv_widgets/lv_canvas.c ****             if(has_alpha) opa = lv_img_buf_get_px_alpha(&line_img, x_safe, 0);
 3426              		.loc 1 495 13 is_stmt 1 discriminator 4 view .LVU1057
 495:lvgl/src/lv_widgets/lv_canvas.c ****             if(has_alpha) opa = lv_img_buf_get_px_alpha(&line_img, x_safe, 0);
 3427              		.loc 1 495 63 is_stmt 0 discriminator 4 view .LVU1058
 3428 0232 6FF30408 		bfc	r8, #0, #5
 3429 0236 6FF34A18 		bfc	r8, #5, #6
 3430 023a 48F47843 		orr	r3, r8, #63488
 3431 023e 9846     		mov	r8, r3	@ movhi
 495:lvgl/src/lv_widgets/lv_canvas.c ****             if(has_alpha) opa = lv_img_buf_get_px_alpha(&line_img, x_safe, 0);
 3432              		.loc 1 495 17 discriminator 4 view .LVU1059
 3433 0240 0022     		movs	r2, #0
 3434 0242 3146     		mov	r1, r6
 3435 0244 0DA8     		add	r0, sp, #52
 3436 0246 FFF7FEFF 		bl	lv_img_buf_get_px_color
ARM GAS  D:\Temp\cc0vPyDE.s 			page 122


 3437              	.LVL357:
 3438 024a 8246     		mov	r10, r0	@ movhi
 496:lvgl/src/lv_widgets/lv_canvas.c **** 
 3439              		.loc 1 496 13 is_stmt 1 discriminator 4 view .LVU1060
 496:lvgl/src/lv_widgets/lv_canvas.c **** 
 3440              		.loc 1 496 15 is_stmt 0 discriminator 4 view .LVU1061
 3441 024c 002F     		cmp	r7, #0
 3442 024e 39D1     		bne	.L210
 3443              	.L191:
 498:lvgl/src/lv_widgets/lv_canvas.c **** #if LV_COLOR_DEPTH == 16 && LV_COLOR_16_SWAP
 3444              		.loc 1 498 13 is_stmt 1 view .LVU1062
 3445              	.LVL358:
 498:lvgl/src/lv_widgets/lv_canvas.c **** #if LV_COLOR_DEPTH == 16 && LV_COLOR_16_SWAP
 3446              		.loc 1 498 25 is_stmt 0 view .LVU1063
 3447 0250 CAF3C423 		ubfx	r3, r10, #11, #5
 498:lvgl/src/lv_widgets/lv_canvas.c **** #if LV_COLOR_DEPTH == 16 && LV_COLOR_16_SWAP
 3448              		.loc 1 498 18 view .LVU1064
 3449 0254 9B44     		add	fp, fp, r3
 3450              	.LVL359:
 502:lvgl/src/lv_widgets/lv_canvas.c **** #endif
 3451              		.loc 1 502 13 is_stmt 1 view .LVU1065
 502:lvgl/src/lv_widgets/lv_canvas.c **** #endif
 3452              		.loc 1 502 25 is_stmt 0 view .LVU1066
 3453 0256 CAF34513 		ubfx	r3, r10, #5, #6
 502:lvgl/src/lv_widgets/lv_canvas.c **** #endif
 3454              		.loc 1 502 18 view .LVU1067
 3455 025a 9944     		add	r9, r9, r3
 3456              	.LVL360:
 504:lvgl/src/lv_widgets/lv_canvas.c ****             if(has_alpha) asum += opa;
 3457              		.loc 1 504 13 is_stmt 1 view .LVU1068
 504:lvgl/src/lv_widgets/lv_canvas.c ****             if(has_alpha) asum += opa;
 3458              		.loc 1 504 25 is_stmt 0 view .LVU1069
 3459 025c 0AF01F03 		and	r3, r10, #31
 504:lvgl/src/lv_widgets/lv_canvas.c ****             if(has_alpha) asum += opa;
 3460              		.loc 1 504 18 view .LVU1070
 3461 0260 1C44     		add	r4, r4, r3
 3462              	.LVL361:
 505:lvgl/src/lv_widgets/lv_canvas.c ****         }
 3463              		.loc 1 505 13 is_stmt 1 view .LVU1071
 505:lvgl/src/lv_widgets/lv_canvas.c ****         }
 3464              		.loc 1 505 15 is_stmt 0 view .LVU1072
 3465 0262 1FB1     		cbz	r7, .L192
 505:lvgl/src/lv_widgets/lv_canvas.c ****         }
 3466              		.loc 1 505 27 is_stmt 1 discriminator 1 view .LVU1073
 505:lvgl/src/lv_widgets/lv_canvas.c ****         }
 3467              		.loc 1 505 32 is_stmt 0 discriminator 1 view .LVU1074
 3468 0264 009B     		ldr	r3, [sp]
 3469 0266 019A     		ldr	r2, [sp, #4]
 3470 0268 1344     		add	r3, r3, r2
 3471 026a 0093     		str	r3, [sp]
 3472              	.LVL362:
 3473              	.L192:
 461:lvgl/src/lv_widgets/lv_canvas.c **** 
 3474              		.loc 1 461 35 discriminator 2 view .LVU1075
 3475 026c 0135     		adds	r5, r5, #1
 3476              	.LVL363:
 461:lvgl/src/lv_widgets/lv_canvas.c **** 
ARM GAS  D:\Temp\cc0vPyDE.s 			page 123


 3477              		.loc 1 461 35 discriminator 2 view .LVU1076
 3478 026e 2DB2     		sxth	r5, r5
 3479              	.LVL364:
 3480              	.L193:
 461:lvgl/src/lv_widgets/lv_canvas.c **** 
 3481              		.loc 1 461 29 discriminator 1 view .LVU1077
 3482 0270 BDF94430 		ldrsh	r3, [sp, #68]
 461:lvgl/src/lv_widgets/lv_canvas.c **** 
 3483              		.loc 1 461 9 discriminator 1 view .LVU1078
 3484 0274 AB42     		cmp	r3, r5
 3485 0276 2CDB     		blt	.L211
 463:lvgl/src/lv_widgets/lv_canvas.c ****                 c.ch.red = rsum / r;
 3486              		.loc 1 463 13 is_stmt 1 view .LVU1079
 463:lvgl/src/lv_widgets/lv_canvas.c ****                 c.ch.red = rsum / r;
 3487              		.loc 1 463 15 is_stmt 0 view .LVU1080
 3488 0278 009A     		ldr	r2, [sp]
 3489 027a 002A     		cmp	r2, #0
 3490 027c ABD0     		beq	.L185
 464:lvgl/src/lv_widgets/lv_canvas.c **** #if LV_COLOR_DEPTH == 16 && LV_COLOR_16_SWAP
 3491              		.loc 1 464 17 is_stmt 1 view .LVU1081
 464:lvgl/src/lv_widgets/lv_canvas.c **** #if LV_COLOR_DEPTH == 16 && LV_COLOR_16_SWAP
 3492              		.loc 1 464 33 is_stmt 0 view .LVU1082
 3493 027e 0699     		ldr	r1, [sp, #24]
 3494 0280 BBFBF1F3 		udiv	r3, fp, r1
 464:lvgl/src/lv_widgets/lv_canvas.c **** #if LV_COLOR_DEPTH == 16 && LV_COLOR_16_SWAP
 3495              		.loc 1 464 26 view .LVU1083
 3496 0284 63F3CF2A 		bfi	r10, r3, #11, #5
 470:lvgl/src/lv_widgets/lv_canvas.c **** #endif
 3497              		.loc 1 470 17 is_stmt 1 view .LVU1084
 470:lvgl/src/lv_widgets/lv_canvas.c **** #endif
 3498              		.loc 1 470 35 is_stmt 0 view .LVU1085
 3499 0288 B9FBF1F3 		udiv	r3, r9, r1
 470:lvgl/src/lv_widgets/lv_canvas.c **** #endif
 3500              		.loc 1 470 28 view .LVU1086
 3501 028c 63F34A1A 		bfi	r10, r3, #5, #6
 472:lvgl/src/lv_widgets/lv_canvas.c ****                 if(has_alpha) opa = asum / r;
 3502              		.loc 1 472 17 is_stmt 1 view .LVU1087
 472:lvgl/src/lv_widgets/lv_canvas.c ****                 if(has_alpha) opa = asum / r;
 3503              		.loc 1 472 34 is_stmt 0 view .LVU1088
 3504 0290 B4FBF1F3 		udiv	r3, r4, r1
 472:lvgl/src/lv_widgets/lv_canvas.c ****                 if(has_alpha) opa = asum / r;
 3505              		.loc 1 472 27 view .LVU1089
 3506 0294 63F3040A 		bfi	r10, r3, #0, #5
 473:lvgl/src/lv_widgets/lv_canvas.c **** 
 3507              		.loc 1 473 17 is_stmt 1 view .LVU1090
 473:lvgl/src/lv_widgets/lv_canvas.c **** 
 3508              		.loc 1 473 19 is_stmt 0 view .LVU1091
 3509 0298 002F     		cmp	r7, #0
 3510 029a 95D0     		beq	.L186
 473:lvgl/src/lv_widgets/lv_canvas.c **** 
 3511              		.loc 1 473 31 is_stmt 1 discriminator 1 view .LVU1092
 473:lvgl/src/lv_widgets/lv_canvas.c **** 
 3512              		.loc 1 473 42 is_stmt 0 discriminator 1 view .LVU1093
 3513 029c B2FBF1F3 		udiv	r3, r2, r1
 473:lvgl/src/lv_widgets/lv_canvas.c **** 
 3514              		.loc 1 473 35 discriminator 1 view .LVU1094
 3515 02a0 DBB2     		uxtb	r3, r3
ARM GAS  D:\Temp\cc0vPyDE.s 			page 124


 3516 02a2 0193     		str	r3, [sp, #4]
 3517              	.LVL365:
 473:lvgl/src/lv_widgets/lv_canvas.c **** 
 3518              		.loc 1 473 35 discriminator 1 view .LVU1095
 3519 02a4 90E7     		b	.L186
 3520              	.L208:
 477:lvgl/src/lv_widgets/lv_canvas.c **** 
 3521              		.loc 1 477 27 is_stmt 1 discriminator 1 view .LVU1096
 3522 02a6 019B     		ldr	r3, [sp, #4]
 3523 02a8 049A     		ldr	r2, [sp, #16]
 3524 02aa 2946     		mov	r1, r5
 3525 02ac 0398     		ldr	r0, [sp, #12]
 3526 02ae 1830     		adds	r0, r0, #24
 3527 02b0 FFF7FEFF 		bl	lv_img_buf_set_px_alpha
 3528              	.LVL366:
 3529 02b4 91E7     		b	.L187
 3530              	.LVL367:
 3531              	.L209:
 482:lvgl/src/lv_widgets/lv_canvas.c **** 
 3532              		.loc 1 482 27 discriminator 1 view .LVU1097
 482:lvgl/src/lv_widgets/lv_canvas.c **** 
 3533              		.loc 1 482 33 is_stmt 0 discriminator 1 view .LVU1098
 3534 02b6 0022     		movs	r2, #0
 3535 02b8 3146     		mov	r1, r6
 3536 02ba 0DA8     		add	r0, sp, #52
 3537 02bc FFF7FEFF 		bl	lv_img_buf_get_px_alpha
 3538              	.LVL368:
 3539 02c0 0190     		str	r0, [sp, #4]
 3540              	.LVL369:
 482:lvgl/src/lv_widgets/lv_canvas.c **** 
 3541              		.loc 1 482 33 discriminator 1 view .LVU1099
 3542 02c2 9AE7     		b	.L188
 3543              	.L210:
 496:lvgl/src/lv_widgets/lv_canvas.c **** 
 3544              		.loc 1 496 27 is_stmt 1 discriminator 1 view .LVU1100
 496:lvgl/src/lv_widgets/lv_canvas.c **** 
 3545              		.loc 1 496 33 is_stmt 0 discriminator 1 view .LVU1101
 3546 02c4 0022     		movs	r2, #0
 3547 02c6 3146     		mov	r1, r6
 3548 02c8 0DA8     		add	r0, sp, #52
 3549 02ca FFF7FEFF 		bl	lv_img_buf_get_px_alpha
 3550              	.LVL370:
 3551 02ce 0190     		str	r0, [sp, #4]
 3552              	.LVL371:
 496:lvgl/src/lv_widgets/lv_canvas.c **** 
 3553              		.loc 1 496 33 discriminator 1 view .LVU1102
 3554 02d0 BEE7     		b	.L191
 3555              	.LVL372:
 3556              	.L211:
 496:lvgl/src/lv_widgets/lv_canvas.c **** 
 3557              		.loc 1 496 33 discriminator 1 view .LVU1103
 3558              	.LBE137:
 431:lvgl/src/lv_widgets/lv_canvas.c ****         uint32_t asum = 0;
 3559              		.loc 1 431 31 discriminator 2 view .LVU1104
 3560 02d2 049B     		ldr	r3, [sp, #16]
 3561 02d4 0133     		adds	r3, r3, #1
 3562 02d6 1BB2     		sxth	r3, r3
ARM GAS  D:\Temp\cc0vPyDE.s 			page 125


 3563 02d8 0493     		str	r3, [sp, #16]
 3564              	.LVL373:
 3565              	.L177:
 431:lvgl/src/lv_widgets/lv_canvas.c ****         uint32_t asum = 0;
 3566              		.loc 1 431 25 discriminator 1 view .LVU1105
 3567 02da BDF94630 		ldrsh	r3, [sp, #70]
 431:lvgl/src/lv_widgets/lv_canvas.c ****         uint32_t asum = 0;
 3568              		.loc 1 431 5 discriminator 1 view .LVU1106
 3569 02de 049A     		ldr	r2, [sp, #16]
 3570 02e0 9342     		cmp	r3, r2
 3571 02e2 1BDB     		blt	.L212
 3572              	.LBB138:
 432:lvgl/src/lv_widgets/lv_canvas.c ****         uint32_t rsum = 0;
 3573              		.loc 1 432 9 is_stmt 1 view .LVU1107
 3574              	.LVL374:
 433:lvgl/src/lv_widgets/lv_canvas.c ****         uint32_t gsum = 0;
 3575              		.loc 1 433 9 view .LVU1108
 434:lvgl/src/lv_widgets/lv_canvas.c ****         uint32_t bsum = 0;
 3576              		.loc 1 434 9 view .LVU1109
 435:lvgl/src/lv_widgets/lv_canvas.c **** 
 3577              		.loc 1 435 9 view .LVU1110
 437:lvgl/src/lv_widgets/lv_canvas.c ****         lv_opa_t opa = LV_OPA_TRANSP;
 3578              		.loc 1 437 9 view .LVU1111
 438:lvgl/src/lv_widgets/lv_canvas.c ****         _lv_memcpy(line_buf, &ext->dsc.data[y * line_w], line_w);
 3579              		.loc 1 438 9 view .LVU1112
 439:lvgl/src/lv_widgets/lv_canvas.c **** 
 3580              		.loc 1 439 9 view .LVU1113
 439:lvgl/src/lv_widgets/lv_canvas.c **** 
 3581              		.loc 1 439 39 is_stmt 0 view .LVU1114
 3582 02e4 039D     		ldr	r5, [sp, #12]
 3583 02e6 296A     		ldr	r1, [r5, #32]
 439:lvgl/src/lv_widgets/lv_canvas.c **** 
 3584              		.loc 1 439 9 view .LVU1115
 3585 02e8 099A     		ldr	r2, [sp, #36]
 3586 02ea 049B     		ldr	r3, [sp, #16]
 3587 02ec 0A98     		ldr	r0, [sp, #40]
 3588 02ee 00FB0311 		mla	r1, r0, r3, r1
 3589 02f2 0898     		ldr	r0, [sp, #32]
 3590 02f4 FFF7FEFF 		bl	_lv_memcpy
 3591              	.LVL375:
 441:lvgl/src/lv_widgets/lv_canvas.c ****             x_safe = x < 0 ? 0 : x;
 3592              		.loc 1 441 9 is_stmt 1 view .LVU1116
 441:lvgl/src/lv_widgets/lv_canvas.c ****             x_safe = x < 0 ? 0 : x;
 3593              		.loc 1 441 18 is_stmt 0 view .LVU1117
 3594 02f8 BDF84060 		ldrh	r6, [sp, #64]
 441:lvgl/src/lv_widgets/lv_canvas.c ****             x_safe = x < 0 ? 0 : x;
 3595              		.loc 1 441 22 view .LVU1118
 3596 02fc 059B     		ldr	r3, [sp, #20]
 3597 02fe F61A     		subs	r6, r6, r3
 441:lvgl/src/lv_widgets/lv_canvas.c ****             x_safe = x < 0 ? 0 : x;
 3598              		.loc 1 441 15 view .LVU1119
 3599 0300 36B2     		sxth	r6, r6
 3600              	.LVL376:
 438:lvgl/src/lv_widgets/lv_canvas.c ****         _lv_memcpy(line_buf, &ext->dsc.data[y * line_w], line_w);
 3601              		.loc 1 438 18 view .LVU1120
 3602 0302 0023     		movs	r3, #0
 3603 0304 0193     		str	r3, [sp, #4]
ARM GAS  D:\Temp\cc0vPyDE.s 			page 126


 435:lvgl/src/lv_widgets/lv_canvas.c **** 
 3604              		.loc 1 435 18 view .LVU1121
 3605 0306 1C46     		mov	r4, r3
 434:lvgl/src/lv_widgets/lv_canvas.c ****         uint32_t bsum = 0;
 3606              		.loc 1 434 18 view .LVU1122
 3607 0308 9946     		mov	r9, r3
 433:lvgl/src/lv_widgets/lv_canvas.c ****         uint32_t gsum = 0;
 3608              		.loc 1 433 18 view .LVU1123
 3609 030a 9B46     		mov	fp, r3
 432:lvgl/src/lv_widgets/lv_canvas.c ****         uint32_t rsum = 0;
 3610              		.loc 1 432 18 view .LVU1124
 3611 030c 0093     		str	r3, [sp]
 3612 030e ADF82E80 		strh	r8, [sp, #46]	@ movhi
 3613 0312 A846     		mov	r8, r5
 441:lvgl/src/lv_widgets/lv_canvas.c ****             x_safe = x < 0 ? 0 : x;
 3614              		.loc 1 441 9 view .LVU1125
 3615 0314 28E7     		b	.L178
 3616              	.L214:
 3617 0316 00BF     		.align	2
 3618              	.L213:
 3619 0318 00000000 		.word	.LC2
 3620              	.LVL377:
 3621              	.L212:
 441:lvgl/src/lv_widgets/lv_canvas.c ****             x_safe = x < 0 ? 0 : x;
 3622              		.loc 1 441 9 view .LVU1126
 3623              	.LBE138:
 508:lvgl/src/lv_widgets/lv_canvas.c **** 
 3624              		.loc 1 508 5 is_stmt 1 view .LVU1127
 3625 031c 0798     		ldr	r0, [sp, #28]
 3626 031e FFF7FEFF 		bl	lv_obj_invalidate
 3627              	.LVL378:
 510:lvgl/src/lv_widgets/lv_canvas.c **** }
 3628              		.loc 1 510 5 view .LVU1128
 3629 0322 0898     		ldr	r0, [sp, #32]
 3630 0324 FFF7FEFF 		bl	_lv_mem_buf_release
 3631              	.LVL379:
 3632 0328 75E6     		b	.L164
 3633              		.cfi_endproc
 3634              	.LFE466:
 3636 032a 00BF     		.section	.text.lv_canvas_blur_ver,"ax",%progbits
 3637              		.align	1
 3638              		.global	lv_canvas_blur_ver
 3639              		.syntax unified
 3640              		.thumb
 3641              		.thumb_func
 3642              		.fpu fpv4-sp-d16
 3644              	lv_canvas_blur_ver:
 3645              	.LVL380:
 3646              	.LFB467:
 520:lvgl/src/lv_widgets/lv_canvas.c ****     LV_ASSERT_OBJ(canvas, LV_OBJX_NAME);
 3647              		.loc 1 520 1 view -0
 3648              		.cfi_startproc
 3649              		@ args = 0, pretend = 0, frame = 72
 3650              		@ frame_needed = 0, uses_anonymous_args = 0
 520:lvgl/src/lv_widgets/lv_canvas.c ****     LV_ASSERT_OBJ(canvas, LV_OBJX_NAME);
 3651              		.loc 1 520 1 is_stmt 0 view .LVU1130
 3652 0000 2DE9F04F 		push	{r4, r5, r6, r7, r8, r9, r10, fp, lr}
ARM GAS  D:\Temp\cc0vPyDE.s 			page 127


 3653              	.LCFI36:
 3654              		.cfi_def_cfa_offset 36
 3655              		.cfi_offset 4, -36
 3656              		.cfi_offset 5, -32
 3657              		.cfi_offset 6, -28
 3658              		.cfi_offset 7, -24
 3659              		.cfi_offset 8, -20
 3660              		.cfi_offset 9, -16
 3661              		.cfi_offset 10, -12
 3662              		.cfi_offset 11, -8
 3663              		.cfi_offset 14, -4
 3664 0004 93B0     		sub	sp, sp, #76
 3665              	.LCFI37:
 3666              		.cfi_def_cfa_offset 112
 3667 0006 0A90     		str	r0, [sp, #40]
 3668 0008 0C46     		mov	r4, r1
 3669 000a 0992     		str	r2, [sp, #36]
 521:lvgl/src/lv_widgets/lv_canvas.c **** 
 3670              		.loc 1 521 5 is_stmt 1 view .LVU1131
 521:lvgl/src/lv_widgets/lv_canvas.c **** 
 3671              		.loc 1 521 5 view .LVU1132
 3672 000c FFF7FEFF 		bl	lv_debug_check_null
 3673              	.LVL381:
 521:lvgl/src/lv_widgets/lv_canvas.c **** 
 3674              		.loc 1 521 5 is_stmt 0 view .LVU1133
 3675 0010 20B1     		cbz	r0, .L254
 521:lvgl/src/lv_widgets/lv_canvas.c **** 
 3676              		.loc 1 521 40 is_stmt 1 discriminator 2 view .LVU1134
 523:lvgl/src/lv_widgets/lv_canvas.c **** 
 3677              		.loc 1 523 5 discriminator 2 view .LVU1135
 523:lvgl/src/lv_widgets/lv_canvas.c **** 
 3678              		.loc 1 523 7 is_stmt 0 discriminator 2 view .LVU1136
 3679 0012 099B     		ldr	r3, [sp, #36]
 3680 0014 43B9     		cbnz	r3, .L255
 3681              	.LVL382:
 3682              	.L215:
 650:lvgl/src/lv_widgets/lv_canvas.c **** 
 3683              		.loc 1 650 1 view .LVU1137
 3684 0016 13B0     		add	sp, sp, #76
 3685              	.LCFI38:
 3686              		.cfi_remember_state
 3687              		.cfi_def_cfa_offset 36
 3688              		@ sp needed
 3689 0018 BDE8F08F 		pop	{r4, r5, r6, r7, r8, r9, r10, fp, pc}
 3690              	.LVL383:
 3691              	.L254:
 3692              	.LCFI39:
 3693              		.cfi_restore_state
 521:lvgl/src/lv_widgets/lv_canvas.c **** 
 3694              		.loc 1 521 5 is_stmt 1 discriminator 1 view .LVU1138
 521:lvgl/src/lv_widgets/lv_canvas.c **** 
 3695              		.loc 1 521 5 discriminator 1 view .LVU1139
 3696 001c 0A9A     		ldr	r2, [sp, #40]
 3697 001e 0023     		movs	r3, #0
 3698 0020 BA48     		ldr	r0, .L268
 3699 0022 FFF7FEFF 		bl	lv_debug_log_error
 3700              	.LVL384:
ARM GAS  D:\Temp\cc0vPyDE.s 			page 128


 3701              	.L217:
 521:lvgl/src/lv_widgets/lv_canvas.c **** 
 3702              		.loc 1 521 5 discriminator 1 view .LVU1140
 521:lvgl/src/lv_widgets/lv_canvas.c **** 
 3703              		.loc 1 521 5 discriminator 1 view .LVU1141
 3704 0026 FEE7     		b	.L217
 3705              	.L255:
 525:lvgl/src/lv_widgets/lv_canvas.c **** 
 3706              		.loc 1 525 5 view .LVU1142
 525:lvgl/src/lv_widgets/lv_canvas.c **** 
 3707              		.loc 1 525 29 is_stmt 0 view .LVU1143
 3708 0028 0A98     		ldr	r0, [sp, #40]
 3709 002a FFF7FEFF 		bl	lv_obj_get_ext_attr
 3710              	.LVL385:
 3711 002e 8046     		mov	r8, r0
 3712              	.LVL386:
 527:lvgl/src/lv_widgets/lv_canvas.c ****     if(area) {
 3713              		.loc 1 527 5 is_stmt 1 view .LVU1144
 528:lvgl/src/lv_widgets/lv_canvas.c ****         lv_area_copy(&a, area);
 3714              		.loc 1 528 5 view .LVU1145
 528:lvgl/src/lv_widgets/lv_canvas.c ****         lv_area_copy(&a, area);
 3715              		.loc 1 528 7 is_stmt 0 view .LVU1146
 3716 0030 002C     		cmp	r4, #0
 3717 0032 78D0     		beq	.L256
 3718              	.LBB139:
 3719              	.LBB140:
 3720              	.LBB141:
 215:d:\_project\stm32\f407\hack_rf_new\lvgl\src\lv_misc\lv_mem.h ****     const uint8_t * s8 = (const uint8_t *)src;
 3721              		.loc 5 215 15 view .LVU1147
 3722 0034 10AA     		add	r2, sp, #64
 3723              	.LBE141:
 3724              	.LBE140:
 3725              	.LBE139:
 3726 0036 0823     		movs	r3, #8
 3727 0038 04E0     		b	.L220
 3728              	.LVL387:
 3729              	.L222:
 3730              	.LBB144:
 3731              	.LBB143:
 3732              	.LBB142:
 219:d:\_project\stm32\f407\hack_rf_new\lvgl\src\lv_misc\lv_mem.h ****         d8++;
 3733              		.loc 5 219 9 is_stmt 1 view .LVU1148
 219:d:\_project\stm32\f407\hack_rf_new\lvgl\src\lv_misc\lv_mem.h ****         d8++;
 3734              		.loc 5 219 15 is_stmt 0 view .LVU1149
 3735 003a 14F8011B 		ldrb	r1, [r4], #1	@ zero_extendqisi2
 3736              	.LVL388:
 219:d:\_project\stm32\f407\hack_rf_new\lvgl\src\lv_misc\lv_mem.h ****         d8++;
 3737              		.loc 5 219 13 view .LVU1150
 3738 003e 02F8011B 		strb	r1, [r2], #1
 3739              	.LVL389:
 220:d:\_project\stm32\f407\hack_rf_new\lvgl\src\lv_misc\lv_mem.h ****         s8++;
 3740              		.loc 5 220 9 is_stmt 1 view .LVU1151
 221:d:\_project\stm32\f407\hack_rf_new\lvgl\src\lv_misc\lv_mem.h ****         len--;
 3741              		.loc 5 221 9 view .LVU1152
 222:d:\_project\stm32\f407\hack_rf_new\lvgl\src\lv_misc\lv_mem.h ****     }
 3742              		.loc 5 222 9 view .LVU1153
 222:d:\_project\stm32\f407\hack_rf_new\lvgl\src\lv_misc\lv_mem.h ****     }
ARM GAS  D:\Temp\cc0vPyDE.s 			page 129


 3743              		.loc 5 222 12 is_stmt 0 view .LVU1154
 3744 0042 013B     		subs	r3, r3, #1
 3745              	.LVL390:
 3746              	.L220:
 218:d:\_project\stm32\f407\hack_rf_new\lvgl\src\lv_misc\lv_mem.h ****         *d8 = *s8;
 3747              		.loc 5 218 10 view .LVU1155
 3748 0044 002B     		cmp	r3, #0
 3749 0046 F8D1     		bne	.L222
 3750              		.loc 5 225 5 is_stmt 1 view .LVU1156
 3751              	.LVL391:
 3752              		.loc 5 225 5 is_stmt 0 view .LVU1157
 3753              	.LBE142:
 3754              	.LBE143:
 3755              	.LBE144:
 530:lvgl/src/lv_widgets/lv_canvas.c ****         if(a.y1 < 0) a.y1 = 0;
 3756              		.loc 1 530 9 is_stmt 1 view .LVU1158
 530:lvgl/src/lv_widgets/lv_canvas.c ****         if(a.y1 < 0) a.y1 = 0;
 3757              		.loc 1 530 13 is_stmt 0 view .LVU1159
 3758 0048 BDF94030 		ldrsh	r3, [sp, #64]
 530:lvgl/src/lv_widgets/lv_canvas.c ****         if(a.y1 < 0) a.y1 = 0;
 3759              		.loc 1 530 11 view .LVU1160
 3760 004c 002B     		cmp	r3, #0
 3761 004e 62DB     		blt	.L257
 3762              	.L223:
 531:lvgl/src/lv_widgets/lv_canvas.c ****         if(a.x2 > ext->dsc.header.w - 1) a.x2 = ext->dsc.header.w - 1;
 3763              		.loc 1 531 9 is_stmt 1 view .LVU1161
 531:lvgl/src/lv_widgets/lv_canvas.c ****         if(a.x2 > ext->dsc.header.w - 1) a.x2 = ext->dsc.header.w - 1;
 3764              		.loc 1 531 13 is_stmt 0 view .LVU1162
 3765 0050 BDF94230 		ldrsh	r3, [sp, #66]
 531:lvgl/src/lv_widgets/lv_canvas.c ****         if(a.x2 > ext->dsc.header.w - 1) a.x2 = ext->dsc.header.w - 1;
 3766              		.loc 1 531 11 view .LVU1163
 3767 0054 002B     		cmp	r3, #0
 3768 0056 62DB     		blt	.L258
 3769              	.L224:
 532:lvgl/src/lv_widgets/lv_canvas.c ****         if(a.y2 > ext->dsc.header.h - 1) a.y2 = ext->dsc.header.h - 1;
 3770              		.loc 1 532 9 is_stmt 1 view .LVU1164
 532:lvgl/src/lv_widgets/lv_canvas.c ****         if(a.y2 > ext->dsc.header.h - 1) a.y2 = ext->dsc.header.h - 1;
 3771              		.loc 1 532 34 is_stmt 0 view .LVU1165
 3772 0058 D8F81830 		ldr	r3, [r8, #24]
 3773 005c C3F38A23 		ubfx	r3, r3, #10, #11
 532:lvgl/src/lv_widgets/lv_canvas.c ****         if(a.y2 > ext->dsc.header.h - 1) a.y2 = ext->dsc.header.h - 1;
 3774              		.loc 1 532 13 view .LVU1166
 3775 0060 BDF94420 		ldrsh	r2, [sp, #68]
 532:lvgl/src/lv_widgets/lv_canvas.c ****         if(a.y2 > ext->dsc.header.h - 1) a.y2 = ext->dsc.header.h - 1;
 3776              		.loc 1 532 11 view .LVU1167
 3777 0064 9342     		cmp	r3, r2
 3778 0066 02DC     		bgt	.L225
 532:lvgl/src/lv_widgets/lv_canvas.c ****         if(a.y2 > ext->dsc.header.h - 1) a.y2 = ext->dsc.header.h - 1;
 3779              		.loc 1 532 42 is_stmt 1 discriminator 1 view .LVU1168
 532:lvgl/src/lv_widgets/lv_canvas.c ****         if(a.y2 > ext->dsc.header.h - 1) a.y2 = ext->dsc.header.h - 1;
 3780              		.loc 1 532 67 is_stmt 0 discriminator 1 view .LVU1169
 3781 0068 013B     		subs	r3, r3, #1
 532:lvgl/src/lv_widgets/lv_canvas.c ****         if(a.y2 > ext->dsc.header.h - 1) a.y2 = ext->dsc.header.h - 1;
 3782              		.loc 1 532 47 discriminator 1 view .LVU1170
 3783 006a ADF84430 		strh	r3, [sp, #68]	@ movhi
 3784              	.L225:
 533:lvgl/src/lv_widgets/lv_canvas.c ****     }
ARM GAS  D:\Temp\cc0vPyDE.s 			page 130


 3785              		.loc 1 533 9 is_stmt 1 view .LVU1171
 533:lvgl/src/lv_widgets/lv_canvas.c ****     }
 3786              		.loc 1 533 34 is_stmt 0 view .LVU1172
 3787 006e B8F81A30 		ldrh	r3, [r8, #26]
 3788 0072 5B09     		lsrs	r3, r3, #5
 533:lvgl/src/lv_widgets/lv_canvas.c ****     }
 3789              		.loc 1 533 13 view .LVU1173
 3790 0074 BDF94620 		ldrsh	r2, [sp, #70]
 533:lvgl/src/lv_widgets/lv_canvas.c ****     }
 3791              		.loc 1 533 11 view .LVU1174
 3792 0078 9342     		cmp	r3, r2
 3793 007a 02DC     		bgt	.L226
 533:lvgl/src/lv_widgets/lv_canvas.c ****     }
 3794              		.loc 1 533 42 is_stmt 1 discriminator 1 view .LVU1175
 533:lvgl/src/lv_widgets/lv_canvas.c ****     }
 3795              		.loc 1 533 67 is_stmt 0 discriminator 1 view .LVU1176
 3796 007c 013B     		subs	r3, r3, #1
 533:lvgl/src/lv_widgets/lv_canvas.c ****     }
 3797              		.loc 1 533 47 discriminator 1 view .LVU1177
 3798 007e ADF84630 		strh	r3, [sp, #70]	@ movhi
 3799              	.L226:
 542:lvgl/src/lv_widgets/lv_canvas.c **** 
 3800              		.loc 1 542 5 is_stmt 1 view .LVU1178
 3801              	.LVL392:
 3802              	.LBB145:
 3803              	.LBI145:
 3804              		.loc 3 177 1 view .LVU1179
 3805              	.LBB146:
 3806              		.loc 3 177 1 view .LVU1180
 3807 0082 48F2A902 		movw	r2, #32937
 3808 0086 0021     		movs	r1, #0
 3809 0088 0A98     		ldr	r0, [sp, #40]
 3810              	.LVL393:
 3811              		.loc 3 177 1 is_stmt 0 view .LVU1181
 3812 008a FFF7FEFF 		bl	_lv_obj_get_style_color
 3813              	.LVL394:
 3814 008e ADF80E00 		strh	r0, [sp, #14]	@ movhi
 3815              	.LVL395:
 3816              		.loc 3 177 1 view .LVU1182
 3817              	.LBE146:
 3818              	.LBE145:
 544:lvgl/src/lv_widgets/lv_canvas.c ****     uint16_t r_front = r / 2;
 3819              		.loc 1 544 5 is_stmt 1 view .LVU1183
 544:lvgl/src/lv_widgets/lv_canvas.c ****     uint16_t r_front = r / 2;
 3820              		.loc 1 544 14 is_stmt 0 view .LVU1184
 3821 0092 099A     		ldr	r2, [sp, #36]
 3822 0094 5308     		lsrs	r3, r2, #1
 3823 0096 0593     		str	r3, [sp, #20]
 3824              	.LVL396:
 545:lvgl/src/lv_widgets/lv_canvas.c **** 
 3825              		.loc 1 545 5 is_stmt 1 view .LVU1185
 547:lvgl/src/lv_widgets/lv_canvas.c **** 
 3826              		.loc 1 547 5 view .LVU1186
 547:lvgl/src/lv_widgets/lv_canvas.c **** 
 3827              		.loc 1 547 7 is_stmt 0 view .LVU1187
 3828 0098 12F0010F 		tst	r2, #1
 3829 009c 54D1     		bne	.L250
ARM GAS  D:\Temp\cc0vPyDE.s 			page 131


 547:lvgl/src/lv_widgets/lv_canvas.c **** 
 3830              		.loc 1 547 24 is_stmt 1 discriminator 1 view .LVU1188
 547:lvgl/src/lv_widgets/lv_canvas.c **** 
 3831              		.loc 1 547 30 is_stmt 0 discriminator 1 view .LVU1189
 3832 009e 013B     		subs	r3, r3, #1
 3833              	.LVL397:
 547:lvgl/src/lv_widgets/lv_canvas.c **** 
 3834              		.loc 1 547 30 discriminator 1 view .LVU1190
 3835 00a0 9BB2     		uxth	r3, r3
 3836 00a2 0693     		str	r3, [sp, #24]
 3837              	.LVL398:
 3838              	.L227:
 549:lvgl/src/lv_widgets/lv_canvas.c ****     lv_coord_t col_w = lv_img_buf_get_img_size(1, ext->dsc.header.h, ext->dsc.header.cf);
 3839              		.loc 1 549 5 is_stmt 1 view .LVU1191
 549:lvgl/src/lv_widgets/lv_canvas.c ****     lv_coord_t col_w = lv_img_buf_get_img_size(1, ext->dsc.header.h, ext->dsc.header.cf);
 3840              		.loc 1 549 57 is_stmt 0 view .LVU1192
 3841 00a4 98F81800 		ldrb	r0, [r8, #24]	@ zero_extendqisi2
 549:lvgl/src/lv_widgets/lv_canvas.c ****     lv_coord_t col_w = lv_img_buf_get_img_size(1, ext->dsc.header.h, ext->dsc.header.cf);
 3842              		.loc 1 549 22 view .LVU1193
 3843 00a8 00F01F00 		and	r0, r0, #31
 3844 00ac FFF7FEFF 		bl	lv_img_cf_has_alpha
 3845              	.LVL399:
 3846 00b0 8346     		mov	fp, r0
 3847              	.LVL400:
 550:lvgl/src/lv_widgets/lv_canvas.c ****     uint8_t * col_buf = _lv_mem_buf_get(col_w);
 3848              		.loc 1 550 5 is_stmt 1 view .LVU1194
 550:lvgl/src/lv_widgets/lv_canvas.c ****     uint8_t * col_buf = _lv_mem_buf_get(col_w);
 3849              		.loc 1 550 66 is_stmt 0 view .LVU1195
 3850 00b2 B8F81A10 		ldrh	r1, [r8, #26]
 550:lvgl/src/lv_widgets/lv_canvas.c ****     uint8_t * col_buf = _lv_mem_buf_get(col_w);
 3851              		.loc 1 550 85 view .LVU1196
 3852 00b6 98F81820 		ldrb	r2, [r8, #24]	@ zero_extendqisi2
 550:lvgl/src/lv_widgets/lv_canvas.c ****     uint8_t * col_buf = _lv_mem_buf_get(col_w);
 3853              		.loc 1 550 24 view .LVU1197
 3854 00ba 02F01F02 		and	r2, r2, #31
 3855 00be 4909     		lsrs	r1, r1, #5
 3856 00c0 0120     		movs	r0, #1
 3857 00c2 FFF7FEFF 		bl	lv_img_buf_get_img_size
 3858              	.LVL401:
 551:lvgl/src/lv_widgets/lv_canvas.c ****     lv_img_dsc_t line_img;
 3859              		.loc 1 551 5 is_stmt 1 view .LVU1198
 551:lvgl/src/lv_widgets/lv_canvas.c ****     lv_img_dsc_t line_img;
 3860              		.loc 1 551 25 is_stmt 0 view .LVU1199
 3861 00c6 00B2     		sxth	r0, r0
 551:lvgl/src/lv_widgets/lv_canvas.c ****     lv_img_dsc_t line_img;
 3862              		.loc 1 551 25 view .LVU1200
 3863 00c8 FFF7FEFF 		bl	_lv_mem_buf_get
 3864              	.LVL402:
 551:lvgl/src/lv_widgets/lv_canvas.c ****     lv_img_dsc_t line_img;
 3865              		.loc 1 551 25 view .LVU1201
 3866 00cc 0B90     		str	r0, [sp, #44]
 3867              	.LVL403:
 552:lvgl/src/lv_widgets/lv_canvas.c **** 
 3868              		.loc 1 552 5 is_stmt 1 view .LVU1202
 554:lvgl/src/lv_widgets/lv_canvas.c ****     line_img.header.always_zero = 0;
 3869              		.loc 1 554 5 view .LVU1203
 554:lvgl/src/lv_widgets/lv_canvas.c ****     line_img.header.always_zero = 0;
ARM GAS  D:\Temp\cc0vPyDE.s 			page 132


 3870              		.loc 1 554 19 is_stmt 0 view .LVU1204
 3871 00ce 0F90     		str	r0, [sp, #60]
 555:lvgl/src/lv_widgets/lv_canvas.c ****     line_img.header.w = 1;
 3872              		.loc 1 555 5 is_stmt 1 view .LVU1205
 555:lvgl/src/lv_widgets/lv_canvas.c ****     line_img.header.w = 1;
 3873              		.loc 1 555 33 is_stmt 0 view .LVU1206
 3874 00d0 9DF83430 		ldrb	r3, [sp, #52]	@ zero_extendqisi2
 3875 00d4 6FF34713 		bfc	r3, #5, #3
 3876 00d8 8DF83430 		strb	r3, [sp, #52]
 556:lvgl/src/lv_widgets/lv_canvas.c ****     line_img.header.h = ext->dsc.header.h;
 3877              		.loc 1 556 5 is_stmt 1 view .LVU1207
 556:lvgl/src/lv_widgets/lv_canvas.c ****     line_img.header.h = ext->dsc.header.h;
 3878              		.loc 1 556 23 is_stmt 0 view .LVU1208
 3879 00dc 0D9B     		ldr	r3, [sp, #52]
 3880 00de 0122     		movs	r2, #1
 3881 00e0 62F39423 		bfi	r3, r2, #10, #11
 3882 00e4 0D93     		str	r3, [sp, #52]
 557:lvgl/src/lv_widgets/lv_canvas.c ****     line_img.header.cf = ext->dsc.header.cf;
 3883              		.loc 1 557 5 is_stmt 1 view .LVU1209
 557:lvgl/src/lv_widgets/lv_canvas.c ****     line_img.header.cf = ext->dsc.header.cf;
 3884              		.loc 1 557 40 is_stmt 0 view .LVU1210
 3885 00e6 B8F81A30 		ldrh	r3, [r8, #26]
 3886 00ea 5B09     		lsrs	r3, r3, #5
 557:lvgl/src/lv_widgets/lv_canvas.c ****     line_img.header.cf = ext->dsc.header.cf;
 3887              		.loc 1 557 23 view .LVU1211
 3888 00ec BDF83620 		ldrh	r2, [sp, #54]
 3889 00f0 63F34F12 		bfi	r2, r3, #5, #11
 3890 00f4 ADF83620 		strh	r2, [sp, #54]	@ movhi
 558:lvgl/src/lv_widgets/lv_canvas.c **** 
 3891              		.loc 1 558 5 is_stmt 1 view .LVU1212
 558:lvgl/src/lv_widgets/lv_canvas.c **** 
 3892              		.loc 1 558 41 is_stmt 0 view .LVU1213
 3893 00f8 98F81820 		ldrb	r2, [r8, #24]	@ zero_extendqisi2
 558:lvgl/src/lv_widgets/lv_canvas.c **** 
 3894              		.loc 1 558 24 view .LVU1214
 3895 00fc 9DF83430 		ldrb	r3, [sp, #52]	@ zero_extendqisi2
 3896 0100 62F30403 		bfi	r3, r2, #0, #5
 3897 0104 8DF83430 		strb	r3, [sp, #52]
 560:lvgl/src/lv_widgets/lv_canvas.c ****     lv_coord_t y;
 3898              		.loc 1 560 5 is_stmt 1 view .LVU1215
 561:lvgl/src/lv_widgets/lv_canvas.c ****     lv_coord_t y_safe;
 3899              		.loc 1 561 5 view .LVU1216
 562:lvgl/src/lv_widgets/lv_canvas.c **** 
 3900              		.loc 1 562 5 view .LVU1217
 564:lvgl/src/lv_widgets/lv_canvas.c ****         uint32_t asum = 0;
 3901              		.loc 1 564 5 view .LVU1218
 564:lvgl/src/lv_widgets/lv_canvas.c ****         uint32_t asum = 0;
 3902              		.loc 1 564 11 is_stmt 0 view .LVU1219
 3903 0108 BDF94030 		ldrsh	r3, [sp, #64]
 3904 010c 0193     		str	r3, [sp, #4]
 3905              	.LVL404:
 564:lvgl/src/lv_widgets/lv_canvas.c ****         uint32_t asum = 0;
 3906              		.loc 1 564 11 view .LVU1220
 3907 010e CDF81080 		str	r8, [sp, #16]
 3908 0112 5E46     		mov	r6, fp
 564:lvgl/src/lv_widgets/lv_canvas.c ****         uint32_t asum = 0;
 3909              		.loc 1 564 5 view .LVU1221
ARM GAS  D:\Temp\cc0vPyDE.s 			page 133


 3910 0114 00E1     		b	.L228
 3911              	.LVL405:
 3912              	.L257:
 530:lvgl/src/lv_widgets/lv_canvas.c ****         if(a.y1 < 0) a.y1 = 0;
 3913              		.loc 1 530 22 is_stmt 1 discriminator 1 view .LVU1222
 530:lvgl/src/lv_widgets/lv_canvas.c ****         if(a.y1 < 0) a.y1 = 0;
 3914              		.loc 1 530 27 is_stmt 0 discriminator 1 view .LVU1223
 3915 0116 0023     		movs	r3, #0
 3916 0118 ADF84030 		strh	r3, [sp, #64]	@ movhi
 3917 011c 98E7     		b	.L223
 3918              	.L258:
 531:lvgl/src/lv_widgets/lv_canvas.c ****         if(a.x2 > ext->dsc.header.w - 1) a.x2 = ext->dsc.header.w - 1;
 3919              		.loc 1 531 22 is_stmt 1 discriminator 1 view .LVU1224
 531:lvgl/src/lv_widgets/lv_canvas.c ****         if(a.x2 > ext->dsc.header.w - 1) a.x2 = ext->dsc.header.w - 1;
 3920              		.loc 1 531 27 is_stmt 0 discriminator 1 view .LVU1225
 3921 011e 0023     		movs	r3, #0
 3922 0120 ADF84230 		strh	r3, [sp, #66]	@ movhi
 3923 0124 98E7     		b	.L224
 3924              	.LVL406:
 3925              	.L256:
 536:lvgl/src/lv_widgets/lv_canvas.c ****         a.y1 = 0;
 3926              		.loc 1 536 9 is_stmt 1 view .LVU1226
 536:lvgl/src/lv_widgets/lv_canvas.c ****         a.y1 = 0;
 3927              		.loc 1 536 14 is_stmt 0 view .LVU1227
 3928 0126 0023     		movs	r3, #0
 3929 0128 ADF84030 		strh	r3, [sp, #64]	@ movhi
 537:lvgl/src/lv_widgets/lv_canvas.c ****         a.x2 = ext->dsc.header.w - 1;
 3930              		.loc 1 537 9 is_stmt 1 view .LVU1228
 537:lvgl/src/lv_widgets/lv_canvas.c ****         a.x2 = ext->dsc.header.w - 1;
 3931              		.loc 1 537 14 is_stmt 0 view .LVU1229
 3932 012c ADF84230 		strh	r3, [sp, #66]	@ movhi
 538:lvgl/src/lv_widgets/lv_canvas.c ****         a.y2 = ext->dsc.header.h - 1;
 3933              		.loc 1 538 9 is_stmt 1 view .LVU1230
 538:lvgl/src/lv_widgets/lv_canvas.c ****         a.y2 = ext->dsc.header.h - 1;
 3934              		.loc 1 538 31 is_stmt 0 view .LVU1231
 3935 0130 8369     		ldr	r3, [r0, #24]
 3936 0132 C3F38A23 		ubfx	r3, r3, #10, #11
 538:lvgl/src/lv_widgets/lv_canvas.c ****         a.y2 = ext->dsc.header.h - 1;
 3937              		.loc 1 538 34 view .LVU1232
 3938 0136 013B     		subs	r3, r3, #1
 538:lvgl/src/lv_widgets/lv_canvas.c ****         a.y2 = ext->dsc.header.h - 1;
 3939              		.loc 1 538 14 view .LVU1233
 3940 0138 ADF84430 		strh	r3, [sp, #68]	@ movhi
 539:lvgl/src/lv_widgets/lv_canvas.c ****     }
 3941              		.loc 1 539 9 is_stmt 1 view .LVU1234
 539:lvgl/src/lv_widgets/lv_canvas.c ****     }
 3942              		.loc 1 539 31 is_stmt 0 view .LVU1235
 3943 013c 438B     		ldrh	r3, [r0, #26]
 3944 013e 5B09     		lsrs	r3, r3, #5
 539:lvgl/src/lv_widgets/lv_canvas.c ****     }
 3945              		.loc 1 539 34 view .LVU1236
 3946 0140 013B     		subs	r3, r3, #1
 539:lvgl/src/lv_widgets/lv_canvas.c ****     }
 3947              		.loc 1 539 14 view .LVU1237
 3948 0142 ADF84630 		strh	r3, [sp, #70]	@ movhi
 3949 0146 9CE7     		b	.L226
 3950              	.LVL407:
ARM GAS  D:\Temp\cc0vPyDE.s 			page 134


 3951              	.L250:
 544:lvgl/src/lv_widgets/lv_canvas.c ****     uint16_t r_front = r / 2;
 3952              		.loc 1 544 14 view .LVU1238
 3953 0148 059B     		ldr	r3, [sp, #20]
 3954              	.LVL408:
 544:lvgl/src/lv_widgets/lv_canvas.c ****     uint16_t r_front = r / 2;
 3955              		.loc 1 544 14 view .LVU1239
 3956 014a 0693     		str	r3, [sp, #24]
 3957 014c AAE7     		b	.L227
 3958              	.LVL409:
 3959              	.L260:
 3960              	.LBB147:
 578:lvgl/src/lv_widgets/lv_canvas.c **** 
 3961              		.loc 1 578 27 is_stmt 1 discriminator 1 view .LVU1240
 578:lvgl/src/lv_widgets/lv_canvas.c **** 
 3962              		.loc 1 578 33 is_stmt 0 discriminator 1 view .LVU1241
 3963 014e 2A46     		mov	r2, r5
 3964 0150 0199     		ldr	r1, [sp, #4]
 3965 0152 0798     		ldr	r0, [sp, #28]
 3966 0154 FFF7FEFF 		bl	lv_img_buf_get_px_alpha
 3967              	.LVL410:
 3968 0158 0290     		str	r0, [sp, #8]
 3969              	.LVL411:
 578:lvgl/src/lv_widgets/lv_canvas.c **** 
 3970              		.loc 1 578 33 discriminator 1 view .LVU1242
 3971 015a 25E0     		b	.L231
 3972              	.LVL412:
 3973              	.L261:
 581:lvgl/src/lv_widgets/lv_canvas.c **** 
 3974              		.loc 1 581 27 is_stmt 1 discriminator 1 view .LVU1243
 3975 015c 029B     		ldr	r3, [sp, #8]
 3976 015e 2A46     		mov	r2, r5
 3977 0160 0021     		movs	r1, #0
 3978 0162 0DA8     		add	r0, sp, #52
 3979 0164 FFF7FEFF 		bl	lv_img_buf_set_px_alpha
 3980              	.LVL413:
 3981 0168 26E0     		b	.L232
 3982              	.L233:
 573:lvgl/src/lv_widgets/lv_canvas.c ****             y_safe = y < 0 ? 0 : y;
 3983              		.loc 1 573 54 is_stmt 0 discriminator 2 view .LVU1244
 3984 016a 08F10108 		add	r8, r8, #1
 3985              	.LVL414:
 573:lvgl/src/lv_widgets/lv_canvas.c ****             y_safe = y < 0 ? 0 : y;
 3986              		.loc 1 573 54 discriminator 2 view .LVU1245
 3987 016e 0FFA88F8 		sxth	r8, r8
 3988              	.LVL415:
 3989              	.L229:
 573:lvgl/src/lv_widgets/lv_canvas.c ****             y_safe = y < 0 ? 0 : y;
 3990              		.loc 1 573 38 discriminator 1 view .LVU1246
 3991 0172 BDF94250 		ldrsh	r5, [sp, #66]
 573:lvgl/src/lv_widgets/lv_canvas.c ****             y_safe = y < 0 ? 0 : y;
 3992              		.loc 1 573 42 discriminator 1 view .LVU1247
 3993 0176 059B     		ldr	r3, [sp, #20]
 3994 0178 2B44     		add	r3, r3, r5
 573:lvgl/src/lv_widgets/lv_canvas.c ****             y_safe = y < 0 ? 0 : y;
 3995              		.loc 1 573 9 discriminator 1 view .LVU1248
 3996 017a 9845     		cmp	r8, r3
ARM GAS  D:\Temp\cc0vPyDE.s 			page 135


 3997 017c 2CDC     		bgt	.L259
 574:lvgl/src/lv_widgets/lv_canvas.c ****             y_safe = y_safe > ext->dsc.header.h - 1 ? ext->dsc.header.h - 1 : y_safe;
 3998              		.loc 1 574 13 is_stmt 1 view .LVU1249
 574:lvgl/src/lv_widgets/lv_canvas.c ****             y_safe = y_safe > ext->dsc.header.h - 1 ? ext->dsc.header.h - 1 : y_safe;
 3999              		.loc 1 574 20 is_stmt 0 view .LVU1250
 4000 017e 28EAE875 		bic	r5, r8, r8, asr #31
 4001              	.LVL416:
 575:lvgl/src/lv_widgets/lv_canvas.c **** 
 4002              		.loc 1 575 13 is_stmt 1 view .LVU1251
 575:lvgl/src/lv_widgets/lv_canvas.c **** 
 4003              		.loc 1 575 46 is_stmt 0 view .LVU1252
 4004 0182 BAF81A30 		ldrh	r3, [r10, #26]
 4005 0186 5B09     		lsrs	r3, r3, #5
 575:lvgl/src/lv_widgets/lv_canvas.c **** 
 4006              		.loc 1 575 20 view .LVU1253
 4007 0188 AB42     		cmp	r3, r5
 4008 018a 00DC     		bgt	.L230
 575:lvgl/src/lv_widgets/lv_canvas.c **** 
 4009              		.loc 1 575 20 discriminator 1 view .LVU1254
 4010 018c 5D1E     		subs	r5, r3, #1
 4011              	.LVL417:
 4012              	.L230:
 577:lvgl/src/lv_widgets/lv_canvas.c ****             if(has_alpha) opa = lv_img_buf_get_px_alpha(&ext->dsc, x, y_safe);
 4013              		.loc 1 577 13 is_stmt 1 discriminator 4 view .LVU1255
 577:lvgl/src/lv_widgets/lv_canvas.c ****             if(has_alpha) opa = lv_img_buf_get_px_alpha(&ext->dsc, x, y_safe);
 4014              		.loc 1 577 17 is_stmt 0 discriminator 4 view .LVU1256
 4015 018e 0AF11803 		add	r3, r10, #24
 4016 0192 1846     		mov	r0, r3
 4017 0194 0793     		str	r3, [sp, #28]
 4018 0196 BDF80E30 		ldrh	r3, [sp, #14]
 4019 019a 2A46     		mov	r2, r5
 4020 019c 0199     		ldr	r1, [sp, #4]
 4021 019e FFF7FEFF 		bl	lv_img_buf_get_px_color
 4022              	.LVL418:
 4023 01a2 0746     		mov	r7, r0	@ movhi
 4024              	.LVL419:
 578:lvgl/src/lv_widgets/lv_canvas.c **** 
 4025              		.loc 1 578 13 is_stmt 1 discriminator 4 view .LVU1257
 578:lvgl/src/lv_widgets/lv_canvas.c **** 
 4026              		.loc 1 578 15 is_stmt 0 discriminator 4 view .LVU1258
 4027 01a4 002E     		cmp	r6, #0
 4028 01a6 D2D1     		bne	.L260
 4029              	.L231:
 580:lvgl/src/lv_widgets/lv_canvas.c ****             if(has_alpha) lv_img_buf_set_px_alpha(&line_img, 0, y_safe, opa);
 4030              		.loc 1 580 13 is_stmt 1 view .LVU1259
 4031              	.LVL420:
 580:lvgl/src/lv_widgets/lv_canvas.c ****             if(has_alpha) lv_img_buf_set_px_alpha(&line_img, 0, y_safe, opa);
 4032              		.loc 1 580 13 is_stmt 0 view .LVU1260
 4033 01a8 3B46     		mov	r3, r7	@ movhi
 4034 01aa 2A46     		mov	r2, r5
 4035 01ac 0021     		movs	r1, #0
 4036 01ae 0DA8     		add	r0, sp, #52
 4037 01b0 FFF7FEFF 		bl	lv_img_buf_set_px_color
 4038              	.LVL421:
 581:lvgl/src/lv_widgets/lv_canvas.c **** 
 4039              		.loc 1 581 13 is_stmt 1 view .LVU1261
 581:lvgl/src/lv_widgets/lv_canvas.c **** 
ARM GAS  D:\Temp\cc0vPyDE.s 			page 136


 4040              		.loc 1 581 15 is_stmt 0 view .LVU1262
 4041 01b4 002E     		cmp	r6, #0
 4042 01b6 D1D1     		bne	.L261
 4043              	.L232:
 583:lvgl/src/lv_widgets/lv_canvas.c **** #if LV_COLOR_DEPTH == 16 && LV_COLOR_16_SWAP
 4044              		.loc 1 583 13 is_stmt 1 view .LVU1263
 583:lvgl/src/lv_widgets/lv_canvas.c **** #if LV_COLOR_DEPTH == 16 && LV_COLOR_16_SWAP
 4045              		.loc 1 583 25 is_stmt 0 view .LVU1264
 4046 01b8 C7F3C423 		ubfx	r3, r7, #11, #5
 583:lvgl/src/lv_widgets/lv_canvas.c **** #if LV_COLOR_DEPTH == 16 && LV_COLOR_16_SWAP
 4047              		.loc 1 583 18 view .LVU1265
 4048 01bc 9B44     		add	fp, fp, r3
 4049              	.LVL422:
 587:lvgl/src/lv_widgets/lv_canvas.c **** #endif
 4050              		.loc 1 587 13 is_stmt 1 view .LVU1266
 587:lvgl/src/lv_widgets/lv_canvas.c **** #endif
 4051              		.loc 1 587 25 is_stmt 0 view .LVU1267
 4052 01be C7F34513 		ubfx	r3, r7, #5, #6
 587:lvgl/src/lv_widgets/lv_canvas.c **** #endif
 4053              		.loc 1 587 18 view .LVU1268
 4054 01c2 9944     		add	r9, r9, r3
 4055              	.LVL423:
 589:lvgl/src/lv_widgets/lv_canvas.c ****             if(has_alpha) asum += opa;
 4056              		.loc 1 589 13 is_stmt 1 view .LVU1269
 589:lvgl/src/lv_widgets/lv_canvas.c ****             if(has_alpha) asum += opa;
 4057              		.loc 1 589 25 is_stmt 0 view .LVU1270
 4058 01c4 07F01F03 		and	r3, r7, #31
 589:lvgl/src/lv_widgets/lv_canvas.c ****             if(has_alpha) asum += opa;
 4059              		.loc 1 589 18 view .LVU1271
 4060 01c8 1C44     		add	r4, r4, r3
 4061              	.LVL424:
 590:lvgl/src/lv_widgets/lv_canvas.c ****         }
 4062              		.loc 1 590 13 is_stmt 1 view .LVU1272
 590:lvgl/src/lv_widgets/lv_canvas.c ****         }
 4063              		.loc 1 590 15 is_stmt 0 view .LVU1273
 4064 01ca 002E     		cmp	r6, #0
 4065 01cc CDD0     		beq	.L233
 590:lvgl/src/lv_widgets/lv_canvas.c ****         }
 4066              		.loc 1 590 27 is_stmt 1 discriminator 1 view .LVU1274
 590:lvgl/src/lv_widgets/lv_canvas.c ****         }
 4067              		.loc 1 590 32 is_stmt 0 discriminator 1 view .LVU1275
 4068 01ce 089B     		ldr	r3, [sp, #32]
 4069 01d0 029A     		ldr	r2, [sp, #8]
 4070 01d2 1344     		add	r3, r3, r2
 4071 01d4 0893     		str	r3, [sp, #32]
 4072              	.LVL425:
 590:lvgl/src/lv_widgets/lv_canvas.c ****         }
 4073              		.loc 1 590 32 discriminator 1 view .LVU1276
 4074 01d6 C8E7     		b	.L233
 4075              	.LVL426:
 4076              	.L259:
 594:lvgl/src/lv_widgets/lv_canvas.c **** 
 4077              		.loc 1 594 9 is_stmt 1 view .LVU1277
 594:lvgl/src/lv_widgets/lv_canvas.c **** 
 4078              		.loc 1 594 11 is_stmt 0 view .LVU1278
 4079 01d8 002E     		cmp	r6, #0
 4080 01da 40F09380 		bne	.L252
ARM GAS  D:\Temp\cc0vPyDE.s 			page 137


 594:lvgl/src/lv_widgets/lv_canvas.c **** 
 4081              		.loc 1 594 37 view .LVU1279
 4082 01de FF23     		movs	r3, #255
 4083 01e0 9A46     		mov	r10, r3
 4084 01e2 57E0     		b	.L246
 4085              	.LVL427:
 4086              	.L238:
 609:lvgl/src/lv_widgets/lv_canvas.c ****             }
 4087              		.loc 1 609 17 is_stmt 1 view .LVU1280
 4088 01e4 3B46     		mov	r3, r7	@ movhi
 4089 01e6 2A46     		mov	r2, r5
 4090 01e8 0199     		ldr	r1, [sp, #4]
 4091 01ea 0498     		ldr	r0, [sp, #16]
 4092 01ec 1830     		adds	r0, r0, #24
 4093 01ee FFF7FEFF 		bl	lv_img_buf_set_px_color
 4094              	.LVL428:
 4095              	.L237:
 611:lvgl/src/lv_widgets/lv_canvas.c **** 
 4096              		.loc 1 611 13 view .LVU1281
 611:lvgl/src/lv_widgets/lv_canvas.c **** 
 4097              		.loc 1 611 15 is_stmt 0 view .LVU1282
 4098 01f2 002E     		cmp	r6, #0
 4099 01f4 69D1     		bne	.L262
 4100              	.L239:
 613:lvgl/src/lv_widgets/lv_canvas.c ****             y_safe = y_safe < 0 ? 0 : y_safe;
 4101              		.loc 1 613 13 is_stmt 1 view .LVU1283
 613:lvgl/src/lv_widgets/lv_canvas.c ****             y_safe = y_safe < 0 ? 0 : y_safe;
 4102              		.loc 1 613 24 is_stmt 0 view .LVU1284
 4103 01f6 ADB2     		uxth	r5, r5
 613:lvgl/src/lv_widgets/lv_canvas.c ****             y_safe = y_safe < 0 ? 0 : y_safe;
 4104              		.loc 1 613 24 view .LVU1285
 4105 01f8 069B     		ldr	r3, [sp, #24]
 4106 01fa A5EB0308 		sub	r8, r5, r3
 613:lvgl/src/lv_widgets/lv_canvas.c ****             y_safe = y_safe < 0 ? 0 : y_safe;
 4107              		.loc 1 613 20 view .LVU1286
 4108 01fe 0FFA88F8 		sxth	r8, r8
 4109              	.LVL429:
 614:lvgl/src/lv_widgets/lv_canvas.c ****             c = lv_img_buf_get_px_color(&line_img, 0, y_safe, color);
 4110              		.loc 1 614 13 is_stmt 1 view .LVU1287
 614:lvgl/src/lv_widgets/lv_canvas.c ****             c = lv_img_buf_get_px_color(&line_img, 0, y_safe, color);
 4111              		.loc 1 614 20 is_stmt 0 view .LVU1288
 4112 0202 28EAE878 		bic	r8, r8, r8, asr #31
 4113              	.LVL430:
 615:lvgl/src/lv_widgets/lv_canvas.c ****             if(has_alpha) opa = lv_img_buf_get_px_alpha(&line_img, 0, y_safe);
 4114              		.loc 1 615 13 is_stmt 1 view .LVU1289
 615:lvgl/src/lv_widgets/lv_canvas.c ****             if(has_alpha) opa = lv_img_buf_get_px_alpha(&line_img, 0, y_safe);
 4115              		.loc 1 615 17 is_stmt 0 view .LVU1290
 4116 0206 BDF80E30 		ldrh	r3, [sp, #14]
 4117 020a 4246     		mov	r2, r8
 4118 020c 0021     		movs	r1, #0
 4119 020e 0DA8     		add	r0, sp, #52
 4120 0210 FFF7FEFF 		bl	lv_img_buf_get_px_color
 4121              	.LVL431:
 4122 0214 0746     		mov	r7, r0	@ movhi
 4123              	.LVL432:
 616:lvgl/src/lv_widgets/lv_canvas.c **** 
 4124              		.loc 1 616 13 is_stmt 1 view .LVU1291
ARM GAS  D:\Temp\cc0vPyDE.s 			page 138


 616:lvgl/src/lv_widgets/lv_canvas.c **** 
 4125              		.loc 1 616 15 is_stmt 0 view .LVU1292
 4126 0216 002E     		cmp	r6, #0
 4127 0218 5FD1     		bne	.L263
 4128              	.L240:
 618:lvgl/src/lv_widgets/lv_canvas.c **** #if LV_COLOR_DEPTH == 16 && LV_COLOR_16_SWAP
 4129              		.loc 1 618 13 is_stmt 1 view .LVU1293
 4130              	.LVL433:
 618:lvgl/src/lv_widgets/lv_canvas.c **** #if LV_COLOR_DEPTH == 16 && LV_COLOR_16_SWAP
 4131              		.loc 1 618 25 is_stmt 0 view .LVU1294
 4132 021a C7F3C423 		ubfx	r3, r7, #11, #5
 618:lvgl/src/lv_widgets/lv_canvas.c **** #if LV_COLOR_DEPTH == 16 && LV_COLOR_16_SWAP
 4133              		.loc 1 618 18 view .LVU1295
 4134 021e ABEB030B 		sub	fp, fp, r3
 4135              	.LVL434:
 622:lvgl/src/lv_widgets/lv_canvas.c **** #endif
 4136              		.loc 1 622 13 is_stmt 1 view .LVU1296
 622:lvgl/src/lv_widgets/lv_canvas.c **** #endif
 4137              		.loc 1 622 25 is_stmt 0 view .LVU1297
 4138 0222 C7F34513 		ubfx	r3, r7, #5, #6
 622:lvgl/src/lv_widgets/lv_canvas.c **** #endif
 4139              		.loc 1 622 18 view .LVU1298
 4140 0226 A9EB0309 		sub	r9, r9, r3
 4141              	.LVL435:
 624:lvgl/src/lv_widgets/lv_canvas.c ****             if(has_alpha) asum -= opa;
 4142              		.loc 1 624 13 is_stmt 1 view .LVU1299
 624:lvgl/src/lv_widgets/lv_canvas.c ****             if(has_alpha) asum -= opa;
 4143              		.loc 1 624 25 is_stmt 0 view .LVU1300
 4144 022a 07F01F07 		and	r7, r7, #31
 4145              	.LVL436:
 624:lvgl/src/lv_widgets/lv_canvas.c ****             if(has_alpha) asum -= opa;
 4146              		.loc 1 624 18 view .LVU1301
 4147 022e A4EB0708 		sub	r8, r4, r7
 4148              	.LVL437:
 625:lvgl/src/lv_widgets/lv_canvas.c **** 
 4149              		.loc 1 625 13 is_stmt 1 view .LVU1302
 625:lvgl/src/lv_widgets/lv_canvas.c **** 
 4150              		.loc 1 625 15 is_stmt 0 view .LVU1303
 4151 0232 16B1     		cbz	r6, .L241
 625:lvgl/src/lv_widgets/lv_canvas.c **** 
 4152              		.loc 1 625 27 is_stmt 1 discriminator 1 view .LVU1304
 625:lvgl/src/lv_widgets/lv_canvas.c **** 
 4153              		.loc 1 625 32 is_stmt 0 discriminator 1 view .LVU1305
 4154 0234 029B     		ldr	r3, [sp, #8]
 4155 0236 AAEB030A 		sub	r10, r10, r3
 4156              	.LVL438:
 4157              	.L241:
 627:lvgl/src/lv_widgets/lv_canvas.c ****             y_safe = y_safe > ext->dsc.header.h - 1 ? ext->dsc.header.h - 1 : y_safe;
 4158              		.loc 1 627 13 is_stmt 1 view .LVU1306
 627:lvgl/src/lv_widgets/lv_canvas.c ****             y_safe = y_safe > ext->dsc.header.h - 1 ? ext->dsc.header.h - 1 : y_safe;
 4159              		.loc 1 627 28 is_stmt 0 view .LVU1307
 4160 023a 059B     		ldr	r3, [sp, #20]
 4161 023c EC18     		adds	r4, r5, r3
 4162 023e 0134     		adds	r4, r4, #1
 627:lvgl/src/lv_widgets/lv_canvas.c ****             y_safe = y_safe > ext->dsc.header.h - 1 ? ext->dsc.header.h - 1 : y_safe;
 4163              		.loc 1 627 20 view .LVU1308
 4164 0240 24B2     		sxth	r4, r4
ARM GAS  D:\Temp\cc0vPyDE.s 			page 139


 4165              	.LVL439:
 628:lvgl/src/lv_widgets/lv_canvas.c **** 
 4166              		.loc 1 628 13 is_stmt 1 view .LVU1309
 628:lvgl/src/lv_widgets/lv_canvas.c **** 
 4167              		.loc 1 628 46 is_stmt 0 view .LVU1310
 4168 0242 049B     		ldr	r3, [sp, #16]
 4169 0244 5B8B     		ldrh	r3, [r3, #26]
 4170 0246 5B09     		lsrs	r3, r3, #5
 628:lvgl/src/lv_widgets/lv_canvas.c **** 
 4171              		.loc 1 628 20 view .LVU1311
 4172 0248 A342     		cmp	r3, r4
 4173 024a 00DC     		bgt	.L242
 628:lvgl/src/lv_widgets/lv_canvas.c **** 
 4174              		.loc 1 628 20 discriminator 1 view .LVU1312
 4175 024c 5C1E     		subs	r4, r3, #1
 4176              	.LVL440:
 4177              	.L242:
 630:lvgl/src/lv_widgets/lv_canvas.c ****             if(has_alpha) opa = lv_img_buf_get_px_alpha(&ext->dsc, x, y_safe);
 4178              		.loc 1 630 13 is_stmt 1 discriminator 4 view .LVU1313
 630:lvgl/src/lv_widgets/lv_canvas.c ****             if(has_alpha) opa = lv_img_buf_get_px_alpha(&ext->dsc, x, y_safe);
 4179              		.loc 1 630 17 is_stmt 0 discriminator 4 view .LVU1314
 4180 024e 049B     		ldr	r3, [sp, #16]
 4181 0250 1833     		adds	r3, r3, #24
 4182 0252 1846     		mov	r0, r3
 4183 0254 0793     		str	r3, [sp, #28]
 4184 0256 BDF80E30 		ldrh	r3, [sp, #14]
 4185 025a 2246     		mov	r2, r4
 4186 025c 0199     		ldr	r1, [sp, #4]
 4187 025e FFF7FEFF 		bl	lv_img_buf_get_px_color
 4188              	.LVL441:
 4189 0262 0746     		mov	r7, r0	@ movhi
 631:lvgl/src/lv_widgets/lv_canvas.c **** 
 4190              		.loc 1 631 13 is_stmt 1 discriminator 4 view .LVU1315
 631:lvgl/src/lv_widgets/lv_canvas.c **** 
 4191              		.loc 1 631 15 is_stmt 0 discriminator 4 view .LVU1316
 4192 0264 002E     		cmp	r6, #0
 4193 0266 3FD1     		bne	.L264
 4194              	.L243:
 633:lvgl/src/lv_widgets/lv_canvas.c ****             if(has_alpha) lv_img_buf_set_px_alpha(&line_img, 0, y_safe, opa);
 4195              		.loc 1 633 13 is_stmt 1 view .LVU1317
 4196              	.LVL442:
 633:lvgl/src/lv_widgets/lv_canvas.c ****             if(has_alpha) lv_img_buf_set_px_alpha(&line_img, 0, y_safe, opa);
 4197              		.loc 1 633 13 is_stmt 0 view .LVU1318
 4198 0268 3B46     		mov	r3, r7	@ movhi
 4199 026a 2246     		mov	r2, r4
 4200 026c 0021     		movs	r1, #0
 4201 026e 0DA8     		add	r0, sp, #52
 4202 0270 FFF7FEFF 		bl	lv_img_buf_set_px_color
 4203              	.LVL443:
 634:lvgl/src/lv_widgets/lv_canvas.c **** 
 4204              		.loc 1 634 13 is_stmt 1 view .LVU1319
 634:lvgl/src/lv_widgets/lv_canvas.c **** 
 4205              		.loc 1 634 15 is_stmt 0 view .LVU1320
 4206 0274 002E     		cmp	r6, #0
 4207 0276 3ED1     		bne	.L265
 4208              	.L244:
 636:lvgl/src/lv_widgets/lv_canvas.c **** #if LV_COLOR_DEPTH == 16 && LV_COLOR_16_SWAP
ARM GAS  D:\Temp\cc0vPyDE.s 			page 140


 4209              		.loc 1 636 13 is_stmt 1 view .LVU1321
 636:lvgl/src/lv_widgets/lv_canvas.c **** #if LV_COLOR_DEPTH == 16 && LV_COLOR_16_SWAP
 4210              		.loc 1 636 25 is_stmt 0 view .LVU1322
 4211 0278 C7F3C423 		ubfx	r3, r7, #11, #5
 636:lvgl/src/lv_widgets/lv_canvas.c **** #if LV_COLOR_DEPTH == 16 && LV_COLOR_16_SWAP
 4212              		.loc 1 636 18 view .LVU1323
 4213 027c 9B44     		add	fp, fp, r3
 4214              	.LVL444:
 640:lvgl/src/lv_widgets/lv_canvas.c **** #endif
 4215              		.loc 1 640 13 is_stmt 1 view .LVU1324
 640:lvgl/src/lv_widgets/lv_canvas.c **** #endif
 4216              		.loc 1 640 25 is_stmt 0 view .LVU1325
 4217 027e C7F34513 		ubfx	r3, r7, #5, #6
 640:lvgl/src/lv_widgets/lv_canvas.c **** #endif
 4218              		.loc 1 640 18 view .LVU1326
 4219 0282 9944     		add	r9, r9, r3
 4220              	.LVL445:
 642:lvgl/src/lv_widgets/lv_canvas.c ****             if(has_alpha) asum += opa;
 4221              		.loc 1 642 13 is_stmt 1 view .LVU1327
 642:lvgl/src/lv_widgets/lv_canvas.c ****             if(has_alpha) asum += opa;
 4222              		.loc 1 642 25 is_stmt 0 view .LVU1328
 4223 0284 07F01F04 		and	r4, r7, #31
 4224              	.LVL446:
 642:lvgl/src/lv_widgets/lv_canvas.c ****             if(has_alpha) asum += opa;
 4225              		.loc 1 642 18 view .LVU1329
 4226 0288 4444     		add	r4, r4, r8
 4227              	.LVL447:
 643:lvgl/src/lv_widgets/lv_canvas.c ****         }
 4228              		.loc 1 643 13 is_stmt 1 view .LVU1330
 643:lvgl/src/lv_widgets/lv_canvas.c ****         }
 4229              		.loc 1 643 15 is_stmt 0 view .LVU1331
 4230 028a 0EB1     		cbz	r6, .L245
 643:lvgl/src/lv_widgets/lv_canvas.c ****         }
 4231              		.loc 1 643 27 is_stmt 1 discriminator 1 view .LVU1332
 643:lvgl/src/lv_widgets/lv_canvas.c ****         }
 4232              		.loc 1 643 32 is_stmt 0 discriminator 1 view .LVU1333
 4233 028c 029B     		ldr	r3, [sp, #8]
 4234 028e 9A44     		add	r10, r10, r3
 4235              	.LVL448:
 4236              	.L245:
 596:lvgl/src/lv_widgets/lv_canvas.c ****             if(asum) {
 4237              		.loc 1 596 35 discriminator 2 view .LVU1334
 4238 0290 0135     		adds	r5, r5, #1
 4239              	.LVL449:
 596:lvgl/src/lv_widgets/lv_canvas.c ****             if(asum) {
 4240              		.loc 1 596 35 discriminator 2 view .LVU1335
 4241 0292 2DB2     		sxth	r5, r5
 4242              	.LVL450:
 4243              	.L246:
 596:lvgl/src/lv_widgets/lv_canvas.c ****             if(asum) {
 4244              		.loc 1 596 29 discriminator 1 view .LVU1336
 4245 0294 BDF94630 		ldrsh	r3, [sp, #70]
 596:lvgl/src/lv_widgets/lv_canvas.c ****             if(asum) {
 4246              		.loc 1 596 9 discriminator 1 view .LVU1337
 4247 0298 AB42     		cmp	r3, r5
 4248 029a 39DB     		blt	.L266
 597:lvgl/src/lv_widgets/lv_canvas.c ****                 c.ch.red = rsum / r;
ARM GAS  D:\Temp\cc0vPyDE.s 			page 141


 4249              		.loc 1 597 13 is_stmt 1 view .LVU1338
 597:lvgl/src/lv_widgets/lv_canvas.c ****                 c.ch.red = rsum / r;
 4250              		.loc 1 597 15 is_stmt 0 view .LVU1339
 4251 029c BAF1000F 		cmp	r10, #0
 4252 02a0 A7D0     		beq	.L237
 598:lvgl/src/lv_widgets/lv_canvas.c **** #if LV_COLOR_DEPTH == 16 && LV_COLOR_16_SWAP
 4253              		.loc 1 598 17 is_stmt 1 view .LVU1340
 598:lvgl/src/lv_widgets/lv_canvas.c **** #if LV_COLOR_DEPTH == 16 && LV_COLOR_16_SWAP
 4254              		.loc 1 598 33 is_stmt 0 view .LVU1341
 4255 02a2 099A     		ldr	r2, [sp, #36]
 4256 02a4 BBFBF2F3 		udiv	r3, fp, r2
 598:lvgl/src/lv_widgets/lv_canvas.c **** #if LV_COLOR_DEPTH == 16 && LV_COLOR_16_SWAP
 4257              		.loc 1 598 26 view .LVU1342
 4258 02a8 63F3CF27 		bfi	r7, r3, #11, #5
 604:lvgl/src/lv_widgets/lv_canvas.c **** #endif
 4259              		.loc 1 604 17 is_stmt 1 view .LVU1343
 604:lvgl/src/lv_widgets/lv_canvas.c **** #endif
 4260              		.loc 1 604 35 is_stmt 0 view .LVU1344
 4261 02ac B9FBF2F3 		udiv	r3, r9, r2
 604:lvgl/src/lv_widgets/lv_canvas.c **** #endif
 4262              		.loc 1 604 28 view .LVU1345
 4263 02b0 63F34A17 		bfi	r7, r3, #5, #6
 606:lvgl/src/lv_widgets/lv_canvas.c ****                 if(has_alpha) opa = asum / r;
 4264              		.loc 1 606 17 is_stmt 1 view .LVU1346
 606:lvgl/src/lv_widgets/lv_canvas.c ****                 if(has_alpha) opa = asum / r;
 4265              		.loc 1 606 34 is_stmt 0 view .LVU1347
 4266 02b4 B4FBF2F3 		udiv	r3, r4, r2
 606:lvgl/src/lv_widgets/lv_canvas.c ****                 if(has_alpha) opa = asum / r;
 4267              		.loc 1 606 27 view .LVU1348
 4268 02b8 63F30407 		bfi	r7, r3, #0, #5
 607:lvgl/src/lv_widgets/lv_canvas.c **** 
 4269              		.loc 1 607 17 is_stmt 1 view .LVU1349
 607:lvgl/src/lv_widgets/lv_canvas.c **** 
 4270              		.loc 1 607 19 is_stmt 0 view .LVU1350
 4271 02bc 002E     		cmp	r6, #0
 4272 02be 91D0     		beq	.L238
 607:lvgl/src/lv_widgets/lv_canvas.c **** 
 4273              		.loc 1 607 31 is_stmt 1 discriminator 1 view .LVU1351
 607:lvgl/src/lv_widgets/lv_canvas.c **** 
 4274              		.loc 1 607 42 is_stmt 0 discriminator 1 view .LVU1352
 4275 02c0 BAFBF2F3 		udiv	r3, r10, r2
 607:lvgl/src/lv_widgets/lv_canvas.c **** 
 4276              		.loc 1 607 35 discriminator 1 view .LVU1353
 4277 02c4 DBB2     		uxtb	r3, r3
 4278 02c6 0293     		str	r3, [sp, #8]
 4279              	.LVL451:
 607:lvgl/src/lv_widgets/lv_canvas.c **** 
 4280              		.loc 1 607 35 discriminator 1 view .LVU1354
 4281 02c8 8CE7     		b	.L238
 4282              	.L262:
 611:lvgl/src/lv_widgets/lv_canvas.c **** 
 4283              		.loc 1 611 27 is_stmt 1 discriminator 1 view .LVU1355
 4284 02ca 029B     		ldr	r3, [sp, #8]
 4285 02cc 2A46     		mov	r2, r5
 4286 02ce 0199     		ldr	r1, [sp, #4]
 4287 02d0 0498     		ldr	r0, [sp, #16]
 4288 02d2 1830     		adds	r0, r0, #24
ARM GAS  D:\Temp\cc0vPyDE.s 			page 142


 4289 02d4 FFF7FEFF 		bl	lv_img_buf_set_px_alpha
 4290              	.LVL452:
 4291 02d8 8DE7     		b	.L239
 4292              	.LVL453:
 4293              	.L263:
 616:lvgl/src/lv_widgets/lv_canvas.c **** 
 4294              		.loc 1 616 27 discriminator 1 view .LVU1356
 616:lvgl/src/lv_widgets/lv_canvas.c **** 
 4295              		.loc 1 616 33 is_stmt 0 discriminator 1 view .LVU1357
 4296 02da 4246     		mov	r2, r8
 4297 02dc 0021     		movs	r1, #0
 4298 02de 0DA8     		add	r0, sp, #52
 4299 02e0 FFF7FEFF 		bl	lv_img_buf_get_px_alpha
 4300              	.LVL454:
 4301 02e4 0290     		str	r0, [sp, #8]
 4302              	.LVL455:
 616:lvgl/src/lv_widgets/lv_canvas.c **** 
 4303              		.loc 1 616 33 discriminator 1 view .LVU1358
 4304 02e6 98E7     		b	.L240
 4305              	.LVL456:
 4306              	.L264:
 631:lvgl/src/lv_widgets/lv_canvas.c **** 
 4307              		.loc 1 631 27 is_stmt 1 discriminator 1 view .LVU1359
 631:lvgl/src/lv_widgets/lv_canvas.c **** 
 4308              		.loc 1 631 33 is_stmt 0 discriminator 1 view .LVU1360
 4309 02e8 2246     		mov	r2, r4
 4310 02ea 0199     		ldr	r1, [sp, #4]
 4311 02ec 0798     		ldr	r0, [sp, #28]
 4312 02ee FFF7FEFF 		bl	lv_img_buf_get_px_alpha
 4313              	.LVL457:
 4314 02f2 0290     		str	r0, [sp, #8]
 4315              	.LVL458:
 631:lvgl/src/lv_widgets/lv_canvas.c **** 
 4316              		.loc 1 631 33 discriminator 1 view .LVU1361
 4317 02f4 B8E7     		b	.L243
 4318              	.LVL459:
 4319              	.L265:
 634:lvgl/src/lv_widgets/lv_canvas.c **** 
 4320              		.loc 1 634 27 is_stmt 1 discriminator 1 view .LVU1362
 4321 02f6 029B     		ldr	r3, [sp, #8]
 4322 02f8 2246     		mov	r2, r4
 4323 02fa 0021     		movs	r1, #0
 4324 02fc 0DA8     		add	r0, sp, #52
 4325 02fe FFF7FEFF 		bl	lv_img_buf_set_px_alpha
 4326              	.LVL460:
 4327 0302 B9E7     		b	.L244
 4328              	.LVL461:
 4329              	.L252:
 634:lvgl/src/lv_widgets/lv_canvas.c **** 
 4330              		.loc 1 634 27 is_stmt 0 discriminator 1 view .LVU1363
 4331 0304 DDF820A0 		ldr	r10, [sp, #32]
 4332 0308 C4E7     		b	.L246
 4333              	.L269:
 4334 030a 00BF     		.align	2
 4335              	.L268:
 4336 030c 00000000 		.word	.LC2
 4337              	.LVL462:
ARM GAS  D:\Temp\cc0vPyDE.s 			page 143


 4338              	.L266:
 634:lvgl/src/lv_widgets/lv_canvas.c **** 
 4339              		.loc 1 634 27 discriminator 1 view .LVU1364
 4340              	.LBE147:
 564:lvgl/src/lv_widgets/lv_canvas.c ****         uint32_t asum = 0;
 4341              		.loc 1 564 31 discriminator 2 view .LVU1365
 4342 0310 019B     		ldr	r3, [sp, #4]
 4343 0312 0133     		adds	r3, r3, #1
 4344 0314 1BB2     		sxth	r3, r3
 4345 0316 0193     		str	r3, [sp, #4]
 4346              	.LVL463:
 4347              	.L228:
 564:lvgl/src/lv_widgets/lv_canvas.c ****         uint32_t asum = 0;
 4348              		.loc 1 564 25 discriminator 1 view .LVU1366
 4349 0318 BDF94430 		ldrsh	r3, [sp, #68]
 564:lvgl/src/lv_widgets/lv_canvas.c ****         uint32_t asum = 0;
 4350              		.loc 1 564 5 discriminator 1 view .LVU1367
 4351 031c 019A     		ldr	r2, [sp, #4]
 4352 031e 9342     		cmp	r3, r2
 4353 0320 0FDB     		blt	.L267
 4354              	.LBB148:
 565:lvgl/src/lv_widgets/lv_canvas.c ****         uint32_t rsum = 0;
 4355              		.loc 1 565 9 is_stmt 1 view .LVU1368
 4356              	.LVL464:
 566:lvgl/src/lv_widgets/lv_canvas.c ****         uint32_t gsum = 0;
 4357              		.loc 1 566 9 view .LVU1369
 567:lvgl/src/lv_widgets/lv_canvas.c ****         uint32_t bsum = 0;
 4358              		.loc 1 567 9 view .LVU1370
 568:lvgl/src/lv_widgets/lv_canvas.c **** 
 4359              		.loc 1 568 9 view .LVU1371
 570:lvgl/src/lv_widgets/lv_canvas.c ****         lv_opa_t opa = LV_OPA_COVER;
 4360              		.loc 1 570 9 view .LVU1372
 571:lvgl/src/lv_widgets/lv_canvas.c **** 
 4361              		.loc 1 571 9 view .LVU1373
 573:lvgl/src/lv_widgets/lv_canvas.c ****             y_safe = y < 0 ? 0 : y;
 4362              		.loc 1 573 9 view .LVU1374
 573:lvgl/src/lv_widgets/lv_canvas.c ****             y_safe = y < 0 ? 0 : y;
 4363              		.loc 1 573 18 is_stmt 0 view .LVU1375
 4364 0322 BDF84280 		ldrh	r8, [sp, #66]
 573:lvgl/src/lv_widgets/lv_canvas.c ****             y_safe = y < 0 ? 0 : y;
 4365              		.loc 1 573 22 view .LVU1376
 4366 0326 069B     		ldr	r3, [sp, #24]
 4367 0328 A8EB0308 		sub	r8, r8, r3
 573:lvgl/src/lv_widgets/lv_canvas.c ****             y_safe = y < 0 ? 0 : y;
 4368              		.loc 1 573 15 view .LVU1377
 4369 032c 0FFA88F8 		sxth	r8, r8
 4370              	.LVL465:
 571:lvgl/src/lv_widgets/lv_canvas.c **** 
 4371              		.loc 1 571 18 view .LVU1378
 4372 0330 FF23     		movs	r3, #255
 4373 0332 0293     		str	r3, [sp, #8]
 568:lvgl/src/lv_widgets/lv_canvas.c **** 
 4374              		.loc 1 568 18 view .LVU1379
 4375 0334 0024     		movs	r4, #0
 567:lvgl/src/lv_widgets/lv_canvas.c ****         uint32_t bsum = 0;
 4376              		.loc 1 567 18 view .LVU1380
 4377 0336 A146     		mov	r9, r4
ARM GAS  D:\Temp\cc0vPyDE.s 			page 144


 566:lvgl/src/lv_widgets/lv_canvas.c ****         uint32_t gsum = 0;
 4378              		.loc 1 566 18 view .LVU1381
 4379 0338 A346     		mov	fp, r4
 565:lvgl/src/lv_widgets/lv_canvas.c ****         uint32_t rsum = 0;
 4380              		.loc 1 565 18 view .LVU1382
 4381 033a 0894     		str	r4, [sp, #32]
 4382 033c DDF810A0 		ldr	r10, [sp, #16]
 573:lvgl/src/lv_widgets/lv_canvas.c ****             y_safe = y < 0 ? 0 : y;
 4383              		.loc 1 573 9 view .LVU1383
 4384 0340 17E7     		b	.L229
 4385              	.LVL466:
 4386              	.L267:
 573:lvgl/src/lv_widgets/lv_canvas.c ****             y_safe = y < 0 ? 0 : y;
 4387              		.loc 1 573 9 view .LVU1384
 4388              	.LBE148:
 647:lvgl/src/lv_widgets/lv_canvas.c **** 
 4389              		.loc 1 647 5 is_stmt 1 view .LVU1385
 4390 0342 0A98     		ldr	r0, [sp, #40]
 4391 0344 FFF7FEFF 		bl	lv_obj_invalidate
 4392              	.LVL467:
 649:lvgl/src/lv_widgets/lv_canvas.c **** }
 4393              		.loc 1 649 5 view .LVU1386
 4394 0348 0B98     		ldr	r0, [sp, #44]
 4395 034a FFF7FEFF 		bl	_lv_mem_buf_release
 4396              	.LVL468:
 4397 034e 62E6     		b	.L215
 4398              		.cfi_endproc
 4399              	.LFE467:
 4401              		.section	.text.lv_canvas_fill_bg,"ax",%progbits
 4402              		.align	1
 4403              		.global	lv_canvas_fill_bg
 4404              		.syntax unified
 4405              		.thumb
 4406              		.thumb_func
 4407              		.fpu fpv4-sp-d16
 4409              	lv_canvas_fill_bg:
 4410              	.LVL469:
 4411              	.LFB468:
 659:lvgl/src/lv_widgets/lv_canvas.c ****     LV_ASSERT_OBJ(canvas, LV_OBJX_NAME);
 4412              		.loc 1 659 1 view -0
 4413              		.cfi_startproc
 4414              		@ args = 0, pretend = 0, frame = 0
 4415              		@ frame_needed = 0, uses_anonymous_args = 0
 659:lvgl/src/lv_widgets/lv_canvas.c ****     LV_ASSERT_OBJ(canvas, LV_OBJX_NAME);
 4416              		.loc 1 659 1 is_stmt 0 view .LVU1388
 4417 0000 2DE9F84F 		push	{r3, r4, r5, r6, r7, r8, r9, r10, fp, lr}
 4418              	.LCFI40:
 4419              		.cfi_def_cfa_offset 40
 4420              		.cfi_offset 3, -40
 4421              		.cfi_offset 4, -36
 4422              		.cfi_offset 5, -32
 4423              		.cfi_offset 6, -28
 4424              		.cfi_offset 7, -24
 4425              		.cfi_offset 8, -20
 4426              		.cfi_offset 9, -16
 4427              		.cfi_offset 10, -12
 4428              		.cfi_offset 11, -8
ARM GAS  D:\Temp\cc0vPyDE.s 			page 145


 4429              		.cfi_offset 14, -4
 4430 0004 8046     		mov	r8, r0
 4431 0006 0F46     		mov	r7, r1	@ movhi
 4432 0008 9146     		mov	r9, r2
 660:lvgl/src/lv_widgets/lv_canvas.c **** 
 4433              		.loc 1 660 5 is_stmt 1 view .LVU1389
 660:lvgl/src/lv_widgets/lv_canvas.c **** 
 4434              		.loc 1 660 5 view .LVU1390
 4435 000a FFF7FEFF 		bl	lv_debug_check_null
 4436              	.LVL470:
 660:lvgl/src/lv_widgets/lv_canvas.c **** 
 4437              		.loc 1 660 5 is_stmt 0 view .LVU1391
 4438 000e 28B9     		cbnz	r0, .L271
 660:lvgl/src/lv_widgets/lv_canvas.c **** 
 4439              		.loc 1 660 5 is_stmt 1 discriminator 1 view .LVU1392
 660:lvgl/src/lv_widgets/lv_canvas.c **** 
 4440              		.loc 1 660 5 discriminator 1 view .LVU1393
 4441 0010 4246     		mov	r2, r8
 4442 0012 0023     		movs	r3, #0
 4443 0014 2C48     		ldr	r0, .L288
 4444 0016 FFF7FEFF 		bl	lv_debug_log_error
 4445              	.LVL471:
 4446              	.L272:
 660:lvgl/src/lv_widgets/lv_canvas.c **** 
 4447              		.loc 1 660 5 discriminator 1 view .LVU1394
 660:lvgl/src/lv_widgets/lv_canvas.c **** 
 4448              		.loc 1 660 5 discriminator 1 view .LVU1395
 4449 001a FEE7     		b	.L272
 4450              	.L271:
 660:lvgl/src/lv_widgets/lv_canvas.c **** 
 4451              		.loc 1 660 40 discriminator 2 view .LVU1396
 662:lvgl/src/lv_widgets/lv_canvas.c **** 
 4452              		.loc 1 662 5 discriminator 2 view .LVU1397
 662:lvgl/src/lv_widgets/lv_canvas.c **** 
 4453              		.loc 1 662 26 is_stmt 0 discriminator 2 view .LVU1398
 4454 001c 4046     		mov	r0, r8
 4455 001e FFF7FEFF 		bl	lv_canvas_get_img
 4456              	.LVL472:
 4457 0022 0446     		mov	r4, r0
 4458              	.LVL473:
 664:lvgl/src/lv_widgets/lv_canvas.c ****         uint32_t row_byte_cnt = (dsc->header.w + 7) >> 3;
 4459              		.loc 1 664 5 is_stmt 1 discriminator 2 view .LVU1399
 664:lvgl/src/lv_widgets/lv_canvas.c ****         uint32_t row_byte_cnt = (dsc->header.w + 7) >> 3;
 4460              		.loc 1 664 23 is_stmt 0 discriminator 2 view .LVU1400
 4461 0024 0378     		ldrb	r3, [r0]	@ zero_extendqisi2
 4462 0026 03F01F03 		and	r3, r3, #31
 664:lvgl/src/lv_widgets/lv_canvas.c ****         uint32_t row_byte_cnt = (dsc->header.w + 7) >> 3;
 4463              		.loc 1 664 7 discriminator 2 view .LVU1401
 4464 002a 072B     		cmp	r3, #7
 4465 002c 03D0     		beq	.L285
 669:lvgl/src/lv_widgets/lv_canvas.c ****         uint32_t row_byte_cnt = (dsc->header.w + 7) >> 3;
 4466              		.loc 1 669 10 is_stmt 1 view .LVU1402
 669:lvgl/src/lv_widgets/lv_canvas.c ****         uint32_t row_byte_cnt = (dsc->header.w + 7) >> 3;
 4467              		.loc 1 669 12 is_stmt 0 view .LVU1403
 4468 002e 0B2B     		cmp	r3, #11
 4469 0030 19D0     		beq	.L286
 4470              	.LBB149:
ARM GAS  D:\Temp\cc0vPyDE.s 			page 146


 676:lvgl/src/lv_widgets/lv_canvas.c ****             for(x = 0; x < dsc->header.w; x++) {
 4471              		.loc 1 676 15 view .LVU1404
 4472 0032 0026     		movs	r6, #0
 4473 0034 41E0     		b	.L276
 4474              	.L285:
 4475              	.LBE149:
 4476              	.LBB150:
 665:lvgl/src/lv_widgets/lv_canvas.c ****         /*+8 skip the palette*/
 4477              		.loc 1 665 9 is_stmt 1 view .LVU1405
 665:lvgl/src/lv_widgets/lv_canvas.c ****         /*+8 skip the palette*/
 4478              		.loc 1 665 45 is_stmt 0 view .LVU1406
 4479 0036 0368     		ldr	r3, [r0]
 4480 0038 C3F38A23 		ubfx	r3, r3, #10, #11
 665:lvgl/src/lv_widgets/lv_canvas.c ****         /*+8 skip the palette*/
 4481              		.loc 1 665 48 view .LVU1407
 4482 003c 0733     		adds	r3, r3, #7
 665:lvgl/src/lv_widgets/lv_canvas.c ****         /*+8 skip the palette*/
 4483              		.loc 1 665 53 view .LVU1408
 4484 003e DB10     		asrs	r3, r3, #3
 4485              	.LVL474:
 667:lvgl/src/lv_widgets/lv_canvas.c ****     }
 4486              		.loc 1 667 9 is_stmt 1 view .LVU1409
 667:lvgl/src/lv_widgets/lv_canvas.c ****     }
 4487              		.loc 1 667 34 is_stmt 0 view .LVU1410
 4488 0040 8268     		ldr	r2, [r0, #8]
 667:lvgl/src/lv_widgets/lv_canvas.c ****     }
 4489              		.loc 1 667 9 view .LVU1411
 4490 0042 02F10800 		add	r0, r2, #8
 4491              	.LVL475:
 667:lvgl/src/lv_widgets/lv_canvas.c ****     }
 4492              		.loc 1 667 51 view .LVU1412
 4493 0046 BFB2     		uxth	r7, r7
 4494              	.LVL476:
 667:lvgl/src/lv_widgets/lv_canvas.c ****     }
 4495              		.loc 1 667 9 view .LVU1413
 4496 0048 5FB1     		cbz	r7, .L280
 4497 004a FF21     		movs	r1, #255
 4498              	.L274:
 667:lvgl/src/lv_widgets/lv_canvas.c ****     }
 4499              		.loc 1 667 98 discriminator 4 view .LVU1414
 4500 004c 6288     		ldrh	r2, [r4, #2]
 4501 004e 5209     		lsrs	r2, r2, #5
 667:lvgl/src/lv_widgets/lv_canvas.c ****     }
 4502              		.loc 1 667 9 discriminator 4 view .LVU1415
 4503 0050 03FB02F2 		mul	r2, r3, r2
 4504 0054 FFF7FEFF 		bl	_lv_memset
 4505              	.LVL477:
 4506              	.L275:
 667:lvgl/src/lv_widgets/lv_canvas.c ****     }
 4507              		.loc 1 667 9 discriminator 4 view .LVU1416
 4508              	.LBE150:
 684:lvgl/src/lv_widgets/lv_canvas.c **** }
 4509              		.loc 1 684 5 is_stmt 1 view .LVU1417
 4510 0058 4046     		mov	r0, r8
 4511 005a FFF7FEFF 		bl	lv_obj_invalidate
 4512              	.LVL478:
 685:lvgl/src/lv_widgets/lv_canvas.c **** 
ARM GAS  D:\Temp\cc0vPyDE.s 			page 147


 4513              		.loc 1 685 1 is_stmt 0 view .LVU1418
 4514 005e BDE8F88F 		pop	{r3, r4, r5, r6, r7, r8, r9, r10, fp, pc}
 4515              	.LVL479:
 4516              	.L280:
 4517              	.LBB151:
 667:lvgl/src/lv_widgets/lv_canvas.c ****     }
 4518              		.loc 1 667 9 view .LVU1419
 4519 0062 0021     		movs	r1, #0
 4520 0064 F2E7     		b	.L274
 4521              	.LVL480:
 4522              	.L286:
 667:lvgl/src/lv_widgets/lv_canvas.c ****     }
 4523              		.loc 1 667 9 view .LVU1420
 4524              	.LBE151:
 4525              	.LBB152:
 670:lvgl/src/lv_widgets/lv_canvas.c ****         _lv_memset((uint8_t *)dsc->data, opa > LV_OPA_50 ? 0xff : 0x00, row_byte_cnt * dsc->header.
 4526              		.loc 1 670 9 is_stmt 1 view .LVU1421
 670:lvgl/src/lv_widgets/lv_canvas.c ****         _lv_memset((uint8_t *)dsc->data, opa > LV_OPA_50 ? 0xff : 0x00, row_byte_cnt * dsc->header.
 4527              		.loc 1 670 45 is_stmt 0 view .LVU1422
 4528 0066 0368     		ldr	r3, [r0]
 4529 0068 C3F38A23 		ubfx	r3, r3, #10, #11
 670:lvgl/src/lv_widgets/lv_canvas.c ****         _lv_memset((uint8_t *)dsc->data, opa > LV_OPA_50 ? 0xff : 0x00, row_byte_cnt * dsc->header.
 4530              		.loc 1 670 48 view .LVU1423
 4531 006c 0733     		adds	r3, r3, #7
 670:lvgl/src/lv_widgets/lv_canvas.c ****         _lv_memset((uint8_t *)dsc->data, opa > LV_OPA_50 ? 0xff : 0x00, row_byte_cnt * dsc->header.
 4532              		.loc 1 670 53 view .LVU1424
 4533 006e DB10     		asrs	r3, r3, #3
 4534              	.LVL481:
 671:lvgl/src/lv_widgets/lv_canvas.c ****     }
 4535              		.loc 1 671 9 is_stmt 1 view .LVU1425
 671:lvgl/src/lv_widgets/lv_canvas.c ****     }
 4536              		.loc 1 671 34 is_stmt 0 view .LVU1426
 4537 0070 8068     		ldr	r0, [r0, #8]
 4538              	.LVL482:
 671:lvgl/src/lv_widgets/lv_canvas.c ****     }
 4539              		.loc 1 671 9 view .LVU1427
 4540 0072 19F0800F 		tst	r9, #128
 4541 0076 07D1     		bne	.L287
 4542 0078 0021     		movs	r1, #0
 4543              	.L277:
 671:lvgl/src/lv_widgets/lv_canvas.c ****     }
 4544              		.loc 1 671 99 discriminator 4 view .LVU1428
 4545 007a 6288     		ldrh	r2, [r4, #2]
 4546 007c 5209     		lsrs	r2, r2, #5
 671:lvgl/src/lv_widgets/lv_canvas.c ****     }
 4547              		.loc 1 671 9 discriminator 4 view .LVU1429
 4548 007e 03FB02F2 		mul	r2, r3, r2
 4549 0082 FFF7FEFF 		bl	_lv_memset
 4550              	.LVL483:
 671:lvgl/src/lv_widgets/lv_canvas.c ****     }
 4551              		.loc 1 671 9 discriminator 4 view .LVU1430
 4552              	.LBE152:
 4553 0086 E7E7     		b	.L275
 4554              	.LVL484:
 4555              	.L287:
 4556              	.LBB153:
 671:lvgl/src/lv_widgets/lv_canvas.c ****     }
ARM GAS  D:\Temp\cc0vPyDE.s 			page 148


 4557              		.loc 1 671 9 view .LVU1431
 4558 0088 FF21     		movs	r1, #255
 4559 008a F6E7     		b	.L277
 4560              	.LVL485:
 4561              	.L278:
 671:lvgl/src/lv_widgets/lv_canvas.c ****     }
 4562              		.loc 1 671 9 view .LVU1432
 4563              	.LBE153:
 4564              	.LBB154:
 678:lvgl/src/lv_widgets/lv_canvas.c ****                 lv_img_buf_set_px_alpha(dsc, x, y, opa);
 4565              		.loc 1 678 17 is_stmt 1 discriminator 3 view .LVU1433
 4566 008c 0FFA85FB 		sxth	fp, r5
 4567 0090 0FFA86FA 		sxth	r10, r6
 4568 0094 3B46     		mov	r3, r7	@ movhi
 4569 0096 5246     		mov	r2, r10
 4570 0098 5946     		mov	r1, fp
 4571 009a 2046     		mov	r0, r4
 4572 009c FFF7FEFF 		bl	lv_img_buf_set_px_color
 4573              	.LVL486:
 679:lvgl/src/lv_widgets/lv_canvas.c ****             }
 4574              		.loc 1 679 17 discriminator 3 view .LVU1434
 4575 00a0 4B46     		mov	r3, r9
 4576 00a2 5246     		mov	r2, r10
 4577 00a4 5946     		mov	r1, fp
 4578 00a6 2046     		mov	r0, r4
 4579 00a8 FFF7FEFF 		bl	lv_img_buf_set_px_alpha
 4580              	.LVL487:
 677:lvgl/src/lv_widgets/lv_canvas.c ****                 lv_img_buf_set_px_color(dsc, x, y, color);
 4581              		.loc 1 677 44 is_stmt 0 discriminator 3 view .LVU1435
 4582 00ac 0135     		adds	r5, r5, #1
 4583              	.LVL488:
 4584              	.L279:
 677:lvgl/src/lv_widgets/lv_canvas.c ****                 lv_img_buf_set_px_color(dsc, x, y, color);
 4585              		.loc 1 677 39 discriminator 1 view .LVU1436
 4586 00ae 2368     		ldr	r3, [r4]
 4587 00b0 C3F38A23 		ubfx	r3, r3, #10, #11
 677:lvgl/src/lv_widgets/lv_canvas.c ****                 lv_img_buf_set_px_color(dsc, x, y, color);
 4588              		.loc 1 677 13 discriminator 1 view .LVU1437
 4589 00b4 AB42     		cmp	r3, r5
 4590 00b6 E9D8     		bhi	.L278
 676:lvgl/src/lv_widgets/lv_canvas.c ****             for(x = 0; x < dsc->header.w; x++) {
 4591              		.loc 1 676 40 discriminator 2 view .LVU1438
 4592 00b8 0136     		adds	r6, r6, #1
 4593              	.LVL489:
 4594              	.L276:
 676:lvgl/src/lv_widgets/lv_canvas.c ****             for(x = 0; x < dsc->header.w; x++) {
 4595              		.loc 1 676 35 discriminator 1 view .LVU1439
 4596 00ba 6388     		ldrh	r3, [r4, #2]
 676:lvgl/src/lv_widgets/lv_canvas.c ****             for(x = 0; x < dsc->header.w; x++) {
 4597              		.loc 1 676 9 discriminator 1 view .LVU1440
 4598 00bc B6EB531F 		cmp	r6, r3, lsr #5
 4599 00c0 CAD2     		bcs	.L275
 677:lvgl/src/lv_widgets/lv_canvas.c ****                 lv_img_buf_set_px_color(dsc, x, y, color);
 4600              		.loc 1 677 19 view .LVU1441
 4601 00c2 0025     		movs	r5, #0
 4602 00c4 F3E7     		b	.L279
 4603              	.L289:
ARM GAS  D:\Temp\cc0vPyDE.s 			page 149


 4604 00c6 00BF     		.align	2
 4605              	.L288:
 4606 00c8 00000000 		.word	.LC2
 4607              	.LBE154:
 4608              		.cfi_endproc
 4609              	.LFE468:
 4611              		.section	.text.lv_canvas_draw_rect,"ax",%progbits
 4612              		.align	1
 4613              		.global	lv_canvas_draw_rect
 4614              		.syntax unified
 4615              		.thumb
 4616              		.thumb_func
 4617              		.fpu fpv4-sp-d16
 4619              	lv_canvas_draw_rect:
 4620              	.LVL490:
 4621              	.LFB469:
 698:lvgl/src/lv_widgets/lv_canvas.c ****     LV_ASSERT_OBJ(canvas, LV_OBJX_NAME);
 4622              		.loc 1 698 1 is_stmt 1 view -0
 4623              		.cfi_startproc
 4624              		@ args = 8, pretend = 0, frame = 448
 4625              		@ frame_needed = 0, uses_anonymous_args = 0
 698:lvgl/src/lv_widgets/lv_canvas.c ****     LV_ASSERT_OBJ(canvas, LV_OBJX_NAME);
 4626              		.loc 1 698 1 is_stmt 0 view .LVU1443
 4627 0000 2DE9F047 		push	{r4, r5, r6, r7, r8, r9, r10, lr}
 4628              	.LCFI41:
 4629              		.cfi_def_cfa_offset 32
 4630              		.cfi_offset 4, -32
 4631              		.cfi_offset 5, -28
 4632              		.cfi_offset 6, -24
 4633              		.cfi_offset 7, -20
 4634              		.cfi_offset 8, -16
 4635              		.cfi_offset 9, -12
 4636              		.cfi_offset 10, -8
 4637              		.cfi_offset 14, -4
 4638 0004 F0B0     		sub	sp, sp, #448
 4639              	.LCFI42:
 4640              		.cfi_def_cfa_offset 480
 4641 0006 0746     		mov	r7, r0
 4642 0008 8946     		mov	r9, r1
 4643 000a 1546     		mov	r5, r2
 4644 000c 9A46     		mov	r10, r3
 4645 000e 799E     		ldr	r6, [sp, #484]
 699:lvgl/src/lv_widgets/lv_canvas.c **** 
 4646              		.loc 1 699 5 is_stmt 1 view .LVU1444
 699:lvgl/src/lv_widgets/lv_canvas.c **** 
 4647              		.loc 1 699 5 view .LVU1445
 4648 0010 FFF7FEFF 		bl	lv_debug_check_null
 4649              	.LVL491:
 699:lvgl/src/lv_widgets/lv_canvas.c **** 
 4650              		.loc 1 699 5 is_stmt 0 view .LVU1446
 4651 0014 28B9     		cbnz	r0, .L291
 699:lvgl/src/lv_widgets/lv_canvas.c **** 
 4652              		.loc 1 699 5 is_stmt 1 discriminator 1 view .LVU1447
 699:lvgl/src/lv_widgets/lv_canvas.c **** 
 4653              		.loc 1 699 5 discriminator 1 view .LVU1448
 4654 0016 3A46     		mov	r2, r7
 4655 0018 0023     		movs	r3, #0
ARM GAS  D:\Temp\cc0vPyDE.s 			page 150


 4656 001a 4448     		ldr	r0, .L301
 4657 001c FFF7FEFF 		bl	lv_debug_log_error
 4658              	.LVL492:
 4659              	.L292:
 699:lvgl/src/lv_widgets/lv_canvas.c **** 
 4660              		.loc 1 699 5 discriminator 1 view .LVU1449
 699:lvgl/src/lv_widgets/lv_canvas.c **** 
 4661              		.loc 1 699 5 discriminator 1 view .LVU1450
 4662 0020 FEE7     		b	.L292
 4663              	.L291:
 699:lvgl/src/lv_widgets/lv_canvas.c **** 
 4664              		.loc 1 699 40 discriminator 2 view .LVU1451
 701:lvgl/src/lv_widgets/lv_canvas.c **** 
 4665              		.loc 1 701 5 discriminator 2 view .LVU1452
 701:lvgl/src/lv_widgets/lv_canvas.c **** 
 4666              		.loc 1 701 26 is_stmt 0 discriminator 2 view .LVU1453
 4667 0022 3846     		mov	r0, r7
 4668 0024 FFF7FEFF 		bl	lv_canvas_get_img
 4669              	.LVL493:
 4670 0028 0446     		mov	r4, r0
 4671              	.LVL494:
 703:lvgl/src/lv_widgets/lv_canvas.c ****         LV_LOG_WARN("lv_canvas_draw_rect: can't draw to LV_IMG_CF_INDEXED canvas");
 4672              		.loc 1 703 5 is_stmt 1 discriminator 2 view .LVU1454
 703:lvgl/src/lv_widgets/lv_canvas.c ****         LV_LOG_WARN("lv_canvas_draw_rect: can't draw to LV_IMG_CF_INDEXED canvas");
 4673              		.loc 1 703 19 is_stmt 0 discriminator 2 view .LVU1455
 4674 002a 0378     		ldrb	r3, [r0]	@ zero_extendqisi2
 4675 002c 03F01F03 		and	r3, r3, #31
 703:lvgl/src/lv_widgets/lv_canvas.c ****         LV_LOG_WARN("lv_canvas_draw_rect: can't draw to LV_IMG_CF_INDEXED canvas");
 4676              		.loc 1 703 49 discriminator 2 view .LVU1456
 4677 0030 1933     		adds	r3, r3, #25
 4678 0032 03F01F03 		and	r3, r3, #31
 703:lvgl/src/lv_widgets/lv_canvas.c ****         LV_LOG_WARN("lv_canvas_draw_rect: can't draw to LV_IMG_CF_INDEXED canvas");
 4679              		.loc 1 703 7 discriminator 2 view .LVU1457
 4680 0036 032B     		cmp	r3, #3
 4681 0038 02D8     		bhi	.L299
 4682              	.LVL495:
 4683              	.L290:
 755:lvgl/src/lv_widgets/lv_canvas.c **** 
 4684              		.loc 1 755 1 view .LVU1458
 4685 003a 70B0     		add	sp, sp, #448
 4686              	.LCFI43:
 4687              		.cfi_remember_state
 4688              		.cfi_def_cfa_offset 32
 4689              		@ sp needed
 4690 003c BDE8F087 		pop	{r4, r5, r6, r7, r8, r9, r10, pc}
 4691              	.LVL496:
 4692              	.L299:
 4693              	.LCFI44:
 4694              		.cfi_restore_state
 710:lvgl/src/lv_widgets/lv_canvas.c ****     mask.x1 = 0;
 4695              		.loc 1 710 5 is_stmt 1 view .LVU1459
 711:lvgl/src/lv_widgets/lv_canvas.c ****     mask.x2 = dsc->header.w - 1;
 4696              		.loc 1 711 5 view .LVU1460
 711:lvgl/src/lv_widgets/lv_canvas.c ****     mask.x2 = dsc->header.w - 1;
 4697              		.loc 1 711 13 is_stmt 0 view .LVU1461
 4698 0040 4FF00008 		mov	r8, #0
 4699 0044 ADF8B881 		strh	r8, [sp, #440]	@ movhi
ARM GAS  D:\Temp\cc0vPyDE.s 			page 151


 712:lvgl/src/lv_widgets/lv_canvas.c ****     mask.y1 = 0;
 4700              		.loc 1 712 5 is_stmt 1 view .LVU1462
 712:lvgl/src/lv_widgets/lv_canvas.c ****     mask.y1 = 0;
 4701              		.loc 1 712 26 is_stmt 0 view .LVU1463
 4702 0048 0368     		ldr	r3, [r0]
 4703 004a C3F38A23 		ubfx	r3, r3, #10, #11
 712:lvgl/src/lv_widgets/lv_canvas.c ****     mask.y1 = 0;
 4704              		.loc 1 712 29 view .LVU1464
 4705 004e 013B     		subs	r3, r3, #1
 712:lvgl/src/lv_widgets/lv_canvas.c ****     mask.y1 = 0;
 4706              		.loc 1 712 13 view .LVU1465
 4707 0050 ADF8BC31 		strh	r3, [sp, #444]	@ movhi
 713:lvgl/src/lv_widgets/lv_canvas.c ****     mask.y2 = dsc->header.h - 1;
 4708              		.loc 1 713 5 is_stmt 1 view .LVU1466
 713:lvgl/src/lv_widgets/lv_canvas.c ****     mask.y2 = dsc->header.h - 1;
 4709              		.loc 1 713 13 is_stmt 0 view .LVU1467
 4710 0054 ADF8BA81 		strh	r8, [sp, #442]	@ movhi
 714:lvgl/src/lv_widgets/lv_canvas.c **** 
 4711              		.loc 1 714 5 is_stmt 1 view .LVU1468
 714:lvgl/src/lv_widgets/lv_canvas.c **** 
 4712              		.loc 1 714 26 is_stmt 0 view .LVU1469
 4713 0058 4388     		ldrh	r3, [r0, #2]
 4714 005a 5B09     		lsrs	r3, r3, #5
 714:lvgl/src/lv_widgets/lv_canvas.c **** 
 4715              		.loc 1 714 29 view .LVU1470
 4716 005c 013B     		subs	r3, r3, #1
 714:lvgl/src/lv_widgets/lv_canvas.c **** 
 4717              		.loc 1 714 13 view .LVU1471
 4718 005e ADF8BE31 		strh	r3, [sp, #446]	@ movhi
 716:lvgl/src/lv_widgets/lv_canvas.c ****     coords.x1 = x;
 4719              		.loc 1 716 5 is_stmt 1 view .LVU1472
 717:lvgl/src/lv_widgets/lv_canvas.c ****     coords.y1 = y;
 4720              		.loc 1 717 5 view .LVU1473
 717:lvgl/src/lv_widgets/lv_canvas.c ****     coords.y1 = y;
 4721              		.loc 1 717 15 is_stmt 0 view .LVU1474
 4722 0062 ADF8B091 		strh	r9, [sp, #432]	@ movhi
 718:lvgl/src/lv_widgets/lv_canvas.c ****     coords.x2 = x + w - 1;
 4723              		.loc 1 718 5 is_stmt 1 view .LVU1475
 718:lvgl/src/lv_widgets/lv_canvas.c ****     coords.x2 = x + w - 1;
 4724              		.loc 1 718 15 is_stmt 0 view .LVU1476
 4725 0066 ADF8B251 		strh	r5, [sp, #434]	@ movhi
 719:lvgl/src/lv_widgets/lv_canvas.c ****     coords.y2 = y + h - 1;
 4726              		.loc 1 719 5 is_stmt 1 view .LVU1477
 719:lvgl/src/lv_widgets/lv_canvas.c ****     coords.y2 = y + h - 1;
 4727              		.loc 1 719 19 is_stmt 0 view .LVU1478
 4728 006a 09EB0A03 		add	r3, r9, r10
 4729 006e 9BB2     		uxth	r3, r3
 719:lvgl/src/lv_widgets/lv_canvas.c ****     coords.y2 = y + h - 1;
 4730              		.loc 1 719 23 view .LVU1479
 4731 0070 013B     		subs	r3, r3, #1
 719:lvgl/src/lv_widgets/lv_canvas.c ****     coords.y2 = y + h - 1;
 4732              		.loc 1 719 15 view .LVU1480
 4733 0072 ADF8B431 		strh	r3, [sp, #436]	@ movhi
 720:lvgl/src/lv_widgets/lv_canvas.c **** 
 4734              		.loc 1 720 5 is_stmt 1 view .LVU1481
 720:lvgl/src/lv_widgets/lv_canvas.c **** 
 4735              		.loc 1 720 19 is_stmt 0 view .LVU1482
ARM GAS  D:\Temp\cc0vPyDE.s 			page 152


 4736 0076 BDF9E031 		ldrsh	r3, [sp, #480]
 4737 007a 2B44     		add	r3, r3, r5
 4738 007c 9BB2     		uxth	r3, r3
 720:lvgl/src/lv_widgets/lv_canvas.c **** 
 4739              		.loc 1 720 23 view .LVU1483
 4740 007e 013B     		subs	r3, r3, #1
 720:lvgl/src/lv_widgets/lv_canvas.c **** 
 4741              		.loc 1 720 15 view .LVU1484
 4742 0080 ADF8B631 		strh	r3, [sp, #438]	@ movhi
 722:lvgl/src/lv_widgets/lv_canvas.c ****     _lv_memset_00(&disp, sizeof(lv_disp_t));
 4743              		.loc 1 722 5 is_stmt 1 view .LVU1485
 723:lvgl/src/lv_widgets/lv_canvas.c **** 
 4744              		.loc 1 723 5 view .LVU1486
 4745 0084 4FF4C471 		mov	r1, #392
 4746 0088 0AA8     		add	r0, sp, #40
 4747              	.LVL497:
 723:lvgl/src/lv_widgets/lv_canvas.c **** 
 4748              		.loc 1 723 5 is_stmt 0 view .LVU1487
 4749 008a FFF7FEFF 		bl	_lv_memset_00
 4750              	.LVL498:
 725:lvgl/src/lv_widgets/lv_canvas.c ****     lv_disp_buf_init(&disp_buf, (void *)dsc->data, NULL, dsc->header.w * dsc->header.h);
 4751              		.loc 1 725 5 is_stmt 1 view .LVU1488
 726:lvgl/src/lv_widgets/lv_canvas.c ****     lv_area_copy(&disp_buf.area, &mask);
 4752              		.loc 1 726 5 view .LVU1489
 726:lvgl/src/lv_widgets/lv_canvas.c ****     lv_area_copy(&disp_buf.area, &mask);
 4753              		.loc 1 726 69 is_stmt 0 view .LVU1490
 4754 008e 2368     		ldr	r3, [r4]
 4755 0090 C3F38A23 		ubfx	r3, r3, #10, #11
 726:lvgl/src/lv_widgets/lv_canvas.c ****     lv_area_copy(&disp_buf.area, &mask);
 4756              		.loc 1 726 85 view .LVU1491
 4757 0094 6288     		ldrh	r2, [r4, #2]
 4758 0096 5209     		lsrs	r2, r2, #5
 726:lvgl/src/lv_widgets/lv_canvas.c ****     lv_area_copy(&disp_buf.area, &mask);
 4759              		.loc 1 726 5 view .LVU1492
 4760 0098 02FB03F3 		mul	r3, r2, r3
 4761 009c 4246     		mov	r2, r8
 4762 009e A168     		ldr	r1, [r4, #8]
 4763 00a0 01A8     		add	r0, sp, #4
 4764 00a2 FFF7FEFF 		bl	lv_disp_buf_init
 4765              	.LVL499:
 727:lvgl/src/lv_widgets/lv_canvas.c **** 
 4766              		.loc 1 727 5 is_stmt 1 view .LVU1493
 4767              	.LBB155:
 4768              	.LBI155:
 4769              		.file 6 "d:\\_project\\stm32\\f407\\hack_rf_new\\lvgl\\src\\lv_misc\\lv_area.h"
   1:d:\_project\stm32\f407\hack_rf_new\lvgl\src\lv_misc\lv_area.h **** /**
   2:d:\_project\stm32\f407\hack_rf_new\lvgl\src\lv_misc\lv_area.h ****  * @file lv_area.h
   3:d:\_project\stm32\f407\hack_rf_new\lvgl\src\lv_misc\lv_area.h ****  *
   4:d:\_project\stm32\f407\hack_rf_new\lvgl\src\lv_misc\lv_area.h ****  */
   5:d:\_project\stm32\f407\hack_rf_new\lvgl\src\lv_misc\lv_area.h **** 
   6:d:\_project\stm32\f407\hack_rf_new\lvgl\src\lv_misc\lv_area.h **** #ifndef LV_AREA_H
   7:d:\_project\stm32\f407\hack_rf_new\lvgl\src\lv_misc\lv_area.h **** #define LV_AREA_H
   8:d:\_project\stm32\f407\hack_rf_new\lvgl\src\lv_misc\lv_area.h **** 
   9:d:\_project\stm32\f407\hack_rf_new\lvgl\src\lv_misc\lv_area.h **** #ifdef __cplusplus
  10:d:\_project\stm32\f407\hack_rf_new\lvgl\src\lv_misc\lv_area.h **** extern "C" {
  11:d:\_project\stm32\f407\hack_rf_new\lvgl\src\lv_misc\lv_area.h **** #endif
  12:d:\_project\stm32\f407\hack_rf_new\lvgl\src\lv_misc\lv_area.h **** 
ARM GAS  D:\Temp\cc0vPyDE.s 			page 153


  13:d:\_project\stm32\f407\hack_rf_new\lvgl\src\lv_misc\lv_area.h **** /*********************
  14:d:\_project\stm32\f407\hack_rf_new\lvgl\src\lv_misc\lv_area.h ****  *      INCLUDES
  15:d:\_project\stm32\f407\hack_rf_new\lvgl\src\lv_misc\lv_area.h ****  *********************/
  16:d:\_project\stm32\f407\hack_rf_new\lvgl\src\lv_misc\lv_area.h **** #include "../lv_conf_internal.h"
  17:d:\_project\stm32\f407\hack_rf_new\lvgl\src\lv_misc\lv_area.h **** #include <string.h>
  18:d:\_project\stm32\f407\hack_rf_new\lvgl\src\lv_misc\lv_area.h **** #include <stdbool.h>
  19:d:\_project\stm32\f407\hack_rf_new\lvgl\src\lv_misc\lv_area.h **** #include <stdint.h>
  20:d:\_project\stm32\f407\hack_rf_new\lvgl\src\lv_misc\lv_area.h **** #include "lv_mem.h"
  21:d:\_project\stm32\f407\hack_rf_new\lvgl\src\lv_misc\lv_area.h **** 
  22:d:\_project\stm32\f407\hack_rf_new\lvgl\src\lv_misc\lv_area.h **** /*********************
  23:d:\_project\stm32\f407\hack_rf_new\lvgl\src\lv_misc\lv_area.h ****  *      DEFINES
  24:d:\_project\stm32\f407\hack_rf_new\lvgl\src\lv_misc\lv_area.h ****  *********************/
  25:d:\_project\stm32\f407\hack_rf_new\lvgl\src\lv_misc\lv_area.h **** /*To avoid overflow don't let the max ranges (reduce with 1000) */
  26:d:\_project\stm32\f407\hack_rf_new\lvgl\src\lv_misc\lv_area.h **** #define LV_COORD_MAX ((lv_coord_t)((uint32_t)((uint32_t)1 << (8 * sizeof(lv_coord_t) - 1)) - 1000))
  27:d:\_project\stm32\f407\hack_rf_new\lvgl\src\lv_misc\lv_area.h **** #define LV_COORD_MIN (-LV_COORD_MAX)
  28:d:\_project\stm32\f407\hack_rf_new\lvgl\src\lv_misc\lv_area.h **** 
  29:d:\_project\stm32\f407\hack_rf_new\lvgl\src\lv_misc\lv_area.h **** LV_EXPORT_CONST_INT(LV_COORD_MAX);
  30:d:\_project\stm32\f407\hack_rf_new\lvgl\src\lv_misc\lv_area.h **** LV_EXPORT_CONST_INT(LV_COORD_MIN);
  31:d:\_project\stm32\f407\hack_rf_new\lvgl\src\lv_misc\lv_area.h **** 
  32:d:\_project\stm32\f407\hack_rf_new\lvgl\src\lv_misc\lv_area.h **** /**********************
  33:d:\_project\stm32\f407\hack_rf_new\lvgl\src\lv_misc\lv_area.h ****  *      TYPEDEFS
  34:d:\_project\stm32\f407\hack_rf_new\lvgl\src\lv_misc\lv_area.h ****  **********************/
  35:d:\_project\stm32\f407\hack_rf_new\lvgl\src\lv_misc\lv_area.h **** 
  36:d:\_project\stm32\f407\hack_rf_new\lvgl\src\lv_misc\lv_area.h **** /**
  37:d:\_project\stm32\f407\hack_rf_new\lvgl\src\lv_misc\lv_area.h ****  * Represents a point on the screen.
  38:d:\_project\stm32\f407\hack_rf_new\lvgl\src\lv_misc\lv_area.h ****  */
  39:d:\_project\stm32\f407\hack_rf_new\lvgl\src\lv_misc\lv_area.h **** typedef struct {
  40:d:\_project\stm32\f407\hack_rf_new\lvgl\src\lv_misc\lv_area.h ****     lv_coord_t x;
  41:d:\_project\stm32\f407\hack_rf_new\lvgl\src\lv_misc\lv_area.h ****     lv_coord_t y;
  42:d:\_project\stm32\f407\hack_rf_new\lvgl\src\lv_misc\lv_area.h **** } lv_point_t;
  43:d:\_project\stm32\f407\hack_rf_new\lvgl\src\lv_misc\lv_area.h **** 
  44:d:\_project\stm32\f407\hack_rf_new\lvgl\src\lv_misc\lv_area.h **** /** Represents an area of the screen. */
  45:d:\_project\stm32\f407\hack_rf_new\lvgl\src\lv_misc\lv_area.h **** typedef struct {
  46:d:\_project\stm32\f407\hack_rf_new\lvgl\src\lv_misc\lv_area.h ****     lv_coord_t x1;
  47:d:\_project\stm32\f407\hack_rf_new\lvgl\src\lv_misc\lv_area.h ****     lv_coord_t y1;
  48:d:\_project\stm32\f407\hack_rf_new\lvgl\src\lv_misc\lv_area.h ****     lv_coord_t x2;
  49:d:\_project\stm32\f407\hack_rf_new\lvgl\src\lv_misc\lv_area.h ****     lv_coord_t y2;
  50:d:\_project\stm32\f407\hack_rf_new\lvgl\src\lv_misc\lv_area.h **** } lv_area_t;
  51:d:\_project\stm32\f407\hack_rf_new\lvgl\src\lv_misc\lv_area.h **** 
  52:d:\_project\stm32\f407\hack_rf_new\lvgl\src\lv_misc\lv_area.h **** /** Alignments */
  53:d:\_project\stm32\f407\hack_rf_new\lvgl\src\lv_misc\lv_area.h **** enum {
  54:d:\_project\stm32\f407\hack_rf_new\lvgl\src\lv_misc\lv_area.h ****     LV_ALIGN_CENTER = 0,
  55:d:\_project\stm32\f407\hack_rf_new\lvgl\src\lv_misc\lv_area.h ****     LV_ALIGN_IN_TOP_LEFT,
  56:d:\_project\stm32\f407\hack_rf_new\lvgl\src\lv_misc\lv_area.h ****     LV_ALIGN_IN_TOP_MID,
  57:d:\_project\stm32\f407\hack_rf_new\lvgl\src\lv_misc\lv_area.h ****     LV_ALIGN_IN_TOP_RIGHT,
  58:d:\_project\stm32\f407\hack_rf_new\lvgl\src\lv_misc\lv_area.h ****     LV_ALIGN_IN_BOTTOM_LEFT,
  59:d:\_project\stm32\f407\hack_rf_new\lvgl\src\lv_misc\lv_area.h ****     LV_ALIGN_IN_BOTTOM_MID,
  60:d:\_project\stm32\f407\hack_rf_new\lvgl\src\lv_misc\lv_area.h ****     LV_ALIGN_IN_BOTTOM_RIGHT,
  61:d:\_project\stm32\f407\hack_rf_new\lvgl\src\lv_misc\lv_area.h ****     LV_ALIGN_IN_LEFT_MID,
  62:d:\_project\stm32\f407\hack_rf_new\lvgl\src\lv_misc\lv_area.h ****     LV_ALIGN_IN_RIGHT_MID,
  63:d:\_project\stm32\f407\hack_rf_new\lvgl\src\lv_misc\lv_area.h ****     LV_ALIGN_OUT_TOP_LEFT,
  64:d:\_project\stm32\f407\hack_rf_new\lvgl\src\lv_misc\lv_area.h ****     LV_ALIGN_OUT_TOP_MID,
  65:d:\_project\stm32\f407\hack_rf_new\lvgl\src\lv_misc\lv_area.h ****     LV_ALIGN_OUT_TOP_RIGHT,
  66:d:\_project\stm32\f407\hack_rf_new\lvgl\src\lv_misc\lv_area.h ****     LV_ALIGN_OUT_BOTTOM_LEFT,
  67:d:\_project\stm32\f407\hack_rf_new\lvgl\src\lv_misc\lv_area.h ****     LV_ALIGN_OUT_BOTTOM_MID,
  68:d:\_project\stm32\f407\hack_rf_new\lvgl\src\lv_misc\lv_area.h ****     LV_ALIGN_OUT_BOTTOM_RIGHT,
  69:d:\_project\stm32\f407\hack_rf_new\lvgl\src\lv_misc\lv_area.h ****     LV_ALIGN_OUT_LEFT_TOP,
ARM GAS  D:\Temp\cc0vPyDE.s 			page 154


  70:d:\_project\stm32\f407\hack_rf_new\lvgl\src\lv_misc\lv_area.h ****     LV_ALIGN_OUT_LEFT_MID,
  71:d:\_project\stm32\f407\hack_rf_new\lvgl\src\lv_misc\lv_area.h ****     LV_ALIGN_OUT_LEFT_BOTTOM,
  72:d:\_project\stm32\f407\hack_rf_new\lvgl\src\lv_misc\lv_area.h ****     LV_ALIGN_OUT_RIGHT_TOP,
  73:d:\_project\stm32\f407\hack_rf_new\lvgl\src\lv_misc\lv_area.h ****     LV_ALIGN_OUT_RIGHT_MID,
  74:d:\_project\stm32\f407\hack_rf_new\lvgl\src\lv_misc\lv_area.h ****     LV_ALIGN_OUT_RIGHT_BOTTOM,
  75:d:\_project\stm32\f407\hack_rf_new\lvgl\src\lv_misc\lv_area.h **** };
  76:d:\_project\stm32\f407\hack_rf_new\lvgl\src\lv_misc\lv_area.h **** typedef uint8_t lv_align_t;
  77:d:\_project\stm32\f407\hack_rf_new\lvgl\src\lv_misc\lv_area.h **** 
  78:d:\_project\stm32\f407\hack_rf_new\lvgl\src\lv_misc\lv_area.h **** /**********************
  79:d:\_project\stm32\f407\hack_rf_new\lvgl\src\lv_misc\lv_area.h ****  * GLOBAL PROTOTYPES
  80:d:\_project\stm32\f407\hack_rf_new\lvgl\src\lv_misc\lv_area.h ****  **********************/
  81:d:\_project\stm32\f407\hack_rf_new\lvgl\src\lv_misc\lv_area.h **** 
  82:d:\_project\stm32\f407\hack_rf_new\lvgl\src\lv_misc\lv_area.h **** /**
  83:d:\_project\stm32\f407\hack_rf_new\lvgl\src\lv_misc\lv_area.h ****  * Initialize an area
  84:d:\_project\stm32\f407\hack_rf_new\lvgl\src\lv_misc\lv_area.h ****  * @param area_p pointer to an area
  85:d:\_project\stm32\f407\hack_rf_new\lvgl\src\lv_misc\lv_area.h ****  * @param x1 left coordinate of the area
  86:d:\_project\stm32\f407\hack_rf_new\lvgl\src\lv_misc\lv_area.h ****  * @param y1 top coordinate of the area
  87:d:\_project\stm32\f407\hack_rf_new\lvgl\src\lv_misc\lv_area.h ****  * @param x2 right coordinate of the area
  88:d:\_project\stm32\f407\hack_rf_new\lvgl\src\lv_misc\lv_area.h ****  * @param y2 bottom coordinate of the area
  89:d:\_project\stm32\f407\hack_rf_new\lvgl\src\lv_misc\lv_area.h ****  */
  90:d:\_project\stm32\f407\hack_rf_new\lvgl\src\lv_misc\lv_area.h **** void lv_area_set(lv_area_t * area_p, lv_coord_t x1, lv_coord_t y1, lv_coord_t x2, lv_coord_t y2);
  91:d:\_project\stm32\f407\hack_rf_new\lvgl\src\lv_misc\lv_area.h **** 
  92:d:\_project\stm32\f407\hack_rf_new\lvgl\src\lv_misc\lv_area.h **** /**
  93:d:\_project\stm32\f407\hack_rf_new\lvgl\src\lv_misc\lv_area.h ****  * Copy an area
  94:d:\_project\stm32\f407\hack_rf_new\lvgl\src\lv_misc\lv_area.h ****  * @param dest pointer to the destination area
  95:d:\_project\stm32\f407\hack_rf_new\lvgl\src\lv_misc\lv_area.h ****  * @param src pointer to the source area
  96:d:\_project\stm32\f407\hack_rf_new\lvgl\src\lv_misc\lv_area.h ****  */
  97:d:\_project\stm32\f407\hack_rf_new\lvgl\src\lv_misc\lv_area.h **** inline static void lv_area_copy(lv_area_t * dest, const lv_area_t * src)
 4770              		.loc 6 97 20 view .LVU1494
 4771              	.LBE155:
  98:d:\_project\stm32\f407\hack_rf_new\lvgl\src\lv_misc\lv_area.h **** {
  99:d:\_project\stm32\f407\hack_rf_new\lvgl\src\lv_misc\lv_area.h ****     _lv_memcpy_small(dest, src, sizeof(lv_area_t));
 4772              		.loc 6 99 5 view .LVU1495
 4773              	.LBB160:
 4774              	.LBB156:
 4775              	.LBI156:
 213:d:\_project\stm32\f407\hack_rf_new\lvgl\src\lv_misc\lv_mem.h **** {
 4776              		.loc 5 213 44 view .LVU1496
 4777              	.LBB157:
 215:d:\_project\stm32\f407\hack_rf_new\lvgl\src\lv_misc\lv_mem.h ****     const uint8_t * s8 = (const uint8_t *)src;
 4778              		.loc 5 215 5 view .LVU1497
 216:d:\_project\stm32\f407\hack_rf_new\lvgl\src\lv_misc\lv_mem.h **** 
 4779              		.loc 5 216 5 view .LVU1498
 218:d:\_project\stm32\f407\hack_rf_new\lvgl\src\lv_misc\lv_mem.h ****         *d8 = *s8;
 4780              		.loc 5 218 5 view .LVU1499
 216:d:\_project\stm32\f407\hack_rf_new\lvgl\src\lv_misc\lv_mem.h **** 
 4781              		.loc 5 216 21 is_stmt 0 view .LVU1500
 4782 00a6 6EA9     		add	r1, sp, #440
 4783              	.LVL500:
 215:d:\_project\stm32\f407\hack_rf_new\lvgl\src\lv_misc\lv_mem.h ****     const uint8_t * s8 = (const uint8_t *)src;
 4784              		.loc 5 215 15 view .LVU1501
 4785 00a8 05AA     		add	r2, sp, #20
 4786              	.LVL501:
 215:d:\_project\stm32\f407\hack_rf_new\lvgl\src\lv_misc\lv_mem.h ****     const uint8_t * s8 = (const uint8_t *)src;
 4787              		.loc 5 215 15 view .LVU1502
 4788              	.LBE157:
 4789              	.LBE156:
ARM GAS  D:\Temp\cc0vPyDE.s 			page 155


 4790              	.LBE160:
 726:lvgl/src/lv_widgets/lv_canvas.c ****     lv_area_copy(&disp_buf.area, &mask);
 4791              		.loc 1 726 5 view .LVU1503
 4792 00aa 0823     		movs	r3, #8
 4793 00ac 04E0     		b	.L295
 4794              	.LVL502:
 4795              	.L296:
 4796              	.LBB161:
 4797              	.LBB159:
 4798              	.LBB158:
 219:d:\_project\stm32\f407\hack_rf_new\lvgl\src\lv_misc\lv_mem.h ****         d8++;
 4799              		.loc 5 219 9 is_stmt 1 view .LVU1504
 219:d:\_project\stm32\f407\hack_rf_new\lvgl\src\lv_misc\lv_mem.h ****         d8++;
 4800              		.loc 5 219 15 is_stmt 0 view .LVU1505
 4801 00ae 11F8010B 		ldrb	r0, [r1], #1	@ zero_extendqisi2
 4802              	.LVL503:
 219:d:\_project\stm32\f407\hack_rf_new\lvgl\src\lv_misc\lv_mem.h ****         d8++;
 4803              		.loc 5 219 13 view .LVU1506
 4804 00b2 02F8010B 		strb	r0, [r2], #1
 4805              	.LVL504:
 220:d:\_project\stm32\f407\hack_rf_new\lvgl\src\lv_misc\lv_mem.h ****         s8++;
 4806              		.loc 5 220 9 is_stmt 1 view .LVU1507
 221:d:\_project\stm32\f407\hack_rf_new\lvgl\src\lv_misc\lv_mem.h ****         len--;
 4807              		.loc 5 221 9 view .LVU1508
 222:d:\_project\stm32\f407\hack_rf_new\lvgl\src\lv_misc\lv_mem.h ****     }
 4808              		.loc 5 222 9 view .LVU1509
 222:d:\_project\stm32\f407\hack_rf_new\lvgl\src\lv_misc\lv_mem.h ****     }
 4809              		.loc 5 222 12 is_stmt 0 view .LVU1510
 4810 00b6 013B     		subs	r3, r3, #1
 4811              	.LVL505:
 4812              	.L295:
 218:d:\_project\stm32\f407\hack_rf_new\lvgl\src\lv_misc\lv_mem.h ****         *d8 = *s8;
 4813              		.loc 5 218 10 view .LVU1511
 4814 00b8 002B     		cmp	r3, #0
 4815 00ba F8D1     		bne	.L296
 4816              		.loc 5 225 5 is_stmt 1 view .LVU1512
 4817              	.LVL506:
 4818              		.loc 5 225 5 is_stmt 0 view .LVU1513
 4819              	.LBE158:
 4820              	.LBE159:
 4821              	.LBE161:
 729:lvgl/src/lv_widgets/lv_canvas.c **** 
 4822              		.loc 1 729 5 is_stmt 1 view .LVU1514
 4823 00bc 0AA8     		add	r0, sp, #40
 4824 00be FFF7FEFF 		bl	lv_disp_drv_init
 4825              	.LVL507:
 731:lvgl/src/lv_widgets/lv_canvas.c ****     disp.driver.hor_res = dsc->header.w;
 4826              		.loc 1 731 5 view .LVU1515
 731:lvgl/src/lv_widgets/lv_canvas.c ****     disp.driver.hor_res = dsc->header.w;
 4827              		.loc 1 731 25 is_stmt 0 view .LVU1516
 4828 00c2 01AB     		add	r3, sp, #4
 4829 00c4 0B93     		str	r3, [sp, #44]
 732:lvgl/src/lv_widgets/lv_canvas.c ****     disp.driver.ver_res = dsc->header.h;
 4830              		.loc 1 732 5 is_stmt 1 view .LVU1517
 732:lvgl/src/lv_widgets/lv_canvas.c ****     disp.driver.ver_res = dsc->header.h;
 4831              		.loc 1 732 38 is_stmt 0 view .LVU1518
 4832 00c6 2368     		ldr	r3, [r4]
ARM GAS  D:\Temp\cc0vPyDE.s 			page 156


 4833 00c8 C3F38A23 		ubfx	r3, r3, #10, #11
 732:lvgl/src/lv_widgets/lv_canvas.c ****     disp.driver.ver_res = dsc->header.h;
 4834              		.loc 1 732 25 view .LVU1519
 4835 00cc ADF82830 		strh	r3, [sp, #40]	@ movhi
 733:lvgl/src/lv_widgets/lv_canvas.c **** 
 4836              		.loc 1 733 5 is_stmt 1 view .LVU1520
 733:lvgl/src/lv_widgets/lv_canvas.c **** 
 4837              		.loc 1 733 38 is_stmt 0 view .LVU1521
 4838 00d0 6388     		ldrh	r3, [r4, #2]
 4839 00d2 C3F34A13 		ubfx	r3, r3, #5, #11
 733:lvgl/src/lv_widgets/lv_canvas.c **** 
 4840              		.loc 1 733 25 view .LVU1522
 4841 00d6 ADF82A30 		strh	r3, [sp, #42]	@ movhi
 735:lvgl/src/lv_widgets/lv_canvas.c **** 
 4842              		.loc 1 735 5 is_stmt 1 view .LVU1523
 735:lvgl/src/lv_widgets/lv_canvas.c **** 
 4843              		.loc 1 735 44 is_stmt 0 view .LVU1524
 4844 00da 2178     		ldrb	r1, [r4]	@ zero_extendqisi2
 735:lvgl/src/lv_widgets/lv_canvas.c **** 
 4845              		.loc 1 735 5 view .LVU1525
 4846 00dc 01F01F01 		and	r1, r1, #31
 4847 00e0 0AA8     		add	r0, sp, #40
 4848 00e2 FFF7FEFF 		bl	set_set_px_cb
 4849              	.LVL508:
 740:lvgl/src/lv_widgets/lv_canvas.c ****     if(dsc->header.cf == LV_IMG_CF_TRUE_COLOR_CHROMA_KEYED &&
 4850              		.loc 1 740 5 is_stmt 1 view .LVU1526
 741:lvgl/src/lv_widgets/lv_canvas.c ****        rect_dsc->bg_color.full == ctransp.full) {
 4851              		.loc 1 741 5 view .LVU1527
 741:lvgl/src/lv_widgets/lv_canvas.c ****        rect_dsc->bg_color.full == ctransp.full) {
 4852              		.loc 1 741 23 is_stmt 0 view .LVU1528
 4853 00e6 2378     		ldrb	r3, [r4]	@ zero_extendqisi2
 4854 00e8 03F01F03 		and	r3, r3, #31
 741:lvgl/src/lv_widgets/lv_canvas.c ****        rect_dsc->bg_color.full == ctransp.full) {
 4855              		.loc 1 741 7 view .LVU1529
 4856 00ec 062B     		cmp	r3, #6
 4857 00ee 11D0     		beq	.L300
 4858              	.L297:
 747:lvgl/src/lv_widgets/lv_canvas.c ****     _lv_refr_set_disp_refreshing(&disp);
 4859              		.loc 1 747 5 is_stmt 1 view .LVU1530
 747:lvgl/src/lv_widgets/lv_canvas.c ****     _lv_refr_set_disp_refreshing(&disp);
 4860              		.loc 1 747 28 is_stmt 0 view .LVU1531
 4861 00f0 FFF7FEFF 		bl	_lv_refr_get_disp_refreshing
 4862              	.LVL509:
 4863 00f4 0446     		mov	r4, r0
 4864              	.LVL510:
 748:lvgl/src/lv_widgets/lv_canvas.c **** 
 4865              		.loc 1 748 5 is_stmt 1 view .LVU1532
 4866 00f6 0AA8     		add	r0, sp, #40
 4867              	.LVL511:
 748:lvgl/src/lv_widgets/lv_canvas.c **** 
 4868              		.loc 1 748 5 is_stmt 0 view .LVU1533
 4869 00f8 FFF7FEFF 		bl	_lv_refr_set_disp_refreshing
 4870              	.LVL512:
 750:lvgl/src/lv_widgets/lv_canvas.c **** 
 4871              		.loc 1 750 5 is_stmt 1 view .LVU1534
 4872 00fc 3246     		mov	r2, r6
 4873 00fe 6EA9     		add	r1, sp, #440
ARM GAS  D:\Temp\cc0vPyDE.s 			page 157


 4874 0100 6CA8     		add	r0, sp, #432
 4875 0102 FFF7FEFF 		bl	lv_draw_rect
 4876              	.LVL513:
 752:lvgl/src/lv_widgets/lv_canvas.c **** 
 4877              		.loc 1 752 5 view .LVU1535
 4878 0106 2046     		mov	r0, r4
 4879 0108 FFF7FEFF 		bl	_lv_refr_set_disp_refreshing
 4880              	.LVL514:
 754:lvgl/src/lv_widgets/lv_canvas.c **** }
 4881              		.loc 1 754 5 view .LVU1536
 4882 010c 3846     		mov	r0, r7
 4883 010e FFF7FEFF 		bl	lv_obj_invalidate
 4884              	.LVL515:
 4885 0112 92E7     		b	.L290
 4886              	.LVL516:
 4887              	.L300:
 742:lvgl/src/lv_widgets/lv_canvas.c ****         disp.driver.antialiasing = 0;
 4888              		.loc 1 742 26 is_stmt 0 discriminator 1 view .LVU1537
 4889 0114 7288     		ldrh	r2, [r6, #2]
 742:lvgl/src/lv_widgets/lv_canvas.c ****         disp.driver.antialiasing = 0;
 4890              		.loc 1 742 42 discriminator 1 view .LVU1538
 4891 0116 4FF4FC63 		mov	r3, #2016
 741:lvgl/src/lv_widgets/lv_canvas.c ****        rect_dsc->bg_color.full == ctransp.full) {
 4892              		.loc 1 741 60 discriminator 1 view .LVU1539
 4893 011a 9A42     		cmp	r2, r3
 4894 011c E8D1     		bne	.L297
 743:lvgl/src/lv_widgets/lv_canvas.c ****     }
 4895              		.loc 1 743 9 is_stmt 1 view .LVU1540
 743:lvgl/src/lv_widgets/lv_canvas.c ****     }
 4896              		.loc 1 743 34 is_stmt 0 view .LVU1541
 4897 011e 9DF83030 		ldrb	r3, [sp, #48]	@ zero_extendqisi2
 4898 0122 6FF30003 		bfc	r3, #0, #1
 4899 0126 8DF83030 		strb	r3, [sp, #48]
 4900 012a E1E7     		b	.L297
 4901              	.L302:
 4902              		.align	2
 4903              	.L301:
 4904 012c 00000000 		.word	.LC2
 4905              		.cfi_endproc
 4906              	.LFE469:
 4908              		.section	.text.lv_canvas_draw_text,"ax",%progbits
 4909              		.align	1
 4910              		.global	lv_canvas_draw_text
 4911              		.syntax unified
 4912              		.thumb
 4913              		.thumb_func
 4914              		.fpu fpv4-sp-d16
 4916              	lv_canvas_draw_text:
 4917              	.LVL517:
 4918              	.LFB470:
 770:lvgl/src/lv_widgets/lv_canvas.c ****     LV_ASSERT_OBJ(canvas, LV_OBJX_NAME);
 4919              		.loc 1 770 1 is_stmt 1 view -0
 4920              		.cfi_startproc
 4921              		@ args = 12, pretend = 0, frame = 448
 4922              		@ frame_needed = 0, uses_anonymous_args = 0
 770:lvgl/src/lv_widgets/lv_canvas.c ****     LV_ASSERT_OBJ(canvas, LV_OBJX_NAME);
 4923              		.loc 1 770 1 is_stmt 0 view .LVU1543
ARM GAS  D:\Temp\cc0vPyDE.s 			page 158


 4924 0000 2DE9F04F 		push	{r4, r5, r6, r7, r8, r9, r10, fp, lr}
 4925              	.LCFI45:
 4926              		.cfi_def_cfa_offset 36
 4927              		.cfi_offset 4, -36
 4928              		.cfi_offset 5, -32
 4929              		.cfi_offset 6, -28
 4930              		.cfi_offset 7, -24
 4931              		.cfi_offset 8, -20
 4932              		.cfi_offset 9, -16
 4933              		.cfi_offset 10, -12
 4934              		.cfi_offset 11, -8
 4935              		.cfi_offset 14, -4
 4936 0004 F3B0     		sub	sp, sp, #460
 4937              	.LCFI46:
 4938              		.cfi_def_cfa_offset 496
 4939 0006 0746     		mov	r7, r0
 4940 0008 0D46     		mov	r5, r1
 4941 000a 9346     		mov	fp, r2
 4942 000c 9A46     		mov	r10, r3
 4943 000e 7C9E     		ldr	r6, [sp, #496]
 4944 0010 9DF8F891 		ldrb	r9, [sp, #504]	@ zero_extendqisi2
 771:lvgl/src/lv_widgets/lv_canvas.c **** 
 4945              		.loc 1 771 5 is_stmt 1 view .LVU1544
 771:lvgl/src/lv_widgets/lv_canvas.c **** 
 4946              		.loc 1 771 5 view .LVU1545
 4947 0014 FFF7FEFF 		bl	lv_debug_check_null
 4948              	.LVL518:
 771:lvgl/src/lv_widgets/lv_canvas.c **** 
 4949              		.loc 1 771 5 is_stmt 0 view .LVU1546
 4950 0018 28B9     		cbnz	r0, .L304
 771:lvgl/src/lv_widgets/lv_canvas.c **** 
 4951              		.loc 1 771 5 is_stmt 1 discriminator 1 view .LVU1547
 771:lvgl/src/lv_widgets/lv_canvas.c **** 
 4952              		.loc 1 771 5 discriminator 1 view .LVU1548
 4953 001a 3A46     		mov	r2, r7
 4954 001c 0023     		movs	r3, #0
 4955 001e 4348     		ldr	r0, .L315
 4956 0020 FFF7FEFF 		bl	lv_debug_log_error
 4957              	.LVL519:
 4958              	.L305:
 771:lvgl/src/lv_widgets/lv_canvas.c **** 
 4959              		.loc 1 771 5 discriminator 1 view .LVU1549
 771:lvgl/src/lv_widgets/lv_canvas.c **** 
 4960              		.loc 1 771 5 discriminator 1 view .LVU1550
 4961 0024 FEE7     		b	.L305
 4962              	.L304:
 771:lvgl/src/lv_widgets/lv_canvas.c **** 
 4963              		.loc 1 771 40 discriminator 2 view .LVU1551
 773:lvgl/src/lv_widgets/lv_canvas.c **** 
 4964              		.loc 1 773 5 discriminator 2 view .LVU1552
 773:lvgl/src/lv_widgets/lv_canvas.c **** 
 4965              		.loc 1 773 26 is_stmt 0 discriminator 2 view .LVU1553
 4966 0026 3846     		mov	r0, r7
 4967 0028 FFF7FEFF 		bl	lv_canvas_get_img
 4968              	.LVL520:
 4969 002c 0446     		mov	r4, r0
 4970              	.LVL521:
ARM GAS  D:\Temp\cc0vPyDE.s 			page 159


 775:lvgl/src/lv_widgets/lv_canvas.c ****         LV_LOG_WARN("lv_canvas_draw_text: can't draw to LV_IMG_CF_INDEXED canvas");
 4971              		.loc 1 775 5 is_stmt 1 discriminator 2 view .LVU1554
 775:lvgl/src/lv_widgets/lv_canvas.c ****         LV_LOG_WARN("lv_canvas_draw_text: can't draw to LV_IMG_CF_INDEXED canvas");
 4972              		.loc 1 775 19 is_stmt 0 discriminator 2 view .LVU1555
 4973 002e 0378     		ldrb	r3, [r0]	@ zero_extendqisi2
 4974 0030 03F01F03 		and	r3, r3, #31
 775:lvgl/src/lv_widgets/lv_canvas.c ****         LV_LOG_WARN("lv_canvas_draw_text: can't draw to LV_IMG_CF_INDEXED canvas");
 4975              		.loc 1 775 49 discriminator 2 view .LVU1556
 4976 0034 1933     		adds	r3, r3, #25
 4977 0036 03F01F03 		and	r3, r3, #31
 775:lvgl/src/lv_widgets/lv_canvas.c ****         LV_LOG_WARN("lv_canvas_draw_text: can't draw to LV_IMG_CF_INDEXED canvas");
 4978              		.loc 1 775 7 discriminator 2 view .LVU1557
 4979 003a 032B     		cmp	r3, #3
 4980 003c 02D8     		bhi	.L314
 4981              	.LVL522:
 4982              	.L303:
 835:lvgl/src/lv_widgets/lv_canvas.c **** 
 4983              		.loc 1 835 1 view .LVU1558
 4984 003e 73B0     		add	sp, sp, #460
 4985              	.LCFI47:
 4986              		.cfi_remember_state
 4987              		.cfi_def_cfa_offset 36
 4988              		@ sp needed
 4989 0040 BDE8F08F 		pop	{r4, r5, r6, r7, r8, r9, r10, fp, pc}
 4990              	.LVL523:
 4991              	.L314:
 4992              	.LCFI48:
 4993              		.cfi_restore_state
 782:lvgl/src/lv_widgets/lv_canvas.c ****     mask.x1 = 0;
 4994              		.loc 1 782 5 is_stmt 1 view .LVU1559
 783:lvgl/src/lv_widgets/lv_canvas.c ****     mask.x2 = dsc->header.w - 1;
 4995              		.loc 1 783 5 view .LVU1560
 783:lvgl/src/lv_widgets/lv_canvas.c ****     mask.x2 = dsc->header.w - 1;
 4996              		.loc 1 783 13 is_stmt 0 view .LVU1561
 4997 0044 4FF00008 		mov	r8, #0
 4998 0048 ADF8C081 		strh	r8, [sp, #448]	@ movhi
 784:lvgl/src/lv_widgets/lv_canvas.c ****     mask.y1 = 0;
 4999              		.loc 1 784 5 is_stmt 1 view .LVU1562
 784:lvgl/src/lv_widgets/lv_canvas.c ****     mask.y1 = 0;
 5000              		.loc 1 784 26 is_stmt 0 view .LVU1563
 5001 004c 0368     		ldr	r3, [r0]
 5002 004e C3F38A23 		ubfx	r3, r3, #10, #11
 784:lvgl/src/lv_widgets/lv_canvas.c ****     mask.y1 = 0;
 5003              		.loc 1 784 29 view .LVU1564
 5004 0052 013B     		subs	r3, r3, #1
 784:lvgl/src/lv_widgets/lv_canvas.c ****     mask.y1 = 0;
 5005              		.loc 1 784 13 view .LVU1565
 5006 0054 ADF8C431 		strh	r3, [sp, #452]	@ movhi
 785:lvgl/src/lv_widgets/lv_canvas.c ****     mask.y2 = dsc->header.h - 1;
 5007              		.loc 1 785 5 is_stmt 1 view .LVU1566
 785:lvgl/src/lv_widgets/lv_canvas.c ****     mask.y2 = dsc->header.h - 1;
 5008              		.loc 1 785 13 is_stmt 0 view .LVU1567
 5009 0058 ADF8C281 		strh	r8, [sp, #450]	@ movhi
 786:lvgl/src/lv_widgets/lv_canvas.c **** 
 5010              		.loc 1 786 5 is_stmt 1 view .LVU1568
 786:lvgl/src/lv_widgets/lv_canvas.c **** 
 5011              		.loc 1 786 26 is_stmt 0 view .LVU1569
ARM GAS  D:\Temp\cc0vPyDE.s 			page 160


 5012 005c 4388     		ldrh	r3, [r0, #2]
 5013 005e 5B09     		lsrs	r3, r3, #5
 786:lvgl/src/lv_widgets/lv_canvas.c **** 
 5014              		.loc 1 786 29 view .LVU1570
 5015 0060 013B     		subs	r3, r3, #1
 786:lvgl/src/lv_widgets/lv_canvas.c **** 
 5016              		.loc 1 786 13 view .LVU1571
 5017 0062 ADF8C631 		strh	r3, [sp, #454]	@ movhi
 788:lvgl/src/lv_widgets/lv_canvas.c ****     coords.x1 = x;
 5018              		.loc 1 788 5 is_stmt 1 view .LVU1572
 789:lvgl/src/lv_widgets/lv_canvas.c ****     coords.y1 = y;
 5019              		.loc 1 789 5 view .LVU1573
 789:lvgl/src/lv_widgets/lv_canvas.c ****     coords.y1 = y;
 5020              		.loc 1 789 15 is_stmt 0 view .LVU1574
 5021 0066 ADF8B851 		strh	r5, [sp, #440]	@ movhi
 790:lvgl/src/lv_widgets/lv_canvas.c ****     coords.x2 = x + max_w - 1;
 5022              		.loc 1 790 5 is_stmt 1 view .LVU1575
 790:lvgl/src/lv_widgets/lv_canvas.c ****     coords.x2 = x + max_w - 1;
 5023              		.loc 1 790 15 is_stmt 0 view .LVU1576
 5024 006a ADF8BAB1 		strh	fp, [sp, #442]	@ movhi
 791:lvgl/src/lv_widgets/lv_canvas.c ****     coords.y2 = dsc->header.h - 1;
 5025              		.loc 1 791 5 is_stmt 1 view .LVU1577
 791:lvgl/src/lv_widgets/lv_canvas.c ****     coords.y2 = dsc->header.h - 1;
 5026              		.loc 1 791 19 is_stmt 0 view .LVU1578
 5027 006e 05EB0A03 		add	r3, r5, r10
 5028 0072 9BB2     		uxth	r3, r3
 791:lvgl/src/lv_widgets/lv_canvas.c ****     coords.y2 = dsc->header.h - 1;
 5029              		.loc 1 791 27 view .LVU1579
 5030 0074 013B     		subs	r3, r3, #1
 791:lvgl/src/lv_widgets/lv_canvas.c ****     coords.y2 = dsc->header.h - 1;
 5031              		.loc 1 791 15 view .LVU1580
 5032 0076 ADF8BC31 		strh	r3, [sp, #444]	@ movhi
 792:lvgl/src/lv_widgets/lv_canvas.c **** 
 5033              		.loc 1 792 5 is_stmt 1 view .LVU1581
 792:lvgl/src/lv_widgets/lv_canvas.c **** 
 5034              		.loc 1 792 28 is_stmt 0 view .LVU1582
 5035 007a 4388     		ldrh	r3, [r0, #2]
 5036 007c 5B09     		lsrs	r3, r3, #5
 792:lvgl/src/lv_widgets/lv_canvas.c **** 
 5037              		.loc 1 792 31 view .LVU1583
 5038 007e 013B     		subs	r3, r3, #1
 792:lvgl/src/lv_widgets/lv_canvas.c **** 
 5039              		.loc 1 792 15 view .LVU1584
 5040 0080 ADF8BE31 		strh	r3, [sp, #446]	@ movhi
 794:lvgl/src/lv_widgets/lv_canvas.c ****     _lv_memset_00(&disp, sizeof(lv_disp_t));
 5041              		.loc 1 794 5 is_stmt 1 view .LVU1585
 795:lvgl/src/lv_widgets/lv_canvas.c **** 
 5042              		.loc 1 795 5 view .LVU1586
 5043 0084 4FF4C471 		mov	r1, #392
 5044 0088 0CA8     		add	r0, sp, #48
 5045              	.LVL524:
 795:lvgl/src/lv_widgets/lv_canvas.c **** 
 5046              		.loc 1 795 5 is_stmt 0 view .LVU1587
 5047 008a FFF7FEFF 		bl	_lv_memset_00
 5048              	.LVL525:
 797:lvgl/src/lv_widgets/lv_canvas.c ****     lv_disp_buf_init(&disp_buf, (void *)dsc->data, NULL, dsc->header.w * dsc->header.h);
 5049              		.loc 1 797 5 is_stmt 1 view .LVU1588
ARM GAS  D:\Temp\cc0vPyDE.s 			page 161


 798:lvgl/src/lv_widgets/lv_canvas.c ****     lv_area_copy(&disp_buf.area, &mask);
 5050              		.loc 1 798 5 view .LVU1589
 798:lvgl/src/lv_widgets/lv_canvas.c ****     lv_area_copy(&disp_buf.area, &mask);
 5051              		.loc 1 798 69 is_stmt 0 view .LVU1590
 5052 008e 2368     		ldr	r3, [r4]
 5053 0090 C3F38A23 		ubfx	r3, r3, #10, #11
 798:lvgl/src/lv_widgets/lv_canvas.c ****     lv_area_copy(&disp_buf.area, &mask);
 5054              		.loc 1 798 85 view .LVU1591
 5055 0094 6288     		ldrh	r2, [r4, #2]
 5056 0096 5209     		lsrs	r2, r2, #5
 798:lvgl/src/lv_widgets/lv_canvas.c ****     lv_area_copy(&disp_buf.area, &mask);
 5057              		.loc 1 798 5 view .LVU1592
 5058 0098 02FB03F3 		mul	r3, r2, r3
 5059 009c 4246     		mov	r2, r8
 5060 009e A168     		ldr	r1, [r4, #8]
 5061 00a0 03A8     		add	r0, sp, #12
 5062 00a2 FFF7FEFF 		bl	lv_disp_buf_init
 5063              	.LVL526:
 799:lvgl/src/lv_widgets/lv_canvas.c **** 
 5064              		.loc 1 799 5 is_stmt 1 view .LVU1593
 5065              	.LBB162:
 5066              	.LBI162:
  97:d:\_project\stm32\f407\hack_rf_new\lvgl\src\lv_misc\lv_area.h **** {
 5067              		.loc 6 97 20 view .LVU1594
 5068              	.LBE162:
 5069              		.loc 6 99 5 view .LVU1595
 5070              	.LBB167:
 5071              	.LBB163:
 5072              	.LBI163:
 213:d:\_project\stm32\f407\hack_rf_new\lvgl\src\lv_misc\lv_mem.h **** {
 5073              		.loc 5 213 44 view .LVU1596
 5074              	.LBB164:
 215:d:\_project\stm32\f407\hack_rf_new\lvgl\src\lv_misc\lv_mem.h ****     const uint8_t * s8 = (const uint8_t *)src;
 5075              		.loc 5 215 5 view .LVU1597
 216:d:\_project\stm32\f407\hack_rf_new\lvgl\src\lv_misc\lv_mem.h **** 
 5076              		.loc 5 216 5 view .LVU1598
 218:d:\_project\stm32\f407\hack_rf_new\lvgl\src\lv_misc\lv_mem.h ****         *d8 = *s8;
 5077              		.loc 5 218 5 view .LVU1599
 216:d:\_project\stm32\f407\hack_rf_new\lvgl\src\lv_misc\lv_mem.h **** 
 5078              		.loc 5 216 21 is_stmt 0 view .LVU1600
 5079 00a6 70A9     		add	r1, sp, #448
 5080              	.LVL527:
 215:d:\_project\stm32\f407\hack_rf_new\lvgl\src\lv_misc\lv_mem.h ****     const uint8_t * s8 = (const uint8_t *)src;
 5081              		.loc 5 215 15 view .LVU1601
 5082 00a8 07AA     		add	r2, sp, #28
 5083              	.LVL528:
 215:d:\_project\stm32\f407\hack_rf_new\lvgl\src\lv_misc\lv_mem.h ****     const uint8_t * s8 = (const uint8_t *)src;
 5084              		.loc 5 215 15 view .LVU1602
 5085              	.LBE164:
 5086              	.LBE163:
 5087              	.LBE167:
 798:lvgl/src/lv_widgets/lv_canvas.c ****     lv_area_copy(&disp_buf.area, &mask);
 5088              		.loc 1 798 5 view .LVU1603
 5089 00aa 0823     		movs	r3, #8
 5090 00ac 04E0     		b	.L308
 5091              	.LVL529:
 5092              	.L309:
ARM GAS  D:\Temp\cc0vPyDE.s 			page 162


 5093              	.LBB168:
 5094              	.LBB166:
 5095              	.LBB165:
 219:d:\_project\stm32\f407\hack_rf_new\lvgl\src\lv_misc\lv_mem.h ****         d8++;
 5096              		.loc 5 219 9 is_stmt 1 view .LVU1604
 219:d:\_project\stm32\f407\hack_rf_new\lvgl\src\lv_misc\lv_mem.h ****         d8++;
 5097              		.loc 5 219 15 is_stmt 0 view .LVU1605
 5098 00ae 11F8010B 		ldrb	r0, [r1], #1	@ zero_extendqisi2
 5099              	.LVL530:
 219:d:\_project\stm32\f407\hack_rf_new\lvgl\src\lv_misc\lv_mem.h ****         d8++;
 5100              		.loc 5 219 13 view .LVU1606
 5101 00b2 02F8010B 		strb	r0, [r2], #1
 5102              	.LVL531:
 220:d:\_project\stm32\f407\hack_rf_new\lvgl\src\lv_misc\lv_mem.h ****         s8++;
 5103              		.loc 5 220 9 is_stmt 1 view .LVU1607
 221:d:\_project\stm32\f407\hack_rf_new\lvgl\src\lv_misc\lv_mem.h ****         len--;
 5104              		.loc 5 221 9 view .LVU1608
 222:d:\_project\stm32\f407\hack_rf_new\lvgl\src\lv_misc\lv_mem.h ****     }
 5105              		.loc 5 222 9 view .LVU1609
 222:d:\_project\stm32\f407\hack_rf_new\lvgl\src\lv_misc\lv_mem.h ****     }
 5106              		.loc 5 222 12 is_stmt 0 view .LVU1610
 5107 00b6 013B     		subs	r3, r3, #1
 5108              	.LVL532:
 5109              	.L308:
 218:d:\_project\stm32\f407\hack_rf_new\lvgl\src\lv_misc\lv_mem.h ****         *d8 = *s8;
 5110              		.loc 5 218 10 view .LVU1611
 5111 00b8 002B     		cmp	r3, #0
 5112 00ba F8D1     		bne	.L309
 5113              		.loc 5 225 5 is_stmt 1 view .LVU1612
 5114              	.LVL533:
 5115              		.loc 5 225 5 is_stmt 0 view .LVU1613
 5116              	.LBE165:
 5117              	.LBE166:
 5118              	.LBE168:
 801:lvgl/src/lv_widgets/lv_canvas.c **** 
 5119              		.loc 1 801 5 is_stmt 1 view .LVU1614
 5120 00bc 0CA8     		add	r0, sp, #48
 5121 00be FFF7FEFF 		bl	lv_disp_drv_init
 5122              	.LVL534:
 803:lvgl/src/lv_widgets/lv_canvas.c ****     disp.driver.hor_res = dsc->header.w;
 5123              		.loc 1 803 5 view .LVU1615
 803:lvgl/src/lv_widgets/lv_canvas.c ****     disp.driver.hor_res = dsc->header.w;
 5124              		.loc 1 803 25 is_stmt 0 view .LVU1616
 5125 00c2 03AB     		add	r3, sp, #12
 5126 00c4 0D93     		str	r3, [sp, #52]
 804:lvgl/src/lv_widgets/lv_canvas.c ****     disp.driver.ver_res = dsc->header.h;
 5127              		.loc 1 804 5 is_stmt 1 view .LVU1617
 804:lvgl/src/lv_widgets/lv_canvas.c ****     disp.driver.ver_res = dsc->header.h;
 5128              		.loc 1 804 38 is_stmt 0 view .LVU1618
 5129 00c6 2368     		ldr	r3, [r4]
 5130 00c8 C3F38A23 		ubfx	r3, r3, #10, #11
 804:lvgl/src/lv_widgets/lv_canvas.c ****     disp.driver.ver_res = dsc->header.h;
 5131              		.loc 1 804 25 view .LVU1619
 5132 00cc ADF83030 		strh	r3, [sp, #48]	@ movhi
 805:lvgl/src/lv_widgets/lv_canvas.c **** 
 5133              		.loc 1 805 5 is_stmt 1 view .LVU1620
 805:lvgl/src/lv_widgets/lv_canvas.c **** 
ARM GAS  D:\Temp\cc0vPyDE.s 			page 163


 5134              		.loc 1 805 38 is_stmt 0 view .LVU1621
 5135 00d0 6388     		ldrh	r3, [r4, #2]
 5136 00d2 C3F34A13 		ubfx	r3, r3, #5, #11
 805:lvgl/src/lv_widgets/lv_canvas.c **** 
 5137              		.loc 1 805 25 view .LVU1622
 5138 00d6 ADF83230 		strh	r3, [sp, #50]	@ movhi
 807:lvgl/src/lv_widgets/lv_canvas.c **** 
 5139              		.loc 1 807 5 is_stmt 1 view .LVU1623
 807:lvgl/src/lv_widgets/lv_canvas.c **** 
 5140              		.loc 1 807 44 is_stmt 0 view .LVU1624
 5141 00da 2178     		ldrb	r1, [r4]	@ zero_extendqisi2
 807:lvgl/src/lv_widgets/lv_canvas.c **** 
 5142              		.loc 1 807 5 view .LVU1625
 5143 00dc 01F01F01 		and	r1, r1, #31
 5144 00e0 0CA8     		add	r0, sp, #48
 5145 00e2 FFF7FEFF 		bl	set_set_px_cb
 5146              	.LVL535:
 809:lvgl/src/lv_widgets/lv_canvas.c ****     _lv_refr_set_disp_refreshing(&disp);
 5147              		.loc 1 809 5 is_stmt 1 view .LVU1626
 809:lvgl/src/lv_widgets/lv_canvas.c ****     _lv_refr_set_disp_refreshing(&disp);
 5148              		.loc 1 809 28 is_stmt 0 view .LVU1627
 5149 00e6 FFF7FEFF 		bl	_lv_refr_get_disp_refreshing
 5150              	.LVL536:
 5151 00ea 0446     		mov	r4, r0
 5152              	.LVL537:
 810:lvgl/src/lv_widgets/lv_canvas.c **** 
 5153              		.loc 1 810 5 is_stmt 1 view .LVU1628
 5154 00ec 0CA8     		add	r0, sp, #48
 5155              	.LVL538:
 810:lvgl/src/lv_widgets/lv_canvas.c **** 
 5156              		.loc 1 810 5 is_stmt 0 view .LVU1629
 5157 00ee FFF7FEFF 		bl	_lv_refr_set_disp_refreshing
 5158              	.LVL539:
 812:lvgl/src/lv_widgets/lv_canvas.c ****     switch(align) {
 5159              		.loc 1 812 5 is_stmt 1 view .LVU1630
 813:lvgl/src/lv_widgets/lv_canvas.c ****         case LV_LABEL_ALIGN_LEFT:
 5160              		.loc 1 813 5 view .LVU1631
 5161 00f2 B9F1010F 		cmp	r9, #1
 5162 00f6 14D0     		beq	.L311
 5163 00f8 B9F1020F 		cmp	r9, #2
 5164 00fc 13D0     		beq	.L312
 815:lvgl/src/lv_widgets/lv_canvas.c ****             break;
 5165              		.loc 1 815 18 is_stmt 0 view .LVU1632
 5166 00fe 0023     		movs	r3, #0
 5167              	.L310:
 5168              	.LVL540:
 828:lvgl/src/lv_widgets/lv_canvas.c **** 
 5169              		.loc 1 828 5 is_stmt 1 view .LVU1633
 828:lvgl/src/lv_widgets/lv_canvas.c **** 
 5170              		.loc 1 828 26 is_stmt 0 view .LVU1634
 5171 0100 86F82130 		strb	r3, [r6, #33]
 830:lvgl/src/lv_widgets/lv_canvas.c **** 
 5172              		.loc 1 830 5 is_stmt 1 view .LVU1635
 5173 0104 0023     		movs	r3, #0
 5174              	.LVL541:
 830:lvgl/src/lv_widgets/lv_canvas.c **** 
 5175              		.loc 1 830 5 is_stmt 0 view .LVU1636
ARM GAS  D:\Temp\cc0vPyDE.s 			page 164


 5176 0106 0093     		str	r3, [sp]
 5177              	.LVL542:
 830:lvgl/src/lv_widgets/lv_canvas.c **** 
 5178              		.loc 1 830 5 view .LVU1637
 5179 0108 7D9B     		ldr	r3, [sp, #500]
 5180 010a 3246     		mov	r2, r6
 5181 010c 70A9     		add	r1, sp, #448
 5182 010e 6EA8     		add	r0, sp, #440
 5183 0110 FFF7FEFF 		bl	lv_draw_label
 5184              	.LVL543:
 832:lvgl/src/lv_widgets/lv_canvas.c **** 
 5185              		.loc 1 832 5 is_stmt 1 view .LVU1638
 5186 0114 2046     		mov	r0, r4
 5187 0116 FFF7FEFF 		bl	_lv_refr_set_disp_refreshing
 5188              	.LVL544:
 834:lvgl/src/lv_widgets/lv_canvas.c **** }
 5189              		.loc 1 834 5 view .LVU1639
 5190 011a 3846     		mov	r0, r7
 5191 011c FFF7FEFF 		bl	lv_obj_invalidate
 5192              	.LVL545:
 5193 0120 8DE7     		b	.L303
 5194              	.L311:
 821:lvgl/src/lv_widgets/lv_canvas.c ****             break;
 5195              		.loc 1 821 18 is_stmt 0 view .LVU1640
 5196 0122 0423     		movs	r3, #4
 5197 0124 ECE7     		b	.L310
 5198              	.L312:
 818:lvgl/src/lv_widgets/lv_canvas.c ****             break;
 5199              		.loc 1 818 18 view .LVU1641
 5200 0126 0823     		movs	r3, #8
 5201 0128 EAE7     		b	.L310
 5202              	.L316:
 5203 012a 00BF     		.align	2
 5204              	.L315:
 5205 012c 00000000 		.word	.LC2
 5206              		.cfi_endproc
 5207              	.LFE470:
 5209              		.section	.text.lv_canvas_draw_img,"ax",%progbits
 5210              		.align	1
 5211              		.global	lv_canvas_draw_img
 5212              		.syntax unified
 5213              		.thumb
 5214              		.thumb_func
 5215              		.fpu fpv4-sp-d16
 5217              	lv_canvas_draw_img:
 5218              	.LVL546:
 5219              	.LFB471:
 845:lvgl/src/lv_widgets/lv_canvas.c ****     LV_ASSERT_OBJ(canvas, LV_OBJX_NAME);
 5220              		.loc 1 845 1 is_stmt 1 view -0
 5221              		.cfi_startproc
 5222              		@ args = 4, pretend = 0, frame = 448
 5223              		@ frame_needed = 0, uses_anonymous_args = 0
 845:lvgl/src/lv_widgets/lv_canvas.c ****     LV_ASSERT_OBJ(canvas, LV_OBJX_NAME);
 5224              		.loc 1 845 1 is_stmt 0 view .LVU1643
 5225 0000 2DE9F041 		push	{r4, r5, r6, r7, r8, lr}
 5226              	.LCFI49:
 5227              		.cfi_def_cfa_offset 24
ARM GAS  D:\Temp\cc0vPyDE.s 			page 165


 5228              		.cfi_offset 4, -24
 5229              		.cfi_offset 5, -20
 5230              		.cfi_offset 6, -16
 5231              		.cfi_offset 7, -12
 5232              		.cfi_offset 8, -8
 5233              		.cfi_offset 14, -4
 5234 0004 F0B0     		sub	sp, sp, #448
 5235              	.LCFI50:
 5236              		.cfi_def_cfa_offset 472
 5237 0006 0646     		mov	r6, r0
 5238 0008 8846     		mov	r8, r1
 5239 000a 1546     		mov	r5, r2
 5240 000c 1F46     		mov	r7, r3
 846:lvgl/src/lv_widgets/lv_canvas.c **** 
 5241              		.loc 1 846 5 is_stmt 1 view .LVU1644
 846:lvgl/src/lv_widgets/lv_canvas.c **** 
 5242              		.loc 1 846 5 view .LVU1645
 5243 000e FFF7FEFF 		bl	lv_debug_check_null
 5244              	.LVL547:
 846:lvgl/src/lv_widgets/lv_canvas.c **** 
 5245              		.loc 1 846 5 is_stmt 0 view .LVU1646
 5246 0012 28B9     		cbnz	r0, .L318
 846:lvgl/src/lv_widgets/lv_canvas.c **** 
 5247              		.loc 1 846 5 is_stmt 1 discriminator 1 view .LVU1647
 846:lvgl/src/lv_widgets/lv_canvas.c **** 
 5248              		.loc 1 846 5 discriminator 1 view .LVU1648
 5249 0014 3246     		mov	r2, r6
 5250 0016 0023     		movs	r3, #0
 5251 0018 4048     		ldr	r0, .L326
 5252 001a FFF7FEFF 		bl	lv_debug_log_error
 5253              	.LVL548:
 5254              	.L319:
 846:lvgl/src/lv_widgets/lv_canvas.c **** 
 5255              		.loc 1 846 5 discriminator 1 view .LVU1649
 846:lvgl/src/lv_widgets/lv_canvas.c **** 
 5256              		.loc 1 846 5 discriminator 1 view .LVU1650
 5257 001e FEE7     		b	.L319
 5258              	.L318:
 846:lvgl/src/lv_widgets/lv_canvas.c **** 
 5259              		.loc 1 846 40 discriminator 2 view .LVU1651
 848:lvgl/src/lv_widgets/lv_canvas.c **** 
 5260              		.loc 1 848 5 discriminator 2 view .LVU1652
 848:lvgl/src/lv_widgets/lv_canvas.c **** 
 5261              		.loc 1 848 26 is_stmt 0 discriminator 2 view .LVU1653
 5262 0020 3046     		mov	r0, r6
 5263 0022 FFF7FEFF 		bl	lv_canvas_get_img
 5264              	.LVL549:
 5265 0026 0446     		mov	r4, r0
 5266              	.LVL550:
 850:lvgl/src/lv_widgets/lv_canvas.c ****         LV_LOG_WARN("lv_canvas_draw_img: can't draw to LV_IMG_CF_INDEXED canvas");
 5267              		.loc 1 850 5 is_stmt 1 discriminator 2 view .LVU1654
 850:lvgl/src/lv_widgets/lv_canvas.c ****         LV_LOG_WARN("lv_canvas_draw_img: can't draw to LV_IMG_CF_INDEXED canvas");
 5268              		.loc 1 850 19 is_stmt 0 discriminator 2 view .LVU1655
 5269 0028 0378     		ldrb	r3, [r0]	@ zero_extendqisi2
 5270 002a 03F01F03 		and	r3, r3, #31
 850:lvgl/src/lv_widgets/lv_canvas.c ****         LV_LOG_WARN("lv_canvas_draw_img: can't draw to LV_IMG_CF_INDEXED canvas");
 5271              		.loc 1 850 49 discriminator 2 view .LVU1656
ARM GAS  D:\Temp\cc0vPyDE.s 			page 166


 5272 002e 1933     		adds	r3, r3, #25
 5273 0030 03F01F03 		and	r3, r3, #31
 850:lvgl/src/lv_widgets/lv_canvas.c ****         LV_LOG_WARN("lv_canvas_draw_img: can't draw to LV_IMG_CF_INDEXED canvas");
 5274              		.loc 1 850 7 discriminator 2 view .LVU1657
 5275 0034 032B     		cmp	r3, #3
 5276 0036 02D8     		bhi	.L325
 5277              	.LVL551:
 5278              	.L317:
 899:lvgl/src/lv_widgets/lv_canvas.c **** 
 5279              		.loc 1 899 1 view .LVU1658
 5280 0038 70B0     		add	sp, sp, #448
 5281              	.LCFI51:
 5282              		.cfi_remember_state
 5283              		.cfi_def_cfa_offset 24
 5284              		@ sp needed
 5285 003a BDE8F081 		pop	{r4, r5, r6, r7, r8, pc}
 5286              	.LVL552:
 5287              	.L325:
 5288              	.LCFI52:
 5289              		.cfi_restore_state
 857:lvgl/src/lv_widgets/lv_canvas.c ****     mask.x1 = 0;
 5290              		.loc 1 857 5 is_stmt 1 view .LVU1659
 858:lvgl/src/lv_widgets/lv_canvas.c ****     mask.x2 = dsc->header.w - 1;
 5291              		.loc 1 858 5 view .LVU1660
 858:lvgl/src/lv_widgets/lv_canvas.c ****     mask.x2 = dsc->header.w - 1;
 5292              		.loc 1 858 13 is_stmt 0 view .LVU1661
 5293 003e 0022     		movs	r2, #0
 5294 0040 ADF8B821 		strh	r2, [sp, #440]	@ movhi
 859:lvgl/src/lv_widgets/lv_canvas.c ****     mask.y1 = 0;
 5295              		.loc 1 859 5 is_stmt 1 view .LVU1662
 859:lvgl/src/lv_widgets/lv_canvas.c ****     mask.y1 = 0;
 5296              		.loc 1 859 26 is_stmt 0 view .LVU1663
 5297 0044 0368     		ldr	r3, [r0]
 5298 0046 C3F38A23 		ubfx	r3, r3, #10, #11
 859:lvgl/src/lv_widgets/lv_canvas.c ****     mask.y1 = 0;
 5299              		.loc 1 859 29 view .LVU1664
 5300 004a 013B     		subs	r3, r3, #1
 859:lvgl/src/lv_widgets/lv_canvas.c ****     mask.y1 = 0;
 5301              		.loc 1 859 13 view .LVU1665
 5302 004c ADF8BC31 		strh	r3, [sp, #444]	@ movhi
 860:lvgl/src/lv_widgets/lv_canvas.c ****     mask.y2 = dsc->header.h - 1;
 5303              		.loc 1 860 5 is_stmt 1 view .LVU1666
 860:lvgl/src/lv_widgets/lv_canvas.c ****     mask.y2 = dsc->header.h - 1;
 5304              		.loc 1 860 13 is_stmt 0 view .LVU1667
 5305 0050 ADF8BA21 		strh	r2, [sp, #442]	@ movhi
 861:lvgl/src/lv_widgets/lv_canvas.c **** 
 5306              		.loc 1 861 5 is_stmt 1 view .LVU1668
 861:lvgl/src/lv_widgets/lv_canvas.c **** 
 5307              		.loc 1 861 26 is_stmt 0 view .LVU1669
 5308 0054 4388     		ldrh	r3, [r0, #2]
 5309 0056 5B09     		lsrs	r3, r3, #5
 861:lvgl/src/lv_widgets/lv_canvas.c **** 
 5310              		.loc 1 861 29 view .LVU1670
 5311 0058 013B     		subs	r3, r3, #1
 861:lvgl/src/lv_widgets/lv_canvas.c **** 
 5312              		.loc 1 861 13 view .LVU1671
 5313 005a ADF8BE31 		strh	r3, [sp, #446]	@ movhi
ARM GAS  D:\Temp\cc0vPyDE.s 			page 167


 863:lvgl/src/lv_widgets/lv_canvas.c ****     lv_res_t res = lv_img_decoder_get_info(src, &header);
 5314              		.loc 1 863 5 is_stmt 1 view .LVU1672
 864:lvgl/src/lv_widgets/lv_canvas.c ****     if(res != LV_RES_OK) {
 5315              		.loc 1 864 5 view .LVU1673
 864:lvgl/src/lv_widgets/lv_canvas.c ****     if(res != LV_RES_OK) {
 5316              		.loc 1 864 20 is_stmt 0 view .LVU1674
 5317 005e 6DA9     		add	r1, sp, #436
 5318 0060 3846     		mov	r0, r7
 5319              	.LVL553:
 864:lvgl/src/lv_widgets/lv_canvas.c ****     if(res != LV_RES_OK) {
 5320              		.loc 1 864 20 view .LVU1675
 5321 0062 FFF7FEFF 		bl	lv_img_decoder_get_info
 5322              	.LVL554:
 865:lvgl/src/lv_widgets/lv_canvas.c ****         LV_LOG_WARN("lv_canvas_draw_img: Couldn't get the image data.");
 5323              		.loc 1 865 5 is_stmt 1 view .LVU1676
 865:lvgl/src/lv_widgets/lv_canvas.c ****         LV_LOG_WARN("lv_canvas_draw_img: Couldn't get the image data.");
 5324              		.loc 1 865 7 is_stmt 0 view .LVU1677
 5325 0066 0128     		cmp	r0, #1
 5326 0068 E6D1     		bne	.L317
 870:lvgl/src/lv_widgets/lv_canvas.c ****     coords.x1 = x;
 5327              		.loc 1 870 5 is_stmt 1 view .LVU1678
 871:lvgl/src/lv_widgets/lv_canvas.c ****     coords.y1 = y;
 5328              		.loc 1 871 5 view .LVU1679
 871:lvgl/src/lv_widgets/lv_canvas.c ****     coords.y1 = y;
 5329              		.loc 1 871 15 is_stmt 0 view .LVU1680
 5330 006a ADF8AC81 		strh	r8, [sp, #428]	@ movhi
 872:lvgl/src/lv_widgets/lv_canvas.c ****     coords.x2 = x + header.w - 1;
 5331              		.loc 1 872 5 is_stmt 1 view .LVU1681
 872:lvgl/src/lv_widgets/lv_canvas.c ****     coords.x2 = x + header.w - 1;
 5332              		.loc 1 872 15 is_stmt 0 view .LVU1682
 5333 006e ADF8AE51 		strh	r5, [sp, #430]	@ movhi
 873:lvgl/src/lv_widgets/lv_canvas.c ****     coords.y2 = y + header.h - 1;
 5334              		.loc 1 873 5 is_stmt 1 view .LVU1683
 873:lvgl/src/lv_widgets/lv_canvas.c ****     coords.y2 = y + header.h - 1;
 5335              		.loc 1 873 27 is_stmt 0 view .LVU1684
 5336 0072 6D9B     		ldr	r3, [sp, #436]
 5337 0074 C3F38A23 		ubfx	r3, r3, #10, #11
 873:lvgl/src/lv_widgets/lv_canvas.c ****     coords.y2 = y + header.h - 1;
 5338              		.loc 1 873 19 view .LVU1685
 5339 0078 4344     		add	r3, r3, r8
 5340 007a 9BB2     		uxth	r3, r3
 873:lvgl/src/lv_widgets/lv_canvas.c ****     coords.y2 = y + header.h - 1;
 5341              		.loc 1 873 30 view .LVU1686
 5342 007c 013B     		subs	r3, r3, #1
 873:lvgl/src/lv_widgets/lv_canvas.c ****     coords.y2 = y + header.h - 1;
 5343              		.loc 1 873 15 view .LVU1687
 5344 007e ADF8B031 		strh	r3, [sp, #432]	@ movhi
 874:lvgl/src/lv_widgets/lv_canvas.c **** 
 5345              		.loc 1 874 5 is_stmt 1 view .LVU1688
 874:lvgl/src/lv_widgets/lv_canvas.c **** 
 5346              		.loc 1 874 27 is_stmt 0 view .LVU1689
 5347 0082 BDF8B631 		ldrh	r3, [sp, #438]
 874:lvgl/src/lv_widgets/lv_canvas.c **** 
 5348              		.loc 1 874 19 view .LVU1690
 5349 0086 05EB5313 		add	r3, r5, r3, lsr #5
 5350 008a 9BB2     		uxth	r3, r3
 874:lvgl/src/lv_widgets/lv_canvas.c **** 
ARM GAS  D:\Temp\cc0vPyDE.s 			page 168


 5351              		.loc 1 874 30 view .LVU1691
 5352 008c 013B     		subs	r3, r3, #1
 874:lvgl/src/lv_widgets/lv_canvas.c **** 
 5353              		.loc 1 874 15 view .LVU1692
 5354 008e ADF8B231 		strh	r3, [sp, #434]	@ movhi
 876:lvgl/src/lv_widgets/lv_canvas.c ****     _lv_memset_00(&disp, sizeof(lv_disp_t));
 5355              		.loc 1 876 5 is_stmt 1 view .LVU1693
 877:lvgl/src/lv_widgets/lv_canvas.c **** 
 5356              		.loc 1 877 5 view .LVU1694
 5357 0092 4FF4C471 		mov	r1, #392
 5358 0096 09A8     		add	r0, sp, #36
 5359              	.LVL555:
 877:lvgl/src/lv_widgets/lv_canvas.c **** 
 5360              		.loc 1 877 5 is_stmt 0 view .LVU1695
 5361 0098 FFF7FEFF 		bl	_lv_memset_00
 5362              	.LVL556:
 879:lvgl/src/lv_widgets/lv_canvas.c ****     lv_disp_buf_init(&disp_buf, (void *)dsc->data, NULL, dsc->header.w * dsc->header.h);
 5363              		.loc 1 879 5 is_stmt 1 view .LVU1696
 880:lvgl/src/lv_widgets/lv_canvas.c ****     lv_area_copy(&disp_buf.area, &mask);
 5364              		.loc 1 880 5 view .LVU1697
 880:lvgl/src/lv_widgets/lv_canvas.c ****     lv_area_copy(&disp_buf.area, &mask);
 5365              		.loc 1 880 69 is_stmt 0 view .LVU1698
 5366 009c 2368     		ldr	r3, [r4]
 5367 009e C3F38A23 		ubfx	r3, r3, #10, #11
 880:lvgl/src/lv_widgets/lv_canvas.c ****     lv_area_copy(&disp_buf.area, &mask);
 5368              		.loc 1 880 85 view .LVU1699
 5369 00a2 6288     		ldrh	r2, [r4, #2]
 5370 00a4 5209     		lsrs	r2, r2, #5
 880:lvgl/src/lv_widgets/lv_canvas.c ****     lv_area_copy(&disp_buf.area, &mask);
 5371              		.loc 1 880 5 view .LVU1700
 5372 00a6 02FB03F3 		mul	r3, r2, r3
 5373 00aa 0022     		movs	r2, #0
 5374 00ac A168     		ldr	r1, [r4, #8]
 5375 00ae 6846     		mov	r0, sp
 5376 00b0 FFF7FEFF 		bl	lv_disp_buf_init
 5377              	.LVL557:
 881:lvgl/src/lv_widgets/lv_canvas.c **** 
 5378              		.loc 1 881 5 is_stmt 1 view .LVU1701
 5379              	.LBB169:
 5380              	.LBI169:
  97:d:\_project\stm32\f407\hack_rf_new\lvgl\src\lv_misc\lv_area.h **** {
 5381              		.loc 6 97 20 view .LVU1702
 5382              	.LBE169:
 5383              		.loc 6 99 5 view .LVU1703
 5384              	.LBB174:
 5385              	.LBB170:
 5386              	.LBI170:
 213:d:\_project\stm32\f407\hack_rf_new\lvgl\src\lv_misc\lv_mem.h **** {
 5387              		.loc 5 213 44 view .LVU1704
 5388              	.LBB171:
 215:d:\_project\stm32\f407\hack_rf_new\lvgl\src\lv_misc\lv_mem.h ****     const uint8_t * s8 = (const uint8_t *)src;
 5389              		.loc 5 215 5 view .LVU1705
 216:d:\_project\stm32\f407\hack_rf_new\lvgl\src\lv_misc\lv_mem.h **** 
 5390              		.loc 5 216 5 view .LVU1706
 218:d:\_project\stm32\f407\hack_rf_new\lvgl\src\lv_misc\lv_mem.h ****         *d8 = *s8;
 5391              		.loc 5 218 5 view .LVU1707
 216:d:\_project\stm32\f407\hack_rf_new\lvgl\src\lv_misc\lv_mem.h **** 
ARM GAS  D:\Temp\cc0vPyDE.s 			page 169


 5392              		.loc 5 216 21 is_stmt 0 view .LVU1708
 5393 00b4 6EA9     		add	r1, sp, #440
 5394              	.LVL558:
 215:d:\_project\stm32\f407\hack_rf_new\lvgl\src\lv_misc\lv_mem.h ****     const uint8_t * s8 = (const uint8_t *)src;
 5395              		.loc 5 215 15 view .LVU1709
 5396 00b6 04AA     		add	r2, sp, #16
 5397              	.LVL559:
 215:d:\_project\stm32\f407\hack_rf_new\lvgl\src\lv_misc\lv_mem.h ****     const uint8_t * s8 = (const uint8_t *)src;
 5398              		.loc 5 215 15 view .LVU1710
 5399              	.LBE171:
 5400              	.LBE170:
 5401              	.LBE174:
 880:lvgl/src/lv_widgets/lv_canvas.c ****     lv_area_copy(&disp_buf.area, &mask);
 5402              		.loc 1 880 5 view .LVU1711
 5403 00b8 0823     		movs	r3, #8
 5404 00ba 04E0     		b	.L321
 5405              	.LVL560:
 5406              	.L322:
 5407              	.LBB175:
 5408              	.LBB173:
 5409              	.LBB172:
 219:d:\_project\stm32\f407\hack_rf_new\lvgl\src\lv_misc\lv_mem.h ****         d8++;
 5410              		.loc 5 219 9 is_stmt 1 view .LVU1712
 219:d:\_project\stm32\f407\hack_rf_new\lvgl\src\lv_misc\lv_mem.h ****         d8++;
 5411              		.loc 5 219 15 is_stmt 0 view .LVU1713
 5412 00bc 11F8010B 		ldrb	r0, [r1], #1	@ zero_extendqisi2
 5413              	.LVL561:
 219:d:\_project\stm32\f407\hack_rf_new\lvgl\src\lv_misc\lv_mem.h ****         d8++;
 5414              		.loc 5 219 13 view .LVU1714
 5415 00c0 02F8010B 		strb	r0, [r2], #1
 5416              	.LVL562:
 220:d:\_project\stm32\f407\hack_rf_new\lvgl\src\lv_misc\lv_mem.h ****         s8++;
 5417              		.loc 5 220 9 is_stmt 1 view .LVU1715
 221:d:\_project\stm32\f407\hack_rf_new\lvgl\src\lv_misc\lv_mem.h ****         len--;
 5418              		.loc 5 221 9 view .LVU1716
 222:d:\_project\stm32\f407\hack_rf_new\lvgl\src\lv_misc\lv_mem.h ****     }
 5419              		.loc 5 222 9 view .LVU1717
 222:d:\_project\stm32\f407\hack_rf_new\lvgl\src\lv_misc\lv_mem.h ****     }
 5420              		.loc 5 222 12 is_stmt 0 view .LVU1718
 5421 00c4 013B     		subs	r3, r3, #1
 5422              	.LVL563:
 5423              	.L321:
 218:d:\_project\stm32\f407\hack_rf_new\lvgl\src\lv_misc\lv_mem.h ****         *d8 = *s8;
 5424              		.loc 5 218 10 view .LVU1719
 5425 00c6 002B     		cmp	r3, #0
 5426 00c8 F8D1     		bne	.L322
 5427              		.loc 5 225 5 is_stmt 1 view .LVU1720
 5428              	.LVL564:
 5429              		.loc 5 225 5 is_stmt 0 view .LVU1721
 5430              	.LBE172:
 5431              	.LBE173:
 5432              	.LBE175:
 883:lvgl/src/lv_widgets/lv_canvas.c **** 
 5433              		.loc 1 883 5 is_stmt 1 view .LVU1722
 5434 00ca 09A8     		add	r0, sp, #36
 5435 00cc FFF7FEFF 		bl	lv_disp_drv_init
 5436              	.LVL565:
ARM GAS  D:\Temp\cc0vPyDE.s 			page 170


 885:lvgl/src/lv_widgets/lv_canvas.c ****     disp.driver.hor_res = dsc->header.w;
 5437              		.loc 1 885 5 view .LVU1723
 885:lvgl/src/lv_widgets/lv_canvas.c ****     disp.driver.hor_res = dsc->header.w;
 5438              		.loc 1 885 25 is_stmt 0 view .LVU1724
 5439 00d0 CDF828D0 		str	sp, [sp, #40]
 886:lvgl/src/lv_widgets/lv_canvas.c ****     disp.driver.ver_res = dsc->header.h;
 5440              		.loc 1 886 5 is_stmt 1 view .LVU1725
 886:lvgl/src/lv_widgets/lv_canvas.c ****     disp.driver.ver_res = dsc->header.h;
 5441              		.loc 1 886 38 is_stmt 0 view .LVU1726
 5442 00d4 2368     		ldr	r3, [r4]
 5443 00d6 C3F38A23 		ubfx	r3, r3, #10, #11
 886:lvgl/src/lv_widgets/lv_canvas.c ****     disp.driver.ver_res = dsc->header.h;
 5444              		.loc 1 886 25 view .LVU1727
 5445 00da ADF82430 		strh	r3, [sp, #36]	@ movhi
 887:lvgl/src/lv_widgets/lv_canvas.c **** 
 5446              		.loc 1 887 5 is_stmt 1 view .LVU1728
 887:lvgl/src/lv_widgets/lv_canvas.c **** 
 5447              		.loc 1 887 38 is_stmt 0 view .LVU1729
 5448 00de 6388     		ldrh	r3, [r4, #2]
 5449 00e0 C3F34A13 		ubfx	r3, r3, #5, #11
 887:lvgl/src/lv_widgets/lv_canvas.c **** 
 5450              		.loc 1 887 25 view .LVU1730
 5451 00e4 ADF82630 		strh	r3, [sp, #38]	@ movhi
 889:lvgl/src/lv_widgets/lv_canvas.c **** 
 5452              		.loc 1 889 5 is_stmt 1 view .LVU1731
 889:lvgl/src/lv_widgets/lv_canvas.c **** 
 5453              		.loc 1 889 44 is_stmt 0 view .LVU1732
 5454 00e8 2178     		ldrb	r1, [r4]	@ zero_extendqisi2
 889:lvgl/src/lv_widgets/lv_canvas.c **** 
 5455              		.loc 1 889 5 view .LVU1733
 5456 00ea 01F01F01 		and	r1, r1, #31
 5457 00ee 09A8     		add	r0, sp, #36
 5458 00f0 FFF7FEFF 		bl	set_set_px_cb
 5459              	.LVL566:
 891:lvgl/src/lv_widgets/lv_canvas.c ****     _lv_refr_set_disp_refreshing(&disp);
 5460              		.loc 1 891 5 is_stmt 1 view .LVU1734
 891:lvgl/src/lv_widgets/lv_canvas.c ****     _lv_refr_set_disp_refreshing(&disp);
 5461              		.loc 1 891 28 is_stmt 0 view .LVU1735
 5462 00f4 FFF7FEFF 		bl	_lv_refr_get_disp_refreshing
 5463              	.LVL567:
 5464 00f8 0446     		mov	r4, r0
 5465              	.LVL568:
 892:lvgl/src/lv_widgets/lv_canvas.c **** 
 5466              		.loc 1 892 5 is_stmt 1 view .LVU1736
 5467 00fa 09A8     		add	r0, sp, #36
 5468              	.LVL569:
 892:lvgl/src/lv_widgets/lv_canvas.c **** 
 5469              		.loc 1 892 5 is_stmt 0 view .LVU1737
 5470 00fc FFF7FEFF 		bl	_lv_refr_set_disp_refreshing
 5471              	.LVL570:
 894:lvgl/src/lv_widgets/lv_canvas.c **** 
 5472              		.loc 1 894 5 is_stmt 1 view .LVU1738
 5473 0100 769B     		ldr	r3, [sp, #472]
 5474 0102 3A46     		mov	r2, r7
 5475 0104 6EA9     		add	r1, sp, #440
 5476 0106 6BA8     		add	r0, sp, #428
 5477 0108 FFF7FEFF 		bl	lv_draw_img
ARM GAS  D:\Temp\cc0vPyDE.s 			page 171


 5478              	.LVL571:
 896:lvgl/src/lv_widgets/lv_canvas.c **** 
 5479              		.loc 1 896 5 view .LVU1739
 5480 010c 2046     		mov	r0, r4
 5481 010e FFF7FEFF 		bl	_lv_refr_set_disp_refreshing
 5482              	.LVL572:
 898:lvgl/src/lv_widgets/lv_canvas.c **** }
 5483              		.loc 1 898 5 view .LVU1740
 5484 0112 3046     		mov	r0, r6
 5485 0114 FFF7FEFF 		bl	lv_obj_invalidate
 5486              	.LVL573:
 5487 0118 8EE7     		b	.L317
 5488              	.L327:
 5489 011a 00BF     		.align	2
 5490              	.L326:
 5491 011c 00000000 		.word	.LC2
 5492              		.cfi_endproc
 5493              	.LFE471:
 5495              		.section	.text.lv_canvas_draw_line,"ax",%progbits
 5496              		.align	1
 5497              		.global	lv_canvas_draw_line
 5498              		.syntax unified
 5499              		.thumb
 5500              		.thumb_func
 5501              		.fpu fpv4-sp-d16
 5503              	lv_canvas_draw_line:
 5504              	.LVL574:
 5505              	.LFB472:
 910:lvgl/src/lv_widgets/lv_canvas.c ****     LV_ASSERT_OBJ(canvas, LV_OBJX_NAME);
 5506              		.loc 1 910 1 view -0
 5507              		.cfi_startproc
 5508              		@ args = 0, pretend = 0, frame = 440
 5509              		@ frame_needed = 0, uses_anonymous_args = 0
 910:lvgl/src/lv_widgets/lv_canvas.c ****     LV_ASSERT_OBJ(canvas, LV_OBJX_NAME);
 5510              		.loc 1 910 1 is_stmt 0 view .LVU1742
 5511 0000 2DE9F043 		push	{r4, r5, r6, r7, r8, r9, lr}
 5512              	.LCFI53:
 5513              		.cfi_def_cfa_offset 28
 5514              		.cfi_offset 4, -28
 5515              		.cfi_offset 5, -24
 5516              		.cfi_offset 6, -20
 5517              		.cfi_offset 7, -16
 5518              		.cfi_offset 8, -12
 5519              		.cfi_offset 9, -8
 5520              		.cfi_offset 14, -4
 5521 0004 EFB0     		sub	sp, sp, #444
 5522              	.LCFI54:
 5523              		.cfi_def_cfa_offset 472
 5524 0006 0546     		mov	r5, r0
 5525 0008 0E46     		mov	r6, r1
 5526 000a 9046     		mov	r8, r2
 5527 000c 1F46     		mov	r7, r3
 911:lvgl/src/lv_widgets/lv_canvas.c **** 
 5528              		.loc 1 911 5 is_stmt 1 view .LVU1743
 911:lvgl/src/lv_widgets/lv_canvas.c **** 
 5529              		.loc 1 911 5 view .LVU1744
 5530 000e FFF7FEFF 		bl	lv_debug_check_null
ARM GAS  D:\Temp\cc0vPyDE.s 			page 172


 5531              	.LVL575:
 911:lvgl/src/lv_widgets/lv_canvas.c **** 
 5532              		.loc 1 911 5 is_stmt 0 view .LVU1745
 5533 0012 28B9     		cbnz	r0, .L329
 911:lvgl/src/lv_widgets/lv_canvas.c **** 
 5534              		.loc 1 911 5 is_stmt 1 discriminator 1 view .LVU1746
 911:lvgl/src/lv_widgets/lv_canvas.c **** 
 5535              		.loc 1 911 5 discriminator 1 view .LVU1747
 5536 0014 2A46     		mov	r2, r5
 5537 0016 0023     		movs	r3, #0
 5538 0018 4048     		ldr	r0, .L341
 5539 001a FFF7FEFF 		bl	lv_debug_log_error
 5540              	.LVL576:
 5541              	.L330:
 911:lvgl/src/lv_widgets/lv_canvas.c **** 
 5542              		.loc 1 911 5 discriminator 1 view .LVU1748
 911:lvgl/src/lv_widgets/lv_canvas.c **** 
 5543              		.loc 1 911 5 discriminator 1 view .LVU1749
 5544 001e FEE7     		b	.L330
 5545              	.L329:
 911:lvgl/src/lv_widgets/lv_canvas.c **** 
 5546              		.loc 1 911 40 discriminator 2 view .LVU1750
 913:lvgl/src/lv_widgets/lv_canvas.c **** 
 5547              		.loc 1 913 5 discriminator 2 view .LVU1751
 913:lvgl/src/lv_widgets/lv_canvas.c **** 
 5548              		.loc 1 913 26 is_stmt 0 discriminator 2 view .LVU1752
 5549 0020 2846     		mov	r0, r5
 5550 0022 FFF7FEFF 		bl	lv_canvas_get_img
 5551              	.LVL577:
 5552 0026 0446     		mov	r4, r0
 5553              	.LVL578:
 915:lvgl/src/lv_widgets/lv_canvas.c ****         LV_LOG_WARN("lv_canvas_draw_line: can't draw to LV_IMG_CF_INDEXED canvas");
 5554              		.loc 1 915 5 is_stmt 1 discriminator 2 view .LVU1753
 915:lvgl/src/lv_widgets/lv_canvas.c ****         LV_LOG_WARN("lv_canvas_draw_line: can't draw to LV_IMG_CF_INDEXED canvas");
 5555              		.loc 1 915 19 is_stmt 0 discriminator 2 view .LVU1754
 5556 0028 0378     		ldrb	r3, [r0]	@ zero_extendqisi2
 5557 002a 03F01F03 		and	r3, r3, #31
 915:lvgl/src/lv_widgets/lv_canvas.c ****         LV_LOG_WARN("lv_canvas_draw_line: can't draw to LV_IMG_CF_INDEXED canvas");
 5558              		.loc 1 915 49 discriminator 2 view .LVU1755
 5559 002e 1933     		adds	r3, r3, #25
 5560 0030 03F01F03 		and	r3, r3, #31
 915:lvgl/src/lv_widgets/lv_canvas.c ****         LV_LOG_WARN("lv_canvas_draw_line: can't draw to LV_IMG_CF_INDEXED canvas");
 5561              		.loc 1 915 7 discriminator 2 view .LVU1756
 5562 0034 032B     		cmp	r3, #3
 5563 0036 02D8     		bhi	.L339
 5564              	.LVL579:
 5565              	.L328:
 962:lvgl/src/lv_widgets/lv_canvas.c **** 
 5566              		.loc 1 962 1 view .LVU1757
 5567 0038 6FB0     		add	sp, sp, #444
 5568              	.LCFI55:
 5569              		.cfi_remember_state
 5570              		.cfi_def_cfa_offset 28
 5571              		@ sp needed
 5572 003a BDE8F083 		pop	{r4, r5, r6, r7, r8, r9, pc}
 5573              	.LVL580:
 5574              	.L339:
ARM GAS  D:\Temp\cc0vPyDE.s 			page 173


 5575              	.LCFI56:
 5576              		.cfi_restore_state
 921:lvgl/src/lv_widgets/lv_canvas.c ****     mask.x1 = 0;
 5577              		.loc 1 921 5 is_stmt 1 view .LVU1758
 922:lvgl/src/lv_widgets/lv_canvas.c ****     mask.x2 = dsc->header.w - 1;
 5578              		.loc 1 922 5 view .LVU1759
 922:lvgl/src/lv_widgets/lv_canvas.c ****     mask.x2 = dsc->header.w - 1;
 5579              		.loc 1 922 13 is_stmt 0 view .LVU1760
 5580 003e 4FF00009 		mov	r9, #0
 5581 0042 ADF8B091 		strh	r9, [sp, #432]	@ movhi
 923:lvgl/src/lv_widgets/lv_canvas.c ****     mask.y1 = 0;
 5582              		.loc 1 923 5 is_stmt 1 view .LVU1761
 923:lvgl/src/lv_widgets/lv_canvas.c ****     mask.y1 = 0;
 5583              		.loc 1 923 26 is_stmt 0 view .LVU1762
 5584 0046 0368     		ldr	r3, [r0]
 5585 0048 C3F38A23 		ubfx	r3, r3, #10, #11
 923:lvgl/src/lv_widgets/lv_canvas.c ****     mask.y1 = 0;
 5586              		.loc 1 923 29 view .LVU1763
 5587 004c 013B     		subs	r3, r3, #1
 923:lvgl/src/lv_widgets/lv_canvas.c ****     mask.y1 = 0;
 5588              		.loc 1 923 13 view .LVU1764
 5589 004e ADF8B431 		strh	r3, [sp, #436]	@ movhi
 924:lvgl/src/lv_widgets/lv_canvas.c ****     mask.y2 = dsc->header.h - 1;
 5590              		.loc 1 924 5 is_stmt 1 view .LVU1765
 924:lvgl/src/lv_widgets/lv_canvas.c ****     mask.y2 = dsc->header.h - 1;
 5591              		.loc 1 924 13 is_stmt 0 view .LVU1766
 5592 0052 ADF8B291 		strh	r9, [sp, #434]	@ movhi
 925:lvgl/src/lv_widgets/lv_canvas.c **** 
 5593              		.loc 1 925 5 is_stmt 1 view .LVU1767
 925:lvgl/src/lv_widgets/lv_canvas.c **** 
 5594              		.loc 1 925 26 is_stmt 0 view .LVU1768
 5595 0056 4388     		ldrh	r3, [r0, #2]
 5596 0058 5B09     		lsrs	r3, r3, #5
 925:lvgl/src/lv_widgets/lv_canvas.c **** 
 5597              		.loc 1 925 29 view .LVU1769
 5598 005a 013B     		subs	r3, r3, #1
 925:lvgl/src/lv_widgets/lv_canvas.c **** 
 5599              		.loc 1 925 13 view .LVU1770
 5600 005c ADF8B631 		strh	r3, [sp, #438]	@ movhi
 927:lvgl/src/lv_widgets/lv_canvas.c ****     _lv_memset_00(&disp, sizeof(lv_disp_t));
 5601              		.loc 1 927 5 is_stmt 1 view .LVU1771
 928:lvgl/src/lv_widgets/lv_canvas.c **** 
 5602              		.loc 1 928 5 view .LVU1772
 5603 0060 4FF4C471 		mov	r1, #392
 5604 0064 0AA8     		add	r0, sp, #40
 5605              	.LVL581:
 928:lvgl/src/lv_widgets/lv_canvas.c **** 
 5606              		.loc 1 928 5 is_stmt 0 view .LVU1773
 5607 0066 FFF7FEFF 		bl	_lv_memset_00
 5608              	.LVL582:
 930:lvgl/src/lv_widgets/lv_canvas.c ****     lv_disp_buf_init(&disp_buf, (void *)dsc->data, NULL, dsc->header.w * dsc->header.h);
 5609              		.loc 1 930 5 is_stmt 1 view .LVU1774
 931:lvgl/src/lv_widgets/lv_canvas.c ****     lv_area_copy(&disp_buf.area, &mask);
 5610              		.loc 1 931 5 view .LVU1775
 931:lvgl/src/lv_widgets/lv_canvas.c ****     lv_area_copy(&disp_buf.area, &mask);
 5611              		.loc 1 931 69 is_stmt 0 view .LVU1776
 5612 006a 2368     		ldr	r3, [r4]
ARM GAS  D:\Temp\cc0vPyDE.s 			page 174


 5613 006c C3F38A23 		ubfx	r3, r3, #10, #11
 931:lvgl/src/lv_widgets/lv_canvas.c ****     lv_area_copy(&disp_buf.area, &mask);
 5614              		.loc 1 931 85 view .LVU1777
 5615 0070 6288     		ldrh	r2, [r4, #2]
 5616 0072 5209     		lsrs	r2, r2, #5
 931:lvgl/src/lv_widgets/lv_canvas.c ****     lv_area_copy(&disp_buf.area, &mask);
 5617              		.loc 1 931 5 view .LVU1778
 5618 0074 02FB03F3 		mul	r3, r2, r3
 5619 0078 4A46     		mov	r2, r9
 5620 007a A168     		ldr	r1, [r4, #8]
 5621 007c 01A8     		add	r0, sp, #4
 5622 007e FFF7FEFF 		bl	lv_disp_buf_init
 5623              	.LVL583:
 932:lvgl/src/lv_widgets/lv_canvas.c **** 
 5624              		.loc 1 932 5 is_stmt 1 view .LVU1779
 5625              	.LBB176:
 5626              	.LBI176:
  97:d:\_project\stm32\f407\hack_rf_new\lvgl\src\lv_misc\lv_area.h **** {
 5627              		.loc 6 97 20 view .LVU1780
 5628              	.LBE176:
 5629              		.loc 6 99 5 view .LVU1781
 5630              	.LBB181:
 5631              	.LBB177:
 5632              	.LBI177:
 213:d:\_project\stm32\f407\hack_rf_new\lvgl\src\lv_misc\lv_mem.h **** {
 5633              		.loc 5 213 44 view .LVU1782
 5634              	.LBB178:
 215:d:\_project\stm32\f407\hack_rf_new\lvgl\src\lv_misc\lv_mem.h ****     const uint8_t * s8 = (const uint8_t *)src;
 5635              		.loc 5 215 5 view .LVU1783
 216:d:\_project\stm32\f407\hack_rf_new\lvgl\src\lv_misc\lv_mem.h **** 
 5636              		.loc 5 216 5 view .LVU1784
 218:d:\_project\stm32\f407\hack_rf_new\lvgl\src\lv_misc\lv_mem.h ****         *d8 = *s8;
 5637              		.loc 5 218 5 view .LVU1785
 216:d:\_project\stm32\f407\hack_rf_new\lvgl\src\lv_misc\lv_mem.h **** 
 5638              		.loc 5 216 21 is_stmt 0 view .LVU1786
 5639 0082 6CA9     		add	r1, sp, #432
 5640              	.LVL584:
 215:d:\_project\stm32\f407\hack_rf_new\lvgl\src\lv_misc\lv_mem.h ****     const uint8_t * s8 = (const uint8_t *)src;
 5641              		.loc 5 215 15 view .LVU1787
 5642 0084 05AA     		add	r2, sp, #20
 5643              	.LVL585:
 215:d:\_project\stm32\f407\hack_rf_new\lvgl\src\lv_misc\lv_mem.h ****     const uint8_t * s8 = (const uint8_t *)src;
 5644              		.loc 5 215 15 view .LVU1788
 5645              	.LBE178:
 5646              	.LBE177:
 5647              	.LBE181:
 931:lvgl/src/lv_widgets/lv_canvas.c ****     lv_area_copy(&disp_buf.area, &mask);
 5648              		.loc 1 931 5 view .LVU1789
 5649 0086 0823     		movs	r3, #8
 5650 0088 04E0     		b	.L333
 5651              	.LVL586:
 5652              	.L334:
 5653              	.LBB182:
 5654              	.LBB180:
 5655              	.LBB179:
 219:d:\_project\stm32\f407\hack_rf_new\lvgl\src\lv_misc\lv_mem.h ****         d8++;
 5656              		.loc 5 219 9 is_stmt 1 view .LVU1790
ARM GAS  D:\Temp\cc0vPyDE.s 			page 175


 219:d:\_project\stm32\f407\hack_rf_new\lvgl\src\lv_misc\lv_mem.h ****         d8++;
 5657              		.loc 5 219 15 is_stmt 0 view .LVU1791
 5658 008a 11F8010B 		ldrb	r0, [r1], #1	@ zero_extendqisi2
 5659              	.LVL587:
 219:d:\_project\stm32\f407\hack_rf_new\lvgl\src\lv_misc\lv_mem.h ****         d8++;
 5660              		.loc 5 219 13 view .LVU1792
 5661 008e 02F8010B 		strb	r0, [r2], #1
 5662              	.LVL588:
 220:d:\_project\stm32\f407\hack_rf_new\lvgl\src\lv_misc\lv_mem.h ****         s8++;
 5663              		.loc 5 220 9 is_stmt 1 view .LVU1793
 221:d:\_project\stm32\f407\hack_rf_new\lvgl\src\lv_misc\lv_mem.h ****         len--;
 5664              		.loc 5 221 9 view .LVU1794
 222:d:\_project\stm32\f407\hack_rf_new\lvgl\src\lv_misc\lv_mem.h ****     }
 5665              		.loc 5 222 9 view .LVU1795
 222:d:\_project\stm32\f407\hack_rf_new\lvgl\src\lv_misc\lv_mem.h ****     }
 5666              		.loc 5 222 12 is_stmt 0 view .LVU1796
 5667 0092 013B     		subs	r3, r3, #1
 5668              	.LVL589:
 5669              	.L333:
 218:d:\_project\stm32\f407\hack_rf_new\lvgl\src\lv_misc\lv_mem.h ****         *d8 = *s8;
 5670              		.loc 5 218 10 view .LVU1797
 5671 0094 002B     		cmp	r3, #0
 5672 0096 F8D1     		bne	.L334
 5673              		.loc 5 225 5 is_stmt 1 view .LVU1798
 5674              	.LVL590:
 5675              		.loc 5 225 5 is_stmt 0 view .LVU1799
 5676              	.LBE179:
 5677              	.LBE180:
 5678              	.LBE182:
 934:lvgl/src/lv_widgets/lv_canvas.c **** 
 5679              		.loc 1 934 5 is_stmt 1 view .LVU1800
 5680 0098 0AA8     		add	r0, sp, #40
 5681 009a FFF7FEFF 		bl	lv_disp_drv_init
 5682              	.LVL591:
 936:lvgl/src/lv_widgets/lv_canvas.c ****     disp.driver.hor_res = dsc->header.w;
 5683              		.loc 1 936 5 view .LVU1801
 936:lvgl/src/lv_widgets/lv_canvas.c ****     disp.driver.hor_res = dsc->header.w;
 5684              		.loc 1 936 25 is_stmt 0 view .LVU1802
 5685 009e 01AB     		add	r3, sp, #4
 5686 00a0 0B93     		str	r3, [sp, #44]
 937:lvgl/src/lv_widgets/lv_canvas.c ****     disp.driver.ver_res = dsc->header.h;
 5687              		.loc 1 937 5 is_stmt 1 view .LVU1803
 937:lvgl/src/lv_widgets/lv_canvas.c ****     disp.driver.ver_res = dsc->header.h;
 5688              		.loc 1 937 38 is_stmt 0 view .LVU1804
 5689 00a2 2368     		ldr	r3, [r4]
 5690 00a4 C3F38A23 		ubfx	r3, r3, #10, #11
 937:lvgl/src/lv_widgets/lv_canvas.c ****     disp.driver.ver_res = dsc->header.h;
 5691              		.loc 1 937 25 view .LVU1805
 5692 00a8 ADF82830 		strh	r3, [sp, #40]	@ movhi
 938:lvgl/src/lv_widgets/lv_canvas.c **** 
 5693              		.loc 1 938 5 is_stmt 1 view .LVU1806
 938:lvgl/src/lv_widgets/lv_canvas.c **** 
 5694              		.loc 1 938 38 is_stmt 0 view .LVU1807
 5695 00ac 6388     		ldrh	r3, [r4, #2]
 5696 00ae C3F34A13 		ubfx	r3, r3, #5, #11
 938:lvgl/src/lv_widgets/lv_canvas.c **** 
 5697              		.loc 1 938 25 view .LVU1808
ARM GAS  D:\Temp\cc0vPyDE.s 			page 176


 5698 00b2 ADF82A30 		strh	r3, [sp, #42]	@ movhi
 940:lvgl/src/lv_widgets/lv_canvas.c **** 
 5699              		.loc 1 940 5 is_stmt 1 view .LVU1809
 940:lvgl/src/lv_widgets/lv_canvas.c **** 
 5700              		.loc 1 940 44 is_stmt 0 view .LVU1810
 5701 00b6 2178     		ldrb	r1, [r4]	@ zero_extendqisi2
 940:lvgl/src/lv_widgets/lv_canvas.c **** 
 5702              		.loc 1 940 5 view .LVU1811
 5703 00b8 01F01F01 		and	r1, r1, #31
 5704 00bc 0AA8     		add	r0, sp, #40
 5705 00be FFF7FEFF 		bl	set_set_px_cb
 5706              	.LVL592:
 944:lvgl/src/lv_widgets/lv_canvas.c ****     if(dsc->header.cf == LV_IMG_CF_TRUE_COLOR_CHROMA_KEYED &&
 5707              		.loc 1 944 5 is_stmt 1 view .LVU1812
 945:lvgl/src/lv_widgets/lv_canvas.c ****        line_draw_dsc->color.full == ctransp.full) {
 5708              		.loc 1 945 5 view .LVU1813
 945:lvgl/src/lv_widgets/lv_canvas.c ****        line_draw_dsc->color.full == ctransp.full) {
 5709              		.loc 1 945 23 is_stmt 0 view .LVU1814
 5710 00c2 2378     		ldrb	r3, [r4]	@ zero_extendqisi2
 5711 00c4 03F01F03 		and	r3, r3, #31
 945:lvgl/src/lv_widgets/lv_canvas.c ****        line_draw_dsc->color.full == ctransp.full) {
 5712              		.loc 1 945 7 view .LVU1815
 5713 00c8 062B     		cmp	r3, #6
 5714 00ca 07D0     		beq	.L340
 5715              	.L335:
 951:lvgl/src/lv_widgets/lv_canvas.c ****     _lv_refr_set_disp_refreshing(&disp);
 5716              		.loc 1 951 5 is_stmt 1 view .LVU1816
 951:lvgl/src/lv_widgets/lv_canvas.c ****     _lv_refr_set_disp_refreshing(&disp);
 5717              		.loc 1 951 28 is_stmt 0 view .LVU1817
 5718 00cc FFF7FEFF 		bl	_lv_refr_get_disp_refreshing
 5719              	.LVL593:
 5720 00d0 8146     		mov	r9, r0
 5721              	.LVL594:
 952:lvgl/src/lv_widgets/lv_canvas.c **** 
 5722              		.loc 1 952 5 is_stmt 1 view .LVU1818
 5723 00d2 0AA8     		add	r0, sp, #40
 5724              	.LVL595:
 952:lvgl/src/lv_widgets/lv_canvas.c **** 
 5725              		.loc 1 952 5 is_stmt 0 view .LVU1819
 5726 00d4 FFF7FEFF 		bl	_lv_refr_set_disp_refreshing
 5727              	.LVL596:
 954:lvgl/src/lv_widgets/lv_canvas.c ****     for(i = 0; i < point_cnt - 1; i++) {
 5728              		.loc 1 954 5 is_stmt 1 view .LVU1820
 955:lvgl/src/lv_widgets/lv_canvas.c ****         lv_draw_line(&points[i], &points[i + 1], &mask, line_draw_dsc);
 5729              		.loc 1 955 5 view .LVU1821
 955:lvgl/src/lv_widgets/lv_canvas.c ****         lv_draw_line(&points[i], &points[i + 1], &mask, line_draw_dsc);
 5730              		.loc 1 955 11 is_stmt 0 view .LVU1822
 5731 00d8 0024     		movs	r4, #0
 5732              	.LVL597:
 955:lvgl/src/lv_widgets/lv_canvas.c ****         lv_draw_line(&points[i], &points[i + 1], &mask, line_draw_dsc);
 5733              		.loc 1 955 5 view .LVU1823
 5734 00da 14E0     		b	.L336
 5735              	.LVL598:
 5736              	.L340:
 946:lvgl/src/lv_widgets/lv_canvas.c ****         disp.driver.antialiasing = 0;
 5737              		.loc 1 946 28 discriminator 1 view .LVU1824
 5738 00dc 3A88     		ldrh	r2, [r7]
ARM GAS  D:\Temp\cc0vPyDE.s 			page 177


 946:lvgl/src/lv_widgets/lv_canvas.c ****         disp.driver.antialiasing = 0;
 5739              		.loc 1 946 44 discriminator 1 view .LVU1825
 5740 00de 4FF4FC63 		mov	r3, #2016
 945:lvgl/src/lv_widgets/lv_canvas.c ****        line_draw_dsc->color.full == ctransp.full) {
 5741              		.loc 1 945 60 discriminator 1 view .LVU1826
 5742 00e2 9A42     		cmp	r2, r3
 5743 00e4 F2D1     		bne	.L335
 947:lvgl/src/lv_widgets/lv_canvas.c ****     }
 5744              		.loc 1 947 9 is_stmt 1 view .LVU1827
 947:lvgl/src/lv_widgets/lv_canvas.c ****     }
 5745              		.loc 1 947 34 is_stmt 0 view .LVU1828
 5746 00e6 9DF83030 		ldrb	r3, [sp, #48]	@ zero_extendqisi2
 5747 00ea 6FF30003 		bfc	r3, #0, #1
 5748 00ee 8DF83030 		strb	r3, [sp, #48]
 5749 00f2 EBE7     		b	.L335
 5750              	.LVL599:
 5751              	.L337:
 956:lvgl/src/lv_widgets/lv_canvas.c ****     }
 5752              		.loc 1 956 9 is_stmt 1 discriminator 3 view .LVU1829
 956:lvgl/src/lv_widgets/lv_canvas.c ****     }
 5753              		.loc 1 956 29 is_stmt 0 discriminator 3 view .LVU1830
 5754 00f4 A000     		lsls	r0, r4, #2
 956:lvgl/src/lv_widgets/lv_canvas.c ****     }
 5755              		.loc 1 956 9 discriminator 3 view .LVU1831
 5756 00f6 0134     		adds	r4, r4, #1
 5757              	.LVL600:
 956:lvgl/src/lv_widgets/lv_canvas.c ****     }
 5758              		.loc 1 956 9 discriminator 3 view .LVU1832
 5759 00f8 3B46     		mov	r3, r7
 5760 00fa 6CAA     		add	r2, sp, #432
 5761 00fc 06EB8401 		add	r1, r6, r4, lsl #2
 5762 0100 3044     		add	r0, r0, r6
 5763 0102 FFF7FEFF 		bl	lv_draw_line
 5764              	.LVL601:
 5765              	.L336:
 955:lvgl/src/lv_widgets/lv_canvas.c ****         lv_draw_line(&points[i], &points[i + 1], &mask, line_draw_dsc);
 5766              		.loc 1 955 30 discriminator 1 view .LVU1833
 5767 0106 08F1FF33 		add	r3, r8, #-1
 955:lvgl/src/lv_widgets/lv_canvas.c ****         lv_draw_line(&points[i], &points[i + 1], &mask, line_draw_dsc);
 5768              		.loc 1 955 5 discriminator 1 view .LVU1834
 5769 010a A342     		cmp	r3, r4
 5770 010c F2D8     		bhi	.L337
 959:lvgl/src/lv_widgets/lv_canvas.c **** 
 5771              		.loc 1 959 5 is_stmt 1 view .LVU1835
 5772 010e 4846     		mov	r0, r9
 5773 0110 FFF7FEFF 		bl	_lv_refr_set_disp_refreshing
 5774              	.LVL602:
 961:lvgl/src/lv_widgets/lv_canvas.c **** }
 5775              		.loc 1 961 5 view .LVU1836
 5776 0114 2846     		mov	r0, r5
 5777 0116 FFF7FEFF 		bl	lv_obj_invalidate
 5778              	.LVL603:
 5779 011a 8DE7     		b	.L328
 5780              	.L342:
 5781              		.align	2
 5782              	.L341:
 5783 011c 00000000 		.word	.LC2
ARM GAS  D:\Temp\cc0vPyDE.s 			page 178


 5784              		.cfi_endproc
 5785              	.LFE472:
 5787              		.section	.text.lv_canvas_draw_polygon,"ax",%progbits
 5788              		.align	1
 5789              		.global	lv_canvas_draw_polygon
 5790              		.syntax unified
 5791              		.thumb
 5792              		.thumb_func
 5793              		.fpu fpv4-sp-d16
 5795              	lv_canvas_draw_polygon:
 5796              	.LVL604:
 5797              	.LFB473:
 973:lvgl/src/lv_widgets/lv_canvas.c ****     LV_ASSERT_OBJ(canvas, LV_OBJX_NAME);
 5798              		.loc 1 973 1 view -0
 5799              		.cfi_startproc
 5800              		@ args = 0, pretend = 0, frame = 440
 5801              		@ frame_needed = 0, uses_anonymous_args = 0
 973:lvgl/src/lv_widgets/lv_canvas.c ****     LV_ASSERT_OBJ(canvas, LV_OBJX_NAME);
 5802              		.loc 1 973 1 is_stmt 0 view .LVU1838
 5803 0000 2DE9F043 		push	{r4, r5, r6, r7, r8, r9, lr}
 5804              	.LCFI57:
 5805              		.cfi_def_cfa_offset 28
 5806              		.cfi_offset 4, -28
 5807              		.cfi_offset 5, -24
 5808              		.cfi_offset 6, -20
 5809              		.cfi_offset 7, -16
 5810              		.cfi_offset 8, -12
 5811              		.cfi_offset 9, -8
 5812              		.cfi_offset 14, -4
 5813 0004 EFB0     		sub	sp, sp, #444
 5814              	.LCFI58:
 5815              		.cfi_def_cfa_offset 472
 5816 0006 0546     		mov	r5, r0
 5817 0008 0F46     		mov	r7, r1
 5818 000a 9046     		mov	r8, r2
 5819 000c 1E46     		mov	r6, r3
 974:lvgl/src/lv_widgets/lv_canvas.c **** 
 5820              		.loc 1 974 5 is_stmt 1 view .LVU1839
 974:lvgl/src/lv_widgets/lv_canvas.c **** 
 5821              		.loc 1 974 5 view .LVU1840
 5822 000e FFF7FEFF 		bl	lv_debug_check_null
 5823              	.LVL605:
 974:lvgl/src/lv_widgets/lv_canvas.c **** 
 5824              		.loc 1 974 5 is_stmt 0 view .LVU1841
 5825 0012 28B9     		cbnz	r0, .L344
 974:lvgl/src/lv_widgets/lv_canvas.c **** 
 5826              		.loc 1 974 5 is_stmt 1 discriminator 1 view .LVU1842
 974:lvgl/src/lv_widgets/lv_canvas.c **** 
 5827              		.loc 1 974 5 discriminator 1 view .LVU1843
 5828 0014 2A46     		mov	r2, r5
 5829 0016 0023     		movs	r3, #0
 5830 0018 3C48     		ldr	r0, .L354
 5831 001a FFF7FEFF 		bl	lv_debug_log_error
 5832              	.LVL606:
 5833              	.L345:
 974:lvgl/src/lv_widgets/lv_canvas.c **** 
 5834              		.loc 1 974 5 discriminator 1 view .LVU1844
ARM GAS  D:\Temp\cc0vPyDE.s 			page 179


 974:lvgl/src/lv_widgets/lv_canvas.c **** 
 5835              		.loc 1 974 5 discriminator 1 view .LVU1845
 5836 001e FEE7     		b	.L345
 5837              	.L344:
 974:lvgl/src/lv_widgets/lv_canvas.c **** 
 5838              		.loc 1 974 40 discriminator 2 view .LVU1846
 976:lvgl/src/lv_widgets/lv_canvas.c **** 
 5839              		.loc 1 976 5 discriminator 2 view .LVU1847
 976:lvgl/src/lv_widgets/lv_canvas.c **** 
 5840              		.loc 1 976 26 is_stmt 0 discriminator 2 view .LVU1848
 5841 0020 2846     		mov	r0, r5
 5842 0022 FFF7FEFF 		bl	lv_canvas_get_img
 5843              	.LVL607:
 5844 0026 0446     		mov	r4, r0
 5845              	.LVL608:
 978:lvgl/src/lv_widgets/lv_canvas.c ****         LV_LOG_WARN("lv_canvas_draw_polygon: can't draw to LV_IMG_CF_INDEXED canvas");
 5846              		.loc 1 978 5 is_stmt 1 discriminator 2 view .LVU1849
 978:lvgl/src/lv_widgets/lv_canvas.c ****         LV_LOG_WARN("lv_canvas_draw_polygon: can't draw to LV_IMG_CF_INDEXED canvas");
 5847              		.loc 1 978 19 is_stmt 0 discriminator 2 view .LVU1850
 5848 0028 0378     		ldrb	r3, [r0]	@ zero_extendqisi2
 5849 002a 03F01F03 		and	r3, r3, #31
 978:lvgl/src/lv_widgets/lv_canvas.c ****         LV_LOG_WARN("lv_canvas_draw_polygon: can't draw to LV_IMG_CF_INDEXED canvas");
 5850              		.loc 1 978 49 discriminator 2 view .LVU1851
 5851 002e 1933     		adds	r3, r3, #25
 5852 0030 03F01F03 		and	r3, r3, #31
 978:lvgl/src/lv_widgets/lv_canvas.c ****         LV_LOG_WARN("lv_canvas_draw_polygon: can't draw to LV_IMG_CF_INDEXED canvas");
 5853              		.loc 1 978 7 discriminator 2 view .LVU1852
 5854 0034 032B     		cmp	r3, #3
 5855 0036 02D8     		bhi	.L352
 5856              	.LVL609:
 5857              	.L343:
1023:lvgl/src/lv_widgets/lv_canvas.c **** 
 5858              		.loc 1 1023 1 view .LVU1853
 5859 0038 6FB0     		add	sp, sp, #444
 5860              	.LCFI59:
 5861              		.cfi_remember_state
 5862              		.cfi_def_cfa_offset 28
 5863              		@ sp needed
 5864 003a BDE8F083 		pop	{r4, r5, r6, r7, r8, r9, pc}
 5865              	.LVL610:
 5866              	.L352:
 5867              	.LCFI60:
 5868              		.cfi_restore_state
 985:lvgl/src/lv_widgets/lv_canvas.c ****     mask.x1 = 0;
 5869              		.loc 1 985 5 is_stmt 1 view .LVU1854
 986:lvgl/src/lv_widgets/lv_canvas.c ****     mask.x2 = dsc->header.w - 1;
 5870              		.loc 1 986 5 view .LVU1855
 986:lvgl/src/lv_widgets/lv_canvas.c ****     mask.x2 = dsc->header.w - 1;
 5871              		.loc 1 986 13 is_stmt 0 view .LVU1856
 5872 003e 4FF00009 		mov	r9, #0
 5873 0042 ADF8B091 		strh	r9, [sp, #432]	@ movhi
 987:lvgl/src/lv_widgets/lv_canvas.c ****     mask.y1 = 0;
 5874              		.loc 1 987 5 is_stmt 1 view .LVU1857
 987:lvgl/src/lv_widgets/lv_canvas.c ****     mask.y1 = 0;
 5875              		.loc 1 987 26 is_stmt 0 view .LVU1858
 5876 0046 0368     		ldr	r3, [r0]
 5877 0048 C3F38A23 		ubfx	r3, r3, #10, #11
ARM GAS  D:\Temp\cc0vPyDE.s 			page 180


 987:lvgl/src/lv_widgets/lv_canvas.c ****     mask.y1 = 0;
 5878              		.loc 1 987 29 view .LVU1859
 5879 004c 013B     		subs	r3, r3, #1
 987:lvgl/src/lv_widgets/lv_canvas.c ****     mask.y1 = 0;
 5880              		.loc 1 987 13 view .LVU1860
 5881 004e ADF8B431 		strh	r3, [sp, #436]	@ movhi
 988:lvgl/src/lv_widgets/lv_canvas.c ****     mask.y2 = dsc->header.h - 1;
 5882              		.loc 1 988 5 is_stmt 1 view .LVU1861
 988:lvgl/src/lv_widgets/lv_canvas.c ****     mask.y2 = dsc->header.h - 1;
 5883              		.loc 1 988 13 is_stmt 0 view .LVU1862
 5884 0052 ADF8B291 		strh	r9, [sp, #434]	@ movhi
 989:lvgl/src/lv_widgets/lv_canvas.c **** 
 5885              		.loc 1 989 5 is_stmt 1 view .LVU1863
 989:lvgl/src/lv_widgets/lv_canvas.c **** 
 5886              		.loc 1 989 26 is_stmt 0 view .LVU1864
 5887 0056 4388     		ldrh	r3, [r0, #2]
 5888 0058 5B09     		lsrs	r3, r3, #5
 989:lvgl/src/lv_widgets/lv_canvas.c **** 
 5889              		.loc 1 989 29 view .LVU1865
 5890 005a 013B     		subs	r3, r3, #1
 989:lvgl/src/lv_widgets/lv_canvas.c **** 
 5891              		.loc 1 989 13 view .LVU1866
 5892 005c ADF8B631 		strh	r3, [sp, #438]	@ movhi
 991:lvgl/src/lv_widgets/lv_canvas.c ****     _lv_memset_00(&disp, sizeof(lv_disp_t));
 5893              		.loc 1 991 5 is_stmt 1 view .LVU1867
 992:lvgl/src/lv_widgets/lv_canvas.c **** 
 5894              		.loc 1 992 5 view .LVU1868
 5895 0060 4FF4C471 		mov	r1, #392
 5896 0064 0AA8     		add	r0, sp, #40
 5897              	.LVL611:
 992:lvgl/src/lv_widgets/lv_canvas.c **** 
 5898              		.loc 1 992 5 is_stmt 0 view .LVU1869
 5899 0066 FFF7FEFF 		bl	_lv_memset_00
 5900              	.LVL612:
 994:lvgl/src/lv_widgets/lv_canvas.c ****     lv_disp_buf_init(&disp_buf, (void *)dsc->data, NULL, dsc->header.w * dsc->header.h);
 5901              		.loc 1 994 5 is_stmt 1 view .LVU1870
 995:lvgl/src/lv_widgets/lv_canvas.c ****     lv_area_copy(&disp_buf.area, &mask);
 5902              		.loc 1 995 5 view .LVU1871
 995:lvgl/src/lv_widgets/lv_canvas.c ****     lv_area_copy(&disp_buf.area, &mask);
 5903              		.loc 1 995 69 is_stmt 0 view .LVU1872
 5904 006a 2368     		ldr	r3, [r4]
 5905 006c C3F38A23 		ubfx	r3, r3, #10, #11
 995:lvgl/src/lv_widgets/lv_canvas.c ****     lv_area_copy(&disp_buf.area, &mask);
 5906              		.loc 1 995 85 view .LVU1873
 5907 0070 6288     		ldrh	r2, [r4, #2]
 5908 0072 5209     		lsrs	r2, r2, #5
 995:lvgl/src/lv_widgets/lv_canvas.c ****     lv_area_copy(&disp_buf.area, &mask);
 5909              		.loc 1 995 5 view .LVU1874
 5910 0074 02FB03F3 		mul	r3, r2, r3
 5911 0078 4A46     		mov	r2, r9
 5912 007a A168     		ldr	r1, [r4, #8]
 5913 007c 01A8     		add	r0, sp, #4
 5914 007e FFF7FEFF 		bl	lv_disp_buf_init
 5915              	.LVL613:
 996:lvgl/src/lv_widgets/lv_canvas.c **** 
 5916              		.loc 1 996 5 is_stmt 1 view .LVU1875
 5917              	.LBB183:
ARM GAS  D:\Temp\cc0vPyDE.s 			page 181


 5918              	.LBI183:
  97:d:\_project\stm32\f407\hack_rf_new\lvgl\src\lv_misc\lv_area.h **** {
 5919              		.loc 6 97 20 view .LVU1876
 5920              	.LBE183:
 5921              		.loc 6 99 5 view .LVU1877
 5922              	.LBB188:
 5923              	.LBB184:
 5924              	.LBI184:
 213:d:\_project\stm32\f407\hack_rf_new\lvgl\src\lv_misc\lv_mem.h **** {
 5925              		.loc 5 213 44 view .LVU1878
 5926              	.LBB185:
 215:d:\_project\stm32\f407\hack_rf_new\lvgl\src\lv_misc\lv_mem.h ****     const uint8_t * s8 = (const uint8_t *)src;
 5927              		.loc 5 215 5 view .LVU1879
 216:d:\_project\stm32\f407\hack_rf_new\lvgl\src\lv_misc\lv_mem.h **** 
 5928              		.loc 5 216 5 view .LVU1880
 218:d:\_project\stm32\f407\hack_rf_new\lvgl\src\lv_misc\lv_mem.h ****         *d8 = *s8;
 5929              		.loc 5 218 5 view .LVU1881
 216:d:\_project\stm32\f407\hack_rf_new\lvgl\src\lv_misc\lv_mem.h **** 
 5930              		.loc 5 216 21 is_stmt 0 view .LVU1882
 5931 0082 6CA9     		add	r1, sp, #432
 5932              	.LVL614:
 215:d:\_project\stm32\f407\hack_rf_new\lvgl\src\lv_misc\lv_mem.h ****     const uint8_t * s8 = (const uint8_t *)src;
 5933              		.loc 5 215 15 view .LVU1883
 5934 0084 05AA     		add	r2, sp, #20
 5935              	.LVL615:
 215:d:\_project\stm32\f407\hack_rf_new\lvgl\src\lv_misc\lv_mem.h ****     const uint8_t * s8 = (const uint8_t *)src;
 5936              		.loc 5 215 15 view .LVU1884
 5937              	.LBE185:
 5938              	.LBE184:
 5939              	.LBE188:
 995:lvgl/src/lv_widgets/lv_canvas.c ****     lv_area_copy(&disp_buf.area, &mask);
 5940              		.loc 1 995 5 view .LVU1885
 5941 0086 0823     		movs	r3, #8
 5942 0088 04E0     		b	.L348
 5943              	.LVL616:
 5944              	.L349:
 5945              	.LBB189:
 5946              	.LBB187:
 5947              	.LBB186:
 219:d:\_project\stm32\f407\hack_rf_new\lvgl\src\lv_misc\lv_mem.h ****         d8++;
 5948              		.loc 5 219 9 is_stmt 1 view .LVU1886
 219:d:\_project\stm32\f407\hack_rf_new\lvgl\src\lv_misc\lv_mem.h ****         d8++;
 5949              		.loc 5 219 15 is_stmt 0 view .LVU1887
 5950 008a 11F8010B 		ldrb	r0, [r1], #1	@ zero_extendqisi2
 5951              	.LVL617:
 219:d:\_project\stm32\f407\hack_rf_new\lvgl\src\lv_misc\lv_mem.h ****         d8++;
 5952              		.loc 5 219 13 view .LVU1888
 5953 008e 02F8010B 		strb	r0, [r2], #1
 5954              	.LVL618:
 220:d:\_project\stm32\f407\hack_rf_new\lvgl\src\lv_misc\lv_mem.h ****         s8++;
 5955              		.loc 5 220 9 is_stmt 1 view .LVU1889
 221:d:\_project\stm32\f407\hack_rf_new\lvgl\src\lv_misc\lv_mem.h ****         len--;
 5956              		.loc 5 221 9 view .LVU1890
 222:d:\_project\stm32\f407\hack_rf_new\lvgl\src\lv_misc\lv_mem.h ****     }
 5957              		.loc 5 222 9 view .LVU1891
 222:d:\_project\stm32\f407\hack_rf_new\lvgl\src\lv_misc\lv_mem.h ****     }
 5958              		.loc 5 222 12 is_stmt 0 view .LVU1892
ARM GAS  D:\Temp\cc0vPyDE.s 			page 182


 5959 0092 013B     		subs	r3, r3, #1
 5960              	.LVL619:
 5961              	.L348:
 218:d:\_project\stm32\f407\hack_rf_new\lvgl\src\lv_misc\lv_mem.h ****         *d8 = *s8;
 5962              		.loc 5 218 10 view .LVU1893
 5963 0094 002B     		cmp	r3, #0
 5964 0096 F8D1     		bne	.L349
 5965              		.loc 5 225 5 is_stmt 1 view .LVU1894
 5966              	.LVL620:
 5967              		.loc 5 225 5 is_stmt 0 view .LVU1895
 5968              	.LBE186:
 5969              	.LBE187:
 5970              	.LBE189:
 998:lvgl/src/lv_widgets/lv_canvas.c **** 
 5971              		.loc 1 998 5 is_stmt 1 view .LVU1896
 5972 0098 0AA8     		add	r0, sp, #40
 5973 009a FFF7FEFF 		bl	lv_disp_drv_init
 5974              	.LVL621:
1000:lvgl/src/lv_widgets/lv_canvas.c ****     disp.driver.hor_res = dsc->header.w;
 5975              		.loc 1 1000 5 view .LVU1897
1000:lvgl/src/lv_widgets/lv_canvas.c ****     disp.driver.hor_res = dsc->header.w;
 5976              		.loc 1 1000 25 is_stmt 0 view .LVU1898
 5977 009e 01AB     		add	r3, sp, #4
 5978 00a0 0B93     		str	r3, [sp, #44]
1001:lvgl/src/lv_widgets/lv_canvas.c ****     disp.driver.ver_res = dsc->header.h;
 5979              		.loc 1 1001 5 is_stmt 1 view .LVU1899
1001:lvgl/src/lv_widgets/lv_canvas.c ****     disp.driver.ver_res = dsc->header.h;
 5980              		.loc 1 1001 38 is_stmt 0 view .LVU1900
 5981 00a2 2368     		ldr	r3, [r4]
 5982 00a4 C3F38A23 		ubfx	r3, r3, #10, #11
1001:lvgl/src/lv_widgets/lv_canvas.c ****     disp.driver.ver_res = dsc->header.h;
 5983              		.loc 1 1001 25 view .LVU1901
 5984 00a8 ADF82830 		strh	r3, [sp, #40]	@ movhi
1002:lvgl/src/lv_widgets/lv_canvas.c **** 
 5985              		.loc 1 1002 5 is_stmt 1 view .LVU1902
1002:lvgl/src/lv_widgets/lv_canvas.c **** 
 5986              		.loc 1 1002 38 is_stmt 0 view .LVU1903
 5987 00ac 6388     		ldrh	r3, [r4, #2]
 5988 00ae C3F34A13 		ubfx	r3, r3, #5, #11
1002:lvgl/src/lv_widgets/lv_canvas.c **** 
 5989              		.loc 1 1002 25 view .LVU1904
 5990 00b2 ADF82A30 		strh	r3, [sp, #42]	@ movhi
1004:lvgl/src/lv_widgets/lv_canvas.c **** 
 5991              		.loc 1 1004 5 is_stmt 1 view .LVU1905
1004:lvgl/src/lv_widgets/lv_canvas.c **** 
 5992              		.loc 1 1004 44 is_stmt 0 view .LVU1906
 5993 00b6 2178     		ldrb	r1, [r4]	@ zero_extendqisi2
1004:lvgl/src/lv_widgets/lv_canvas.c **** 
 5994              		.loc 1 1004 5 view .LVU1907
 5995 00b8 01F01F01 		and	r1, r1, #31
 5996 00bc 0AA8     		add	r0, sp, #40
 5997 00be FFF7FEFF 		bl	set_set_px_cb
 5998              	.LVL622:
1008:lvgl/src/lv_widgets/lv_canvas.c ****     if(dsc->header.cf == LV_IMG_CF_TRUE_COLOR_CHROMA_KEYED &&
 5999              		.loc 1 1008 5 is_stmt 1 view .LVU1908
1009:lvgl/src/lv_widgets/lv_canvas.c ****        poly_draw_dsc->bg_color.full == ctransp.full) {
 6000              		.loc 1 1009 5 view .LVU1909
ARM GAS  D:\Temp\cc0vPyDE.s 			page 183


1009:lvgl/src/lv_widgets/lv_canvas.c ****        poly_draw_dsc->bg_color.full == ctransp.full) {
 6001              		.loc 1 1009 23 is_stmt 0 view .LVU1910
 6002 00c2 2378     		ldrb	r3, [r4]	@ zero_extendqisi2
 6003 00c4 03F01F03 		and	r3, r3, #31
1009:lvgl/src/lv_widgets/lv_canvas.c ****        poly_draw_dsc->bg_color.full == ctransp.full) {
 6004              		.loc 1 1009 7 view .LVU1911
 6005 00c8 062B     		cmp	r3, #6
 6006 00ca 13D0     		beq	.L353
 6007              	.L350:
1015:lvgl/src/lv_widgets/lv_canvas.c ****     _lv_refr_set_disp_refreshing(&disp);
 6008              		.loc 1 1015 5 is_stmt 1 view .LVU1912
1015:lvgl/src/lv_widgets/lv_canvas.c ****     _lv_refr_set_disp_refreshing(&disp);
 6009              		.loc 1 1015 28 is_stmt 0 view .LVU1913
 6010 00cc FFF7FEFF 		bl	_lv_refr_get_disp_refreshing
 6011              	.LVL623:
 6012 00d0 0446     		mov	r4, r0
 6013              	.LVL624:
1016:lvgl/src/lv_widgets/lv_canvas.c **** 
 6014              		.loc 1 1016 5 is_stmt 1 view .LVU1914
 6015 00d2 0AA8     		add	r0, sp, #40
 6016              	.LVL625:
1016:lvgl/src/lv_widgets/lv_canvas.c **** 
 6017              		.loc 1 1016 5 is_stmt 0 view .LVU1915
 6018 00d4 FFF7FEFF 		bl	_lv_refr_set_disp_refreshing
 6019              	.LVL626:
1018:lvgl/src/lv_widgets/lv_canvas.c **** 
 6020              		.loc 1 1018 5 is_stmt 1 view .LVU1916
 6021 00d8 3346     		mov	r3, r6
 6022 00da 6CAA     		add	r2, sp, #432
 6023 00dc 1FFA88F1 		uxth	r1, r8
 6024 00e0 3846     		mov	r0, r7
 6025 00e2 FFF7FEFF 		bl	lv_draw_polygon
 6026              	.LVL627:
1020:lvgl/src/lv_widgets/lv_canvas.c **** 
 6027              		.loc 1 1020 5 view .LVU1917
 6028 00e6 2046     		mov	r0, r4
 6029 00e8 FFF7FEFF 		bl	_lv_refr_set_disp_refreshing
 6030              	.LVL628:
1022:lvgl/src/lv_widgets/lv_canvas.c **** }
 6031              		.loc 1 1022 5 view .LVU1918
 6032 00ec 2846     		mov	r0, r5
 6033 00ee FFF7FEFF 		bl	lv_obj_invalidate
 6034              	.LVL629:
 6035 00f2 A1E7     		b	.L343
 6036              	.LVL630:
 6037              	.L353:
1010:lvgl/src/lv_widgets/lv_canvas.c ****         disp.driver.antialiasing = 0;
 6038              		.loc 1 1010 31 is_stmt 0 discriminator 1 view .LVU1919
 6039 00f4 7288     		ldrh	r2, [r6, #2]
1010:lvgl/src/lv_widgets/lv_canvas.c ****         disp.driver.antialiasing = 0;
 6040              		.loc 1 1010 47 discriminator 1 view .LVU1920
 6041 00f6 4FF4FC63 		mov	r3, #2016
1009:lvgl/src/lv_widgets/lv_canvas.c ****        poly_draw_dsc->bg_color.full == ctransp.full) {
 6042              		.loc 1 1009 60 discriminator 1 view .LVU1921
 6043 00fa 9A42     		cmp	r2, r3
 6044 00fc E6D1     		bne	.L350
1011:lvgl/src/lv_widgets/lv_canvas.c ****     }
ARM GAS  D:\Temp\cc0vPyDE.s 			page 184


 6045              		.loc 1 1011 9 is_stmt 1 view .LVU1922
1011:lvgl/src/lv_widgets/lv_canvas.c ****     }
 6046              		.loc 1 1011 34 is_stmt 0 view .LVU1923
 6047 00fe 9DF83030 		ldrb	r3, [sp, #48]	@ zero_extendqisi2
 6048 0102 6FF30003 		bfc	r3, #0, #1
 6049 0106 8DF83030 		strb	r3, [sp, #48]
 6050 010a DFE7     		b	.L350
 6051              	.L355:
 6052              		.align	2
 6053              	.L354:
 6054 010c 00000000 		.word	.LC2
 6055              		.cfi_endproc
 6056              	.LFE473:
 6058              		.section	.text.lv_canvas_draw_arc,"ax",%progbits
 6059              		.align	1
 6060              		.global	lv_canvas_draw_arc
 6061              		.syntax unified
 6062              		.thumb
 6063              		.thumb_func
 6064              		.fpu fpv4-sp-d16
 6066              	lv_canvas_draw_arc:
 6067              	.LVL631:
 6068              	.LFB474:
1037:lvgl/src/lv_widgets/lv_canvas.c ****     LV_ASSERT_OBJ(canvas, LV_OBJX_NAME);
 6069              		.loc 1 1037 1 is_stmt 1 view -0
 6070              		.cfi_startproc
 6071              		@ args = 12, pretend = 0, frame = 440
 6072              		@ frame_needed = 0, uses_anonymous_args = 0
1037:lvgl/src/lv_widgets/lv_canvas.c ****     LV_ASSERT_OBJ(canvas, LV_OBJX_NAME);
 6073              		.loc 1 1037 1 is_stmt 0 view .LVU1925
 6074 0000 2DE9F047 		push	{r4, r5, r6, r7, r8, r9, r10, lr}
 6075              	.LCFI61:
 6076              		.cfi_def_cfa_offset 32
 6077              		.cfi_offset 4, -32
 6078              		.cfi_offset 5, -28
 6079              		.cfi_offset 6, -24
 6080              		.cfi_offset 7, -20
 6081              		.cfi_offset 8, -16
 6082              		.cfi_offset 9, -12
 6083              		.cfi_offset 10, -8
 6084              		.cfi_offset 14, -4
 6085 0004 F2B0     		sub	sp, sp, #456
 6086              	.LCFI62:
 6087              		.cfi_def_cfa_offset 488
 6088 0006 0546     		mov	r5, r0
 6089 0008 0F46     		mov	r7, r1
 6090 000a 9046     		mov	r8, r2
 6091 000c 9946     		mov	r9, r3
 6092 000e 7C9E     		ldr	r6, [sp, #496]
1038:lvgl/src/lv_widgets/lv_canvas.c **** 
 6093              		.loc 1 1038 5 is_stmt 1 view .LVU1926
1038:lvgl/src/lv_widgets/lv_canvas.c **** 
 6094              		.loc 1 1038 5 view .LVU1927
 6095 0010 FFF7FEFF 		bl	lv_debug_check_null
 6096              	.LVL632:
1038:lvgl/src/lv_widgets/lv_canvas.c **** 
 6097              		.loc 1 1038 5 is_stmt 0 view .LVU1928
ARM GAS  D:\Temp\cc0vPyDE.s 			page 185


 6098 0014 28B9     		cbnz	r0, .L357
1038:lvgl/src/lv_widgets/lv_canvas.c **** 
 6099              		.loc 1 1038 5 is_stmt 1 discriminator 1 view .LVU1929
1038:lvgl/src/lv_widgets/lv_canvas.c **** 
 6100              		.loc 1 1038 5 discriminator 1 view .LVU1930
 6101 0016 2A46     		mov	r2, r5
 6102 0018 0023     		movs	r3, #0
 6103 001a 4048     		ldr	r0, .L367
 6104 001c FFF7FEFF 		bl	lv_debug_log_error
 6105              	.LVL633:
 6106              	.L358:
1038:lvgl/src/lv_widgets/lv_canvas.c **** 
 6107              		.loc 1 1038 5 discriminator 1 view .LVU1931
1038:lvgl/src/lv_widgets/lv_canvas.c **** 
 6108              		.loc 1 1038 5 discriminator 1 view .LVU1932
 6109 0020 FEE7     		b	.L358
 6110              	.L357:
1038:lvgl/src/lv_widgets/lv_canvas.c **** 
 6111              		.loc 1 1038 40 discriminator 2 view .LVU1933
1040:lvgl/src/lv_widgets/lv_canvas.c **** 
 6112              		.loc 1 1040 5 discriminator 2 view .LVU1934
1040:lvgl/src/lv_widgets/lv_canvas.c **** 
 6113              		.loc 1 1040 26 is_stmt 0 discriminator 2 view .LVU1935
 6114 0022 2846     		mov	r0, r5
 6115 0024 FFF7FEFF 		bl	lv_canvas_get_img
 6116              	.LVL634:
 6117 0028 0446     		mov	r4, r0
 6118              	.LVL635:
1042:lvgl/src/lv_widgets/lv_canvas.c ****         LV_LOG_WARN("lv_canvas_draw_arc: can't draw to LV_IMG_CF_INDEXED canvas");
 6119              		.loc 1 1042 5 is_stmt 1 discriminator 2 view .LVU1936
1042:lvgl/src/lv_widgets/lv_canvas.c ****         LV_LOG_WARN("lv_canvas_draw_arc: can't draw to LV_IMG_CF_INDEXED canvas");
 6120              		.loc 1 1042 19 is_stmt 0 discriminator 2 view .LVU1937
 6121 002a 0378     		ldrb	r3, [r0]	@ zero_extendqisi2
 6122 002c 03F01F03 		and	r3, r3, #31
1042:lvgl/src/lv_widgets/lv_canvas.c ****         LV_LOG_WARN("lv_canvas_draw_arc: can't draw to LV_IMG_CF_INDEXED canvas");
 6123              		.loc 1 1042 49 discriminator 2 view .LVU1938
 6124 0030 1933     		adds	r3, r3, #25
 6125 0032 03F01F03 		and	r3, r3, #31
1042:lvgl/src/lv_widgets/lv_canvas.c ****         LV_LOG_WARN("lv_canvas_draw_arc: can't draw to LV_IMG_CF_INDEXED canvas");
 6126              		.loc 1 1042 7 discriminator 2 view .LVU1939
 6127 0036 032B     		cmp	r3, #3
 6128 0038 02D8     		bhi	.L365
 6129              	.LVL636:
 6130              	.L356:
1087:lvgl/src/lv_widgets/lv_canvas.c **** 
 6131              		.loc 1 1087 1 view .LVU1940
 6132 003a 72B0     		add	sp, sp, #456
 6133              	.LCFI63:
 6134              		.cfi_remember_state
 6135              		.cfi_def_cfa_offset 32
 6136              		@ sp needed
 6137 003c BDE8F087 		pop	{r4, r5, r6, r7, r8, r9, r10, pc}
 6138              	.LVL637:
 6139              	.L365:
 6140              	.LCFI64:
 6141              		.cfi_restore_state
1049:lvgl/src/lv_widgets/lv_canvas.c ****     mask.x1 = 0;
ARM GAS  D:\Temp\cc0vPyDE.s 			page 186


 6142              		.loc 1 1049 5 is_stmt 1 view .LVU1941
1050:lvgl/src/lv_widgets/lv_canvas.c ****     mask.x2 = dsc->header.w - 1;
 6143              		.loc 1 1050 5 view .LVU1942
1050:lvgl/src/lv_widgets/lv_canvas.c ****     mask.x2 = dsc->header.w - 1;
 6144              		.loc 1 1050 13 is_stmt 0 view .LVU1943
 6145 0040 4FF0000A 		mov	r10, #0
 6146 0044 ADF8C0A1 		strh	r10, [sp, #448]	@ movhi
1051:lvgl/src/lv_widgets/lv_canvas.c ****     mask.y1 = 0;
 6147              		.loc 1 1051 5 is_stmt 1 view .LVU1944
1051:lvgl/src/lv_widgets/lv_canvas.c ****     mask.y1 = 0;
 6148              		.loc 1 1051 26 is_stmt 0 view .LVU1945
 6149 0048 0368     		ldr	r3, [r0]
 6150 004a C3F38A23 		ubfx	r3, r3, #10, #11
1051:lvgl/src/lv_widgets/lv_canvas.c ****     mask.y1 = 0;
 6151              		.loc 1 1051 29 view .LVU1946
 6152 004e 013B     		subs	r3, r3, #1
1051:lvgl/src/lv_widgets/lv_canvas.c ****     mask.y1 = 0;
 6153              		.loc 1 1051 13 view .LVU1947
 6154 0050 ADF8C431 		strh	r3, [sp, #452]	@ movhi
1052:lvgl/src/lv_widgets/lv_canvas.c ****     mask.y2 = dsc->header.h - 1;
 6155              		.loc 1 1052 5 is_stmt 1 view .LVU1948
1052:lvgl/src/lv_widgets/lv_canvas.c ****     mask.y2 = dsc->header.h - 1;
 6156              		.loc 1 1052 13 is_stmt 0 view .LVU1949
 6157 0054 ADF8C2A1 		strh	r10, [sp, #450]	@ movhi
1053:lvgl/src/lv_widgets/lv_canvas.c **** 
 6158              		.loc 1 1053 5 is_stmt 1 view .LVU1950
1053:lvgl/src/lv_widgets/lv_canvas.c **** 
 6159              		.loc 1 1053 26 is_stmt 0 view .LVU1951
 6160 0058 4388     		ldrh	r3, [r0, #2]
 6161 005a 5B09     		lsrs	r3, r3, #5
1053:lvgl/src/lv_widgets/lv_canvas.c **** 
 6162              		.loc 1 1053 29 view .LVU1952
 6163 005c 013B     		subs	r3, r3, #1
1053:lvgl/src/lv_widgets/lv_canvas.c **** 
 6164              		.loc 1 1053 13 view .LVU1953
 6165 005e ADF8C631 		strh	r3, [sp, #454]	@ movhi
1055:lvgl/src/lv_widgets/lv_canvas.c ****     _lv_memset_00(&disp, sizeof(lv_disp_t));
 6166              		.loc 1 1055 5 is_stmt 1 view .LVU1954
1056:lvgl/src/lv_widgets/lv_canvas.c **** 
 6167              		.loc 1 1056 5 view .LVU1955
 6168 0062 4FF4C471 		mov	r1, #392
 6169 0066 0EA8     		add	r0, sp, #56
 6170              	.LVL638:
1056:lvgl/src/lv_widgets/lv_canvas.c **** 
 6171              		.loc 1 1056 5 is_stmt 0 view .LVU1956
 6172 0068 FFF7FEFF 		bl	_lv_memset_00
 6173              	.LVL639:
1058:lvgl/src/lv_widgets/lv_canvas.c ****     lv_disp_buf_init(&disp_buf, (void *)dsc->data, NULL, dsc->header.w * dsc->header.h);
 6174              		.loc 1 1058 5 is_stmt 1 view .LVU1957
1059:lvgl/src/lv_widgets/lv_canvas.c ****     lv_area_copy(&disp_buf.area, &mask);
 6175              		.loc 1 1059 5 view .LVU1958
1059:lvgl/src/lv_widgets/lv_canvas.c ****     lv_area_copy(&disp_buf.area, &mask);
 6176              		.loc 1 1059 69 is_stmt 0 view .LVU1959
 6177 006c 2368     		ldr	r3, [r4]
 6178 006e C3F38A23 		ubfx	r3, r3, #10, #11
1059:lvgl/src/lv_widgets/lv_canvas.c ****     lv_area_copy(&disp_buf.area, &mask);
 6179              		.loc 1 1059 85 view .LVU1960
ARM GAS  D:\Temp\cc0vPyDE.s 			page 187


 6180 0072 6288     		ldrh	r2, [r4, #2]
 6181 0074 5209     		lsrs	r2, r2, #5
1059:lvgl/src/lv_widgets/lv_canvas.c ****     lv_area_copy(&disp_buf.area, &mask);
 6182              		.loc 1 1059 5 view .LVU1961
 6183 0076 02FB03F3 		mul	r3, r2, r3
 6184 007a 5246     		mov	r2, r10
 6185 007c A168     		ldr	r1, [r4, #8]
 6186 007e 05A8     		add	r0, sp, #20
 6187 0080 FFF7FEFF 		bl	lv_disp_buf_init
 6188              	.LVL640:
1060:lvgl/src/lv_widgets/lv_canvas.c **** 
 6189              		.loc 1 1060 5 is_stmt 1 view .LVU1962
 6190              	.LBB190:
 6191              	.LBI190:
  97:d:\_project\stm32\f407\hack_rf_new\lvgl\src\lv_misc\lv_area.h **** {
 6192              		.loc 6 97 20 view .LVU1963
 6193              	.LBE190:
 6194              		.loc 6 99 5 view .LVU1964
 6195              	.LBB195:
 6196              	.LBB191:
 6197              	.LBI191:
 213:d:\_project\stm32\f407\hack_rf_new\lvgl\src\lv_misc\lv_mem.h **** {
 6198              		.loc 5 213 44 view .LVU1965
 6199              	.LBB192:
 215:d:\_project\stm32\f407\hack_rf_new\lvgl\src\lv_misc\lv_mem.h ****     const uint8_t * s8 = (const uint8_t *)src;
 6200              		.loc 5 215 5 view .LVU1966
 216:d:\_project\stm32\f407\hack_rf_new\lvgl\src\lv_misc\lv_mem.h **** 
 6201              		.loc 5 216 5 view .LVU1967
 218:d:\_project\stm32\f407\hack_rf_new\lvgl\src\lv_misc\lv_mem.h ****         *d8 = *s8;
 6202              		.loc 5 218 5 view .LVU1968
 216:d:\_project\stm32\f407\hack_rf_new\lvgl\src\lv_misc\lv_mem.h **** 
 6203              		.loc 5 216 21 is_stmt 0 view .LVU1969
 6204 0084 70A9     		add	r1, sp, #448
 6205              	.LVL641:
 215:d:\_project\stm32\f407\hack_rf_new\lvgl\src\lv_misc\lv_mem.h ****     const uint8_t * s8 = (const uint8_t *)src;
 6206              		.loc 5 215 15 view .LVU1970
 6207 0086 09AA     		add	r2, sp, #36
 6208              	.LVL642:
 215:d:\_project\stm32\f407\hack_rf_new\lvgl\src\lv_misc\lv_mem.h ****     const uint8_t * s8 = (const uint8_t *)src;
 6209              		.loc 5 215 15 view .LVU1971
 6210              	.LBE192:
 6211              	.LBE191:
 6212              	.LBE195:
1059:lvgl/src/lv_widgets/lv_canvas.c ****     lv_area_copy(&disp_buf.area, &mask);
 6213              		.loc 1 1059 5 view .LVU1972
 6214 0088 0823     		movs	r3, #8
 6215 008a 04E0     		b	.L361
 6216              	.LVL643:
 6217              	.L362:
 6218              	.LBB196:
 6219              	.LBB194:
 6220              	.LBB193:
 219:d:\_project\stm32\f407\hack_rf_new\lvgl\src\lv_misc\lv_mem.h ****         d8++;
 6221              		.loc 5 219 9 is_stmt 1 view .LVU1973
 219:d:\_project\stm32\f407\hack_rf_new\lvgl\src\lv_misc\lv_mem.h ****         d8++;
 6222              		.loc 5 219 15 is_stmt 0 view .LVU1974
 6223 008c 11F8010B 		ldrb	r0, [r1], #1	@ zero_extendqisi2
ARM GAS  D:\Temp\cc0vPyDE.s 			page 188


 6224              	.LVL644:
 219:d:\_project\stm32\f407\hack_rf_new\lvgl\src\lv_misc\lv_mem.h ****         d8++;
 6225              		.loc 5 219 13 view .LVU1975
 6226 0090 02F8010B 		strb	r0, [r2], #1
 6227              	.LVL645:
 220:d:\_project\stm32\f407\hack_rf_new\lvgl\src\lv_misc\lv_mem.h ****         s8++;
 6228              		.loc 5 220 9 is_stmt 1 view .LVU1976
 221:d:\_project\stm32\f407\hack_rf_new\lvgl\src\lv_misc\lv_mem.h ****         len--;
 6229              		.loc 5 221 9 view .LVU1977
 222:d:\_project\stm32\f407\hack_rf_new\lvgl\src\lv_misc\lv_mem.h ****     }
 6230              		.loc 5 222 9 view .LVU1978
 222:d:\_project\stm32\f407\hack_rf_new\lvgl\src\lv_misc\lv_mem.h ****     }
 6231              		.loc 5 222 12 is_stmt 0 view .LVU1979
 6232 0094 013B     		subs	r3, r3, #1
 6233              	.LVL646:
 6234              	.L361:
 218:d:\_project\stm32\f407\hack_rf_new\lvgl\src\lv_misc\lv_mem.h ****         *d8 = *s8;
 6235              		.loc 5 218 10 view .LVU1980
 6236 0096 002B     		cmp	r3, #0
 6237 0098 F8D1     		bne	.L362
 6238              		.loc 5 225 5 is_stmt 1 view .LVU1981
 6239              	.LVL647:
 6240              		.loc 5 225 5 is_stmt 0 view .LVU1982
 6241              	.LBE193:
 6242              	.LBE194:
 6243              	.LBE196:
1062:lvgl/src/lv_widgets/lv_canvas.c **** 
 6244              		.loc 1 1062 5 is_stmt 1 view .LVU1983
 6245 009a 0EA8     		add	r0, sp, #56
 6246 009c FFF7FEFF 		bl	lv_disp_drv_init
 6247              	.LVL648:
1064:lvgl/src/lv_widgets/lv_canvas.c ****     disp.driver.hor_res = dsc->header.w;
 6248              		.loc 1 1064 5 view .LVU1984
1064:lvgl/src/lv_widgets/lv_canvas.c ****     disp.driver.hor_res = dsc->header.w;
 6249              		.loc 1 1064 25 is_stmt 0 view .LVU1985
 6250 00a0 05AB     		add	r3, sp, #20
 6251 00a2 0F93     		str	r3, [sp, #60]
1065:lvgl/src/lv_widgets/lv_canvas.c ****     disp.driver.ver_res = dsc->header.h;
 6252              		.loc 1 1065 5 is_stmt 1 view .LVU1986
1065:lvgl/src/lv_widgets/lv_canvas.c ****     disp.driver.ver_res = dsc->header.h;
 6253              		.loc 1 1065 38 is_stmt 0 view .LVU1987
 6254 00a4 2368     		ldr	r3, [r4]
 6255 00a6 C3F38A23 		ubfx	r3, r3, #10, #11
1065:lvgl/src/lv_widgets/lv_canvas.c ****     disp.driver.ver_res = dsc->header.h;
 6256              		.loc 1 1065 25 view .LVU1988
 6257 00aa ADF83830 		strh	r3, [sp, #56]	@ movhi
1066:lvgl/src/lv_widgets/lv_canvas.c **** 
 6258              		.loc 1 1066 5 is_stmt 1 view .LVU1989
1066:lvgl/src/lv_widgets/lv_canvas.c **** 
 6259              		.loc 1 1066 38 is_stmt 0 view .LVU1990
 6260 00ae 6388     		ldrh	r3, [r4, #2]
 6261 00b0 C3F34A13 		ubfx	r3, r3, #5, #11
1066:lvgl/src/lv_widgets/lv_canvas.c **** 
 6262              		.loc 1 1066 25 view .LVU1991
 6263 00b4 ADF83A30 		strh	r3, [sp, #58]	@ movhi
1068:lvgl/src/lv_widgets/lv_canvas.c **** 
 6264              		.loc 1 1068 5 is_stmt 1 view .LVU1992
ARM GAS  D:\Temp\cc0vPyDE.s 			page 189


1068:lvgl/src/lv_widgets/lv_canvas.c **** 
 6265              		.loc 1 1068 44 is_stmt 0 view .LVU1993
 6266 00b8 2178     		ldrb	r1, [r4]	@ zero_extendqisi2
1068:lvgl/src/lv_widgets/lv_canvas.c **** 
 6267              		.loc 1 1068 5 view .LVU1994
 6268 00ba 01F01F01 		and	r1, r1, #31
 6269 00be 0EA8     		add	r0, sp, #56
 6270 00c0 FFF7FEFF 		bl	set_set_px_cb
 6271              	.LVL649:
1072:lvgl/src/lv_widgets/lv_canvas.c ****     if(dsc->header.cf == LV_IMG_CF_TRUE_COLOR_CHROMA_KEYED &&
 6272              		.loc 1 1072 5 is_stmt 1 view .LVU1995
1073:lvgl/src/lv_widgets/lv_canvas.c ****        arc_draw_dsc->color.full == ctransp.full) {
 6273              		.loc 1 1073 5 view .LVU1996
1073:lvgl/src/lv_widgets/lv_canvas.c ****        arc_draw_dsc->color.full == ctransp.full) {
 6274              		.loc 1 1073 23 is_stmt 0 view .LVU1997
 6275 00c4 2378     		ldrb	r3, [r4]	@ zero_extendqisi2
 6276 00c6 03F01F03 		and	r3, r3, #31
1073:lvgl/src/lv_widgets/lv_canvas.c ****        arc_draw_dsc->color.full == ctransp.full) {
 6277              		.loc 1 1073 7 view .LVU1998
 6278 00ca 062B     		cmp	r3, #6
 6279 00cc 1AD0     		beq	.L366
 6280              	.L363:
1079:lvgl/src/lv_widgets/lv_canvas.c ****     _lv_refr_set_disp_refreshing(&disp);
 6281              		.loc 1 1079 5 is_stmt 1 view .LVU1999
1079:lvgl/src/lv_widgets/lv_canvas.c ****     _lv_refr_set_disp_refreshing(&disp);
 6282              		.loc 1 1079 28 is_stmt 0 view .LVU2000
 6283 00ce FFF7FEFF 		bl	_lv_refr_get_disp_refreshing
 6284              	.LVL650:
 6285 00d2 0446     		mov	r4, r0
 6286              	.LVL651:
1080:lvgl/src/lv_widgets/lv_canvas.c **** 
 6287              		.loc 1 1080 5 is_stmt 1 view .LVU2001
 6288 00d4 0EA8     		add	r0, sp, #56
 6289              	.LVL652:
1080:lvgl/src/lv_widgets/lv_canvas.c **** 
 6290              		.loc 1 1080 5 is_stmt 0 view .LVU2002
 6291 00d6 FFF7FEFF 		bl	_lv_refr_set_disp_refreshing
 6292              	.LVL653:
1082:lvgl/src/lv_widgets/lv_canvas.c **** 
 6293              		.loc 1 1082 5 is_stmt 1 view .LVU2003
 6294 00da 0296     		str	r6, [sp, #8]
 6295 00dc 70AB     		add	r3, sp, #448
 6296 00de 0193     		str	r3, [sp, #4]
 6297 00e0 BDF8EC31 		ldrh	r3, [sp, #492]
 6298 00e4 0093     		str	r3, [sp]
 6299 00e6 BDF8E831 		ldrh	r3, [sp, #488]
 6300 00ea 1FFA89F2 		uxth	r2, r9
 6301 00ee 4146     		mov	r1, r8
 6302 00f0 3846     		mov	r0, r7
 6303 00f2 FFF7FEFF 		bl	lv_draw_arc
 6304              	.LVL654:
1084:lvgl/src/lv_widgets/lv_canvas.c **** 
 6305              		.loc 1 1084 5 view .LVU2004
 6306 00f6 2046     		mov	r0, r4
 6307 00f8 FFF7FEFF 		bl	_lv_refr_set_disp_refreshing
 6308              	.LVL655:
1086:lvgl/src/lv_widgets/lv_canvas.c **** }
ARM GAS  D:\Temp\cc0vPyDE.s 			page 190


 6309              		.loc 1 1086 5 view .LVU2005
 6310 00fc 2846     		mov	r0, r5
 6311 00fe FFF7FEFF 		bl	lv_obj_invalidate
 6312              	.LVL656:
 6313 0102 9AE7     		b	.L356
 6314              	.LVL657:
 6315              	.L366:
1074:lvgl/src/lv_widgets/lv_canvas.c ****         disp.driver.antialiasing = 0;
 6316              		.loc 1 1074 27 is_stmt 0 discriminator 1 view .LVU2006
 6317 0104 3288     		ldrh	r2, [r6]
1074:lvgl/src/lv_widgets/lv_canvas.c ****         disp.driver.antialiasing = 0;
 6318              		.loc 1 1074 43 discriminator 1 view .LVU2007
 6319 0106 4FF4FC63 		mov	r3, #2016
1073:lvgl/src/lv_widgets/lv_canvas.c ****        arc_draw_dsc->color.full == ctransp.full) {
 6320              		.loc 1 1073 60 discriminator 1 view .LVU2008
 6321 010a 9A42     		cmp	r2, r3
 6322 010c DFD1     		bne	.L363
1075:lvgl/src/lv_widgets/lv_canvas.c ****     }
 6323              		.loc 1 1075 9 is_stmt 1 view .LVU2009
1075:lvgl/src/lv_widgets/lv_canvas.c ****     }
 6324              		.loc 1 1075 34 is_stmt 0 view .LVU2010
 6325 010e 9DF84030 		ldrb	r3, [sp, #64]	@ zero_extendqisi2
 6326 0112 6FF30003 		bfc	r3, #0, #1
 6327 0116 8DF84030 		strb	r3, [sp, #64]
 6328 011a D8E7     		b	.L363
 6329              	.L368:
 6330              		.align	2
 6331              	.L367:
 6332 011c 00000000 		.word	.LC2
 6333              		.cfi_endproc
 6334              	.LFE474:
 6336              		.section	.bss.ancestor_design,"aw",%nobits
 6337              		.align	2
 6338              		.set	.LANCHOR7,. + 0
 6341              	ancestor_design:
 6342 0000 00000000 		.space	4
 6343              		.section	.bss.ancestor_signal,"aw",%nobits
 6344              		.align	2
 6345              		.set	.LANCHOR0,. + 0
 6348              	ancestor_signal:
 6349 0000 00000000 		.space	4
 6350              		.section	.bss.bg_color_save.9739,"aw",%nobits
 6351              		.align	2
 6352              		.set	.LANCHOR4,. + 0
 6355              	bg_color_save.9739:
 6356 0000 0000     		.space	2
 6357              		.section	.bss.bg_opa_save.9737,"aw",%nobits
 6358              		.set	.LANCHOR2,. + 0
 6361              	bg_opa_save.9737:
 6362 0000 00       		.space	1
 6363              		.section	.bss.fg_color_save.9738,"aw",%nobits
 6364              		.align	2
 6365              		.set	.LANCHOR3,. + 0
 6368              	fg_color_save.9738:
 6369 0000 0000     		.space	2
 6370              		.section	.bss.fg_opa_save.9736,"aw",%nobits
 6371              		.set	.LANCHOR1,. + 0
ARM GAS  D:\Temp\cc0vPyDE.s 			page 191


 6374              	fg_opa_save.9736:
 6375 0000 00       		.space	1
 6376              		.section	.bss.res_color_saved.9740,"aw",%nobits
 6377              		.align	2
 6378              		.set	.LANCHOR6,. + 0
 6381              	res_color_saved.9740:
 6382 0000 0000     		.space	2
 6383              		.section	.bss.res_opa_saved.9741,"aw",%nobits
 6384              		.set	.LANCHOR5,. + 0
 6387              	res_opa_saved.9741:
 6388 0000 00       		.space	1
 6389              		.section	.rodata.lv_canvas_create.str1.4,"aMS",%progbits,1
 6390              		.align	2
 6391              	.LC1:
 6392 0000 4F757420 		.ascii	"Out of memory\000"
 6392      6F66206D 
 6392      656D6F72 
 6392      7900
 6393              		.section	.rodata.lv_canvas_set_buffer.str1.4,"aMS",%progbits,1
 6394              		.align	2
 6395              	.LC2:
 6396 0000 4E554C4C 		.ascii	"NULL pointer\000"
 6396      20706F69 
 6396      6E746572 
 6396      00
 6397              		.section	.rodata.lv_canvas_signal.str1.4,"aMS",%progbits,1
 6398              		.align	2
 6399              	.LC0:
 6400 0000 6C765F63 		.ascii	"lv_canvas\000"
 6400      616E7661 
 6400      7300
 6401              		.text
 6402              	.Letext0:
 6403              		.file 7 "c:\\stm32\\gnu mcu eclipse\\arm embedded gcc\\8.2.1-1.4-20190214-0604\\lib\\gcc\\arm-none
 6404              		.file 8 "c:\\stm32\\gnu mcu eclipse\\arm embedded gcc\\8.2.1-1.4-20190214-0604\\arm-none-eabi\\inc
 6405              		.file 9 "c:\\stm32\\gnu mcu eclipse\\arm embedded gcc\\8.2.1-1.4-20190214-0604\\arm-none-eabi\\inc
 6406              		.file 10 "c:\\stm32\\gnu mcu eclipse\\arm embedded gcc\\8.2.1-1.4-20190214-0604\\arm-none-eabi\\in
 6407              		.file 11 "c:\\stm32\\gnu mcu eclipse\\arm embedded gcc\\8.2.1-1.4-20190214-0604\\arm-none-eabi\\in
 6408              		.file 12 "c:\\stm32\\gnu mcu eclipse\\arm embedded gcc\\8.2.1-1.4-20190214-0604\\arm-none-eabi\\in
 6409              		.file 13 "c:\\stm32\\gnu mcu eclipse\\arm embedded gcc\\8.2.1-1.4-20190214-0604\\arm-none-eabi\\in
 6410              		.file 14 "Drivers/CMSIS/Include/core_cm4.h"
 6411              		.file 15 "Drivers/CMSIS/Device/ST/STM32F4xx/Include/system_stm32f4xx.h"
 6412              		.file 16 "Drivers/STM32F4xx_HAL_Driver/Inc/stm32f4xx_hal.h"
 6413              		.file 17 "lvgl/lv_conf.h"
 6414              		.file 18 "d:\\_project\\stm32\\f407\\hack_rf_new\\lvgl\\src\\lv_misc\\lv_types.h"
 6415              		.file 19 "lvgl/src/lv_widgets/../lv_core/../lv_font/lv_font.h"
 6416              		.file 20 "lvgl/src/lv_widgets/../lv_core/../lv_misc/lv_anim.h"
 6417              		.file 21 "lvgl/src/lv_widgets/../lv_core/../lv_draw/lv_draw_blend.h"
 6418              		.file 22 "lvgl/src/lv_widgets/../lv_core/lv_style.h"
 6419              		.file 23 "lvgl/src/lv_widgets/../lv_core/../lv_hal/../lv_misc/lv_ll.h"
 6420              		.file 24 "lvgl/src/lv_widgets/../lv_core/../lv_hal/../lv_misc/lv_task.h"
 6421              		.file 25 "lvgl/src/lv_widgets/../lv_core/../lv_hal/lv_hal_disp.h"
 6422              		.file 26 "lvgl/src/lv_widgets/../lv_core/lv_obj.h"
 6423              		.file 27 "lvgl/src/lv_widgets/../lv_core/../lv_hal/lv_hal_indev.h"
 6424              		.file 28 "lvgl/src/lv_widgets/../lv_core/../lv_draw/lv_draw_rect.h"
 6425              		.file 29 "d:\\_project\\stm32\\f407\\hack_rf_new\\lvgl\\src\\lv_misc\\lv_bidi.h"
 6426              		.file 30 "d:\\_project\\stm32\\f407\\hack_rf_new\\lvgl\\src\\lv_misc\\lv_txt.h"
ARM GAS  D:\Temp\cc0vPyDE.s 			page 192


 6427              		.file 31 "lvgl/src/lv_widgets/../lv_core/../lv_draw/lv_draw_label.h"
 6428              		.file 32 "lvgl/src/lv_widgets/../lv_core/../lv_draw/lv_draw_line.h"
 6429              		.file 33 "lvgl/src/lv_widgets/../lv_core/../lv_draw/lv_draw_img.h"
 6430              		.file 34 "lvgl/src/lv_widgets/../lv_widgets/lv_label.h"
 6431              		.file 35 "lvgl/src/lv_widgets/../lv_widgets/lv_img.h"
 6432              		.file 36 "lvgl/src/lv_widgets/lv_canvas.h"
 6433              		.file 37 "lvgl/src/lv_widgets/../lv_themes/lv_theme.h"
 6434              		.file 38 "lvgl/src/lv_widgets/../lv_core/../lv_misc/lv_debug.h"
 6435              		.file 39 "lvgl/src/lv_widgets/../lv_core/lv_refr.h"
 6436              		.file 40 "lvgl/src/lv_widgets/../lv_widgets/../lv_draw/lv_draw_arc.h"
 6437              		.file 41 "lvgl/src/lv_widgets/../lv_widgets/../lv_draw/lv_draw_triangle.h"
 6438              		.file 42 "lvgl/src/lv_widgets/../lv_core/../lv_draw/lv_img_decoder.h"
ARM GAS  D:\Temp\cc0vPyDE.s 			page 193


DEFINED SYMBOLS
                            *ABS*:0000000000000000 lv_canvas.c
  D:\Temp\cc0vPyDE.s:18     .text.set_set_px_cb:0000000000000000 $t
  D:\Temp\cc0vPyDE.s:25     .text.set_set_px_cb:0000000000000000 set_set_px_cb
  D:\Temp\cc0vPyDE.s:42     .text.set_set_px_cb:000000000000000a $d
  D:\Temp\cc0vPyDE.s:52     .text.set_set_px_cb:0000000000000014 $t
  D:\Temp\cc0vPyDE.s:98     .text.set_set_px_cb:0000000000000038 $d
  D:\Temp\cc0vPyDE.s:650    .text.set_px_true_color_alpha:0000000000000000 set_px_true_color_alpha
  D:\Temp\cc0vPyDE.s:570    .text.set_px_cb_alpha1:0000000000000000 set_px_cb_alpha1
  D:\Temp\cc0vPyDE.s:490    .text.set_px_cb_alpha2:0000000000000000 set_px_cb_alpha2
  D:\Temp\cc0vPyDE.s:410    .text.set_px_cb_alpha4:0000000000000000 set_px_cb_alpha4
  D:\Temp\cc0vPyDE.s:330    .text.set_px_cb_alpha8:0000000000000000 set_px_cb_alpha8
  D:\Temp\cc0vPyDE.s:107    .text.lv_canvas_signal:0000000000000000 $t
  D:\Temp\cc0vPyDE.s:113    .text.lv_canvas_signal:0000000000000000 lv_canvas_signal
  D:\Temp\cc0vPyDE.s:163    .text.lv_canvas_signal:0000000000000020 $d
  D:\Temp\cc0vPyDE.s:169    .text.set_px_alpha_generic:0000000000000000 $t
  D:\Temp\cc0vPyDE.s:175    .text.set_px_alpha_generic:0000000000000000 set_px_alpha_generic
  D:\Temp\cc0vPyDE.s:324    .text.set_px_cb_alpha8:0000000000000000 $t
  D:\Temp\cc0vPyDE.s:404    .text.set_px_cb_alpha4:0000000000000000 $t
  D:\Temp\cc0vPyDE.s:484    .text.set_px_cb_alpha2:0000000000000000 $t
  D:\Temp\cc0vPyDE.s:564    .text.set_px_cb_alpha1:0000000000000000 $t
  D:\Temp\cc0vPyDE.s:644    .text.set_px_true_color_alpha:0000000000000000 $t
  D:\Temp\cc0vPyDE.s:1045   .text.set_px_true_color_alpha:0000000000000200 $d
  D:\Temp\cc0vPyDE.s:1058   .text.lv_canvas_create:0000000000000000 $t
  D:\Temp\cc0vPyDE.s:1065   .text.lv_canvas_create:0000000000000000 lv_canvas_create
  D:\Temp\cc0vPyDE.s:1249   .text.lv_canvas_create:00000000000000bc $d
  D:\Temp\cc0vPyDE.s:1257   .text.lv_canvas_set_buffer:0000000000000000 $t
  D:\Temp\cc0vPyDE.s:1264   .text.lv_canvas_set_buffer:0000000000000000 lv_canvas_set_buffer
  D:\Temp\cc0vPyDE.s:1364   .text.lv_canvas_set_buffer:0000000000000064 $d
  D:\Temp\cc0vPyDE.s:1369   .text.lv_canvas_set_px:0000000000000000 $t
  D:\Temp\cc0vPyDE.s:1376   .text.lv_canvas_set_px:0000000000000000 lv_canvas_set_px
  D:\Temp\cc0vPyDE.s:1442   .text.lv_canvas_set_px:0000000000000038 $d
  D:\Temp\cc0vPyDE.s:1447   .text.lv_canvas_set_palette:0000000000000000 $t
  D:\Temp\cc0vPyDE.s:1454   .text.lv_canvas_set_palette:0000000000000000 lv_canvas_set_palette
  D:\Temp\cc0vPyDE.s:1516   .text.lv_canvas_set_palette:0000000000000034 $d
  D:\Temp\cc0vPyDE.s:1521   .text.lv_canvas_get_px:0000000000000000 $t
  D:\Temp\cc0vPyDE.s:1528   .text.lv_canvas_get_px:0000000000000000 lv_canvas_get_px
  D:\Temp\cc0vPyDE.s:1606   .text.lv_canvas_get_px:0000000000000040 $d
  D:\Temp\cc0vPyDE.s:1611   .text.lv_canvas_get_img:0000000000000000 $t
  D:\Temp\cc0vPyDE.s:1618   .text.lv_canvas_get_img:0000000000000000 lv_canvas_get_img
  D:\Temp\cc0vPyDE.s:1667   .text.lv_canvas_get_img:0000000000000020 $d
  D:\Temp\cc0vPyDE.s:1672   .text.lv_canvas_copy_buf:0000000000000000 $t
  D:\Temp\cc0vPyDE.s:1679   .text.lv_canvas_copy_buf:0000000000000000 lv_canvas_copy_buf
  D:\Temp\cc0vPyDE.s:1839   .text.lv_canvas_copy_buf:00000000000000a8 $d
  D:\Temp\cc0vPyDE.s:1844   .text.lv_canvas_transform:0000000000000000 $t
  D:\Temp\cc0vPyDE.s:1851   .text.lv_canvas_transform:0000000000000000 lv_canvas_transform
  D:\Temp\cc0vPyDE.s:2534   .text.lv_canvas_transform:00000000000002c0 $d
  D:\Temp\cc0vPyDE.s:2539   .text.lv_canvas_transform:00000000000002c4 $t
  D:\Temp\cc0vPyDE.s:2896   .text.lv_canvas_blur_hor:0000000000000000 $t
  D:\Temp\cc0vPyDE.s:2903   .text.lv_canvas_blur_hor:0000000000000000 lv_canvas_blur_hor
  D:\Temp\cc0vPyDE.s:3619   .text.lv_canvas_blur_hor:0000000000000318 $d
  D:\Temp\cc0vPyDE.s:3625   .text.lv_canvas_blur_hor:000000000000031c $t
  D:\Temp\cc0vPyDE.s:3637   .text.lv_canvas_blur_ver:0000000000000000 $t
  D:\Temp\cc0vPyDE.s:3644   .text.lv_canvas_blur_ver:0000000000000000 lv_canvas_blur_ver
  D:\Temp\cc0vPyDE.s:4336   .text.lv_canvas_blur_ver:000000000000030c $d
  D:\Temp\cc0vPyDE.s:4342   .text.lv_canvas_blur_ver:0000000000000310 $t
  D:\Temp\cc0vPyDE.s:4402   .text.lv_canvas_fill_bg:0000000000000000 $t
ARM GAS  D:\Temp\cc0vPyDE.s 			page 194


  D:\Temp\cc0vPyDE.s:4409   .text.lv_canvas_fill_bg:0000000000000000 lv_canvas_fill_bg
  D:\Temp\cc0vPyDE.s:4606   .text.lv_canvas_fill_bg:00000000000000c8 $d
  D:\Temp\cc0vPyDE.s:4612   .text.lv_canvas_draw_rect:0000000000000000 $t
  D:\Temp\cc0vPyDE.s:4619   .text.lv_canvas_draw_rect:0000000000000000 lv_canvas_draw_rect
  D:\Temp\cc0vPyDE.s:4904   .text.lv_canvas_draw_rect:000000000000012c $d
  D:\Temp\cc0vPyDE.s:4909   .text.lv_canvas_draw_text:0000000000000000 $t
  D:\Temp\cc0vPyDE.s:4916   .text.lv_canvas_draw_text:0000000000000000 lv_canvas_draw_text
  D:\Temp\cc0vPyDE.s:5205   .text.lv_canvas_draw_text:000000000000012c $d
  D:\Temp\cc0vPyDE.s:5210   .text.lv_canvas_draw_img:0000000000000000 $t
  D:\Temp\cc0vPyDE.s:5217   .text.lv_canvas_draw_img:0000000000000000 lv_canvas_draw_img
  D:\Temp\cc0vPyDE.s:5491   .text.lv_canvas_draw_img:000000000000011c $d
  D:\Temp\cc0vPyDE.s:5496   .text.lv_canvas_draw_line:0000000000000000 $t
  D:\Temp\cc0vPyDE.s:5503   .text.lv_canvas_draw_line:0000000000000000 lv_canvas_draw_line
  D:\Temp\cc0vPyDE.s:5783   .text.lv_canvas_draw_line:000000000000011c $d
  D:\Temp\cc0vPyDE.s:5788   .text.lv_canvas_draw_polygon:0000000000000000 $t
  D:\Temp\cc0vPyDE.s:5795   .text.lv_canvas_draw_polygon:0000000000000000 lv_canvas_draw_polygon
  D:\Temp\cc0vPyDE.s:6054   .text.lv_canvas_draw_polygon:000000000000010c $d
  D:\Temp\cc0vPyDE.s:6059   .text.lv_canvas_draw_arc:0000000000000000 $t
  D:\Temp\cc0vPyDE.s:6066   .text.lv_canvas_draw_arc:0000000000000000 lv_canvas_draw_arc
  D:\Temp\cc0vPyDE.s:6332   .text.lv_canvas_draw_arc:000000000000011c $d
  D:\Temp\cc0vPyDE.s:6337   .bss.ancestor_design:0000000000000000 $d
  D:\Temp\cc0vPyDE.s:6341   .bss.ancestor_design:0000000000000000 ancestor_design
  D:\Temp\cc0vPyDE.s:6344   .bss.ancestor_signal:0000000000000000 $d
  D:\Temp\cc0vPyDE.s:6348   .bss.ancestor_signal:0000000000000000 ancestor_signal
  D:\Temp\cc0vPyDE.s:6351   .bss.bg_color_save.9739:0000000000000000 $d
  D:\Temp\cc0vPyDE.s:6355   .bss.bg_color_save.9739:0000000000000000 bg_color_save.9739
  D:\Temp\cc0vPyDE.s:6361   .bss.bg_opa_save.9737:0000000000000000 bg_opa_save.9737
  D:\Temp\cc0vPyDE.s:6362   .bss.bg_opa_save.9737:0000000000000000 $d
  D:\Temp\cc0vPyDE.s:6364   .bss.fg_color_save.9738:0000000000000000 $d
  D:\Temp\cc0vPyDE.s:6368   .bss.fg_color_save.9738:0000000000000000 fg_color_save.9738
  D:\Temp\cc0vPyDE.s:6374   .bss.fg_opa_save.9736:0000000000000000 fg_opa_save.9736
  D:\Temp\cc0vPyDE.s:6375   .bss.fg_opa_save.9736:0000000000000000 $d
  D:\Temp\cc0vPyDE.s:6377   .bss.res_color_saved.9740:0000000000000000 $d
  D:\Temp\cc0vPyDE.s:6381   .bss.res_color_saved.9740:0000000000000000 res_color_saved.9740
  D:\Temp\cc0vPyDE.s:6387   .bss.res_opa_saved.9741:0000000000000000 res_opa_saved.9741
  D:\Temp\cc0vPyDE.s:6388   .bss.res_opa_saved.9741:0000000000000000 $d
  D:\Temp\cc0vPyDE.s:6390   .rodata.lv_canvas_create.str1.4:0000000000000000 $d
  D:\Temp\cc0vPyDE.s:6394   .rodata.lv_canvas_set_buffer.str1.4:0000000000000000 $d
  D:\Temp\cc0vPyDE.s:6398   .rodata.lv_canvas_signal.str1.4:0000000000000000 $d

UNDEFINED SYMBOLS
lv_obj_handle_get_type_signal
lv_img_buf_set_px_alpha
lv_img_buf_get_px_alpha
lv_img_buf_get_px_color
lv_img_buf_set_px_color
lv_img_create
lv_debug_check_null
lv_obj_allocate_ext_attr
lv_img_set_src
lv_obj_set_signal_cb
lv_debug_log_error
lv_obj_del
lv_obj_get_signal_cb
lv_obj_get_design_cb
lv_theme_apply
lv_obj_get_ext_attr
ARM GAS  D:\Temp\cc0vPyDE.s 			page 195


lv_obj_invalidate
lv_img_buf_set_palette
_lv_obj_get_style_color
lv_img_cf_get_px_size
_lv_memcpy
_lv_img_buf_transform_init
_lv_img_buf_transform_anti_alias
lv_img_cf_has_alpha
lv_img_buf_get_img_size
_lv_mem_buf_get
_lv_mem_buf_release
_lv_memset
_lv_memset_00
lv_disp_buf_init
lv_disp_drv_init
_lv_refr_get_disp_refreshing
_lv_refr_set_disp_refreshing
lv_draw_rect
lv_draw_label
lv_img_decoder_get_info
lv_draw_img
lv_draw_line
lv_draw_polygon
lv_draw_arc
