ARM GAS  D:\Temp\ccGEpo4V.s 			page 1


   1              		.cpu cortex-m4
   2              		.eabi_attribute 27, 1
   3              		.eabi_attribute 28, 1
   4              		.eabi_attribute 20, 1
   5              		.eabi_attribute 21, 1
   6              		.eabi_attribute 23, 3
   7              		.eabi_attribute 24, 1
   8              		.eabi_attribute 25, 1
   9              		.eabi_attribute 26, 1
  10              		.eabi_attribute 30, 1
  11              		.eabi_attribute 34, 1
  12              		.eabi_attribute 18, 4
  13              		.file	"lv_draw_rect.c"
  14              		.text
  15              	.Ltext0:
  16              		.cfi_sections	.debug_frame
  17              		.section	.text.shadow_blur_corner,"ax",%progbits
  18              		.align	1
  19              		.arch armv7e-m
  20              		.syntax unified
  21              		.thumb
  22              		.thumb_func
  23              		.fpu fpv4-sp-d16
  25              	shadow_blur_corner:
  26              	.LVL0:
  27              	.LFB466:
  28              		.file 1 "lvgl/src/lv_draw/lv_draw_rect.c"
   1:lvgl/src/lv_draw/lv_draw_rect.c **** /**
   2:lvgl/src/lv_draw/lv_draw_rect.c ****  * @file lv_draw_rect.c
   3:lvgl/src/lv_draw/lv_draw_rect.c ****  *
   4:lvgl/src/lv_draw/lv_draw_rect.c ****  */
   5:lvgl/src/lv_draw/lv_draw_rect.c **** 
   6:lvgl/src/lv_draw/lv_draw_rect.c **** /*********************
   7:lvgl/src/lv_draw/lv_draw_rect.c ****  *      INCLUDES
   8:lvgl/src/lv_draw/lv_draw_rect.c ****  *********************/
   9:lvgl/src/lv_draw/lv_draw_rect.c **** #include "lv_draw_rect.h"
  10:lvgl/src/lv_draw/lv_draw_rect.c **** #include "lv_draw_blend.h"
  11:lvgl/src/lv_draw/lv_draw_rect.c **** #include "lv_draw_mask.h"
  12:lvgl/src/lv_draw/lv_draw_rect.c **** #include "../lv_misc/lv_math.h"
  13:lvgl/src/lv_draw/lv_draw_rect.c **** #include "../lv_misc/lv_txt_ap.h"
  14:lvgl/src/lv_draw/lv_draw_rect.c **** #include "../lv_core/lv_refr.h"
  15:lvgl/src/lv_draw/lv_draw_rect.c **** #include "../lv_misc/lv_debug.h"
  16:lvgl/src/lv_draw/lv_draw_rect.c **** 
  17:lvgl/src/lv_draw/lv_draw_rect.c **** /*********************
  18:lvgl/src/lv_draw/lv_draw_rect.c ****  *      DEFINES
  19:lvgl/src/lv_draw/lv_draw_rect.c ****  *********************/
  20:lvgl/src/lv_draw/lv_draw_rect.c **** #define SHADOW_UPSCALE_SHIFT   6
  21:lvgl/src/lv_draw/lv_draw_rect.c **** #define SHADOW_ENHANCE          1
  22:lvgl/src/lv_draw/lv_draw_rect.c **** #define SPLIT_LIMIT             50
  23:lvgl/src/lv_draw/lv_draw_rect.c **** 
  24:lvgl/src/lv_draw/lv_draw_rect.c **** /**********************
  25:lvgl/src/lv_draw/lv_draw_rect.c ****  *      TYPEDEFS
  26:lvgl/src/lv_draw/lv_draw_rect.c ****  **********************/
  27:lvgl/src/lv_draw/lv_draw_rect.c **** 
  28:lvgl/src/lv_draw/lv_draw_rect.c **** /**********************
  29:lvgl/src/lv_draw/lv_draw_rect.c ****  *  STATIC PROTOTYPES
  30:lvgl/src/lv_draw/lv_draw_rect.c ****  **********************/
ARM GAS  D:\Temp\ccGEpo4V.s 			page 2


  31:lvgl/src/lv_draw/lv_draw_rect.c **** LV_ATTRIBUTE_FAST_MEM static void draw_bg(const lv_area_t * coords, const lv_area_t * clip,
  32:lvgl/src/lv_draw/lv_draw_rect.c ****                                           const lv_draw_rect_dsc_t * dsc);
  33:lvgl/src/lv_draw/lv_draw_rect.c **** LV_ATTRIBUTE_FAST_MEM static void draw_border(const lv_area_t * coords, const lv_area_t * clip,
  34:lvgl/src/lv_draw/lv_draw_rect.c ****                                               const lv_draw_rect_dsc_t * dsc);
  35:lvgl/src/lv_draw/lv_draw_rect.c **** 
  36:lvgl/src/lv_draw/lv_draw_rect.c **** #if LV_USE_OUTLINE
  37:lvgl/src/lv_draw/lv_draw_rect.c ****     static void draw_outline(const lv_area_t * coords, const lv_area_t * clip, const lv_draw_rect_d
  38:lvgl/src/lv_draw/lv_draw_rect.c **** #endif
  39:lvgl/src/lv_draw/lv_draw_rect.c **** #if LV_USE_SHADOW
  40:lvgl/src/lv_draw/lv_draw_rect.c **** LV_ATTRIBUTE_FAST_MEM static void draw_shadow(const lv_area_t * coords, const lv_area_t * clip,
  41:lvgl/src/lv_draw/lv_draw_rect.c ****                                               const lv_draw_rect_dsc_t * dsc);
  42:lvgl/src/lv_draw/lv_draw_rect.c **** LV_ATTRIBUTE_FAST_MEM static void shadow_draw_corner_buf(const lv_area_t * coords,  uint16_t * sh_b
  43:lvgl/src/lv_draw/lv_draw_rect.c ****                                                          lv_coord_t r);
  44:lvgl/src/lv_draw/lv_draw_rect.c **** LV_ATTRIBUTE_FAST_MEM static void shadow_blur_corner(lv_coord_t size, lv_coord_t sw, uint16_t * sh_
  45:lvgl/src/lv_draw/lv_draw_rect.c **** #endif
  46:lvgl/src/lv_draw/lv_draw_rect.c **** 
  47:lvgl/src/lv_draw/lv_draw_rect.c **** #if LV_USE_PATTERN
  48:lvgl/src/lv_draw/lv_draw_rect.c ****     static void draw_pattern(const lv_area_t * coords, const lv_area_t * clip, const lv_draw_rect_d
  49:lvgl/src/lv_draw/lv_draw_rect.c **** #endif
  50:lvgl/src/lv_draw/lv_draw_rect.c **** 
  51:lvgl/src/lv_draw/lv_draw_rect.c **** #if LV_USE_VALUE_STR
  52:lvgl/src/lv_draw/lv_draw_rect.c ****     static void draw_value_str(const lv_area_t * coords, const lv_area_t * clip, const lv_draw_rect
  53:lvgl/src/lv_draw/lv_draw_rect.c **** #endif
  54:lvgl/src/lv_draw/lv_draw_rect.c **** static void draw_full_border(const lv_area_t * area_inner, const lv_area_t * area_outer, const lv_a
  55:lvgl/src/lv_draw/lv_draw_rect.c ****                              lv_coord_t radius, bool radius_is_in, lv_color_t color, lv_opa_t opa, 
  56:lvgl/src/lv_draw/lv_draw_rect.c **** LV_ATTRIBUTE_FAST_MEM static inline lv_color_t grad_get(const lv_draw_rect_dsc_t * dsc, lv_coord_t 
  57:lvgl/src/lv_draw/lv_draw_rect.c **** 
  58:lvgl/src/lv_draw/lv_draw_rect.c **** /**********************
  59:lvgl/src/lv_draw/lv_draw_rect.c ****  *  STATIC VARIABLES
  60:lvgl/src/lv_draw/lv_draw_rect.c ****  **********************/
  61:lvgl/src/lv_draw/lv_draw_rect.c **** #if LV_USE_SHADOW && LV_SHADOW_CACHE_SIZE
  62:lvgl/src/lv_draw/lv_draw_rect.c ****     static uint8_t sh_cache[LV_SHADOW_CACHE_SIZE * LV_SHADOW_CACHE_SIZE];
  63:lvgl/src/lv_draw/lv_draw_rect.c ****     static int32_t sh_cache_size = -1;
  64:lvgl/src/lv_draw/lv_draw_rect.c ****     static int32_t sh_cache_r = -1;
  65:lvgl/src/lv_draw/lv_draw_rect.c **** #endif
  66:lvgl/src/lv_draw/lv_draw_rect.c **** 
  67:lvgl/src/lv_draw/lv_draw_rect.c **** /**********************
  68:lvgl/src/lv_draw/lv_draw_rect.c ****  *      MACROS
  69:lvgl/src/lv_draw/lv_draw_rect.c ****  **********************/
  70:lvgl/src/lv_draw/lv_draw_rect.c **** 
  71:lvgl/src/lv_draw/lv_draw_rect.c **** /**********************
  72:lvgl/src/lv_draw/lv_draw_rect.c ****  *   GLOBAL FUNCTIONS
  73:lvgl/src/lv_draw/lv_draw_rect.c ****  **********************/
  74:lvgl/src/lv_draw/lv_draw_rect.c **** 
  75:lvgl/src/lv_draw/lv_draw_rect.c **** LV_ATTRIBUTE_FAST_MEM void lv_draw_rect_dsc_init(lv_draw_rect_dsc_t * dsc)
  76:lvgl/src/lv_draw/lv_draw_rect.c **** {
  77:lvgl/src/lv_draw/lv_draw_rect.c ****     _lv_memset_00(dsc, sizeof(lv_draw_rect_dsc_t));
  78:lvgl/src/lv_draw/lv_draw_rect.c ****     dsc->bg_color = LV_COLOR_WHITE;
  79:lvgl/src/lv_draw/lv_draw_rect.c ****     dsc->bg_grad_color = LV_COLOR_BLACK;
  80:lvgl/src/lv_draw/lv_draw_rect.c ****     dsc->border_color = LV_COLOR_BLACK;
  81:lvgl/src/lv_draw/lv_draw_rect.c ****     dsc->pattern_recolor = LV_COLOR_BLACK;
  82:lvgl/src/lv_draw/lv_draw_rect.c ****     dsc->value_color = LV_COLOR_BLACK;
  83:lvgl/src/lv_draw/lv_draw_rect.c ****     dsc->shadow_color = LV_COLOR_BLACK;
  84:lvgl/src/lv_draw/lv_draw_rect.c ****     dsc->bg_grad_color_stop = 0xFF;
  85:lvgl/src/lv_draw/lv_draw_rect.c ****     dsc->bg_opa = LV_OPA_COVER;
  86:lvgl/src/lv_draw/lv_draw_rect.c ****     dsc->outline_opa = LV_OPA_COVER;
  87:lvgl/src/lv_draw/lv_draw_rect.c ****     dsc->border_opa = LV_OPA_COVER;
ARM GAS  D:\Temp\ccGEpo4V.s 			page 3


  88:lvgl/src/lv_draw/lv_draw_rect.c ****     dsc->pattern_opa = LV_OPA_COVER;
  89:lvgl/src/lv_draw/lv_draw_rect.c ****     dsc->pattern_font = LV_THEME_DEFAULT_FONT_NORMAL;
  90:lvgl/src/lv_draw/lv_draw_rect.c ****     dsc->value_opa = LV_OPA_COVER;
  91:lvgl/src/lv_draw/lv_draw_rect.c ****     dsc->value_font = LV_THEME_DEFAULT_FONT_NORMAL;
  92:lvgl/src/lv_draw/lv_draw_rect.c ****     dsc->shadow_opa = LV_OPA_COVER;
  93:lvgl/src/lv_draw/lv_draw_rect.c ****     dsc->border_side = LV_BORDER_SIDE_FULL;
  94:lvgl/src/lv_draw/lv_draw_rect.c **** 
  95:lvgl/src/lv_draw/lv_draw_rect.c **** }
  96:lvgl/src/lv_draw/lv_draw_rect.c **** 
  97:lvgl/src/lv_draw/lv_draw_rect.c **** /**
  98:lvgl/src/lv_draw/lv_draw_rect.c ****  * Draw a rectangle
  99:lvgl/src/lv_draw/lv_draw_rect.c ****  * @param coords the coordinates of the rectangle
 100:lvgl/src/lv_draw/lv_draw_rect.c ****  * @param mask the rectangle will be drawn only in this mask
 101:lvgl/src/lv_draw/lv_draw_rect.c ****  * @param dsc pointer to an initialized `lv_draw_rect_dsc_t` variable
 102:lvgl/src/lv_draw/lv_draw_rect.c ****  */
 103:lvgl/src/lv_draw/lv_draw_rect.c **** void lv_draw_rect(const lv_area_t * coords, const lv_area_t * clip, const lv_draw_rect_dsc_t * dsc)
 104:lvgl/src/lv_draw/lv_draw_rect.c **** {
 105:lvgl/src/lv_draw/lv_draw_rect.c ****     if(lv_area_get_height(coords) < 1 || lv_area_get_width(coords) < 1) return;
 106:lvgl/src/lv_draw/lv_draw_rect.c **** #if LV_USE_SHADOW
 107:lvgl/src/lv_draw/lv_draw_rect.c ****     draw_shadow(coords, clip, dsc);
 108:lvgl/src/lv_draw/lv_draw_rect.c **** #endif
 109:lvgl/src/lv_draw/lv_draw_rect.c **** 
 110:lvgl/src/lv_draw/lv_draw_rect.c ****     draw_bg(coords, clip, dsc);
 111:lvgl/src/lv_draw/lv_draw_rect.c **** 
 112:lvgl/src/lv_draw/lv_draw_rect.c **** #if LV_USE_PATTERN
 113:lvgl/src/lv_draw/lv_draw_rect.c ****     draw_pattern(coords, clip, dsc);
 114:lvgl/src/lv_draw/lv_draw_rect.c **** #endif
 115:lvgl/src/lv_draw/lv_draw_rect.c ****     draw_border(coords, clip, dsc);
 116:lvgl/src/lv_draw/lv_draw_rect.c **** 
 117:lvgl/src/lv_draw/lv_draw_rect.c **** #if LV_USE_VALUE_STR
 118:lvgl/src/lv_draw/lv_draw_rect.c ****     draw_value_str(coords, clip, dsc);
 119:lvgl/src/lv_draw/lv_draw_rect.c **** #endif
 120:lvgl/src/lv_draw/lv_draw_rect.c **** 
 121:lvgl/src/lv_draw/lv_draw_rect.c **** #if LV_USE_OUTLINE
 122:lvgl/src/lv_draw/lv_draw_rect.c ****     draw_outline(coords, clip, dsc);
 123:lvgl/src/lv_draw/lv_draw_rect.c **** #endif
 124:lvgl/src/lv_draw/lv_draw_rect.c **** 
 125:lvgl/src/lv_draw/lv_draw_rect.c ****     LV_ASSERT_MEM_INTEGRITY();
 126:lvgl/src/lv_draw/lv_draw_rect.c **** }
 127:lvgl/src/lv_draw/lv_draw_rect.c **** 
 128:lvgl/src/lv_draw/lv_draw_rect.c **** /**
 129:lvgl/src/lv_draw/lv_draw_rect.c ****  * Draw a pixel
 130:lvgl/src/lv_draw/lv_draw_rect.c ****  * @param point the coordinates of the point to draw
 131:lvgl/src/lv_draw/lv_draw_rect.c ****  * @param mask the pixel will be drawn only in this mask
 132:lvgl/src/lv_draw/lv_draw_rect.c ****  * @param style pointer to a style
 133:lvgl/src/lv_draw/lv_draw_rect.c ****  * @param opa_scale scale down the opacity by the factor
 134:lvgl/src/lv_draw/lv_draw_rect.c ****  */
 135:lvgl/src/lv_draw/lv_draw_rect.c **** void lv_draw_px(const lv_point_t * point, const lv_area_t * clip_area, const lv_style_t * style)
 136:lvgl/src/lv_draw/lv_draw_rect.c **** {
 137:lvgl/src/lv_draw/lv_draw_rect.c ****     LV_UNUSED(point);
 138:lvgl/src/lv_draw/lv_draw_rect.c ****     LV_UNUSED(clip_area);
 139:lvgl/src/lv_draw/lv_draw_rect.c ****     LV_UNUSED(style);
 140:lvgl/src/lv_draw/lv_draw_rect.c ****     //    lv_opa_t opa = style->body.opa;
 141:lvgl/src/lv_draw/lv_draw_rect.c ****     //    if(opa_scale != LV_OPA_COVER) opa = (opa * opa_scale) >> 8;
 142:lvgl/src/lv_draw/lv_draw_rect.c ****     //
 143:lvgl/src/lv_draw/lv_draw_rect.c ****     //    if(opa > LV_OPA_MAX) opa = LV_OPA_COVER;
 144:lvgl/src/lv_draw/lv_draw_rect.c ****     //
ARM GAS  D:\Temp\ccGEpo4V.s 			page 4


 145:lvgl/src/lv_draw/lv_draw_rect.c ****     //    lv_area_t fill_area;
 146:lvgl/src/lv_draw/lv_draw_rect.c ****     //    fill_area.x1 = point->x;
 147:lvgl/src/lv_draw/lv_draw_rect.c ****     //    fill_area.y1 = point->y;
 148:lvgl/src/lv_draw/lv_draw_rect.c ****     //    fill_area.x2 = point->x;
 149:lvgl/src/lv_draw/lv_draw_rect.c ****     //    fill_area.y2 = point->y;
 150:lvgl/src/lv_draw/lv_draw_rect.c ****     //
 151:lvgl/src/lv_draw/lv_draw_rect.c ****     //    uint8_t mask_cnt = lv_draw_mask_get_cnt();
 152:lvgl/src/lv_draw/lv_draw_rect.c ****     //
 153:lvgl/src/lv_draw/lv_draw_rect.c ****     //    if(mask_cnt == 0) {
 154:lvgl/src/lv_draw/lv_draw_rect.c ****     //        lv_blend_fill(clip_area, &fill_area, style->body.main_color, NULL, LV_DRAW_MASK_RES_F
 155:lvgl/src/lv_draw/lv_draw_rect.c ****     //    } else {
 156:lvgl/src/lv_draw/lv_draw_rect.c ****     //        uint8_t mask_buf;
 157:lvgl/src/lv_draw/lv_draw_rect.c ****     //        lv_draw_mask_res_t mask_res;
 158:lvgl/src/lv_draw/lv_draw_rect.c ****     //        mask_res = lv_draw_mask_apply(&mask_buf, point->x, point->y, 1);
 159:lvgl/src/lv_draw/lv_draw_rect.c ****     //        lv_blend_fill(clip_area, &fill_area, style->body.main_color, &mask_buf, mask_res, opa
 160:lvgl/src/lv_draw/lv_draw_rect.c ****     //    }
 161:lvgl/src/lv_draw/lv_draw_rect.c **** }
 162:lvgl/src/lv_draw/lv_draw_rect.c **** 
 163:lvgl/src/lv_draw/lv_draw_rect.c **** /**********************
 164:lvgl/src/lv_draw/lv_draw_rect.c ****  *   STATIC FUNCTIONS
 165:lvgl/src/lv_draw/lv_draw_rect.c ****  **********************/
 166:lvgl/src/lv_draw/lv_draw_rect.c **** 
 167:lvgl/src/lv_draw/lv_draw_rect.c **** LV_ATTRIBUTE_FAST_MEM static void draw_bg(const lv_area_t * coords, const lv_area_t * clip,
 168:lvgl/src/lv_draw/lv_draw_rect.c ****                                           const lv_draw_rect_dsc_t * dsc)
 169:lvgl/src/lv_draw/lv_draw_rect.c **** {
 170:lvgl/src/lv_draw/lv_draw_rect.c ****     if(dsc->bg_opa <= LV_OPA_MIN) return;
 171:lvgl/src/lv_draw/lv_draw_rect.c **** 
 172:lvgl/src/lv_draw/lv_draw_rect.c ****     lv_area_t coords_bg;
 173:lvgl/src/lv_draw/lv_draw_rect.c ****     lv_area_copy(&coords_bg, coords);
 174:lvgl/src/lv_draw/lv_draw_rect.c **** 
 175:lvgl/src/lv_draw/lv_draw_rect.c ****     /*If the border fully covers make the bg area 1px smaller to avoid artifacts on the corners*/
 176:lvgl/src/lv_draw/lv_draw_rect.c ****     if(dsc->border_width > 1 && dsc->border_opa >= LV_OPA_MAX && dsc->radius != 0) {
 177:lvgl/src/lv_draw/lv_draw_rect.c ****         coords_bg.x1 += (dsc->border_side & LV_BORDER_SIDE_LEFT) ? 1 : 0;
 178:lvgl/src/lv_draw/lv_draw_rect.c ****         coords_bg.y1 += (dsc->border_side & LV_BORDER_SIDE_TOP) ? 1 : 0;
 179:lvgl/src/lv_draw/lv_draw_rect.c ****         coords_bg.x2 -= (dsc->border_side & LV_BORDER_SIDE_RIGHT) ? 1 : 0;
 180:lvgl/src/lv_draw/lv_draw_rect.c ****         coords_bg.y2 -= (dsc->border_side & LV_BORDER_SIDE_BOTTOM) ? 1 : 0;
 181:lvgl/src/lv_draw/lv_draw_rect.c ****     }
 182:lvgl/src/lv_draw/lv_draw_rect.c **** 
 183:lvgl/src/lv_draw/lv_draw_rect.c ****     lv_opa_t opa = dsc->bg_opa;
 184:lvgl/src/lv_draw/lv_draw_rect.c **** 
 185:lvgl/src/lv_draw/lv_draw_rect.c ****     if(opa > LV_OPA_MAX) opa = LV_OPA_COVER;
 186:lvgl/src/lv_draw/lv_draw_rect.c **** 
 187:lvgl/src/lv_draw/lv_draw_rect.c ****     lv_disp_t * disp    = _lv_refr_get_disp_refreshing();
 188:lvgl/src/lv_draw/lv_draw_rect.c ****     lv_disp_buf_t * vdb = lv_disp_get_buf(disp);
 189:lvgl/src/lv_draw/lv_draw_rect.c **** 
 190:lvgl/src/lv_draw/lv_draw_rect.c ****     /* Get clipped fill area which is the real draw area.
 191:lvgl/src/lv_draw/lv_draw_rect.c ****      * It is always the same or inside `fill_area` */
 192:lvgl/src/lv_draw/lv_draw_rect.c ****     lv_area_t draw_area;
 193:lvgl/src/lv_draw/lv_draw_rect.c ****     bool is_common;
 194:lvgl/src/lv_draw/lv_draw_rect.c ****     is_common = _lv_area_intersect(&draw_area, &coords_bg, clip);
 195:lvgl/src/lv_draw/lv_draw_rect.c ****     if(is_common == false) return;
 196:lvgl/src/lv_draw/lv_draw_rect.c **** 
 197:lvgl/src/lv_draw/lv_draw_rect.c ****     const lv_area_t * disp_area = &vdb->area;
 198:lvgl/src/lv_draw/lv_draw_rect.c **** 
 199:lvgl/src/lv_draw/lv_draw_rect.c ****     /* Now `draw_area` has absolute coordinates.
 200:lvgl/src/lv_draw/lv_draw_rect.c ****      * Make it relative to `disp_area` to simplify draw to `disp_buf`*/
 201:lvgl/src/lv_draw/lv_draw_rect.c ****     draw_area.x1 -= disp_area->x1;
ARM GAS  D:\Temp\ccGEpo4V.s 			page 5


 202:lvgl/src/lv_draw/lv_draw_rect.c ****     draw_area.y1 -= disp_area->y1;
 203:lvgl/src/lv_draw/lv_draw_rect.c ****     draw_area.x2 -= disp_area->x1;
 204:lvgl/src/lv_draw/lv_draw_rect.c ****     draw_area.y2 -= disp_area->y1;
 205:lvgl/src/lv_draw/lv_draw_rect.c **** 
 206:lvgl/src/lv_draw/lv_draw_rect.c ****     int32_t draw_area_w = lv_area_get_width(&draw_area);
 207:lvgl/src/lv_draw/lv_draw_rect.c **** 
 208:lvgl/src/lv_draw/lv_draw_rect.c ****     /*Create a mask if there is a radius*/
 209:lvgl/src/lv_draw/lv_draw_rect.c ****     lv_opa_t * mask_buf = _lv_mem_buf_get(draw_area_w);
 210:lvgl/src/lv_draw/lv_draw_rect.c **** 
 211:lvgl/src/lv_draw/lv_draw_rect.c ****     lv_grad_dir_t grad_dir = dsc->bg_grad_dir;
 212:lvgl/src/lv_draw/lv_draw_rect.c ****     if(dsc->bg_color.full == dsc->bg_grad_color.full) grad_dir = LV_GRAD_DIR_NONE;
 213:lvgl/src/lv_draw/lv_draw_rect.c **** 
 214:lvgl/src/lv_draw/lv_draw_rect.c ****     uint16_t other_mask_cnt = lv_draw_mask_get_cnt();
 215:lvgl/src/lv_draw/lv_draw_rect.c ****     bool simple_mode = true;
 216:lvgl/src/lv_draw/lv_draw_rect.c ****     if(other_mask_cnt) simple_mode = false;
 217:lvgl/src/lv_draw/lv_draw_rect.c ****     else if(grad_dir == LV_GRAD_DIR_HOR) simple_mode = false;
 218:lvgl/src/lv_draw/lv_draw_rect.c **** 
 219:lvgl/src/lv_draw/lv_draw_rect.c ****     int16_t mask_rout_id = LV_MASK_ID_INV;
 220:lvgl/src/lv_draw/lv_draw_rect.c **** 
 221:lvgl/src/lv_draw/lv_draw_rect.c ****     int32_t coords_w = lv_area_get_width(&coords_bg);
 222:lvgl/src/lv_draw/lv_draw_rect.c ****     int32_t coords_h = lv_area_get_height(&coords_bg);
 223:lvgl/src/lv_draw/lv_draw_rect.c **** 
 224:lvgl/src/lv_draw/lv_draw_rect.c ****     /*Get the real radius*/
 225:lvgl/src/lv_draw/lv_draw_rect.c ****     int32_t rout = dsc->radius;
 226:lvgl/src/lv_draw/lv_draw_rect.c ****     int32_t short_side = LV_MATH_MIN(coords_w, coords_h);
 227:lvgl/src/lv_draw/lv_draw_rect.c ****     if(rout > short_side >> 1) rout = short_side >> 1;
 228:lvgl/src/lv_draw/lv_draw_rect.c **** 
 229:lvgl/src/lv_draw/lv_draw_rect.c ****     /*Most simple case: just a plain rectangle*/
 230:lvgl/src/lv_draw/lv_draw_rect.c ****     if(simple_mode && rout == 0 && (grad_dir == LV_GRAD_DIR_NONE)) {
 231:lvgl/src/lv_draw/lv_draw_rect.c ****         _lv_blend_fill(clip, &coords_bg,
 232:lvgl/src/lv_draw/lv_draw_rect.c ****                        dsc->bg_color, NULL, LV_DRAW_MASK_RES_FULL_COVER, opa,
 233:lvgl/src/lv_draw/lv_draw_rect.c ****                        dsc->bg_blend_mode);
 234:lvgl/src/lv_draw/lv_draw_rect.c ****     }
 235:lvgl/src/lv_draw/lv_draw_rect.c ****     /*More complex case: there is a radius, gradient or other mask.*/
 236:lvgl/src/lv_draw/lv_draw_rect.c ****     else {
 237:lvgl/src/lv_draw/lv_draw_rect.c ****         lv_draw_mask_radius_param_t mask_rout_param;
 238:lvgl/src/lv_draw/lv_draw_rect.c ****         if(rout > 0) {
 239:lvgl/src/lv_draw/lv_draw_rect.c ****             lv_draw_mask_radius_init(&mask_rout_param, &coords_bg, rout, false);
 240:lvgl/src/lv_draw/lv_draw_rect.c ****             mask_rout_id = lv_draw_mask_add(&mask_rout_param, NULL);
 241:lvgl/src/lv_draw/lv_draw_rect.c ****         }
 242:lvgl/src/lv_draw/lv_draw_rect.c **** 
 243:lvgl/src/lv_draw/lv_draw_rect.c ****         /*Draw the background line by line*/
 244:lvgl/src/lv_draw/lv_draw_rect.c ****         int32_t h;
 245:lvgl/src/lv_draw/lv_draw_rect.c ****         lv_draw_mask_res_t mask_res = LV_DRAW_MASK_RES_FULL_COVER;
 246:lvgl/src/lv_draw/lv_draw_rect.c ****         lv_color_t grad_color = dsc->bg_color;
 247:lvgl/src/lv_draw/lv_draw_rect.c **** 
 248:lvgl/src/lv_draw/lv_draw_rect.c ****         lv_color_t * grad_map = NULL;
 249:lvgl/src/lv_draw/lv_draw_rect.c ****         /*In case of horizontal gradient pre-compute a line with a gradient*/
 250:lvgl/src/lv_draw/lv_draw_rect.c ****         if(grad_dir == LV_GRAD_DIR_HOR) {
 251:lvgl/src/lv_draw/lv_draw_rect.c ****             grad_map = _lv_mem_buf_get(coords_w * sizeof(lv_color_t));
 252:lvgl/src/lv_draw/lv_draw_rect.c **** 
 253:lvgl/src/lv_draw/lv_draw_rect.c ****             int32_t i;
 254:lvgl/src/lv_draw/lv_draw_rect.c ****             for(i = 0; i < coords_w; i++) {
 255:lvgl/src/lv_draw/lv_draw_rect.c ****                 grad_map[i] = grad_get(dsc, coords_w, i);
 256:lvgl/src/lv_draw/lv_draw_rect.c ****             }
 257:lvgl/src/lv_draw/lv_draw_rect.c ****         }
 258:lvgl/src/lv_draw/lv_draw_rect.c **** 
ARM GAS  D:\Temp\ccGEpo4V.s 			page 6


 259:lvgl/src/lv_draw/lv_draw_rect.c ****         bool split = false;
 260:lvgl/src/lv_draw/lv_draw_rect.c ****         if(lv_area_get_width(&coords_bg) - 2 * rout > SPLIT_LIMIT) split = true;
 261:lvgl/src/lv_draw/lv_draw_rect.c **** 
 262:lvgl/src/lv_draw/lv_draw_rect.c ****         lv_opa_t opa2;
 263:lvgl/src/lv_draw/lv_draw_rect.c **** 
 264:lvgl/src/lv_draw/lv_draw_rect.c ****         lv_area_t fill_area;
 265:lvgl/src/lv_draw/lv_draw_rect.c ****         fill_area.x1 = coords_bg.x1;
 266:lvgl/src/lv_draw/lv_draw_rect.c ****         fill_area.x2 = coords_bg.x2;
 267:lvgl/src/lv_draw/lv_draw_rect.c ****         fill_area.y1 = disp_area->y1 + draw_area.y1;
 268:lvgl/src/lv_draw/lv_draw_rect.c ****         fill_area.y2 = fill_area.y1;
 269:lvgl/src/lv_draw/lv_draw_rect.c ****         for(h = draw_area.y1; h <= draw_area.y2; h++) {
 270:lvgl/src/lv_draw/lv_draw_rect.c ****             int32_t y = h + vdb->area.y1;
 271:lvgl/src/lv_draw/lv_draw_rect.c **** 
 272:lvgl/src/lv_draw/lv_draw_rect.c ****             opa2 = opa;
 273:lvgl/src/lv_draw/lv_draw_rect.c **** 
 274:lvgl/src/lv_draw/lv_draw_rect.c ****             /*In not corner areas apply the mask only if required*/
 275:lvgl/src/lv_draw/lv_draw_rect.c ****             if(y > coords_bg.y1 + rout + 1 &&
 276:lvgl/src/lv_draw/lv_draw_rect.c ****                y < coords_bg.y2 - rout - 1) {
 277:lvgl/src/lv_draw/lv_draw_rect.c ****                 mask_res = LV_DRAW_MASK_RES_FULL_COVER;
 278:lvgl/src/lv_draw/lv_draw_rect.c ****                 if(simple_mode == false) {
 279:lvgl/src/lv_draw/lv_draw_rect.c ****                     _lv_memset(mask_buf, opa, draw_area_w);
 280:lvgl/src/lv_draw/lv_draw_rect.c ****                     mask_res = lv_draw_mask_apply(mask_buf, vdb->area.x1 + draw_area.x1, vdb->area.
 281:lvgl/src/lv_draw/lv_draw_rect.c ****                 }
 282:lvgl/src/lv_draw/lv_draw_rect.c ****             }
 283:lvgl/src/lv_draw/lv_draw_rect.c ****             /*In corner areas apply the mask anyway*/
 284:lvgl/src/lv_draw/lv_draw_rect.c ****             else {
 285:lvgl/src/lv_draw/lv_draw_rect.c ****                 _lv_memset(mask_buf, opa, draw_area_w);
 286:lvgl/src/lv_draw/lv_draw_rect.c ****                 mask_res = lv_draw_mask_apply(mask_buf, vdb->area.x1 + draw_area.x1, vdb->area.y1 +
 287:lvgl/src/lv_draw/lv_draw_rect.c ****             }
 288:lvgl/src/lv_draw/lv_draw_rect.c **** 
 289:lvgl/src/lv_draw/lv_draw_rect.c ****             /*If mask will taken into account its base opacity was already set by memset above*/
 290:lvgl/src/lv_draw/lv_draw_rect.c ****             if(mask_res == LV_DRAW_MASK_RES_CHANGED) {
 291:lvgl/src/lv_draw/lv_draw_rect.c ****                 opa2 = LV_OPA_COVER;
 292:lvgl/src/lv_draw/lv_draw_rect.c ****             }
 293:lvgl/src/lv_draw/lv_draw_rect.c **** 
 294:lvgl/src/lv_draw/lv_draw_rect.c ****             /*Get the current line color*/
 295:lvgl/src/lv_draw/lv_draw_rect.c ****             if(grad_dir == LV_GRAD_DIR_VER) {
 296:lvgl/src/lv_draw/lv_draw_rect.c ****                 grad_color = grad_get(dsc, lv_area_get_height(&coords_bg), y - coords_bg.y1);
 297:lvgl/src/lv_draw/lv_draw_rect.c ****             }
 298:lvgl/src/lv_draw/lv_draw_rect.c **** 
 299:lvgl/src/lv_draw/lv_draw_rect.c ****             /* If there is not other mask and drawing the corner area split the drawing to corner a
 300:lvgl/src/lv_draw/lv_draw_rect.c ****              * because it the middle mask shouldn't be taken into account (therefore its faster)*/
 301:lvgl/src/lv_draw/lv_draw_rect.c ****             if(simple_mode && split &&
 302:lvgl/src/lv_draw/lv_draw_rect.c ****                (y < coords_bg.y1 + rout + 1 ||
 303:lvgl/src/lv_draw/lv_draw_rect.c ****                 y > coords_bg.y2 - rout - 1)) {
 304:lvgl/src/lv_draw/lv_draw_rect.c **** 
 305:lvgl/src/lv_draw/lv_draw_rect.c ****                 /*Left part*/
 306:lvgl/src/lv_draw/lv_draw_rect.c ****                 lv_area_t fill_area2;
 307:lvgl/src/lv_draw/lv_draw_rect.c ****                 fill_area2.x1 = coords_bg.x1;
 308:lvgl/src/lv_draw/lv_draw_rect.c ****                 fill_area2.x2 = coords_bg.x1 + rout - 1;
 309:lvgl/src/lv_draw/lv_draw_rect.c ****                 fill_area2.y1 = fill_area.y1;
 310:lvgl/src/lv_draw/lv_draw_rect.c ****                 fill_area2.y2 = fill_area.y2;
 311:lvgl/src/lv_draw/lv_draw_rect.c **** 
 312:lvgl/src/lv_draw/lv_draw_rect.c ****                 _lv_blend_fill(clip, &fill_area2,
 313:lvgl/src/lv_draw/lv_draw_rect.c ****                                grad_color, mask_buf, mask_res, opa2, dsc->bg_blend_mode);
 314:lvgl/src/lv_draw/lv_draw_rect.c **** 
 315:lvgl/src/lv_draw/lv_draw_rect.c ****                 /*Center part*/
ARM GAS  D:\Temp\ccGEpo4V.s 			page 7


 316:lvgl/src/lv_draw/lv_draw_rect.c ****                 if(grad_dir == LV_GRAD_DIR_VER) {
 317:lvgl/src/lv_draw/lv_draw_rect.c ****                     fill_area2.x1 = coords_bg.x1 + rout;
 318:lvgl/src/lv_draw/lv_draw_rect.c ****                     fill_area2.x2 = coords_bg.x2 - rout;
 319:lvgl/src/lv_draw/lv_draw_rect.c ****                     _lv_blend_fill(clip, &fill_area2,
 320:lvgl/src/lv_draw/lv_draw_rect.c ****                                    grad_color, NULL, LV_DRAW_MASK_RES_FULL_COVER, opa, dsc->bg_blen
 321:lvgl/src/lv_draw/lv_draw_rect.c ****                 }
 322:lvgl/src/lv_draw/lv_draw_rect.c **** 
 323:lvgl/src/lv_draw/lv_draw_rect.c ****                 /*Right part*/
 324:lvgl/src/lv_draw/lv_draw_rect.c ****                 fill_area2.x1 = coords_bg.x2 - rout + 1;
 325:lvgl/src/lv_draw/lv_draw_rect.c ****                 fill_area2.x2 = coords_bg.x2;
 326:lvgl/src/lv_draw/lv_draw_rect.c **** 
 327:lvgl/src/lv_draw/lv_draw_rect.c ****                 int32_t mask_ofs = (coords_bg.x2 - rout + 1) - (vdb->area.x1 + draw_area.x1);
 328:lvgl/src/lv_draw/lv_draw_rect.c ****                 if(mask_ofs < 0) mask_ofs = 0;
 329:lvgl/src/lv_draw/lv_draw_rect.c ****                 _lv_blend_fill(clip, &fill_area2,
 330:lvgl/src/lv_draw/lv_draw_rect.c ****                                grad_color, mask_buf + mask_ofs, mask_res, opa2, dsc->bg_blend_mode)
 331:lvgl/src/lv_draw/lv_draw_rect.c **** 
 332:lvgl/src/lv_draw/lv_draw_rect.c ****             }
 333:lvgl/src/lv_draw/lv_draw_rect.c ****             else {
 334:lvgl/src/lv_draw/lv_draw_rect.c ****                 if(grad_dir == LV_GRAD_DIR_HOR) {
 335:lvgl/src/lv_draw/lv_draw_rect.c ****                     _lv_blend_map(clip, &fill_area, grad_map, mask_buf, mask_res, opa2, dsc->bg_ble
 336:lvgl/src/lv_draw/lv_draw_rect.c ****                 }
 337:lvgl/src/lv_draw/lv_draw_rect.c ****                 else if(grad_dir == LV_GRAD_DIR_VER) {
 338:lvgl/src/lv_draw/lv_draw_rect.c ****                     _lv_blend_fill(clip, &fill_area,
 339:lvgl/src/lv_draw/lv_draw_rect.c ****                                    grad_color, mask_buf, mask_res, opa2, dsc->bg_blend_mode);
 340:lvgl/src/lv_draw/lv_draw_rect.c ****                 }
 341:lvgl/src/lv_draw/lv_draw_rect.c ****                 else if(other_mask_cnt != 0 || !split) {
 342:lvgl/src/lv_draw/lv_draw_rect.c ****                     _lv_blend_fill(clip, &fill_area,
 343:lvgl/src/lv_draw/lv_draw_rect.c ****                                    grad_color, mask_buf, mask_res, opa2, dsc->bg_blend_mode);
 344:lvgl/src/lv_draw/lv_draw_rect.c ****                 }
 345:lvgl/src/lv_draw/lv_draw_rect.c ****             }
 346:lvgl/src/lv_draw/lv_draw_rect.c ****             fill_area.y1++;
 347:lvgl/src/lv_draw/lv_draw_rect.c ****             fill_area.y2++;
 348:lvgl/src/lv_draw/lv_draw_rect.c ****         }
 349:lvgl/src/lv_draw/lv_draw_rect.c **** 
 350:lvgl/src/lv_draw/lv_draw_rect.c ****         if(grad_dir == LV_GRAD_DIR_NONE && other_mask_cnt == 0 && split) {
 351:lvgl/src/lv_draw/lv_draw_rect.c ****             /*Central part*/
 352:lvgl/src/lv_draw/lv_draw_rect.c ****             fill_area.x1 = coords_bg.x1 + rout;
 353:lvgl/src/lv_draw/lv_draw_rect.c ****             fill_area.x2 = coords_bg.x2 - rout;
 354:lvgl/src/lv_draw/lv_draw_rect.c ****             fill_area.y1 = coords_bg.y1;
 355:lvgl/src/lv_draw/lv_draw_rect.c ****             fill_area.y2 = coords_bg.y1 + rout;
 356:lvgl/src/lv_draw/lv_draw_rect.c **** 
 357:lvgl/src/lv_draw/lv_draw_rect.c ****             _lv_blend_fill(clip, &fill_area,
 358:lvgl/src/lv_draw/lv_draw_rect.c ****                            dsc->bg_color, NULL, LV_DRAW_MASK_RES_FULL_COVER, opa, dsc->bg_blend_mod
 359:lvgl/src/lv_draw/lv_draw_rect.c **** 
 360:lvgl/src/lv_draw/lv_draw_rect.c ****             fill_area.y1 = coords_bg.y2 - rout;
 361:lvgl/src/lv_draw/lv_draw_rect.c ****             if(fill_area.y1 <= fill_area.y2) fill_area.y1 = fill_area.y2 + 1;    /*Avoid overdrawin
 362:lvgl/src/lv_draw/lv_draw_rect.c ****             fill_area.y2 = coords_bg.y2;
 363:lvgl/src/lv_draw/lv_draw_rect.c **** 
 364:lvgl/src/lv_draw/lv_draw_rect.c ****             _lv_blend_fill(clip, &fill_area,
 365:lvgl/src/lv_draw/lv_draw_rect.c ****                            dsc->bg_color, NULL, LV_DRAW_MASK_RES_FULL_COVER, opa, dsc->bg_blend_mod
 366:lvgl/src/lv_draw/lv_draw_rect.c **** 
 367:lvgl/src/lv_draw/lv_draw_rect.c ****             fill_area.x1 = coords_bg.x1;
 368:lvgl/src/lv_draw/lv_draw_rect.c ****             fill_area.x2 = coords_bg.x2;
 369:lvgl/src/lv_draw/lv_draw_rect.c ****             fill_area.y1 = coords_bg.y1 + rout + 1;
 370:lvgl/src/lv_draw/lv_draw_rect.c ****             fill_area.y2 = coords_bg.y2 - rout - 1;
 371:lvgl/src/lv_draw/lv_draw_rect.c **** 
 372:lvgl/src/lv_draw/lv_draw_rect.c ****             _lv_blend_fill(clip, &fill_area,
ARM GAS  D:\Temp\ccGEpo4V.s 			page 8


 373:lvgl/src/lv_draw/lv_draw_rect.c ****                            dsc->bg_color, NULL, LV_DRAW_MASK_RES_FULL_COVER, opa, dsc->bg_blend_mod
 374:lvgl/src/lv_draw/lv_draw_rect.c **** 
 375:lvgl/src/lv_draw/lv_draw_rect.c ****         }
 376:lvgl/src/lv_draw/lv_draw_rect.c **** 
 377:lvgl/src/lv_draw/lv_draw_rect.c ****         if(grad_map) _lv_mem_buf_release(grad_map);
 378:lvgl/src/lv_draw/lv_draw_rect.c ****     }
 379:lvgl/src/lv_draw/lv_draw_rect.c **** 
 380:lvgl/src/lv_draw/lv_draw_rect.c ****     lv_draw_mask_remove_id(mask_rout_id);
 381:lvgl/src/lv_draw/lv_draw_rect.c **** 
 382:lvgl/src/lv_draw/lv_draw_rect.c ****     _lv_mem_buf_release(mask_buf);
 383:lvgl/src/lv_draw/lv_draw_rect.c **** 
 384:lvgl/src/lv_draw/lv_draw_rect.c **** }
 385:lvgl/src/lv_draw/lv_draw_rect.c **** 
 386:lvgl/src/lv_draw/lv_draw_rect.c **** LV_ATTRIBUTE_FAST_MEM static void draw_border(const lv_area_t * coords, const lv_area_t * clip,
 387:lvgl/src/lv_draw/lv_draw_rect.c ****                                               const lv_draw_rect_dsc_t * dsc)
 388:lvgl/src/lv_draw/lv_draw_rect.c **** {
 389:lvgl/src/lv_draw/lv_draw_rect.c ****     if(dsc->border_opa <= LV_OPA_MIN) return;
 390:lvgl/src/lv_draw/lv_draw_rect.c ****     if(dsc->border_width == 0) return;
 391:lvgl/src/lv_draw/lv_draw_rect.c ****     if(dsc->border_side == LV_BORDER_SIDE_NONE) return;
 392:lvgl/src/lv_draw/lv_draw_rect.c ****     if(dsc->border_post) return;
 393:lvgl/src/lv_draw/lv_draw_rect.c **** 
 394:lvgl/src/lv_draw/lv_draw_rect.c ****     int32_t coords_w = lv_area_get_width(coords);
 395:lvgl/src/lv_draw/lv_draw_rect.c ****     int32_t coords_h = lv_area_get_height(coords);
 396:lvgl/src/lv_draw/lv_draw_rect.c **** 
 397:lvgl/src/lv_draw/lv_draw_rect.c ****     /*Get the real radius*/
 398:lvgl/src/lv_draw/lv_draw_rect.c ****     int32_t rout = dsc->radius;
 399:lvgl/src/lv_draw/lv_draw_rect.c ****     int32_t short_side = LV_MATH_MIN(coords_w, coords_h);
 400:lvgl/src/lv_draw/lv_draw_rect.c ****     if(rout > short_side >> 1) rout = short_side >> 1;
 401:lvgl/src/lv_draw/lv_draw_rect.c **** 
 402:lvgl/src/lv_draw/lv_draw_rect.c ****     /*Get the inner area*/
 403:lvgl/src/lv_draw/lv_draw_rect.c ****     lv_area_t area_inner;
 404:lvgl/src/lv_draw/lv_draw_rect.c ****     lv_area_copy(&area_inner, coords);
 405:lvgl/src/lv_draw/lv_draw_rect.c ****     area_inner.x1 += ((dsc->border_side & LV_BORDER_SIDE_LEFT) ? dsc->border_width : - (dsc->border
 406:lvgl/src/lv_draw/lv_draw_rect.c ****     area_inner.x2 -= ((dsc->border_side & LV_BORDER_SIDE_RIGHT) ? dsc->border_width : - (dsc->borde
 407:lvgl/src/lv_draw/lv_draw_rect.c ****     area_inner.y1 += ((dsc->border_side & LV_BORDER_SIDE_TOP) ? dsc->border_width : - (dsc->border_
 408:lvgl/src/lv_draw/lv_draw_rect.c ****     area_inner.y2 -= ((dsc->border_side & LV_BORDER_SIDE_BOTTOM) ? dsc->border_width : - (dsc->bord
 409:lvgl/src/lv_draw/lv_draw_rect.c **** 
 410:lvgl/src/lv_draw/lv_draw_rect.c ****     if(dsc->border_side == LV_BORDER_SIDE_FULL) {
 411:lvgl/src/lv_draw/lv_draw_rect.c ****         draw_full_border(&area_inner, coords, clip, dsc->radius, false, dsc->border_color, dsc->bor
 412:lvgl/src/lv_draw/lv_draw_rect.c ****                          dsc->border_blend_mode);
 413:lvgl/src/lv_draw/lv_draw_rect.c ****     }
 414:lvgl/src/lv_draw/lv_draw_rect.c ****     else {
 415:lvgl/src/lv_draw/lv_draw_rect.c ****         lv_opa_t opa = dsc->border_opa;
 416:lvgl/src/lv_draw/lv_draw_rect.c ****         if(opa > LV_OPA_MAX) opa = LV_OPA_COVER;
 417:lvgl/src/lv_draw/lv_draw_rect.c **** 
 418:lvgl/src/lv_draw/lv_draw_rect.c ****         lv_disp_t * disp    = _lv_refr_get_disp_refreshing();
 419:lvgl/src/lv_draw/lv_draw_rect.c ****         lv_disp_buf_t * vdb = lv_disp_get_buf(disp);
 420:lvgl/src/lv_draw/lv_draw_rect.c **** 
 421:lvgl/src/lv_draw/lv_draw_rect.c ****         /* Get clipped fill area which is the real draw area.
 422:lvgl/src/lv_draw/lv_draw_rect.c ****          * It is always the same or inside `fill_area` */
 423:lvgl/src/lv_draw/lv_draw_rect.c ****         lv_area_t draw_area;
 424:lvgl/src/lv_draw/lv_draw_rect.c ****         bool is_common;
 425:lvgl/src/lv_draw/lv_draw_rect.c ****         is_common = _lv_area_intersect(&draw_area, coords, clip);
 426:lvgl/src/lv_draw/lv_draw_rect.c ****         if(is_common == false) return;
 427:lvgl/src/lv_draw/lv_draw_rect.c **** 
 428:lvgl/src/lv_draw/lv_draw_rect.c ****         const lv_area_t * disp_area = &vdb->area;
 429:lvgl/src/lv_draw/lv_draw_rect.c **** 
ARM GAS  D:\Temp\ccGEpo4V.s 			page 9


 430:lvgl/src/lv_draw/lv_draw_rect.c ****         /* Now `draw_area` has absolute coordinates.
 431:lvgl/src/lv_draw/lv_draw_rect.c ****          * Make it relative to `disp_area` to simplify draw to `disp_buf`*/
 432:lvgl/src/lv_draw/lv_draw_rect.c ****         draw_area.x1 -= disp_area->x1;
 433:lvgl/src/lv_draw/lv_draw_rect.c ****         draw_area.y1 -= disp_area->y1;
 434:lvgl/src/lv_draw/lv_draw_rect.c ****         draw_area.x2 -= disp_area->x1;
 435:lvgl/src/lv_draw/lv_draw_rect.c ****         draw_area.y2 -= disp_area->y1;
 436:lvgl/src/lv_draw/lv_draw_rect.c **** 
 437:lvgl/src/lv_draw/lv_draw_rect.c ****         int32_t draw_area_w = lv_area_get_width(&draw_area);
 438:lvgl/src/lv_draw/lv_draw_rect.c **** 
 439:lvgl/src/lv_draw/lv_draw_rect.c ****         /*Create a mask if there is a radius*/
 440:lvgl/src/lv_draw/lv_draw_rect.c ****         lv_opa_t * mask_buf = _lv_mem_buf_get(draw_area_w);
 441:lvgl/src/lv_draw/lv_draw_rect.c **** 
 442:lvgl/src/lv_draw/lv_draw_rect.c ****         /*Create mask for the outer area*/
 443:lvgl/src/lv_draw/lv_draw_rect.c ****         int16_t mask_rout_id = LV_MASK_ID_INV;
 444:lvgl/src/lv_draw/lv_draw_rect.c ****         lv_draw_mask_radius_param_t mask_rout_param;
 445:lvgl/src/lv_draw/lv_draw_rect.c ****         if(rout > 0) {
 446:lvgl/src/lv_draw/lv_draw_rect.c ****             lv_draw_mask_radius_init(&mask_rout_param, coords, rout, false);
 447:lvgl/src/lv_draw/lv_draw_rect.c ****             mask_rout_id = lv_draw_mask_add(&mask_rout_param, NULL);
 448:lvgl/src/lv_draw/lv_draw_rect.c ****         }
 449:lvgl/src/lv_draw/lv_draw_rect.c **** 
 450:lvgl/src/lv_draw/lv_draw_rect.c ****         /*Create mask for the inner mask*/
 451:lvgl/src/lv_draw/lv_draw_rect.c ****         int32_t rin = rout - dsc->border_width;
 452:lvgl/src/lv_draw/lv_draw_rect.c ****         if(rin < 0) rin = 0;
 453:lvgl/src/lv_draw/lv_draw_rect.c ****         lv_draw_mask_radius_param_t mask_rin_param;
 454:lvgl/src/lv_draw/lv_draw_rect.c ****         lv_draw_mask_radius_init(&mask_rin_param, &area_inner, rout - dsc->border_width, true);
 455:lvgl/src/lv_draw/lv_draw_rect.c ****         int16_t mask_rin_id = lv_draw_mask_add(&mask_rin_param, NULL);
 456:lvgl/src/lv_draw/lv_draw_rect.c **** 
 457:lvgl/src/lv_draw/lv_draw_rect.c ****         int32_t corner_size = LV_MATH_MAX(rout, dsc->border_width - 1);
 458:lvgl/src/lv_draw/lv_draw_rect.c **** 
 459:lvgl/src/lv_draw/lv_draw_rect.c ****         int32_t h;
 460:lvgl/src/lv_draw/lv_draw_rect.c ****         lv_draw_mask_res_t mask_res;
 461:lvgl/src/lv_draw/lv_draw_rect.c ****         lv_area_t fill_area;
 462:lvgl/src/lv_draw/lv_draw_rect.c **** 
 463:lvgl/src/lv_draw/lv_draw_rect.c ****         lv_color_t color = dsc->border_color;
 464:lvgl/src/lv_draw/lv_draw_rect.c ****         lv_blend_mode_t blend_mode = dsc->border_blend_mode;
 465:lvgl/src/lv_draw/lv_draw_rect.c **** 
 466:lvgl/src/lv_draw/lv_draw_rect.c ****         fill_area.x1 = coords->x1;
 467:lvgl/src/lv_draw/lv_draw_rect.c ****         fill_area.x2 = coords->x2;
 468:lvgl/src/lv_draw/lv_draw_rect.c ****         fill_area.y1 = disp_area->y1 + draw_area.y1;
 469:lvgl/src/lv_draw/lv_draw_rect.c ****         fill_area.y2 = fill_area.y1;
 470:lvgl/src/lv_draw/lv_draw_rect.c **** 
 471:lvgl/src/lv_draw/lv_draw_rect.c ****         uint32_t buf_ofs = 0;
 472:lvgl/src/lv_draw/lv_draw_rect.c ****         if(dsc->border_side == LV_BORDER_SIDE_LEFT) fill_area.x2 = coords->x1 + corner_size;
 473:lvgl/src/lv_draw/lv_draw_rect.c ****         else if(dsc->border_side == LV_BORDER_SIDE_RIGHT) {
 474:lvgl/src/lv_draw/lv_draw_rect.c ****             fill_area.x1 = coords->x2 - corner_size;
 475:lvgl/src/lv_draw/lv_draw_rect.c ****             buf_ofs = fill_area.x1 - coords->x1;
 476:lvgl/src/lv_draw/lv_draw_rect.c ****         }
 477:lvgl/src/lv_draw/lv_draw_rect.c **** 
 478:lvgl/src/lv_draw/lv_draw_rect.c ****         volatile bool top_only = false;
 479:lvgl/src/lv_draw/lv_draw_rect.c ****         volatile bool bottom_only = false;
 480:lvgl/src/lv_draw/lv_draw_rect.c ****         if(dsc->border_side == LV_BORDER_SIDE_TOP) top_only = true;
 481:lvgl/src/lv_draw/lv_draw_rect.c ****         if(dsc->border_side == LV_BORDER_SIDE_BOTTOM) bottom_only = true;
 482:lvgl/src/lv_draw/lv_draw_rect.c ****         if(dsc->border_side == (LV_BORDER_SIDE_TOP | LV_BORDER_SIDE_BOTTOM)) {
 483:lvgl/src/lv_draw/lv_draw_rect.c ****             top_only = true;
 484:lvgl/src/lv_draw/lv_draw_rect.c ****             bottom_only = true;
 485:lvgl/src/lv_draw/lv_draw_rect.c ****         }
 486:lvgl/src/lv_draw/lv_draw_rect.c **** 
ARM GAS  D:\Temp\ccGEpo4V.s 			page 10


 487:lvgl/src/lv_draw/lv_draw_rect.c ****         volatile bool normal = !top_only && !bottom_only ? true : false;
 488:lvgl/src/lv_draw/lv_draw_rect.c **** 
 489:lvgl/src/lv_draw/lv_draw_rect.c ****         for(h = draw_area.y1; h <= draw_area.y2; h++) {
 490:lvgl/src/lv_draw/lv_draw_rect.c ****             if(normal ||
 491:lvgl/src/lv_draw/lv_draw_rect.c ****                (top_only && fill_area.y1 <= coords->y1 + corner_size) ||
 492:lvgl/src/lv_draw/lv_draw_rect.c ****                (bottom_only && fill_area.y1 >= coords->y2 - corner_size)) {
 493:lvgl/src/lv_draw/lv_draw_rect.c ****                 _lv_memset_ff(mask_buf, draw_area_w);
 494:lvgl/src/lv_draw/lv_draw_rect.c ****                 mask_res = lv_draw_mask_apply(mask_buf, vdb->area.x1 + draw_area.x1, vdb->area.y1 +
 495:lvgl/src/lv_draw/lv_draw_rect.c ****                 _lv_blend_fill(clip, &fill_area, color, mask_buf + buf_ofs, mask_res, opa, blend_mo
 496:lvgl/src/lv_draw/lv_draw_rect.c ****             }
 497:lvgl/src/lv_draw/lv_draw_rect.c ****             fill_area.y1++;
 498:lvgl/src/lv_draw/lv_draw_rect.c ****             fill_area.y2++;
 499:lvgl/src/lv_draw/lv_draw_rect.c **** 
 500:lvgl/src/lv_draw/lv_draw_rect.c ****         }
 501:lvgl/src/lv_draw/lv_draw_rect.c ****         lv_draw_mask_remove_id(mask_rin_id);
 502:lvgl/src/lv_draw/lv_draw_rect.c ****         lv_draw_mask_remove_id(mask_rout_id);
 503:lvgl/src/lv_draw/lv_draw_rect.c ****         _lv_mem_buf_release(mask_buf);
 504:lvgl/src/lv_draw/lv_draw_rect.c ****     }
 505:lvgl/src/lv_draw/lv_draw_rect.c **** }
 506:lvgl/src/lv_draw/lv_draw_rect.c **** 
 507:lvgl/src/lv_draw/lv_draw_rect.c **** LV_ATTRIBUTE_FAST_MEM static inline lv_color_t grad_get(const lv_draw_rect_dsc_t * dsc, lv_coord_t 
 508:lvgl/src/lv_draw/lv_draw_rect.c **** {
 509:lvgl/src/lv_draw/lv_draw_rect.c ****     int32_t min = (dsc->bg_main_color_stop * s) >> 8;
 510:lvgl/src/lv_draw/lv_draw_rect.c ****     if(i <= min) return dsc->bg_color;
 511:lvgl/src/lv_draw/lv_draw_rect.c **** 
 512:lvgl/src/lv_draw/lv_draw_rect.c ****     int32_t max = (dsc->bg_grad_color_stop * s) >> 8;
 513:lvgl/src/lv_draw/lv_draw_rect.c ****     if(i >= max) return dsc->bg_grad_color;
 514:lvgl/src/lv_draw/lv_draw_rect.c **** 
 515:lvgl/src/lv_draw/lv_draw_rect.c ****     int32_t d = dsc->bg_grad_color_stop - dsc->bg_main_color_stop;
 516:lvgl/src/lv_draw/lv_draw_rect.c ****     d = (s * d) >> 8;
 517:lvgl/src/lv_draw/lv_draw_rect.c ****     i -= min;
 518:lvgl/src/lv_draw/lv_draw_rect.c ****     lv_opa_t mix = (i * 255) / d;
 519:lvgl/src/lv_draw/lv_draw_rect.c ****     return lv_color_mix(dsc->bg_grad_color, dsc->bg_color, mix);
 520:lvgl/src/lv_draw/lv_draw_rect.c **** }
 521:lvgl/src/lv_draw/lv_draw_rect.c **** 
 522:lvgl/src/lv_draw/lv_draw_rect.c **** #if LV_USE_SHADOW
 523:lvgl/src/lv_draw/lv_draw_rect.c **** LV_ATTRIBUTE_FAST_MEM static void draw_shadow(const lv_area_t * coords, const lv_area_t * clip,
 524:lvgl/src/lv_draw/lv_draw_rect.c ****                                               const lv_draw_rect_dsc_t * dsc)
 525:lvgl/src/lv_draw/lv_draw_rect.c **** {
 526:lvgl/src/lv_draw/lv_draw_rect.c ****     /*Check whether the shadow is visible*/
 527:lvgl/src/lv_draw/lv_draw_rect.c ****     if(dsc->shadow_width == 0) return;
 528:lvgl/src/lv_draw/lv_draw_rect.c ****     if(dsc->shadow_opa <= LV_OPA_MIN) return;
 529:lvgl/src/lv_draw/lv_draw_rect.c **** 
 530:lvgl/src/lv_draw/lv_draw_rect.c ****     if(dsc->shadow_width == 1 && dsc->shadow_ofs_x == 0 &&
 531:lvgl/src/lv_draw/lv_draw_rect.c ****        dsc->shadow_ofs_y == 0 && dsc->shadow_spread <= 0) {
 532:lvgl/src/lv_draw/lv_draw_rect.c ****         return;
 533:lvgl/src/lv_draw/lv_draw_rect.c ****     }
 534:lvgl/src/lv_draw/lv_draw_rect.c **** 
 535:lvgl/src/lv_draw/lv_draw_rect.c ****     int32_t sw = dsc->shadow_width;
 536:lvgl/src/lv_draw/lv_draw_rect.c **** 
 537:lvgl/src/lv_draw/lv_draw_rect.c ****     lv_area_t sh_rect_area;
 538:lvgl/src/lv_draw/lv_draw_rect.c ****     sh_rect_area.x1 = coords->x1  + dsc->shadow_ofs_x - dsc->shadow_spread;
 539:lvgl/src/lv_draw/lv_draw_rect.c ****     sh_rect_area.x2 = coords->x2  + dsc->shadow_ofs_x + dsc->shadow_spread;
 540:lvgl/src/lv_draw/lv_draw_rect.c ****     sh_rect_area.y1 = coords->y1  + dsc->shadow_ofs_y - dsc->shadow_spread;
 541:lvgl/src/lv_draw/lv_draw_rect.c ****     sh_rect_area.y2 = coords->y2  + dsc->shadow_ofs_y + dsc->shadow_spread;
 542:lvgl/src/lv_draw/lv_draw_rect.c **** 
 543:lvgl/src/lv_draw/lv_draw_rect.c ****     lv_area_t sh_area;
ARM GAS  D:\Temp\ccGEpo4V.s 			page 11


 544:lvgl/src/lv_draw/lv_draw_rect.c ****     sh_area.x1 = sh_rect_area.x1 - sw / 2 - 1;
 545:lvgl/src/lv_draw/lv_draw_rect.c ****     sh_area.x2 = sh_rect_area.x2 + sw / 2 + 1;
 546:lvgl/src/lv_draw/lv_draw_rect.c ****     sh_area.y1 = sh_rect_area.y1 - sw / 2 - 1;
 547:lvgl/src/lv_draw/lv_draw_rect.c ****     sh_area.y2 = sh_rect_area.y2 + sw / 2 + 1;
 548:lvgl/src/lv_draw/lv_draw_rect.c **** 
 549:lvgl/src/lv_draw/lv_draw_rect.c ****     lv_opa_t opa = dsc->shadow_opa;
 550:lvgl/src/lv_draw/lv_draw_rect.c **** 
 551:lvgl/src/lv_draw/lv_draw_rect.c ****     if(opa > LV_OPA_MAX) opa = LV_OPA_COVER;
 552:lvgl/src/lv_draw/lv_draw_rect.c **** 
 553:lvgl/src/lv_draw/lv_draw_rect.c ****     lv_disp_t * disp    = _lv_refr_get_disp_refreshing();
 554:lvgl/src/lv_draw/lv_draw_rect.c ****     lv_disp_buf_t * vdb = lv_disp_get_buf(disp);
 555:lvgl/src/lv_draw/lv_draw_rect.c **** 
 556:lvgl/src/lv_draw/lv_draw_rect.c ****     /* Get clipped fill area which is the real draw area.
 557:lvgl/src/lv_draw/lv_draw_rect.c ****      * It is always the same or inside `fill_area` */
 558:lvgl/src/lv_draw/lv_draw_rect.c ****     lv_area_t draw_area;
 559:lvgl/src/lv_draw/lv_draw_rect.c ****     bool is_common;
 560:lvgl/src/lv_draw/lv_draw_rect.c ****     is_common = _lv_area_intersect(&draw_area, &sh_area, clip);
 561:lvgl/src/lv_draw/lv_draw_rect.c ****     if(is_common == false) return;
 562:lvgl/src/lv_draw/lv_draw_rect.c **** 
 563:lvgl/src/lv_draw/lv_draw_rect.c ****     const lv_area_t * disp_area = &vdb->area;
 564:lvgl/src/lv_draw/lv_draw_rect.c **** 
 565:lvgl/src/lv_draw/lv_draw_rect.c ****     /* Now `draw_area` has absolute coordinates.
 566:lvgl/src/lv_draw/lv_draw_rect.c ****      * Make it relative to `disp_area` to simplify draw to `disp_buf`*/
 567:lvgl/src/lv_draw/lv_draw_rect.c ****     draw_area.x1 -= disp_area->x1;
 568:lvgl/src/lv_draw/lv_draw_rect.c ****     draw_area.y1 -= disp_area->y1;
 569:lvgl/src/lv_draw/lv_draw_rect.c ****     draw_area.x2 -= disp_area->x1;
 570:lvgl/src/lv_draw/lv_draw_rect.c ****     draw_area.y2 -= disp_area->y1;
 571:lvgl/src/lv_draw/lv_draw_rect.c **** 
 572:lvgl/src/lv_draw/lv_draw_rect.c ****     /*Consider 1 px smaller bg to be sure the edge will be covered by the shadow*/
 573:lvgl/src/lv_draw/lv_draw_rect.c ****     lv_area_t bg_coords;
 574:lvgl/src/lv_draw/lv_draw_rect.c ****     lv_area_copy(&bg_coords, coords);
 575:lvgl/src/lv_draw/lv_draw_rect.c ****     bg_coords.x1 += 1;
 576:lvgl/src/lv_draw/lv_draw_rect.c ****     bg_coords.y1 += 1;
 577:lvgl/src/lv_draw/lv_draw_rect.c ****     bg_coords.x2 -= 1;
 578:lvgl/src/lv_draw/lv_draw_rect.c ****     bg_coords.y2 -= 1;
 579:lvgl/src/lv_draw/lv_draw_rect.c **** 
 580:lvgl/src/lv_draw/lv_draw_rect.c ****     /*Get the real radius*/
 581:lvgl/src/lv_draw/lv_draw_rect.c ****     int32_t r_bg = dsc->radius;
 582:lvgl/src/lv_draw/lv_draw_rect.c ****     int32_t short_side = LV_MATH_MIN(lv_area_get_width(&bg_coords), lv_area_get_height(&bg_coords))
 583:lvgl/src/lv_draw/lv_draw_rect.c ****     if(r_bg > short_side >> 1) r_bg = short_side >> 1;
 584:lvgl/src/lv_draw/lv_draw_rect.c **** 
 585:lvgl/src/lv_draw/lv_draw_rect.c ****     int32_t r_sh = dsc->radius;
 586:lvgl/src/lv_draw/lv_draw_rect.c ****     short_side = LV_MATH_MIN(lv_area_get_width(&sh_rect_area), lv_area_get_height(&sh_rect_area));
 587:lvgl/src/lv_draw/lv_draw_rect.c ****     if(r_sh > short_side >> 1) r_sh = short_side >> 1;
 588:lvgl/src/lv_draw/lv_draw_rect.c **** 
 589:lvgl/src/lv_draw/lv_draw_rect.c ****     int32_t corner_size = sw  + r_sh;
 590:lvgl/src/lv_draw/lv_draw_rect.c **** 
 591:lvgl/src/lv_draw/lv_draw_rect.c ****     lv_opa_t * sh_buf;
 592:lvgl/src/lv_draw/lv_draw_rect.c **** 
 593:lvgl/src/lv_draw/lv_draw_rect.c **** #if LV_SHADOW_CACHE_SIZE
 594:lvgl/src/lv_draw/lv_draw_rect.c ****     if(sh_cache_size == corner_size && sh_cache_r == r_sh) {
 595:lvgl/src/lv_draw/lv_draw_rect.c ****         /*Use the cache if available*/
 596:lvgl/src/lv_draw/lv_draw_rect.c ****         sh_buf = _lv_mem_buf_get(corner_size * corner_size);
 597:lvgl/src/lv_draw/lv_draw_rect.c ****         _lv_memcpy(sh_buf, sh_cache, corner_size * corner_size);
 598:lvgl/src/lv_draw/lv_draw_rect.c ****     }
 599:lvgl/src/lv_draw/lv_draw_rect.c ****     else {
 600:lvgl/src/lv_draw/lv_draw_rect.c ****         /*A larger buffer is required for calculation */
ARM GAS  D:\Temp\ccGEpo4V.s 			page 12


 601:lvgl/src/lv_draw/lv_draw_rect.c ****         sh_buf = _lv_mem_buf_get(corner_size * corner_size * sizeof(uint16_t));
 602:lvgl/src/lv_draw/lv_draw_rect.c ****         shadow_draw_corner_buf(&sh_rect_area, (uint16_t *)sh_buf, dsc->shadow_width, r_sh);
 603:lvgl/src/lv_draw/lv_draw_rect.c **** 
 604:lvgl/src/lv_draw/lv_draw_rect.c ****         /*Cache the corner if it fits into the cache size*/
 605:lvgl/src/lv_draw/lv_draw_rect.c ****         if(corner_size * corner_size < sizeof(sh_cache)) {
 606:lvgl/src/lv_draw/lv_draw_rect.c ****             _lv_memcpy(sh_cache, sh_buf, corner_size * corner_size);
 607:lvgl/src/lv_draw/lv_draw_rect.c ****             sh_cache_size = corner_size;
 608:lvgl/src/lv_draw/lv_draw_rect.c ****             sh_cache_r = r_sh;
 609:lvgl/src/lv_draw/lv_draw_rect.c ****         }
 610:lvgl/src/lv_draw/lv_draw_rect.c ****     }
 611:lvgl/src/lv_draw/lv_draw_rect.c **** #else
 612:lvgl/src/lv_draw/lv_draw_rect.c ****     sh_buf = _lv_mem_buf_get(corner_size * corner_size * sizeof(uint16_t));
 613:lvgl/src/lv_draw/lv_draw_rect.c ****     shadow_draw_corner_buf(&sh_rect_area, (uint16_t *)sh_buf, dsc->shadow_width, r_sh);
 614:lvgl/src/lv_draw/lv_draw_rect.c **** #endif
 615:lvgl/src/lv_draw/lv_draw_rect.c **** 
 616:lvgl/src/lv_draw/lv_draw_rect.c ****     lv_coord_t h_half = sh_area.y1 + lv_area_get_height(&sh_area) / 2;
 617:lvgl/src/lv_draw/lv_draw_rect.c ****     lv_coord_t w_half = sh_area.x1 + lv_area_get_width(&sh_area) / 2;
 618:lvgl/src/lv_draw/lv_draw_rect.c **** 
 619:lvgl/src/lv_draw/lv_draw_rect.c ****     bool simple_mode = true;
 620:lvgl/src/lv_draw/lv_draw_rect.c ****     if(lv_draw_mask_get_cnt() > 0) simple_mode = false;
 621:lvgl/src/lv_draw/lv_draw_rect.c ****     else if(dsc->shadow_ofs_x != 0 || dsc->shadow_ofs_y != 0) simple_mode = false;
 622:lvgl/src/lv_draw/lv_draw_rect.c ****     else if(dsc->shadow_spread != 0) simple_mode = false;
 623:lvgl/src/lv_draw/lv_draw_rect.c **** 
 624:lvgl/src/lv_draw/lv_draw_rect.c ****     /*Create a mask*/
 625:lvgl/src/lv_draw/lv_draw_rect.c ****     lv_draw_mask_res_t mask_res;
 626:lvgl/src/lv_draw/lv_draw_rect.c ****     lv_opa_t * mask_buf = _lv_mem_buf_get(lv_area_get_width(&sh_area));
 627:lvgl/src/lv_draw/lv_draw_rect.c **** 
 628:lvgl/src/lv_draw/lv_draw_rect.c ****     lv_draw_mask_radius_param_t mask_rout_param;
 629:lvgl/src/lv_draw/lv_draw_rect.c ****     lv_draw_mask_radius_init(&mask_rout_param, &bg_coords, r_bg, true);
 630:lvgl/src/lv_draw/lv_draw_rect.c **** 
 631:lvgl/src/lv_draw/lv_draw_rect.c ****     int16_t mask_rout_id = lv_draw_mask_add(&mask_rout_param, NULL);
 632:lvgl/src/lv_draw/lv_draw_rect.c **** 
 633:lvgl/src/lv_draw/lv_draw_rect.c ****     lv_area_t a;
 634:lvgl/src/lv_draw/lv_draw_rect.c **** 
 635:lvgl/src/lv_draw/lv_draw_rect.c ****     /*Draw the top right corner*/
 636:lvgl/src/lv_draw/lv_draw_rect.c ****     int32_t y;
 637:lvgl/src/lv_draw/lv_draw_rect.c ****     lv_opa_t * sh_buf_tmp;
 638:lvgl/src/lv_draw/lv_draw_rect.c ****     a.x2 = sh_area.x2;
 639:lvgl/src/lv_draw/lv_draw_rect.c ****     a.x1 = a.x2 - corner_size + 1;
 640:lvgl/src/lv_draw/lv_draw_rect.c ****     a.y1 = sh_area.y1;
 641:lvgl/src/lv_draw/lv_draw_rect.c ****     a.y2 = a.y1 + corner_size - 1;
 642:lvgl/src/lv_draw/lv_draw_rect.c **** 
 643:lvgl/src/lv_draw/lv_draw_rect.c ****     lv_area_t ca;
 644:lvgl/src/lv_draw/lv_draw_rect.c ****     bool has_com = _lv_area_intersect(&ca, &a, clip);
 645:lvgl/src/lv_draw/lv_draw_rect.c ****     if(has_com && _lv_area_is_in(&a, &bg_coords, r_bg) == false) {
 646:lvgl/src/lv_draw/lv_draw_rect.c ****         /*Avoid overlap in the middle with large radius*/
 647:lvgl/src/lv_draw/lv_draw_rect.c ****         if(ca.y2 > h_half) ca.y2 = h_half;
 648:lvgl/src/lv_draw/lv_draw_rect.c ****         if(ca.x1 <= w_half) ca.x1 = w_half + 1;
 649:lvgl/src/lv_draw/lv_draw_rect.c **** 
 650:lvgl/src/lv_draw/lv_draw_rect.c ****         lv_coord_t h = lv_area_get_height(&ca);
 651:lvgl/src/lv_draw/lv_draw_rect.c ****         lv_coord_t w = lv_area_get_width(&ca);
 652:lvgl/src/lv_draw/lv_draw_rect.c ****         if(w > 0) {
 653:lvgl/src/lv_draw/lv_draw_rect.c ****             sh_buf_tmp = sh_buf + (ca.x1 - a.x1);
 654:lvgl/src/lv_draw/lv_draw_rect.c ****             sh_buf_tmp += corner_size * (ca.y1 - a.y1);
 655:lvgl/src/lv_draw/lv_draw_rect.c **** 
 656:lvgl/src/lv_draw/lv_draw_rect.c ****             lv_area_t fa;
 657:lvgl/src/lv_draw/lv_draw_rect.c ****             lv_area_copy(&fa, &ca);
ARM GAS  D:\Temp\ccGEpo4V.s 			page 13


 658:lvgl/src/lv_draw/lv_draw_rect.c ****             fa.y2 = fa.y1;
 659:lvgl/src/lv_draw/lv_draw_rect.c **** 
 660:lvgl/src/lv_draw/lv_draw_rect.c ****             for(y = 0; y < h; y++) {
 661:lvgl/src/lv_draw/lv_draw_rect.c ****                 _lv_memcpy(mask_buf, sh_buf_tmp, w);
 662:lvgl/src/lv_draw/lv_draw_rect.c ****                 mask_res = lv_draw_mask_apply(mask_buf, fa.x1, fa.y1, w);
 663:lvgl/src/lv_draw/lv_draw_rect.c ****                 if(mask_res == LV_DRAW_MASK_RES_FULL_COVER) mask_res = LV_DRAW_MASK_RES_CHANGED;
 664:lvgl/src/lv_draw/lv_draw_rect.c **** 
 665:lvgl/src/lv_draw/lv_draw_rect.c ****                 _lv_blend_fill(clip, &fa, dsc->shadow_color, mask_buf,
 666:lvgl/src/lv_draw/lv_draw_rect.c ****                                mask_res, opa, dsc->shadow_blend_mode);
 667:lvgl/src/lv_draw/lv_draw_rect.c ****                 fa.y1++;
 668:lvgl/src/lv_draw/lv_draw_rect.c ****                 fa.y2++;
 669:lvgl/src/lv_draw/lv_draw_rect.c ****                 sh_buf_tmp += corner_size;
 670:lvgl/src/lv_draw/lv_draw_rect.c ****             }
 671:lvgl/src/lv_draw/lv_draw_rect.c ****         }
 672:lvgl/src/lv_draw/lv_draw_rect.c ****     }
 673:lvgl/src/lv_draw/lv_draw_rect.c **** 
 674:lvgl/src/lv_draw/lv_draw_rect.c ****     /*Draw the bottom right corner*/
 675:lvgl/src/lv_draw/lv_draw_rect.c ****     a.x2 = sh_area.x2;
 676:lvgl/src/lv_draw/lv_draw_rect.c ****     a.x1 = a.x2 - corner_size + 1;
 677:lvgl/src/lv_draw/lv_draw_rect.c ****     a.y1 = sh_area.y2 - corner_size + 1;
 678:lvgl/src/lv_draw/lv_draw_rect.c ****     a.y2 = sh_area.y2;
 679:lvgl/src/lv_draw/lv_draw_rect.c **** 
 680:lvgl/src/lv_draw/lv_draw_rect.c ****     has_com = _lv_area_intersect(&ca, &a, clip);
 681:lvgl/src/lv_draw/lv_draw_rect.c ****     if(has_com && _lv_area_is_in(&a, &bg_coords, r_bg) == false) {
 682:lvgl/src/lv_draw/lv_draw_rect.c ****         /*Avoid overlap in the middle with large radius*/
 683:lvgl/src/lv_draw/lv_draw_rect.c ****         if(ca.y1 <= h_half) ca.y1 = h_half + 1;
 684:lvgl/src/lv_draw/lv_draw_rect.c ****         if(ca.x1 <= w_half) ca.x1 = w_half + 1;
 685:lvgl/src/lv_draw/lv_draw_rect.c **** 
 686:lvgl/src/lv_draw/lv_draw_rect.c ****         lv_coord_t h = lv_area_get_height(&ca);
 687:lvgl/src/lv_draw/lv_draw_rect.c ****         lv_coord_t w = lv_area_get_width(&ca);
 688:lvgl/src/lv_draw/lv_draw_rect.c **** 
 689:lvgl/src/lv_draw/lv_draw_rect.c ****         if(w > 0) {
 690:lvgl/src/lv_draw/lv_draw_rect.c ****             sh_buf_tmp = sh_buf + (ca.x1 - a.x1);
 691:lvgl/src/lv_draw/lv_draw_rect.c ****             sh_buf_tmp += corner_size * (a.y2 - ca.y2);
 692:lvgl/src/lv_draw/lv_draw_rect.c **** 
 693:lvgl/src/lv_draw/lv_draw_rect.c ****             lv_area_t fa;
 694:lvgl/src/lv_draw/lv_draw_rect.c ****             lv_area_copy(&fa, &ca);
 695:lvgl/src/lv_draw/lv_draw_rect.c ****             fa.y1 = fa.y2;    /*Fill from bottom to top*/
 696:lvgl/src/lv_draw/lv_draw_rect.c **** 
 697:lvgl/src/lv_draw/lv_draw_rect.c ****             for(y = 0; y < h; y++) {
 698:lvgl/src/lv_draw/lv_draw_rect.c ****                 _lv_memcpy(mask_buf, sh_buf_tmp, w);
 699:lvgl/src/lv_draw/lv_draw_rect.c ****                 mask_res = lv_draw_mask_apply(mask_buf, fa.x1, fa.y1, w);
 700:lvgl/src/lv_draw/lv_draw_rect.c ****                 if(mask_res == LV_DRAW_MASK_RES_FULL_COVER) mask_res = LV_DRAW_MASK_RES_CHANGED;
 701:lvgl/src/lv_draw/lv_draw_rect.c **** 
 702:lvgl/src/lv_draw/lv_draw_rect.c ****                 _lv_blend_fill(clip, &fa, dsc->shadow_color, mask_buf,
 703:lvgl/src/lv_draw/lv_draw_rect.c ****                                mask_res, opa, dsc->shadow_blend_mode);
 704:lvgl/src/lv_draw/lv_draw_rect.c ****                 fa.y1--;
 705:lvgl/src/lv_draw/lv_draw_rect.c ****                 fa.y2--;
 706:lvgl/src/lv_draw/lv_draw_rect.c ****                 sh_buf_tmp += corner_size;
 707:lvgl/src/lv_draw/lv_draw_rect.c ****             }
 708:lvgl/src/lv_draw/lv_draw_rect.c ****         }
 709:lvgl/src/lv_draw/lv_draw_rect.c ****     }
 710:lvgl/src/lv_draw/lv_draw_rect.c **** 
 711:lvgl/src/lv_draw/lv_draw_rect.c ****     /*Fill the right side*/
 712:lvgl/src/lv_draw/lv_draw_rect.c ****     a.x2 = sh_area.x2;
 713:lvgl/src/lv_draw/lv_draw_rect.c ****     a.x1 = a.x2 - corner_size + 1;
 714:lvgl/src/lv_draw/lv_draw_rect.c ****     a.y1 = sh_area.y1 + corner_size;
ARM GAS  D:\Temp\ccGEpo4V.s 			page 14


 715:lvgl/src/lv_draw/lv_draw_rect.c ****     a.y2 = sh_area.y2 - corner_size;
 716:lvgl/src/lv_draw/lv_draw_rect.c **** 
 717:lvgl/src/lv_draw/lv_draw_rect.c ****     has_com = _lv_area_intersect(&ca, &a, clip);
 718:lvgl/src/lv_draw/lv_draw_rect.c ****     if(has_com && _lv_area_is_in(&a, &bg_coords, r_bg) == false) {
 719:lvgl/src/lv_draw/lv_draw_rect.c ****         if(simple_mode) ca.x1 = LV_MATH_MAX(ca.x1, coords->x2);
 720:lvgl/src/lv_draw/lv_draw_rect.c ****         /*Draw horizontal lines*/
 721:lvgl/src/lv_draw/lv_draw_rect.c ****         lv_coord_t w = lv_area_get_width(&ca);
 722:lvgl/src/lv_draw/lv_draw_rect.c ****         if(w > 0) {
 723:lvgl/src/lv_draw/lv_draw_rect.c ****             lv_coord_t h = lv_area_get_height(&ca);
 724:lvgl/src/lv_draw/lv_draw_rect.c **** 
 725:lvgl/src/lv_draw/lv_draw_rect.c ****             /*The last line of the shadow is repeated on the side*/
 726:lvgl/src/lv_draw/lv_draw_rect.c ****             sh_buf_tmp = sh_buf + corner_size * (corner_size - 1);
 727:lvgl/src/lv_draw/lv_draw_rect.c ****             sh_buf_tmp += ca.x1 - a.x1;
 728:lvgl/src/lv_draw/lv_draw_rect.c **** 
 729:lvgl/src/lv_draw/lv_draw_rect.c ****             lv_area_t fa;
 730:lvgl/src/lv_draw/lv_draw_rect.c ****             lv_area_copy(&fa, &ca);
 731:lvgl/src/lv_draw/lv_draw_rect.c ****             fa.y2 = fa.y1;
 732:lvgl/src/lv_draw/lv_draw_rect.c ****             mask_res = LV_DRAW_MASK_RES_FULL_COVER;
 733:lvgl/src/lv_draw/lv_draw_rect.c ****             for(y = 0; y < h; y++) {
 734:lvgl/src/lv_draw/lv_draw_rect.c ****                 _lv_memcpy(mask_buf, sh_buf_tmp, w);
 735:lvgl/src/lv_draw/lv_draw_rect.c **** 
 736:lvgl/src/lv_draw/lv_draw_rect.c ****                 if(simple_mode) {
 737:lvgl/src/lv_draw/lv_draw_rect.c ****                     mask_res = LV_DRAW_MASK_RES_CHANGED;
 738:lvgl/src/lv_draw/lv_draw_rect.c ****                 }
 739:lvgl/src/lv_draw/lv_draw_rect.c ****                 else {
 740:lvgl/src/lv_draw/lv_draw_rect.c ****                     mask_res = lv_draw_mask_apply(mask_buf, fa.x1, fa.y1, w);
 741:lvgl/src/lv_draw/lv_draw_rect.c ****                     if(mask_res == LV_DRAW_MASK_RES_FULL_COVER) mask_res = LV_DRAW_MASK_RES_CHANGED
 742:lvgl/src/lv_draw/lv_draw_rect.c ****                 }
 743:lvgl/src/lv_draw/lv_draw_rect.c **** 
 744:lvgl/src/lv_draw/lv_draw_rect.c ****                 _lv_blend_fill(clip, &fa,
 745:lvgl/src/lv_draw/lv_draw_rect.c ****                                dsc->shadow_color, mask_buf, mask_res, dsc->shadow_opa, dsc->shadow_
 746:lvgl/src/lv_draw/lv_draw_rect.c ****                 fa.y1++;
 747:lvgl/src/lv_draw/lv_draw_rect.c ****                 fa.y2++;
 748:lvgl/src/lv_draw/lv_draw_rect.c ****             }
 749:lvgl/src/lv_draw/lv_draw_rect.c ****         }
 750:lvgl/src/lv_draw/lv_draw_rect.c ****     }
 751:lvgl/src/lv_draw/lv_draw_rect.c **** 
 752:lvgl/src/lv_draw/lv_draw_rect.c ****     /*Invert the shadow corner buffer and draw the corners on the left*/
 753:lvgl/src/lv_draw/lv_draw_rect.c ****     sh_buf_tmp = sh_buf ;
 754:lvgl/src/lv_draw/lv_draw_rect.c ****     for(y = 0; y < corner_size; y++) {
 755:lvgl/src/lv_draw/lv_draw_rect.c ****         int32_t x;
 756:lvgl/src/lv_draw/lv_draw_rect.c ****         for(x = 0; x < corner_size / 2; x++) {
 757:lvgl/src/lv_draw/lv_draw_rect.c ****             lv_opa_t tmp = sh_buf_tmp[x];
 758:lvgl/src/lv_draw/lv_draw_rect.c ****             sh_buf_tmp[x] = sh_buf_tmp[corner_size - x - 1];
 759:lvgl/src/lv_draw/lv_draw_rect.c ****             sh_buf_tmp[corner_size - x - 1] = tmp;
 760:lvgl/src/lv_draw/lv_draw_rect.c ****         }
 761:lvgl/src/lv_draw/lv_draw_rect.c ****         sh_buf_tmp += corner_size;
 762:lvgl/src/lv_draw/lv_draw_rect.c ****     }
 763:lvgl/src/lv_draw/lv_draw_rect.c **** 
 764:lvgl/src/lv_draw/lv_draw_rect.c ****     /*Draw the top left corner*/
 765:lvgl/src/lv_draw/lv_draw_rect.c ****     a.x1 = sh_area.x1;
 766:lvgl/src/lv_draw/lv_draw_rect.c ****     a.x2 = a.x1 + corner_size - 1;
 767:lvgl/src/lv_draw/lv_draw_rect.c ****     a.y1 = sh_area.y1;
 768:lvgl/src/lv_draw/lv_draw_rect.c ****     a.y2 = a.y1 + corner_size - 1;
 769:lvgl/src/lv_draw/lv_draw_rect.c **** 
 770:lvgl/src/lv_draw/lv_draw_rect.c ****     has_com = _lv_area_intersect(&ca, &a, clip);
 771:lvgl/src/lv_draw/lv_draw_rect.c ****     if(has_com && _lv_area_is_in(&a, &bg_coords, r_bg) == false) {
ARM GAS  D:\Temp\ccGEpo4V.s 			page 15


 772:lvgl/src/lv_draw/lv_draw_rect.c ****         /*Avoid overlap in the middle with large radius*/
 773:lvgl/src/lv_draw/lv_draw_rect.c ****         if(ca.y2 > h_half) ca.y2 = h_half;
 774:lvgl/src/lv_draw/lv_draw_rect.c ****         if(ca.x2 > w_half) ca.x2 = w_half;
 775:lvgl/src/lv_draw/lv_draw_rect.c **** 
 776:lvgl/src/lv_draw/lv_draw_rect.c ****         lv_coord_t h = lv_area_get_height(&ca);
 777:lvgl/src/lv_draw/lv_draw_rect.c ****         lv_coord_t w = lv_area_get_width(&ca);
 778:lvgl/src/lv_draw/lv_draw_rect.c ****         if(w > 0) {
 779:lvgl/src/lv_draw/lv_draw_rect.c ****             sh_buf_tmp = sh_buf + (ca.x1 - a.x1);
 780:lvgl/src/lv_draw/lv_draw_rect.c ****             sh_buf_tmp += corner_size * (ca.y1 - a.y1);
 781:lvgl/src/lv_draw/lv_draw_rect.c **** 
 782:lvgl/src/lv_draw/lv_draw_rect.c ****             lv_area_t fa;
 783:lvgl/src/lv_draw/lv_draw_rect.c ****             lv_area_copy(&fa, &ca);
 784:lvgl/src/lv_draw/lv_draw_rect.c ****             fa.y2 = fa.y1;
 785:lvgl/src/lv_draw/lv_draw_rect.c **** 
 786:lvgl/src/lv_draw/lv_draw_rect.c ****             for(y = 0; y < h; y++) {
 787:lvgl/src/lv_draw/lv_draw_rect.c ****                 _lv_memcpy(mask_buf, sh_buf_tmp, w);
 788:lvgl/src/lv_draw/lv_draw_rect.c ****                 mask_res = lv_draw_mask_apply(mask_buf, fa.x1, fa.y1, w);
 789:lvgl/src/lv_draw/lv_draw_rect.c ****                 if(mask_res == LV_DRAW_MASK_RES_FULL_COVER) mask_res = LV_DRAW_MASK_RES_CHANGED;
 790:lvgl/src/lv_draw/lv_draw_rect.c **** 
 791:lvgl/src/lv_draw/lv_draw_rect.c ****                 _lv_blend_fill(clip, &fa, dsc->shadow_color, mask_buf,
 792:lvgl/src/lv_draw/lv_draw_rect.c ****                                mask_res, opa, dsc->shadow_blend_mode);
 793:lvgl/src/lv_draw/lv_draw_rect.c ****                 fa.y1++;
 794:lvgl/src/lv_draw/lv_draw_rect.c ****                 fa.y2++;
 795:lvgl/src/lv_draw/lv_draw_rect.c ****                 sh_buf_tmp += corner_size;
 796:lvgl/src/lv_draw/lv_draw_rect.c ****             }
 797:lvgl/src/lv_draw/lv_draw_rect.c ****         }
 798:lvgl/src/lv_draw/lv_draw_rect.c ****     }
 799:lvgl/src/lv_draw/lv_draw_rect.c **** 
 800:lvgl/src/lv_draw/lv_draw_rect.c ****     /*Draw the bottom left corner*/
 801:lvgl/src/lv_draw/lv_draw_rect.c ****     a.x1 = sh_area.x1;
 802:lvgl/src/lv_draw/lv_draw_rect.c ****     a.x2 = a.x1 + corner_size - 1;
 803:lvgl/src/lv_draw/lv_draw_rect.c ****     a.y1 = sh_area.y2 - corner_size + 1;
 804:lvgl/src/lv_draw/lv_draw_rect.c ****     a.y2 = sh_area.y2;
 805:lvgl/src/lv_draw/lv_draw_rect.c **** 
 806:lvgl/src/lv_draw/lv_draw_rect.c ****     has_com = _lv_area_intersect(&ca, &a, clip);
 807:lvgl/src/lv_draw/lv_draw_rect.c ****     if(has_com && _lv_area_is_in(&a, &bg_coords, r_bg) == false) {
 808:lvgl/src/lv_draw/lv_draw_rect.c ****         /*Avoid overlap in the middle with large radius*/
 809:lvgl/src/lv_draw/lv_draw_rect.c ****         if(ca.y1 <= h_half) ca.y1 = h_half + 1;
 810:lvgl/src/lv_draw/lv_draw_rect.c ****         if(ca.x2 > w_half) ca.x2 = w_half;
 811:lvgl/src/lv_draw/lv_draw_rect.c ****         lv_coord_t h = lv_area_get_height(&ca);
 812:lvgl/src/lv_draw/lv_draw_rect.c ****         lv_coord_t w = lv_area_get_width(&ca);
 813:lvgl/src/lv_draw/lv_draw_rect.c **** 
 814:lvgl/src/lv_draw/lv_draw_rect.c ****         if(w > 0) {
 815:lvgl/src/lv_draw/lv_draw_rect.c ****             sh_buf_tmp = sh_buf + (ca.x1 - a.x1);
 816:lvgl/src/lv_draw/lv_draw_rect.c ****             sh_buf_tmp += corner_size * (a.y2 - ca.y2);
 817:lvgl/src/lv_draw/lv_draw_rect.c **** 
 818:lvgl/src/lv_draw/lv_draw_rect.c ****             lv_area_t fa;
 819:lvgl/src/lv_draw/lv_draw_rect.c ****             lv_area_copy(&fa, &ca);
 820:lvgl/src/lv_draw/lv_draw_rect.c ****             fa.y1 = fa.y2;    /*Fill from bottom to top*/
 821:lvgl/src/lv_draw/lv_draw_rect.c **** 
 822:lvgl/src/lv_draw/lv_draw_rect.c ****             for(y = 0; y < h; y++) {
 823:lvgl/src/lv_draw/lv_draw_rect.c ****                 _lv_memcpy(mask_buf, sh_buf_tmp, w);
 824:lvgl/src/lv_draw/lv_draw_rect.c ****                 mask_res = lv_draw_mask_apply(mask_buf, fa.x1, fa.y1, w);
 825:lvgl/src/lv_draw/lv_draw_rect.c ****                 if(mask_res == LV_DRAW_MASK_RES_FULL_COVER) mask_res = LV_DRAW_MASK_RES_CHANGED;
 826:lvgl/src/lv_draw/lv_draw_rect.c **** 
 827:lvgl/src/lv_draw/lv_draw_rect.c ****                 _lv_blend_fill(clip, &fa, dsc->shadow_color, mask_buf,
 828:lvgl/src/lv_draw/lv_draw_rect.c ****                                mask_res, opa, dsc->shadow_blend_mode);
ARM GAS  D:\Temp\ccGEpo4V.s 			page 16


 829:lvgl/src/lv_draw/lv_draw_rect.c ****                 fa.y1--;
 830:lvgl/src/lv_draw/lv_draw_rect.c ****                 fa.y2--;
 831:lvgl/src/lv_draw/lv_draw_rect.c ****                 sh_buf_tmp += corner_size;
 832:lvgl/src/lv_draw/lv_draw_rect.c ****             }
 833:lvgl/src/lv_draw/lv_draw_rect.c ****         }
 834:lvgl/src/lv_draw/lv_draw_rect.c ****     }
 835:lvgl/src/lv_draw/lv_draw_rect.c **** 
 836:lvgl/src/lv_draw/lv_draw_rect.c ****     /*Fill the left side*/
 837:lvgl/src/lv_draw/lv_draw_rect.c ****     a.x1 = sh_area.x1;
 838:lvgl/src/lv_draw/lv_draw_rect.c ****     a.x2 = a.x1 + corner_size - 1;
 839:lvgl/src/lv_draw/lv_draw_rect.c ****     a.y1 = sh_area.y1 + corner_size;
 840:lvgl/src/lv_draw/lv_draw_rect.c ****     a.y2 = sh_area.y2 - corner_size;
 841:lvgl/src/lv_draw/lv_draw_rect.c **** 
 842:lvgl/src/lv_draw/lv_draw_rect.c ****     has_com = _lv_area_intersect(&ca, &a, clip);
 843:lvgl/src/lv_draw/lv_draw_rect.c ****     if(has_com && _lv_area_is_in(&a, &bg_coords, r_bg) == false) {
 844:lvgl/src/lv_draw/lv_draw_rect.c ****         if(simple_mode) ca.x2 = LV_MATH_MIN(coords->x1, ca.x2);
 845:lvgl/src/lv_draw/lv_draw_rect.c ****         /*Draw vertical lines*/
 846:lvgl/src/lv_draw/lv_draw_rect.c ****         lv_coord_t w = lv_area_get_width(&ca);
 847:lvgl/src/lv_draw/lv_draw_rect.c ****         if(w > 0) {
 848:lvgl/src/lv_draw/lv_draw_rect.c ****             lv_coord_t h = lv_area_get_height(&ca);
 849:lvgl/src/lv_draw/lv_draw_rect.c ****             /*The last line of the shadow is repeated on the side*/
 850:lvgl/src/lv_draw/lv_draw_rect.c ****             sh_buf_tmp = sh_buf + corner_size * (corner_size - 1);
 851:lvgl/src/lv_draw/lv_draw_rect.c ****             sh_buf_tmp += ca.x1 - a.x1;
 852:lvgl/src/lv_draw/lv_draw_rect.c **** 
 853:lvgl/src/lv_draw/lv_draw_rect.c ****             lv_area_t fa;
 854:lvgl/src/lv_draw/lv_draw_rect.c ****             lv_area_copy(&fa, &ca);
 855:lvgl/src/lv_draw/lv_draw_rect.c ****             fa.y2 = fa.y1;
 856:lvgl/src/lv_draw/lv_draw_rect.c ****             for(y = 0; y < h; y++) {
 857:lvgl/src/lv_draw/lv_draw_rect.c ****                 _lv_memcpy(mask_buf, sh_buf_tmp, w);
 858:lvgl/src/lv_draw/lv_draw_rect.c ****                 if(simple_mode) {
 859:lvgl/src/lv_draw/lv_draw_rect.c ****                     mask_res = LV_DRAW_MASK_RES_CHANGED;
 860:lvgl/src/lv_draw/lv_draw_rect.c ****                 }
 861:lvgl/src/lv_draw/lv_draw_rect.c ****                 else {
 862:lvgl/src/lv_draw/lv_draw_rect.c ****                     mask_res = lv_draw_mask_apply(mask_buf, fa.x1, fa.y1, w);
 863:lvgl/src/lv_draw/lv_draw_rect.c ****                     if(mask_res == LV_DRAW_MASK_RES_FULL_COVER) mask_res = LV_DRAW_MASK_RES_CHANGED
 864:lvgl/src/lv_draw/lv_draw_rect.c ****                 }
 865:lvgl/src/lv_draw/lv_draw_rect.c **** 
 866:lvgl/src/lv_draw/lv_draw_rect.c ****                 _lv_blend_fill(clip, &fa,
 867:lvgl/src/lv_draw/lv_draw_rect.c ****                                dsc->shadow_color, mask_buf, mask_res, dsc->shadow_opa, dsc->shadow_
 868:lvgl/src/lv_draw/lv_draw_rect.c ****                 fa.y1++;
 869:lvgl/src/lv_draw/lv_draw_rect.c ****                 fa.y2++;
 870:lvgl/src/lv_draw/lv_draw_rect.c ****             }
 871:lvgl/src/lv_draw/lv_draw_rect.c ****         }
 872:lvgl/src/lv_draw/lv_draw_rect.c ****     }
 873:lvgl/src/lv_draw/lv_draw_rect.c **** 
 874:lvgl/src/lv_draw/lv_draw_rect.c ****     /*Fill the top side*/
 875:lvgl/src/lv_draw/lv_draw_rect.c ****     a.x1 = sh_area.x1 + corner_size;
 876:lvgl/src/lv_draw/lv_draw_rect.c ****     a.x2 = sh_area.x2 - corner_size;
 877:lvgl/src/lv_draw/lv_draw_rect.c ****     a.y1 = sh_area.y1;
 878:lvgl/src/lv_draw/lv_draw_rect.c ****     a.y2 = sh_area.y1 + corner_size - 1;
 879:lvgl/src/lv_draw/lv_draw_rect.c **** 
 880:lvgl/src/lv_draw/lv_draw_rect.c ****     has_com = _lv_area_intersect(&ca, &a, clip);
 881:lvgl/src/lv_draw/lv_draw_rect.c ****     if(has_com && _lv_area_is_in(&a, &bg_coords, r_bg) == false) {
 882:lvgl/src/lv_draw/lv_draw_rect.c ****         if(simple_mode) ca.y2 = LV_MATH_MIN(ca.y2, coords->y1);
 883:lvgl/src/lv_draw/lv_draw_rect.c ****         /*Draw horizontal lines*/
 884:lvgl/src/lv_draw/lv_draw_rect.c ****         lv_coord_t w = lv_area_get_width(&ca);
 885:lvgl/src/lv_draw/lv_draw_rect.c ****         lv_coord_t h = lv_area_get_height(&ca);
ARM GAS  D:\Temp\ccGEpo4V.s 			page 17


 886:lvgl/src/lv_draw/lv_draw_rect.c ****         sh_buf_tmp = sh_buf + corner_size - 1;
 887:lvgl/src/lv_draw/lv_draw_rect.c ****         sh_buf_tmp += corner_size * (ca.y1 - a.y1);
 888:lvgl/src/lv_draw/lv_draw_rect.c **** 
 889:lvgl/src/lv_draw/lv_draw_rect.c ****         lv_area_t fa;
 890:lvgl/src/lv_draw/lv_draw_rect.c ****         lv_area_copy(&fa, &ca);
 891:lvgl/src/lv_draw/lv_draw_rect.c ****         fa.y2 = fa.y1;
 892:lvgl/src/lv_draw/lv_draw_rect.c ****         mask_res = LV_DRAW_MASK_RES_FULL_COVER;
 893:lvgl/src/lv_draw/lv_draw_rect.c ****         for(y = 0; y < h; y++) {
 894:lvgl/src/lv_draw/lv_draw_rect.c ****             lv_opa_t opa_tmp = sh_buf_tmp[0];
 895:lvgl/src/lv_draw/lv_draw_rect.c ****             if(opa_tmp != LV_OPA_COVER || opa != LV_OPA_COVER) opa_tmp = (opa * opa_tmp) >> 8;
 896:lvgl/src/lv_draw/lv_draw_rect.c **** 
 897:lvgl/src/lv_draw/lv_draw_rect.c ****             _lv_memset(mask_buf, opa_tmp, w);
 898:lvgl/src/lv_draw/lv_draw_rect.c **** 
 899:lvgl/src/lv_draw/lv_draw_rect.c ****             if(simple_mode) {
 900:lvgl/src/lv_draw/lv_draw_rect.c ****                 mask_res = LV_DRAW_MASK_RES_CHANGED;
 901:lvgl/src/lv_draw/lv_draw_rect.c ****             }
 902:lvgl/src/lv_draw/lv_draw_rect.c ****             else {
 903:lvgl/src/lv_draw/lv_draw_rect.c ****                 mask_res = lv_draw_mask_apply(mask_buf, fa.x1, fa.y1, w);
 904:lvgl/src/lv_draw/lv_draw_rect.c ****                 if(mask_res == LV_DRAW_MASK_RES_FULL_COVER) mask_res = LV_DRAW_MASK_RES_CHANGED;
 905:lvgl/src/lv_draw/lv_draw_rect.c ****             }
 906:lvgl/src/lv_draw/lv_draw_rect.c **** 
 907:lvgl/src/lv_draw/lv_draw_rect.c ****             _lv_blend_fill(clip, &fa, dsc->shadow_color, mask_buf,
 908:lvgl/src/lv_draw/lv_draw_rect.c ****                            mask_res, LV_OPA_COVER, dsc->shadow_blend_mode);
 909:lvgl/src/lv_draw/lv_draw_rect.c ****             fa.y1++;
 910:lvgl/src/lv_draw/lv_draw_rect.c ****             fa.y2++;
 911:lvgl/src/lv_draw/lv_draw_rect.c ****             sh_buf_tmp += corner_size;
 912:lvgl/src/lv_draw/lv_draw_rect.c ****         }
 913:lvgl/src/lv_draw/lv_draw_rect.c ****     }
 914:lvgl/src/lv_draw/lv_draw_rect.c **** 
 915:lvgl/src/lv_draw/lv_draw_rect.c ****     /*Fill the bottom side*/
 916:lvgl/src/lv_draw/lv_draw_rect.c ****     a.x1 = sh_area.x1 + corner_size;
 917:lvgl/src/lv_draw/lv_draw_rect.c ****     a.x2 = sh_area.x2 - corner_size;
 918:lvgl/src/lv_draw/lv_draw_rect.c ****     a.y1 = sh_area.y2 - corner_size + 1;
 919:lvgl/src/lv_draw/lv_draw_rect.c ****     a.y2 = sh_area.y2;
 920:lvgl/src/lv_draw/lv_draw_rect.c **** 
 921:lvgl/src/lv_draw/lv_draw_rect.c ****     has_com = _lv_area_intersect(&ca, &a, clip);
 922:lvgl/src/lv_draw/lv_draw_rect.c ****     if(has_com && _lv_area_is_in(&a, &bg_coords, r_bg) == false) {
 923:lvgl/src/lv_draw/lv_draw_rect.c ****         if(simple_mode) ca.y1 = LV_MATH_MAX(ca.y1, coords->y2);
 924:lvgl/src/lv_draw/lv_draw_rect.c ****         /*Draw horizontal lines*/
 925:lvgl/src/lv_draw/lv_draw_rect.c ****         lv_coord_t w = lv_area_get_width(&ca);
 926:lvgl/src/lv_draw/lv_draw_rect.c ****         lv_coord_t h = lv_area_get_height(&ca);
 927:lvgl/src/lv_draw/lv_draw_rect.c ****         sh_buf_tmp = sh_buf + corner_size - 1;
 928:lvgl/src/lv_draw/lv_draw_rect.c ****         sh_buf_tmp += corner_size * (a.y2 - ca.y2);
 929:lvgl/src/lv_draw/lv_draw_rect.c **** 
 930:lvgl/src/lv_draw/lv_draw_rect.c ****         lv_area_t fa;
 931:lvgl/src/lv_draw/lv_draw_rect.c ****         lv_area_copy(&fa, &ca);
 932:lvgl/src/lv_draw/lv_draw_rect.c ****         fa.y1 = fa.y2;
 933:lvgl/src/lv_draw/lv_draw_rect.c ****         for(y = 0; y < h; y++) {
 934:lvgl/src/lv_draw/lv_draw_rect.c ****             lv_opa_t opa_tmp = sh_buf_tmp[0];
 935:lvgl/src/lv_draw/lv_draw_rect.c ****             if(opa_tmp != LV_OPA_COVER || opa != LV_OPA_COVER) opa_tmp = (opa * opa_tmp) >> 8;
 936:lvgl/src/lv_draw/lv_draw_rect.c **** 
 937:lvgl/src/lv_draw/lv_draw_rect.c ****             _lv_memset(mask_buf, opa_tmp, w);
 938:lvgl/src/lv_draw/lv_draw_rect.c ****             if(simple_mode) {
 939:lvgl/src/lv_draw/lv_draw_rect.c ****                 mask_res = LV_DRAW_MASK_RES_CHANGED;
 940:lvgl/src/lv_draw/lv_draw_rect.c ****             }
 941:lvgl/src/lv_draw/lv_draw_rect.c ****             else {
 942:lvgl/src/lv_draw/lv_draw_rect.c ****                 mask_res = lv_draw_mask_apply(mask_buf, fa.x1, fa.y1, w);
ARM GAS  D:\Temp\ccGEpo4V.s 			page 18


 943:lvgl/src/lv_draw/lv_draw_rect.c ****                 if(mask_res == LV_DRAW_MASK_RES_FULL_COVER) mask_res = LV_DRAW_MASK_RES_CHANGED;
 944:lvgl/src/lv_draw/lv_draw_rect.c ****             }
 945:lvgl/src/lv_draw/lv_draw_rect.c **** 
 946:lvgl/src/lv_draw/lv_draw_rect.c ****             _lv_blend_fill(clip, &fa, dsc->shadow_color, mask_buf,
 947:lvgl/src/lv_draw/lv_draw_rect.c ****                            mask_res, LV_OPA_COVER, dsc->shadow_blend_mode);
 948:lvgl/src/lv_draw/lv_draw_rect.c ****             fa.y1--;
 949:lvgl/src/lv_draw/lv_draw_rect.c ****             fa.y2--;
 950:lvgl/src/lv_draw/lv_draw_rect.c ****             sh_buf_tmp += corner_size;
 951:lvgl/src/lv_draw/lv_draw_rect.c ****         }
 952:lvgl/src/lv_draw/lv_draw_rect.c ****     }
 953:lvgl/src/lv_draw/lv_draw_rect.c **** 
 954:lvgl/src/lv_draw/lv_draw_rect.c ****     /*Draw the middle area*/
 955:lvgl/src/lv_draw/lv_draw_rect.c ****     a.x1 = sh_area.x1 + corner_size;
 956:lvgl/src/lv_draw/lv_draw_rect.c ****     a.x2 = sh_area.x2 - corner_size;
 957:lvgl/src/lv_draw/lv_draw_rect.c ****     a.y1 = sh_area.y1 + corner_size;
 958:lvgl/src/lv_draw/lv_draw_rect.c ****     a.y2 = sh_area.y2 - corner_size;
 959:lvgl/src/lv_draw/lv_draw_rect.c **** 
 960:lvgl/src/lv_draw/lv_draw_rect.c ****     has_com = _lv_area_intersect(&ca, &a, clip);
 961:lvgl/src/lv_draw/lv_draw_rect.c ****     if(has_com && simple_mode == false &&  _lv_area_is_in(&a, &bg_coords, r_bg) == false) {
 962:lvgl/src/lv_draw/lv_draw_rect.c ****         /*Draw horizontal lines*/
 963:lvgl/src/lv_draw/lv_draw_rect.c ****         lv_coord_t w = lv_area_get_width(&ca);
 964:lvgl/src/lv_draw/lv_draw_rect.c ****         lv_coord_t h = lv_area_get_height(&ca);
 965:lvgl/src/lv_draw/lv_draw_rect.c **** 
 966:lvgl/src/lv_draw/lv_draw_rect.c ****         lv_area_t fa;
 967:lvgl/src/lv_draw/lv_draw_rect.c ****         lv_area_copy(&fa, &ca);
 968:lvgl/src/lv_draw/lv_draw_rect.c ****         fa.y2 = fa.y1;
 969:lvgl/src/lv_draw/lv_draw_rect.c ****         for(y = 0; y < h; y++) {
 970:lvgl/src/lv_draw/lv_draw_rect.c ****             _lv_memset(mask_buf, dsc->shadow_opa, w);
 971:lvgl/src/lv_draw/lv_draw_rect.c ****             mask_res = lv_draw_mask_apply(mask_buf, fa.x1, fa.y1, w);
 972:lvgl/src/lv_draw/lv_draw_rect.c ****             if(mask_res == LV_DRAW_MASK_RES_FULL_COVER) mask_res = LV_DRAW_MASK_RES_CHANGED;
 973:lvgl/src/lv_draw/lv_draw_rect.c **** 
 974:lvgl/src/lv_draw/lv_draw_rect.c ****             _lv_blend_fill(clip, &fa, dsc->shadow_color, mask_buf,
 975:lvgl/src/lv_draw/lv_draw_rect.c ****                            mask_res, LV_OPA_COVER, dsc->shadow_blend_mode);
 976:lvgl/src/lv_draw/lv_draw_rect.c ****             fa.y1++;
 977:lvgl/src/lv_draw/lv_draw_rect.c ****             fa.y2++;
 978:lvgl/src/lv_draw/lv_draw_rect.c ****         }
 979:lvgl/src/lv_draw/lv_draw_rect.c ****     }
 980:lvgl/src/lv_draw/lv_draw_rect.c **** 
 981:lvgl/src/lv_draw/lv_draw_rect.c ****     lv_draw_mask_remove_id(mask_rout_id);
 982:lvgl/src/lv_draw/lv_draw_rect.c ****     _lv_mem_buf_release(mask_buf);
 983:lvgl/src/lv_draw/lv_draw_rect.c ****     _lv_mem_buf_release(sh_buf);
 984:lvgl/src/lv_draw/lv_draw_rect.c **** }
 985:lvgl/src/lv_draw/lv_draw_rect.c **** 
 986:lvgl/src/lv_draw/lv_draw_rect.c **** /**
 987:lvgl/src/lv_draw/lv_draw_rect.c ****  * Calculate a blurred corner
 988:lvgl/src/lv_draw/lv_draw_rect.c ****  * @param coords Coordinates of the shadow
 989:lvgl/src/lv_draw/lv_draw_rect.c ****  * @param sh_buf a buffer to store the result. It's size should be `(sw + r)^2 * 2`
 990:lvgl/src/lv_draw/lv_draw_rect.c ****  * @param sw shadow width
 991:lvgl/src/lv_draw/lv_draw_rect.c ****  * @param r radius
 992:lvgl/src/lv_draw/lv_draw_rect.c ****  */
 993:lvgl/src/lv_draw/lv_draw_rect.c **** LV_ATTRIBUTE_FAST_MEM static void shadow_draw_corner_buf(const lv_area_t * coords, uint16_t * sh_bu
 994:lvgl/src/lv_draw/lv_draw_rect.c ****                                                          lv_coord_t r)
 995:lvgl/src/lv_draw/lv_draw_rect.c **** {
 996:lvgl/src/lv_draw/lv_draw_rect.c ****     int32_t sw_ori = sw;
 997:lvgl/src/lv_draw/lv_draw_rect.c ****     int32_t size = sw_ori  + r;
 998:lvgl/src/lv_draw/lv_draw_rect.c **** 
 999:lvgl/src/lv_draw/lv_draw_rect.c ****     lv_area_t sh_area;
ARM GAS  D:\Temp\ccGEpo4V.s 			page 19


1000:lvgl/src/lv_draw/lv_draw_rect.c ****     lv_area_copy(&sh_area, coords);
1001:lvgl/src/lv_draw/lv_draw_rect.c ****     sh_area.x2 = sw / 2 + r - 1  - ((sw & 1) ? 0 : 1);
1002:lvgl/src/lv_draw/lv_draw_rect.c ****     sh_area.y1 = sw / 2 + 1;
1003:lvgl/src/lv_draw/lv_draw_rect.c **** 
1004:lvgl/src/lv_draw/lv_draw_rect.c ****     sh_area.x1 = sh_area.x2 - lv_area_get_width(coords);
1005:lvgl/src/lv_draw/lv_draw_rect.c ****     sh_area.y2 = sh_area.y1 + lv_area_get_height(coords);
1006:lvgl/src/lv_draw/lv_draw_rect.c **** 
1007:lvgl/src/lv_draw/lv_draw_rect.c ****     lv_draw_mask_radius_param_t mask_param;
1008:lvgl/src/lv_draw/lv_draw_rect.c ****     lv_draw_mask_radius_init(&mask_param, &sh_area, r, false);
1009:lvgl/src/lv_draw/lv_draw_rect.c **** 
1010:lvgl/src/lv_draw/lv_draw_rect.c **** #if SHADOW_ENHANCE
1011:lvgl/src/lv_draw/lv_draw_rect.c ****     /*Set half shadow width width because blur will be repeated*/
1012:lvgl/src/lv_draw/lv_draw_rect.c ****     if(sw_ori == 1) sw = 1;
1013:lvgl/src/lv_draw/lv_draw_rect.c ****     else sw = sw_ori >> 1;
1014:lvgl/src/lv_draw/lv_draw_rect.c **** #endif
1015:lvgl/src/lv_draw/lv_draw_rect.c **** 
1016:lvgl/src/lv_draw/lv_draw_rect.c ****     int32_t y;
1017:lvgl/src/lv_draw/lv_draw_rect.c ****     lv_opa_t * mask_line = _lv_mem_buf_get(size);
1018:lvgl/src/lv_draw/lv_draw_rect.c ****     uint16_t * sh_ups_tmp_buf = (uint16_t *)sh_buf;
1019:lvgl/src/lv_draw/lv_draw_rect.c ****     for(y = 0; y < size; y++) {
1020:lvgl/src/lv_draw/lv_draw_rect.c ****         _lv_memset_ff(mask_line, size);
1021:lvgl/src/lv_draw/lv_draw_rect.c ****         lv_draw_mask_res_t mask_res = mask_param.dsc.cb(mask_line, 0, y, size, &mask_param);
1022:lvgl/src/lv_draw/lv_draw_rect.c ****         if(mask_res == LV_DRAW_MASK_RES_TRANSP) {
1023:lvgl/src/lv_draw/lv_draw_rect.c ****             _lv_memset_00(sh_ups_tmp_buf, size * sizeof(sh_ups_tmp_buf[0]));
1024:lvgl/src/lv_draw/lv_draw_rect.c ****         }
1025:lvgl/src/lv_draw/lv_draw_rect.c ****         else {
1026:lvgl/src/lv_draw/lv_draw_rect.c ****             int32_t i;
1027:lvgl/src/lv_draw/lv_draw_rect.c ****             sh_ups_tmp_buf[0] = (mask_line[0] << SHADOW_UPSCALE_SHIFT) / sw;
1028:lvgl/src/lv_draw/lv_draw_rect.c ****             for(i = 1; i < size; i++) {
1029:lvgl/src/lv_draw/lv_draw_rect.c ****                 if(mask_line[i] == mask_line[i - 1]) sh_ups_tmp_buf[i] = sh_ups_tmp_buf[i - 1];
1030:lvgl/src/lv_draw/lv_draw_rect.c ****                 else sh_ups_tmp_buf[i] = (mask_line[i] << SHADOW_UPSCALE_SHIFT) / sw;
1031:lvgl/src/lv_draw/lv_draw_rect.c ****             }
1032:lvgl/src/lv_draw/lv_draw_rect.c ****         }
1033:lvgl/src/lv_draw/lv_draw_rect.c **** 
1034:lvgl/src/lv_draw/lv_draw_rect.c ****         sh_ups_tmp_buf += size;
1035:lvgl/src/lv_draw/lv_draw_rect.c ****     }
1036:lvgl/src/lv_draw/lv_draw_rect.c ****     _lv_mem_buf_release(mask_line);
1037:lvgl/src/lv_draw/lv_draw_rect.c **** 
1038:lvgl/src/lv_draw/lv_draw_rect.c ****     if(sw == 1) {
1039:lvgl/src/lv_draw/lv_draw_rect.c ****         int32_t i;
1040:lvgl/src/lv_draw/lv_draw_rect.c ****         lv_opa_t * res_buf = (lv_opa_t *)sh_buf;
1041:lvgl/src/lv_draw/lv_draw_rect.c ****         for(i = 0; i < size * size; i++) {
1042:lvgl/src/lv_draw/lv_draw_rect.c ****             res_buf[i] = (sh_buf[i] >> SHADOW_UPSCALE_SHIFT);
1043:lvgl/src/lv_draw/lv_draw_rect.c ****         }
1044:lvgl/src/lv_draw/lv_draw_rect.c ****         return;
1045:lvgl/src/lv_draw/lv_draw_rect.c ****     }
1046:lvgl/src/lv_draw/lv_draw_rect.c **** 
1047:lvgl/src/lv_draw/lv_draw_rect.c ****     shadow_blur_corner(size, sw, sh_buf);
1048:lvgl/src/lv_draw/lv_draw_rect.c **** 
1049:lvgl/src/lv_draw/lv_draw_rect.c **** #if SHADOW_ENHANCE == 0
1050:lvgl/src/lv_draw/lv_draw_rect.c ****     /*The result is required in lv_opa_t not uint16_t*/
1051:lvgl/src/lv_draw/lv_draw_rect.c ****     uint32_t x;
1052:lvgl/src/lv_draw/lv_draw_rect.c ****     lv_opa_t * res_buf = (lv_opa_t *)sh_buf;
1053:lvgl/src/lv_draw/lv_draw_rect.c ****     for(x = 0; x < size * size; x++) {
1054:lvgl/src/lv_draw/lv_draw_rect.c ****         res_buf[x] = sh_buf[x];
1055:lvgl/src/lv_draw/lv_draw_rect.c ****     }
1056:lvgl/src/lv_draw/lv_draw_rect.c **** #else
ARM GAS  D:\Temp\ccGEpo4V.s 			page 20


1057:lvgl/src/lv_draw/lv_draw_rect.c ****     sw += sw_ori & 1;
1058:lvgl/src/lv_draw/lv_draw_rect.c ****     if(sw > 1) {
1059:lvgl/src/lv_draw/lv_draw_rect.c ****         uint32_t i;
1060:lvgl/src/lv_draw/lv_draw_rect.c ****         sh_buf[0] = (sh_buf[0] << SHADOW_UPSCALE_SHIFT) / sw;
1061:lvgl/src/lv_draw/lv_draw_rect.c ****         for(i = 1; i < (uint32_t) size * size; i++) {
1062:lvgl/src/lv_draw/lv_draw_rect.c ****             if(sh_buf[i] == sh_buf[i - 1]) sh_buf[i] = sh_buf[i - 1];
1063:lvgl/src/lv_draw/lv_draw_rect.c ****             else sh_buf[i] = (sh_buf[i] << SHADOW_UPSCALE_SHIFT) / sw;
1064:lvgl/src/lv_draw/lv_draw_rect.c ****         }
1065:lvgl/src/lv_draw/lv_draw_rect.c **** 
1066:lvgl/src/lv_draw/lv_draw_rect.c ****         shadow_blur_corner(size, sw, sh_buf);
1067:lvgl/src/lv_draw/lv_draw_rect.c ****     }
1068:lvgl/src/lv_draw/lv_draw_rect.c ****     int32_t x;
1069:lvgl/src/lv_draw/lv_draw_rect.c ****     lv_opa_t * res_buf = (lv_opa_t *)sh_buf;
1070:lvgl/src/lv_draw/lv_draw_rect.c ****     for(x = 0; x < size * size; x++) {
1071:lvgl/src/lv_draw/lv_draw_rect.c ****         res_buf[x] = sh_buf[x];
1072:lvgl/src/lv_draw/lv_draw_rect.c ****     }
1073:lvgl/src/lv_draw/lv_draw_rect.c **** #endif
1074:lvgl/src/lv_draw/lv_draw_rect.c **** 
1075:lvgl/src/lv_draw/lv_draw_rect.c **** }
1076:lvgl/src/lv_draw/lv_draw_rect.c **** 
1077:lvgl/src/lv_draw/lv_draw_rect.c **** LV_ATTRIBUTE_FAST_MEM static void shadow_blur_corner(lv_coord_t size, lv_coord_t sw, uint16_t * sh_
1078:lvgl/src/lv_draw/lv_draw_rect.c **** {
  29              		.loc 1 1078 1 view -0
  30              		.cfi_startproc
  31              		@ args = 0, pretend = 0, frame = 16
  32              		@ frame_needed = 0, uses_anonymous_args = 0
  33              		.loc 1 1078 1 is_stmt 0 view .LVU1
  34 0000 2DE9F04F 		push	{r4, r5, r6, r7, r8, r9, r10, fp, lr}
  35              	.LCFI0:
  36              		.cfi_def_cfa_offset 36
  37              		.cfi_offset 4, -36
  38              		.cfi_offset 5, -32
  39              		.cfi_offset 6, -28
  40              		.cfi_offset 7, -24
  41              		.cfi_offset 8, -20
  42              		.cfi_offset 9, -16
  43              		.cfi_offset 10, -12
  44              		.cfi_offset 11, -8
  45              		.cfi_offset 14, -4
  46 0004 85B0     		sub	sp, sp, #20
  47              	.LCFI1:
  48              		.cfi_def_cfa_offset 56
  49 0006 0290     		str	r0, [sp, #8]
  50 0008 0191     		str	r1, [sp, #4]
  51 000a 1646     		mov	r6, r2
1079:lvgl/src/lv_draw/lv_draw_rect.c ****     int32_t s_left = sw >> 1;
  52              		.loc 1 1079 5 is_stmt 1 view .LVU2
  53              		.loc 1 1079 25 is_stmt 0 view .LVU3
  54 000c 4F10     		asrs	r7, r1, #1
  55              	.LVL1:
1080:lvgl/src/lv_draw/lv_draw_rect.c ****     int32_t s_right = (sw >> 1);
  56              		.loc 1 1080 5 is_stmt 1 view .LVU4
1081:lvgl/src/lv_draw/lv_draw_rect.c ****     if((sw & 1) == 0) s_left--;
  57              		.loc 1 1081 5 view .LVU5
  58              		.loc 1 1081 7 is_stmt 0 view .LVU6
  59 000e 11F0010F 		tst	r1, #1
  60 0012 02D1     		bne	.L25
ARM GAS  D:\Temp\ccGEpo4V.s 			page 21


  61              		.loc 1 1081 23 is_stmt 1 discriminator 1 view .LVU7
  62              		.loc 1 1081 29 is_stmt 0 discriminator 1 view .LVU8
  63 0014 07F1FF38 		add	r8, r7, #-1
  64              	.LVL2:
  65              		.loc 1 1081 29 discriminator 1 view .LVU9
  66 0018 00E0     		b	.L2
  67              	.LVL3:
  68              	.L25:
1079:lvgl/src/lv_draw/lv_draw_rect.c ****     int32_t s_left = sw >> 1;
  69              		.loc 1 1079 13 view .LVU10
  70 001a B846     		mov	r8, r7
  71              	.LVL4:
  72              	.L2:
1082:lvgl/src/lv_draw/lv_draw_rect.c **** 
1083:lvgl/src/lv_draw/lv_draw_rect.c ****     /*Horizontal blur*/
1084:lvgl/src/lv_draw/lv_draw_rect.c ****     uint16_t * sh_ups_blur_buf = _lv_mem_buf_get(size * sizeof(uint16_t));
  73              		.loc 1 1084 5 is_stmt 1 view .LVU11
  74              		.loc 1 1084 34 is_stmt 0 view .LVU12
  75 001c 029B     		ldr	r3, [sp, #8]
  76 001e 9A46     		mov	r10, r3
  77              		.loc 1 1084 55 view .LVU13
  78 0020 5D00     		lsls	r5, r3, #1
  79              		.loc 1 1084 34 view .LVU14
  80 0022 2846     		mov	r0, r5
  81              	.LVL5:
  82              		.loc 1 1084 34 view .LVU15
  83 0024 FFF7FEFF 		bl	_lv_mem_buf_get
  84              	.LVL6:
  85              		.loc 1 1084 34 view .LVU16
  86 0028 0446     		mov	r4, r0
  87              	.LVL7:
1085:lvgl/src/lv_draw/lv_draw_rect.c **** 
1086:lvgl/src/lv_draw/lv_draw_rect.c ****     int32_t x;
  88              		.loc 1 1086 5 is_stmt 1 view .LVU17
1087:lvgl/src/lv_draw/lv_draw_rect.c ****     int32_t y;
  89              		.loc 1 1087 5 view .LVU18
1088:lvgl/src/lv_draw/lv_draw_rect.c **** 
1089:lvgl/src/lv_draw/lv_draw_rect.c ****     uint16_t * sh_ups_tmp_buf = sh_ups_buf;
  90              		.loc 1 1089 5 view .LVU19
1090:lvgl/src/lv_draw/lv_draw_rect.c **** 
1091:lvgl/src/lv_draw/lv_draw_rect.c ****     for(y = 0; y < size; y++) {
  91              		.loc 1 1091 5 view .LVU20
1089:lvgl/src/lv_draw/lv_draw_rect.c **** 
  92              		.loc 1 1089 16 is_stmt 0 view .LVU21
  93 002a B146     		mov	r9, r6
  94              		.loc 1 1091 11 view .LVU22
  95 002c 4FF0000B 		mov	fp, #0
  96 0030 0396     		str	r6, [sp, #12]
  97 0032 029E     		ldr	r6, [sp, #8]
  98              	.LVL8:
  99              		.loc 1 1091 5 view .LVU23
 100 0034 21E0     		b	.L3
 101              	.LVL9:
 102              	.L26:
 103              	.LBB206:
 104              	.LBB207:
1092:lvgl/src/lv_draw/lv_draw_rect.c ****         int32_t v = sh_ups_tmp_buf[size - 1] * sw;
ARM GAS  D:\Temp\ccGEpo4V.s 			page 22


1093:lvgl/src/lv_draw/lv_draw_rect.c ****         for(x = size - 1; x >= 0; x--) {
1094:lvgl/src/lv_draw/lv_draw_rect.c ****             sh_ups_blur_buf[x] = v;
1095:lvgl/src/lv_draw/lv_draw_rect.c **** 
1096:lvgl/src/lv_draw/lv_draw_rect.c ****             /*Forget the right pixel*/
1097:lvgl/src/lv_draw/lv_draw_rect.c ****             uint32_t right_val = 0;
 105              		.loc 1 1097 22 view .LVU24
 106 0036 0022     		movs	r2, #0
 107              	.LVL10:
 108              	.L5:
1098:lvgl/src/lv_draw/lv_draw_rect.c ****             if(x + s_right < size) right_val = sh_ups_tmp_buf[x + s_right];
1099:lvgl/src/lv_draw/lv_draw_rect.c ****             v -= right_val;
 109              		.loc 1 1099 13 is_stmt 1 view .LVU25
 110              		.loc 1 1099 15 is_stmt 0 view .LVU26
 111 0038 9B1A     		subs	r3, r3, r2
 112              	.LVL11:
1100:lvgl/src/lv_draw/lv_draw_rect.c **** 
1101:lvgl/src/lv_draw/lv_draw_rect.c ****             /*Add the left pixel*/
1102:lvgl/src/lv_draw/lv_draw_rect.c ****             uint32_t left_val;
 113              		.loc 1 1102 13 is_stmt 1 view .LVU27
1103:lvgl/src/lv_draw/lv_draw_rect.c ****             if(x - s_left - 1 < 0) left_val = sh_ups_tmp_buf[0];
 114              		.loc 1 1103 13 view .LVU28
 115              		.loc 1 1103 18 is_stmt 0 view .LVU29
 116 003a A0EB0802 		sub	r2, r0, r8
 117              	.LVL12:
 118              		.loc 1 1103 15 view .LVU30
 119 003e 002A     		cmp	r2, #0
 120 0040 10DD     		ble	.L29
1104:lvgl/src/lv_draw/lv_draw_rect.c ****             else left_val = sh_ups_tmp_buf[x - s_left - 1];
 121              		.loc 1 1104 18 is_stmt 1 view .LVU31
 122              		.loc 1 1104 43 is_stmt 0 view .LVU32
 123 0042 02F10042 		add	r2, r2, #-2147483648
 124 0046 013A     		subs	r2, r2, #1
 125 0048 39F81220 		ldrh	r2, [r9, r2, lsl #1]
 126              	.LVL13:
 127              	.L7:
1105:lvgl/src/lv_draw/lv_draw_rect.c ****             v += left_val;
 128              		.loc 1 1105 13 is_stmt 1 discriminator 2 view .LVU33
 129              		.loc 1 1105 15 is_stmt 0 discriminator 2 view .LVU34
 130 004c 1344     		add	r3, r3, r2
 131              	.LVL14:
 132              		.loc 1 1105 15 discriminator 2 view .LVU35
 133              	.LBE207:
1093:lvgl/src/lv_draw/lv_draw_rect.c ****             sh_ups_blur_buf[x] = v;
 134              		.loc 1 1093 36 discriminator 2 view .LVU36
 135 004e 0138     		subs	r0, r0, #1
 136              	.LVL15:
 137              	.L4:
1093:lvgl/src/lv_draw/lv_draw_rect.c ****             sh_ups_blur_buf[x] = v;
 138              		.loc 1 1093 9 discriminator 1 view .LVU37
 139 0050 0028     		cmp	r0, #0
 140 0052 0ADB     		blt	.L30
 141              	.LBB208:
1094:lvgl/src/lv_draw/lv_draw_rect.c **** 
 142              		.loc 1 1094 13 is_stmt 1 view .LVU38
1094:lvgl/src/lv_draw/lv_draw_rect.c **** 
 143              		.loc 1 1094 32 is_stmt 0 view .LVU39
 144 0054 24F81030 		strh	r3, [r4, r0, lsl #1]	@ movhi
ARM GAS  D:\Temp\ccGEpo4V.s 			page 23


1097:lvgl/src/lv_draw/lv_draw_rect.c ****             if(x + s_right < size) right_val = sh_ups_tmp_buf[x + s_right];
 145              		.loc 1 1097 13 is_stmt 1 view .LVU40
 146              	.LVL16:
1098:lvgl/src/lv_draw/lv_draw_rect.c ****             v -= right_val;
 147              		.loc 1 1098 13 view .LVU41
1098:lvgl/src/lv_draw/lv_draw_rect.c ****             v -= right_val;
 148              		.loc 1 1098 18 is_stmt 0 view .LVU42
 149 0058 C219     		adds	r2, r0, r7
1098:lvgl/src/lv_draw/lv_draw_rect.c ****             v -= right_val;
 150              		.loc 1 1098 15 view .LVU43
 151 005a 8A42     		cmp	r2, r1
 152 005c EBDA     		bge	.L26
1098:lvgl/src/lv_draw/lv_draw_rect.c ****             v -= right_val;
 153              		.loc 1 1098 36 is_stmt 1 discriminator 1 view .LVU44
1098:lvgl/src/lv_draw/lv_draw_rect.c ****             v -= right_val;
 154              		.loc 1 1098 62 is_stmt 0 discriminator 1 view .LVU45
 155 005e 39F81220 		ldrh	r2, [r9, r2, lsl #1]
 156              	.LVL17:
1098:lvgl/src/lv_draw/lv_draw_rect.c ****             v -= right_val;
 157              		.loc 1 1098 62 discriminator 1 view .LVU46
 158 0062 E9E7     		b	.L5
 159              	.LVL18:
 160              	.L29:
1103:lvgl/src/lv_draw/lv_draw_rect.c ****             else left_val = sh_ups_tmp_buf[x - s_left - 1];
 161              		.loc 1 1103 36 is_stmt 1 discriminator 1 view .LVU47
1103:lvgl/src/lv_draw/lv_draw_rect.c ****             else left_val = sh_ups_tmp_buf[x - s_left - 1];
 162              		.loc 1 1103 61 is_stmt 0 discriminator 1 view .LVU48
 163 0064 B9F80020 		ldrh	r2, [r9]
 164              	.LVL19:
1103:lvgl/src/lv_draw/lv_draw_rect.c ****             else left_val = sh_ups_tmp_buf[x - s_left - 1];
 165              		.loc 1 1103 61 discriminator 1 view .LVU49
 166 0068 F0E7     		b	.L7
 167              	.LVL20:
 168              	.L30:
1103:lvgl/src/lv_draw/lv_draw_rect.c ****             else left_val = sh_ups_tmp_buf[x - s_left - 1];
 169              		.loc 1 1103 61 discriminator 1 view .LVU50
 170              	.LBE208:
1106:lvgl/src/lv_draw/lv_draw_rect.c ****         }
1107:lvgl/src/lv_draw/lv_draw_rect.c ****         _lv_memcpy(sh_ups_tmp_buf, sh_ups_blur_buf, size * sizeof(uint16_t));
 171              		.loc 1 1107 9 is_stmt 1 discriminator 2 view .LVU51
 172 006a 2A46     		mov	r2, r5
 173 006c 2146     		mov	r1, r4
 174 006e 4846     		mov	r0, r9
 175              	.LVL21:
 176              		.loc 1 1107 9 is_stmt 0 discriminator 2 view .LVU52
 177 0070 FFF7FEFF 		bl	_lv_memcpy
 178              	.LVL22:
1108:lvgl/src/lv_draw/lv_draw_rect.c ****         sh_ups_tmp_buf += size;
 179              		.loc 1 1108 9 is_stmt 1 discriminator 2 view .LVU53
 180              		.loc 1 1108 24 is_stmt 0 discriminator 2 view .LVU54
 181 0074 A944     		add	r9, r9, r5
 182              	.LVL23:
 183              		.loc 1 1108 24 discriminator 2 view .LVU55
 184              	.LBE206:
1091:lvgl/src/lv_draw/lv_draw_rect.c ****         int32_t v = sh_ups_tmp_buf[size - 1] * sw;
 185              		.loc 1 1091 27 discriminator 2 view .LVU56
 186 0076 0BF1010B 		add	fp, fp, #1
ARM GAS  D:\Temp\ccGEpo4V.s 			page 24


 187              	.LVL24:
 188              	.L3:
1091:lvgl/src/lv_draw/lv_draw_rect.c ****         int32_t v = sh_ups_tmp_buf[size - 1] * sw;
 189              		.loc 1 1091 18 discriminator 1 view .LVU57
 190 007a 3146     		mov	r1, r6
1091:lvgl/src/lv_draw/lv_draw_rect.c ****         int32_t v = sh_ups_tmp_buf[size - 1] * sw;
 191              		.loc 1 1091 5 discriminator 1 view .LVU58
 192 007c 5E45     		cmp	r6, fp
 193 007e 09DD     		ble	.L31
 194              	.LBB209:
1092:lvgl/src/lv_draw/lv_draw_rect.c ****         for(x = size - 1; x >= 0; x--) {
 195              		.loc 1 1092 9 is_stmt 1 view .LVU59
1092:lvgl/src/lv_draw/lv_draw_rect.c ****         for(x = size - 1; x >= 0; x--) {
 196              		.loc 1 1092 35 is_stmt 0 view .LVU60
 197 0080 0AF10043 		add	r3, r10, #-2147483648
 198 0084 013B     		subs	r3, r3, #1
 199 0086 39F81330 		ldrh	r3, [r9, r3, lsl #1]
1092:lvgl/src/lv_draw/lv_draw_rect.c ****         for(x = size - 1; x >= 0; x--) {
 200              		.loc 1 1092 17 view .LVU61
 201 008a 019A     		ldr	r2, [sp, #4]
 202 008c 02FB03F3 		mul	r3, r2, r3
 203              	.LVL25:
1093:lvgl/src/lv_draw/lv_draw_rect.c ****             sh_ups_blur_buf[x] = v;
 204              		.loc 1 1093 9 is_stmt 1 view .LVU62
1093:lvgl/src/lv_draw/lv_draw_rect.c ****             sh_ups_blur_buf[x] = v;
 205              		.loc 1 1093 15 is_stmt 0 view .LVU63
 206 0090 701E     		subs	r0, r6, #1
 207              	.LVL26:
1093:lvgl/src/lv_draw/lv_draw_rect.c ****             sh_ups_blur_buf[x] = v;
 208              		.loc 1 1093 9 view .LVU64
 209 0092 DDE7     		b	.L4
 210              	.LVL27:
 211              	.L31:
1093:lvgl/src/lv_draw/lv_draw_rect.c ****             sh_ups_blur_buf[x] = v;
 212              		.loc 1 1093 9 view .LVU65
 213 0094 039E     		ldr	r6, [sp, #12]
 214              	.LBE209:
1109:lvgl/src/lv_draw/lv_draw_rect.c ****     }
1110:lvgl/src/lv_draw/lv_draw_rect.c **** 
1111:lvgl/src/lv_draw/lv_draw_rect.c ****     /*Vertical blur*/
1112:lvgl/src/lv_draw/lv_draw_rect.c ****     uint32_t i;
 215              		.loc 1 1112 5 is_stmt 1 view .LVU66
1113:lvgl/src/lv_draw/lv_draw_rect.c ****     sh_ups_buf[0] = sh_ups_buf[0] / sw;
 216              		.loc 1 1113 5 view .LVU67
 217              		.loc 1 1113 31 is_stmt 0 view .LVU68
 218 0096 3388     		ldrh	r3, [r6]
 219              		.loc 1 1113 35 view .LVU69
 220 0098 019A     		ldr	r2, [sp, #4]
 221 009a 9646     		mov	lr, r2
 222 009c 93FBF2F3 		sdiv	r3, r3, r2
 223              		.loc 1 1113 19 view .LVU70
 224 00a0 3380     		strh	r3, [r6]	@ movhi
1114:lvgl/src/lv_draw/lv_draw_rect.c ****     for(i = 1; i < (uint32_t)size * size; i++) {
 225              		.loc 1 1114 5 is_stmt 1 view .LVU71
 226              	.LVL28:
 227              		.loc 1 1114 11 is_stmt 0 view .LVU72
 228 00a2 0123     		movs	r3, #1
ARM GAS  D:\Temp\ccGEpo4V.s 			page 25


 229              		.loc 1 1114 5 view .LVU73
 230 00a4 02E0     		b	.L10
 231              	.LVL29:
 232              	.L33:
1115:lvgl/src/lv_draw/lv_draw_rect.c ****         if(sh_ups_buf[i] == sh_ups_buf[i - 1]) sh_ups_buf[i] = sh_ups_buf[i - 1];
 233              		.loc 1 1115 48 is_stmt 1 discriminator 1 view .LVU74
 234              		.loc 1 1115 62 is_stmt 0 discriminator 1 view .LVU75
 235 00a6 26F81320 		strh	r2, [r6, r3, lsl #1]	@ movhi
 236              	.L12:
1114:lvgl/src/lv_draw/lv_draw_rect.c ****     for(i = 1; i < (uint32_t)size * size; i++) {
 237              		.loc 1 1114 44 discriminator 2 view .LVU76
 238 00aa 0133     		adds	r3, r3, #1
 239              	.LVL30:
 240              	.L10:
1114:lvgl/src/lv_draw/lv_draw_rect.c ****     for(i = 1; i < (uint32_t)size * size; i++) {
 241              		.loc 1 1114 35 discriminator 1 view .LVU77
 242 00ac 0AFB0AF2 		mul	r2, r10, r10
1114:lvgl/src/lv_draw/lv_draw_rect.c ****     for(i = 1; i < (uint32_t)size * size; i++) {
 243              		.loc 1 1114 5 discriminator 1 view .LVU78
 244 00b0 9A42     		cmp	r2, r3
 245 00b2 0DD9     		bls	.L32
 246              		.loc 1 1115 9 is_stmt 1 view .LVU79
 247              		.loc 1 1115 22 is_stmt 0 view .LVU80
 248 00b4 36F81300 		ldrh	r0, [r6, r3, lsl #1]
 249              		.loc 1 1115 39 view .LVU81
 250 00b8 03F10042 		add	r2, r3, #-2147483648
 251 00bc 013A     		subs	r2, r2, #1
 252 00be 36F81220 		ldrh	r2, [r6, r2, lsl #1]
 253              		.loc 1 1115 11 view .LVU82
 254 00c2 9042     		cmp	r0, r2
 255 00c4 EFD0     		beq	.L33
1116:lvgl/src/lv_draw/lv_draw_rect.c ****         else sh_ups_buf[i] = sh_ups_buf[i] / sw;
 256              		.loc 1 1116 14 is_stmt 1 view .LVU83
 257              		.loc 1 1116 44 is_stmt 0 view .LVU84
 258 00c6 90FBFEF0 		sdiv	r0, r0, lr
 259              		.loc 1 1116 28 view .LVU85
 260 00ca 26F81300 		strh	r0, [r6, r3, lsl #1]	@ movhi
 261 00ce ECE7     		b	.L12
 262              	.L32:
1117:lvgl/src/lv_draw/lv_draw_rect.c ****     }
1118:lvgl/src/lv_draw/lv_draw_rect.c **** 
1119:lvgl/src/lv_draw/lv_draw_rect.c ****     for(x = 0; x < size; x++) {
 263              		.loc 1 1119 11 view .LVU86
 264 00d0 4FF0000A 		mov	r10, #0
 265 00d4 32E0     		b	.L14
 266              	.LVL31:
 267              	.L27:
 268              	.LBB210:
 269              	.LBB211:
1120:lvgl/src/lv_draw/lv_draw_rect.c ****         sh_ups_tmp_buf = &sh_ups_buf[x];
1121:lvgl/src/lv_draw/lv_draw_rect.c ****         int32_t v = sh_ups_tmp_buf[0] * sw;
1122:lvgl/src/lv_draw/lv_draw_rect.c ****         for(y = 0; y < size ; y++, sh_ups_tmp_buf += size) {
1123:lvgl/src/lv_draw/lv_draw_rect.c ****             sh_ups_blur_buf[y] = v < 0 ? 0 : (v >> SHADOW_UPSCALE_SHIFT);
 270              		.loc 1 1123 32 view .LVU87
 271 00d6 0020     		movs	r0, #0
 272 00d8 10E0     		b	.L16
 273              	.L35:
ARM GAS  D:\Temp\ccGEpo4V.s 			page 26


1124:lvgl/src/lv_draw/lv_draw_rect.c **** 
1125:lvgl/src/lv_draw/lv_draw_rect.c ****             /*Forget the top pixel*/
1126:lvgl/src/lv_draw/lv_draw_rect.c ****             uint32_t top_val;
1127:lvgl/src/lv_draw/lv_draw_rect.c ****             if(y - s_right <= 0) top_val = sh_ups_tmp_buf[0];
 274              		.loc 1 1127 34 is_stmt 1 discriminator 1 view .LVU88
 275              		.loc 1 1127 58 is_stmt 0 discriminator 1 view .LVU89
 276 00da B9F80000 		ldrh	r0, [r9]
 277              	.LVL32:
 278              		.loc 1 1127 58 discriminator 1 view .LVU90
 279 00de 16E0     		b	.L18
 280              	.LVL33:
 281              	.L19:
1128:lvgl/src/lv_draw/lv_draw_rect.c ****             else top_val = sh_ups_buf[(y - s_right) * size + x];
1129:lvgl/src/lv_draw/lv_draw_rect.c ****             v -= top_val;
1130:lvgl/src/lv_draw/lv_draw_rect.c **** 
1131:lvgl/src/lv_draw/lv_draw_rect.c ****             /*Add the bottom pixel*/
1132:lvgl/src/lv_draw/lv_draw_rect.c ****             uint32_t bottom_val;
1133:lvgl/src/lv_draw/lv_draw_rect.c ****             if(y + s_left + 1 < size) bottom_val = sh_ups_buf[(y + s_left + 1) * size + x];
1134:lvgl/src/lv_draw/lv_draw_rect.c ****             else bottom_val = sh_ups_buf[(size - 1) * size + x];
 282              		.loc 1 1134 18 is_stmt 1 view .LVU91
 283              		.loc 1 1134 48 is_stmt 0 view .LVU92
 284 00e0 481E     		subs	r0, r1, #1
 285              		.loc 1 1134 60 view .LVU93
 286 00e2 00FB01A0 		mla	r0, r0, r1, r10
 287              		.loc 1 1134 41 view .LVU94
 288 00e6 36F81000 		ldrh	r0, [r6, r0, lsl #1]
 289              	.LVL34:
 290              	.L20:
1135:lvgl/src/lv_draw/lv_draw_rect.c ****             v += bottom_val;
 291              		.loc 1 1135 13 is_stmt 1 discriminator 2 view .LVU95
 292              		.loc 1 1135 15 is_stmt 0 discriminator 2 view .LVU96
 293 00ea 0244     		add	r2, r2, r0
 294              	.LVL35:
 295              		.loc 1 1135 15 discriminator 2 view .LVU97
 296              	.LBE211:
1122:lvgl/src/lv_draw/lv_draw_rect.c ****             sh_ups_blur_buf[y] = v < 0 ? 0 : (v >> SHADOW_UPSCALE_SHIFT);
 297              		.loc 1 1122 32 discriminator 2 view .LVU98
 298 00ec 0133     		adds	r3, r3, #1
 299              	.LVL36:
1122:lvgl/src/lv_draw/lv_draw_rect.c ****             sh_ups_blur_buf[y] = v < 0 ? 0 : (v >> SHADOW_UPSCALE_SHIFT);
 300              		.loc 1 1122 51 discriminator 2 view .LVU99
 301 00ee A944     		add	r9, r9, r5
 302              	.LVL37:
 303              	.L15:
1122:lvgl/src/lv_draw/lv_draw_rect.c ****             sh_ups_blur_buf[y] = v < 0 ? 0 : (v >> SHADOW_UPSCALE_SHIFT);
 304              		.loc 1 1122 9 discriminator 1 view .LVU100
 305 00f0 9942     		cmp	r1, r3
 306 00f2 17DD     		ble	.L34
 307              	.LBB212:
1123:lvgl/src/lv_draw/lv_draw_rect.c **** 
 308              		.loc 1 1123 13 is_stmt 1 view .LVU101
1123:lvgl/src/lv_draw/lv_draw_rect.c **** 
 309              		.loc 1 1123 32 is_stmt 0 view .LVU102
 310 00f4 002A     		cmp	r2, #0
 311 00f6 EEDB     		blt	.L27
1123:lvgl/src/lv_draw/lv_draw_rect.c **** 
 312              		.loc 1 1123 32 discriminator 1 view .LVU103
ARM GAS  D:\Temp\ccGEpo4V.s 			page 27


 313 00f8 C2F38F10 		ubfx	r0, r2, #6, #16
 314              	.L16:
1123:lvgl/src/lv_draw/lv_draw_rect.c **** 
 315              		.loc 1 1123 32 discriminator 4 view .LVU104
 316 00fc 24F81300 		strh	r0, [r4, r3, lsl #1]	@ movhi
1126:lvgl/src/lv_draw/lv_draw_rect.c ****             if(y - s_right <= 0) top_val = sh_ups_tmp_buf[0];
 317              		.loc 1 1126 13 is_stmt 1 discriminator 4 view .LVU105
1127:lvgl/src/lv_draw/lv_draw_rect.c ****             else top_val = sh_ups_buf[(y - s_right) * size + x];
 318              		.loc 1 1127 13 discriminator 4 view .LVU106
1127:lvgl/src/lv_draw/lv_draw_rect.c ****             else top_val = sh_ups_buf[(y - s_right) * size + x];
 319              		.loc 1 1127 18 is_stmt 0 discriminator 4 view .LVU107
 320 0100 D81B     		subs	r0, r3, r7
1127:lvgl/src/lv_draw/lv_draw_rect.c ****             else top_val = sh_ups_buf[(y - s_right) * size + x];
 321              		.loc 1 1127 15 discriminator 4 view .LVU108
 322 0102 0028     		cmp	r0, #0
 323 0104 E9DD     		ble	.L35
1128:lvgl/src/lv_draw/lv_draw_rect.c ****             v -= top_val;
 324              		.loc 1 1128 18 is_stmt 1 view .LVU109
1128:lvgl/src/lv_draw/lv_draw_rect.c ****             v -= top_val;
 325              		.loc 1 1128 60 is_stmt 0 view .LVU110
 326 0106 00FB01A0 		mla	r0, r0, r1, r10
1128:lvgl/src/lv_draw/lv_draw_rect.c ****             v -= top_val;
 327              		.loc 1 1128 38 view .LVU111
 328 010a 36F81000 		ldrh	r0, [r6, r0, lsl #1]
 329              	.LVL38:
 330              	.L18:
1129:lvgl/src/lv_draw/lv_draw_rect.c **** 
 331              		.loc 1 1129 13 is_stmt 1 view .LVU112
1129:lvgl/src/lv_draw/lv_draw_rect.c **** 
 332              		.loc 1 1129 15 is_stmt 0 view .LVU113
 333 010e 121A     		subs	r2, r2, r0
 334              	.LVL39:
1132:lvgl/src/lv_draw/lv_draw_rect.c ****             if(y + s_left + 1 < size) bottom_val = sh_ups_buf[(y + s_left + 1) * size + x];
 335              		.loc 1 1132 13 is_stmt 1 view .LVU114
1133:lvgl/src/lv_draw/lv_draw_rect.c ****             else bottom_val = sh_ups_buf[(size - 1) * size + x];
 336              		.loc 1 1133 13 view .LVU115
1133:lvgl/src/lv_draw/lv_draw_rect.c ****             else bottom_val = sh_ups_buf[(size - 1) * size + x];
 337              		.loc 1 1133 18 is_stmt 0 view .LVU116
 338 0110 08EB0300 		add	r0, r8, r3
 339              	.LVL40:
1133:lvgl/src/lv_draw/lv_draw_rect.c ****             else bottom_val = sh_ups_buf[(size - 1) * size + x];
 340              		.loc 1 1133 27 view .LVU117
 341 0114 0130     		adds	r0, r0, #1
1133:lvgl/src/lv_draw/lv_draw_rect.c ****             else bottom_val = sh_ups_buf[(size - 1) * size + x];
 342              		.loc 1 1133 15 view .LVU118
 343 0116 8142     		cmp	r1, r0
 344 0118 E2DD     		ble	.L19
1133:lvgl/src/lv_draw/lv_draw_rect.c ****             else bottom_val = sh_ups_buf[(size - 1) * size + x];
 345              		.loc 1 1133 39 is_stmt 1 discriminator 1 view .LVU119
1133:lvgl/src/lv_draw/lv_draw_rect.c ****             else bottom_val = sh_ups_buf[(size - 1) * size + x];
 346              		.loc 1 1133 87 is_stmt 0 discriminator 1 view .LVU120
 347 011a 00FB01A0 		mla	r0, r0, r1, r10
1133:lvgl/src/lv_draw/lv_draw_rect.c ****             else bottom_val = sh_ups_buf[(size - 1) * size + x];
 348              		.loc 1 1133 62 discriminator 1 view .LVU121
 349 011e 36F81000 		ldrh	r0, [r6, r0, lsl #1]
 350              	.LVL41:
1133:lvgl/src/lv_draw/lv_draw_rect.c ****             else bottom_val = sh_ups_buf[(size - 1) * size + x];
ARM GAS  D:\Temp\ccGEpo4V.s 			page 28


 351              		.loc 1 1133 62 discriminator 1 view .LVU122
 352 0122 E2E7     		b	.L20
 353              	.LVL42:
 354              	.L34:
1133:lvgl/src/lv_draw/lv_draw_rect.c ****             else bottom_val = sh_ups_buf[(size - 1) * size + x];
 355              		.loc 1 1133 62 discriminator 1 view .LVU123
 356              	.LBE212:
1136:lvgl/src/lv_draw/lv_draw_rect.c ****         }
1137:lvgl/src/lv_draw/lv_draw_rect.c **** 
1138:lvgl/src/lv_draw/lv_draw_rect.c ****         /*Write back the result into `sh_ups_buf`*/
1139:lvgl/src/lv_draw/lv_draw_rect.c ****         sh_ups_tmp_buf = &sh_ups_buf[x];
1140:lvgl/src/lv_draw/lv_draw_rect.c ****         for(y = 0; y < size; y++, sh_ups_tmp_buf += size) {
 357              		.loc 1 1140 15 view .LVU124
 358 0124 0023     		movs	r3, #0
 359              	.LVL43:
 360              		.loc 1 1140 15 view .LVU125
 361 0126 05E0     		b	.L22
 362              	.LVL44:
 363              	.L23:
1141:lvgl/src/lv_draw/lv_draw_rect.c ****             (*sh_ups_tmp_buf) = sh_ups_blur_buf[y];
 364              		.loc 1 1141 13 is_stmt 1 discriminator 3 view .LVU126
 365              		.loc 1 1141 48 is_stmt 0 discriminator 3 view .LVU127
 366 0128 34F81320 		ldrh	r2, [r4, r3, lsl #1]
 367              		.loc 1 1141 31 discriminator 3 view .LVU128
 368 012c ACF80020 		strh	r2, [ip]	@ movhi
1140:lvgl/src/lv_draw/lv_draw_rect.c ****             (*sh_ups_tmp_buf) = sh_ups_blur_buf[y];
 369              		.loc 1 1140 31 discriminator 3 view .LVU129
 370 0130 0133     		adds	r3, r3, #1
 371              	.LVL45:
1140:lvgl/src/lv_draw/lv_draw_rect.c ****             (*sh_ups_tmp_buf) = sh_ups_blur_buf[y];
 372              		.loc 1 1140 50 discriminator 3 view .LVU130
 373 0132 AC44     		add	ip, ip, r5
 374              	.LVL46:
 375              	.L22:
1140:lvgl/src/lv_draw/lv_draw_rect.c ****             (*sh_ups_tmp_buf) = sh_ups_blur_buf[y];
 376              		.loc 1 1140 9 discriminator 1 view .LVU131
 377 0134 9942     		cmp	r1, r3
 378 0136 F7DC     		bgt	.L23
 379              	.LBE210:
1119:lvgl/src/lv_draw/lv_draw_rect.c ****         sh_ups_tmp_buf = &sh_ups_buf[x];
 380              		.loc 1 1119 27 discriminator 2 view .LVU132
 381 0138 0AF1010A 		add	r10, r10, #1
 382              	.LVL47:
 383              	.L14:
1119:lvgl/src/lv_draw/lv_draw_rect.c ****         sh_ups_tmp_buf = &sh_ups_buf[x];
 384              		.loc 1 1119 5 discriminator 1 view .LVU133
 385 013c 5145     		cmp	r1, r10
 386 013e 08DD     		ble	.L36
 387              	.LBB213:
1120:lvgl/src/lv_draw/lv_draw_rect.c ****         int32_t v = sh_ups_tmp_buf[0] * sw;
 388              		.loc 1 1120 9 is_stmt 1 view .LVU134
1120:lvgl/src/lv_draw/lv_draw_rect.c ****         int32_t v = sh_ups_tmp_buf[0] * sw;
 389              		.loc 1 1120 24 is_stmt 0 view .LVU135
 390 0140 06EB4A0C 		add	ip, r6, r10, lsl #1
 391              	.LVL48:
1121:lvgl/src/lv_draw/lv_draw_rect.c ****         for(y = 0; y < size ; y++, sh_ups_tmp_buf += size) {
 392              		.loc 1 1121 9 is_stmt 1 view .LVU136
ARM GAS  D:\Temp\ccGEpo4V.s 			page 29


1121:lvgl/src/lv_draw/lv_draw_rect.c ****         for(y = 0; y < size ; y++, sh_ups_tmp_buf += size) {
 393              		.loc 1 1121 35 is_stmt 0 view .LVU137
 394 0144 36F81A20 		ldrh	r2, [r6, r10, lsl #1]
1121:lvgl/src/lv_draw/lv_draw_rect.c ****         for(y = 0; y < size ; y++, sh_ups_tmp_buf += size) {
 395              		.loc 1 1121 17 view .LVU138
 396 0148 02FB0EF2 		mul	r2, r2, lr
 397              	.LVL49:
1122:lvgl/src/lv_draw/lv_draw_rect.c ****             sh_ups_blur_buf[y] = v < 0 ? 0 : (v >> SHADOW_UPSCALE_SHIFT);
 398              		.loc 1 1122 9 is_stmt 1 view .LVU139
1120:lvgl/src/lv_draw/lv_draw_rect.c ****         int32_t v = sh_ups_tmp_buf[0] * sw;
 399              		.loc 1 1120 24 is_stmt 0 view .LVU140
 400 014c E146     		mov	r9, ip
1122:lvgl/src/lv_draw/lv_draw_rect.c ****             sh_ups_blur_buf[y] = v < 0 ? 0 : (v >> SHADOW_UPSCALE_SHIFT);
 401              		.loc 1 1122 15 view .LVU141
 402 014e 0023     		movs	r3, #0
1122:lvgl/src/lv_draw/lv_draw_rect.c ****             sh_ups_blur_buf[y] = v < 0 ? 0 : (v >> SHADOW_UPSCALE_SHIFT);
 403              		.loc 1 1122 9 view .LVU142
 404 0150 CEE7     		b	.L15
 405              	.LVL50:
 406              	.L36:
1122:lvgl/src/lv_draw/lv_draw_rect.c ****             sh_ups_blur_buf[y] = v < 0 ? 0 : (v >> SHADOW_UPSCALE_SHIFT);
 407              		.loc 1 1122 9 view .LVU143
 408              	.LBE213:
1142:lvgl/src/lv_draw/lv_draw_rect.c ****         }
1143:lvgl/src/lv_draw/lv_draw_rect.c ****     }
1144:lvgl/src/lv_draw/lv_draw_rect.c **** 
1145:lvgl/src/lv_draw/lv_draw_rect.c ****     _lv_mem_buf_release(sh_ups_blur_buf);
 409              		.loc 1 1145 5 is_stmt 1 view .LVU144
 410 0152 2046     		mov	r0, r4
 411 0154 FFF7FEFF 		bl	_lv_mem_buf_release
 412              	.LVL51:
1146:lvgl/src/lv_draw/lv_draw_rect.c **** }
 413              		.loc 1 1146 1 is_stmt 0 view .LVU145
 414 0158 05B0     		add	sp, sp, #20
 415              	.LCFI2:
 416              		.cfi_def_cfa_offset 36
 417              		@ sp needed
 418 015a BDE8F08F 		pop	{r4, r5, r6, r7, r8, r9, r10, fp, pc}
 419              		.loc 1 1146 1 view .LVU146
 420              		.cfi_endproc
 421              	.LFE466:
 423              		.section	.text.shadow_draw_corner_buf,"ax",%progbits
 424              		.align	1
 425              		.syntax unified
 426              		.thumb
 427              		.thumb_func
 428              		.fpu fpv4-sp-d16
 430              	shadow_draw_corner_buf:
 431              	.LVL52:
 432              	.LFB465:
 995:lvgl/src/lv_draw/lv_draw_rect.c ****     int32_t sw_ori = sw;
 433              		.loc 1 995 1 is_stmt 1 view -0
 434              		.cfi_startproc
 435              		@ args = 0, pretend = 0, frame = 48
 436              		@ frame_needed = 0, uses_anonymous_args = 0
 995:lvgl/src/lv_draw/lv_draw_rect.c ****     int32_t sw_ori = sw;
 437              		.loc 1 995 1 is_stmt 0 view .LVU148
ARM GAS  D:\Temp\ccGEpo4V.s 			page 30


 438 0000 2DE9F04F 		push	{r4, r5, r6, r7, r8, r9, r10, fp, lr}
 439              	.LCFI3:
 440              		.cfi_def_cfa_offset 36
 441              		.cfi_offset 4, -36
 442              		.cfi_offset 5, -32
 443              		.cfi_offset 6, -28
 444              		.cfi_offset 7, -24
 445              		.cfi_offset 8, -20
 446              		.cfi_offset 9, -16
 447              		.cfi_offset 10, -12
 448              		.cfi_offset 11, -8
 449              		.cfi_offset 14, -4
 450 0004 8FB0     		sub	sp, sp, #60
 451              	.LCFI4:
 452              		.cfi_def_cfa_offset 96
 453 0006 8946     		mov	r9, r1
 454 0008 9346     		mov	fp, r2
 455 000a 1A46     		mov	r2, r3
 456              	.LVL53:
 996:lvgl/src/lv_draw/lv_draw_rect.c ****     int32_t size = sw_ori  + r;
 457              		.loc 1 996 5 is_stmt 1 view .LVU149
 997:lvgl/src/lv_draw/lv_draw_rect.c **** 
 458              		.loc 1 997 5 view .LVU150
 997:lvgl/src/lv_draw/lv_draw_rect.c **** 
 459              		.loc 1 997 13 is_stmt 0 view .LVU151
 460 000c 03EB0B05 		add	r5, r3, fp
 461              	.LVL54:
 999:lvgl/src/lv_draw/lv_draw_rect.c ****     lv_area_copy(&sh_area, coords);
 462              		.loc 1 999 5 is_stmt 1 view .LVU152
1000:lvgl/src/lv_draw/lv_draw_rect.c ****     sh_area.x2 = sw / 2 + r - 1  - ((sw & 1) ? 0 : 1);
 463              		.loc 1 1000 5 view .LVU153
 464              	.LBB214:
 465              	.LBI214:
 466              		.file 2 "lvgl/src/lv_draw/../lv_core/../lv_font/../lv_misc/lv_area.h"
   1:lvgl/src/lv_draw/../lv_core/../lv_font/../lv_misc/lv_area.h **** /**
   2:lvgl/src/lv_draw/../lv_core/../lv_font/../lv_misc/lv_area.h ****  * @file lv_area.h
   3:lvgl/src/lv_draw/../lv_core/../lv_font/../lv_misc/lv_area.h ****  *
   4:lvgl/src/lv_draw/../lv_core/../lv_font/../lv_misc/lv_area.h ****  */
   5:lvgl/src/lv_draw/../lv_core/../lv_font/../lv_misc/lv_area.h **** 
   6:lvgl/src/lv_draw/../lv_core/../lv_font/../lv_misc/lv_area.h **** #ifndef LV_AREA_H
   7:lvgl/src/lv_draw/../lv_core/../lv_font/../lv_misc/lv_area.h **** #define LV_AREA_H
   8:lvgl/src/lv_draw/../lv_core/../lv_font/../lv_misc/lv_area.h **** 
   9:lvgl/src/lv_draw/../lv_core/../lv_font/../lv_misc/lv_area.h **** #ifdef __cplusplus
  10:lvgl/src/lv_draw/../lv_core/../lv_font/../lv_misc/lv_area.h **** extern "C" {
  11:lvgl/src/lv_draw/../lv_core/../lv_font/../lv_misc/lv_area.h **** #endif
  12:lvgl/src/lv_draw/../lv_core/../lv_font/../lv_misc/lv_area.h **** 
  13:lvgl/src/lv_draw/../lv_core/../lv_font/../lv_misc/lv_area.h **** /*********************
  14:lvgl/src/lv_draw/../lv_core/../lv_font/../lv_misc/lv_area.h ****  *      INCLUDES
  15:lvgl/src/lv_draw/../lv_core/../lv_font/../lv_misc/lv_area.h ****  *********************/
  16:lvgl/src/lv_draw/../lv_core/../lv_font/../lv_misc/lv_area.h **** #include "../lv_conf_internal.h"
  17:lvgl/src/lv_draw/../lv_core/../lv_font/../lv_misc/lv_area.h **** #include <string.h>
  18:lvgl/src/lv_draw/../lv_core/../lv_font/../lv_misc/lv_area.h **** #include <stdbool.h>
  19:lvgl/src/lv_draw/../lv_core/../lv_font/../lv_misc/lv_area.h **** #include <stdint.h>
  20:lvgl/src/lv_draw/../lv_core/../lv_font/../lv_misc/lv_area.h **** #include "lv_mem.h"
  21:lvgl/src/lv_draw/../lv_core/../lv_font/../lv_misc/lv_area.h **** 
  22:lvgl/src/lv_draw/../lv_core/../lv_font/../lv_misc/lv_area.h **** /*********************
  23:lvgl/src/lv_draw/../lv_core/../lv_font/../lv_misc/lv_area.h ****  *      DEFINES
ARM GAS  D:\Temp\ccGEpo4V.s 			page 31


  24:lvgl/src/lv_draw/../lv_core/../lv_font/../lv_misc/lv_area.h ****  *********************/
  25:lvgl/src/lv_draw/../lv_core/../lv_font/../lv_misc/lv_area.h **** /*To avoid overflow don't let the max ranges (reduce with 1000) */
  26:lvgl/src/lv_draw/../lv_core/../lv_font/../lv_misc/lv_area.h **** #define LV_COORD_MAX ((lv_coord_t)((uint32_t)((uint32_t)1 << (8 * sizeof(lv_coord_t) - 1)) - 1000))
  27:lvgl/src/lv_draw/../lv_core/../lv_font/../lv_misc/lv_area.h **** #define LV_COORD_MIN (-LV_COORD_MAX)
  28:lvgl/src/lv_draw/../lv_core/../lv_font/../lv_misc/lv_area.h **** 
  29:lvgl/src/lv_draw/../lv_core/../lv_font/../lv_misc/lv_area.h **** LV_EXPORT_CONST_INT(LV_COORD_MAX);
  30:lvgl/src/lv_draw/../lv_core/../lv_font/../lv_misc/lv_area.h **** LV_EXPORT_CONST_INT(LV_COORD_MIN);
  31:lvgl/src/lv_draw/../lv_core/../lv_font/../lv_misc/lv_area.h **** 
  32:lvgl/src/lv_draw/../lv_core/../lv_font/../lv_misc/lv_area.h **** /**********************
  33:lvgl/src/lv_draw/../lv_core/../lv_font/../lv_misc/lv_area.h ****  *      TYPEDEFS
  34:lvgl/src/lv_draw/../lv_core/../lv_font/../lv_misc/lv_area.h ****  **********************/
  35:lvgl/src/lv_draw/../lv_core/../lv_font/../lv_misc/lv_area.h **** 
  36:lvgl/src/lv_draw/../lv_core/../lv_font/../lv_misc/lv_area.h **** /**
  37:lvgl/src/lv_draw/../lv_core/../lv_font/../lv_misc/lv_area.h ****  * Represents a point on the screen.
  38:lvgl/src/lv_draw/../lv_core/../lv_font/../lv_misc/lv_area.h ****  */
  39:lvgl/src/lv_draw/../lv_core/../lv_font/../lv_misc/lv_area.h **** typedef struct {
  40:lvgl/src/lv_draw/../lv_core/../lv_font/../lv_misc/lv_area.h ****     lv_coord_t x;
  41:lvgl/src/lv_draw/../lv_core/../lv_font/../lv_misc/lv_area.h ****     lv_coord_t y;
  42:lvgl/src/lv_draw/../lv_core/../lv_font/../lv_misc/lv_area.h **** } lv_point_t;
  43:lvgl/src/lv_draw/../lv_core/../lv_font/../lv_misc/lv_area.h **** 
  44:lvgl/src/lv_draw/../lv_core/../lv_font/../lv_misc/lv_area.h **** /** Represents an area of the screen. */
  45:lvgl/src/lv_draw/../lv_core/../lv_font/../lv_misc/lv_area.h **** typedef struct {
  46:lvgl/src/lv_draw/../lv_core/../lv_font/../lv_misc/lv_area.h ****     lv_coord_t x1;
  47:lvgl/src/lv_draw/../lv_core/../lv_font/../lv_misc/lv_area.h ****     lv_coord_t y1;
  48:lvgl/src/lv_draw/../lv_core/../lv_font/../lv_misc/lv_area.h ****     lv_coord_t x2;
  49:lvgl/src/lv_draw/../lv_core/../lv_font/../lv_misc/lv_area.h ****     lv_coord_t y2;
  50:lvgl/src/lv_draw/../lv_core/../lv_font/../lv_misc/lv_area.h **** } lv_area_t;
  51:lvgl/src/lv_draw/../lv_core/../lv_font/../lv_misc/lv_area.h **** 
  52:lvgl/src/lv_draw/../lv_core/../lv_font/../lv_misc/lv_area.h **** /** Alignments */
  53:lvgl/src/lv_draw/../lv_core/../lv_font/../lv_misc/lv_area.h **** enum {
  54:lvgl/src/lv_draw/../lv_core/../lv_font/../lv_misc/lv_area.h ****     LV_ALIGN_CENTER = 0,
  55:lvgl/src/lv_draw/../lv_core/../lv_font/../lv_misc/lv_area.h ****     LV_ALIGN_IN_TOP_LEFT,
  56:lvgl/src/lv_draw/../lv_core/../lv_font/../lv_misc/lv_area.h ****     LV_ALIGN_IN_TOP_MID,
  57:lvgl/src/lv_draw/../lv_core/../lv_font/../lv_misc/lv_area.h ****     LV_ALIGN_IN_TOP_RIGHT,
  58:lvgl/src/lv_draw/../lv_core/../lv_font/../lv_misc/lv_area.h ****     LV_ALIGN_IN_BOTTOM_LEFT,
  59:lvgl/src/lv_draw/../lv_core/../lv_font/../lv_misc/lv_area.h ****     LV_ALIGN_IN_BOTTOM_MID,
  60:lvgl/src/lv_draw/../lv_core/../lv_font/../lv_misc/lv_area.h ****     LV_ALIGN_IN_BOTTOM_RIGHT,
  61:lvgl/src/lv_draw/../lv_core/../lv_font/../lv_misc/lv_area.h ****     LV_ALIGN_IN_LEFT_MID,
  62:lvgl/src/lv_draw/../lv_core/../lv_font/../lv_misc/lv_area.h ****     LV_ALIGN_IN_RIGHT_MID,
  63:lvgl/src/lv_draw/../lv_core/../lv_font/../lv_misc/lv_area.h ****     LV_ALIGN_OUT_TOP_LEFT,
  64:lvgl/src/lv_draw/../lv_core/../lv_font/../lv_misc/lv_area.h ****     LV_ALIGN_OUT_TOP_MID,
  65:lvgl/src/lv_draw/../lv_core/../lv_font/../lv_misc/lv_area.h ****     LV_ALIGN_OUT_TOP_RIGHT,
  66:lvgl/src/lv_draw/../lv_core/../lv_font/../lv_misc/lv_area.h ****     LV_ALIGN_OUT_BOTTOM_LEFT,
  67:lvgl/src/lv_draw/../lv_core/../lv_font/../lv_misc/lv_area.h ****     LV_ALIGN_OUT_BOTTOM_MID,
  68:lvgl/src/lv_draw/../lv_core/../lv_font/../lv_misc/lv_area.h ****     LV_ALIGN_OUT_BOTTOM_RIGHT,
  69:lvgl/src/lv_draw/../lv_core/../lv_font/../lv_misc/lv_area.h ****     LV_ALIGN_OUT_LEFT_TOP,
  70:lvgl/src/lv_draw/../lv_core/../lv_font/../lv_misc/lv_area.h ****     LV_ALIGN_OUT_LEFT_MID,
  71:lvgl/src/lv_draw/../lv_core/../lv_font/../lv_misc/lv_area.h ****     LV_ALIGN_OUT_LEFT_BOTTOM,
  72:lvgl/src/lv_draw/../lv_core/../lv_font/../lv_misc/lv_area.h ****     LV_ALIGN_OUT_RIGHT_TOP,
  73:lvgl/src/lv_draw/../lv_core/../lv_font/../lv_misc/lv_area.h ****     LV_ALIGN_OUT_RIGHT_MID,
  74:lvgl/src/lv_draw/../lv_core/../lv_font/../lv_misc/lv_area.h ****     LV_ALIGN_OUT_RIGHT_BOTTOM,
  75:lvgl/src/lv_draw/../lv_core/../lv_font/../lv_misc/lv_area.h **** };
  76:lvgl/src/lv_draw/../lv_core/../lv_font/../lv_misc/lv_area.h **** typedef uint8_t lv_align_t;
  77:lvgl/src/lv_draw/../lv_core/../lv_font/../lv_misc/lv_area.h **** 
  78:lvgl/src/lv_draw/../lv_core/../lv_font/../lv_misc/lv_area.h **** /**********************
  79:lvgl/src/lv_draw/../lv_core/../lv_font/../lv_misc/lv_area.h ****  * GLOBAL PROTOTYPES
  80:lvgl/src/lv_draw/../lv_core/../lv_font/../lv_misc/lv_area.h ****  **********************/
ARM GAS  D:\Temp\ccGEpo4V.s 			page 32


  81:lvgl/src/lv_draw/../lv_core/../lv_font/../lv_misc/lv_area.h **** 
  82:lvgl/src/lv_draw/../lv_core/../lv_font/../lv_misc/lv_area.h **** /**
  83:lvgl/src/lv_draw/../lv_core/../lv_font/../lv_misc/lv_area.h ****  * Initialize an area
  84:lvgl/src/lv_draw/../lv_core/../lv_font/../lv_misc/lv_area.h ****  * @param area_p pointer to an area
  85:lvgl/src/lv_draw/../lv_core/../lv_font/../lv_misc/lv_area.h ****  * @param x1 left coordinate of the area
  86:lvgl/src/lv_draw/../lv_core/../lv_font/../lv_misc/lv_area.h ****  * @param y1 top coordinate of the area
  87:lvgl/src/lv_draw/../lv_core/../lv_font/../lv_misc/lv_area.h ****  * @param x2 right coordinate of the area
  88:lvgl/src/lv_draw/../lv_core/../lv_font/../lv_misc/lv_area.h ****  * @param y2 bottom coordinate of the area
  89:lvgl/src/lv_draw/../lv_core/../lv_font/../lv_misc/lv_area.h ****  */
  90:lvgl/src/lv_draw/../lv_core/../lv_font/../lv_misc/lv_area.h **** void lv_area_set(lv_area_t * area_p, lv_coord_t x1, lv_coord_t y1, lv_coord_t x2, lv_coord_t y2);
  91:lvgl/src/lv_draw/../lv_core/../lv_font/../lv_misc/lv_area.h **** 
  92:lvgl/src/lv_draw/../lv_core/../lv_font/../lv_misc/lv_area.h **** /**
  93:lvgl/src/lv_draw/../lv_core/../lv_font/../lv_misc/lv_area.h ****  * Copy an area
  94:lvgl/src/lv_draw/../lv_core/../lv_font/../lv_misc/lv_area.h ****  * @param dest pointer to the destination area
  95:lvgl/src/lv_draw/../lv_core/../lv_font/../lv_misc/lv_area.h ****  * @param src pointer to the source area
  96:lvgl/src/lv_draw/../lv_core/../lv_font/../lv_misc/lv_area.h ****  */
  97:lvgl/src/lv_draw/../lv_core/../lv_font/../lv_misc/lv_area.h **** inline static void lv_area_copy(lv_area_t * dest, const lv_area_t * src)
 467              		.loc 2 97 20 view .LVU154
 468              	.LBE214:
  98:lvgl/src/lv_draw/../lv_core/../lv_font/../lv_misc/lv_area.h **** {
  99:lvgl/src/lv_draw/../lv_core/../lv_font/../lv_misc/lv_area.h ****     _lv_memcpy_small(dest, src, sizeof(lv_area_t));
 469              		.loc 2 99 5 view .LVU155
 470              	.LBB219:
 471              	.LBB215:
 472              	.LBI215:
 473              		.file 3 "lvgl/src/lv_draw/../lv_core/../lv_font/../lv_misc/lv_mem.h"
   1:lvgl/src/lv_draw/../lv_core/../lv_font/../lv_misc/lv_mem.h **** /**
   2:lvgl/src/lv_draw/../lv_core/../lv_font/../lv_misc/lv_mem.h ****  * @file lv_mem.h
   3:lvgl/src/lv_draw/../lv_core/../lv_font/../lv_misc/lv_mem.h ****  *
   4:lvgl/src/lv_draw/../lv_core/../lv_font/../lv_misc/lv_mem.h ****  */
   5:lvgl/src/lv_draw/../lv_core/../lv_font/../lv_misc/lv_mem.h **** 
   6:lvgl/src/lv_draw/../lv_core/../lv_font/../lv_misc/lv_mem.h **** #ifndef LV_MEM_H
   7:lvgl/src/lv_draw/../lv_core/../lv_font/../lv_misc/lv_mem.h **** #define LV_MEM_H
   8:lvgl/src/lv_draw/../lv_core/../lv_font/../lv_misc/lv_mem.h **** 
   9:lvgl/src/lv_draw/../lv_core/../lv_font/../lv_misc/lv_mem.h **** #ifdef __cplusplus
  10:lvgl/src/lv_draw/../lv_core/../lv_font/../lv_misc/lv_mem.h **** extern "C" {
  11:lvgl/src/lv_draw/../lv_core/../lv_font/../lv_misc/lv_mem.h **** #endif
  12:lvgl/src/lv_draw/../lv_core/../lv_font/../lv_misc/lv_mem.h **** 
  13:lvgl/src/lv_draw/../lv_core/../lv_font/../lv_misc/lv_mem.h **** /*********************
  14:lvgl/src/lv_draw/../lv_core/../lv_font/../lv_misc/lv_mem.h ****  *      INCLUDES
  15:lvgl/src/lv_draw/../lv_core/../lv_font/../lv_misc/lv_mem.h ****  *********************/
  16:lvgl/src/lv_draw/../lv_core/../lv_font/../lv_misc/lv_mem.h **** #include "../lv_conf_internal.h"
  17:lvgl/src/lv_draw/../lv_core/../lv_font/../lv_misc/lv_mem.h **** 
  18:lvgl/src/lv_draw/../lv_core/../lv_font/../lv_misc/lv_mem.h **** #include <stdint.h>
  19:lvgl/src/lv_draw/../lv_core/../lv_font/../lv_misc/lv_mem.h **** #include <stddef.h>
  20:lvgl/src/lv_draw/../lv_core/../lv_font/../lv_misc/lv_mem.h **** #include "lv_log.h"
  21:lvgl/src/lv_draw/../lv_core/../lv_font/../lv_misc/lv_mem.h **** #include "lv_types.h"
  22:lvgl/src/lv_draw/../lv_core/../lv_font/../lv_misc/lv_mem.h **** 
  23:lvgl/src/lv_draw/../lv_core/../lv_font/../lv_misc/lv_mem.h **** #if LV_MEMCPY_MEMSET_STD
  24:lvgl/src/lv_draw/../lv_core/../lv_font/../lv_misc/lv_mem.h **** #include <string.h>
  25:lvgl/src/lv_draw/../lv_core/../lv_font/../lv_misc/lv_mem.h **** #endif
  26:lvgl/src/lv_draw/../lv_core/../lv_font/../lv_misc/lv_mem.h **** 
  27:lvgl/src/lv_draw/../lv_core/../lv_font/../lv_misc/lv_mem.h **** /*********************
  28:lvgl/src/lv_draw/../lv_core/../lv_font/../lv_misc/lv_mem.h ****  *      DEFINES
  29:lvgl/src/lv_draw/../lv_core/../lv_font/../lv_misc/lv_mem.h ****  *********************/
  30:lvgl/src/lv_draw/../lv_core/../lv_font/../lv_misc/lv_mem.h **** 
  31:lvgl/src/lv_draw/../lv_core/../lv_font/../lv_misc/lv_mem.h **** #ifndef LV_MEM_BUF_MAX_NUM
ARM GAS  D:\Temp\ccGEpo4V.s 			page 33


  32:lvgl/src/lv_draw/../lv_core/../lv_font/../lv_misc/lv_mem.h **** #define LV_MEM_BUF_MAX_NUM    16
  33:lvgl/src/lv_draw/../lv_core/../lv_font/../lv_misc/lv_mem.h **** #endif
  34:lvgl/src/lv_draw/../lv_core/../lv_font/../lv_misc/lv_mem.h **** 
  35:lvgl/src/lv_draw/../lv_core/../lv_font/../lv_misc/lv_mem.h **** /**********************
  36:lvgl/src/lv_draw/../lv_core/../lv_font/../lv_misc/lv_mem.h ****  *      TYPEDEFS
  37:lvgl/src/lv_draw/../lv_core/../lv_font/../lv_misc/lv_mem.h ****  **********************/
  38:lvgl/src/lv_draw/../lv_core/../lv_font/../lv_misc/lv_mem.h **** 
  39:lvgl/src/lv_draw/../lv_core/../lv_font/../lv_misc/lv_mem.h **** /**
  40:lvgl/src/lv_draw/../lv_core/../lv_font/../lv_misc/lv_mem.h ****  * Heap information structure.
  41:lvgl/src/lv_draw/../lv_core/../lv_font/../lv_misc/lv_mem.h ****  */
  42:lvgl/src/lv_draw/../lv_core/../lv_font/../lv_misc/lv_mem.h **** typedef struct {
  43:lvgl/src/lv_draw/../lv_core/../lv_font/../lv_misc/lv_mem.h ****     uint32_t total_size; /**< Total heap size */
  44:lvgl/src/lv_draw/../lv_core/../lv_font/../lv_misc/lv_mem.h ****     uint32_t free_cnt;
  45:lvgl/src/lv_draw/../lv_core/../lv_font/../lv_misc/lv_mem.h ****     uint32_t free_size; /**< Size of available memory */
  46:lvgl/src/lv_draw/../lv_core/../lv_font/../lv_misc/lv_mem.h ****     uint32_t free_biggest_size;
  47:lvgl/src/lv_draw/../lv_core/../lv_font/../lv_misc/lv_mem.h ****     uint32_t used_cnt;
  48:lvgl/src/lv_draw/../lv_core/../lv_font/../lv_misc/lv_mem.h ****     uint32_t max_used; /**< Max size of Heap memory used */
  49:lvgl/src/lv_draw/../lv_core/../lv_font/../lv_misc/lv_mem.h ****     uint8_t used_pct; /**< Percentage used */
  50:lvgl/src/lv_draw/../lv_core/../lv_font/../lv_misc/lv_mem.h ****     uint8_t frag_pct; /**< Amount of fragmentation */
  51:lvgl/src/lv_draw/../lv_core/../lv_font/../lv_misc/lv_mem.h **** } lv_mem_monitor_t;
  52:lvgl/src/lv_draw/../lv_core/../lv_font/../lv_misc/lv_mem.h **** 
  53:lvgl/src/lv_draw/../lv_core/../lv_font/../lv_misc/lv_mem.h **** typedef struct {
  54:lvgl/src/lv_draw/../lv_core/../lv_font/../lv_misc/lv_mem.h ****     void * p;
  55:lvgl/src/lv_draw/../lv_core/../lv_font/../lv_misc/lv_mem.h ****     uint16_t size;
  56:lvgl/src/lv_draw/../lv_core/../lv_font/../lv_misc/lv_mem.h ****     uint8_t used    : 1;
  57:lvgl/src/lv_draw/../lv_core/../lv_font/../lv_misc/lv_mem.h **** } lv_mem_buf_t;
  58:lvgl/src/lv_draw/../lv_core/../lv_font/../lv_misc/lv_mem.h **** 
  59:lvgl/src/lv_draw/../lv_core/../lv_font/../lv_misc/lv_mem.h **** typedef lv_mem_buf_t lv_mem_buf_arr_t[LV_MEM_BUF_MAX_NUM];
  60:lvgl/src/lv_draw/../lv_core/../lv_font/../lv_misc/lv_mem.h **** extern lv_mem_buf_arr_t _lv_mem_buf;
  61:lvgl/src/lv_draw/../lv_core/../lv_font/../lv_misc/lv_mem.h **** 
  62:lvgl/src/lv_draw/../lv_core/../lv_font/../lv_misc/lv_mem.h **** /**********************
  63:lvgl/src/lv_draw/../lv_core/../lv_font/../lv_misc/lv_mem.h ****  * GLOBAL PROTOTYPES
  64:lvgl/src/lv_draw/../lv_core/../lv_font/../lv_misc/lv_mem.h ****  **********************/
  65:lvgl/src/lv_draw/../lv_core/../lv_font/../lv_misc/lv_mem.h **** 
  66:lvgl/src/lv_draw/../lv_core/../lv_font/../lv_misc/lv_mem.h **** /**
  67:lvgl/src/lv_draw/../lv_core/../lv_font/../lv_misc/lv_mem.h ****  * Initialize the dyn_mem module (work memory and other variables)
  68:lvgl/src/lv_draw/../lv_core/../lv_font/../lv_misc/lv_mem.h ****  */
  69:lvgl/src/lv_draw/../lv_core/../lv_font/../lv_misc/lv_mem.h **** void _lv_mem_init(void);
  70:lvgl/src/lv_draw/../lv_core/../lv_font/../lv_misc/lv_mem.h **** 
  71:lvgl/src/lv_draw/../lv_core/../lv_font/../lv_misc/lv_mem.h **** /**
  72:lvgl/src/lv_draw/../lv_core/../lv_font/../lv_misc/lv_mem.h ****  * Clean up the memory buffer which frees all the allocated memories.
  73:lvgl/src/lv_draw/../lv_core/../lv_font/../lv_misc/lv_mem.h ****  * @note It work only if `LV_MEM_CUSTOM == 0`
  74:lvgl/src/lv_draw/../lv_core/../lv_font/../lv_misc/lv_mem.h ****  */
  75:lvgl/src/lv_draw/../lv_core/../lv_font/../lv_misc/lv_mem.h **** void _lv_mem_deinit(void);
  76:lvgl/src/lv_draw/../lv_core/../lv_font/../lv_misc/lv_mem.h **** 
  77:lvgl/src/lv_draw/../lv_core/../lv_font/../lv_misc/lv_mem.h **** /**
  78:lvgl/src/lv_draw/../lv_core/../lv_font/../lv_misc/lv_mem.h ****  * Allocate a memory dynamically
  79:lvgl/src/lv_draw/../lv_core/../lv_font/../lv_misc/lv_mem.h ****  * @param size size of the memory to allocate in bytes
  80:lvgl/src/lv_draw/../lv_core/../lv_font/../lv_misc/lv_mem.h ****  * @return pointer to the allocated memory
  81:lvgl/src/lv_draw/../lv_core/../lv_font/../lv_misc/lv_mem.h ****  */
  82:lvgl/src/lv_draw/../lv_core/../lv_font/../lv_misc/lv_mem.h **** void * lv_mem_alloc(size_t size);
  83:lvgl/src/lv_draw/../lv_core/../lv_font/../lv_misc/lv_mem.h **** 
  84:lvgl/src/lv_draw/../lv_core/../lv_font/../lv_misc/lv_mem.h **** /**
  85:lvgl/src/lv_draw/../lv_core/../lv_font/../lv_misc/lv_mem.h ****  * Free an allocated data
  86:lvgl/src/lv_draw/../lv_core/../lv_font/../lv_misc/lv_mem.h ****  * @param data pointer to an allocated memory
  87:lvgl/src/lv_draw/../lv_core/../lv_font/../lv_misc/lv_mem.h ****  */
  88:lvgl/src/lv_draw/../lv_core/../lv_font/../lv_misc/lv_mem.h **** void lv_mem_free(const void * data);
ARM GAS  D:\Temp\ccGEpo4V.s 			page 34


  89:lvgl/src/lv_draw/../lv_core/../lv_font/../lv_misc/lv_mem.h **** 
  90:lvgl/src/lv_draw/../lv_core/../lv_font/../lv_misc/lv_mem.h **** /**
  91:lvgl/src/lv_draw/../lv_core/../lv_font/../lv_misc/lv_mem.h ****  * Reallocate a memory with a new size. The old content will be kept.
  92:lvgl/src/lv_draw/../lv_core/../lv_font/../lv_misc/lv_mem.h ****  * @param data pointer to an allocated memory.
  93:lvgl/src/lv_draw/../lv_core/../lv_font/../lv_misc/lv_mem.h ****  * Its content will be copied to the new memory block and freed
  94:lvgl/src/lv_draw/../lv_core/../lv_font/../lv_misc/lv_mem.h ****  * @param new_size the desired new size in byte
  95:lvgl/src/lv_draw/../lv_core/../lv_font/../lv_misc/lv_mem.h ****  * @return pointer to the new memory
  96:lvgl/src/lv_draw/../lv_core/../lv_font/../lv_misc/lv_mem.h ****  */
  97:lvgl/src/lv_draw/../lv_core/../lv_font/../lv_misc/lv_mem.h **** void * lv_mem_realloc(void * data_p, size_t new_size);
  98:lvgl/src/lv_draw/../lv_core/../lv_font/../lv_misc/lv_mem.h **** 
  99:lvgl/src/lv_draw/../lv_core/../lv_font/../lv_misc/lv_mem.h **** /**
 100:lvgl/src/lv_draw/../lv_core/../lv_font/../lv_misc/lv_mem.h ****  * Join the adjacent free memory blocks
 101:lvgl/src/lv_draw/../lv_core/../lv_font/../lv_misc/lv_mem.h ****  */
 102:lvgl/src/lv_draw/../lv_core/../lv_font/../lv_misc/lv_mem.h **** void lv_mem_defrag(void);
 103:lvgl/src/lv_draw/../lv_core/../lv_font/../lv_misc/lv_mem.h **** 
 104:lvgl/src/lv_draw/../lv_core/../lv_font/../lv_misc/lv_mem.h **** /**
 105:lvgl/src/lv_draw/../lv_core/../lv_font/../lv_misc/lv_mem.h ****  *
 106:lvgl/src/lv_draw/../lv_core/../lv_font/../lv_misc/lv_mem.h ****  * @return
 107:lvgl/src/lv_draw/../lv_core/../lv_font/../lv_misc/lv_mem.h ****  */
 108:lvgl/src/lv_draw/../lv_core/../lv_font/../lv_misc/lv_mem.h **** lv_res_t lv_mem_test(void);
 109:lvgl/src/lv_draw/../lv_core/../lv_font/../lv_misc/lv_mem.h **** 
 110:lvgl/src/lv_draw/../lv_core/../lv_font/../lv_misc/lv_mem.h **** /**
 111:lvgl/src/lv_draw/../lv_core/../lv_font/../lv_misc/lv_mem.h ****  * Give information about the work memory of dynamic allocation
 112:lvgl/src/lv_draw/../lv_core/../lv_font/../lv_misc/lv_mem.h ****  * @param mon_p pointer to a dm_mon_p variable,
 113:lvgl/src/lv_draw/../lv_core/../lv_font/../lv_misc/lv_mem.h ****  *              the result of the analysis will be stored here
 114:lvgl/src/lv_draw/../lv_core/../lv_font/../lv_misc/lv_mem.h ****  */
 115:lvgl/src/lv_draw/../lv_core/../lv_font/../lv_misc/lv_mem.h **** void lv_mem_monitor(lv_mem_monitor_t * mon_p);
 116:lvgl/src/lv_draw/../lv_core/../lv_font/../lv_misc/lv_mem.h **** 
 117:lvgl/src/lv_draw/../lv_core/../lv_font/../lv_misc/lv_mem.h **** /**
 118:lvgl/src/lv_draw/../lv_core/../lv_font/../lv_misc/lv_mem.h ****  * Give the size of an allocated memory
 119:lvgl/src/lv_draw/../lv_core/../lv_font/../lv_misc/lv_mem.h ****  * @param data pointer to an allocated memory
 120:lvgl/src/lv_draw/../lv_core/../lv_font/../lv_misc/lv_mem.h ****  * @return the size of data memory in bytes
 121:lvgl/src/lv_draw/../lv_core/../lv_font/../lv_misc/lv_mem.h ****  */
 122:lvgl/src/lv_draw/../lv_core/../lv_font/../lv_misc/lv_mem.h **** uint32_t _lv_mem_get_size(const void * data);
 123:lvgl/src/lv_draw/../lv_core/../lv_font/../lv_misc/lv_mem.h **** 
 124:lvgl/src/lv_draw/../lv_core/../lv_font/../lv_misc/lv_mem.h **** /**
 125:lvgl/src/lv_draw/../lv_core/../lv_font/../lv_misc/lv_mem.h ****  * Get a temporal buffer with the given size.
 126:lvgl/src/lv_draw/../lv_core/../lv_font/../lv_misc/lv_mem.h ****  * @param size the required size
 127:lvgl/src/lv_draw/../lv_core/../lv_font/../lv_misc/lv_mem.h ****  */
 128:lvgl/src/lv_draw/../lv_core/../lv_font/../lv_misc/lv_mem.h **** void * _lv_mem_buf_get(uint32_t size);
 129:lvgl/src/lv_draw/../lv_core/../lv_font/../lv_misc/lv_mem.h **** 
 130:lvgl/src/lv_draw/../lv_core/../lv_font/../lv_misc/lv_mem.h **** /**
 131:lvgl/src/lv_draw/../lv_core/../lv_font/../lv_misc/lv_mem.h ****  * Release a memory buffer
 132:lvgl/src/lv_draw/../lv_core/../lv_font/../lv_misc/lv_mem.h ****  * @param p buffer to release
 133:lvgl/src/lv_draw/../lv_core/../lv_font/../lv_misc/lv_mem.h ****  */
 134:lvgl/src/lv_draw/../lv_core/../lv_font/../lv_misc/lv_mem.h **** void _lv_mem_buf_release(void * p);
 135:lvgl/src/lv_draw/../lv_core/../lv_font/../lv_misc/lv_mem.h **** 
 136:lvgl/src/lv_draw/../lv_core/../lv_font/../lv_misc/lv_mem.h **** /**
 137:lvgl/src/lv_draw/../lv_core/../lv_font/../lv_misc/lv_mem.h ****  * Free all memory buffers
 138:lvgl/src/lv_draw/../lv_core/../lv_font/../lv_misc/lv_mem.h ****  */
 139:lvgl/src/lv_draw/../lv_core/../lv_font/../lv_misc/lv_mem.h **** void _lv_mem_buf_free_all(void);
 140:lvgl/src/lv_draw/../lv_core/../lv_font/../lv_misc/lv_mem.h **** 
 141:lvgl/src/lv_draw/../lv_core/../lv_font/../lv_misc/lv_mem.h **** //! @cond Doxygen_Suppress
 142:lvgl/src/lv_draw/../lv_core/../lv_font/../lv_misc/lv_mem.h **** 
 143:lvgl/src/lv_draw/../lv_core/../lv_font/../lv_misc/lv_mem.h **** #if LV_MEMCPY_MEMSET_STD
 144:lvgl/src/lv_draw/../lv_core/../lv_font/../lv_misc/lv_mem.h **** 
 145:lvgl/src/lv_draw/../lv_core/../lv_font/../lv_misc/lv_mem.h **** /**
ARM GAS  D:\Temp\ccGEpo4V.s 			page 35


 146:lvgl/src/lv_draw/../lv_core/../lv_font/../lv_misc/lv_mem.h ****  * Wrapper for the standard memcpy
 147:lvgl/src/lv_draw/../lv_core/../lv_font/../lv_misc/lv_mem.h ****  * @param dst pointer to the destination buffer
 148:lvgl/src/lv_draw/../lv_core/../lv_font/../lv_misc/lv_mem.h ****  * @param src pointer to the source buffer
 149:lvgl/src/lv_draw/../lv_core/../lv_font/../lv_misc/lv_mem.h ****  * @param len number of byte to copy
 150:lvgl/src/lv_draw/../lv_core/../lv_font/../lv_misc/lv_mem.h ****  */
 151:lvgl/src/lv_draw/../lv_core/../lv_font/../lv_misc/lv_mem.h **** static inline void * _lv_memcpy(void * dst, const void * src, size_t len)
 152:lvgl/src/lv_draw/../lv_core/../lv_font/../lv_misc/lv_mem.h **** {
 153:lvgl/src/lv_draw/../lv_core/../lv_font/../lv_misc/lv_mem.h ****     return memcpy(dst, src, len);
 154:lvgl/src/lv_draw/../lv_core/../lv_font/../lv_misc/lv_mem.h **** }
 155:lvgl/src/lv_draw/../lv_core/../lv_font/../lv_misc/lv_mem.h **** 
 156:lvgl/src/lv_draw/../lv_core/../lv_font/../lv_misc/lv_mem.h **** /**
 157:lvgl/src/lv_draw/../lv_core/../lv_font/../lv_misc/lv_mem.h ****  * Wrapper for the standard memcpy
 158:lvgl/src/lv_draw/../lv_core/../lv_font/../lv_misc/lv_mem.h ****  * @param dst pointer to the destination buffer
 159:lvgl/src/lv_draw/../lv_core/../lv_font/../lv_misc/lv_mem.h ****  * @param src pointer to the source buffer
 160:lvgl/src/lv_draw/../lv_core/../lv_font/../lv_misc/lv_mem.h ****  * @param len number of byte to copy
 161:lvgl/src/lv_draw/../lv_core/../lv_font/../lv_misc/lv_mem.h ****  */
 162:lvgl/src/lv_draw/../lv_core/../lv_font/../lv_misc/lv_mem.h **** static inline void * _lv_memcpy_small(void * dst, const void * src, size_t len)
 163:lvgl/src/lv_draw/../lv_core/../lv_font/../lv_misc/lv_mem.h **** {
 164:lvgl/src/lv_draw/../lv_core/../lv_font/../lv_misc/lv_mem.h ****     return memcpy(dst, src, len);
 165:lvgl/src/lv_draw/../lv_core/../lv_font/../lv_misc/lv_mem.h **** }
 166:lvgl/src/lv_draw/../lv_core/../lv_font/../lv_misc/lv_mem.h **** 
 167:lvgl/src/lv_draw/../lv_core/../lv_font/../lv_misc/lv_mem.h **** /**
 168:lvgl/src/lv_draw/../lv_core/../lv_font/../lv_misc/lv_mem.h ****  * Wrapper for the standard memset
 169:lvgl/src/lv_draw/../lv_core/../lv_font/../lv_misc/lv_mem.h ****  * @param dst pointer to the destination buffer
 170:lvgl/src/lv_draw/../lv_core/../lv_font/../lv_misc/lv_mem.h ****  * @param v value to set [0..255]
 171:lvgl/src/lv_draw/../lv_core/../lv_font/../lv_misc/lv_mem.h ****  * @param len number of byte to set
 172:lvgl/src/lv_draw/../lv_core/../lv_font/../lv_misc/lv_mem.h ****  */
 173:lvgl/src/lv_draw/../lv_core/../lv_font/../lv_misc/lv_mem.h **** static inline void _lv_memset(void * dst, uint8_t v, size_t len)
 174:lvgl/src/lv_draw/../lv_core/../lv_font/../lv_misc/lv_mem.h **** {
 175:lvgl/src/lv_draw/../lv_core/../lv_font/../lv_misc/lv_mem.h ****     memset(dst, v, len);
 176:lvgl/src/lv_draw/../lv_core/../lv_font/../lv_misc/lv_mem.h **** }
 177:lvgl/src/lv_draw/../lv_core/../lv_font/../lv_misc/lv_mem.h **** 
 178:lvgl/src/lv_draw/../lv_core/../lv_font/../lv_misc/lv_mem.h **** /**
 179:lvgl/src/lv_draw/../lv_core/../lv_font/../lv_misc/lv_mem.h ****  * Wrapper for the standard memset with fixed 0x00 value
 180:lvgl/src/lv_draw/../lv_core/../lv_font/../lv_misc/lv_mem.h ****  * @param dst pointer to the destination buffer
 181:lvgl/src/lv_draw/../lv_core/../lv_font/../lv_misc/lv_mem.h ****  * @param len number of byte to set
 182:lvgl/src/lv_draw/../lv_core/../lv_font/../lv_misc/lv_mem.h ****  */
 183:lvgl/src/lv_draw/../lv_core/../lv_font/../lv_misc/lv_mem.h **** static inline void _lv_memset_00(void * dst, size_t len)
 184:lvgl/src/lv_draw/../lv_core/../lv_font/../lv_misc/lv_mem.h **** {
 185:lvgl/src/lv_draw/../lv_core/../lv_font/../lv_misc/lv_mem.h ****     memset(dst, 0x00, len);
 186:lvgl/src/lv_draw/../lv_core/../lv_font/../lv_misc/lv_mem.h **** }
 187:lvgl/src/lv_draw/../lv_core/../lv_font/../lv_misc/lv_mem.h **** 
 188:lvgl/src/lv_draw/../lv_core/../lv_font/../lv_misc/lv_mem.h **** /**
 189:lvgl/src/lv_draw/../lv_core/../lv_font/../lv_misc/lv_mem.h ****  * Wrapper for the standard memset with fixed 0xFF value
 190:lvgl/src/lv_draw/../lv_core/../lv_font/../lv_misc/lv_mem.h ****  * @param dst pointer to the destination buffer
 191:lvgl/src/lv_draw/../lv_core/../lv_font/../lv_misc/lv_mem.h ****  * @param len number of byte to set
 192:lvgl/src/lv_draw/../lv_core/../lv_font/../lv_misc/lv_mem.h ****  */
 193:lvgl/src/lv_draw/../lv_core/../lv_font/../lv_misc/lv_mem.h **** static inline void _lv_memset_ff(void * dst, size_t len)
 194:lvgl/src/lv_draw/../lv_core/../lv_font/../lv_misc/lv_mem.h **** {
 195:lvgl/src/lv_draw/../lv_core/../lv_font/../lv_misc/lv_mem.h ****     memset(dst, 0xFF, len);
 196:lvgl/src/lv_draw/../lv_core/../lv_font/../lv_misc/lv_mem.h **** }
 197:lvgl/src/lv_draw/../lv_core/../lv_font/../lv_misc/lv_mem.h **** 
 198:lvgl/src/lv_draw/../lv_core/../lv_font/../lv_misc/lv_mem.h **** #else
 199:lvgl/src/lv_draw/../lv_core/../lv_font/../lv_misc/lv_mem.h **** /**
 200:lvgl/src/lv_draw/../lv_core/../lv_font/../lv_misc/lv_mem.h ****  * Same as `memcpy` but optimized for 4 byte operation.
 201:lvgl/src/lv_draw/../lv_core/../lv_font/../lv_misc/lv_mem.h ****  * @param dst pointer to the destination buffer
 202:lvgl/src/lv_draw/../lv_core/../lv_font/../lv_misc/lv_mem.h ****  * @param src pointer to the source buffer
ARM GAS  D:\Temp\ccGEpo4V.s 			page 36


 203:lvgl/src/lv_draw/../lv_core/../lv_font/../lv_misc/lv_mem.h ****  * @param len number of byte to copy
 204:lvgl/src/lv_draw/../lv_core/../lv_font/../lv_misc/lv_mem.h ****  */
 205:lvgl/src/lv_draw/../lv_core/../lv_font/../lv_misc/lv_mem.h **** LV_ATTRIBUTE_FAST_MEM void * _lv_memcpy(void * dst, const void * src, size_t len);
 206:lvgl/src/lv_draw/../lv_core/../lv_font/../lv_misc/lv_mem.h **** 
 207:lvgl/src/lv_draw/../lv_core/../lv_font/../lv_misc/lv_mem.h **** /**
 208:lvgl/src/lv_draw/../lv_core/../lv_font/../lv_misc/lv_mem.h ****  * Same as `memcpy` but optimized to copy only a few bytes.
 209:lvgl/src/lv_draw/../lv_core/../lv_font/../lv_misc/lv_mem.h ****  * @param dst pointer to the destination buffer
 210:lvgl/src/lv_draw/../lv_core/../lv_font/../lv_misc/lv_mem.h ****  * @param src pointer to the source buffer
 211:lvgl/src/lv_draw/../lv_core/../lv_font/../lv_misc/lv_mem.h ****  * @param len number of byte to copy
 212:lvgl/src/lv_draw/../lv_core/../lv_font/../lv_misc/lv_mem.h ****  */
 213:lvgl/src/lv_draw/../lv_core/../lv_font/../lv_misc/lv_mem.h **** LV_ATTRIBUTE_FAST_MEM static inline void * _lv_memcpy_small(void * dst, const void * src, size_t le
 474              		.loc 3 213 44 view .LVU156
 475              	.LBB216:
 214:lvgl/src/lv_draw/../lv_core/../lv_font/../lv_misc/lv_mem.h **** {
 215:lvgl/src/lv_draw/../lv_core/../lv_font/../lv_misc/lv_mem.h ****     uint8_t * d8 = (uint8_t *)dst;
 476              		.loc 3 215 5 view .LVU157
 216:lvgl/src/lv_draw/../lv_core/../lv_font/../lv_misc/lv_mem.h ****     const uint8_t * s8 = (const uint8_t *)src;
 477              		.loc 3 216 5 view .LVU158
 217:lvgl/src/lv_draw/../lv_core/../lv_font/../lv_misc/lv_mem.h **** 
 218:lvgl/src/lv_draw/../lv_core/../lv_font/../lv_misc/lv_mem.h ****     while(len) {
 478              		.loc 3 218 5 view .LVU159
 216:lvgl/src/lv_draw/../lv_core/../lv_font/../lv_misc/lv_mem.h ****     const uint8_t * s8 = (const uint8_t *)src;
 479              		.loc 3 216 21 is_stmt 0 view .LVU160
 480 0010 0446     		mov	r4, r0
 215:lvgl/src/lv_draw/../lv_core/../lv_font/../lv_misc/lv_mem.h ****     const uint8_t * s8 = (const uint8_t *)src;
 481              		.loc 3 215 15 view .LVU161
 482 0012 0CA9     		add	r1, sp, #48
 483              	.LVL55:
 215:lvgl/src/lv_draw/../lv_core/../lv_font/../lv_misc/lv_mem.h ****     const uint8_t * s8 = (const uint8_t *)src;
 484              		.loc 3 215 15 view .LVU162
 485              	.LBE216:
 486              	.LBE215:
 487              	.LBE219:
 997:lvgl/src/lv_draw/lv_draw_rect.c **** 
 488              		.loc 1 997 13 view .LVU163
 489 0014 0823     		movs	r3, #8
 490              	.LVL56:
 997:lvgl/src/lv_draw/lv_draw_rect.c **** 
 491              		.loc 1 997 13 view .LVU164
 492 0016 04E0     		b	.L38
 493              	.LVL57:
 494              	.L39:
 495              	.LBB220:
 496              	.LBB218:
 497              	.LBB217:
 219:lvgl/src/lv_draw/../lv_core/../lv_font/../lv_misc/lv_mem.h ****         *d8 = *s8;
 498              		.loc 3 219 9 is_stmt 1 view .LVU165
 499              		.loc 3 219 15 is_stmt 0 view .LVU166
 500 0018 14F8016B 		ldrb	r6, [r4], #1	@ zero_extendqisi2
 501              	.LVL58:
 502              		.loc 3 219 13 view .LVU167
 503 001c 01F8016B 		strb	r6, [r1], #1
 504              	.LVL59:
 220:lvgl/src/lv_draw/../lv_core/../lv_font/../lv_misc/lv_mem.h ****         d8++;
 505              		.loc 3 220 9 is_stmt 1 view .LVU168
 221:lvgl/src/lv_draw/../lv_core/../lv_font/../lv_misc/lv_mem.h ****         s8++;
 506              		.loc 3 221 9 view .LVU169
ARM GAS  D:\Temp\ccGEpo4V.s 			page 37


 222:lvgl/src/lv_draw/../lv_core/../lv_font/../lv_misc/lv_mem.h ****         len--;
 507              		.loc 3 222 9 view .LVU170
 508              		.loc 3 222 12 is_stmt 0 view .LVU171
 509 0020 013B     		subs	r3, r3, #1
 510              	.LVL60:
 511              	.L38:
 218:lvgl/src/lv_draw/../lv_core/../lv_font/../lv_misc/lv_mem.h ****         *d8 = *s8;
 512              		.loc 3 218 10 view .LVU172
 513 0022 002B     		cmp	r3, #0
 514 0024 F8D1     		bne	.L39
 223:lvgl/src/lv_draw/../lv_core/../lv_font/../lv_misc/lv_mem.h ****     }
 224:lvgl/src/lv_draw/../lv_core/../lv_font/../lv_misc/lv_mem.h **** 
 225:lvgl/src/lv_draw/../lv_core/../lv_font/../lv_misc/lv_mem.h ****     return dst;
 515              		.loc 3 225 5 is_stmt 1 view .LVU173
 516              	.LVL61:
 517              		.loc 3 225 5 is_stmt 0 view .LVU174
 518              	.LBE217:
 519              	.LBE218:
 520              	.LBE220:
1001:lvgl/src/lv_draw/lv_draw_rect.c ****     sh_area.y1 = sw / 2 + 1;
 521              		.loc 1 1001 5 is_stmt 1 view .LVU175
1001:lvgl/src/lv_draw/lv_draw_rect.c ****     sh_area.y1 = sw / 2 + 1;
 522              		.loc 1 1001 25 is_stmt 0 view .LVU176
 523 0026 0BEBDB71 		add	r1, fp, fp, lsr #31
 524 002a C1F34F01 		ubfx	r1, r1, #1, #16
 525 002e 8B18     		adds	r3, r1, r2
 526 0030 9BB2     		uxth	r3, r3
1001:lvgl/src/lv_draw/lv_draw_rect.c ****     sh_area.y1 = sw / 2 + 1;
 527              		.loc 1 1001 50 view .LVU177
 528 0032 1BF00107 		ands	r7, fp, #1
 529 0036 0CBF     		ite	eq
 530 0038 0124     		moveq	r4, #1
 531 003a 0024     		movne	r4, #0
1001:lvgl/src/lv_draw/lv_draw_rect.c ****     sh_area.y1 = sw / 2 + 1;
 532              		.loc 1 1001 34 view .LVU178
 533 003c 1B1B     		subs	r3, r3, r4
 534 003e 013B     		subs	r3, r3, #1
 535 0040 9BB2     		uxth	r3, r3
1001:lvgl/src/lv_draw/lv_draw_rect.c ****     sh_area.y1 = sw / 2 + 1;
 536              		.loc 1 1001 16 view .LVU179
 537 0042 ADF83430 		strh	r3, [sp, #52]	@ movhi
1002:lvgl/src/lv_draw/lv_draw_rect.c **** 
 538              		.loc 1 1002 5 is_stmt 1 view .LVU180
1002:lvgl/src/lv_draw/lv_draw_rect.c **** 
 539              		.loc 1 1002 25 is_stmt 0 view .LVU181
 540 0046 0131     		adds	r1, r1, #1
 541 0048 89B2     		uxth	r1, r1
1002:lvgl/src/lv_draw/lv_draw_rect.c **** 
 542              		.loc 1 1002 16 view .LVU182
 543 004a ADF83210 		strh	r1, [sp, #50]	@ movhi
1004:lvgl/src/lv_draw/lv_draw_rect.c ****     sh_area.y2 = sh_area.y1 + lv_area_get_height(coords);
 544              		.loc 1 1004 5 is_stmt 1 view .LVU183
 545              	.LVL62:
 546              	.LBB221:
 547              	.LBI221:
 100:lvgl/src/lv_draw/../lv_core/../lv_font/../lv_misc/lv_area.h **** }
 101:lvgl/src/lv_draw/../lv_core/../lv_font/../lv_misc/lv_area.h **** 
ARM GAS  D:\Temp\ccGEpo4V.s 			page 38


 102:lvgl/src/lv_draw/../lv_core/../lv_font/../lv_misc/lv_area.h **** /**
 103:lvgl/src/lv_draw/../lv_core/../lv_font/../lv_misc/lv_area.h ****  * Get the width of an area
 104:lvgl/src/lv_draw/../lv_core/../lv_font/../lv_misc/lv_area.h ****  * @param area_p pointer to an area
 105:lvgl/src/lv_draw/../lv_core/../lv_font/../lv_misc/lv_area.h ****  * @return the width of the area (if x1 == x2 -> width = 1)
 106:lvgl/src/lv_draw/../lv_core/../lv_font/../lv_misc/lv_area.h ****  */
 107:lvgl/src/lv_draw/../lv_core/../lv_font/../lv_misc/lv_area.h **** static inline lv_coord_t lv_area_get_width(const lv_area_t * area_p)
 548              		.loc 2 107 26 view .LVU184
 549              	.LBB222:
 108:lvgl/src/lv_draw/../lv_core/../lv_font/../lv_misc/lv_area.h **** {
 109:lvgl/src/lv_draw/../lv_core/../lv_font/../lv_misc/lv_area.h ****     return (lv_coord_t)(area_p->x2 - area_p->x1 + 1);
 550              		.loc 2 109 5 view .LVU185
 551              		.loc 2 109 31 is_stmt 0 view .LVU186
 552 004e 8488     		ldrh	r4, [r0, #4]
 553              		.loc 2 109 44 view .LVU187
 554 0050 0688     		ldrh	r6, [r0]
 555              		.loc 2 109 36 view .LVU188
 556 0052 A41B     		subs	r4, r4, r6
 557 0054 A4B2     		uxth	r4, r4
 558              		.loc 2 109 49 view .LVU189
 559 0056 0134     		adds	r4, r4, #1
 560 0058 A4B2     		uxth	r4, r4
 561              	.LVL63:
 562              		.loc 2 109 49 view .LVU190
 563              	.LBE222:
 564              	.LBE221:
1004:lvgl/src/lv_draw/lv_draw_rect.c ****     sh_area.y2 = sh_area.y1 + lv_area_get_height(coords);
 565              		.loc 1 1004 29 view .LVU191
 566 005a 1B1B     		subs	r3, r3, r4
1004:lvgl/src/lv_draw/lv_draw_rect.c ****     sh_area.y2 = sh_area.y1 + lv_area_get_height(coords);
 567              		.loc 1 1004 16 view .LVU192
 568 005c ADF83030 		strh	r3, [sp, #48]	@ movhi
1005:lvgl/src/lv_draw/lv_draw_rect.c **** 
 569              		.loc 1 1005 5 is_stmt 1 view .LVU193
 570              	.LVL64:
 571              	.LBB223:
 572              	.LBI223:
 110:lvgl/src/lv_draw/../lv_core/../lv_font/../lv_misc/lv_area.h **** }
 111:lvgl/src/lv_draw/../lv_core/../lv_font/../lv_misc/lv_area.h **** 
 112:lvgl/src/lv_draw/../lv_core/../lv_font/../lv_misc/lv_area.h **** /**
 113:lvgl/src/lv_draw/../lv_core/../lv_font/../lv_misc/lv_area.h ****  * Get the height of an area
 114:lvgl/src/lv_draw/../lv_core/../lv_font/../lv_misc/lv_area.h ****  * @param area_p pointer to an area
 115:lvgl/src/lv_draw/../lv_core/../lv_font/../lv_misc/lv_area.h ****  * @return the height of the area (if y1 == y2 -> height = 1)
 116:lvgl/src/lv_draw/../lv_core/../lv_font/../lv_misc/lv_area.h ****  */
 117:lvgl/src/lv_draw/../lv_core/../lv_font/../lv_misc/lv_area.h **** static inline lv_coord_t lv_area_get_height(const lv_area_t * area_p)
 573              		.loc 2 117 26 view .LVU194
 574              	.LBB224:
 118:lvgl/src/lv_draw/../lv_core/../lv_font/../lv_misc/lv_area.h **** {
 119:lvgl/src/lv_draw/../lv_core/../lv_font/../lv_misc/lv_area.h ****     return (lv_coord_t)(area_p->y2 - area_p->y1 + 1);
 575              		.loc 2 119 5 view .LVU195
 576              		.loc 2 119 31 is_stmt 0 view .LVU196
 577 0060 C388     		ldrh	r3, [r0, #6]
 578              		.loc 2 119 44 view .LVU197
 579 0062 4088     		ldrh	r0, [r0, #2]
 580              	.LVL65:
 581              		.loc 2 119 36 view .LVU198
 582 0064 1B1A     		subs	r3, r3, r0
 583 0066 9BB2     		uxth	r3, r3
ARM GAS  D:\Temp\ccGEpo4V.s 			page 39


 584              		.loc 2 119 49 view .LVU199
 585 0068 0133     		adds	r3, r3, #1
 586              	.LVL66:
 587              		.loc 2 119 49 view .LVU200
 588              	.LBE224:
 589              	.LBE223:
1005:lvgl/src/lv_draw/lv_draw_rect.c **** 
 590              		.loc 1 1005 29 view .LVU201
 591 006a 11FA83F3 		uxtah	r3, r1, r3
1005:lvgl/src/lv_draw/lv_draw_rect.c **** 
 592              		.loc 1 1005 16 view .LVU202
 593 006e ADF83630 		strh	r3, [sp, #54]	@ movhi
1007:lvgl/src/lv_draw/lv_draw_rect.c ****     lv_draw_mask_radius_init(&mask_param, &sh_area, r, false);
 594              		.loc 1 1007 5 is_stmt 1 view .LVU203
1008:lvgl/src/lv_draw/lv_draw_rect.c **** 
 595              		.loc 1 1008 5 view .LVU204
 596 0072 0023     		movs	r3, #0
 597 0074 0CA9     		add	r1, sp, #48
 598 0076 05A8     		add	r0, sp, #20
 599 0078 FFF7FEFF 		bl	lv_draw_mask_radius_init
 600              	.LVL67:
1012:lvgl/src/lv_draw/lv_draw_rect.c ****     else sw = sw_ori >> 1;
 601              		.loc 1 1012 5 view .LVU205
1012:lvgl/src/lv_draw/lv_draw_rect.c ****     else sw = sw_ori >> 1;
 602              		.loc 1 1012 7 is_stmt 0 view .LVU206
 603 007c BBF1010F 		cmp	fp, #1
 604 0080 0BD0     		beq	.L60
1013:lvgl/src/lv_draw/lv_draw_rect.c **** #endif
 605              		.loc 1 1013 10 is_stmt 1 view .LVU207
1013:lvgl/src/lv_draw/lv_draw_rect.c **** #endif
 606              		.loc 1 1013 13 is_stmt 0 view .LVU208
 607 0082 4FEA6B0B 		asr	fp, fp, #1
 608              	.LVL68:
 609              	.L40:
1016:lvgl/src/lv_draw/lv_draw_rect.c ****     lv_opa_t * mask_line = _lv_mem_buf_get(size);
 610              		.loc 1 1016 5 is_stmt 1 view .LVU209
1017:lvgl/src/lv_draw/lv_draw_rect.c ****     uint16_t * sh_ups_tmp_buf = (uint16_t *)sh_buf;
 611              		.loc 1 1017 5 view .LVU210
1017:lvgl/src/lv_draw/lv_draw_rect.c ****     uint16_t * sh_ups_tmp_buf = (uint16_t *)sh_buf;
 612              		.loc 1 1017 28 is_stmt 0 view .LVU211
 613 0086 AA46     		mov	r10, r5
 614 0088 2846     		mov	r0, r5
 615 008a FFF7FEFF 		bl	_lv_mem_buf_get
 616              	.LVL69:
 617 008e 0446     		mov	r4, r0
 618              	.LVL70:
1018:lvgl/src/lv_draw/lv_draw_rect.c ****     for(y = 0; y < size; y++) {
 619              		.loc 1 1018 5 is_stmt 1 view .LVU212
1019:lvgl/src/lv_draw/lv_draw_rect.c ****         _lv_memset_ff(mask_line, size);
 620              		.loc 1 1019 5 view .LVU213
1018:lvgl/src/lv_draw/lv_draw_rect.c ****     for(y = 0; y < size; y++) {
 621              		.loc 1 1018 16 is_stmt 0 view .LVU214
 622 0090 4E46     		mov	r6, r9
1019:lvgl/src/lv_draw/lv_draw_rect.c ****         _lv_memset_ff(mask_line, size);
 623              		.loc 1 1019 11 view .LVU215
 624 0092 4FF00008 		mov	r8, #0
 625 0096 0397     		str	r7, [sp, #12]
ARM GAS  D:\Temp\ccGEpo4V.s 			page 40


1019:lvgl/src/lv_draw/lv_draw_rect.c ****         _lv_memset_ff(mask_line, size);
 626              		.loc 1 1019 5 view .LVU216
 627 0098 0BE0     		b	.L41
 628              	.LVL71:
 629              	.L60:
1012:lvgl/src/lv_draw/lv_draw_rect.c ****     else sw = sw_ori >> 1;
 630              		.loc 1 1012 24 view .LVU217
 631 009a 4FF0010B 		mov	fp, #1
 632              	.LVL72:
1012:lvgl/src/lv_draw/lv_draw_rect.c ****     else sw = sw_ori >> 1;
 633              		.loc 1 1012 24 view .LVU218
 634 009e F2E7     		b	.L40
 635              	.LVL73:
 636              	.L65:
 637              	.LBB225:
1023:lvgl/src/lv_draw/lv_draw_rect.c ****         }
 638              		.loc 1 1023 13 is_stmt 1 view .LVU219
 639 00a0 4FEA4A01 		lsl	r1, r10, #1
 640 00a4 3046     		mov	r0, r6
 641              	.LVL74:
1023:lvgl/src/lv_draw/lv_draw_rect.c ****         }
 642              		.loc 1 1023 13 is_stmt 0 view .LVU220
 643 00a6 FFF7FEFF 		bl	_lv_memset_00
 644              	.LVL75:
 645              	.L43:
1034:lvgl/src/lv_draw/lv_draw_rect.c ****     }
 646              		.loc 1 1034 9 is_stmt 1 discriminator 2 view .LVU221
1034:lvgl/src/lv_draw/lv_draw_rect.c ****     }
 647              		.loc 1 1034 24 is_stmt 0 discriminator 2 view .LVU222
 648 00aa 06EB4A06 		add	r6, r6, r10, lsl #1
 649              	.LVL76:
1034:lvgl/src/lv_draw/lv_draw_rect.c ****     }
 650              		.loc 1 1034 24 discriminator 2 view .LVU223
 651              	.LBE225:
1019:lvgl/src/lv_draw/lv_draw_rect.c ****         _lv_memset_ff(mask_line, size);
 652              		.loc 1 1019 27 discriminator 2 view .LVU224
 653 00ae 08F10108 		add	r8, r8, #1
 654              	.LVL77:
 655              	.L41:
1019:lvgl/src/lv_draw/lv_draw_rect.c ****         _lv_memset_ff(mask_line, size);
 656              		.loc 1 1019 5 discriminator 1 view .LVU225
 657 00b2 A845     		cmp	r8, r5
 658 00b4 2FDA     		bge	.L64
 659              	.LBB227:
1020:lvgl/src/lv_draw/lv_draw_rect.c ****         lv_draw_mask_res_t mask_res = mask_param.dsc.cb(mask_line, 0, y, size, &mask_param);
 660              		.loc 1 1020 9 is_stmt 1 view .LVU226
 661 00b6 5146     		mov	r1, r10
 662 00b8 2046     		mov	r0, r4
 663 00ba FFF7FEFF 		bl	_lv_memset_ff
 664              	.LVL78:
1021:lvgl/src/lv_draw/lv_draw_rect.c ****         if(mask_res == LV_DRAW_MASK_RES_TRANSP) {
 665              		.loc 1 1021 9 view .LVU227
1021:lvgl/src/lv_draw/lv_draw_rect.c ****         if(mask_res == LV_DRAW_MASK_RES_TRANSP) {
 666              		.loc 1 1021 39 is_stmt 0 view .LVU228
 667 00be 05AB     		add	r3, sp, #20
 668 00c0 0093     		str	r3, [sp]
 669 00c2 2BB2     		sxth	r3, r5
ARM GAS  D:\Temp\ccGEpo4V.s 			page 41


 670 00c4 0FFA88F2 		sxth	r2, r8
 671 00c8 0021     		movs	r1, #0
 672 00ca 2046     		mov	r0, r4
 673 00cc 059F     		ldr	r7, [sp, #20]
 674 00ce B847     		blx	r7
 675              	.LVL79:
1022:lvgl/src/lv_draw/lv_draw_rect.c ****             _lv_memset_00(sh_ups_tmp_buf, size * sizeof(sh_ups_tmp_buf[0]));
 676              		.loc 1 1022 9 is_stmt 1 view .LVU229
1022:lvgl/src/lv_draw/lv_draw_rect.c ****             _lv_memset_00(sh_ups_tmp_buf, size * sizeof(sh_ups_tmp_buf[0]));
 677              		.loc 1 1022 11 is_stmt 0 view .LVU230
 678 00d0 0028     		cmp	r0, #0
 679 00d2 E5D0     		beq	.L65
 680              	.LBB226:
1026:lvgl/src/lv_draw/lv_draw_rect.c ****             sh_ups_tmp_buf[0] = (mask_line[0] << SHADOW_UPSCALE_SHIFT) / sw;
 681              		.loc 1 1026 13 is_stmt 1 view .LVU231
1027:lvgl/src/lv_draw/lv_draw_rect.c ****             for(i = 1; i < size; i++) {
 682              		.loc 1 1027 13 view .LVU232
1027:lvgl/src/lv_draw/lv_draw_rect.c ****             for(i = 1; i < size; i++) {
 683              		.loc 1 1027 43 is_stmt 0 view .LVU233
 684 00d4 2378     		ldrb	r3, [r4]	@ zero_extendqisi2
1027:lvgl/src/lv_draw/lv_draw_rect.c ****             for(i = 1; i < size; i++) {
 685              		.loc 1 1027 47 view .LVU234
 686 00d6 9B01     		lsls	r3, r3, #6
1027:lvgl/src/lv_draw/lv_draw_rect.c ****             for(i = 1; i < size; i++) {
 687              		.loc 1 1027 72 view .LVU235
 688 00d8 5846     		mov	r0, fp
 689              	.LVL80:
1027:lvgl/src/lv_draw/lv_draw_rect.c ****             for(i = 1; i < size; i++) {
 690              		.loc 1 1027 72 view .LVU236
 691 00da 93FBFBF3 		sdiv	r3, r3, fp
1027:lvgl/src/lv_draw/lv_draw_rect.c ****             for(i = 1; i < size; i++) {
 692              		.loc 1 1027 31 view .LVU237
 693 00de 3380     		strh	r3, [r6]	@ movhi
1028:lvgl/src/lv_draw/lv_draw_rect.c ****                 if(mask_line[i] == mask_line[i - 1]) sh_ups_tmp_buf[i] = sh_ups_tmp_buf[i - 1];
 694              		.loc 1 1028 13 is_stmt 1 view .LVU238
 695              	.LVL81:
1028:lvgl/src/lv_draw/lv_draw_rect.c ****                 if(mask_line[i] == mask_line[i - 1]) sh_ups_tmp_buf[i] = sh_ups_tmp_buf[i - 1];
 696              		.loc 1 1028 19 is_stmt 0 view .LVU239
 697 00e0 0123     		movs	r3, #1
 698 00e2 039F     		ldr	r7, [sp, #12]
1028:lvgl/src/lv_draw/lv_draw_rect.c ****                 if(mask_line[i] == mask_line[i - 1]) sh_ups_tmp_buf[i] = sh_ups_tmp_buf[i - 1];
 699              		.loc 1 1028 13 view .LVU240
 700 00e4 05E0     		b	.L44
 701              	.LVL82:
 702              	.L45:
1030:lvgl/src/lv_draw/lv_draw_rect.c ****             }
 703              		.loc 1 1030 22 is_stmt 1 view .LVU241
1030:lvgl/src/lv_draw/lv_draw_rect.c ****             }
 704              		.loc 1 1030 56 is_stmt 0 view .LVU242
 705 00e6 9201     		lsls	r2, r2, #6
1030:lvgl/src/lv_draw/lv_draw_rect.c ****             }
 706              		.loc 1 1030 81 view .LVU243
 707 00e8 92FBF0F2 		sdiv	r2, r2, r0
1030:lvgl/src/lv_draw/lv_draw_rect.c ****             }
 708              		.loc 1 1030 40 view .LVU244
 709 00ec 26F81320 		strh	r2, [r6, r3, lsl #1]	@ movhi
 710              	.L46:
ARM GAS  D:\Temp\ccGEpo4V.s 			page 42


1028:lvgl/src/lv_draw/lv_draw_rect.c ****                 if(mask_line[i] == mask_line[i - 1]) sh_ups_tmp_buf[i] = sh_ups_tmp_buf[i - 1];
 711              		.loc 1 1028 35 discriminator 2 view .LVU245
 712 00f0 0133     		adds	r3, r3, #1
 713              	.LVL83:
 714              	.L44:
1028:lvgl/src/lv_draw/lv_draw_rect.c ****                 if(mask_line[i] == mask_line[i - 1]) sh_ups_tmp_buf[i] = sh_ups_tmp_buf[i - 1];
 715              		.loc 1 1028 13 discriminator 1 view .LVU246
 716 00f2 AB42     		cmp	r3, r5
 717 00f4 0DDA     		bge	.L66
1029:lvgl/src/lv_draw/lv_draw_rect.c ****                 else sh_ups_tmp_buf[i] = (mask_line[i] << SHADOW_UPSCALE_SHIFT) / sw;
 718              		.loc 1 1029 17 is_stmt 1 view .LVU247
1029:lvgl/src/lv_draw/lv_draw_rect.c ****                 else sh_ups_tmp_buf[i] = (mask_line[i] << SHADOW_UPSCALE_SHIFT) / sw;
 719              		.loc 1 1029 29 is_stmt 0 view .LVU248
 720 00f6 E25C     		ldrb	r2, [r4, r3]	@ zero_extendqisi2
1029:lvgl/src/lv_draw/lv_draw_rect.c ****                 else sh_ups_tmp_buf[i] = (mask_line[i] << SHADOW_UPSCALE_SHIFT) / sw;
 721              		.loc 1 1029 45 view .LVU249
 722 00f8 E118     		adds	r1, r4, r3
 723 00fa 11F8011C 		ldrb	r1, [r1, #-1]	@ zero_extendqisi2
1029:lvgl/src/lv_draw/lv_draw_rect.c ****                 else sh_ups_tmp_buf[i] = (mask_line[i] << SHADOW_UPSCALE_SHIFT) / sw;
 724              		.loc 1 1029 19 view .LVU250
 725 00fe 8A42     		cmp	r2, r1
 726 0100 F1D1     		bne	.L45
1029:lvgl/src/lv_draw/lv_draw_rect.c ****                 else sh_ups_tmp_buf[i] = (mask_line[i] << SHADOW_UPSCALE_SHIFT) / sw;
 727              		.loc 1 1029 54 is_stmt 1 discriminator 1 view .LVU251
1029:lvgl/src/lv_draw/lv_draw_rect.c ****                 else sh_ups_tmp_buf[i] = (mask_line[i] << SHADOW_UPSCALE_SHIFT) / sw;
 728              		.loc 1 1029 88 is_stmt 0 discriminator 1 view .LVU252
 729 0102 03F10042 		add	r2, r3, #-2147483648
 730 0106 013A     		subs	r2, r2, #1
 731 0108 36F81220 		ldrh	r2, [r6, r2, lsl #1]
1029:lvgl/src/lv_draw/lv_draw_rect.c ****                 else sh_ups_tmp_buf[i] = (mask_line[i] << SHADOW_UPSCALE_SHIFT) / sw;
 732              		.loc 1 1029 72 discriminator 1 view .LVU253
 733 010c 26F81320 		strh	r2, [r6, r3, lsl #1]	@ movhi
 734 0110 EEE7     		b	.L46
 735              	.L66:
1029:lvgl/src/lv_draw/lv_draw_rect.c ****                 else sh_ups_tmp_buf[i] = (mask_line[i] << SHADOW_UPSCALE_SHIFT) / sw;
 736              		.loc 1 1029 72 discriminator 1 view .LVU254
 737 0112 0397     		str	r7, [sp, #12]
 738 0114 C9E7     		b	.L43
 739              	.LVL84:
 740              	.L64:
1029:lvgl/src/lv_draw/lv_draw_rect.c ****                 else sh_ups_tmp_buf[i] = (mask_line[i] << SHADOW_UPSCALE_SHIFT) / sw;
 741              		.loc 1 1029 72 discriminator 1 view .LVU255
 742 0116 039F     		ldr	r7, [sp, #12]
 743              	.LBE226:
 744              	.LBE227:
1036:lvgl/src/lv_draw/lv_draw_rect.c **** 
 745              		.loc 1 1036 5 is_stmt 1 view .LVU256
 746 0118 2046     		mov	r0, r4
 747 011a FFF7FEFF 		bl	_lv_mem_buf_release
 748              	.LVL85:
1038:lvgl/src/lv_draw/lv_draw_rect.c ****         int32_t i;
 749              		.loc 1 1038 5 view .LVU257
1038:lvgl/src/lv_draw/lv_draw_rect.c ****         int32_t i;
 750              		.loc 1 1038 7 is_stmt 0 view .LVU258
 751 011e BBF1010F 		cmp	fp, #1
 752 0122 1ED0     		beq	.L67
1047:lvgl/src/lv_draw/lv_draw_rect.c **** 
ARM GAS  D:\Temp\ccGEpo4V.s 			page 43


 753              		.loc 1 1047 5 is_stmt 1 view .LVU259
 754 0124 2CB2     		sxth	r4, r5
 755              	.LVL86:
1047:lvgl/src/lv_draw/lv_draw_rect.c **** 
 756              		.loc 1 1047 5 is_stmt 0 view .LVU260
 757 0126 4A46     		mov	r2, r9
 758 0128 5946     		mov	r1, fp
 759 012a 2046     		mov	r0, r4
 760 012c FFF7FEFF 		bl	shadow_blur_corner
 761              	.LVL87:
1057:lvgl/src/lv_draw/lv_draw_rect.c ****     if(sw > 1) {
 762              		.loc 1 1057 5 is_stmt 1 view .LVU261
1057:lvgl/src/lv_draw/lv_draw_rect.c ****     if(sw > 1) {
 763              		.loc 1 1057 8 is_stmt 0 view .LVU262
 764 0130 07EB0B01 		add	r1, r7, fp
 765              	.LVL88:
1058:lvgl/src/lv_draw/lv_draw_rect.c ****         uint32_t i;
 766              		.loc 1 1058 5 is_stmt 1 view .LVU263
1058:lvgl/src/lv_draw/lv_draw_rect.c ****         uint32_t i;
 767              		.loc 1 1058 7 is_stmt 0 view .LVU264
 768 0134 0129     		cmp	r1, #1
 769 0136 30DD     		ble	.L53
 770              	.LBB228:
1059:lvgl/src/lv_draw/lv_draw_rect.c ****         sh_buf[0] = (sh_buf[0] << SHADOW_UPSCALE_SHIFT) / sw;
 771              		.loc 1 1059 9 is_stmt 1 view .LVU265
1060:lvgl/src/lv_draw/lv_draw_rect.c ****         for(i = 1; i < (uint32_t) size * size; i++) {
 772              		.loc 1 1060 9 view .LVU266
1060:lvgl/src/lv_draw/lv_draw_rect.c ****         for(i = 1; i < (uint32_t) size * size; i++) {
 773              		.loc 1 1060 28 is_stmt 0 view .LVU267
 774 0138 B9F80030 		ldrh	r3, [r9]
1060:lvgl/src/lv_draw/lv_draw_rect.c ****         for(i = 1; i < (uint32_t) size * size; i++) {
 775              		.loc 1 1060 32 view .LVU268
 776 013c 9B01     		lsls	r3, r3, #6
1060:lvgl/src/lv_draw/lv_draw_rect.c ****         for(i = 1; i < (uint32_t) size * size; i++) {
 777              		.loc 1 1060 57 view .LVU269
 778 013e 0E46     		mov	r6, r1
 779              	.LVL89:
1060:lvgl/src/lv_draw/lv_draw_rect.c ****         for(i = 1; i < (uint32_t) size * size; i++) {
 780              		.loc 1 1060 57 view .LVU270
 781 0140 93FBF1F3 		sdiv	r3, r3, r1
1060:lvgl/src/lv_draw/lv_draw_rect.c ****         for(i = 1; i < (uint32_t) size * size; i++) {
 782              		.loc 1 1060 19 view .LVU271
 783 0144 A9F80030 		strh	r3, [r9]	@ movhi
1061:lvgl/src/lv_draw/lv_draw_rect.c ****             if(sh_buf[i] == sh_buf[i - 1]) sh_buf[i] = sh_buf[i - 1];
 784              		.loc 1 1061 9 is_stmt 1 view .LVU272
 785              	.LVL90:
1061:lvgl/src/lv_draw/lv_draw_rect.c ****             if(sh_buf[i] == sh_buf[i - 1]) sh_buf[i] = sh_buf[i - 1];
 786              		.loc 1 1061 15 is_stmt 0 view .LVU273
 787 0148 0123     		movs	r3, #1
1061:lvgl/src/lv_draw/lv_draw_rect.c ****             if(sh_buf[i] == sh_buf[i - 1]) sh_buf[i] = sh_buf[i - 1];
 788              		.loc 1 1061 9 view .LVU274
 789 014a 0FE0     		b	.L54
 790              	.LVL91:
 791              	.L51:
1061:lvgl/src/lv_draw/lv_draw_rect.c ****             if(sh_buf[i] == sh_buf[i - 1]) sh_buf[i] = sh_buf[i - 1];
 792              		.loc 1 1061 9 view .LVU275
 793              	.LBE228:
ARM GAS  D:\Temp\ccGEpo4V.s 			page 44


 794              	.LBB229:
1042:lvgl/src/lv_draw/lv_draw_rect.c ****         }
 795              		.loc 1 1042 13 is_stmt 1 discriminator 3 view .LVU276
1042:lvgl/src/lv_draw/lv_draw_rect.c ****         }
 796              		.loc 1 1042 33 is_stmt 0 discriminator 3 view .LVU277
 797 014c 39F81320 		ldrh	r2, [r9, r3, lsl #1]
1042:lvgl/src/lv_draw/lv_draw_rect.c ****         }
 798              		.loc 1 1042 24 discriminator 3 view .LVU278
 799 0150 9209     		lsrs	r2, r2, #6
 800 0152 09F80320 		strb	r2, [r9, r3]
1041:lvgl/src/lv_draw/lv_draw_rect.c ****             res_buf[i] = (sh_buf[i] >> SHADOW_UPSCALE_SHIFT);
 801              		.loc 1 1041 38 discriminator 3 view .LVU279
 802 0156 0133     		adds	r3, r3, #1
 803              	.LVL92:
 804              	.L49:
1041:lvgl/src/lv_draw/lv_draw_rect.c ****             res_buf[i] = (sh_buf[i] >> SHADOW_UPSCALE_SHIFT);
 805              		.loc 1 1041 29 discriminator 1 view .LVU280
 806 0158 05FB05F2 		mul	r2, r5, r5
1041:lvgl/src/lv_draw/lv_draw_rect.c ****             res_buf[i] = (sh_buf[i] >> SHADOW_UPSCALE_SHIFT);
 807              		.loc 1 1041 9 discriminator 1 view .LVU281
 808 015c 9A42     		cmp	r2, r3
 809 015e F5DC     		bgt	.L51
 810 0160 26E0     		b	.L37
 811              	.LVL93:
 812              	.L67:
1041:lvgl/src/lv_draw/lv_draw_rect.c ****             res_buf[i] = (sh_buf[i] >> SHADOW_UPSCALE_SHIFT);
 813              		.loc 1 1041 15 view .LVU282
 814 0162 0023     		movs	r3, #0
 815 0164 F8E7     		b	.L49
 816              	.LVL94:
 817              	.L69:
1041:lvgl/src/lv_draw/lv_draw_rect.c ****             res_buf[i] = (sh_buf[i] >> SHADOW_UPSCALE_SHIFT);
 818              		.loc 1 1041 15 view .LVU283
 819              	.LBE229:
 820              	.LBB230:
1062:lvgl/src/lv_draw/lv_draw_rect.c ****             else sh_buf[i] = (sh_buf[i] << SHADOW_UPSCALE_SHIFT) / sw;
 821              		.loc 1 1062 44 is_stmt 1 discriminator 1 view .LVU284
1062:lvgl/src/lv_draw/lv_draw_rect.c ****             else sh_buf[i] = (sh_buf[i] << SHADOW_UPSCALE_SHIFT) / sw;
 822              		.loc 1 1062 54 is_stmt 0 discriminator 1 view .LVU285
 823 0166 29F81300 		strh	r0, [r9, r3, lsl #1]	@ movhi
 824              	.L56:
1061:lvgl/src/lv_draw/lv_draw_rect.c ****             if(sh_buf[i] == sh_buf[i - 1]) sh_buf[i] = sh_buf[i - 1];
 825              		.loc 1 1061 49 discriminator 2 view .LVU286
 826 016a 0133     		adds	r3, r3, #1
 827              	.LVL95:
 828              	.L54:
1061:lvgl/src/lv_draw/lv_draw_rect.c ****             if(sh_buf[i] == sh_buf[i - 1]) sh_buf[i] = sh_buf[i - 1];
 829              		.loc 1 1061 40 discriminator 1 view .LVU287
 830 016c 0AFB0AF2 		mul	r2, r10, r10
1061:lvgl/src/lv_draw/lv_draw_rect.c ****             if(sh_buf[i] == sh_buf[i - 1]) sh_buf[i] = sh_buf[i - 1];
 831              		.loc 1 1061 9 discriminator 1 view .LVU288
 832 0170 9A42     		cmp	r2, r3
 833 0172 0ED9     		bls	.L68
1062:lvgl/src/lv_draw/lv_draw_rect.c ****             else sh_buf[i] = (sh_buf[i] << SHADOW_UPSCALE_SHIFT) / sw;
 834              		.loc 1 1062 13 is_stmt 1 view .LVU289
1062:lvgl/src/lv_draw/lv_draw_rect.c ****             else sh_buf[i] = (sh_buf[i] << SHADOW_UPSCALE_SHIFT) / sw;
 835              		.loc 1 1062 22 is_stmt 0 view .LVU290
ARM GAS  D:\Temp\ccGEpo4V.s 			page 45


 836 0174 39F81320 		ldrh	r2, [r9, r3, lsl #1]
1062:lvgl/src/lv_draw/lv_draw_rect.c ****             else sh_buf[i] = (sh_buf[i] << SHADOW_UPSCALE_SHIFT) / sw;
 837              		.loc 1 1062 35 view .LVU291
 838 0178 03F10040 		add	r0, r3, #-2147483648
 839 017c 0138     		subs	r0, r0, #1
 840 017e 39F81000 		ldrh	r0, [r9, r0, lsl #1]
1062:lvgl/src/lv_draw/lv_draw_rect.c ****             else sh_buf[i] = (sh_buf[i] << SHADOW_UPSCALE_SHIFT) / sw;
 841              		.loc 1 1062 15 view .LVU292
 842 0182 8242     		cmp	r2, r0
 843 0184 EFD0     		beq	.L69
1063:lvgl/src/lv_draw/lv_draw_rect.c ****         }
 844              		.loc 1 1063 18 is_stmt 1 view .LVU293
1063:lvgl/src/lv_draw/lv_draw_rect.c ****         }
 845              		.loc 1 1063 41 is_stmt 0 view .LVU294
 846 0186 9201     		lsls	r2, r2, #6
1063:lvgl/src/lv_draw/lv_draw_rect.c ****         }
 847              		.loc 1 1063 66 view .LVU295
 848 0188 92FBF6F2 		sdiv	r2, r2, r6
1063:lvgl/src/lv_draw/lv_draw_rect.c ****         }
 849              		.loc 1 1063 28 view .LVU296
 850 018c 29F81320 		strh	r2, [r9, r3, lsl #1]	@ movhi
 851 0190 EBE7     		b	.L56
 852              	.L68:
1066:lvgl/src/lv_draw/lv_draw_rect.c ****     }
 853              		.loc 1 1066 9 is_stmt 1 view .LVU297
 854 0192 4A46     		mov	r2, r9
 855 0194 2046     		mov	r0, r4
 856 0196 FFF7FEFF 		bl	shadow_blur_corner
 857              	.LVL96:
 858              	.L53:
1061:lvgl/src/lv_draw/lv_draw_rect.c ****             if(sh_buf[i] == sh_buf[i - 1]) sh_buf[i] = sh_buf[i - 1];
 859              		.loc 1 1061 15 is_stmt 0 discriminator 1 view .LVU298
 860 019a 0023     		movs	r3, #0
 861 019c 04E0     		b	.L58
 862              	.LVL97:
 863              	.L59:
1061:lvgl/src/lv_draw/lv_draw_rect.c ****             if(sh_buf[i] == sh_buf[i - 1]) sh_buf[i] = sh_buf[i - 1];
 864              		.loc 1 1061 15 discriminator 1 view .LVU299
 865              	.LBE230:
1071:lvgl/src/lv_draw/lv_draw_rect.c ****     }
 866              		.loc 1 1071 9 is_stmt 1 discriminator 3 view .LVU300
1071:lvgl/src/lv_draw/lv_draw_rect.c ****     }
 867              		.loc 1 1071 28 is_stmt 0 discriminator 3 view .LVU301
 868 019e 39F81320 		ldrh	r2, [r9, r3, lsl #1]
1071:lvgl/src/lv_draw/lv_draw_rect.c ****     }
 869              		.loc 1 1071 20 discriminator 3 view .LVU302
 870 01a2 09F80320 		strb	r2, [r9, r3]
1070:lvgl/src/lv_draw/lv_draw_rect.c ****         res_buf[x] = sh_buf[x];
 871              		.loc 1 1070 34 discriminator 3 view .LVU303
 872 01a6 0133     		adds	r3, r3, #1
 873              	.LVL98:
 874              	.L58:
1070:lvgl/src/lv_draw/lv_draw_rect.c ****         res_buf[x] = sh_buf[x];
 875              		.loc 1 1070 25 discriminator 1 view .LVU304
 876 01a8 05FB05F2 		mul	r2, r5, r5
1070:lvgl/src/lv_draw/lv_draw_rect.c ****         res_buf[x] = sh_buf[x];
 877              		.loc 1 1070 5 discriminator 1 view .LVU305
ARM GAS  D:\Temp\ccGEpo4V.s 			page 46


 878 01ac 9A42     		cmp	r2, r3
 879 01ae F6DC     		bgt	.L59
 880              	.LVL99:
 881              	.L37:
1075:lvgl/src/lv_draw/lv_draw_rect.c **** 
 882              		.loc 1 1075 1 view .LVU306
 883 01b0 0FB0     		add	sp, sp, #60
 884              	.LCFI5:
 885              		.cfi_def_cfa_offset 36
 886              		@ sp needed
 887 01b2 BDE8F08F 		pop	{r4, r5, r6, r7, r8, r9, r10, fp, pc}
1075:lvgl/src/lv_draw/lv_draw_rect.c **** 
 888              		.loc 1 1075 1 view .LVU307
 889              		.cfi_endproc
 890              	.LFE465:
 892              		.section	.text.draw_shadow,"ax",%progbits
 893              		.align	1
 894              		.syntax unified
 895              		.thumb
 896              		.thumb_func
 897              		.fpu fpv4-sp-d16
 899              	draw_shadow:
 900              	.LVL100:
 901              	.LFB464:
 525:lvgl/src/lv_draw/lv_draw_rect.c ****     /*Check whether the shadow is visible*/
 902              		.loc 1 525 1 is_stmt 1 view -0
 903              		.cfi_startproc
 904              		@ args = 0, pretend = 0, frame = 136
 905              		@ frame_needed = 0, uses_anonymous_args = 0
 525:lvgl/src/lv_draw/lv_draw_rect.c ****     /*Check whether the shadow is visible*/
 906              		.loc 1 525 1 is_stmt 0 view .LVU309
 907 0000 2DE9F04F 		push	{r4, r5, r6, r7, r8, r9, r10, fp, lr}
 908              	.LCFI6:
 909              		.cfi_def_cfa_offset 36
 910              		.cfi_offset 4, -36
 911              		.cfi_offset 5, -32
 912              		.cfi_offset 6, -28
 913              		.cfi_offset 7, -24
 914              		.cfi_offset 8, -20
 915              		.cfi_offset 9, -16
 916              		.cfi_offset 10, -12
 917              		.cfi_offset 11, -8
 918              		.cfi_offset 14, -4
 919 0004 A7B0     		sub	sp, sp, #156
 920              	.LCFI7:
 921              		.cfi_def_cfa_offset 192
 527:lvgl/src/lv_draw/lv_draw_rect.c ****     if(dsc->shadow_opa <= LV_OPA_MIN) return;
 922              		.loc 1 527 5 is_stmt 1 view .LVU310
 527:lvgl/src/lv_draw/lv_draw_rect.c ****     if(dsc->shadow_opa <= LV_OPA_MIN) return;
 923              		.loc 1 527 11 is_stmt 0 view .LVU311
 924 0006 B2F92240 		ldrsh	r4, [r2, #34]
 527:lvgl/src/lv_draw/lv_draw_rect.c ****     if(dsc->shadow_opa <= LV_OPA_MIN) return;
 925              		.loc 1 527 7 view .LVU312
 926 000a 002C     		cmp	r4, #0
 927 000c 00F0BF83 		beq	.L70
 528:lvgl/src/lv_draw/lv_draw_rect.c **** 
 928              		.loc 1 528 5 is_stmt 1 view .LVU313
ARM GAS  D:\Temp\ccGEpo4V.s 			page 47


 528:lvgl/src/lv_draw/lv_draw_rect.c **** 
 929              		.loc 1 528 11 is_stmt 0 view .LVU314
 930 0010 92F82A70 		ldrb	r7, [r2, #42]	@ zero_extendqisi2
 528:lvgl/src/lv_draw/lv_draw_rect.c **** 
 931              		.loc 1 528 7 view .LVU315
 932 0014 022F     		cmp	r7, #2
 933 0016 40F2BA83 		bls	.L70
 530:lvgl/src/lv_draw/lv_draw_rect.c ****        dsc->shadow_ofs_y == 0 && dsc->shadow_spread <= 0) {
 934              		.loc 1 530 5 is_stmt 1 view .LVU316
 530:lvgl/src/lv_draw/lv_draw_rect.c ****        dsc->shadow_ofs_y == 0 && dsc->shadow_spread <= 0) {
 935              		.loc 1 530 7 is_stmt 0 view .LVU317
 936 001a 012C     		cmp	r4, #1
 937 001c 75D0     		beq	.L176
 938              	.L72:
 535:lvgl/src/lv_draw/lv_draw_rect.c **** 
 939              		.loc 1 535 5 is_stmt 1 view .LVU318
 940              	.LVL101:
 537:lvgl/src/lv_draw/lv_draw_rect.c ****     sh_rect_area.x1 = coords->x1  + dsc->shadow_ofs_x - dsc->shadow_spread;
 941              		.loc 1 537 5 view .LVU319
 538:lvgl/src/lv_draw/lv_draw_rect.c ****     sh_rect_area.x2 = coords->x2  + dsc->shadow_ofs_x + dsc->shadow_spread;
 942              		.loc 1 538 5 view .LVU320
 538:lvgl/src/lv_draw/lv_draw_rect.c ****     sh_rect_area.x2 = coords->x2  + dsc->shadow_ofs_x + dsc->shadow_spread;
 943              		.loc 1 538 29 is_stmt 0 view .LVU321
 944 001e 0688     		ldrh	r6, [r0]
 538:lvgl/src/lv_draw/lv_draw_rect.c ****     sh_rect_area.x2 = coords->x2  + dsc->shadow_ofs_x + dsc->shadow_spread;
 945              		.loc 1 538 40 view .LVU322
 946 0020 938C     		ldrh	r3, [r2, #36]
 538:lvgl/src/lv_draw/lv_draw_rect.c ****     sh_rect_area.x2 = coords->x2  + dsc->shadow_ofs_x + dsc->shadow_spread;
 947              		.loc 1 538 35 view .LVU323
 948 0022 1E44     		add	r6, r6, r3
 949 0024 B6B2     		uxth	r6, r6
 538:lvgl/src/lv_draw/lv_draw_rect.c ****     sh_rect_area.x2 = coords->x2  + dsc->shadow_ofs_x + dsc->shadow_spread;
 950              		.loc 1 538 60 view .LVU324
 951 0026 B2F828C0 		ldrh	ip, [r2, #40]
 538:lvgl/src/lv_draw/lv_draw_rect.c ****     sh_rect_area.x2 = coords->x2  + dsc->shadow_ofs_x + dsc->shadow_spread;
 952              		.loc 1 538 55 view .LVU325
 953 002a A6EB0C06 		sub	r6, r6, ip
 954 002e B6B2     		uxth	r6, r6
 538:lvgl/src/lv_draw/lv_draw_rect.c ****     sh_rect_area.x2 = coords->x2  + dsc->shadow_ofs_x + dsc->shadow_spread;
 955              		.loc 1 538 21 view .LVU326
 956 0030 ADF89060 		strh	r6, [sp, #144]	@ movhi
 539:lvgl/src/lv_draw/lv_draw_rect.c ****     sh_rect_area.y1 = coords->y1  + dsc->shadow_ofs_y - dsc->shadow_spread;
 957              		.loc 1 539 5 is_stmt 1 view .LVU327
 539:lvgl/src/lv_draw/lv_draw_rect.c ****     sh_rect_area.y1 = coords->y1  + dsc->shadow_ofs_y - dsc->shadow_spread;
 958              		.loc 1 539 29 is_stmt 0 view .LVU328
 959 0034 8588     		ldrh	r5, [r0, #4]
 539:lvgl/src/lv_draw/lv_draw_rect.c ****     sh_rect_area.y1 = coords->y1  + dsc->shadow_ofs_y - dsc->shadow_spread;
 960              		.loc 1 539 35 view .LVU329
 961 0036 1D44     		add	r5, r5, r3
 539:lvgl/src/lv_draw/lv_draw_rect.c ****     sh_rect_area.y1 = coords->y1  + dsc->shadow_ofs_y - dsc->shadow_spread;
 962              		.loc 1 539 55 view .LVU330
 963 0038 1CFA85F5 		uxtah	r5, ip, r5
 964 003c ADB2     		uxth	r5, r5
 539:lvgl/src/lv_draw/lv_draw_rect.c ****     sh_rect_area.y1 = coords->y1  + dsc->shadow_ofs_y - dsc->shadow_spread;
 965              		.loc 1 539 21 view .LVU331
 966 003e ADF89450 		strh	r5, [sp, #148]	@ movhi
 540:lvgl/src/lv_draw/lv_draw_rect.c ****     sh_rect_area.y2 = coords->y2  + dsc->shadow_ofs_y + dsc->shadow_spread;
ARM GAS  D:\Temp\ccGEpo4V.s 			page 48


 967              		.loc 1 540 5 is_stmt 1 view .LVU332
 540:lvgl/src/lv_draw/lv_draw_rect.c ****     sh_rect_area.y2 = coords->y2  + dsc->shadow_ofs_y + dsc->shadow_spread;
 968              		.loc 1 540 29 is_stmt 0 view .LVU333
 969 0042 4388     		ldrh	r3, [r0, #2]
 540:lvgl/src/lv_draw/lv_draw_rect.c ****     sh_rect_area.y2 = coords->y2  + dsc->shadow_ofs_y + dsc->shadow_spread;
 970              		.loc 1 540 40 view .LVU334
 971 0044 B2F826E0 		ldrh	lr, [r2, #38]
 540:lvgl/src/lv_draw/lv_draw_rect.c ****     sh_rect_area.y2 = coords->y2  + dsc->shadow_ofs_y + dsc->shadow_spread;
 972              		.loc 1 540 35 view .LVU335
 973 0048 7344     		add	r3, r3, lr
 974 004a 9BB2     		uxth	r3, r3
 540:lvgl/src/lv_draw/lv_draw_rect.c ****     sh_rect_area.y2 = coords->y2  + dsc->shadow_ofs_y + dsc->shadow_spread;
 975              		.loc 1 540 55 view .LVU336
 976 004c A3EB0C03 		sub	r3, r3, ip
 977 0050 9BB2     		uxth	r3, r3
 540:lvgl/src/lv_draw/lv_draw_rect.c ****     sh_rect_area.y2 = coords->y2  + dsc->shadow_ofs_y + dsc->shadow_spread;
 978              		.loc 1 540 21 view .LVU337
 979 0052 ADF89230 		strh	r3, [sp, #146]	@ movhi
 541:lvgl/src/lv_draw/lv_draw_rect.c **** 
 980              		.loc 1 541 5 is_stmt 1 view .LVU338
 541:lvgl/src/lv_draw/lv_draw_rect.c **** 
 981              		.loc 1 541 29 is_stmt 0 view .LVU339
 982 0056 B0F80680 		ldrh	r8, [r0, #6]
 541:lvgl/src/lv_draw/lv_draw_rect.c **** 
 983              		.loc 1 541 35 view .LVU340
 984 005a C644     		add	lr, lr, r8
 541:lvgl/src/lv_draw/lv_draw_rect.c **** 
 985              		.loc 1 541 55 view .LVU341
 986 005c 1CFA8EFC 		uxtah	ip, ip, lr
 987 0060 1FFA8CFC 		uxth	ip, ip
 541:lvgl/src/lv_draw/lv_draw_rect.c **** 
 988              		.loc 1 541 21 view .LVU342
 989 0064 ADF896C0 		strh	ip, [sp, #150]	@ movhi
 543:lvgl/src/lv_draw/lv_draw_rect.c ****     sh_area.x1 = sh_rect_area.x1 - sw / 2 - 1;
 990              		.loc 1 543 5 is_stmt 1 view .LVU343
 544:lvgl/src/lv_draw/lv_draw_rect.c ****     sh_area.x2 = sh_rect_area.x2 + sw / 2 + 1;
 991              		.loc 1 544 5 view .LVU344
 544:lvgl/src/lv_draw/lv_draw_rect.c ****     sh_area.x2 = sh_rect_area.x2 + sw / 2 + 1;
 992              		.loc 1 544 39 is_stmt 0 view .LVU345
 993 0068 04EBD479 		add	r9, r4, r4, lsr #31
 994 006c 4FEA6908 		asr	r8, r9, #1
 995 0070 C8F10008 		rsb	r8, r8, #0
 544:lvgl/src/lv_draw/lv_draw_rect.c ****     sh_area.x2 = sh_rect_area.x2 + sw / 2 + 1;
 996              		.loc 1 544 34 view .LVU346
 997 0074 1FFA88F8 		uxth	r8, r8
 998 0078 4644     		add	r6, r6, r8
 999 007a B6B2     		uxth	r6, r6
 544:lvgl/src/lv_draw/lv_draw_rect.c ****     sh_area.x2 = sh_rect_area.x2 + sw / 2 + 1;
 1000              		.loc 1 544 43 view .LVU347
 1001 007c 06F1FF3E 		add	lr, r6, #-1
 544:lvgl/src/lv_draw/lv_draw_rect.c ****     sh_area.x2 = sh_rect_area.x2 + sw / 2 + 1;
 1002              		.loc 1 544 16 view .LVU348
 1003 0080 ADF888E0 		strh	lr, [sp, #136]	@ movhi
 545:lvgl/src/lv_draw/lv_draw_rect.c ****     sh_area.y1 = sh_rect_area.y1 - sw / 2 - 1;
 1004              		.loc 1 545 5 is_stmt 1 view .LVU349
 545:lvgl/src/lv_draw/lv_draw_rect.c ****     sh_area.y1 = sh_rect_area.y1 - sw / 2 - 1;
 1005              		.loc 1 545 34 is_stmt 0 view .LVU350
ARM GAS  D:\Temp\ccGEpo4V.s 			page 49


 1006 0084 C9F34F0E 		ubfx	lr, r9, #1, #16
 1007 0088 7544     		add	r5, r5, lr
 1008 008a ADB2     		uxth	r5, r5
 545:lvgl/src/lv_draw/lv_draw_rect.c ****     sh_area.y1 = sh_rect_area.y1 - sw / 2 - 1;
 1009              		.loc 1 545 43 view .LVU351
 1010 008c 0135     		adds	r5, r5, #1
 545:lvgl/src/lv_draw/lv_draw_rect.c ****     sh_area.y1 = sh_rect_area.y1 - sw / 2 - 1;
 1011              		.loc 1 545 16 view .LVU352
 1012 008e ADF88C50 		strh	r5, [sp, #140]	@ movhi
 546:lvgl/src/lv_draw/lv_draw_rect.c ****     sh_area.y2 = sh_rect_area.y2 + sw / 2 + 1;
 1013              		.loc 1 546 5 is_stmt 1 view .LVU353
 546:lvgl/src/lv_draw/lv_draw_rect.c ****     sh_area.y2 = sh_rect_area.y2 + sw / 2 + 1;
 1014              		.loc 1 546 34 is_stmt 0 view .LVU354
 1015 0092 03EB0806 		add	r6, r3, r8
 1016 0096 B6B2     		uxth	r6, r6
 546:lvgl/src/lv_draw/lv_draw_rect.c ****     sh_area.y2 = sh_rect_area.y2 + sw / 2 + 1;
 1017              		.loc 1 546 43 view .LVU355
 1018 0098 013E     		subs	r6, r6, #1
 546:lvgl/src/lv_draw/lv_draw_rect.c ****     sh_area.y2 = sh_rect_area.y2 + sw / 2 + 1;
 1019              		.loc 1 546 16 view .LVU356
 1020 009a ADF88A60 		strh	r6, [sp, #138]	@ movhi
 547:lvgl/src/lv_draw/lv_draw_rect.c **** 
 1021              		.loc 1 547 5 is_stmt 1 view .LVU357
 547:lvgl/src/lv_draw/lv_draw_rect.c **** 
 1022              		.loc 1 547 34 is_stmt 0 view .LVU358
 1023 009e 0CEB0E03 		add	r3, ip, lr
 1024 00a2 9BB2     		uxth	r3, r3
 547:lvgl/src/lv_draw/lv_draw_rect.c **** 
 1025              		.loc 1 547 43 view .LVU359
 1026 00a4 0133     		adds	r3, r3, #1
 547:lvgl/src/lv_draw/lv_draw_rect.c **** 
 1027              		.loc 1 547 16 view .LVU360
 1028 00a6 ADF88E30 		strh	r3, [sp, #142]	@ movhi
 549:lvgl/src/lv_draw/lv_draw_rect.c **** 
 1029              		.loc 1 549 5 is_stmt 1 view .LVU361
 1030              	.LVL102:
 551:lvgl/src/lv_draw/lv_draw_rect.c **** 
 1031              		.loc 1 551 5 view .LVU362
 551:lvgl/src/lv_draw/lv_draw_rect.c **** 
 1032              		.loc 1 551 7 is_stmt 0 view .LVU363
 1033 00aa FD2F     		cmp	r7, #253
 1034 00ac 00D9     		bls	.L73
 551:lvgl/src/lv_draw/lv_draw_rect.c **** 
 1035              		.loc 1 551 30 view .LVU364
 1036 00ae FF27     		movs	r7, #255
 1037              	.LVL103:
 1038              	.L73:
 551:lvgl/src/lv_draw/lv_draw_rect.c **** 
 1039              		.loc 1 551 30 view .LVU365
 1040 00b0 1546     		mov	r5, r2
 1041 00b2 8846     		mov	r8, r1
 1042 00b4 0691     		str	r1, [sp, #24]
 1043 00b6 8146     		mov	r9, r0
 1044 00b8 0C90     		str	r0, [sp, #48]
 1045              	.LVL104:
 553:lvgl/src/lv_draw/lv_draw_rect.c ****     lv_disp_buf_t * vdb = lv_disp_get_buf(disp);
 1046              		.loc 1 553 5 is_stmt 1 view .LVU366
ARM GAS  D:\Temp\ccGEpo4V.s 			page 50


 553:lvgl/src/lv_draw/lv_draw_rect.c ****     lv_disp_buf_t * vdb = lv_disp_get_buf(disp);
 1047              		.loc 1 553 27 is_stmt 0 view .LVU367
 1048 00ba FFF7FEFF 		bl	_lv_refr_get_disp_refreshing
 1049              	.LVL105:
 554:lvgl/src/lv_draw/lv_draw_rect.c **** 
 1050              		.loc 1 554 5 is_stmt 1 view .LVU368
 554:lvgl/src/lv_draw/lv_draw_rect.c **** 
 1051              		.loc 1 554 27 is_stmt 0 view .LVU369
 1052 00be FFF7FEFF 		bl	lv_disp_get_buf
 1053              	.LVL106:
 554:lvgl/src/lv_draw/lv_draw_rect.c **** 
 1054              		.loc 1 554 27 view .LVU370
 1055 00c2 0646     		mov	r6, r0
 1056              	.LVL107:
 558:lvgl/src/lv_draw/lv_draw_rect.c ****     bool is_common;
 1057              		.loc 1 558 5 is_stmt 1 view .LVU371
 559:lvgl/src/lv_draw/lv_draw_rect.c ****     is_common = _lv_area_intersect(&draw_area, &sh_area, clip);
 1058              		.loc 1 559 5 view .LVU372
 560:lvgl/src/lv_draw/lv_draw_rect.c ****     if(is_common == false) return;
 1059              		.loc 1 560 5 view .LVU373
 560:lvgl/src/lv_draw/lv_draw_rect.c ****     if(is_common == false) return;
 1060              		.loc 1 560 17 is_stmt 0 view .LVU374
 1061 00c4 4246     		mov	r2, r8
 1062 00c6 22A9     		add	r1, sp, #136
 1063 00c8 20A8     		add	r0, sp, #128
 1064              	.LVL108:
 560:lvgl/src/lv_draw/lv_draw_rect.c ****     if(is_common == false) return;
 1065              		.loc 1 560 17 view .LVU375
 1066 00ca FFF7FEFF 		bl	_lv_area_intersect
 1067              	.LVL109:
 561:lvgl/src/lv_draw/lv_draw_rect.c **** 
 1068              		.loc 1 561 5 is_stmt 1 view .LVU376
 561:lvgl/src/lv_draw/lv_draw_rect.c **** 
 1069              		.loc 1 561 7 is_stmt 0 view .LVU377
 1070 00ce 0790     		str	r0, [sp, #28]
 1071 00d0 0028     		cmp	r0, #0
 1072 00d2 00F05C83 		beq	.L70
 563:lvgl/src/lv_draw/lv_draw_rect.c **** 
 1073              		.loc 1 563 5 is_stmt 1 view .LVU378
 1074              	.LVL110:
 567:lvgl/src/lv_draw/lv_draw_rect.c ****     draw_area.y1 -= disp_area->y1;
 1075              		.loc 1 567 5 view .LVU379
 567:lvgl/src/lv_draw/lv_draw_rect.c ****     draw_area.y1 -= disp_area->y1;
 1076              		.loc 1 567 30 is_stmt 0 view .LVU380
 1077 00d6 318A     		ldrh	r1, [r6, #16]
 567:lvgl/src/lv_draw/lv_draw_rect.c ****     draw_area.y1 -= disp_area->y1;
 1078              		.loc 1 567 18 view .LVU381
 1079 00d8 BDF88030 		ldrh	r3, [sp, #128]
 1080 00dc 5B1A     		subs	r3, r3, r1
 1081 00de ADF88030 		strh	r3, [sp, #128]	@ movhi
 568:lvgl/src/lv_draw/lv_draw_rect.c ****     draw_area.x2 -= disp_area->x1;
 1082              		.loc 1 568 5 is_stmt 1 view .LVU382
 568:lvgl/src/lv_draw/lv_draw_rect.c ****     draw_area.x2 -= disp_area->x1;
 1083              		.loc 1 568 30 is_stmt 0 view .LVU383
 1084 00e2 728A     		ldrh	r2, [r6, #18]
 568:lvgl/src/lv_draw/lv_draw_rect.c ****     draw_area.x2 -= disp_area->x1;
 1085              		.loc 1 568 18 view .LVU384
ARM GAS  D:\Temp\ccGEpo4V.s 			page 51


 1086 00e4 BDF88230 		ldrh	r3, [sp, #130]
 1087 00e8 9B1A     		subs	r3, r3, r2
 1088 00ea ADF88230 		strh	r3, [sp, #130]	@ movhi
 569:lvgl/src/lv_draw/lv_draw_rect.c ****     draw_area.y2 -= disp_area->y1;
 1089              		.loc 1 569 5 is_stmt 1 view .LVU385
 569:lvgl/src/lv_draw/lv_draw_rect.c ****     draw_area.y2 -= disp_area->y1;
 1090              		.loc 1 569 18 is_stmt 0 view .LVU386
 1091 00ee BDF88430 		ldrh	r3, [sp, #132]
 1092 00f2 5B1A     		subs	r3, r3, r1
 1093 00f4 ADF88430 		strh	r3, [sp, #132]	@ movhi
 570:lvgl/src/lv_draw/lv_draw_rect.c **** 
 1094              		.loc 1 570 5 is_stmt 1 view .LVU387
 570:lvgl/src/lv_draw/lv_draw_rect.c **** 
 1095              		.loc 1 570 18 is_stmt 0 view .LVU388
 1096 00f8 BDF88630 		ldrh	r3, [sp, #134]
 1097 00fc 9B1A     		subs	r3, r3, r2
 1098 00fe ADF88630 		strh	r3, [sp, #134]	@ movhi
 573:lvgl/src/lv_draw/lv_draw_rect.c ****     lv_area_copy(&bg_coords, coords);
 1099              		.loc 1 573 5 is_stmt 1 view .LVU389
 574:lvgl/src/lv_draw/lv_draw_rect.c ****     bg_coords.x1 += 1;
 1100              		.loc 1 574 5 view .LVU390
 1101              	.LVL111:
 1102              	.LBB231:
 1103              	.LBI231:
  97:lvgl/src/lv_draw/../lv_core/../lv_font/../lv_misc/lv_area.h **** {
 1104              		.loc 2 97 20 view .LVU391
 1105              	.LBE231:
  99:lvgl/src/lv_draw/../lv_core/../lv_font/../lv_misc/lv_area.h **** }
 1106              		.loc 2 99 5 view .LVU392
 1107              	.LBB236:
 1108              	.LBB232:
 1109              	.LBI232:
 213:lvgl/src/lv_draw/../lv_core/../lv_font/../lv_misc/lv_mem.h **** {
 1110              		.loc 3 213 44 view .LVU393
 1111              	.LBB233:
 215:lvgl/src/lv_draw/../lv_core/../lv_font/../lv_misc/lv_mem.h ****     const uint8_t * s8 = (const uint8_t *)src;
 1112              		.loc 3 215 5 view .LVU394
 216:lvgl/src/lv_draw/../lv_core/../lv_font/../lv_misc/lv_mem.h **** 
 1113              		.loc 3 216 5 view .LVU395
 218:lvgl/src/lv_draw/../lv_core/../lv_font/../lv_misc/lv_mem.h ****         *d8 = *s8;
 1114              		.loc 3 218 5 view .LVU396
 216:lvgl/src/lv_draw/../lv_core/../lv_font/../lv_misc/lv_mem.h **** 
 1115              		.loc 3 216 21 is_stmt 0 view .LVU397
 1116 0102 4946     		mov	r1, r9
 215:lvgl/src/lv_draw/../lv_core/../lv_font/../lv_misc/lv_mem.h ****     const uint8_t * s8 = (const uint8_t *)src;
 1117              		.loc 3 215 15 view .LVU398
 1118 0104 1EAA     		add	r2, sp, #120
 1119              	.LVL112:
 215:lvgl/src/lv_draw/../lv_core/../lv_font/../lv_misc/lv_mem.h ****     const uint8_t * s8 = (const uint8_t *)src;
 1120              		.loc 3 215 15 view .LVU399
 1121              	.LBE233:
 1122              	.LBE232:
 1123              	.LBE236:
 570:lvgl/src/lv_draw/lv_draw_rect.c **** 
 1124              		.loc 1 570 18 view .LVU400
 1125 0106 0823     		movs	r3, #8
 1126 0108 0CE0     		b	.L74
ARM GAS  D:\Temp\ccGEpo4V.s 			page 52


 1127              	.LVL113:
 1128              	.L176:
 530:lvgl/src/lv_draw/lv_draw_rect.c ****        dsc->shadow_ofs_y == 0 && dsc->shadow_spread <= 0) {
 1129              		.loc 1 530 57 discriminator 1 view .LVU401
 1130 010a 536A     		ldr	r3, [r2, #36]
 1131 010c 002B     		cmp	r3, #0
 1132 010e 86D1     		bne	.L72
 531:lvgl/src/lv_draw/lv_draw_rect.c ****         return;
 1133              		.loc 1 531 37 view .LVU402
 1134 0110 B2F92830 		ldrsh	r3, [r2, #40]
 531:lvgl/src/lv_draw/lv_draw_rect.c ****         return;
 1135              		.loc 1 531 31 view .LVU403
 1136 0114 002B     		cmp	r3, #0
 1137 0116 82DC     		bgt	.L72
 1138 0118 39E3     		b	.L70
 1139              	.LVL114:
 1140              	.L75:
 1141              	.LBB237:
 1142              	.LBB235:
 1143              	.LBB234:
 219:lvgl/src/lv_draw/../lv_core/../lv_font/../lv_misc/lv_mem.h ****         d8++;
 1144              		.loc 3 219 9 is_stmt 1 view .LVU404
 219:lvgl/src/lv_draw/../lv_core/../lv_font/../lv_misc/lv_mem.h ****         d8++;
 1145              		.loc 3 219 15 is_stmt 0 view .LVU405
 1146 011a 11F8010B 		ldrb	r0, [r1], #1	@ zero_extendqisi2
 1147              	.LVL115:
 219:lvgl/src/lv_draw/../lv_core/../lv_font/../lv_misc/lv_mem.h ****         d8++;
 1148              		.loc 3 219 13 view .LVU406
 1149 011e 02F8010B 		strb	r0, [r2], #1
 1150              	.LVL116:
 220:lvgl/src/lv_draw/../lv_core/../lv_font/../lv_misc/lv_mem.h ****         s8++;
 1151              		.loc 3 220 9 is_stmt 1 view .LVU407
 221:lvgl/src/lv_draw/../lv_core/../lv_font/../lv_misc/lv_mem.h ****         len--;
 1152              		.loc 3 221 9 view .LVU408
 222:lvgl/src/lv_draw/../lv_core/../lv_font/../lv_misc/lv_mem.h ****     }
 1153              		.loc 3 222 9 view .LVU409
 222:lvgl/src/lv_draw/../lv_core/../lv_font/../lv_misc/lv_mem.h ****     }
 1154              		.loc 3 222 12 is_stmt 0 view .LVU410
 1155 0122 013B     		subs	r3, r3, #1
 1156              	.LVL117:
 1157              	.L74:
 218:lvgl/src/lv_draw/../lv_core/../lv_font/../lv_misc/lv_mem.h ****         *d8 = *s8;
 1158              		.loc 3 218 10 view .LVU411
 1159 0124 002B     		cmp	r3, #0
 1160 0126 F8D1     		bne	.L75
 1161              		.loc 3 225 5 is_stmt 1 view .LVU412
 1162              	.LVL118:
 1163              		.loc 3 225 5 is_stmt 0 view .LVU413
 1164              	.LBE234:
 1165              	.LBE235:
 1166              	.LBE237:
 575:lvgl/src/lv_draw/lv_draw_rect.c ****     bg_coords.y1 += 1;
 1167              		.loc 1 575 5 is_stmt 1 view .LVU414
 575:lvgl/src/lv_draw/lv_draw_rect.c ****     bg_coords.y1 += 1;
 1168              		.loc 1 575 18 is_stmt 0 view .LVU415
 1169 0128 BDF87820 		ldrh	r2, [sp, #120]
 1170 012c 0132     		adds	r2, r2, #1
ARM GAS  D:\Temp\ccGEpo4V.s 			page 53


 1171 012e 96B2     		uxth	r6, r2
 1172              	.LVL119:
 575:lvgl/src/lv_draw/lv_draw_rect.c ****     bg_coords.y1 += 1;
 1173              		.loc 1 575 18 view .LVU416
 1174 0130 ADF87860 		strh	r6, [sp, #120]	@ movhi
 576:lvgl/src/lv_draw/lv_draw_rect.c ****     bg_coords.x2 -= 1;
 1175              		.loc 1 576 5 is_stmt 1 view .LVU417
 576:lvgl/src/lv_draw/lv_draw_rect.c ****     bg_coords.x2 -= 1;
 1176              		.loc 1 576 18 is_stmt 0 view .LVU418
 1177 0134 BDF87A00 		ldrh	r0, [sp, #122]
 1178 0138 0130     		adds	r0, r0, #1
 1179 013a 80B2     		uxth	r0, r0
 1180 013c ADF87A00 		strh	r0, [sp, #122]	@ movhi
 577:lvgl/src/lv_draw/lv_draw_rect.c ****     bg_coords.y2 -= 1;
 1181              		.loc 1 577 5 is_stmt 1 view .LVU419
 577:lvgl/src/lv_draw/lv_draw_rect.c ****     bg_coords.y2 -= 1;
 1182              		.loc 1 577 18 is_stmt 0 view .LVU420
 1183 0140 BDF87C20 		ldrh	r2, [sp, #124]
 1184 0144 013A     		subs	r2, r2, #1
 1185 0146 92B2     		uxth	r2, r2
 1186 0148 ADF87C20 		strh	r2, [sp, #124]	@ movhi
 578:lvgl/src/lv_draw/lv_draw_rect.c **** 
 1187              		.loc 1 578 5 is_stmt 1 view .LVU421
 578:lvgl/src/lv_draw/lv_draw_rect.c **** 
 1188              		.loc 1 578 18 is_stmt 0 view .LVU422
 1189 014c BDF87E30 		ldrh	r3, [sp, #126]
 1190 0150 013B     		subs	r3, r3, #1
 1191 0152 9BB2     		uxth	r3, r3
 1192 0154 ADF87E30 		strh	r3, [sp, #126]	@ movhi
 581:lvgl/src/lv_draw/lv_draw_rect.c ****     int32_t short_side = LV_MATH_MIN(lv_area_get_width(&bg_coords), lv_area_get_height(&bg_coords))
 1193              		.loc 1 581 5 is_stmt 1 view .LVU423
 581:lvgl/src/lv_draw/lv_draw_rect.c ****     int32_t short_side = LV_MATH_MIN(lv_area_get_width(&bg_coords), lv_area_get_height(&bg_coords))
 1194              		.loc 1 581 23 is_stmt 0 view .LVU424
 1195 0158 B5F90010 		ldrsh	r1, [r5]
 1196              	.LVL120:
 582:lvgl/src/lv_draw/lv_draw_rect.c ****     if(r_bg > short_side >> 1) r_bg = short_side >> 1;
 1197              		.loc 1 582 5 is_stmt 1 view .LVU425
 1198              	.LBB238:
 1199              	.LBI238:
 107:lvgl/src/lv_draw/../lv_core/../lv_font/../lv_misc/lv_area.h **** {
 1200              		.loc 2 107 26 view .LVU426
 1201              	.LBB239:
 109:lvgl/src/lv_draw/../lv_core/../lv_font/../lv_misc/lv_area.h **** }
 1202              		.loc 2 109 5 view .LVU427
 109:lvgl/src/lv_draw/../lv_core/../lv_font/../lv_misc/lv_area.h **** }
 1203              		.loc 2 109 36 is_stmt 0 view .LVU428
 1204 015c 921B     		subs	r2, r2, r6
 1205 015e 92B2     		uxth	r2, r2
 109:lvgl/src/lv_draw/../lv_core/../lv_font/../lv_misc/lv_area.h **** }
 1206              		.loc 2 109 49 view .LVU429
 1207 0160 0132     		adds	r2, r2, #1
 109:lvgl/src/lv_draw/../lv_core/../lv_font/../lv_misc/lv_area.h **** }
 1208              		.loc 2 109 12 view .LVU430
 1209 0162 12B2     		sxth	r2, r2
 1210              	.LVL121:
 109:lvgl/src/lv_draw/../lv_core/../lv_font/../lv_misc/lv_area.h **** }
 1211              		.loc 2 109 12 view .LVU431
ARM GAS  D:\Temp\ccGEpo4V.s 			page 54


 1212              	.LBE239:
 1213              	.LBE238:
 1214              	.LBB240:
 1215              	.LBI240:
 117:lvgl/src/lv_draw/../lv_core/../lv_font/../lv_misc/lv_area.h **** {
 1216              		.loc 2 117 26 is_stmt 1 view .LVU432
 1217              	.LBB241:
 1218              		.loc 2 119 5 view .LVU433
 1219              		.loc 2 119 36 is_stmt 0 view .LVU434
 1220 0164 1E1A     		subs	r6, r3, r0
 1221 0166 B6B2     		uxth	r6, r6
 1222              		.loc 2 119 49 view .LVU435
 1223 0168 0136     		adds	r6, r6, #1
 1224              		.loc 2 119 12 view .LVU436
 1225 016a 36B2     		sxth	r6, r6
 1226              	.LVL122:
 1227              		.loc 2 119 12 view .LVU437
 1228              	.LBE241:
 1229              	.LBE240:
 582:lvgl/src/lv_draw/lv_draw_rect.c ****     if(r_bg > short_side >> 1) r_bg = short_side >> 1;
 1230              		.loc 1 582 26 view .LVU438
 1231 016c B242     		cmp	r2, r6
 1232 016e 00DA     		bge	.L77
 1233              	.LVL123:
 109:lvgl/src/lv_draw/../lv_core/../lv_font/../lv_misc/lv_area.h **** }
 1234              		.loc 2 109 5 is_stmt 1 view .LVU439
 582:lvgl/src/lv_draw/lv_draw_rect.c ****     if(r_bg > short_side >> 1) r_bg = short_side >> 1;
 1235              		.loc 1 582 26 is_stmt 0 view .LVU440
 1236 0170 1646     		mov	r6, r2
 1237              	.L77:
 1238              	.LVL124:
 583:lvgl/src/lv_draw/lv_draw_rect.c **** 
 1239              		.loc 1 583 5 is_stmt 1 discriminator 4 view .LVU441
 583:lvgl/src/lv_draw/lv_draw_rect.c **** 
 1240              		.loc 1 583 26 is_stmt 0 discriminator 4 view .LVU442
 1241 0172 7610     		asrs	r6, r6, #1
 1242              	.LVL125:
 583:lvgl/src/lv_draw/lv_draw_rect.c **** 
 1243              		.loc 1 583 7 discriminator 4 view .LVU443
 1244 0174 8E42     		cmp	r6, r1
 1245 0176 00DB     		blt	.L78
 581:lvgl/src/lv_draw/lv_draw_rect.c ****     int32_t short_side = LV_MATH_MIN(lv_area_get_width(&bg_coords), lv_area_get_height(&bg_coords))
 1246              		.loc 1 581 13 view .LVU444
 1247 0178 0E46     		mov	r6, r1
 1248              	.L78:
 1249              	.LVL126:
 585:lvgl/src/lv_draw/lv_draw_rect.c ****     short_side = LV_MATH_MIN(lv_area_get_width(&sh_rect_area), lv_area_get_height(&sh_rect_area));
 1250              		.loc 1 585 5 is_stmt 1 view .LVU445
 586:lvgl/src/lv_draw/lv_draw_rect.c ****     if(r_sh > short_side >> 1) r_sh = short_side >> 1;
 1251              		.loc 1 586 5 view .LVU446
 1252              	.LBB242:
 1253              	.LBI242:
 107:lvgl/src/lv_draw/../lv_core/../lv_font/../lv_misc/lv_area.h **** {
 1254              		.loc 2 107 26 view .LVU447
 1255              	.LBB243:
 109:lvgl/src/lv_draw/../lv_core/../lv_font/../lv_misc/lv_area.h **** }
 1256              		.loc 2 109 5 view .LVU448
ARM GAS  D:\Temp\ccGEpo4V.s 			page 55


 109:lvgl/src/lv_draw/../lv_core/../lv_font/../lv_misc/lv_area.h **** }
 1257              		.loc 2 109 31 is_stmt 0 view .LVU449
 1258 017a BDF89430 		ldrh	r3, [sp, #148]
 109:lvgl/src/lv_draw/../lv_core/../lv_font/../lv_misc/lv_area.h **** }
 1259              		.loc 2 109 44 view .LVU450
 1260 017e BDF89020 		ldrh	r2, [sp, #144]
 109:lvgl/src/lv_draw/../lv_core/../lv_font/../lv_misc/lv_area.h **** }
 1261              		.loc 2 109 36 view .LVU451
 1262 0182 9B1A     		subs	r3, r3, r2
 1263 0184 9BB2     		uxth	r3, r3
 109:lvgl/src/lv_draw/../lv_core/../lv_font/../lv_misc/lv_area.h **** }
 1264              		.loc 2 109 49 view .LVU452
 1265 0186 0133     		adds	r3, r3, #1
 109:lvgl/src/lv_draw/../lv_core/../lv_font/../lv_misc/lv_area.h **** }
 1266              		.loc 2 109 12 view .LVU453
 1267 0188 1BB2     		sxth	r3, r3
 1268              	.LVL127:
 109:lvgl/src/lv_draw/../lv_core/../lv_font/../lv_misc/lv_area.h **** }
 1269              		.loc 2 109 12 view .LVU454
 1270              	.LBE243:
 1271              	.LBE242:
 1272              	.LBB244:
 1273              	.LBI244:
 117:lvgl/src/lv_draw/../lv_core/../lv_font/../lv_misc/lv_area.h **** {
 1274              		.loc 2 117 26 is_stmt 1 view .LVU455
 1275              	.LBB245:
 1276              		.loc 2 119 5 view .LVU456
 1277              		.loc 2 119 31 is_stmt 0 view .LVU457
 1278 018a BDF89680 		ldrh	r8, [sp, #150]
 1279              	.LVL128:
 1280              		.loc 2 119 44 view .LVU458
 1281 018e BDF89220 		ldrh	r2, [sp, #146]
 1282              		.loc 2 119 36 view .LVU459
 1283 0192 A8EB0208 		sub	r8, r8, r2
 1284 0196 1FFA88F8 		uxth	r8, r8
 1285              		.loc 2 119 49 view .LVU460
 1286 019a 08F10108 		add	r8, r8, #1
 1287              		.loc 2 119 12 view .LVU461
 1288 019e 0FFA88F8 		sxth	r8, r8
 1289              	.LVL129:
 1290              		.loc 2 119 12 view .LVU462
 1291              	.LBE245:
 1292              	.LBE244:
 586:lvgl/src/lv_draw/lv_draw_rect.c ****     if(r_sh > short_side >> 1) r_sh = short_side >> 1;
 1293              		.loc 1 586 18 view .LVU463
 1294 01a2 9845     		cmp	r8, r3
 1295 01a4 00DD     		ble	.L80
 1296              	.LVL130:
 109:lvgl/src/lv_draw/../lv_core/../lv_font/../lv_misc/lv_area.h **** }
 1297              		.loc 2 109 5 is_stmt 1 view .LVU464
 586:lvgl/src/lv_draw/lv_draw_rect.c ****     if(r_sh > short_side >> 1) r_sh = short_side >> 1;
 1298              		.loc 1 586 18 is_stmt 0 view .LVU465
 1299 01a6 9846     		mov	r8, r3
 1300              	.L80:
 1301              	.LVL131:
 587:lvgl/src/lv_draw/lv_draw_rect.c **** 
 1302              		.loc 1 587 5 is_stmt 1 discriminator 4 view .LVU466
ARM GAS  D:\Temp\ccGEpo4V.s 			page 56


 587:lvgl/src/lv_draw/lv_draw_rect.c **** 
 1303              		.loc 1 587 26 is_stmt 0 discriminator 4 view .LVU467
 1304 01a8 4FEA6808 		asr	r8, r8, #1
 1305              	.LVL132:
 587:lvgl/src/lv_draw/lv_draw_rect.c **** 
 1306              		.loc 1 587 7 discriminator 4 view .LVU468
 1307 01ac 8845     		cmp	r8, r1
 1308 01ae 00DB     		blt	.L81
 585:lvgl/src/lv_draw/lv_draw_rect.c ****     short_side = LV_MATH_MIN(lv_area_get_width(&sh_rect_area), lv_area_get_height(&sh_rect_area));
 1309              		.loc 1 585 13 view .LVU469
 1310 01b0 8846     		mov	r8, r1
 1311              	.L81:
 1312              	.LVL133:
 589:lvgl/src/lv_draw/lv_draw_rect.c **** 
 1313              		.loc 1 589 5 is_stmt 1 view .LVU470
 589:lvgl/src/lv_draw/lv_draw_rect.c **** 
 1314              		.loc 1 589 13 is_stmt 0 view .LVU471
 1315 01b2 4444     		add	r4, r4, r8
 1316              	.LVL134:
 591:lvgl/src/lv_draw/lv_draw_rect.c **** 
 1317              		.loc 1 591 5 is_stmt 1 view .LVU472
 612:lvgl/src/lv_draw/lv_draw_rect.c ****     shadow_draw_corner_buf(&sh_rect_area, (uint16_t *)sh_buf, dsc->shadow_width, r_sh);
 1318              		.loc 1 612 5 view .LVU473
 612:lvgl/src/lv_draw/lv_draw_rect.c ****     shadow_draw_corner_buf(&sh_rect_area, (uint16_t *)sh_buf, dsc->shadow_width, r_sh);
 1319              		.loc 1 612 42 is_stmt 0 view .LVU474
 1320 01b4 04FB04F0 		mul	r0, r4, r4
 612:lvgl/src/lv_draw/lv_draw_rect.c ****     shadow_draw_corner_buf(&sh_rect_area, (uint16_t *)sh_buf, dsc->shadow_width, r_sh);
 1321              		.loc 1 612 14 view .LVU475
 1322 01b8 4000     		lsls	r0, r0, #1
 1323 01ba FFF7FEFF 		bl	_lv_mem_buf_get
 1324              	.LVL135:
 1325 01be 0146     		mov	r1, r0
 1326 01c0 0890     		str	r0, [sp, #32]
 1327              	.LVL136:
 613:lvgl/src/lv_draw/lv_draw_rect.c **** #endif
 1328              		.loc 1 613 5 is_stmt 1 view .LVU476
 1329 01c2 0FFA88F3 		sxth	r3, r8
 1330 01c6 B5F92220 		ldrsh	r2, [r5, #34]
 1331 01ca 24A8     		add	r0, sp, #144
 1332              	.LVL137:
 613:lvgl/src/lv_draw/lv_draw_rect.c **** #endif
 1333              		.loc 1 613 5 is_stmt 0 view .LVU477
 1334 01cc FFF7FEFF 		bl	shadow_draw_corner_buf
 1335              	.LVL138:
 616:lvgl/src/lv_draw/lv_draw_rect.c ****     lv_coord_t w_half = sh_area.x1 + lv_area_get_width(&sh_area) / 2;
 1336              		.loc 1 616 5 is_stmt 1 view .LVU478
 616:lvgl/src/lv_draw/lv_draw_rect.c ****     lv_coord_t w_half = sh_area.x1 + lv_area_get_width(&sh_area) / 2;
 1337              		.loc 1 616 32 is_stmt 0 view .LVU479
 1338 01d0 BDF88A20 		ldrh	r2, [sp, #138]
 1339              	.LVL139:
 1340              	.LBB246:
 1341              	.LBI246:
 117:lvgl/src/lv_draw/../lv_core/../lv_font/../lv_misc/lv_area.h **** {
 1342              		.loc 2 117 26 is_stmt 1 view .LVU480
 1343              	.LBB247:
 1344              		.loc 2 119 5 view .LVU481
 1345              		.loc 2 119 31 is_stmt 0 view .LVU482
ARM GAS  D:\Temp\ccGEpo4V.s 			page 57


 1346 01d4 BDF88E30 		ldrh	r3, [sp, #142]
 1347              		.loc 2 119 36 view .LVU483
 1348 01d8 9B1A     		subs	r3, r3, r2
 1349 01da 9BB2     		uxth	r3, r3
 1350              		.loc 2 119 49 view .LVU484
 1351 01dc 0133     		adds	r3, r3, #1
 1352              		.loc 2 119 12 view .LVU485
 1353 01de 1BB2     		sxth	r3, r3
 1354              	.LVL140:
 1355              		.loc 2 119 12 view .LVU486
 1356              	.LBE247:
 1357              	.LBE246:
 616:lvgl/src/lv_draw/lv_draw_rect.c ****     lv_coord_t w_half = sh_area.x1 + lv_area_get_width(&sh_area) / 2;
 1358              		.loc 1 616 36 view .LVU487
 1359 01e0 03EBD373 		add	r3, r3, r3, lsr #31
 1360 01e4 02EB6303 		add	r3, r2, r3, asr #1
 1361 01e8 9BB2     		uxth	r3, r3
 1362 01ea 0E93     		str	r3, [sp, #56]
 616:lvgl/src/lv_draw/lv_draw_rect.c ****     lv_coord_t w_half = sh_area.x1 + lv_area_get_width(&sh_area) / 2;
 1363              		.loc 1 616 16 view .LVU488
 1364 01ec 0FFA83FB 		sxth	fp, r3
 1365              	.LVL141:
 617:lvgl/src/lv_draw/lv_draw_rect.c **** 
 1366              		.loc 1 617 5 is_stmt 1 view .LVU489
 617:lvgl/src/lv_draw/lv_draw_rect.c **** 
 1367              		.loc 1 617 32 is_stmt 0 view .LVU490
 1368 01f0 BDF88820 		ldrh	r2, [sp, #136]
 1369              	.LVL142:
 1370              	.LBB248:
 1371              	.LBI248:
 107:lvgl/src/lv_draw/../lv_core/../lv_font/../lv_misc/lv_area.h **** {
 1372              		.loc 2 107 26 is_stmt 1 view .LVU491
 1373              	.LBB249:
 109:lvgl/src/lv_draw/../lv_core/../lv_font/../lv_misc/lv_area.h **** }
 1374              		.loc 2 109 5 view .LVU492
 109:lvgl/src/lv_draw/../lv_core/../lv_font/../lv_misc/lv_area.h **** }
 1375              		.loc 2 109 31 is_stmt 0 view .LVU493
 1376 01f4 BDF88C30 		ldrh	r3, [sp, #140]
 109:lvgl/src/lv_draw/../lv_core/../lv_font/../lv_misc/lv_area.h **** }
 1377              		.loc 2 109 36 view .LVU494
 1378 01f8 9B1A     		subs	r3, r3, r2
 1379 01fa 9BB2     		uxth	r3, r3
 109:lvgl/src/lv_draw/../lv_core/../lv_font/../lv_misc/lv_area.h **** }
 1380              		.loc 2 109 49 view .LVU495
 1381 01fc 0133     		adds	r3, r3, #1
 109:lvgl/src/lv_draw/../lv_core/../lv_font/../lv_misc/lv_area.h **** }
 1382              		.loc 2 109 12 view .LVU496
 1383 01fe 1BB2     		sxth	r3, r3
 1384              	.LVL143:
 109:lvgl/src/lv_draw/../lv_core/../lv_font/../lv_misc/lv_area.h **** }
 1385              		.loc 2 109 12 view .LVU497
 1386              	.LBE249:
 1387              	.LBE248:
 617:lvgl/src/lv_draw/lv_draw_rect.c **** 
 1388              		.loc 1 617 36 view .LVU498
 1389 0200 03EBD373 		add	r3, r3, r3, lsr #31
 1390 0204 02EB6303 		add	r3, r2, r3, asr #1
ARM GAS  D:\Temp\ccGEpo4V.s 			page 58


 1391 0208 9BB2     		uxth	r3, r3
 1392 020a 0F93     		str	r3, [sp, #60]
 617:lvgl/src/lv_draw/lv_draw_rect.c **** 
 1393              		.loc 1 617 16 view .LVU499
 1394 020c 1BB2     		sxth	r3, r3
 1395 020e 0D93     		str	r3, [sp, #52]
 1396              	.LVL144:
 619:lvgl/src/lv_draw/lv_draw_rect.c ****     if(lv_draw_mask_get_cnt() > 0) simple_mode = false;
 1397              		.loc 1 619 5 is_stmt 1 view .LVU500
 620:lvgl/src/lv_draw/lv_draw_rect.c ****     else if(dsc->shadow_ofs_x != 0 || dsc->shadow_ofs_y != 0) simple_mode = false;
 1398              		.loc 1 620 5 view .LVU501
 620:lvgl/src/lv_draw/lv_draw_rect.c ****     else if(dsc->shadow_ofs_x != 0 || dsc->shadow_ofs_y != 0) simple_mode = false;
 1399              		.loc 1 620 8 is_stmt 0 view .LVU502
 1400 0210 FFF7FEFF 		bl	lv_draw_mask_get_cnt
 1401              	.LVL145:
 620:lvgl/src/lv_draw/lv_draw_rect.c ****     else if(dsc->shadow_ofs_x != 0 || dsc->shadow_ofs_y != 0) simple_mode = false;
 1402              		.loc 1 620 7 view .LVU503
 1403 0214 40B9     		cbnz	r0, .L158
 621:lvgl/src/lv_draw/lv_draw_rect.c ****     else if(dsc->shadow_spread != 0) simple_mode = false;
 1404              		.loc 1 621 10 is_stmt 1 view .LVU504
 621:lvgl/src/lv_draw/lv_draw_rect.c ****     else if(dsc->shadow_spread != 0) simple_mode = false;
 1405              		.loc 1 621 36 is_stmt 0 view .LVU505
 1406 0216 6B6A     		ldr	r3, [r5, #36]
 621:lvgl/src/lv_draw/lv_draw_rect.c ****     else if(dsc->shadow_spread != 0) simple_mode = false;
 1407              		.loc 1 621 12 view .LVU506
 1408 0218 002B     		cmp	r3, #0
 1409 021a 76D1     		bne	.L159
 622:lvgl/src/lv_draw/lv_draw_rect.c **** 
 1410              		.loc 1 622 10 is_stmt 1 view .LVU507
 622:lvgl/src/lv_draw/lv_draw_rect.c **** 
 1411              		.loc 1 622 16 is_stmt 0 view .LVU508
 1412 021c B5F92830 		ldrsh	r3, [r5, #40]
 622:lvgl/src/lv_draw/lv_draw_rect.c **** 
 1413              		.loc 1 622 12 view .LVU509
 1414 0220 23B1     		cbz	r3, .L82
 622:lvgl/src/lv_draw/lv_draw_rect.c **** 
 1415              		.loc 1 622 50 view .LVU510
 1416 0222 0023     		movs	r3, #0
 1417 0224 0793     		str	r3, [sp, #28]
 1418 0226 01E0     		b	.L82
 1419              	.L158:
 620:lvgl/src/lv_draw/lv_draw_rect.c ****     else if(dsc->shadow_ofs_x != 0 || dsc->shadow_ofs_y != 0) simple_mode = false;
 1420              		.loc 1 620 48 view .LVU511
 1421 0228 0023     		movs	r3, #0
 1422 022a 0793     		str	r3, [sp, #28]
 1423              	.L82:
 1424              	.LVL146:
 625:lvgl/src/lv_draw/lv_draw_rect.c ****     lv_opa_t * mask_buf = _lv_mem_buf_get(lv_area_get_width(&sh_area));
 1425              		.loc 1 625 5 is_stmt 1 view .LVU512
 626:lvgl/src/lv_draw/lv_draw_rect.c **** 
 1426              		.loc 1 626 5 view .LVU513
 1427              	.LBB250:
 1428              	.LBI250:
 107:lvgl/src/lv_draw/../lv_core/../lv_font/../lv_misc/lv_area.h **** {
 1429              		.loc 2 107 26 view .LVU514
 1430              	.LBB251:
 109:lvgl/src/lv_draw/../lv_core/../lv_font/../lv_misc/lv_area.h **** }
ARM GAS  D:\Temp\ccGEpo4V.s 			page 59


 1431              		.loc 2 109 5 view .LVU515
 109:lvgl/src/lv_draw/../lv_core/../lv_font/../lv_misc/lv_area.h **** }
 1432              		.loc 2 109 31 is_stmt 0 view .LVU516
 1433 022c BDF88C00 		ldrh	r0, [sp, #140]
 109:lvgl/src/lv_draw/../lv_core/../lv_font/../lv_misc/lv_area.h **** }
 1434              		.loc 2 109 44 view .LVU517
 1435 0230 BDF88830 		ldrh	r3, [sp, #136]
 109:lvgl/src/lv_draw/../lv_core/../lv_font/../lv_misc/lv_area.h **** }
 1436              		.loc 2 109 36 view .LVU518
 1437 0234 C01A     		subs	r0, r0, r3
 1438 0236 80B2     		uxth	r0, r0
 109:lvgl/src/lv_draw/../lv_core/../lv_font/../lv_misc/lv_area.h **** }
 1439              		.loc 2 109 49 view .LVU519
 1440 0238 0130     		adds	r0, r0, #1
 1441              	.LVL147:
 109:lvgl/src/lv_draw/../lv_core/../lv_font/../lv_misc/lv_area.h **** }
 1442              		.loc 2 109 49 view .LVU520
 1443              	.LBE251:
 1444              	.LBE250:
 626:lvgl/src/lv_draw/lv_draw_rect.c **** 
 1445              		.loc 1 626 27 view .LVU521
 1446 023a 00B2     		sxth	r0, r0
 1447 023c FFF7FEFF 		bl	_lv_mem_buf_get
 1448              	.LVL148:
 1449 0240 0590     		str	r0, [sp, #20]
 1450              	.LVL149:
 628:lvgl/src/lv_draw/lv_draw_rect.c ****     lv_draw_mask_radius_init(&mask_rout_param, &bg_coords, r_bg, true);
 1451              		.loc 1 628 5 is_stmt 1 view .LVU522
 629:lvgl/src/lv_draw/lv_draw_rect.c **** 
 1452              		.loc 1 629 5 view .LVU523
 1453 0242 33B2     		sxth	r3, r6
 1454 0244 1A46     		mov	r2, r3
 1455 0246 0993     		str	r3, [sp, #36]
 1456 0248 0123     		movs	r3, #1
 1457 024a 1EA9     		add	r1, sp, #120
 1458 024c 17A8     		add	r0, sp, #92
 1459              	.LVL150:
 629:lvgl/src/lv_draw/lv_draw_rect.c **** 
 1460              		.loc 1 629 5 is_stmt 0 view .LVU524
 1461 024e FFF7FEFF 		bl	lv_draw_mask_radius_init
 1462              	.LVL151:
 631:lvgl/src/lv_draw/lv_draw_rect.c **** 
 1463              		.loc 1 631 5 is_stmt 1 view .LVU525
 631:lvgl/src/lv_draw/lv_draw_rect.c **** 
 1464              		.loc 1 631 28 is_stmt 0 view .LVU526
 1465 0252 0021     		movs	r1, #0
 1466 0254 17A8     		add	r0, sp, #92
 1467 0256 FFF7FEFF 		bl	lv_draw_mask_add
 1468              	.LVL152:
 1469 025a 0A90     		str	r0, [sp, #40]
 1470              	.LVL153:
 633:lvgl/src/lv_draw/lv_draw_rect.c **** 
 1471              		.loc 1 633 5 is_stmt 1 view .LVU527
 636:lvgl/src/lv_draw/lv_draw_rect.c ****     lv_opa_t * sh_buf_tmp;
 1472              		.loc 1 636 5 view .LVU528
 637:lvgl/src/lv_draw/lv_draw_rect.c ****     a.x2 = sh_area.x2;
 1473              		.loc 1 637 5 view .LVU529
ARM GAS  D:\Temp\ccGEpo4V.s 			page 60


 638:lvgl/src/lv_draw/lv_draw_rect.c ****     a.x1 = a.x2 - corner_size + 1;
 1474              		.loc 1 638 5 view .LVU530
 638:lvgl/src/lv_draw/lv_draw_rect.c ****     a.x1 = a.x2 - corner_size + 1;
 1475              		.loc 1 638 19 is_stmt 0 view .LVU531
 1476 025c BDF98C30 		ldrsh	r3, [sp, #140]
 638:lvgl/src/lv_draw/lv_draw_rect.c ****     a.x1 = a.x2 - corner_size + 1;
 1477              		.loc 1 638 10 view .LVU532
 1478 0260 ADF85830 		strh	r3, [sp, #88]	@ movhi
 639:lvgl/src/lv_draw/lv_draw_rect.c ****     a.y1 = sh_area.y1;
 1479              		.loc 1 639 5 is_stmt 1 view .LVU533
 639:lvgl/src/lv_draw/lv_draw_rect.c ****     a.y1 = sh_area.y1;
 1480              		.loc 1 639 13 is_stmt 0 view .LVU534
 1481 0264 9BB2     		uxth	r3, r3
 639:lvgl/src/lv_draw/lv_draw_rect.c ****     a.y1 = sh_area.y1;
 1482              		.loc 1 639 17 view .LVU535
 1483 0266 A6B2     		uxth	r6, r4
 1484              	.LVL154:
 639:lvgl/src/lv_draw/lv_draw_rect.c ****     a.y1 = sh_area.y1;
 1485              		.loc 1 639 17 view .LVU536
 1486 0268 9B1B     		subs	r3, r3, r6
 1487 026a 9BB2     		uxth	r3, r3
 639:lvgl/src/lv_draw/lv_draw_rect.c ****     a.y1 = sh_area.y1;
 1488              		.loc 1 639 31 view .LVU537
 1489 026c 0133     		adds	r3, r3, #1
 639:lvgl/src/lv_draw/lv_draw_rect.c ****     a.y1 = sh_area.y1;
 1490              		.loc 1 639 10 view .LVU538
 1491 026e ADF85430 		strh	r3, [sp, #84]	@ movhi
 640:lvgl/src/lv_draw/lv_draw_rect.c ****     a.y2 = a.y1 + corner_size - 1;
 1492              		.loc 1 640 5 is_stmt 1 view .LVU539
 640:lvgl/src/lv_draw/lv_draw_rect.c ****     a.y2 = a.y1 + corner_size - 1;
 1493              		.loc 1 640 19 is_stmt 0 view .LVU540
 1494 0272 BDF98A30 		ldrsh	r3, [sp, #138]
 640:lvgl/src/lv_draw/lv_draw_rect.c ****     a.y2 = a.y1 + corner_size - 1;
 1495              		.loc 1 640 10 view .LVU541
 1496 0276 ADF85630 		strh	r3, [sp, #86]	@ movhi
 641:lvgl/src/lv_draw/lv_draw_rect.c **** 
 1497              		.loc 1 641 5 is_stmt 1 view .LVU542
 641:lvgl/src/lv_draw/lv_draw_rect.c **** 
 1498              		.loc 1 641 17 is_stmt 0 view .LVU543
 1499 027a 16FA83F3 		uxtah	r3, r6, r3
 1500 027e 9BB2     		uxth	r3, r3
 641:lvgl/src/lv_draw/lv_draw_rect.c **** 
 1501              		.loc 1 641 31 view .LVU544
 1502 0280 013B     		subs	r3, r3, #1
 641:lvgl/src/lv_draw/lv_draw_rect.c **** 
 1503              		.loc 1 641 10 view .LVU545
 1504 0282 ADF85A30 		strh	r3, [sp, #90]	@ movhi
 643:lvgl/src/lv_draw/lv_draw_rect.c ****     bool has_com = _lv_area_intersect(&ca, &a, clip);
 1505              		.loc 1 643 5 is_stmt 1 view .LVU546
 644:lvgl/src/lv_draw/lv_draw_rect.c ****     if(has_com && _lv_area_is_in(&a, &bg_coords, r_bg) == false) {
 1506              		.loc 1 644 5 view .LVU547
 644:lvgl/src/lv_draw/lv_draw_rect.c ****     if(has_com && _lv_area_is_in(&a, &bg_coords, r_bg) == false) {
 1507              		.loc 1 644 20 is_stmt 0 view .LVU548
 1508 0286 069A     		ldr	r2, [sp, #24]
 1509 0288 15A9     		add	r1, sp, #84
 1510 028a 13A8     		add	r0, sp, #76
 1511 028c FFF7FEFF 		bl	_lv_area_intersect
ARM GAS  D:\Temp\ccGEpo4V.s 			page 61


 1512              	.LVL155:
 645:lvgl/src/lv_draw/lv_draw_rect.c ****         /*Avoid overlap in the middle with large radius*/
 1513              		.loc 1 645 5 is_stmt 1 view .LVU549
 645:lvgl/src/lv_draw/lv_draw_rect.c ****         /*Avoid overlap in the middle with large radius*/
 1514              		.loc 1 645 7 is_stmt 0 view .LVU550
 1515 0290 0028     		cmp	r0, #0
 1516 0292 3DD1     		bne	.L177
 1517              	.LVL156:
 1518              	.L83:
 675:lvgl/src/lv_draw/lv_draw_rect.c ****     a.x1 = a.x2 - corner_size + 1;
 1519              		.loc 1 675 5 is_stmt 1 view .LVU551
 675:lvgl/src/lv_draw/lv_draw_rect.c ****     a.x1 = a.x2 - corner_size + 1;
 1520              		.loc 1 675 19 is_stmt 0 view .LVU552
 1521 0294 BDF98C30 		ldrsh	r3, [sp, #140]
 675:lvgl/src/lv_draw/lv_draw_rect.c ****     a.x1 = a.x2 - corner_size + 1;
 1522              		.loc 1 675 10 view .LVU553
 1523 0298 ADF85830 		strh	r3, [sp, #88]	@ movhi
 676:lvgl/src/lv_draw/lv_draw_rect.c ****     a.y1 = sh_area.y2 - corner_size + 1;
 1524              		.loc 1 676 5 is_stmt 1 view .LVU554
 676:lvgl/src/lv_draw/lv_draw_rect.c ****     a.y1 = sh_area.y2 - corner_size + 1;
 1525              		.loc 1 676 13 is_stmt 0 view .LVU555
 1526 029c 9BB2     		uxth	r3, r3
 676:lvgl/src/lv_draw/lv_draw_rect.c ****     a.y1 = sh_area.y2 - corner_size + 1;
 1527              		.loc 1 676 17 view .LVU556
 1528 029e 9B1B     		subs	r3, r3, r6
 1529 02a0 9BB2     		uxth	r3, r3
 676:lvgl/src/lv_draw/lv_draw_rect.c ****     a.y1 = sh_area.y2 - corner_size + 1;
 1530              		.loc 1 676 31 view .LVU557
 1531 02a2 0133     		adds	r3, r3, #1
 676:lvgl/src/lv_draw/lv_draw_rect.c ****     a.y1 = sh_area.y2 - corner_size + 1;
 1532              		.loc 1 676 10 view .LVU558
 1533 02a4 ADF85430 		strh	r3, [sp, #84]	@ movhi
 677:lvgl/src/lv_draw/lv_draw_rect.c ****     a.y2 = sh_area.y2;
 1534              		.loc 1 677 5 is_stmt 1 view .LVU559
 677:lvgl/src/lv_draw/lv_draw_rect.c ****     a.y2 = sh_area.y2;
 1535              		.loc 1 677 19 is_stmt 0 view .LVU560
 1536 02a8 BDF98E20 		ldrsh	r2, [sp, #142]
 1537 02ac 93B2     		uxth	r3, r2
 677:lvgl/src/lv_draw/lv_draw_rect.c ****     a.y2 = sh_area.y2;
 1538              		.loc 1 677 23 view .LVU561
 1539 02ae 9B1B     		subs	r3, r3, r6
 1540 02b0 9BB2     		uxth	r3, r3
 677:lvgl/src/lv_draw/lv_draw_rect.c ****     a.y2 = sh_area.y2;
 1541              		.loc 1 677 37 view .LVU562
 1542 02b2 0133     		adds	r3, r3, #1
 677:lvgl/src/lv_draw/lv_draw_rect.c ****     a.y2 = sh_area.y2;
 1543              		.loc 1 677 10 view .LVU563
 1544 02b4 ADF85630 		strh	r3, [sp, #86]	@ movhi
 678:lvgl/src/lv_draw/lv_draw_rect.c **** 
 1545              		.loc 1 678 5 is_stmt 1 view .LVU564
 678:lvgl/src/lv_draw/lv_draw_rect.c **** 
 1546              		.loc 1 678 10 is_stmt 0 view .LVU565
 1547 02b8 ADF85A20 		strh	r2, [sp, #90]	@ movhi
 680:lvgl/src/lv_draw/lv_draw_rect.c ****     if(has_com && _lv_area_is_in(&a, &bg_coords, r_bg) == false) {
 1548              		.loc 1 680 5 is_stmt 1 view .LVU566
 680:lvgl/src/lv_draw/lv_draw_rect.c ****     if(has_com && _lv_area_is_in(&a, &bg_coords, r_bg) == false) {
 1549              		.loc 1 680 15 is_stmt 0 view .LVU567
ARM GAS  D:\Temp\ccGEpo4V.s 			page 62


 1550 02bc 069A     		ldr	r2, [sp, #24]
 1551 02be 15A9     		add	r1, sp, #84
 1552 02c0 13A8     		add	r0, sp, #76
 1553 02c2 FFF7FEFF 		bl	_lv_area_intersect
 1554              	.LVL157:
 681:lvgl/src/lv_draw/lv_draw_rect.c ****         /*Avoid overlap in the middle with large radius*/
 1555              		.loc 1 681 5 is_stmt 1 view .LVU568
 681:lvgl/src/lv_draw/lv_draw_rect.c ****         /*Avoid overlap in the middle with large radius*/
 1556              		.loc 1 681 7 is_stmt 0 view .LVU569
 1557 02c6 0028     		cmp	r0, #0
 1558 02c8 40F09B80 		bne	.L178
 1559              	.LVL158:
 1560              	.L91:
 712:lvgl/src/lv_draw/lv_draw_rect.c ****     a.x1 = a.x2 - corner_size + 1;
 1561              		.loc 1 712 5 is_stmt 1 view .LVU570
 712:lvgl/src/lv_draw/lv_draw_rect.c ****     a.x1 = a.x2 - corner_size + 1;
 1562              		.loc 1 712 19 is_stmt 0 view .LVU571
 1563 02cc BDF98C30 		ldrsh	r3, [sp, #140]
 712:lvgl/src/lv_draw/lv_draw_rect.c ****     a.x1 = a.x2 - corner_size + 1;
 1564              		.loc 1 712 10 view .LVU572
 1565 02d0 ADF85830 		strh	r3, [sp, #88]	@ movhi
 713:lvgl/src/lv_draw/lv_draw_rect.c ****     a.y1 = sh_area.y1 + corner_size;
 1566              		.loc 1 713 5 is_stmt 1 view .LVU573
 713:lvgl/src/lv_draw/lv_draw_rect.c ****     a.y1 = sh_area.y1 + corner_size;
 1567              		.loc 1 713 13 is_stmt 0 view .LVU574
 1568 02d4 9BB2     		uxth	r3, r3
 713:lvgl/src/lv_draw/lv_draw_rect.c ****     a.y1 = sh_area.y1 + corner_size;
 1569              		.loc 1 713 17 view .LVU575
 1570 02d6 9B1B     		subs	r3, r3, r6
 1571 02d8 9BB2     		uxth	r3, r3
 713:lvgl/src/lv_draw/lv_draw_rect.c ****     a.y1 = sh_area.y1 + corner_size;
 1572              		.loc 1 713 31 view .LVU576
 1573 02da 0133     		adds	r3, r3, #1
 713:lvgl/src/lv_draw/lv_draw_rect.c ****     a.y1 = sh_area.y1 + corner_size;
 1574              		.loc 1 713 10 view .LVU577
 1575 02dc ADF85430 		strh	r3, [sp, #84]	@ movhi
 714:lvgl/src/lv_draw/lv_draw_rect.c ****     a.y2 = sh_area.y2 - corner_size;
 1576              		.loc 1 714 5 is_stmt 1 view .LVU578
 714:lvgl/src/lv_draw/lv_draw_rect.c ****     a.y2 = sh_area.y2 - corner_size;
 1577              		.loc 1 714 19 is_stmt 0 view .LVU579
 1578 02e0 BDF88A30 		ldrh	r3, [sp, #138]
 714:lvgl/src/lv_draw/lv_draw_rect.c ****     a.y2 = sh_area.y2 - corner_size;
 1579              		.loc 1 714 23 view .LVU580
 1580 02e4 3344     		add	r3, r3, r6
 714:lvgl/src/lv_draw/lv_draw_rect.c ****     a.y2 = sh_area.y2 - corner_size;
 1581              		.loc 1 714 10 view .LVU581
 1582 02e6 ADF85630 		strh	r3, [sp, #86]	@ movhi
 715:lvgl/src/lv_draw/lv_draw_rect.c **** 
 1583              		.loc 1 715 5 is_stmt 1 view .LVU582
 715:lvgl/src/lv_draw/lv_draw_rect.c **** 
 1584              		.loc 1 715 19 is_stmt 0 view .LVU583
 1585 02ea BDF88E30 		ldrh	r3, [sp, #142]
 715:lvgl/src/lv_draw/lv_draw_rect.c **** 
 1586              		.loc 1 715 23 view .LVU584
 1587 02ee 9B1B     		subs	r3, r3, r6
 715:lvgl/src/lv_draw/lv_draw_rect.c **** 
 1588              		.loc 1 715 10 view .LVU585
ARM GAS  D:\Temp\ccGEpo4V.s 			page 63


 1589 02f0 ADF85A30 		strh	r3, [sp, #90]	@ movhi
 717:lvgl/src/lv_draw/lv_draw_rect.c ****     if(has_com && _lv_area_is_in(&a, &bg_coords, r_bg) == false) {
 1590              		.loc 1 717 5 is_stmt 1 view .LVU586
 717:lvgl/src/lv_draw/lv_draw_rect.c ****     if(has_com && _lv_area_is_in(&a, &bg_coords, r_bg) == false) {
 1591              		.loc 1 717 15 is_stmt 0 view .LVU587
 1592 02f4 069A     		ldr	r2, [sp, #24]
 1593 02f6 15A9     		add	r1, sp, #84
 1594 02f8 13A8     		add	r0, sp, #76
 1595 02fa FFF7FEFF 		bl	_lv_area_intersect
 1596              	.LVL159:
 718:lvgl/src/lv_draw/lv_draw_rect.c ****         if(simple_mode) ca.x1 = LV_MATH_MAX(ca.x1, coords->x2);
 1597              		.loc 1 718 5 is_stmt 1 view .LVU588
 718:lvgl/src/lv_draw/lv_draw_rect.c ****         if(simple_mode) ca.x1 = LV_MATH_MAX(ca.x1, coords->x2);
 1598              		.loc 1 718 7 is_stmt 0 view .LVU589
 1599 02fe 0028     		cmp	r0, #0
 1600 0300 40F0FC80 		bne	.L179
 1601              	.LVL160:
 1602              	.L99:
 1603              	.LBB252:
 756:lvgl/src/lv_draw/lv_draw_rect.c ****             lv_opa_t tmp = sh_buf_tmp[x];
 1604              		.loc 1 756 15 discriminator 1 view .LVU590
 1605 0304 0899     		ldr	r1, [sp, #32]
 1606 0306 0020     		movs	r0, #0
 1607 0308 7AE1     		b	.L107
 1608              	.LVL161:
 1609              	.L159:
 756:lvgl/src/lv_draw/lv_draw_rect.c ****             lv_opa_t tmp = sh_buf_tmp[x];
 1610              		.loc 1 756 15 discriminator 1 view .LVU591
 1611              	.LBE252:
 621:lvgl/src/lv_draw/lv_draw_rect.c ****     else if(dsc->shadow_spread != 0) simple_mode = false;
 1612              		.loc 1 621 75 view .LVU592
 1613 030a 0023     		movs	r3, #0
 1614 030c 0793     		str	r3, [sp, #28]
 1615 030e 8DE7     		b	.L82
 1616              	.LVL162:
 1617              	.L177:
 645:lvgl/src/lv_draw/lv_draw_rect.c ****         /*Avoid overlap in the middle with large radius*/
 1618              		.loc 1 645 19 discriminator 1 view .LVU593
 1619 0310 099A     		ldr	r2, [sp, #36]
 1620 0312 1EA9     		add	r1, sp, #120
 1621 0314 15A8     		add	r0, sp, #84
 1622              	.LVL163:
 645:lvgl/src/lv_draw/lv_draw_rect.c ****         /*Avoid overlap in the middle with large radius*/
 1623              		.loc 1 645 19 discriminator 1 view .LVU594
 1624 0316 FFF7FEFF 		bl	_lv_area_is_in
 1625              	.LVL164:
 645:lvgl/src/lv_draw/lv_draw_rect.c ****         /*Avoid overlap in the middle with large radius*/
 1626              		.loc 1 645 16 discriminator 1 view .LVU595
 1627 031a 0028     		cmp	r0, #0
 1628 031c BAD1     		bne	.L83
 1629              	.LBB254:
 647:lvgl/src/lv_draw/lv_draw_rect.c ****         if(ca.x1 <= w_half) ca.x1 = w_half + 1;
 1630              		.loc 1 647 9 is_stmt 1 view .LVU596
 647:lvgl/src/lv_draw/lv_draw_rect.c ****         if(ca.x1 <= w_half) ca.x1 = w_half + 1;
 1631              		.loc 1 647 14 is_stmt 0 view .LVU597
 1632 031e BDF95230 		ldrsh	r3, [sp, #82]
 647:lvgl/src/lv_draw/lv_draw_rect.c ****         if(ca.x1 <= w_half) ca.x1 = w_half + 1;
ARM GAS  D:\Temp\ccGEpo4V.s 			page 64


 1633              		.loc 1 647 11 view .LVU598
 1634 0322 5B45     		cmp	r3, fp
 1635 0324 01DD     		ble	.L84
 647:lvgl/src/lv_draw/lv_draw_rect.c ****         if(ca.x1 <= w_half) ca.x1 = w_half + 1;
 1636              		.loc 1 647 28 is_stmt 1 discriminator 1 view .LVU599
 647:lvgl/src/lv_draw/lv_draw_rect.c ****         if(ca.x1 <= w_half) ca.x1 = w_half + 1;
 1637              		.loc 1 647 34 is_stmt 0 discriminator 1 view .LVU600
 1638 0326 ADF852B0 		strh	fp, [sp, #82]	@ movhi
 1639              	.L84:
 648:lvgl/src/lv_draw/lv_draw_rect.c **** 
 1640              		.loc 1 648 9 is_stmt 1 view .LVU601
 648:lvgl/src/lv_draw/lv_draw_rect.c **** 
 1641              		.loc 1 648 14 is_stmt 0 view .LVU602
 1642 032a BDF94C30 		ldrsh	r3, [sp, #76]
 648:lvgl/src/lv_draw/lv_draw_rect.c **** 
 1643              		.loc 1 648 11 view .LVU603
 1644 032e 0D9A     		ldr	r2, [sp, #52]
 1645 0330 9342     		cmp	r3, r2
 1646 0332 03DC     		bgt	.L85
 648:lvgl/src/lv_draw/lv_draw_rect.c **** 
 1647              		.loc 1 648 29 is_stmt 1 discriminator 1 view .LVU604
 648:lvgl/src/lv_draw/lv_draw_rect.c **** 
 1648              		.loc 1 648 44 is_stmt 0 discriminator 1 view .LVU605
 1649 0334 0F9B     		ldr	r3, [sp, #60]
 1650 0336 0133     		adds	r3, r3, #1
 648:lvgl/src/lv_draw/lv_draw_rect.c **** 
 1651              		.loc 1 648 35 discriminator 1 view .LVU606
 1652 0338 ADF84C30 		strh	r3, [sp, #76]	@ movhi
 1653              	.L85:
 650:lvgl/src/lv_draw/lv_draw_rect.c ****         lv_coord_t w = lv_area_get_width(&ca);
 1654              		.loc 1 650 9 is_stmt 1 view .LVU607
 1655              	.LVL165:
 1656              	.LBB255:
 1657              	.LBI255:
 117:lvgl/src/lv_draw/../lv_core/../lv_font/../lv_misc/lv_area.h **** {
 1658              		.loc 2 117 26 view .LVU608
 1659              	.LBB256:
 1660              		.loc 2 119 5 view .LVU609
 1661              		.loc 2 119 31 is_stmt 0 view .LVU610
 1662 033c BDF852A0 		ldrh	r10, [sp, #82]
 1663              		.loc 2 119 44 view .LVU611
 1664 0340 BDF94E20 		ldrsh	r2, [sp, #78]
 1665 0344 93B2     		uxth	r3, r2
 1666              		.loc 2 119 36 view .LVU612
 1667 0346 AAEB030A 		sub	r10, r10, r3
 1668 034a 1FFA8AFA 		uxth	r10, r10
 1669              		.loc 2 119 49 view .LVU613
 1670 034e 0AF1010A 		add	r10, r10, #1
 1671              		.loc 2 119 12 view .LVU614
 1672 0352 0FFA8AFA 		sxth	r10, r10
 1673              	.LVL166:
 1674              		.loc 2 119 12 view .LVU615
 1675              	.LBE256:
 1676              	.LBE255:
 651:lvgl/src/lv_draw/lv_draw_rect.c ****         if(w > 0) {
 1677              		.loc 1 651 9 is_stmt 1 view .LVU616
 1678              	.LBB257:
ARM GAS  D:\Temp\ccGEpo4V.s 			page 65


 1679              	.LBI257:
 107:lvgl/src/lv_draw/../lv_core/../lv_font/../lv_misc/lv_area.h **** {
 1680              		.loc 2 107 26 view .LVU617
 1681              	.LBB258:
 109:lvgl/src/lv_draw/../lv_core/../lv_font/../lv_misc/lv_area.h **** }
 1682              		.loc 2 109 5 view .LVU618
 109:lvgl/src/lv_draw/../lv_core/../lv_font/../lv_misc/lv_area.h **** }
 1683              		.loc 2 109 31 is_stmt 0 view .LVU619
 1684 0356 BDF85030 		ldrh	r3, [sp, #80]
 109:lvgl/src/lv_draw/../lv_core/../lv_font/../lv_misc/lv_area.h **** }
 1685              		.loc 2 109 44 view .LVU620
 1686 035a BDF94C10 		ldrsh	r1, [sp, #76]
 1687 035e 88B2     		uxth	r0, r1
 109:lvgl/src/lv_draw/../lv_core/../lv_font/../lv_misc/lv_area.h **** }
 1688              		.loc 2 109 36 view .LVU621
 1689 0360 1B1A     		subs	r3, r3, r0
 1690 0362 9BB2     		uxth	r3, r3
 109:lvgl/src/lv_draw/../lv_core/../lv_font/../lv_misc/lv_area.h **** }
 1691              		.loc 2 109 49 view .LVU622
 1692 0364 0133     		adds	r3, r3, #1
 109:lvgl/src/lv_draw/../lv_core/../lv_font/../lv_misc/lv_area.h **** }
 1693              		.loc 2 109 12 view .LVU623
 1694 0366 1BB2     		sxth	r3, r3
 1695 0368 0B93     		str	r3, [sp, #44]
 1696              	.LVL167:
 109:lvgl/src/lv_draw/../lv_core/../lv_font/../lv_misc/lv_area.h **** }
 1697              		.loc 2 109 12 view .LVU624
 1698              	.LBE258:
 1699              	.LBE257:
 652:lvgl/src/lv_draw/lv_draw_rect.c ****             sh_buf_tmp = sh_buf + (ca.x1 - a.x1);
 1700              		.loc 1 652 9 is_stmt 1 view .LVU625
 652:lvgl/src/lv_draw/lv_draw_rect.c ****             sh_buf_tmp = sh_buf + (ca.x1 - a.x1);
 1701              		.loc 1 652 11 is_stmt 0 view .LVU626
 1702 036a 002B     		cmp	r3, #0
 1703 036c 92DD     		ble	.L83
 1704              	.LBB259:
 653:lvgl/src/lv_draw/lv_draw_rect.c ****             sh_buf_tmp += corner_size * (ca.y1 - a.y1);
 1705              		.loc 1 653 13 is_stmt 1 view .LVU627
 653:lvgl/src/lv_draw/lv_draw_rect.c ****             sh_buf_tmp += corner_size * (ca.y1 - a.y1);
 1706              		.loc 1 653 45 is_stmt 0 view .LVU628
 1707 036e BDF95480 		ldrsh	r8, [sp, #84]
 1708              	.LVL168:
 653:lvgl/src/lv_draw/lv_draw_rect.c ****             sh_buf_tmp += corner_size * (ca.y1 - a.y1);
 1709              		.loc 1 653 42 view .LVU629
 1710 0372 A1EB0801 		sub	r1, r1, r8
 1711              	.LVL169:
 654:lvgl/src/lv_draw/lv_draw_rect.c **** 
 1712              		.loc 1 654 13 is_stmt 1 view .LVU630
 654:lvgl/src/lv_draw/lv_draw_rect.c **** 
 1713              		.loc 1 654 51 is_stmt 0 view .LVU631
 1714 0376 BDF95680 		ldrsh	r8, [sp, #86]
 654:lvgl/src/lv_draw/lv_draw_rect.c **** 
 1715              		.loc 1 654 48 view .LVU632
 1716 037a A2EB0808 		sub	r8, r2, r8
 654:lvgl/src/lv_draw/lv_draw_rect.c **** 
 1717              		.loc 1 654 24 view .LVU633
 1718 037e 04FB0818 		mla	r8, r4, r8, r1
ARM GAS  D:\Temp\ccGEpo4V.s 			page 66


 1719 0382 089B     		ldr	r3, [sp, #32]
 1720              	.LVL170:
 654:lvgl/src/lv_draw/lv_draw_rect.c **** 
 1721              		.loc 1 654 24 view .LVU634
 1722 0384 9844     		add	r8, r8, r3
 1723              	.LVL171:
 656:lvgl/src/lv_draw/lv_draw_rect.c ****             lv_area_copy(&fa, &ca);
 1724              		.loc 1 656 13 is_stmt 1 view .LVU635
 657:lvgl/src/lv_draw/lv_draw_rect.c ****             fa.y2 = fa.y1;
 1725              		.loc 1 657 13 view .LVU636
 1726              	.LBB260:
 1727              	.LBI260:
  97:lvgl/src/lv_draw/../lv_core/../lv_font/../lv_misc/lv_area.h **** {
 1728              		.loc 2 97 20 view .LVU637
 1729              	.LBE260:
 1730              	.LBE259:
 1731              	.LBE254:
  99:lvgl/src/lv_draw/../lv_core/../lv_font/../lv_misc/lv_area.h **** }
 1732              		.loc 2 99 5 view .LVU638
 1733              	.LBB268:
 1734              	.LBB267:
 1735              	.LBB265:
 1736              	.LBB261:
 1737              	.LBI261:
 213:lvgl/src/lv_draw/../lv_core/../lv_font/../lv_misc/lv_mem.h **** {
 1738              		.loc 3 213 44 view .LVU639
 1739              	.LBB262:
 215:lvgl/src/lv_draw/../lv_core/../lv_font/../lv_misc/lv_mem.h ****     const uint8_t * s8 = (const uint8_t *)src;
 1740              		.loc 3 215 5 view .LVU640
 216:lvgl/src/lv_draw/../lv_core/../lv_font/../lv_misc/lv_mem.h **** 
 1741              		.loc 3 216 5 view .LVU641
 218:lvgl/src/lv_draw/../lv_core/../lv_font/../lv_misc/lv_mem.h ****         *d8 = *s8;
 1742              		.loc 3 218 5 view .LVU642
 216:lvgl/src/lv_draw/../lv_core/../lv_font/../lv_misc/lv_mem.h **** 
 1743              		.loc 3 216 21 is_stmt 0 view .LVU643
 1744 0386 13A9     		add	r1, sp, #76
 1745              	.LVL172:
 215:lvgl/src/lv_draw/../lv_core/../lv_font/../lv_misc/lv_mem.h ****     const uint8_t * s8 = (const uint8_t *)src;
 1746              		.loc 3 215 15 view .LVU644
 1747 0388 11AA     		add	r2, sp, #68
 1748              	.LVL173:
 215:lvgl/src/lv_draw/../lv_core/../lv_font/../lv_misc/lv_mem.h ****     const uint8_t * s8 = (const uint8_t *)src;
 1749              		.loc 3 215 15 view .LVU645
 1750              	.LBE262:
 1751              	.LBE261:
 1752              	.LBE265:
 654:lvgl/src/lv_draw/lv_draw_rect.c **** 
 1753              		.loc 1 654 24 view .LVU646
 1754 038a 0823     		movs	r3, #8
 1755 038c 04E0     		b	.L86
 1756              	.LVL174:
 1757              	.L87:
 1758              	.LBB266:
 1759              	.LBB264:
 1760              	.LBB263:
 219:lvgl/src/lv_draw/../lv_core/../lv_font/../lv_misc/lv_mem.h ****         d8++;
 1761              		.loc 3 219 9 is_stmt 1 view .LVU647
ARM GAS  D:\Temp\ccGEpo4V.s 			page 67


 219:lvgl/src/lv_draw/../lv_core/../lv_font/../lv_misc/lv_mem.h ****         d8++;
 1762              		.loc 3 219 15 is_stmt 0 view .LVU648
 1763 038e 11F8010B 		ldrb	r0, [r1], #1	@ zero_extendqisi2
 1764              	.LVL175:
 219:lvgl/src/lv_draw/../lv_core/../lv_font/../lv_misc/lv_mem.h ****         d8++;
 1765              		.loc 3 219 13 view .LVU649
 1766 0392 02F8010B 		strb	r0, [r2], #1
 1767              	.LVL176:
 220:lvgl/src/lv_draw/../lv_core/../lv_font/../lv_misc/lv_mem.h ****         s8++;
 1768              		.loc 3 220 9 is_stmt 1 view .LVU650
 221:lvgl/src/lv_draw/../lv_core/../lv_font/../lv_misc/lv_mem.h ****         len--;
 1769              		.loc 3 221 9 view .LVU651
 222:lvgl/src/lv_draw/../lv_core/../lv_font/../lv_misc/lv_mem.h ****     }
 1770              		.loc 3 222 9 view .LVU652
 222:lvgl/src/lv_draw/../lv_core/../lv_font/../lv_misc/lv_mem.h ****     }
 1771              		.loc 3 222 12 is_stmt 0 view .LVU653
 1772 0396 013B     		subs	r3, r3, #1
 1773              	.LVL177:
 1774              	.L86:
 218:lvgl/src/lv_draw/../lv_core/../lv_font/../lv_misc/lv_mem.h ****         *d8 = *s8;
 1775              		.loc 3 218 10 view .LVU654
 1776 0398 002B     		cmp	r3, #0
 1777 039a F8D1     		bne	.L87
 1778              		.loc 3 225 5 is_stmt 1 view .LVU655
 1779              	.LVL178:
 1780              		.loc 3 225 5 is_stmt 0 view .LVU656
 1781              	.LBE263:
 1782              	.LBE264:
 1783              	.LBE266:
 658:lvgl/src/lv_draw/lv_draw_rect.c **** 
 1784              		.loc 1 658 13 is_stmt 1 view .LVU657
 658:lvgl/src/lv_draw/lv_draw_rect.c **** 
 1785              		.loc 1 658 23 is_stmt 0 view .LVU658
 1786 039c BDF94630 		ldrsh	r3, [sp, #70]
 658:lvgl/src/lv_draw/lv_draw_rect.c **** 
 1787              		.loc 1 658 19 view .LVU659
 1788 03a0 ADF84A30 		strh	r3, [sp, #74]	@ movhi
 660:lvgl/src/lv_draw/lv_draw_rect.c ****                 _lv_memcpy(mask_buf, sh_buf_tmp, w);
 1789              		.loc 1 660 13 is_stmt 1 view .LVU660
 1790              	.LVL179:
 660:lvgl/src/lv_draw/lv_draw_rect.c ****                 _lv_memcpy(mask_buf, sh_buf_tmp, w);
 1791              		.loc 1 660 19 is_stmt 0 view .LVU661
 1792 03a4 4FF00009 		mov	r9, #0
 1793              	.LVL180:
 660:lvgl/src/lv_draw/lv_draw_rect.c ****                 _lv_memcpy(mask_buf, sh_buf_tmp, w);
 1794              		.loc 1 660 13 view .LVU662
 1795 03a8 17E0     		b	.L88
 1796              	.LVL181:
 1797              	.L89:
 665:lvgl/src/lv_draw/lv_draw_rect.c ****                                mask_res, opa, dsc->shadow_blend_mode);
 1798              		.loc 1 665 17 is_stmt 1 discriminator 2 view .LVU663
 1799 03aa 95F82B30 		ldrb	r3, [r5, #43]	@ zero_extendqisi2
 1800 03ae 0293     		str	r3, [sp, #8]
 1801 03b0 0197     		str	r7, [sp, #4]
 1802 03b2 0090     		str	r0, [sp]
 1803 03b4 059B     		ldr	r3, [sp, #20]
 1804 03b6 2A8C     		ldrh	r2, [r5, #32]
ARM GAS  D:\Temp\ccGEpo4V.s 			page 68


 1805 03b8 11A9     		add	r1, sp, #68
 1806 03ba 0698     		ldr	r0, [sp, #24]
 1807              	.LVL182:
 665:lvgl/src/lv_draw/lv_draw_rect.c ****                                mask_res, opa, dsc->shadow_blend_mode);
 1808              		.loc 1 665 17 is_stmt 0 discriminator 2 view .LVU664
 1809 03bc FFF7FEFF 		bl	_lv_blend_fill
 1810              	.LVL183:
 667:lvgl/src/lv_draw/lv_draw_rect.c ****                 fa.y2++;
 1811              		.loc 1 667 17 is_stmt 1 discriminator 2 view .LVU665
 667:lvgl/src/lv_draw/lv_draw_rect.c ****                 fa.y2++;
 1812              		.loc 1 667 19 is_stmt 0 discriminator 2 view .LVU666
 1813 03c0 BDF94630 		ldrsh	r3, [sp, #70]
 667:lvgl/src/lv_draw/lv_draw_rect.c ****                 fa.y2++;
 1814              		.loc 1 667 22 discriminator 2 view .LVU667
 1815 03c4 0133     		adds	r3, r3, #1
 1816 03c6 ADF84630 		strh	r3, [sp, #70]	@ movhi
 668:lvgl/src/lv_draw/lv_draw_rect.c ****                 sh_buf_tmp += corner_size;
 1817              		.loc 1 668 17 is_stmt 1 discriminator 2 view .LVU668
 668:lvgl/src/lv_draw/lv_draw_rect.c ****                 sh_buf_tmp += corner_size;
 1818              		.loc 1 668 19 is_stmt 0 discriminator 2 view .LVU669
 1819 03ca BDF94A30 		ldrsh	r3, [sp, #74]
 668:lvgl/src/lv_draw/lv_draw_rect.c ****                 sh_buf_tmp += corner_size;
 1820              		.loc 1 668 22 discriminator 2 view .LVU670
 1821 03ce 0133     		adds	r3, r3, #1
 1822 03d0 ADF84A30 		strh	r3, [sp, #74]	@ movhi
 669:lvgl/src/lv_draw/lv_draw_rect.c ****             }
 1823              		.loc 1 669 17 is_stmt 1 discriminator 2 view .LVU671
 669:lvgl/src/lv_draw/lv_draw_rect.c ****             }
 1824              		.loc 1 669 28 is_stmt 0 discriminator 2 view .LVU672
 1825 03d4 A044     		add	r8, r8, r4
 1826              	.LVL184:
 660:lvgl/src/lv_draw/lv_draw_rect.c ****                 _lv_memcpy(mask_buf, sh_buf_tmp, w);
 1827              		.loc 1 660 32 discriminator 2 view .LVU673
 1828 03d6 09F10109 		add	r9, r9, #1
 1829              	.LVL185:
 1830              	.L88:
 660:lvgl/src/lv_draw/lv_draw_rect.c ****                 _lv_memcpy(mask_buf, sh_buf_tmp, w);
 1831              		.loc 1 660 13 discriminator 1 view .LVU674
 1832 03da CA45     		cmp	r10, r9
 1833 03dc 7FF75AAF 		ble	.L83
 661:lvgl/src/lv_draw/lv_draw_rect.c ****                 mask_res = lv_draw_mask_apply(mask_buf, fa.x1, fa.y1, w);
 1834              		.loc 1 661 17 is_stmt 1 view .LVU675
 1835 03e0 0B9A     		ldr	r2, [sp, #44]
 1836 03e2 4146     		mov	r1, r8
 1837 03e4 0598     		ldr	r0, [sp, #20]
 1838 03e6 FFF7FEFF 		bl	_lv_memcpy
 1839              	.LVL186:
 662:lvgl/src/lv_draw/lv_draw_rect.c ****                 if(mask_res == LV_DRAW_MASK_RES_FULL_COVER) mask_res = LV_DRAW_MASK_RES_CHANGED;
 1840              		.loc 1 662 17 view .LVU676
 662:lvgl/src/lv_draw/lv_draw_rect.c ****                 if(mask_res == LV_DRAW_MASK_RES_FULL_COVER) mask_res = LV_DRAW_MASK_RES_CHANGED;
 1841              		.loc 1 662 28 is_stmt 0 view .LVU677
 1842 03ea 0B9B     		ldr	r3, [sp, #44]
 1843 03ec BDF94620 		ldrsh	r2, [sp, #70]
 1844 03f0 BDF94410 		ldrsh	r1, [sp, #68]
 1845 03f4 0598     		ldr	r0, [sp, #20]
 1846 03f6 FFF7FEFF 		bl	lv_draw_mask_apply
 1847              	.LVL187:
ARM GAS  D:\Temp\ccGEpo4V.s 			page 69


 663:lvgl/src/lv_draw/lv_draw_rect.c **** 
 1848              		.loc 1 663 17 is_stmt 1 view .LVU678
 663:lvgl/src/lv_draw/lv_draw_rect.c **** 
 1849              		.loc 1 663 19 is_stmt 0 view .LVU679
 1850 03fa 0128     		cmp	r0, #1
 1851 03fc D5D1     		bne	.L89
 663:lvgl/src/lv_draw/lv_draw_rect.c **** 
 1852              		.loc 1 663 70 view .LVU680
 1853 03fe 0220     		movs	r0, #2
 1854              	.LVL188:
 663:lvgl/src/lv_draw/lv_draw_rect.c **** 
 1855              		.loc 1 663 70 view .LVU681
 1856 0400 D3E7     		b	.L89
 1857              	.LVL189:
 1858              	.L178:
 663:lvgl/src/lv_draw/lv_draw_rect.c **** 
 1859              		.loc 1 663 70 view .LVU682
 1860              	.LBE267:
 1861              	.LBE268:
 681:lvgl/src/lv_draw/lv_draw_rect.c ****         /*Avoid overlap in the middle with large radius*/
 1862              		.loc 1 681 19 discriminator 1 view .LVU683
 1863 0402 099A     		ldr	r2, [sp, #36]
 1864 0404 1EA9     		add	r1, sp, #120
 1865 0406 15A8     		add	r0, sp, #84
 1866              	.LVL190:
 681:lvgl/src/lv_draw/lv_draw_rect.c ****         /*Avoid overlap in the middle with large radius*/
 1867              		.loc 1 681 19 discriminator 1 view .LVU684
 1868 0408 FFF7FEFF 		bl	_lv_area_is_in
 1869              	.LVL191:
 681:lvgl/src/lv_draw/lv_draw_rect.c ****         /*Avoid overlap in the middle with large radius*/
 1870              		.loc 1 681 16 discriminator 1 view .LVU685
 1871 040c 0028     		cmp	r0, #0
 1872 040e 7FF45DAF 		bne	.L91
 1873              	.LBB269:
 683:lvgl/src/lv_draw/lv_draw_rect.c ****         if(ca.x1 <= w_half) ca.x1 = w_half + 1;
 1874              		.loc 1 683 9 is_stmt 1 view .LVU686
 683:lvgl/src/lv_draw/lv_draw_rect.c ****         if(ca.x1 <= w_half) ca.x1 = w_half + 1;
 1875              		.loc 1 683 14 is_stmt 0 view .LVU687
 1876 0412 BDF94E30 		ldrsh	r3, [sp, #78]
 683:lvgl/src/lv_draw/lv_draw_rect.c ****         if(ca.x1 <= w_half) ca.x1 = w_half + 1;
 1877              		.loc 1 683 11 view .LVU688
 1878 0416 5B45     		cmp	r3, fp
 1879 0418 03DC     		bgt	.L92
 683:lvgl/src/lv_draw/lv_draw_rect.c ****         if(ca.x1 <= w_half) ca.x1 = w_half + 1;
 1880              		.loc 1 683 29 is_stmt 1 discriminator 1 view .LVU689
 683:lvgl/src/lv_draw/lv_draw_rect.c ****         if(ca.x1 <= w_half) ca.x1 = w_half + 1;
 1881              		.loc 1 683 44 is_stmt 0 discriminator 1 view .LVU690
 1882 041a 0E9B     		ldr	r3, [sp, #56]
 1883 041c 0133     		adds	r3, r3, #1
 683:lvgl/src/lv_draw/lv_draw_rect.c ****         if(ca.x1 <= w_half) ca.x1 = w_half + 1;
 1884              		.loc 1 683 35 discriminator 1 view .LVU691
 1885 041e ADF84E30 		strh	r3, [sp, #78]	@ movhi
 1886              	.L92:
 684:lvgl/src/lv_draw/lv_draw_rect.c **** 
 1887              		.loc 1 684 9 is_stmt 1 view .LVU692
 684:lvgl/src/lv_draw/lv_draw_rect.c **** 
 1888              		.loc 1 684 14 is_stmt 0 view .LVU693
ARM GAS  D:\Temp\ccGEpo4V.s 			page 70


 1889 0422 BDF94C30 		ldrsh	r3, [sp, #76]
 684:lvgl/src/lv_draw/lv_draw_rect.c **** 
 1890              		.loc 1 684 11 view .LVU694
 1891 0426 0D9A     		ldr	r2, [sp, #52]
 1892 0428 9342     		cmp	r3, r2
 1893 042a 03DC     		bgt	.L93
 684:lvgl/src/lv_draw/lv_draw_rect.c **** 
 1894              		.loc 1 684 29 is_stmt 1 discriminator 1 view .LVU695
 684:lvgl/src/lv_draw/lv_draw_rect.c **** 
 1895              		.loc 1 684 44 is_stmt 0 discriminator 1 view .LVU696
 1896 042c 0F9B     		ldr	r3, [sp, #60]
 1897 042e 0133     		adds	r3, r3, #1
 684:lvgl/src/lv_draw/lv_draw_rect.c **** 
 1898              		.loc 1 684 35 discriminator 1 view .LVU697
 1899 0430 ADF84C30 		strh	r3, [sp, #76]	@ movhi
 1900              	.L93:
 686:lvgl/src/lv_draw/lv_draw_rect.c ****         lv_coord_t w = lv_area_get_width(&ca);
 1901              		.loc 1 686 9 is_stmt 1 view .LVU698
 1902              	.LVL192:
 1903              	.LBB270:
 1904              	.LBI270:
 117:lvgl/src/lv_draw/../lv_core/../lv_font/../lv_misc/lv_area.h **** {
 1905              		.loc 2 117 26 view .LVU699
 1906              	.LBB271:
 1907              		.loc 2 119 5 view .LVU700
 1908              		.loc 2 119 31 is_stmt 0 view .LVU701
 1909 0434 BDF95220 		ldrsh	r2, [sp, #82]
 1910 0438 1FFA82FA 		uxth	r10, r2
 1911              		.loc 2 119 44 view .LVU702
 1912 043c BDF84E30 		ldrh	r3, [sp, #78]
 1913              		.loc 2 119 36 view .LVU703
 1914 0440 AAEB030A 		sub	r10, r10, r3
 1915 0444 1FFA8AFA 		uxth	r10, r10
 1916              		.loc 2 119 49 view .LVU704
 1917 0448 0AF1010A 		add	r10, r10, #1
 1918              		.loc 2 119 12 view .LVU705
 1919 044c 0FFA8AFA 		sxth	r10, r10
 1920              	.LVL193:
 1921              		.loc 2 119 12 view .LVU706
 1922              	.LBE271:
 1923              	.LBE270:
 687:lvgl/src/lv_draw/lv_draw_rect.c **** 
 1924              		.loc 1 687 9 is_stmt 1 view .LVU707
 1925              	.LBB272:
 1926              	.LBI272:
 107:lvgl/src/lv_draw/../lv_core/../lv_font/../lv_misc/lv_area.h **** {
 1927              		.loc 2 107 26 view .LVU708
 1928              	.LBB273:
 109:lvgl/src/lv_draw/../lv_core/../lv_font/../lv_misc/lv_area.h **** }
 1929              		.loc 2 109 5 view .LVU709
 109:lvgl/src/lv_draw/../lv_core/../lv_font/../lv_misc/lv_area.h **** }
