ARM GAS  D:\Temp\ccBnYEXJ.s 			page 1


   1              		.cpu cortex-m4
   2              		.eabi_attribute 27, 1
   3              		.eabi_attribute 28, 1
   4              		.eabi_attribute 20, 1
   5              		.eabi_attribute 21, 1
   6              		.eabi_attribute 23, 3
   7              		.eabi_attribute 24, 1
   8              		.eabi_attribute 25, 1
   9              		.eabi_attribute 26, 1
  10              		.eabi_attribute 30, 1
  11              		.eabi_attribute 34, 1
  12              		.eabi_attribute 18, 4
  13              		.file	"lv_demo_widgets.c"
  14              		.text
  15              	.Ltext0:
  16              		.cfi_sections	.debug_frame
  17              		.section	.text.color_chg_event_cb,"ax",%progbits
  18              		.align	1
  19              		.arch armv7e-m
  20              		.syntax unified
  21              		.thumb
  22              		.thumb_func
  23              		.fpu fpv4-sp-d16
  25              	color_chg_event_cb:
  26              	.LVL0:
  27              	.LFB572:
  28              		.file 1 "lv_examples/src/lv_demo_widgets/lv_demo_widgets.c"
   1:lv_examples/src/lv_demo_widgets/lv_demo_widgets.c **** /**
   2:lv_examples/src/lv_demo_widgets/lv_demo_widgets.c ****  * @file lv_demo_widgets.c
   3:lv_examples/src/lv_demo_widgets/lv_demo_widgets.c ****  *
   4:lv_examples/src/lv_demo_widgets/lv_demo_widgets.c ****  */
   5:lv_examples/src/lv_demo_widgets/lv_demo_widgets.c **** 
   6:lv_examples/src/lv_demo_widgets/lv_demo_widgets.c **** /*********************
   7:lv_examples/src/lv_demo_widgets/lv_demo_widgets.c ****  *      INCLUDES
   8:lv_examples/src/lv_demo_widgets/lv_demo_widgets.c ****  *********************/
   9:lv_examples/src/lv_demo_widgets/lv_demo_widgets.c **** #include "../../lv_examples.h"
  10:lv_examples/src/lv_demo_widgets/lv_demo_widgets.c **** #include "lv_demo_widgets.h"
  11:lv_examples/src/lv_demo_widgets/lv_demo_widgets.c **** 
  12:lv_examples/src/lv_demo_widgets/lv_demo_widgets.c **** #if LV_USE_DEMO_WIDGETS
  13:lv_examples/src/lv_demo_widgets/lv_demo_widgets.c **** 
  14:lv_examples/src/lv_demo_widgets/lv_demo_widgets.c **** /*********************
  15:lv_examples/src/lv_demo_widgets/lv_demo_widgets.c ****  *      DEFINES
  16:lv_examples/src/lv_demo_widgets/lv_demo_widgets.c ****  *********************/
  17:lv_examples/src/lv_demo_widgets/lv_demo_widgets.c **** 
  18:lv_examples/src/lv_demo_widgets/lv_demo_widgets.c **** /**********************
  19:lv_examples/src/lv_demo_widgets/lv_demo_widgets.c ****  *      TYPEDEFS
  20:lv_examples/src/lv_demo_widgets/lv_demo_widgets.c ****  **********************/
  21:lv_examples/src/lv_demo_widgets/lv_demo_widgets.c **** 
  22:lv_examples/src/lv_demo_widgets/lv_demo_widgets.c **** /**********************
  23:lv_examples/src/lv_demo_widgets/lv_demo_widgets.c ****  *  STATIC PROTOTYPES
  24:lv_examples/src/lv_demo_widgets/lv_demo_widgets.c ****  **********************/
  25:lv_examples/src/lv_demo_widgets/lv_demo_widgets.c **** static void controls_create(lv_obj_t * parent);
  26:lv_examples/src/lv_demo_widgets/lv_demo_widgets.c **** static void visuals_create(lv_obj_t * parent);
  27:lv_examples/src/lv_demo_widgets/lv_demo_widgets.c **** static void selectors_create(lv_obj_t * parent);
  28:lv_examples/src/lv_demo_widgets/lv_demo_widgets.c **** static void slider_event_cb(lv_obj_t * slider, lv_event_t e);
  29:lv_examples/src/lv_demo_widgets/lv_demo_widgets.c **** static void ta_event_cb(lv_obj_t * ta, lv_event_t e);
  30:lv_examples/src/lv_demo_widgets/lv_demo_widgets.c **** static void kb_event_cb(lv_obj_t * ta, lv_event_t e);
ARM GAS  D:\Temp\ccBnYEXJ.s 			page 2


  31:lv_examples/src/lv_demo_widgets/lv_demo_widgets.c **** static void bar_anim(lv_task_t * t);
  32:lv_examples/src/lv_demo_widgets/lv_demo_widgets.c **** static void arc_anim(lv_obj_t * arc, lv_anim_value_t value);
  33:lv_examples/src/lv_demo_widgets/lv_demo_widgets.c **** static void linemeter_anim(lv_obj_t * linemeter, lv_anim_value_t value);
  34:lv_examples/src/lv_demo_widgets/lv_demo_widgets.c **** static void gauge_anim(lv_obj_t * gauge, lv_anim_value_t value);
  35:lv_examples/src/lv_demo_widgets/lv_demo_widgets.c **** static void table_event_cb(lv_obj_t * table, lv_event_t e);
  36:lv_examples/src/lv_demo_widgets/lv_demo_widgets.c **** #if LV_USE_THEME_MATERIAL
  37:lv_examples/src/lv_demo_widgets/lv_demo_widgets.c **** static void color_chg_event_cb(lv_obj_t * sw, lv_event_t e);
  38:lv_examples/src/lv_demo_widgets/lv_demo_widgets.c **** #endif
  39:lv_examples/src/lv_demo_widgets/lv_demo_widgets.c **** #if LV_DEMO_WIDGETS_SLIDESHOW
  40:lv_examples/src/lv_demo_widgets/lv_demo_widgets.c **** static void tab_content_anim_create(lv_obj_t * parent);
  41:lv_examples/src/lv_demo_widgets/lv_demo_widgets.c **** static void tab_changer_task_cb(lv_task_t * task);
  42:lv_examples/src/lv_demo_widgets/lv_demo_widgets.c **** #endif
  43:lv_examples/src/lv_demo_widgets/lv_demo_widgets.c **** 
  44:lv_examples/src/lv_demo_widgets/lv_demo_widgets.c **** /**********************
  45:lv_examples/src/lv_demo_widgets/lv_demo_widgets.c ****  *  STATIC VARIABLES
  46:lv_examples/src/lv_demo_widgets/lv_demo_widgets.c ****  **********************/
  47:lv_examples/src/lv_demo_widgets/lv_demo_widgets.c **** static lv_obj_t * tv;
  48:lv_examples/src/lv_demo_widgets/lv_demo_widgets.c **** static lv_obj_t * t1;
  49:lv_examples/src/lv_demo_widgets/lv_demo_widgets.c **** static lv_obj_t * t2;
  50:lv_examples/src/lv_demo_widgets/lv_demo_widgets.c **** static lv_obj_t * t3;
  51:lv_examples/src/lv_demo_widgets/lv_demo_widgets.c **** static lv_obj_t * kb;
  52:lv_examples/src/lv_demo_widgets/lv_demo_widgets.c **** 
  53:lv_examples/src/lv_demo_widgets/lv_demo_widgets.c **** static lv_style_t style_box;
  54:lv_examples/src/lv_demo_widgets/lv_demo_widgets.c **** 
  55:lv_examples/src/lv_demo_widgets/lv_demo_widgets.c **** /**********************
  56:lv_examples/src/lv_demo_widgets/lv_demo_widgets.c ****  *      MACROS
  57:lv_examples/src/lv_demo_widgets/lv_demo_widgets.c ****  **********************/
  58:lv_examples/src/lv_demo_widgets/lv_demo_widgets.c **** 
  59:lv_examples/src/lv_demo_widgets/lv_demo_widgets.c **** /**********************
  60:lv_examples/src/lv_demo_widgets/lv_demo_widgets.c ****  *   GLOBAL FUNCTIONS
  61:lv_examples/src/lv_demo_widgets/lv_demo_widgets.c ****  **********************/
  62:lv_examples/src/lv_demo_widgets/lv_demo_widgets.c **** 
  63:lv_examples/src/lv_demo_widgets/lv_demo_widgets.c **** void lv_demo_widgets(void)
  64:lv_examples/src/lv_demo_widgets/lv_demo_widgets.c **** {
  65:lv_examples/src/lv_demo_widgets/lv_demo_widgets.c ****     tv = lv_tabview_create(lv_scr_act(), NULL);
  66:lv_examples/src/lv_demo_widgets/lv_demo_widgets.c **** #if LV_USE_THEME_MATERIAL
  67:lv_examples/src/lv_demo_widgets/lv_demo_widgets.c ****     if(LV_THEME_DEFAULT_INIT == lv_theme_material_init) {
  68:lv_examples/src/lv_demo_widgets/lv_demo_widgets.c ****         lv_disp_size_t disp_size = lv_disp_get_size_category(NULL);
  69:lv_examples/src/lv_demo_widgets/lv_demo_widgets.c ****         if(disp_size >= LV_DISP_SIZE_MEDIUM) {
  70:lv_examples/src/lv_demo_widgets/lv_demo_widgets.c ****             lv_obj_set_style_local_pad_left(tv, LV_TABVIEW_PART_TAB_BG, LV_STATE_DEFAULT, LV_HOR_RE
  71:lv_examples/src/lv_demo_widgets/lv_demo_widgets.c ****             lv_obj_t * sw = lv_switch_create(lv_scr_act(), NULL);
  72:lv_examples/src/lv_demo_widgets/lv_demo_widgets.c ****             if(lv_theme_get_flags() & LV_THEME_MATERIAL_FLAG_DARK)
  73:lv_examples/src/lv_demo_widgets/lv_demo_widgets.c ****                 lv_switch_on(sw, LV_ANIM_OFF);
  74:lv_examples/src/lv_demo_widgets/lv_demo_widgets.c ****             lv_obj_set_event_cb(sw, color_chg_event_cb);
  75:lv_examples/src/lv_demo_widgets/lv_demo_widgets.c ****             lv_obj_set_pos(sw, LV_DPX(10), LV_DPX(10));
  76:lv_examples/src/lv_demo_widgets/lv_demo_widgets.c ****             lv_obj_set_style_local_value_str(sw, LV_SWITCH_PART_BG, LV_STATE_DEFAULT, "Dark");
  77:lv_examples/src/lv_demo_widgets/lv_demo_widgets.c ****             lv_obj_set_style_local_value_align(sw, LV_SWITCH_PART_BG, LV_STATE_DEFAULT, LV_ALIGN_OU
  78:lv_examples/src/lv_demo_widgets/lv_demo_widgets.c ****             lv_obj_set_style_local_value_ofs_x(sw, LV_SWITCH_PART_BG, LV_STATE_DEFAULT, LV_DPI/35);
  79:lv_examples/src/lv_demo_widgets/lv_demo_widgets.c ****         }
  80:lv_examples/src/lv_demo_widgets/lv_demo_widgets.c ****     }
  81:lv_examples/src/lv_demo_widgets/lv_demo_widgets.c **** #endif
  82:lv_examples/src/lv_demo_widgets/lv_demo_widgets.c **** 
  83:lv_examples/src/lv_demo_widgets/lv_demo_widgets.c ****     t1 = lv_tabview_add_tab(tv, "Controls");
  84:lv_examples/src/lv_demo_widgets/lv_demo_widgets.c ****     t2 = lv_tabview_add_tab(tv, "Visuals");
  85:lv_examples/src/lv_demo_widgets/lv_demo_widgets.c ****     t3 = lv_tabview_add_tab(tv, "Selectors");
  86:lv_examples/src/lv_demo_widgets/lv_demo_widgets.c **** 
  87:lv_examples/src/lv_demo_widgets/lv_demo_widgets.c **** 
ARM GAS  D:\Temp\ccBnYEXJ.s 			page 3


  88:lv_examples/src/lv_demo_widgets/lv_demo_widgets.c ****     lv_style_init(&style_box);
  89:lv_examples/src/lv_demo_widgets/lv_demo_widgets.c ****     lv_style_set_value_align(&style_box, LV_STATE_DEFAULT, LV_ALIGN_OUT_TOP_LEFT);
  90:lv_examples/src/lv_demo_widgets/lv_demo_widgets.c ****     lv_style_set_value_ofs_y(&style_box, LV_STATE_DEFAULT, - LV_DPX(10));
  91:lv_examples/src/lv_demo_widgets/lv_demo_widgets.c ****     lv_style_set_margin_top(&style_box, LV_STATE_DEFAULT, LV_DPX(30));
  92:lv_examples/src/lv_demo_widgets/lv_demo_widgets.c **** 
  93:lv_examples/src/lv_demo_widgets/lv_demo_widgets.c ****     controls_create(t1);
  94:lv_examples/src/lv_demo_widgets/lv_demo_widgets.c ****     visuals_create(t2);
  95:lv_examples/src/lv_demo_widgets/lv_demo_widgets.c ****     selectors_create(t3);
  96:lv_examples/src/lv_demo_widgets/lv_demo_widgets.c **** 
  97:lv_examples/src/lv_demo_widgets/lv_demo_widgets.c **** #if LV_DEMO_WIDGETS_SLIDESHOW
  98:lv_examples/src/lv_demo_widgets/lv_demo_widgets.c ****     lv_task_create(tab_changer_task_cb, 8000, LV_TASK_PRIO_LOW, NULL);
  99:lv_examples/src/lv_demo_widgets/lv_demo_widgets.c **** #endif
 100:lv_examples/src/lv_demo_widgets/lv_demo_widgets.c **** 
 101:lv_examples/src/lv_demo_widgets/lv_demo_widgets.c **** }
 102:lv_examples/src/lv_demo_widgets/lv_demo_widgets.c **** 
 103:lv_examples/src/lv_demo_widgets/lv_demo_widgets.c **** /**********************
 104:lv_examples/src/lv_demo_widgets/lv_demo_widgets.c ****  *   STATIC FUNCTIONS
 105:lv_examples/src/lv_demo_widgets/lv_demo_widgets.c ****  **********************/
 106:lv_examples/src/lv_demo_widgets/lv_demo_widgets.c **** 
 107:lv_examples/src/lv_demo_widgets/lv_demo_widgets.c **** 
 108:lv_examples/src/lv_demo_widgets/lv_demo_widgets.c **** static void controls_create(lv_obj_t * parent)
 109:lv_examples/src/lv_demo_widgets/lv_demo_widgets.c **** {
 110:lv_examples/src/lv_demo_widgets/lv_demo_widgets.c ****     lv_page_set_scrl_layout(parent, LV_LAYOUT_PRETTY_TOP);
 111:lv_examples/src/lv_demo_widgets/lv_demo_widgets.c **** 
 112:lv_examples/src/lv_demo_widgets/lv_demo_widgets.c ****     lv_disp_size_t disp_size = lv_disp_get_size_category(NULL);
 113:lv_examples/src/lv_demo_widgets/lv_demo_widgets.c ****     lv_coord_t grid_w = lv_page_get_width_grid(parent, disp_size <= LV_DISP_SIZE_SMALL ? 1 : 2, 1);
 114:lv_examples/src/lv_demo_widgets/lv_demo_widgets.c **** 
 115:lv_examples/src/lv_demo_widgets/lv_demo_widgets.c **** #if LV_DEMO_WIDGETS_SLIDESHOW == 0
 116:lv_examples/src/lv_demo_widgets/lv_demo_widgets.c ****     static const char * btns[] = {"Cancel", "Ok", ""};
 117:lv_examples/src/lv_demo_widgets/lv_demo_widgets.c **** 
 118:lv_examples/src/lv_demo_widgets/lv_demo_widgets.c ****     lv_obj_t * m = lv_msgbox_create(lv_scr_act(), NULL);
 119:lv_examples/src/lv_demo_widgets/lv_demo_widgets.c ****     lv_msgbox_add_btns(m, btns);
 120:lv_examples/src/lv_demo_widgets/lv_demo_widgets.c ****     lv_obj_t * btnm = lv_msgbox_get_btnmatrix(m);
 121:lv_examples/src/lv_demo_widgets/lv_demo_widgets.c ****     lv_btnmatrix_set_btn_ctrl(btnm, 1, LV_BTNMATRIX_CTRL_CHECK_STATE);
 122:lv_examples/src/lv_demo_widgets/lv_demo_widgets.c **** #endif
 123:lv_examples/src/lv_demo_widgets/lv_demo_widgets.c **** 
 124:lv_examples/src/lv_demo_widgets/lv_demo_widgets.c ****     lv_obj_t * h = lv_cont_create(parent, NULL);
 125:lv_examples/src/lv_demo_widgets/lv_demo_widgets.c ****     lv_cont_set_layout(h, LV_LAYOUT_PRETTY_MID);
 126:lv_examples/src/lv_demo_widgets/lv_demo_widgets.c ****     lv_obj_add_style(h, LV_CONT_PART_MAIN, &style_box);
 127:lv_examples/src/lv_demo_widgets/lv_demo_widgets.c ****     lv_obj_set_drag_parent(h, true);
 128:lv_examples/src/lv_demo_widgets/lv_demo_widgets.c **** 
 129:lv_examples/src/lv_demo_widgets/lv_demo_widgets.c ****     lv_obj_set_style_local_value_str(h, LV_CONT_PART_MAIN, LV_STATE_DEFAULT, "Basics");
 130:lv_examples/src/lv_demo_widgets/lv_demo_widgets.c **** 
 131:lv_examples/src/lv_demo_widgets/lv_demo_widgets.c ****     lv_cont_set_fit2(h, LV_FIT_NONE, LV_FIT_TIGHT);
 132:lv_examples/src/lv_demo_widgets/lv_demo_widgets.c ****     lv_obj_set_width(h, grid_w);
 133:lv_examples/src/lv_demo_widgets/lv_demo_widgets.c ****     lv_obj_t * btn = lv_btn_create(h, NULL);
 134:lv_examples/src/lv_demo_widgets/lv_demo_widgets.c ****     lv_btn_set_fit2(btn, LV_FIT_NONE, LV_FIT_TIGHT);
 135:lv_examples/src/lv_demo_widgets/lv_demo_widgets.c ****     lv_obj_set_width(btn, lv_obj_get_width_grid(h, disp_size <= LV_DISP_SIZE_SMALL ? 1 : 2, 1));
 136:lv_examples/src/lv_demo_widgets/lv_demo_widgets.c ****     lv_obj_t * label = lv_label_create(btn, NULL);
 137:lv_examples/src/lv_demo_widgets/lv_demo_widgets.c ****     lv_label_set_text(label ,"Button");
 138:lv_examples/src/lv_demo_widgets/lv_demo_widgets.c **** 
 139:lv_examples/src/lv_demo_widgets/lv_demo_widgets.c ****     btn = lv_btn_create(h, btn);
 140:lv_examples/src/lv_demo_widgets/lv_demo_widgets.c ****     lv_btn_toggle(btn);
 141:lv_examples/src/lv_demo_widgets/lv_demo_widgets.c ****     label = lv_label_create(btn, NULL);
 142:lv_examples/src/lv_demo_widgets/lv_demo_widgets.c ****     lv_label_set_text(label ,"Button");
 143:lv_examples/src/lv_demo_widgets/lv_demo_widgets.c **** 
 144:lv_examples/src/lv_demo_widgets/lv_demo_widgets.c ****     lv_switch_create(h, NULL);
ARM GAS  D:\Temp\ccBnYEXJ.s 			page 4


 145:lv_examples/src/lv_demo_widgets/lv_demo_widgets.c **** 
 146:lv_examples/src/lv_demo_widgets/lv_demo_widgets.c ****     lv_checkbox_create(h, NULL);
 147:lv_examples/src/lv_demo_widgets/lv_demo_widgets.c **** 
 148:lv_examples/src/lv_demo_widgets/lv_demo_widgets.c ****     lv_coord_t fit_w = lv_obj_get_width_fit(h);
 149:lv_examples/src/lv_demo_widgets/lv_demo_widgets.c **** 
 150:lv_examples/src/lv_demo_widgets/lv_demo_widgets.c ****     lv_obj_t * slider = lv_slider_create(h, NULL);
 151:lv_examples/src/lv_demo_widgets/lv_demo_widgets.c ****     lv_slider_set_value(slider, 40, LV_ANIM_OFF);
 152:lv_examples/src/lv_demo_widgets/lv_demo_widgets.c ****     lv_obj_set_event_cb(slider, slider_event_cb);
 153:lv_examples/src/lv_demo_widgets/lv_demo_widgets.c ****     lv_obj_set_width_margin(slider, fit_w);
 154:lv_examples/src/lv_demo_widgets/lv_demo_widgets.c **** 
 155:lv_examples/src/lv_demo_widgets/lv_demo_widgets.c ****     /*Use the knobs style value the display the current value in focused state*/
 156:lv_examples/src/lv_demo_widgets/lv_demo_widgets.c ****     lv_obj_set_style_local_margin_top(slider, LV_SLIDER_PART_BG, LV_STATE_DEFAULT, LV_DPX(25));
 157:lv_examples/src/lv_demo_widgets/lv_demo_widgets.c ****     lv_obj_set_style_local_value_font(slider, LV_SLIDER_PART_KNOB, LV_STATE_DEFAULT, lv_theme_get_f
 158:lv_examples/src/lv_demo_widgets/lv_demo_widgets.c ****     lv_obj_set_style_local_value_ofs_y(slider, LV_SLIDER_PART_KNOB, LV_STATE_FOCUSED, - LV_DPX(25))
 159:lv_examples/src/lv_demo_widgets/lv_demo_widgets.c ****     lv_obj_set_style_local_value_opa(slider, LV_SLIDER_PART_KNOB, LV_STATE_DEFAULT, LV_OPA_TRANSP);
 160:lv_examples/src/lv_demo_widgets/lv_demo_widgets.c ****     lv_obj_set_style_local_value_opa(slider, LV_SLIDER_PART_KNOB, LV_STATE_FOCUSED, LV_OPA_COVER);
 161:lv_examples/src/lv_demo_widgets/lv_demo_widgets.c ****     lv_obj_set_style_local_transition_time(slider, LV_SLIDER_PART_KNOB, LV_STATE_DEFAULT, 300);
 162:lv_examples/src/lv_demo_widgets/lv_demo_widgets.c ****     lv_obj_set_style_local_transition_prop_5(slider, LV_SLIDER_PART_KNOB, LV_STATE_DEFAULT, LV_STYL
 163:lv_examples/src/lv_demo_widgets/lv_demo_widgets.c ****     lv_obj_set_style_local_transition_prop_6(slider, LV_SLIDER_PART_KNOB, LV_STATE_DEFAULT, LV_STYL
 164:lv_examples/src/lv_demo_widgets/lv_demo_widgets.c **** 
 165:lv_examples/src/lv_demo_widgets/lv_demo_widgets.c ****     slider = lv_slider_create(h, slider);
 166:lv_examples/src/lv_demo_widgets/lv_demo_widgets.c ****     lv_slider_set_type(slider, LV_SLIDER_TYPE_RANGE);
 167:lv_examples/src/lv_demo_widgets/lv_demo_widgets.c ****     lv_slider_set_value(slider, 70, LV_ANIM_OFF);
 168:lv_examples/src/lv_demo_widgets/lv_demo_widgets.c ****     lv_slider_set_left_value(slider, 30, LV_ANIM_OFF);
 169:lv_examples/src/lv_demo_widgets/lv_demo_widgets.c ****     lv_obj_set_style_local_value_ofs_y(slider, LV_SLIDER_PART_INDIC, LV_STATE_DEFAULT, - LV_DPX(25)
 170:lv_examples/src/lv_demo_widgets/lv_demo_widgets.c ****     lv_obj_set_style_local_value_font(slider, LV_SLIDER_PART_INDIC, LV_STATE_DEFAULT, lv_theme_get_
 171:lv_examples/src/lv_demo_widgets/lv_demo_widgets.c ****     lv_obj_set_style_local_value_opa(slider, LV_SLIDER_PART_INDIC, LV_STATE_DEFAULT, LV_OPA_COVER);
 172:lv_examples/src/lv_demo_widgets/lv_demo_widgets.c ****     lv_obj_set_event_cb(slider, slider_event_cb);
 173:lv_examples/src/lv_demo_widgets/lv_demo_widgets.c ****     lv_event_send(slider, LV_EVENT_VALUE_CHANGED, NULL);      /*To refresh the text*/
 174:lv_examples/src/lv_demo_widgets/lv_demo_widgets.c ****     if(lv_obj_get_width(slider) > fit_w) lv_obj_set_width(slider, fit_w);
 175:lv_examples/src/lv_demo_widgets/lv_demo_widgets.c **** 
 176:lv_examples/src/lv_demo_widgets/lv_demo_widgets.c ****     h = lv_cont_create(parent, h);
 177:lv_examples/src/lv_demo_widgets/lv_demo_widgets.c ****     lv_cont_set_fit(h, LV_FIT_NONE);
 178:lv_examples/src/lv_demo_widgets/lv_demo_widgets.c ****     lv_obj_set_style_local_value_str(h, LV_CONT_PART_MAIN, LV_STATE_DEFAULT, "Text input");
 179:lv_examples/src/lv_demo_widgets/lv_demo_widgets.c **** 
 180:lv_examples/src/lv_demo_widgets/lv_demo_widgets.c ****     lv_obj_t * ta = lv_textarea_create(h, NULL);
 181:lv_examples/src/lv_demo_widgets/lv_demo_widgets.c ****     lv_cont_set_fit2(ta, LV_FIT_PARENT, LV_FIT_NONE);
 182:lv_examples/src/lv_demo_widgets/lv_demo_widgets.c ****     lv_textarea_set_text(ta, "");
 183:lv_examples/src/lv_demo_widgets/lv_demo_widgets.c ****     lv_textarea_set_placeholder_text(ta, "E-mail address");
 184:lv_examples/src/lv_demo_widgets/lv_demo_widgets.c ****     lv_textarea_set_one_line(ta, true);
 185:lv_examples/src/lv_demo_widgets/lv_demo_widgets.c ****     lv_textarea_set_cursor_hidden(ta, true);
 186:lv_examples/src/lv_demo_widgets/lv_demo_widgets.c ****     lv_obj_set_event_cb(ta, ta_event_cb);
 187:lv_examples/src/lv_demo_widgets/lv_demo_widgets.c **** 
 188:lv_examples/src/lv_demo_widgets/lv_demo_widgets.c ****     ta = lv_textarea_create(h, ta);
 189:lv_examples/src/lv_demo_widgets/lv_demo_widgets.c ****     lv_textarea_set_pwd_mode(ta, true);
 190:lv_examples/src/lv_demo_widgets/lv_demo_widgets.c ****     lv_textarea_set_placeholder_text(ta, "Password");
 191:lv_examples/src/lv_demo_widgets/lv_demo_widgets.c **** 
 192:lv_examples/src/lv_demo_widgets/lv_demo_widgets.c ****     ta = lv_textarea_create(h, NULL);
 193:lv_examples/src/lv_demo_widgets/lv_demo_widgets.c ****     lv_cont_set_fit2(ta, LV_FIT_PARENT, LV_FIT_NONE);
 194:lv_examples/src/lv_demo_widgets/lv_demo_widgets.c ****     lv_textarea_set_text(ta, "");
 195:lv_examples/src/lv_demo_widgets/lv_demo_widgets.c ****     lv_textarea_set_placeholder_text(ta, "Message");
 196:lv_examples/src/lv_demo_widgets/lv_demo_widgets.c ****     lv_textarea_set_cursor_hidden(ta, true);
 197:lv_examples/src/lv_demo_widgets/lv_demo_widgets.c ****     lv_obj_set_event_cb(ta, ta_event_cb);
 198:lv_examples/src/lv_demo_widgets/lv_demo_widgets.c ****     lv_cont_set_fit4(ta, LV_FIT_PARENT, LV_FIT_PARENT, LV_FIT_NONE, LV_FIT_PARENT);
 199:lv_examples/src/lv_demo_widgets/lv_demo_widgets.c **** 
 200:lv_examples/src/lv_demo_widgets/lv_demo_widgets.c **** #if LV_DEMO_WIDGETS_SLIDESHOW
 201:lv_examples/src/lv_demo_widgets/lv_demo_widgets.c ****     tab_content_anim_create(parent);
ARM GAS  D:\Temp\ccBnYEXJ.s 			page 5


 202:lv_examples/src/lv_demo_widgets/lv_demo_widgets.c **** #endif
 203:lv_examples/src/lv_demo_widgets/lv_demo_widgets.c **** }
 204:lv_examples/src/lv_demo_widgets/lv_demo_widgets.c **** 
 205:lv_examples/src/lv_demo_widgets/lv_demo_widgets.c **** static void visuals_create(lv_obj_t * parent)
 206:lv_examples/src/lv_demo_widgets/lv_demo_widgets.c **** {
 207:lv_examples/src/lv_demo_widgets/lv_demo_widgets.c ****     lv_page_set_scrl_layout(parent, LV_LAYOUT_PRETTY_TOP);
 208:lv_examples/src/lv_demo_widgets/lv_demo_widgets.c **** 
 209:lv_examples/src/lv_demo_widgets/lv_demo_widgets.c ****     lv_disp_size_t disp_size = lv_disp_get_size_category(NULL);
 210:lv_examples/src/lv_demo_widgets/lv_demo_widgets.c **** 
 211:lv_examples/src/lv_demo_widgets/lv_demo_widgets.c ****     lv_coord_t grid_h_chart = lv_page_get_height_grid(parent, 1, 1);
 212:lv_examples/src/lv_demo_widgets/lv_demo_widgets.c ****     lv_coord_t grid_w_chart = lv_page_get_width_grid(parent, disp_size <= LV_DISP_SIZE_LARGE ? 1 : 
 213:lv_examples/src/lv_demo_widgets/lv_demo_widgets.c **** 
 214:lv_examples/src/lv_demo_widgets/lv_demo_widgets.c ****     lv_obj_t * chart = lv_chart_create(parent, NULL);
 215:lv_examples/src/lv_demo_widgets/lv_demo_widgets.c ****     lv_obj_add_style(chart, LV_CHART_PART_BG, &style_box);
 216:lv_examples/src/lv_demo_widgets/lv_demo_widgets.c ****     if(disp_size <= LV_DISP_SIZE_SMALL) {
 217:lv_examples/src/lv_demo_widgets/lv_demo_widgets.c ****         lv_obj_set_style_local_text_font(chart, LV_CHART_PART_SERIES_BG, LV_STATE_DEFAULT, lv_theme
 218:lv_examples/src/lv_demo_widgets/lv_demo_widgets.c **** 
 219:lv_examples/src/lv_demo_widgets/lv_demo_widgets.c ****     }
 220:lv_examples/src/lv_demo_widgets/lv_demo_widgets.c ****     lv_obj_set_drag_parent(chart, true);
 221:lv_examples/src/lv_demo_widgets/lv_demo_widgets.c ****     lv_obj_set_style_local_value_str(chart, LV_CONT_PART_MAIN, LV_STATE_DEFAULT, "Line chart");
 222:lv_examples/src/lv_demo_widgets/lv_demo_widgets.c ****     lv_obj_set_width_margin(chart, grid_w_chart);
 223:lv_examples/src/lv_demo_widgets/lv_demo_widgets.c ****     lv_obj_set_height_margin(chart, grid_h_chart);
 224:lv_examples/src/lv_demo_widgets/lv_demo_widgets.c ****     lv_chart_set_div_line_count(chart, 3, 0);
 225:lv_examples/src/lv_demo_widgets/lv_demo_widgets.c ****     lv_chart_set_point_count(chart, 8);
 226:lv_examples/src/lv_demo_widgets/lv_demo_widgets.c ****     lv_chart_set_type(chart, LV_CHART_TYPE_LINE);
 227:lv_examples/src/lv_demo_widgets/lv_demo_widgets.c ****     if(disp_size > LV_DISP_SIZE_SMALL) {
 228:lv_examples/src/lv_demo_widgets/lv_demo_widgets.c ****         lv_obj_set_style_local_pad_left(chart,  LV_CHART_PART_BG, LV_STATE_DEFAULT, 4 * (LV_DPI / 1
 229:lv_examples/src/lv_demo_widgets/lv_demo_widgets.c ****         lv_obj_set_style_local_pad_bottom(chart,  LV_CHART_PART_BG, LV_STATE_DEFAULT, 3 * (LV_DPI /
 230:lv_examples/src/lv_demo_widgets/lv_demo_widgets.c ****         lv_obj_set_style_local_pad_right(chart,  LV_CHART_PART_BG, LV_STATE_DEFAULT, 2 * (LV_DPI / 
 231:lv_examples/src/lv_demo_widgets/lv_demo_widgets.c ****         lv_obj_set_style_local_pad_top(chart,  LV_CHART_PART_BG, LV_STATE_DEFAULT, 2 * (LV_DPI / 10
 232:lv_examples/src/lv_demo_widgets/lv_demo_widgets.c ****         lv_chart_set_y_tick_length(chart, 0, 0);
 233:lv_examples/src/lv_demo_widgets/lv_demo_widgets.c ****         lv_chart_set_x_tick_length(chart, 0, 0);
 234:lv_examples/src/lv_demo_widgets/lv_demo_widgets.c ****         lv_chart_set_y_tick_texts(chart, "600\n500\n400\n300\n200", 0, LV_CHART_AXIS_DRAW_LAST_TICK
 235:lv_examples/src/lv_demo_widgets/lv_demo_widgets.c ****         lv_chart_set_x_tick_texts(chart, "Jan\nFeb\nMar\nApr\nMay\nJun\nJul\nAug", 0, LV_CHART_AXIS
 236:lv_examples/src/lv_demo_widgets/lv_demo_widgets.c ****     }
 237:lv_examples/src/lv_demo_widgets/lv_demo_widgets.c ****     lv_chart_series_t * s1 = lv_chart_add_series(chart, LV_THEME_DEFAULT_COLOR_PRIMARY);
 238:lv_examples/src/lv_demo_widgets/lv_demo_widgets.c ****     lv_chart_series_t * s2 = lv_chart_add_series(chart, LV_THEME_DEFAULT_COLOR_SECONDARY);
 239:lv_examples/src/lv_demo_widgets/lv_demo_widgets.c **** 
 240:lv_examples/src/lv_demo_widgets/lv_demo_widgets.c ****     lv_chart_set_next(chart, s1, 10);
 241:lv_examples/src/lv_demo_widgets/lv_demo_widgets.c ****     lv_chart_set_next(chart, s1, 90);
 242:lv_examples/src/lv_demo_widgets/lv_demo_widgets.c ****     lv_chart_set_next(chart, s1, 30);
 243:lv_examples/src/lv_demo_widgets/lv_demo_widgets.c ****     lv_chart_set_next(chart, s1, 60);
 244:lv_examples/src/lv_demo_widgets/lv_demo_widgets.c ****     lv_chart_set_next(chart, s1, 10);
 245:lv_examples/src/lv_demo_widgets/lv_demo_widgets.c ****     lv_chart_set_next(chart, s1, 90);
 246:lv_examples/src/lv_demo_widgets/lv_demo_widgets.c ****     lv_chart_set_next(chart, s1, 30);
 247:lv_examples/src/lv_demo_widgets/lv_demo_widgets.c ****     lv_chart_set_next(chart, s1, 60);
 248:lv_examples/src/lv_demo_widgets/lv_demo_widgets.c ****     lv_chart_set_next(chart, s1, 10);
 249:lv_examples/src/lv_demo_widgets/lv_demo_widgets.c ****     lv_chart_set_next(chart, s1, 90);
 250:lv_examples/src/lv_demo_widgets/lv_demo_widgets.c **** 
 251:lv_examples/src/lv_demo_widgets/lv_demo_widgets.c ****     lv_chart_set_next(chart, s2, 32);
 252:lv_examples/src/lv_demo_widgets/lv_demo_widgets.c ****     lv_chart_set_next(chart, s2, 66);
 253:lv_examples/src/lv_demo_widgets/lv_demo_widgets.c ****     lv_chart_set_next(chart, s2, 5);
 254:lv_examples/src/lv_demo_widgets/lv_demo_widgets.c ****     lv_chart_set_next(chart, s2, 47);
 255:lv_examples/src/lv_demo_widgets/lv_demo_widgets.c ****     lv_chart_set_next(chart, s2, 32);
 256:lv_examples/src/lv_demo_widgets/lv_demo_widgets.c ****     lv_chart_set_next(chart, s2, 32);
 257:lv_examples/src/lv_demo_widgets/lv_demo_widgets.c ****     lv_chart_set_next(chart, s2, 66);
 258:lv_examples/src/lv_demo_widgets/lv_demo_widgets.c ****     lv_chart_set_next(chart, s2, 5);
ARM GAS  D:\Temp\ccBnYEXJ.s 			page 6


 259:lv_examples/src/lv_demo_widgets/lv_demo_widgets.c ****     lv_chart_set_next(chart, s2, 47);
 260:lv_examples/src/lv_demo_widgets/lv_demo_widgets.c ****     lv_chart_set_next(chart, s2, 66);
 261:lv_examples/src/lv_demo_widgets/lv_demo_widgets.c ****     lv_chart_set_next(chart, s2, 5);
 262:lv_examples/src/lv_demo_widgets/lv_demo_widgets.c ****     lv_chart_set_next(chart, s2, 47);
 263:lv_examples/src/lv_demo_widgets/lv_demo_widgets.c **** 
 264:lv_examples/src/lv_demo_widgets/lv_demo_widgets.c ****     lv_obj_t * chart2 = lv_chart_create(parent, chart);
 265:lv_examples/src/lv_demo_widgets/lv_demo_widgets.c ****     lv_chart_set_type(chart2, LV_CHART_TYPE_COLUMN);
 266:lv_examples/src/lv_demo_widgets/lv_demo_widgets.c ****     lv_obj_set_style_local_value_str(chart2, LV_CONT_PART_MAIN, LV_STATE_DEFAULT, "Column chart");
 267:lv_examples/src/lv_demo_widgets/lv_demo_widgets.c **** 
 268:lv_examples/src/lv_demo_widgets/lv_demo_widgets.c ****     s1 = lv_chart_add_series(chart2, LV_THEME_DEFAULT_COLOR_PRIMARY);
 269:lv_examples/src/lv_demo_widgets/lv_demo_widgets.c ****     s2 = lv_chart_add_series(chart2, LV_THEME_DEFAULT_COLOR_SECONDARY);
 270:lv_examples/src/lv_demo_widgets/lv_demo_widgets.c **** 
 271:lv_examples/src/lv_demo_widgets/lv_demo_widgets.c ****     lv_chart_set_next(chart2, s1, 10);
 272:lv_examples/src/lv_demo_widgets/lv_demo_widgets.c ****     lv_chart_set_next(chart2, s1, 90);
 273:lv_examples/src/lv_demo_widgets/lv_demo_widgets.c ****     lv_chart_set_next(chart2, s1, 30);
 274:lv_examples/src/lv_demo_widgets/lv_demo_widgets.c ****     lv_chart_set_next(chart2, s1, 60);
 275:lv_examples/src/lv_demo_widgets/lv_demo_widgets.c ****     lv_chart_set_next(chart2, s1, 10);
 276:lv_examples/src/lv_demo_widgets/lv_demo_widgets.c ****     lv_chart_set_next(chart2, s1, 90);
 277:lv_examples/src/lv_demo_widgets/lv_demo_widgets.c ****     lv_chart_set_next(chart2, s1, 30);
 278:lv_examples/src/lv_demo_widgets/lv_demo_widgets.c ****     lv_chart_set_next(chart2, s1, 60);
 279:lv_examples/src/lv_demo_widgets/lv_demo_widgets.c ****     lv_chart_set_next(chart2, s1, 10);
 280:lv_examples/src/lv_demo_widgets/lv_demo_widgets.c ****     lv_chart_set_next(chart2, s1, 90);
 281:lv_examples/src/lv_demo_widgets/lv_demo_widgets.c **** 
 282:lv_examples/src/lv_demo_widgets/lv_demo_widgets.c ****     lv_chart_set_next(chart2, s2, 32);
 283:lv_examples/src/lv_demo_widgets/lv_demo_widgets.c ****     lv_chart_set_next(chart2, s2, 66);
 284:lv_examples/src/lv_demo_widgets/lv_demo_widgets.c ****     lv_chart_set_next(chart2, s2, 5);
 285:lv_examples/src/lv_demo_widgets/lv_demo_widgets.c ****     lv_chart_set_next(chart2, s2, 47);
 286:lv_examples/src/lv_demo_widgets/lv_demo_widgets.c ****     lv_chart_set_next(chart2, s2, 32);
 287:lv_examples/src/lv_demo_widgets/lv_demo_widgets.c ****     lv_chart_set_next(chart2, s2, 32);
 288:lv_examples/src/lv_demo_widgets/lv_demo_widgets.c ****     lv_chart_set_next(chart2, s2, 66);
 289:lv_examples/src/lv_demo_widgets/lv_demo_widgets.c ****     lv_chart_set_next(chart2, s2, 5);
 290:lv_examples/src/lv_demo_widgets/lv_demo_widgets.c ****     lv_chart_set_next(chart2, s2, 47);
 291:lv_examples/src/lv_demo_widgets/lv_demo_widgets.c ****     lv_chart_set_next(chart2, s2, 66);
 292:lv_examples/src/lv_demo_widgets/lv_demo_widgets.c ****     lv_chart_set_next(chart2, s2, 5);
 293:lv_examples/src/lv_demo_widgets/lv_demo_widgets.c ****     lv_chart_set_next(chart2, s2, 47);
 294:lv_examples/src/lv_demo_widgets/lv_demo_widgets.c **** 
 295:lv_examples/src/lv_demo_widgets/lv_demo_widgets.c ****     lv_coord_t grid_w_meter;
 296:lv_examples/src/lv_demo_widgets/lv_demo_widgets.c ****     if(disp_size <= LV_DISP_SIZE_SMALL) grid_w_meter = lv_page_get_width_grid(parent, 1, 1);
 297:lv_examples/src/lv_demo_widgets/lv_demo_widgets.c ****     else if(disp_size <= LV_DISP_SIZE_MEDIUM) grid_w_meter = lv_page_get_width_grid(parent, 2, 1);
 298:lv_examples/src/lv_demo_widgets/lv_demo_widgets.c ****     else grid_w_meter = lv_page_get_width_grid(parent, 3, 1);
 299:lv_examples/src/lv_demo_widgets/lv_demo_widgets.c **** 
 300:lv_examples/src/lv_demo_widgets/lv_demo_widgets.c ****     lv_coord_t meter_h = lv_page_get_height_fit(parent);
 301:lv_examples/src/lv_demo_widgets/lv_demo_widgets.c ****     lv_coord_t meter_size = LV_MATH_MIN(grid_w_meter, meter_h);
 302:lv_examples/src/lv_demo_widgets/lv_demo_widgets.c **** 
 303:lv_examples/src/lv_demo_widgets/lv_demo_widgets.c ****     lv_obj_t * lmeter = lv_linemeter_create(parent, NULL);
 304:lv_examples/src/lv_demo_widgets/lv_demo_widgets.c ****     lv_obj_set_drag_parent(lmeter, true);
 305:lv_examples/src/lv_demo_widgets/lv_demo_widgets.c ****     lv_linemeter_set_value(lmeter, 50);
 306:lv_examples/src/lv_demo_widgets/lv_demo_widgets.c ****     lv_obj_set_size(lmeter, meter_size, meter_size);
 307:lv_examples/src/lv_demo_widgets/lv_demo_widgets.c ****     lv_obj_add_style(lmeter, LV_LINEMETER_PART_MAIN, &style_box);
 308:lv_examples/src/lv_demo_widgets/lv_demo_widgets.c ****     lv_obj_set_style_local_value_str(lmeter, LV_LINEMETER_PART_MAIN, LV_STATE_DEFAULT, "Line meter"
 309:lv_examples/src/lv_demo_widgets/lv_demo_widgets.c **** 
 310:lv_examples/src/lv_demo_widgets/lv_demo_widgets.c ****     lv_obj_t * label = lv_label_create(lmeter, NULL);
 311:lv_examples/src/lv_demo_widgets/lv_demo_widgets.c ****     lv_obj_align(label, lmeter, LV_ALIGN_CENTER, 0, 0);
 312:lv_examples/src/lv_demo_widgets/lv_demo_widgets.c ****     lv_obj_set_style_local_text_font(label, LV_LABEL_PART_MAIN, LV_STATE_DEFAULT, lv_theme_get_font
 313:lv_examples/src/lv_demo_widgets/lv_demo_widgets.c **** 
 314:lv_examples/src/lv_demo_widgets/lv_demo_widgets.c ****     lv_anim_t a;
 315:lv_examples/src/lv_demo_widgets/lv_demo_widgets.c ****     lv_anim_init(&a);
ARM GAS  D:\Temp\ccBnYEXJ.s 			page 7


 316:lv_examples/src/lv_demo_widgets/lv_demo_widgets.c ****     lv_anim_set_var(&a, lmeter);
 317:lv_examples/src/lv_demo_widgets/lv_demo_widgets.c ****     lv_anim_set_exec_cb(&a, (lv_anim_exec_xcb_t)linemeter_anim);
 318:lv_examples/src/lv_demo_widgets/lv_demo_widgets.c ****     lv_anim_set_values(&a, 0, 100);
 319:lv_examples/src/lv_demo_widgets/lv_demo_widgets.c ****     lv_anim_set_time(&a, 4000);
 320:lv_examples/src/lv_demo_widgets/lv_demo_widgets.c ****     lv_anim_set_playback_time(&a, 1000);
 321:lv_examples/src/lv_demo_widgets/lv_demo_widgets.c ****     lv_anim_set_repeat_count(&a, LV_ANIM_REPEAT_INFINITE);
 322:lv_examples/src/lv_demo_widgets/lv_demo_widgets.c ****     lv_anim_start(&a);
 323:lv_examples/src/lv_demo_widgets/lv_demo_widgets.c **** 
 324:lv_examples/src/lv_demo_widgets/lv_demo_widgets.c **** 
 325:lv_examples/src/lv_demo_widgets/lv_demo_widgets.c ****     lv_obj_t * gauge = lv_gauge_create(parent, NULL);
 326:lv_examples/src/lv_demo_widgets/lv_demo_widgets.c ****     lv_obj_set_drag_parent(gauge, true);
 327:lv_examples/src/lv_demo_widgets/lv_demo_widgets.c ****     lv_obj_set_size(gauge, meter_size, meter_size);
 328:lv_examples/src/lv_demo_widgets/lv_demo_widgets.c ****     lv_obj_add_style(gauge, LV_GAUGE_PART_MAIN, &style_box);
 329:lv_examples/src/lv_demo_widgets/lv_demo_widgets.c ****     lv_obj_set_style_local_value_str(gauge, LV_GAUGE_PART_MAIN, LV_STATE_DEFAULT, "Gauge");
 330:lv_examples/src/lv_demo_widgets/lv_demo_widgets.c **** 
 331:lv_examples/src/lv_demo_widgets/lv_demo_widgets.c ****     label = lv_label_create(gauge, label);
 332:lv_examples/src/lv_demo_widgets/lv_demo_widgets.c ****     lv_obj_align(label, gauge, LV_ALIGN_CENTER, 0, grid_w_meter / 3);
 333:lv_examples/src/lv_demo_widgets/lv_demo_widgets.c **** 
 334:lv_examples/src/lv_demo_widgets/lv_demo_widgets.c ****     lv_anim_set_var(&a, gauge);
 335:lv_examples/src/lv_demo_widgets/lv_demo_widgets.c ****     lv_anim_set_exec_cb(&a, (lv_anim_exec_xcb_t)gauge_anim);
 336:lv_examples/src/lv_demo_widgets/lv_demo_widgets.c ****     lv_anim_start(&a);
 337:lv_examples/src/lv_demo_widgets/lv_demo_widgets.c **** 
 338:lv_examples/src/lv_demo_widgets/lv_demo_widgets.c ****     lv_obj_t * arc = lv_arc_create(parent, NULL);
 339:lv_examples/src/lv_demo_widgets/lv_demo_widgets.c ****     lv_obj_set_drag_parent(arc, true);
 340:lv_examples/src/lv_demo_widgets/lv_demo_widgets.c ****     lv_arc_set_bg_angles(arc, 0, 360);
 341:lv_examples/src/lv_demo_widgets/lv_demo_widgets.c ****     lv_arc_set_rotation(arc, 270);
 342:lv_examples/src/lv_demo_widgets/lv_demo_widgets.c ****     lv_arc_set_angles(arc, 0, 0);
 343:lv_examples/src/lv_demo_widgets/lv_demo_widgets.c ****     lv_obj_set_size(arc,  meter_size, meter_size);
 344:lv_examples/src/lv_demo_widgets/lv_demo_widgets.c ****     lv_obj_add_style(arc, LV_ARC_PART_BG, &style_box);
 345:lv_examples/src/lv_demo_widgets/lv_demo_widgets.c ****     lv_obj_set_style_local_value_str(arc, LV_ARC_PART_BG, LV_STATE_DEFAULT, "Arc");
 346:lv_examples/src/lv_demo_widgets/lv_demo_widgets.c **** 
 347:lv_examples/src/lv_demo_widgets/lv_demo_widgets.c ****     label = lv_label_create(arc, label);
 348:lv_examples/src/lv_demo_widgets/lv_demo_widgets.c ****     lv_obj_align(label, arc, LV_ALIGN_CENTER, 0, 0);
 349:lv_examples/src/lv_demo_widgets/lv_demo_widgets.c **** 
 350:lv_examples/src/lv_demo_widgets/lv_demo_widgets.c ****     lv_anim_set_var(&a, arc);
 351:lv_examples/src/lv_demo_widgets/lv_demo_widgets.c ****     lv_anim_set_exec_cb(&a, (lv_anim_exec_xcb_t)arc_anim);
 352:lv_examples/src/lv_demo_widgets/lv_demo_widgets.c ****     lv_anim_set_values(&a, 0, 360);
 353:lv_examples/src/lv_demo_widgets/lv_demo_widgets.c ****     lv_anim_set_repeat_count(&a, LV_ANIM_REPEAT_INFINITE);
 354:lv_examples/src/lv_demo_widgets/lv_demo_widgets.c ****     lv_anim_start(&a);
 355:lv_examples/src/lv_demo_widgets/lv_demo_widgets.c **** 
 356:lv_examples/src/lv_demo_widgets/lv_demo_widgets.c ****     /*Create a bar and use the backgrounds value style property to display the current value*/
 357:lv_examples/src/lv_demo_widgets/lv_demo_widgets.c ****     lv_obj_t * bar_h = lv_cont_create(parent, NULL);
 358:lv_examples/src/lv_demo_widgets/lv_demo_widgets.c ****     lv_cont_set_fit2(bar_h, LV_FIT_NONE, LV_FIT_TIGHT);
 359:lv_examples/src/lv_demo_widgets/lv_demo_widgets.c ****     lv_obj_add_style(bar_h, LV_CONT_PART_MAIN, &style_box);
 360:lv_examples/src/lv_demo_widgets/lv_demo_widgets.c ****     lv_obj_set_style_local_value_str(bar_h, LV_CONT_PART_MAIN, LV_STATE_DEFAULT, "Bar");
 361:lv_examples/src/lv_demo_widgets/lv_demo_widgets.c **** 
 362:lv_examples/src/lv_demo_widgets/lv_demo_widgets.c ****     if(disp_size <= LV_DISP_SIZE_SMALL) lv_obj_set_width(bar_h, lv_page_get_width_grid(parent, 1, 1
 363:lv_examples/src/lv_demo_widgets/lv_demo_widgets.c ****     else if(disp_size <= LV_DISP_SIZE_MEDIUM) lv_obj_set_width(bar_h, lv_page_get_width_grid(parent
 364:lv_examples/src/lv_demo_widgets/lv_demo_widgets.c ****     else lv_obj_set_width(bar_h, lv_page_get_width_grid(parent, 3, 2));
 365:lv_examples/src/lv_demo_widgets/lv_demo_widgets.c **** 
 366:lv_examples/src/lv_demo_widgets/lv_demo_widgets.c ****     lv_obj_t * bar = lv_bar_create(bar_h, NULL);
 367:lv_examples/src/lv_demo_widgets/lv_demo_widgets.c ****     lv_obj_set_width(bar, lv_obj_get_width_fit(bar_h));
 368:lv_examples/src/lv_demo_widgets/lv_demo_widgets.c ****     lv_obj_set_style_local_value_font(bar, LV_BAR_PART_BG, LV_STATE_DEFAULT, lv_theme_get_font_smal
 369:lv_examples/src/lv_demo_widgets/lv_demo_widgets.c ****     lv_obj_set_style_local_value_align(bar, LV_BAR_PART_BG, LV_STATE_DEFAULT, LV_ALIGN_OUT_BOTTOM_M
 370:lv_examples/src/lv_demo_widgets/lv_demo_widgets.c ****     lv_obj_set_style_local_value_ofs_y(bar, LV_BAR_PART_BG, LV_STATE_DEFAULT, LV_DPI / 20);
 371:lv_examples/src/lv_demo_widgets/lv_demo_widgets.c ****     lv_obj_set_style_local_margin_bottom(bar, LV_BAR_PART_BG, LV_STATE_DEFAULT, LV_DPI / 7);
 372:lv_examples/src/lv_demo_widgets/lv_demo_widgets.c ****     lv_obj_align(bar, NULL, LV_ALIGN_CENTER, 0, 0);
ARM GAS  D:\Temp\ccBnYEXJ.s 			page 8


 373:lv_examples/src/lv_demo_widgets/lv_demo_widgets.c **** 
 374:lv_examples/src/lv_demo_widgets/lv_demo_widgets.c ****     lv_obj_t * led_h = lv_cont_create(parent, NULL);
 375:lv_examples/src/lv_demo_widgets/lv_demo_widgets.c ****     lv_cont_set_layout(led_h, LV_LAYOUT_PRETTY_MID);
 376:lv_examples/src/lv_demo_widgets/lv_demo_widgets.c ****     if(disp_size <= LV_DISP_SIZE_SMALL) lv_obj_set_width(led_h, lv_page_get_width_grid(parent, 1, 1
 377:lv_examples/src/lv_demo_widgets/lv_demo_widgets.c ****     else if(disp_size <= LV_DISP_SIZE_MEDIUM) lv_obj_set_width(led_h, lv_page_get_width_grid(parent
 378:lv_examples/src/lv_demo_widgets/lv_demo_widgets.c ****     else lv_obj_set_width(led_h, lv_page_get_width_grid(parent, 3, 1));
 379:lv_examples/src/lv_demo_widgets/lv_demo_widgets.c **** 
 380:lv_examples/src/lv_demo_widgets/lv_demo_widgets.c ****     lv_obj_set_height(led_h, lv_obj_get_height(bar_h));
 381:lv_examples/src/lv_demo_widgets/lv_demo_widgets.c ****     lv_obj_add_style(led_h, LV_CONT_PART_MAIN, &style_box);
 382:lv_examples/src/lv_demo_widgets/lv_demo_widgets.c ****     lv_obj_set_drag_parent(led_h, true);
 383:lv_examples/src/lv_demo_widgets/lv_demo_widgets.c ****     lv_obj_set_style_local_value_str(led_h, LV_CONT_PART_MAIN, LV_STATE_DEFAULT, "LEDs");
 384:lv_examples/src/lv_demo_widgets/lv_demo_widgets.c **** 
 385:lv_examples/src/lv_demo_widgets/lv_demo_widgets.c ****     lv_obj_t * led = lv_led_create(led_h, NULL);
 386:lv_examples/src/lv_demo_widgets/lv_demo_widgets.c ****     lv_coord_t led_size = lv_obj_get_height_fit(led_h);
 387:lv_examples/src/lv_demo_widgets/lv_demo_widgets.c ****     lv_obj_set_size(led, led_size, led_size);
 388:lv_examples/src/lv_demo_widgets/lv_demo_widgets.c ****     lv_led_off(led);
 389:lv_examples/src/lv_demo_widgets/lv_demo_widgets.c **** 
 390:lv_examples/src/lv_demo_widgets/lv_demo_widgets.c ****     led = lv_led_create(led_h, led);
 391:lv_examples/src/lv_demo_widgets/lv_demo_widgets.c ****     lv_led_set_bright(led, (LV_LED_BRIGHT_MAX - LV_LED_BRIGHT_MIN) / 2 + LV_LED_BRIGHT_MIN);
 392:lv_examples/src/lv_demo_widgets/lv_demo_widgets.c **** 
 393:lv_examples/src/lv_demo_widgets/lv_demo_widgets.c ****     led = lv_led_create(led_h, led);
 394:lv_examples/src/lv_demo_widgets/lv_demo_widgets.c ****     lv_led_on(led);
 395:lv_examples/src/lv_demo_widgets/lv_demo_widgets.c **** 
 396:lv_examples/src/lv_demo_widgets/lv_demo_widgets.c ****     if(disp_size == LV_DISP_SIZE_MEDIUM) {
 397:lv_examples/src/lv_demo_widgets/lv_demo_widgets.c ****         lv_obj_add_protect(led_h, LV_PROTECT_POS);
 398:lv_examples/src/lv_demo_widgets/lv_demo_widgets.c ****         lv_obj_align(led_h, bar_h, LV_ALIGN_OUT_BOTTOM_MID, 0, lv_obj_get_style_margin_top(led_h, L
 399:lv_examples/src/lv_demo_widgets/lv_demo_widgets.c ****     }
 400:lv_examples/src/lv_demo_widgets/lv_demo_widgets.c **** 
 401:lv_examples/src/lv_demo_widgets/lv_demo_widgets.c ****     lv_task_create(bar_anim, 100, LV_TASK_PRIO_LOW, bar);
 402:lv_examples/src/lv_demo_widgets/lv_demo_widgets.c **** }
 403:lv_examples/src/lv_demo_widgets/lv_demo_widgets.c **** 
 404:lv_examples/src/lv_demo_widgets/lv_demo_widgets.c **** 
 405:lv_examples/src/lv_demo_widgets/lv_demo_widgets.c **** static void selectors_create(lv_obj_t * parent)
 406:lv_examples/src/lv_demo_widgets/lv_demo_widgets.c **** {
 407:lv_examples/src/lv_demo_widgets/lv_demo_widgets.c ****     lv_page_set_scrl_layout(parent, LV_LAYOUT_PRETTY_MID);
 408:lv_examples/src/lv_demo_widgets/lv_demo_widgets.c **** 
 409:lv_examples/src/lv_demo_widgets/lv_demo_widgets.c ****     lv_disp_size_t disp_size = lv_disp_get_size_category(NULL);
 410:lv_examples/src/lv_demo_widgets/lv_demo_widgets.c ****     lv_coord_t grid_h = lv_page_get_height_grid(parent, 1, 1);
 411:lv_examples/src/lv_demo_widgets/lv_demo_widgets.c ****     lv_coord_t grid_w;
 412:lv_examples/src/lv_demo_widgets/lv_demo_widgets.c ****     if(disp_size <= LV_DISP_SIZE_SMALL) grid_w = lv_page_get_width_grid(parent, 1, 1);
 413:lv_examples/src/lv_demo_widgets/lv_demo_widgets.c ****     else grid_w = lv_page_get_width_grid(parent, 2, 1);
 414:lv_examples/src/lv_demo_widgets/lv_demo_widgets.c **** 
 415:lv_examples/src/lv_demo_widgets/lv_demo_widgets.c ****     lv_obj_t * cal = lv_calendar_create(parent, NULL);
 416:lv_examples/src/lv_demo_widgets/lv_demo_widgets.c ****     lv_obj_set_drag_parent(cal, true);
 417:lv_examples/src/lv_demo_widgets/lv_demo_widgets.c ****     if(disp_size > LV_DISP_SIZE_MEDIUM) {
 418:lv_examples/src/lv_demo_widgets/lv_demo_widgets.c ****         lv_obj_set_size(cal, LV_MATH_MIN(grid_h, grid_w), LV_MATH_MIN(grid_h, grid_w));
 419:lv_examples/src/lv_demo_widgets/lv_demo_widgets.c ****     } else {
 420:lv_examples/src/lv_demo_widgets/lv_demo_widgets.c ****         lv_obj_set_size(cal, grid_w, grid_w);
 421:lv_examples/src/lv_demo_widgets/lv_demo_widgets.c ****         if(disp_size <= LV_DISP_SIZE_SMALL) {
 422:lv_examples/src/lv_demo_widgets/lv_demo_widgets.c ****             lv_obj_set_style_local_text_font(cal, LV_CALENDAR_PART_BG, LV_STATE_DEFAULT, lv_theme_g
 423:lv_examples/src/lv_demo_widgets/lv_demo_widgets.c ****         }
 424:lv_examples/src/lv_demo_widgets/lv_demo_widgets.c ****     }
 425:lv_examples/src/lv_demo_widgets/lv_demo_widgets.c **** 
 426:lv_examples/src/lv_demo_widgets/lv_demo_widgets.c ****     static lv_calendar_date_t hl[] = {
 427:lv_examples/src/lv_demo_widgets/lv_demo_widgets.c ****             {.year = 2020, .month = 1, .day = 5},
 428:lv_examples/src/lv_demo_widgets/lv_demo_widgets.c ****             {.year = 2020, .month = 1, .day = 9},
 429:lv_examples/src/lv_demo_widgets/lv_demo_widgets.c ****     };
ARM GAS  D:\Temp\ccBnYEXJ.s 			page 9


 430:lv_examples/src/lv_demo_widgets/lv_demo_widgets.c **** 
 431:lv_examples/src/lv_demo_widgets/lv_demo_widgets.c **** 
 432:lv_examples/src/lv_demo_widgets/lv_demo_widgets.c ****     lv_obj_t * btn;
 433:lv_examples/src/lv_demo_widgets/lv_demo_widgets.c ****     lv_obj_t * h = lv_cont_create(parent, NULL);
 434:lv_examples/src/lv_demo_widgets/lv_demo_widgets.c ****     lv_obj_set_drag_parent(h, true);
 435:lv_examples/src/lv_demo_widgets/lv_demo_widgets.c ****     if(disp_size <= LV_DISP_SIZE_SMALL) {
 436:lv_examples/src/lv_demo_widgets/lv_demo_widgets.c ****         lv_cont_set_fit2(h, LV_FIT_NONE, LV_FIT_TIGHT);
 437:lv_examples/src/lv_demo_widgets/lv_demo_widgets.c ****         lv_obj_set_width(h, lv_page_get_width_fit(parent));
 438:lv_examples/src/lv_demo_widgets/lv_demo_widgets.c ****         lv_cont_set_layout(h, LV_LAYOUT_COLUMN_MID);
 439:lv_examples/src/lv_demo_widgets/lv_demo_widgets.c ****     } else if(disp_size <= LV_DISP_SIZE_MEDIUM) {
 440:lv_examples/src/lv_demo_widgets/lv_demo_widgets.c ****         lv_obj_set_size(h, lv_obj_get_width(cal), lv_obj_get_height(cal));
 441:lv_examples/src/lv_demo_widgets/lv_demo_widgets.c ****         lv_cont_set_layout(h, LV_LAYOUT_PRETTY_TOP);
 442:lv_examples/src/lv_demo_widgets/lv_demo_widgets.c ****     } else {
 443:lv_examples/src/lv_demo_widgets/lv_demo_widgets.c ****         lv_obj_set_click(h, false);
 444:lv_examples/src/lv_demo_widgets/lv_demo_widgets.c ****         lv_obj_set_style_local_bg_opa(h, LV_CONT_PART_MAIN, LV_STATE_DEFAULT, LV_OPA_TRANSP);
 445:lv_examples/src/lv_demo_widgets/lv_demo_widgets.c ****         lv_obj_set_style_local_border_opa(h, LV_CONT_PART_MAIN, LV_STATE_DEFAULT, LV_OPA_TRANSP);
 446:lv_examples/src/lv_demo_widgets/lv_demo_widgets.c ****         lv_obj_set_style_local_pad_left(h, LV_CONT_PART_MAIN, LV_STATE_DEFAULT, 0);
 447:lv_examples/src/lv_demo_widgets/lv_demo_widgets.c ****         lv_obj_set_style_local_pad_right(h, LV_CONT_PART_MAIN, LV_STATE_DEFAULT, 0);
 448:lv_examples/src/lv_demo_widgets/lv_demo_widgets.c ****         lv_obj_set_style_local_pad_top(h, LV_CONT_PART_MAIN, LV_STATE_DEFAULT, 0);
 449:lv_examples/src/lv_demo_widgets/lv_demo_widgets.c ****         lv_obj_set_size(h, LV_MATH_MIN(grid_h, grid_w), LV_MATH_MIN(grid_h, grid_w));
 450:lv_examples/src/lv_demo_widgets/lv_demo_widgets.c ****         lv_cont_set_layout(h, LV_LAYOUT_PRETTY_TOP);
 451:lv_examples/src/lv_demo_widgets/lv_demo_widgets.c ****     }
 452:lv_examples/src/lv_demo_widgets/lv_demo_widgets.c **** 
 453:lv_examples/src/lv_demo_widgets/lv_demo_widgets.c **** 
 454:lv_examples/src/lv_demo_widgets/lv_demo_widgets.c ****     lv_obj_t * roller = lv_roller_create(h, NULL);
 455:lv_examples/src/lv_demo_widgets/lv_demo_widgets.c ****     lv_obj_add_style(roller, LV_CONT_PART_MAIN, &style_box);
 456:lv_examples/src/lv_demo_widgets/lv_demo_widgets.c ****     lv_obj_set_style_local_value_str(roller, LV_CONT_PART_MAIN, LV_STATE_DEFAULT, "Roller");
 457:lv_examples/src/lv_demo_widgets/lv_demo_widgets.c ****     lv_roller_set_auto_fit(roller, false);
 458:lv_examples/src/lv_demo_widgets/lv_demo_widgets.c ****     lv_roller_set_align(roller, LV_LABEL_ALIGN_CENTER);
 459:lv_examples/src/lv_demo_widgets/lv_demo_widgets.c ****     lv_roller_set_visible_row_count(roller, 4);
 460:lv_examples/src/lv_demo_widgets/lv_demo_widgets.c ****     lv_obj_set_width(roller, lv_obj_get_width_grid(h, disp_size <= LV_DISP_SIZE_SMALL ? 1 : 2, 1));
 461:lv_examples/src/lv_demo_widgets/lv_demo_widgets.c **** 
 462:lv_examples/src/lv_demo_widgets/lv_demo_widgets.c ****     lv_obj_t * dd = lv_dropdown_create(h, NULL);
 463:lv_examples/src/lv_demo_widgets/lv_demo_widgets.c ****     lv_obj_add_style(dd, LV_CONT_PART_MAIN, &style_box);
 464:lv_examples/src/lv_demo_widgets/lv_demo_widgets.c ****     lv_obj_set_style_local_value_str(dd, LV_CONT_PART_MAIN, LV_STATE_DEFAULT, "Dropdown");
 465:lv_examples/src/lv_demo_widgets/lv_demo_widgets.c ****     lv_obj_set_width(dd, lv_obj_get_width_grid(h, disp_size <= LV_DISP_SIZE_SMALL ? 1 : 2, 1));
 466:lv_examples/src/lv_demo_widgets/lv_demo_widgets.c ****     lv_dropdown_set_options(dd, "Alpha\nBravo\nCharlie\nDelta\nEcho\nFoxtrot\nGolf\nHotel\nIndia\nJ
 467:lv_examples/src/lv_demo_widgets/lv_demo_widgets.c ****             "Oscar\nPapa\nQuebec\nRomeo\nSierra\nTango\nUniform\nVictor\nWhiskey\nXray\nYankee\nZul
 468:lv_examples/src/lv_demo_widgets/lv_demo_widgets.c **** 
 469:lv_examples/src/lv_demo_widgets/lv_demo_widgets.c ****     lv_obj_t * list = lv_list_create(parent, NULL);
 470:lv_examples/src/lv_demo_widgets/lv_demo_widgets.c ****     lv_list_set_scroll_propagation(list, true);
 471:lv_examples/src/lv_demo_widgets/lv_demo_widgets.c ****     lv_obj_set_size(list, grid_w, grid_h);
 472:lv_examples/src/lv_demo_widgets/lv_demo_widgets.c **** 
 473:lv_examples/src/lv_demo_widgets/lv_demo_widgets.c ****     const char * txts[] = {LV_SYMBOL_SAVE, "Save", LV_SYMBOL_CUT, "Cut", LV_SYMBOL_COPY, "Copy",
 474:lv_examples/src/lv_demo_widgets/lv_demo_widgets.c ****             LV_SYMBOL_OK, "This is a quite long text to scroll on the list", LV_SYMBOL_EDIT, "Edit"
 475:lv_examples/src/lv_demo_widgets/lv_demo_widgets.c ****             LV_SYMBOL_BLUETOOTH, "Bluetooth",  LV_SYMBOL_GPS, "GPS", LV_SYMBOL_USB, "USB",
 476:lv_examples/src/lv_demo_widgets/lv_demo_widgets.c ****             LV_SYMBOL_SD_CARD, "SD card", LV_SYMBOL_CLOSE, "Close", NULL};
 477:lv_examples/src/lv_demo_widgets/lv_demo_widgets.c **** 
 478:lv_examples/src/lv_demo_widgets/lv_demo_widgets.c ****     uint32_t i;
 479:lv_examples/src/lv_demo_widgets/lv_demo_widgets.c ****     for(i = 0; txts[i] != NULL; i += 2) {
 480:lv_examples/src/lv_demo_widgets/lv_demo_widgets.c ****         btn = lv_list_add_btn(list, txts[i], txts[i + 1]);
 481:lv_examples/src/lv_demo_widgets/lv_demo_widgets.c ****         lv_btn_set_checkable(btn, true);
 482:lv_examples/src/lv_demo_widgets/lv_demo_widgets.c **** 
 483:lv_examples/src/lv_demo_widgets/lv_demo_widgets.c ****         /*Make a button disabled*/
 484:lv_examples/src/lv_demo_widgets/lv_demo_widgets.c ****         if(i == 4) {
 485:lv_examples/src/lv_demo_widgets/lv_demo_widgets.c ****             lv_btn_set_state(btn, LV_BTN_STATE_DISABLED);
 486:lv_examples/src/lv_demo_widgets/lv_demo_widgets.c ****         }
ARM GAS  D:\Temp\ccBnYEXJ.s 			page 10


 487:lv_examples/src/lv_demo_widgets/lv_demo_widgets.c ****     }
 488:lv_examples/src/lv_demo_widgets/lv_demo_widgets.c **** 
 489:lv_examples/src/lv_demo_widgets/lv_demo_widgets.c ****     lv_calendar_set_highlighted_dates(cal, hl, 2);
 490:lv_examples/src/lv_demo_widgets/lv_demo_widgets.c **** 
 491:lv_examples/src/lv_demo_widgets/lv_demo_widgets.c **** 
 492:lv_examples/src/lv_demo_widgets/lv_demo_widgets.c ****     static lv_style_t style_cell4;
 493:lv_examples/src/lv_demo_widgets/lv_demo_widgets.c ****     lv_style_init(&style_cell4);
 494:lv_examples/src/lv_demo_widgets/lv_demo_widgets.c ****     lv_style_set_bg_opa(&style_cell4, LV_STATE_DEFAULT, LV_OPA_50);
 495:lv_examples/src/lv_demo_widgets/lv_demo_widgets.c ****     lv_style_set_bg_color(&style_cell4, LV_STATE_DEFAULT, LV_COLOR_GRAY);
 496:lv_examples/src/lv_demo_widgets/lv_demo_widgets.c **** 
 497:lv_examples/src/lv_demo_widgets/lv_demo_widgets.c ****     lv_obj_t * page = lv_page_create(parent ,NULL);
 498:lv_examples/src/lv_demo_widgets/lv_demo_widgets.c ****     lv_obj_set_size(page, grid_w, grid_h);
 499:lv_examples/src/lv_demo_widgets/lv_demo_widgets.c ****     lv_coord_t table_w_max = lv_page_get_width_fit(page);
 500:lv_examples/src/lv_demo_widgets/lv_demo_widgets.c ****     lv_page_set_scroll_propagation(page, true);
 501:lv_examples/src/lv_demo_widgets/lv_demo_widgets.c **** 
 502:lv_examples/src/lv_demo_widgets/lv_demo_widgets.c ****     lv_obj_t * table1 = lv_table_create(page, NULL);
 503:lv_examples/src/lv_demo_widgets/lv_demo_widgets.c ****     lv_obj_add_style(table1, LV_TABLE_PART_CELL4, &style_cell4);
 504:lv_examples/src/lv_demo_widgets/lv_demo_widgets.c ****     /*Clean the background style of the table because it is placed on a page*/
 505:lv_examples/src/lv_demo_widgets/lv_demo_widgets.c ****     lv_obj_clean_style_list(table1, LV_TABLE_PART_BG);
 506:lv_examples/src/lv_demo_widgets/lv_demo_widgets.c ****     lv_obj_set_drag_parent(table1, true);
 507:lv_examples/src/lv_demo_widgets/lv_demo_widgets.c ****     lv_obj_set_event_cb(table1, table_event_cb);
 508:lv_examples/src/lv_demo_widgets/lv_demo_widgets.c ****     lv_table_set_col_cnt(table1, disp_size > LV_DISP_SIZE_SMALL ? 3 : 2);
 509:lv_examples/src/lv_demo_widgets/lv_demo_widgets.c ****     if(disp_size > LV_DISP_SIZE_SMALL) {
 510:lv_examples/src/lv_demo_widgets/lv_demo_widgets.c ****         lv_table_set_col_width(table1, 0, LV_MATH_MAX(30, 1 * table_w_max  / 5));
 511:lv_examples/src/lv_demo_widgets/lv_demo_widgets.c ****         lv_table_set_col_width(table1, 1, LV_MATH_MAX(60, 2 * table_w_max / 5));
 512:lv_examples/src/lv_demo_widgets/lv_demo_widgets.c ****         lv_table_set_col_width(table1, 2, LV_MATH_MAX(60, 2 * table_w_max / 5));
 513:lv_examples/src/lv_demo_widgets/lv_demo_widgets.c ****     } else {
 514:lv_examples/src/lv_demo_widgets/lv_demo_widgets.c ****         lv_table_set_col_width(table1, 0, LV_MATH_MAX(30, 1 * table_w_max  / 4 - 1));
 515:lv_examples/src/lv_demo_widgets/lv_demo_widgets.c ****         lv_table_set_col_width(table1, 1, LV_MATH_MAX(60, 3 * table_w_max / 4 - 1));
 516:lv_examples/src/lv_demo_widgets/lv_demo_widgets.c ****     }
 517:lv_examples/src/lv_demo_widgets/lv_demo_widgets.c **** 
 518:lv_examples/src/lv_demo_widgets/lv_demo_widgets.c ****     lv_table_set_cell_value(table1, 0, 0, "#");
 519:lv_examples/src/lv_demo_widgets/lv_demo_widgets.c ****     lv_table_set_cell_value(table1, 1, 0, "1");
 520:lv_examples/src/lv_demo_widgets/lv_demo_widgets.c ****     lv_table_set_cell_value(table1, 2, 0, "2");
 521:lv_examples/src/lv_demo_widgets/lv_demo_widgets.c ****     lv_table_set_cell_value(table1, 3, 0, "3");
 522:lv_examples/src/lv_demo_widgets/lv_demo_widgets.c ****     lv_table_set_cell_value(table1, 4, 0, "4");
 523:lv_examples/src/lv_demo_widgets/lv_demo_widgets.c ****     lv_table_set_cell_value(table1, 5, 0, "5");
 524:lv_examples/src/lv_demo_widgets/lv_demo_widgets.c ****     lv_table_set_cell_value(table1, 6, 0, "6");
 525:lv_examples/src/lv_demo_widgets/lv_demo_widgets.c **** 
 526:lv_examples/src/lv_demo_widgets/lv_demo_widgets.c ****     lv_table_set_cell_value(table1, 0, 1, "NAME");
 527:lv_examples/src/lv_demo_widgets/lv_demo_widgets.c ****     lv_table_set_cell_value(table1, 1, 1, "Mark");
 528:lv_examples/src/lv_demo_widgets/lv_demo_widgets.c ****     lv_table_set_cell_value(table1, 2, 1, "Jacob");
 529:lv_examples/src/lv_demo_widgets/lv_demo_widgets.c ****     lv_table_set_cell_value(table1, 3, 1, "John");
 530:lv_examples/src/lv_demo_widgets/lv_demo_widgets.c ****     lv_table_set_cell_value(table1, 4, 1, "Emily");
 531:lv_examples/src/lv_demo_widgets/lv_demo_widgets.c ****     lv_table_set_cell_value(table1, 5, 1, "Ivan");
 532:lv_examples/src/lv_demo_widgets/lv_demo_widgets.c ****     lv_table_set_cell_value(table1, 6, 1, "George");
 533:lv_examples/src/lv_demo_widgets/lv_demo_widgets.c **** 
 534:lv_examples/src/lv_demo_widgets/lv_demo_widgets.c ****     if(disp_size > LV_DISP_SIZE_SMALL) {
 535:lv_examples/src/lv_demo_widgets/lv_demo_widgets.c ****         lv_table_set_cell_value(table1, 0, 2, "CITY");
 536:lv_examples/src/lv_demo_widgets/lv_demo_widgets.c ****         lv_table_set_cell_value(table1, 1, 2, "Moscow");
 537:lv_examples/src/lv_demo_widgets/lv_demo_widgets.c ****         lv_table_set_cell_value(table1, 2, 2, "New York");
 538:lv_examples/src/lv_demo_widgets/lv_demo_widgets.c ****         lv_table_set_cell_value(table1, 3, 2, "Oslo");
 539:lv_examples/src/lv_demo_widgets/lv_demo_widgets.c ****         lv_table_set_cell_value(table1, 4, 2, "London");
 540:lv_examples/src/lv_demo_widgets/lv_demo_widgets.c ****         lv_table_set_cell_value(table1, 5, 2, "Texas");
 541:lv_examples/src/lv_demo_widgets/lv_demo_widgets.c ****         lv_table_set_cell_value(table1, 6, 2, "Athen");
 542:lv_examples/src/lv_demo_widgets/lv_demo_widgets.c ****     }
 543:lv_examples/src/lv_demo_widgets/lv_demo_widgets.c **** }
ARM GAS  D:\Temp\ccBnYEXJ.s 			page 11


 544:lv_examples/src/lv_demo_widgets/lv_demo_widgets.c **** 
 545:lv_examples/src/lv_demo_widgets/lv_demo_widgets.c **** static void slider_event_cb(lv_obj_t * slider, lv_event_t e)
 546:lv_examples/src/lv_demo_widgets/lv_demo_widgets.c **** {
 547:lv_examples/src/lv_demo_widgets/lv_demo_widgets.c ****     if(e == LV_EVENT_VALUE_CHANGED) {
 548:lv_examples/src/lv_demo_widgets/lv_demo_widgets.c ****         if(lv_slider_get_type(slider) == LV_SLIDER_TYPE_NORMAL) {
 549:lv_examples/src/lv_demo_widgets/lv_demo_widgets.c ****             static char buf[16];
 550:lv_examples/src/lv_demo_widgets/lv_demo_widgets.c ****             lv_snprintf(buf, sizeof(buf), "%d", lv_slider_get_value(slider));
 551:lv_examples/src/lv_demo_widgets/lv_demo_widgets.c ****             lv_obj_set_style_local_value_str(slider, LV_SLIDER_PART_KNOB, LV_STATE_DEFAULT, buf);
 552:lv_examples/src/lv_demo_widgets/lv_demo_widgets.c ****         } else {
 553:lv_examples/src/lv_demo_widgets/lv_demo_widgets.c ****             static char buf[32];
 554:lv_examples/src/lv_demo_widgets/lv_demo_widgets.c ****             lv_snprintf(buf, sizeof(buf), "%d-%d", lv_slider_get_left_value(slider), lv_slider_get_
 555:lv_examples/src/lv_demo_widgets/lv_demo_widgets.c ****             lv_obj_set_style_local_value_str(slider, LV_SLIDER_PART_INDIC, LV_STATE_DEFAULT, buf);
 556:lv_examples/src/lv_demo_widgets/lv_demo_widgets.c ****         }
 557:lv_examples/src/lv_demo_widgets/lv_demo_widgets.c **** 
 558:lv_examples/src/lv_demo_widgets/lv_demo_widgets.c ****     }
 559:lv_examples/src/lv_demo_widgets/lv_demo_widgets.c **** 
 560:lv_examples/src/lv_demo_widgets/lv_demo_widgets.c **** }
 561:lv_examples/src/lv_demo_widgets/lv_demo_widgets.c **** 
 562:lv_examples/src/lv_demo_widgets/lv_demo_widgets.c **** static void ta_event_cb(lv_obj_t * ta, lv_event_t e)
 563:lv_examples/src/lv_demo_widgets/lv_demo_widgets.c **** {
 564:lv_examples/src/lv_demo_widgets/lv_demo_widgets.c ****     if(e == LV_EVENT_RELEASED) {
 565:lv_examples/src/lv_demo_widgets/lv_demo_widgets.c ****         if(kb == NULL) {
 566:lv_examples/src/lv_demo_widgets/lv_demo_widgets.c ****             lv_obj_set_height(tv, LV_VER_RES / 2);
 567:lv_examples/src/lv_demo_widgets/lv_demo_widgets.c ****             kb = lv_keyboard_create(lv_scr_act(), NULL);
 568:lv_examples/src/lv_demo_widgets/lv_demo_widgets.c ****             lv_obj_set_event_cb(kb, kb_event_cb);
 569:lv_examples/src/lv_demo_widgets/lv_demo_widgets.c **** 
 570:lv_examples/src/lv_demo_widgets/lv_demo_widgets.c ****             lv_indev_wait_release(lv_indev_get_act());
 571:lv_examples/src/lv_demo_widgets/lv_demo_widgets.c ****         }
 572:lv_examples/src/lv_demo_widgets/lv_demo_widgets.c ****         lv_textarea_set_cursor_hidden(ta, false);
 573:lv_examples/src/lv_demo_widgets/lv_demo_widgets.c ****         lv_page_focus(t1, lv_textarea_get_label(ta), LV_ANIM_ON);
 574:lv_examples/src/lv_demo_widgets/lv_demo_widgets.c ****         lv_keyboard_set_textarea(kb, ta);
 575:lv_examples/src/lv_demo_widgets/lv_demo_widgets.c ****     } else if(e == LV_EVENT_DEFOCUSED) {
 576:lv_examples/src/lv_demo_widgets/lv_demo_widgets.c ****         lv_textarea_set_cursor_hidden(ta, true);
 577:lv_examples/src/lv_demo_widgets/lv_demo_widgets.c ****     }
 578:lv_examples/src/lv_demo_widgets/lv_demo_widgets.c **** }
 579:lv_examples/src/lv_demo_widgets/lv_demo_widgets.c **** 
 580:lv_examples/src/lv_demo_widgets/lv_demo_widgets.c **** 
 581:lv_examples/src/lv_demo_widgets/lv_demo_widgets.c **** static void kb_event_cb(lv_obj_t * _kb, lv_event_t e)
 582:lv_examples/src/lv_demo_widgets/lv_demo_widgets.c **** {
 583:lv_examples/src/lv_demo_widgets/lv_demo_widgets.c ****     lv_keyboard_def_event_cb(kb, e);
 584:lv_examples/src/lv_demo_widgets/lv_demo_widgets.c **** 
 585:lv_examples/src/lv_demo_widgets/lv_demo_widgets.c ****     if(e == LV_EVENT_CANCEL) {
 586:lv_examples/src/lv_demo_widgets/lv_demo_widgets.c ****         if(kb) {
 587:lv_examples/src/lv_demo_widgets/lv_demo_widgets.c ****             lv_obj_set_height(tv, LV_VER_RES);
 588:lv_examples/src/lv_demo_widgets/lv_demo_widgets.c ****             lv_obj_del(kb);
 589:lv_examples/src/lv_demo_widgets/lv_demo_widgets.c ****             kb = NULL;
 590:lv_examples/src/lv_demo_widgets/lv_demo_widgets.c ****         }
 591:lv_examples/src/lv_demo_widgets/lv_demo_widgets.c ****     }
 592:lv_examples/src/lv_demo_widgets/lv_demo_widgets.c **** }
 593:lv_examples/src/lv_demo_widgets/lv_demo_widgets.c **** 
 594:lv_examples/src/lv_demo_widgets/lv_demo_widgets.c **** 
 595:lv_examples/src/lv_demo_widgets/lv_demo_widgets.c **** static void bar_anim(lv_task_t * t)
 596:lv_examples/src/lv_demo_widgets/lv_demo_widgets.c **** {
 597:lv_examples/src/lv_demo_widgets/lv_demo_widgets.c ****     static uint32_t x = 0;
 598:lv_examples/src/lv_demo_widgets/lv_demo_widgets.c ****     lv_obj_t * bar = t->user_data;
 599:lv_examples/src/lv_demo_widgets/lv_demo_widgets.c **** 
 600:lv_examples/src/lv_demo_widgets/lv_demo_widgets.c ****     static char buf[64];
ARM GAS  D:\Temp\ccBnYEXJ.s 			page 12


 601:lv_examples/src/lv_demo_widgets/lv_demo_widgets.c ****     lv_snprintf(buf, sizeof(buf), "Copying %d/%d", x, lv_bar_get_max_value(bar));
 602:lv_examples/src/lv_demo_widgets/lv_demo_widgets.c ****     lv_obj_set_style_local_value_str(bar, LV_BAR_PART_BG, LV_STATE_DEFAULT, buf);
 603:lv_examples/src/lv_demo_widgets/lv_demo_widgets.c **** 
 604:lv_examples/src/lv_demo_widgets/lv_demo_widgets.c ****     lv_bar_set_value(bar, x, LV_ANIM_OFF);
 605:lv_examples/src/lv_demo_widgets/lv_demo_widgets.c ****     x++;
 606:lv_examples/src/lv_demo_widgets/lv_demo_widgets.c ****     if(x > lv_bar_get_max_value(bar)) x = 0;
 607:lv_examples/src/lv_demo_widgets/lv_demo_widgets.c **** }
 608:lv_examples/src/lv_demo_widgets/lv_demo_widgets.c **** 
 609:lv_examples/src/lv_demo_widgets/lv_demo_widgets.c **** static void arc_anim(lv_obj_t * arc, lv_anim_value_t value)
 610:lv_examples/src/lv_demo_widgets/lv_demo_widgets.c **** {
 611:lv_examples/src/lv_demo_widgets/lv_demo_widgets.c ****     lv_arc_set_end_angle(arc, value);
 612:lv_examples/src/lv_demo_widgets/lv_demo_widgets.c **** 
 613:lv_examples/src/lv_demo_widgets/lv_demo_widgets.c ****     static char buf[64];
 614:lv_examples/src/lv_demo_widgets/lv_demo_widgets.c ****     lv_snprintf(buf, sizeof(buf), "%d", value);
 615:lv_examples/src/lv_demo_widgets/lv_demo_widgets.c ****     lv_obj_t * label = lv_obj_get_child(arc, NULL);
 616:lv_examples/src/lv_demo_widgets/lv_demo_widgets.c ****     lv_label_set_text(label, buf);
 617:lv_examples/src/lv_demo_widgets/lv_demo_widgets.c ****     lv_obj_align(label, arc, LV_ALIGN_CENTER, 0, 0);
 618:lv_examples/src/lv_demo_widgets/lv_demo_widgets.c **** 
 619:lv_examples/src/lv_demo_widgets/lv_demo_widgets.c **** }
 620:lv_examples/src/lv_demo_widgets/lv_demo_widgets.c **** 
 621:lv_examples/src/lv_demo_widgets/lv_demo_widgets.c **** static void linemeter_anim(lv_obj_t * linemeter, lv_anim_value_t value)
 622:lv_examples/src/lv_demo_widgets/lv_demo_widgets.c **** {
 623:lv_examples/src/lv_demo_widgets/lv_demo_widgets.c ****     lv_linemeter_set_value(linemeter, value);
 624:lv_examples/src/lv_demo_widgets/lv_demo_widgets.c **** 
 625:lv_examples/src/lv_demo_widgets/lv_demo_widgets.c ****     static char buf[64];
 626:lv_examples/src/lv_demo_widgets/lv_demo_widgets.c ****     lv_snprintf(buf, sizeof(buf), "%d", value);
 627:lv_examples/src/lv_demo_widgets/lv_demo_widgets.c ****     lv_obj_t * label = lv_obj_get_child(linemeter, NULL);
 628:lv_examples/src/lv_demo_widgets/lv_demo_widgets.c ****     lv_label_set_text(label, buf);
 629:lv_examples/src/lv_demo_widgets/lv_demo_widgets.c ****     lv_obj_align(label, linemeter, LV_ALIGN_CENTER, 0, 0);
 630:lv_examples/src/lv_demo_widgets/lv_demo_widgets.c **** }
 631:lv_examples/src/lv_demo_widgets/lv_demo_widgets.c **** 
 632:lv_examples/src/lv_demo_widgets/lv_demo_widgets.c **** static void gauge_anim(lv_obj_t * gauge, lv_anim_value_t value)
 633:lv_examples/src/lv_demo_widgets/lv_demo_widgets.c **** {
 634:lv_examples/src/lv_demo_widgets/lv_demo_widgets.c ****     lv_gauge_set_value(gauge, 0, value);
 635:lv_examples/src/lv_demo_widgets/lv_demo_widgets.c **** 
 636:lv_examples/src/lv_demo_widgets/lv_demo_widgets.c ****     static char buf[64];
 637:lv_examples/src/lv_demo_widgets/lv_demo_widgets.c ****     lv_snprintf(buf, sizeof(buf), "%d", value);
 638:lv_examples/src/lv_demo_widgets/lv_demo_widgets.c ****     lv_obj_t * label = lv_obj_get_child(gauge, NULL);
 639:lv_examples/src/lv_demo_widgets/lv_demo_widgets.c ****     lv_label_set_text(label, buf);
 640:lv_examples/src/lv_demo_widgets/lv_demo_widgets.c ****     lv_obj_align(label, gauge, LV_ALIGN_IN_TOP_MID, 0, lv_obj_get_y(label));
 641:lv_examples/src/lv_demo_widgets/lv_demo_widgets.c **** }
 642:lv_examples/src/lv_demo_widgets/lv_demo_widgets.c **** 
 643:lv_examples/src/lv_demo_widgets/lv_demo_widgets.c **** static void table_event_cb(lv_obj_t * table, lv_event_t e)
 644:lv_examples/src/lv_demo_widgets/lv_demo_widgets.c **** {
 645:lv_examples/src/lv_demo_widgets/lv_demo_widgets.c ****     if(e == LV_EVENT_CLICKED) {
 646:lv_examples/src/lv_demo_widgets/lv_demo_widgets.c ****         uint16_t row;
 647:lv_examples/src/lv_demo_widgets/lv_demo_widgets.c ****         uint16_t col;
 648:lv_examples/src/lv_demo_widgets/lv_demo_widgets.c ****         lv_res_t r = lv_table_get_pressed_cell(table, &row, &col);
 649:lv_examples/src/lv_demo_widgets/lv_demo_widgets.c ****         if(r == LV_RES_OK && col && row) {  /*Skip the first row and col*/
 650:lv_examples/src/lv_demo_widgets/lv_demo_widgets.c ****             if(lv_table_get_cell_type(table, row, col) == 1) {
 651:lv_examples/src/lv_demo_widgets/lv_demo_widgets.c ****                 lv_table_set_cell_type(table, row, col, 4);
 652:lv_examples/src/lv_demo_widgets/lv_demo_widgets.c ****             } else {
 653:lv_examples/src/lv_demo_widgets/lv_demo_widgets.c ****                 lv_table_set_cell_type(table, row, col, 1);
 654:lv_examples/src/lv_demo_widgets/lv_demo_widgets.c ****             }
 655:lv_examples/src/lv_demo_widgets/lv_demo_widgets.c ****         }
 656:lv_examples/src/lv_demo_widgets/lv_demo_widgets.c ****     }
 657:lv_examples/src/lv_demo_widgets/lv_demo_widgets.c **** }
ARM GAS  D:\Temp\ccBnYEXJ.s 			page 13


 658:lv_examples/src/lv_demo_widgets/lv_demo_widgets.c **** 
 659:lv_examples/src/lv_demo_widgets/lv_demo_widgets.c **** #if LV_USE_THEME_MATERIAL
 660:lv_examples/src/lv_demo_widgets/lv_demo_widgets.c **** static void color_chg_event_cb(lv_obj_t * sw, lv_event_t e)
 661:lv_examples/src/lv_demo_widgets/lv_demo_widgets.c **** {
  29              		.loc 1 661 1 view -0
  30              		.cfi_startproc
  31              		@ args = 0, pretend = 0, frame = 0
  32              		@ frame_needed = 0, uses_anonymous_args = 0
 662:lv_examples/src/lv_demo_widgets/lv_demo_widgets.c ****     if(LV_THEME_DEFAULT_INIT != lv_theme_material_init) return;
  33              		.loc 1 662 5 view .LVU1
 663:lv_examples/src/lv_demo_widgets/lv_demo_widgets.c ****     if(e == LV_EVENT_VALUE_CHANGED) {
  34              		.loc 1 663 5 view .LVU2
  35              		.loc 1 663 7 is_stmt 0 view .LVU3
  36 0000 1029     		cmp	r1, #16
  37 0002 00D0     		beq	.L9
  38 0004 7047     		bx	lr
  39              	.L9:
 661:lv_examples/src/lv_demo_widgets/lv_demo_widgets.c ****     if(LV_THEME_DEFAULT_INIT != lv_theme_material_init) return;
  40              		.loc 1 661 1 view .LVU4
  41 0006 2DE9F043 		push	{r4, r5, r6, r7, r8, r9, lr}
  42              	.LCFI0:
  43              		.cfi_def_cfa_offset 28
  44              		.cfi_offset 4, -28
  45              		.cfi_offset 5, -24
  46              		.cfi_offset 6, -20
  47              		.cfi_offset 7, -16
  48              		.cfi_offset 8, -12
  49              		.cfi_offset 9, -8
  50              		.cfi_offset 14, -4
  51 000a 85B0     		sub	sp, sp, #20
  52              	.LCFI1:
  53              		.cfi_def_cfa_offset 48
  54              	.LBB201:
 664:lv_examples/src/lv_demo_widgets/lv_demo_widgets.c ****         uint32_t flag = LV_THEME_MATERIAL_FLAG_LIGHT;
  55              		.loc 1 664 9 is_stmt 1 view .LVU5
  56              	.LVL1:
 665:lv_examples/src/lv_demo_widgets/lv_demo_widgets.c ****         if(lv_switch_get_state(sw)) flag = LV_THEME_MATERIAL_FLAG_DARK;
  57              		.loc 1 665 9 view .LVU6
  58              	.LBB202:
  59              	.LBI202:
  60              		.file 2 "d:\\_project\\stm32\\f407\\hack_rf_new\\lvgl\\src/lv_widgets/lv_switch.h"
   1:d:\_project\stm32\f407\hack_rf_new\lvgl\src/lv_widgets\lv_switch.h **** /**
   2:d:\_project\stm32\f407\hack_rf_new\lvgl\src/lv_widgets\lv_switch.h ****  * @file lv_sw.h
   3:d:\_project\stm32\f407\hack_rf_new\lvgl\src/lv_widgets\lv_switch.h ****  *
   4:d:\_project\stm32\f407\hack_rf_new\lvgl\src/lv_widgets\lv_switch.h ****  */
   5:d:\_project\stm32\f407\hack_rf_new\lvgl\src/lv_widgets\lv_switch.h **** 
   6:d:\_project\stm32\f407\hack_rf_new\lvgl\src/lv_widgets\lv_switch.h **** #ifndef LV_SWITCH_H
   7:d:\_project\stm32\f407\hack_rf_new\lvgl\src/lv_widgets\lv_switch.h **** #define LV_SWITCH_H
   8:d:\_project\stm32\f407\hack_rf_new\lvgl\src/lv_widgets\lv_switch.h **** 
   9:d:\_project\stm32\f407\hack_rf_new\lvgl\src/lv_widgets\lv_switch.h **** #ifdef __cplusplus
  10:d:\_project\stm32\f407\hack_rf_new\lvgl\src/lv_widgets\lv_switch.h **** extern "C" {
  11:d:\_project\stm32\f407\hack_rf_new\lvgl\src/lv_widgets\lv_switch.h **** #endif
  12:d:\_project\stm32\f407\hack_rf_new\lvgl\src/lv_widgets\lv_switch.h **** 
  13:d:\_project\stm32\f407\hack_rf_new\lvgl\src/lv_widgets\lv_switch.h **** /*********************
  14:d:\_project\stm32\f407\hack_rf_new\lvgl\src/lv_widgets\lv_switch.h ****  *      INCLUDES
  15:d:\_project\stm32\f407\hack_rf_new\lvgl\src/lv_widgets\lv_switch.h ****  *********************/
  16:d:\_project\stm32\f407\hack_rf_new\lvgl\src/lv_widgets\lv_switch.h **** #include "../lv_conf_internal.h"
ARM GAS  D:\Temp\ccBnYEXJ.s 			page 14


  17:d:\_project\stm32\f407\hack_rf_new\lvgl\src/lv_widgets\lv_switch.h **** 
  18:d:\_project\stm32\f407\hack_rf_new\lvgl\src/lv_widgets\lv_switch.h **** #if LV_USE_SWITCH != 0
  19:d:\_project\stm32\f407\hack_rf_new\lvgl\src/lv_widgets\lv_switch.h **** 
  20:d:\_project\stm32\f407\hack_rf_new\lvgl\src/lv_widgets\lv_switch.h **** /*Testing of dependencies*/
  21:d:\_project\stm32\f407\hack_rf_new\lvgl\src/lv_widgets\lv_switch.h **** #if LV_USE_SLIDER == 0
  22:d:\_project\stm32\f407\hack_rf_new\lvgl\src/lv_widgets\lv_switch.h **** #error "lv_sw: lv_slider is required. Enable it in lv_conf.h (LV_USE_SLIDER 1)"
  23:d:\_project\stm32\f407\hack_rf_new\lvgl\src/lv_widgets\lv_switch.h **** #endif
  24:d:\_project\stm32\f407\hack_rf_new\lvgl\src/lv_widgets\lv_switch.h **** 
  25:d:\_project\stm32\f407\hack_rf_new\lvgl\src/lv_widgets\lv_switch.h **** #include "../lv_core/lv_obj.h"
  26:d:\_project\stm32\f407\hack_rf_new\lvgl\src/lv_widgets\lv_switch.h **** #include "lv_bar.h"
  27:d:\_project\stm32\f407\hack_rf_new\lvgl\src/lv_widgets\lv_switch.h **** 
  28:d:\_project\stm32\f407\hack_rf_new\lvgl\src/lv_widgets\lv_switch.h **** /*********************
  29:d:\_project\stm32\f407\hack_rf_new\lvgl\src/lv_widgets\lv_switch.h ****  *      DEFINES
  30:d:\_project\stm32\f407\hack_rf_new\lvgl\src/lv_widgets\lv_switch.h ****  *********************/
  31:d:\_project\stm32\f407\hack_rf_new\lvgl\src/lv_widgets\lv_switch.h **** 
  32:d:\_project\stm32\f407\hack_rf_new\lvgl\src/lv_widgets\lv_switch.h **** /**********************
  33:d:\_project\stm32\f407\hack_rf_new\lvgl\src/lv_widgets\lv_switch.h ****  *      TYPEDEFS
  34:d:\_project\stm32\f407\hack_rf_new\lvgl\src/lv_widgets\lv_switch.h ****  **********************/
  35:d:\_project\stm32\f407\hack_rf_new\lvgl\src/lv_widgets\lv_switch.h **** /*Data of switch*/
  36:d:\_project\stm32\f407\hack_rf_new\lvgl\src/lv_widgets\lv_switch.h **** typedef struct {
  37:d:\_project\stm32\f407\hack_rf_new\lvgl\src/lv_widgets\lv_switch.h ****     lv_bar_ext_t bar; /*Ext. of ancestor*/
  38:d:\_project\stm32\f407\hack_rf_new\lvgl\src/lv_widgets\lv_switch.h ****     /*New data for this type */
  39:d:\_project\stm32\f407\hack_rf_new\lvgl\src/lv_widgets\lv_switch.h ****     lv_style_list_t style_knob; /*Style of the knob*/
  40:d:\_project\stm32\f407\hack_rf_new\lvgl\src/lv_widgets\lv_switch.h **** } lv_switch_ext_t;
  41:d:\_project\stm32\f407\hack_rf_new\lvgl\src/lv_widgets\lv_switch.h **** 
  42:d:\_project\stm32\f407\hack_rf_new\lvgl\src/lv_widgets\lv_switch.h **** /**
  43:d:\_project\stm32\f407\hack_rf_new\lvgl\src/lv_widgets\lv_switch.h ****  * Switch parts.
  44:d:\_project\stm32\f407\hack_rf_new\lvgl\src/lv_widgets\lv_switch.h ****  */
  45:d:\_project\stm32\f407\hack_rf_new\lvgl\src/lv_widgets\lv_switch.h **** enum {
  46:d:\_project\stm32\f407\hack_rf_new\lvgl\src/lv_widgets\lv_switch.h ****     LV_SWITCH_PART_BG = LV_BAR_PART_BG,                 /**< Switch background. */
  47:d:\_project\stm32\f407\hack_rf_new\lvgl\src/lv_widgets\lv_switch.h ****     LV_SWITCH_PART_INDIC = LV_BAR_PART_INDIC,           /**< Switch fill area. */
  48:d:\_project\stm32\f407\hack_rf_new\lvgl\src/lv_widgets\lv_switch.h ****     LV_SWITCH_PART_KNOB = _LV_BAR_PART_VIRTUAL_LAST,    /**< Switch knob. */
  49:d:\_project\stm32\f407\hack_rf_new\lvgl\src/lv_widgets\lv_switch.h ****     _LV_SWITCH_PART_VIRTUAL_LAST
  50:d:\_project\stm32\f407\hack_rf_new\lvgl\src/lv_widgets\lv_switch.h **** };
  51:d:\_project\stm32\f407\hack_rf_new\lvgl\src/lv_widgets\lv_switch.h **** 
  52:d:\_project\stm32\f407\hack_rf_new\lvgl\src/lv_widgets\lv_switch.h **** typedef uint8_t lv_switch_part_t;
  53:d:\_project\stm32\f407\hack_rf_new\lvgl\src/lv_widgets\lv_switch.h **** 
  54:d:\_project\stm32\f407\hack_rf_new\lvgl\src/lv_widgets\lv_switch.h **** /**********************
  55:d:\_project\stm32\f407\hack_rf_new\lvgl\src/lv_widgets\lv_switch.h ****  * GLOBAL PROTOTYPES
  56:d:\_project\stm32\f407\hack_rf_new\lvgl\src/lv_widgets\lv_switch.h ****  **********************/
  57:d:\_project\stm32\f407\hack_rf_new\lvgl\src/lv_widgets\lv_switch.h **** 
  58:d:\_project\stm32\f407\hack_rf_new\lvgl\src/lv_widgets\lv_switch.h **** /**
  59:d:\_project\stm32\f407\hack_rf_new\lvgl\src/lv_widgets\lv_switch.h ****  * Create a switch objects
  60:d:\_project\stm32\f407\hack_rf_new\lvgl\src/lv_widgets\lv_switch.h ****  * @param par pointer to an object, it will be the parent of the new switch
  61:d:\_project\stm32\f407\hack_rf_new\lvgl\src/lv_widgets\lv_switch.h ****  * @param copy pointer to a switch object, if not NULL then the new object will be copied from it
  62:d:\_project\stm32\f407\hack_rf_new\lvgl\src/lv_widgets\lv_switch.h ****  * @return pointer to the created switch
  63:d:\_project\stm32\f407\hack_rf_new\lvgl\src/lv_widgets\lv_switch.h ****  */
  64:d:\_project\stm32\f407\hack_rf_new\lvgl\src/lv_widgets\lv_switch.h **** lv_obj_t * lv_switch_create(lv_obj_t * par, const lv_obj_t * copy);
  65:d:\_project\stm32\f407\hack_rf_new\lvgl\src/lv_widgets\lv_switch.h **** 
  66:d:\_project\stm32\f407\hack_rf_new\lvgl\src/lv_widgets\lv_switch.h **** /*=====================
  67:d:\_project\stm32\f407\hack_rf_new\lvgl\src/lv_widgets\lv_switch.h ****  * Setter functions
  68:d:\_project\stm32\f407\hack_rf_new\lvgl\src/lv_widgets\lv_switch.h ****  *====================*/
  69:d:\_project\stm32\f407\hack_rf_new\lvgl\src/lv_widgets\lv_switch.h **** 
  70:d:\_project\stm32\f407\hack_rf_new\lvgl\src/lv_widgets\lv_switch.h **** /**
  71:d:\_project\stm32\f407\hack_rf_new\lvgl\src/lv_widgets\lv_switch.h ****  * Turn ON the switch
  72:d:\_project\stm32\f407\hack_rf_new\lvgl\src/lv_widgets\lv_switch.h ****  * @param sw pointer to a switch object
  73:d:\_project\stm32\f407\hack_rf_new\lvgl\src/lv_widgets\lv_switch.h ****  * @param anim LV_ANIM_ON: set the value with an animation; LV_ANIM_OFF: change the value immediate
ARM GAS  D:\Temp\ccBnYEXJ.s 			page 15


  74:d:\_project\stm32\f407\hack_rf_new\lvgl\src/lv_widgets\lv_switch.h ****  */
  75:d:\_project\stm32\f407\hack_rf_new\lvgl\src/lv_widgets\lv_switch.h **** void lv_switch_on(lv_obj_t * sw, lv_anim_enable_t anim);
  76:d:\_project\stm32\f407\hack_rf_new\lvgl\src/lv_widgets\lv_switch.h **** 
  77:d:\_project\stm32\f407\hack_rf_new\lvgl\src/lv_widgets\lv_switch.h **** /**
  78:d:\_project\stm32\f407\hack_rf_new\lvgl\src/lv_widgets\lv_switch.h ****  * Turn OFF the switch
  79:d:\_project\stm32\f407\hack_rf_new\lvgl\src/lv_widgets\lv_switch.h ****  * @param sw pointer to a switch object
  80:d:\_project\stm32\f407\hack_rf_new\lvgl\src/lv_widgets\lv_switch.h ****  * @param anim LV_ANIM_ON: set the value with an animation; LV_ANIM_OFF: change the value immediate
  81:d:\_project\stm32\f407\hack_rf_new\lvgl\src/lv_widgets\lv_switch.h ****  */
  82:d:\_project\stm32\f407\hack_rf_new\lvgl\src/lv_widgets\lv_switch.h **** void lv_switch_off(lv_obj_t * sw, lv_anim_enable_t anim);
  83:d:\_project\stm32\f407\hack_rf_new\lvgl\src/lv_widgets\lv_switch.h **** 
  84:d:\_project\stm32\f407\hack_rf_new\lvgl\src/lv_widgets\lv_switch.h **** /**
  85:d:\_project\stm32\f407\hack_rf_new\lvgl\src/lv_widgets\lv_switch.h ****  * Toggle the position of the switch
  86:d:\_project\stm32\f407\hack_rf_new\lvgl\src/lv_widgets\lv_switch.h ****  * @param sw pointer to a switch object
  87:d:\_project\stm32\f407\hack_rf_new\lvgl\src/lv_widgets\lv_switch.h ****  * @param anim LV_ANIM_ON: set the value with an animation; LV_ANIM_OFF: change the value immediate
  88:d:\_project\stm32\f407\hack_rf_new\lvgl\src/lv_widgets\lv_switch.h ****  * @return resulting state of the switch.
  89:d:\_project\stm32\f407\hack_rf_new\lvgl\src/lv_widgets\lv_switch.h ****  */
  90:d:\_project\stm32\f407\hack_rf_new\lvgl\src/lv_widgets\lv_switch.h **** bool lv_switch_toggle(lv_obj_t * sw, lv_anim_enable_t anim);
  91:d:\_project\stm32\f407\hack_rf_new\lvgl\src/lv_widgets\lv_switch.h **** 
  92:d:\_project\stm32\f407\hack_rf_new\lvgl\src/lv_widgets\lv_switch.h **** /**
  93:d:\_project\stm32\f407\hack_rf_new\lvgl\src/lv_widgets\lv_switch.h ****  * Set the animation time of the switch
  94:d:\_project\stm32\f407\hack_rf_new\lvgl\src/lv_widgets\lv_switch.h ****  * @param sw pointer to a switch object
  95:d:\_project\stm32\f407\hack_rf_new\lvgl\src/lv_widgets\lv_switch.h ****  * @param anim_time animation time
  96:d:\_project\stm32\f407\hack_rf_new\lvgl\src/lv_widgets\lv_switch.h ****  * @return style pointer to a style
  97:d:\_project\stm32\f407\hack_rf_new\lvgl\src/lv_widgets\lv_switch.h ****  */
  98:d:\_project\stm32\f407\hack_rf_new\lvgl\src/lv_widgets\lv_switch.h **** static inline void lv_switch_set_anim_time(lv_obj_t * sw, uint16_t anim_time)
  99:d:\_project\stm32\f407\hack_rf_new\lvgl\src/lv_widgets\lv_switch.h **** {
 100:d:\_project\stm32\f407\hack_rf_new\lvgl\src/lv_widgets\lv_switch.h ****     lv_bar_set_anim_time(sw, anim_time);
 101:d:\_project\stm32\f407\hack_rf_new\lvgl\src/lv_widgets\lv_switch.h **** }
 102:d:\_project\stm32\f407\hack_rf_new\lvgl\src/lv_widgets\lv_switch.h **** 
 103:d:\_project\stm32\f407\hack_rf_new\lvgl\src/lv_widgets\lv_switch.h **** /*=====================
 104:d:\_project\stm32\f407\hack_rf_new\lvgl\src/lv_widgets\lv_switch.h ****  * Getter functions
 105:d:\_project\stm32\f407\hack_rf_new\lvgl\src/lv_widgets\lv_switch.h ****  *====================*/
 106:d:\_project\stm32\f407\hack_rf_new\lvgl\src/lv_widgets\lv_switch.h **** 
 107:d:\_project\stm32\f407\hack_rf_new\lvgl\src/lv_widgets\lv_switch.h **** /**
 108:d:\_project\stm32\f407\hack_rf_new\lvgl\src/lv_widgets\lv_switch.h ****  * Get the state of a switch
 109:d:\_project\stm32\f407\hack_rf_new\lvgl\src/lv_widgets\lv_switch.h ****  * @param sw pointer to a switch object
 110:d:\_project\stm32\f407\hack_rf_new\lvgl\src/lv_widgets\lv_switch.h ****  * @return false: OFF; true: ON
 111:d:\_project\stm32\f407\hack_rf_new\lvgl\src/lv_widgets\lv_switch.h ****  */
 112:d:\_project\stm32\f407\hack_rf_new\lvgl\src/lv_widgets\lv_switch.h **** static inline bool lv_switch_get_state(const lv_obj_t * sw)
  61              		.loc 2 112 20 view .LVU7
  62              	.LBB203:
 113:d:\_project\stm32\f407\hack_rf_new\lvgl\src/lv_widgets\lv_switch.h **** {
 114:d:\_project\stm32\f407\hack_rf_new\lvgl\src/lv_widgets\lv_switch.h ****     return lv_bar_get_value(sw) == 1 ? true : false;
  63              		.loc 2 114 5 view .LVU8
  64              		.loc 2 114 12 is_stmt 0 view .LVU9
  65 000c FFF7FEFF 		bl	lv_bar_get_value
  66              	.LVL2:
  67              		.loc 2 114 12 view .LVU10
  68              	.LBE203:
  69              	.LBE202:
  70              		.loc 1 665 11 view .LVU11
  71 0010 0128     		cmp	r0, #1
  72 0012 1FD0     		beq	.L4
 664:lv_examples/src/lv_demo_widgets/lv_demo_widgets.c ****         if(lv_switch_get_state(sw)) flag = LV_THEME_MATERIAL_FLAG_DARK;
  73              		.loc 1 664 18 view .LVU12
  74 0014 4FF00209 		mov	r9, #2
  75              	.L3:
ARM GAS  D:\Temp\ccBnYEXJ.s 			page 16


  76              	.LVL3:
 666:lv_examples/src/lv_demo_widgets/lv_demo_widgets.c **** 
 667:lv_examples/src/lv_demo_widgets/lv_demo_widgets.c ****         LV_THEME_DEFAULT_INIT(lv_theme_get_color_primary(), lv_theme_get_color_secondary(),
  77              		.loc 1 667 9 is_stmt 1 view .LVU13
  78 0018 FFF7FEFF 		bl	lv_theme_get_color_primary
  79              	.LVL4:
  80 001c 0446     		mov	r4, r0	@ movhi
  81 001e FFF7FEFF 		bl	lv_theme_get_color_secondary
  82              	.LVL5:
  83 0022 0546     		mov	r5, r0	@ movhi
  84 0024 FFF7FEFF 		bl	lv_theme_get_font_small
  85              	.LVL6:
  86 0028 0646     		mov	r6, r0
  87 002a FFF7FEFF 		bl	lv_theme_get_font_normal
  88              	.LVL7:
  89 002e 0746     		mov	r7, r0
  90 0030 FFF7FEFF 		bl	lv_theme_get_font_subtitle
  91              	.LVL8:
  92 0034 8046     		mov	r8, r0
  93 0036 FFF7FEFF 		bl	lv_theme_get_font_title
  94              	.LVL9:
  95 003a 0290     		str	r0, [sp, #8]
  96 003c CDF80480 		str	r8, [sp, #4]
  97 0040 0097     		str	r7, [sp]
  98 0042 3346     		mov	r3, r6
  99 0044 4A46     		mov	r2, r9
 100 0046 2946     		mov	r1, r5	@ movhi
 101 0048 2046     		mov	r0, r4	@ movhi
 102 004a FFF7FEFF 		bl	lv_theme_material_init
 103              	.LVL10:
 104              	.LBE201:
 668:lv_examples/src/lv_demo_widgets/lv_demo_widgets.c ****                 flag,
 669:lv_examples/src/lv_demo_widgets/lv_demo_widgets.c ****                 lv_theme_get_font_small(), lv_theme_get_font_normal(), lv_theme_get_font_subtitle()
 670:lv_examples/src/lv_demo_widgets/lv_demo_widgets.c ****     }
 671:lv_examples/src/lv_demo_widgets/lv_demo_widgets.c **** }
 105              		.loc 1 671 1 is_stmt 0 view .LVU14
 106 004e 05B0     		add	sp, sp, #20
 107              	.LCFI2:
 108              		.cfi_remember_state
 109              		.cfi_def_cfa_offset 28
 110              		@ sp needed
 111 0050 BDE8F083 		pop	{r4, r5, r6, r7, r8, r9, pc}
 112              	.LVL11:
 113              	.L4:
 114              	.LCFI3:
 115              		.cfi_restore_state
 116              	.LBB204:
 665:lv_examples/src/lv_demo_widgets/lv_demo_widgets.c **** 
 117              		.loc 1 665 42 view .LVU15
 118 0054 4FF00109 		mov	r9, #1
 119 0058 DEE7     		b	.L3
 120              	.LBE204:
 121              		.cfi_endproc
 122              	.LFE572:
 124              		.section	.text.ta_event_cb,"ax",%progbits
 125              		.align	1
 126              		.syntax unified
ARM GAS  D:\Temp\ccBnYEXJ.s 			page 17


 127              		.thumb
 128              		.thumb_func
 129              		.fpu fpv4-sp-d16
 131              	ta_event_cb:
 132              	.LVL12:
 133              	.LFB565:
 563:lv_examples/src/lv_demo_widgets/lv_demo_widgets.c ****     if(e == LV_EVENT_RELEASED) {
 134              		.loc 1 563 1 is_stmt 1 view -0
 135              		.cfi_startproc
 136              		@ args = 0, pretend = 0, frame = 0
 137              		@ frame_needed = 0, uses_anonymous_args = 0
 563:lv_examples/src/lv_demo_widgets/lv_demo_widgets.c ****     if(e == LV_EVENT_RELEASED) {
 138              		.loc 1 563 1 is_stmt 0 view .LVU17
 139 0000 38B5     		push	{r3, r4, r5, lr}
 140              	.LCFI4:
 141              		.cfi_def_cfa_offset 16
 142              		.cfi_offset 3, -16
 143              		.cfi_offset 4, -12
 144              		.cfi_offset 5, -8
 145              		.cfi_offset 14, -4
 146 0002 0446     		mov	r4, r0
 564:lv_examples/src/lv_demo_widgets/lv_demo_widgets.c ****         if(kb == NULL) {
 147              		.loc 1 564 5 is_stmt 1 view .LVU18
 564:lv_examples/src/lv_demo_widgets/lv_demo_widgets.c ****         if(kb == NULL) {
 148              		.loc 1 564 7 is_stmt 0 view .LVU19
 149 0004 0729     		cmp	r1, #7
 150 0006 02D0     		beq	.L15
 575:lv_examples/src/lv_demo_widgets/lv_demo_widgets.c ****         lv_textarea_set_cursor_hidden(ta, true);
 151              		.loc 1 575 12 is_stmt 1 view .LVU20
 575:lv_examples/src/lv_demo_widgets/lv_demo_widgets.c ****         lv_textarea_set_cursor_hidden(ta, true);
 152              		.loc 1 575 14 is_stmt 0 view .LVU21
 153 0008 0E29     		cmp	r1, #14
 154 000a 35D0     		beq	.L16
 155              	.LVL13:
 156              	.L10:
 578:lv_examples/src/lv_demo_widgets/lv_demo_widgets.c **** 
 157              		.loc 1 578 1 view .LVU22
 158 000c 38BD     		pop	{r3, r4, r5, pc}
 159              	.LVL14:
 160              	.L15:
 565:lv_examples/src/lv_demo_widgets/lv_demo_widgets.c ****             lv_obj_set_height(tv, LV_VER_RES / 2);
 161              		.loc 1 565 9 is_stmt 1 view .LVU23
 565:lv_examples/src/lv_demo_widgets/lv_demo_widgets.c ****             lv_obj_set_height(tv, LV_VER_RES / 2);
 162              		.loc 1 565 15 is_stmt 0 view .LVU24
 163 000e 1C4B     		ldr	r3, .L18
 164 0010 1B68     		ldr	r3, [r3]
 565:lv_examples/src/lv_demo_widgets/lv_demo_widgets.c ****             lv_obj_set_height(tv, LV_VER_RES / 2);
 165              		.loc 1 565 11 view .LVU25
 166 0012 9BB1     		cbz	r3, .L17
 167              	.LVL15:
 168              	.L12:
 572:lv_examples/src/lv_demo_widgets/lv_demo_widgets.c ****         lv_page_focus(t1, lv_textarea_get_label(ta), LV_ANIM_ON);
 169              		.loc 1 572 9 is_stmt 1 view .LVU26
 170 0014 0021     		movs	r1, #0
 171 0016 2046     		mov	r0, r4
 172 0018 FFF7FEFF 		bl	lv_textarea_set_cursor_hidden
 173              	.LVL16:
ARM GAS  D:\Temp\ccBnYEXJ.s 			page 18


 573:lv_examples/src/lv_demo_widgets/lv_demo_widgets.c ****         lv_keyboard_set_textarea(kb, ta);
 174              		.loc 1 573 9 view .LVU27
 175 001c 194B     		ldr	r3, .L18+4
 176 001e 1D68     		ldr	r5, [r3]
 573:lv_examples/src/lv_demo_widgets/lv_demo_widgets.c ****         lv_keyboard_set_textarea(kb, ta);
 177              		.loc 1 573 27 is_stmt 0 view .LVU28
 178 0020 2046     		mov	r0, r4
 179 0022 FFF7FEFF 		bl	lv_textarea_get_label
 180              	.LVL17:
 573:lv_examples/src/lv_demo_widgets/lv_demo_widgets.c ****         lv_keyboard_set_textarea(kb, ta);
 181              		.loc 1 573 9 view .LVU29
 182 0026 0122     		movs	r2, #1
 183 0028 0146     		mov	r1, r0
 184 002a 2846     		mov	r0, r5
 185 002c FFF7FEFF 		bl	lv_page_focus
 186              	.LVL18:
 574:lv_examples/src/lv_demo_widgets/lv_demo_widgets.c ****     } else if(e == LV_EVENT_DEFOCUSED) {
 187              		.loc 1 574 9 is_stmt 1 view .LVU30
 188 0030 2146     		mov	r1, r4
 189 0032 134B     		ldr	r3, .L18
 190 0034 1868     		ldr	r0, [r3]
 191 0036 FFF7FEFF 		bl	lv_keyboard_set_textarea
 192              	.LVL19:
 193 003a E7E7     		b	.L10
 194              	.LVL20:
 195              	.L17:
 566:lv_examples/src/lv_demo_widgets/lv_demo_widgets.c ****             kb = lv_keyboard_create(lv_scr_act(), NULL);
 196              		.loc 1 566 13 view .LVU31
 197 003c 124B     		ldr	r3, .L18+8
 198 003e 1D68     		ldr	r5, [r3]
 566:lv_examples/src/lv_demo_widgets/lv_demo_widgets.c ****             kb = lv_keyboard_create(lv_scr_act(), NULL);
 199              		.loc 1 566 35 is_stmt 0 view .LVU32
 200 0040 FFF7FEFF 		bl	lv_disp_get_default
 201              	.LVL21:
 566:lv_examples/src/lv_demo_widgets/lv_demo_widgets.c ****             kb = lv_keyboard_create(lv_scr_act(), NULL);
 202              		.loc 1 566 35 view .LVU33
 203 0044 FFF7FEFF 		bl	lv_disp_get_ver_res
 204              	.LVL22:
 566:lv_examples/src/lv_demo_widgets/lv_demo_widgets.c ****             kb = lv_keyboard_create(lv_scr_act(), NULL);
 205              		.loc 1 566 13 view .LVU34
 206 0048 00EBD070 		add	r0, r0, r0, lsr #31
 207 004c 40F34F01 		sbfx	r1, r0, #1, #16
 208 0050 2846     		mov	r0, r5
 209 0052 FFF7FEFF 		bl	lv_obj_set_height
 210              	.LVL23:
 567:lv_examples/src/lv_demo_widgets/lv_demo_widgets.c ****             lv_obj_set_event_cb(kb, kb_event_cb);
 211              		.loc 1 567 13 is_stmt 1 view .LVU35
 212              	.LBB205:
 213              	.LBI205:
 214              		.file 3 "d:\\_project\\stm32\\f407\\hack_rf_new\\lvgl\\src/lv_core/lv_disp.h"
   1:d:\_project\stm32\f407\hack_rf_new\lvgl\src/lv_core\lv_disp.h **** /**
   2:d:\_project\stm32\f407\hack_rf_new\lvgl\src/lv_core\lv_disp.h ****  * @file lv_disp.h
   3:d:\_project\stm32\f407\hack_rf_new\lvgl\src/lv_core\lv_disp.h ****  *
   4:d:\_project\stm32\f407\hack_rf_new\lvgl\src/lv_core\lv_disp.h ****  */
   5:d:\_project\stm32\f407\hack_rf_new\lvgl\src/lv_core\lv_disp.h **** 
   6:d:\_project\stm32\f407\hack_rf_new\lvgl\src/lv_core\lv_disp.h **** #ifndef LV_DISP_H
   7:d:\_project\stm32\f407\hack_rf_new\lvgl\src/lv_core\lv_disp.h **** #define LV_DISP_H
ARM GAS  D:\Temp\ccBnYEXJ.s 			page 19


   8:d:\_project\stm32\f407\hack_rf_new\lvgl\src/lv_core\lv_disp.h **** 
   9:d:\_project\stm32\f407\hack_rf_new\lvgl\src/lv_core\lv_disp.h **** #ifdef __cplusplus
  10:d:\_project\stm32\f407\hack_rf_new\lvgl\src/lv_core\lv_disp.h **** extern "C" {
  11:d:\_project\stm32\f407\hack_rf_new\lvgl\src/lv_core\lv_disp.h **** #endif
  12:d:\_project\stm32\f407\hack_rf_new\lvgl\src/lv_core\lv_disp.h **** 
  13:d:\_project\stm32\f407\hack_rf_new\lvgl\src/lv_core\lv_disp.h **** /*********************
  14:d:\_project\stm32\f407\hack_rf_new\lvgl\src/lv_core\lv_disp.h ****  *      INCLUDES
  15:d:\_project\stm32\f407\hack_rf_new\lvgl\src/lv_core\lv_disp.h ****  *********************/
  16:d:\_project\stm32\f407\hack_rf_new\lvgl\src/lv_core\lv_disp.h **** #include "../lv_hal/lv_hal.h"
  17:d:\_project\stm32\f407\hack_rf_new\lvgl\src/lv_core\lv_disp.h **** #include "lv_obj.h"
  18:d:\_project\stm32\f407\hack_rf_new\lvgl\src/lv_core\lv_disp.h **** 
  19:d:\_project\stm32\f407\hack_rf_new\lvgl\src/lv_core\lv_disp.h **** /*********************
  20:d:\_project\stm32\f407\hack_rf_new\lvgl\src/lv_core\lv_disp.h ****  *      DEFINES
  21:d:\_project\stm32\f407\hack_rf_new\lvgl\src/lv_core\lv_disp.h ****  *********************/
  22:d:\_project\stm32\f407\hack_rf_new\lvgl\src/lv_core\lv_disp.h **** 
  23:d:\_project\stm32\f407\hack_rf_new\lvgl\src/lv_core\lv_disp.h **** /**********************
  24:d:\_project\stm32\f407\hack_rf_new\lvgl\src/lv_core\lv_disp.h ****  *      TYPEDEFS
  25:d:\_project\stm32\f407\hack_rf_new\lvgl\src/lv_core\lv_disp.h ****  **********************/
  26:d:\_project\stm32\f407\hack_rf_new\lvgl\src/lv_core\lv_disp.h **** 
  27:d:\_project\stm32\f407\hack_rf_new\lvgl\src/lv_core\lv_disp.h **** typedef enum {
  28:d:\_project\stm32\f407\hack_rf_new\lvgl\src/lv_core\lv_disp.h ****     LV_SCR_LOAD_ANIM_NONE,
  29:d:\_project\stm32\f407\hack_rf_new\lvgl\src/lv_core\lv_disp.h ****     LV_SCR_LOAD_ANIM_OVER_LEFT,
  30:d:\_project\stm32\f407\hack_rf_new\lvgl\src/lv_core\lv_disp.h ****     LV_SCR_LOAD_ANIM_OVER_RIGHT,
  31:d:\_project\stm32\f407\hack_rf_new\lvgl\src/lv_core\lv_disp.h ****     LV_SCR_LOAD_ANIM_OVER_TOP,
  32:d:\_project\stm32\f407\hack_rf_new\lvgl\src/lv_core\lv_disp.h ****     LV_SCR_LOAD_ANIM_OVER_BOTTOM,
  33:d:\_project\stm32\f407\hack_rf_new\lvgl\src/lv_core\lv_disp.h ****     LV_SCR_LOAD_ANIM_MOVE_LEFT,
  34:d:\_project\stm32\f407\hack_rf_new\lvgl\src/lv_core\lv_disp.h ****     LV_SCR_LOAD_ANIM_MOVE_RIGHT,
  35:d:\_project\stm32\f407\hack_rf_new\lvgl\src/lv_core\lv_disp.h ****     LV_SCR_LOAD_ANIM_MOVE_TOP,
  36:d:\_project\stm32\f407\hack_rf_new\lvgl\src/lv_core\lv_disp.h ****     LV_SCR_LOAD_ANIM_MOVE_BOTTOM,
  37:d:\_project\stm32\f407\hack_rf_new\lvgl\src/lv_core\lv_disp.h ****     LV_SCR_LOAD_ANIM_FADE_ON,
  38:d:\_project\stm32\f407\hack_rf_new\lvgl\src/lv_core\lv_disp.h **** } lv_scr_load_anim_t;
  39:d:\_project\stm32\f407\hack_rf_new\lvgl\src/lv_core\lv_disp.h **** 
  40:d:\_project\stm32\f407\hack_rf_new\lvgl\src/lv_core\lv_disp.h **** /**********************
  41:d:\_project\stm32\f407\hack_rf_new\lvgl\src/lv_core\lv_disp.h ****  * GLOBAL PROTOTYPES
  42:d:\_project\stm32\f407\hack_rf_new\lvgl\src/lv_core\lv_disp.h ****  **********************/
  43:d:\_project\stm32\f407\hack_rf_new\lvgl\src/lv_core\lv_disp.h **** 
  44:d:\_project\stm32\f407\hack_rf_new\lvgl\src/lv_core\lv_disp.h **** /**
  45:d:\_project\stm32\f407\hack_rf_new\lvgl\src/lv_core\lv_disp.h ****  * Return with a pointer to the active screen
  46:d:\_project\stm32\f407\hack_rf_new\lvgl\src/lv_core\lv_disp.h ****  * @param disp pointer to display which active screen should be get. (NULL to use the default
  47:d:\_project\stm32\f407\hack_rf_new\lvgl\src/lv_core\lv_disp.h ****  * screen)
  48:d:\_project\stm32\f407\hack_rf_new\lvgl\src/lv_core\lv_disp.h ****  * @return pointer to the active screen object (loaded by 'lv_scr_load()')
  49:d:\_project\stm32\f407\hack_rf_new\lvgl\src/lv_core\lv_disp.h ****  */
  50:d:\_project\stm32\f407\hack_rf_new\lvgl\src/lv_core\lv_disp.h **** lv_obj_t * lv_disp_get_scr_act(lv_disp_t * disp);
  51:d:\_project\stm32\f407\hack_rf_new\lvgl\src/lv_core\lv_disp.h **** 
  52:d:\_project\stm32\f407\hack_rf_new\lvgl\src/lv_core\lv_disp.h **** /**
  53:d:\_project\stm32\f407\hack_rf_new\lvgl\src/lv_core\lv_disp.h ****  * Return with a pointer to the previous screen. Only used during screen transitions.
  54:d:\_project\stm32\f407\hack_rf_new\lvgl\src/lv_core\lv_disp.h ****  * @param disp pointer to display which previous screen should be get. (NULL to use the default
  55:d:\_project\stm32\f407\hack_rf_new\lvgl\src/lv_core\lv_disp.h ****  * screen)
  56:d:\_project\stm32\f407\hack_rf_new\lvgl\src/lv_core\lv_disp.h ****  * @return pointer to the previous screen object or NULL if not used now
  57:d:\_project\stm32\f407\hack_rf_new\lvgl\src/lv_core\lv_disp.h ****  */
  58:d:\_project\stm32\f407\hack_rf_new\lvgl\src/lv_core\lv_disp.h **** lv_obj_t * lv_disp_get_scr_prev(lv_disp_t * disp);
  59:d:\_project\stm32\f407\hack_rf_new\lvgl\src/lv_core\lv_disp.h **** 
  60:d:\_project\stm32\f407\hack_rf_new\lvgl\src/lv_core\lv_disp.h **** /**
  61:d:\_project\stm32\f407\hack_rf_new\lvgl\src/lv_core\lv_disp.h ****  * Make a screen active
  62:d:\_project\stm32\f407\hack_rf_new\lvgl\src/lv_core\lv_disp.h ****  * @param scr pointer to a screen
  63:d:\_project\stm32\f407\hack_rf_new\lvgl\src/lv_core\lv_disp.h ****  */
  64:d:\_project\stm32\f407\hack_rf_new\lvgl\src/lv_core\lv_disp.h **** void lv_disp_load_scr(lv_obj_t * scr);
ARM GAS  D:\Temp\ccBnYEXJ.s 			page 20


  65:d:\_project\stm32\f407\hack_rf_new\lvgl\src/lv_core\lv_disp.h **** 
  66:d:\_project\stm32\f407\hack_rf_new\lvgl\src/lv_core\lv_disp.h **** /**
  67:d:\_project\stm32\f407\hack_rf_new\lvgl\src/lv_core\lv_disp.h ****  * Return with the top layer. (Same on every screen and it is above the normal screen layer)
  68:d:\_project\stm32\f407\hack_rf_new\lvgl\src/lv_core\lv_disp.h ****  * @param disp pointer to display which top layer should be get. (NULL to use the default screen)
  69:d:\_project\stm32\f407\hack_rf_new\lvgl\src/lv_core\lv_disp.h ****  * @return pointer to the top layer object  (transparent screen sized lv_obj)
  70:d:\_project\stm32\f407\hack_rf_new\lvgl\src/lv_core\lv_disp.h ****  */
  71:d:\_project\stm32\f407\hack_rf_new\lvgl\src/lv_core\lv_disp.h **** lv_obj_t * lv_disp_get_layer_top(lv_disp_t * disp);
  72:d:\_project\stm32\f407\hack_rf_new\lvgl\src/lv_core\lv_disp.h **** 
  73:d:\_project\stm32\f407\hack_rf_new\lvgl\src/lv_core\lv_disp.h **** /**
  74:d:\_project\stm32\f407\hack_rf_new\lvgl\src/lv_core\lv_disp.h ****  * Return with the sys. layer. (Same on every screen and it is above the normal screen and the top
  75:d:\_project\stm32\f407\hack_rf_new\lvgl\src/lv_core\lv_disp.h ****  * layer)
  76:d:\_project\stm32\f407\hack_rf_new\lvgl\src/lv_core\lv_disp.h ****  * @param disp pointer to display which sys. layer should be get. (NULL to use the default screen)
  77:d:\_project\stm32\f407\hack_rf_new\lvgl\src/lv_core\lv_disp.h ****  * @return pointer to the sys layer object  (transparent screen sized lv_obj)
  78:d:\_project\stm32\f407\hack_rf_new\lvgl\src/lv_core\lv_disp.h ****  */
  79:d:\_project\stm32\f407\hack_rf_new\lvgl\src/lv_core\lv_disp.h **** lv_obj_t * lv_disp_get_layer_sys(lv_disp_t * disp);
  80:d:\_project\stm32\f407\hack_rf_new\lvgl\src/lv_core\lv_disp.h **** 
  81:d:\_project\stm32\f407\hack_rf_new\lvgl\src/lv_core\lv_disp.h **** /**
  82:d:\_project\stm32\f407\hack_rf_new\lvgl\src/lv_core\lv_disp.h ****  * Assign a screen to a display.
  83:d:\_project\stm32\f407\hack_rf_new\lvgl\src/lv_core\lv_disp.h ****  * @param disp pointer to a display where to assign the screen
  84:d:\_project\stm32\f407\hack_rf_new\lvgl\src/lv_core\lv_disp.h ****  * @param scr pointer to a screen object to assign
  85:d:\_project\stm32\f407\hack_rf_new\lvgl\src/lv_core\lv_disp.h ****  */
  86:d:\_project\stm32\f407\hack_rf_new\lvgl\src/lv_core\lv_disp.h **** void lv_disp_assign_screen(lv_disp_t * disp, lv_obj_t * scr);
  87:d:\_project\stm32\f407\hack_rf_new\lvgl\src/lv_core\lv_disp.h **** 
  88:d:\_project\stm32\f407\hack_rf_new\lvgl\src/lv_core\lv_disp.h **** /**
  89:d:\_project\stm32\f407\hack_rf_new\lvgl\src/lv_core\lv_disp.h ****  * Set the background color of a display
  90:d:\_project\stm32\f407\hack_rf_new\lvgl\src/lv_core\lv_disp.h ****  * @param disp pointer to a display
  91:d:\_project\stm32\f407\hack_rf_new\lvgl\src/lv_core\lv_disp.h ****  * @param color color of the background
  92:d:\_project\stm32\f407\hack_rf_new\lvgl\src/lv_core\lv_disp.h ****  */
  93:d:\_project\stm32\f407\hack_rf_new\lvgl\src/lv_core\lv_disp.h **** void lv_disp_set_bg_color(lv_disp_t * disp, lv_color_t color);
  94:d:\_project\stm32\f407\hack_rf_new\lvgl\src/lv_core\lv_disp.h **** 
  95:d:\_project\stm32\f407\hack_rf_new\lvgl\src/lv_core\lv_disp.h **** /**
  96:d:\_project\stm32\f407\hack_rf_new\lvgl\src/lv_core\lv_disp.h ****  * Set the background image of a display
  97:d:\_project\stm32\f407\hack_rf_new\lvgl\src/lv_core\lv_disp.h ****  * @param disp pointer to a display
  98:d:\_project\stm32\f407\hack_rf_new\lvgl\src/lv_core\lv_disp.h ****  * @param img_src path to file or pointer to an `lv_img_dsc_t` variable
  99:d:\_project\stm32\f407\hack_rf_new\lvgl\src/lv_core\lv_disp.h ****  */
 100:d:\_project\stm32\f407\hack_rf_new\lvgl\src/lv_core\lv_disp.h **** void lv_disp_set_bg_image(lv_disp_t * disp, const void  * img_src);
 101:d:\_project\stm32\f407\hack_rf_new\lvgl\src/lv_core\lv_disp.h **** 
 102:d:\_project\stm32\f407\hack_rf_new\lvgl\src/lv_core\lv_disp.h **** /**
 103:d:\_project\stm32\f407\hack_rf_new\lvgl\src/lv_core\lv_disp.h ****  * Opacity of the background
 104:d:\_project\stm32\f407\hack_rf_new\lvgl\src/lv_core\lv_disp.h ****  * @param disp pointer to a display
 105:d:\_project\stm32\f407\hack_rf_new\lvgl\src/lv_core\lv_disp.h ****  * @param opa opacity (0..255)
 106:d:\_project\stm32\f407\hack_rf_new\lvgl\src/lv_core\lv_disp.h ****  */
 107:d:\_project\stm32\f407\hack_rf_new\lvgl\src/lv_core\lv_disp.h **** void lv_disp_set_bg_opa(lv_disp_t * disp, lv_opa_t opa);
 108:d:\_project\stm32\f407\hack_rf_new\lvgl\src/lv_core\lv_disp.h **** 
 109:d:\_project\stm32\f407\hack_rf_new\lvgl\src/lv_core\lv_disp.h **** #if LV_USE_ANIMATION
 110:d:\_project\stm32\f407\hack_rf_new\lvgl\src/lv_core\lv_disp.h **** 
 111:d:\_project\stm32\f407\hack_rf_new\lvgl\src/lv_core\lv_disp.h **** /**
 112:d:\_project\stm32\f407\hack_rf_new\lvgl\src/lv_core\lv_disp.h ****  * Switch screen with animation
 113:d:\_project\stm32\f407\hack_rf_new\lvgl\src/lv_core\lv_disp.h ****  * @param scr pointer to the new screen to load
 114:d:\_project\stm32\f407\hack_rf_new\lvgl\src/lv_core\lv_disp.h ****  * @param anim_type type of the animation from `lv_scr_load_anim_t`. E.g.  `LV_SCR_LOAD_ANIM_MOVE_L
 115:d:\_project\stm32\f407\hack_rf_new\lvgl\src/lv_core\lv_disp.h ****  * @param time time of the animation
 116:d:\_project\stm32\f407\hack_rf_new\lvgl\src/lv_core\lv_disp.h ****  * @param delay delay before the transition
 117:d:\_project\stm32\f407\hack_rf_new\lvgl\src/lv_core\lv_disp.h ****  * @param auto_del true: automatically delete the old screen
 118:d:\_project\stm32\f407\hack_rf_new\lvgl\src/lv_core\lv_disp.h ****  */
 119:d:\_project\stm32\f407\hack_rf_new\lvgl\src/lv_core\lv_disp.h **** void lv_scr_load_anim(lv_obj_t * scr, lv_scr_load_anim_t anim_type, uint32_t time, uint32_t delay, 
 120:d:\_project\stm32\f407\hack_rf_new\lvgl\src/lv_core\lv_disp.h **** 
 121:d:\_project\stm32\f407\hack_rf_new\lvgl\src/lv_core\lv_disp.h **** #endif
ARM GAS  D:\Temp\ccBnYEXJ.s 			page 21


 122:d:\_project\stm32\f407\hack_rf_new\lvgl\src/lv_core\lv_disp.h **** /**
 123:d:\_project\stm32\f407\hack_rf_new\lvgl\src/lv_core\lv_disp.h ****  * Get elapsed time since last user activity on a display (e.g. click)
 124:d:\_project\stm32\f407\hack_rf_new\lvgl\src/lv_core\lv_disp.h ****  * @param disp pointer to an display (NULL to get the overall smallest inactivity)
 125:d:\_project\stm32\f407\hack_rf_new\lvgl\src/lv_core\lv_disp.h ****  * @return elapsed ticks (milliseconds) since the last activity
 126:d:\_project\stm32\f407\hack_rf_new\lvgl\src/lv_core\lv_disp.h ****  */
 127:d:\_project\stm32\f407\hack_rf_new\lvgl\src/lv_core\lv_disp.h **** uint32_t lv_disp_get_inactive_time(const lv_disp_t * disp);
 128:d:\_project\stm32\f407\hack_rf_new\lvgl\src/lv_core\lv_disp.h **** 
 129:d:\_project\stm32\f407\hack_rf_new\lvgl\src/lv_core\lv_disp.h **** /**
 130:d:\_project\stm32\f407\hack_rf_new\lvgl\src/lv_core\lv_disp.h ****  * Manually trigger an activity on a display
 131:d:\_project\stm32\f407\hack_rf_new\lvgl\src/lv_core\lv_disp.h ****  * @param disp pointer to an display (NULL to use the default display)
 132:d:\_project\stm32\f407\hack_rf_new\lvgl\src/lv_core\lv_disp.h ****  */
 133:d:\_project\stm32\f407\hack_rf_new\lvgl\src/lv_core\lv_disp.h **** void lv_disp_trig_activity(lv_disp_t * disp);
 134:d:\_project\stm32\f407\hack_rf_new\lvgl\src/lv_core\lv_disp.h **** 
 135:d:\_project\stm32\f407\hack_rf_new\lvgl\src/lv_core\lv_disp.h **** /**
 136:d:\_project\stm32\f407\hack_rf_new\lvgl\src/lv_core\lv_disp.h ****  * Clean any CPU cache that is related to the display.
 137:d:\_project\stm32\f407\hack_rf_new\lvgl\src/lv_core\lv_disp.h ****  * @param disp pointer to an display (NULL to use the default display)
 138:d:\_project\stm32\f407\hack_rf_new\lvgl\src/lv_core\lv_disp.h ****  */
 139:d:\_project\stm32\f407\hack_rf_new\lvgl\src/lv_core\lv_disp.h **** void lv_disp_clean_dcache(lv_disp_t * disp);
 140:d:\_project\stm32\f407\hack_rf_new\lvgl\src/lv_core\lv_disp.h **** 
 141:d:\_project\stm32\f407\hack_rf_new\lvgl\src/lv_core\lv_disp.h **** /**
 142:d:\_project\stm32\f407\hack_rf_new\lvgl\src/lv_core\lv_disp.h ****  * Get a pointer to the screen refresher task to
 143:d:\_project\stm32\f407\hack_rf_new\lvgl\src/lv_core\lv_disp.h ****  * modify its parameters with `lv_task_...` functions.
 144:d:\_project\stm32\f407\hack_rf_new\lvgl\src/lv_core\lv_disp.h ****  * @param disp pointer to a display
 145:d:\_project\stm32\f407\hack_rf_new\lvgl\src/lv_core\lv_disp.h ****  * @return pointer to the display refresher task. (NULL on error)
 146:d:\_project\stm32\f407\hack_rf_new\lvgl\src/lv_core\lv_disp.h ****  */
 147:d:\_project\stm32\f407\hack_rf_new\lvgl\src/lv_core\lv_disp.h **** lv_task_t * _lv_disp_get_refr_task(lv_disp_t * disp);
 148:d:\_project\stm32\f407\hack_rf_new\lvgl\src/lv_core\lv_disp.h **** 
 149:d:\_project\stm32\f407\hack_rf_new\lvgl\src/lv_core\lv_disp.h **** /*------------------------------------------------
 150:d:\_project\stm32\f407\hack_rf_new\lvgl\src/lv_core\lv_disp.h ****  * To improve backward compatibility
 151:d:\_project\stm32\f407\hack_rf_new\lvgl\src/lv_core\lv_disp.h ****  * Recommended only if you have one display
 152:d:\_project\stm32\f407\hack_rf_new\lvgl\src/lv_core\lv_disp.h ****  *------------------------------------------------*/
 153:d:\_project\stm32\f407\hack_rf_new\lvgl\src/lv_core\lv_disp.h **** 
 154:d:\_project\stm32\f407\hack_rf_new\lvgl\src/lv_core\lv_disp.h **** /**
 155:d:\_project\stm32\f407\hack_rf_new\lvgl\src/lv_core\lv_disp.h ****  * Get the active screen of the default display
 156:d:\_project\stm32\f407\hack_rf_new\lvgl\src/lv_core\lv_disp.h ****  * @return pointer to the active screen
 157:d:\_project\stm32\f407\hack_rf_new\lvgl\src/lv_core\lv_disp.h ****  */
 158:d:\_project\stm32\f407\hack_rf_new\lvgl\src/lv_core\lv_disp.h **** static inline lv_obj_t * lv_scr_act(void)
 215              		.loc 3 158 26 view .LVU36
 216              	.LBB206:
 159:d:\_project\stm32\f407\hack_rf_new\lvgl\src/lv_core\lv_disp.h **** {
 160:d:\_project\stm32\f407\hack_rf_new\lvgl\src/lv_core\lv_disp.h ****     return lv_disp_get_scr_act(lv_disp_get_default());
 217              		.loc 3 160 5 view .LVU37
 218              		.loc 3 160 12 is_stmt 0 view .LVU38
 219 0056 FFF7FEFF 		bl	lv_disp_get_default
 220              	.LVL24:
 221 005a FFF7FEFF 		bl	lv_disp_get_scr_act
 222              	.LVL25:
 223              	.LBE206:
 224              	.LBE205:
 567:lv_examples/src/lv_demo_widgets/lv_demo_widgets.c ****             lv_obj_set_event_cb(kb, kb_event_cb);
 225              		.loc 1 567 18 view .LVU39
 226 005e 0021     		movs	r1, #0
 227 0060 FFF7FEFF 		bl	lv_keyboard_create
 228              	.LVL26:
 567:lv_examples/src/lv_demo_widgets/lv_demo_widgets.c ****             lv_obj_set_event_cb(kb, kb_event_cb);
 229              		.loc 1 567 16 view .LVU40
 230 0064 064B     		ldr	r3, .L18
ARM GAS  D:\Temp\ccBnYEXJ.s 			page 22


 231 0066 1860     		str	r0, [r3]
 568:lv_examples/src/lv_demo_widgets/lv_demo_widgets.c **** 
 232              		.loc 1 568 13 is_stmt 1 view .LVU41
 233 0068 0849     		ldr	r1, .L18+12
 234 006a FFF7FEFF 		bl	lv_obj_set_event_cb
 235              	.LVL27:
 570:lv_examples/src/lv_demo_widgets/lv_demo_widgets.c ****         }
 236              		.loc 1 570 13 view .LVU42
 237 006e FFF7FEFF 		bl	lv_indev_get_act
 238              	.LVL28:
 239 0072 FFF7FEFF 		bl	lv_indev_wait_release
 240              	.LVL29:
 241 0076 CDE7     		b	.L12
 242              	.LVL30:
 243              	.L16:
 576:lv_examples/src/lv_demo_widgets/lv_demo_widgets.c ****     }
 244              		.loc 1 576 9 view .LVU43
 245 0078 0121     		movs	r1, #1
 246              	.LVL31:
 576:lv_examples/src/lv_demo_widgets/lv_demo_widgets.c ****     }
 247              		.loc 1 576 9 is_stmt 0 view .LVU44
 248 007a FFF7FEFF 		bl	lv_textarea_set_cursor_hidden
 249              	.LVL32:
 578:lv_examples/src/lv_demo_widgets/lv_demo_widgets.c **** 
 250              		.loc 1 578 1 view .LVU45
 251 007e C5E7     		b	.L10
 252              	.L19:
 253              		.align	2
 254              	.L18:
 255 0080 00000000 		.word	.LANCHOR0
 256 0084 00000000 		.word	.LANCHOR2
 257 0088 00000000 		.word	.LANCHOR1
 258 008c 00000000 		.word	kb_event_cb
 259              		.cfi_endproc
 260              	.LFE565:
 262              		.section	.text.kb_event_cb,"ax",%progbits
 263              		.align	1
 264              		.syntax unified
 265              		.thumb
 266              		.thumb_func
 267              		.fpu fpv4-sp-d16
 269              	kb_event_cb:
 270              	.LVL33:
 271              	.LFB566:
 582:lv_examples/src/lv_demo_widgets/lv_demo_widgets.c ****     lv_keyboard_def_event_cb(kb, e);
 272              		.loc 1 582 1 is_stmt 1 view -0
 273              		.cfi_startproc
 274              		@ args = 0, pretend = 0, frame = 0
 275              		@ frame_needed = 0, uses_anonymous_args = 0
 582:lv_examples/src/lv_demo_widgets/lv_demo_widgets.c ****     lv_keyboard_def_event_cb(kb, e);
 276              		.loc 1 582 1 is_stmt 0 view .LVU47
 277 0000 10B5     		push	{r4, lr}
 278              	.LCFI5:
 279              		.cfi_def_cfa_offset 8
 280              		.cfi_offset 4, -8
 281              		.cfi_offset 14, -4
 282 0002 0C46     		mov	r4, r1
ARM GAS  D:\Temp\ccBnYEXJ.s 			page 23


 583:lv_examples/src/lv_demo_widgets/lv_demo_widgets.c **** 
 283              		.loc 1 583 5 is_stmt 1 view .LVU48
 284 0004 0D4B     		ldr	r3, .L24
 285 0006 1868     		ldr	r0, [r3]
 286              	.LVL34:
 583:lv_examples/src/lv_demo_widgets/lv_demo_widgets.c **** 
 287              		.loc 1 583 5 is_stmt 0 view .LVU49
 288 0008 FFF7FEFF 		bl	lv_keyboard_def_event_cb
 289              	.LVL35:
 585:lv_examples/src/lv_demo_widgets/lv_demo_widgets.c ****         if(kb) {
 290              		.loc 1 585 5 is_stmt 1 view .LVU50
 585:lv_examples/src/lv_demo_widgets/lv_demo_widgets.c ****         if(kb) {
 291              		.loc 1 585 7 is_stmt 0 view .LVU51
 292 000c 142C     		cmp	r4, #20
 293 000e 00D0     		beq	.L23
 294              	.L20:
 592:lv_examples/src/lv_demo_widgets/lv_demo_widgets.c **** 
 295              		.loc 1 592 1 view .LVU52
 296 0010 10BD     		pop	{r4, pc}
 297              	.L23:
 586:lv_examples/src/lv_demo_widgets/lv_demo_widgets.c ****             lv_obj_set_height(tv, LV_VER_RES);
 298              		.loc 1 586 9 is_stmt 1 view .LVU53
 586:lv_examples/src/lv_demo_widgets/lv_demo_widgets.c ****             lv_obj_set_height(tv, LV_VER_RES);
 299              		.loc 1 586 12 is_stmt 0 view .LVU54
 300 0012 0A4B     		ldr	r3, .L24
 301 0014 1B68     		ldr	r3, [r3]
 586:lv_examples/src/lv_demo_widgets/lv_demo_widgets.c ****             lv_obj_set_height(tv, LV_VER_RES);
 302              		.loc 1 586 11 view .LVU55
 303 0016 002B     		cmp	r3, #0
 304 0018 FAD0     		beq	.L20
 587:lv_examples/src/lv_demo_widgets/lv_demo_widgets.c ****             lv_obj_del(kb);
 305              		.loc 1 587 13 is_stmt 1 view .LVU56
 306 001a 094B     		ldr	r3, .L24+4
 307 001c 1C68     		ldr	r4, [r3]
 308 001e FFF7FEFF 		bl	lv_disp_get_default
 309              	.LVL36:
 310 0022 FFF7FEFF 		bl	lv_disp_get_ver_res
 311              	.LVL37:
 312 0026 0146     		mov	r1, r0
 313 0028 2046     		mov	r0, r4
 314 002a FFF7FEFF 		bl	lv_obj_set_height
 315              	.LVL38:
 588:lv_examples/src/lv_demo_widgets/lv_demo_widgets.c ****             kb = NULL;
 316              		.loc 1 588 13 view .LVU57
 317 002e 034C     		ldr	r4, .L24
 318 0030 2068     		ldr	r0, [r4]
 319 0032 FFF7FEFF 		bl	lv_obj_del
 320              	.LVL39:
 589:lv_examples/src/lv_demo_widgets/lv_demo_widgets.c ****         }
 321              		.loc 1 589 13 view .LVU58
 589:lv_examples/src/lv_demo_widgets/lv_demo_widgets.c ****         }
 322              		.loc 1 589 16 is_stmt 0 view .LVU59
 323 0036 0023     		movs	r3, #0
 324 0038 2360     		str	r3, [r4]
 592:lv_examples/src/lv_demo_widgets/lv_demo_widgets.c **** 
 325              		.loc 1 592 1 view .LVU60
 326 003a E9E7     		b	.L20
ARM GAS  D:\Temp\ccBnYEXJ.s 			page 24


 327              	.L25:
 328              		.align	2
 329              	.L24:
 330 003c 00000000 		.word	.LANCHOR0
 331 0040 00000000 		.word	.LANCHOR1
 332              		.cfi_endproc
 333              	.LFE566:
 335              		.section	.text.slider_event_cb,"ax",%progbits
 336              		.align	1
 337              		.syntax unified
 338              		.thumb
 339              		.thumb_func
 340              		.fpu fpv4-sp-d16
 342              	slider_event_cb:
 343              	.LVL40:
 344              	.LFB564:
 546:lv_examples/src/lv_demo_widgets/lv_demo_widgets.c ****     if(e == LV_EVENT_VALUE_CHANGED) {
 345              		.loc 1 546 1 is_stmt 1 view -0
 346              		.cfi_startproc
 347              		@ args = 0, pretend = 0, frame = 0
 348              		@ frame_needed = 0, uses_anonymous_args = 0
 547:lv_examples/src/lv_demo_widgets/lv_demo_widgets.c ****         if(lv_slider_get_type(slider) == LV_SLIDER_TYPE_NORMAL) {
 349              		.loc 1 547 5 view .LVU62
 547:lv_examples/src/lv_demo_widgets/lv_demo_widgets.c ****         if(lv_slider_get_type(slider) == LV_SLIDER_TYPE_NORMAL) {
 350              		.loc 1 547 7 is_stmt 0 view .LVU63
 351 0000 1029     		cmp	r1, #16
 352 0002 00D0     		beq	.L33
 353 0004 7047     		bx	lr
 354              	.L33:
 546:lv_examples/src/lv_demo_widgets/lv_demo_widgets.c ****     if(e == LV_EVENT_VALUE_CHANGED) {
 355              		.loc 1 546 1 view .LVU64
 356 0006 70B5     		push	{r4, r5, r6, lr}
 357              	.LCFI6:
 358              		.cfi_def_cfa_offset 16
 359              		.cfi_offset 4, -16
 360              		.cfi_offset 5, -12
 361              		.cfi_offset 6, -8
 362              		.cfi_offset 14, -4
 363 0008 82B0     		sub	sp, sp, #8
 364              	.LCFI7:
 365              		.cfi_def_cfa_offset 24
 366 000a 0446     		mov	r4, r0
 548:lv_examples/src/lv_demo_widgets/lv_demo_widgets.c ****             static char buf[16];
 367              		.loc 1 548 9 is_stmt 1 view .LVU65
 368              	.LVL41:
 369              	.LBB207:
 370              	.LBI207:
 371              		.file 4 "d:\\_project\\stm32\\f407\\hack_rf_new\\lvgl\\src/lv_widgets/lv_slider.h"
   1:d:\_project\stm32\f407\hack_rf_new\lvgl\src/lv_widgets\lv_slider.h **** /**
   2:d:\_project\stm32\f407\hack_rf_new\lvgl\src/lv_widgets\lv_slider.h ****  * @file lv_slider.h
   3:d:\_project\stm32\f407\hack_rf_new\lvgl\src/lv_widgets\lv_slider.h ****  *
   4:d:\_project\stm32\f407\hack_rf_new\lvgl\src/lv_widgets\lv_slider.h ****  */
   5:d:\_project\stm32\f407\hack_rf_new\lvgl\src/lv_widgets\lv_slider.h **** 
   6:d:\_project\stm32\f407\hack_rf_new\lvgl\src/lv_widgets\lv_slider.h **** #ifndef LV_SLIDER_H
   7:d:\_project\stm32\f407\hack_rf_new\lvgl\src/lv_widgets\lv_slider.h **** #define LV_SLIDER_H
   8:d:\_project\stm32\f407\hack_rf_new\lvgl\src/lv_widgets\lv_slider.h **** 
   9:d:\_project\stm32\f407\hack_rf_new\lvgl\src/lv_widgets\lv_slider.h **** #ifdef __cplusplus
ARM GAS  D:\Temp\ccBnYEXJ.s 			page 25


  10:d:\_project\stm32\f407\hack_rf_new\lvgl\src/lv_widgets\lv_slider.h **** extern "C" {
  11:d:\_project\stm32\f407\hack_rf_new\lvgl\src/lv_widgets\lv_slider.h **** #endif
  12:d:\_project\stm32\f407\hack_rf_new\lvgl\src/lv_widgets\lv_slider.h **** 
  13:d:\_project\stm32\f407\hack_rf_new\lvgl\src/lv_widgets\lv_slider.h **** /*********************
  14:d:\_project\stm32\f407\hack_rf_new\lvgl\src/lv_widgets\lv_slider.h ****  *      INCLUDES
  15:d:\_project\stm32\f407\hack_rf_new\lvgl\src/lv_widgets\lv_slider.h ****  *********************/
  16:d:\_project\stm32\f407\hack_rf_new\lvgl\src/lv_widgets\lv_slider.h **** #include "../lv_conf_internal.h"
  17:d:\_project\stm32\f407\hack_rf_new\lvgl\src/lv_widgets\lv_slider.h **** 
  18:d:\_project\stm32\f407\hack_rf_new\lvgl\src/lv_widgets\lv_slider.h **** #if LV_USE_SLIDER != 0
  19:d:\_project\stm32\f407\hack_rf_new\lvgl\src/lv_widgets\lv_slider.h **** 
  20:d:\_project\stm32\f407\hack_rf_new\lvgl\src/lv_widgets\lv_slider.h **** /*Testing of dependencies*/
  21:d:\_project\stm32\f407\hack_rf_new\lvgl\src/lv_widgets\lv_slider.h **** #if LV_USE_BAR == 0
  22:d:\_project\stm32\f407\hack_rf_new\lvgl\src/lv_widgets\lv_slider.h **** #error "lv_slider: lv_bar is required. Enable it in lv_conf.h (LV_USE_BAR 1)"
  23:d:\_project\stm32\f407\hack_rf_new\lvgl\src/lv_widgets\lv_slider.h **** #endif
  24:d:\_project\stm32\f407\hack_rf_new\lvgl\src/lv_widgets\lv_slider.h **** 
  25:d:\_project\stm32\f407\hack_rf_new\lvgl\src/lv_widgets\lv_slider.h **** #include "../lv_core/lv_obj.h"
  26:d:\_project\stm32\f407\hack_rf_new\lvgl\src/lv_widgets\lv_slider.h **** #include "lv_bar.h"
  27:d:\_project\stm32\f407\hack_rf_new\lvgl\src/lv_widgets\lv_slider.h **** 
  28:d:\_project\stm32\f407\hack_rf_new\lvgl\src/lv_widgets\lv_slider.h **** /*********************
  29:d:\_project\stm32\f407\hack_rf_new\lvgl\src/lv_widgets\lv_slider.h ****  *      DEFINES
  30:d:\_project\stm32\f407\hack_rf_new\lvgl\src/lv_widgets\lv_slider.h ****  *********************/
  31:d:\_project\stm32\f407\hack_rf_new\lvgl\src/lv_widgets\lv_slider.h **** 
  32:d:\_project\stm32\f407\hack_rf_new\lvgl\src/lv_widgets\lv_slider.h **** /**********************
  33:d:\_project\stm32\f407\hack_rf_new\lvgl\src/lv_widgets\lv_slider.h ****  *      TYPEDEFS
  34:d:\_project\stm32\f407\hack_rf_new\lvgl\src/lv_widgets\lv_slider.h ****  **********************/
  35:d:\_project\stm32\f407\hack_rf_new\lvgl\src/lv_widgets\lv_slider.h **** 
  36:d:\_project\stm32\f407\hack_rf_new\lvgl\src/lv_widgets\lv_slider.h **** enum {
  37:d:\_project\stm32\f407\hack_rf_new\lvgl\src/lv_widgets\lv_slider.h ****     LV_SLIDER_TYPE_NORMAL,
  38:d:\_project\stm32\f407\hack_rf_new\lvgl\src/lv_widgets\lv_slider.h ****     LV_SLIDER_TYPE_SYMMETRICAL,
  39:d:\_project\stm32\f407\hack_rf_new\lvgl\src/lv_widgets\lv_slider.h ****     LV_SLIDER_TYPE_RANGE
  40:d:\_project\stm32\f407\hack_rf_new\lvgl\src/lv_widgets\lv_slider.h **** };
  41:d:\_project\stm32\f407\hack_rf_new\lvgl\src/lv_widgets\lv_slider.h **** typedef uint8_t lv_slider_type_t;
  42:d:\_project\stm32\f407\hack_rf_new\lvgl\src/lv_widgets\lv_slider.h **** 
  43:d:\_project\stm32\f407\hack_rf_new\lvgl\src/lv_widgets\lv_slider.h **** /*Data of slider*/
  44:d:\_project\stm32\f407\hack_rf_new\lvgl\src/lv_widgets\lv_slider.h **** typedef struct {
  45:d:\_project\stm32\f407\hack_rf_new\lvgl\src/lv_widgets\lv_slider.h ****     lv_bar_ext_t bar; /*Ext. of ancestor*/
  46:d:\_project\stm32\f407\hack_rf_new\lvgl\src/lv_widgets\lv_slider.h ****     /*New data for this type */
  47:d:\_project\stm32\f407\hack_rf_new\lvgl\src/lv_widgets\lv_slider.h ****     lv_style_list_t style_knob; /*Style of the knob*/
  48:d:\_project\stm32\f407\hack_rf_new\lvgl\src/lv_widgets\lv_slider.h ****     lv_area_t left_knob_area;
  49:d:\_project\stm32\f407\hack_rf_new\lvgl\src/lv_widgets\lv_slider.h ****     lv_area_t right_knob_area;
  50:d:\_project\stm32\f407\hack_rf_new\lvgl\src/lv_widgets\lv_slider.h ****     int16_t * value_to_set; /* Which bar value to set */
  51:d:\_project\stm32\f407\hack_rf_new\lvgl\src/lv_widgets\lv_slider.h ****     uint8_t dragging : 1;       /*1: the slider is being dragged*/
  52:d:\_project\stm32\f407\hack_rf_new\lvgl\src/lv_widgets\lv_slider.h ****     uint8_t left_knob_focus : 1; /*1: with encoder now the right knob can be adjusted*/
  53:d:\_project\stm32\f407\hack_rf_new\lvgl\src/lv_widgets\lv_slider.h **** } lv_slider_ext_t;
  54:d:\_project\stm32\f407\hack_rf_new\lvgl\src/lv_widgets\lv_slider.h **** 
  55:d:\_project\stm32\f407\hack_rf_new\lvgl\src/lv_widgets\lv_slider.h **** /** Built-in styles of slider*/
  56:d:\_project\stm32\f407\hack_rf_new\lvgl\src/lv_widgets\lv_slider.h **** enum {
  57:d:\_project\stm32\f407\hack_rf_new\lvgl\src/lv_widgets\lv_slider.h ****     LV_SLIDER_PART_BG, /** Slider background style. */
  58:d:\_project\stm32\f407\hack_rf_new\lvgl\src/lv_widgets\lv_slider.h ****     LV_SLIDER_PART_INDIC, /** Slider indicator (filled area) style. */
  59:d:\_project\stm32\f407\hack_rf_new\lvgl\src/lv_widgets\lv_slider.h ****     LV_SLIDER_PART_KNOB, /** Slider knob style. */
  60:d:\_project\stm32\f407\hack_rf_new\lvgl\src/lv_widgets\lv_slider.h **** };
  61:d:\_project\stm32\f407\hack_rf_new\lvgl\src/lv_widgets\lv_slider.h **** 
  62:d:\_project\stm32\f407\hack_rf_new\lvgl\src/lv_widgets\lv_slider.h **** /**********************
  63:d:\_project\stm32\f407\hack_rf_new\lvgl\src/lv_widgets\lv_slider.h ****  * GLOBAL PROTOTYPES
  64:d:\_project\stm32\f407\hack_rf_new\lvgl\src/lv_widgets\lv_slider.h ****  **********************/
  65:d:\_project\stm32\f407\hack_rf_new\lvgl\src/lv_widgets\lv_slider.h **** 
  66:d:\_project\stm32\f407\hack_rf_new\lvgl\src/lv_widgets\lv_slider.h **** /**
ARM GAS  D:\Temp\ccBnYEXJ.s 			page 26


  67:d:\_project\stm32\f407\hack_rf_new\lvgl\src/lv_widgets\lv_slider.h ****  * Create a slider objects
  68:d:\_project\stm32\f407\hack_rf_new\lvgl\src/lv_widgets\lv_slider.h ****  * @param par pointer to an object, it will be the parent of the new slider
  69:d:\_project\stm32\f407\hack_rf_new\lvgl\src/lv_widgets\lv_slider.h ****  * @param copy pointer to a slider object, if not NULL then the new object will be copied from it
  70:d:\_project\stm32\f407\hack_rf_new\lvgl\src/lv_widgets\lv_slider.h ****  * @return pointer to the created slider
  71:d:\_project\stm32\f407\hack_rf_new\lvgl\src/lv_widgets\lv_slider.h ****  */
  72:d:\_project\stm32\f407\hack_rf_new\lvgl\src/lv_widgets\lv_slider.h **** lv_obj_t * lv_slider_create(lv_obj_t * par, const lv_obj_t * copy);
  73:d:\_project\stm32\f407\hack_rf_new\lvgl\src/lv_widgets\lv_slider.h **** 
  74:d:\_project\stm32\f407\hack_rf_new\lvgl\src/lv_widgets\lv_slider.h **** /*=====================
  75:d:\_project\stm32\f407\hack_rf_new\lvgl\src/lv_widgets\lv_slider.h ****  * Setter functions
  76:d:\_project\stm32\f407\hack_rf_new\lvgl\src/lv_widgets\lv_slider.h ****  *====================*/
  77:d:\_project\stm32\f407\hack_rf_new\lvgl\src/lv_widgets\lv_slider.h **** 
  78:d:\_project\stm32\f407\hack_rf_new\lvgl\src/lv_widgets\lv_slider.h **** /**
  79:d:\_project\stm32\f407\hack_rf_new\lvgl\src/lv_widgets\lv_slider.h ****  * Set a new value on the slider
  80:d:\_project\stm32\f407\hack_rf_new\lvgl\src/lv_widgets\lv_slider.h ****  * @param slider pointer to a slider object
  81:d:\_project\stm32\f407\hack_rf_new\lvgl\src/lv_widgets\lv_slider.h ****  * @param value new value
  82:d:\_project\stm32\f407\hack_rf_new\lvgl\src/lv_widgets\lv_slider.h ****  * @param anim LV_ANIM_ON: set the value with an animation; LV_ANIM_OFF: change the value immediate
  83:d:\_project\stm32\f407\hack_rf_new\lvgl\src/lv_widgets\lv_slider.h ****  */
  84:d:\_project\stm32\f407\hack_rf_new\lvgl\src/lv_widgets\lv_slider.h **** static inline void lv_slider_set_value(lv_obj_t * slider, int16_t value, lv_anim_enable_t anim)
  85:d:\_project\stm32\f407\hack_rf_new\lvgl\src/lv_widgets\lv_slider.h **** {
  86:d:\_project\stm32\f407\hack_rf_new\lvgl\src/lv_widgets\lv_slider.h ****     lv_bar_set_value(slider, value, anim);
  87:d:\_project\stm32\f407\hack_rf_new\lvgl\src/lv_widgets\lv_slider.h **** }
  88:d:\_project\stm32\f407\hack_rf_new\lvgl\src/lv_widgets\lv_slider.h **** 
  89:d:\_project\stm32\f407\hack_rf_new\lvgl\src/lv_widgets\lv_slider.h **** /**
  90:d:\_project\stm32\f407\hack_rf_new\lvgl\src/lv_widgets\lv_slider.h ****  * Set a new value for the left knob of a slider
  91:d:\_project\stm32\f407\hack_rf_new\lvgl\src/lv_widgets\lv_slider.h ****  * @param slider pointer to a slider object
  92:d:\_project\stm32\f407\hack_rf_new\lvgl\src/lv_widgets\lv_slider.h ****  * @param left_value new value
  93:d:\_project\stm32\f407\hack_rf_new\lvgl\src/lv_widgets\lv_slider.h ****  * @param anim LV_ANIM_ON: set the value with an animation; LV_ANIM_OFF: change the value immediate
  94:d:\_project\stm32\f407\hack_rf_new\lvgl\src/lv_widgets\lv_slider.h ****  */
  95:d:\_project\stm32\f407\hack_rf_new\lvgl\src/lv_widgets\lv_slider.h **** static inline void lv_slider_set_left_value(lv_obj_t * slider, int16_t left_value, lv_anim_enable_t
  96:d:\_project\stm32\f407\hack_rf_new\lvgl\src/lv_widgets\lv_slider.h **** {
  97:d:\_project\stm32\f407\hack_rf_new\lvgl\src/lv_widgets\lv_slider.h ****     lv_bar_set_start_value(slider, left_value, anim);
  98:d:\_project\stm32\f407\hack_rf_new\lvgl\src/lv_widgets\lv_slider.h **** }
  99:d:\_project\stm32\f407\hack_rf_new\lvgl\src/lv_widgets\lv_slider.h **** 
 100:d:\_project\stm32\f407\hack_rf_new\lvgl\src/lv_widgets\lv_slider.h **** /**
 101:d:\_project\stm32\f407\hack_rf_new\lvgl\src/lv_widgets\lv_slider.h ****  * Set minimum and the maximum values of a bar
 102:d:\_project\stm32\f407\hack_rf_new\lvgl\src/lv_widgets\lv_slider.h ****  * @param slider pointer to the slider object
 103:d:\_project\stm32\f407\hack_rf_new\lvgl\src/lv_widgets\lv_slider.h ****  * @param min minimum value
 104:d:\_project\stm32\f407\hack_rf_new\lvgl\src/lv_widgets\lv_slider.h ****  * @param max maximum value
 105:d:\_project\stm32\f407\hack_rf_new\lvgl\src/lv_widgets\lv_slider.h ****  */
 106:d:\_project\stm32\f407\hack_rf_new\lvgl\src/lv_widgets\lv_slider.h **** static inline void lv_slider_set_range(lv_obj_t * slider, int16_t min, int16_t max)
 107:d:\_project\stm32\f407\hack_rf_new\lvgl\src/lv_widgets\lv_slider.h **** {
 108:d:\_project\stm32\f407\hack_rf_new\lvgl\src/lv_widgets\lv_slider.h ****     lv_bar_set_range(slider, min, max);
 109:d:\_project\stm32\f407\hack_rf_new\lvgl\src/lv_widgets\lv_slider.h **** }
 110:d:\_project\stm32\f407\hack_rf_new\lvgl\src/lv_widgets\lv_slider.h **** 
 111:d:\_project\stm32\f407\hack_rf_new\lvgl\src/lv_widgets\lv_slider.h **** /**
 112:d:\_project\stm32\f407\hack_rf_new\lvgl\src/lv_widgets\lv_slider.h ****  * Set the animation time of the slider
 113:d:\_project\stm32\f407\hack_rf_new\lvgl\src/lv_widgets\lv_slider.h ****  * @param slider pointer to a bar object
 114:d:\_project\stm32\f407\hack_rf_new\lvgl\src/lv_widgets\lv_slider.h ****  * @param anim_time the animation time in milliseconds.
 115:d:\_project\stm32\f407\hack_rf_new\lvgl\src/lv_widgets\lv_slider.h ****  */
 116:d:\_project\stm32\f407\hack_rf_new\lvgl\src/lv_widgets\lv_slider.h **** static inline void lv_slider_set_anim_time(lv_obj_t * slider, uint16_t anim_time)
 117:d:\_project\stm32\f407\hack_rf_new\lvgl\src/lv_widgets\lv_slider.h **** {
 118:d:\_project\stm32\f407\hack_rf_new\lvgl\src/lv_widgets\lv_slider.h ****     lv_bar_set_anim_time(slider, anim_time);
 119:d:\_project\stm32\f407\hack_rf_new\lvgl\src/lv_widgets\lv_slider.h **** }
 120:d:\_project\stm32\f407\hack_rf_new\lvgl\src/lv_widgets\lv_slider.h **** 
 121:d:\_project\stm32\f407\hack_rf_new\lvgl\src/lv_widgets\lv_slider.h **** /**
 122:d:\_project\stm32\f407\hack_rf_new\lvgl\src/lv_widgets\lv_slider.h ****  * Make the slider symmetric to zero. The indicator will grow from zero instead of the minimum
 123:d:\_project\stm32\f407\hack_rf_new\lvgl\src/lv_widgets\lv_slider.h ****  * position.
ARM GAS  D:\Temp\ccBnYEXJ.s 			page 27


 124:d:\_project\stm32\f407\hack_rf_new\lvgl\src/lv_widgets\lv_slider.h ****  * @param slider pointer to a slider object
 125:d:\_project\stm32\f407\hack_rf_new\lvgl\src/lv_widgets\lv_slider.h ****  * @param en true: enable disable symmetric behavior; false: disable
 126:d:\_project\stm32\f407\hack_rf_new\lvgl\src/lv_widgets\lv_slider.h ****  */
 127:d:\_project\stm32\f407\hack_rf_new\lvgl\src/lv_widgets\lv_slider.h **** static inline void lv_slider_set_type(lv_obj_t * slider, lv_slider_type_t type)
 128:d:\_project\stm32\f407\hack_rf_new\lvgl\src/lv_widgets\lv_slider.h **** {
 129:d:\_project\stm32\f407\hack_rf_new\lvgl\src/lv_widgets\lv_slider.h ****     if(type == LV_SLIDER_TYPE_NORMAL)
 130:d:\_project\stm32\f407\hack_rf_new\lvgl\src/lv_widgets\lv_slider.h ****         lv_bar_set_type(slider, LV_BAR_TYPE_NORMAL);
 131:d:\_project\stm32\f407\hack_rf_new\lvgl\src/lv_widgets\lv_slider.h ****     else if(type == LV_SLIDER_TYPE_SYMMETRICAL)
 132:d:\_project\stm32\f407\hack_rf_new\lvgl\src/lv_widgets\lv_slider.h ****         lv_bar_set_type(slider, LV_BAR_TYPE_SYMMETRICAL);
 133:d:\_project\stm32\f407\hack_rf_new\lvgl\src/lv_widgets\lv_slider.h ****     else if(type == LV_SLIDER_TYPE_RANGE)
 134:d:\_project\stm32\f407\hack_rf_new\lvgl\src/lv_widgets\lv_slider.h ****         lv_bar_set_type(slider, LV_BAR_TYPE_CUSTOM);
 135:d:\_project\stm32\f407\hack_rf_new\lvgl\src/lv_widgets\lv_slider.h **** }
 136:d:\_project\stm32\f407\hack_rf_new\lvgl\src/lv_widgets\lv_slider.h **** 
 137:d:\_project\stm32\f407\hack_rf_new\lvgl\src/lv_widgets\lv_slider.h **** /*=====================
 138:d:\_project\stm32\f407\hack_rf_new\lvgl\src/lv_widgets\lv_slider.h ****  * Getter functions
 139:d:\_project\stm32\f407\hack_rf_new\lvgl\src/lv_widgets\lv_slider.h ****  *====================*/
 140:d:\_project\stm32\f407\hack_rf_new\lvgl\src/lv_widgets\lv_slider.h **** 
 141:d:\_project\stm32\f407\hack_rf_new\lvgl\src/lv_widgets\lv_slider.h **** /**
 142:d:\_project\stm32\f407\hack_rf_new\lvgl\src/lv_widgets\lv_slider.h ****  * Get the value of the main knob of a slider
 143:d:\_project\stm32\f407\hack_rf_new\lvgl\src/lv_widgets\lv_slider.h ****  * @param slider pointer to a slider object
 144:d:\_project\stm32\f407\hack_rf_new\lvgl\src/lv_widgets\lv_slider.h ****  * @return the value of the main knob of the slider
 145:d:\_project\stm32\f407\hack_rf_new\lvgl\src/lv_widgets\lv_slider.h ****  */
 146:d:\_project\stm32\f407\hack_rf_new\lvgl\src/lv_widgets\lv_slider.h **** int16_t lv_slider_get_value(const lv_obj_t * slider);
 147:d:\_project\stm32\f407\hack_rf_new\lvgl\src/lv_widgets\lv_slider.h **** 
 148:d:\_project\stm32\f407\hack_rf_new\lvgl\src/lv_widgets\lv_slider.h **** /**
 149:d:\_project\stm32\f407\hack_rf_new\lvgl\src/lv_widgets\lv_slider.h ****  * Get the value of the left knob of a slider
 150:d:\_project\stm32\f407\hack_rf_new\lvgl\src/lv_widgets\lv_slider.h ****  * @param slider pointer to a slider object
 151:d:\_project\stm32\f407\hack_rf_new\lvgl\src/lv_widgets\lv_slider.h ****  * @return the value of the left knob of the slider
 152:d:\_project\stm32\f407\hack_rf_new\lvgl\src/lv_widgets\lv_slider.h ****  */
 153:d:\_project\stm32\f407\hack_rf_new\lvgl\src/lv_widgets\lv_slider.h **** static inline int16_t lv_slider_get_left_value(const lv_obj_t * slider)
 154:d:\_project\stm32\f407\hack_rf_new\lvgl\src/lv_widgets\lv_slider.h **** {
 155:d:\_project\stm32\f407\hack_rf_new\lvgl\src/lv_widgets\lv_slider.h ****     return lv_bar_get_start_value(slider);
 156:d:\_project\stm32\f407\hack_rf_new\lvgl\src/lv_widgets\lv_slider.h **** }
 157:d:\_project\stm32\f407\hack_rf_new\lvgl\src/lv_widgets\lv_slider.h **** 
 158:d:\_project\stm32\f407\hack_rf_new\lvgl\src/lv_widgets\lv_slider.h **** /**
 159:d:\_project\stm32\f407\hack_rf_new\lvgl\src/lv_widgets\lv_slider.h ****  * Get the minimum value of a slider
 160:d:\_project\stm32\f407\hack_rf_new\lvgl\src/lv_widgets\lv_slider.h ****  * @param slider pointer to a slider object
 161:d:\_project\stm32\f407\hack_rf_new\lvgl\src/lv_widgets\lv_slider.h ****  * @return the minimum value of the slider
 162:d:\_project\stm32\f407\hack_rf_new\lvgl\src/lv_widgets\lv_slider.h ****  */
 163:d:\_project\stm32\f407\hack_rf_new\lvgl\src/lv_widgets\lv_slider.h **** static inline int16_t lv_slider_get_min_value(const lv_obj_t * slider)
 164:d:\_project\stm32\f407\hack_rf_new\lvgl\src/lv_widgets\lv_slider.h **** {
 165:d:\_project\stm32\f407\hack_rf_new\lvgl\src/lv_widgets\lv_slider.h ****     return lv_bar_get_min_value(slider);
 166:d:\_project\stm32\f407\hack_rf_new\lvgl\src/lv_widgets\lv_slider.h **** }
 167:d:\_project\stm32\f407\hack_rf_new\lvgl\src/lv_widgets\lv_slider.h **** 
 168:d:\_project\stm32\f407\hack_rf_new\lvgl\src/lv_widgets\lv_slider.h **** /**
 169:d:\_project\stm32\f407\hack_rf_new\lvgl\src/lv_widgets\lv_slider.h ****  * Get the maximum value of a slider
 170:d:\_project\stm32\f407\hack_rf_new\lvgl\src/lv_widgets\lv_slider.h ****  * @param slider pointer to a slider object
 171:d:\_project\stm32\f407\hack_rf_new\lvgl\src/lv_widgets\lv_slider.h ****  * @return the maximum value of the slider
 172:d:\_project\stm32\f407\hack_rf_new\lvgl\src/lv_widgets\lv_slider.h ****  */
 173:d:\_project\stm32\f407\hack_rf_new\lvgl\src/lv_widgets\lv_slider.h **** static inline int16_t lv_slider_get_max_value(const lv_obj_t * slider)
 174:d:\_project\stm32\f407\hack_rf_new\lvgl\src/lv_widgets\lv_slider.h **** {
 175:d:\_project\stm32\f407\hack_rf_new\lvgl\src/lv_widgets\lv_slider.h ****     return lv_bar_get_max_value(slider);
 176:d:\_project\stm32\f407\hack_rf_new\lvgl\src/lv_widgets\lv_slider.h **** }
 177:d:\_project\stm32\f407\hack_rf_new\lvgl\src/lv_widgets\lv_slider.h **** 
 178:d:\_project\stm32\f407\hack_rf_new\lvgl\src/lv_widgets\lv_slider.h **** /**
 179:d:\_project\stm32\f407\hack_rf_new\lvgl\src/lv_widgets\lv_slider.h ****  * Give the slider is being dragged or not
 180:d:\_project\stm32\f407\hack_rf_new\lvgl\src/lv_widgets\lv_slider.h ****  * @param slider pointer to a slider object
ARM GAS  D:\Temp\ccBnYEXJ.s 			page 28


 181:d:\_project\stm32\f407\hack_rf_new\lvgl\src/lv_widgets\lv_slider.h ****  * @return true: drag in progress false: not dragged
 182:d:\_project\stm32\f407\hack_rf_new\lvgl\src/lv_widgets\lv_slider.h ****  */
 183:d:\_project\stm32\f407\hack_rf_new\lvgl\src/lv_widgets\lv_slider.h **** bool lv_slider_is_dragged(const lv_obj_t * slider);
 184:d:\_project\stm32\f407\hack_rf_new\lvgl\src/lv_widgets\lv_slider.h **** 
 185:d:\_project\stm32\f407\hack_rf_new\lvgl\src/lv_widgets\lv_slider.h **** /**
 186:d:\_project\stm32\f407\hack_rf_new\lvgl\src/lv_widgets\lv_slider.h ****  * Get the animation time of the slider
 187:d:\_project\stm32\f407\hack_rf_new\lvgl\src/lv_widgets\lv_slider.h ****  * @param slider pointer to a slider object
 188:d:\_project\stm32\f407\hack_rf_new\lvgl\src/lv_widgets\lv_slider.h ****  * @return the animation time in milliseconds.
 189:d:\_project\stm32\f407\hack_rf_new\lvgl\src/lv_widgets\lv_slider.h ****  */
 190:d:\_project\stm32\f407\hack_rf_new\lvgl\src/lv_widgets\lv_slider.h **** static inline uint16_t lv_slider_get_anim_time(lv_obj_t * slider)
 191:d:\_project\stm32\f407\hack_rf_new\lvgl\src/lv_widgets\lv_slider.h **** {
 192:d:\_project\stm32\f407\hack_rf_new\lvgl\src/lv_widgets\lv_slider.h ****     return lv_bar_get_anim_time(slider);
 193:d:\_project\stm32\f407\hack_rf_new\lvgl\src/lv_widgets\lv_slider.h **** }
 194:d:\_project\stm32\f407\hack_rf_new\lvgl\src/lv_widgets\lv_slider.h **** 
 195:d:\_project\stm32\f407\hack_rf_new\lvgl\src/lv_widgets\lv_slider.h **** /**
 196:d:\_project\stm32\f407\hack_rf_new\lvgl\src/lv_widgets\lv_slider.h ****  * Get whether the slider is symmetric or not.
 197:d:\_project\stm32\f407\hack_rf_new\lvgl\src/lv_widgets\lv_slider.h ****  * @param slider pointer to a bar object
 198:d:\_project\stm32\f407\hack_rf_new\lvgl\src/lv_widgets\lv_slider.h ****  * @return true: symmetric is enabled; false: disable
 199:d:\_project\stm32\f407\hack_rf_new\lvgl\src/lv_widgets\lv_slider.h ****  */
 200:d:\_project\stm32\f407\hack_rf_new\lvgl\src/lv_widgets\lv_slider.h **** static inline lv_slider_type_t lv_slider_get_type(lv_obj_t * slider)
 372              		.loc 4 200 32 view .LVU66
 373              	.LBB208:
 201:d:\_project\stm32\f407\hack_rf_new\lvgl\src/lv_widgets\lv_slider.h **** {
 202:d:\_project\stm32\f407\hack_rf_new\lvgl\src/lv_widgets\lv_slider.h ****     lv_bar_type_t type = lv_bar_get_type(slider);
 374              		.loc 4 202 5 view .LVU67
 375              		.loc 4 202 26 is_stmt 0 view .LVU68
 376 000c FFF7FEFF 		bl	lv_bar_get_type
 377              	.LVL42:
 203:d:\_project\stm32\f407\hack_rf_new\lvgl\src/lv_widgets\lv_slider.h ****     if(type == LV_BAR_TYPE_SYMMETRICAL)
 378              		.loc 4 203 5 is_stmt 1 view .LVU69
 379              		.loc 4 203 7 is_stmt 0 view .LVU70
 380 0010 0128     		cmp	r0, #1
 381 0012 13D0     		beq	.L28
 204:d:\_project\stm32\f407\hack_rf_new\lvgl\src/lv_widgets\lv_slider.h ****         return LV_SLIDER_TYPE_SYMMETRICAL;
 205:d:\_project\stm32\f407\hack_rf_new\lvgl\src/lv_widgets\lv_slider.h ****     else if(type == LV_BAR_TYPE_CUSTOM)
 382              		.loc 4 205 10 is_stmt 1 view .LVU71
 383              		.loc 4 205 12 is_stmt 0 view .LVU72
 384 0014 0228     		cmp	r0, #2
 385 0016 11D0     		beq	.L28
 206:d:\_project\stm32\f407\hack_rf_new\lvgl\src/lv_widgets\lv_slider.h ****         return LV_SLIDER_TYPE_RANGE;
 207:d:\_project\stm32\f407\hack_rf_new\lvgl\src/lv_widgets\lv_slider.h ****     else
 208:d:\_project\stm32\f407\hack_rf_new\lvgl\src/lv_widgets\lv_slider.h ****         return LV_SLIDER_TYPE_NORMAL;
 386              		.loc 4 208 9 is_stmt 1 view .LVU73
 387              	.LVL43:
 388              		.loc 4 208 9 is_stmt 0 view .LVU74
 389              	.LBE208:
 390              	.LBE207:
 391              	.LBB209:
 549:lv_examples/src/lv_demo_widgets/lv_demo_widgets.c ****             lv_snprintf(buf, sizeof(buf), "%d", lv_slider_get_value(slider));
 392              		.loc 1 549 13 is_stmt 1 view .LVU75
 550:lv_examples/src/lv_demo_widgets/lv_demo_widgets.c ****             lv_obj_set_style_local_value_str(slider, LV_SLIDER_PART_KNOB, LV_STATE_DEFAULT, buf);
 393              		.loc 1 550 13 view .LVU76
 550:lv_examples/src/lv_demo_widgets/lv_demo_widgets.c ****             lv_obj_set_style_local_value_str(slider, LV_SLIDER_PART_KNOB, LV_STATE_DEFAULT, buf);
 394              		.loc 1 550 49 is_stmt 0 view .LVU77
 395 0018 2046     		mov	r0, r4
 396 001a FFF7FEFF 		bl	lv_slider_get_value
 397              	.LVL44:
ARM GAS  D:\Temp\ccBnYEXJ.s 			page 29


 550:lv_examples/src/lv_demo_widgets/lv_demo_widgets.c ****             lv_obj_set_style_local_value_str(slider, LV_SLIDER_PART_KNOB, LV_STATE_DEFAULT, buf);
 398              		.loc 1 550 13 view .LVU78
 399 001e 124D     		ldr	r5, .L34
 400 0020 0346     		mov	r3, r0
 401 0022 124A     		ldr	r2, .L34+4
 402 0024 1021     		movs	r1, #16
 403 0026 2846     		mov	r0, r5
 404 0028 FFF7FEFF 		bl	lv_snprintf
 405              	.LVL45:
 551:lv_examples/src/lv_demo_widgets/lv_demo_widgets.c ****         } else {
 406              		.loc 1 551 13 is_stmt 1 view .LVU79
 407              	.LBB210:
 408              	.LBI210:
 409              		.file 5 "d:\\_project\\stm32\\f407\\hack_rf_new\\lvgl\\src/lv_core/lv_obj_style_dec.h"
   1:d:\_project\stm32\f407\hack_rf_new\lvgl\src/lv_core\lv_obj_style_dec.h **** 
   2:d:\_project\stm32\f407\hack_rf_new\lvgl\src/lv_core\lv_obj_style_dec.h **** /**
   3:d:\_project\stm32\f407\hack_rf_new\lvgl\src/lv_core\lv_obj_style_dec.h ****  * @file lv_obj_style_dec.h
   4:d:\_project\stm32\f407\hack_rf_new\lvgl\src/lv_core\lv_obj_style_dec.h ****  *
   5:d:\_project\stm32\f407\hack_rf_new\lvgl\src/lv_core\lv_obj_style_dec.h ****  */
   6:d:\_project\stm32\f407\hack_rf_new\lvgl\src/lv_core\lv_obj_style_dec.h **** 
   7:d:\_project\stm32\f407\hack_rf_new\lvgl\src/lv_core\lv_obj_style_dec.h **** #ifndef LV_OBJ_STYLE_DEC_H
   8:d:\_project\stm32\f407\hack_rf_new\lvgl\src/lv_core\lv_obj_style_dec.h **** #define LV_OBJ_STYLE_DEC_H
   9:d:\_project\stm32\f407\hack_rf_new\lvgl\src/lv_core\lv_obj_style_dec.h **** 
  10:d:\_project\stm32\f407\hack_rf_new\lvgl\src/lv_core\lv_obj_style_dec.h **** #ifdef __cplusplus
  11:d:\_project\stm32\f407\hack_rf_new\lvgl\src/lv_core\lv_obj_style_dec.h **** extern "C" {
  12:d:\_project\stm32\f407\hack_rf_new\lvgl\src/lv_core\lv_obj_style_dec.h **** #endif
  13:d:\_project\stm32\f407\hack_rf_new\lvgl\src/lv_core\lv_obj_style_dec.h **** 
  14:d:\_project\stm32\f407\hack_rf_new\lvgl\src/lv_core\lv_obj_style_dec.h **** /*********************
  15:d:\_project\stm32\f407\hack_rf_new\lvgl\src/lv_core\lv_obj_style_dec.h ****  *      DEFINES
  16:d:\_project\stm32\f407\hack_rf_new\lvgl\src/lv_core\lv_obj_style_dec.h ****  *********************/
  17:d:\_project\stm32\f407\hack_rf_new\lvgl\src/lv_core\lv_obj_style_dec.h **** 
  18:d:\_project\stm32\f407\hack_rf_new\lvgl\src/lv_core\lv_obj_style_dec.h **** /**
  19:d:\_project\stm32\f407\hack_rf_new\lvgl\src/lv_core\lv_obj_style_dec.h ****  * Macro to declare the most important style set/get API functions.
  20:d:\_project\stm32\f407\hack_rf_new\lvgl\src/lv_core\lv_obj_style_dec.h ****  *
  21:d:\_project\stm32\f407\hack_rf_new\lvgl\src/lv_core\lv_obj_style_dec.h ****  * Get the value of a style property from an object in the object's current state
  22:d:\_project\stm32\f407\hack_rf_new\lvgl\src/lv_core\lv_obj_style_dec.h ****  * -----------------------------------------------------------------------------
  23:d:\_project\stm32\f407\hack_rf_new\lvgl\src/lv_core\lv_obj_style_dec.h ****  *  - Get the value of a style property from an object in the object's current state.
  24:d:\_project\stm32\f407\hack_rf_new\lvgl\src/lv_core\lv_obj_style_dec.h ****  *  - Transition animation is taken into account.
  25:d:\_project\stm32\f407\hack_rf_new\lvgl\src/lv_core\lv_obj_style_dec.h ****  *  - If the property is not set in the object's styles check the parent(s) if the property can be 
  26:d:\_project\stm32\f407\hack_rf_new\lvgl\src/lv_core\lv_obj_style_dec.h ****  *  - If still not found return a default value.
  27:d:\_project\stm32\f407\hack_rf_new\lvgl\src/lv_core\lv_obj_style_dec.h ****  *  - For example:
  28:d:\_project\stm32\f407\hack_rf_new\lvgl\src/lv_core\lv_obj_style_dec.h ****  *      `lv_style_int_t w = lv_obj_get_style_border_width(btn1, LV_BTN_PART_MAIN);`
  29:d:\_project\stm32\f407\hack_rf_new\lvgl\src/lv_core\lv_obj_style_dec.h ****  *
  30:d:\_project\stm32\f407\hack_rf_new\lvgl\src/lv_core\lv_obj_style_dec.h ****  * Set a local style property for an object in a given state
  31:d:\_project\stm32\f407\hack_rf_new\lvgl\src/lv_core\lv_obj_style_dec.h ****  * ---------------------------------------------------------
  32:d:\_project\stm32\f407\hack_rf_new\lvgl\src/lv_core\lv_obj_style_dec.h ****  *  - For example:
  33:d:\_project\stm32\f407\hack_rf_new\lvgl\src/lv_core\lv_obj_style_dec.h ****  *      `lv_obj_set_style_local_border_width(btn1, LV_BTN_PART_MAIN, LV_STATE_PRESSED, 2);`
  34:d:\_project\stm32\f407\hack_rf_new\lvgl\src/lv_core\lv_obj_style_dec.h ****  *
  35:d:\_project\stm32\f407\hack_rf_new\lvgl\src/lv_core\lv_obj_style_dec.h ****  * Get a local style property's value of an object in a given state
  36:d:\_project\stm32\f407\hack_rf_new\lvgl\src/lv_core\lv_obj_style_dec.h ****  * ----------------------------------------------------------------
  37:d:\_project\stm32\f407\hack_rf_new\lvgl\src/lv_core\lv_obj_style_dec.h ****  *  - Return the best matching property in the given state.
  38:d:\_project\stm32\f407\hack_rf_new\lvgl\src/lv_core\lv_obj_style_dec.h ****  *  - E.g. if `state` parameter is LV_STATE_PRESSED | LV_STATE_CHECKED` but the property defined on
  39:d:\_project\stm32\f407\hack_rf_new\lvgl\src/lv_core\lv_obj_style_dec.h ****  *    `LV_STATE_PRESSED` and `LV_STATE_DEFAULT` the best matching state is `LV_STATE_PRESSED`
  40:d:\_project\stm32\f407\hack_rf_new\lvgl\src/lv_core\lv_obj_style_dec.h ****  *    (because it has higher precedence) and it will be returned.
  41:d:\_project\stm32\f407\hack_rf_new\lvgl\src/lv_core\lv_obj_style_dec.h ****  *  - If the property is not found even in `LV_STATE_DEFAULT` `-1` is returned.
  42:d:\_project\stm32\f407\hack_rf_new\lvgl\src/lv_core\lv_obj_style_dec.h ****  *  - For example:
  43:d:\_project\stm32\f407\hack_rf_new\lvgl\src/lv_core\lv_obj_style_dec.h ****  *      `//Type of result should be lv_style_int_t/lv_opa_t/lv_color_t/const void * according to th
ARM GAS  D:\Temp\ccBnYEXJ.s 			page 30


  44:d:\_project\stm32\f407\hack_rf_new\lvgl\src/lv_core\lv_obj_style_dec.h ****  *      `lv_style_int_t result;`
  45:d:\_project\stm32\f407\hack_rf_new\lvgl\src/lv_core\lv_obj_style_dec.h ****  *      `lv_obj_get_style_local_border_width(btn1, LV_BTN_PART_MAIN, LV_STATE_PRESSED, &result);`
  46:d:\_project\stm32\f407\hack_rf_new\lvgl\src/lv_core\lv_obj_style_dec.h ****  *      `if(weight > 0) ...the property is found and loaded into result...`
  47:d:\_project\stm32\f407\hack_rf_new\lvgl\src/lv_core\lv_obj_style_dec.h ****  *
  48:d:\_project\stm32\f407\hack_rf_new\lvgl\src/lv_core\lv_obj_style_dec.h ****  * Get the value from a style in a given state
  49:d:\_project\stm32\f407\hack_rf_new\lvgl\src/lv_core\lv_obj_style_dec.h ****  * -------------------------------------------
  50:d:\_project\stm32\f407\hack_rf_new\lvgl\src/lv_core\lv_obj_style_dec.h ****  * - The same rules applies to the return value then for "lv_obj_get_style_local_...()" above
  51:d:\_project\stm32\f407\hack_rf_new\lvgl\src/lv_core\lv_obj_style_dec.h ****  * - For example
  52:d:\_project\stm32\f407\hack_rf_new\lvgl\src/lv_core\lv_obj_style_dec.h ****  *      `int16_t weight = lv_style_get_border_width(&style1, LV_STATE_PRESSED, &result);`
  53:d:\_project\stm32\f407\hack_rf_new\lvgl\src/lv_core\lv_obj_style_dec.h ****  *      `if(weight > 0) ...the property is found and loaded into result...`
  54:d:\_project\stm32\f407\hack_rf_new\lvgl\src/lv_core\lv_obj_style_dec.h **** 
  55:d:\_project\stm32\f407\hack_rf_new\lvgl\src/lv_core\lv_obj_style_dec.h ****  * Set a value in a style in a given state
  56:d:\_project\stm32\f407\hack_rf_new\lvgl\src/lv_core\lv_obj_style_dec.h ****  * ---------------------------------------
  57:d:\_project\stm32\f407\hack_rf_new\lvgl\src/lv_core\lv_obj_style_dec.h ****  * - For example
  58:d:\_project\stm32\f407\hack_rf_new\lvgl\src/lv_core\lv_obj_style_dec.h ****  *      `lv_style_set_border_width(&style1, LV_STATE_PRESSED, 2);`
  59:d:\_project\stm32\f407\hack_rf_new\lvgl\src/lv_core\lv_obj_style_dec.h ****  */
  60:d:\_project\stm32\f407\hack_rf_new\lvgl\src/lv_core\lv_obj_style_dec.h **** 
  61:d:\_project\stm32\f407\hack_rf_new\lvgl\src/lv_core\lv_obj_style_dec.h **** #define _OBJ_GET_STYLE_scalar(prop_name, func_name, value_type, style_type)                        
  62:d:\_project\stm32\f407\hack_rf_new\lvgl\src/lv_core\lv_obj_style_dec.h ****     static inline value_type lv_obj_get_style_##func_name (const lv_obj_t * obj, uint8_t part)     
  63:d:\_project\stm32\f407\hack_rf_new\lvgl\src/lv_core\lv_obj_style_dec.h ****     {                                                                                              
  64:d:\_project\stm32\f407\hack_rf_new\lvgl\src/lv_core\lv_obj_style_dec.h ****         return (value_type) _lv_obj_get_style##style_type (obj, part, LV_STYLE_##prop_name);       
  65:d:\_project\stm32\f407\hack_rf_new\lvgl\src/lv_core\lv_obj_style_dec.h ****     }
  66:d:\_project\stm32\f407\hack_rf_new\lvgl\src/lv_core\lv_obj_style_dec.h **** 
  67:d:\_project\stm32\f407\hack_rf_new\lvgl\src/lv_core\lv_obj_style_dec.h **** #define _OBJ_GET_STYLE_nonscalar(prop_name, func_name, value_type, style_type)                     
  68:d:\_project\stm32\f407\hack_rf_new\lvgl\src/lv_core\lv_obj_style_dec.h ****     static inline value_type lv_obj_get_style_##func_name (const lv_obj_t * obj, uint8_t part)     
  69:d:\_project\stm32\f407\hack_rf_new\lvgl\src/lv_core\lv_obj_style_dec.h ****     {                                                                                              
  70:d:\_project\stm32\f407\hack_rf_new\lvgl\src/lv_core\lv_obj_style_dec.h ****         return _lv_obj_get_style##style_type (obj, part, LV_STYLE_##prop_name);                    
  71:d:\_project\stm32\f407\hack_rf_new\lvgl\src/lv_core\lv_obj_style_dec.h ****     }
  72:d:\_project\stm32\f407\hack_rf_new\lvgl\src/lv_core\lv_obj_style_dec.h **** 
  73:d:\_project\stm32\f407\hack_rf_new\lvgl\src/lv_core\lv_obj_style_dec.h **** #define _OBJ_SET_STYLE_LOCAL_scalar(prop_name, func_name, value_type, style_type)                  
  74:d:\_project\stm32\f407\hack_rf_new\lvgl\src/lv_core\lv_obj_style_dec.h ****     static inline void lv_obj_set_style_local_##func_name (lv_obj_t * obj, uint8_t part, lv_state_t
  75:d:\_project\stm32\f407\hack_rf_new\lvgl\src/lv_core\lv_obj_style_dec.h ****     {                                                                                              
  76:d:\_project\stm32\f407\hack_rf_new\lvgl\src/lv_core\lv_obj_style_dec.h ****         _lv_obj_set_style_local##style_type (obj, part, LV_STYLE_##prop_name | (state << LV_STYLE_S
  77:d:\_project\stm32\f407\hack_rf_new\lvgl\src/lv_core\lv_obj_style_dec.h ****     }
  78:d:\_project\stm32\f407\hack_rf_new\lvgl\src/lv_core\lv_obj_style_dec.h **** 
  79:d:\_project\stm32\f407\hack_rf_new\lvgl\src/lv_core\lv_obj_style_dec.h **** #define _OBJ_SET_STYLE_LOCAL_nonscalar(prop_name, func_name, value_type, style_type)               
  80:d:\_project\stm32\f407\hack_rf_new\lvgl\src/lv_core\lv_obj_style_dec.h ****     static inline void lv_obj_set_style_local_##func_name (lv_obj_t * obj, uint8_t part, lv_state_t
  81:d:\_project\stm32\f407\hack_rf_new\lvgl\src/lv_core\lv_obj_style_dec.h ****     {                                                                                              
  82:d:\_project\stm32\f407\hack_rf_new\lvgl\src/lv_core\lv_obj_style_dec.h ****         _lv_obj_set_style_local##style_type (obj, part, LV_STYLE_##prop_name | (state << LV_STYLE_S
  83:d:\_project\stm32\f407\hack_rf_new\lvgl\src/lv_core\lv_obj_style_dec.h ****     }
  84:d:\_project\stm32\f407\hack_rf_new\lvgl\src/lv_core\lv_obj_style_dec.h **** 
  85:d:\_project\stm32\f407\hack_rf_new\lvgl\src/lv_core\lv_obj_style_dec.h **** #define _OBJ_SET_STYLE_scalar(prop_name, func_name, value_type, style_type)                        
  86:d:\_project\stm32\f407\hack_rf_new\lvgl\src/lv_core\lv_obj_style_dec.h ****     static inline void lv_style_set_##func_name (lv_style_t * style, lv_state_t state, value_type v
  87:d:\_project\stm32\f407\hack_rf_new\lvgl\src/lv_core\lv_obj_style_dec.h ****     {                                                                                              
  88:d:\_project\stm32\f407\hack_rf_new\lvgl\src/lv_core\lv_obj_style_dec.h ****         _lv_style_set##style_type (style, LV_STYLE_##prop_name | (state << LV_STYLE_STATE_POS), val
  89:d:\_project\stm32\f407\hack_rf_new\lvgl\src/lv_core\lv_obj_style_dec.h ****     }
  90:d:\_project\stm32\f407\hack_rf_new\lvgl\src/lv_core\lv_obj_style_dec.h **** 
  91:d:\_project\stm32\f407\hack_rf_new\lvgl\src/lv_core\lv_obj_style_dec.h **** #define _OBJ_SET_STYLE_nonscalar(prop_name, func_name, value_type, style_type)                     
  92:d:\_project\stm32\f407\hack_rf_new\lvgl\src/lv_core\lv_obj_style_dec.h ****     static inline void lv_style_set_##func_name (lv_style_t * style, lv_state_t state, value_type v
  93:d:\_project\stm32\f407\hack_rf_new\lvgl\src/lv_core\lv_obj_style_dec.h ****     {                                                                                              
  94:d:\_project\stm32\f407\hack_rf_new\lvgl\src/lv_core\lv_obj_style_dec.h ****         _lv_style_set##style_type (style, LV_STYLE_##prop_name | (state << LV_STYLE_STATE_POS), val
  95:d:\_project\stm32\f407\hack_rf_new\lvgl\src/lv_core\lv_obj_style_dec.h ****     }
  96:d:\_project\stm32\f407\hack_rf_new\lvgl\src/lv_core\lv_obj_style_dec.h **** 
  97:d:\_project\stm32\f407\hack_rf_new\lvgl\src/lv_core\lv_obj_style_dec.h **** #define _LV_OBJ_STYLE_SET_GET_DECLARE(prop_name, func_name, value_type, style_type, scalar)        
  98:d:\_project\stm32\f407\hack_rf_new\lvgl\src/lv_core\lv_obj_style_dec.h ****     _OBJ_GET_STYLE_##scalar(prop_name, func_name, value_type, style_type)                          
  99:d:\_project\stm32\f407\hack_rf_new\lvgl\src/lv_core\lv_obj_style_dec.h ****     _OBJ_SET_STYLE_LOCAL_##scalar(prop_name, func_name, value_type, style_type)                    
 100:d:\_project\stm32\f407\hack_rf_new\lvgl\src/lv_core\lv_obj_style_dec.h ****     _OBJ_SET_STYLE_##scalar(prop_name, func_name, value_type, style_type)
ARM GAS  D:\Temp\ccBnYEXJ.s 			page 31


 101:d:\_project\stm32\f407\hack_rf_new\lvgl\src/lv_core\lv_obj_style_dec.h **** 
 102:d:\_project\stm32\f407\hack_rf_new\lvgl\src/lv_core\lv_obj_style_dec.h **** _LV_OBJ_STYLE_SET_GET_DECLARE(RADIUS, radius, lv_style_int_t, _int, scalar)
 103:d:\_project\stm32\f407\hack_rf_new\lvgl\src/lv_core\lv_obj_style_dec.h **** _LV_OBJ_STYLE_SET_GET_DECLARE(CLIP_CORNER, clip_corner, bool, _int, scalar)
 104:d:\_project\stm32\f407\hack_rf_new\lvgl\src/lv_core\lv_obj_style_dec.h **** _LV_OBJ_STYLE_SET_GET_DECLARE(SIZE, size, lv_style_int_t, _int, scalar)
 105:d:\_project\stm32\f407\hack_rf_new\lvgl\src/lv_core\lv_obj_style_dec.h **** _LV_OBJ_STYLE_SET_GET_DECLARE(TRANSFORM_WIDTH, transform_width, lv_style_int_t, _int, scalar)
 106:d:\_project\stm32\f407\hack_rf_new\lvgl\src/lv_core\lv_obj_style_dec.h **** _LV_OBJ_STYLE_SET_GET_DECLARE(TRANSFORM_HEIGHT, transform_height, lv_style_int_t, _int, scalar)
 107:d:\_project\stm32\f407\hack_rf_new\lvgl\src/lv_core\lv_obj_style_dec.h **** _LV_OBJ_STYLE_SET_GET_DECLARE(TRANSFORM_ANGLE, transform_angle, lv_style_int_t, _int, scalar)
 108:d:\_project\stm32\f407\hack_rf_new\lvgl\src/lv_core\lv_obj_style_dec.h **** _LV_OBJ_STYLE_SET_GET_DECLARE(TRANSFORM_ZOOM, transform_zoom, lv_style_int_t, _int, scalar)
 109:d:\_project\stm32\f407\hack_rf_new\lvgl\src/lv_core\lv_obj_style_dec.h **** _LV_OBJ_STYLE_SET_GET_DECLARE(OPA_SCALE, opa_scale, lv_opa_t, _opa, scalar)
 110:d:\_project\stm32\f407\hack_rf_new\lvgl\src/lv_core\lv_obj_style_dec.h **** _LV_OBJ_STYLE_SET_GET_DECLARE(PAD_TOP, pad_top, lv_style_int_t, _int, scalar)
 111:d:\_project\stm32\f407\hack_rf_new\lvgl\src/lv_core\lv_obj_style_dec.h **** _LV_OBJ_STYLE_SET_GET_DECLARE(PAD_BOTTOM, pad_bottom, lv_style_int_t, _int, scalar)
 112:d:\_project\stm32\f407\hack_rf_new\lvgl\src/lv_core\lv_obj_style_dec.h **** _LV_OBJ_STYLE_SET_GET_DECLARE(PAD_LEFT, pad_left, lv_style_int_t, _int, scalar)
 113:d:\_project\stm32\f407\hack_rf_new\lvgl\src/lv_core\lv_obj_style_dec.h **** _LV_OBJ_STYLE_SET_GET_DECLARE(PAD_RIGHT, pad_right, lv_style_int_t, _int, scalar)
 114:d:\_project\stm32\f407\hack_rf_new\lvgl\src/lv_core\lv_obj_style_dec.h **** _LV_OBJ_STYLE_SET_GET_DECLARE(PAD_INNER, pad_inner, lv_style_int_t, _int, scalar)
 115:d:\_project\stm32\f407\hack_rf_new\lvgl\src/lv_core\lv_obj_style_dec.h **** _LV_OBJ_STYLE_SET_GET_DECLARE(MARGIN_TOP, margin_top, lv_style_int_t, _int, scalar)
 116:d:\_project\stm32\f407\hack_rf_new\lvgl\src/lv_core\lv_obj_style_dec.h **** _LV_OBJ_STYLE_SET_GET_DECLARE(MARGIN_BOTTOM, margin_bottom, lv_style_int_t, _int, scalar)
 117:d:\_project\stm32\f407\hack_rf_new\lvgl\src/lv_core\lv_obj_style_dec.h **** _LV_OBJ_STYLE_SET_GET_DECLARE(MARGIN_LEFT, margin_left, lv_style_int_t, _int, scalar)
 118:d:\_project\stm32\f407\hack_rf_new\lvgl\src/lv_core\lv_obj_style_dec.h **** _LV_OBJ_STYLE_SET_GET_DECLARE(MARGIN_RIGHT, margin_right, lv_style_int_t, _int, scalar)
 119:d:\_project\stm32\f407\hack_rf_new\lvgl\src/lv_core\lv_obj_style_dec.h **** _LV_OBJ_STYLE_SET_GET_DECLARE(BG_BLEND_MODE, bg_blend_mode, lv_blend_mode_t, _int, scalar)
 120:d:\_project\stm32\f407\hack_rf_new\lvgl\src/lv_core\lv_obj_style_dec.h **** _LV_OBJ_STYLE_SET_GET_DECLARE(BG_MAIN_STOP, bg_main_stop, lv_style_int_t, _int, scalar)
 121:d:\_project\stm32\f407\hack_rf_new\lvgl\src/lv_core\lv_obj_style_dec.h **** _LV_OBJ_STYLE_SET_GET_DECLARE(BG_GRAD_STOP, bg_grad_stop, lv_style_int_t, _int, scalar)
 122:d:\_project\stm32\f407\hack_rf_new\lvgl\src/lv_core\lv_obj_style_dec.h **** _LV_OBJ_STYLE_SET_GET_DECLARE(BG_GRAD_DIR, bg_grad_dir, lv_grad_dir_t, _int, scalar)
 123:d:\_project\stm32\f407\hack_rf_new\lvgl\src/lv_core\lv_obj_style_dec.h **** _LV_OBJ_STYLE_SET_GET_DECLARE(BG_COLOR, bg_color, lv_color_t, _color, nonscalar)
 124:d:\_project\stm32\f407\hack_rf_new\lvgl\src/lv_core\lv_obj_style_dec.h **** _LV_OBJ_STYLE_SET_GET_DECLARE(BG_GRAD_COLOR, bg_grad_color, lv_color_t, _color, nonscalar)
 125:d:\_project\stm32\f407\hack_rf_new\lvgl\src/lv_core\lv_obj_style_dec.h **** _LV_OBJ_STYLE_SET_GET_DECLARE(BG_OPA, bg_opa, lv_opa_t, _opa, scalar)
 126:d:\_project\stm32\f407\hack_rf_new\lvgl\src/lv_core\lv_obj_style_dec.h **** _LV_OBJ_STYLE_SET_GET_DECLARE(BORDER_WIDTH, border_width, lv_style_int_t, _int, scalar)
 127:d:\_project\stm32\f407\hack_rf_new\lvgl\src/lv_core\lv_obj_style_dec.h **** _LV_OBJ_STYLE_SET_GET_DECLARE(BORDER_SIDE, border_side, lv_border_side_t, _int, scalar)
 128:d:\_project\stm32\f407\hack_rf_new\lvgl\src/lv_core\lv_obj_style_dec.h **** _LV_OBJ_STYLE_SET_GET_DECLARE(BORDER_BLEND_MODE, border_blend_mode, lv_blend_mode_t, _int, scalar)
 129:d:\_project\stm32\f407\hack_rf_new\lvgl\src/lv_core\lv_obj_style_dec.h **** _LV_OBJ_STYLE_SET_GET_DECLARE(BORDER_POST, border_post, bool, _int, scalar)
 130:d:\_project\stm32\f407\hack_rf_new\lvgl\src/lv_core\lv_obj_style_dec.h **** _LV_OBJ_STYLE_SET_GET_DECLARE(BORDER_COLOR, border_color, lv_color_t, _color, nonscalar)
 131:d:\_project\stm32\f407\hack_rf_new\lvgl\src/lv_core\lv_obj_style_dec.h **** _LV_OBJ_STYLE_SET_GET_DECLARE(BORDER_OPA, border_opa, lv_opa_t, _opa, scalar)
 132:d:\_project\stm32\f407\hack_rf_new\lvgl\src/lv_core\lv_obj_style_dec.h **** _LV_OBJ_STYLE_SET_GET_DECLARE(OUTLINE_WIDTH, outline_width, lv_style_int_t, _int, scalar)
 133:d:\_project\stm32\f407\hack_rf_new\lvgl\src/lv_core\lv_obj_style_dec.h **** _LV_OBJ_STYLE_SET_GET_DECLARE(OUTLINE_PAD, outline_pad, lv_style_int_t, _int, scalar)
 134:d:\_project\stm32\f407\hack_rf_new\lvgl\src/lv_core\lv_obj_style_dec.h **** _LV_OBJ_STYLE_SET_GET_DECLARE(OUTLINE_BLEND_MODE, outline_blend_mode, lv_blend_mode_t, _int, scalar
 135:d:\_project\stm32\f407\hack_rf_new\lvgl\src/lv_core\lv_obj_style_dec.h **** _LV_OBJ_STYLE_SET_GET_DECLARE(OUTLINE_COLOR, outline_color, lv_color_t, _color, nonscalar)
 136:d:\_project\stm32\f407\hack_rf_new\lvgl\src/lv_core\lv_obj_style_dec.h **** _LV_OBJ_STYLE_SET_GET_DECLARE(OUTLINE_OPA, outline_opa, lv_opa_t, _opa, scalar)
 137:d:\_project\stm32\f407\hack_rf_new\lvgl\src/lv_core\lv_obj_style_dec.h **** _LV_OBJ_STYLE_SET_GET_DECLARE(SHADOW_WIDTH, shadow_width, lv_style_int_t, _int, scalar)
 138:d:\_project\stm32\f407\hack_rf_new\lvgl\src/lv_core\lv_obj_style_dec.h **** _LV_OBJ_STYLE_SET_GET_DECLARE(SHADOW_OFS_X, shadow_ofs_x, lv_style_int_t, _int, scalar)
 139:d:\_project\stm32\f407\hack_rf_new\lvgl\src/lv_core\lv_obj_style_dec.h **** _LV_OBJ_STYLE_SET_GET_DECLARE(SHADOW_OFS_Y, shadow_ofs_y, lv_style_int_t, _int, scalar)
 140:d:\_project\stm32\f407\hack_rf_new\lvgl\src/lv_core\lv_obj_style_dec.h **** _LV_OBJ_STYLE_SET_GET_DECLARE(SHADOW_SPREAD, shadow_spread, lv_style_int_t, _int, scalar)
 141:d:\_project\stm32\f407\hack_rf_new\lvgl\src/lv_core\lv_obj_style_dec.h **** _LV_OBJ_STYLE_SET_GET_DECLARE(SHADOW_BLEND_MODE, shadow_blend_mode, lv_blend_mode_t, _int, scalar)
 142:d:\_project\stm32\f407\hack_rf_new\lvgl\src/lv_core\lv_obj_style_dec.h **** _LV_OBJ_STYLE_SET_GET_DECLARE(SHADOW_COLOR, shadow_color, lv_color_t, _color, nonscalar)
 143:d:\_project\stm32\f407\hack_rf_new\lvgl\src/lv_core\lv_obj_style_dec.h **** _LV_OBJ_STYLE_SET_GET_DECLARE(SHADOW_OPA, shadow_opa, lv_opa_t, _opa, scalar)
 144:d:\_project\stm32\f407\hack_rf_new\lvgl\src/lv_core\lv_obj_style_dec.h **** _LV_OBJ_STYLE_SET_GET_DECLARE(PATTERN_REPEAT, pattern_repeat, bool, _int, scalar)
 145:d:\_project\stm32\f407\hack_rf_new\lvgl\src/lv_core\lv_obj_style_dec.h **** _LV_OBJ_STYLE_SET_GET_DECLARE(PATTERN_BLEND_MODE, pattern_blend_mode, lv_blend_mode_t, _int, scalar
 146:d:\_project\stm32\f407\hack_rf_new\lvgl\src/lv_core\lv_obj_style_dec.h **** _LV_OBJ_STYLE_SET_GET_DECLARE(PATTERN_RECOLOR, pattern_recolor, lv_color_t, _color, nonscalar)
 147:d:\_project\stm32\f407\hack_rf_new\lvgl\src/lv_core\lv_obj_style_dec.h **** _LV_OBJ_STYLE_SET_GET_DECLARE(PATTERN_OPA, pattern_opa, lv_opa_t, _opa, scalar)
 148:d:\_project\stm32\f407\hack_rf_new\lvgl\src/lv_core\lv_obj_style_dec.h **** _LV_OBJ_STYLE_SET_GET_DECLARE(PATTERN_RECOLOR_OPA, pattern_recolor_opa, lv_opa_t, _opa, scalar)
 149:d:\_project\stm32\f407\hack_rf_new\lvgl\src/lv_core\lv_obj_style_dec.h **** _LV_OBJ_STYLE_SET_GET_DECLARE(PATTERN_IMAGE, pattern_image, const void *, _ptr, scalar)
 150:d:\_project\stm32\f407\hack_rf_new\lvgl\src/lv_core\lv_obj_style_dec.h **** _LV_OBJ_STYLE_SET_GET_DECLARE(VALUE_LETTER_SPACE, value_letter_space, lv_style_int_t, _int, scalar)
 151:d:\_project\stm32\f407\hack_rf_new\lvgl\src/lv_core\lv_obj_style_dec.h **** _LV_OBJ_STYLE_SET_GET_DECLARE(VALUE_LINE_SPACE, value_line_space, lv_style_int_t, _int, scalar)
 152:d:\_project\stm32\f407\hack_rf_new\lvgl\src/lv_core\lv_obj_style_dec.h **** _LV_OBJ_STYLE_SET_GET_DECLARE(VALUE_BLEND_MODE, value_blend_mode, lv_blend_mode_t, _int, scalar)
 153:d:\_project\stm32\f407\hack_rf_new\lvgl\src/lv_core\lv_obj_style_dec.h **** _LV_OBJ_STYLE_SET_GET_DECLARE(VALUE_OFS_X, value_ofs_x, lv_style_int_t, _int, scalar)
 154:d:\_project\stm32\f407\hack_rf_new\lvgl\src/lv_core\lv_obj_style_dec.h **** _LV_OBJ_STYLE_SET_GET_DECLARE(VALUE_OFS_Y, value_ofs_y, lv_style_int_t, _int, scalar)
 155:d:\_project\stm32\f407\hack_rf_new\lvgl\src/lv_core\lv_obj_style_dec.h **** _LV_OBJ_STYLE_SET_GET_DECLARE(VALUE_ALIGN, value_align, lv_align_t, _int, scalar)
 156:d:\_project\stm32\f407\hack_rf_new\lvgl\src/lv_core\lv_obj_style_dec.h **** _LV_OBJ_STYLE_SET_GET_DECLARE(VALUE_COLOR, value_color, lv_color_t, _color, nonscalar)
 157:d:\_project\stm32\f407\hack_rf_new\lvgl\src/lv_core\lv_obj_style_dec.h **** _LV_OBJ_STYLE_SET_GET_DECLARE(VALUE_OPA, value_opa, lv_opa_t, _opa, scalar)
ARM GAS  D:\Temp\ccBnYEXJ.s 			page 32


 158:d:\_project\stm32\f407\hack_rf_new\lvgl\src/lv_core\lv_obj_style_dec.h **** _LV_OBJ_STYLE_SET_GET_DECLARE(VALUE_FONT, value_font, const lv_font_t *, _ptr, scalar)
 159:d:\_project\stm32\f407\hack_rf_new\lvgl\src/lv_core\lv_obj_style_dec.h **** _LV_OBJ_STYLE_SET_GET_DECLARE(VALUE_STR, value_str, const char *, _ptr, scalar)
 410              		.loc 5 159 1 view .LVU80
 411              	.LBB211:
 412              		.loc 5 159 1 view .LVU81
 413 002c 2B46     		mov	r3, r5
 414 002e 7F22     		movs	r2, #127
 415 0030 0221     		movs	r1, #2
 416 0032 2046     		mov	r0, r4
 417 0034 FFF7FEFF 		bl	_lv_obj_set_style_local_ptr
 418              	.LVL46:
 419              	.L26:
 420              		.loc 5 159 1 is_stmt 0 view .LVU82
 421              	.LBE211:
 422              	.LBE210:
 423              	.LBE209:
 560:lv_examples/src/lv_demo_widgets/lv_demo_widgets.c **** 
 424              		.loc 1 560 1 view .LVU83
 425 0038 02B0     		add	sp, sp, #8
 426              	.LCFI8:
 427              		.cfi_remember_state
 428              		.cfi_def_cfa_offset 16
 429              		@ sp needed
 430 003a 70BD     		pop	{r4, r5, r6, pc}
 431              	.LVL47:
 432              	.L28:
 433              	.LCFI9:
 434              		.cfi_restore_state
 435              	.LBB212:
 553:lv_examples/src/lv_demo_widgets/lv_demo_widgets.c ****             lv_snprintf(buf, sizeof(buf), "%d-%d", lv_slider_get_left_value(slider), lv_slider_get_
 436              		.loc 1 553 13 is_stmt 1 view .LVU84
 554:lv_examples/src/lv_demo_widgets/lv_demo_widgets.c ****             lv_obj_set_style_local_value_str(slider, LV_SLIDER_PART_INDIC, LV_STATE_DEFAULT, buf);
 437              		.loc 1 554 13 view .LVU85
 438              	.LBB213:
 439              	.LBI213:
 153:d:\_project\stm32\f407\hack_rf_new\lvgl\src/lv_widgets\lv_slider.h **** {
 440              		.loc 4 153 23 view .LVU86
 441              	.LBB214:
 155:d:\_project\stm32\f407\hack_rf_new\lvgl\src/lv_widgets\lv_slider.h **** }
 442              		.loc 4 155 5 view .LVU87
 155:d:\_project\stm32\f407\hack_rf_new\lvgl\src/lv_widgets\lv_slider.h **** }
 443              		.loc 4 155 12 is_stmt 0 view .LVU88
 444 003c 2046     		mov	r0, r4
 445              	.LVL48:
 155:d:\_project\stm32\f407\hack_rf_new\lvgl\src/lv_widgets\lv_slider.h **** }
 446              		.loc 4 155 12 view .LVU89
 447 003e FFF7FEFF 		bl	lv_bar_get_start_value
 448              	.LVL49:
 449 0042 0646     		mov	r6, r0
 450              	.LVL50:
 155:d:\_project\stm32\f407\hack_rf_new\lvgl\src/lv_widgets\lv_slider.h **** }
 451              		.loc 4 155 12 view .LVU90
 452              	.LBE214:
 453              	.LBE213:
 554:lv_examples/src/lv_demo_widgets/lv_demo_widgets.c ****             lv_obj_set_style_local_value_str(slider, LV_SLIDER_PART_INDIC, LV_STATE_DEFAULT, buf);
 454              		.loc 1 554 86 view .LVU91
 455 0044 2046     		mov	r0, r4
ARM GAS  D:\Temp\ccBnYEXJ.s 			page 33


 456 0046 FFF7FEFF 		bl	lv_slider_get_value
 457              	.LVL51:
 554:lv_examples/src/lv_demo_widgets/lv_demo_widgets.c ****             lv_obj_set_style_local_value_str(slider, LV_SLIDER_PART_INDIC, LV_STATE_DEFAULT, buf);
 458              		.loc 1 554 13 view .LVU92
 459 004a 094D     		ldr	r5, .L34+8
 460 004c 0090     		str	r0, [sp]
 461 004e 3346     		mov	r3, r6
 462 0050 084A     		ldr	r2, .L34+12
 463 0052 2021     		movs	r1, #32
 464 0054 2846     		mov	r0, r5
 465 0056 FFF7FEFF 		bl	lv_snprintf
 466              	.LVL52:
 555:lv_examples/src/lv_demo_widgets/lv_demo_widgets.c ****         }
 467              		.loc 1 555 13 is_stmt 1 view .LVU93
 468              	.LBB215:
 469              	.LBI215:
 470              		.loc 5 159 1 view .LVU94
 471              	.LBB216:
 472              		.loc 5 159 1 view .LVU95
 473 005a 2B46     		mov	r3, r5
 474 005c 7F22     		movs	r2, #127
 475 005e 0121     		movs	r1, #1
 476 0060 2046     		mov	r0, r4
 477 0062 FFF7FEFF 		bl	_lv_obj_set_style_local_ptr
 478              	.LVL53:
 479              	.LBE216:
 480              	.LBE215:
 481              	.LBE212:
 560:lv_examples/src/lv_demo_widgets/lv_demo_widgets.c **** 
 482              		.loc 1 560 1 is_stmt 0 view .LVU96
 483 0066 E7E7     		b	.L26
 484              	.L35:
 485              		.align	2
 486              	.L34:
 487 0068 00000000 		.word	.LANCHOR3
 488 006c 00000000 		.word	.LC24
 489 0070 00000000 		.word	.LANCHOR4
 490 0074 04000000 		.word	.LC25
 491              		.cfi_endproc
 492              	.LFE564:
 494              		.section	.text.controls_create,"ax",%progbits
 495              		.align	1
 496              		.syntax unified
 497              		.thumb
 498              		.thumb_func
 499              		.fpu fpv4-sp-d16
 501              	controls_create:
 502              	.LVL54:
 503              	.LFB561:
 109:lv_examples/src/lv_demo_widgets/lv_demo_widgets.c ****     lv_page_set_scrl_layout(parent, LV_LAYOUT_PRETTY_TOP);
 504              		.loc 1 109 1 is_stmt 1 view -0
 505              		.cfi_startproc
 506              		@ args = 0, pretend = 0, frame = 0
 507              		@ frame_needed = 0, uses_anonymous_args = 0
 109:lv_examples/src/lv_demo_widgets/lv_demo_widgets.c ****     lv_page_set_scrl_layout(parent, LV_LAYOUT_PRETTY_TOP);
 508              		.loc 1 109 1 is_stmt 0 view .LVU98
 509 0000 2DE9F041 		push	{r4, r5, r6, r7, r8, lr}
ARM GAS  D:\Temp\ccBnYEXJ.s 			page 34


 510              	.LCFI10:
 511              		.cfi_def_cfa_offset 24
 512              		.cfi_offset 4, -24
 513              		.cfi_offset 5, -20
 514              		.cfi_offset 6, -16
 515              		.cfi_offset 7, -12
 516              		.cfi_offset 8, -8
 517              		.cfi_offset 14, -4
 518 0004 82B0     		sub	sp, sp, #8
 519              	.LCFI11:
 520              		.cfi_def_cfa_offset 32
 521 0006 0646     		mov	r6, r0
 110:lv_examples/src/lv_demo_widgets/lv_demo_widgets.c **** 
 522              		.loc 1 110 5 is_stmt 1 view .LVU99
 523              	.LVL55:
 524              	.LBB217:
 525              	.LBI217:
 526              		.file 6 "d:\\_project\\stm32\\f407\\hack_rf_new\\lvgl\\src/lv_widgets/lv_page.h"
   1:d:\_project\stm32\f407\hack_rf_new\lvgl\src/lv_widgets\lv_page.h **** /**
   2:d:\_project\stm32\f407\hack_rf_new\lvgl\src/lv_widgets\lv_page.h ****  * @file lv_page.h
   3:d:\_project\stm32\f407\hack_rf_new\lvgl\src/lv_widgets\lv_page.h ****  *
   4:d:\_project\stm32\f407\hack_rf_new\lvgl\src/lv_widgets\lv_page.h ****  */
   5:d:\_project\stm32\f407\hack_rf_new\lvgl\src/lv_widgets\lv_page.h **** 
   6:d:\_project\stm32\f407\hack_rf_new\lvgl\src/lv_widgets\lv_page.h **** #ifndef LV_PAGE_H
   7:d:\_project\stm32\f407\hack_rf_new\lvgl\src/lv_widgets\lv_page.h **** #define LV_PAGE_H
   8:d:\_project\stm32\f407\hack_rf_new\lvgl\src/lv_widgets\lv_page.h **** 
   9:d:\_project\stm32\f407\hack_rf_new\lvgl\src/lv_widgets\lv_page.h **** #ifdef __cplusplus
  10:d:\_project\stm32\f407\hack_rf_new\lvgl\src/lv_widgets\lv_page.h **** extern "C" {
  11:d:\_project\stm32\f407\hack_rf_new\lvgl\src/lv_widgets\lv_page.h **** #endif
  12:d:\_project\stm32\f407\hack_rf_new\lvgl\src/lv_widgets\lv_page.h **** 
  13:d:\_project\stm32\f407\hack_rf_new\lvgl\src/lv_widgets\lv_page.h **** /*********************
  14:d:\_project\stm32\f407\hack_rf_new\lvgl\src/lv_widgets\lv_page.h ****  *      INCLUDES
  15:d:\_project\stm32\f407\hack_rf_new\lvgl\src/lv_widgets\lv_page.h ****  *********************/
  16:d:\_project\stm32\f407\hack_rf_new\lvgl\src/lv_widgets\lv_page.h **** #include "../lv_conf_internal.h"
  17:d:\_project\stm32\f407\hack_rf_new\lvgl\src/lv_widgets\lv_page.h **** 
  18:d:\_project\stm32\f407\hack_rf_new\lvgl\src/lv_widgets\lv_page.h **** #if LV_USE_PAGE != 0
  19:d:\_project\stm32\f407\hack_rf_new\lvgl\src/lv_widgets\lv_page.h **** 
  20:d:\_project\stm32\f407\hack_rf_new\lvgl\src/lv_widgets\lv_page.h **** /*Testing of dependencies*/
  21:d:\_project\stm32\f407\hack_rf_new\lvgl\src/lv_widgets\lv_page.h **** #if LV_USE_CONT == 0
  22:d:\_project\stm32\f407\hack_rf_new\lvgl\src/lv_widgets\lv_page.h **** #error "lv_page: lv_cont is required. Enable it in lv_conf.h (LV_USE_CONT 1)"
  23:d:\_project\stm32\f407\hack_rf_new\lvgl\src/lv_widgets\lv_page.h **** #endif
  24:d:\_project\stm32\f407\hack_rf_new\lvgl\src/lv_widgets\lv_page.h **** 
  25:d:\_project\stm32\f407\hack_rf_new\lvgl\src/lv_widgets\lv_page.h **** #include "lv_cont.h"
  26:d:\_project\stm32\f407\hack_rf_new\lvgl\src/lv_widgets\lv_page.h **** #include "../lv_core/lv_indev.h"
  27:d:\_project\stm32\f407\hack_rf_new\lvgl\src/lv_widgets\lv_page.h **** #include "../lv_misc/lv_anim.h"
  28:d:\_project\stm32\f407\hack_rf_new\lvgl\src/lv_widgets\lv_page.h **** 
  29:d:\_project\stm32\f407\hack_rf_new\lvgl\src/lv_widgets\lv_page.h **** /*********************
  30:d:\_project\stm32\f407\hack_rf_new\lvgl\src/lv_widgets\lv_page.h ****  *      DEFINES
  31:d:\_project\stm32\f407\hack_rf_new\lvgl\src/lv_widgets\lv_page.h ****  *********************/
  32:d:\_project\stm32\f407\hack_rf_new\lvgl\src/lv_widgets\lv_page.h **** 
  33:d:\_project\stm32\f407\hack_rf_new\lvgl\src/lv_widgets\lv_page.h **** /**********************
  34:d:\_project\stm32\f407\hack_rf_new\lvgl\src/lv_widgets\lv_page.h ****  *      TYPEDEFS
  35:d:\_project\stm32\f407\hack_rf_new\lvgl\src/lv_widgets\lv_page.h ****  **********************/
  36:d:\_project\stm32\f407\hack_rf_new\lvgl\src/lv_widgets\lv_page.h **** 
  37:d:\_project\stm32\f407\hack_rf_new\lvgl\src/lv_widgets\lv_page.h **** /** Scrollbar modes: shows when should the scrollbars be visible*/
  38:d:\_project\stm32\f407\hack_rf_new\lvgl\src/lv_widgets\lv_page.h **** enum {
  39:d:\_project\stm32\f407\hack_rf_new\lvgl\src/lv_widgets\lv_page.h ****     LV_SCROLLBAR_MODE_OFF    = 0x0, /**< Never show scroll bars*/
ARM GAS  D:\Temp\ccBnYEXJ.s 			page 35


  40:d:\_project\stm32\f407\hack_rf_new\lvgl\src/lv_widgets\lv_page.h ****     LV_SCROLLBAR_MODE_ON     = 0x1, /**< Always show scroll bars*/
  41:d:\_project\stm32\f407\hack_rf_new\lvgl\src/lv_widgets\lv_page.h ****     LV_SCROLLBAR_MODE_DRAG   = 0x2, /**< Show scroll bars when page is being dragged*/
  42:d:\_project\stm32\f407\hack_rf_new\lvgl\src/lv_widgets\lv_page.h ****     LV_SCROLLBAR_MODE_AUTO   = 0x3, /**< Show scroll bars when the scrollable container is large en
  43:d:\_project\stm32\f407\hack_rf_new\lvgl\src/lv_widgets\lv_page.h ****     LV_SCROLLBAR_MODE_HIDE   = 0x4, /**< Hide the scroll bar temporally*/
  44:d:\_project\stm32\f407\hack_rf_new\lvgl\src/lv_widgets\lv_page.h ****     LV_SCROLLBAR_MODE_UNHIDE = 0x8, /**< Unhide the previously hidden scroll bar. Recover original 
  45:d:\_project\stm32\f407\hack_rf_new\lvgl\src/lv_widgets\lv_page.h **** };
  46:d:\_project\stm32\f407\hack_rf_new\lvgl\src/lv_widgets\lv_page.h **** typedef uint8_t lv_scrollbar_mode_t;
  47:d:\_project\stm32\f407\hack_rf_new\lvgl\src/lv_widgets\lv_page.h **** 
  48:d:\_project\stm32\f407\hack_rf_new\lvgl\src/lv_widgets\lv_page.h **** /** Edges: describes the four edges of the page*/
  49:d:\_project\stm32\f407\hack_rf_new\lvgl\src/lv_widgets\lv_page.h **** enum { LV_PAGE_EDGE_LEFT = 0x1, LV_PAGE_EDGE_TOP = 0x2, LV_PAGE_EDGE_RIGHT = 0x4, LV_PAGE_EDGE_BOTT
  50:d:\_project\stm32\f407\hack_rf_new\lvgl\src/lv_widgets\lv_page.h **** typedef uint8_t lv_page_edge_t;
  51:d:\_project\stm32\f407\hack_rf_new\lvgl\src/lv_widgets\lv_page.h **** 
  52:d:\_project\stm32\f407\hack_rf_new\lvgl\src/lv_widgets\lv_page.h **** /*Data of page*/
  53:d:\_project\stm32\f407\hack_rf_new\lvgl\src/lv_widgets\lv_page.h **** typedef struct {
  54:d:\_project\stm32\f407\hack_rf_new\lvgl\src/lv_widgets\lv_page.h ****     lv_cont_ext_t bg; /*Ext. of ancestor*/
  55:d:\_project\stm32\f407\hack_rf_new\lvgl\src/lv_widgets\lv_page.h ****     /*New data for this type */
  56:d:\_project\stm32\f407\hack_rf_new\lvgl\src/lv_widgets\lv_page.h ****     lv_obj_t * scrl; /*The scrollable object on the background*/
  57:d:\_project\stm32\f407\hack_rf_new\lvgl\src/lv_widgets\lv_page.h ****     struct {
  58:d:\_project\stm32\f407\hack_rf_new\lvgl\src/lv_widgets\lv_page.h ****         lv_style_list_t style; /*Style of scrollbars*/
  59:d:\_project\stm32\f407\hack_rf_new\lvgl\src/lv_widgets\lv_page.h ****         lv_area_t hor_area;       /*Horizontal scrollbar area relative to the page. (Handled by the
  60:d:\_project\stm32\f407\hack_rf_new\lvgl\src/lv_widgets\lv_page.h ****         lv_area_t ver_area;       /*Vertical scrollbar area relative to the page (Handled by the li
  61:d:\_project\stm32\f407\hack_rf_new\lvgl\src/lv_widgets\lv_page.h ****         uint8_t hor_draw : 1;     /*1: horizontal scrollbar is visible now (Handled by the library)
  62:d:\_project\stm32\f407\hack_rf_new\lvgl\src/lv_widgets\lv_page.h ****         uint8_t ver_draw : 1;     /*1: vertical scrollbar is visible now (Handled by the library)*/
  63:d:\_project\stm32\f407\hack_rf_new\lvgl\src/lv_widgets\lv_page.h ****         lv_scrollbar_mode_t mode : 3;    /*Scrollbar visibility from 'lv_scrollbar_mode_t'*/
  64:d:\_project\stm32\f407\hack_rf_new\lvgl\src/lv_widgets\lv_page.h ****     } scrlbar;
  65:d:\_project\stm32\f407\hack_rf_new\lvgl\src/lv_widgets\lv_page.h **** #if LV_USE_ANIMATION
  66:d:\_project\stm32\f407\hack_rf_new\lvgl\src/lv_widgets\lv_page.h ****     struct {
  67:d:\_project\stm32\f407\hack_rf_new\lvgl\src/lv_widgets\lv_page.h ****         lv_anim_value_t state;    /*Store the current size of the edge flash effect*/
  68:d:\_project\stm32\f407\hack_rf_new\lvgl\src/lv_widgets\lv_page.h ****         lv_style_list_t style; /*Style of edge flash effect (usually homogeneous circle)*/
  69:d:\_project\stm32\f407\hack_rf_new\lvgl\src/lv_widgets\lv_page.h ****         uint8_t enabled : 1;      /*1: Show a flash animation on the edge*/
  70:d:\_project\stm32\f407\hack_rf_new\lvgl\src/lv_widgets\lv_page.h ****         uint8_t top_ip : 1;       /*Used internally to show that top most position is reached (flas
  71:d:\_project\stm32\f407\hack_rf_new\lvgl\src/lv_widgets\lv_page.h ****                                      Progress)*/
  72:d:\_project\stm32\f407\hack_rf_new\lvgl\src/lv_widgets\lv_page.h ****         uint8_t bottom_ip : 1;    /*Used internally to show that bottom most position is reached (f
  73:d:\_project\stm32\f407\hack_rf_new\lvgl\src/lv_widgets\lv_page.h ****                                      is In Progress)*/
  74:d:\_project\stm32\f407\hack_rf_new\lvgl\src/lv_widgets\lv_page.h ****         uint8_t right_ip : 1;     /*Used internally to show that right most position is reached (fl
  75:d:\_project\stm32\f407\hack_rf_new\lvgl\src/lv_widgets\lv_page.h ****                                      is In Progress)*/
  76:d:\_project\stm32\f407\hack_rf_new\lvgl\src/lv_widgets\lv_page.h ****         uint8_t left_ip : 1;      /*Used internally to show that left most position is reached (fla
  77:d:\_project\stm32\f407\hack_rf_new\lvgl\src/lv_widgets\lv_page.h ****                                      In Progress)*/
  78:d:\_project\stm32\f407\hack_rf_new\lvgl\src/lv_widgets\lv_page.h ****     } edge_flash;
  79:d:\_project\stm32\f407\hack_rf_new\lvgl\src/lv_widgets\lv_page.h **** 
  80:d:\_project\stm32\f407\hack_rf_new\lvgl\src/lv_widgets\lv_page.h ****     uint16_t anim_time; /*Scroll animation time*/
  81:d:\_project\stm32\f407\hack_rf_new\lvgl\src/lv_widgets\lv_page.h **** #endif
  82:d:\_project\stm32\f407\hack_rf_new\lvgl\src/lv_widgets\lv_page.h ****     lv_obj_t * scroll_prop_obj;          /*Pointer to child page from where the scroll is being pro
  83:d:\_project\stm32\f407\hack_rf_new\lvgl\src/lv_widgets\lv_page.h ****     uint8_t scroll_prop : 1;   /*The direction of the scroll propagation*/
  84:d:\_project\stm32\f407\hack_rf_new\lvgl\src/lv_widgets\lv_page.h **** } lv_page_ext_t;
  85:d:\_project\stm32\f407\hack_rf_new\lvgl\src/lv_widgets\lv_page.h **** 
  86:d:\_project\stm32\f407\hack_rf_new\lvgl\src/lv_widgets\lv_page.h **** enum {
  87:d:\_project\stm32\f407\hack_rf_new\lvgl\src/lv_widgets\lv_page.h ****     LV_PAGE_PART_BG = LV_CONT_PART_MAIN,
  88:d:\_project\stm32\f407\hack_rf_new\lvgl\src/lv_widgets\lv_page.h ****     LV_PAGE_PART_SCROLLBAR = _LV_OBJ_PART_VIRTUAL_LAST,
  89:d:\_project\stm32\f407\hack_rf_new\lvgl\src/lv_widgets\lv_page.h ****     LV_PAGE_PART_EDGE_FLASH,
  90:d:\_project\stm32\f407\hack_rf_new\lvgl\src/lv_widgets\lv_page.h ****     _LV_PAGE_PART_VIRTUAL_LAST,
  91:d:\_project\stm32\f407\hack_rf_new\lvgl\src/lv_widgets\lv_page.h **** 
  92:d:\_project\stm32\f407\hack_rf_new\lvgl\src/lv_widgets\lv_page.h ****     LV_PAGE_PART_SCROLLABLE = _LV_OBJ_PART_REAL_LAST,
  93:d:\_project\stm32\f407\hack_rf_new\lvgl\src/lv_widgets\lv_page.h ****     _LV_PAGE_PART_REAL_LAST,
  94:d:\_project\stm32\f407\hack_rf_new\lvgl\src/lv_widgets\lv_page.h **** };
  95:d:\_project\stm32\f407\hack_rf_new\lvgl\src/lv_widgets\lv_page.h **** typedef uint8_t lv_part_style_t;
  96:d:\_project\stm32\f407\hack_rf_new\lvgl\src/lv_widgets\lv_page.h **** 
ARM GAS  D:\Temp\ccBnYEXJ.s 			page 36


  97:d:\_project\stm32\f407\hack_rf_new\lvgl\src/lv_widgets\lv_page.h **** /**********************
  98:d:\_project\stm32\f407\hack_rf_new\lvgl\src/lv_widgets\lv_page.h ****  * GLOBAL PROTOTYPES
  99:d:\_project\stm32\f407\hack_rf_new\lvgl\src/lv_widgets\lv_page.h ****  **********************/
 100:d:\_project\stm32\f407\hack_rf_new\lvgl\src/lv_widgets\lv_page.h **** 
 101:d:\_project\stm32\f407\hack_rf_new\lvgl\src/lv_widgets\lv_page.h **** /**
 102:d:\_project\stm32\f407\hack_rf_new\lvgl\src/lv_widgets\lv_page.h ****  * Create a page objects
 103:d:\_project\stm32\f407\hack_rf_new\lvgl\src/lv_widgets\lv_page.h ****  * @param par pointer to an object, it will be the parent of the new page
 104:d:\_project\stm32\f407\hack_rf_new\lvgl\src/lv_widgets\lv_page.h ****  * @param copy pointer to a page object, if not NULL then the new object will be copied from it
 105:d:\_project\stm32\f407\hack_rf_new\lvgl\src/lv_widgets\lv_page.h ****  * @return pointer to the created page
 106:d:\_project\stm32\f407\hack_rf_new\lvgl\src/lv_widgets\lv_page.h ****  */
 107:d:\_project\stm32\f407\hack_rf_new\lvgl\src/lv_widgets\lv_page.h **** lv_obj_t * lv_page_create(lv_obj_t * par, const lv_obj_t * copy);
 108:d:\_project\stm32\f407\hack_rf_new\lvgl\src/lv_widgets\lv_page.h **** 
 109:d:\_project\stm32\f407\hack_rf_new\lvgl\src/lv_widgets\lv_page.h **** /**
 110:d:\_project\stm32\f407\hack_rf_new\lvgl\src/lv_widgets\lv_page.h ****  * Delete all children of the scrl object, without deleting scrl child.
 111:d:\_project\stm32\f407\hack_rf_new\lvgl\src/lv_widgets\lv_page.h ****  * @param page pointer to an object
 112:d:\_project\stm32\f407\hack_rf_new\lvgl\src/lv_widgets\lv_page.h ****  */
 113:d:\_project\stm32\f407\hack_rf_new\lvgl\src/lv_widgets\lv_page.h **** void lv_page_clean(lv_obj_t * page);
 114:d:\_project\stm32\f407\hack_rf_new\lvgl\src/lv_widgets\lv_page.h **** 
 115:d:\_project\stm32\f407\hack_rf_new\lvgl\src/lv_widgets\lv_page.h **** /**
 116:d:\_project\stm32\f407\hack_rf_new\lvgl\src/lv_widgets\lv_page.h ****  * Get the scrollable object of a page
 117:d:\_project\stm32\f407\hack_rf_new\lvgl\src/lv_widgets\lv_page.h ****  * @param page pointer to a page object
 118:d:\_project\stm32\f407\hack_rf_new\lvgl\src/lv_widgets\lv_page.h ****  * @return pointer to a container which is the scrollable part of the page
 119:d:\_project\stm32\f407\hack_rf_new\lvgl\src/lv_widgets\lv_page.h ****  */
 120:d:\_project\stm32\f407\hack_rf_new\lvgl\src/lv_widgets\lv_page.h **** lv_obj_t * lv_page_get_scrollable(const lv_obj_t * page);
 121:d:\_project\stm32\f407\hack_rf_new\lvgl\src/lv_widgets\lv_page.h **** 
 122:d:\_project\stm32\f407\hack_rf_new\lvgl\src/lv_widgets\lv_page.h **** /**
 123:d:\_project\stm32\f407\hack_rf_new\lvgl\src/lv_widgets\lv_page.h ****  * Get the animation time
 124:d:\_project\stm32\f407\hack_rf_new\lvgl\src/lv_widgets\lv_page.h ****  * @param page pointer to a page object
 125:d:\_project\stm32\f407\hack_rf_new\lvgl\src/lv_widgets\lv_page.h ****  * @return the animation time in milliseconds
 126:d:\_project\stm32\f407\hack_rf_new\lvgl\src/lv_widgets\lv_page.h ****  */
 127:d:\_project\stm32\f407\hack_rf_new\lvgl\src/lv_widgets\lv_page.h **** uint16_t lv_page_get_anim_time(const lv_obj_t * page);
 128:d:\_project\stm32\f407\hack_rf_new\lvgl\src/lv_widgets\lv_page.h **** 
 129:d:\_project\stm32\f407\hack_rf_new\lvgl\src/lv_widgets\lv_page.h **** /*=====================
 130:d:\_project\stm32\f407\hack_rf_new\lvgl\src/lv_widgets\lv_page.h ****  * Setter functions
 131:d:\_project\stm32\f407\hack_rf_new\lvgl\src/lv_widgets\lv_page.h ****  *====================*/
 132:d:\_project\stm32\f407\hack_rf_new\lvgl\src/lv_widgets\lv_page.h **** 
 133:d:\_project\stm32\f407\hack_rf_new\lvgl\src/lv_widgets\lv_page.h **** /**
 134:d:\_project\stm32\f407\hack_rf_new\lvgl\src/lv_widgets\lv_page.h ****  * Set the scroll bar mode on a page
 135:d:\_project\stm32\f407\hack_rf_new\lvgl\src/lv_widgets\lv_page.h ****  * @param page pointer to a page object
 136:d:\_project\stm32\f407\hack_rf_new\lvgl\src/lv_widgets\lv_page.h ****  * @param sb_mode the new mode from 'lv_page_sb.mode_t' enum
 137:d:\_project\stm32\f407\hack_rf_new\lvgl\src/lv_widgets\lv_page.h ****  */
 138:d:\_project\stm32\f407\hack_rf_new\lvgl\src/lv_widgets\lv_page.h **** void lv_page_set_scrollbar_mode(lv_obj_t * page, lv_scrollbar_mode_t sb_mode);
 139:d:\_project\stm32\f407\hack_rf_new\lvgl\src/lv_widgets\lv_page.h **** 
 140:d:\_project\stm32\f407\hack_rf_new\lvgl\src/lv_widgets\lv_page.h **** /**
 141:d:\_project\stm32\f407\hack_rf_new\lvgl\src/lv_widgets\lv_page.h ****  * Set the animation time for the page
 142:d:\_project\stm32\f407\hack_rf_new\lvgl\src/lv_widgets\lv_page.h ****  * @param page pointer to a page object
 143:d:\_project\stm32\f407\hack_rf_new\lvgl\src/lv_widgets\lv_page.h ****  * @param anim_time animation time in milliseconds
 144:d:\_project\stm32\f407\hack_rf_new\lvgl\src/lv_widgets\lv_page.h ****  */
 145:d:\_project\stm32\f407\hack_rf_new\lvgl\src/lv_widgets\lv_page.h **** void lv_page_set_anim_time(lv_obj_t * page, uint16_t anim_time);
 146:d:\_project\stm32\f407\hack_rf_new\lvgl\src/lv_widgets\lv_page.h **** 
 147:d:\_project\stm32\f407\hack_rf_new\lvgl\src/lv_widgets\lv_page.h **** /**
 148:d:\_project\stm32\f407\hack_rf_new\lvgl\src/lv_widgets\lv_page.h ****  * Enable the scroll propagation feature. If enabled then the page will move its parent if there is
 149:d:\_project\stm32\f407\hack_rf_new\lvgl\src/lv_widgets\lv_page.h ****  * no more space to scroll.
 150:d:\_project\stm32\f407\hack_rf_new\lvgl\src/lv_widgets\lv_page.h ****  * The page needs to have a page-like parent (e.g. `lv_page`, `lv_tabview` tab, `lv_win` content ar
 151:d:\_project\stm32\f407\hack_rf_new\lvgl\src/lv_widgets\lv_page.h ****  * If enabled drag direction will be changed `LV_DRAG_DIR_ONE` automatically to allow scrolling onl
 152:d:\_project\stm32\f407\hack_rf_new\lvgl\src/lv_widgets\lv_page.h ****  * @param page pointer to a Page
 153:d:\_project\stm32\f407\hack_rf_new\lvgl\src/lv_widgets\lv_page.h ****  * @param en true or false to enable/disable scroll propagation
ARM GAS  D:\Temp\ccBnYEXJ.s 			page 37


 154:d:\_project\stm32\f407\hack_rf_new\lvgl\src/lv_widgets\lv_page.h ****  */
 155:d:\_project\stm32\f407\hack_rf_new\lvgl\src/lv_widgets\lv_page.h **** void lv_page_set_scroll_propagation(lv_obj_t * page, bool en);
 156:d:\_project\stm32\f407\hack_rf_new\lvgl\src/lv_widgets\lv_page.h **** 
 157:d:\_project\stm32\f407\hack_rf_new\lvgl\src/lv_widgets\lv_page.h **** /**
 158:d:\_project\stm32\f407\hack_rf_new\lvgl\src/lv_widgets\lv_page.h ****  * Enable the edge flash effect. (Show an arc when the an edge is reached)
 159:d:\_project\stm32\f407\hack_rf_new\lvgl\src/lv_widgets\lv_page.h ****  * @param page pointer to a Page
 160:d:\_project\stm32\f407\hack_rf_new\lvgl\src/lv_widgets\lv_page.h ****  * @param en true or false to enable/disable end flash
 161:d:\_project\stm32\f407\hack_rf_new\lvgl\src/lv_widgets\lv_page.h ****  */
 162:d:\_project\stm32\f407\hack_rf_new\lvgl\src/lv_widgets\lv_page.h **** void lv_page_set_edge_flash(lv_obj_t * page, bool en);
 163:d:\_project\stm32\f407\hack_rf_new\lvgl\src/lv_widgets\lv_page.h **** 
 164:d:\_project\stm32\f407\hack_rf_new\lvgl\src/lv_widgets\lv_page.h **** /**
 165:d:\_project\stm32\f407\hack_rf_new\lvgl\src/lv_widgets\lv_page.h ****  * Set the fit policy in all 4 directions separately.
 166:d:\_project\stm32\f407\hack_rf_new\lvgl\src/lv_widgets\lv_page.h ****  * It tell how to change the page size automatically.
 167:d:\_project\stm32\f407\hack_rf_new\lvgl\src/lv_widgets\lv_page.h ****  * @param page pointer to a page object
 168:d:\_project\stm32\f407\hack_rf_new\lvgl\src/lv_widgets\lv_page.h ****  * @param left left fit policy from `lv_fit_t`
 169:d:\_project\stm32\f407\hack_rf_new\lvgl\src/lv_widgets\lv_page.h ****  * @param right right fit policy from `lv_fit_t`
 170:d:\_project\stm32\f407\hack_rf_new\lvgl\src/lv_widgets\lv_page.h ****  * @param top bottom fit policy from `lv_fit_t`
 171:d:\_project\stm32\f407\hack_rf_new\lvgl\src/lv_widgets\lv_page.h ****  * @param bottom bottom fit policy from `lv_fit_t`
 172:d:\_project\stm32\f407\hack_rf_new\lvgl\src/lv_widgets\lv_page.h ****  */
 173:d:\_project\stm32\f407\hack_rf_new\lvgl\src/lv_widgets\lv_page.h **** static inline void lv_page_set_scrollable_fit4(lv_obj_t * page, lv_fit_t left, lv_fit_t right, lv_f
 174:d:\_project\stm32\f407\hack_rf_new\lvgl\src/lv_widgets\lv_page.h ****                                                lv_fit_t bottom)
 175:d:\_project\stm32\f407\hack_rf_new\lvgl\src/lv_widgets\lv_page.h **** {
 176:d:\_project\stm32\f407\hack_rf_new\lvgl\src/lv_widgets\lv_page.h ****     lv_cont_set_fit4(lv_page_get_scrollable(page), left, right, top, bottom);
 177:d:\_project\stm32\f407\hack_rf_new\lvgl\src/lv_widgets\lv_page.h **** }
 178:d:\_project\stm32\f407\hack_rf_new\lvgl\src/lv_widgets\lv_page.h **** 
 179:d:\_project\stm32\f407\hack_rf_new\lvgl\src/lv_widgets\lv_page.h **** /**
 180:d:\_project\stm32\f407\hack_rf_new\lvgl\src/lv_widgets\lv_page.h ****  * Set the fit policy horizontally and vertically separately.
 181:d:\_project\stm32\f407\hack_rf_new\lvgl\src/lv_widgets\lv_page.h ****  * It tell how to change the page size automatically.
 182:d:\_project\stm32\f407\hack_rf_new\lvgl\src/lv_widgets\lv_page.h ****  * @param page pointer to a page object
 183:d:\_project\stm32\f407\hack_rf_new\lvgl\src/lv_widgets\lv_page.h ****  * @param hot horizontal fit policy from `lv_fit_t`
 184:d:\_project\stm32\f407\hack_rf_new\lvgl\src/lv_widgets\lv_page.h ****  * @param ver vertical fit policy from `lv_fit_t`
 185:d:\_project\stm32\f407\hack_rf_new\lvgl\src/lv_widgets\lv_page.h ****  */
 186:d:\_project\stm32\f407\hack_rf_new\lvgl\src/lv_widgets\lv_page.h **** static inline void lv_page_set_scrollable_fit2(lv_obj_t * page, lv_fit_t hor, lv_fit_t ver)
 187:d:\_project\stm32\f407\hack_rf_new\lvgl\src/lv_widgets\lv_page.h **** {
 188:d:\_project\stm32\f407\hack_rf_new\lvgl\src/lv_widgets\lv_page.h ****     lv_cont_set_fit2(lv_page_get_scrollable(page), hor, ver);
 189:d:\_project\stm32\f407\hack_rf_new\lvgl\src/lv_widgets\lv_page.h **** }
 190:d:\_project\stm32\f407\hack_rf_new\lvgl\src/lv_widgets\lv_page.h **** 
 191:d:\_project\stm32\f407\hack_rf_new\lvgl\src/lv_widgets\lv_page.h **** /**
 192:d:\_project\stm32\f407\hack_rf_new\lvgl\src/lv_widgets\lv_page.h ****  * Set the fit policy in all 4 direction at once.
 193:d:\_project\stm32\f407\hack_rf_new\lvgl\src/lv_widgets\lv_page.h ****  * It tell how to change the page size automatically.
 194:d:\_project\stm32\f407\hack_rf_new\lvgl\src/lv_widgets\lv_page.h ****  * @param page pointer to a button object
 195:d:\_project\stm32\f407\hack_rf_new\lvgl\src/lv_widgets\lv_page.h ****  * @param fit fit policy from `lv_fit_t`
 196:d:\_project\stm32\f407\hack_rf_new\lvgl\src/lv_widgets\lv_page.h ****  */
 197:d:\_project\stm32\f407\hack_rf_new\lvgl\src/lv_widgets\lv_page.h **** static inline void lv_page_set_scrollable_fit(lv_obj_t * page, lv_fit_t fit)
 198:d:\_project\stm32\f407\hack_rf_new\lvgl\src/lv_widgets\lv_page.h **** {
 199:d:\_project\stm32\f407\hack_rf_new\lvgl\src/lv_widgets\lv_page.h ****     lv_cont_set_fit(lv_page_get_scrollable(page), fit);
 200:d:\_project\stm32\f407\hack_rf_new\lvgl\src/lv_widgets\lv_page.h **** }
 201:d:\_project\stm32\f407\hack_rf_new\lvgl\src/lv_widgets\lv_page.h **** 
 202:d:\_project\stm32\f407\hack_rf_new\lvgl\src/lv_widgets\lv_page.h **** /**
 203:d:\_project\stm32\f407\hack_rf_new\lvgl\src/lv_widgets\lv_page.h ****  * Set width of the scrollable part of a page
 204:d:\_project\stm32\f407\hack_rf_new\lvgl\src/lv_widgets\lv_page.h ****  * @param page pointer to a page object
 205:d:\_project\stm32\f407\hack_rf_new\lvgl\src/lv_widgets\lv_page.h ****  * @param w the new width of the scrollable (it ha no effect is horizontal fit is enabled)
 206:d:\_project\stm32\f407\hack_rf_new\lvgl\src/lv_widgets\lv_page.h ****  */
 207:d:\_project\stm32\f407\hack_rf_new\lvgl\src/lv_widgets\lv_page.h **** static inline void lv_page_set_scrl_width(lv_obj_t * page, lv_coord_t w)
 208:d:\_project\stm32\f407\hack_rf_new\lvgl\src/lv_widgets\lv_page.h **** {
 209:d:\_project\stm32\f407\hack_rf_new\lvgl\src/lv_widgets\lv_page.h ****     lv_obj_set_width(lv_page_get_scrollable(page), w);
 210:d:\_project\stm32\f407\hack_rf_new\lvgl\src/lv_widgets\lv_page.h **** }
ARM GAS  D:\Temp\ccBnYEXJ.s 			page 38


 211:d:\_project\stm32\f407\hack_rf_new\lvgl\src/lv_widgets\lv_page.h **** 
 212:d:\_project\stm32\f407\hack_rf_new\lvgl\src/lv_widgets\lv_page.h **** /**
 213:d:\_project\stm32\f407\hack_rf_new\lvgl\src/lv_widgets\lv_page.h ****  * Set height of the scrollable part of a page
 214:d:\_project\stm32\f407\hack_rf_new\lvgl\src/lv_widgets\lv_page.h ****  * @param page pointer to a page object
 215:d:\_project\stm32\f407\hack_rf_new\lvgl\src/lv_widgets\lv_page.h ****  * @param h the new height of the scrollable (it ha no effect is vertical fit is enabled)
 216:d:\_project\stm32\f407\hack_rf_new\lvgl\src/lv_widgets\lv_page.h ****  */
 217:d:\_project\stm32\f407\hack_rf_new\lvgl\src/lv_widgets\lv_page.h **** static inline void lv_page_set_scrl_height(lv_obj_t * page, lv_coord_t h)
 218:d:\_project\stm32\f407\hack_rf_new\lvgl\src/lv_widgets\lv_page.h **** {
 219:d:\_project\stm32\f407\hack_rf_new\lvgl\src/lv_widgets\lv_page.h ****     lv_obj_set_height(lv_page_get_scrollable(page), h);
 220:d:\_project\stm32\f407\hack_rf_new\lvgl\src/lv_widgets\lv_page.h **** }
 221:d:\_project\stm32\f407\hack_rf_new\lvgl\src/lv_widgets\lv_page.h **** 
 222:d:\_project\stm32\f407\hack_rf_new\lvgl\src/lv_widgets\lv_page.h **** /**
 223:d:\_project\stm32\f407\hack_rf_new\lvgl\src/lv_widgets\lv_page.h ****  * Set the layout of the scrollable part of the page
 224:d:\_project\stm32\f407\hack_rf_new\lvgl\src/lv_widgets\lv_page.h ****  * @param page pointer to a page object
 225:d:\_project\stm32\f407\hack_rf_new\lvgl\src/lv_widgets\lv_page.h ****  * @param layout a layout from 'lv_cont_layout_t'
 226:d:\_project\stm32\f407\hack_rf_new\lvgl\src/lv_widgets\lv_page.h ****  */
 227:d:\_project\stm32\f407\hack_rf_new\lvgl\src/lv_widgets\lv_page.h **** static inline void lv_page_set_scrl_layout(lv_obj_t * page, lv_layout_t layout)
 527              		.loc 6 227 20 view .LVU100
 528              	.LBB218:
 228:d:\_project\stm32\f407\hack_rf_new\lvgl\src/lv_widgets\lv_page.h **** {
 229:d:\_project\stm32\f407\hack_rf_new\lvgl\src/lv_widgets\lv_page.h ****     lv_cont_set_layout(lv_page_get_scrollable(page), layout);
 529              		.loc 6 229 5 view .LVU101
 530 0008 FFF7FEFF 		bl	lv_page_get_scrollable
 531              	.LVL56:
 532              		.loc 6 229 5 is_stmt 0 view .LVU102
 533 000c 0821     		movs	r1, #8
 534 000e FFF7FEFF 		bl	lv_cont_set_layout
 535              	.LVL57:
 536              		.loc 6 229 5 view .LVU103
 537              	.LBE218:
 538              	.LBE217:
 112:lv_examples/src/lv_demo_widgets/lv_demo_widgets.c ****     lv_coord_t grid_w = lv_page_get_width_grid(parent, disp_size <= LV_DISP_SIZE_SMALL ? 1 : 2, 1);
 539              		.loc 1 112 5 is_stmt 1 view .LVU104
 112:lv_examples/src/lv_demo_widgets/lv_demo_widgets.c ****     lv_coord_t grid_w = lv_page_get_width_grid(parent, disp_size <= LV_DISP_SIZE_SMALL ? 1 : 2, 1);
 540              		.loc 1 112 32 is_stmt 0 view .LVU105
 541 0012 0020     		movs	r0, #0
 542 0014 FFF7FEFF 		bl	lv_disp_get_size_category
 543              	.LVL58:
 113:lv_examples/src/lv_demo_widgets/lv_demo_widgets.c **** 
 544              		.loc 1 113 5 is_stmt 1 view .LVU106
 113:lv_examples/src/lv_demo_widgets/lv_demo_widgets.c **** 
 545              		.loc 1 113 25 is_stmt 0 view .LVU107
 546 0018 0028     		cmp	r0, #0
 547 001a 40F07381 		bne	.L42
 548 001e 4FF00108 		mov	r8, #1
 549              	.L37:
 113:lv_examples/src/lv_demo_widgets/lv_demo_widgets.c **** 
 550              		.loc 1 113 25 discriminator 4 view .LVU108
 551 0022 0122     		movs	r2, #1
 552 0024 4146     		mov	r1, r8
 553 0026 3046     		mov	r0, r6
 554              	.LVL59:
 113:lv_examples/src/lv_demo_widgets/lv_demo_widgets.c **** 
 555              		.loc 1 113 25 discriminator 4 view .LVU109
 556 0028 FFF7FEFF 		bl	lv_page_get_width_grid
 557              	.LVL60:
 558 002c 0746     		mov	r7, r0
ARM GAS  D:\Temp\ccBnYEXJ.s 			page 39


 559              	.LVL61:
 116:lv_examples/src/lv_demo_widgets/lv_demo_widgets.c **** 
 560              		.loc 1 116 5 is_stmt 1 discriminator 4 view .LVU110
 118:lv_examples/src/lv_demo_widgets/lv_demo_widgets.c ****     lv_msgbox_add_btns(m, btns);
 561              		.loc 1 118 5 discriminator 4 view .LVU111
 562              	.LBB219:
 563              	.LBI219:
 158:d:\_project\stm32\f407\hack_rf_new\lvgl\src/lv_core\lv_disp.h **** {
 564              		.loc 3 158 26 discriminator 4 view .LVU112
 565              	.LBB220:
 566              		.loc 3 160 5 discriminator 4 view .LVU113
 567              		.loc 3 160 12 is_stmt 0 discriminator 4 view .LVU114
 568 002e FFF7FEFF 		bl	lv_disp_get_default
 569              	.LVL62:
 570 0032 FFF7FEFF 		bl	lv_disp_get_scr_act
 571              	.LVL63:
 572              	.LBE220:
 573              	.LBE219:
 118:lv_examples/src/lv_demo_widgets/lv_demo_widgets.c ****     lv_msgbox_add_btns(m, btns);
 574              		.loc 1 118 20 discriminator 4 view .LVU115
 575 0036 0021     		movs	r1, #0
 576 0038 FFF7FEFF 		bl	lv_msgbox_create
 577              	.LVL64:
 578 003c 0446     		mov	r4, r0
 579              	.LVL65:
 119:lv_examples/src/lv_demo_widgets/lv_demo_widgets.c ****     lv_obj_t * btnm = lv_msgbox_get_btnmatrix(m);
 580              		.loc 1 119 5 is_stmt 1 discriminator 4 view .LVU116
 581 003e CD49     		ldr	r1, .L51
 582 0040 FFF7FEFF 		bl	lv_msgbox_add_btns
 583              	.LVL66:
 120:lv_examples/src/lv_demo_widgets/lv_demo_widgets.c ****     lv_btnmatrix_set_btn_ctrl(btnm, 1, LV_BTNMATRIX_CTRL_CHECK_STATE);
 584              		.loc 1 120 5 discriminator 4 view .LVU117
 120:lv_examples/src/lv_demo_widgets/lv_demo_widgets.c ****     lv_btnmatrix_set_btn_ctrl(btnm, 1, LV_BTNMATRIX_CTRL_CHECK_STATE);
 585              		.loc 1 120 23 is_stmt 0 discriminator 4 view .LVU118
 586 0044 2046     		mov	r0, r4
 587 0046 FFF7FEFF 		bl	lv_msgbox_get_btnmatrix
 588              	.LVL67:
 121:lv_examples/src/lv_demo_widgets/lv_demo_widgets.c **** #endif
 589              		.loc 1 121 5 is_stmt 1 discriminator 4 view .LVU119
 590 004a 8022     		movs	r2, #128
 591 004c 0121     		movs	r1, #1
 592 004e FFF7FEFF 		bl	lv_btnmatrix_set_btn_ctrl
 593              	.LVL68:
 124:lv_examples/src/lv_demo_widgets/lv_demo_widgets.c ****     lv_cont_set_layout(h, LV_LAYOUT_PRETTY_MID);
 594              		.loc 1 124 5 discriminator 4 view .LVU120
 124:lv_examples/src/lv_demo_widgets/lv_demo_widgets.c ****     lv_cont_set_layout(h, LV_LAYOUT_PRETTY_MID);
 595              		.loc 1 124 20 is_stmt 0 discriminator 4 view .LVU121
 596 0052 0021     		movs	r1, #0
 597 0054 3046     		mov	r0, r6
 598 0056 FFF7FEFF 		bl	lv_cont_create
 599              	.LVL69:
 600 005a 0446     		mov	r4, r0
 601              	.LVL70:
 125:lv_examples/src/lv_demo_widgets/lv_demo_widgets.c ****     lv_obj_add_style(h, LV_CONT_PART_MAIN, &style_box);
 602              		.loc 1 125 5 is_stmt 1 discriminator 4 view .LVU122
 603 005c 0921     		movs	r1, #9
 604 005e FFF7FEFF 		bl	lv_cont_set_layout
ARM GAS  D:\Temp\ccBnYEXJ.s 			page 40


 605              	.LVL71:
 126:lv_examples/src/lv_demo_widgets/lv_demo_widgets.c ****     lv_obj_set_drag_parent(h, true);
 606              		.loc 1 126 5 discriminator 4 view .LVU123
 607 0062 C54A     		ldr	r2, .L51+4
 608 0064 0021     		movs	r1, #0
 609 0066 2046     		mov	r0, r4
 610 0068 FFF7FEFF 		bl	lv_obj_add_style
 611              	.LVL72:
 127:lv_examples/src/lv_demo_widgets/lv_demo_widgets.c **** 
 612              		.loc 1 127 5 discriminator 4 view .LVU124
 613 006c 0121     		movs	r1, #1
 614 006e 2046     		mov	r0, r4
 615 0070 FFF7FEFF 		bl	lv_obj_set_drag_parent
 616              	.LVL73:
 129:lv_examples/src/lv_demo_widgets/lv_demo_widgets.c **** 
 617              		.loc 1 129 5 discriminator 4 view .LVU125
 618              	.LBB221:
 619              	.LBI221:
 620              		.loc 5 159 1 discriminator 4 view .LVU126
 621              	.LBB222:
 622              		.loc 5 159 1 discriminator 4 view .LVU127
 623 0074 C14B     		ldr	r3, .L51+8
 624 0076 7F22     		movs	r2, #127
 625 0078 0021     		movs	r1, #0
 626 007a 2046     		mov	r0, r4
 627 007c FFF7FEFF 		bl	_lv_obj_set_style_local_ptr
 628              	.LVL74:
 629              		.loc 5 159 1 is_stmt 0 discriminator 4 view .LVU128
 630              	.LBE222:
 631              	.LBE221:
 131:lv_examples/src/lv_demo_widgets/lv_demo_widgets.c ****     lv_obj_set_width(h, grid_w);
 632              		.loc 1 131 5 is_stmt 1 discriminator 4 view .LVU129
 633              	.LBB223:
 634              	.LBI223:
 635              		.file 7 "d:\\_project\\stm32\\f407\\hack_rf_new\\lvgl\\src/lv_widgets/lv_cont.h"
   1:d:\_project\stm32\f407\hack_rf_new\lvgl\src/lv_widgets\lv_cont.h **** /**
   2:d:\_project\stm32\f407\hack_rf_new\lvgl\src/lv_widgets\lv_cont.h ****  * @file lv_cont.h
   3:d:\_project\stm32\f407\hack_rf_new\lvgl\src/lv_widgets\lv_cont.h ****  *
   4:d:\_project\stm32\f407\hack_rf_new\lvgl\src/lv_widgets\lv_cont.h ****  */
   5:d:\_project\stm32\f407\hack_rf_new\lvgl\src/lv_widgets\lv_cont.h **** 
   6:d:\_project\stm32\f407\hack_rf_new\lvgl\src/lv_widgets\lv_cont.h **** #ifndef LV_CONT_H
   7:d:\_project\stm32\f407\hack_rf_new\lvgl\src/lv_widgets\lv_cont.h **** #define LV_CONT_H
   8:d:\_project\stm32\f407\hack_rf_new\lvgl\src/lv_widgets\lv_cont.h **** 
   9:d:\_project\stm32\f407\hack_rf_new\lvgl\src/lv_widgets\lv_cont.h **** #ifdef __cplusplus
  10:d:\_project\stm32\f407\hack_rf_new\lvgl\src/lv_widgets\lv_cont.h **** extern "C" {
  11:d:\_project\stm32\f407\hack_rf_new\lvgl\src/lv_widgets\lv_cont.h **** #endif
  12:d:\_project\stm32\f407\hack_rf_new\lvgl\src/lv_widgets\lv_cont.h **** 
  13:d:\_project\stm32\f407\hack_rf_new\lvgl\src/lv_widgets\lv_cont.h **** /*********************
  14:d:\_project\stm32\f407\hack_rf_new\lvgl\src/lv_widgets\lv_cont.h ****  *      INCLUDES
  15:d:\_project\stm32\f407\hack_rf_new\lvgl\src/lv_widgets\lv_cont.h ****  *********************/
  16:d:\_project\stm32\f407\hack_rf_new\lvgl\src/lv_widgets\lv_cont.h **** #include "../lv_conf_internal.h"
  17:d:\_project\stm32\f407\hack_rf_new\lvgl\src/lv_widgets\lv_cont.h **** 
  18:d:\_project\stm32\f407\hack_rf_new\lvgl\src/lv_widgets\lv_cont.h **** #if LV_USE_CONT != 0
  19:d:\_project\stm32\f407\hack_rf_new\lvgl\src/lv_widgets\lv_cont.h **** 
  20:d:\_project\stm32\f407\hack_rf_new\lvgl\src/lv_widgets\lv_cont.h **** #include "../lv_core/lv_obj.h"
  21:d:\_project\stm32\f407\hack_rf_new\lvgl\src/lv_widgets\lv_cont.h **** 
  22:d:\_project\stm32\f407\hack_rf_new\lvgl\src/lv_widgets\lv_cont.h **** /*********************
ARM GAS  D:\Temp\ccBnYEXJ.s 			page 41


  23:d:\_project\stm32\f407\hack_rf_new\lvgl\src/lv_widgets\lv_cont.h ****  *      DEFINES
  24:d:\_project\stm32\f407\hack_rf_new\lvgl\src/lv_widgets\lv_cont.h ****  *********************/
  25:d:\_project\stm32\f407\hack_rf_new\lvgl\src/lv_widgets\lv_cont.h **** 
  26:d:\_project\stm32\f407\hack_rf_new\lvgl\src/lv_widgets\lv_cont.h **** /**********************
  27:d:\_project\stm32\f407\hack_rf_new\lvgl\src/lv_widgets\lv_cont.h ****  *      TYPEDEFS
  28:d:\_project\stm32\f407\hack_rf_new\lvgl\src/lv_widgets\lv_cont.h ****  **********************/
  29:d:\_project\stm32\f407\hack_rf_new\lvgl\src/lv_widgets\lv_cont.h **** 
  30:d:\_project\stm32\f407\hack_rf_new\lvgl\src/lv_widgets\lv_cont.h **** /** Container layout options*/
  31:d:\_project\stm32\f407\hack_rf_new\lvgl\src/lv_widgets\lv_cont.h **** enum {
  32:d:\_project\stm32\f407\hack_rf_new\lvgl\src/lv_widgets\lv_cont.h ****     LV_LAYOUT_OFF = 0, /**< No layout */
  33:d:\_project\stm32\f407\hack_rf_new\lvgl\src/lv_widgets\lv_cont.h ****     LV_LAYOUT_CENTER, /**< Center objects */
  34:d:\_project\stm32\f407\hack_rf_new\lvgl\src/lv_widgets\lv_cont.h **** 
  35:d:\_project\stm32\f407\hack_rf_new\lvgl\src/lv_widgets\lv_cont.h ****     /**
  36:d:\_project\stm32\f407\hack_rf_new\lvgl\src/lv_widgets\lv_cont.h ****      * COLUMN:
  37:d:\_project\stm32\f407\hack_rf_new\lvgl\src/lv_widgets\lv_cont.h ****      * - Place the object below each other
  38:d:\_project\stm32\f407\hack_rf_new\lvgl\src/lv_widgets\lv_cont.h ****      * - Keep `pad_top` space on the top
  39:d:\_project\stm32\f407\hack_rf_new\lvgl\src/lv_widgets\lv_cont.h ****      * - Keep `pad_inner` space between the objects
  40:d:\_project\stm32\f407\hack_rf_new\lvgl\src/lv_widgets\lv_cont.h ****      */
  41:d:\_project\stm32\f407\hack_rf_new\lvgl\src/lv_widgets\lv_cont.h ****     LV_LAYOUT_COLUMN_LEFT,      /**< Column left align*/
  42:d:\_project\stm32\f407\hack_rf_new\lvgl\src/lv_widgets\lv_cont.h ****     LV_LAYOUT_COLUMN_MID,       /**< Column middle align*/
  43:d:\_project\stm32\f407\hack_rf_new\lvgl\src/lv_widgets\lv_cont.h ****     LV_LAYOUT_COLUMN_RIGHT,     /**< Column right align*/
  44:d:\_project\stm32\f407\hack_rf_new\lvgl\src/lv_widgets\lv_cont.h **** 
  45:d:\_project\stm32\f407\hack_rf_new\lvgl\src/lv_widgets\lv_cont.h ****     /**
  46:d:\_project\stm32\f407\hack_rf_new\lvgl\src/lv_widgets\lv_cont.h ****      * ROW:
  47:d:\_project\stm32\f407\hack_rf_new\lvgl\src/lv_widgets\lv_cont.h ****      * - Place the object next to each other
  48:d:\_project\stm32\f407\hack_rf_new\lvgl\src/lv_widgets\lv_cont.h ****      * - Keep `pad_left` space on the left
  49:d:\_project\stm32\f407\hack_rf_new\lvgl\src/lv_widgets\lv_cont.h ****      * - Keep `pad_inner` space between the objects
  50:d:\_project\stm32\f407\hack_rf_new\lvgl\src/lv_widgets\lv_cont.h ****      * - If the object which applies the layout has `base_dir == LV_BIDI_DIR_RTL`
  51:d:\_project\stm32\f407\hack_rf_new\lvgl\src/lv_widgets\lv_cont.h ****      *   the row will start from the right applying `pad.right` space
  52:d:\_project\stm32\f407\hack_rf_new\lvgl\src/lv_widgets\lv_cont.h ****      */
  53:d:\_project\stm32\f407\hack_rf_new\lvgl\src/lv_widgets\lv_cont.h ****     LV_LAYOUT_ROW_TOP,          /**< Row top align*/
  54:d:\_project\stm32\f407\hack_rf_new\lvgl\src/lv_widgets\lv_cont.h ****     LV_LAYOUT_ROW_MID,          /**< Row middle align*/
  55:d:\_project\stm32\f407\hack_rf_new\lvgl\src/lv_widgets\lv_cont.h ****     LV_LAYOUT_ROW_BOTTOM,       /**< Row bottom align*/
  56:d:\_project\stm32\f407\hack_rf_new\lvgl\src/lv_widgets\lv_cont.h **** 
  57:d:\_project\stm32\f407\hack_rf_new\lvgl\src/lv_widgets\lv_cont.h ****     /**
  58:d:\_project\stm32\f407\hack_rf_new\lvgl\src/lv_widgets\lv_cont.h ****      * PRETTY:
  59:d:\_project\stm32\f407\hack_rf_new\lvgl\src/lv_widgets\lv_cont.h ****      * - Place the object next to each other
  60:d:\_project\stm32\f407\hack_rf_new\lvgl\src/lv_widgets\lv_cont.h ****      * - If there is no more space start a new row
  61:d:\_project\stm32\f407\hack_rf_new\lvgl\src/lv_widgets\lv_cont.h ****      * - Respect `pad_left` and `pad_right` when determining the available space in a row
  62:d:\_project\stm32\f407\hack_rf_new\lvgl\src/lv_widgets\lv_cont.h ****      * - Keep `pad_inner` space between the objects in the same row
  63:d:\_project\stm32\f407\hack_rf_new\lvgl\src/lv_widgets\lv_cont.h ****      * - Keep `pad_inner` space between the objects in rows
  64:d:\_project\stm32\f407\hack_rf_new\lvgl\src/lv_widgets\lv_cont.h ****      * - Divide the remaining horizontal space equally
  65:d:\_project\stm32\f407\hack_rf_new\lvgl\src/lv_widgets\lv_cont.h ****      */
  66:d:\_project\stm32\f407\hack_rf_new\lvgl\src/lv_widgets\lv_cont.h ****     LV_LAYOUT_PRETTY_TOP,       /**< Row top align*/
  67:d:\_project\stm32\f407\hack_rf_new\lvgl\src/lv_widgets\lv_cont.h ****     LV_LAYOUT_PRETTY_MID,       /**< Row middle align*/
  68:d:\_project\stm32\f407\hack_rf_new\lvgl\src/lv_widgets\lv_cont.h ****     LV_LAYOUT_PRETTY_BOTTOM,    /**< Row bottom align*/
  69:d:\_project\stm32\f407\hack_rf_new\lvgl\src/lv_widgets\lv_cont.h **** 
  70:d:\_project\stm32\f407\hack_rf_new\lvgl\src/lv_widgets\lv_cont.h ****     /**
  71:d:\_project\stm32\f407\hack_rf_new\lvgl\src/lv_widgets\lv_cont.h ****      * GRID
  72:d:\_project\stm32\f407\hack_rf_new\lvgl\src/lv_widgets\lv_cont.h ****      * - Place the object next to each other
  73:d:\_project\stm32\f407\hack_rf_new\lvgl\src/lv_widgets\lv_cont.h ****      * - If there is no more space start a new row
  74:d:\_project\stm32\f407\hack_rf_new\lvgl\src/lv_widgets\lv_cont.h ****      * - Respect `pad_left` and `pad_right` when determining the available space in a row
  75:d:\_project\stm32\f407\hack_rf_new\lvgl\src/lv_widgets\lv_cont.h ****      * - Keep `pad_inner` space between the objects in the same row
  76:d:\_project\stm32\f407\hack_rf_new\lvgl\src/lv_widgets\lv_cont.h ****      * - Keep `pad_inner` space between the objects in rows
  77:d:\_project\stm32\f407\hack_rf_new\lvgl\src/lv_widgets\lv_cont.h ****      * - Unlike `PRETTY`, `GRID` always keep `pad_inner` space horizontally between objects
  78:d:\_project\stm32\f407\hack_rf_new\lvgl\src/lv_widgets\lv_cont.h ****      *   so it doesn't divide the remaining horizontal space equally
  79:d:\_project\stm32\f407\hack_rf_new\lvgl\src/lv_widgets\lv_cont.h ****      */
ARM GAS  D:\Temp\ccBnYEXJ.s 			page 42


  80:d:\_project\stm32\f407\hack_rf_new\lvgl\src/lv_widgets\lv_cont.h ****     LV_LAYOUT_GRID,   /**< Align same-sized object into a grid*/
  81:d:\_project\stm32\f407\hack_rf_new\lvgl\src/lv_widgets\lv_cont.h **** 
  82:d:\_project\stm32\f407\hack_rf_new\lvgl\src/lv_widgets\lv_cont.h ****     _LV_LAYOUT_LAST
  83:d:\_project\stm32\f407\hack_rf_new\lvgl\src/lv_widgets\lv_cont.h **** };
  84:d:\_project\stm32\f407\hack_rf_new\lvgl\src/lv_widgets\lv_cont.h **** typedef uint8_t lv_layout_t;
  85:d:\_project\stm32\f407\hack_rf_new\lvgl\src/lv_widgets\lv_cont.h **** 
  86:d:\_project\stm32\f407\hack_rf_new\lvgl\src/lv_widgets\lv_cont.h **** /**
  87:d:\_project\stm32\f407\hack_rf_new\lvgl\src/lv_widgets\lv_cont.h ****  * How to resize the container around the children.
  88:d:\_project\stm32\f407\hack_rf_new\lvgl\src/lv_widgets\lv_cont.h ****  */
  89:d:\_project\stm32\f407\hack_rf_new\lvgl\src/lv_widgets\lv_cont.h **** enum {
  90:d:\_project\stm32\f407\hack_rf_new\lvgl\src/lv_widgets\lv_cont.h ****     LV_FIT_NONE,  /**< Do not change the size automatically*/
  91:d:\_project\stm32\f407\hack_rf_new\lvgl\src/lv_widgets\lv_cont.h ****     LV_FIT_TIGHT, /**< Shrink wrap around the children */
  92:d:\_project\stm32\f407\hack_rf_new\lvgl\src/lv_widgets\lv_cont.h ****     LV_FIT_PARENT, /**< Align the size to the parent's edge*/
  93:d:\_project\stm32\f407\hack_rf_new\lvgl\src/lv_widgets\lv_cont.h ****     LV_FIT_MAX,  /**< Align the size to the parent's edge first but if there is an object out of it
  94:d:\_project\stm32\f407\hack_rf_new\lvgl\src/lv_widgets\lv_cont.h ****                      then get larger */
  95:d:\_project\stm32\f407\hack_rf_new\lvgl\src/lv_widgets\lv_cont.h ****     _LV_FIT_LAST
  96:d:\_project\stm32\f407\hack_rf_new\lvgl\src/lv_widgets\lv_cont.h **** };
  97:d:\_project\stm32\f407\hack_rf_new\lvgl\src/lv_widgets\lv_cont.h **** typedef uint8_t lv_fit_t;
  98:d:\_project\stm32\f407\hack_rf_new\lvgl\src/lv_widgets\lv_cont.h **** 
  99:d:\_project\stm32\f407\hack_rf_new\lvgl\src/lv_widgets\lv_cont.h **** typedef struct {
 100:d:\_project\stm32\f407\hack_rf_new\lvgl\src/lv_widgets\lv_cont.h ****     /*Inherited from 'base_obj' so no inherited ext. */ /*Ext. of ancestor*/
 101:d:\_project\stm32\f407\hack_rf_new\lvgl\src/lv_widgets\lv_cont.h ****     /*New data for this type */
 102:d:\_project\stm32\f407\hack_rf_new\lvgl\src/lv_widgets\lv_cont.h ****     lv_layout_t layout : 4;     /*A layout from 'lv_layout_t' enum*/
 103:d:\_project\stm32\f407\hack_rf_new\lvgl\src/lv_widgets\lv_cont.h ****     lv_fit_t fit_left : 2;   /*A fit type from `lv_fit_t` enum */
 104:d:\_project\stm32\f407\hack_rf_new\lvgl\src/lv_widgets\lv_cont.h ****     lv_fit_t fit_right : 2;  /*A fit type from `lv_fit_t` enum */
 105:d:\_project\stm32\f407\hack_rf_new\lvgl\src/lv_widgets\lv_cont.h ****     lv_fit_t fit_top : 2;    /*A fit type from `lv_fit_t` enum */
 106:d:\_project\stm32\f407\hack_rf_new\lvgl\src/lv_widgets\lv_cont.h ****     lv_fit_t fit_bottom : 2; /*A fit type from `lv_fit_t` enum */
 107:d:\_project\stm32\f407\hack_rf_new\lvgl\src/lv_widgets\lv_cont.h **** } lv_cont_ext_t;
 108:d:\_project\stm32\f407\hack_rf_new\lvgl\src/lv_widgets\lv_cont.h **** 
 109:d:\_project\stm32\f407\hack_rf_new\lvgl\src/lv_widgets\lv_cont.h **** /*Part of the container*/
 110:d:\_project\stm32\f407\hack_rf_new\lvgl\src/lv_widgets\lv_cont.h **** enum {
 111:d:\_project\stm32\f407\hack_rf_new\lvgl\src/lv_widgets\lv_cont.h ****     LV_CONT_PART_MAIN = LV_OBJ_PART_MAIN,
 112:d:\_project\stm32\f407\hack_rf_new\lvgl\src/lv_widgets\lv_cont.h ****     _LV_CONT_PART_VIRTUAL_LAST = _LV_OBJ_PART_VIRTUAL_LAST,
 113:d:\_project\stm32\f407\hack_rf_new\lvgl\src/lv_widgets\lv_cont.h ****     _LV_CONT_PART_REAL_LAST = _LV_OBJ_PART_REAL_LAST,
 114:d:\_project\stm32\f407\hack_rf_new\lvgl\src/lv_widgets\lv_cont.h **** };
 115:d:\_project\stm32\f407\hack_rf_new\lvgl\src/lv_widgets\lv_cont.h **** 
 116:d:\_project\stm32\f407\hack_rf_new\lvgl\src/lv_widgets\lv_cont.h **** /**********************
 117:d:\_project\stm32\f407\hack_rf_new\lvgl\src/lv_widgets\lv_cont.h ****  * GLOBAL PROTOTYPES
 118:d:\_project\stm32\f407\hack_rf_new\lvgl\src/lv_widgets\lv_cont.h ****  **********************/
 119:d:\_project\stm32\f407\hack_rf_new\lvgl\src/lv_widgets\lv_cont.h **** 
 120:d:\_project\stm32\f407\hack_rf_new\lvgl\src/lv_widgets\lv_cont.h **** /**
 121:d:\_project\stm32\f407\hack_rf_new\lvgl\src/lv_widgets\lv_cont.h ****  * Create a container objects
 122:d:\_project\stm32\f407\hack_rf_new\lvgl\src/lv_widgets\lv_cont.h ****  * @param par pointer to an object, it will be the parent of the new container
 123:d:\_project\stm32\f407\hack_rf_new\lvgl\src/lv_widgets\lv_cont.h ****  * @param copy pointer to a container object, if not NULL then the new object will be copied from i
 124:d:\_project\stm32\f407\hack_rf_new\lvgl\src/lv_widgets\lv_cont.h ****  * @return pointer to the created container
 125:d:\_project\stm32\f407\hack_rf_new\lvgl\src/lv_widgets\lv_cont.h ****  */
 126:d:\_project\stm32\f407\hack_rf_new\lvgl\src/lv_widgets\lv_cont.h **** lv_obj_t * lv_cont_create(lv_obj_t * par, const lv_obj_t * copy);
 127:d:\_project\stm32\f407\hack_rf_new\lvgl\src/lv_widgets\lv_cont.h **** 
 128:d:\_project\stm32\f407\hack_rf_new\lvgl\src/lv_widgets\lv_cont.h **** /*=====================
 129:d:\_project\stm32\f407\hack_rf_new\lvgl\src/lv_widgets\lv_cont.h ****  * Setter functions
 130:d:\_project\stm32\f407\hack_rf_new\lvgl\src/lv_widgets\lv_cont.h ****  *====================*/
 131:d:\_project\stm32\f407\hack_rf_new\lvgl\src/lv_widgets\lv_cont.h **** 
 132:d:\_project\stm32\f407\hack_rf_new\lvgl\src/lv_widgets\lv_cont.h **** /**
 133:d:\_project\stm32\f407\hack_rf_new\lvgl\src/lv_widgets\lv_cont.h ****  * Set a layout on a container
 134:d:\_project\stm32\f407\hack_rf_new\lvgl\src/lv_widgets\lv_cont.h ****  * @param cont pointer to a container object
 135:d:\_project\stm32\f407\hack_rf_new\lvgl\src/lv_widgets\lv_cont.h ****  * @param layout a layout from 'lv_cont_layout_t'
 136:d:\_project\stm32\f407\hack_rf_new\lvgl\src/lv_widgets\lv_cont.h ****  */
ARM GAS  D:\Temp\ccBnYEXJ.s 			page 43


 137:d:\_project\stm32\f407\hack_rf_new\lvgl\src/lv_widgets\lv_cont.h **** void lv_cont_set_layout(lv_obj_t * cont, lv_layout_t layout);
 138:d:\_project\stm32\f407\hack_rf_new\lvgl\src/lv_widgets\lv_cont.h **** 
 139:d:\_project\stm32\f407\hack_rf_new\lvgl\src/lv_widgets\lv_cont.h **** /**
 140:d:\_project\stm32\f407\hack_rf_new\lvgl\src/lv_widgets\lv_cont.h ****  * Set the fit policy in all 4 directions separately.
 141:d:\_project\stm32\f407\hack_rf_new\lvgl\src/lv_widgets\lv_cont.h ****  * It tell how to change the container's size automatically.
 142:d:\_project\stm32\f407\hack_rf_new\lvgl\src/lv_widgets\lv_cont.h ****  * @param cont pointer to a container object
 143:d:\_project\stm32\f407\hack_rf_new\lvgl\src/lv_widgets\lv_cont.h ****  * @param left left fit policy from `lv_fit_t`
 144:d:\_project\stm32\f407\hack_rf_new\lvgl\src/lv_widgets\lv_cont.h ****  * @param right right fit policy from `lv_fit_t`
 145:d:\_project\stm32\f407\hack_rf_new\lvgl\src/lv_widgets\lv_cont.h ****  * @param top top fit policy from `lv_fit_t`
 146:d:\_project\stm32\f407\hack_rf_new\lvgl\src/lv_widgets\lv_cont.h ****  * @param bottom bottom fit policy from `lv_fit_t`
 147:d:\_project\stm32\f407\hack_rf_new\lvgl\src/lv_widgets\lv_cont.h ****  */
 148:d:\_project\stm32\f407\hack_rf_new\lvgl\src/lv_widgets\lv_cont.h **** void lv_cont_set_fit4(lv_obj_t * cont, lv_fit_t left, lv_fit_t right, lv_fit_t top, lv_fit_t bottom
 149:d:\_project\stm32\f407\hack_rf_new\lvgl\src/lv_widgets\lv_cont.h **** 
 150:d:\_project\stm32\f407\hack_rf_new\lvgl\src/lv_widgets\lv_cont.h **** /**
 151:d:\_project\stm32\f407\hack_rf_new\lvgl\src/lv_widgets\lv_cont.h ****  * Set the fit policy horizontally and vertically separately.
 152:d:\_project\stm32\f407\hack_rf_new\lvgl\src/lv_widgets\lv_cont.h ****  * It tells how to change the container's size automatically.
 153:d:\_project\stm32\f407\hack_rf_new\lvgl\src/lv_widgets\lv_cont.h ****  * @param cont pointer to a container object
 154:d:\_project\stm32\f407\hack_rf_new\lvgl\src/lv_widgets\lv_cont.h ****  * @param hor horizontal fit policy from `lv_fit_t`
 155:d:\_project\stm32\f407\hack_rf_new\lvgl\src/lv_widgets\lv_cont.h ****  * @param ver vertical fit policy from `lv_fit_t`
 156:d:\_project\stm32\f407\hack_rf_new\lvgl\src/lv_widgets\lv_cont.h ****  */
 157:d:\_project\stm32\f407\hack_rf_new\lvgl\src/lv_widgets\lv_cont.h **** static inline void lv_cont_set_fit2(lv_obj_t * cont, lv_fit_t hor, lv_fit_t ver)
 636              		.loc 7 157 20 discriminator 4 view .LVU130
 637              	.LBB224:
 158:d:\_project\stm32\f407\hack_rf_new\lvgl\src/lv_widgets\lv_cont.h **** {
 159:d:\_project\stm32\f407\hack_rf_new\lvgl\src/lv_widgets\lv_cont.h ****     lv_cont_set_fit4(cont, hor, hor, ver, ver);
 638              		.loc 7 159 5 discriminator 4 view .LVU131
 639 0080 0125     		movs	r5, #1
 640 0082 0095     		str	r5, [sp]
 641 0084 2B46     		mov	r3, r5
 642 0086 0022     		movs	r2, #0
 643 0088 1146     		mov	r1, r2
 644 008a 2046     		mov	r0, r4
 645 008c FFF7FEFF 		bl	lv_cont_set_fit4
 646              	.LVL75:
 647              		.loc 7 159 5 is_stmt 0 discriminator 4 view .LVU132
 648              	.LBE224:
 649              	.LBE223:
 132:lv_examples/src/lv_demo_widgets/lv_demo_widgets.c ****     lv_obj_t * btn = lv_btn_create(h, NULL);
 650              		.loc 1 132 5 is_stmt 1 discriminator 4 view .LVU133
 651 0090 3946     		mov	r1, r7
 652 0092 2046     		mov	r0, r4
 653 0094 FFF7FEFF 		bl	lv_obj_set_width
 654              	.LVL76:
 133:lv_examples/src/lv_demo_widgets/lv_demo_widgets.c ****     lv_btn_set_fit2(btn, LV_FIT_NONE, LV_FIT_TIGHT);
 655              		.loc 1 133 5 discriminator 4 view .LVU134
 133:lv_examples/src/lv_demo_widgets/lv_demo_widgets.c ****     lv_btn_set_fit2(btn, LV_FIT_NONE, LV_FIT_TIGHT);
 656              		.loc 1 133 22 is_stmt 0 discriminator 4 view .LVU135
 657 0098 0021     		movs	r1, #0
 658 009a 2046     		mov	r0, r4
 659 009c FFF7FEFF 		bl	lv_btn_create
 660              	.LVL77:
 661 00a0 0746     		mov	r7, r0
 662              	.LVL78:
 134:lv_examples/src/lv_demo_widgets/lv_demo_widgets.c ****     lv_obj_set_width(btn, lv_obj_get_width_grid(h, disp_size <= LV_DISP_SIZE_SMALL ? 1 : 2, 1));
 663              		.loc 1 134 5 is_stmt 1 discriminator 4 view .LVU136
 664              	.LBB225:
 665              	.LBI225:
ARM GAS  D:\Temp\ccBnYEXJ.s 			page 44


 666              		.file 8 "d:\\_project\\stm32\\f407\\hack_rf_new\\lvgl\\src/lv_widgets/lv_btn.h"
   1:d:\_project\stm32\f407\hack_rf_new\lvgl\src/lv_widgets\lv_btn.h **** /**
   2:d:\_project\stm32\f407\hack_rf_new\lvgl\src/lv_widgets\lv_btn.h ****  * @file lv_btn.h
   3:d:\_project\stm32\f407\hack_rf_new\lvgl\src/lv_widgets\lv_btn.h ****  *
   4:d:\_project\stm32\f407\hack_rf_new\lvgl\src/lv_widgets\lv_btn.h ****  */
   5:d:\_project\stm32\f407\hack_rf_new\lvgl\src/lv_widgets\lv_btn.h **** 
   6:d:\_project\stm32\f407\hack_rf_new\lvgl\src/lv_widgets\lv_btn.h **** #ifndef LV_BTN_H
   7:d:\_project\stm32\f407\hack_rf_new\lvgl\src/lv_widgets\lv_btn.h **** #define LV_BTN_H
   8:d:\_project\stm32\f407\hack_rf_new\lvgl\src/lv_widgets\lv_btn.h **** 
   9:d:\_project\stm32\f407\hack_rf_new\lvgl\src/lv_widgets\lv_btn.h **** #ifdef __cplusplus
  10:d:\_project\stm32\f407\hack_rf_new\lvgl\src/lv_widgets\lv_btn.h **** extern "C" {
  11:d:\_project\stm32\f407\hack_rf_new\lvgl\src/lv_widgets\lv_btn.h **** #endif
  12:d:\_project\stm32\f407\hack_rf_new\lvgl\src/lv_widgets\lv_btn.h **** 
  13:d:\_project\stm32\f407\hack_rf_new\lvgl\src/lv_widgets\lv_btn.h **** /*********************
  14:d:\_project\stm32\f407\hack_rf_new\lvgl\src/lv_widgets\lv_btn.h ****  *      INCLUDES
  15:d:\_project\stm32\f407\hack_rf_new\lvgl\src/lv_widgets\lv_btn.h ****  *********************/
  16:d:\_project\stm32\f407\hack_rf_new\lvgl\src/lv_widgets\lv_btn.h **** #include "../lv_conf_internal.h"
  17:d:\_project\stm32\f407\hack_rf_new\lvgl\src/lv_widgets\lv_btn.h **** 
  18:d:\_project\stm32\f407\hack_rf_new\lvgl\src/lv_widgets\lv_btn.h **** #if LV_USE_BTN != 0
  19:d:\_project\stm32\f407\hack_rf_new\lvgl\src/lv_widgets\lv_btn.h **** 
  20:d:\_project\stm32\f407\hack_rf_new\lvgl\src/lv_widgets\lv_btn.h **** /*Testing of dependencies*/
  21:d:\_project\stm32\f407\hack_rf_new\lvgl\src/lv_widgets\lv_btn.h **** #if LV_USE_CONT == 0
  22:d:\_project\stm32\f407\hack_rf_new\lvgl\src/lv_widgets\lv_btn.h **** #error "lv_btn: lv_cont is required. Enable it in lv_conf.h (LV_USE_CONT 1)"
  23:d:\_project\stm32\f407\hack_rf_new\lvgl\src/lv_widgets\lv_btn.h **** #endif
  24:d:\_project\stm32\f407\hack_rf_new\lvgl\src/lv_widgets\lv_btn.h **** 
  25:d:\_project\stm32\f407\hack_rf_new\lvgl\src/lv_widgets\lv_btn.h **** #include "lv_cont.h"
  26:d:\_project\stm32\f407\hack_rf_new\lvgl\src/lv_widgets\lv_btn.h **** #include "../lv_core/lv_indev.h"
  27:d:\_project\stm32\f407\hack_rf_new\lvgl\src/lv_widgets\lv_btn.h **** 
  28:d:\_project\stm32\f407\hack_rf_new\lvgl\src/lv_widgets\lv_btn.h **** /*********************
  29:d:\_project\stm32\f407\hack_rf_new\lvgl\src/lv_widgets\lv_btn.h ****  *      DEFINES
  30:d:\_project\stm32\f407\hack_rf_new\lvgl\src/lv_widgets\lv_btn.h ****  *********************/
  31:d:\_project\stm32\f407\hack_rf_new\lvgl\src/lv_widgets\lv_btn.h **** 
  32:d:\_project\stm32\f407\hack_rf_new\lvgl\src/lv_widgets\lv_btn.h **** /**********************
  33:d:\_project\stm32\f407\hack_rf_new\lvgl\src/lv_widgets\lv_btn.h ****  *      TYPEDEFS
  34:d:\_project\stm32\f407\hack_rf_new\lvgl\src/lv_widgets\lv_btn.h ****  **********************/
  35:d:\_project\stm32\f407\hack_rf_new\lvgl\src/lv_widgets\lv_btn.h **** 
  36:d:\_project\stm32\f407\hack_rf_new\lvgl\src/lv_widgets\lv_btn.h **** /** Possible states of a button.
  37:d:\_project\stm32\f407\hack_rf_new\lvgl\src/lv_widgets\lv_btn.h ****  * It can be used not only by buttons but other button-like objects too*/
  38:d:\_project\stm32\f407\hack_rf_new\lvgl\src/lv_widgets\lv_btn.h **** enum {
  39:d:\_project\stm32\f407\hack_rf_new\lvgl\src/lv_widgets\lv_btn.h ****     LV_BTN_STATE_RELEASED,
  40:d:\_project\stm32\f407\hack_rf_new\lvgl\src/lv_widgets\lv_btn.h ****     LV_BTN_STATE_PRESSED,
  41:d:\_project\stm32\f407\hack_rf_new\lvgl\src/lv_widgets\lv_btn.h ****     LV_BTN_STATE_DISABLED,
  42:d:\_project\stm32\f407\hack_rf_new\lvgl\src/lv_widgets\lv_btn.h ****     LV_BTN_STATE_CHECKED_RELEASED,
  43:d:\_project\stm32\f407\hack_rf_new\lvgl\src/lv_widgets\lv_btn.h ****     LV_BTN_STATE_CHECKED_PRESSED,
  44:d:\_project\stm32\f407\hack_rf_new\lvgl\src/lv_widgets\lv_btn.h ****     LV_BTN_STATE_CHECKED_DISABLED,
  45:d:\_project\stm32\f407\hack_rf_new\lvgl\src/lv_widgets\lv_btn.h ****     _LV_BTN_STATE_LAST, /* Number of states*/
  46:d:\_project\stm32\f407\hack_rf_new\lvgl\src/lv_widgets\lv_btn.h **** };
  47:d:\_project\stm32\f407\hack_rf_new\lvgl\src/lv_widgets\lv_btn.h **** typedef uint8_t lv_btn_state_t;
  48:d:\_project\stm32\f407\hack_rf_new\lvgl\src/lv_widgets\lv_btn.h **** 
  49:d:\_project\stm32\f407\hack_rf_new\lvgl\src/lv_widgets\lv_btn.h **** /** Extended data of button*/
  50:d:\_project\stm32\f407\hack_rf_new\lvgl\src/lv_widgets\lv_btn.h **** typedef struct {
  51:d:\_project\stm32\f407\hack_rf_new\lvgl\src/lv_widgets\lv_btn.h ****     /** Ext. of ancestor*/
  52:d:\_project\stm32\f407\hack_rf_new\lvgl\src/lv_widgets\lv_btn.h ****     lv_cont_ext_t cont;
  53:d:\_project\stm32\f407\hack_rf_new\lvgl\src/lv_widgets\lv_btn.h **** 
  54:d:\_project\stm32\f407\hack_rf_new\lvgl\src/lv_widgets\lv_btn.h ****     /** 1: Toggle enabled*/
  55:d:\_project\stm32\f407\hack_rf_new\lvgl\src/lv_widgets\lv_btn.h ****     uint8_t checkable : 1;
  56:d:\_project\stm32\f407\hack_rf_new\lvgl\src/lv_widgets\lv_btn.h **** } lv_btn_ext_t;
ARM GAS  D:\Temp\ccBnYEXJ.s 			page 45


  57:d:\_project\stm32\f407\hack_rf_new\lvgl\src/lv_widgets\lv_btn.h **** 
  58:d:\_project\stm32\f407\hack_rf_new\lvgl\src/lv_widgets\lv_btn.h **** /**Styles*/
  59:d:\_project\stm32\f407\hack_rf_new\lvgl\src/lv_widgets\lv_btn.h **** enum {
  60:d:\_project\stm32\f407\hack_rf_new\lvgl\src/lv_widgets\lv_btn.h ****     LV_BTN_PART_MAIN = LV_OBJ_PART_MAIN,
  61:d:\_project\stm32\f407\hack_rf_new\lvgl\src/lv_widgets\lv_btn.h ****     _LV_BTN_PART_VIRTUAL_LAST,
  62:d:\_project\stm32\f407\hack_rf_new\lvgl\src/lv_widgets\lv_btn.h ****     _LV_BTN_PART_REAL_LAST = _LV_OBJ_PART_REAL_LAST,
  63:d:\_project\stm32\f407\hack_rf_new\lvgl\src/lv_widgets\lv_btn.h **** };
  64:d:\_project\stm32\f407\hack_rf_new\lvgl\src/lv_widgets\lv_btn.h **** typedef uint8_t lv_btn_part_t;
  65:d:\_project\stm32\f407\hack_rf_new\lvgl\src/lv_widgets\lv_btn.h **** 
  66:d:\_project\stm32\f407\hack_rf_new\lvgl\src/lv_widgets\lv_btn.h **** /**********************
  67:d:\_project\stm32\f407\hack_rf_new\lvgl\src/lv_widgets\lv_btn.h ****  * GLOBAL PROTOTYPES
  68:d:\_project\stm32\f407\hack_rf_new\lvgl\src/lv_widgets\lv_btn.h ****  **********************/
  69:d:\_project\stm32\f407\hack_rf_new\lvgl\src/lv_widgets\lv_btn.h **** 
  70:d:\_project\stm32\f407\hack_rf_new\lvgl\src/lv_widgets\lv_btn.h **** /**
  71:d:\_project\stm32\f407\hack_rf_new\lvgl\src/lv_widgets\lv_btn.h ****  * Create a button object
  72:d:\_project\stm32\f407\hack_rf_new\lvgl\src/lv_widgets\lv_btn.h ****  * @param par pointer to an object, it will be the parent of the new button
  73:d:\_project\stm32\f407\hack_rf_new\lvgl\src/lv_widgets\lv_btn.h ****  * @param copy pointer to a button object, if not NULL then the new object will be copied from it
  74:d:\_project\stm32\f407\hack_rf_new\lvgl\src/lv_widgets\lv_btn.h ****  * @return pointer to the created button
  75:d:\_project\stm32\f407\hack_rf_new\lvgl\src/lv_widgets\lv_btn.h ****  */
  76:d:\_project\stm32\f407\hack_rf_new\lvgl\src/lv_widgets\lv_btn.h **** lv_obj_t * lv_btn_create(lv_obj_t * par, const lv_obj_t * copy);
  77:d:\_project\stm32\f407\hack_rf_new\lvgl\src/lv_widgets\lv_btn.h **** 
  78:d:\_project\stm32\f407\hack_rf_new\lvgl\src/lv_widgets\lv_btn.h **** /*=====================
  79:d:\_project\stm32\f407\hack_rf_new\lvgl\src/lv_widgets\lv_btn.h ****  * Setter functions
  80:d:\_project\stm32\f407\hack_rf_new\lvgl\src/lv_widgets\lv_btn.h ****  *====================*/
  81:d:\_project\stm32\f407\hack_rf_new\lvgl\src/lv_widgets\lv_btn.h **** 
  82:d:\_project\stm32\f407\hack_rf_new\lvgl\src/lv_widgets\lv_btn.h **** /**
  83:d:\_project\stm32\f407\hack_rf_new\lvgl\src/lv_widgets\lv_btn.h ****  * Enable the toggled states. On release the button will change from/to toggled state.
  84:d:\_project\stm32\f407\hack_rf_new\lvgl\src/lv_widgets\lv_btn.h ****  * @param btn pointer to a button object
  85:d:\_project\stm32\f407\hack_rf_new\lvgl\src/lv_widgets\lv_btn.h ****  * @param tgl true: enable toggled states, false: disable
  86:d:\_project\stm32\f407\hack_rf_new\lvgl\src/lv_widgets\lv_btn.h ****  */
  87:d:\_project\stm32\f407\hack_rf_new\lvgl\src/lv_widgets\lv_btn.h **** void lv_btn_set_checkable(lv_obj_t * btn, bool tgl);
  88:d:\_project\stm32\f407\hack_rf_new\lvgl\src/lv_widgets\lv_btn.h **** 
  89:d:\_project\stm32\f407\hack_rf_new\lvgl\src/lv_widgets\lv_btn.h **** /**
  90:d:\_project\stm32\f407\hack_rf_new\lvgl\src/lv_widgets\lv_btn.h ****  * Set the state of the button
  91:d:\_project\stm32\f407\hack_rf_new\lvgl\src/lv_widgets\lv_btn.h ****  * @param btn pointer to a button object
  92:d:\_project\stm32\f407\hack_rf_new\lvgl\src/lv_widgets\lv_btn.h ****  * @param state the new state of the button (from lv_btn_state_t enum)
  93:d:\_project\stm32\f407\hack_rf_new\lvgl\src/lv_widgets\lv_btn.h ****  */
  94:d:\_project\stm32\f407\hack_rf_new\lvgl\src/lv_widgets\lv_btn.h **** void lv_btn_set_state(lv_obj_t * btn, lv_btn_state_t state);
  95:d:\_project\stm32\f407\hack_rf_new\lvgl\src/lv_widgets\lv_btn.h **** 
  96:d:\_project\stm32\f407\hack_rf_new\lvgl\src/lv_widgets\lv_btn.h **** /**
  97:d:\_project\stm32\f407\hack_rf_new\lvgl\src/lv_widgets\lv_btn.h ****  * Toggle the state of the button (ON->OFF, OFF->ON)
  98:d:\_project\stm32\f407\hack_rf_new\lvgl\src/lv_widgets\lv_btn.h ****  * @param btn pointer to a button object
  99:d:\_project\stm32\f407\hack_rf_new\lvgl\src/lv_widgets\lv_btn.h ****  */
 100:d:\_project\stm32\f407\hack_rf_new\lvgl\src/lv_widgets\lv_btn.h **** void lv_btn_toggle(lv_obj_t * btn);
 101:d:\_project\stm32\f407\hack_rf_new\lvgl\src/lv_widgets\lv_btn.h **** 
 102:d:\_project\stm32\f407\hack_rf_new\lvgl\src/lv_widgets\lv_btn.h **** /**
 103:d:\_project\stm32\f407\hack_rf_new\lvgl\src/lv_widgets\lv_btn.h ****  * Set the layout on a button
 104:d:\_project\stm32\f407\hack_rf_new\lvgl\src/lv_widgets\lv_btn.h ****  * @param btn pointer to a button object
 105:d:\_project\stm32\f407\hack_rf_new\lvgl\src/lv_widgets\lv_btn.h ****  * @param layout a layout from 'lv_cont_layout_t'
 106:d:\_project\stm32\f407\hack_rf_new\lvgl\src/lv_widgets\lv_btn.h ****  */
 107:d:\_project\stm32\f407\hack_rf_new\lvgl\src/lv_widgets\lv_btn.h **** static inline void lv_btn_set_layout(lv_obj_t * btn, lv_layout_t layout)
 108:d:\_project\stm32\f407\hack_rf_new\lvgl\src/lv_widgets\lv_btn.h **** {
 109:d:\_project\stm32\f407\hack_rf_new\lvgl\src/lv_widgets\lv_btn.h ****     lv_cont_set_layout(btn, layout);
 110:d:\_project\stm32\f407\hack_rf_new\lvgl\src/lv_widgets\lv_btn.h **** }
 111:d:\_project\stm32\f407\hack_rf_new\lvgl\src/lv_widgets\lv_btn.h **** 
 112:d:\_project\stm32\f407\hack_rf_new\lvgl\src/lv_widgets\lv_btn.h **** /**
 113:d:\_project\stm32\f407\hack_rf_new\lvgl\src/lv_widgets\lv_btn.h ****  * Set the fit policy in all 4 directions separately.
ARM GAS  D:\Temp\ccBnYEXJ.s 			page 46


 114:d:\_project\stm32\f407\hack_rf_new\lvgl\src/lv_widgets\lv_btn.h ****  * It tells how to change the button size automatically.
 115:d:\_project\stm32\f407\hack_rf_new\lvgl\src/lv_widgets\lv_btn.h ****  * @param btn pointer to a button object
 116:d:\_project\stm32\f407\hack_rf_new\lvgl\src/lv_widgets\lv_btn.h ****  * @param left left fit policy from `lv_fit_t`
 117:d:\_project\stm32\f407\hack_rf_new\lvgl\src/lv_widgets\lv_btn.h ****  * @param right right fit policy from `lv_fit_t`
 118:d:\_project\stm32\f407\hack_rf_new\lvgl\src/lv_widgets\lv_btn.h ****  * @param top top fit policy from `lv_fit_t`
 119:d:\_project\stm32\f407\hack_rf_new\lvgl\src/lv_widgets\lv_btn.h ****  * @param bottom bottom fit policy from `lv_fit_t`
 120:d:\_project\stm32\f407\hack_rf_new\lvgl\src/lv_widgets\lv_btn.h ****  */
 121:d:\_project\stm32\f407\hack_rf_new\lvgl\src/lv_widgets\lv_btn.h **** static inline void lv_btn_set_fit4(lv_obj_t * btn, lv_fit_t left, lv_fit_t right, lv_fit_t top, lv_
 122:d:\_project\stm32\f407\hack_rf_new\lvgl\src/lv_widgets\lv_btn.h **** {
 123:d:\_project\stm32\f407\hack_rf_new\lvgl\src/lv_widgets\lv_btn.h ****     lv_cont_set_fit4(btn, left, right, top, bottom);
 124:d:\_project\stm32\f407\hack_rf_new\lvgl\src/lv_widgets\lv_btn.h **** }
 125:d:\_project\stm32\f407\hack_rf_new\lvgl\src/lv_widgets\lv_btn.h **** 
 126:d:\_project\stm32\f407\hack_rf_new\lvgl\src/lv_widgets\lv_btn.h **** /**
 127:d:\_project\stm32\f407\hack_rf_new\lvgl\src/lv_widgets\lv_btn.h ****  * Set the fit policy horizontally and vertically separately.
 128:d:\_project\stm32\f407\hack_rf_new\lvgl\src/lv_widgets\lv_btn.h ****  * It tells how to change the button size automatically.
 129:d:\_project\stm32\f407\hack_rf_new\lvgl\src/lv_widgets\lv_btn.h ****  * @param btn pointer to a button object
 130:d:\_project\stm32\f407\hack_rf_new\lvgl\src/lv_widgets\lv_btn.h ****  * @param hor horizontal fit policy from `lv_fit_t`
 131:d:\_project\stm32\f407\hack_rf_new\lvgl\src/lv_widgets\lv_btn.h ****  * @param ver vertical fit policy from `lv_fit_t`
 132:d:\_project\stm32\f407\hack_rf_new\lvgl\src/lv_widgets\lv_btn.h ****  */
 133:d:\_project\stm32\f407\hack_rf_new\lvgl\src/lv_widgets\lv_btn.h **** static inline void lv_btn_set_fit2(lv_obj_t * btn, lv_fit_t hor, lv_fit_t ver)
 667              		.loc 8 133 20 discriminator 4 view .LVU137
 668              	.LBE225:
 134:d:\_project\stm32\f407\hack_rf_new\lvgl\src/lv_widgets\lv_btn.h **** {
 135:d:\_project\stm32\f407\hack_rf_new\lvgl\src/lv_widgets\lv_btn.h ****     lv_cont_set_fit2(btn, hor, ver);
 669              		.loc 8 135 5 discriminator 4 view .LVU138
 670              	.LBB228:
 671              	.LBB226:
 672              	.LBI226:
 157:d:\_project\stm32\f407\hack_rf_new\lvgl\src/lv_widgets\lv_cont.h **** {
 673              		.loc 7 157 20 discriminator 4 view .LVU139
 674              	.LBB227:
 675              		.loc 7 159 5 discriminator 4 view .LVU140
 676 00a2 0095     		str	r5, [sp]
 677 00a4 2B46     		mov	r3, r5
 678 00a6 0022     		movs	r2, #0
 679 00a8 1146     		mov	r1, r2
 680 00aa FFF7FEFF 		bl	lv_cont_set_fit4
 681              	.LVL79:
 682              		.loc 7 159 5 is_stmt 0 discriminator 4 view .LVU141
 683              	.LBE227:
 684              	.LBE226:
 685              	.LBE228:
 135:lv_examples/src/lv_demo_widgets/lv_demo_widgets.c ****     lv_obj_t * label = lv_label_create(btn, NULL);
 686              		.loc 1 135 5 is_stmt 1 discriminator 4 view .LVU142
 687 00ae 2A46     		mov	r2, r5
 688 00b0 4146     		mov	r1, r8
 689 00b2 2046     		mov	r0, r4
 690 00b4 FFF7FEFF 		bl	lv_obj_get_width_grid
 691              	.LVL80:
 692 00b8 0146     		mov	r1, r0
 693 00ba 3846     		mov	r0, r7
 694 00bc FFF7FEFF 		bl	lv_obj_set_width
 695              	.LVL81:
 136:lv_examples/src/lv_demo_widgets/lv_demo_widgets.c ****     lv_label_set_text(label ,"Button");
 696              		.loc 1 136 5 discriminator 4 view .LVU143
 136:lv_examples/src/lv_demo_widgets/lv_demo_widgets.c ****     lv_label_set_text(label ,"Button");
 697              		.loc 1 136 24 is_stmt 0 discriminator 4 view .LVU144
ARM GAS  D:\Temp\ccBnYEXJ.s 			page 47


 698 00c0 0021     		movs	r1, #0
 699 00c2 3846     		mov	r0, r7
 700 00c4 FFF7FEFF 		bl	lv_label_create
 701              	.LVL82:
 137:lv_examples/src/lv_demo_widgets/lv_demo_widgets.c **** 
 702              		.loc 1 137 5 is_stmt 1 discriminator 4 view .LVU145
 703 00c8 AD4D     		ldr	r5, .L51+12
 704 00ca 2946     		mov	r1, r5
 705 00cc FFF7FEFF 		bl	lv_label_set_text
 706              	.LVL83:
 139:lv_examples/src/lv_demo_widgets/lv_demo_widgets.c ****     lv_btn_toggle(btn);
 707              		.loc 1 139 5 discriminator 4 view .LVU146
 139:lv_examples/src/lv_demo_widgets/lv_demo_widgets.c ****     lv_btn_toggle(btn);
 708              		.loc 1 139 11 is_stmt 0 discriminator 4 view .LVU147
 709 00d0 3946     		mov	r1, r7
 710 00d2 2046     		mov	r0, r4
 711 00d4 FFF7FEFF 		bl	lv_btn_create
 712              	.LVL84:
 713 00d8 0746     		mov	r7, r0
 714              	.LVL85:
 140:lv_examples/src/lv_demo_widgets/lv_demo_widgets.c ****     label = lv_label_create(btn, NULL);
 715              		.loc 1 140 5 is_stmt 1 discriminator 4 view .LVU148
 716 00da FFF7FEFF 		bl	lv_btn_toggle
 717              	.LVL86:
 141:lv_examples/src/lv_demo_widgets/lv_demo_widgets.c ****     lv_label_set_text(label ,"Button");
 718              		.loc 1 141 5 discriminator 4 view .LVU149
 141:lv_examples/src/lv_demo_widgets/lv_demo_widgets.c ****     lv_label_set_text(label ,"Button");
 719              		.loc 1 141 13 is_stmt 0 discriminator 4 view .LVU150
 720 00de 0021     		movs	r1, #0
 721 00e0 3846     		mov	r0, r7
 722 00e2 FFF7FEFF 		bl	lv_label_create
 723              	.LVL87:
 142:lv_examples/src/lv_demo_widgets/lv_demo_widgets.c **** 
 724              		.loc 1 142 5 is_stmt 1 discriminator 4 view .LVU151
 725 00e6 2946     		mov	r1, r5
 726 00e8 FFF7FEFF 		bl	lv_label_set_text
 727              	.LVL88:
 144:lv_examples/src/lv_demo_widgets/lv_demo_widgets.c **** 
 728              		.loc 1 144 5 discriminator 4 view .LVU152
 729 00ec 0021     		movs	r1, #0
 730 00ee 2046     		mov	r0, r4
 731 00f0 FFF7FEFF 		bl	lv_switch_create
 732              	.LVL89:
 146:lv_examples/src/lv_demo_widgets/lv_demo_widgets.c **** 
 733              		.loc 1 146 5 discriminator 4 view .LVU153
 734 00f4 0021     		movs	r1, #0
 735 00f6 2046     		mov	r0, r4
 736 00f8 FFF7FEFF 		bl	lv_checkbox_create
 737              	.LVL90:
 148:lv_examples/src/lv_demo_widgets/lv_demo_widgets.c **** 
 738              		.loc 1 148 5 discriminator 4 view .LVU154
 148:lv_examples/src/lv_demo_widgets/lv_demo_widgets.c **** 
 739              		.loc 1 148 24 is_stmt 0 discriminator 4 view .LVU155
 740 00fc 2046     		mov	r0, r4
 741 00fe FFF7FEFF 		bl	lv_obj_get_width_fit
 742              	.LVL91:
 743 0102 0746     		mov	r7, r0
ARM GAS  D:\Temp\ccBnYEXJ.s 			page 48


 744              	.LVL92:
 150:lv_examples/src/lv_demo_widgets/lv_demo_widgets.c ****     lv_slider_set_value(slider, 40, LV_ANIM_OFF);
 745              		.loc 1 150 5 is_stmt 1 discriminator 4 view .LVU156
 150:lv_examples/src/lv_demo_widgets/lv_demo_widgets.c ****     lv_slider_set_value(slider, 40, LV_ANIM_OFF);
 746              		.loc 1 150 25 is_stmt 0 discriminator 4 view .LVU157
 747 0104 0021     		movs	r1, #0
 748 0106 2046     		mov	r0, r4
 749 0108 FFF7FEFF 		bl	lv_slider_create
 750              	.LVL93:
 751 010c 0546     		mov	r5, r0
 752              	.LVL94:
 151:lv_examples/src/lv_demo_widgets/lv_demo_widgets.c ****     lv_obj_set_event_cb(slider, slider_event_cb);
 753              		.loc 1 151 5 is_stmt 1 discriminator 4 view .LVU158
 754              	.LBB229:
 755              	.LBI229:
  84:d:\_project\stm32\f407\hack_rf_new\lvgl\src/lv_widgets\lv_slider.h **** {
 756              		.loc 4 84 20 discriminator 4 view .LVU159
 757              	.LBB230:
  86:d:\_project\stm32\f407\hack_rf_new\lvgl\src/lv_widgets\lv_slider.h **** }
 758              		.loc 4 86 5 discriminator 4 view .LVU160
 759 010e 0022     		movs	r2, #0
 760 0110 2821     		movs	r1, #40
 761 0112 FFF7FEFF 		bl	lv_bar_set_value
 762              	.LVL95:
  86:d:\_project\stm32\f407\hack_rf_new\lvgl\src/lv_widgets\lv_slider.h **** }
 763              		.loc 4 86 5 is_stmt 0 discriminator 4 view .LVU161
 764              	.LBE230:
 765              	.LBE229:
 152:lv_examples/src/lv_demo_widgets/lv_demo_widgets.c ****     lv_obj_set_width_margin(slider, fit_w);
 766              		.loc 1 152 5 is_stmt 1 discriminator 4 view .LVU162
 767 0116 9B49     		ldr	r1, .L51+16
 768 0118 2846     		mov	r0, r5
 769 011a FFF7FEFF 		bl	lv_obj_set_event_cb
 770              	.LVL96:
 153:lv_examples/src/lv_demo_widgets/lv_demo_widgets.c **** 
 771              		.loc 1 153 5 discriminator 4 view .LVU163
 772 011e 3946     		mov	r1, r7
 773 0120 2846     		mov	r0, r5
 774 0122 FFF7FEFF 		bl	lv_obj_set_width_margin
 775              	.LVL97:
 156:lv_examples/src/lv_demo_widgets/lv_demo_widgets.c ****     lv_obj_set_style_local_value_font(slider, LV_SLIDER_PART_KNOB, LV_STATE_DEFAULT, lv_theme_get_f
 776              		.loc 1 156 5 discriminator 4 view .LVU164
 156:lv_examples/src/lv_demo_widgets/lv_demo_widgets.c ****     lv_obj_set_style_local_value_font(slider, LV_SLIDER_PART_KNOB, LV_STATE_DEFAULT, lv_theme_get_f
 777              		.loc 1 156 84 is_stmt 0 discriminator 4 view .LVU165
 778 0126 0020     		movs	r0, #0
 779 0128 FFF7FEFF 		bl	lv_disp_get_dpi
 780              	.LVL98:
 781 012c 00EB8000 		add	r0, r0, r0, lsl #2
 782 0130 00EB8000 		add	r0, r0, r0, lsl #2
 156:lv_examples/src/lv_demo_widgets/lv_demo_widgets.c ****     lv_obj_set_style_local_value_font(slider, LV_SLIDER_PART_KNOB, LV_STATE_DEFAULT, lv_theme_get_f
 783              		.loc 1 156 5 discriminator 4 view .LVU166
 784 0134 EF28     		cmp	r0, #239
 785 0136 00F3E880 		bgt	.L47
 156:lv_examples/src/lv_demo_widgets/lv_demo_widgets.c ****     lv_obj_set_style_local_value_font(slider, LV_SLIDER_PART_KNOB, LV_STATE_DEFAULT, lv_theme_get_f
 786              		.loc 1 156 5 view .LVU167
 787 013a 0123     		movs	r3, #1
 788              	.L38:
ARM GAS  D:\Temp\ccBnYEXJ.s 			page 49


 789              	.LVL99:
 790              	.LBB231:
 791              	.LBI231:
 115:d:\_project\stm32\f407\hack_rf_new\lvgl\src/lv_core\lv_obj_style_dec.h **** _LV_OBJ_STYLE_SET_GET_DECLARE(MARGIN_BOTTOM, margin_bottom, lv_style_int_t, _int, scalar)
 792              		.loc 5 115 1 is_stmt 1 discriminator 4 view .LVU168
 793              	.LBB232:
 115:d:\_project\stm32\f407\hack_rf_new\lvgl\src/lv_core\lv_obj_style_dec.h **** _LV_OBJ_STYLE_SET_GET_DECLARE(MARGIN_BOTTOM, margin_bottom, lv_style_int_t, _int, scalar)
 794              		.loc 5 115 1 discriminator 4 view .LVU169
 795 013c 1522     		movs	r2, #21
 796 013e 0021     		movs	r1, #0
 797 0140 2846     		mov	r0, r5
 798 0142 FFF7FEFF 		bl	_lv_obj_set_style_local_int
 799              	.LVL100:
 115:d:\_project\stm32\f407\hack_rf_new\lvgl\src/lv_core\lv_obj_style_dec.h **** _LV_OBJ_STYLE_SET_GET_DECLARE(MARGIN_BOTTOM, margin_bottom, lv_style_int_t, _int, scalar)
 800              		.loc 5 115 1 is_stmt 0 discriminator 4 view .LVU170
 801              	.LBE232:
 802              	.LBE231:
 157:lv_examples/src/lv_demo_widgets/lv_demo_widgets.c ****     lv_obj_set_style_local_value_ofs_y(slider, LV_SLIDER_PART_KNOB, LV_STATE_FOCUSED, - LV_DPX(25))
 803              		.loc 1 157 5 is_stmt 1 discriminator 4 view .LVU171
 804 0146 FFF7FEFF 		bl	lv_theme_get_font_small
 805              	.LVL101:
 806              	.LBB233:
 807              	.LBI233:
 158:d:\_project\stm32\f407\hack_rf_new\lvgl\src/lv_core\lv_obj_style_dec.h **** _LV_OBJ_STYLE_SET_GET_DECLARE(VALUE_STR, value_str, const char *, _ptr, scalar)
 808              		.loc 5 158 1 discriminator 4 view .LVU172
 809              	.LBB234:
 158:d:\_project\stm32\f407\hack_rf_new\lvgl\src/lv_core\lv_obj_style_dec.h **** _LV_OBJ_STYLE_SET_GET_DECLARE(VALUE_STR, value_str, const char *, _ptr, scalar)
 810              		.loc 5 158 1 discriminator 4 view .LVU173
 811 014a 0346     		mov	r3, r0
 812 014c 7E22     		movs	r2, #126
 813 014e 0221     		movs	r1, #2
 814 0150 2846     		mov	r0, r5
 815              	.LVL102:
 158:d:\_project\stm32\f407\hack_rf_new\lvgl\src/lv_core\lv_obj_style_dec.h **** _LV_OBJ_STYLE_SET_GET_DECLARE(VALUE_STR, value_str, const char *, _ptr, scalar)
 816              		.loc 5 158 1 is_stmt 0 discriminator 4 view .LVU174
 817 0152 FFF7FEFF 		bl	_lv_obj_set_style_local_ptr
 818              	.LVL103:
 158:d:\_project\stm32\f407\hack_rf_new\lvgl\src/lv_core\lv_obj_style_dec.h **** _LV_OBJ_STYLE_SET_GET_DECLARE(VALUE_STR, value_str, const char *, _ptr, scalar)
 819              		.loc 5 158 1 discriminator 4 view .LVU175
 820              	.LBE234:
 821              	.LBE233:
 158:lv_examples/src/lv_demo_widgets/lv_demo_widgets.c ****     lv_obj_set_style_local_value_opa(slider, LV_SLIDER_PART_KNOB, LV_STATE_DEFAULT, LV_OPA_TRANSP);
 822              		.loc 1 158 5 is_stmt 1 discriminator 4 view .LVU176
 158:lv_examples/src/lv_demo_widgets/lv_demo_widgets.c ****     lv_obj_set_style_local_value_opa(slider, LV_SLIDER_PART_KNOB, LV_STATE_DEFAULT, LV_OPA_TRANSP);
 823              		.loc 1 158 89 is_stmt 0 discriminator 4 view .LVU177
 824 0156 0020     		movs	r0, #0
 825 0158 FFF7FEFF 		bl	lv_disp_get_dpi
 826              	.LVL104:
 827 015c 00EB8000 		add	r0, r0, r0, lsl #2
 828 0160 00EB8000 		add	r0, r0, r0, lsl #2
 158:lv_examples/src/lv_demo_widgets/lv_demo_widgets.c ****     lv_obj_set_style_local_value_opa(slider, LV_SLIDER_PART_KNOB, LV_STATE_DEFAULT, LV_OPA_TRANSP);
 829              		.loc 1 158 5 discriminator 4 view .LVU178
 830 0164 EF28     		cmp	r0, #239
 831 0166 00F3E080 		bgt	.L48
 158:lv_examples/src/lv_demo_widgets/lv_demo_widgets.c ****     lv_obj_set_style_local_value_opa(slider, LV_SLIDER_PART_KNOB, LV_STATE_DEFAULT, LV_OPA_TRANSP);
 832              		.loc 1 158 5 view .LVU179
 833 016a 4FF0FF33 		mov	r3, #-1
ARM GAS  D:\Temp\ccBnYEXJ.s 			page 50


 834              	.L39:
 835              	.LVL105:
 836              	.LBB235:
 837              	.LBI235:
 154:d:\_project\stm32\f407\hack_rf_new\lvgl\src/lv_core\lv_obj_style_dec.h **** _LV_OBJ_STYLE_SET_GET_DECLARE(VALUE_ALIGN, value_align, lv_align_t, _int, scalar)
 838              		.loc 5 154 1 is_stmt 1 discriminator 4 view .LVU180
 839              	.LBB236:
 154:d:\_project\stm32\f407\hack_rf_new\lvgl\src/lv_core\lv_obj_style_dec.h **** _LV_OBJ_STYLE_SET_GET_DECLARE(VALUE_ALIGN, value_align, lv_align_t, _int, scalar)
 840              		.loc 5 154 1 discriminator 4 view .LVU181
 841 016e 4FF41D72 		mov	r2, #628
 842 0172 0221     		movs	r1, #2
 843 0174 2846     		mov	r0, r5
 844 0176 FFF7FEFF 		bl	_lv_obj_set_style_local_int
 845              	.LVL106:
 154:d:\_project\stm32\f407\hack_rf_new\lvgl\src/lv_core\lv_obj_style_dec.h **** _LV_OBJ_STYLE_SET_GET_DECLARE(VALUE_ALIGN, value_align, lv_align_t, _int, scalar)
 846              		.loc 5 154 1 is_stmt 0 discriminator 4 view .LVU182
 847              	.LBE236:
 848              	.LBE235:
 159:lv_examples/src/lv_demo_widgets/lv_demo_widgets.c ****     lv_obj_set_style_local_value_opa(slider, LV_SLIDER_PART_KNOB, LV_STATE_FOCUSED, LV_OPA_COVER);
 849              		.loc 1 159 5 is_stmt 1 discriminator 4 view .LVU183
 850              	.LBB237:
 851              	.LBI237:
 157:d:\_project\stm32\f407\hack_rf_new\lvgl\src/lv_core\lv_obj_style_dec.h **** _LV_OBJ_STYLE_SET_GET_DECLARE(VALUE_FONT, value_font, const lv_font_t *, _ptr, scalar)
 852              		.loc 5 157 1 discriminator 4 view .LVU184
 853              	.LBB238:
 157:d:\_project\stm32\f407\hack_rf_new\lvgl\src/lv_core\lv_obj_style_dec.h **** _LV_OBJ_STYLE_SET_GET_DECLARE(VALUE_FONT, value_font, const lv_font_t *, _ptr, scalar)
 854              		.loc 5 157 1 discriminator 4 view .LVU185
 855 017a 0023     		movs	r3, #0
 856 017c 7C22     		movs	r2, #124
 857 017e 0221     		movs	r1, #2
 858 0180 2846     		mov	r0, r5
 859 0182 FFF7FEFF 		bl	_lv_obj_set_style_local_opa
 860              	.LVL107:
 157:d:\_project\stm32\f407\hack_rf_new\lvgl\src/lv_core\lv_obj_style_dec.h **** _LV_OBJ_STYLE_SET_GET_DECLARE(VALUE_FONT, value_font, const lv_font_t *, _ptr, scalar)
 861              		.loc 5 157 1 is_stmt 0 discriminator 4 view .LVU186
 862              	.LBE238:
 863              	.LBE237:
 160:lv_examples/src/lv_demo_widgets/lv_demo_widgets.c ****     lv_obj_set_style_local_transition_time(slider, LV_SLIDER_PART_KNOB, LV_STATE_DEFAULT, 300);
 864              		.loc 1 160 5 is_stmt 1 discriminator 4 view .LVU187
 865              	.LBB239:
 866              	.LBI239:
 157:d:\_project\stm32\f407\hack_rf_new\lvgl\src/lv_core\lv_obj_style_dec.h **** _LV_OBJ_STYLE_SET_GET_DECLARE(VALUE_FONT, value_font, const lv_font_t *, _ptr, scalar)
 867              		.loc 5 157 1 discriminator 4 view .LVU188
 868              	.LBB240:
 157:d:\_project\stm32\f407\hack_rf_new\lvgl\src/lv_core\lv_obj_style_dec.h **** _LV_OBJ_STYLE_SET_GET_DECLARE(VALUE_FONT, value_font, const lv_font_t *, _ptr, scalar)
 869              		.loc 5 157 1 discriminator 4 view .LVU189
 870 0186 FF23     		movs	r3, #255
 871 0188 4FF41F72 		mov	r2, #636
 872 018c 0221     		movs	r1, #2
 873 018e 2846     		mov	r0, r5
 874 0190 FFF7FEFF 		bl	_lv_obj_set_style_local_opa
 875              	.LVL108:
 157:d:\_project\stm32\f407\hack_rf_new\lvgl\src/lv_core\lv_obj_style_dec.h **** _LV_OBJ_STYLE_SET_GET_DECLARE(VALUE_FONT, value_font, const lv_font_t *, _ptr, scalar)
 876              		.loc 5 157 1 is_stmt 0 discriminator 4 view .LVU190
 877              	.LBE240:
 878              	.LBE239:
 161:lv_examples/src/lv_demo_widgets/lv_demo_widgets.c ****     lv_obj_set_style_local_transition_prop_5(slider, LV_SLIDER_PART_KNOB, LV_STATE_DEFAULT, LV_STYL
ARM GAS  D:\Temp\ccBnYEXJ.s 			page 51


 879              		.loc 1 161 5 is_stmt 1 discriminator 4 view .LVU191
 880              	.LBB241:
 881              	.LBI241:
 160:d:\_project\stm32\f407\hack_rf_new\lvgl\src/lv_core\lv_obj_style_dec.h **** _LV_OBJ_STYLE_SET_GET_DECLARE(TEXT_LETTER_SPACE, text_letter_space, lv_style_int_t, _int, scalar)
 161:d:\_project\stm32\f407\hack_rf_new\lvgl\src/lv_core\lv_obj_style_dec.h **** _LV_OBJ_STYLE_SET_GET_DECLARE(TEXT_LINE_SPACE, text_line_space, lv_style_int_t, _int, scalar)
 162:d:\_project\stm32\f407\hack_rf_new\lvgl\src/lv_core\lv_obj_style_dec.h **** _LV_OBJ_STYLE_SET_GET_DECLARE(TEXT_DECOR, text_decor, lv_text_decor_t, _int, scalar)
 163:d:\_project\stm32\f407\hack_rf_new\lvgl\src/lv_core\lv_obj_style_dec.h **** _LV_OBJ_STYLE_SET_GET_DECLARE(TEXT_BLEND_MODE, text_blend_mode, lv_blend_mode_t, _int, scalar)
 164:d:\_project\stm32\f407\hack_rf_new\lvgl\src/lv_core\lv_obj_style_dec.h **** _LV_OBJ_STYLE_SET_GET_DECLARE(TEXT_COLOR, text_color, lv_color_t, _color, nonscalar)
 165:d:\_project\stm32\f407\hack_rf_new\lvgl\src/lv_core\lv_obj_style_dec.h **** _LV_OBJ_STYLE_SET_GET_DECLARE(TEXT_SEL_COLOR, text_sel_color, lv_color_t, _color, nonscalar)
 166:d:\_project\stm32\f407\hack_rf_new\lvgl\src/lv_core\lv_obj_style_dec.h **** _LV_OBJ_STYLE_SET_GET_DECLARE(TEXT_SEL_BG_COLOR, text_sel_bg_color, lv_color_t, _color, nonscalar)
 167:d:\_project\stm32\f407\hack_rf_new\lvgl\src/lv_core\lv_obj_style_dec.h **** _LV_OBJ_STYLE_SET_GET_DECLARE(TEXT_OPA, text_opa, lv_opa_t, _opa, scalar)
 168:d:\_project\stm32\f407\hack_rf_new\lvgl\src/lv_core\lv_obj_style_dec.h **** _LV_OBJ_STYLE_SET_GET_DECLARE(TEXT_FONT, text_font, const lv_font_t *, _ptr, scalar)
 169:d:\_project\stm32\f407\hack_rf_new\lvgl\src/lv_core\lv_obj_style_dec.h **** _LV_OBJ_STYLE_SET_GET_DECLARE(LINE_WIDTH, line_width, lv_style_int_t, _int, scalar)
 170:d:\_project\stm32\f407\hack_rf_new\lvgl\src/lv_core\lv_obj_style_dec.h **** _LV_OBJ_STYLE_SET_GET_DECLARE(LINE_BLEND_MODE, line_blend_mode, lv_blend_mode_t, _int, scalar)
