ARM GAS  D:\Temp\ccGEpo4V.s 			page 1


   1              		.cpu cortex-m4
   2              		.eabi_attribute 27, 1
   3              		.eabi_attribute 28, 1
   4              		.eabi_attribute 20, 1
   5              		.eabi_attribute 21, 1
   6              		.eabi_attribute 23, 3
   7              		.eabi_attribute 24, 1
   8              		.eabi_attribute 25, 1
   9              		.eabi_attribute 26, 1
  10              		.eabi_attribute 30, 1
  11              		.eabi_attribute 34, 1
  12              		.eabi_attribute 18, 4
  13              		.file	"lv_draw_rect.c"
  14              		.text
  15              	.Ltext0:
  16              		.cfi_sections	.debug_frame
  17              		.section	.text.shadow_blur_corner,"ax",%progbits
  18              		.align	1
  19              		.arch armv7e-m
  20              		.syntax unified
  21              		.thumb
  22              		.thumb_func
  23              		.fpu fpv4-sp-d16
  25              	shadow_blur_corner:
  26              	.LVL0:
  27              	.LFB466:
  28              		.file 1 "lvgl/src/lv_draw/lv_draw_rect.c"
   1:lvgl/src/lv_draw/lv_draw_rect.c **** /**
   2:lvgl/src/lv_draw/lv_draw_rect.c ****  * @file lv_draw_rect.c
   3:lvgl/src/lv_draw/lv_draw_rect.c ****  *
   4:lvgl/src/lv_draw/lv_draw_rect.c ****  */
   5:lvgl/src/lv_draw/lv_draw_rect.c **** 
   6:lvgl/src/lv_draw/lv_draw_rect.c **** /*********************
   7:lvgl/src/lv_draw/lv_draw_rect.c ****  *      INCLUDES
   8:lvgl/src/lv_draw/lv_draw_rect.c ****  *********************/
   9:lvgl/src/lv_draw/lv_draw_rect.c **** #include "lv_draw_rect.h"
  10:lvgl/src/lv_draw/lv_draw_rect.c **** #include "lv_draw_blend.h"
  11:lvgl/src/lv_draw/lv_draw_rect.c **** #include "lv_draw_mask.h"
  12:lvgl/src/lv_draw/lv_draw_rect.c **** #include "../lv_misc/lv_math.h"
  13:lvgl/src/lv_draw/lv_draw_rect.c **** #include "../lv_misc/lv_txt_ap.h"
  14:lvgl/src/lv_draw/lv_draw_rect.c **** #include "../lv_core/lv_refr.h"
  15:lvgl/src/lv_draw/lv_draw_rect.c **** #include "../lv_misc/lv_debug.h"
  16:lvgl/src/lv_draw/lv_draw_rect.c **** 
  17:lvgl/src/lv_draw/lv_draw_rect.c **** /*********************
  18:lvgl/src/lv_draw/lv_draw_rect.c ****  *      DEFINES
  19:lvgl/src/lv_draw/lv_draw_rect.c ****  *********************/
  20:lvgl/src/lv_draw/lv_draw_rect.c **** #define SHADOW_UPSCALE_SHIFT   6
  21:lvgl/src/lv_draw/lv_draw_rect.c **** #define SHADOW_ENHANCE          1
  22:lvgl/src/lv_draw/lv_draw_rect.c **** #define SPLIT_LIMIT             50
  23:lvgl/src/lv_draw/lv_draw_rect.c **** 
  24:lvgl/src/lv_draw/lv_draw_rect.c **** /**********************
  25:lvgl/src/lv_draw/lv_draw_rect.c ****  *      TYPEDEFS
  26:lvgl/src/lv_draw/lv_draw_rect.c ****  **********************/
  27:lvgl/src/lv_draw/lv_draw_rect.c **** 
  28:lvgl/src/lv_draw/lv_draw_rect.c **** /**********************
  29:lvgl/src/lv_draw/lv_draw_rect.c ****  *  STATIC PROTOTYPES
  30:lvgl/src/lv_draw/lv_draw_rect.c ****  **********************/
ARM GAS  D:\Temp\ccGEpo4V.s 			page 2


  31:lvgl/src/lv_draw/lv_draw_rect.c **** LV_ATTRIBUTE_FAST_MEM static void draw_bg(const lv_area_t * coords, const lv_area_t * clip,
  32:lvgl/src/lv_draw/lv_draw_rect.c ****                                           const lv_draw_rect_dsc_t * dsc);
  33:lvgl/src/lv_draw/lv_draw_rect.c **** LV_ATTRIBUTE_FAST_MEM static void draw_border(const lv_area_t * coords, const lv_area_t * clip,
  34:lvgl/src/lv_draw/lv_draw_rect.c ****                                               const lv_draw_rect_dsc_t * dsc);
  35:lvgl/src/lv_draw/lv_draw_rect.c **** 
  36:lvgl/src/lv_draw/lv_draw_rect.c **** #if LV_USE_OUTLINE
  37:lvgl/src/lv_draw/lv_draw_rect.c ****     static void draw_outline(const lv_area_t * coords, const lv_area_t * clip, const lv_draw_rect_d
  38:lvgl/src/lv_draw/lv_draw_rect.c **** #endif
  39:lvgl/src/lv_draw/lv_draw_rect.c **** #if LV_USE_SHADOW
  40:lvgl/src/lv_draw/lv_draw_rect.c **** LV_ATTRIBUTE_FAST_MEM static void draw_shadow(const lv_area_t * coords, const lv_area_t * clip,
  41:lvgl/src/lv_draw/lv_draw_rect.c ****                                               const lv_draw_rect_dsc_t * dsc);
  42:lvgl/src/lv_draw/lv_draw_rect.c **** LV_ATTRIBUTE_FAST_MEM static void shadow_draw_corner_buf(const lv_area_t * coords,  uint16_t * sh_b
  43:lvgl/src/lv_draw/lv_draw_rect.c ****                                                          lv_coord_t r);
  44:lvgl/src/lv_draw/lv_draw_rect.c **** LV_ATTRIBUTE_FAST_MEM static void shadow_blur_corner(lv_coord_t size, lv_coord_t sw, uint16_t * sh_
  45:lvgl/src/lv_draw/lv_draw_rect.c **** #endif
  46:lvgl/src/lv_draw/lv_draw_rect.c **** 
  47:lvgl/src/lv_draw/lv_draw_rect.c **** #if LV_USE_PATTERN
  48:lvgl/src/lv_draw/lv_draw_rect.c ****     static void draw_pattern(const lv_area_t * coords, const lv_area_t * clip, const lv_draw_rect_d
  49:lvgl/src/lv_draw/lv_draw_rect.c **** #endif
  50:lvgl/src/lv_draw/lv_draw_rect.c **** 
  51:lvgl/src/lv_draw/lv_draw_rect.c **** #if LV_USE_VALUE_STR
  52:lvgl/src/lv_draw/lv_draw_rect.c ****     static void draw_value_str(const lv_area_t * coords, const lv_area_t * clip, const lv_draw_rect
  53:lvgl/src/lv_draw/lv_draw_rect.c **** #endif
  54:lvgl/src/lv_draw/lv_draw_rect.c **** static void draw_full_border(const lv_area_t * area_inner, const lv_area_t * area_outer, const lv_a
  55:lvgl/src/lv_draw/lv_draw_rect.c ****                              lv_coord_t radius, bool radius_is_in, lv_color_t color, lv_opa_t opa, 
  56:lvgl/src/lv_draw/lv_draw_rect.c **** LV_ATTRIBUTE_FAST_MEM static inline lv_color_t grad_get(const lv_draw_rect_dsc_t * dsc, lv_coord_t 
  57:lvgl/src/lv_draw/lv_draw_rect.c **** 
  58:lvgl/src/lv_draw/lv_draw_rect.c **** /**********************
  59:lvgl/src/lv_draw/lv_draw_rect.c ****  *  STATIC VARIABLES
  60:lvgl/src/lv_draw/lv_draw_rect.c ****  **********************/
  61:lvgl/src/lv_draw/lv_draw_rect.c **** #if LV_USE_SHADOW && LV_SHADOW_CACHE_SIZE
  62:lvgl/src/lv_draw/lv_draw_rect.c ****     static uint8_t sh_cache[LV_SHADOW_CACHE_SIZE * LV_SHADOW_CACHE_SIZE];
  63:lvgl/src/lv_draw/lv_draw_rect.c ****     static int32_t sh_cache_size = -1;
  64:lvgl/src/lv_draw/lv_draw_rect.c ****     static int32_t sh_cache_r = -1;
  65:lvgl/src/lv_draw/lv_draw_rect.c **** #endif
  66:lvgl/src/lv_draw/lv_draw_rect.c **** 
  67:lvgl/src/lv_draw/lv_draw_rect.c **** /**********************
  68:lvgl/src/lv_draw/lv_draw_rect.c ****  *      MACROS
  69:lvgl/src/lv_draw/lv_draw_rect.c ****  **********************/
  70:lvgl/src/lv_draw/lv_draw_rect.c **** 
  71:lvgl/src/lv_draw/lv_draw_rect.c **** /**********************
  72:lvgl/src/lv_draw/lv_draw_rect.c ****  *   GLOBAL FUNCTIONS
  73:lvgl/src/lv_draw/lv_draw_rect.c ****  **********************/
  74:lvgl/src/lv_draw/lv_draw_rect.c **** 
  75:lvgl/src/lv_draw/lv_draw_rect.c **** LV_ATTRIBUTE_FAST_MEM void lv_draw_rect_dsc_init(lv_draw_rect_dsc_t * dsc)
  76:lvgl/src/lv_draw/lv_draw_rect.c **** {
  77:lvgl/src/lv_draw/lv_draw_rect.c ****     _lv_memset_00(dsc, sizeof(lv_draw_rect_dsc_t));
  78:lvgl/src/lv_draw/lv_draw_rect.c ****     dsc->bg_color = LV_COLOR_WHITE;
  79:lvgl/src/lv_draw/lv_draw_rect.c ****     dsc->bg_grad_color = LV_COLOR_BLACK;
  80:lvgl/src/lv_draw/lv_draw_rect.c ****     dsc->border_color = LV_COLOR_BLACK;
  81:lvgl/src/lv_draw/lv_draw_rect.c ****     dsc->pattern_recolor = LV_COLOR_BLACK;
  82:lvgl/src/lv_draw/lv_draw_rect.c ****     dsc->value_color = LV_COLOR_BLACK;
  83:lvgl/src/lv_draw/lv_draw_rect.c ****     dsc->shadow_color = LV_COLOR_BLACK;
  84:lvgl/src/lv_draw/lv_draw_rect.c ****     dsc->bg_grad_color_stop = 0xFF;
  85:lvgl/src/lv_draw/lv_draw_rect.c ****     dsc->bg_opa = LV_OPA_COVER;
  86:lvgl/src/lv_draw/lv_draw_rect.c ****     dsc->outline_opa = LV_OPA_COVER;
  87:lvgl/src/lv_draw/lv_draw_rect.c ****     dsc->border_opa = LV_OPA_COVER;
ARM GAS  D:\Temp\ccGEpo4V.s 			page 3


  88:lvgl/src/lv_draw/lv_draw_rect.c ****     dsc->pattern_opa = LV_OPA_COVER;
  89:lvgl/src/lv_draw/lv_draw_rect.c ****     dsc->pattern_font = LV_THEME_DEFAULT_FONT_NORMAL;
  90:lvgl/src/lv_draw/lv_draw_rect.c ****     dsc->value_opa = LV_OPA_COVER;
  91:lvgl/src/lv_draw/lv_draw_rect.c ****     dsc->value_font = LV_THEME_DEFAULT_FONT_NORMAL;
  92:lvgl/src/lv_draw/lv_draw_rect.c ****     dsc->shadow_opa = LV_OPA_COVER;
  93:lvgl/src/lv_draw/lv_draw_rect.c ****     dsc->border_side = LV_BORDER_SIDE_FULL;
  94:lvgl/src/lv_draw/lv_draw_rect.c **** 
  95:lvgl/src/lv_draw/lv_draw_rect.c **** }
  96:lvgl/src/lv_draw/lv_draw_rect.c **** 
  97:lvgl/src/lv_draw/lv_draw_rect.c **** /**
  98:lvgl/src/lv_draw/lv_draw_rect.c ****  * Draw a rectangle
  99:lvgl/src/lv_draw/lv_draw_rect.c ****  * @param coords the coordinates of the rectangle
 100:lvgl/src/lv_draw/lv_draw_rect.c ****  * @param mask the rectangle will be drawn only in this mask
 101:lvgl/src/lv_draw/lv_draw_rect.c ****  * @param dsc pointer to an initialized `lv_draw_rect_dsc_t` variable
 102:lvgl/src/lv_draw/lv_draw_rect.c ****  */
 103:lvgl/src/lv_draw/lv_draw_rect.c **** void lv_draw_rect(const lv_area_t * coords, const lv_area_t * clip, const lv_draw_rect_dsc_t * dsc)
 104:lvgl/src/lv_draw/lv_draw_rect.c **** {
 105:lvgl/src/lv_draw/lv_draw_rect.c ****     if(lv_area_get_height(coords) < 1 || lv_area_get_width(coords) < 1) return;
 106:lvgl/src/lv_draw/lv_draw_rect.c **** #if LV_USE_SHADOW
 107:lvgl/src/lv_draw/lv_draw_rect.c ****     draw_shadow(coords, clip, dsc);
 108:lvgl/src/lv_draw/lv_draw_rect.c **** #endif
 109:lvgl/src/lv_draw/lv_draw_rect.c **** 
 110:lvgl/src/lv_draw/lv_draw_rect.c ****     draw_bg(coords, clip, dsc);
 111:lvgl/src/lv_draw/lv_draw_rect.c **** 
 112:lvgl/src/lv_draw/lv_draw_rect.c **** #if LV_USE_PATTERN
 113:lvgl/src/lv_draw/lv_draw_rect.c ****     draw_pattern(coords, clip, dsc);
 114:lvgl/src/lv_draw/lv_draw_rect.c **** #endif
 115:lvgl/src/lv_draw/lv_draw_rect.c ****     draw_border(coords, clip, dsc);
 116:lvgl/src/lv_draw/lv_draw_rect.c **** 
 117:lvgl/src/lv_draw/lv_draw_rect.c **** #if LV_USE_VALUE_STR
 118:lvgl/src/lv_draw/lv_draw_rect.c ****     draw_value_str(coords, clip, dsc);
 119:lvgl/src/lv_draw/lv_draw_rect.c **** #endif
 120:lvgl/src/lv_draw/lv_draw_rect.c **** 
 121:lvgl/src/lv_draw/lv_draw_rect.c **** #if LV_USE_OUTLINE
 122:lvgl/src/lv_draw/lv_draw_rect.c ****     draw_outline(coords, clip, dsc);
 123:lvgl/src/lv_draw/lv_draw_rect.c **** #endif
 124:lvgl/src/lv_draw/lv_draw_rect.c **** 
 125:lvgl/src/lv_draw/lv_draw_rect.c ****     LV_ASSERT_MEM_INTEGRITY();
 126:lvgl/src/lv_draw/lv_draw_rect.c **** }
 127:lvgl/src/lv_draw/lv_draw_rect.c **** 
 128:lvgl/src/lv_draw/lv_draw_rect.c **** /**
 129:lvgl/src/lv_draw/lv_draw_rect.c ****  * Draw a pixel
 130:lvgl/src/lv_draw/lv_draw_rect.c ****  * @param point the coordinates of the point to draw
 131:lvgl/src/lv_draw/lv_draw_rect.c ****  * @param mask the pixel will be drawn only in this mask
 132:lvgl/src/lv_draw/lv_draw_rect.c ****  * @param style pointer to a style
 133:lvgl/src/lv_draw/lv_draw_rect.c ****  * @param opa_scale scale down the opacity by the factor
 134:lvgl/src/lv_draw/lv_draw_rect.c ****  */
 135:lvgl/src/lv_draw/lv_draw_rect.c **** void lv_draw_px(const lv_point_t * point, const lv_area_t * clip_area, const lv_style_t * style)
 136:lvgl/src/lv_draw/lv_draw_rect.c **** {
 137:lvgl/src/lv_draw/lv_draw_rect.c ****     LV_UNUSED(point);
 138:lvgl/src/lv_draw/lv_draw_rect.c ****     LV_UNUSED(clip_area);
 139:lvgl/src/lv_draw/lv_draw_rect.c ****     LV_UNUSED(style);
 140:lvgl/src/lv_draw/lv_draw_rect.c ****     //    lv_opa_t opa = style->body.opa;
 141:lvgl/src/lv_draw/lv_draw_rect.c ****     //    if(opa_scale != LV_OPA_COVER) opa = (opa * opa_scale) >> 8;
 142:lvgl/src/lv_draw/lv_draw_rect.c ****     //
 143:lvgl/src/lv_draw/lv_draw_rect.c ****     //    if(opa > LV_OPA_MAX) opa = LV_OPA_COVER;
 144:lvgl/src/lv_draw/lv_draw_rect.c ****     //
ARM GAS  D:\Temp\ccGEpo4V.s 			page 4


 145:lvgl/src/lv_draw/lv_draw_rect.c ****     //    lv_area_t fill_area;
 146:lvgl/src/lv_draw/lv_draw_rect.c ****     //    fill_area.x1 = point->x;
 147:lvgl/src/lv_draw/lv_draw_rect.c ****     //    fill_area.y1 = point->y;
 148:lvgl/src/lv_draw/lv_draw_rect.c ****     //    fill_area.x2 = point->x;
 149:lvgl/src/lv_draw/lv_draw_rect.c ****     //    fill_area.y2 = point->y;
 150:lvgl/src/lv_draw/lv_draw_rect.c ****     //
 151:lvgl/src/lv_draw/lv_draw_rect.c ****     //    uint8_t mask_cnt = lv_draw_mask_get_cnt();
 152:lvgl/src/lv_draw/lv_draw_rect.c ****     //
 153:lvgl/src/lv_draw/lv_draw_rect.c ****     //    if(mask_cnt == 0) {
 154:lvgl/src/lv_draw/lv_draw_rect.c ****     //        lv_blend_fill(clip_area, &fill_area, style->body.main_color, NULL, LV_DRAW_MASK_RES_F
 155:lvgl/src/lv_draw/lv_draw_rect.c ****     //    } else {
 156:lvgl/src/lv_draw/lv_draw_rect.c ****     //        uint8_t mask_buf;
 157:lvgl/src/lv_draw/lv_draw_rect.c ****     //        lv_draw_mask_res_t mask_res;
 158:lvgl/src/lv_draw/lv_draw_rect.c ****     //        mask_res = lv_draw_mask_apply(&mask_buf, point->x, point->y, 1);
 159:lvgl/src/lv_draw/lv_draw_rect.c ****     //        lv_blend_fill(clip_area, &fill_area, style->body.main_color, &mask_buf, mask_res, opa
 160:lvgl/src/lv_draw/lv_draw_rect.c ****     //    }
 161:lvgl/src/lv_draw/lv_draw_rect.c **** }
 162:lvgl/src/lv_draw/lv_draw_rect.c **** 
 163:lvgl/src/lv_draw/lv_draw_rect.c **** /**********************
 164:lvgl/src/lv_draw/lv_draw_rect.c ****  *   STATIC FUNCTIONS
 165:lvgl/src/lv_draw/lv_draw_rect.c ****  **********************/
 166:lvgl/src/lv_draw/lv_draw_rect.c **** 
 167:lvgl/src/lv_draw/lv_draw_rect.c **** LV_ATTRIBUTE_FAST_MEM static void draw_bg(const lv_area_t * coords, const lv_area_t * clip,
 168:lvgl/src/lv_draw/lv_draw_rect.c ****                                           const lv_draw_rect_dsc_t * dsc)
 169:lvgl/src/lv_draw/lv_draw_rect.c **** {
 170:lvgl/src/lv_draw/lv_draw_rect.c ****     if(dsc->bg_opa <= LV_OPA_MIN) return;
 171:lvgl/src/lv_draw/lv_draw_rect.c **** 
 172:lvgl/src/lv_draw/lv_draw_rect.c ****     lv_area_t coords_bg;
 173:lvgl/src/lv_draw/lv_draw_rect.c ****     lv_area_copy(&coords_bg, coords);
 174:lvgl/src/lv_draw/lv_draw_rect.c **** 
 175:lvgl/src/lv_draw/lv_draw_rect.c ****     /*If the border fully covers make the bg area 1px smaller to avoid artifacts on the corners*/
 176:lvgl/src/lv_draw/lv_draw_rect.c ****     if(dsc->border_width > 1 && dsc->border_opa >= LV_OPA_MAX && dsc->radius != 0) {
 177:lvgl/src/lv_draw/lv_draw_rect.c ****         coords_bg.x1 += (dsc->border_side & LV_BORDER_SIDE_LEFT) ? 1 : 0;
 178:lvgl/src/lv_draw/lv_draw_rect.c ****         coords_bg.y1 += (dsc->border_side & LV_BORDER_SIDE_TOP) ? 1 : 0;
 179:lvgl/src/lv_draw/lv_draw_rect.c ****         coords_bg.x2 -= (dsc->border_side & LV_BORDER_SIDE_RIGHT) ? 1 : 0;
 180:lvgl/src/lv_draw/lv_draw_rect.c ****         coords_bg.y2 -= (dsc->border_side & LV_BORDER_SIDE_BOTTOM) ? 1 : 0;
 181:lvgl/src/lv_draw/lv_draw_rect.c ****     }
 182:lvgl/src/lv_draw/lv_draw_rect.c **** 
 183:lvgl/src/lv_draw/lv_draw_rect.c ****     lv_opa_t opa = dsc->bg_opa;
 184:lvgl/src/lv_draw/lv_draw_rect.c **** 
 185:lvgl/src/lv_draw/lv_draw_rect.c ****     if(opa > LV_OPA_MAX) opa = LV_OPA_COVER;
 186:lvgl/src/lv_draw/lv_draw_rect.c **** 
 187:lvgl/src/lv_draw/lv_draw_rect.c ****     lv_disp_t * disp    = _lv_refr_get_disp_refreshing();
 188:lvgl/src/lv_draw/lv_draw_rect.c ****     lv_disp_buf_t * vdb = lv_disp_get_buf(disp);
 189:lvgl/src/lv_draw/lv_draw_rect.c **** 
 190:lvgl/src/lv_draw/lv_draw_rect.c ****     /* Get clipped fill area which is the real draw area.
 191:lvgl/src/lv_draw/lv_draw_rect.c ****      * It is always the same or inside `fill_area` */
 192:lvgl/src/lv_draw/lv_draw_rect.c ****     lv_area_t draw_area;
 193:lvgl/src/lv_draw/lv_draw_rect.c ****     bool is_common;
 194:lvgl/src/lv_draw/lv_draw_rect.c ****     is_common = _lv_area_intersect(&draw_area, &coords_bg, clip);
 195:lvgl/src/lv_draw/lv_draw_rect.c ****     if(is_common == false) return;
 196:lvgl/src/lv_draw/lv_draw_rect.c **** 
 197:lvgl/src/lv_draw/lv_draw_rect.c ****     const lv_area_t * disp_area = &vdb->area;
 198:lvgl/src/lv_draw/lv_draw_rect.c **** 
 199:lvgl/src/lv_draw/lv_draw_rect.c ****     /* Now `draw_area` has absolute coordinates.
 200:lvgl/src/lv_draw/lv_draw_rect.c ****      * Make it relative to `disp_area` to simplify draw to `disp_buf`*/
 201:lvgl/src/lv_draw/lv_draw_rect.c ****     draw_area.x1 -= disp_area->x1;
ARM GAS  D:\Temp\ccGEpo4V.s 			page 5


 202:lvgl/src/lv_draw/lv_draw_rect.c ****     draw_area.y1 -= disp_area->y1;
 203:lvgl/src/lv_draw/lv_draw_rect.c ****     draw_area.x2 -= disp_area->x1;
 204:lvgl/src/lv_draw/lv_draw_rect.c ****     draw_area.y2 -= disp_area->y1;
 205:lvgl/src/lv_draw/lv_draw_rect.c **** 
 206:lvgl/src/lv_draw/lv_draw_rect.c ****     int32_t draw_area_w = lv_area_get_width(&draw_area);
 207:lvgl/src/lv_draw/lv_draw_rect.c **** 
 208:lvgl/src/lv_draw/lv_draw_rect.c ****     /*Create a mask if there is a radius*/
 209:lvgl/src/lv_draw/lv_draw_rect.c ****     lv_opa_t * mask_buf = _lv_mem_buf_get(draw_area_w);
 210:lvgl/src/lv_draw/lv_draw_rect.c **** 
 211:lvgl/src/lv_draw/lv_draw_rect.c ****     lv_grad_dir_t grad_dir = dsc->bg_grad_dir;
 212:lvgl/src/lv_draw/lv_draw_rect.c ****     if(dsc->bg_color.full == dsc->bg_grad_color.full) grad_dir = LV_GRAD_DIR_NONE;
 213:lvgl/src/lv_draw/lv_draw_rect.c **** 
 214:lvgl/src/lv_draw/lv_draw_rect.c ****     uint16_t other_mask_cnt = lv_draw_mask_get_cnt();
 215:lvgl/src/lv_draw/lv_draw_rect.c ****     bool simple_mode = true;
 216:lvgl/src/lv_draw/lv_draw_rect.c ****     if(other_mask_cnt) simple_mode = false;
 217:lvgl/src/lv_draw/lv_draw_rect.c ****     else if(grad_dir == LV_GRAD_DIR_HOR) simple_mode = false;
 218:lvgl/src/lv_draw/lv_draw_rect.c **** 
 219:lvgl/src/lv_draw/lv_draw_rect.c ****     int16_t mask_rout_id = LV_MASK_ID_INV;
 220:lvgl/src/lv_draw/lv_draw_rect.c **** 
 221:lvgl/src/lv_draw/lv_draw_rect.c ****     int32_t coords_w = lv_area_get_width(&coords_bg);
 222:lvgl/src/lv_draw/lv_draw_rect.c ****     int32_t coords_h = lv_area_get_height(&coords_bg);
 223:lvgl/src/lv_draw/lv_draw_rect.c **** 
 224:lvgl/src/lv_draw/lv_draw_rect.c ****     /*Get the real radius*/
 225:lvgl/src/lv_draw/lv_draw_rect.c ****     int32_t rout = dsc->radius;
 226:lvgl/src/lv_draw/lv_draw_rect.c ****     int32_t short_side = LV_MATH_MIN(coords_w, coords_h);
 227:lvgl/src/lv_draw/lv_draw_rect.c ****     if(rout > short_side >> 1) rout = short_side >> 1;
 228:lvgl/src/lv_draw/lv_draw_rect.c **** 
 229:lvgl/src/lv_draw/lv_draw_rect.c ****     /*Most simple case: just a plain rectangle*/
 230:lvgl/src/lv_draw/lv_draw_rect.c ****     if(simple_mode && rout == 0 && (grad_dir == LV_GRAD_DIR_NONE)) {
 231:lvgl/src/lv_draw/lv_draw_rect.c ****         _lv_blend_fill(clip, &coords_bg,
 232:lvgl/src/lv_draw/lv_draw_rect.c ****                        dsc->bg_color, NULL, LV_DRAW_MASK_RES_FULL_COVER, opa,
 233:lvgl/src/lv_draw/lv_draw_rect.c ****                        dsc->bg_blend_mode);
 234:lvgl/src/lv_draw/lv_draw_rect.c ****     }
 235:lvgl/src/lv_draw/lv_draw_rect.c ****     /*More complex case: there is a radius, gradient or other mask.*/
 236:lvgl/src/lv_draw/lv_draw_rect.c ****     else {
 237:lvgl/src/lv_draw/lv_draw_rect.c ****         lv_draw_mask_radius_param_t mask_rout_param;
 238:lvgl/src/lv_draw/lv_draw_rect.c ****         if(rout > 0) {
 239:lvgl/src/lv_draw/lv_draw_rect.c ****             lv_draw_mask_radius_init(&mask_rout_param, &coords_bg, rout, false);
 240:lvgl/src/lv_draw/lv_draw_rect.c ****             mask_rout_id = lv_draw_mask_add(&mask_rout_param, NULL);
 241:lvgl/src/lv_draw/lv_draw_rect.c ****         }
 242:lvgl/src/lv_draw/lv_draw_rect.c **** 
 243:lvgl/src/lv_draw/lv_draw_rect.c ****         /*Draw the background line by line*/
 244:lvgl/src/lv_draw/lv_draw_rect.c ****         int32_t h;
 245:lvgl/src/lv_draw/lv_draw_rect.c ****         lv_draw_mask_res_t mask_res = LV_DRAW_MASK_RES_FULL_COVER;
 246:lvgl/src/lv_draw/lv_draw_rect.c ****         lv_color_t grad_color = dsc->bg_color;
 247:lvgl/src/lv_draw/lv_draw_rect.c **** 
 248:lvgl/src/lv_draw/lv_draw_rect.c ****         lv_color_t * grad_map = NULL;
 249:lvgl/src/lv_draw/lv_draw_rect.c ****         /*In case of horizontal gradient pre-compute a line with a gradient*/
 250:lvgl/src/lv_draw/lv_draw_rect.c ****         if(grad_dir == LV_GRAD_DIR_HOR) {
 251:lvgl/src/lv_draw/lv_draw_rect.c ****             grad_map = _lv_mem_buf_get(coords_w * sizeof(lv_color_t));
 252:lvgl/src/lv_draw/lv_draw_rect.c **** 
 253:lvgl/src/lv_draw/lv_draw_rect.c ****             int32_t i;
 254:lvgl/src/lv_draw/lv_draw_rect.c ****             for(i = 0; i < coords_w; i++) {
 255:lvgl/src/lv_draw/lv_draw_rect.c ****                 grad_map[i] = grad_get(dsc, coords_w, i);
 256:lvgl/src/lv_draw/lv_draw_rect.c ****             }
 257:lvgl/src/lv_draw/lv_draw_rect.c ****         }
 258:lvgl/src/lv_draw/lv_draw_rect.c **** 
ARM GAS  D:\Temp\ccGEpo4V.s 			page 6


 259:lvgl/src/lv_draw/lv_draw_rect.c ****         bool split = false;
 260:lvgl/src/lv_draw/lv_draw_rect.c ****         if(lv_area_get_width(&coords_bg) - 2 * rout > SPLIT_LIMIT) split = true;
 261:lvgl/src/lv_draw/lv_draw_rect.c **** 
 262:lvgl/src/lv_draw/lv_draw_rect.c ****         lv_opa_t opa2;
 263:lvgl/src/lv_draw/lv_draw_rect.c **** 
 264:lvgl/src/lv_draw/lv_draw_rect.c ****         lv_area_t fill_area;
 265:lvgl/src/lv_draw/lv_draw_rect.c ****         fill_area.x1 = coords_bg.x1;
 266:lvgl/src/lv_draw/lv_draw_rect.c ****         fill_area.x2 = coords_bg.x2;
 267:lvgl/src/lv_draw/lv_draw_rect.c ****         fill_area.y1 = disp_area->y1 + draw_area.y1;
 268:lvgl/src/lv_draw/lv_draw_rect.c ****         fill_area.y2 = fill_area.y1;
 269:lvgl/src/lv_draw/lv_draw_rect.c ****         for(h = draw_area.y1; h <= draw_area.y2; h++) {
 270:lvgl/src/lv_draw/lv_draw_rect.c ****             int32_t y = h + vdb->area.y1;
 271:lvgl/src/lv_draw/lv_draw_rect.c **** 
 272:lvgl/src/lv_draw/lv_draw_rect.c ****             opa2 = opa;
 273:lvgl/src/lv_draw/lv_draw_rect.c **** 
 274:lvgl/src/lv_draw/lv_draw_rect.c ****             /*In not corner areas apply the mask only if required*/
 275:lvgl/src/lv_draw/lv_draw_rect.c ****             if(y > coords_bg.y1 + rout + 1 &&
 276:lvgl/src/lv_draw/lv_draw_rect.c ****                y < coords_bg.y2 - rout - 1) {
 277:lvgl/src/lv_draw/lv_draw_rect.c ****                 mask_res = LV_DRAW_MASK_RES_FULL_COVER;
 278:lvgl/src/lv_draw/lv_draw_rect.c ****                 if(simple_mode == false) {
 279:lvgl/src/lv_draw/lv_draw_rect.c ****                     _lv_memset(mask_buf, opa, draw_area_w);
 280:lvgl/src/lv_draw/lv_draw_rect.c ****                     mask_res = lv_draw_mask_apply(mask_buf, vdb->area.x1 + draw_area.x1, vdb->area.
 281:lvgl/src/lv_draw/lv_draw_rect.c ****                 }
 282:lvgl/src/lv_draw/lv_draw_rect.c ****             }
 283:lvgl/src/lv_draw/lv_draw_rect.c ****             /*In corner areas apply the mask anyway*/
 284:lvgl/src/lv_draw/lv_draw_rect.c ****             else {
 285:lvgl/src/lv_draw/lv_draw_rect.c ****                 _lv_memset(mask_buf, opa, draw_area_w);
 286:lvgl/src/lv_draw/lv_draw_rect.c ****                 mask_res = lv_draw_mask_apply(mask_buf, vdb->area.x1 + draw_area.x1, vdb->area.y1 +
 287:lvgl/src/lv_draw/lv_draw_rect.c ****             }
 288:lvgl/src/lv_draw/lv_draw_rect.c **** 
 289:lvgl/src/lv_draw/lv_draw_rect.c ****             /*If mask will taken into account its base opacity was already set by memset above*/
 290:lvgl/src/lv_draw/lv_draw_rect.c ****             if(mask_res == LV_DRAW_MASK_RES_CHANGED) {
 291:lvgl/src/lv_draw/lv_draw_rect.c ****                 opa2 = LV_OPA_COVER;
 292:lvgl/src/lv_draw/lv_draw_rect.c ****             }
 293:lvgl/src/lv_draw/lv_draw_rect.c **** 
 294:lvgl/src/lv_draw/lv_draw_rect.c ****             /*Get the current line color*/
 295:lvgl/src/lv_draw/lv_draw_rect.c ****             if(grad_dir == LV_GRAD_DIR_VER) {
 296:lvgl/src/lv_draw/lv_draw_rect.c ****                 grad_color = grad_get(dsc, lv_area_get_height(&coords_bg), y - coords_bg.y1);
 297:lvgl/src/lv_draw/lv_draw_rect.c ****             }
 298:lvgl/src/lv_draw/lv_draw_rect.c **** 
 299:lvgl/src/lv_draw/lv_draw_rect.c ****             /* If there is not other mask and drawing the corner area split the drawing to corner a
 300:lvgl/src/lv_draw/lv_draw_rect.c ****              * because it the middle mask shouldn't be taken into account (therefore its faster)*/
 301:lvgl/src/lv_draw/lv_draw_rect.c ****             if(simple_mode && split &&
 302:lvgl/src/lv_draw/lv_draw_rect.c ****                (y < coords_bg.y1 + rout + 1 ||
 303:lvgl/src/lv_draw/lv_draw_rect.c ****                 y > coords_bg.y2 - rout - 1)) {
 304:lvgl/src/lv_draw/lv_draw_rect.c **** 
 305:lvgl/src/lv_draw/lv_draw_rect.c ****                 /*Left part*/
 306:lvgl/src/lv_draw/lv_draw_rect.c ****                 lv_area_t fill_area2;
 307:lvgl/src/lv_draw/lv_draw_rect.c ****                 fill_area2.x1 = coords_bg.x1;
 308:lvgl/src/lv_draw/lv_draw_rect.c ****                 fill_area2.x2 = coords_bg.x1 + rout - 1;
 309:lvgl/src/lv_draw/lv_draw_rect.c ****                 fill_area2.y1 = fill_area.y1;
 310:lvgl/src/lv_draw/lv_draw_rect.c ****                 fill_area2.y2 = fill_area.y2;
 311:lvgl/src/lv_draw/lv_draw_rect.c **** 
 312:lvgl/src/lv_draw/lv_draw_rect.c ****                 _lv_blend_fill(clip, &fill_area2,
 313:lvgl/src/lv_draw/lv_draw_rect.c ****                                grad_color, mask_buf, mask_res, opa2, dsc->bg_blend_mode);
 314:lvgl/src/lv_draw/lv_draw_rect.c **** 
 315:lvgl/src/lv_draw/lv_draw_rect.c ****                 /*Center part*/
ARM GAS  D:\Temp\ccGEpo4V.s 			page 7


 316:lvgl/src/lv_draw/lv_draw_rect.c ****                 if(grad_dir == LV_GRAD_DIR_VER) {
 317:lvgl/src/lv_draw/lv_draw_rect.c ****                     fill_area2.x1 = coords_bg.x1 + rout;
 318:lvgl/src/lv_draw/lv_draw_rect.c ****                     fill_area2.x2 = coords_bg.x2 - rout;
 319:lvgl/src/lv_draw/lv_draw_rect.c ****                     _lv_blend_fill(clip, &fill_area2,
 320:lvgl/src/lv_draw/lv_draw_rect.c ****                                    grad_color, NULL, LV_DRAW_MASK_RES_FULL_COVER, opa, dsc->bg_blen
 321:lvgl/src/lv_draw/lv_draw_rect.c ****                 }
 322:lvgl/src/lv_draw/lv_draw_rect.c **** 
 323:lvgl/src/lv_draw/lv_draw_rect.c ****                 /*Right part*/
 324:lvgl/src/lv_draw/lv_draw_rect.c ****                 fill_area2.x1 = coords_bg.x2 - rout + 1;
 325:lvgl/src/lv_draw/lv_draw_rect.c ****                 fill_area2.x2 = coords_bg.x2;
 326:lvgl/src/lv_draw/lv_draw_rect.c **** 
 327:lvgl/src/lv_draw/lv_draw_rect.c ****                 int32_t mask_ofs = (coords_bg.x2 - rout + 1) - (vdb->area.x1 + draw_area.x1);
 328:lvgl/src/lv_draw/lv_draw_rect.c ****                 if(mask_ofs < 0) mask_ofs = 0;
 329:lvgl/src/lv_draw/lv_draw_rect.c ****                 _lv_blend_fill(clip, &fill_area2,
 330:lvgl/src/lv_draw/lv_draw_rect.c ****                                grad_color, mask_buf + mask_ofs, mask_res, opa2, dsc->bg_blend_mode)
 331:lvgl/src/lv_draw/lv_draw_rect.c **** 
 332:lvgl/src/lv_draw/lv_draw_rect.c ****             }
 333:lvgl/src/lv_draw/lv_draw_rect.c ****             else {
 334:lvgl/src/lv_draw/lv_draw_rect.c ****                 if(grad_dir == LV_GRAD_DIR_HOR) {
 335:lvgl/src/lv_draw/lv_draw_rect.c ****                     _lv_blend_map(clip, &fill_area, grad_map, mask_buf, mask_res, opa2, dsc->bg_ble
 336:lvgl/src/lv_draw/lv_draw_rect.c ****                 }
 337:lvgl/src/lv_draw/lv_draw_rect.c ****                 else if(grad_dir == LV_GRAD_DIR_VER) {
 338:lvgl/src/lv_draw/lv_draw_rect.c ****                     _lv_blend_fill(clip, &fill_area,
 339:lvgl/src/lv_draw/lv_draw_rect.c ****                                    grad_color, mask_buf, mask_res, opa2, dsc->bg_blend_mode);
 340:lvgl/src/lv_draw/lv_draw_rect.c ****                 }
 341:lvgl/src/lv_draw/lv_draw_rect.c ****                 else if(other_mask_cnt != 0 || !split) {
 342:lvgl/src/lv_draw/lv_draw_rect.c ****                     _lv_blend_fill(clip, &fill_area,
 343:lvgl/src/lv_draw/lv_draw_rect.c ****                                    grad_color, mask_buf, mask_res, opa2, dsc->bg_blend_mode);
 344:lvgl/src/lv_draw/lv_draw_rect.c ****                 }
 345:lvgl/src/lv_draw/lv_draw_rect.c ****             }
 346:lvgl/src/lv_draw/lv_draw_rect.c ****             fill_area.y1++;
 347:lvgl/src/lv_draw/lv_draw_rect.c ****             fill_area.y2++;
 348:lvgl/src/lv_draw/lv_draw_rect.c ****         }
 349:lvgl/src/lv_draw/lv_draw_rect.c **** 
 350:lvgl/src/lv_draw/lv_draw_rect.c ****         if(grad_dir == LV_GRAD_DIR_NONE && other_mask_cnt == 0 && split) {
 351:lvgl/src/lv_draw/lv_draw_rect.c ****             /*Central part*/
 352:lvgl/src/lv_draw/lv_draw_rect.c ****             fill_area.x1 = coords_bg.x1 + rout;
 353:lvgl/src/lv_draw/lv_draw_rect.c ****             fill_area.x2 = coords_bg.x2 - rout;
 354:lvgl/src/lv_draw/lv_draw_rect.c ****             fill_area.y1 = coords_bg.y1;
 355:lvgl/src/lv_draw/lv_draw_rect.c ****             fill_area.y2 = coords_bg.y1 + rout;
 356:lvgl/src/lv_draw/lv_draw_rect.c **** 
 357:lvgl/src/lv_draw/lv_draw_rect.c ****             _lv_blend_fill(clip, &fill_area,
 358:lvgl/src/lv_draw/lv_draw_rect.c ****                            dsc->bg_color, NULL, LV_DRAW_MASK_RES_FULL_COVER, opa, dsc->bg_blend_mod
 359:lvgl/src/lv_draw/lv_draw_rect.c **** 
 360:lvgl/src/lv_draw/lv_draw_rect.c ****             fill_area.y1 = coords_bg.y2 - rout;
 361:lvgl/src/lv_draw/lv_draw_rect.c ****             if(fill_area.y1 <= fill_area.y2) fill_area.y1 = fill_area.y2 + 1;    /*Avoid overdrawin
 362:lvgl/src/lv_draw/lv_draw_rect.c ****             fill_area.y2 = coords_bg.y2;
 363:lvgl/src/lv_draw/lv_draw_rect.c **** 
 364:lvgl/src/lv_draw/lv_draw_rect.c ****             _lv_blend_fill(clip, &fill_area,
 365:lvgl/src/lv_draw/lv_draw_rect.c ****                            dsc->bg_color, NULL, LV_DRAW_MASK_RES_FULL_COVER, opa, dsc->bg_blend_mod
 366:lvgl/src/lv_draw/lv_draw_rect.c **** 
 367:lvgl/src/lv_draw/lv_draw_rect.c ****             fill_area.x1 = coords_bg.x1;
 368:lvgl/src/lv_draw/lv_draw_rect.c ****             fill_area.x2 = coords_bg.x2;
 369:lvgl/src/lv_draw/lv_draw_rect.c ****             fill_area.y1 = coords_bg.y1 + rout + 1;
 370:lvgl/src/lv_draw/lv_draw_rect.c ****             fill_area.y2 = coords_bg.y2 - rout - 1;
 371:lvgl/src/lv_draw/lv_draw_rect.c **** 
 372:lvgl/src/lv_draw/lv_draw_rect.c ****             _lv_blend_fill(clip, &fill_area,
ARM GAS  D:\Temp\ccGEpo4V.s 			page 8


 373:lvgl/src/lv_draw/lv_draw_rect.c ****                            dsc->bg_color, NULL, LV_DRAW_MASK_RES_FULL_COVER, opa, dsc->bg_blend_mod
 374:lvgl/src/lv_draw/lv_draw_rect.c **** 
 375:lvgl/src/lv_draw/lv_draw_rect.c ****         }
 376:lvgl/src/lv_draw/lv_draw_rect.c **** 
 377:lvgl/src/lv_draw/lv_draw_rect.c ****         if(grad_map) _lv_mem_buf_release(grad_map);
 378:lvgl/src/lv_draw/lv_draw_rect.c ****     }
 379:lvgl/src/lv_draw/lv_draw_rect.c **** 
 380:lvgl/src/lv_draw/lv_draw_rect.c ****     lv_draw_mask_remove_id(mask_rout_id);
 381:lvgl/src/lv_draw/lv_draw_rect.c **** 
 382:lvgl/src/lv_draw/lv_draw_rect.c ****     _lv_mem_buf_release(mask_buf);
 383:lvgl/src/lv_draw/lv_draw_rect.c **** 
 384:lvgl/src/lv_draw/lv_draw_rect.c **** }
 385:lvgl/src/lv_draw/lv_draw_rect.c **** 
 386:lvgl/src/lv_draw/lv_draw_rect.c **** LV_ATTRIBUTE_FAST_MEM static void draw_border(const lv_area_t * coords, const lv_area_t * clip,
 387:lvgl/src/lv_draw/lv_draw_rect.c ****                                               const lv_draw_rect_dsc_t * dsc)
 388:lvgl/src/lv_draw/lv_draw_rect.c **** {
 389:lvgl/src/lv_draw/lv_draw_rect.c ****     if(dsc->border_opa <= LV_OPA_MIN) return;
 390:lvgl/src/lv_draw/lv_draw_rect.c ****     if(dsc->border_width == 0) return;
 391:lvgl/src/lv_draw/lv_draw_rect.c ****     if(dsc->border_side == LV_BORDER_SIDE_NONE) return;
 392:lvgl/src/lv_draw/lv_draw_rect.c ****     if(dsc->border_post) return;
 393:lvgl/src/lv_draw/lv_draw_rect.c **** 
 394:lvgl/src/lv_draw/lv_draw_rect.c ****     int32_t coords_w = lv_area_get_width(coords);
 395:lvgl/src/lv_draw/lv_draw_rect.c ****     int32_t coords_h = lv_area_get_height(coords);
 396:lvgl/src/lv_draw/lv_draw_rect.c **** 
 397:lvgl/src/lv_draw/lv_draw_rect.c ****     /*Get the real radius*/
 398:lvgl/src/lv_draw/lv_draw_rect.c ****     int32_t rout = dsc->radius;
 399:lvgl/src/lv_draw/lv_draw_rect.c ****     int32_t short_side = LV_MATH_MIN(coords_w, coords_h);
 400:lvgl/src/lv_draw/lv_draw_rect.c ****     if(rout > short_side >> 1) rout = short_side >> 1;
 401:lvgl/src/lv_draw/lv_draw_rect.c **** 
 402:lvgl/src/lv_draw/lv_draw_rect.c ****     /*Get the inner area*/
 403:lvgl/src/lv_draw/lv_draw_rect.c ****     lv_area_t area_inner;
 404:lvgl/src/lv_draw/lv_draw_rect.c ****     lv_area_copy(&area_inner, coords);
 405:lvgl/src/lv_draw/lv_draw_rect.c ****     area_inner.x1 += ((dsc->border_side & LV_BORDER_SIDE_LEFT) ? dsc->border_width : - (dsc->border
 406:lvgl/src/lv_draw/lv_draw_rect.c ****     area_inner.x2 -= ((dsc->border_side & LV_BORDER_SIDE_RIGHT) ? dsc->border_width : - (dsc->borde
 407:lvgl/src/lv_draw/lv_draw_rect.c ****     area_inner.y1 += ((dsc->border_side & LV_BORDER_SIDE_TOP) ? dsc->border_width : - (dsc->border_
 408:lvgl/src/lv_draw/lv_draw_rect.c ****     area_inner.y2 -= ((dsc->border_side & LV_BORDER_SIDE_BOTTOM) ? dsc->border_width : - (dsc->bord
 409:lvgl/src/lv_draw/lv_draw_rect.c **** 
 410:lvgl/src/lv_draw/lv_draw_rect.c ****     if(dsc->border_side == LV_BORDER_SIDE_FULL) {
 411:lvgl/src/lv_draw/lv_draw_rect.c ****         draw_full_border(&area_inner, coords, clip, dsc->radius, false, dsc->border_color, dsc->bor
 412:lvgl/src/lv_draw/lv_draw_rect.c ****                          dsc->border_blend_mode);
 413:lvgl/src/lv_draw/lv_draw_rect.c ****     }
 414:lvgl/src/lv_draw/lv_draw_rect.c ****     else {
 415:lvgl/src/lv_draw/lv_draw_rect.c ****         lv_opa_t opa = dsc->border_opa;
 416:lvgl/src/lv_draw/lv_draw_rect.c ****         if(opa > LV_OPA_MAX) opa = LV_OPA_COVER;
 417:lvgl/src/lv_draw/lv_draw_rect.c **** 
 418:lvgl/src/lv_draw/lv_draw_rect.c ****         lv_disp_t * disp    = _lv_refr_get_disp_refreshing();
 419:lvgl/src/lv_draw/lv_draw_rect.c ****         lv_disp_buf_t * vdb = lv_disp_get_buf(disp);
 420:lvgl/src/lv_draw/lv_draw_rect.c **** 
 421:lvgl/src/lv_draw/lv_draw_rect.c ****         /* Get clipped fill area which is the real draw area.
 422:lvgl/src/lv_draw/lv_draw_rect.c ****          * It is always the same or inside `fill_area` */
 423:lvgl/src/lv_draw/lv_draw_rect.c ****         lv_area_t draw_area;
 424:lvgl/src/lv_draw/lv_draw_rect.c ****         bool is_common;
 425:lvgl/src/lv_draw/lv_draw_rect.c ****         is_common = _lv_area_intersect(&draw_area, coords, clip);
 426:lvgl/src/lv_draw/lv_draw_rect.c ****         if(is_common == false) return;
 427:lvgl/src/lv_draw/lv_draw_rect.c **** 
 428:lvgl/src/lv_draw/lv_draw_rect.c ****         const lv_area_t * disp_area = &vdb->area;
 429:lvgl/src/lv_draw/lv_draw_rect.c **** 
ARM GAS  D:\Temp\ccGEpo4V.s 			page 9


 430:lvgl/src/lv_draw/lv_draw_rect.c ****         /* Now `draw_area` has absolute coordinates.
 431:lvgl/src/lv_draw/lv_draw_rect.c ****          * Make it relative to `disp_area` to simplify draw to `disp_buf`*/
 432:lvgl/src/lv_draw/lv_draw_rect.c ****         draw_area.x1 -= disp_area->x1;
 433:lvgl/src/lv_draw/lv_draw_rect.c ****         draw_area.y1 -= disp_area->y1;
 434:lvgl/src/lv_draw/lv_draw_rect.c ****         draw_area.x2 -= disp_area->x1;
 435:lvgl/src/lv_draw/lv_draw_rect.c ****         draw_area.y2 -= disp_area->y1;
 436:lvgl/src/lv_draw/lv_draw_rect.c **** 
 437:lvgl/src/lv_draw/lv_draw_rect.c ****         int32_t draw_area_w = lv_area_get_width(&draw_area);
 438:lvgl/src/lv_draw/lv_draw_rect.c **** 
 439:lvgl/src/lv_draw/lv_draw_rect.c ****         /*Create a mask if there is a radius*/
 440:lvgl/src/lv_draw/lv_draw_rect.c ****         lv_opa_t * mask_buf = _lv_mem_buf_get(draw_area_w);
 441:lvgl/src/lv_draw/lv_draw_rect.c **** 
 442:lvgl/src/lv_draw/lv_draw_rect.c ****         /*Create mask for the outer area*/
 443:lvgl/src/lv_draw/lv_draw_rect.c ****         int16_t mask_rout_id = LV_MASK_ID_INV;
 444:lvgl/src/lv_draw/lv_draw_rect.c ****         lv_draw_mask_radius_param_t mask_rout_param;
 445:lvgl/src/lv_draw/lv_draw_rect.c ****         if(rout > 0) {
 446:lvgl/src/lv_draw/lv_draw_rect.c ****             lv_draw_mask_radius_init(&mask_rout_param, coords, rout, false);
 447:lvgl/src/lv_draw/lv_draw_rect.c ****             mask_rout_id = lv_draw_mask_add(&mask_rout_param, NULL);
 448:lvgl/src/lv_draw/lv_draw_rect.c ****         }
 449:lvgl/src/lv_draw/lv_draw_rect.c **** 
 450:lvgl/src/lv_draw/lv_draw_rect.c ****         /*Create mask for the inner mask*/
 451:lvgl/src/lv_draw/lv_draw_rect.c ****         int32_t rin = rout - dsc->border_width;
 452:lvgl/src/lv_draw/lv_draw_rect.c ****         if(rin < 0) rin = 0;
 453:lvgl/src/lv_draw/lv_draw_rect.c ****         lv_draw_mask_radius_param_t mask_rin_param;
 454:lvgl/src/lv_draw/lv_draw_rect.c ****         lv_draw_mask_radius_init(&mask_rin_param, &area_inner, rout - dsc->border_width, true);
 455:lvgl/src/lv_draw/lv_draw_rect.c ****         int16_t mask_rin_id = lv_draw_mask_add(&mask_rin_param, NULL);
 456:lvgl/src/lv_draw/lv_draw_rect.c **** 
 457:lvgl/src/lv_draw/lv_draw_rect.c ****         int32_t corner_size = LV_MATH_MAX(rout, dsc->border_width - 1);
 458:lvgl/src/lv_draw/lv_draw_rect.c **** 
 459:lvgl/src/lv_draw/lv_draw_rect.c ****         int32_t h;
 460:lvgl/src/lv_draw/lv_draw_rect.c ****         lv_draw_mask_res_t mask_res;
 461:lvgl/src/lv_draw/lv_draw_rect.c ****         lv_area_t fill_area;
 462:lvgl/src/lv_draw/lv_draw_rect.c **** 
 463:lvgl/src/lv_draw/lv_draw_rect.c ****         lv_color_t color = dsc->border_color;
 464:lvgl/src/lv_draw/lv_draw_rect.c ****         lv_blend_mode_t blend_mode = dsc->border_blend_mode;
 465:lvgl/src/lv_draw/lv_draw_rect.c **** 
 466:lvgl/src/lv_draw/lv_draw_rect.c ****         fill_area.x1 = coords->x1;
 467:lvgl/src/lv_draw/lv_draw_rect.c ****         fill_area.x2 = coords->x2;
 468:lvgl/src/lv_draw/lv_draw_rect.c ****         fill_area.y1 = disp_area->y1 + draw_area.y1;
 469:lvgl/src/lv_draw/lv_draw_rect.c ****         fill_area.y2 = fill_area.y1;
 470:lvgl/src/lv_draw/lv_draw_rect.c **** 
 471:lvgl/src/lv_draw/lv_draw_rect.c ****         uint32_t buf_ofs = 0;
 472:lvgl/src/lv_draw/lv_draw_rect.c ****         if(dsc->border_side == LV_BORDER_SIDE_LEFT) fill_area.x2 = coords->x1 + corner_size;
 473:lvgl/src/lv_draw/lv_draw_rect.c ****         else if(dsc->border_side == LV_BORDER_SIDE_RIGHT) {
 474:lvgl/src/lv_draw/lv_draw_rect.c ****             fill_area.x1 = coords->x2 - corner_size;
 475:lvgl/src/lv_draw/lv_draw_rect.c ****             buf_ofs = fill_area.x1 - coords->x1;
 476:lvgl/src/lv_draw/lv_draw_rect.c ****         }
 477:lvgl/src/lv_draw/lv_draw_rect.c **** 
 478:lvgl/src/lv_draw/lv_draw_rect.c ****         volatile bool top_only = false;
 479:lvgl/src/lv_draw/lv_draw_rect.c ****         volatile bool bottom_only = false;
 480:lvgl/src/lv_draw/lv_draw_rect.c ****         if(dsc->border_side == LV_BORDER_SIDE_TOP) top_only = true;
 481:lvgl/src/lv_draw/lv_draw_rect.c ****         if(dsc->border_side == LV_BORDER_SIDE_BOTTOM) bottom_only = true;
 482:lvgl/src/lv_draw/lv_draw_rect.c ****         if(dsc->border_side == (LV_BORDER_SIDE_TOP | LV_BORDER_SIDE_BOTTOM)) {
 483:lvgl/src/lv_draw/lv_draw_rect.c ****             top_only = true;
 484:lvgl/src/lv_draw/lv_draw_rect.c ****             bottom_only = true;
 485:lvgl/src/lv_draw/lv_draw_rect.c ****         }
 486:lvgl/src/lv_draw/lv_draw_rect.c **** 
ARM GAS  D:\Temp\ccGEpo4V.s 			page 10


 487:lvgl/src/lv_draw/lv_draw_rect.c ****         volatile bool normal = !top_only && !bottom_only ? true : false;
 488:lvgl/src/lv_draw/lv_draw_rect.c **** 
 489:lvgl/src/lv_draw/lv_draw_rect.c ****         for(h = draw_area.y1; h <= draw_area.y2; h++) {
 490:lvgl/src/lv_draw/lv_draw_rect.c ****             if(normal ||
 491:lvgl/src/lv_draw/lv_draw_rect.c ****                (top_only && fill_area.y1 <= coords->y1 + corner_size) ||
 492:lvgl/src/lv_draw/lv_draw_rect.c ****                (bottom_only && fill_area.y1 >= coords->y2 - corner_size)) {
 493:lvgl/src/lv_draw/lv_draw_rect.c ****                 _lv_memset_ff(mask_buf, draw_area_w);
 494:lvgl/src/lv_draw/lv_draw_rect.c ****                 mask_res = lv_draw_mask_apply(mask_buf, vdb->area.x1 + draw_area.x1, vdb->area.y1 +
 495:lvgl/src/lv_draw/lv_draw_rect.c ****                 _lv_blend_fill(clip, &fill_area, color, mask_buf + buf_ofs, mask_res, opa, blend_mo
 496:lvgl/src/lv_draw/lv_draw_rect.c ****             }
 497:lvgl/src/lv_draw/lv_draw_rect.c ****             fill_area.y1++;
 498:lvgl/src/lv_draw/lv_draw_rect.c ****             fill_area.y2++;
 499:lvgl/src/lv_draw/lv_draw_rect.c **** 
 500:lvgl/src/lv_draw/lv_draw_rect.c ****         }
 501:lvgl/src/lv_draw/lv_draw_rect.c ****         lv_draw_mask_remove_id(mask_rin_id);
 502:lvgl/src/lv_draw/lv_draw_rect.c ****         lv_draw_mask_remove_id(mask_rout_id);
 503:lvgl/src/lv_draw/lv_draw_rect.c ****         _lv_mem_buf_release(mask_buf);
 504:lvgl/src/lv_draw/lv_draw_rect.c ****     }
 505:lvgl/src/lv_draw/lv_draw_rect.c **** }
 506:lvgl/src/lv_draw/lv_draw_rect.c **** 
 507:lvgl/src/lv_draw/lv_draw_rect.c **** LV_ATTRIBUTE_FAST_MEM static inline lv_color_t grad_get(const lv_draw_rect_dsc_t * dsc, lv_coord_t 
 508:lvgl/src/lv_draw/lv_draw_rect.c **** {
 509:lvgl/src/lv_draw/lv_draw_rect.c ****     int32_t min = (dsc->bg_main_color_stop * s) >> 8;
 510:lvgl/src/lv_draw/lv_draw_rect.c ****     if(i <= min) return dsc->bg_color;
 511:lvgl/src/lv_draw/lv_draw_rect.c **** 
 512:lvgl/src/lv_draw/lv_draw_rect.c ****     int32_t max = (dsc->bg_grad_color_stop * s) >> 8;
 513:lvgl/src/lv_draw/lv_draw_rect.c ****     if(i >= max) return dsc->bg_grad_color;
 514:lvgl/src/lv_draw/lv_draw_rect.c **** 
 515:lvgl/src/lv_draw/lv_draw_rect.c ****     int32_t d = dsc->bg_grad_color_stop - dsc->bg_main_color_stop;
 516:lvgl/src/lv_draw/lv_draw_rect.c ****     d = (s * d) >> 8;
 517:lvgl/src/lv_draw/lv_draw_rect.c ****     i -= min;
 518:lvgl/src/lv_draw/lv_draw_rect.c ****     lv_opa_t mix = (i * 255) / d;
 519:lvgl/src/lv_draw/lv_draw_rect.c ****     return lv_color_mix(dsc->bg_grad_color, dsc->bg_color, mix);
 520:lvgl/src/lv_draw/lv_draw_rect.c **** }
 521:lvgl/src/lv_draw/lv_draw_rect.c **** 
 522:lvgl/src/lv_draw/lv_draw_rect.c **** #if LV_USE_SHADOW
 523:lvgl/src/lv_draw/lv_draw_rect.c **** LV_ATTRIBUTE_FAST_MEM static void draw_shadow(const lv_area_t * coords, const lv_area_t * clip,
 524:lvgl/src/lv_draw/lv_draw_rect.c ****                                               const lv_draw_rect_dsc_t * dsc)
 525:lvgl/src/lv_draw/lv_draw_rect.c **** {
 526:lvgl/src/lv_draw/lv_draw_rect.c ****     /*Check whether the shadow is visible*/
 527:lvgl/src/lv_draw/lv_draw_rect.c ****     if(dsc->shadow_width == 0) return;
 528:lvgl/src/lv_draw/lv_draw_rect.c ****     if(dsc->shadow_opa <= LV_OPA_MIN) return;
 529:lvgl/src/lv_draw/lv_draw_rect.c **** 
 530:lvgl/src/lv_draw/lv_draw_rect.c ****     if(dsc->shadow_width == 1 && dsc->shadow_ofs_x == 0 &&
 531:lvgl/src/lv_draw/lv_draw_rect.c ****        dsc->shadow_ofs_y == 0 && dsc->shadow_spread <= 0) {
 532:lvgl/src/lv_draw/lv_draw_rect.c ****         return;
 533:lvgl/src/lv_draw/lv_draw_rect.c ****     }
 534:lvgl/src/lv_draw/lv_draw_rect.c **** 
 535:lvgl/src/lv_draw/lv_draw_rect.c ****     int32_t sw = dsc->shadow_width;
 536:lvgl/src/lv_draw/lv_draw_rect.c **** 
 537:lvgl/src/lv_draw/lv_draw_rect.c ****     lv_area_t sh_rect_area;
 538:lvgl/src/lv_draw/lv_draw_rect.c ****     sh_rect_area.x1 = coords->x1  + dsc->shadow_ofs_x - dsc->shadow_spread;
 539:lvgl/src/lv_draw/lv_draw_rect.c ****     sh_rect_area.x2 = coords->x2  + dsc->shadow_ofs_x + dsc->shadow_spread;
 540:lvgl/src/lv_draw/lv_draw_rect.c ****     sh_rect_area.y1 = coords->y1  + dsc->shadow_ofs_y - dsc->shadow_spread;
 541:lvgl/src/lv_draw/lv_draw_rect.c ****     sh_rect_area.y2 = coords->y2  + dsc->shadow_ofs_y + dsc->shadow_spread;
 542:lvgl/src/lv_draw/lv_draw_rect.c **** 
 543:lvgl/src/lv_draw/lv_draw_rect.c ****     lv_area_t sh_area;
ARM GAS  D:\Temp\ccGEpo4V.s 			page 11


 544:lvgl/src/lv_draw/lv_draw_rect.c ****     sh_area.x1 = sh_rect_area.x1 - sw / 2 - 1;
 545:lvgl/src/lv_draw/lv_draw_rect.c ****     sh_area.x2 = sh_rect_area.x2 + sw / 2 + 1;
 546:lvgl/src/lv_draw/lv_draw_rect.c ****     sh_area.y1 = sh_rect_area.y1 - sw / 2 - 1;
 547:lvgl/src/lv_draw/lv_draw_rect.c ****     sh_area.y2 = sh_rect_area.y2 + sw / 2 + 1;
 548:lvgl/src/lv_draw/lv_draw_rect.c **** 
 549:lvgl/src/lv_draw/lv_draw_rect.c ****     lv_opa_t opa = dsc->shadow_opa;
 550:lvgl/src/lv_draw/lv_draw_rect.c **** 
 551:lvgl/src/lv_draw/lv_draw_rect.c ****     if(opa > LV_OPA_MAX) opa = LV_OPA_COVER;
 552:lvgl/src/lv_draw/lv_draw_rect.c **** 
 553:lvgl/src/lv_draw/lv_draw_rect.c ****     lv_disp_t * disp    = _lv_refr_get_disp_refreshing();
 554:lvgl/src/lv_draw/lv_draw_rect.c ****     lv_disp_buf_t * vdb = lv_disp_get_buf(disp);
 555:lvgl/src/lv_draw/lv_draw_rect.c **** 
 556:lvgl/src/lv_draw/lv_draw_rect.c ****     /* Get clipped fill area which is the real draw area.
 557:lvgl/src/lv_draw/lv_draw_rect.c ****      * It is always the same or inside `fill_area` */
 558:lvgl/src/lv_draw/lv_draw_rect.c ****     lv_area_t draw_area;
 559:lvgl/src/lv_draw/lv_draw_rect.c ****     bool is_common;
 560:lvgl/src/lv_draw/lv_draw_rect.c ****     is_common = _lv_area_intersect(&draw_area, &sh_area, clip);
 561:lvgl/src/lv_draw/lv_draw_rect.c ****     if(is_common == false) return;
 562:lvgl/src/lv_draw/lv_draw_rect.c **** 
 563:lvgl/src/lv_draw/lv_draw_rect.c ****     const lv_area_t * disp_area = &vdb->area;
 564:lvgl/src/lv_draw/lv_draw_rect.c **** 
 565:lvgl/src/lv_draw/lv_draw_rect.c ****     /* Now `draw_area` has absolute coordinates.
 566:lvgl/src/lv_draw/lv_draw_rect.c ****      * Make it relative to `disp_area` to simplify draw to `disp_buf`*/
 567:lvgl/src/lv_draw/lv_draw_rect.c ****     draw_area.x1 -= disp_area->x1;
 568:lvgl/src/lv_draw/lv_draw_rect.c ****     draw_area.y1 -= disp_area->y1;
 569:lvgl/src/lv_draw/lv_draw_rect.c ****     draw_area.x2 -= disp_area->x1;
 570:lvgl/src/lv_draw/lv_draw_rect.c ****     draw_area.y2 -= disp_area->y1;
 571:lvgl/src/lv_draw/lv_draw_rect.c **** 
 572:lvgl/src/lv_draw/lv_draw_rect.c ****     /*Consider 1 px smaller bg to be sure the edge will be covered by the shadow*/
 573:lvgl/src/lv_draw/lv_draw_rect.c ****     lv_area_t bg_coords;
 574:lvgl/src/lv_draw/lv_draw_rect.c ****     lv_area_copy(&bg_coords, coords);
 575:lvgl/src/lv_draw/lv_draw_rect.c ****     bg_coords.x1 += 1;
 576:lvgl/src/lv_draw/lv_draw_rect.c ****     bg_coords.y1 += 1;
 577:lvgl/src/lv_draw/lv_draw_rect.c ****     bg_coords.x2 -= 1;
 578:lvgl/src/lv_draw/lv_draw_rect.c ****     bg_coords.y2 -= 1;
 579:lvgl/src/lv_draw/lv_draw_rect.c **** 
 580:lvgl/src/lv_draw/lv_draw_rect.c ****     /*Get the real radius*/
 581:lvgl/src/lv_draw/lv_draw_rect.c ****     int32_t r_bg = dsc->radius;
 582:lvgl/src/lv_draw/lv_draw_rect.c ****     int32_t short_side = LV_MATH_MIN(lv_area_get_width(&bg_coords), lv_area_get_height(&bg_coords))
 583:lvgl/src/lv_draw/lv_draw_rect.c ****     if(r_bg > short_side >> 1) r_bg = short_side >> 1;
 584:lvgl/src/lv_draw/lv_draw_rect.c **** 
 585:lvgl/src/lv_draw/lv_draw_rect.c ****     int32_t r_sh = dsc->radius;
 586:lvgl/src/lv_draw/lv_draw_rect.c ****     short_side = LV_MATH_MIN(lv_area_get_width(&sh_rect_area), lv_area_get_height(&sh_rect_area));
 587:lvgl/src/lv_draw/lv_draw_rect.c ****     if(r_sh > short_side >> 1) r_sh = short_side >> 1;
 588:lvgl/src/lv_draw/lv_draw_rect.c **** 
 589:lvgl/src/lv_draw/lv_draw_rect.c ****     int32_t corner_size = sw  + r_sh;
 590:lvgl/src/lv_draw/lv_draw_rect.c **** 
 591:lvgl/src/lv_draw/lv_draw_rect.c ****     lv_opa_t * sh_buf;
 592:lvgl/src/lv_draw/lv_draw_rect.c **** 
 593:lvgl/src/lv_draw/lv_draw_rect.c **** #if LV_SHADOW_CACHE_SIZE
 594:lvgl/src/lv_draw/lv_draw_rect.c ****     if(sh_cache_size == corner_size && sh_cache_r == r_sh) {
 595:lvgl/src/lv_draw/lv_draw_rect.c ****         /*Use the cache if available*/
 596:lvgl/src/lv_draw/lv_draw_rect.c ****         sh_buf = _lv_mem_buf_get(corner_size * corner_size);
 597:lvgl/src/lv_draw/lv_draw_rect.c ****         _lv_memcpy(sh_buf, sh_cache, corner_size * corner_size);
 598:lvgl/src/lv_draw/lv_draw_rect.c ****     }
 599:lvgl/src/lv_draw/lv_draw_rect.c ****     else {
 600:lvgl/src/lv_draw/lv_draw_rect.c ****         /*A larger buffer is required for calculation */
ARM GAS  D:\Temp\ccGEpo4V.s 			page 12


 601:lvgl/src/lv_draw/lv_draw_rect.c ****         sh_buf = _lv_mem_buf_get(corner_size * corner_size * sizeof(uint16_t));
 602:lvgl/src/lv_draw/lv_draw_rect.c ****         shadow_draw_corner_buf(&sh_rect_area, (uint16_t *)sh_buf, dsc->shadow_width, r_sh);
 603:lvgl/src/lv_draw/lv_draw_rect.c **** 
 604:lvgl/src/lv_draw/lv_draw_rect.c ****         /*Cache the corner if it fits into the cache size*/
 605:lvgl/src/lv_draw/lv_draw_rect.c ****         if(corner_size * corner_size < sizeof(sh_cache)) {
 606:lvgl/src/lv_draw/lv_draw_rect.c ****             _lv_memcpy(sh_cache, sh_buf, corner_size * corner_size);
 607:lvgl/src/lv_draw/lv_draw_rect.c ****             sh_cache_size = corner_size;
 608:lvgl/src/lv_draw/lv_draw_rect.c ****             sh_cache_r = r_sh;
 609:lvgl/src/lv_draw/lv_draw_rect.c ****         }
 610:lvgl/src/lv_draw/lv_draw_rect.c ****     }
 611:lvgl/src/lv_draw/lv_draw_rect.c **** #else
 612:lvgl/src/lv_draw/lv_draw_rect.c ****     sh_buf = _lv_mem_buf_get(corner_size * corner_size * sizeof(uint16_t));
 613:lvgl/src/lv_draw/lv_draw_rect.c ****     shadow_draw_corner_buf(&sh_rect_area, (uint16_t *)sh_buf, dsc->shadow_width, r_sh);
 614:lvgl/src/lv_draw/lv_draw_rect.c **** #endif
 615:lvgl/src/lv_draw/lv_draw_rect.c **** 
 616:lvgl/src/lv_draw/lv_draw_rect.c ****     lv_coord_t h_half = sh_area.y1 + lv_area_get_height(&sh_area) / 2;
 617:lvgl/src/lv_draw/lv_draw_rect.c ****     lv_coord_t w_half = sh_area.x1 + lv_area_get_width(&sh_area) / 2;
 618:lvgl/src/lv_draw/lv_draw_rect.c **** 
 619:lvgl/src/lv_draw/lv_draw_rect.c ****     bool simple_mode = true;
 620:lvgl/src/lv_draw/lv_draw_rect.c ****     if(lv_draw_mask_get_cnt() > 0) simple_mode = false;
 621:lvgl/src/lv_draw/lv_draw_rect.c ****     else if(dsc->shadow_ofs_x != 0 || dsc->shadow_ofs_y != 0) simple_mode = false;
 622:lvgl/src/lv_draw/lv_draw_rect.c ****     else if(dsc->shadow_spread != 0) simple_mode = false;
 623:lvgl/src/lv_draw/lv_draw_rect.c **** 
 624:lvgl/src/lv_draw/lv_draw_rect.c ****     /*Create a mask*/
 625:lvgl/src/lv_draw/lv_draw_rect.c ****     lv_draw_mask_res_t mask_res;
 626:lvgl/src/lv_draw/lv_draw_rect.c ****     lv_opa_t * mask_buf = _lv_mem_buf_get(lv_area_get_width(&sh_area));
 627:lvgl/src/lv_draw/lv_draw_rect.c **** 
 628:lvgl/src/lv_draw/lv_draw_rect.c ****     lv_draw_mask_radius_param_t mask_rout_param;
 629:lvgl/src/lv_draw/lv_draw_rect.c ****     lv_draw_mask_radius_init(&mask_rout_param, &bg_coords, r_bg, true);
 630:lvgl/src/lv_draw/lv_draw_rect.c **** 
 631:lvgl/src/lv_draw/lv_draw_rect.c ****     int16_t mask_rout_id = lv_draw_mask_add(&mask_rout_param, NULL);
 632:lvgl/src/lv_draw/lv_draw_rect.c **** 
 633:lvgl/src/lv_draw/lv_draw_rect.c ****     lv_area_t a;
 634:lvgl/src/lv_draw/lv_draw_rect.c **** 
 635:lvgl/src/lv_draw/lv_draw_rect.c ****     /*Draw the top right corner*/
 636:lvgl/src/lv_draw/lv_draw_rect.c ****     int32_t y;
 637:lvgl/src/lv_draw/lv_draw_rect.c ****     lv_opa_t * sh_buf_tmp;
 638:lvgl/src/lv_draw/lv_draw_rect.c ****     a.x2 = sh_area.x2;
 639:lvgl/src/lv_draw/lv_draw_rect.c ****     a.x1 = a.x2 - corner_size + 1;
 640:lvgl/src/lv_draw/lv_draw_rect.c ****     a.y1 = sh_area.y1;
 641:lvgl/src/lv_draw/lv_draw_rect.c ****     a.y2 = a.y1 + corner_size - 1;
 642:lvgl/src/lv_draw/lv_draw_rect.c **** 
 643:lvgl/src/lv_draw/lv_draw_rect.c ****     lv_area_t ca;
 644:lvgl/src/lv_draw/lv_draw_rect.c ****     bool has_com = _lv_area_intersect(&ca, &a, clip);
 645:lvgl/src/lv_draw/lv_draw_rect.c ****     if(has_com && _lv_area_is_in(&a, &bg_coords, r_bg) == false) {
 646:lvgl/src/lv_draw/lv_draw_rect.c ****         /*Avoid overlap in the middle with large radius*/
 647:lvgl/src/lv_draw/lv_draw_rect.c ****         if(ca.y2 > h_half) ca.y2 = h_half;
 648:lvgl/src/lv_draw/lv_draw_rect.c ****         if(ca.x1 <= w_half) ca.x1 = w_half + 1;
 649:lvgl/src/lv_draw/lv_draw_rect.c **** 
 650:lvgl/src/lv_draw/lv_draw_rect.c ****         lv_coord_t h = lv_area_get_height(&ca);
 651:lvgl/src/lv_draw/lv_draw_rect.c ****         lv_coord_t w = lv_area_get_width(&ca);
 652:lvgl/src/lv_draw/lv_draw_rect.c ****         if(w > 0) {
 653:lvgl/src/lv_draw/lv_draw_rect.c ****             sh_buf_tmp = sh_buf + (ca.x1 - a.x1);
 654:lvgl/src/lv_draw/lv_draw_rect.c ****             sh_buf_tmp += corner_size * (ca.y1 - a.y1);
 655:lvgl/src/lv_draw/lv_draw_rect.c **** 
 656:lvgl/src/lv_draw/lv_draw_rect.c ****             lv_area_t fa;
 657:lvgl/src/lv_draw/lv_draw_rect.c ****             lv_area_copy(&fa, &ca);
ARM GAS  D:\Temp\ccGEpo4V.s 			page 13


 658:lvgl/src/lv_draw/lv_draw_rect.c ****             fa.y2 = fa.y1;
 659:lvgl/src/lv_draw/lv_draw_rect.c **** 
 660:lvgl/src/lv_draw/lv_draw_rect.c ****             for(y = 0; y < h; y++) {
 661:lvgl/src/lv_draw/lv_draw_rect.c ****                 _lv_memcpy(mask_buf, sh_buf_tmp, w);
 662:lvgl/src/lv_draw/lv_draw_rect.c ****                 mask_res = lv_draw_mask_apply(mask_buf, fa.x1, fa.y1, w);
 663:lvgl/src/lv_draw/lv_draw_rect.c ****                 if(mask_res == LV_DRAW_MASK_RES_FULL_COVER) mask_res = LV_DRAW_MASK_RES_CHANGED;
 664:lvgl/src/lv_draw/lv_draw_rect.c **** 
 665:lvgl/src/lv_draw/lv_draw_rect.c ****                 _lv_blend_fill(clip, &fa, dsc->shadow_color, mask_buf,
 666:lvgl/src/lv_draw/lv_draw_rect.c ****                                mask_res, opa, dsc->shadow_blend_mode);
 667:lvgl/src/lv_draw/lv_draw_rect.c ****                 fa.y1++;
 668:lvgl/src/lv_draw/lv_draw_rect.c ****                 fa.y2++;
 669:lvgl/src/lv_draw/lv_draw_rect.c ****                 sh_buf_tmp += corner_size;
 670:lvgl/src/lv_draw/lv_draw_rect.c ****             }
 671:lvgl/src/lv_draw/lv_draw_rect.c ****         }
 672:lvgl/src/lv_draw/lv_draw_rect.c ****     }
 673:lvgl/src/lv_draw/lv_draw_rect.c **** 
 674:lvgl/src/lv_draw/lv_draw_rect.c ****     /*Draw the bottom right corner*/
 675:lvgl/src/lv_draw/lv_draw_rect.c ****     a.x2 = sh_area.x2;
 676:lvgl/src/lv_draw/lv_draw_rect.c ****     a.x1 = a.x2 - corner_size + 1;
 677:lvgl/src/lv_draw/lv_draw_rect.c ****     a.y1 = sh_area.y2 - corner_size + 1;
 678:lvgl/src/lv_draw/lv_draw_rect.c ****     a.y2 = sh_area.y2;
 679:lvgl/src/lv_draw/lv_draw_rect.c **** 
 680:lvgl/src/lv_draw/lv_draw_rect.c ****     has_com = _lv_area_intersect(&ca, &a, clip);
 681:lvgl/src/lv_draw/lv_draw_rect.c ****     if(has_com && _lv_area_is_in(&a, &bg_coords, r_bg) == false) {
 682:lvgl/src/lv_draw/lv_draw_rect.c ****         /*Avoid overlap in the middle with large radius*/
 683:lvgl/src/lv_draw/lv_draw_rect.c ****         if(ca.y1 <= h_half) ca.y1 = h_half + 1;
 684:lvgl/src/lv_draw/lv_draw_rect.c ****         if(ca.x1 <= w_half) ca.x1 = w_half + 1;
 685:lvgl/src/lv_draw/lv_draw_rect.c **** 
 686:lvgl/src/lv_draw/lv_draw_rect.c ****         lv_coord_t h = lv_area_get_height(&ca);
 687:lvgl/src/lv_draw/lv_draw_rect.c ****         lv_coord_t w = lv_area_get_width(&ca);
 688:lvgl/src/lv_draw/lv_draw_rect.c **** 
 689:lvgl/src/lv_draw/lv_draw_rect.c ****         if(w > 0) {
 690:lvgl/src/lv_draw/lv_draw_rect.c ****             sh_buf_tmp = sh_buf + (ca.x1 - a.x1);
 691:lvgl/src/lv_draw/lv_draw_rect.c ****             sh_buf_tmp += corner_size * (a.y2 - ca.y2);
 692:lvgl/src/lv_draw/lv_draw_rect.c **** 
 693:lvgl/src/lv_draw/lv_draw_rect.c ****             lv_area_t fa;
 694:lvgl/src/lv_draw/lv_draw_rect.c ****             lv_area_copy(&fa, &ca);
 695:lvgl/src/lv_draw/lv_draw_rect.c ****             fa.y1 = fa.y2;    /*Fill from bottom to top*/
 696:lvgl/src/lv_draw/lv_draw_rect.c **** 
 697:lvgl/src/lv_draw/lv_draw_rect.c ****             for(y = 0; y < h; y++) {
 698:lvgl/src/lv_draw/lv_draw_rect.c ****                 _lv_memcpy(mask_buf, sh_buf_tmp, w);
 699:lvgl/src/lv_draw/lv_draw_rect.c ****                 mask_res = lv_draw_mask_apply(mask_buf, fa.x1, fa.y1, w);
 700:lvgl/src/lv_draw/lv_draw_rect.c ****                 if(mask_res == LV_DRAW_MASK_RES_FULL_COVER) mask_res = LV_DRAW_MASK_RES_CHANGED;
 701:lvgl/src/lv_draw/lv_draw_rect.c **** 
 702:lvgl/src/lv_draw/lv_draw_rect.c ****                 _lv_blend_fill(clip, &fa, dsc->shadow_color, mask_buf,
 703:lvgl/src/lv_draw/lv_draw_rect.c ****                                mask_res, opa, dsc->shadow_blend_mode);
 704:lvgl/src/lv_draw/lv_draw_rect.c ****                 fa.y1--;
 705:lvgl/src/lv_draw/lv_draw_rect.c ****                 fa.y2--;
 706:lvgl/src/lv_draw/lv_draw_rect.c ****                 sh_buf_tmp += corner_size;
 707:lvgl/src/lv_draw/lv_draw_rect.c ****             }
 708:lvgl/src/lv_draw/lv_draw_rect.c ****         }
 709:lvgl/src/lv_draw/lv_draw_rect.c ****     }
 710:lvgl/src/lv_draw/lv_draw_rect.c **** 
 711:lvgl/src/lv_draw/lv_draw_rect.c ****     /*Fill the right side*/
 712:lvgl/src/lv_draw/lv_draw_rect.c ****     a.x2 = sh_area.x2;
 713:lvgl/src/lv_draw/lv_draw_rect.c ****     a.x1 = a.x2 - corner_size + 1;
 714:lvgl/src/lv_draw/lv_draw_rect.c ****     a.y1 = sh_area.y1 + corner_size;
ARM GAS  D:\Temp\ccGEpo4V.s 			page 14


 715:lvgl/src/lv_draw/lv_draw_rect.c ****     a.y2 = sh_area.y2 - corner_size;
 716:lvgl/src/lv_draw/lv_draw_rect.c **** 
 717:lvgl/src/lv_draw/lv_draw_rect.c ****     has_com = _lv_area_intersect(&ca, &a, clip);
 718:lvgl/src/lv_draw/lv_draw_rect.c ****     if(has_com && _lv_area_is_in(&a, &bg_coords, r_bg) == false) {
 719:lvgl/src/lv_draw/lv_draw_rect.c ****         if(simple_mode) ca.x1 = LV_MATH_MAX(ca.x1, coords->x2);
 720:lvgl/src/lv_draw/lv_draw_rect.c ****         /*Draw horizontal lines*/
 721:lvgl/src/lv_draw/lv_draw_rect.c ****         lv_coord_t w = lv_area_get_width(&ca);
 722:lvgl/src/lv_draw/lv_draw_rect.c ****         if(w > 0) {
 723:lvgl/src/lv_draw/lv_draw_rect.c ****             lv_coord_t h = lv_area_get_height(&ca);
 724:lvgl/src/lv_draw/lv_draw_rect.c **** 
 725:lvgl/src/lv_draw/lv_draw_rect.c ****             /*The last line of the shadow is repeated on the side*/
 726:lvgl/src/lv_draw/lv_draw_rect.c ****             sh_buf_tmp = sh_buf + corner_size * (corner_size - 1);
 727:lvgl/src/lv_draw/lv_draw_rect.c ****             sh_buf_tmp += ca.x1 - a.x1;
 728:lvgl/src/lv_draw/lv_draw_rect.c **** 
 729:lvgl/src/lv_draw/lv_draw_rect.c ****             lv_area_t fa;
 730:lvgl/src/lv_draw/lv_draw_rect.c ****             lv_area_copy(&fa, &ca);
 731:lvgl/src/lv_draw/lv_draw_rect.c ****             fa.y2 = fa.y1;
 732:lvgl/src/lv_draw/lv_draw_rect.c ****             mask_res = LV_DRAW_MASK_RES_FULL_COVER;
 733:lvgl/src/lv_draw/lv_draw_rect.c ****             for(y = 0; y < h; y++) {
 734:lvgl/src/lv_draw/lv_draw_rect.c ****                 _lv_memcpy(mask_buf, sh_buf_tmp, w);
 735:lvgl/src/lv_draw/lv_draw_rect.c **** 
 736:lvgl/src/lv_draw/lv_draw_rect.c ****                 if(simple_mode) {
 737:lvgl/src/lv_draw/lv_draw_rect.c ****                     mask_res = LV_DRAW_MASK_RES_CHANGED;
 738:lvgl/src/lv_draw/lv_draw_rect.c ****                 }
 739:lvgl/src/lv_draw/lv_draw_rect.c ****                 else {
 740:lvgl/src/lv_draw/lv_draw_rect.c ****                     mask_res = lv_draw_mask_apply(mask_buf, fa.x1, fa.y1, w);
 741:lvgl/src/lv_draw/lv_draw_rect.c ****                     if(mask_res == LV_DRAW_MASK_RES_FULL_COVER) mask_res = LV_DRAW_MASK_RES_CHANGED
 742:lvgl/src/lv_draw/lv_draw_rect.c ****                 }
 743:lvgl/src/lv_draw/lv_draw_rect.c **** 
 744:lvgl/src/lv_draw/lv_draw_rect.c ****                 _lv_blend_fill(clip, &fa,
 745:lvgl/src/lv_draw/lv_draw_rect.c ****                                dsc->shadow_color, mask_buf, mask_res, dsc->shadow_opa, dsc->shadow_
 746:lvgl/src/lv_draw/lv_draw_rect.c ****                 fa.y1++;
 747:lvgl/src/lv_draw/lv_draw_rect.c ****                 fa.y2++;
 748:lvgl/src/lv_draw/lv_draw_rect.c ****             }
 749:lvgl/src/lv_draw/lv_draw_rect.c ****         }
 750:lvgl/src/lv_draw/lv_draw_rect.c ****     }
 751:lvgl/src/lv_draw/lv_draw_rect.c **** 
 752:lvgl/src/lv_draw/lv_draw_rect.c ****     /*Invert the shadow corner buffer and draw the corners on the left*/
 753:lvgl/src/lv_draw/lv_draw_rect.c ****     sh_buf_tmp = sh_buf ;
 754:lvgl/src/lv_draw/lv_draw_rect.c ****     for(y = 0; y < corner_size; y++) {
 755:lvgl/src/lv_draw/lv_draw_rect.c ****         int32_t x;
 756:lvgl/src/lv_draw/lv_draw_rect.c ****         for(x = 0; x < corner_size / 2; x++) {
 757:lvgl/src/lv_draw/lv_draw_rect.c ****             lv_opa_t tmp = sh_buf_tmp[x];
 758:lvgl/src/lv_draw/lv_draw_rect.c ****             sh_buf_tmp[x] = sh_buf_tmp[corner_size - x - 1];
 759:lvgl/src/lv_draw/lv_draw_rect.c ****             sh_buf_tmp[corner_size - x - 1] = tmp;
 760:lvgl/src/lv_draw/lv_draw_rect.c ****         }
 761:lvgl/src/lv_draw/lv_draw_rect.c ****         sh_buf_tmp += corner_size;
 762:lvgl/src/lv_draw/lv_draw_rect.c ****     }
 763:lvgl/src/lv_draw/lv_draw_rect.c **** 
 764:lvgl/src/lv_draw/lv_draw_rect.c ****     /*Draw the top left corner*/
 765:lvgl/src/lv_draw/lv_draw_rect.c ****     a.x1 = sh_area.x1;
 766:lvgl/src/lv_draw/lv_draw_rect.c ****     a.x2 = a.x1 + corner_size - 1;
 767:lvgl/src/lv_draw/lv_draw_rect.c ****     a.y1 = sh_area.y1;
 768:lvgl/src/lv_draw/lv_draw_rect.c ****     a.y2 = a.y1 + corner_size - 1;
 769:lvgl/src/lv_draw/lv_draw_rect.c **** 
 770:lvgl/src/lv_draw/lv_draw_rect.c ****     has_com = _lv_area_intersect(&ca, &a, clip);
 771:lvgl/src/lv_draw/lv_draw_rect.c ****     if(has_com && _lv_area_is_in(&a, &bg_coords, r_bg) == false) {
ARM GAS  D:\Temp\ccGEpo4V.s 			page 15


 772:lvgl/src/lv_draw/lv_draw_rect.c ****         /*Avoid overlap in the middle with large radius*/
 773:lvgl/src/lv_draw/lv_draw_rect.c ****         if(ca.y2 > h_half) ca.y2 = h_half;
 774:lvgl/src/lv_draw/lv_draw_rect.c ****         if(ca.x2 > w_half) ca.x2 = w_half;
 775:lvgl/src/lv_draw/lv_draw_rect.c **** 
 776:lvgl/src/lv_draw/lv_draw_rect.c ****         lv_coord_t h = lv_area_get_height(&ca);
 777:lvgl/src/lv_draw/lv_draw_rect.c ****         lv_coord_t w = lv_area_get_width(&ca);
 778:lvgl/src/lv_draw/lv_draw_rect.c ****         if(w > 0) {
 779:lvgl/src/lv_draw/lv_draw_rect.c ****             sh_buf_tmp = sh_buf + (ca.x1 - a.x1);
 780:lvgl/src/lv_draw/lv_draw_rect.c ****             sh_buf_tmp += corner_size * (ca.y1 - a.y1);
 781:lvgl/src/lv_draw/lv_draw_rect.c **** 
 782:lvgl/src/lv_draw/lv_draw_rect.c ****             lv_area_t fa;
 783:lvgl/src/lv_draw/lv_draw_rect.c ****             lv_area_copy(&fa, &ca);
 784:lvgl/src/lv_draw/lv_draw_rect.c ****             fa.y2 = fa.y1;
 785:lvgl/src/lv_draw/lv_draw_rect.c **** 
 786:lvgl/src/lv_draw/lv_draw_rect.c ****             for(y = 0; y < h; y++) {
 787:lvgl/src/lv_draw/lv_draw_rect.c ****                 _lv_memcpy(mask_buf, sh_buf_tmp, w);
 788:lvgl/src/lv_draw/lv_draw_rect.c ****                 mask_res = lv_draw_mask_apply(mask_buf, fa.x1, fa.y1, w);
 789:lvgl/src/lv_draw/lv_draw_rect.c ****                 if(mask_res == LV_DRAW_MASK_RES_FULL_COVER) mask_res = LV_DRAW_MASK_RES_CHANGED;
 790:lvgl/src/lv_draw/lv_draw_rect.c **** 
 791:lvgl/src/lv_draw/lv_draw_rect.c ****                 _lv_blend_fill(clip, &fa, dsc->shadow_color, mask_buf,
 792:lvgl/src/lv_draw/lv_draw_rect.c ****                                mask_res, opa, dsc->shadow_blend_mode);
 793:lvgl/src/lv_draw/lv_draw_rect.c ****                 fa.y1++;
 794:lvgl/src/lv_draw/lv_draw_rect.c ****                 fa.y2++;
 795:lvgl/src/lv_draw/lv_draw_rect.c ****                 sh_buf_tmp += corner_size;
 796:lvgl/src/lv_draw/lv_draw_rect.c ****             }
 797:lvgl/src/lv_draw/lv_draw_rect.c ****         }
 798:lvgl/src/lv_draw/lv_draw_rect.c ****     }
 799:lvgl/src/lv_draw/lv_draw_rect.c **** 
 800:lvgl/src/lv_draw/lv_draw_rect.c ****     /*Draw the bottom left corner*/
 801:lvgl/src/lv_draw/lv_draw_rect.c ****     a.x1 = sh_area.x1;
 802:lvgl/src/lv_draw/lv_draw_rect.c ****     a.x2 = a.x1 + corner_size - 1;
 803:lvgl/src/lv_draw/lv_draw_rect.c ****     a.y1 = sh_area.y2 - corner_size + 1;
 804:lvgl/src/lv_draw/lv_draw_rect.c ****     a.y2 = sh_area.y2;
 805:lvgl/src/lv_draw/lv_draw_rect.c **** 
 806:lvgl/src/lv_draw/lv_draw_rect.c ****     has_com = _lv_area_intersect(&ca, &a, clip);
 807:lvgl/src/lv_draw/lv_draw_rect.c ****     if(has_com && _lv_area_is_in(&a, &bg_coords, r_bg) == false) {
 808:lvgl/src/lv_draw/lv_draw_rect.c ****         /*Avoid overlap in the middle with large radius*/
 809:lvgl/src/lv_draw/lv_draw_rect.c ****         if(ca.y1 <= h_half) ca.y1 = h_half + 1;
 810:lvgl/src/lv_draw/lv_draw_rect.c ****         if(ca.x2 > w_half) ca.x2 = w_half;
 811:lvgl/src/lv_draw/lv_draw_rect.c ****         lv_coord_t h = lv_area_get_height(&ca);
 812:lvgl/src/lv_draw/lv_draw_rect.c ****         lv_coord_t w = lv_area_get_width(&ca);
 813:lvgl/src/lv_draw/lv_draw_rect.c **** 
 814:lvgl/src/lv_draw/lv_draw_rect.c ****         if(w > 0) {
 815:lvgl/src/lv_draw/lv_draw_rect.c ****             sh_buf_tmp = sh_buf + (ca.x1 - a.x1);
 816:lvgl/src/lv_draw/lv_draw_rect.c ****             sh_buf_tmp += corner_size * (a.y2 - ca.y2);
 817:lvgl/src/lv_draw/lv_draw_rect.c **** 
 818:lvgl/src/lv_draw/lv_draw_rect.c ****             lv_area_t fa;
 819:lvgl/src/lv_draw/lv_draw_rect.c ****             lv_area_copy(&fa, &ca);
 820:lvgl/src/lv_draw/lv_draw_rect.c ****             fa.y1 = fa.y2;    /*Fill from bottom to top*/
 821:lvgl/src/lv_draw/lv_draw_rect.c **** 
 822:lvgl/src/lv_draw/lv_draw_rect.c ****             for(y = 0; y < h; y++) {
 823:lvgl/src/lv_draw/lv_draw_rect.c ****                 _lv_memcpy(mask_buf, sh_buf_tmp, w);
 824:lvgl/src/lv_draw/lv_draw_rect.c ****                 mask_res = lv_draw_mask_apply(mask_buf, fa.x1, fa.y1, w);
 825:lvgl/src/lv_draw/lv_draw_rect.c ****                 if(mask_res == LV_DRAW_MASK_RES_FULL_COVER) mask_res = LV_DRAW_MASK_RES_CHANGED;
 826:lvgl/src/lv_draw/lv_draw_rect.c **** 
 827:lvgl/src/lv_draw/lv_draw_rect.c ****                 _lv_blend_fill(clip, &fa, dsc->shadow_color, mask_buf,
 828:lvgl/src/lv_draw/lv_draw_rect.c ****                                mask_res, opa, dsc->shadow_blend_mode);
ARM GAS  D:\Temp\ccGEpo4V.s 			page 16


 829:lvgl/src/lv_draw/lv_draw_rect.c ****                 fa.y1--;
 830:lvgl/src/lv_draw/lv_draw_rect.c ****                 fa.y2--;
 831:lvgl/src/lv_draw/lv_draw_rect.c ****                 sh_buf_tmp += corner_size;
 832:lvgl/src/lv_draw/lv_draw_rect.c ****             }
 833:lvgl/src/lv_draw/lv_draw_rect.c ****         }
 834:lvgl/src/lv_draw/lv_draw_rect.c ****     }
 835:lvgl/src/lv_draw/lv_draw_rect.c **** 
 836:lvgl/src/lv_draw/lv_draw_rect.c ****     /*Fill the left side*/
 837:lvgl/src/lv_draw/lv_draw_rect.c ****     a.x1 = sh_area.x1;
 838:lvgl/src/lv_draw/lv_draw_rect.c ****     a.x2 = a.x1 + corner_size - 1;
 839:lvgl/src/lv_draw/lv_draw_rect.c ****     a.y1 = sh_area.y1 + corner_size;
 840:lvgl/src/lv_draw/lv_draw_rect.c ****     a.y2 = sh_area.y2 - corner_size;
 841:lvgl/src/lv_draw/lv_draw_rect.c **** 
 842:lvgl/src/lv_draw/lv_draw_rect.c ****     has_com = _lv_area_intersect(&ca, &a, clip);
 843:lvgl/src/lv_draw/lv_draw_rect.c ****     if(has_com && _lv_area_is_in(&a, &bg_coords, r_bg) == false) {
 844:lvgl/src/lv_draw/lv_draw_rect.c ****         if(simple_mode) ca.x2 = LV_MATH_MIN(coords->x1, ca.x2);
 845:lvgl/src/lv_draw/lv_draw_rect.c ****         /*Draw vertical lines*/
 846:lvgl/src/lv_draw/lv_draw_rect.c ****         lv_coord_t w = lv_area_get_width(&ca);
 847:lvgl/src/lv_draw/lv_draw_rect.c ****         if(w > 0) {
 848:lvgl/src/lv_draw/lv_draw_rect.c ****             lv_coord_t h = lv_area_get_height(&ca);
 849:lvgl/src/lv_draw/lv_draw_rect.c ****             /*The last line of the shadow is repeated on the side*/
 850:lvgl/src/lv_draw/lv_draw_rect.c ****             sh_buf_tmp = sh_buf + corner_size * (corner_size - 1);
 851:lvgl/src/lv_draw/lv_draw_rect.c ****             sh_buf_tmp += ca.x1 - a.x1;
 852:lvgl/src/lv_draw/lv_draw_rect.c **** 
 853:lvgl/src/lv_draw/lv_draw_rect.c ****             lv_area_t fa;
 854:lvgl/src/lv_draw/lv_draw_rect.c ****             lv_area_copy(&fa, &ca);
 855:lvgl/src/lv_draw/lv_draw_rect.c ****             fa.y2 = fa.y1;
 856:lvgl/src/lv_draw/lv_draw_rect.c ****             for(y = 0; y < h; y++) {
 857:lvgl/src/lv_draw/lv_draw_rect.c ****                 _lv_memcpy(mask_buf, sh_buf_tmp, w);
 858:lvgl/src/lv_draw/lv_draw_rect.c ****                 if(simple_mode) {
 859:lvgl/src/lv_draw/lv_draw_rect.c ****                     mask_res = LV_DRAW_MASK_RES_CHANGED;
 860:lvgl/src/lv_draw/lv_draw_rect.c ****                 }
 861:lvgl/src/lv_draw/lv_draw_rect.c ****                 else {
 862:lvgl/src/lv_draw/lv_draw_rect.c ****                     mask_res = lv_draw_mask_apply(mask_buf, fa.x1, fa.y1, w);
 863:lvgl/src/lv_draw/lv_draw_rect.c ****                     if(mask_res == LV_DRAW_MASK_RES_FULL_COVER) mask_res = LV_DRAW_MASK_RES_CHANGED
 864:lvgl/src/lv_draw/lv_draw_rect.c ****                 }
 865:lvgl/src/lv_draw/lv_draw_rect.c **** 
 866:lvgl/src/lv_draw/lv_draw_rect.c ****                 _lv_blend_fill(clip, &fa,
 867:lvgl/src/lv_draw/lv_draw_rect.c ****                                dsc->shadow_color, mask_buf, mask_res, dsc->shadow_opa, dsc->shadow_
 868:lvgl/src/lv_draw/lv_draw_rect.c ****                 fa.y1++;
 869:lvgl/src/lv_draw/lv_draw_rect.c ****                 fa.y2++;
 870:lvgl/src/lv_draw/lv_draw_rect.c ****             }
 871:lvgl/src/lv_draw/lv_draw_rect.c ****         }
 872:lvgl/src/lv_draw/lv_draw_rect.c ****     }
 873:lvgl/src/lv_draw/lv_draw_rect.c **** 
 874:lvgl/src/lv_draw/lv_draw_rect.c ****     /*Fill the top side*/
 875:lvgl/src/lv_draw/lv_draw_rect.c ****     a.x1 = sh_area.x1 + corner_size;
 876:lvgl/src/lv_draw/lv_draw_rect.c ****     a.x2 = sh_area.x2 - corner_size;
 877:lvgl/src/lv_draw/lv_draw_rect.c ****     a.y1 = sh_area.y1;
 878:lvgl/src/lv_draw/lv_draw_rect.c ****     a.y2 = sh_area.y1 + corner_size - 1;
 879:lvgl/src/lv_draw/lv_draw_rect.c **** 
 880:lvgl/src/lv_draw/lv_draw_rect.c ****     has_com = _lv_area_intersect(&ca, &a, clip);
 881:lvgl/src/lv_draw/lv_draw_rect.c ****     if(has_com && _lv_area_is_in(&a, &bg_coords, r_bg) == false) {
 882:lvgl/src/lv_draw/lv_draw_rect.c ****         if(simple_mode) ca.y2 = LV_MATH_MIN(ca.y2, coords->y1);
 883:lvgl/src/lv_draw/lv_draw_rect.c ****         /*Draw horizontal lines*/
 884:lvgl/src/lv_draw/lv_draw_rect.c ****         lv_coord_t w = lv_area_get_width(&ca);
 885:lvgl/src/lv_draw/lv_draw_rect.c ****         lv_coord_t h = lv_area_get_height(&ca);
ARM GAS  D:\Temp\ccGEpo4V.s 			page 17


 886:lvgl/src/lv_draw/lv_draw_rect.c ****         sh_buf_tmp = sh_buf + corner_size - 1;
 887:lvgl/src/lv_draw/lv_draw_rect.c ****         sh_buf_tmp += corner_size * (ca.y1 - a.y1);
 888:lvgl/src/lv_draw/lv_draw_rect.c **** 
 889:lvgl/src/lv_draw/lv_draw_rect.c ****         lv_area_t fa;
 890:lvgl/src/lv_draw/lv_draw_rect.c ****         lv_area_copy(&fa, &ca);
 891:lvgl/src/lv_draw/lv_draw_rect.c ****         fa.y2 = fa.y1;
 892:lvgl/src/lv_draw/lv_draw_rect.c ****         mask_res = LV_DRAW_MASK_RES_FULL_COVER;
 893:lvgl/src/lv_draw/lv_draw_rect.c ****         for(y = 0; y < h; y++) {
 894:lvgl/src/lv_draw/lv_draw_rect.c ****             lv_opa_t opa_tmp = sh_buf_tmp[0];
 895:lvgl/src/lv_draw/lv_draw_rect.c ****             if(opa_tmp != LV_OPA_COVER || opa != LV_OPA_COVER) opa_tmp = (opa * opa_tmp) >> 8;
 896:lvgl/src/lv_draw/lv_draw_rect.c **** 
 897:lvgl/src/lv_draw/lv_draw_rect.c ****             _lv_memset(mask_buf, opa_tmp, w);
 898:lvgl/src/lv_draw/lv_draw_rect.c **** 
 899:lvgl/src/lv_draw/lv_draw_rect.c ****             if(simple_mode) {
 900:lvgl/src/lv_draw/lv_draw_rect.c ****                 mask_res = LV_DRAW_MASK_RES_CHANGED;
 901:lvgl/src/lv_draw/lv_draw_rect.c ****             }
 902:lvgl/src/lv_draw/lv_draw_rect.c ****             else {
 903:lvgl/src/lv_draw/lv_draw_rect.c ****                 mask_res = lv_draw_mask_apply(mask_buf, fa.x1, fa.y1, w);
 904:lvgl/src/lv_draw/lv_draw_rect.c ****                 if(mask_res == LV_DRAW_MASK_RES_FULL_COVER) mask_res = LV_DRAW_MASK_RES_CHANGED;
 905:lvgl/src/lv_draw/lv_draw_rect.c ****             }
 906:lvgl/src/lv_draw/lv_draw_rect.c **** 
 907:lvgl/src/lv_draw/lv_draw_rect.c ****             _lv_blend_fill(clip, &fa, dsc->shadow_color, mask_buf,
 908:lvgl/src/lv_draw/lv_draw_rect.c ****                            mask_res, LV_OPA_COVER, dsc->shadow_blend_mode);
 909:lvgl/src/lv_draw/lv_draw_rect.c ****             fa.y1++;
 910:lvgl/src/lv_draw/lv_draw_rect.c ****             fa.y2++;
 911:lvgl/src/lv_draw/lv_draw_rect.c ****             sh_buf_tmp += corner_size;
 912:lvgl/src/lv_draw/lv_draw_rect.c ****         }
 913:lvgl/src/lv_draw/lv_draw_rect.c ****     }
 914:lvgl/src/lv_draw/lv_draw_rect.c **** 
 915:lvgl/src/lv_draw/lv_draw_rect.c ****     /*Fill the bottom side*/
 916:lvgl/src/lv_draw/lv_draw_rect.c ****     a.x1 = sh_area.x1 + corner_size;
 917:lvgl/src/lv_draw/lv_draw_rect.c ****     a.x2 = sh_area.x2 - corner_size;
 918:lvgl/src/lv_draw/lv_draw_rect.c ****     a.y1 = sh_area.y2 - corner_size + 1;
 919:lvgl/src/lv_draw/lv_draw_rect.c ****     a.y2 = sh_area.y2;
 920:lvgl/src/lv_draw/lv_draw_rect.c **** 
 921:lvgl/src/lv_draw/lv_draw_rect.c ****     has_com = _lv_area_intersect(&ca, &a, clip);
 922:lvgl/src/lv_draw/lv_draw_rect.c ****     if(has_com && _lv_area_is_in(&a, &bg_coords, r_bg) == false) {
 923:lvgl/src/lv_draw/lv_draw_rect.c ****         if(simple_mode) ca.y1 = LV_MATH_MAX(ca.y1, coords->y2);
 924:lvgl/src/lv_draw/lv_draw_rect.c ****         /*Draw horizontal lines*/
 925:lvgl/src/lv_draw/lv_draw_rect.c ****         lv_coord_t w = lv_area_get_width(&ca);
 926:lvgl/src/lv_draw/lv_draw_rect.c ****         lv_coord_t h = lv_area_get_height(&ca);
 927:lvgl/src/lv_draw/lv_draw_rect.c ****         sh_buf_tmp = sh_buf + corner_size - 1;
 928:lvgl/src/lv_draw/lv_draw_rect.c ****         sh_buf_tmp += corner_size * (a.y2 - ca.y2);
 929:lvgl/src/lv_draw/lv_draw_rect.c **** 
 930:lvgl/src/lv_draw/lv_draw_rect.c ****         lv_area_t fa;
 931:lvgl/src/lv_draw/lv_draw_rect.c ****         lv_area_copy(&fa, &ca);
 932:lvgl/src/lv_draw/lv_draw_rect.c ****         fa.y1 = fa.y2;
 933:lvgl/src/lv_draw/lv_draw_rect.c ****         for(y = 0; y < h; y++) {
 934:lvgl/src/lv_draw/lv_draw_rect.c ****             lv_opa_t opa_tmp = sh_buf_tmp[0];
 935:lvgl/src/lv_draw/lv_draw_rect.c ****             if(opa_tmp != LV_OPA_COVER || opa != LV_OPA_COVER) opa_tmp = (opa * opa_tmp) >> 8;
 936:lvgl/src/lv_draw/lv_draw_rect.c **** 
 937:lvgl/src/lv_draw/lv_draw_rect.c ****             _lv_memset(mask_buf, opa_tmp, w);
 938:lvgl/src/lv_draw/lv_draw_rect.c ****             if(simple_mode) {
 939:lvgl/src/lv_draw/lv_draw_rect.c ****                 mask_res = LV_DRAW_MASK_RES_CHANGED;
 940:lvgl/src/lv_draw/lv_draw_rect.c ****             }
 941:lvgl/src/lv_draw/lv_draw_rect.c ****             else {
 942:lvgl/src/lv_draw/lv_draw_rect.c ****                 mask_res = lv_draw_mask_apply(mask_buf, fa.x1, fa.y1, w);
ARM GAS  D:\Temp\ccGEpo4V.s 			page 18


 943:lvgl/src/lv_draw/lv_draw_rect.c ****                 if(mask_res == LV_DRAW_MASK_RES_FULL_COVER) mask_res = LV_DRAW_MASK_RES_CHANGED;
 944:lvgl/src/lv_draw/lv_draw_rect.c ****             }
 945:lvgl/src/lv_draw/lv_draw_rect.c **** 
 946:lvgl/src/lv_draw/lv_draw_rect.c ****             _lv_blend_fill(clip, &fa, dsc->shadow_color, mask_buf,
 947:lvgl/src/lv_draw/lv_draw_rect.c ****                            mask_res, LV_OPA_COVER, dsc->shadow_blend_mode);
 948:lvgl/src/lv_draw/lv_draw_rect.c ****             fa.y1--;
 949:lvgl/src/lv_draw/lv_draw_rect.c ****             fa.y2--;
 950:lvgl/src/lv_draw/lv_draw_rect.c ****             sh_buf_tmp += corner_size;
 951:lvgl/src/lv_draw/lv_draw_rect.c ****         }
 952:lvgl/src/lv_draw/lv_draw_rect.c ****     }
 953:lvgl/src/lv_draw/lv_draw_rect.c **** 
 954:lvgl/src/lv_draw/lv_draw_rect.c ****     /*Draw the middle area*/
 955:lvgl/src/lv_draw/lv_draw_rect.c ****     a.x1 = sh_area.x1 + corner_size;
 956:lvgl/src/lv_draw/lv_draw_rect.c ****     a.x2 = sh_area.x2 - corner_size;
 957:lvgl/src/lv_draw/lv_draw_rect.c ****     a.y1 = sh_area.y1 + corner_size;
 958:lvgl/src/lv_draw/lv_draw_rect.c ****     a.y2 = sh_area.y2 - corner_size;
 959:lvgl/src/lv_draw/lv_draw_rect.c **** 
 960:lvgl/src/lv_draw/lv_draw_rect.c ****     has_com = _lv_area_intersect(&ca, &a, clip);
 961:lvgl/src/lv_draw/lv_draw_rect.c ****     if(has_com && simple_mode == false &&  _lv_area_is_in(&a, &bg_coords, r_bg) == false) {
 962:lvgl/src/lv_draw/lv_draw_rect.c ****         /*Draw horizontal lines*/
 963:lvgl/src/lv_draw/lv_draw_rect.c ****         lv_coord_t w = lv_area_get_width(&ca);
 964:lvgl/src/lv_draw/lv_draw_rect.c ****         lv_coord_t h = lv_area_get_height(&ca);
 965:lvgl/src/lv_draw/lv_draw_rect.c **** 
 966:lvgl/src/lv_draw/lv_draw_rect.c ****         lv_area_t fa;
 967:lvgl/src/lv_draw/lv_draw_rect.c ****         lv_area_copy(&fa, &ca);
 968:lvgl/src/lv_draw/lv_draw_rect.c ****         fa.y2 = fa.y1;
 969:lvgl/src/lv_draw/lv_draw_rect.c ****         for(y = 0; y < h; y++) {
 970:lvgl/src/lv_draw/lv_draw_rect.c ****             _lv_memset(mask_buf, dsc->shadow_opa, w);
 971:lvgl/src/lv_draw/lv_draw_rect.c ****             mask_res = lv_draw_mask_apply(mask_buf, fa.x1, fa.y1, w);
 972:lvgl/src/lv_draw/lv_draw_rect.c ****             if(mask_res == LV_DRAW_MASK_RES_FULL_COVER) mask_res = LV_DRAW_MASK_RES_CHANGED;
 973:lvgl/src/lv_draw/lv_draw_rect.c **** 
 974:lvgl/src/lv_draw/lv_draw_rect.c ****             _lv_blend_fill(clip, &fa, dsc->shadow_color, mask_buf,
 975:lvgl/src/lv_draw/lv_draw_rect.c ****                            mask_res, LV_OPA_COVER, dsc->shadow_blend_mode);
 976:lvgl/src/lv_draw/lv_draw_rect.c ****             fa.y1++;
 977:lvgl/src/lv_draw/lv_draw_rect.c ****             fa.y2++;
 978:lvgl/src/lv_draw/lv_draw_rect.c ****         }
 979:lvgl/src/lv_draw/lv_draw_rect.c ****     }
 980:lvgl/src/lv_draw/lv_draw_rect.c **** 
 981:lvgl/src/lv_draw/lv_draw_rect.c ****     lv_draw_mask_remove_id(mask_rout_id);
 982:lvgl/src/lv_draw/lv_draw_rect.c ****     _lv_mem_buf_release(mask_buf);
 983:lvgl/src/lv_draw/lv_draw_rect.c ****     _lv_mem_buf_release(sh_buf);
 984:lvgl/src/lv_draw/lv_draw_rect.c **** }
 985:lvgl/src/lv_draw/lv_draw_rect.c **** 
 986:lvgl/src/lv_draw/lv_draw_rect.c **** /**
 987:lvgl/src/lv_draw/lv_draw_rect.c ****  * Calculate a blurred corner
 988:lvgl/src/lv_draw/lv_draw_rect.c ****  * @param coords Coordinates of the shadow
 989:lvgl/src/lv_draw/lv_draw_rect.c ****  * @param sh_buf a buffer to store the result. It's size should be `(sw + r)^2 * 2`
 990:lvgl/src/lv_draw/lv_draw_rect.c ****  * @param sw shadow width
 991:lvgl/src/lv_draw/lv_draw_rect.c ****  * @param r radius
 992:lvgl/src/lv_draw/lv_draw_rect.c ****  */
 993:lvgl/src/lv_draw/lv_draw_rect.c **** LV_ATTRIBUTE_FAST_MEM static void shadow_draw_corner_buf(const lv_area_t * coords, uint16_t * sh_bu
 994:lvgl/src/lv_draw/lv_draw_rect.c ****                                                          lv_coord_t r)
 995:lvgl/src/lv_draw/lv_draw_rect.c **** {
 996:lvgl/src/lv_draw/lv_draw_rect.c ****     int32_t sw_ori = sw;
 997:lvgl/src/lv_draw/lv_draw_rect.c ****     int32_t size = sw_ori  + r;
 998:lvgl/src/lv_draw/lv_draw_rect.c **** 
 999:lvgl/src/lv_draw/lv_draw_rect.c ****     lv_area_t sh_area;
ARM GAS  D:\Temp\ccGEpo4V.s 			page 19


1000:lvgl/src/lv_draw/lv_draw_rect.c ****     lv_area_copy(&sh_area, coords);
1001:lvgl/src/lv_draw/lv_draw_rect.c ****     sh_area.x2 = sw / 2 + r - 1  - ((sw & 1) ? 0 : 1);
1002:lvgl/src/lv_draw/lv_draw_rect.c ****     sh_area.y1 = sw / 2 + 1;
1003:lvgl/src/lv_draw/lv_draw_rect.c **** 
1004:lvgl/src/lv_draw/lv_draw_rect.c ****     sh_area.x1 = sh_area.x2 - lv_area_get_width(coords);
1005:lvgl/src/lv_draw/lv_draw_rect.c ****     sh_area.y2 = sh_area.y1 + lv_area_get_height(coords);
1006:lvgl/src/lv_draw/lv_draw_rect.c **** 
1007:lvgl/src/lv_draw/lv_draw_rect.c ****     lv_draw_mask_radius_param_t mask_param;
1008:lvgl/src/lv_draw/lv_draw_rect.c ****     lv_draw_mask_radius_init(&mask_param, &sh_area, r, false);
1009:lvgl/src/lv_draw/lv_draw_rect.c **** 
1010:lvgl/src/lv_draw/lv_draw_rect.c **** #if SHADOW_ENHANCE
1011:lvgl/src/lv_draw/lv_draw_rect.c ****     /*Set half shadow width width because blur will be repeated*/
1012:lvgl/src/lv_draw/lv_draw_rect.c ****     if(sw_ori == 1) sw = 1;
1013:lvgl/src/lv_draw/lv_draw_rect.c ****     else sw = sw_ori >> 1;
1014:lvgl/src/lv_draw/lv_draw_rect.c **** #endif
1015:lvgl/src/lv_draw/lv_draw_rect.c **** 
1016:lvgl/src/lv_draw/lv_draw_rect.c ****     int32_t y;
1017:lvgl/src/lv_draw/lv_draw_rect.c ****     lv_opa_t * mask_line = _lv_mem_buf_get(size);
1018:lvgl/src/lv_draw/lv_draw_rect.c ****     uint16_t * sh_ups_tmp_buf = (uint16_t *)sh_buf;
1019:lvgl/src/lv_draw/lv_draw_rect.c ****     for(y = 0; y < size; y++) {
1020:lvgl/src/lv_draw/lv_draw_rect.c ****         _lv_memset_ff(mask_line, size);
1021:lvgl/src/lv_draw/lv_draw_rect.c ****         lv_draw_mask_res_t mask_res = mask_param.dsc.cb(mask_line, 0, y, size, &mask_param);
1022:lvgl/src/lv_draw/lv_draw_rect.c ****         if(mask_res == LV_DRAW_MASK_RES_TRANSP) {
1023:lvgl/src/lv_draw/lv_draw_rect.c ****             _lv_memset_00(sh_ups_tmp_buf, size * sizeof(sh_ups_tmp_buf[0]));
1024:lvgl/src/lv_draw/lv_draw_rect.c ****         }
1025:lvgl/src/lv_draw/lv_draw_rect.c ****         else {
1026:lvgl/src/lv_draw/lv_draw_rect.c ****             int32_t i;
1027:lvgl/src/lv_draw/lv_draw_rect.c ****             sh_ups_tmp_buf[0] = (mask_line[0] << SHADOW_UPSCALE_SHIFT) / sw;
1028:lvgl/src/lv_draw/lv_draw_rect.c ****             for(i = 1; i < size; i++) {
1029:lvgl/src/lv_draw/lv_draw_rect.c ****                 if(mask_line[i] == mask_line[i - 1]) sh_ups_tmp_buf[i] = sh_ups_tmp_buf[i - 1];
1030:lvgl/src/lv_draw/lv_draw_rect.c ****                 else sh_ups_tmp_buf[i] = (mask_line[i] << SHADOW_UPSCALE_SHIFT) / sw;
1031:lvgl/src/lv_draw/lv_draw_rect.c ****             }
1032:lvgl/src/lv_draw/lv_draw_rect.c ****         }
1033:lvgl/src/lv_draw/lv_draw_rect.c **** 
1034:lvgl/src/lv_draw/lv_draw_rect.c ****         sh_ups_tmp_buf += size;
1035:lvgl/src/lv_draw/lv_draw_rect.c ****     }
1036:lvgl/src/lv_draw/lv_draw_rect.c ****     _lv_mem_buf_release(mask_line);
1037:lvgl/src/lv_draw/lv_draw_rect.c **** 
1038:lvgl/src/lv_draw/lv_draw_rect.c ****     if(sw == 1) {
1039:lvgl/src/lv_draw/lv_draw_rect.c ****         int32_t i;
1040:lvgl/src/lv_draw/lv_draw_rect.c ****         lv_opa_t * res_buf = (lv_opa_t *)sh_buf;
1041:lvgl/src/lv_draw/lv_draw_rect.c ****         for(i = 0; i < size * size; i++) {
1042:lvgl/src/lv_draw/lv_draw_rect.c ****             res_buf[i] = (sh_buf[i] >> SHADOW_UPSCALE_SHIFT);
1043:lvgl/src/lv_draw/lv_draw_rect.c ****         }
1044:lvgl/src/lv_draw/lv_draw_rect.c ****         return;
1045:lvgl/src/lv_draw/lv_draw_rect.c ****     }
1046:lvgl/src/lv_draw/lv_draw_rect.c **** 
1047:lvgl/src/lv_draw/lv_draw_rect.c ****     shadow_blur_corner(size, sw, sh_buf);
1048:lvgl/src/lv_draw/lv_draw_rect.c **** 
1049:lvgl/src/lv_draw/lv_draw_rect.c **** #if SHADOW_ENHANCE == 0
1050:lvgl/src/lv_draw/lv_draw_rect.c ****     /*The result is required in lv_opa_t not uint16_t*/
1051:lvgl/src/lv_draw/lv_draw_rect.c ****     uint32_t x;
1052:lvgl/src/lv_draw/lv_draw_rect.c ****     lv_opa_t * res_buf = (lv_opa_t *)sh_buf;
1053:lvgl/src/lv_draw/lv_draw_rect.c ****     for(x = 0; x < size * size; x++) {
1054:lvgl/src/lv_draw/lv_draw_rect.c ****         res_buf[x] = sh_buf[x];
1055:lvgl/src/lv_draw/lv_draw_rect.c ****     }
1056:lvgl/src/lv_draw/lv_draw_rect.c **** #else
ARM GAS  D:\Temp\ccGEpo4V.s 			page 20


1057:lvgl/src/lv_draw/lv_draw_rect.c ****     sw += sw_ori & 1;
1058:lvgl/src/lv_draw/lv_draw_rect.c ****     if(sw > 1) {
1059:lvgl/src/lv_draw/lv_draw_rect.c ****         uint32_t i;
1060:lvgl/src/lv_draw/lv_draw_rect.c ****         sh_buf[0] = (sh_buf[0] << SHADOW_UPSCALE_SHIFT) / sw;
1061:lvgl/src/lv_draw/lv_draw_rect.c ****         for(i = 1; i < (uint32_t) size * size; i++) {
1062:lvgl/src/lv_draw/lv_draw_rect.c ****             if(sh_buf[i] == sh_buf[i - 1]) sh_buf[i] = sh_buf[i - 1];
1063:lvgl/src/lv_draw/lv_draw_rect.c ****             else sh_buf[i] = (sh_buf[i] << SHADOW_UPSCALE_SHIFT) / sw;
1064:lvgl/src/lv_draw/lv_draw_rect.c ****         }
1065:lvgl/src/lv_draw/lv_draw_rect.c **** 
1066:lvgl/src/lv_draw/lv_draw_rect.c ****         shadow_blur_corner(size, sw, sh_buf);
1067:lvgl/src/lv_draw/lv_draw_rect.c ****     }
1068:lvgl/src/lv_draw/lv_draw_rect.c ****     int32_t x;
1069:lvgl/src/lv_draw/lv_draw_rect.c ****     lv_opa_t * res_buf = (lv_opa_t *)sh_buf;
1070:lvgl/src/lv_draw/lv_draw_rect.c ****     for(x = 0; x < size * size; x++) {
1071:lvgl/src/lv_draw/lv_draw_rect.c ****         res_buf[x] = sh_buf[x];
1072:lvgl/src/lv_draw/lv_draw_rect.c ****     }
1073:lvgl/src/lv_draw/lv_draw_rect.c **** #endif
1074:lvgl/src/lv_draw/lv_draw_rect.c **** 
1075:lvgl/src/lv_draw/lv_draw_rect.c **** }
1076:lvgl/src/lv_draw/lv_draw_rect.c **** 
1077:lvgl/src/lv_draw/lv_draw_rect.c **** LV_ATTRIBUTE_FAST_MEM static void shadow_blur_corner(lv_coord_t size, lv_coord_t sw, uint16_t * sh_
1078:lvgl/src/lv_draw/lv_draw_rect.c **** {
  29              		.loc 1 1078 1 view -0
  30              		.cfi_startproc
  31              		@ args = 0, pretend = 0, frame = 16
  32              		@ frame_needed = 0, uses_anonymous_args = 0
  33              		.loc 1 1078 1 is_stmt 0 view .LVU1
  34 0000 2DE9F04F 		push	{r4, r5, r6, r7, r8, r9, r10, fp, lr}
  35              	.LCFI0:
  36              		.cfi_def_cfa_offset 36
  37              		.cfi_offset 4, -36
  38              		.cfi_offset 5, -32
  39              		.cfi_offset 6, -28
  40              		.cfi_offset 7, -24
  41              		.cfi_offset 8, -20
  42              		.cfi_offset 9, -16
  43              		.cfi_offset 10, -12
  44              		.cfi_offset 11, -8
  45              		.cfi_offset 14, -4
  46 0004 85B0     		sub	sp, sp, #20
  47              	.LCFI1:
  48              		.cfi_def_cfa_offset 56
  49 0006 0290     		str	r0, [sp, #8]
  50 0008 0191     		str	r1, [sp, #4]
  51 000a 1646     		mov	r6, r2
1079:lvgl/src/lv_draw/lv_draw_rect.c ****     int32_t s_left = sw >> 1;
  52              		.loc 1 1079 5 is_stmt 1 view .LVU2
  53              		.loc 1 1079 25 is_stmt 0 view .LVU3
  54 000c 4F10     		asrs	r7, r1, #1
  55              	.LVL1:
1080:lvgl/src/lv_draw/lv_draw_rect.c ****     int32_t s_right = (sw >> 1);
  56              		.loc 1 1080 5 is_stmt 1 view .LVU4
1081:lvgl/src/lv_draw/lv_draw_rect.c ****     if((sw & 1) == 0) s_left--;
  57              		.loc 1 1081 5 view .LVU5
  58              		.loc 1 1081 7 is_stmt 0 view .LVU6
  59 000e 11F0010F 		tst	r1, #1
  60 0012 02D1     		bne	.L25
ARM GAS  D:\Temp\ccGEpo4V.s 			page 21


  61              		.loc 1 1081 23 is_stmt 1 discriminator 1 view .LVU7
  62              		.loc 1 1081 29 is_stmt 0 discriminator 1 view .LVU8
  63 0014 07F1FF38 		add	r8, r7, #-1
  64              	.LVL2:
  65              		.loc 1 1081 29 discriminator 1 view .LVU9
  66 0018 00E0     		b	.L2
  67              	.LVL3:
  68              	.L25:
1079:lvgl/src/lv_draw/lv_draw_rect.c ****     int32_t s_left = sw >> 1;
  69              		.loc 1 1079 13 view .LVU10
  70 001a B846     		mov	r8, r7
  71              	.LVL4:
  72              	.L2:
1082:lvgl/src/lv_draw/lv_draw_rect.c **** 
1083:lvgl/src/lv_draw/lv_draw_rect.c ****     /*Horizontal blur*/
1084:lvgl/src/lv_draw/lv_draw_rect.c ****     uint16_t * sh_ups_blur_buf = _lv_mem_buf_get(size * sizeof(uint16_t));
  73              		.loc 1 1084 5 is_stmt 1 view .LVU11
  74              		.loc 1 1084 34 is_stmt 0 view .LVU12
  75 001c 029B     		ldr	r3, [sp, #8]
  76 001e 9A46     		mov	r10, r3
  77              		.loc 1 1084 55 view .LVU13
  78 0020 5D00     		lsls	r5, r3, #1
  79              		.loc 1 1084 34 view .LVU14
  80 0022 2846     		mov	r0, r5
  81              	.LVL5:
  82              		.loc 1 1084 34 view .LVU15
  83 0024 FFF7FEFF 		bl	_lv_mem_buf_get
  84              	.LVL6:
  85              		.loc 1 1084 34 view .LVU16
  86 0028 0446     		mov	r4, r0
  87              	.LVL7:
1085:lvgl/src/lv_draw/lv_draw_rect.c **** 
1086:lvgl/src/lv_draw/lv_draw_rect.c ****     int32_t x;
  88              		.loc 1 1086 5 is_stmt 1 view .LVU17
1087:lvgl/src/lv_draw/lv_draw_rect.c ****     int32_t y;
  89              		.loc 1 1087 5 view .LVU18
1088:lvgl/src/lv_draw/lv_draw_rect.c **** 
1089:lvgl/src/lv_draw/lv_draw_rect.c ****     uint16_t * sh_ups_tmp_buf = sh_ups_buf;
  90              		.loc 1 1089 5 view .LVU19
1090:lvgl/src/lv_draw/lv_draw_rect.c **** 
1091:lvgl/src/lv_draw/lv_draw_rect.c ****     for(y = 0; y < size; y++) {
  91              		.loc 1 1091 5 view .LVU20
1089:lvgl/src/lv_draw/lv_draw_rect.c **** 
  92              		.loc 1 1089 16 is_stmt 0 view .LVU21
  93 002a B146     		mov	r9, r6
  94              		.loc 1 1091 11 view .LVU22
  95 002c 4FF0000B 		mov	fp, #0
  96 0030 0396     		str	r6, [sp, #12]
  97 0032 029E     		ldr	r6, [sp, #8]
  98              	.LVL8:
  99              		.loc 1 1091 5 view .LVU23
 100 0034 21E0     		b	.L3
 101              	.LVL9:
 102              	.L26:
 103              	.LBB206:
 104              	.LBB207:
1092:lvgl/src/lv_draw/lv_draw_rect.c ****         int32_t v = sh_ups_tmp_buf[size - 1] * sw;
ARM GAS  D:\Temp\ccGEpo4V.s 			page 22


1093:lvgl/src/lv_draw/lv_draw_rect.c ****         for(x = size - 1; x >= 0; x--) {
1094:lvgl/src/lv_draw/lv_draw_rect.c ****             sh_ups_blur_buf[x] = v;
1095:lvgl/src/lv_draw/lv_draw_rect.c **** 
1096:lvgl/src/lv_draw/lv_draw_rect.c ****             /*Forget the right pixel*/
1097:lvgl/src/lv_draw/lv_draw_rect.c ****             uint32_t right_val = 0;
 105              		.loc 1 1097 22 view .LVU24
 106 0036 0022     		movs	r2, #0
 107              	.LVL10:
 108              	.L5:
1098:lvgl/src/lv_draw/lv_draw_rect.c ****             if(x + s_right < size) right_val = sh_ups_tmp_buf[x + s_right];
1099:lvgl/src/lv_draw/lv_draw_rect.c ****             v -= right_val;
 109              		.loc 1 1099 13 is_stmt 1 view .LVU25
 110              		.loc 1 1099 15 is_stmt 0 view .LVU26
 111 0038 9B1A     		subs	r3, r3, r2
 112              	.LVL11:
1100:lvgl/src/lv_draw/lv_draw_rect.c **** 
1101:lvgl/src/lv_draw/lv_draw_rect.c ****             /*Add the left pixel*/
1102:lvgl/src/lv_draw/lv_draw_rect.c ****             uint32_t left_val;
 113              		.loc 1 1102 13 is_stmt 1 view .LVU27
1103:lvgl/src/lv_draw/lv_draw_rect.c ****             if(x - s_left - 1 < 0) left_val = sh_ups_tmp_buf[0];
 114              		.loc 1 1103 13 view .LVU28
 115              		.loc 1 1103 18 is_stmt 0 view .LVU29
 116 003a A0EB0802 		sub	r2, r0, r8
 117              	.LVL12:
 118              		.loc 1 1103 15 view .LVU30
 119 003e 002A     		cmp	r2, #0
 120 0040 10DD     		ble	.L29
1104:lvgl/src/lv_draw/lv_draw_rect.c ****             else left_val = sh_ups_tmp_buf[x - s_left - 1];
 121              		.loc 1 1104 18 is_stmt 1 view .LVU31
 122              		.loc 1 1104 43 is_stmt 0 view .LVU32
 123 0042 02F10042 		add	r2, r2, #-2147483648
 124 0046 013A     		subs	r2, r2, #1
 125 0048 39F81220 		ldrh	r2, [r9, r2, lsl #1]
 126              	.LVL13:
 127              	.L7:
1105:lvgl/src/lv_draw/lv_draw_rect.c ****             v += left_val;
 128              		.loc 1 1105 13 is_stmt 1 discriminator 2 view .LVU33
 129              		.loc 1 1105 15 is_stmt 0 discriminator 2 view .LVU34
 130 004c 1344     		add	r3, r3, r2
 131              	.LVL14:
 132              		.loc 1 1105 15 discriminator 2 view .LVU35
 133              	.LBE207:
1093:lvgl/src/lv_draw/lv_draw_rect.c ****             sh_ups_blur_buf[x] = v;
 134              		.loc 1 1093 36 discriminator 2 view .LVU36
 135 004e 0138     		subs	r0, r0, #1
 136              	.LVL15:
 137              	.L4:
1093:lvgl/src/lv_draw/lv_draw_rect.c ****             sh_ups_blur_buf[x] = v;
 138              		.loc 1 1093 9 discriminator 1 view .LVU37
 139 0050 0028     		cmp	r0, #0
 140 0052 0ADB     		blt	.L30
 141              	.LBB208:
1094:lvgl/src/lv_draw/lv_draw_rect.c **** 
 142              		.loc 1 1094 13 is_stmt 1 view .LVU38
1094:lvgl/src/lv_draw/lv_draw_rect.c **** 
 143              		.loc 1 1094 32 is_stmt 0 view .LVU39
 144 0054 24F81030 		strh	r3, [r4, r0, lsl #1]	@ movhi
ARM GAS  D:\Temp\ccGEpo4V.s 			page 23


1097:lvgl/src/lv_draw/lv_draw_rect.c ****             if(x + s_right < size) right_val = sh_ups_tmp_buf[x + s_right];
 145              		.loc 1 1097 13 is_stmt 1 view .LVU40
 146              	.LVL16:
1098:lvgl/src/lv_draw/lv_draw_rect.c ****             v -= right_val;
 147              		.loc 1 1098 13 view .LVU41
1098:lvgl/src/lv_draw/lv_draw_rect.c ****             v -= right_val;
 148              		.loc 1 1098 18 is_stmt 0 view .LVU42
 149 0058 C219     		adds	r2, r0, r7
1098:lvgl/src/lv_draw/lv_draw_rect.c ****             v -= right_val;
 150              		.loc 1 1098 15 view .LVU43
 151 005a 8A42     		cmp	r2, r1
 152 005c EBDA     		bge	.L26
1098:lvgl/src/lv_draw/lv_draw_rect.c ****             v -= right_val;
 153              		.loc 1 1098 36 is_stmt 1 discriminator 1 view .LVU44
1098:lvgl/src/lv_draw/lv_draw_rect.c ****             v -= right_val;
 154              		.loc 1 1098 62 is_stmt 0 discriminator 1 view .LVU45
 155 005e 39F81220 		ldrh	r2, [r9, r2, lsl #1]
 156              	.LVL17:
1098:lvgl/src/lv_draw/lv_draw_rect.c ****             v -= right_val;
 157              		.loc 1 1098 62 discriminator 1 view .LVU46
 158 0062 E9E7     		b	.L5
 159              	.LVL18:
 160              	.L29:
1103:lvgl/src/lv_draw/lv_draw_rect.c ****             else left_val = sh_ups_tmp_buf[x - s_left - 1];
 161              		.loc 1 1103 36 is_stmt 1 discriminator 1 view .LVU47
1103:lvgl/src/lv_draw/lv_draw_rect.c ****             else left_val = sh_ups_tmp_buf[x - s_left - 1];
 162              		.loc 1 1103 61 is_stmt 0 discriminator 1 view .LVU48
 163 0064 B9F80020 		ldrh	r2, [r9]
 164              	.LVL19:
1103:lvgl/src/lv_draw/lv_draw_rect.c ****             else left_val = sh_ups_tmp_buf[x - s_left - 1];
 165              		.loc 1 1103 61 discriminator 1 view .LVU49
 166 0068 F0E7     		b	.L7
 167              	.LVL20:
 168              	.L30:
1103:lvgl/src/lv_draw/lv_draw_rect.c ****             else left_val = sh_ups_tmp_buf[x - s_left - 1];
 169              		.loc 1 1103 61 discriminator 1 view .LVU50
 170              	.LBE208:
1106:lvgl/src/lv_draw/lv_draw_rect.c ****         }
1107:lvgl/src/lv_draw/lv_draw_rect.c ****         _lv_memcpy(sh_ups_tmp_buf, sh_ups_blur_buf, size * sizeof(uint16_t));
 171              		.loc 1 1107 9 is_stmt 1 discriminator 2 view .LVU51
 172 006a 2A46     		mov	r2, r5
 173 006c 2146     		mov	r1, r4
 174 006e 4846     		mov	r0, r9
 175              	.LVL21:
 176              		.loc 1 1107 9 is_stmt 0 discriminator 2 view .LVU52
 177 0070 FFF7FEFF 		bl	_lv_memcpy
 178              	.LVL22:
1108:lvgl/src/lv_draw/lv_draw_rect.c ****         sh_ups_tmp_buf += size;
 179              		.loc 1 1108 9 is_stmt 1 discriminator 2 view .LVU53
 180              		.loc 1 1108 24 is_stmt 0 discriminator 2 view .LVU54
 181 0074 A944     		add	r9, r9, r5
 182              	.LVL23:
 183              		.loc 1 1108 24 discriminator 2 view .LVU55
 184              	.LBE206:
1091:lvgl/src/lv_draw/lv_draw_rect.c ****         int32_t v = sh_ups_tmp_buf[size - 1] * sw;
 185              		.loc 1 1091 27 discriminator 2 view .LVU56
 186 0076 0BF1010B 		add	fp, fp, #1
ARM GAS  D:\Temp\ccGEpo4V.s 			page 24


 187              	.LVL24:
 188              	.L3:
1091:lvgl/src/lv_draw/lv_draw_rect.c ****         int32_t v = sh_ups_tmp_buf[size - 1] * sw;
 189              		.loc 1 1091 18 discriminator 1 view .LVU57
 190 007a 3146     		mov	r1, r6
1091:lvgl/src/lv_draw/lv_draw_rect.c ****         int32_t v = sh_ups_tmp_buf[size - 1] * sw;
 191              		.loc 1 1091 5 discriminator 1 view .LVU58
 192 007c 5E45     		cmp	r6, fp
 193 007e 09DD     		ble	.L31
 194              	.LBB209:
1092:lvgl/src/lv_draw/lv_draw_rect.c ****         for(x = size - 1; x >= 0; x--) {
 195              		.loc 1 1092 9 is_stmt 1 view .LVU59
1092:lvgl/src/lv_draw/lv_draw_rect.c ****         for(x = size - 1; x >= 0; x--) {
 196              		.loc 1 1092 35 is_stmt 0 view .LVU60
 197 0080 0AF10043 		add	r3, r10, #-2147483648
 198 0084 013B     		subs	r3, r3, #1
 199 0086 39F81330 		ldrh	r3, [r9, r3, lsl #1]
1092:lvgl/src/lv_draw/lv_draw_rect.c ****         for(x = size - 1; x >= 0; x--) {
 200              		.loc 1 1092 17 view .LVU61
 201 008a 019A     		ldr	r2, [sp, #4]
 202 008c 02FB03F3 		mul	r3, r2, r3
 203              	.LVL25:
1093:lvgl/src/lv_draw/lv_draw_rect.c ****             sh_ups_blur_buf[x] = v;
 204              		.loc 1 1093 9 is_stmt 1 view .LVU62
1093:lvgl/src/lv_draw/lv_draw_rect.c ****             sh_ups_blur_buf[x] = v;
 205              		.loc 1 1093 15 is_stmt 0 view .LVU63
 206 0090 701E     		subs	r0, r6, #1
 207              	.LVL26:
1093:lvgl/src/lv_draw/lv_draw_rect.c ****             sh_ups_blur_buf[x] = v;
 208              		.loc 1 1093 9 view .LVU64
 209 0092 DDE7     		b	.L4
 210              	.LVL27:
 211              	.L31:
1093:lvgl/src/lv_draw/lv_draw_rect.c ****             sh_ups_blur_buf[x] = v;
 212              		.loc 1 1093 9 view .LVU65
 213 0094 039E     		ldr	r6, [sp, #12]
 214              	.LBE209:
1109:lvgl/src/lv_draw/lv_draw_rect.c ****     }
1110:lvgl/src/lv_draw/lv_draw_rect.c **** 
1111:lvgl/src/lv_draw/lv_draw_rect.c ****     /*Vertical blur*/
1112:lvgl/src/lv_draw/lv_draw_rect.c ****     uint32_t i;
 215              		.loc 1 1112 5 is_stmt 1 view .LVU66
1113:lvgl/src/lv_draw/lv_draw_rect.c ****     sh_ups_buf[0] = sh_ups_buf[0] / sw;
 216              		.loc 1 1113 5 view .LVU67
 217              		.loc 1 1113 31 is_stmt 0 view .LVU68
 218 0096 3388     		ldrh	r3, [r6]
 219              		.loc 1 1113 35 view .LVU69
 220 0098 019A     		ldr	r2, [sp, #4]
 221 009a 9646     		mov	lr, r2
 222 009c 93FBF2F3 		sdiv	r3, r3, r2
 223              		.loc 1 1113 19 view .LVU70
 224 00a0 3380     		strh	r3, [r6]	@ movhi
1114:lvgl/src/lv_draw/lv_draw_rect.c ****     for(i = 1; i < (uint32_t)size * size; i++) {
 225              		.loc 1 1114 5 is_stmt 1 view .LVU71
 226              	.LVL28:
 227              		.loc 1 1114 11 is_stmt 0 view .LVU72
 228 00a2 0123     		movs	r3, #1
ARM GAS  D:\Temp\ccGEpo4V.s 			page 25


 229              		.loc 1 1114 5 view .LVU73
 230 00a4 02E0     		b	.L10
 231              	.LVL29:
 232              	.L33:
1115:lvgl/src/lv_draw/lv_draw_rect.c ****         if(sh_ups_buf[i] == sh_ups_buf[i - 1]) sh_ups_buf[i] = sh_ups_buf[i - 1];
 233              		.loc 1 1115 48 is_stmt 1 discriminator 1 view .LVU74
 234              		.loc 1 1115 62 is_stmt 0 discriminator 1 view .LVU75
 235 00a6 26F81320 		strh	r2, [r6, r3, lsl #1]	@ movhi
 236              	.L12:
1114:lvgl/src/lv_draw/lv_draw_rect.c ****     for(i = 1; i < (uint32_t)size * size; i++) {
 237              		.loc 1 1114 44 discriminator 2 view .LVU76
 238 00aa 0133     		adds	r3, r3, #1
 239              	.LVL30:
 240              	.L10:
1114:lvgl/src/lv_draw/lv_draw_rect.c ****     for(i = 1; i < (uint32_t)size * size; i++) {
 241              		.loc 1 1114 35 discriminator 1 view .LVU77
 242 00ac 0AFB0AF2 		mul	r2, r10, r10
1114:lvgl/src/lv_draw/lv_draw_rect.c ****     for(i = 1; i < (uint32_t)size * size; i++) {
 243              		.loc 1 1114 5 discriminator 1 view .LVU78
 244 00b0 9A42     		cmp	r2, r3
 245 00b2 0DD9     		bls	.L32
 246              		.loc 1 1115 9 is_stmt 1 view .LVU79
 247              		.loc 1 1115 22 is_stmt 0 view .LVU80
 248 00b4 36F81300 		ldrh	r0, [r6, r3, lsl #1]
 249              		.loc 1 1115 39 view .LVU81
 250 00b8 03F10042 		add	r2, r3, #-2147483648
 251 00bc 013A     		subs	r2, r2, #1
 252 00be 36F81220 		ldrh	r2, [r6, r2, lsl #1]
 253              		.loc 1 1115 11 view .LVU82
 254 00c2 9042     		cmp	r0, r2
 255 00c4 EFD0     		beq	.L33
1116:lvgl/src/lv_draw/lv_draw_rect.c ****         else sh_ups_buf[i] = sh_ups_buf[i] / sw;
 256              		.loc 1 1116 14 is_stmt 1 view .LVU83
 257              		.loc 1 1116 44 is_stmt 0 view .LVU84
 258 00c6 90FBFEF0 		sdiv	r0, r0, lr
 259              		.loc 1 1116 28 view .LVU85
 260 00ca 26F81300 		strh	r0, [r6, r3, lsl #1]	@ movhi
 261 00ce ECE7     		b	.L12
 262              	.L32:
1117:lvgl/src/lv_draw/lv_draw_rect.c ****     }
1118:lvgl/src/lv_draw/lv_draw_rect.c **** 
1119:lvgl/src/lv_draw/lv_draw_rect.c ****     for(x = 0; x < size; x++) {
 263              		.loc 1 1119 11 view .LVU86
 264 00d0 4FF0000A 		mov	r10, #0
 265 00d4 32E0     		b	.L14
 266              	.LVL31:
 267              	.L27:
 268              	.LBB210:
 269              	.LBB211:
1120:lvgl/src/lv_draw/lv_draw_rect.c ****         sh_ups_tmp_buf = &sh_ups_buf[x];
1121:lvgl/src/lv_draw/lv_draw_rect.c ****         int32_t v = sh_ups_tmp_buf[0] * sw;
1122:lvgl/src/lv_draw/lv_draw_rect.c ****         for(y = 0; y < size ; y++, sh_ups_tmp_buf += size) {
1123:lvgl/src/lv_draw/lv_draw_rect.c ****             sh_ups_blur_buf[y] = v < 0 ? 0 : (v >> SHADOW_UPSCALE_SHIFT);
 270              		.loc 1 1123 32 view .LVU87
 271 00d6 0020     		movs	r0, #0
 272 00d8 10E0     		b	.L16
 273              	.L35:
ARM GAS  D:\Temp\ccGEpo4V.s 			page 26


1124:lvgl/src/lv_draw/lv_draw_rect.c **** 
1125:lvgl/src/lv_draw/lv_draw_rect.c ****             /*Forget the top pixel*/
1126:lvgl/src/lv_draw/lv_draw_rect.c ****             uint32_t top_val;
1127:lvgl/src/lv_draw/lv_draw_rect.c ****             if(y - s_right <= 0) top_val = sh_ups_tmp_buf[0];
 274              		.loc 1 1127 34 is_stmt 1 discriminator 1 view .LVU88
 275              		.loc 1 1127 58 is_stmt 0 discriminator 1 view .LVU89
 276 00da B9F80000 		ldrh	r0, [r9]
 277              	.LVL32:
 278              		.loc 1 1127 58 discriminator 1 view .LVU90
 279 00de 16E0     		b	.L18
 280              	.LVL33:
 281              	.L19:
1128:lvgl/src/lv_draw/lv_draw_rect.c ****             else top_val = sh_ups_buf[(y - s_right) * size + x];
1129:lvgl/src/lv_draw/lv_draw_rect.c ****             v -= top_val;
1130:lvgl/src/lv_draw/lv_draw_rect.c **** 
1131:lvgl/src/lv_draw/lv_draw_rect.c ****             /*Add the bottom pixel*/
1132:lvgl/src/lv_draw/lv_draw_rect.c ****             uint32_t bottom_val;
1133:lvgl/src/lv_draw/lv_draw_rect.c ****             if(y + s_left + 1 < size) bottom_val = sh_ups_buf[(y + s_left + 1) * size + x];
1134:lvgl/src/lv_draw/lv_draw_rect.c ****             else bottom_val = sh_ups_buf[(size - 1) * size + x];
 282              		.loc 1 1134 18 is_stmt 1 view .LVU91
 283              		.loc 1 1134 48 is_stmt 0 view .LVU92
 284 00e0 481E     		subs	r0, r1, #1
 285              		.loc 1 1134 60 view .LVU93
 286 00e2 00FB01A0 		mla	r0, r0, r1, r10
 287              		.loc 1 1134 41 view .LVU94
 288 00e6 36F81000 		ldrh	r0, [r6, r0, lsl #1]
 289              	.LVL34:
 290              	.L20:
1135:lvgl/src/lv_draw/lv_draw_rect.c ****             v += bottom_val;
 291              		.loc 1 1135 13 is_stmt 1 discriminator 2 view .LVU95
 292              		.loc 1 1135 15 is_stmt 0 discriminator 2 view .LVU96
 293 00ea 0244     		add	r2, r2, r0
 294              	.LVL35:
 295              		.loc 1 1135 15 discriminator 2 view .LVU97
 296              	.LBE211:
1122:lvgl/src/lv_draw/lv_draw_rect.c ****             sh_ups_blur_buf[y] = v < 0 ? 0 : (v >> SHADOW_UPSCALE_SHIFT);
 297              		.loc 1 1122 32 discriminator 2 view .LVU98
 298 00ec 0133     		adds	r3, r3, #1
 299              	.LVL36:
1122:lvgl/src/lv_draw/lv_draw_rect.c ****             sh_ups_blur_buf[y] = v < 0 ? 0 : (v >> SHADOW_UPSCALE_SHIFT);
 300              		.loc 1 1122 51 discriminator 2 view .LVU99
 301 00ee A944     		add	r9, r9, r5
 302              	.LVL37:
 303              	.L15:
1122:lvgl/src/lv_draw/lv_draw_rect.c ****             sh_ups_blur_buf[y] = v < 0 ? 0 : (v >> SHADOW_UPSCALE_SHIFT);
 304              		.loc 1 1122 9 discriminator 1 view .LVU100
 305 00f0 9942     		cmp	r1, r3
 306 00f2 17DD     		ble	.L34
 307              	.LBB212:
1123:lvgl/src/lv_draw/lv_draw_rect.c **** 
 308              		.loc 1 1123 13 is_stmt 1 view .LVU101
1123:lvgl/src/lv_draw/lv_draw_rect.c **** 
 309              		.loc 1 1123 32 is_stmt 0 view .LVU102
 310 00f4 002A     		cmp	r2, #0
 311 00f6 EEDB     		blt	.L27
1123:lvgl/src/lv_draw/lv_draw_rect.c **** 
 312              		.loc 1 1123 32 discriminator 1 view .LVU103
ARM GAS  D:\Temp\ccGEpo4V.s 			page 27


 313 00f8 C2F38F10 		ubfx	r0, r2, #6, #16
 314              	.L16:
1123:lvgl/src/lv_draw/lv_draw_rect.c **** 
 315              		.loc 1 1123 32 discriminator 4 view .LVU104
 316 00fc 24F81300 		strh	r0, [r4, r3, lsl #1]	@ movhi
1126:lvgl/src/lv_draw/lv_draw_rect.c ****             if(y - s_right <= 0) top_val = sh_ups_tmp_buf[0];
 317              		.loc 1 1126 13 is_stmt 1 discriminator 4 view .LVU105
1127:lvgl/src/lv_draw/lv_draw_rect.c ****             else top_val = sh_ups_buf[(y - s_right) * size + x];
 318              		.loc 1 1127 13 discriminator 4 view .LVU106
1127:lvgl/src/lv_draw/lv_draw_rect.c ****             else top_val = sh_ups_buf[(y - s_right) * size + x];
 319              		.loc 1 1127 18 is_stmt 0 discriminator 4 view .LVU107
 320 0100 D81B     		subs	r0, r3, r7
1127:lvgl/src/lv_draw/lv_draw_rect.c ****             else top_val = sh_ups_buf[(y - s_right) * size + x];
 321              		.loc 1 1127 15 discriminator 4 view .LVU108
 322 0102 0028     		cmp	r0, #0
 323 0104 E9DD     		ble	.L35
1128:lvgl/src/lv_draw/lv_draw_rect.c ****             v -= top_val;
 324              		.loc 1 1128 18 is_stmt 1 view .LVU109
1128:lvgl/src/lv_draw/lv_draw_rect.c ****             v -= top_val;
 325              		.loc 1 1128 60 is_stmt 0 view .LVU110
 326 0106 00FB01A0 		mla	r0, r0, r1, r10
1128:lvgl/src/lv_draw/lv_draw_rect.c ****             v -= top_val;
 327              		.loc 1 1128 38 view .LVU111
 328 010a 36F81000 		ldrh	r0, [r6, r0, lsl #1]
 329              	.LVL38:
 330              	.L18:
1129:lvgl/src/lv_draw/lv_draw_rect.c **** 
 331              		.loc 1 1129 13 is_stmt 1 view .LVU112
1129:lvgl/src/lv_draw/lv_draw_rect.c **** 
 332              		.loc 1 1129 15 is_stmt 0 view .LVU113
 333 010e 121A     		subs	r2, r2, r0
 334              	.LVL39:
1132:lvgl/src/lv_draw/lv_draw_rect.c ****             if(y + s_left + 1 < size) bottom_val = sh_ups_buf[(y + s_left + 1) * size + x];
 335              		.loc 1 1132 13 is_stmt 1 view .LVU114
1133:lvgl/src/lv_draw/lv_draw_rect.c ****             else bottom_val = sh_ups_buf[(size - 1) * size + x];
 336              		.loc 1 1133 13 view .LVU115
1133:lvgl/src/lv_draw/lv_draw_rect.c ****             else bottom_val = sh_ups_buf[(size - 1) * size + x];
 337              		.loc 1 1133 18 is_stmt 0 view .LVU116
 338 0110 08EB0300 		add	r0, r8, r3
 339              	.LVL40:
1133:lvgl/src/lv_draw/lv_draw_rect.c ****             else bottom_val = sh_ups_buf[(size - 1) * size + x];
 340              		.loc 1 1133 27 view .LVU117
 341 0114 0130     		adds	r0, r0, #1
1133:lvgl/src/lv_draw/lv_draw_rect.c ****             else bottom_val = sh_ups_buf[(size - 1) * size + x];
 342              		.loc 1 1133 15 view .LVU118
 343 0116 8142     		cmp	r1, r0
 344 0118 E2DD     		ble	.L19
1133:lvgl/src/lv_draw/lv_draw_rect.c ****             else bottom_val = sh_ups_buf[(size - 1) * size + x];
 345              		.loc 1 1133 39 is_stmt 1 discriminator 1 view .LVU119
1133:lvgl/src/lv_draw/lv_draw_rect.c ****             else bottom_val = sh_ups_buf[(size - 1) * size + x];
 346              		.loc 1 1133 87 is_stmt 0 discriminator 1 view .LVU120
 347 011a 00FB01A0 		mla	r0, r0, r1, r10
1133:lvgl/src/lv_draw/lv_draw_rect.c ****             else bottom_val = sh_ups_buf[(size - 1) * size + x];
 348              		.loc 1 1133 62 discriminator 1 view .LVU121
 349 011e 36F81000 		ldrh	r0, [r6, r0, lsl #1]
 350              	.LVL41:
1133:lvgl/src/lv_draw/lv_draw_rect.c ****             else bottom_val = sh_ups_buf[(size - 1) * size + x];
ARM GAS  D:\Temp\ccGEpo4V.s 			page 28


 351              		.loc 1 1133 62 discriminator 1 view .LVU122
 352 0122 E2E7     		b	.L20
 353              	.LVL42:
 354              	.L34:
1133:lvgl/src/lv_draw/lv_draw_rect.c ****             else bottom_val = sh_ups_buf[(size - 1) * size + x];
 355              		.loc 1 1133 62 discriminator 1 view .LVU123
 356              	.LBE212:
1136:lvgl/src/lv_draw/lv_draw_rect.c ****         }
1137:lvgl/src/lv_draw/lv_draw_rect.c **** 
1138:lvgl/src/lv_draw/lv_draw_rect.c ****         /*Write back the result into `sh_ups_buf`*/
1139:lvgl/src/lv_draw/lv_draw_rect.c ****         sh_ups_tmp_buf = &sh_ups_buf[x];
1140:lvgl/src/lv_draw/lv_draw_rect.c ****         for(y = 0; y < size; y++, sh_ups_tmp_buf += size) {
 357              		.loc 1 1140 15 view .LVU124
 358 0124 0023     		movs	r3, #0
 359              	.LVL43:
 360              		.loc 1 1140 15 view .LVU125
 361 0126 05E0     		b	.L22
 362              	.LVL44:
 363              	.L23:
1141:lvgl/src/lv_draw/lv_draw_rect.c ****             (*sh_ups_tmp_buf) = sh_ups_blur_buf[y];
 364              		.loc 1 1141 13 is_stmt 1 discriminator 3 view .LVU126
 365              		.loc 1 1141 48 is_stmt 0 discriminator 3 view .LVU127
 366 0128 34F81320 		ldrh	r2, [r4, r3, lsl #1]
 367              		.loc 1 1141 31 discriminator 3 view .LVU128
 368 012c ACF80020 		strh	r2, [ip]	@ movhi
1140:lvgl/src/lv_draw/lv_draw_rect.c ****             (*sh_ups_tmp_buf) = sh_ups_blur_buf[y];
 369              		.loc 1 1140 31 discriminator 3 view .LVU129
 370 0130 0133     		adds	r3, r3, #1
 371              	.LVL45:
1140:lvgl/src/lv_draw/lv_draw_rect.c ****             (*sh_ups_tmp_buf) = sh_ups_blur_buf[y];
 372              		.loc 1 1140 50 discriminator 3 view .LVU130
 373 0132 AC44     		add	ip, ip, r5
 374              	.LVL46:
 375              	.L22:
1140:lvgl/src/lv_draw/lv_draw_rect.c ****             (*sh_ups_tmp_buf) = sh_ups_blur_buf[y];
 376              		.loc 1 1140 9 discriminator 1 view .LVU131
 377 0134 9942     		cmp	r1, r3
 378 0136 F7DC     		bgt	.L23
 379              	.LBE210:
1119:lvgl/src/lv_draw/lv_draw_rect.c ****         sh_ups_tmp_buf = &sh_ups_buf[x];
 380              		.loc 1 1119 27 discriminator 2 view .LVU132
 381 0138 0AF1010A 		add	r10, r10, #1
 382              	.LVL47:
 383              	.L14:
1119:lvgl/src/lv_draw/lv_draw_rect.c ****         sh_ups_tmp_buf = &sh_ups_buf[x];
 384              		.loc 1 1119 5 discriminator 1 view .LVU133
 385 013c 5145     		cmp	r1, r10
 386 013e 08DD     		ble	.L36
 387              	.LBB213:
1120:lvgl/src/lv_draw/lv_draw_rect.c ****         int32_t v = sh_ups_tmp_buf[0] * sw;
 388              		.loc 1 1120 9 is_stmt 1 view .LVU134
1120:lvgl/src/lv_draw/lv_draw_rect.c ****         int32_t v = sh_ups_tmp_buf[0] * sw;
 389              		.loc 1 1120 24 is_stmt 0 view .LVU135
 390 0140 06EB4A0C 		add	ip, r6, r10, lsl #1
 391              	.LVL48:
1121:lvgl/src/lv_draw/lv_draw_rect.c ****         for(y = 0; y < size ; y++, sh_ups_tmp_buf += size) {
 392              		.loc 1 1121 9 is_stmt 1 view .LVU136
ARM GAS  D:\Temp\ccGEpo4V.s 			page 29


1121:lvgl/src/lv_draw/lv_draw_rect.c ****         for(y = 0; y < size ; y++, sh_ups_tmp_buf += size) {
 393              		.loc 1 1121 35 is_stmt 0 view .LVU137
 394 0144 36F81A20 		ldrh	r2, [r6, r10, lsl #1]
1121:lvgl/src/lv_draw/lv_draw_rect.c ****         for(y = 0; y < size ; y++, sh_ups_tmp_buf += size) {
 395              		.loc 1 1121 17 view .LVU138
 396 0148 02FB0EF2 		mul	r2, r2, lr
 397              	.LVL49:
1122:lvgl/src/lv_draw/lv_draw_rect.c ****             sh_ups_blur_buf[y] = v < 0 ? 0 : (v >> SHADOW_UPSCALE_SHIFT);
 398              		.loc 1 1122 9 is_stmt 1 view .LVU139
1120:lvgl/src/lv_draw/lv_draw_rect.c ****         int32_t v = sh_ups_tmp_buf[0] * sw;
 399              		.loc 1 1120 24 is_stmt 0 view .LVU140
 400 014c E146     		mov	r9, ip
1122:lvgl/src/lv_draw/lv_draw_rect.c ****             sh_ups_blur_buf[y] = v < 0 ? 0 : (v >> SHADOW_UPSCALE_SHIFT);
 401              		.loc 1 1122 15 view .LVU141
 402 014e 0023     		movs	r3, #0
1122:lvgl/src/lv_draw/lv_draw_rect.c ****             sh_ups_blur_buf[y] = v < 0 ? 0 : (v >> SHADOW_UPSCALE_SHIFT);
 403              		.loc 1 1122 9 view .LVU142
 404 0150 CEE7     		b	.L15
 405              	.LVL50:
 406              	.L36:
1122:lvgl/src/lv_draw/lv_draw_rect.c ****             sh_ups_blur_buf[y] = v < 0 ? 0 : (v >> SHADOW_UPSCALE_SHIFT);
 407              		.loc 1 1122 9 view .LVU143
 408              	.LBE213:
1142:lvgl/src/lv_draw/lv_draw_rect.c ****         }
1143:lvgl/src/lv_draw/lv_draw_rect.c ****     }
1144:lvgl/src/lv_draw/lv_draw_rect.c **** 
1145:lvgl/src/lv_draw/lv_draw_rect.c ****     _lv_mem_buf_release(sh_ups_blur_buf);
 409              		.loc 1 1145 5 is_stmt 1 view .LVU144
 410 0152 2046     		mov	r0, r4
 411 0154 FFF7FEFF 		bl	_lv_mem_buf_release
 412              	.LVL51:
1146:lvgl/src/lv_draw/lv_draw_rect.c **** }
 413              		.loc 1 1146 1 is_stmt 0 view .LVU145
 414 0158 05B0     		add	sp, sp, #20
 415              	.LCFI2:
 416              		.cfi_def_cfa_offset 36
 417              		@ sp needed
 418 015a BDE8F08F 		pop	{r4, r5, r6, r7, r8, r9, r10, fp, pc}
 419              		.loc 1 1146 1 view .LVU146
 420              		.cfi_endproc
 421              	.LFE466:
 423              		.section	.text.shadow_draw_corner_buf,"ax",%progbits
 424              		.align	1
 425              		.syntax unified
 426              		.thumb
 427              		.thumb_func
 428              		.fpu fpv4-sp-d16
 430              	shadow_draw_corner_buf:
 431              	.LVL52:
 432              	.LFB465:
 995:lvgl/src/lv_draw/lv_draw_rect.c ****     int32_t sw_ori = sw;
 433              		.loc 1 995 1 is_stmt 1 view -0
 434              		.cfi_startproc
 435              		@ args = 0, pretend = 0, frame = 48
 436              		@ frame_needed = 0, uses_anonymous_args = 0
 995:lvgl/src/lv_draw/lv_draw_rect.c ****     int32_t sw_ori = sw;
 437              		.loc 1 995 1 is_stmt 0 view .LVU148
ARM GAS  D:\Temp\ccGEpo4V.s 			page 30


 438 0000 2DE9F04F 		push	{r4, r5, r6, r7, r8, r9, r10, fp, lr}
 439              	.LCFI3:
 440              		.cfi_def_cfa_offset 36
 441              		.cfi_offset 4, -36
 442              		.cfi_offset 5, -32
 443              		.cfi_offset 6, -28
 444              		.cfi_offset 7, -24
 445              		.cfi_offset 8, -20
 446              		.cfi_offset 9, -16
 447              		.cfi_offset 10, -12
 448              		.cfi_offset 11, -8
 449              		.cfi_offset 14, -4
 450 0004 8FB0     		sub	sp, sp, #60
 451              	.LCFI4:
 452              		.cfi_def_cfa_offset 96
 453 0006 8946     		mov	r9, r1
 454 0008 9346     		mov	fp, r2
 455 000a 1A46     		mov	r2, r3
 456              	.LVL53:
 996:lvgl/src/lv_draw/lv_draw_rect.c ****     int32_t size = sw_ori  + r;
 457              		.loc 1 996 5 is_stmt 1 view .LVU149
 997:lvgl/src/lv_draw/lv_draw_rect.c **** 
 458              		.loc 1 997 5 view .LVU150
 997:lvgl/src/lv_draw/lv_draw_rect.c **** 
 459              		.loc 1 997 13 is_stmt 0 view .LVU151
 460 000c 03EB0B05 		add	r5, r3, fp
 461              	.LVL54:
 999:lvgl/src/lv_draw/lv_draw_rect.c ****     lv_area_copy(&sh_area, coords);
 462              		.loc 1 999 5 is_stmt 1 view .LVU152
1000:lvgl/src/lv_draw/lv_draw_rect.c ****     sh_area.x2 = sw / 2 + r - 1  - ((sw & 1) ? 0 : 1);
 463              		.loc 1 1000 5 view .LVU153
 464              	.LBB214:
 465              	.LBI214:
 466              		.file 2 "lvgl/src/lv_draw/../lv_core/../lv_font/../lv_misc/lv_area.h"
   1:lvgl/src/lv_draw/../lv_core/../lv_font/../lv_misc/lv_area.h **** /**
   2:lvgl/src/lv_draw/../lv_core/../lv_font/../lv_misc/lv_area.h ****  * @file lv_area.h
   3:lvgl/src/lv_draw/../lv_core/../lv_font/../lv_misc/lv_area.h ****  *
   4:lvgl/src/lv_draw/../lv_core/../lv_font/../lv_misc/lv_area.h ****  */
   5:lvgl/src/lv_draw/../lv_core/../lv_font/../lv_misc/lv_area.h **** 
   6:lvgl/src/lv_draw/../lv_core/../lv_font/../lv_misc/lv_area.h **** #ifndef LV_AREA_H
   7:lvgl/src/lv_draw/../lv_core/../lv_font/../lv_misc/lv_area.h **** #define LV_AREA_H
   8:lvgl/src/lv_draw/../lv_core/../lv_font/../lv_misc/lv_area.h **** 
   9:lvgl/src/lv_draw/../lv_core/../lv_font/../lv_misc/lv_area.h **** #ifdef __cplusplus
  10:lvgl/src/lv_draw/../lv_core/../lv_font/../lv_misc/lv_area.h **** extern "C" {
  11:lvgl/src/lv_draw/../lv_core/../lv_font/../lv_misc/lv_area.h **** #endif
  12:lvgl/src/lv_draw/../lv_core/../lv_font/../lv_misc/lv_area.h **** 
  13:lvgl/src/lv_draw/../lv_core/../lv_font/../lv_misc/lv_area.h **** /*********************
  14:lvgl/src/lv_draw/../lv_core/../lv_font/../lv_misc/lv_area.h ****  *      INCLUDES
  15:lvgl/src/lv_draw/../lv_core/../lv_font/../lv_misc/lv_area.h ****  *********************/
  16:lvgl/src/lv_draw/../lv_core/../lv_font/../lv_misc/lv_area.h **** #include "../lv_conf_internal.h"
  17:lvgl/src/lv_draw/../lv_core/../lv_font/../lv_misc/lv_area.h **** #include <string.h>
  18:lvgl/src/lv_draw/../lv_core/../lv_font/../lv_misc/lv_area.h **** #include <stdbool.h>
  19:lvgl/src/lv_draw/../lv_core/../lv_font/../lv_misc/lv_area.h **** #include <stdint.h>
  20:lvgl/src/lv_draw/../lv_core/../lv_font/../lv_misc/lv_area.h **** #include "lv_mem.h"
  21:lvgl/src/lv_draw/../lv_core/../lv_font/../lv_misc/lv_area.h **** 
  22:lvgl/src/lv_draw/../lv_core/../lv_font/../lv_misc/lv_area.h **** /*********************
  23:lvgl/src/lv_draw/../lv_core/../lv_font/../lv_misc/lv_area.h ****  *      DEFINES
ARM GAS  D:\Temp\ccGEpo4V.s 			page 31


  24:lvgl/src/lv_draw/../lv_core/../lv_font/../lv_misc/lv_area.h ****  *********************/
  25:lvgl/src/lv_draw/../lv_core/../lv_font/../lv_misc/lv_area.h **** /*To avoid overflow don't let the max ranges (reduce with 1000) */
  26:lvgl/src/lv_draw/../lv_core/../lv_font/../lv_misc/lv_area.h **** #define LV_COORD_MAX ((lv_coord_t)((uint32_t)((uint32_t)1 << (8 * sizeof(lv_coord_t) - 1)) - 1000))
  27:lvgl/src/lv_draw/../lv_core/../lv_font/../lv_misc/lv_area.h **** #define LV_COORD_MIN (-LV_COORD_MAX)
  28:lvgl/src/lv_draw/../lv_core/../lv_font/../lv_misc/lv_area.h **** 
  29:lvgl/src/lv_draw/../lv_core/../lv_font/../lv_misc/lv_area.h **** LV_EXPORT_CONST_INT(LV_COORD_MAX);
  30:lvgl/src/lv_draw/../lv_core/../lv_font/../lv_misc/lv_area.h **** LV_EXPORT_CONST_INT(LV_COORD_MIN);
  31:lvgl/src/lv_draw/../lv_core/../lv_font/../lv_misc/lv_area.h **** 
  32:lvgl/src/lv_draw/../lv_core/../lv_font/../lv_misc/lv_area.h **** /**********************
  33:lvgl/src/lv_draw/../lv_core/../lv_font/../lv_misc/lv_area.h ****  *      TYPEDEFS
  34:lvgl/src/lv_draw/../lv_core/../lv_font/../lv_misc/lv_area.h ****  **********************/
  35:lvgl/src/lv_draw/../lv_core/../lv_font/../lv_misc/lv_area.h **** 
  36:lvgl/src/lv_draw/../lv_core/../lv_font/../lv_misc/lv_area.h **** /**
  37:lvgl/src/lv_draw/../lv_core/../lv_font/../lv_misc/lv_area.h ****  * Represents a point on the screen.
  38:lvgl/src/lv_draw/../lv_core/../lv_font/../lv_misc/lv_area.h ****  */
  39:lvgl/src/lv_draw/../lv_core/../lv_font/../lv_misc/lv_area.h **** typedef struct {
  40:lvgl/src/lv_draw/../lv_core/../lv_font/../lv_misc/lv_area.h ****     lv_coord_t x;
  41:lvgl/src/lv_draw/../lv_core/../lv_font/../lv_misc/lv_area.h ****     lv_coord_t y;
  42:lvgl/src/lv_draw/../lv_core/../lv_font/../lv_misc/lv_area.h **** } lv_point_t;
  43:lvgl/src/lv_draw/../lv_core/../lv_font/../lv_misc/lv_area.h **** 
  44:lvgl/src/lv_draw/../lv_core/../lv_font/../lv_misc/lv_area.h **** /** Represents an area of the screen. */
  45:lvgl/src/lv_draw/../lv_core/../lv_font/../lv_misc/lv_area.h **** typedef struct {
  46:lvgl/src/lv_draw/../lv_core/../lv_font/../lv_misc/lv_area.h ****     lv_coord_t x1;
  47:lvgl/src/lv_draw/../lv_core/../lv_font/../lv_misc/lv_area.h ****     lv_coord_t y1;
  48:lvgl/src/lv_draw/../lv_core/../lv_font/../lv_misc/lv_area.h ****     lv_coord_t x2;
  49:lvgl/src/lv_draw/../lv_core/../lv_font/../lv_misc/lv_area.h ****     lv_coord_t y2;
  50:lvgl/src/lv_draw/../lv_core/../lv_font/../lv_misc/lv_area.h **** } lv_area_t;
  51:lvgl/src/lv_draw/../lv_core/../lv_font/../lv_misc/lv_area.h **** 
  52:lvgl/src/lv_draw/../lv_core/../lv_font/../lv_misc/lv_area.h **** /** Alignments */
  53:lvgl/src/lv_draw/../lv_core/../lv_font/../lv_misc/lv_area.h **** enum {
  54:lvgl/src/lv_draw/../lv_core/../lv_font/../lv_misc/lv_area.h ****     LV_ALIGN_CENTER = 0,
  55:lvgl/src/lv_draw/../lv_core/../lv_font/../lv_misc/lv_area.h ****     LV_ALIGN_IN_TOP_LEFT,
  56:lvgl/src/lv_draw/../lv_core/../lv_font/../lv_misc/lv_area.h ****     LV_ALIGN_IN_TOP_MID,
  57:lvgl/src/lv_draw/../lv_core/../lv_font/../lv_misc/lv_area.h ****     LV_ALIGN_IN_TOP_RIGHT,
  58:lvgl/src/lv_draw/../lv_core/../lv_font/../lv_misc/lv_area.h ****     LV_ALIGN_IN_BOTTOM_LEFT,
  59:lvgl/src/lv_draw/../lv_core/../lv_font/../lv_misc/lv_area.h ****     LV_ALIGN_IN_BOTTOM_MID,
  60:lvgl/src/lv_draw/../lv_core/../lv_font/../lv_misc/lv_area.h ****     LV_ALIGN_IN_BOTTOM_RIGHT,
  61:lvgl/src/lv_draw/../lv_core/../lv_font/../lv_misc/lv_area.h ****     LV_ALIGN_IN_LEFT_MID,
  62:lvgl/src/lv_draw/../lv_core/../lv_font/../lv_misc/lv_area.h ****     LV_ALIGN_IN_RIGHT_MID,
  63:lvgl/src/lv_draw/../lv_core/../lv_font/../lv_misc/lv_area.h ****     LV_ALIGN_OUT_TOP_LEFT,
  64:lvgl/src/lv_draw/../lv_core/../lv_font/../lv_misc/lv_area.h ****     LV_ALIGN_OUT_TOP_MID,
  65:lvgl/src/lv_draw/../lv_core/../lv_font/../lv_misc/lv_area.h ****     LV_ALIGN_OUT_TOP_RIGHT,
  66:lvgl/src/lv_draw/../lv_core/../lv_font/../lv_misc/lv_area.h ****     LV_ALIGN_OUT_BOTTOM_LEFT,
  67:lvgl/src/lv_draw/../lv_core/../lv_font/../lv_misc/lv_area.h ****     LV_ALIGN_OUT_BOTTOM_MID,
  68:lvgl/src/lv_draw/../lv_core/../lv_font/../lv_misc/lv_area.h ****     LV_ALIGN_OUT_BOTTOM_RIGHT,
  69:lvgl/src/lv_draw/../lv_core/../lv_font/../lv_misc/lv_area.h ****     LV_ALIGN_OUT_LEFT_TOP,
  70:lvgl/src/lv_draw/../lv_core/../lv_font/../lv_misc/lv_area.h ****     LV_ALIGN_OUT_LEFT_MID,
  71:lvgl/src/lv_draw/../lv_core/../lv_font/../lv_misc/lv_area.h ****     LV_ALIGN_OUT_LEFT_BOTTOM,
  72:lvgl/src/lv_draw/../lv_core/../lv_font/../lv_misc/lv_area.h ****     LV_ALIGN_OUT_RIGHT_TOP,
  73:lvgl/src/lv_draw/../lv_core/../lv_font/../lv_misc/lv_area.h ****     LV_ALIGN_OUT_RIGHT_MID,
  74:lvgl/src/lv_draw/../lv_core/../lv_font/../lv_misc/lv_area.h ****     LV_ALIGN_OUT_RIGHT_BOTTOM,
  75:lvgl/src/lv_draw/../lv_core/../lv_font/../lv_misc/lv_area.h **** };
  76:lvgl/src/lv_draw/../lv_core/../lv_font/../lv_misc/lv_area.h **** typedef uint8_t lv_align_t;
  77:lvgl/src/lv_draw/../lv_core/../lv_font/../lv_misc/lv_area.h **** 
  78:lvgl/src/lv_draw/../lv_core/../lv_font/../lv_misc/lv_area.h **** /**********************
  79:lvgl/src/lv_draw/../lv_core/../lv_font/../lv_misc/lv_area.h ****  * GLOBAL PROTOTYPES
  80:lvgl/src/lv_draw/../lv_core/../lv_font/../lv_misc/lv_area.h ****  **********************/
ARM GAS  D:\Temp\ccGEpo4V.s 			page 32


  81:lvgl/src/lv_draw/../lv_core/../lv_font/../lv_misc/lv_area.h **** 
  82:lvgl/src/lv_draw/../lv_core/../lv_font/../lv_misc/lv_area.h **** /**
  83:lvgl/src/lv_draw/../lv_core/../lv_font/../lv_misc/lv_area.h ****  * Initialize an area
  84:lvgl/src/lv_draw/../lv_core/../lv_font/../lv_misc/lv_area.h ****  * @param area_p pointer to an area
  85:lvgl/src/lv_draw/../lv_core/../lv_font/../lv_misc/lv_area.h ****  * @param x1 left coordinate of the area
  86:lvgl/src/lv_draw/../lv_core/../lv_font/../lv_misc/lv_area.h ****  * @param y1 top coordinate of the area
  87:lvgl/src/lv_draw/../lv_core/../lv_font/../lv_misc/lv_area.h ****  * @param x2 right coordinate of the area
  88:lvgl/src/lv_draw/../lv_core/../lv_font/../lv_misc/lv_area.h ****  * @param y2 bottom coordinate of the area
  89:lvgl/src/lv_draw/../lv_core/../lv_font/../lv_misc/lv_area.h ****  */
  90:lvgl/src/lv_draw/../lv_core/../lv_font/../lv_misc/lv_area.h **** void lv_area_set(lv_area_t * area_p, lv_coord_t x1, lv_coord_t y1, lv_coord_t x2, lv_coord_t y2);
  91:lvgl/src/lv_draw/../lv_core/../lv_font/../lv_misc/lv_area.h **** 
  92:lvgl/src/lv_draw/../lv_core/../lv_font/../lv_misc/lv_area.h **** /**
  93:lvgl/src/lv_draw/../lv_core/../lv_font/../lv_misc/lv_area.h ****  * Copy an area
  94:lvgl/src/lv_draw/../lv_core/../lv_font/../lv_misc/lv_area.h ****  * @param dest pointer to the destination area
  95:lvgl/src/lv_draw/../lv_core/../lv_font/../lv_misc/lv_area.h ****  * @param src pointer to the source area
  96:lvgl/src/lv_draw/../lv_core/../lv_font/../lv_misc/lv_area.h ****  */
  97:lvgl/src/lv_draw/../lv_core/../lv_font/../lv_misc/lv_area.h **** inline static void lv_area_copy(lv_area_t * dest, const lv_area_t * src)
 467              		.loc 2 97 20 view .LVU154
 468              	.LBE214:
  98:lvgl/src/lv_draw/../lv_core/../lv_font/../lv_misc/lv_area.h **** {
  99:lvgl/src/lv_draw/../lv_core/../lv_font/../lv_misc/lv_area.h ****     _lv_memcpy_small(dest, src, sizeof(lv_area_t));
 469              		.loc 2 99 5 view .LVU155
 470              	.LBB219:
 471              	.LBB215:
 472              	.LBI215:
 473              		.file 3 "lvgl/src/lv_draw/../lv_core/../lv_font/../lv_misc/lv_mem.h"
   1:lvgl/src/lv_draw/../lv_core/../lv_font/../lv_misc/lv_mem.h **** /**
   2:lvgl/src/lv_draw/../lv_core/../lv_font/../lv_misc/lv_mem.h ****  * @file lv_mem.h
   3:lvgl/src/lv_draw/../lv_core/../lv_font/../lv_misc/lv_mem.h ****  *
   4:lvgl/src/lv_draw/../lv_core/../lv_font/../lv_misc/lv_mem.h ****  */
   5:lvgl/src/lv_draw/../lv_core/../lv_font/../lv_misc/lv_mem.h **** 
   6:lvgl/src/lv_draw/../lv_core/../lv_font/../lv_misc/lv_mem.h **** #ifndef LV_MEM_H
   7:lvgl/src/lv_draw/../lv_core/../lv_font/../lv_misc/lv_mem.h **** #define LV_MEM_H
   8:lvgl/src/lv_draw/../lv_core/../lv_font/../lv_misc/lv_mem.h **** 
   9:lvgl/src/lv_draw/../lv_core/../lv_font/../lv_misc/lv_mem.h **** #ifdef __cplusplus
  10:lvgl/src/lv_draw/../lv_core/../lv_font/../lv_misc/lv_mem.h **** extern "C" {
  11:lvgl/src/lv_draw/../lv_core/../lv_font/../lv_misc/lv_mem.h **** #endif
  12:lvgl/src/lv_draw/../lv_core/../lv_font/../lv_misc/lv_mem.h **** 
  13:lvgl/src/lv_draw/../lv_core/../lv_font/../lv_misc/lv_mem.h **** /*********************
  14:lvgl/src/lv_draw/../lv_core/../lv_font/../lv_misc/lv_mem.h ****  *      INCLUDES
  15:lvgl/src/lv_draw/../lv_core/../lv_font/../lv_misc/lv_mem.h ****  *********************/
  16:lvgl/src/lv_draw/../lv_core/../lv_font/../lv_misc/lv_mem.h **** #include "../lv_conf_internal.h"
  17:lvgl/src/lv_draw/../lv_core/../lv_font/../lv_misc/lv_mem.h **** 
  18:lvgl/src/lv_draw/../lv_core/../lv_font/../lv_misc/lv_mem.h **** #include <stdint.h>
  19:lvgl/src/lv_draw/../lv_core/../lv_font/../lv_misc/lv_mem.h **** #include <stddef.h>
  20:lvgl/src/lv_draw/../lv_core/../lv_font/../lv_misc/lv_mem.h **** #include "lv_log.h"
  21:lvgl/src/lv_draw/../lv_core/../lv_font/../lv_misc/lv_mem.h **** #include "lv_types.h"
  22:lvgl/src/lv_draw/../lv_core/../lv_font/../lv_misc/lv_mem.h **** 
  23:lvgl/src/lv_draw/../lv_core/../lv_font/../lv_misc/lv_mem.h **** #if LV_MEMCPY_MEMSET_STD
  24:lvgl/src/lv_draw/../lv_core/../lv_font/../lv_misc/lv_mem.h **** #include <string.h>
  25:lvgl/src/lv_draw/../lv_core/../lv_font/../lv_misc/lv_mem.h **** #endif
  26:lvgl/src/lv_draw/../lv_core/../lv_font/../lv_misc/lv_mem.h **** 
  27:lvgl/src/lv_draw/../lv_core/../lv_font/../lv_misc/lv_mem.h **** /*********************
  28:lvgl/src/lv_draw/../lv_core/../lv_font/../lv_misc/lv_mem.h ****  *      DEFINES
  29:lvgl/src/lv_draw/../lv_core/../lv_font/../lv_misc/lv_mem.h ****  *********************/
  30:lvgl/src/lv_draw/../lv_core/../lv_font/../lv_misc/lv_mem.h **** 
  31:lvgl/src/lv_draw/../lv_core/../lv_font/../lv_misc/lv_mem.h **** #ifndef LV_MEM_BUF_MAX_NUM
ARM GAS  D:\Temp\ccGEpo4V.s 			page 33


  32:lvgl/src/lv_draw/../lv_core/../lv_font/../lv_misc/lv_mem.h **** #define LV_MEM_BUF_MAX_NUM    16
  33:lvgl/src/lv_draw/../lv_core/../lv_font/../lv_misc/lv_mem.h **** #endif
  34:lvgl/src/lv_draw/../lv_core/../lv_font/../lv_misc/lv_mem.h **** 
  35:lvgl/src/lv_draw/../lv_core/../lv_font/../lv_misc/lv_mem.h **** /**********************
  36:lvgl/src/lv_draw/../lv_core/../lv_font/../lv_misc/lv_mem.h ****  *      TYPEDEFS
  37:lvgl/src/lv_draw/../lv_core/../lv_font/../lv_misc/lv_mem.h ****  **********************/
  38:lvgl/src/lv_draw/../lv_core/../lv_font/../lv_misc/lv_mem.h **** 
  39:lvgl/src/lv_draw/../lv_core/../lv_font/../lv_misc/lv_mem.h **** /**
  40:lvgl/src/lv_draw/../lv_core/../lv_font/../lv_misc/lv_mem.h ****  * Heap information structure.
  41:lvgl/src/lv_draw/../lv_core/../lv_font/../lv_misc/lv_mem.h ****  */
  42:lvgl/src/lv_draw/../lv_core/../lv_font/../lv_misc/lv_mem.h **** typedef struct {
  43:lvgl/src/lv_draw/../lv_core/../lv_font/../lv_misc/lv_mem.h ****     uint32_t total_size; /**< Total heap size */
  44:lvgl/src/lv_draw/../lv_core/../lv_font/../lv_misc/lv_mem.h ****     uint32_t free_cnt;
  45:lvgl/src/lv_draw/../lv_core/../lv_font/../lv_misc/lv_mem.h ****     uint32_t free_size; /**< Size of available memory */
  46:lvgl/src/lv_draw/../lv_core/../lv_font/../lv_misc/lv_mem.h ****     uint32_t free_biggest_size;
  47:lvgl/src/lv_draw/../lv_core/../lv_font/../lv_misc/lv_mem.h ****     uint32_t used_cnt;
  48:lvgl/src/lv_draw/../lv_core/../lv_font/../lv_misc/lv_mem.h ****     uint32_t max_used; /**< Max size of Heap memory used */
  49:lvgl/src/lv_draw/../lv_core/../lv_font/../lv_misc/lv_mem.h ****     uint8_t used_pct; /**< Percentage used */
  50:lvgl/src/lv_draw/../lv_core/../lv_font/../lv_misc/lv_mem.h ****     uint8_t frag_pct; /**< Amount of fragmentation */
  51:lvgl/src/lv_draw/../lv_core/../lv_font/../lv_misc/lv_mem.h **** } lv_mem_monitor_t;
  52:lvgl/src/lv_draw/../lv_core/../lv_font/../lv_misc/lv_mem.h **** 
  53:lvgl/src/lv_draw/../lv_core/../lv_font/../lv_misc/lv_mem.h **** typedef struct {
  54:lvgl/src/lv_draw/../lv_core/../lv_font/../lv_misc/lv_mem.h ****     void * p;
  55:lvgl/src/lv_draw/../lv_core/../lv_font/../lv_misc/lv_mem.h ****     uint16_t size;
  56:lvgl/src/lv_draw/../lv_core/../lv_font/../lv_misc/lv_mem.h ****     uint8_t used    : 1;
  57:lvgl/src/lv_draw/../lv_core/../lv_font/../lv_misc/lv_mem.h **** } lv_mem_buf_t;
  58:lvgl/src/lv_draw/../lv_core/../lv_font/../lv_misc/lv_mem.h **** 
  59:lvgl/src/lv_draw/../lv_core/../lv_font/../lv_misc/lv_mem.h **** typedef lv_mem_buf_t lv_mem_buf_arr_t[LV_MEM_BUF_MAX_NUM];
  60:lvgl/src/lv_draw/../lv_core/../lv_font/../lv_misc/lv_mem.h **** extern lv_mem_buf_arr_t _lv_mem_buf;
  61:lvgl/src/lv_draw/../lv_core/../lv_font/../lv_misc/lv_mem.h **** 
  62:lvgl/src/lv_draw/../lv_core/../lv_font/../lv_misc/lv_mem.h **** /**********************
  63:lvgl/src/lv_draw/../lv_core/../lv_font/../lv_misc/lv_mem.h ****  * GLOBAL PROTOTYPES
  64:lvgl/src/lv_draw/../lv_core/../lv_font/../lv_misc/lv_mem.h ****  **********************/
  65:lvgl/src/lv_draw/../lv_core/../lv_font/../lv_misc/lv_mem.h **** 
  66:lvgl/src/lv_draw/../lv_core/../lv_font/../lv_misc/lv_mem.h **** /**
  67:lvgl/src/lv_draw/../lv_core/../lv_font/../lv_misc/lv_mem.h ****  * Initialize the dyn_mem module (work memory and other variables)
  68:lvgl/src/lv_draw/../lv_core/../lv_font/../lv_misc/lv_mem.h ****  */
  69:lvgl/src/lv_draw/../lv_core/../lv_font/../lv_misc/lv_mem.h **** void _lv_mem_init(void);
  70:lvgl/src/lv_draw/../lv_core/../lv_font/../lv_misc/lv_mem.h **** 
  71:lvgl/src/lv_draw/../lv_core/../lv_font/../lv_misc/lv_mem.h **** /**
  72:lvgl/src/lv_draw/../lv_core/../lv_font/../lv_misc/lv_mem.h ****  * Clean up the memory buffer which frees all the allocated memories.
  73:lvgl/src/lv_draw/../lv_core/../lv_font/../lv_misc/lv_mem.h ****  * @note It work only if `LV_MEM_CUSTOM == 0`
  74:lvgl/src/lv_draw/../lv_core/../lv_font/../lv_misc/lv_mem.h ****  */
  75:lvgl/src/lv_draw/../lv_core/../lv_font/../lv_misc/lv_mem.h **** void _lv_mem_deinit(void);
  76:lvgl/src/lv_draw/../lv_core/../lv_font/../lv_misc/lv_mem.h **** 
  77:lvgl/src/lv_draw/../lv_core/../lv_font/../lv_misc/lv_mem.h **** /**
  78:lvgl/src/lv_draw/../lv_core/../lv_font/../lv_misc/lv_mem.h ****  * Allocate a memory dynamically
  79:lvgl/src/lv_draw/../lv_core/../lv_font/../lv_misc/lv_mem.h ****  * @param size size of the memory to allocate in bytes
  80:lvgl/src/lv_draw/../lv_core/../lv_font/../lv_misc/lv_mem.h ****  * @return pointer to the allocated memory
  81:lvgl/src/lv_draw/../lv_core/../lv_font/../lv_misc/lv_mem.h ****  */
  82:lvgl/src/lv_draw/../lv_core/../lv_font/../lv_misc/lv_mem.h **** void * lv_mem_alloc(size_t size);
  83:lvgl/src/lv_draw/../lv_core/../lv_font/../lv_misc/lv_mem.h **** 
  84:lvgl/src/lv_draw/../lv_core/../lv_font/../lv_misc/lv_mem.h **** /**
  85:lvgl/src/lv_draw/../lv_core/../lv_font/../lv_misc/lv_mem.h ****  * Free an allocated data
  86:lvgl/src/lv_draw/../lv_core/../lv_font/../lv_misc/lv_mem.h ****  * @param data pointer to an allocated memory
  87:lvgl/src/lv_draw/../lv_core/../lv_font/../lv_misc/lv_mem.h ****  */
  88:lvgl/src/lv_draw/../lv_core/../lv_font/../lv_misc/lv_mem.h **** void lv_mem_free(const void * data);
ARM GAS  D:\Temp\ccGEpo4V.s 			page 34


  89:lvgl/src/lv_draw/../lv_core/../lv_font/../lv_misc/lv_mem.h **** 
  90:lvgl/src/lv_draw/../lv_core/../lv_font/../lv_misc/lv_mem.h **** /**
  91:lvgl/src/lv_draw/../lv_core/../lv_font/../lv_misc/lv_mem.h ****  * Reallocate a memory with a new size. The old content will be kept.
  92:lvgl/src/lv_draw/../lv_core/../lv_font/../lv_misc/lv_mem.h ****  * @param data pointer to an allocated memory.
  93:lvgl/src/lv_draw/../lv_core/../lv_font/../lv_misc/lv_mem.h ****  * Its content will be copied to the new memory block and freed
  94:lvgl/src/lv_draw/../lv_core/../lv_font/../lv_misc/lv_mem.h ****  * @param new_size the desired new size in byte
  95:lvgl/src/lv_draw/../lv_core/../lv_font/../lv_misc/lv_mem.h ****  * @return pointer to the new memory
  96:lvgl/src/lv_draw/../lv_core/../lv_font/../lv_misc/lv_mem.h ****  */
  97:lvgl/src/lv_draw/../lv_core/../lv_font/../lv_misc/lv_mem.h **** void * lv_mem_realloc(void * data_p, size_t new_size);
  98:lvgl/src/lv_draw/../lv_core/../lv_font/../lv_misc/lv_mem.h **** 
  99:lvgl/src/lv_draw/../lv_core/../lv_font/../lv_misc/lv_mem.h **** /**
 100:lvgl/src/lv_draw/../lv_core/../lv_font/../lv_misc/lv_mem.h ****  * Join the adjacent free memory blocks
 101:lvgl/src/lv_draw/../lv_core/../lv_font/../lv_misc/lv_mem.h ****  */
 102:lvgl/src/lv_draw/../lv_core/../lv_font/../lv_misc/lv_mem.h **** void lv_mem_defrag(void);
 103:lvgl/src/lv_draw/../lv_core/../lv_font/../lv_misc/lv_mem.h **** 
 104:lvgl/src/lv_draw/../lv_core/../lv_font/../lv_misc/lv_mem.h **** /**
 105:lvgl/src/lv_draw/../lv_core/../lv_font/../lv_misc/lv_mem.h ****  *
 106:lvgl/src/lv_draw/../lv_core/../lv_font/../lv_misc/lv_mem.h ****  * @return
 107:lvgl/src/lv_draw/../lv_core/../lv_font/../lv_misc/lv_mem.h ****  */
 108:lvgl/src/lv_draw/../lv_core/../lv_font/../lv_misc/lv_mem.h **** lv_res_t lv_mem_test(void);
 109:lvgl/src/lv_draw/../lv_core/../lv_font/../lv_misc/lv_mem.h **** 
 110:lvgl/src/lv_draw/../lv_core/../lv_font/../lv_misc/lv_mem.h **** /**
 111:lvgl/src/lv_draw/../lv_core/../lv_font/../lv_misc/lv_mem.h ****  * Give information about the work memory of dynamic allocation
 112:lvgl/src/lv_draw/../lv_core/../lv_font/../lv_misc/lv_mem.h ****  * @param mon_p pointer to a dm_mon_p variable,
 113:lvgl/src/lv_draw/../lv_core/../lv_font/../lv_misc/lv_mem.h ****  *              the result of the analysis will be stored here
 114:lvgl/src/lv_draw/../lv_core/../lv_font/../lv_misc/lv_mem.h ****  */
 115:lvgl/src/lv_draw/../lv_core/../lv_font/../lv_misc/lv_mem.h **** void lv_mem_monitor(lv_mem_monitor_t * mon_p);
 116:lvgl/src/lv_draw/../lv_core/../lv_font/../lv_misc/lv_mem.h **** 
 117:lvgl/src/lv_draw/../lv_core/../lv_font/../lv_misc/lv_mem.h **** /**
 118:lvgl/src/lv_draw/../lv_core/../lv_font/../lv_misc/lv_mem.h ****  * Give the size of an allocated memory
 119:lvgl/src/lv_draw/../lv_core/../lv_font/../lv_misc/lv_mem.h ****  * @param data pointer to an allocated memory
 120:lvgl/src/lv_draw/../lv_core/../lv_font/../lv_misc/lv_mem.h ****  * @return the size of data memory in bytes
 121:lvgl/src/lv_draw/../lv_core/../lv_font/../lv_misc/lv_mem.h ****  */
 122:lvgl/src/lv_draw/../lv_core/../lv_font/../lv_misc/lv_mem.h **** uint32_t _lv_mem_get_size(const void * data);
 123:lvgl/src/lv_draw/../lv_core/../lv_font/../lv_misc/lv_mem.h **** 
 124:lvgl/src/lv_draw/../lv_core/../lv_font/../lv_misc/lv_mem.h **** /**
 125:lvgl/src/lv_draw/../lv_core/../lv_font/../lv_misc/lv_mem.h ****  * Get a temporal buffer with the given size.
 126:lvgl/src/lv_draw/../lv_core/../lv_font/../lv_misc/lv_mem.h ****  * @param size the required size
 127:lvgl/src/lv_draw/../lv_core/../lv_font/../lv_misc/lv_mem.h ****  */
 128:lvgl/src/lv_draw/../lv_core/../lv_font/../lv_misc/lv_mem.h **** void * _lv_mem_buf_get(uint32_t size);
 129:lvgl/src/lv_draw/../lv_core/../lv_font/../lv_misc/lv_mem.h **** 
 130:lvgl/src/lv_draw/../lv_core/../lv_font/../lv_misc/lv_mem.h **** /**
 131:lvgl/src/lv_draw/../lv_core/../lv_font/../lv_misc/lv_mem.h ****  * Release a memory buffer
 132:lvgl/src/lv_draw/../lv_core/../lv_font/../lv_misc/lv_mem.h ****  * @param p buffer to release
 133:lvgl/src/lv_draw/../lv_core/../lv_font/../lv_misc/lv_mem.h ****  */
 134:lvgl/src/lv_draw/../lv_core/../lv_font/../lv_misc/lv_mem.h **** void _lv_mem_buf_release(void * p);
 135:lvgl/src/lv_draw/../lv_core/../lv_font/../lv_misc/lv_mem.h **** 
 136:lvgl/src/lv_draw/../lv_core/../lv_font/../lv_misc/lv_mem.h **** /**
 137:lvgl/src/lv_draw/../lv_core/../lv_font/../lv_misc/lv_mem.h ****  * Free all memory buffers
 138:lvgl/src/lv_draw/../lv_core/../lv_font/../lv_misc/lv_mem.h ****  */
 139:lvgl/src/lv_draw/../lv_core/../lv_font/../lv_misc/lv_mem.h **** void _lv_mem_buf_free_all(void);
 140:lvgl/src/lv_draw/../lv_core/../lv_font/../lv_misc/lv_mem.h **** 
 141:lvgl/src/lv_draw/../lv_core/../lv_font/../lv_misc/lv_mem.h **** //! @cond Doxygen_Suppress
 142:lvgl/src/lv_draw/../lv_core/../lv_font/../lv_misc/lv_mem.h **** 
 143:lvgl/src/lv_draw/../lv_core/../lv_font/../lv_misc/lv_mem.h **** #if LV_MEMCPY_MEMSET_STD
 144:lvgl/src/lv_draw/../lv_core/../lv_font/../lv_misc/lv_mem.h **** 
 145:lvgl/src/lv_draw/../lv_core/../lv_font/../lv_misc/lv_mem.h **** /**
ARM GAS  D:\Temp\ccGEpo4V.s 			page 35


 146:lvgl/src/lv_draw/../lv_core/../lv_font/../lv_misc/lv_mem.h ****  * Wrapper for the standard memcpy
 147:lvgl/src/lv_draw/../lv_core/../lv_font/../lv_misc/lv_mem.h ****  * @param dst pointer to the destination buffer
 148:lvgl/src/lv_draw/../lv_core/../lv_font/../lv_misc/lv_mem.h ****  * @param src pointer to the source buffer
 149:lvgl/src/lv_draw/../lv_core/../lv_font/../lv_misc/lv_mem.h ****  * @param len number of byte to copy
 150:lvgl/src/lv_draw/../lv_core/../lv_font/../lv_misc/lv_mem.h ****  */
 151:lvgl/src/lv_draw/../lv_core/../lv_font/../lv_misc/lv_mem.h **** static inline void * _lv_memcpy(void * dst, const void * src, size_t len)
 152:lvgl/src/lv_draw/../lv_core/../lv_font/../lv_misc/lv_mem.h **** {
 153:lvgl/src/lv_draw/../lv_core/../lv_font/../lv_misc/lv_mem.h ****     return memcpy(dst, src, len);
 154:lvgl/src/lv_draw/../lv_core/../lv_font/../lv_misc/lv_mem.h **** }
 155:lvgl/src/lv_draw/../lv_core/../lv_font/../lv_misc/lv_mem.h **** 
 156:lvgl/src/lv_draw/../lv_core/../lv_font/../lv_misc/lv_mem.h **** /**
 157:lvgl/src/lv_draw/../lv_core/../lv_font/../lv_misc/lv_mem.h ****  * Wrapper for the standard memcpy
 158:lvgl/src/lv_draw/../lv_core/../lv_font/../lv_misc/lv_mem.h ****  * @param dst pointer to the destination buffer
 159:lvgl/src/lv_draw/../lv_core/../lv_font/../lv_misc/lv_mem.h ****  * @param src pointer to the source buffer
 160:lvgl/src/lv_draw/../lv_core/../lv_font/../lv_misc/lv_mem.h ****  * @param len number of byte to copy
 161:lvgl/src/lv_draw/../lv_core/../lv_font/../lv_misc/lv_mem.h ****  */
 162:lvgl/src/lv_draw/../lv_core/../lv_font/../lv_misc/lv_mem.h **** static inline void * _lv_memcpy_small(void * dst, const void * src, size_t len)
 163:lvgl/src/lv_draw/../lv_core/../lv_font/../lv_misc/lv_mem.h **** {
 164:lvgl/src/lv_draw/../lv_core/../lv_font/../lv_misc/lv_mem.h ****     return memcpy(dst, src, len);
 165:lvgl/src/lv_draw/../lv_core/../lv_font/../lv_misc/lv_mem.h **** }
 166:lvgl/src/lv_draw/../lv_core/../lv_font/../lv_misc/lv_mem.h **** 
 167:lvgl/src/lv_draw/../lv_core/../lv_font/../lv_misc/lv_mem.h **** /**
 168:lvgl/src/lv_draw/../lv_core/../lv_font/../lv_misc/lv_mem.h ****  * Wrapper for the standard memset
 169:lvgl/src/lv_draw/../lv_core/../lv_font/../lv_misc/lv_mem.h ****  * @param dst pointer to the destination buffer
 170:lvgl/src/lv_draw/../lv_core/../lv_font/../lv_misc/lv_mem.h ****  * @param v value to set [0..255]
 171:lvgl/src/lv_draw/../lv_core/../lv_font/../lv_misc/lv_mem.h ****  * @param len number of byte to set
 172:lvgl/src/lv_draw/../lv_core/../lv_font/../lv_misc/lv_mem.h ****  */
 173:lvgl/src/lv_draw/../lv_core/../lv_font/../lv_misc/lv_mem.h **** static inline void _lv_memset(void * dst, uint8_t v, size_t len)
 174:lvgl/src/lv_draw/../lv_core/../lv_font/../lv_misc/lv_mem.h **** {
 175:lvgl/src/lv_draw/../lv_core/../lv_font/../lv_misc/lv_mem.h ****     memset(dst, v, len);
 176:lvgl/src/lv_draw/../lv_core/../lv_font/../lv_misc/lv_mem.h **** }
 177:lvgl/src/lv_draw/../lv_core/../lv_font/../lv_misc/lv_mem.h **** 
 178:lvgl/src/lv_draw/../lv_core/../lv_font/../lv_misc/lv_mem.h **** /**
 179:lvgl/src/lv_draw/../lv_core/../lv_font/../lv_misc/lv_mem.h ****  * Wrapper for the standard memset with fixed 0x00 value
 180:lvgl/src/lv_draw/../lv_core/../lv_font/../lv_misc/lv_mem.h ****  * @param dst pointer to the destination buffer
 181:lvgl/src/lv_draw/../lv_core/../lv_font/../lv_misc/lv_mem.h ****  * @param len number of byte to set
 182:lvgl/src/lv_draw/../lv_core/../lv_font/../lv_misc/lv_mem.h ****  */
 183:lvgl/src/lv_draw/../lv_core/../lv_font/../lv_misc/lv_mem.h **** static inline void _lv_memset_00(void * dst, size_t len)
 184:lvgl/src/lv_draw/../lv_core/../lv_font/../lv_misc/lv_mem.h **** {
 185:lvgl/src/lv_draw/../lv_core/../lv_font/../lv_misc/lv_mem.h ****     memset(dst, 0x00, len);
 186:lvgl/src/lv_draw/../lv_core/../lv_font/../lv_misc/lv_mem.h **** }
 187:lvgl/src/lv_draw/../lv_core/../lv_font/../lv_misc/lv_mem.h **** 
 188:lvgl/src/lv_draw/../lv_core/../lv_font/../lv_misc/lv_mem.h **** /**
 189:lvgl/src/lv_draw/../lv_core/../lv_font/../lv_misc/lv_mem.h ****  * Wrapper for the standard memset with fixed 0xFF value
 190:lvgl/src/lv_draw/../lv_core/../lv_font/../lv_misc/lv_mem.h ****  * @param dst pointer to the destination buffer
 191:lvgl/src/lv_draw/../lv_core/../lv_font/../lv_misc/lv_mem.h ****  * @param len number of byte to set
 192:lvgl/src/lv_draw/../lv_core/../lv_font/../lv_misc/lv_mem.h ****  */
 193:lvgl/src/lv_draw/../lv_core/../lv_font/../lv_misc/lv_mem.h **** static inline void _lv_memset_ff(void * dst, size_t len)
 194:lvgl/src/lv_draw/../lv_core/../lv_font/../lv_misc/lv_mem.h **** {
 195:lvgl/src/lv_draw/../lv_core/../lv_font/../lv_misc/lv_mem.h ****     memset(dst, 0xFF, len);
 196:lvgl/src/lv_draw/../lv_core/../lv_font/../lv_misc/lv_mem.h **** }
 197:lvgl/src/lv_draw/../lv_core/../lv_font/../lv_misc/lv_mem.h **** 
 198:lvgl/src/lv_draw/../lv_core/../lv_font/../lv_misc/lv_mem.h **** #else
 199:lvgl/src/lv_draw/../lv_core/../lv_font/../lv_misc/lv_mem.h **** /**
 200:lvgl/src/lv_draw/../lv_core/../lv_font/../lv_misc/lv_mem.h ****  * Same as `memcpy` but optimized for 4 byte operation.
 201:lvgl/src/lv_draw/../lv_core/../lv_font/../lv_misc/lv_mem.h ****  * @param dst pointer to the destination buffer
 202:lvgl/src/lv_draw/../lv_core/../lv_font/../lv_misc/lv_mem.h ****  * @param src pointer to the source buffer
ARM GAS  D:\Temp\ccGEpo4V.s 			page 36


 203:lvgl/src/lv_draw/../lv_core/../lv_font/../lv_misc/lv_mem.h ****  * @param len number of byte to copy
 204:lvgl/src/lv_draw/../lv_core/../lv_font/../lv_misc/lv_mem.h ****  */
 205:lvgl/src/lv_draw/../lv_core/../lv_font/../lv_misc/lv_mem.h **** LV_ATTRIBUTE_FAST_MEM void * _lv_memcpy(void * dst, const void * src, size_t len);
 206:lvgl/src/lv_draw/../lv_core/../lv_font/../lv_misc/lv_mem.h **** 
 207:lvgl/src/lv_draw/../lv_core/../lv_font/../lv_misc/lv_mem.h **** /**
 208:lvgl/src/lv_draw/../lv_core/../lv_font/../lv_misc/lv_mem.h ****  * Same as `memcpy` but optimized to copy only a few bytes.
 209:lvgl/src/lv_draw/../lv_core/../lv_font/../lv_misc/lv_mem.h ****  * @param dst pointer to the destination buffer
 210:lvgl/src/lv_draw/../lv_core/../lv_font/../lv_misc/lv_mem.h ****  * @param src pointer to the source buffer
 211:lvgl/src/lv_draw/../lv_core/../lv_font/../lv_misc/lv_mem.h ****  * @param len number of byte to copy
 212:lvgl/src/lv_draw/../lv_core/../lv_font/../lv_misc/lv_mem.h ****  */
 213:lvgl/src/lv_draw/../lv_core/../lv_font/../lv_misc/lv_mem.h **** LV_ATTRIBUTE_FAST_MEM static inline void * _lv_memcpy_small(void * dst, const void * src, size_t le
 474              		.loc 3 213 44 view .LVU156
 475              	.LBB216:
 214:lvgl/src/lv_draw/../lv_core/../lv_font/../lv_misc/lv_mem.h **** {
 215:lvgl/src/lv_draw/../lv_core/../lv_font/../lv_misc/lv_mem.h ****     uint8_t * d8 = (uint8_t *)dst;
 476              		.loc 3 215 5 view .LVU157
 216:lvgl/src/lv_draw/../lv_core/../lv_font/../lv_misc/lv_mem.h ****     const uint8_t * s8 = (const uint8_t *)src;
 477              		.loc 3 216 5 view .LVU158
 217:lvgl/src/lv_draw/../lv_core/../lv_font/../lv_misc/lv_mem.h **** 
 218:lvgl/src/lv_draw/../lv_core/../lv_font/../lv_misc/lv_mem.h ****     while(len) {
 478              		.loc 3 218 5 view .LVU159
 216:lvgl/src/lv_draw/../lv_core/../lv_font/../lv_misc/lv_mem.h ****     const uint8_t * s8 = (const uint8_t *)src;
 479              		.loc 3 216 21 is_stmt 0 view .LVU160
 480 0010 0446     		mov	r4, r0
 215:lvgl/src/lv_draw/../lv_core/../lv_font/../lv_misc/lv_mem.h ****     const uint8_t * s8 = (const uint8_t *)src;
 481              		.loc 3 215 15 view .LVU161
 482 0012 0CA9     		add	r1, sp, #48
 483              	.LVL55:
 215:lvgl/src/lv_draw/../lv_core/../lv_font/../lv_misc/lv_mem.h ****     const uint8_t * s8 = (const uint8_t *)src;
 484              		.loc 3 215 15 view .LVU162
 485              	.LBE216:
 486              	.LBE215:
 487              	.LBE219:
 997:lvgl/src/lv_draw/lv_draw_rect.c **** 
 488              		.loc 1 997 13 view .LVU163
 489 0014 0823     		movs	r3, #8
 490              	.LVL56:
 997:lvgl/src/lv_draw/lv_draw_rect.c **** 
 491              		.loc 1 997 13 view .LVU164
 492 0016 04E0     		b	.L38
 493              	.LVL57:
 494              	.L39:
 495              	.LBB220:
 496              	.LBB218:
 497              	.LBB217:
 219:lvgl/src/lv_draw/../lv_core/../lv_font/../lv_misc/lv_mem.h ****         *d8 = *s8;
 498              		.loc 3 219 9 is_stmt 1 view .LVU165
 499              		.loc 3 219 15 is_stmt 0 view .LVU166
 500 0018 14F8016B 		ldrb	r6, [r4], #1	@ zero_extendqisi2
 501              	.LVL58:
 502              		.loc 3 219 13 view .LVU167
 503 001c 01F8016B 		strb	r6, [r1], #1
 504              	.LVL59:
 220:lvgl/src/lv_draw/../lv_core/../lv_font/../lv_misc/lv_mem.h ****         d8++;
 505              		.loc 3 220 9 is_stmt 1 view .LVU168
 221:lvgl/src/lv_draw/../lv_core/../lv_font/../lv_misc/lv_mem.h ****         s8++;
 506              		.loc 3 221 9 view .LVU169
ARM GAS  D:\Temp\ccGEpo4V.s 			page 37


 222:lvgl/src/lv_draw/../lv_core/../lv_font/../lv_misc/lv_mem.h ****         len--;
 507              		.loc 3 222 9 view .LVU170
 508              		.loc 3 222 12 is_stmt 0 view .LVU171
 509 0020 013B     		subs	r3, r3, #1
 510              	.LVL60:
 511              	.L38:
 218:lvgl/src/lv_draw/../lv_core/../lv_font/../lv_misc/lv_mem.h ****         *d8 = *s8;
 512              		.loc 3 218 10 view .LVU172
 513 0022 002B     		cmp	r3, #0
 514 0024 F8D1     		bne	.L39
 223:lvgl/src/lv_draw/../lv_core/../lv_font/../lv_misc/lv_mem.h ****     }
 224:lvgl/src/lv_draw/../lv_core/../lv_font/../lv_misc/lv_mem.h **** 
 225:lvgl/src/lv_draw/../lv_core/../lv_font/../lv_misc/lv_mem.h ****     return dst;
 515              		.loc 3 225 5 is_stmt 1 view .LVU173
 516              	.LVL61:
 517              		.loc 3 225 5 is_stmt 0 view .LVU174
 518              	.LBE217:
 519              	.LBE218:
 520              	.LBE220:
1001:lvgl/src/lv_draw/lv_draw_rect.c ****     sh_area.y1 = sw / 2 + 1;
 521              		.loc 1 1001 5 is_stmt 1 view .LVU175
1001:lvgl/src/lv_draw/lv_draw_rect.c ****     sh_area.y1 = sw / 2 + 1;
 522              		.loc 1 1001 25 is_stmt 0 view .LVU176
 523 0026 0BEBDB71 		add	r1, fp, fp, lsr #31
 524 002a C1F34F01 		ubfx	r1, r1, #1, #16
 525 002e 8B18     		adds	r3, r1, r2
 526 0030 9BB2     		uxth	r3, r3
1001:lvgl/src/lv_draw/lv_draw_rect.c ****     sh_area.y1 = sw / 2 + 1;
 527              		.loc 1 1001 50 view .LVU177
 528 0032 1BF00107 		ands	r7, fp, #1
 529 0036 0CBF     		ite	eq
 530 0038 0124     		moveq	r4, #1
 531 003a 0024     		movne	r4, #0
1001:lvgl/src/lv_draw/lv_draw_rect.c ****     sh_area.y1 = sw / 2 + 1;
 532              		.loc 1 1001 34 view .LVU178
 533 003c 1B1B     		subs	r3, r3, r4
 534 003e 013B     		subs	r3, r3, #1
 535 0040 9BB2     		uxth	r3, r3
1001:lvgl/src/lv_draw/lv_draw_rect.c ****     sh_area.y1 = sw / 2 + 1;
 536              		.loc 1 1001 16 view .LVU179
 537 0042 ADF83430 		strh	r3, [sp, #52]	@ movhi
1002:lvgl/src/lv_draw/lv_draw_rect.c **** 
 538              		.loc 1 1002 5 is_stmt 1 view .LVU180
1002:lvgl/src/lv_draw/lv_draw_rect.c **** 
 539              		.loc 1 1002 25 is_stmt 0 view .LVU181
 540 0046 0131     		adds	r1, r1, #1
 541 0048 89B2     		uxth	r1, r1
1002:lvgl/src/lv_draw/lv_draw_rect.c **** 
 542              		.loc 1 1002 16 view .LVU182
 543 004a ADF83210 		strh	r1, [sp, #50]	@ movhi
1004:lvgl/src/lv_draw/lv_draw_rect.c ****     sh_area.y2 = sh_area.y1 + lv_area_get_height(coords);
 544              		.loc 1 1004 5 is_stmt 1 view .LVU183
 545              	.LVL62:
 546              	.LBB221:
 547              	.LBI221:
 100:lvgl/src/lv_draw/../lv_core/../lv_font/../lv_misc/lv_area.h **** }
 101:lvgl/src/lv_draw/../lv_core/../lv_font/../lv_misc/lv_area.h **** 
ARM GAS  D:\Temp\ccGEpo4V.s 			page 38


 102:lvgl/src/lv_draw/../lv_core/../lv_font/../lv_misc/lv_area.h **** /**
 103:lvgl/src/lv_draw/../lv_core/../lv_font/../lv_misc/lv_area.h ****  * Get the width of an area
 104:lvgl/src/lv_draw/../lv_core/../lv_font/../lv_misc/lv_area.h ****  * @param area_p pointer to an area
 105:lvgl/src/lv_draw/../lv_core/../lv_font/../lv_misc/lv_area.h ****  * @return the width of the area (if x1 == x2 -> width = 1)
 106:lvgl/src/lv_draw/../lv_core/../lv_font/../lv_misc/lv_area.h ****  */
 107:lvgl/src/lv_draw/../lv_core/../lv_font/../lv_misc/lv_area.h **** static inline lv_coord_t lv_area_get_width(const lv_area_t * area_p)
 548              		.loc 2 107 26 view .LVU184
 549              	.LBB222:
 108:lvgl/src/lv_draw/../lv_core/../lv_font/../lv_misc/lv_area.h **** {
 109:lvgl/src/lv_draw/../lv_core/../lv_font/../lv_misc/lv_area.h ****     return (lv_coord_t)(area_p->x2 - area_p->x1 + 1);
 550              		.loc 2 109 5 view .LVU185
 551              		.loc 2 109 31 is_stmt 0 view .LVU186
 552 004e 8488     		ldrh	r4, [r0, #4]
 553              		.loc 2 109 44 view .LVU187
 554 0050 0688     		ldrh	r6, [r0]
 555              		.loc 2 109 36 view .LVU188
 556 0052 A41B     		subs	r4, r4, r6
 557 0054 A4B2     		uxth	r4, r4
 558              		.loc 2 109 49 view .LVU189
 559 0056 0134     		adds	r4, r4, #1
 560 0058 A4B2     		uxth	r4, r4
 561              	.LVL63:
 562              		.loc 2 109 49 view .LVU190
 563              	.LBE222:
 564              	.LBE221:
1004:lvgl/src/lv_draw/lv_draw_rect.c ****     sh_area.y2 = sh_area.y1 + lv_area_get_height(coords);
 565              		.loc 1 1004 29 view .LVU191
 566 005a 1B1B     		subs	r3, r3, r4
1004:lvgl/src/lv_draw/lv_draw_rect.c ****     sh_area.y2 = sh_area.y1 + lv_area_get_height(coords);
 567              		.loc 1 1004 16 view .LVU192
 568 005c ADF83030 		strh	r3, [sp, #48]	@ movhi
1005:lvgl/src/lv_draw/lv_draw_rect.c **** 
 569              		.loc 1 1005 5 is_stmt 1 view .LVU193
 570              	.LVL64:
 571              	.LBB223:
 572              	.LBI223:
 110:lvgl/src/lv_draw/../lv_core/../lv_font/../lv_misc/lv_area.h **** }
 111:lvgl/src/lv_draw/../lv_core/../lv_font/../lv_misc/lv_area.h **** 
 112:lvgl/src/lv_draw/../lv_core/../lv_font/../lv_misc/lv_area.h **** /**
 113:lvgl/src/lv_draw/../lv_core/../lv_font/../lv_misc/lv_area.h ****  * Get the height of an area
 114:lvgl/src/lv_draw/../lv_core/../lv_font/../lv_misc/lv_area.h ****  * @param area_p pointer to an area
 115:lvgl/src/lv_draw/../lv_core/../lv_font/../lv_misc/lv_area.h ****  * @return the height of the area (if y1 == y2 -> height = 1)
 116:lvgl/src/lv_draw/../lv_core/../lv_font/../lv_misc/lv_area.h ****  */
 117:lvgl/src/lv_draw/../lv_core/../lv_font/../lv_misc/lv_area.h **** static inline lv_coord_t lv_area_get_height(const lv_area_t * area_p)
 573              		.loc 2 117 26 view .LVU194
 574              	.LBB224:
 118:lvgl/src/lv_draw/../lv_core/../lv_font/../lv_misc/lv_area.h **** {
 119:lvgl/src/lv_draw/../lv_core/../lv_font/../lv_misc/lv_area.h ****     return (lv_coord_t)(area_p->y2 - area_p->y1 + 1);
 575              		.loc 2 119 5 view .LVU195
 576              		.loc 2 119 31 is_stmt 0 view .LVU196
 577 0060 C388     		ldrh	r3, [r0, #6]
 578              		.loc 2 119 44 view .LVU197
 579 0062 4088     		ldrh	r0, [r0, #2]
 580              	.LVL65:
 581              		.loc 2 119 36 view .LVU198
 582 0064 1B1A     		subs	r3, r3, r0
 583 0066 9BB2     		uxth	r3, r3
ARM GAS  D:\Temp\ccGEpo4V.s 			page 39


 584              		.loc 2 119 49 view .LVU199
 585 0068 0133     		adds	r3, r3, #1
 586              	.LVL66:
 587              		.loc 2 119 49 view .LVU200
 588              	.LBE224:
 589              	.LBE223:
1005:lvgl/src/lv_draw/lv_draw_rect.c **** 
 590              		.loc 1 1005 29 view .LVU201
 591 006a 11FA83F3 		uxtah	r3, r1, r3
1005:lvgl/src/lv_draw/lv_draw_rect.c **** 
 592              		.loc 1 1005 16 view .LVU202
 593 006e ADF83630 		strh	r3, [sp, #54]	@ movhi
1007:lvgl/src/lv_draw/lv_draw_rect.c ****     lv_draw_mask_radius_init(&mask_param, &sh_area, r, false);
 594              		.loc 1 1007 5 is_stmt 1 view .LVU203
1008:lvgl/src/lv_draw/lv_draw_rect.c **** 
 595              		.loc 1 1008 5 view .LVU204
 596 0072 0023     		movs	r3, #0
 597 0074 0CA9     		add	r1, sp, #48
 598 0076 05A8     		add	r0, sp, #20
 599 0078 FFF7FEFF 		bl	lv_draw_mask_radius_init
 600              	.LVL67:
1012:lvgl/src/lv_draw/lv_draw_rect.c ****     else sw = sw_ori >> 1;
 601              		.loc 1 1012 5 view .LVU205
1012:lvgl/src/lv_draw/lv_draw_rect.c ****     else sw = sw_ori >> 1;
 602              		.loc 1 1012 7 is_stmt 0 view .LVU206
 603 007c BBF1010F 		cmp	fp, #1
 604 0080 0BD0     		beq	.L60
1013:lvgl/src/lv_draw/lv_draw_rect.c **** #endif
 605              		.loc 1 1013 10 is_stmt 1 view .LVU207
1013:lvgl/src/lv_draw/lv_draw_rect.c **** #endif
 606              		.loc 1 1013 13 is_stmt 0 view .LVU208
 607 0082 4FEA6B0B 		asr	fp, fp, #1
 608              	.LVL68:
 609              	.L40:
1016:lvgl/src/lv_draw/lv_draw_rect.c ****     lv_opa_t * mask_line = _lv_mem_buf_get(size);
 610              		.loc 1 1016 5 is_stmt 1 view .LVU209
1017:lvgl/src/lv_draw/lv_draw_rect.c ****     uint16_t * sh_ups_tmp_buf = (uint16_t *)sh_buf;
 611              		.loc 1 1017 5 view .LVU210
1017:lvgl/src/lv_draw/lv_draw_rect.c ****     uint16_t * sh_ups_tmp_buf = (uint16_t *)sh_buf;
 612              		.loc 1 1017 28 is_stmt 0 view .LVU211
 613 0086 AA46     		mov	r10, r5
 614 0088 2846     		mov	r0, r5
 615 008a FFF7FEFF 		bl	_lv_mem_buf_get
 616              	.LVL69:
 617 008e 0446     		mov	r4, r0
 618              	.LVL70:
1018:lvgl/src/lv_draw/lv_draw_rect.c ****     for(y = 0; y < size; y++) {
 619              		.loc 1 1018 5 is_stmt 1 view .LVU212
1019:lvgl/src/lv_draw/lv_draw_rect.c ****         _lv_memset_ff(mask_line, size);
 620              		.loc 1 1019 5 view .LVU213
1018:lvgl/src/lv_draw/lv_draw_rect.c ****     for(y = 0; y < size; y++) {
 621              		.loc 1 1018 16 is_stmt 0 view .LVU214
 622 0090 4E46     		mov	r6, r9
1019:lvgl/src/lv_draw/lv_draw_rect.c ****         _lv_memset_ff(mask_line, size);
 623              		.loc 1 1019 11 view .LVU215
 624 0092 4FF00008 		mov	r8, #0
 625 0096 0397     		str	r7, [sp, #12]
ARM GAS  D:\Temp\ccGEpo4V.s 			page 40


1019:lvgl/src/lv_draw/lv_draw_rect.c ****         _lv_memset_ff(mask_line, size);
 626              		.loc 1 1019 5 view .LVU216
 627 0098 0BE0     		b	.L41
 628              	.LVL71:
 629              	.L60:
1012:lvgl/src/lv_draw/lv_draw_rect.c ****     else sw = sw_ori >> 1;
 630              		.loc 1 1012 24 view .LVU217
 631 009a 4FF0010B 		mov	fp, #1
 632              	.LVL72:
1012:lvgl/src/lv_draw/lv_draw_rect.c ****     else sw = sw_ori >> 1;
 633              		.loc 1 1012 24 view .LVU218
 634 009e F2E7     		b	.L40
 635              	.LVL73:
 636              	.L65:
 637              	.LBB225:
1023:lvgl/src/lv_draw/lv_draw_rect.c ****         }
 638              		.loc 1 1023 13 is_stmt 1 view .LVU219
 639 00a0 4FEA4A01 		lsl	r1, r10, #1
 640 00a4 3046     		mov	r0, r6
 641              	.LVL74:
1023:lvgl/src/lv_draw/lv_draw_rect.c ****         }
 642              		.loc 1 1023 13 is_stmt 0 view .LVU220
 643 00a6 FFF7FEFF 		bl	_lv_memset_00
 644              	.LVL75:
 645              	.L43:
1034:lvgl/src/lv_draw/lv_draw_rect.c ****     }
 646              		.loc 1 1034 9 is_stmt 1 discriminator 2 view .LVU221
1034:lvgl/src/lv_draw/lv_draw_rect.c ****     }
 647              		.loc 1 1034 24 is_stmt 0 discriminator 2 view .LVU222
 648 00aa 06EB4A06 		add	r6, r6, r10, lsl #1
 649              	.LVL76:
1034:lvgl/src/lv_draw/lv_draw_rect.c ****     }
 650              		.loc 1 1034 24 discriminator 2 view .LVU223
 651              	.LBE225:
1019:lvgl/src/lv_draw/lv_draw_rect.c ****         _lv_memset_ff(mask_line, size);
 652              		.loc 1 1019 27 discriminator 2 view .LVU224
 653 00ae 08F10108 		add	r8, r8, #1
 654              	.LVL77:
 655              	.L41:
1019:lvgl/src/lv_draw/lv_draw_rect.c ****         _lv_memset_ff(mask_line, size);
 656              		.loc 1 1019 5 discriminator 1 view .LVU225
 657 00b2 A845     		cmp	r8, r5
 658 00b4 2FDA     		bge	.L64
 659              	.LBB227:
1020:lvgl/src/lv_draw/lv_draw_rect.c ****         lv_draw_mask_res_t mask_res = mask_param.dsc.cb(mask_line, 0, y, size, &mask_param);
 660              		.loc 1 1020 9 is_stmt 1 view .LVU226
 661 00b6 5146     		mov	r1, r10
 662 00b8 2046     		mov	r0, r4
 663 00ba FFF7FEFF 		bl	_lv_memset_ff
 664              	.LVL78:
1021:lvgl/src/lv_draw/lv_draw_rect.c ****         if(mask_res == LV_DRAW_MASK_RES_TRANSP) {
 665              		.loc 1 1021 9 view .LVU227
1021:lvgl/src/lv_draw/lv_draw_rect.c ****         if(mask_res == LV_DRAW_MASK_RES_TRANSP) {
 666              		.loc 1 1021 39 is_stmt 0 view .LVU228
 667 00be 05AB     		add	r3, sp, #20
 668 00c0 0093     		str	r3, [sp]
 669 00c2 2BB2     		sxth	r3, r5
ARM GAS  D:\Temp\ccGEpo4V.s 			page 41


 670 00c4 0FFA88F2 		sxth	r2, r8
 671 00c8 0021     		movs	r1, #0
 672 00ca 2046     		mov	r0, r4
 673 00cc 059F     		ldr	r7, [sp, #20]
 674 00ce B847     		blx	r7
 675              	.LVL79:
1022:lvgl/src/lv_draw/lv_draw_rect.c ****             _lv_memset_00(sh_ups_tmp_buf, size * sizeof(sh_ups_tmp_buf[0]));
 676              		.loc 1 1022 9 is_stmt 1 view .LVU229
1022:lvgl/src/lv_draw/lv_draw_rect.c ****             _lv_memset_00(sh_ups_tmp_buf, size * sizeof(sh_ups_tmp_buf[0]));
 677              		.loc 1 1022 11 is_stmt 0 view .LVU230
 678 00d0 0028     		cmp	r0, #0
 679 00d2 E5D0     		beq	.L65
 680              	.LBB226:
1026:lvgl/src/lv_draw/lv_draw_rect.c ****             sh_ups_tmp_buf[0] = (mask_line[0] << SHADOW_UPSCALE_SHIFT) / sw;
 681              		.loc 1 1026 13 is_stmt 1 view .LVU231
1027:lvgl/src/lv_draw/lv_draw_rect.c ****             for(i = 1; i < size; i++) {
 682              		.loc 1 1027 13 view .LVU232
1027:lvgl/src/lv_draw/lv_draw_rect.c ****             for(i = 1; i < size; i++) {
 683              		.loc 1 1027 43 is_stmt 0 view .LVU233
 684 00d4 2378     		ldrb	r3, [r4]	@ zero_extendqisi2
1027:lvgl/src/lv_draw/lv_draw_rect.c ****             for(i = 1; i < size; i++) {
 685              		.loc 1 1027 47 view .LVU234
 686 00d6 9B01     		lsls	r3, r3, #6
1027:lvgl/src/lv_draw/lv_draw_rect.c ****             for(i = 1; i < size; i++) {
 687              		.loc 1 1027 72 view .LVU235
 688 00d8 5846     		mov	r0, fp
 689              	.LVL80:
1027:lvgl/src/lv_draw/lv_draw_rect.c ****             for(i = 1; i < size; i++) {
 690              		.loc 1 1027 72 view .LVU236
 691 00da 93FBFBF3 		sdiv	r3, r3, fp
1027:lvgl/src/lv_draw/lv_draw_rect.c ****             for(i = 1; i < size; i++) {
 692              		.loc 1 1027 31 view .LVU237
 693 00de 3380     		strh	r3, [r6]	@ movhi
1028:lvgl/src/lv_draw/lv_draw_rect.c ****                 if(mask_line[i] == mask_line[i - 1]) sh_ups_tmp_buf[i] = sh_ups_tmp_buf[i - 1];
 694              		.loc 1 1028 13 is_stmt 1 view .LVU238
 695              	.LVL81:
1028:lvgl/src/lv_draw/lv_draw_rect.c ****                 if(mask_line[i] == mask_line[i - 1]) sh_ups_tmp_buf[i] = sh_ups_tmp_buf[i - 1];
 696              		.loc 1 1028 19 is_stmt 0 view .LVU239
 697 00e0 0123     		movs	r3, #1
 698 00e2 039F     		ldr	r7, [sp, #12]
1028:lvgl/src/lv_draw/lv_draw_rect.c ****                 if(mask_line[i] == mask_line[i - 1]) sh_ups_tmp_buf[i] = sh_ups_tmp_buf[i - 1];
 699              		.loc 1 1028 13 view .LVU240
 700 00e4 05E0     		b	.L44
 701              	.LVL82:
 702              	.L45:
1030:lvgl/src/lv_draw/lv_draw_rect.c ****             }
 703              		.loc 1 1030 22 is_stmt 1 view .LVU241
1030:lvgl/src/lv_draw/lv_draw_rect.c ****             }
 704              		.loc 1 1030 56 is_stmt 0 view .LVU242
 705 00e6 9201     		lsls	r2, r2, #6
1030:lvgl/src/lv_draw/lv_draw_rect.c ****             }
 706              		.loc 1 1030 81 view .LVU243
 707 00e8 92FBF0F2 		sdiv	r2, r2, r0
1030:lvgl/src/lv_draw/lv_draw_rect.c ****             }
 708              		.loc 1 1030 40 view .LVU244
 709 00ec 26F81320 		strh	r2, [r6, r3, lsl #1]	@ movhi
 710              	.L46:
ARM GAS  D:\Temp\ccGEpo4V.s 			page 42


1028:lvgl/src/lv_draw/lv_draw_rect.c ****                 if(mask_line[i] == mask_line[i - 1]) sh_ups_tmp_buf[i] = sh_ups_tmp_buf[i - 1];
 711              		.loc 1 1028 35 discriminator 2 view .LVU245
 712 00f0 0133     		adds	r3, r3, #1
 713              	.LVL83:
 714              	.L44:
1028:lvgl/src/lv_draw/lv_draw_rect.c ****                 if(mask_line[i] == mask_line[i - 1]) sh_ups_tmp_buf[i] = sh_ups_tmp_buf[i - 1];
 715              		.loc 1 1028 13 discriminator 1 view .LVU246
 716 00f2 AB42     		cmp	r3, r5
 717 00f4 0DDA     		bge	.L66
1029:lvgl/src/lv_draw/lv_draw_rect.c ****                 else sh_ups_tmp_buf[i] = (mask_line[i] << SHADOW_UPSCALE_SHIFT) / sw;
 718              		.loc 1 1029 17 is_stmt 1 view .LVU247
1029:lvgl/src/lv_draw/lv_draw_rect.c ****                 else sh_ups_tmp_buf[i] = (mask_line[i] << SHADOW_UPSCALE_SHIFT) / sw;
 719              		.loc 1 1029 29 is_stmt 0 view .LVU248
 720 00f6 E25C     		ldrb	r2, [r4, r3]	@ zero_extendqisi2
1029:lvgl/src/lv_draw/lv_draw_rect.c ****                 else sh_ups_tmp_buf[i] = (mask_line[i] << SHADOW_UPSCALE_SHIFT) / sw;
 721              		.loc 1 1029 45 view .LVU249
 722 00f8 E118     		adds	r1, r4, r3
 723 00fa 11F8011C 		ldrb	r1, [r1, #-1]	@ zero_extendqisi2
1029:lvgl/src/lv_draw/lv_draw_rect.c ****                 else sh_ups_tmp_buf[i] = (mask_line[i] << SHADOW_UPSCALE_SHIFT) / sw;
 724              		.loc 1 1029 19 view .LVU250
 725 00fe 8A42     		cmp	r2, r1
 726 0100 F1D1     		bne	.L45
1029:lvgl/src/lv_draw/lv_draw_rect.c ****                 else sh_ups_tmp_buf[i] = (mask_line[i] << SHADOW_UPSCALE_SHIFT) / sw;
 727              		.loc 1 1029 54 is_stmt 1 discriminator 1 view .LVU251
1029:lvgl/src/lv_draw/lv_draw_rect.c ****                 else sh_ups_tmp_buf[i] = (mask_line[i] << SHADOW_UPSCALE_SHIFT) / sw;
 728              		.loc 1 1029 88 is_stmt 0 discriminator 1 view .LVU252
 729 0102 03F10042 		add	r2, r3, #-2147483648
 730 0106 013A     		subs	r2, r2, #1
 731 0108 36F81220 		ldrh	r2, [r6, r2, lsl #1]
1029:lvgl/src/lv_draw/lv_draw_rect.c ****                 else sh_ups_tmp_buf[i] = (mask_line[i] << SHADOW_UPSCALE_SHIFT) / sw;
 732              		.loc 1 1029 72 discriminator 1 view .LVU253
 733 010c 26F81320 		strh	r2, [r6, r3, lsl #1]	@ movhi
 734 0110 EEE7     		b	.L46
 735              	.L66:
1029:lvgl/src/lv_draw/lv_draw_rect.c ****                 else sh_ups_tmp_buf[i] = (mask_line[i] << SHADOW_UPSCALE_SHIFT) / sw;
 736              		.loc 1 1029 72 discriminator 1 view .LVU254
 737 0112 0397     		str	r7, [sp, #12]
 738 0114 C9E7     		b	.L43
 739              	.LVL84:
 740              	.L64:
1029:lvgl/src/lv_draw/lv_draw_rect.c ****                 else sh_ups_tmp_buf[i] = (mask_line[i] << SHADOW_UPSCALE_SHIFT) / sw;
 741              		.loc 1 1029 72 discriminator 1 view .LVU255
 742 0116 039F     		ldr	r7, [sp, #12]
 743              	.LBE226:
 744              	.LBE227:
1036:lvgl/src/lv_draw/lv_draw_rect.c **** 
 745              		.loc 1 1036 5 is_stmt 1 view .LVU256
 746 0118 2046     		mov	r0, r4
 747 011a FFF7FEFF 		bl	_lv_mem_buf_release
 748              	.LVL85:
1038:lvgl/src/lv_draw/lv_draw_rect.c ****         int32_t i;
 749              		.loc 1 1038 5 view .LVU257
1038:lvgl/src/lv_draw/lv_draw_rect.c ****         int32_t i;
 750              		.loc 1 1038 7 is_stmt 0 view .LVU258
 751 011e BBF1010F 		cmp	fp, #1
 752 0122 1ED0     		beq	.L67
1047:lvgl/src/lv_draw/lv_draw_rect.c **** 
ARM GAS  D:\Temp\ccGEpo4V.s 			page 43


 753              		.loc 1 1047 5 is_stmt 1 view .LVU259
 754 0124 2CB2     		sxth	r4, r5
 755              	.LVL86:
1047:lvgl/src/lv_draw/lv_draw_rect.c **** 
 756              		.loc 1 1047 5 is_stmt 0 view .LVU260
 757 0126 4A46     		mov	r2, r9
 758 0128 5946     		mov	r1, fp
 759 012a 2046     		mov	r0, r4
 760 012c FFF7FEFF 		bl	shadow_blur_corner
 761              	.LVL87:
1057:lvgl/src/lv_draw/lv_draw_rect.c ****     if(sw > 1) {
 762              		.loc 1 1057 5 is_stmt 1 view .LVU261
1057:lvgl/src/lv_draw/lv_draw_rect.c ****     if(sw > 1) {
 763              		.loc 1 1057 8 is_stmt 0 view .LVU262
 764 0130 07EB0B01 		add	r1, r7, fp
 765              	.LVL88:
1058:lvgl/src/lv_draw/lv_draw_rect.c ****         uint32_t i;
 766              		.loc 1 1058 5 is_stmt 1 view .LVU263
1058:lvgl/src/lv_draw/lv_draw_rect.c ****         uint32_t i;
 767              		.loc 1 1058 7 is_stmt 0 view .LVU264
 768 0134 0129     		cmp	r1, #1
 769 0136 30DD     		ble	.L53
 770              	.LBB228:
1059:lvgl/src/lv_draw/lv_draw_rect.c ****         sh_buf[0] = (sh_buf[0] << SHADOW_UPSCALE_SHIFT) / sw;
 771              		.loc 1 1059 9 is_stmt 1 view .LVU265
1060:lvgl/src/lv_draw/lv_draw_rect.c ****         for(i = 1; i < (uint32_t) size * size; i++) {
 772              		.loc 1 1060 9 view .LVU266
1060:lvgl/src/lv_draw/lv_draw_rect.c ****         for(i = 1; i < (uint32_t) size * size; i++) {
 773              		.loc 1 1060 28 is_stmt 0 view .LVU267
 774 0138 B9F80030 		ldrh	r3, [r9]
1060:lvgl/src/lv_draw/lv_draw_rect.c ****         for(i = 1; i < (uint32_t) size * size; i++) {
 775              		.loc 1 1060 32 view .LVU268
 776 013c 9B01     		lsls	r3, r3, #6
1060:lvgl/src/lv_draw/lv_draw_rect.c ****         for(i = 1; i < (uint32_t) size * size; i++) {
 777              		.loc 1 1060 57 view .LVU269
 778 013e 0E46     		mov	r6, r1
 779              	.LVL89:
1060:lvgl/src/lv_draw/lv_draw_rect.c ****         for(i = 1; i < (uint32_t) size * size; i++) {
 780              		.loc 1 1060 57 view .LVU270
 781 0140 93FBF1F3 		sdiv	r3, r3, r1
1060:lvgl/src/lv_draw/lv_draw_rect.c ****         for(i = 1; i < (uint32_t) size * size; i++) {
 782              		.loc 1 1060 19 view .LVU271
 783 0144 A9F80030 		strh	r3, [r9]	@ movhi
1061:lvgl/src/lv_draw/lv_draw_rect.c ****             if(sh_buf[i] == sh_buf[i - 1]) sh_buf[i] = sh_buf[i - 1];
 784              		.loc 1 1061 9 is_stmt 1 view .LVU272
 785              	.LVL90:
1061:lvgl/src/lv_draw/lv_draw_rect.c ****             if(sh_buf[i] == sh_buf[i - 1]) sh_buf[i] = sh_buf[i - 1];
 786              		.loc 1 1061 15 is_stmt 0 view .LVU273
 787 0148 0123     		movs	r3, #1
1061:lvgl/src/lv_draw/lv_draw_rect.c ****             if(sh_buf[i] == sh_buf[i - 1]) sh_buf[i] = sh_buf[i - 1];
 788              		.loc 1 1061 9 view .LVU274
 789 014a 0FE0     		b	.L54
 790              	.LVL91:
 791              	.L51:
1061:lvgl/src/lv_draw/lv_draw_rect.c ****             if(sh_buf[i] == sh_buf[i - 1]) sh_buf[i] = sh_buf[i - 1];
 792              		.loc 1 1061 9 view .LVU275
 793              	.LBE228:
ARM GAS  D:\Temp\ccGEpo4V.s 			page 44


 794              	.LBB229:
1042:lvgl/src/lv_draw/lv_draw_rect.c ****         }
 795              		.loc 1 1042 13 is_stmt 1 discriminator 3 view .LVU276
1042:lvgl/src/lv_draw/lv_draw_rect.c ****         }
 796              		.loc 1 1042 33 is_stmt 0 discriminator 3 view .LVU277
 797 014c 39F81320 		ldrh	r2, [r9, r3, lsl #1]
1042:lvgl/src/lv_draw/lv_draw_rect.c ****         }
 798              		.loc 1 1042 24 discriminator 3 view .LVU278
 799 0150 9209     		lsrs	r2, r2, #6
 800 0152 09F80320 		strb	r2, [r9, r3]
1041:lvgl/src/lv_draw/lv_draw_rect.c ****             res_buf[i] = (sh_buf[i] >> SHADOW_UPSCALE_SHIFT);
 801              		.loc 1 1041 38 discriminator 3 view .LVU279
 802 0156 0133     		adds	r3, r3, #1
 803              	.LVL92:
 804              	.L49:
1041:lvgl/src/lv_draw/lv_draw_rect.c ****             res_buf[i] = (sh_buf[i] >> SHADOW_UPSCALE_SHIFT);
 805              		.loc 1 1041 29 discriminator 1 view .LVU280
 806 0158 05FB05F2 		mul	r2, r5, r5
1041:lvgl/src/lv_draw/lv_draw_rect.c ****             res_buf[i] = (sh_buf[i] >> SHADOW_UPSCALE_SHIFT);
 807              		.loc 1 1041 9 discriminator 1 view .LVU281
 808 015c 9A42     		cmp	r2, r3
 809 015e F5DC     		bgt	.L51
 810 0160 26E0     		b	.L37
 811              	.LVL93:
 812              	.L67:
1041:lvgl/src/lv_draw/lv_draw_rect.c ****             res_buf[i] = (sh_buf[i] >> SHADOW_UPSCALE_SHIFT);
 813              		.loc 1 1041 15 view .LVU282
 814 0162 0023     		movs	r3, #0
 815 0164 F8E7     		b	.L49
 816              	.LVL94:
 817              	.L69:
1041:lvgl/src/lv_draw/lv_draw_rect.c ****             res_buf[i] = (sh_buf[i] >> SHADOW_UPSCALE_SHIFT);
 818              		.loc 1 1041 15 view .LVU283
 819              	.LBE229:
 820              	.LBB230:
1062:lvgl/src/lv_draw/lv_draw_rect.c ****             else sh_buf[i] = (sh_buf[i] << SHADOW_UPSCALE_SHIFT) / sw;
 821              		.loc 1 1062 44 is_stmt 1 discriminator 1 view .LVU284
1062:lvgl/src/lv_draw/lv_draw_rect.c ****             else sh_buf[i] = (sh_buf[i] << SHADOW_UPSCALE_SHIFT) / sw;
 822              		.loc 1 1062 54 is_stmt 0 discriminator 1 view .LVU285
 823 0166 29F81300 		strh	r0, [r9, r3, lsl #1]	@ movhi
 824              	.L56:
1061:lvgl/src/lv_draw/lv_draw_rect.c ****             if(sh_buf[i] == sh_buf[i - 1]) sh_buf[i] = sh_buf[i - 1];
 825              		.loc 1 1061 49 discriminator 2 view .LVU286
 826 016a 0133     		adds	r3, r3, #1
 827              	.LVL95:
 828              	.L54:
1061:lvgl/src/lv_draw/lv_draw_rect.c ****             if(sh_buf[i] == sh_buf[i - 1]) sh_buf[i] = sh_buf[i - 1];
 829              		.loc 1 1061 40 discriminator 1 view .LVU287
 830 016c 0AFB0AF2 		mul	r2, r10, r10
1061:lvgl/src/lv_draw/lv_draw_rect.c ****             if(sh_buf[i] == sh_buf[i - 1]) sh_buf[i] = sh_buf[i - 1];
 831              		.loc 1 1061 9 discriminator 1 view .LVU288
 832 0170 9A42     		cmp	r2, r3
 833 0172 0ED9     		bls	.L68
1062:lvgl/src/lv_draw/lv_draw_rect.c ****             else sh_buf[i] = (sh_buf[i] << SHADOW_UPSCALE_SHIFT) / sw;
 834              		.loc 1 1062 13 is_stmt 1 view .LVU289
1062:lvgl/src/lv_draw/lv_draw_rect.c ****             else sh_buf[i] = (sh_buf[i] << SHADOW_UPSCALE_SHIFT) / sw;
 835              		.loc 1 1062 22 is_stmt 0 view .LVU290
ARM GAS  D:\Temp\ccGEpo4V.s 			page 45


 836 0174 39F81320 		ldrh	r2, [r9, r3, lsl #1]
1062:lvgl/src/lv_draw/lv_draw_rect.c ****             else sh_buf[i] = (sh_buf[i] << SHADOW_UPSCALE_SHIFT) / sw;
 837              		.loc 1 1062 35 view .LVU291
 838 0178 03F10040 		add	r0, r3, #-2147483648
 839 017c 0138     		subs	r0, r0, #1
 840 017e 39F81000 		ldrh	r0, [r9, r0, lsl #1]
1062:lvgl/src/lv_draw/lv_draw_rect.c ****             else sh_buf[i] = (sh_buf[i] << SHADOW_UPSCALE_SHIFT) / sw;
 841              		.loc 1 1062 15 view .LVU292
 842 0182 8242     		cmp	r2, r0
 843 0184 EFD0     		beq	.L69
1063:lvgl/src/lv_draw/lv_draw_rect.c ****         }
 844              		.loc 1 1063 18 is_stmt 1 view .LVU293
1063:lvgl/src/lv_draw/lv_draw_rect.c ****         }
 845              		.loc 1 1063 41 is_stmt 0 view .LVU294
 846 0186 9201     		lsls	r2, r2, #6
1063:lvgl/src/lv_draw/lv_draw_rect.c ****         }
 847              		.loc 1 1063 66 view .LVU295
 848 0188 92FBF6F2 		sdiv	r2, r2, r6
1063:lvgl/src/lv_draw/lv_draw_rect.c ****         }
 849              		.loc 1 1063 28 view .LVU296
 850 018c 29F81320 		strh	r2, [r9, r3, lsl #1]	@ movhi
 851 0190 EBE7     		b	.L56
 852              	.L68:
1066:lvgl/src/lv_draw/lv_draw_rect.c ****     }
 853              		.loc 1 1066 9 is_stmt 1 view .LVU297
 854 0192 4A46     		mov	r2, r9
 855 0194 2046     		mov	r0, r4
 856 0196 FFF7FEFF 		bl	shadow_blur_corner
 857              	.LVL96:
 858              	.L53:
1061:lvgl/src/lv_draw/lv_draw_rect.c ****             if(sh_buf[i] == sh_buf[i - 1]) sh_buf[i] = sh_buf[i - 1];
 859              		.loc 1 1061 15 is_stmt 0 discriminator 1 view .LVU298
 860 019a 0023     		movs	r3, #0
 861 019c 04E0     		b	.L58
 862              	.LVL97:
 863              	.L59:
1061:lvgl/src/lv_draw/lv_draw_rect.c ****             if(sh_buf[i] == sh_buf[i - 1]) sh_buf[i] = sh_buf[i - 1];
 864              		.loc 1 1061 15 discriminator 1 view .LVU299
 865              	.LBE230:
1071:lvgl/src/lv_draw/lv_draw_rect.c ****     }
 866              		.loc 1 1071 9 is_stmt 1 discriminator 3 view .LVU300
1071:lvgl/src/lv_draw/lv_draw_rect.c ****     }
 867              		.loc 1 1071 28 is_stmt 0 discriminator 3 view .LVU301
 868 019e 39F81320 		ldrh	r2, [r9, r3, lsl #1]
1071:lvgl/src/lv_draw/lv_draw_rect.c ****     }
 869              		.loc 1 1071 20 discriminator 3 view .LVU302
 870 01a2 09F80320 		strb	r2, [r9, r3]
1070:lvgl/src/lv_draw/lv_draw_rect.c ****         res_buf[x] = sh_buf[x];
 871              		.loc 1 1070 34 discriminator 3 view .LVU303
 872 01a6 0133     		adds	r3, r3, #1
 873              	.LVL98:
 874              	.L58:
1070:lvgl/src/lv_draw/lv_draw_rect.c ****         res_buf[x] = sh_buf[x];
 875              		.loc 1 1070 25 discriminator 1 view .LVU304
 876 01a8 05FB05F2 		mul	r2, r5, r5
1070:lvgl/src/lv_draw/lv_draw_rect.c ****         res_buf[x] = sh_buf[x];
 877              		.loc 1 1070 5 discriminator 1 view .LVU305
ARM GAS  D:\Temp\ccGEpo4V.s 			page 46


 878 01ac 9A42     		cmp	r2, r3
 879 01ae F6DC     		bgt	.L59
 880              	.LVL99:
 881              	.L37:
1075:lvgl/src/lv_draw/lv_draw_rect.c **** 
 882              		.loc 1 1075 1 view .LVU306
 883 01b0 0FB0     		add	sp, sp, #60
 884              	.LCFI5:
 885              		.cfi_def_cfa_offset 36
 886              		@ sp needed
 887 01b2 BDE8F08F 		pop	{r4, r5, r6, r7, r8, r9, r10, fp, pc}
1075:lvgl/src/lv_draw/lv_draw_rect.c **** 
 888              		.loc 1 1075 1 view .LVU307
 889              		.cfi_endproc
 890              	.LFE465:
 892              		.section	.text.draw_shadow,"ax",%progbits
 893              		.align	1
 894              		.syntax unified
 895              		.thumb
 896              		.thumb_func
 897              		.fpu fpv4-sp-d16
 899              	draw_shadow:
 900              	.LVL100:
 901              	.LFB464:
 525:lvgl/src/lv_draw/lv_draw_rect.c ****     /*Check whether the shadow is visible*/
 902              		.loc 1 525 1 is_stmt 1 view -0
 903              		.cfi_startproc
 904              		@ args = 0, pretend = 0, frame = 136
 905              		@ frame_needed = 0, uses_anonymous_args = 0
 525:lvgl/src/lv_draw/lv_draw_rect.c ****     /*Check whether the shadow is visible*/
 906              		.loc 1 525 1 is_stmt 0 view .LVU309
 907 0000 2DE9F04F 		push	{r4, r5, r6, r7, r8, r9, r10, fp, lr}
 908              	.LCFI6:
 909              		.cfi_def_cfa_offset 36
 910              		.cfi_offset 4, -36
 911              		.cfi_offset 5, -32
 912              		.cfi_offset 6, -28
 913              		.cfi_offset 7, -24
 914              		.cfi_offset 8, -20
 915              		.cfi_offset 9, -16
 916              		.cfi_offset 10, -12
 917              		.cfi_offset 11, -8
 918              		.cfi_offset 14, -4
 919 0004 A7B0     		sub	sp, sp, #156
 920              	.LCFI7:
 921              		.cfi_def_cfa_offset 192
 527:lvgl/src/lv_draw/lv_draw_rect.c ****     if(dsc->shadow_opa <= LV_OPA_MIN) return;
 922              		.loc 1 527 5 is_stmt 1 view .LVU310
 527:lvgl/src/lv_draw/lv_draw_rect.c ****     if(dsc->shadow_opa <= LV_OPA_MIN) return;
 923              		.loc 1 527 11 is_stmt 0 view .LVU311
 924 0006 B2F92240 		ldrsh	r4, [r2, #34]
 527:lvgl/src/lv_draw/lv_draw_rect.c ****     if(dsc->shadow_opa <= LV_OPA_MIN) return;
 925              		.loc 1 527 7 view .LVU312
 926 000a 002C     		cmp	r4, #0
 927 000c 00F0BF83 		beq	.L70
 528:lvgl/src/lv_draw/lv_draw_rect.c **** 
 928              		.loc 1 528 5 is_stmt 1 view .LVU313
ARM GAS  D:\Temp\ccGEpo4V.s 			page 47


 528:lvgl/src/lv_draw/lv_draw_rect.c **** 
 929              		.loc 1 528 11 is_stmt 0 view .LVU314
 930 0010 92F82A70 		ldrb	r7, [r2, #42]	@ zero_extendqisi2
 528:lvgl/src/lv_draw/lv_draw_rect.c **** 
 931              		.loc 1 528 7 view .LVU315
 932 0014 022F     		cmp	r7, #2
 933 0016 40F2BA83 		bls	.L70
 530:lvgl/src/lv_draw/lv_draw_rect.c ****        dsc->shadow_ofs_y == 0 && dsc->shadow_spread <= 0) {
 934              		.loc 1 530 5 is_stmt 1 view .LVU316
 530:lvgl/src/lv_draw/lv_draw_rect.c ****        dsc->shadow_ofs_y == 0 && dsc->shadow_spread <= 0) {
 935              		.loc 1 530 7 is_stmt 0 view .LVU317
 936 001a 012C     		cmp	r4, #1
 937 001c 75D0     		beq	.L176
 938              	.L72:
 535:lvgl/src/lv_draw/lv_draw_rect.c **** 
 939              		.loc 1 535 5 is_stmt 1 view .LVU318
 940              	.LVL101:
 537:lvgl/src/lv_draw/lv_draw_rect.c ****     sh_rect_area.x1 = coords->x1  + dsc->shadow_ofs_x - dsc->shadow_spread;
 941              		.loc 1 537 5 view .LVU319
 538:lvgl/src/lv_draw/lv_draw_rect.c ****     sh_rect_area.x2 = coords->x2  + dsc->shadow_ofs_x + dsc->shadow_spread;
 942              		.loc 1 538 5 view .LVU320
 538:lvgl/src/lv_draw/lv_draw_rect.c ****     sh_rect_area.x2 = coords->x2  + dsc->shadow_ofs_x + dsc->shadow_spread;
 943              		.loc 1 538 29 is_stmt 0 view .LVU321
 944 001e 0688     		ldrh	r6, [r0]
 538:lvgl/src/lv_draw/lv_draw_rect.c ****     sh_rect_area.x2 = coords->x2  + dsc->shadow_ofs_x + dsc->shadow_spread;
 945              		.loc 1 538 40 view .LVU322
 946 0020 938C     		ldrh	r3, [r2, #36]
 538:lvgl/src/lv_draw/lv_draw_rect.c ****     sh_rect_area.x2 = coords->x2  + dsc->shadow_ofs_x + dsc->shadow_spread;
 947              		.loc 1 538 35 view .LVU323
 948 0022 1E44     		add	r6, r6, r3
 949 0024 B6B2     		uxth	r6, r6
 538:lvgl/src/lv_draw/lv_draw_rect.c ****     sh_rect_area.x2 = coords->x2  + dsc->shadow_ofs_x + dsc->shadow_spread;
 950              		.loc 1 538 60 view .LVU324
 951 0026 B2F828C0 		ldrh	ip, [r2, #40]
 538:lvgl/src/lv_draw/lv_draw_rect.c ****     sh_rect_area.x2 = coords->x2  + dsc->shadow_ofs_x + dsc->shadow_spread;
 952              		.loc 1 538 55 view .LVU325
 953 002a A6EB0C06 		sub	r6, r6, ip
 954 002e B6B2     		uxth	r6, r6
 538:lvgl/src/lv_draw/lv_draw_rect.c ****     sh_rect_area.x2 = coords->x2  + dsc->shadow_ofs_x + dsc->shadow_spread;
 955              		.loc 1 538 21 view .LVU326
 956 0030 ADF89060 		strh	r6, [sp, #144]	@ movhi
 539:lvgl/src/lv_draw/lv_draw_rect.c ****     sh_rect_area.y1 = coords->y1  + dsc->shadow_ofs_y - dsc->shadow_spread;
 957              		.loc 1 539 5 is_stmt 1 view .LVU327
 539:lvgl/src/lv_draw/lv_draw_rect.c ****     sh_rect_area.y1 = coords->y1  + dsc->shadow_ofs_y - dsc->shadow_spread;
 958              		.loc 1 539 29 is_stmt 0 view .LVU328
 959 0034 8588     		ldrh	r5, [r0, #4]
 539:lvgl/src/lv_draw/lv_draw_rect.c ****     sh_rect_area.y1 = coords->y1  + dsc->shadow_ofs_y - dsc->shadow_spread;
 960              		.loc 1 539 35 view .LVU329
 961 0036 1D44     		add	r5, r5, r3
 539:lvgl/src/lv_draw/lv_draw_rect.c ****     sh_rect_area.y1 = coords->y1  + dsc->shadow_ofs_y - dsc->shadow_spread;
 962              		.loc 1 539 55 view .LVU330
 963 0038 1CFA85F5 		uxtah	r5, ip, r5
 964 003c ADB2     		uxth	r5, r5
 539:lvgl/src/lv_draw/lv_draw_rect.c ****     sh_rect_area.y1 = coords->y1  + dsc->shadow_ofs_y - dsc->shadow_spread;
 965              		.loc 1 539 21 view .LVU331
 966 003e ADF89450 		strh	r5, [sp, #148]	@ movhi
 540:lvgl/src/lv_draw/lv_draw_rect.c ****     sh_rect_area.y2 = coords->y2  + dsc->shadow_ofs_y + dsc->shadow_spread;
ARM GAS  D:\Temp\ccGEpo4V.s 			page 48


 967              		.loc 1 540 5 is_stmt 1 view .LVU332
 540:lvgl/src/lv_draw/lv_draw_rect.c ****     sh_rect_area.y2 = coords->y2  + dsc->shadow_ofs_y + dsc->shadow_spread;
 968              		.loc 1 540 29 is_stmt 0 view .LVU333
 969 0042 4388     		ldrh	r3, [r0, #2]
 540:lvgl/src/lv_draw/lv_draw_rect.c ****     sh_rect_area.y2 = coords->y2  + dsc->shadow_ofs_y + dsc->shadow_spread;
 970              		.loc 1 540 40 view .LVU334
 971 0044 B2F826E0 		ldrh	lr, [r2, #38]
 540:lvgl/src/lv_draw/lv_draw_rect.c ****     sh_rect_area.y2 = coords->y2  + dsc->shadow_ofs_y + dsc->shadow_spread;
 972              		.loc 1 540 35 view .LVU335
 973 0048 7344     		add	r3, r3, lr
 974 004a 9BB2     		uxth	r3, r3
 540:lvgl/src/lv_draw/lv_draw_rect.c ****     sh_rect_area.y2 = coords->y2  + dsc->shadow_ofs_y + dsc->shadow_spread;
 975              		.loc 1 540 55 view .LVU336
 976 004c A3EB0C03 		sub	r3, r3, ip
 977 0050 9BB2     		uxth	r3, r3
 540:lvgl/src/lv_draw/lv_draw_rect.c ****     sh_rect_area.y2 = coords->y2  + dsc->shadow_ofs_y + dsc->shadow_spread;
 978              		.loc 1 540 21 view .LVU337
 979 0052 ADF89230 		strh	r3, [sp, #146]	@ movhi
 541:lvgl/src/lv_draw/lv_draw_rect.c **** 
 980              		.loc 1 541 5 is_stmt 1 view .LVU338
 541:lvgl/src/lv_draw/lv_draw_rect.c **** 
 981              		.loc 1 541 29 is_stmt 0 view .LVU339
 982 0056 B0F80680 		ldrh	r8, [r0, #6]
 541:lvgl/src/lv_draw/lv_draw_rect.c **** 
 983              		.loc 1 541 35 view .LVU340
 984 005a C644     		add	lr, lr, r8
 541:lvgl/src/lv_draw/lv_draw_rect.c **** 
 985              		.loc 1 541 55 view .LVU341
 986 005c 1CFA8EFC 		uxtah	ip, ip, lr
 987 0060 1FFA8CFC 		uxth	ip, ip
 541:lvgl/src/lv_draw/lv_draw_rect.c **** 
 988              		.loc 1 541 21 view .LVU342
 989 0064 ADF896C0 		strh	ip, [sp, #150]	@ movhi
 543:lvgl/src/lv_draw/lv_draw_rect.c ****     sh_area.x1 = sh_rect_area.x1 - sw / 2 - 1;
 990              		.loc 1 543 5 is_stmt 1 view .LVU343
 544:lvgl/src/lv_draw/lv_draw_rect.c ****     sh_area.x2 = sh_rect_area.x2 + sw / 2 + 1;
 991              		.loc 1 544 5 view .LVU344
 544:lvgl/src/lv_draw/lv_draw_rect.c ****     sh_area.x2 = sh_rect_area.x2 + sw / 2 + 1;
 992              		.loc 1 544 39 is_stmt 0 view .LVU345
 993 0068 04EBD479 		add	r9, r4, r4, lsr #31
 994 006c 4FEA6908 		asr	r8, r9, #1
 995 0070 C8F10008 		rsb	r8, r8, #0
 544:lvgl/src/lv_draw/lv_draw_rect.c ****     sh_area.x2 = sh_rect_area.x2 + sw / 2 + 1;
 996              		.loc 1 544 34 view .LVU346
 997 0074 1FFA88F8 		uxth	r8, r8
 998 0078 4644     		add	r6, r6, r8
 999 007a B6B2     		uxth	r6, r6
 544:lvgl/src/lv_draw/lv_draw_rect.c ****     sh_area.x2 = sh_rect_area.x2 + sw / 2 + 1;
 1000              		.loc 1 544 43 view .LVU347
 1001 007c 06F1FF3E 		add	lr, r6, #-1
 544:lvgl/src/lv_draw/lv_draw_rect.c ****     sh_area.x2 = sh_rect_area.x2 + sw / 2 + 1;
 1002              		.loc 1 544 16 view .LVU348
 1003 0080 ADF888E0 		strh	lr, [sp, #136]	@ movhi
 545:lvgl/src/lv_draw/lv_draw_rect.c ****     sh_area.y1 = sh_rect_area.y1 - sw / 2 - 1;
 1004              		.loc 1 545 5 is_stmt 1 view .LVU349
 545:lvgl/src/lv_draw/lv_draw_rect.c ****     sh_area.y1 = sh_rect_area.y1 - sw / 2 - 1;
 1005              		.loc 1 545 34 is_stmt 0 view .LVU350
ARM GAS  D:\Temp\ccGEpo4V.s 			page 49


 1006 0084 C9F34F0E 		ubfx	lr, r9, #1, #16
 1007 0088 7544     		add	r5, r5, lr
 1008 008a ADB2     		uxth	r5, r5
 545:lvgl/src/lv_draw/lv_draw_rect.c ****     sh_area.y1 = sh_rect_area.y1 - sw / 2 - 1;
 1009              		.loc 1 545 43 view .LVU351
 1010 008c 0135     		adds	r5, r5, #1
 545:lvgl/src/lv_draw/lv_draw_rect.c ****     sh_area.y1 = sh_rect_area.y1 - sw / 2 - 1;
 1011              		.loc 1 545 16 view .LVU352
 1012 008e ADF88C50 		strh	r5, [sp, #140]	@ movhi
 546:lvgl/src/lv_draw/lv_draw_rect.c ****     sh_area.y2 = sh_rect_area.y2 + sw / 2 + 1;
 1013              		.loc 1 546 5 is_stmt 1 view .LVU353
 546:lvgl/src/lv_draw/lv_draw_rect.c ****     sh_area.y2 = sh_rect_area.y2 + sw / 2 + 1;
 1014              		.loc 1 546 34 is_stmt 0 view .LVU354
 1015 0092 03EB0806 		add	r6, r3, r8
 1016 0096 B6B2     		uxth	r6, r6
 546:lvgl/src/lv_draw/lv_draw_rect.c ****     sh_area.y2 = sh_rect_area.y2 + sw / 2 + 1;
 1017              		.loc 1 546 43 view .LVU355
 1018 0098 013E     		subs	r6, r6, #1
 546:lvgl/src/lv_draw/lv_draw_rect.c ****     sh_area.y2 = sh_rect_area.y2 + sw / 2 + 1;
 1019              		.loc 1 546 16 view .LVU356
 1020 009a ADF88A60 		strh	r6, [sp, #138]	@ movhi
 547:lvgl/src/lv_draw/lv_draw_rect.c **** 
 1021              		.loc 1 547 5 is_stmt 1 view .LVU357
 547:lvgl/src/lv_draw/lv_draw_rect.c **** 
 1022              		.loc 1 547 34 is_stmt 0 view .LVU358
 1023 009e 0CEB0E03 		add	r3, ip, lr
 1024 00a2 9BB2     		uxth	r3, r3
 547:lvgl/src/lv_draw/lv_draw_rect.c **** 
 1025              		.loc 1 547 43 view .LVU359
 1026 00a4 0133     		adds	r3, r3, #1
 547:lvgl/src/lv_draw/lv_draw_rect.c **** 
 1027              		.loc 1 547 16 view .LVU360
 1028 00a6 ADF88E30 		strh	r3, [sp, #142]	@ movhi
 549:lvgl/src/lv_draw/lv_draw_rect.c **** 
 1029              		.loc 1 549 5 is_stmt 1 view .LVU361
 1030              	.LVL102:
 551:lvgl/src/lv_draw/lv_draw_rect.c **** 
 1031              		.loc 1 551 5 view .LVU362
 551:lvgl/src/lv_draw/lv_draw_rect.c **** 
 1032              		.loc 1 551 7 is_stmt 0 view .LVU363
 1033 00aa FD2F     		cmp	r7, #253
 1034 00ac 00D9     		bls	.L73
 551:lvgl/src/lv_draw/lv_draw_rect.c **** 
 1035              		.loc 1 551 30 view .LVU364
 1036 00ae FF27     		movs	r7, #255
 1037              	.LVL103:
 1038              	.L73:
 551:lvgl/src/lv_draw/lv_draw_rect.c **** 
 1039              		.loc 1 551 30 view .LVU365
 1040 00b0 1546     		mov	r5, r2
 1041 00b2 8846     		mov	r8, r1
 1042 00b4 0691     		str	r1, [sp, #24]
 1043 00b6 8146     		mov	r9, r0
 1044 00b8 0C90     		str	r0, [sp, #48]
 1045              	.LVL104:
 553:lvgl/src/lv_draw/lv_draw_rect.c ****     lv_disp_buf_t * vdb = lv_disp_get_buf(disp);
 1046              		.loc 1 553 5 is_stmt 1 view .LVU366
ARM GAS  D:\Temp\ccGEpo4V.s 			page 50


 553:lvgl/src/lv_draw/lv_draw_rect.c ****     lv_disp_buf_t * vdb = lv_disp_get_buf(disp);
 1047              		.loc 1 553 27 is_stmt 0 view .LVU367
 1048 00ba FFF7FEFF 		bl	_lv_refr_get_disp_refreshing
 1049              	.LVL105:
 554:lvgl/src/lv_draw/lv_draw_rect.c **** 
 1050              		.loc 1 554 5 is_stmt 1 view .LVU368
 554:lvgl/src/lv_draw/lv_draw_rect.c **** 
 1051              		.loc 1 554 27 is_stmt 0 view .LVU369
 1052 00be FFF7FEFF 		bl	lv_disp_get_buf
 1053              	.LVL106:
 554:lvgl/src/lv_draw/lv_draw_rect.c **** 
 1054              		.loc 1 554 27 view .LVU370
 1055 00c2 0646     		mov	r6, r0
 1056              	.LVL107:
 558:lvgl/src/lv_draw/lv_draw_rect.c ****     bool is_common;
 1057              		.loc 1 558 5 is_stmt 1 view .LVU371
 559:lvgl/src/lv_draw/lv_draw_rect.c ****     is_common = _lv_area_intersect(&draw_area, &sh_area, clip);
 1058              		.loc 1 559 5 view .LVU372
 560:lvgl/src/lv_draw/lv_draw_rect.c ****     if(is_common == false) return;
 1059              		.loc 1 560 5 view .LVU373
 560:lvgl/src/lv_draw/lv_draw_rect.c ****     if(is_common == false) return;
 1060              		.loc 1 560 17 is_stmt 0 view .LVU374
 1061 00c4 4246     		mov	r2, r8
 1062 00c6 22A9     		add	r1, sp, #136
 1063 00c8 20A8     		add	r0, sp, #128
 1064              	.LVL108:
 560:lvgl/src/lv_draw/lv_draw_rect.c ****     if(is_common == false) return;
 1065              		.loc 1 560 17 view .LVU375
 1066 00ca FFF7FEFF 		bl	_lv_area_intersect
 1067              	.LVL109:
 561:lvgl/src/lv_draw/lv_draw_rect.c **** 
 1068              		.loc 1 561 5 is_stmt 1 view .LVU376
 561:lvgl/src/lv_draw/lv_draw_rect.c **** 
 1069              		.loc 1 561 7 is_stmt 0 view .LVU377
 1070 00ce 0790     		str	r0, [sp, #28]
 1071 00d0 0028     		cmp	r0, #0
 1072 00d2 00F05C83 		beq	.L70
 563:lvgl/src/lv_draw/lv_draw_rect.c **** 
 1073              		.loc 1 563 5 is_stmt 1 view .LVU378
 1074              	.LVL110:
 567:lvgl/src/lv_draw/lv_draw_rect.c ****     draw_area.y1 -= disp_area->y1;
 1075              		.loc 1 567 5 view .LVU379
 567:lvgl/src/lv_draw/lv_draw_rect.c ****     draw_area.y1 -= disp_area->y1;
 1076              		.loc 1 567 30 is_stmt 0 view .LVU380
 1077 00d6 318A     		ldrh	r1, [r6, #16]
 567:lvgl/src/lv_draw/lv_draw_rect.c ****     draw_area.y1 -= disp_area->y1;
 1078              		.loc 1 567 18 view .LVU381
 1079 00d8 BDF88030 		ldrh	r3, [sp, #128]
 1080 00dc 5B1A     		subs	r3, r3, r1
 1081 00de ADF88030 		strh	r3, [sp, #128]	@ movhi
 568:lvgl/src/lv_draw/lv_draw_rect.c ****     draw_area.x2 -= disp_area->x1;
 1082              		.loc 1 568 5 is_stmt 1 view .LVU382
 568:lvgl/src/lv_draw/lv_draw_rect.c ****     draw_area.x2 -= disp_area->x1;
 1083              		.loc 1 568 30 is_stmt 0 view .LVU383
 1084 00e2 728A     		ldrh	r2, [r6, #18]
 568:lvgl/src/lv_draw/lv_draw_rect.c ****     draw_area.x2 -= disp_area->x1;
 1085              		.loc 1 568 18 view .LVU384
ARM GAS  D:\Temp\ccGEpo4V.s 			page 51


 1086 00e4 BDF88230 		ldrh	r3, [sp, #130]
 1087 00e8 9B1A     		subs	r3, r3, r2
 1088 00ea ADF88230 		strh	r3, [sp, #130]	@ movhi
 569:lvgl/src/lv_draw/lv_draw_rect.c ****     draw_area.y2 -= disp_area->y1;
 1089              		.loc 1 569 5 is_stmt 1 view .LVU385
 569:lvgl/src/lv_draw/lv_draw_rect.c ****     draw_area.y2 -= disp_area->y1;
 1090              		.loc 1 569 18 is_stmt 0 view .LVU386
 1091 00ee BDF88430 		ldrh	r3, [sp, #132]
 1092 00f2 5B1A     		subs	r3, r3, r1
 1093 00f4 ADF88430 		strh	r3, [sp, #132]	@ movhi
 570:lvgl/src/lv_draw/lv_draw_rect.c **** 
 1094              		.loc 1 570 5 is_stmt 1 view .LVU387
 570:lvgl/src/lv_draw/lv_draw_rect.c **** 
 1095              		.loc 1 570 18 is_stmt 0 view .LVU388
 1096 00f8 BDF88630 		ldrh	r3, [sp, #134]
 1097 00fc 9B1A     		subs	r3, r3, r2
 1098 00fe ADF88630 		strh	r3, [sp, #134]	@ movhi
 573:lvgl/src/lv_draw/lv_draw_rect.c ****     lv_area_copy(&bg_coords, coords);
 1099              		.loc 1 573 5 is_stmt 1 view .LVU389
 574:lvgl/src/lv_draw/lv_draw_rect.c ****     bg_coords.x1 += 1;
 1100              		.loc 1 574 5 view .LVU390
 1101              	.LVL111:
 1102              	.LBB231:
 1103              	.LBI231:
  97:lvgl/src/lv_draw/../lv_core/../lv_font/../lv_misc/lv_area.h **** {
 1104              		.loc 2 97 20 view .LVU391
 1105              	.LBE231:
  99:lvgl/src/lv_draw/../lv_core/../lv_font/../lv_misc/lv_area.h **** }
 1106              		.loc 2 99 5 view .LVU392
 1107              	.LBB236:
 1108              	.LBB232:
 1109              	.LBI232:
 213:lvgl/src/lv_draw/../lv_core/../lv_font/../lv_misc/lv_mem.h **** {
 1110              		.loc 3 213 44 view .LVU393
 1111              	.LBB233:
 215:lvgl/src/lv_draw/../lv_core/../lv_font/../lv_misc/lv_mem.h ****     const uint8_t * s8 = (const uint8_t *)src;
 1112              		.loc 3 215 5 view .LVU394
 216:lvgl/src/lv_draw/../lv_core/../lv_font/../lv_misc/lv_mem.h **** 
 1113              		.loc 3 216 5 view .LVU395
 218:lvgl/src/lv_draw/../lv_core/../lv_font/../lv_misc/lv_mem.h ****         *d8 = *s8;
 1114              		.loc 3 218 5 view .LVU396
 216:lvgl/src/lv_draw/../lv_core/../lv_font/../lv_misc/lv_mem.h **** 
 1115              		.loc 3 216 21 is_stmt 0 view .LVU397
 1116 0102 4946     		mov	r1, r9
 215:lvgl/src/lv_draw/../lv_core/../lv_font/../lv_misc/lv_mem.h ****     const uint8_t * s8 = (const uint8_t *)src;
 1117              		.loc 3 215 15 view .LVU398
 1118 0104 1EAA     		add	r2, sp, #120
 1119              	.LVL112:
 215:lvgl/src/lv_draw/../lv_core/../lv_font/../lv_misc/lv_mem.h ****     const uint8_t * s8 = (const uint8_t *)src;
 1120              		.loc 3 215 15 view .LVU399
 1121              	.LBE233:
 1122              	.LBE232:
 1123              	.LBE236:
 570:lvgl/src/lv_draw/lv_draw_rect.c **** 
 1124              		.loc 1 570 18 view .LVU400
 1125 0106 0823     		movs	r3, #8
 1126 0108 0CE0     		b	.L74
ARM GAS  D:\Temp\ccGEpo4V.s 			page 52


 1127              	.LVL113:
 1128              	.L176:
 530:lvgl/src/lv_draw/lv_draw_rect.c ****        dsc->shadow_ofs_y == 0 && dsc->shadow_spread <= 0) {
 1129              		.loc 1 530 57 discriminator 1 view .LVU401
 1130 010a 536A     		ldr	r3, [r2, #36]
 1131 010c 002B     		cmp	r3, #0
 1132 010e 86D1     		bne	.L72
 531:lvgl/src/lv_draw/lv_draw_rect.c ****         return;
 1133              		.loc 1 531 37 view .LVU402
 1134 0110 B2F92830 		ldrsh	r3, [r2, #40]
 531:lvgl/src/lv_draw/lv_draw_rect.c ****         return;
 1135              		.loc 1 531 31 view .LVU403
 1136 0114 002B     		cmp	r3, #0
 1137 0116 82DC     		bgt	.L72
 1138 0118 39E3     		b	.L70
 1139              	.LVL114:
 1140              	.L75:
 1141              	.LBB237:
 1142              	.LBB235:
 1143              	.LBB234:
 219:lvgl/src/lv_draw/../lv_core/../lv_font/../lv_misc/lv_mem.h ****         d8++;
 1144              		.loc 3 219 9 is_stmt 1 view .LVU404
 219:lvgl/src/lv_draw/../lv_core/../lv_font/../lv_misc/lv_mem.h ****         d8++;
 1145              		.loc 3 219 15 is_stmt 0 view .LVU405
 1146 011a 11F8010B 		ldrb	r0, [r1], #1	@ zero_extendqisi2
 1147              	.LVL115:
 219:lvgl/src/lv_draw/../lv_core/../lv_font/../lv_misc/lv_mem.h ****         d8++;
 1148              		.loc 3 219 13 view .LVU406
 1149 011e 02F8010B 		strb	r0, [r2], #1
 1150              	.LVL116:
 220:lvgl/src/lv_draw/../lv_core/../lv_font/../lv_misc/lv_mem.h ****         s8++;
 1151              		.loc 3 220 9 is_stmt 1 view .LVU407
 221:lvgl/src/lv_draw/../lv_core/../lv_font/../lv_misc/lv_mem.h ****         len--;
 1152              		.loc 3 221 9 view .LVU408
 222:lvgl/src/lv_draw/../lv_core/../lv_font/../lv_misc/lv_mem.h ****     }
 1153              		.loc 3 222 9 view .LVU409
 222:lvgl/src/lv_draw/../lv_core/../lv_font/../lv_misc/lv_mem.h ****     }
 1154              		.loc 3 222 12 is_stmt 0 view .LVU410
 1155 0122 013B     		subs	r3, r3, #1
 1156              	.LVL117:
 1157              	.L74:
 218:lvgl/src/lv_draw/../lv_core/../lv_font/../lv_misc/lv_mem.h ****         *d8 = *s8;
 1158              		.loc 3 218 10 view .LVU411
 1159 0124 002B     		cmp	r3, #0
 1160 0126 F8D1     		bne	.L75
 1161              		.loc 3 225 5 is_stmt 1 view .LVU412
 1162              	.LVL118:
 1163              		.loc 3 225 5 is_stmt 0 view .LVU413
 1164              	.LBE234:
 1165              	.LBE235:
 1166              	.LBE237:
 575:lvgl/src/lv_draw/lv_draw_rect.c ****     bg_coords.y1 += 1;
 1167              		.loc 1 575 5 is_stmt 1 view .LVU414
 575:lvgl/src/lv_draw/lv_draw_rect.c ****     bg_coords.y1 += 1;
 1168              		.loc 1 575 18 is_stmt 0 view .LVU415
 1169 0128 BDF87820 		ldrh	r2, [sp, #120]
 1170 012c 0132     		adds	r2, r2, #1
ARM GAS  D:\Temp\ccGEpo4V.s 			page 53


 1171 012e 96B2     		uxth	r6, r2
 1172              	.LVL119:
 575:lvgl/src/lv_draw/lv_draw_rect.c ****     bg_coords.y1 += 1;
 1173              		.loc 1 575 18 view .LVU416
 1174 0130 ADF87860 		strh	r6, [sp, #120]	@ movhi
 576:lvgl/src/lv_draw/lv_draw_rect.c ****     bg_coords.x2 -= 1;
 1175              		.loc 1 576 5 is_stmt 1 view .LVU417
 576:lvgl/src/lv_draw/lv_draw_rect.c ****     bg_coords.x2 -= 1;
 1176              		.loc 1 576 18 is_stmt 0 view .LVU418
 1177 0134 BDF87A00 		ldrh	r0, [sp, #122]
 1178 0138 0130     		adds	r0, r0, #1
 1179 013a 80B2     		uxth	r0, r0
 1180 013c ADF87A00 		strh	r0, [sp, #122]	@ movhi
 577:lvgl/src/lv_draw/lv_draw_rect.c ****     bg_coords.y2 -= 1;
 1181              		.loc 1 577 5 is_stmt 1 view .LVU419
 577:lvgl/src/lv_draw/lv_draw_rect.c ****     bg_coords.y2 -= 1;
 1182              		.loc 1 577 18 is_stmt 0 view .LVU420
 1183 0140 BDF87C20 		ldrh	r2, [sp, #124]
 1184 0144 013A     		subs	r2, r2, #1
 1185 0146 92B2     		uxth	r2, r2
 1186 0148 ADF87C20 		strh	r2, [sp, #124]	@ movhi
 578:lvgl/src/lv_draw/lv_draw_rect.c **** 
 1187              		.loc 1 578 5 is_stmt 1 view .LVU421
 578:lvgl/src/lv_draw/lv_draw_rect.c **** 
 1188              		.loc 1 578 18 is_stmt 0 view .LVU422
 1189 014c BDF87E30 		ldrh	r3, [sp, #126]
 1190 0150 013B     		subs	r3, r3, #1
 1191 0152 9BB2     		uxth	r3, r3
 1192 0154 ADF87E30 		strh	r3, [sp, #126]	@ movhi
 581:lvgl/src/lv_draw/lv_draw_rect.c ****     int32_t short_side = LV_MATH_MIN(lv_area_get_width(&bg_coords), lv_area_get_height(&bg_coords))
 1193              		.loc 1 581 5 is_stmt 1 view .LVU423
 581:lvgl/src/lv_draw/lv_draw_rect.c ****     int32_t short_side = LV_MATH_MIN(lv_area_get_width(&bg_coords), lv_area_get_height(&bg_coords))
 1194              		.loc 1 581 23 is_stmt 0 view .LVU424
 1195 0158 B5F90010 		ldrsh	r1, [r5]
 1196              	.LVL120:
 582:lvgl/src/lv_draw/lv_draw_rect.c ****     if(r_bg > short_side >> 1) r_bg = short_side >> 1;
 1197              		.loc 1 582 5 is_stmt 1 view .LVU425
 1198              	.LBB238:
 1199              	.LBI238:
 107:lvgl/src/lv_draw/../lv_core/../lv_font/../lv_misc/lv_area.h **** {
 1200              		.loc 2 107 26 view .LVU426
 1201              	.LBB239:
 109:lvgl/src/lv_draw/../lv_core/../lv_font/../lv_misc/lv_area.h **** }
 1202              		.loc 2 109 5 view .LVU427
 109:lvgl/src/lv_draw/../lv_core/../lv_font/../lv_misc/lv_area.h **** }
 1203              		.loc 2 109 36 is_stmt 0 view .LVU428
 1204 015c 921B     		subs	r2, r2, r6
 1205 015e 92B2     		uxth	r2, r2
 109:lvgl/src/lv_draw/../lv_core/../lv_font/../lv_misc/lv_area.h **** }
 1206              		.loc 2 109 49 view .LVU429
 1207 0160 0132     		adds	r2, r2, #1
 109:lvgl/src/lv_draw/../lv_core/../lv_font/../lv_misc/lv_area.h **** }
 1208              		.loc 2 109 12 view .LVU430
 1209 0162 12B2     		sxth	r2, r2
 1210              	.LVL121:
 109:lvgl/src/lv_draw/../lv_core/../lv_font/../lv_misc/lv_area.h **** }
 1211              		.loc 2 109 12 view .LVU431
ARM GAS  D:\Temp\ccGEpo4V.s 			page 54


 1212              	.LBE239:
 1213              	.LBE238:
 1214              	.LBB240:
 1215              	.LBI240:
 117:lvgl/src/lv_draw/../lv_core/../lv_font/../lv_misc/lv_area.h **** {
 1216              		.loc 2 117 26 is_stmt 1 view .LVU432
 1217              	.LBB241:
 1218              		.loc 2 119 5 view .LVU433
 1219              		.loc 2 119 36 is_stmt 0 view .LVU434
 1220 0164 1E1A     		subs	r6, r3, r0
 1221 0166 B6B2     		uxth	r6, r6
 1222              		.loc 2 119 49 view .LVU435
 1223 0168 0136     		adds	r6, r6, #1
 1224              		.loc 2 119 12 view .LVU436
 1225 016a 36B2     		sxth	r6, r6
 1226              	.LVL122:
 1227              		.loc 2 119 12 view .LVU437
 1228              	.LBE241:
 1229              	.LBE240:
 582:lvgl/src/lv_draw/lv_draw_rect.c ****     if(r_bg > short_side >> 1) r_bg = short_side >> 1;
 1230              		.loc 1 582 26 view .LVU438
 1231 016c B242     		cmp	r2, r6
 1232 016e 00DA     		bge	.L77
 1233              	.LVL123:
 109:lvgl/src/lv_draw/../lv_core/../lv_font/../lv_misc/lv_area.h **** }
 1234              		.loc 2 109 5 is_stmt 1 view .LVU439
 582:lvgl/src/lv_draw/lv_draw_rect.c ****     if(r_bg > short_side >> 1) r_bg = short_side >> 1;
 1235              		.loc 1 582 26 is_stmt 0 view .LVU440
 1236 0170 1646     		mov	r6, r2
 1237              	.L77:
 1238              	.LVL124:
 583:lvgl/src/lv_draw/lv_draw_rect.c **** 
 1239              		.loc 1 583 5 is_stmt 1 discriminator 4 view .LVU441
 583:lvgl/src/lv_draw/lv_draw_rect.c **** 
 1240              		.loc 1 583 26 is_stmt 0 discriminator 4 view .LVU442
 1241 0172 7610     		asrs	r6, r6, #1
 1242              	.LVL125:
 583:lvgl/src/lv_draw/lv_draw_rect.c **** 
 1243              		.loc 1 583 7 discriminator 4 view .LVU443
 1244 0174 8E42     		cmp	r6, r1
 1245 0176 00DB     		blt	.L78
 581:lvgl/src/lv_draw/lv_draw_rect.c ****     int32_t short_side = LV_MATH_MIN(lv_area_get_width(&bg_coords), lv_area_get_height(&bg_coords))
 1246              		.loc 1 581 13 view .LVU444
 1247 0178 0E46     		mov	r6, r1
 1248              	.L78:
 1249              	.LVL126:
 585:lvgl/src/lv_draw/lv_draw_rect.c ****     short_side = LV_MATH_MIN(lv_area_get_width(&sh_rect_area), lv_area_get_height(&sh_rect_area));
 1250              		.loc 1 585 5 is_stmt 1 view .LVU445
 586:lvgl/src/lv_draw/lv_draw_rect.c ****     if(r_sh > short_side >> 1) r_sh = short_side >> 1;
 1251              		.loc 1 586 5 view .LVU446
 1252              	.LBB242:
 1253              	.LBI242:
 107:lvgl/src/lv_draw/../lv_core/../lv_font/../lv_misc/lv_area.h **** {
 1254              		.loc 2 107 26 view .LVU447
 1255              	.LBB243:
 109:lvgl/src/lv_draw/../lv_core/../lv_font/../lv_misc/lv_area.h **** }
 1256              		.loc 2 109 5 view .LVU448
ARM GAS  D:\Temp\ccGEpo4V.s 			page 55


 109:lvgl/src/lv_draw/../lv_core/../lv_font/../lv_misc/lv_area.h **** }
 1257              		.loc 2 109 31 is_stmt 0 view .LVU449
 1258 017a BDF89430 		ldrh	r3, [sp, #148]
 109:lvgl/src/lv_draw/../lv_core/../lv_font/../lv_misc/lv_area.h **** }
 1259              		.loc 2 109 44 view .LVU450
 1260 017e BDF89020 		ldrh	r2, [sp, #144]
 109:lvgl/src/lv_draw/../lv_core/../lv_font/../lv_misc/lv_area.h **** }
 1261              		.loc 2 109 36 view .LVU451
 1262 0182 9B1A     		subs	r3, r3, r2
 1263 0184 9BB2     		uxth	r3, r3
 109:lvgl/src/lv_draw/../lv_core/../lv_font/../lv_misc/lv_area.h **** }
 1264              		.loc 2 109 49 view .LVU452
 1265 0186 0133     		adds	r3, r3, #1
 109:lvgl/src/lv_draw/../lv_core/../lv_font/../lv_misc/lv_area.h **** }
 1266              		.loc 2 109 12 view .LVU453
 1267 0188 1BB2     		sxth	r3, r3
 1268              	.LVL127:
 109:lvgl/src/lv_draw/../lv_core/../lv_font/../lv_misc/lv_area.h **** }
 1269              		.loc 2 109 12 view .LVU454
 1270              	.LBE243:
 1271              	.LBE242:
 1272              	.LBB244:
 1273              	.LBI244:
 117:lvgl/src/lv_draw/../lv_core/../lv_font/../lv_misc/lv_area.h **** {
 1274              		.loc 2 117 26 is_stmt 1 view .LVU455
 1275              	.LBB245:
 1276              		.loc 2 119 5 view .LVU456
 1277              		.loc 2 119 31 is_stmt 0 view .LVU457
 1278 018a BDF89680 		ldrh	r8, [sp, #150]
 1279              	.LVL128:
 1280              		.loc 2 119 44 view .LVU458
 1281 018e BDF89220 		ldrh	r2, [sp, #146]
 1282              		.loc 2 119 36 view .LVU459
 1283 0192 A8EB0208 		sub	r8, r8, r2
 1284 0196 1FFA88F8 		uxth	r8, r8
 1285              		.loc 2 119 49 view .LVU460
 1286 019a 08F10108 		add	r8, r8, #1
 1287              		.loc 2 119 12 view .LVU461
 1288 019e 0FFA88F8 		sxth	r8, r8
 1289              	.LVL129:
 1290              		.loc 2 119 12 view .LVU462
 1291              	.LBE245:
 1292              	.LBE244:
 586:lvgl/src/lv_draw/lv_draw_rect.c ****     if(r_sh > short_side >> 1) r_sh = short_side >> 1;
 1293              		.loc 1 586 18 view .LVU463
 1294 01a2 9845     		cmp	r8, r3
 1295 01a4 00DD     		ble	.L80
 1296              	.LVL130:
 109:lvgl/src/lv_draw/../lv_core/../lv_font/../lv_misc/lv_area.h **** }
 1297              		.loc 2 109 5 is_stmt 1 view .LVU464
 586:lvgl/src/lv_draw/lv_draw_rect.c ****     if(r_sh > short_side >> 1) r_sh = short_side >> 1;
 1298              		.loc 1 586 18 is_stmt 0 view .LVU465
 1299 01a6 9846     		mov	r8, r3
 1300              	.L80:
 1301              	.LVL131:
 587:lvgl/src/lv_draw/lv_draw_rect.c **** 
 1302              		.loc 1 587 5 is_stmt 1 discriminator 4 view .LVU466
ARM GAS  D:\Temp\ccGEpo4V.s 			page 56


 587:lvgl/src/lv_draw/lv_draw_rect.c **** 
 1303              		.loc 1 587 26 is_stmt 0 discriminator 4 view .LVU467
 1304 01a8 4FEA6808 		asr	r8, r8, #1
 1305              	.LVL132:
 587:lvgl/src/lv_draw/lv_draw_rect.c **** 
 1306              		.loc 1 587 7 discriminator 4 view .LVU468
 1307 01ac 8845     		cmp	r8, r1
 1308 01ae 00DB     		blt	.L81
 585:lvgl/src/lv_draw/lv_draw_rect.c ****     short_side = LV_MATH_MIN(lv_area_get_width(&sh_rect_area), lv_area_get_height(&sh_rect_area));
 1309              		.loc 1 585 13 view .LVU469
 1310 01b0 8846     		mov	r8, r1
 1311              	.L81:
 1312              	.LVL133:
 589:lvgl/src/lv_draw/lv_draw_rect.c **** 
 1313              		.loc 1 589 5 is_stmt 1 view .LVU470
 589:lvgl/src/lv_draw/lv_draw_rect.c **** 
 1314              		.loc 1 589 13 is_stmt 0 view .LVU471
 1315 01b2 4444     		add	r4, r4, r8
 1316              	.LVL134:
 591:lvgl/src/lv_draw/lv_draw_rect.c **** 
 1317              		.loc 1 591 5 is_stmt 1 view .LVU472
 612:lvgl/src/lv_draw/lv_draw_rect.c ****     shadow_draw_corner_buf(&sh_rect_area, (uint16_t *)sh_buf, dsc->shadow_width, r_sh);
 1318              		.loc 1 612 5 view .LVU473
 612:lvgl/src/lv_draw/lv_draw_rect.c ****     shadow_draw_corner_buf(&sh_rect_area, (uint16_t *)sh_buf, dsc->shadow_width, r_sh);
 1319              		.loc 1 612 42 is_stmt 0 view .LVU474
 1320 01b4 04FB04F0 		mul	r0, r4, r4
 612:lvgl/src/lv_draw/lv_draw_rect.c ****     shadow_draw_corner_buf(&sh_rect_area, (uint16_t *)sh_buf, dsc->shadow_width, r_sh);
 1321              		.loc 1 612 14 view .LVU475
 1322 01b8 4000     		lsls	r0, r0, #1
 1323 01ba FFF7FEFF 		bl	_lv_mem_buf_get
 1324              	.LVL135:
 1325 01be 0146     		mov	r1, r0
 1326 01c0 0890     		str	r0, [sp, #32]
 1327              	.LVL136:
 613:lvgl/src/lv_draw/lv_draw_rect.c **** #endif
 1328              		.loc 1 613 5 is_stmt 1 view .LVU476
 1329 01c2 0FFA88F3 		sxth	r3, r8
 1330 01c6 B5F92220 		ldrsh	r2, [r5, #34]
 1331 01ca 24A8     		add	r0, sp, #144
 1332              	.LVL137:
 613:lvgl/src/lv_draw/lv_draw_rect.c **** #endif
 1333              		.loc 1 613 5 is_stmt 0 view .LVU477
 1334 01cc FFF7FEFF 		bl	shadow_draw_corner_buf
 1335              	.LVL138:
 616:lvgl/src/lv_draw/lv_draw_rect.c ****     lv_coord_t w_half = sh_area.x1 + lv_area_get_width(&sh_area) / 2;
 1336              		.loc 1 616 5 is_stmt 1 view .LVU478
 616:lvgl/src/lv_draw/lv_draw_rect.c ****     lv_coord_t w_half = sh_area.x1 + lv_area_get_width(&sh_area) / 2;
 1337              		.loc 1 616 32 is_stmt 0 view .LVU479
 1338 01d0 BDF88A20 		ldrh	r2, [sp, #138]
 1339              	.LVL139:
 1340              	.LBB246:
 1341              	.LBI246:
 117:lvgl/src/lv_draw/../lv_core/../lv_font/../lv_misc/lv_area.h **** {
 1342              		.loc 2 117 26 is_stmt 1 view .LVU480
 1343              	.LBB247:
 1344              		.loc 2 119 5 view .LVU481
 1345              		.loc 2 119 31 is_stmt 0 view .LVU482
ARM GAS  D:\Temp\ccGEpo4V.s 			page 57


 1346 01d4 BDF88E30 		ldrh	r3, [sp, #142]
 1347              		.loc 2 119 36 view .LVU483
 1348 01d8 9B1A     		subs	r3, r3, r2
 1349 01da 9BB2     		uxth	r3, r3
 1350              		.loc 2 119 49 view .LVU484
 1351 01dc 0133     		adds	r3, r3, #1
 1352              		.loc 2 119 12 view .LVU485
 1353 01de 1BB2     		sxth	r3, r3
 1354              	.LVL140:
 1355              		.loc 2 119 12 view .LVU486
 1356              	.LBE247:
 1357              	.LBE246:
 616:lvgl/src/lv_draw/lv_draw_rect.c ****     lv_coord_t w_half = sh_area.x1 + lv_area_get_width(&sh_area) / 2;
 1358              		.loc 1 616 36 view .LVU487
 1359 01e0 03EBD373 		add	r3, r3, r3, lsr #31
 1360 01e4 02EB6303 		add	r3, r2, r3, asr #1
 1361 01e8 9BB2     		uxth	r3, r3
 1362 01ea 0E93     		str	r3, [sp, #56]
 616:lvgl/src/lv_draw/lv_draw_rect.c ****     lv_coord_t w_half = sh_area.x1 + lv_area_get_width(&sh_area) / 2;
 1363              		.loc 1 616 16 view .LVU488
 1364 01ec 0FFA83FB 		sxth	fp, r3
 1365              	.LVL141:
 617:lvgl/src/lv_draw/lv_draw_rect.c **** 
 1366              		.loc 1 617 5 is_stmt 1 view .LVU489
 617:lvgl/src/lv_draw/lv_draw_rect.c **** 
 1367              		.loc 1 617 32 is_stmt 0 view .LVU490
 1368 01f0 BDF88820 		ldrh	r2, [sp, #136]
 1369              	.LVL142:
 1370              	.LBB248:
 1371              	.LBI248:
 107:lvgl/src/lv_draw/../lv_core/../lv_font/../lv_misc/lv_area.h **** {
 1372              		.loc 2 107 26 is_stmt 1 view .LVU491
 1373              	.LBB249:
 109:lvgl/src/lv_draw/../lv_core/../lv_font/../lv_misc/lv_area.h **** }
 1374              		.loc 2 109 5 view .LVU492
 109:lvgl/src/lv_draw/../lv_core/../lv_font/../lv_misc/lv_area.h **** }
 1375              		.loc 2 109 31 is_stmt 0 view .LVU493
 1376 01f4 BDF88C30 		ldrh	r3, [sp, #140]
 109:lvgl/src/lv_draw/../lv_core/../lv_font/../lv_misc/lv_area.h **** }
 1377              		.loc 2 109 36 view .LVU494
 1378 01f8 9B1A     		subs	r3, r3, r2
 1379 01fa 9BB2     		uxth	r3, r3
 109:lvgl/src/lv_draw/../lv_core/../lv_font/../lv_misc/lv_area.h **** }
 1380              		.loc 2 109 49 view .LVU495
 1381 01fc 0133     		adds	r3, r3, #1
 109:lvgl/src/lv_draw/../lv_core/../lv_font/../lv_misc/lv_area.h **** }
 1382              		.loc 2 109 12 view .LVU496
 1383 01fe 1BB2     		sxth	r3, r3
 1384              	.LVL143:
 109:lvgl/src/lv_draw/../lv_core/../lv_font/../lv_misc/lv_area.h **** }
 1385              		.loc 2 109 12 view .LVU497
 1386              	.LBE249:
 1387              	.LBE248:
 617:lvgl/src/lv_draw/lv_draw_rect.c **** 
 1388              		.loc 1 617 36 view .LVU498
 1389 0200 03EBD373 		add	r3, r3, r3, lsr #31
 1390 0204 02EB6303 		add	r3, r2, r3, asr #1
ARM GAS  D:\Temp\ccGEpo4V.s 			page 58


 1391 0208 9BB2     		uxth	r3, r3
 1392 020a 0F93     		str	r3, [sp, #60]
 617:lvgl/src/lv_draw/lv_draw_rect.c **** 
 1393              		.loc 1 617 16 view .LVU499
 1394 020c 1BB2     		sxth	r3, r3
 1395 020e 0D93     		str	r3, [sp, #52]
 1396              	.LVL144:
 619:lvgl/src/lv_draw/lv_draw_rect.c ****     if(lv_draw_mask_get_cnt() > 0) simple_mode = false;
 1397              		.loc 1 619 5 is_stmt 1 view .LVU500
 620:lvgl/src/lv_draw/lv_draw_rect.c ****     else if(dsc->shadow_ofs_x != 0 || dsc->shadow_ofs_y != 0) simple_mode = false;
 1398              		.loc 1 620 5 view .LVU501
 620:lvgl/src/lv_draw/lv_draw_rect.c ****     else if(dsc->shadow_ofs_x != 0 || dsc->shadow_ofs_y != 0) simple_mode = false;
 1399              		.loc 1 620 8 is_stmt 0 view .LVU502
 1400 0210 FFF7FEFF 		bl	lv_draw_mask_get_cnt
 1401              	.LVL145:
 620:lvgl/src/lv_draw/lv_draw_rect.c ****     else if(dsc->shadow_ofs_x != 0 || dsc->shadow_ofs_y != 0) simple_mode = false;
 1402              		.loc 1 620 7 view .LVU503
 1403 0214 40B9     		cbnz	r0, .L158
 621:lvgl/src/lv_draw/lv_draw_rect.c ****     else if(dsc->shadow_spread != 0) simple_mode = false;
 1404              		.loc 1 621 10 is_stmt 1 view .LVU504
 621:lvgl/src/lv_draw/lv_draw_rect.c ****     else if(dsc->shadow_spread != 0) simple_mode = false;
 1405              		.loc 1 621 36 is_stmt 0 view .LVU505
 1406 0216 6B6A     		ldr	r3, [r5, #36]
 621:lvgl/src/lv_draw/lv_draw_rect.c ****     else if(dsc->shadow_spread != 0) simple_mode = false;
 1407              		.loc 1 621 12 view .LVU506
 1408 0218 002B     		cmp	r3, #0
 1409 021a 76D1     		bne	.L159
 622:lvgl/src/lv_draw/lv_draw_rect.c **** 
 1410              		.loc 1 622 10 is_stmt 1 view .LVU507
 622:lvgl/src/lv_draw/lv_draw_rect.c **** 
 1411              		.loc 1 622 16 is_stmt 0 view .LVU508
 1412 021c B5F92830 		ldrsh	r3, [r5, #40]
 622:lvgl/src/lv_draw/lv_draw_rect.c **** 
 1413              		.loc 1 622 12 view .LVU509
 1414 0220 23B1     		cbz	r3, .L82
 622:lvgl/src/lv_draw/lv_draw_rect.c **** 
 1415              		.loc 1 622 50 view .LVU510
 1416 0222 0023     		movs	r3, #0
 1417 0224 0793     		str	r3, [sp, #28]
 1418 0226 01E0     		b	.L82
 1419              	.L158:
 620:lvgl/src/lv_draw/lv_draw_rect.c ****     else if(dsc->shadow_ofs_x != 0 || dsc->shadow_ofs_y != 0) simple_mode = false;
 1420              		.loc 1 620 48 view .LVU511
 1421 0228 0023     		movs	r3, #0
 1422 022a 0793     		str	r3, [sp, #28]
 1423              	.L82:
 1424              	.LVL146:
 625:lvgl/src/lv_draw/lv_draw_rect.c ****     lv_opa_t * mask_buf = _lv_mem_buf_get(lv_area_get_width(&sh_area));
 1425              		.loc 1 625 5 is_stmt 1 view .LVU512
 626:lvgl/src/lv_draw/lv_draw_rect.c **** 
 1426              		.loc 1 626 5 view .LVU513
 1427              	.LBB250:
 1428              	.LBI250:
 107:lvgl/src/lv_draw/../lv_core/../lv_font/../lv_misc/lv_area.h **** {
 1429              		.loc 2 107 26 view .LVU514
 1430              	.LBB251:
 109:lvgl/src/lv_draw/../lv_core/../lv_font/../lv_misc/lv_area.h **** }
ARM GAS  D:\Temp\ccGEpo4V.s 			page 59


 1431              		.loc 2 109 5 view .LVU515
 109:lvgl/src/lv_draw/../lv_core/../lv_font/../lv_misc/lv_area.h **** }
 1432              		.loc 2 109 31 is_stmt 0 view .LVU516
 1433 022c BDF88C00 		ldrh	r0, [sp, #140]
 109:lvgl/src/lv_draw/../lv_core/../lv_font/../lv_misc/lv_area.h **** }
 1434              		.loc 2 109 44 view .LVU517
 1435 0230 BDF88830 		ldrh	r3, [sp, #136]
 109:lvgl/src/lv_draw/../lv_core/../lv_font/../lv_misc/lv_area.h **** }
 1436              		.loc 2 109 36 view .LVU518
 1437 0234 C01A     		subs	r0, r0, r3
 1438 0236 80B2     		uxth	r0, r0
 109:lvgl/src/lv_draw/../lv_core/../lv_font/../lv_misc/lv_area.h **** }
 1439              		.loc 2 109 49 view .LVU519
 1440 0238 0130     		adds	r0, r0, #1
 1441              	.LVL147:
 109:lvgl/src/lv_draw/../lv_core/../lv_font/../lv_misc/lv_area.h **** }
 1442              		.loc 2 109 49 view .LVU520
 1443              	.LBE251:
 1444              	.LBE250:
 626:lvgl/src/lv_draw/lv_draw_rect.c **** 
 1445              		.loc 1 626 27 view .LVU521
 1446 023a 00B2     		sxth	r0, r0
 1447 023c FFF7FEFF 		bl	_lv_mem_buf_get
 1448              	.LVL148:
 1449 0240 0590     		str	r0, [sp, #20]
 1450              	.LVL149:
 628:lvgl/src/lv_draw/lv_draw_rect.c ****     lv_draw_mask_radius_init(&mask_rout_param, &bg_coords, r_bg, true);
 1451              		.loc 1 628 5 is_stmt 1 view .LVU522
 629:lvgl/src/lv_draw/lv_draw_rect.c **** 
 1452              		.loc 1 629 5 view .LVU523
 1453 0242 33B2     		sxth	r3, r6
 1454 0244 1A46     		mov	r2, r3
 1455 0246 0993     		str	r3, [sp, #36]
 1456 0248 0123     		movs	r3, #1
 1457 024a 1EA9     		add	r1, sp, #120
 1458 024c 17A8     		add	r0, sp, #92
 1459              	.LVL150:
 629:lvgl/src/lv_draw/lv_draw_rect.c **** 
 1460              		.loc 1 629 5 is_stmt 0 view .LVU524
 1461 024e FFF7FEFF 		bl	lv_draw_mask_radius_init
 1462              	.LVL151:
 631:lvgl/src/lv_draw/lv_draw_rect.c **** 
 1463              		.loc 1 631 5 is_stmt 1 view .LVU525
 631:lvgl/src/lv_draw/lv_draw_rect.c **** 
 1464              		.loc 1 631 28 is_stmt 0 view .LVU526
 1465 0252 0021     		movs	r1, #0
 1466 0254 17A8     		add	r0, sp, #92
 1467 0256 FFF7FEFF 		bl	lv_draw_mask_add
 1468              	.LVL152:
 1469 025a 0A90     		str	r0, [sp, #40]
 1470              	.LVL153:
 633:lvgl/src/lv_draw/lv_draw_rect.c **** 
 1471              		.loc 1 633 5 is_stmt 1 view .LVU527
 636:lvgl/src/lv_draw/lv_draw_rect.c ****     lv_opa_t * sh_buf_tmp;
 1472              		.loc 1 636 5 view .LVU528
 637:lvgl/src/lv_draw/lv_draw_rect.c ****     a.x2 = sh_area.x2;
 1473              		.loc 1 637 5 view .LVU529
ARM GAS  D:\Temp\ccGEpo4V.s 			page 60


 638:lvgl/src/lv_draw/lv_draw_rect.c ****     a.x1 = a.x2 - corner_size + 1;
 1474              		.loc 1 638 5 view .LVU530
 638:lvgl/src/lv_draw/lv_draw_rect.c ****     a.x1 = a.x2 - corner_size + 1;
 1475              		.loc 1 638 19 is_stmt 0 view .LVU531
 1476 025c BDF98C30 		ldrsh	r3, [sp, #140]
 638:lvgl/src/lv_draw/lv_draw_rect.c ****     a.x1 = a.x2 - corner_size + 1;
 1477              		.loc 1 638 10 view .LVU532
 1478 0260 ADF85830 		strh	r3, [sp, #88]	@ movhi
 639:lvgl/src/lv_draw/lv_draw_rect.c ****     a.y1 = sh_area.y1;
 1479              		.loc 1 639 5 is_stmt 1 view .LVU533
 639:lvgl/src/lv_draw/lv_draw_rect.c ****     a.y1 = sh_area.y1;
 1480              		.loc 1 639 13 is_stmt 0 view .LVU534
 1481 0264 9BB2     		uxth	r3, r3
 639:lvgl/src/lv_draw/lv_draw_rect.c ****     a.y1 = sh_area.y1;
 1482              		.loc 1 639 17 view .LVU535
 1483 0266 A6B2     		uxth	r6, r4
 1484              	.LVL154:
 639:lvgl/src/lv_draw/lv_draw_rect.c ****     a.y1 = sh_area.y1;
 1485              		.loc 1 639 17 view .LVU536
 1486 0268 9B1B     		subs	r3, r3, r6
 1487 026a 9BB2     		uxth	r3, r3
 639:lvgl/src/lv_draw/lv_draw_rect.c ****     a.y1 = sh_area.y1;
 1488              		.loc 1 639 31 view .LVU537
 1489 026c 0133     		adds	r3, r3, #1
 639:lvgl/src/lv_draw/lv_draw_rect.c ****     a.y1 = sh_area.y1;
 1490              		.loc 1 639 10 view .LVU538
 1491 026e ADF85430 		strh	r3, [sp, #84]	@ movhi
 640:lvgl/src/lv_draw/lv_draw_rect.c ****     a.y2 = a.y1 + corner_size - 1;
 1492              		.loc 1 640 5 is_stmt 1 view .LVU539
 640:lvgl/src/lv_draw/lv_draw_rect.c ****     a.y2 = a.y1 + corner_size - 1;
 1493              		.loc 1 640 19 is_stmt 0 view .LVU540
 1494 0272 BDF98A30 		ldrsh	r3, [sp, #138]
 640:lvgl/src/lv_draw/lv_draw_rect.c ****     a.y2 = a.y1 + corner_size - 1;
 1495              		.loc 1 640 10 view .LVU541
 1496 0276 ADF85630 		strh	r3, [sp, #86]	@ movhi
 641:lvgl/src/lv_draw/lv_draw_rect.c **** 
 1497              		.loc 1 641 5 is_stmt 1 view .LVU542
 641:lvgl/src/lv_draw/lv_draw_rect.c **** 
 1498              		.loc 1 641 17 is_stmt 0 view .LVU543
 1499 027a 16FA83F3 		uxtah	r3, r6, r3
 1500 027e 9BB2     		uxth	r3, r3
 641:lvgl/src/lv_draw/lv_draw_rect.c **** 
 1501              		.loc 1 641 31 view .LVU544
 1502 0280 013B     		subs	r3, r3, #1
 641:lvgl/src/lv_draw/lv_draw_rect.c **** 
 1503              		.loc 1 641 10 view .LVU545
 1504 0282 ADF85A30 		strh	r3, [sp, #90]	@ movhi
 643:lvgl/src/lv_draw/lv_draw_rect.c ****     bool has_com = _lv_area_intersect(&ca, &a, clip);
 1505              		.loc 1 643 5 is_stmt 1 view .LVU546
 644:lvgl/src/lv_draw/lv_draw_rect.c ****     if(has_com && _lv_area_is_in(&a, &bg_coords, r_bg) == false) {
 1506              		.loc 1 644 5 view .LVU547
 644:lvgl/src/lv_draw/lv_draw_rect.c ****     if(has_com && _lv_area_is_in(&a, &bg_coords, r_bg) == false) {
 1507              		.loc 1 644 20 is_stmt 0 view .LVU548
 1508 0286 069A     		ldr	r2, [sp, #24]
 1509 0288 15A9     		add	r1, sp, #84
 1510 028a 13A8     		add	r0, sp, #76
 1511 028c FFF7FEFF 		bl	_lv_area_intersect
ARM GAS  D:\Temp\ccGEpo4V.s 			page 61


 1512              	.LVL155:
 645:lvgl/src/lv_draw/lv_draw_rect.c ****         /*Avoid overlap in the middle with large radius*/
 1513              		.loc 1 645 5 is_stmt 1 view .LVU549
 645:lvgl/src/lv_draw/lv_draw_rect.c ****         /*Avoid overlap in the middle with large radius*/
 1514              		.loc 1 645 7 is_stmt 0 view .LVU550
 1515 0290 0028     		cmp	r0, #0
 1516 0292 3DD1     		bne	.L177
 1517              	.LVL156:
 1518              	.L83:
 675:lvgl/src/lv_draw/lv_draw_rect.c ****     a.x1 = a.x2 - corner_size + 1;
 1519              		.loc 1 675 5 is_stmt 1 view .LVU551
 675:lvgl/src/lv_draw/lv_draw_rect.c ****     a.x1 = a.x2 - corner_size + 1;
 1520              		.loc 1 675 19 is_stmt 0 view .LVU552
 1521 0294 BDF98C30 		ldrsh	r3, [sp, #140]
 675:lvgl/src/lv_draw/lv_draw_rect.c ****     a.x1 = a.x2 - corner_size + 1;
 1522              		.loc 1 675 10 view .LVU553
 1523 0298 ADF85830 		strh	r3, [sp, #88]	@ movhi
 676:lvgl/src/lv_draw/lv_draw_rect.c ****     a.y1 = sh_area.y2 - corner_size + 1;
 1524              		.loc 1 676 5 is_stmt 1 view .LVU554
 676:lvgl/src/lv_draw/lv_draw_rect.c ****     a.y1 = sh_area.y2 - corner_size + 1;
 1525              		.loc 1 676 13 is_stmt 0 view .LVU555
 1526 029c 9BB2     		uxth	r3, r3
 676:lvgl/src/lv_draw/lv_draw_rect.c ****     a.y1 = sh_area.y2 - corner_size + 1;
 1527              		.loc 1 676 17 view .LVU556
 1528 029e 9B1B     		subs	r3, r3, r6
 1529 02a0 9BB2     		uxth	r3, r3
 676:lvgl/src/lv_draw/lv_draw_rect.c ****     a.y1 = sh_area.y2 - corner_size + 1;
 1530              		.loc 1 676 31 view .LVU557
 1531 02a2 0133     		adds	r3, r3, #1
 676:lvgl/src/lv_draw/lv_draw_rect.c ****     a.y1 = sh_area.y2 - corner_size + 1;
 1532              		.loc 1 676 10 view .LVU558
 1533 02a4 ADF85430 		strh	r3, [sp, #84]	@ movhi
 677:lvgl/src/lv_draw/lv_draw_rect.c ****     a.y2 = sh_area.y2;
 1534              		.loc 1 677 5 is_stmt 1 view .LVU559
 677:lvgl/src/lv_draw/lv_draw_rect.c ****     a.y2 = sh_area.y2;
 1535              		.loc 1 677 19 is_stmt 0 view .LVU560
 1536 02a8 BDF98E20 		ldrsh	r2, [sp, #142]
 1537 02ac 93B2     		uxth	r3, r2
 677:lvgl/src/lv_draw/lv_draw_rect.c ****     a.y2 = sh_area.y2;
 1538              		.loc 1 677 23 view .LVU561
 1539 02ae 9B1B     		subs	r3, r3, r6
 1540 02b0 9BB2     		uxth	r3, r3
 677:lvgl/src/lv_draw/lv_draw_rect.c ****     a.y2 = sh_area.y2;
 1541              		.loc 1 677 37 view .LVU562
 1542 02b2 0133     		adds	r3, r3, #1
 677:lvgl/src/lv_draw/lv_draw_rect.c ****     a.y2 = sh_area.y2;
 1543              		.loc 1 677 10 view .LVU563
 1544 02b4 ADF85630 		strh	r3, [sp, #86]	@ movhi
 678:lvgl/src/lv_draw/lv_draw_rect.c **** 
 1545              		.loc 1 678 5 is_stmt 1 view .LVU564
 678:lvgl/src/lv_draw/lv_draw_rect.c **** 
 1546              		.loc 1 678 10 is_stmt 0 view .LVU565
 1547 02b8 ADF85A20 		strh	r2, [sp, #90]	@ movhi
 680:lvgl/src/lv_draw/lv_draw_rect.c ****     if(has_com && _lv_area_is_in(&a, &bg_coords, r_bg) == false) {
 1548              		.loc 1 680 5 is_stmt 1 view .LVU566
 680:lvgl/src/lv_draw/lv_draw_rect.c ****     if(has_com && _lv_area_is_in(&a, &bg_coords, r_bg) == false) {
 1549              		.loc 1 680 15 is_stmt 0 view .LVU567
ARM GAS  D:\Temp\ccGEpo4V.s 			page 62


 1550 02bc 069A     		ldr	r2, [sp, #24]
 1551 02be 15A9     		add	r1, sp, #84
 1552 02c0 13A8     		add	r0, sp, #76
 1553 02c2 FFF7FEFF 		bl	_lv_area_intersect
 1554              	.LVL157:
 681:lvgl/src/lv_draw/lv_draw_rect.c ****         /*Avoid overlap in the middle with large radius*/
 1555              		.loc 1 681 5 is_stmt 1 view .LVU568
 681:lvgl/src/lv_draw/lv_draw_rect.c ****         /*Avoid overlap in the middle with large radius*/
 1556              		.loc 1 681 7 is_stmt 0 view .LVU569
 1557 02c6 0028     		cmp	r0, #0
 1558 02c8 40F09B80 		bne	.L178
 1559              	.LVL158:
 1560              	.L91:
 712:lvgl/src/lv_draw/lv_draw_rect.c ****     a.x1 = a.x2 - corner_size + 1;
 1561              		.loc 1 712 5 is_stmt 1 view .LVU570
 712:lvgl/src/lv_draw/lv_draw_rect.c ****     a.x1 = a.x2 - corner_size + 1;
 1562              		.loc 1 712 19 is_stmt 0 view .LVU571
 1563 02cc BDF98C30 		ldrsh	r3, [sp, #140]
 712:lvgl/src/lv_draw/lv_draw_rect.c ****     a.x1 = a.x2 - corner_size + 1;
 1564              		.loc 1 712 10 view .LVU572
 1565 02d0 ADF85830 		strh	r3, [sp, #88]	@ movhi
 713:lvgl/src/lv_draw/lv_draw_rect.c ****     a.y1 = sh_area.y1 + corner_size;
 1566              		.loc 1 713 5 is_stmt 1 view .LVU573
 713:lvgl/src/lv_draw/lv_draw_rect.c ****     a.y1 = sh_area.y1 + corner_size;
 1567              		.loc 1 713 13 is_stmt 0 view .LVU574
 1568 02d4 9BB2     		uxth	r3, r3
 713:lvgl/src/lv_draw/lv_draw_rect.c ****     a.y1 = sh_area.y1 + corner_size;
 1569              		.loc 1 713 17 view .LVU575
 1570 02d6 9B1B     		subs	r3, r3, r6
 1571 02d8 9BB2     		uxth	r3, r3
 713:lvgl/src/lv_draw/lv_draw_rect.c ****     a.y1 = sh_area.y1 + corner_size;
 1572              		.loc 1 713 31 view .LVU576
 1573 02da 0133     		adds	r3, r3, #1
 713:lvgl/src/lv_draw/lv_draw_rect.c ****     a.y1 = sh_area.y1 + corner_size;
 1574              		.loc 1 713 10 view .LVU577
 1575 02dc ADF85430 		strh	r3, [sp, #84]	@ movhi
 714:lvgl/src/lv_draw/lv_draw_rect.c ****     a.y2 = sh_area.y2 - corner_size;
 1576              		.loc 1 714 5 is_stmt 1 view .LVU578
 714:lvgl/src/lv_draw/lv_draw_rect.c ****     a.y2 = sh_area.y2 - corner_size;
 1577              		.loc 1 714 19 is_stmt 0 view .LVU579
 1578 02e0 BDF88A30 		ldrh	r3, [sp, #138]
 714:lvgl/src/lv_draw/lv_draw_rect.c ****     a.y2 = sh_area.y2 - corner_size;
 1579              		.loc 1 714 23 view .LVU580
 1580 02e4 3344     		add	r3, r3, r6
 714:lvgl/src/lv_draw/lv_draw_rect.c ****     a.y2 = sh_area.y2 - corner_size;
 1581              		.loc 1 714 10 view .LVU581
 1582 02e6 ADF85630 		strh	r3, [sp, #86]	@ movhi
 715:lvgl/src/lv_draw/lv_draw_rect.c **** 
 1583              		.loc 1 715 5 is_stmt 1 view .LVU582
 715:lvgl/src/lv_draw/lv_draw_rect.c **** 
 1584              		.loc 1 715 19 is_stmt 0 view .LVU583
 1585 02ea BDF88E30 		ldrh	r3, [sp, #142]
 715:lvgl/src/lv_draw/lv_draw_rect.c **** 
 1586              		.loc 1 715 23 view .LVU584
 1587 02ee 9B1B     		subs	r3, r3, r6
 715:lvgl/src/lv_draw/lv_draw_rect.c **** 
 1588              		.loc 1 715 10 view .LVU585
ARM GAS  D:\Temp\ccGEpo4V.s 			page 63


 1589 02f0 ADF85A30 		strh	r3, [sp, #90]	@ movhi
 717:lvgl/src/lv_draw/lv_draw_rect.c ****     if(has_com && _lv_area_is_in(&a, &bg_coords, r_bg) == false) {
 1590              		.loc 1 717 5 is_stmt 1 view .LVU586
 717:lvgl/src/lv_draw/lv_draw_rect.c ****     if(has_com && _lv_area_is_in(&a, &bg_coords, r_bg) == false) {
 1591              		.loc 1 717 15 is_stmt 0 view .LVU587
 1592 02f4 069A     		ldr	r2, [sp, #24]
 1593 02f6 15A9     		add	r1, sp, #84
 1594 02f8 13A8     		add	r0, sp, #76
 1595 02fa FFF7FEFF 		bl	_lv_area_intersect
 1596              	.LVL159:
 718:lvgl/src/lv_draw/lv_draw_rect.c ****         if(simple_mode) ca.x1 = LV_MATH_MAX(ca.x1, coords->x2);
 1597              		.loc 1 718 5 is_stmt 1 view .LVU588
 718:lvgl/src/lv_draw/lv_draw_rect.c ****         if(simple_mode) ca.x1 = LV_MATH_MAX(ca.x1, coords->x2);
 1598              		.loc 1 718 7 is_stmt 0 view .LVU589
 1599 02fe 0028     		cmp	r0, #0
 1600 0300 40F0FC80 		bne	.L179
 1601              	.LVL160:
 1602              	.L99:
 1603              	.LBB252:
 756:lvgl/src/lv_draw/lv_draw_rect.c ****             lv_opa_t tmp = sh_buf_tmp[x];
 1604              		.loc 1 756 15 discriminator 1 view .LVU590
 1605 0304 0899     		ldr	r1, [sp, #32]
 1606 0306 0020     		movs	r0, #0
 1607 0308 7AE1     		b	.L107
 1608              	.LVL161:
 1609              	.L159:
 756:lvgl/src/lv_draw/lv_draw_rect.c ****             lv_opa_t tmp = sh_buf_tmp[x];
 1610              		.loc 1 756 15 discriminator 1 view .LVU591
 1611              	.LBE252:
 621:lvgl/src/lv_draw/lv_draw_rect.c ****     else if(dsc->shadow_spread != 0) simple_mode = false;
 1612              		.loc 1 621 75 view .LVU592
 1613 030a 0023     		movs	r3, #0
 1614 030c 0793     		str	r3, [sp, #28]
 1615 030e 8DE7     		b	.L82
 1616              	.LVL162:
 1617              	.L177:
 645:lvgl/src/lv_draw/lv_draw_rect.c ****         /*Avoid overlap in the middle with large radius*/
 1618              		.loc 1 645 19 discriminator 1 view .LVU593
 1619 0310 099A     		ldr	r2, [sp, #36]
 1620 0312 1EA9     		add	r1, sp, #120
 1621 0314 15A8     		add	r0, sp, #84
 1622              	.LVL163:
 645:lvgl/src/lv_draw/lv_draw_rect.c ****         /*Avoid overlap in the middle with large radius*/
 1623              		.loc 1 645 19 discriminator 1 view .LVU594
 1624 0316 FFF7FEFF 		bl	_lv_area_is_in
 1625              	.LVL164:
 645:lvgl/src/lv_draw/lv_draw_rect.c ****         /*Avoid overlap in the middle with large radius*/
 1626              		.loc 1 645 16 discriminator 1 view .LVU595
 1627 031a 0028     		cmp	r0, #0
 1628 031c BAD1     		bne	.L83
 1629              	.LBB254:
 647:lvgl/src/lv_draw/lv_draw_rect.c ****         if(ca.x1 <= w_half) ca.x1 = w_half + 1;
 1630              		.loc 1 647 9 is_stmt 1 view .LVU596
 647:lvgl/src/lv_draw/lv_draw_rect.c ****         if(ca.x1 <= w_half) ca.x1 = w_half + 1;
 1631              		.loc 1 647 14 is_stmt 0 view .LVU597
 1632 031e BDF95230 		ldrsh	r3, [sp, #82]
 647:lvgl/src/lv_draw/lv_draw_rect.c ****         if(ca.x1 <= w_half) ca.x1 = w_half + 1;
ARM GAS  D:\Temp\ccGEpo4V.s 			page 64


 1633              		.loc 1 647 11 view .LVU598
 1634 0322 5B45     		cmp	r3, fp
 1635 0324 01DD     		ble	.L84
 647:lvgl/src/lv_draw/lv_draw_rect.c ****         if(ca.x1 <= w_half) ca.x1 = w_half + 1;
 1636              		.loc 1 647 28 is_stmt 1 discriminator 1 view .LVU599
 647:lvgl/src/lv_draw/lv_draw_rect.c ****         if(ca.x1 <= w_half) ca.x1 = w_half + 1;
 1637              		.loc 1 647 34 is_stmt 0 discriminator 1 view .LVU600
 1638 0326 ADF852B0 		strh	fp, [sp, #82]	@ movhi
 1639              	.L84:
 648:lvgl/src/lv_draw/lv_draw_rect.c **** 
 1640              		.loc 1 648 9 is_stmt 1 view .LVU601
 648:lvgl/src/lv_draw/lv_draw_rect.c **** 
 1641              		.loc 1 648 14 is_stmt 0 view .LVU602
 1642 032a BDF94C30 		ldrsh	r3, [sp, #76]
 648:lvgl/src/lv_draw/lv_draw_rect.c **** 
 1643              		.loc 1 648 11 view .LVU603
 1644 032e 0D9A     		ldr	r2, [sp, #52]
 1645 0330 9342     		cmp	r3, r2
 1646 0332 03DC     		bgt	.L85
 648:lvgl/src/lv_draw/lv_draw_rect.c **** 
 1647              		.loc 1 648 29 is_stmt 1 discriminator 1 view .LVU604
 648:lvgl/src/lv_draw/lv_draw_rect.c **** 
 1648              		.loc 1 648 44 is_stmt 0 discriminator 1 view .LVU605
 1649 0334 0F9B     		ldr	r3, [sp, #60]
 1650 0336 0133     		adds	r3, r3, #1
 648:lvgl/src/lv_draw/lv_draw_rect.c **** 
 1651              		.loc 1 648 35 discriminator 1 view .LVU606
 1652 0338 ADF84C30 		strh	r3, [sp, #76]	@ movhi
 1653              	.L85:
 650:lvgl/src/lv_draw/lv_draw_rect.c ****         lv_coord_t w = lv_area_get_width(&ca);
 1654              		.loc 1 650 9 is_stmt 1 view .LVU607
 1655              	.LVL165:
 1656              	.LBB255:
 1657              	.LBI255:
 117:lvgl/src/lv_draw/../lv_core/../lv_font/../lv_misc/lv_area.h **** {
 1658              		.loc 2 117 26 view .LVU608
 1659              	.LBB256:
 1660              		.loc 2 119 5 view .LVU609
 1661              		.loc 2 119 31 is_stmt 0 view .LVU610
 1662 033c BDF852A0 		ldrh	r10, [sp, #82]
 1663              		.loc 2 119 44 view .LVU611
 1664 0340 BDF94E20 		ldrsh	r2, [sp, #78]
 1665 0344 93B2     		uxth	r3, r2
 1666              		.loc 2 119 36 view .LVU612
 1667 0346 AAEB030A 		sub	r10, r10, r3
 1668 034a 1FFA8AFA 		uxth	r10, r10
 1669              		.loc 2 119 49 view .LVU613
 1670 034e 0AF1010A 		add	r10, r10, #1
 1671              		.loc 2 119 12 view .LVU614
 1672 0352 0FFA8AFA 		sxth	r10, r10
 1673              	.LVL166:
 1674              		.loc 2 119 12 view .LVU615
 1675              	.LBE256:
 1676              	.LBE255:
 651:lvgl/src/lv_draw/lv_draw_rect.c ****         if(w > 0) {
 1677              		.loc 1 651 9 is_stmt 1 view .LVU616
 1678              	.LBB257:
ARM GAS  D:\Temp\ccGEpo4V.s 			page 65


 1679              	.LBI257:
 107:lvgl/src/lv_draw/../lv_core/../lv_font/../lv_misc/lv_area.h **** {
 1680              		.loc 2 107 26 view .LVU617
 1681              	.LBB258:
 109:lvgl/src/lv_draw/../lv_core/../lv_font/../lv_misc/lv_area.h **** }
 1682              		.loc 2 109 5 view .LVU618
 109:lvgl/src/lv_draw/../lv_core/../lv_font/../lv_misc/lv_area.h **** }
 1683              		.loc 2 109 31 is_stmt 0 view .LVU619
 1684 0356 BDF85030 		ldrh	r3, [sp, #80]
 109:lvgl/src/lv_draw/../lv_core/../lv_font/../lv_misc/lv_area.h **** }
 1685              		.loc 2 109 44 view .LVU620
 1686 035a BDF94C10 		ldrsh	r1, [sp, #76]
 1687 035e 88B2     		uxth	r0, r1
 109:lvgl/src/lv_draw/../lv_core/../lv_font/../lv_misc/lv_area.h **** }
 1688              		.loc 2 109 36 view .LVU621
 1689 0360 1B1A     		subs	r3, r3, r0
 1690 0362 9BB2     		uxth	r3, r3
 109:lvgl/src/lv_draw/../lv_core/../lv_font/../lv_misc/lv_area.h **** }
 1691              		.loc 2 109 49 view .LVU622
 1692 0364 0133     		adds	r3, r3, #1
 109:lvgl/src/lv_draw/../lv_core/../lv_font/../lv_misc/lv_area.h **** }
 1693              		.loc 2 109 12 view .LVU623
 1694 0366 1BB2     		sxth	r3, r3
 1695 0368 0B93     		str	r3, [sp, #44]
 1696              	.LVL167:
 109:lvgl/src/lv_draw/../lv_core/../lv_font/../lv_misc/lv_area.h **** }
 1697              		.loc 2 109 12 view .LVU624
 1698              	.LBE258:
 1699              	.LBE257:
 652:lvgl/src/lv_draw/lv_draw_rect.c ****             sh_buf_tmp = sh_buf + (ca.x1 - a.x1);
 1700              		.loc 1 652 9 is_stmt 1 view .LVU625
 652:lvgl/src/lv_draw/lv_draw_rect.c ****             sh_buf_tmp = sh_buf + (ca.x1 - a.x1);
 1701              		.loc 1 652 11 is_stmt 0 view .LVU626
 1702 036a 002B     		cmp	r3, #0
 1703 036c 92DD     		ble	.L83
 1704              	.LBB259:
 653:lvgl/src/lv_draw/lv_draw_rect.c ****             sh_buf_tmp += corner_size * (ca.y1 - a.y1);
 1705              		.loc 1 653 13 is_stmt 1 view .LVU627
 653:lvgl/src/lv_draw/lv_draw_rect.c ****             sh_buf_tmp += corner_size * (ca.y1 - a.y1);
 1706              		.loc 1 653 45 is_stmt 0 view .LVU628
 1707 036e BDF95480 		ldrsh	r8, [sp, #84]
 1708              	.LVL168:
 653:lvgl/src/lv_draw/lv_draw_rect.c ****             sh_buf_tmp += corner_size * (ca.y1 - a.y1);
 1709              		.loc 1 653 42 view .LVU629
 1710 0372 A1EB0801 		sub	r1, r1, r8
 1711              	.LVL169:
 654:lvgl/src/lv_draw/lv_draw_rect.c **** 
 1712              		.loc 1 654 13 is_stmt 1 view .LVU630
 654:lvgl/src/lv_draw/lv_draw_rect.c **** 
 1713              		.loc 1 654 51 is_stmt 0 view .LVU631
 1714 0376 BDF95680 		ldrsh	r8, [sp, #86]
 654:lvgl/src/lv_draw/lv_draw_rect.c **** 
 1715              		.loc 1 654 48 view .LVU632
 1716 037a A2EB0808 		sub	r8, r2, r8
 654:lvgl/src/lv_draw/lv_draw_rect.c **** 
 1717              		.loc 1 654 24 view .LVU633
 1718 037e 04FB0818 		mla	r8, r4, r8, r1
ARM GAS  D:\Temp\ccGEpo4V.s 			page 66


 1719 0382 089B     		ldr	r3, [sp, #32]
 1720              	.LVL170:
 654:lvgl/src/lv_draw/lv_draw_rect.c **** 
 1721              		.loc 1 654 24 view .LVU634
 1722 0384 9844     		add	r8, r8, r3
 1723              	.LVL171:
 656:lvgl/src/lv_draw/lv_draw_rect.c ****             lv_area_copy(&fa, &ca);
 1724              		.loc 1 656 13 is_stmt 1 view .LVU635
 657:lvgl/src/lv_draw/lv_draw_rect.c ****             fa.y2 = fa.y1;
 1725              		.loc 1 657 13 view .LVU636
 1726              	.LBB260:
 1727              	.LBI260:
  97:lvgl/src/lv_draw/../lv_core/../lv_font/../lv_misc/lv_area.h **** {
 1728              		.loc 2 97 20 view .LVU637
 1729              	.LBE260:
 1730              	.LBE259:
 1731              	.LBE254:
  99:lvgl/src/lv_draw/../lv_core/../lv_font/../lv_misc/lv_area.h **** }
 1732              		.loc 2 99 5 view .LVU638
 1733              	.LBB268:
 1734              	.LBB267:
 1735              	.LBB265:
 1736              	.LBB261:
 1737              	.LBI261:
 213:lvgl/src/lv_draw/../lv_core/../lv_font/../lv_misc/lv_mem.h **** {
 1738              		.loc 3 213 44 view .LVU639
 1739              	.LBB262:
 215:lvgl/src/lv_draw/../lv_core/../lv_font/../lv_misc/lv_mem.h ****     const uint8_t * s8 = (const uint8_t *)src;
 1740              		.loc 3 215 5 view .LVU640
 216:lvgl/src/lv_draw/../lv_core/../lv_font/../lv_misc/lv_mem.h **** 
 1741              		.loc 3 216 5 view .LVU641
 218:lvgl/src/lv_draw/../lv_core/../lv_font/../lv_misc/lv_mem.h ****         *d8 = *s8;
 1742              		.loc 3 218 5 view .LVU642
 216:lvgl/src/lv_draw/../lv_core/../lv_font/../lv_misc/lv_mem.h **** 
 1743              		.loc 3 216 21 is_stmt 0 view .LVU643
 1744 0386 13A9     		add	r1, sp, #76
 1745              	.LVL172:
 215:lvgl/src/lv_draw/../lv_core/../lv_font/../lv_misc/lv_mem.h ****     const uint8_t * s8 = (const uint8_t *)src;
 1746              		.loc 3 215 15 view .LVU644
 1747 0388 11AA     		add	r2, sp, #68
 1748              	.LVL173:
 215:lvgl/src/lv_draw/../lv_core/../lv_font/../lv_misc/lv_mem.h ****     const uint8_t * s8 = (const uint8_t *)src;
 1749              		.loc 3 215 15 view .LVU645
 1750              	.LBE262:
 1751              	.LBE261:
 1752              	.LBE265:
 654:lvgl/src/lv_draw/lv_draw_rect.c **** 
 1753              		.loc 1 654 24 view .LVU646
 1754 038a 0823     		movs	r3, #8
 1755 038c 04E0     		b	.L86
 1756              	.LVL174:
 1757              	.L87:
 1758              	.LBB266:
 1759              	.LBB264:
 1760              	.LBB263:
 219:lvgl/src/lv_draw/../lv_core/../lv_font/../lv_misc/lv_mem.h ****         d8++;
 1761              		.loc 3 219 9 is_stmt 1 view .LVU647
ARM GAS  D:\Temp\ccGEpo4V.s 			page 67


 219:lvgl/src/lv_draw/../lv_core/../lv_font/../lv_misc/lv_mem.h ****         d8++;
 1762              		.loc 3 219 15 is_stmt 0 view .LVU648
 1763 038e 11F8010B 		ldrb	r0, [r1], #1	@ zero_extendqisi2
 1764              	.LVL175:
 219:lvgl/src/lv_draw/../lv_core/../lv_font/../lv_misc/lv_mem.h ****         d8++;
 1765              		.loc 3 219 13 view .LVU649
 1766 0392 02F8010B 		strb	r0, [r2], #1
 1767              	.LVL176:
 220:lvgl/src/lv_draw/../lv_core/../lv_font/../lv_misc/lv_mem.h ****         s8++;
 1768              		.loc 3 220 9 is_stmt 1 view .LVU650
 221:lvgl/src/lv_draw/../lv_core/../lv_font/../lv_misc/lv_mem.h ****         len--;
 1769              		.loc 3 221 9 view .LVU651
 222:lvgl/src/lv_draw/../lv_core/../lv_font/../lv_misc/lv_mem.h ****     }
 1770              		.loc 3 222 9 view .LVU652
 222:lvgl/src/lv_draw/../lv_core/../lv_font/../lv_misc/lv_mem.h ****     }
 1771              		.loc 3 222 12 is_stmt 0 view .LVU653
 1772 0396 013B     		subs	r3, r3, #1
 1773              	.LVL177:
 1774              	.L86:
 218:lvgl/src/lv_draw/../lv_core/../lv_font/../lv_misc/lv_mem.h ****         *d8 = *s8;
 1775              		.loc 3 218 10 view .LVU654
 1776 0398 002B     		cmp	r3, #0
 1777 039a F8D1     		bne	.L87
 1778              		.loc 3 225 5 is_stmt 1 view .LVU655
 1779              	.LVL178:
 1780              		.loc 3 225 5 is_stmt 0 view .LVU656
 1781              	.LBE263:
 1782              	.LBE264:
 1783              	.LBE266:
 658:lvgl/src/lv_draw/lv_draw_rect.c **** 
 1784              		.loc 1 658 13 is_stmt 1 view .LVU657
 658:lvgl/src/lv_draw/lv_draw_rect.c **** 
 1785              		.loc 1 658 23 is_stmt 0 view .LVU658
 1786 039c BDF94630 		ldrsh	r3, [sp, #70]
 658:lvgl/src/lv_draw/lv_draw_rect.c **** 
 1787              		.loc 1 658 19 view .LVU659
 1788 03a0 ADF84A30 		strh	r3, [sp, #74]	@ movhi
 660:lvgl/src/lv_draw/lv_draw_rect.c ****                 _lv_memcpy(mask_buf, sh_buf_tmp, w);
 1789              		.loc 1 660 13 is_stmt 1 view .LVU660
 1790              	.LVL179:
 660:lvgl/src/lv_draw/lv_draw_rect.c ****                 _lv_memcpy(mask_buf, sh_buf_tmp, w);
 1791              		.loc 1 660 19 is_stmt 0 view .LVU661
 1792 03a4 4FF00009 		mov	r9, #0
 1793              	.LVL180:
 660:lvgl/src/lv_draw/lv_draw_rect.c ****                 _lv_memcpy(mask_buf, sh_buf_tmp, w);
 1794              		.loc 1 660 13 view .LVU662
 1795 03a8 17E0     		b	.L88
 1796              	.LVL181:
 1797              	.L89:
 665:lvgl/src/lv_draw/lv_draw_rect.c ****                                mask_res, opa, dsc->shadow_blend_mode);
 1798              		.loc 1 665 17 is_stmt 1 discriminator 2 view .LVU663
 1799 03aa 95F82B30 		ldrb	r3, [r5, #43]	@ zero_extendqisi2
 1800 03ae 0293     		str	r3, [sp, #8]
 1801 03b0 0197     		str	r7, [sp, #4]
 1802 03b2 0090     		str	r0, [sp]
 1803 03b4 059B     		ldr	r3, [sp, #20]
 1804 03b6 2A8C     		ldrh	r2, [r5, #32]
ARM GAS  D:\Temp\ccGEpo4V.s 			page 68


 1805 03b8 11A9     		add	r1, sp, #68
 1806 03ba 0698     		ldr	r0, [sp, #24]
 1807              	.LVL182:
 665:lvgl/src/lv_draw/lv_draw_rect.c ****                                mask_res, opa, dsc->shadow_blend_mode);
 1808              		.loc 1 665 17 is_stmt 0 discriminator 2 view .LVU664
 1809 03bc FFF7FEFF 		bl	_lv_blend_fill
 1810              	.LVL183:
 667:lvgl/src/lv_draw/lv_draw_rect.c ****                 fa.y2++;
 1811              		.loc 1 667 17 is_stmt 1 discriminator 2 view .LVU665
 667:lvgl/src/lv_draw/lv_draw_rect.c ****                 fa.y2++;
 1812              		.loc 1 667 19 is_stmt 0 discriminator 2 view .LVU666
 1813 03c0 BDF94630 		ldrsh	r3, [sp, #70]
 667:lvgl/src/lv_draw/lv_draw_rect.c ****                 fa.y2++;
 1814              		.loc 1 667 22 discriminator 2 view .LVU667
 1815 03c4 0133     		adds	r3, r3, #1
 1816 03c6 ADF84630 		strh	r3, [sp, #70]	@ movhi
 668:lvgl/src/lv_draw/lv_draw_rect.c ****                 sh_buf_tmp += corner_size;
 1817              		.loc 1 668 17 is_stmt 1 discriminator 2 view .LVU668
 668:lvgl/src/lv_draw/lv_draw_rect.c ****                 sh_buf_tmp += corner_size;
 1818              		.loc 1 668 19 is_stmt 0 discriminator 2 view .LVU669
 1819 03ca BDF94A30 		ldrsh	r3, [sp, #74]
 668:lvgl/src/lv_draw/lv_draw_rect.c ****                 sh_buf_tmp += corner_size;
 1820              		.loc 1 668 22 discriminator 2 view .LVU670
 1821 03ce 0133     		adds	r3, r3, #1
 1822 03d0 ADF84A30 		strh	r3, [sp, #74]	@ movhi
 669:lvgl/src/lv_draw/lv_draw_rect.c ****             }
 1823              		.loc 1 669 17 is_stmt 1 discriminator 2 view .LVU671
 669:lvgl/src/lv_draw/lv_draw_rect.c ****             }
 1824              		.loc 1 669 28 is_stmt 0 discriminator 2 view .LVU672
 1825 03d4 A044     		add	r8, r8, r4
 1826              	.LVL184:
 660:lvgl/src/lv_draw/lv_draw_rect.c ****                 _lv_memcpy(mask_buf, sh_buf_tmp, w);
 1827              		.loc 1 660 32 discriminator 2 view .LVU673
 1828 03d6 09F10109 		add	r9, r9, #1
 1829              	.LVL185:
 1830              	.L88:
 660:lvgl/src/lv_draw/lv_draw_rect.c ****                 _lv_memcpy(mask_buf, sh_buf_tmp, w);
 1831              		.loc 1 660 13 discriminator 1 view .LVU674
 1832 03da CA45     		cmp	r10, r9
 1833 03dc 7FF75AAF 		ble	.L83
 661:lvgl/src/lv_draw/lv_draw_rect.c ****                 mask_res = lv_draw_mask_apply(mask_buf, fa.x1, fa.y1, w);
 1834              		.loc 1 661 17 is_stmt 1 view .LVU675
 1835 03e0 0B9A     		ldr	r2, [sp, #44]
 1836 03e2 4146     		mov	r1, r8
 1837 03e4 0598     		ldr	r0, [sp, #20]
 1838 03e6 FFF7FEFF 		bl	_lv_memcpy
 1839              	.LVL186:
 662:lvgl/src/lv_draw/lv_draw_rect.c ****                 if(mask_res == LV_DRAW_MASK_RES_FULL_COVER) mask_res = LV_DRAW_MASK_RES_CHANGED;
 1840              		.loc 1 662 17 view .LVU676
 662:lvgl/src/lv_draw/lv_draw_rect.c ****                 if(mask_res == LV_DRAW_MASK_RES_FULL_COVER) mask_res = LV_DRAW_MASK_RES_CHANGED;
 1841              		.loc 1 662 28 is_stmt 0 view .LVU677
 1842 03ea 0B9B     		ldr	r3, [sp, #44]
 1843 03ec BDF94620 		ldrsh	r2, [sp, #70]
 1844 03f0 BDF94410 		ldrsh	r1, [sp, #68]
 1845 03f4 0598     		ldr	r0, [sp, #20]
 1846 03f6 FFF7FEFF 		bl	lv_draw_mask_apply
 1847              	.LVL187:
ARM GAS  D:\Temp\ccGEpo4V.s 			page 69


 663:lvgl/src/lv_draw/lv_draw_rect.c **** 
 1848              		.loc 1 663 17 is_stmt 1 view .LVU678
 663:lvgl/src/lv_draw/lv_draw_rect.c **** 
 1849              		.loc 1 663 19 is_stmt 0 view .LVU679
 1850 03fa 0128     		cmp	r0, #1
 1851 03fc D5D1     		bne	.L89
 663:lvgl/src/lv_draw/lv_draw_rect.c **** 
 1852              		.loc 1 663 70 view .LVU680
 1853 03fe 0220     		movs	r0, #2
 1854              	.LVL188:
 663:lvgl/src/lv_draw/lv_draw_rect.c **** 
 1855              		.loc 1 663 70 view .LVU681
 1856 0400 D3E7     		b	.L89
 1857              	.LVL189:
 1858              	.L178:
 663:lvgl/src/lv_draw/lv_draw_rect.c **** 
 1859              		.loc 1 663 70 view .LVU682
 1860              	.LBE267:
 1861              	.LBE268:
 681:lvgl/src/lv_draw/lv_draw_rect.c ****         /*Avoid overlap in the middle with large radius*/
 1862              		.loc 1 681 19 discriminator 1 view .LVU683
 1863 0402 099A     		ldr	r2, [sp, #36]
 1864 0404 1EA9     		add	r1, sp, #120
 1865 0406 15A8     		add	r0, sp, #84
 1866              	.LVL190:
 681:lvgl/src/lv_draw/lv_draw_rect.c ****         /*Avoid overlap in the middle with large radius*/
 1867              		.loc 1 681 19 discriminator 1 view .LVU684
 1868 0408 FFF7FEFF 		bl	_lv_area_is_in
 1869              	.LVL191:
 681:lvgl/src/lv_draw/lv_draw_rect.c ****         /*Avoid overlap in the middle with large radius*/
 1870              		.loc 1 681 16 discriminator 1 view .LVU685
 1871 040c 0028     		cmp	r0, #0
 1872 040e 7FF45DAF 		bne	.L91
 1873              	.LBB269:
 683:lvgl/src/lv_draw/lv_draw_rect.c ****         if(ca.x1 <= w_half) ca.x1 = w_half + 1;
 1874              		.loc 1 683 9 is_stmt 1 view .LVU686
 683:lvgl/src/lv_draw/lv_draw_rect.c ****         if(ca.x1 <= w_half) ca.x1 = w_half + 1;
 1875              		.loc 1 683 14 is_stmt 0 view .LVU687
 1876 0412 BDF94E30 		ldrsh	r3, [sp, #78]
 683:lvgl/src/lv_draw/lv_draw_rect.c ****         if(ca.x1 <= w_half) ca.x1 = w_half + 1;
 1877              		.loc 1 683 11 view .LVU688
 1878 0416 5B45     		cmp	r3, fp
 1879 0418 03DC     		bgt	.L92
 683:lvgl/src/lv_draw/lv_draw_rect.c ****         if(ca.x1 <= w_half) ca.x1 = w_half + 1;
 1880              		.loc 1 683 29 is_stmt 1 discriminator 1 view .LVU689
 683:lvgl/src/lv_draw/lv_draw_rect.c ****         if(ca.x1 <= w_half) ca.x1 = w_half + 1;
 1881              		.loc 1 683 44 is_stmt 0 discriminator 1 view .LVU690
 1882 041a 0E9B     		ldr	r3, [sp, #56]
 1883 041c 0133     		adds	r3, r3, #1
 683:lvgl/src/lv_draw/lv_draw_rect.c ****         if(ca.x1 <= w_half) ca.x1 = w_half + 1;
 1884              		.loc 1 683 35 discriminator 1 view .LVU691
 1885 041e ADF84E30 		strh	r3, [sp, #78]	@ movhi
 1886              	.L92:
 684:lvgl/src/lv_draw/lv_draw_rect.c **** 
 1887              		.loc 1 684 9 is_stmt 1 view .LVU692
 684:lvgl/src/lv_draw/lv_draw_rect.c **** 
 1888              		.loc 1 684 14 is_stmt 0 view .LVU693
ARM GAS  D:\Temp\ccGEpo4V.s 			page 70


 1889 0422 BDF94C30 		ldrsh	r3, [sp, #76]
 684:lvgl/src/lv_draw/lv_draw_rect.c **** 
 1890              		.loc 1 684 11 view .LVU694
 1891 0426 0D9A     		ldr	r2, [sp, #52]
 1892 0428 9342     		cmp	r3, r2
 1893 042a 03DC     		bgt	.L93
 684:lvgl/src/lv_draw/lv_draw_rect.c **** 
 1894              		.loc 1 684 29 is_stmt 1 discriminator 1 view .LVU695
 684:lvgl/src/lv_draw/lv_draw_rect.c **** 
 1895              		.loc 1 684 44 is_stmt 0 discriminator 1 view .LVU696
 1896 042c 0F9B     		ldr	r3, [sp, #60]
 1897 042e 0133     		adds	r3, r3, #1
 684:lvgl/src/lv_draw/lv_draw_rect.c **** 
 1898              		.loc 1 684 35 discriminator 1 view .LVU697
 1899 0430 ADF84C30 		strh	r3, [sp, #76]	@ movhi
 1900              	.L93:
 686:lvgl/src/lv_draw/lv_draw_rect.c ****         lv_coord_t w = lv_area_get_width(&ca);
 1901              		.loc 1 686 9 is_stmt 1 view .LVU698
 1902              	.LVL192:
 1903              	.LBB270:
 1904              	.LBI270:
 117:lvgl/src/lv_draw/../lv_core/../lv_font/../lv_misc/lv_area.h **** {
 1905              		.loc 2 117 26 view .LVU699
 1906              	.LBB271:
 1907              		.loc 2 119 5 view .LVU700
 1908              		.loc 2 119 31 is_stmt 0 view .LVU701
 1909 0434 BDF95220 		ldrsh	r2, [sp, #82]
 1910 0438 1FFA82FA 		uxth	r10, r2
 1911              		.loc 2 119 44 view .LVU702
 1912 043c BDF84E30 		ldrh	r3, [sp, #78]
 1913              		.loc 2 119 36 view .LVU703
 1914 0440 AAEB030A 		sub	r10, r10, r3
 1915 0444 1FFA8AFA 		uxth	r10, r10
 1916              		.loc 2 119 49 view .LVU704
 1917 0448 0AF1010A 		add	r10, r10, #1
 1918              		.loc 2 119 12 view .LVU705
 1919 044c 0FFA8AFA 		sxth	r10, r10
 1920              	.LVL193:
 1921              		.loc 2 119 12 view .LVU706
 1922              	.LBE271:
 1923              	.LBE270:
 687:lvgl/src/lv_draw/lv_draw_rect.c **** 
 1924              		.loc 1 687 9 is_stmt 1 view .LVU707
 1925              	.LBB272:
 1926              	.LBI272:
 107:lvgl/src/lv_draw/../lv_core/../lv_font/../lv_misc/lv_area.h **** {
 1927              		.loc 2 107 26 view .LVU708
 1928              	.LBB273:
 109:lvgl/src/lv_draw/../lv_core/../lv_font/../lv_misc/lv_area.h **** }
 1929              		.loc 2 109 5 view .LVU709
 109:lvgl/src/lv_draw/../lv_core/../lv_font/../lv_misc/lv_area.h **** }
 1930              		.loc 2 109 31 is_stmt 0 view .LVU710
 1931 0450 BDF85030 		ldrh	r3, [sp, #80]
 109:lvgl/src/lv_draw/../lv_core/../lv_font/../lv_misc/lv_area.h **** }
 1932              		.loc 2 109 44 view .LVU711
 1933 0454 BDF94C10 		ldrsh	r1, [sp, #76]
 1934 0458 88B2     		uxth	r0, r1
ARM GAS  D:\Temp\ccGEpo4V.s 			page 71


 109:lvgl/src/lv_draw/../lv_core/../lv_font/../lv_misc/lv_area.h **** }
 1935              		.loc 2 109 36 view .LVU712
 1936 045a 1B1A     		subs	r3, r3, r0
 1937 045c 9BB2     		uxth	r3, r3
 109:lvgl/src/lv_draw/../lv_core/../lv_font/../lv_misc/lv_area.h **** }
 1938              		.loc 2 109 49 view .LVU713
 1939 045e 0133     		adds	r3, r3, #1
 109:lvgl/src/lv_draw/../lv_core/../lv_font/../lv_misc/lv_area.h **** }
 1940              		.loc 2 109 12 view .LVU714
 1941 0460 1BB2     		sxth	r3, r3
 1942 0462 0B93     		str	r3, [sp, #44]
 1943              	.LVL194:
 109:lvgl/src/lv_draw/../lv_core/../lv_font/../lv_misc/lv_area.h **** }
 1944              		.loc 2 109 12 view .LVU715
 1945              	.LBE273:
 1946              	.LBE272:
 689:lvgl/src/lv_draw/lv_draw_rect.c ****             sh_buf_tmp = sh_buf + (ca.x1 - a.x1);
 1947              		.loc 1 689 9 is_stmt 1 view .LVU716
 689:lvgl/src/lv_draw/lv_draw_rect.c ****             sh_buf_tmp = sh_buf + (ca.x1 - a.x1);
 1948              		.loc 1 689 11 is_stmt 0 view .LVU717
 1949 0464 002B     		cmp	r3, #0
 1950 0466 7FF731AF 		ble	.L91
 1951              	.LBB274:
 690:lvgl/src/lv_draw/lv_draw_rect.c ****             sh_buf_tmp += corner_size * (a.y2 - ca.y2);
 1952              		.loc 1 690 13 is_stmt 1 view .LVU718
 690:lvgl/src/lv_draw/lv_draw_rect.c ****             sh_buf_tmp += corner_size * (a.y2 - ca.y2);
 1953              		.loc 1 690 45 is_stmt 0 view .LVU719
 1954 046a BDF95430 		ldrsh	r3, [sp, #84]
 1955              	.LVL195:
 690:lvgl/src/lv_draw/lv_draw_rect.c ****             sh_buf_tmp += corner_size * (a.y2 - ca.y2);
 1956              		.loc 1 690 42 view .LVU720
 1957 046e C91A     		subs	r1, r1, r3
 1958              	.LVL196:
 691:lvgl/src/lv_draw/lv_draw_rect.c **** 
 1959              		.loc 1 691 13 is_stmt 1 view .LVU721
 691:lvgl/src/lv_draw/lv_draw_rect.c **** 
 1960              		.loc 1 691 43 is_stmt 0 view .LVU722
 1961 0470 BDF95A30 		ldrsh	r3, [sp, #90]
 691:lvgl/src/lv_draw/lv_draw_rect.c **** 
 1962              		.loc 1 691 47 view .LVU723
 1963 0474 9A1A     		subs	r2, r3, r2
 691:lvgl/src/lv_draw/lv_draw_rect.c **** 
 1964              		.loc 1 691 24 view .LVU724
 1965 0476 04FB0211 		mla	r1, r4, r2, r1
 1966              	.LVL197:
 691:lvgl/src/lv_draw/lv_draw_rect.c **** 
 1967              		.loc 1 691 24 view .LVU725
 1968 047a 089B     		ldr	r3, [sp, #32]
 1969 047c 03EB0108 		add	r8, r3, r1
 1970              	.LVL198:
 693:lvgl/src/lv_draw/lv_draw_rect.c ****             lv_area_copy(&fa, &ca);
 1971              		.loc 1 693 13 is_stmt 1 view .LVU726
 694:lvgl/src/lv_draw/lv_draw_rect.c ****             fa.y1 = fa.y2;    /*Fill from bottom to top*/
 1972              		.loc 1 694 13 view .LVU727
 1973              	.LBB275:
 1974              	.LBI275:
  97:lvgl/src/lv_draw/../lv_core/../lv_font/../lv_misc/lv_area.h **** {
ARM GAS  D:\Temp\ccGEpo4V.s 			page 72


 1975              		.loc 2 97 20 view .LVU728
 1976              	.LBE275:
 1977              	.LBE274:
 1978              	.LBE269:
  99:lvgl/src/lv_draw/../lv_core/../lv_font/../lv_misc/lv_area.h **** }
 1979              		.loc 2 99 5 view .LVU729
 1980              	.LBB283:
 1981              	.LBB282:
 1982              	.LBB280:
 1983              	.LBB276:
 1984              	.LBI276:
 213:lvgl/src/lv_draw/../lv_core/../lv_font/../lv_misc/lv_mem.h **** {
 1985              		.loc 3 213 44 view .LVU730
 1986              	.LBB277:
 215:lvgl/src/lv_draw/../lv_core/../lv_font/../lv_misc/lv_mem.h ****     const uint8_t * s8 = (const uint8_t *)src;
 1987              		.loc 3 215 5 view .LVU731
 216:lvgl/src/lv_draw/../lv_core/../lv_font/../lv_misc/lv_mem.h **** 
 1988              		.loc 3 216 5 view .LVU732
 218:lvgl/src/lv_draw/../lv_core/../lv_font/../lv_misc/lv_mem.h ****         *d8 = *s8;
 1989              		.loc 3 218 5 view .LVU733
 216:lvgl/src/lv_draw/../lv_core/../lv_font/../lv_misc/lv_mem.h **** 
 1990              		.loc 3 216 21 is_stmt 0 view .LVU734
 1991 0480 13A9     		add	r1, sp, #76
 1992              	.LVL199:
 215:lvgl/src/lv_draw/../lv_core/../lv_font/../lv_misc/lv_mem.h ****     const uint8_t * s8 = (const uint8_t *)src;
 1993              		.loc 3 215 15 view .LVU735
 1994 0482 11AA     		add	r2, sp, #68
 1995              	.LVL200:
 215:lvgl/src/lv_draw/../lv_core/../lv_font/../lv_misc/lv_mem.h ****     const uint8_t * s8 = (const uint8_t *)src;
 1996              		.loc 3 215 15 view .LVU736
 1997              	.LBE277:
 1998              	.LBE276:
 1999              	.LBE280:
 691:lvgl/src/lv_draw/lv_draw_rect.c **** 
 2000              		.loc 1 691 24 view .LVU737
 2001 0484 0823     		movs	r3, #8
 2002 0486 04E0     		b	.L94
 2003              	.LVL201:
 2004              	.L95:
 2005              	.LBB281:
 2006              	.LBB279:
 2007              	.LBB278:
 219:lvgl/src/lv_draw/../lv_core/../lv_font/../lv_misc/lv_mem.h ****         d8++;
 2008              		.loc 3 219 9 is_stmt 1 view .LVU738
 219:lvgl/src/lv_draw/../lv_core/../lv_font/../lv_misc/lv_mem.h ****         d8++;
 2009              		.loc 3 219 15 is_stmt 0 view .LVU739
 2010 0488 11F8010B 		ldrb	r0, [r1], #1	@ zero_extendqisi2
 2011              	.LVL202:
 219:lvgl/src/lv_draw/../lv_core/../lv_font/../lv_misc/lv_mem.h ****         d8++;
 2012              		.loc 3 219 13 view .LVU740
 2013 048c 02F8010B 		strb	r0, [r2], #1
 2014              	.LVL203:
 220:lvgl/src/lv_draw/../lv_core/../lv_font/../lv_misc/lv_mem.h ****         s8++;
 2015              		.loc 3 220 9 is_stmt 1 view .LVU741
 221:lvgl/src/lv_draw/../lv_core/../lv_font/../lv_misc/lv_mem.h ****         len--;
 2016              		.loc 3 221 9 view .LVU742
 222:lvgl/src/lv_draw/../lv_core/../lv_font/../lv_misc/lv_mem.h ****     }
ARM GAS  D:\Temp\ccGEpo4V.s 			page 73


 2017              		.loc 3 222 9 view .LVU743
 222:lvgl/src/lv_draw/../lv_core/../lv_font/../lv_misc/lv_mem.h ****     }
 2018              		.loc 3 222 12 is_stmt 0 view .LVU744
 2019 0490 013B     		subs	r3, r3, #1
 2020              	.LVL204:
 2021              	.L94:
 218:lvgl/src/lv_draw/../lv_core/../lv_font/../lv_misc/lv_mem.h ****         *d8 = *s8;
 2022              		.loc 3 218 10 view .LVU745
 2023 0492 002B     		cmp	r3, #0
 2024 0494 F8D1     		bne	.L95
 2025              		.loc 3 225 5 is_stmt 1 view .LVU746
 2026              	.LVL205:
 2027              		.loc 3 225 5 is_stmt 0 view .LVU747
 2028              	.LBE278:
 2029              	.LBE279:
 2030              	.LBE281:
 695:lvgl/src/lv_draw/lv_draw_rect.c **** 
 2031              		.loc 1 695 13 is_stmt 1 view .LVU748
 695:lvgl/src/lv_draw/lv_draw_rect.c **** 
 2032              		.loc 1 695 23 is_stmt 0 view .LVU749
 2033 0496 BDF94A30 		ldrsh	r3, [sp, #74]
 695:lvgl/src/lv_draw/lv_draw_rect.c **** 
 2034              		.loc 1 695 19 view .LVU750
 2035 049a ADF84630 		strh	r3, [sp, #70]	@ movhi
 697:lvgl/src/lv_draw/lv_draw_rect.c ****                 _lv_memcpy(mask_buf, sh_buf_tmp, w);
 2036              		.loc 1 697 13 is_stmt 1 view .LVU751
 2037              	.LVL206:
 697:lvgl/src/lv_draw/lv_draw_rect.c ****                 _lv_memcpy(mask_buf, sh_buf_tmp, w);
 2038              		.loc 1 697 19 is_stmt 0 view .LVU752
 2039 049e 4FF00009 		mov	r9, #0
 697:lvgl/src/lv_draw/lv_draw_rect.c ****                 _lv_memcpy(mask_buf, sh_buf_tmp, w);
 2040              		.loc 1 697 13 view .LVU753
 2041 04a2 17E0     		b	.L96
 2042              	.LVL207:
 2043              	.L97:
 702:lvgl/src/lv_draw/lv_draw_rect.c ****                                mask_res, opa, dsc->shadow_blend_mode);
 2044              		.loc 1 702 17 is_stmt 1 discriminator 2 view .LVU754
 2045 04a4 95F82B30 		ldrb	r3, [r5, #43]	@ zero_extendqisi2
 2046 04a8 0293     		str	r3, [sp, #8]
 2047 04aa 0197     		str	r7, [sp, #4]
 2048 04ac 0090     		str	r0, [sp]
 2049 04ae 059B     		ldr	r3, [sp, #20]
 2050 04b0 2A8C     		ldrh	r2, [r5, #32]
 2051 04b2 11A9     		add	r1, sp, #68
 2052 04b4 0698     		ldr	r0, [sp, #24]
 2053              	.LVL208:
 702:lvgl/src/lv_draw/lv_draw_rect.c ****                                mask_res, opa, dsc->shadow_blend_mode);
 2054              		.loc 1 702 17 is_stmt 0 discriminator 2 view .LVU755
 2055 04b6 FFF7FEFF 		bl	_lv_blend_fill
 2056              	.LVL209:
 704:lvgl/src/lv_draw/lv_draw_rect.c ****                 fa.y2--;
 2057              		.loc 1 704 17 is_stmt 1 discriminator 2 view .LVU756
 704:lvgl/src/lv_draw/lv_draw_rect.c ****                 fa.y2--;
 2058              		.loc 1 704 19 is_stmt 0 discriminator 2 view .LVU757
 2059 04ba BDF94630 		ldrsh	r3, [sp, #70]
 704:lvgl/src/lv_draw/lv_draw_rect.c ****                 fa.y2--;
 2060              		.loc 1 704 22 discriminator 2 view .LVU758
ARM GAS  D:\Temp\ccGEpo4V.s 			page 74


 2061 04be 013B     		subs	r3, r3, #1
 2062 04c0 ADF84630 		strh	r3, [sp, #70]	@ movhi
 705:lvgl/src/lv_draw/lv_draw_rect.c ****                 sh_buf_tmp += corner_size;
 2063              		.loc 1 705 17 is_stmt 1 discriminator 2 view .LVU759
 705:lvgl/src/lv_draw/lv_draw_rect.c ****                 sh_buf_tmp += corner_size;
 2064              		.loc 1 705 19 is_stmt 0 discriminator 2 view .LVU760
 2065 04c4 BDF94A30 		ldrsh	r3, [sp, #74]
 705:lvgl/src/lv_draw/lv_draw_rect.c ****                 sh_buf_tmp += corner_size;
 2066              		.loc 1 705 22 discriminator 2 view .LVU761
 2067 04c8 013B     		subs	r3, r3, #1
 2068 04ca ADF84A30 		strh	r3, [sp, #74]	@ movhi
 706:lvgl/src/lv_draw/lv_draw_rect.c ****             }
 2069              		.loc 1 706 17 is_stmt 1 discriminator 2 view .LVU762
 706:lvgl/src/lv_draw/lv_draw_rect.c ****             }
 2070              		.loc 1 706 28 is_stmt 0 discriminator 2 view .LVU763
 2071 04ce A044     		add	r8, r8, r4
 2072              	.LVL210:
 697:lvgl/src/lv_draw/lv_draw_rect.c ****                 _lv_memcpy(mask_buf, sh_buf_tmp, w);
 2073              		.loc 1 697 32 discriminator 2 view .LVU764
 2074 04d0 09F10109 		add	r9, r9, #1
 2075              	.LVL211:
 2076              	.L96:
 697:lvgl/src/lv_draw/lv_draw_rect.c ****                 _lv_memcpy(mask_buf, sh_buf_tmp, w);
 2077              		.loc 1 697 13 discriminator 1 view .LVU765
 2078 04d4 CA45     		cmp	r10, r9
 2079 04d6 7FF7F9AE 		ble	.L91
 698:lvgl/src/lv_draw/lv_draw_rect.c ****                 mask_res = lv_draw_mask_apply(mask_buf, fa.x1, fa.y1, w);
 2080              		.loc 1 698 17 is_stmt 1 view .LVU766
 2081 04da 0B9A     		ldr	r2, [sp, #44]
 2082 04dc 4146     		mov	r1, r8
 2083 04de 0598     		ldr	r0, [sp, #20]
 2084 04e0 FFF7FEFF 		bl	_lv_memcpy
 2085              	.LVL212:
 699:lvgl/src/lv_draw/lv_draw_rect.c ****                 if(mask_res == LV_DRAW_MASK_RES_FULL_COVER) mask_res = LV_DRAW_MASK_RES_CHANGED;
 2086              		.loc 1 699 17 view .LVU767
 699:lvgl/src/lv_draw/lv_draw_rect.c ****                 if(mask_res == LV_DRAW_MASK_RES_FULL_COVER) mask_res = LV_DRAW_MASK_RES_CHANGED;
 2087              		.loc 1 699 28 is_stmt 0 view .LVU768
 2088 04e4 0B9B     		ldr	r3, [sp, #44]
 2089 04e6 BDF94620 		ldrsh	r2, [sp, #70]
 2090 04ea BDF94410 		ldrsh	r1, [sp, #68]
 2091 04ee 0598     		ldr	r0, [sp, #20]
 2092 04f0 FFF7FEFF 		bl	lv_draw_mask_apply
 2093              	.LVL213:
 700:lvgl/src/lv_draw/lv_draw_rect.c **** 
 2094              		.loc 1 700 17 is_stmt 1 view .LVU769
 700:lvgl/src/lv_draw/lv_draw_rect.c **** 
 2095              		.loc 1 700 19 is_stmt 0 view .LVU770
 2096 04f4 0128     		cmp	r0, #1
 2097 04f6 D5D1     		bne	.L97
 700:lvgl/src/lv_draw/lv_draw_rect.c **** 
 2098              		.loc 1 700 70 view .LVU771
 2099 04f8 0220     		movs	r0, #2
 2100              	.LVL214:
 700:lvgl/src/lv_draw/lv_draw_rect.c **** 
 2101              		.loc 1 700 70 view .LVU772
 2102 04fa D3E7     		b	.L97
 2103              	.LVL215:
ARM GAS  D:\Temp\ccGEpo4V.s 			page 75


 2104              	.L179:
 700:lvgl/src/lv_draw/lv_draw_rect.c **** 
 2105              		.loc 1 700 70 view .LVU773
 2106              	.LBE282:
 2107              	.LBE283:
 718:lvgl/src/lv_draw/lv_draw_rect.c ****         if(simple_mode) ca.x1 = LV_MATH_MAX(ca.x1, coords->x2);
 2108              		.loc 1 718 19 discriminator 1 view .LVU774
 2109 04fc 099A     		ldr	r2, [sp, #36]
 2110 04fe 1EA9     		add	r1, sp, #120
 2111 0500 15A8     		add	r0, sp, #84
 2112              	.LVL216:
 718:lvgl/src/lv_draw/lv_draw_rect.c ****         if(simple_mode) ca.x1 = LV_MATH_MAX(ca.x1, coords->x2);
 2113              		.loc 1 718 19 discriminator 1 view .LVU775
 2114 0502 FFF7FEFF 		bl	_lv_area_is_in
 2115              	.LVL217:
 718:lvgl/src/lv_draw/lv_draw_rect.c ****         if(simple_mode) ca.x1 = LV_MATH_MAX(ca.x1, coords->x2);
 2116              		.loc 1 718 16 discriminator 1 view .LVU776
 2117 0506 0028     		cmp	r0, #0
 2118 0508 7FF4FCAE 		bne	.L99
 2119              	.LBB284:
 719:lvgl/src/lv_draw/lv_draw_rect.c ****         /*Draw horizontal lines*/
 2120              		.loc 1 719 9 is_stmt 1 view .LVU777
 719:lvgl/src/lv_draw/lv_draw_rect.c ****         /*Draw horizontal lines*/
 2121              		.loc 1 719 11 is_stmt 0 view .LVU778
 2122 050c 079B     		ldr	r3, [sp, #28]
 2123 050e 4BB1     		cbz	r3, .L100
 719:lvgl/src/lv_draw/lv_draw_rect.c ****         /*Draw horizontal lines*/
 2124              		.loc 1 719 25 is_stmt 1 discriminator 1 view .LVU779
 719:lvgl/src/lv_draw/lv_draw_rect.c ****         /*Draw horizontal lines*/
 2125              		.loc 1 719 33 is_stmt 0 discriminator 1 view .LVU780
 2126 0510 0C9B     		ldr	r3, [sp, #48]
 2127 0512 B3F90430 		ldrsh	r3, [r3, #4]
 2128 0516 BDF94C20 		ldrsh	r2, [sp, #76]
 2129 051a 9342     		cmp	r3, r2
 2130 051c B8BF     		it	lt
 2131 051e 1346     		movlt	r3, r2
 719:lvgl/src/lv_draw/lv_draw_rect.c ****         /*Draw horizontal lines*/
 2132              		.loc 1 719 31 discriminator 1 view .LVU781
 2133 0520 ADF84C30 		strh	r3, [sp, #76]	@ movhi
 2134              	.L100:
 721:lvgl/src/lv_draw/lv_draw_rect.c ****         if(w > 0) {
 2135              		.loc 1 721 9 is_stmt 1 view .LVU782
 2136              	.LVL218:
 2137              	.LBB285:
 2138              	.LBI285:
 107:lvgl/src/lv_draw/../lv_core/../lv_font/../lv_misc/lv_area.h **** {
 2139              		.loc 2 107 26 view .LVU783
 2140              	.LBB286:
 109:lvgl/src/lv_draw/../lv_core/../lv_font/../lv_misc/lv_area.h **** }
 2141              		.loc 2 109 5 view .LVU784
 109:lvgl/src/lv_draw/../lv_core/../lv_font/../lv_misc/lv_area.h **** }
 2142              		.loc 2 109 31 is_stmt 0 view .LVU785
 2143 0524 BDF850A0 		ldrh	r10, [sp, #80]
 109:lvgl/src/lv_draw/../lv_core/../lv_font/../lv_misc/lv_area.h **** }
 2144              		.loc 2 109 44 view .LVU786
 2145 0528 BDF94C30 		ldrsh	r3, [sp, #76]
 2146 052c 9AB2     		uxth	r2, r3
ARM GAS  D:\Temp\ccGEpo4V.s 			page 76


 109:lvgl/src/lv_draw/../lv_core/../lv_font/../lv_misc/lv_area.h **** }
 2147              		.loc 2 109 36 view .LVU787
 2148 052e AAEB020A 		sub	r10, r10, r2
 2149 0532 1FFA8AFA 		uxth	r10, r10
 109:lvgl/src/lv_draw/../lv_core/../lv_font/../lv_misc/lv_area.h **** }
 2150              		.loc 2 109 49 view .LVU788
 2151 0536 0AF1010A 		add	r10, r10, #1
 109:lvgl/src/lv_draw/../lv_core/../lv_font/../lv_misc/lv_area.h **** }
 2152              		.loc 2 109 12 view .LVU789
 2153 053a 0FFA8AFA 		sxth	r10, r10
 2154              	.LVL219:
 109:lvgl/src/lv_draw/../lv_core/../lv_font/../lv_misc/lv_area.h **** }
 2155              		.loc 2 109 12 view .LVU790
 2156              	.LBE286:
 2157              	.LBE285:
 722:lvgl/src/lv_draw/lv_draw_rect.c ****             lv_coord_t h = lv_area_get_height(&ca);
 2158              		.loc 1 722 9 is_stmt 1 view .LVU791
 722:lvgl/src/lv_draw/lv_draw_rect.c ****             lv_coord_t h = lv_area_get_height(&ca);
 2159              		.loc 1 722 11 is_stmt 0 view .LVU792
 2160 053e BAF1000F 		cmp	r10, #0
 2161 0542 7FF7DFAE 		ble	.L99
 2162              	.LBB287:
 723:lvgl/src/lv_draw/lv_draw_rect.c **** 
 2163              		.loc 1 723 13 is_stmt 1 view .LVU793
 2164              	.LVL220:
 2165              	.LBB288:
 2166              	.LBI288:
 117:lvgl/src/lv_draw/../lv_core/../lv_font/../lv_misc/lv_area.h **** {
 2167              		.loc 2 117 26 view .LVU794
 2168              	.LBB289:
 2169              		.loc 2 119 5 view .LVU795
 2170              		.loc 2 119 31 is_stmt 0 view .LVU796
 2171 0546 BDF85290 		ldrh	r9, [sp, #82]
 2172              		.loc 2 119 44 view .LVU797
 2173 054a BDF84E20 		ldrh	r2, [sp, #78]
 2174              		.loc 2 119 36 view .LVU798
 2175 054e A9EB0209 		sub	r9, r9, r2
 2176 0552 1FFA89F9 		uxth	r9, r9
 2177              		.loc 2 119 49 view .LVU799
 2178 0556 09F10109 		add	r9, r9, #1
 2179              		.loc 2 119 12 view .LVU800
 2180 055a 0FFA89F9 		sxth	r9, r9
 2181              	.LVL221:
 2182              		.loc 2 119 12 view .LVU801
 2183              	.LBE289:
 2184              	.LBE288:
 726:lvgl/src/lv_draw/lv_draw_rect.c ****             sh_buf_tmp += ca.x1 - a.x1;
 2185              		.loc 1 726 13 is_stmt 1 view .LVU802
 726:lvgl/src/lv_draw/lv_draw_rect.c ****             sh_buf_tmp += ca.x1 - a.x1;
 2186              		.loc 1 726 62 is_stmt 0 view .LVU803
 2187 055e 621E     		subs	r2, r4, #1
 727:lvgl/src/lv_draw/lv_draw_rect.c **** 
 2188              		.loc 1 727 13 is_stmt 1 view .LVU804
 727:lvgl/src/lv_draw/lv_draw_rect.c **** 
 2189              		.loc 1 727 36 is_stmt 0 view .LVU805
 2190 0560 BDF95410 		ldrsh	r1, [sp, #84]
 727:lvgl/src/lv_draw/lv_draw_rect.c **** 
ARM GAS  D:\Temp\ccGEpo4V.s 			page 77


 2191              		.loc 1 727 33 view .LVU806
 2192 0564 5B1A     		subs	r3, r3, r1
 727:lvgl/src/lv_draw/lv_draw_rect.c **** 
 2193              		.loc 1 727 24 view .LVU807
 2194 0566 04FB0233 		mla	r3, r4, r2, r3
 2195 056a 089A     		ldr	r2, [sp, #32]
 2196 056c D318     		adds	r3, r2, r3
 2197 056e 0B93     		str	r3, [sp, #44]
 2198              	.LVL222:
 729:lvgl/src/lv_draw/lv_draw_rect.c ****             lv_area_copy(&fa, &ca);
 2199              		.loc 1 729 13 is_stmt 1 view .LVU808
 730:lvgl/src/lv_draw/lv_draw_rect.c ****             fa.y2 = fa.y1;
 2200              		.loc 1 730 13 view .LVU809
 2201              	.LBB290:
 2202              	.LBI290:
  97:lvgl/src/lv_draw/../lv_core/../lv_font/../lv_misc/lv_area.h **** {
 2203              		.loc 2 97 20 view .LVU810
 2204              	.LBB291:
 2205              	.LBB292:
 216:lvgl/src/lv_draw/../lv_core/../lv_font/../lv_misc/lv_mem.h **** 
 2206              		.loc 3 216 21 is_stmt 0 view .LVU811
 2207 0570 13A9     		add	r1, sp, #76
 2208              	.LVL223:
 215:lvgl/src/lv_draw/../lv_core/../lv_font/../lv_misc/lv_mem.h ****     const uint8_t * s8 = (const uint8_t *)src;
 2209              		.loc 3 215 15 view .LVU812
 2210 0572 11AA     		add	r2, sp, #68
 2211              	.LVL224:
 215:lvgl/src/lv_draw/../lv_core/../lv_font/../lv_misc/lv_mem.h ****     const uint8_t * s8 = (const uint8_t *)src;
 2212              		.loc 3 215 15 view .LVU813
 2213              	.LBE292:
 2214              	.LBE291:
 2215              	.LBE290:
 727:lvgl/src/lv_draw/lv_draw_rect.c **** 
 2216              		.loc 1 727 24 view .LVU814
 2217 0574 0823     		movs	r3, #8
 2218              	.LVL225:
 727:lvgl/src/lv_draw/lv_draw_rect.c **** 
 2219              		.loc 1 727 24 view .LVU815
 2220 0576 04E0     		b	.L101
 2221              	.LVL226:
 2222              	.L102:
 2223              	.LBB295:
 2224              	.LBB294:
 2225              	.LBB293:
 219:lvgl/src/lv_draw/../lv_core/../lv_font/../lv_misc/lv_mem.h ****         d8++;
 2226              		.loc 3 219 9 is_stmt 1 view .LVU816
 219:lvgl/src/lv_draw/../lv_core/../lv_font/../lv_misc/lv_mem.h ****         d8++;
 2227              		.loc 3 219 15 is_stmt 0 view .LVU817
 2228 0578 11F8010B 		ldrb	r0, [r1], #1	@ zero_extendqisi2
 2229              	.LVL227:
 219:lvgl/src/lv_draw/../lv_core/../lv_font/../lv_misc/lv_mem.h ****         d8++;
 2230              		.loc 3 219 13 view .LVU818
 2231 057c 02F8010B 		strb	r0, [r2], #1
 2232              	.LVL228:
 220:lvgl/src/lv_draw/../lv_core/../lv_font/../lv_misc/lv_mem.h ****         s8++;
 2233              		.loc 3 220 9 is_stmt 1 view .LVU819
 221:lvgl/src/lv_draw/../lv_core/../lv_font/../lv_misc/lv_mem.h ****         len--;
ARM GAS  D:\Temp\ccGEpo4V.s 			page 78


 2234              		.loc 3 221 9 view .LVU820
 222:lvgl/src/lv_draw/../lv_core/../lv_font/../lv_misc/lv_mem.h ****     }
 2235              		.loc 3 222 9 view .LVU821
 222:lvgl/src/lv_draw/../lv_core/../lv_font/../lv_misc/lv_mem.h ****     }
 2236              		.loc 3 222 12 is_stmt 0 view .LVU822
 2237 0580 013B     		subs	r3, r3, #1
 2238              	.LVL229:
 2239              	.L101:
 218:lvgl/src/lv_draw/../lv_core/../lv_font/../lv_misc/lv_mem.h ****         *d8 = *s8;
 2240              		.loc 3 218 10 view .LVU823
 2241 0582 002B     		cmp	r3, #0
 2242 0584 F8D1     		bne	.L102
 2243              		.loc 3 225 5 is_stmt 1 view .LVU824
 2244              	.LVL230:
 2245              		.loc 3 225 5 is_stmt 0 view .LVU825
 2246              	.LBE293:
 2247              	.LBE294:
 2248              	.LBE295:
 731:lvgl/src/lv_draw/lv_draw_rect.c ****             mask_res = LV_DRAW_MASK_RES_FULL_COVER;
 2249              		.loc 1 731 13 is_stmt 1 view .LVU826
 731:lvgl/src/lv_draw/lv_draw_rect.c ****             mask_res = LV_DRAW_MASK_RES_FULL_COVER;
 2250              		.loc 1 731 23 is_stmt 0 view .LVU827
 2251 0586 BDF94630 		ldrsh	r3, [sp, #70]
 731:lvgl/src/lv_draw/lv_draw_rect.c ****             mask_res = LV_DRAW_MASK_RES_FULL_COVER;
 2252              		.loc 1 731 19 view .LVU828
 2253 058a ADF84A30 		strh	r3, [sp, #74]	@ movhi
 732:lvgl/src/lv_draw/lv_draw_rect.c ****             for(y = 0; y < h; y++) {
 2254              		.loc 1 732 13 is_stmt 1 view .LVU829
 2255              	.LVL231:
 733:lvgl/src/lv_draw/lv_draw_rect.c ****                 _lv_memcpy(mask_buf, sh_buf_tmp, w);
 2256              		.loc 1 733 13 view .LVU830
 733:lvgl/src/lv_draw/lv_draw_rect.c ****                 _lv_memcpy(mask_buf, sh_buf_tmp, w);
 2257              		.loc 1 733 19 is_stmt 0 view .LVU831
 2258 058e 4FF00008 		mov	r8, #0
 2259 0592 0F97     		str	r7, [sp, #60]
 2260 0594 079F     		ldr	r7, [sp, #28]
 2261              	.LVL232:
 733:lvgl/src/lv_draw/lv_draw_rect.c ****                 _lv_memcpy(mask_buf, sh_buf_tmp, w);
 2262              		.loc 1 733 13 view .LVU832
 2263 0596 22E0     		b	.L103
 2264              	.LVL233:
 2265              	.L182:
 740:lvgl/src/lv_draw/lv_draw_rect.c ****                     if(mask_res == LV_DRAW_MASK_RES_FULL_COVER) mask_res = LV_DRAW_MASK_RES_CHANGED
 2266              		.loc 1 740 21 is_stmt 1 view .LVU833
 740:lvgl/src/lv_draw/lv_draw_rect.c ****                     if(mask_res == LV_DRAW_MASK_RES_FULL_COVER) mask_res = LV_DRAW_MASK_RES_CHANGED
 2267              		.loc 1 740 32 is_stmt 0 view .LVU834
 2268 0598 5346     		mov	r3, r10
 2269 059a BDF94620 		ldrsh	r2, [sp, #70]
 2270 059e BDF94410 		ldrsh	r1, [sp, #68]
 2271 05a2 0598     		ldr	r0, [sp, #20]
 2272 05a4 FFF7FEFF 		bl	lv_draw_mask_apply
 2273              	.LVL234:
 741:lvgl/src/lv_draw/lv_draw_rect.c ****                 }
 2274              		.loc 1 741 21 is_stmt 1 view .LVU835
 741:lvgl/src/lv_draw/lv_draw_rect.c ****                 }
 2275              		.loc 1 741 23 is_stmt 0 view .LVU836
 2276 05a8 0128     		cmp	r0, #1
ARM GAS  D:\Temp\ccGEpo4V.s 			page 79


 2277 05aa 23D0     		beq	.L180
 2278              	.LVL235:
 2279              	.L104:
 744:lvgl/src/lv_draw/lv_draw_rect.c ****                                dsc->shadow_color, mask_buf, mask_res, dsc->shadow_opa, dsc->shadow_
 2280              		.loc 1 744 17 is_stmt 1 discriminator 2 view .LVU837
 2281 05ac 95F82B30 		ldrb	r3, [r5, #43]	@ zero_extendqisi2
 2282 05b0 0293     		str	r3, [sp, #8]
 2283 05b2 95F82A30 		ldrb	r3, [r5, #42]	@ zero_extendqisi2
 2284 05b6 0193     		str	r3, [sp, #4]
 2285 05b8 0090     		str	r0, [sp]
 2286 05ba 059B     		ldr	r3, [sp, #20]
 2287 05bc 2A8C     		ldrh	r2, [r5, #32]
 2288 05be 11A9     		add	r1, sp, #68
 2289 05c0 0698     		ldr	r0, [sp, #24]
 2290              	.LVL236:
 744:lvgl/src/lv_draw/lv_draw_rect.c ****                                dsc->shadow_color, mask_buf, mask_res, dsc->shadow_opa, dsc->shadow_
 2291              		.loc 1 744 17 is_stmt 0 discriminator 2 view .LVU838
 2292 05c2 FFF7FEFF 		bl	_lv_blend_fill
 2293              	.LVL237:
 746:lvgl/src/lv_draw/lv_draw_rect.c ****                 fa.y2++;
 2294              		.loc 1 746 17 is_stmt 1 discriminator 2 view .LVU839
 746:lvgl/src/lv_draw/lv_draw_rect.c ****                 fa.y2++;
 2295              		.loc 1 746 19 is_stmt 0 discriminator 2 view .LVU840
 2296 05c6 BDF94630 		ldrsh	r3, [sp, #70]
 746:lvgl/src/lv_draw/lv_draw_rect.c ****                 fa.y2++;
 2297              		.loc 1 746 22 discriminator 2 view .LVU841
 2298 05ca 0133     		adds	r3, r3, #1
 2299 05cc ADF84630 		strh	r3, [sp, #70]	@ movhi
 747:lvgl/src/lv_draw/lv_draw_rect.c ****             }
 2300              		.loc 1 747 17 is_stmt 1 discriminator 2 view .LVU842
 747:lvgl/src/lv_draw/lv_draw_rect.c ****             }
 2301              		.loc 1 747 19 is_stmt 0 discriminator 2 view .LVU843
 2302 05d0 BDF94A30 		ldrsh	r3, [sp, #74]
 747:lvgl/src/lv_draw/lv_draw_rect.c ****             }
 2303              		.loc 1 747 22 discriminator 2 view .LVU844
 2304 05d4 0133     		adds	r3, r3, #1
 2305 05d6 ADF84A30 		strh	r3, [sp, #74]	@ movhi
 733:lvgl/src/lv_draw/lv_draw_rect.c ****                 _lv_memcpy(mask_buf, sh_buf_tmp, w);
 2306              		.loc 1 733 32 discriminator 2 view .LVU845
 2307 05da 08F10108 		add	r8, r8, #1
 2308              	.LVL238:
 2309              	.L103:
 733:lvgl/src/lv_draw/lv_draw_rect.c ****                 _lv_memcpy(mask_buf, sh_buf_tmp, w);
 2310              		.loc 1 733 13 discriminator 1 view .LVU846
 2311 05de C145     		cmp	r9, r8
 2312 05e0 0ADD     		ble	.L181
 734:lvgl/src/lv_draw/lv_draw_rect.c **** 
 2313              		.loc 1 734 17 is_stmt 1 view .LVU847
 2314 05e2 5246     		mov	r2, r10
 2315 05e4 0B99     		ldr	r1, [sp, #44]
 2316 05e6 0598     		ldr	r0, [sp, #20]
 2317 05e8 FFF7FEFF 		bl	_lv_memcpy
 2318              	.LVL239:
 736:lvgl/src/lv_draw/lv_draw_rect.c ****                     mask_res = LV_DRAW_MASK_RES_CHANGED;
 2319              		.loc 1 736 17 view .LVU848
 736:lvgl/src/lv_draw/lv_draw_rect.c ****                     mask_res = LV_DRAW_MASK_RES_CHANGED;
 2320              		.loc 1 736 19 is_stmt 0 view .LVU849
ARM GAS  D:\Temp\ccGEpo4V.s 			page 80


 2321 05ec 002F     		cmp	r7, #0
 2322 05ee D3D0     		beq	.L182
 737:lvgl/src/lv_draw/lv_draw_rect.c ****                 }
 2323              		.loc 1 737 30 view .LVU850
 2324 05f0 0220     		movs	r0, #2
 2325 05f2 DBE7     		b	.L104
 2326              	.LVL240:
 2327              	.L180:
 741:lvgl/src/lv_draw/lv_draw_rect.c ****                 }
 2328              		.loc 1 741 74 view .LVU851
 2329 05f4 0220     		movs	r0, #2
 2330              	.LVL241:
 741:lvgl/src/lv_draw/lv_draw_rect.c ****                 }
 2331              		.loc 1 741 74 view .LVU852
 2332 05f6 D9E7     		b	.L104
 2333              	.L181:
 741:lvgl/src/lv_draw/lv_draw_rect.c ****                 }
 2334              		.loc 1 741 74 view .LVU853
 2335 05f8 0F9F     		ldr	r7, [sp, #60]
 2336 05fa 83E6     		b	.L99
 2337              	.LVL242:
 2338              	.L184:
 741:lvgl/src/lv_draw/lv_draw_rect.c ****                 }
 2339              		.loc 1 741 74 view .LVU854
 2340              	.LBE287:
 2341              	.LBE284:
 2342              	.LBB296:
 761:lvgl/src/lv_draw/lv_draw_rect.c ****     }
 2343              		.loc 1 761 9 is_stmt 1 discriminator 2 view .LVU855
 761:lvgl/src/lv_draw/lv_draw_rect.c ****     }
 2344              		.loc 1 761 20 is_stmt 0 discriminator 2 view .LVU856
 2345 05fc 2144     		add	r1, r1, r4
 2346              	.LVL243:
 761:lvgl/src/lv_draw/lv_draw_rect.c ****     }
 2347              		.loc 1 761 20 discriminator 2 view .LVU857
 2348              	.LBE296:
 754:lvgl/src/lv_draw/lv_draw_rect.c ****         int32_t x;
 2349              		.loc 1 754 34 discriminator 2 view .LVU858
 2350 05fe 0130     		adds	r0, r0, #1
 2351              	.LVL244:
 2352              	.L107:
 754:lvgl/src/lv_draw/lv_draw_rect.c ****         int32_t x;
 2353              		.loc 1 754 5 discriminator 1 view .LVU859
 2354 0600 A042     		cmp	r0, r4
 2355 0602 11DA     		bge	.L183
 2356              	.LBB297:
 756:lvgl/src/lv_draw/lv_draw_rect.c ****             lv_opa_t tmp = sh_buf_tmp[x];
 2357              		.loc 1 756 15 view .LVU860
 2358 0604 0023     		movs	r3, #0
 2359              	.L108:
 2360              	.LVL245:
 756:lvgl/src/lv_draw/lv_draw_rect.c ****             lv_opa_t tmp = sh_buf_tmp[x];
 2361              		.loc 1 756 36 discriminator 1 view .LVU861
 2362 0606 04EBD472 		add	r2, r4, r4, lsr #31
 756:lvgl/src/lv_draw/lv_draw_rect.c ****             lv_opa_t tmp = sh_buf_tmp[x];
 2363              		.loc 1 756 9 discriminator 1 view .LVU862
 2364 060a B3EB620F 		cmp	r3, r2, asr #1
ARM GAS  D:\Temp\ccGEpo4V.s 			page 81


 2365 060e F5DA     		bge	.L184
 2366              	.LBB253:
 757:lvgl/src/lv_draw/lv_draw_rect.c ****             sh_buf_tmp[x] = sh_buf_tmp[corner_size - x - 1];
 2367              		.loc 1 757 13 is_stmt 1 discriminator 3 view .LVU863
 757:lvgl/src/lv_draw/lv_draw_rect.c ****             sh_buf_tmp[x] = sh_buf_tmp[corner_size - x - 1];
 2368              		.loc 1 757 22 is_stmt 0 discriminator 3 view .LVU864
 2369 0610 11F803C0 		ldrb	ip, [r1, r3]	@ zero_extendqisi2
 2370              	.LVL246:
 758:lvgl/src/lv_draw/lv_draw_rect.c ****             sh_buf_tmp[corner_size - x - 1] = tmp;
 2371              		.loc 1 758 13 is_stmt 1 discriminator 3 view .LVU865
 758:lvgl/src/lv_draw/lv_draw_rect.c ****             sh_buf_tmp[corner_size - x - 1] = tmp;
 2372              		.loc 1 758 52 is_stmt 0 discriminator 3 view .LVU866
 2373 0614 E21A     		subs	r2, r4, r3
 758:lvgl/src/lv_draw/lv_draw_rect.c ****             sh_buf_tmp[corner_size - x - 1] = tmp;
 2374              		.loc 1 758 39 discriminator 3 view .LVU867
 2375 0616 013A     		subs	r2, r2, #1
 2376 0618 11F802E0 		ldrb	lr, [r1, r2]	@ zero_extendqisi2
 758:lvgl/src/lv_draw/lv_draw_rect.c ****             sh_buf_tmp[corner_size - x - 1] = tmp;
 2377              		.loc 1 758 27 discriminator 3 view .LVU868
 2378 061c 01F803E0 		strb	lr, [r1, r3]
 759:lvgl/src/lv_draw/lv_draw_rect.c ****         }
 2379              		.loc 1 759 13 is_stmt 1 discriminator 3 view .LVU869
 759:lvgl/src/lv_draw/lv_draw_rect.c ****         }
 2380              		.loc 1 759 45 is_stmt 0 discriminator 3 view .LVU870
 2381 0620 01F802C0 		strb	ip, [r1, r2]
 2382              	.LBE253:
 756:lvgl/src/lv_draw/lv_draw_rect.c ****             lv_opa_t tmp = sh_buf_tmp[x];
 2383              		.loc 1 756 42 discriminator 3 view .LVU871
 2384 0624 0133     		adds	r3, r3, #1
 2385              	.LVL247:
 756:lvgl/src/lv_draw/lv_draw_rect.c ****             lv_opa_t tmp = sh_buf_tmp[x];
 2386              		.loc 1 756 42 discriminator 3 view .LVU872
 2387 0626 EEE7     		b	.L108
 2388              	.LVL248:
 2389              	.L183:
 756:lvgl/src/lv_draw/lv_draw_rect.c ****             lv_opa_t tmp = sh_buf_tmp[x];
 2390              		.loc 1 756 42 discriminator 3 view .LVU873
 2391              	.LBE297:
 765:lvgl/src/lv_draw/lv_draw_rect.c ****     a.x2 = a.x1 + corner_size - 1;
 2392              		.loc 1 765 5 is_stmt 1 view .LVU874
 765:lvgl/src/lv_draw/lv_draw_rect.c ****     a.x2 = a.x1 + corner_size - 1;
 2393              		.loc 1 765 19 is_stmt 0 view .LVU875
 2394 0628 BDF98830 		ldrsh	r3, [sp, #136]
 765:lvgl/src/lv_draw/lv_draw_rect.c ****     a.x2 = a.x1 + corner_size - 1;
 2395              		.loc 1 765 10 view .LVU876
 2396 062c ADF85430 		strh	r3, [sp, #84]	@ movhi
 766:lvgl/src/lv_draw/lv_draw_rect.c ****     a.y1 = sh_area.y1;
 2397              		.loc 1 766 5 is_stmt 1 view .LVU877
 766:lvgl/src/lv_draw/lv_draw_rect.c ****     a.y1 = sh_area.y1;
 2398              		.loc 1 766 17 is_stmt 0 view .LVU878
 2399 0630 16FA83F3 		uxtah	r3, r6, r3
 2400 0634 9BB2     		uxth	r3, r3
 766:lvgl/src/lv_draw/lv_draw_rect.c ****     a.y1 = sh_area.y1;
 2401              		.loc 1 766 31 view .LVU879
 2402 0636 013B     		subs	r3, r3, #1
 766:lvgl/src/lv_draw/lv_draw_rect.c ****     a.y1 = sh_area.y1;
 2403              		.loc 1 766 10 view .LVU880
ARM GAS  D:\Temp\ccGEpo4V.s 			page 82


 2404 0638 ADF85830 		strh	r3, [sp, #88]	@ movhi
 767:lvgl/src/lv_draw/lv_draw_rect.c ****     a.y2 = a.y1 + corner_size - 1;
 2405              		.loc 1 767 5 is_stmt 1 view .LVU881
 767:lvgl/src/lv_draw/lv_draw_rect.c ****     a.y2 = a.y1 + corner_size - 1;
 2406              		.loc 1 767 19 is_stmt 0 view .LVU882
 2407 063c BDF98A30 		ldrsh	r3, [sp, #138]
 767:lvgl/src/lv_draw/lv_draw_rect.c ****     a.y2 = a.y1 + corner_size - 1;
 2408              		.loc 1 767 10 view .LVU883
 2409 0640 ADF85630 		strh	r3, [sp, #86]	@ movhi
 768:lvgl/src/lv_draw/lv_draw_rect.c **** 
 2410              		.loc 1 768 5 is_stmt 1 view .LVU884
 768:lvgl/src/lv_draw/lv_draw_rect.c **** 
 2411              		.loc 1 768 17 is_stmt 0 view .LVU885
 2412 0644 16FA83F3 		uxtah	r3, r6, r3
 2413 0648 9BB2     		uxth	r3, r3
 768:lvgl/src/lv_draw/lv_draw_rect.c **** 
 2414              		.loc 1 768 31 view .LVU886
 2415 064a 013B     		subs	r3, r3, #1
 768:lvgl/src/lv_draw/lv_draw_rect.c **** 
 2416              		.loc 1 768 10 view .LVU887
 2417 064c ADF85A30 		strh	r3, [sp, #90]	@ movhi
 770:lvgl/src/lv_draw/lv_draw_rect.c ****     if(has_com && _lv_area_is_in(&a, &bg_coords, r_bg) == false) {
 2418              		.loc 1 770 5 is_stmt 1 view .LVU888
 770:lvgl/src/lv_draw/lv_draw_rect.c ****     if(has_com && _lv_area_is_in(&a, &bg_coords, r_bg) == false) {
 2419              		.loc 1 770 15 is_stmt 0 view .LVU889
 2420 0650 069A     		ldr	r2, [sp, #24]
 2421 0652 15A9     		add	r1, sp, #84
 2422              	.LVL249:
 770:lvgl/src/lv_draw/lv_draw_rect.c ****     if(has_com && _lv_area_is_in(&a, &bg_coords, r_bg) == false) {
 2423              		.loc 1 770 15 view .LVU890
 2424 0654 13A8     		add	r0, sp, #76
 2425              	.LVL250:
 770:lvgl/src/lv_draw/lv_draw_rect.c ****     if(has_com && _lv_area_is_in(&a, &bg_coords, r_bg) == false) {
 2426              		.loc 1 770 15 view .LVU891
 2427 0656 FFF7FEFF 		bl	_lv_area_intersect
 2428              	.LVL251:
 771:lvgl/src/lv_draw/lv_draw_rect.c ****         /*Avoid overlap in the middle with large radius*/
 2429              		.loc 1 771 5 is_stmt 1 view .LVU892
 771:lvgl/src/lv_draw/lv_draw_rect.c ****         /*Avoid overlap in the middle with large radius*/
 2430              		.loc 1 771 7 is_stmt 0 view .LVU893
 2431 065a 0028     		cmp	r0, #0
 2432 065c 40F09A80 		bne	.L185
 2433              	.LVL252:
 2434              	.L109:
 801:lvgl/src/lv_draw/lv_draw_rect.c ****     a.x2 = a.x1 + corner_size - 1;
 2435              		.loc 1 801 5 is_stmt 1 view .LVU894
 801:lvgl/src/lv_draw/lv_draw_rect.c ****     a.x2 = a.x1 + corner_size - 1;
 2436              		.loc 1 801 19 is_stmt 0 view .LVU895
 2437 0660 BDF98830 		ldrsh	r3, [sp, #136]
 801:lvgl/src/lv_draw/lv_draw_rect.c ****     a.x2 = a.x1 + corner_size - 1;
 2438              		.loc 1 801 10 view .LVU896
 2439 0664 ADF85430 		strh	r3, [sp, #84]	@ movhi
 802:lvgl/src/lv_draw/lv_draw_rect.c ****     a.y1 = sh_area.y2 - corner_size + 1;
 2440              		.loc 1 802 5 is_stmt 1 view .LVU897
 802:lvgl/src/lv_draw/lv_draw_rect.c ****     a.y1 = sh_area.y2 - corner_size + 1;
 2441              		.loc 1 802 17 is_stmt 0 view .LVU898
 2442 0668 16FA83F3 		uxtah	r3, r6, r3
ARM GAS  D:\Temp\ccGEpo4V.s 			page 83


 2443 066c 9BB2     		uxth	r3, r3
 802:lvgl/src/lv_draw/lv_draw_rect.c ****     a.y1 = sh_area.y2 - corner_size + 1;
 2444              		.loc 1 802 31 view .LVU899
 2445 066e 013B     		subs	r3, r3, #1
 802:lvgl/src/lv_draw/lv_draw_rect.c ****     a.y1 = sh_area.y2 - corner_size + 1;
 2446              		.loc 1 802 10 view .LVU900
 2447 0670 ADF85830 		strh	r3, [sp, #88]	@ movhi
 803:lvgl/src/lv_draw/lv_draw_rect.c ****     a.y2 = sh_area.y2;
 2448              		.loc 1 803 5 is_stmt 1 view .LVU901
 803:lvgl/src/lv_draw/lv_draw_rect.c ****     a.y2 = sh_area.y2;
 2449              		.loc 1 803 19 is_stmt 0 view .LVU902
 2450 0674 BDF98E20 		ldrsh	r2, [sp, #142]
 2451 0678 93B2     		uxth	r3, r2
 803:lvgl/src/lv_draw/lv_draw_rect.c ****     a.y2 = sh_area.y2;
 2452              		.loc 1 803 23 view .LVU903
 2453 067a 9B1B     		subs	r3, r3, r6
 2454 067c 9BB2     		uxth	r3, r3
 803:lvgl/src/lv_draw/lv_draw_rect.c ****     a.y2 = sh_area.y2;
 2455              		.loc 1 803 37 view .LVU904
 2456 067e 0133     		adds	r3, r3, #1
 803:lvgl/src/lv_draw/lv_draw_rect.c ****     a.y2 = sh_area.y2;
 2457              		.loc 1 803 10 view .LVU905
 2458 0680 ADF85630 		strh	r3, [sp, #86]	@ movhi
 804:lvgl/src/lv_draw/lv_draw_rect.c **** 
 2459              		.loc 1 804 5 is_stmt 1 view .LVU906
 804:lvgl/src/lv_draw/lv_draw_rect.c **** 
 2460              		.loc 1 804 10 is_stmt 0 view .LVU907
 2461 0684 ADF85A20 		strh	r2, [sp, #90]	@ movhi
 806:lvgl/src/lv_draw/lv_draw_rect.c ****     if(has_com && _lv_area_is_in(&a, &bg_coords, r_bg) == false) {
 2462              		.loc 1 806 5 is_stmt 1 view .LVU908
 806:lvgl/src/lv_draw/lv_draw_rect.c ****     if(has_com && _lv_area_is_in(&a, &bg_coords, r_bg) == false) {
 2463              		.loc 1 806 15 is_stmt 0 view .LVU909
 2464 0688 069A     		ldr	r2, [sp, #24]
 2465 068a 15A9     		add	r1, sp, #84
 2466 068c 13A8     		add	r0, sp, #76
 2467 068e FFF7FEFF 		bl	_lv_area_intersect
 2468              	.LVL253:
 807:lvgl/src/lv_draw/lv_draw_rect.c ****         /*Avoid overlap in the middle with large radius*/
 2469              		.loc 1 807 5 is_stmt 1 view .LVU910
 807:lvgl/src/lv_draw/lv_draw_rect.c ****         /*Avoid overlap in the middle with large radius*/
 2470              		.loc 1 807 7 is_stmt 0 view .LVU911
 2471 0692 0028     		cmp	r0, #0
 2472 0694 40F0F680 		bne	.L186
 2473              	.LVL254:
 2474              	.L117:
 837:lvgl/src/lv_draw/lv_draw_rect.c ****     a.x2 = a.x1 + corner_size - 1;
 2475              		.loc 1 837 5 is_stmt 1 view .LVU912
 837:lvgl/src/lv_draw/lv_draw_rect.c ****     a.x2 = a.x1 + corner_size - 1;
 2476              		.loc 1 837 19 is_stmt 0 view .LVU913
 2477 0698 BDF98830 		ldrsh	r3, [sp, #136]
 837:lvgl/src/lv_draw/lv_draw_rect.c ****     a.x2 = a.x1 + corner_size - 1;
 2478              		.loc 1 837 10 view .LVU914
 2479 069c ADF85430 		strh	r3, [sp, #84]	@ movhi
 838:lvgl/src/lv_draw/lv_draw_rect.c ****     a.y1 = sh_area.y1 + corner_size;
 2480              		.loc 1 838 5 is_stmt 1 view .LVU915
 838:lvgl/src/lv_draw/lv_draw_rect.c ****     a.y1 = sh_area.y1 + corner_size;
 2481              		.loc 1 838 17 is_stmt 0 view .LVU916
ARM GAS  D:\Temp\ccGEpo4V.s 			page 84


 2482 06a0 16FA83F3 		uxtah	r3, r6, r3
 2483 06a4 9BB2     		uxth	r3, r3
 838:lvgl/src/lv_draw/lv_draw_rect.c ****     a.y1 = sh_area.y1 + corner_size;
 2484              		.loc 1 838 31 view .LVU917
 2485 06a6 013B     		subs	r3, r3, #1
 838:lvgl/src/lv_draw/lv_draw_rect.c ****     a.y1 = sh_area.y1 + corner_size;
 2486              		.loc 1 838 10 view .LVU918
 2487 06a8 ADF85830 		strh	r3, [sp, #88]	@ movhi
 839:lvgl/src/lv_draw/lv_draw_rect.c ****     a.y2 = sh_area.y2 - corner_size;
 2488              		.loc 1 839 5 is_stmt 1 view .LVU919
 839:lvgl/src/lv_draw/lv_draw_rect.c ****     a.y2 = sh_area.y2 - corner_size;
 2489              		.loc 1 839 19 is_stmt 0 view .LVU920
 2490 06ac BDF88A30 		ldrh	r3, [sp, #138]
 839:lvgl/src/lv_draw/lv_draw_rect.c ****     a.y2 = sh_area.y2 - corner_size;
 2491              		.loc 1 839 23 view .LVU921
 2492 06b0 3344     		add	r3, r3, r6
 839:lvgl/src/lv_draw/lv_draw_rect.c ****     a.y2 = sh_area.y2 - corner_size;
 2493              		.loc 1 839 10 view .LVU922
 2494 06b2 ADF85630 		strh	r3, [sp, #86]	@ movhi
 840:lvgl/src/lv_draw/lv_draw_rect.c **** 
 2495              		.loc 1 840 5 is_stmt 1 view .LVU923
 840:lvgl/src/lv_draw/lv_draw_rect.c **** 
 2496              		.loc 1 840 19 is_stmt 0 view .LVU924
 2497 06b6 BDF88E30 		ldrh	r3, [sp, #142]
 840:lvgl/src/lv_draw/lv_draw_rect.c **** 
 2498              		.loc 1 840 23 view .LVU925
 2499 06ba 9B1B     		subs	r3, r3, r6
 840:lvgl/src/lv_draw/lv_draw_rect.c **** 
 2500              		.loc 1 840 10 view .LVU926
 2501 06bc ADF85A30 		strh	r3, [sp, #90]	@ movhi
 842:lvgl/src/lv_draw/lv_draw_rect.c ****     if(has_com && _lv_area_is_in(&a, &bg_coords, r_bg) == false) {
 2502              		.loc 1 842 5 is_stmt 1 view .LVU927
 842:lvgl/src/lv_draw/lv_draw_rect.c ****     if(has_com && _lv_area_is_in(&a, &bg_coords, r_bg) == false) {
 2503              		.loc 1 842 15 is_stmt 0 view .LVU928
 2504 06c0 069A     		ldr	r2, [sp, #24]
 2505 06c2 15A9     		add	r1, sp, #84
 2506 06c4 13A8     		add	r0, sp, #76
 2507 06c6 FFF7FEFF 		bl	_lv_area_intersect
 2508              	.LVL255:
 843:lvgl/src/lv_draw/lv_draw_rect.c ****         if(simple_mode) ca.x2 = LV_MATH_MIN(coords->x1, ca.x2);
 2509              		.loc 1 843 5 is_stmt 1 view .LVU929
 843:lvgl/src/lv_draw/lv_draw_rect.c ****         if(simple_mode) ca.x2 = LV_MATH_MIN(coords->x1, ca.x2);
 2510              		.loc 1 843 7 is_stmt 0 view .LVU930
 2511 06ca 0028     		cmp	r0, #0
 2512 06cc 40F05881 		bne	.L187
 2513              	.LVL256:
 2514              	.L125:
 875:lvgl/src/lv_draw/lv_draw_rect.c ****     a.x2 = sh_area.x2 - corner_size;
 2515              		.loc 1 875 5 is_stmt 1 view .LVU931
 875:lvgl/src/lv_draw/lv_draw_rect.c ****     a.x2 = sh_area.x2 - corner_size;
 2516              		.loc 1 875 19 is_stmt 0 view .LVU932
 2517 06d0 BDF88830 		ldrh	r3, [sp, #136]
 875:lvgl/src/lv_draw/lv_draw_rect.c ****     a.x2 = sh_area.x2 - corner_size;
 2518              		.loc 1 875 23 view .LVU933
 2519 06d4 3344     		add	r3, r3, r6
 875:lvgl/src/lv_draw/lv_draw_rect.c ****     a.x2 = sh_area.x2 - corner_size;
 2520              		.loc 1 875 10 view .LVU934
ARM GAS  D:\Temp\ccGEpo4V.s 			page 85


 2521 06d6 ADF85430 		strh	r3, [sp, #84]	@ movhi
 876:lvgl/src/lv_draw/lv_draw_rect.c ****     a.y1 = sh_area.y1;
 2522              		.loc 1 876 5 is_stmt 1 view .LVU935
 876:lvgl/src/lv_draw/lv_draw_rect.c ****     a.y1 = sh_area.y1;
 2523              		.loc 1 876 19 is_stmt 0 view .LVU936
 2524 06da BDF88C30 		ldrh	r3, [sp, #140]
 876:lvgl/src/lv_draw/lv_draw_rect.c ****     a.y1 = sh_area.y1;
 2525              		.loc 1 876 23 view .LVU937
 2526 06de 9B1B     		subs	r3, r3, r6
 876:lvgl/src/lv_draw/lv_draw_rect.c ****     a.y1 = sh_area.y1;
 2527              		.loc 1 876 10 view .LVU938
 2528 06e0 ADF85830 		strh	r3, [sp, #88]	@ movhi
 877:lvgl/src/lv_draw/lv_draw_rect.c ****     a.y2 = sh_area.y1 + corner_size - 1;
 2529              		.loc 1 877 5 is_stmt 1 view .LVU939
 877:lvgl/src/lv_draw/lv_draw_rect.c ****     a.y2 = sh_area.y1 + corner_size - 1;
 2530              		.loc 1 877 19 is_stmt 0 view .LVU940
 2531 06e4 BDF98A30 		ldrsh	r3, [sp, #138]
 877:lvgl/src/lv_draw/lv_draw_rect.c ****     a.y2 = sh_area.y1 + corner_size - 1;
 2532              		.loc 1 877 10 view .LVU941
 2533 06e8 ADF85630 		strh	r3, [sp, #86]	@ movhi
 878:lvgl/src/lv_draw/lv_draw_rect.c **** 
 2534              		.loc 1 878 5 is_stmt 1 view .LVU942
 878:lvgl/src/lv_draw/lv_draw_rect.c **** 
 2535              		.loc 1 878 23 is_stmt 0 view .LVU943
 2536 06ec 16FA83F3 		uxtah	r3, r6, r3
 2537 06f0 9BB2     		uxth	r3, r3
 878:lvgl/src/lv_draw/lv_draw_rect.c **** 
 2538              		.loc 1 878 37 view .LVU944
 2539 06f2 013B     		subs	r3, r3, #1
 878:lvgl/src/lv_draw/lv_draw_rect.c **** 
 2540              		.loc 1 878 10 view .LVU945
 2541 06f4 ADF85A30 		strh	r3, [sp, #90]	@ movhi
 880:lvgl/src/lv_draw/lv_draw_rect.c ****     if(has_com && _lv_area_is_in(&a, &bg_coords, r_bg) == false) {
 2542              		.loc 1 880 5 is_stmt 1 view .LVU946
 880:lvgl/src/lv_draw/lv_draw_rect.c ****     if(has_com && _lv_area_is_in(&a, &bg_coords, r_bg) == false) {
 2543              		.loc 1 880 15 is_stmt 0 view .LVU947
 2544 06f8 069A     		ldr	r2, [sp, #24]
 2545 06fa 15A9     		add	r1, sp, #84
 2546 06fc 13A8     		add	r0, sp, #76
 2547 06fe FFF7FEFF 		bl	_lv_area_intersect
 2548              	.LVL257:
 881:lvgl/src/lv_draw/lv_draw_rect.c ****         if(simple_mode) ca.y2 = LV_MATH_MIN(ca.y2, coords->y1);
 2549              		.loc 1 881 5 is_stmt 1 view .LVU948
 881:lvgl/src/lv_draw/lv_draw_rect.c ****         if(simple_mode) ca.y2 = LV_MATH_MIN(ca.y2, coords->y1);
 2550              		.loc 1 881 7 is_stmt 0 view .LVU949
 2551 0702 0028     		cmp	r0, #0
 2552 0704 40F0BC81 		bne	.L188
 2553              	.LVL258:
 2554              	.L132:
 916:lvgl/src/lv_draw/lv_draw_rect.c ****     a.x2 = sh_area.x2 - corner_size;
 2555              		.loc 1 916 5 is_stmt 1 view .LVU950
 916:lvgl/src/lv_draw/lv_draw_rect.c ****     a.x2 = sh_area.x2 - corner_size;
 2556              		.loc 1 916 19 is_stmt 0 view .LVU951
 2557 0708 BDF88830 		ldrh	r3, [sp, #136]
 916:lvgl/src/lv_draw/lv_draw_rect.c ****     a.x2 = sh_area.x2 - corner_size;
 2558              		.loc 1 916 23 view .LVU952
 2559 070c 3344     		add	r3, r3, r6
ARM GAS  D:\Temp\ccGEpo4V.s 			page 86


 916:lvgl/src/lv_draw/lv_draw_rect.c ****     a.x2 = sh_area.x2 - corner_size;
 2560              		.loc 1 916 10 view .LVU953
 2561 070e ADF85430 		strh	r3, [sp, #84]	@ movhi
 917:lvgl/src/lv_draw/lv_draw_rect.c ****     a.y1 = sh_area.y2 - corner_size + 1;
 2562              		.loc 1 917 5 is_stmt 1 view .LVU954
 917:lvgl/src/lv_draw/lv_draw_rect.c ****     a.y1 = sh_area.y2 - corner_size + 1;
 2563              		.loc 1 917 19 is_stmt 0 view .LVU955
 2564 0712 BDF88C30 		ldrh	r3, [sp, #140]
 917:lvgl/src/lv_draw/lv_draw_rect.c ****     a.y1 = sh_area.y2 - corner_size + 1;
 2565              		.loc 1 917 23 view .LVU956
 2566 0716 9B1B     		subs	r3, r3, r6
 917:lvgl/src/lv_draw/lv_draw_rect.c ****     a.y1 = sh_area.y2 - corner_size + 1;
 2567              		.loc 1 917 10 view .LVU957
 2568 0718 ADF85830 		strh	r3, [sp, #88]	@ movhi
 918:lvgl/src/lv_draw/lv_draw_rect.c ****     a.y2 = sh_area.y2;
 2569              		.loc 1 918 5 is_stmt 1 view .LVU958
 918:lvgl/src/lv_draw/lv_draw_rect.c ****     a.y2 = sh_area.y2;
 2570              		.loc 1 918 19 is_stmt 0 view .LVU959
 2571 071c BDF98E20 		ldrsh	r2, [sp, #142]
 2572 0720 93B2     		uxth	r3, r2
 918:lvgl/src/lv_draw/lv_draw_rect.c ****     a.y2 = sh_area.y2;
 2573              		.loc 1 918 23 view .LVU960
 2574 0722 9B1B     		subs	r3, r3, r6
 2575 0724 9BB2     		uxth	r3, r3
 918:lvgl/src/lv_draw/lv_draw_rect.c ****     a.y2 = sh_area.y2;
 2576              		.loc 1 918 37 view .LVU961
 2577 0726 0133     		adds	r3, r3, #1
 918:lvgl/src/lv_draw/lv_draw_rect.c ****     a.y2 = sh_area.y2;
 2578              		.loc 1 918 10 view .LVU962
 2579 0728 ADF85630 		strh	r3, [sp, #86]	@ movhi
 919:lvgl/src/lv_draw/lv_draw_rect.c **** 
 2580              		.loc 1 919 5 is_stmt 1 view .LVU963
 919:lvgl/src/lv_draw/lv_draw_rect.c **** 
 2581              		.loc 1 919 10 is_stmt 0 view .LVU964
 2582 072c ADF85A20 		strh	r2, [sp, #90]	@ movhi
 921:lvgl/src/lv_draw/lv_draw_rect.c ****     if(has_com && _lv_area_is_in(&a, &bg_coords, r_bg) == false) {
 2583              		.loc 1 921 5 is_stmt 1 view .LVU965
 921:lvgl/src/lv_draw/lv_draw_rect.c ****     if(has_com && _lv_area_is_in(&a, &bg_coords, r_bg) == false) {
 2584              		.loc 1 921 15 is_stmt 0 view .LVU966
 2585 0730 069A     		ldr	r2, [sp, #24]
 2586 0732 15A9     		add	r1, sp, #84
 2587 0734 13A8     		add	r0, sp, #76
 2588 0736 FFF7FEFF 		bl	_lv_area_intersect
 2589              	.LVL259:
 922:lvgl/src/lv_draw/lv_draw_rect.c ****         if(simple_mode) ca.y1 = LV_MATH_MAX(ca.y1, coords->y2);
 2590              		.loc 1 922 5 is_stmt 1 view .LVU967
 922:lvgl/src/lv_draw/lv_draw_rect.c ****         if(simple_mode) ca.y1 = LV_MATH_MAX(ca.y1, coords->y2);
 2591              		.loc 1 922 7 is_stmt 0 view .LVU968
 2592 073a 0028     		cmp	r0, #0
 2593 073c 40F02282 		bne	.L189
 2594              	.LVL260:
 2595              	.L141:
 955:lvgl/src/lv_draw/lv_draw_rect.c ****     a.x2 = sh_area.x2 - corner_size;
 2596              		.loc 1 955 5 is_stmt 1 view .LVU969
 955:lvgl/src/lv_draw/lv_draw_rect.c ****     a.x2 = sh_area.x2 - corner_size;
 2597              		.loc 1 955 19 is_stmt 0 view .LVU970
 2598 0740 BDF88830 		ldrh	r3, [sp, #136]
ARM GAS  D:\Temp\ccGEpo4V.s 			page 87


 955:lvgl/src/lv_draw/lv_draw_rect.c ****     a.x2 = sh_area.x2 - corner_size;
 2599              		.loc 1 955 23 view .LVU971
 2600 0744 3344     		add	r3, r3, r6
 955:lvgl/src/lv_draw/lv_draw_rect.c ****     a.x2 = sh_area.x2 - corner_size;
 2601              		.loc 1 955 10 view .LVU972
 2602 0746 ADF85430 		strh	r3, [sp, #84]	@ movhi
 956:lvgl/src/lv_draw/lv_draw_rect.c ****     a.y1 = sh_area.y1 + corner_size;
 2603              		.loc 1 956 5 is_stmt 1 view .LVU973
 956:lvgl/src/lv_draw/lv_draw_rect.c ****     a.y1 = sh_area.y1 + corner_size;
 2604              		.loc 1 956 19 is_stmt 0 view .LVU974
 2605 074a BDF88C30 		ldrh	r3, [sp, #140]
 956:lvgl/src/lv_draw/lv_draw_rect.c ****     a.y1 = sh_area.y1 + corner_size;
 2606              		.loc 1 956 23 view .LVU975
 2607 074e 9B1B     		subs	r3, r3, r6
 956:lvgl/src/lv_draw/lv_draw_rect.c ****     a.y1 = sh_area.y1 + corner_size;
 2608              		.loc 1 956 10 view .LVU976
 2609 0750 ADF85830 		strh	r3, [sp, #88]	@ movhi
 957:lvgl/src/lv_draw/lv_draw_rect.c ****     a.y2 = sh_area.y2 - corner_size;
 2610              		.loc 1 957 5 is_stmt 1 view .LVU977
 957:lvgl/src/lv_draw/lv_draw_rect.c ****     a.y2 = sh_area.y2 - corner_size;
 2611              		.loc 1 957 19 is_stmt 0 view .LVU978
 2612 0754 BDF88A30 		ldrh	r3, [sp, #138]
 957:lvgl/src/lv_draw/lv_draw_rect.c ****     a.y2 = sh_area.y2 - corner_size;
 2613              		.loc 1 957 23 view .LVU979
 2614 0758 3344     		add	r3, r3, r6
 957:lvgl/src/lv_draw/lv_draw_rect.c ****     a.y2 = sh_area.y2 - corner_size;
 2615              		.loc 1 957 10 view .LVU980
 2616 075a ADF85630 		strh	r3, [sp, #86]	@ movhi
 958:lvgl/src/lv_draw/lv_draw_rect.c **** 
 2617              		.loc 1 958 5 is_stmt 1 view .LVU981
 958:lvgl/src/lv_draw/lv_draw_rect.c **** 
 2618              		.loc 1 958 19 is_stmt 0 view .LVU982
 2619 075e BDF88E30 		ldrh	r3, [sp, #142]
 958:lvgl/src/lv_draw/lv_draw_rect.c **** 
 2620              		.loc 1 958 23 view .LVU983
 2621 0762 9E1B     		subs	r6, r3, r6
 958:lvgl/src/lv_draw/lv_draw_rect.c **** 
 2622              		.loc 1 958 10 view .LVU984
 2623 0764 ADF85A60 		strh	r6, [sp, #90]	@ movhi
 960:lvgl/src/lv_draw/lv_draw_rect.c ****     if(has_com && simple_mode == false &&  _lv_area_is_in(&a, &bg_coords, r_bg) == false) {
 2624              		.loc 1 960 5 is_stmt 1 view .LVU985
 960:lvgl/src/lv_draw/lv_draw_rect.c ****     if(has_com && simple_mode == false &&  _lv_area_is_in(&a, &bg_coords, r_bg) == false) {
 2625              		.loc 1 960 15 is_stmt 0 view .LVU986
 2626 0768 069A     		ldr	r2, [sp, #24]
 2627 076a 15A9     		add	r1, sp, #84
 2628 076c 13A8     		add	r0, sp, #76
 2629 076e FFF7FEFF 		bl	_lv_area_intersect
 2630              	.LVL261:
 961:lvgl/src/lv_draw/lv_draw_rect.c ****         /*Draw horizontal lines*/
 2631              		.loc 1 961 5 is_stmt 1 view .LVU987
 961:lvgl/src/lv_draw/lv_draw_rect.c ****         /*Draw horizontal lines*/
 2632              		.loc 1 961 7 is_stmt 0 view .LVU988
 2633 0772 18B1     		cbz	r0, .L150
 961:lvgl/src/lv_draw/lv_draw_rect.c ****         /*Draw horizontal lines*/
 2634              		.loc 1 961 16 discriminator 1 view .LVU989
 2635 0774 079B     		ldr	r3, [sp, #28]
 2636 0776 002B     		cmp	r3, #0
ARM GAS  D:\Temp\ccGEpo4V.s 			page 88


 2637 0778 00F08882 		beq	.L190
 2638              	.LVL262:
 2639              	.L150:
 981:lvgl/src/lv_draw/lv_draw_rect.c ****     _lv_mem_buf_release(mask_buf);
 2640              		.loc 1 981 5 is_stmt 1 discriminator 1 view .LVU990
 2641 077c 0A98     		ldr	r0, [sp, #40]
 2642 077e FFF7FEFF 		bl	lv_draw_mask_remove_id
 2643              	.LVL263:
 982:lvgl/src/lv_draw/lv_draw_rect.c ****     _lv_mem_buf_release(sh_buf);
 2644              		.loc 1 982 5 discriminator 1 view .LVU991
 2645 0782 0598     		ldr	r0, [sp, #20]
 2646 0784 FFF7FEFF 		bl	_lv_mem_buf_release
 2647              	.LVL264:
 983:lvgl/src/lv_draw/lv_draw_rect.c **** }
 2648              		.loc 1 983 5 discriminator 1 view .LVU992
 2649 0788 0898     		ldr	r0, [sp, #32]
 2650 078a FFF7FEFF 		bl	_lv_mem_buf_release
 2651              	.LVL265:
 2652              	.L70:
 984:lvgl/src/lv_draw/lv_draw_rect.c **** 
 2653              		.loc 1 984 1 is_stmt 0 view .LVU993
 2654 078e 27B0     		add	sp, sp, #156
 2655              	.LCFI8:
 2656              		.cfi_remember_state
 2657              		.cfi_def_cfa_offset 36
 2658              		@ sp needed
 2659 0790 BDE8F08F 		pop	{r4, r5, r6, r7, r8, r9, r10, fp, pc}
 2660              	.LVL266:
 2661              	.L185:
 2662              	.LCFI9:
 2663              		.cfi_restore_state
 771:lvgl/src/lv_draw/lv_draw_rect.c ****         /*Avoid overlap in the middle with large radius*/
 2664              		.loc 1 771 19 discriminator 1 view .LVU994
 2665 0794 099A     		ldr	r2, [sp, #36]
 2666 0796 1EA9     		add	r1, sp, #120
 2667 0798 15A8     		add	r0, sp, #84
 2668              	.LVL267:
 771:lvgl/src/lv_draw/lv_draw_rect.c ****         /*Avoid overlap in the middle with large radius*/
 2669              		.loc 1 771 19 discriminator 1 view .LVU995
 2670 079a FFF7FEFF 		bl	_lv_area_is_in
 2671              	.LVL268:
 771:lvgl/src/lv_draw/lv_draw_rect.c ****         /*Avoid overlap in the middle with large radius*/
 2672              		.loc 1 771 16 discriminator 1 view .LVU996
 2673 079e 0028     		cmp	r0, #0
 2674 07a0 7FF45EAF 		bne	.L109
 2675              	.LBB298:
 773:lvgl/src/lv_draw/lv_draw_rect.c ****         if(ca.x2 > w_half) ca.x2 = w_half;
 2676              		.loc 1 773 9 is_stmt 1 view .LVU997
 773:lvgl/src/lv_draw/lv_draw_rect.c ****         if(ca.x2 > w_half) ca.x2 = w_half;
 2677              		.loc 1 773 14 is_stmt 0 view .LVU998
 2678 07a4 BDF95230 		ldrsh	r3, [sp, #82]
 773:lvgl/src/lv_draw/lv_draw_rect.c ****         if(ca.x2 > w_half) ca.x2 = w_half;
 2679              		.loc 1 773 11 view .LVU999
 2680 07a8 5B45     		cmp	r3, fp
 2681 07aa 01DD     		ble	.L110
 773:lvgl/src/lv_draw/lv_draw_rect.c ****         if(ca.x2 > w_half) ca.x2 = w_half;
 2682              		.loc 1 773 28 is_stmt 1 discriminator 1 view .LVU1000
ARM GAS  D:\Temp\ccGEpo4V.s 			page 89


 773:lvgl/src/lv_draw/lv_draw_rect.c ****         if(ca.x2 > w_half) ca.x2 = w_half;
 2683              		.loc 1 773 34 is_stmt 0 discriminator 1 view .LVU1001
 2684 07ac ADF852B0 		strh	fp, [sp, #82]	@ movhi
 2685              	.L110:
 774:lvgl/src/lv_draw/lv_draw_rect.c **** 
 2686              		.loc 1 774 9 is_stmt 1 view .LVU1002
 774:lvgl/src/lv_draw/lv_draw_rect.c **** 
 2687              		.loc 1 774 14 is_stmt 0 view .LVU1003
 2688 07b0 BDF95030 		ldrsh	r3, [sp, #80]
 774:lvgl/src/lv_draw/lv_draw_rect.c **** 
 2689              		.loc 1 774 11 view .LVU1004
 2690 07b4 0D9A     		ldr	r2, [sp, #52]
 2691 07b6 9342     		cmp	r3, r2
 2692 07b8 01DD     		ble	.L111
 774:lvgl/src/lv_draw/lv_draw_rect.c **** 
 2693              		.loc 1 774 28 is_stmt 1 discriminator 1 view .LVU1005
 774:lvgl/src/lv_draw/lv_draw_rect.c **** 
 2694              		.loc 1 774 34 is_stmt 0 discriminator 1 view .LVU1006
 2695 07ba ADF85020 		strh	r2, [sp, #80]	@ movhi
 2696              	.L111:
 776:lvgl/src/lv_draw/lv_draw_rect.c ****         lv_coord_t w = lv_area_get_width(&ca);
 2697              		.loc 1 776 9 is_stmt 1 view .LVU1007
 2698              	.LVL269:
 2699              	.LBB299:
 2700              	.LBI299:
 117:lvgl/src/lv_draw/../lv_core/../lv_font/../lv_misc/lv_area.h **** {
 2701              		.loc 2 117 26 view .LVU1008
 2702              	.LBB300:
 2703              		.loc 2 119 5 view .LVU1009
 2704              		.loc 2 119 31 is_stmt 0 view .LVU1010
 2705 07be BDF852A0 		ldrh	r10, [sp, #82]
 2706              		.loc 2 119 44 view .LVU1011
 2707 07c2 BDF94E20 		ldrsh	r2, [sp, #78]
 2708 07c6 93B2     		uxth	r3, r2
 2709              		.loc 2 119 36 view .LVU1012
 2710 07c8 AAEB030A 		sub	r10, r10, r3
 2711 07cc 1FFA8AFA 		uxth	r10, r10
 2712              		.loc 2 119 49 view .LVU1013
 2713 07d0 0AF1010A 		add	r10, r10, #1
 2714              		.loc 2 119 12 view .LVU1014
 2715 07d4 0FFA8AFA 		sxth	r10, r10
 2716              	.LVL270:
 2717              		.loc 2 119 12 view .LVU1015
 2718              	.LBE300:
 2719              	.LBE299:
 777:lvgl/src/lv_draw/lv_draw_rect.c ****         if(w > 0) {
 2720              		.loc 1 777 9 is_stmt 1 view .LVU1016
 2721              	.LBB301:
 2722              	.LBI301:
 107:lvgl/src/lv_draw/../lv_core/../lv_font/../lv_misc/lv_area.h **** {
 2723              		.loc 2 107 26 view .LVU1017
 2724              	.LBB302:
 109:lvgl/src/lv_draw/../lv_core/../lv_font/../lv_misc/lv_area.h **** }
 2725              		.loc 2 109 5 view .LVU1018
 109:lvgl/src/lv_draw/../lv_core/../lv_font/../lv_misc/lv_area.h **** }
 2726              		.loc 2 109 31 is_stmt 0 view .LVU1019
 2727 07d8 BDF85030 		ldrh	r3, [sp, #80]
ARM GAS  D:\Temp\ccGEpo4V.s 			page 90


 109:lvgl/src/lv_draw/../lv_core/../lv_font/../lv_misc/lv_area.h **** }
 2728              		.loc 2 109 44 view .LVU1020
 2729 07dc BDF94C10 		ldrsh	r1, [sp, #76]
 2730 07e0 88B2     		uxth	r0, r1
 109:lvgl/src/lv_draw/../lv_core/../lv_font/../lv_misc/lv_area.h **** }
 2731              		.loc 2 109 36 view .LVU1021
 2732 07e2 1B1A     		subs	r3, r3, r0
 2733 07e4 9BB2     		uxth	r3, r3
 109:lvgl/src/lv_draw/../lv_core/../lv_font/../lv_misc/lv_area.h **** }
 2734              		.loc 2 109 49 view .LVU1022
 2735 07e6 0133     		adds	r3, r3, #1
 109:lvgl/src/lv_draw/../lv_core/../lv_font/../lv_misc/lv_area.h **** }
 2736              		.loc 2 109 12 view .LVU1023
 2737 07e8 1BB2     		sxth	r3, r3
 2738 07ea 0B93     		str	r3, [sp, #44]
 2739              	.LVL271:
 109:lvgl/src/lv_draw/../lv_core/../lv_font/../lv_misc/lv_area.h **** }
 2740              		.loc 2 109 12 view .LVU1024
 2741              	.LBE302:
 2742              	.LBE301:
 778:lvgl/src/lv_draw/lv_draw_rect.c ****             sh_buf_tmp = sh_buf + (ca.x1 - a.x1);
 2743              		.loc 1 778 9 is_stmt 1 view .LVU1025
 778:lvgl/src/lv_draw/lv_draw_rect.c ****             sh_buf_tmp = sh_buf + (ca.x1 - a.x1);
 2744              		.loc 1 778 11 is_stmt 0 view .LVU1026
 2745 07ec 002B     		cmp	r3, #0
 2746 07ee 7FF737AF 		ble	.L109
 2747              	.LBB303:
 779:lvgl/src/lv_draw/lv_draw_rect.c ****             sh_buf_tmp += corner_size * (ca.y1 - a.y1);
 2748              		.loc 1 779 13 is_stmt 1 view .LVU1027
 779:lvgl/src/lv_draw/lv_draw_rect.c ****             sh_buf_tmp += corner_size * (ca.y1 - a.y1);
 2749              		.loc 1 779 45 is_stmt 0 view .LVU1028
 2750 07f2 BDF95480 		ldrsh	r8, [sp, #84]
 779:lvgl/src/lv_draw/lv_draw_rect.c ****             sh_buf_tmp += corner_size * (ca.y1 - a.y1);
 2751              		.loc 1 779 42 view .LVU1029
 2752 07f6 A1EB0801 		sub	r1, r1, r8
 2753              	.LVL272:
 780:lvgl/src/lv_draw/lv_draw_rect.c **** 
 2754              		.loc 1 780 13 is_stmt 1 view .LVU1030
 780:lvgl/src/lv_draw/lv_draw_rect.c **** 
 2755              		.loc 1 780 51 is_stmt 0 view .LVU1031
 2756 07fa BDF95680 		ldrsh	r8, [sp, #86]
 780:lvgl/src/lv_draw/lv_draw_rect.c **** 
 2757              		.loc 1 780 48 view .LVU1032
 2758 07fe A2EB0808 		sub	r8, r2, r8
 780:lvgl/src/lv_draw/lv_draw_rect.c **** 
 2759              		.loc 1 780 24 view .LVU1033
 2760 0802 04FB0818 		mla	r8, r4, r8, r1
 2761 0806 089B     		ldr	r3, [sp, #32]
 2762              	.LVL273:
 780:lvgl/src/lv_draw/lv_draw_rect.c **** 
 2763              		.loc 1 780 24 view .LVU1034
 2764 0808 9844     		add	r8, r8, r3
 2765              	.LVL274:
 782:lvgl/src/lv_draw/lv_draw_rect.c ****             lv_area_copy(&fa, &ca);
 2766              		.loc 1 782 13 is_stmt 1 view .LVU1035
 783:lvgl/src/lv_draw/lv_draw_rect.c ****             fa.y2 = fa.y1;
 2767              		.loc 1 783 13 view .LVU1036
ARM GAS  D:\Temp\ccGEpo4V.s 			page 91


 2768              	.LBB304:
 2769              	.LBI304:
  97:lvgl/src/lv_draw/../lv_core/../lv_font/../lv_misc/lv_area.h **** {
 2770              		.loc 2 97 20 view .LVU1037
 2771              	.LBE304:
 2772              	.LBE303:
 2773              	.LBE298:
  99:lvgl/src/lv_draw/../lv_core/../lv_font/../lv_misc/lv_area.h **** }
 2774              		.loc 2 99 5 view .LVU1038
 2775              	.LBB312:
 2776              	.LBB311:
 2777              	.LBB309:
 2778              	.LBB305:
 2779              	.LBI305:
 213:lvgl/src/lv_draw/../lv_core/../lv_font/../lv_misc/lv_mem.h **** {
 2780              		.loc 3 213 44 view .LVU1039
 2781              	.LBB306:
 215:lvgl/src/lv_draw/../lv_core/../lv_font/../lv_misc/lv_mem.h ****     const uint8_t * s8 = (const uint8_t *)src;
 2782              		.loc 3 215 5 view .LVU1040
 216:lvgl/src/lv_draw/../lv_core/../lv_font/../lv_misc/lv_mem.h **** 
 2783              		.loc 3 216 5 view .LVU1041
 218:lvgl/src/lv_draw/../lv_core/../lv_font/../lv_misc/lv_mem.h ****         *d8 = *s8;
 2784              		.loc 3 218 5 view .LVU1042
 216:lvgl/src/lv_draw/../lv_core/../lv_font/../lv_misc/lv_mem.h **** 
 2785              		.loc 3 216 21 is_stmt 0 view .LVU1043
 2786 080a 13A9     		add	r1, sp, #76
 2787              	.LVL275:
 215:lvgl/src/lv_draw/../lv_core/../lv_font/../lv_misc/lv_mem.h ****     const uint8_t * s8 = (const uint8_t *)src;
 2788              		.loc 3 215 15 view .LVU1044
 2789 080c 11AA     		add	r2, sp, #68
 2790              	.LVL276:
 215:lvgl/src/lv_draw/../lv_core/../lv_font/../lv_misc/lv_mem.h ****     const uint8_t * s8 = (const uint8_t *)src;
 2791              		.loc 3 215 15 view .LVU1045
 2792              	.LBE306:
 2793              	.LBE305:
 2794              	.LBE309:
 780:lvgl/src/lv_draw/lv_draw_rect.c **** 
 2795              		.loc 1 780 24 view .LVU1046
 2796 080e 0823     		movs	r3, #8
 2797              	.LVL277:
 2798              	.L112:
 2799              	.LBB310:
 2800              	.LBB308:
 2801              	.LBB307:
 218:lvgl/src/lv_draw/../lv_core/../lv_font/../lv_misc/lv_mem.h ****         *d8 = *s8;
 2802              		.loc 3 218 10 view .LVU1047
 2803 0810 2BB1     		cbz	r3, .L191
 219:lvgl/src/lv_draw/../lv_core/../lv_font/../lv_misc/lv_mem.h ****         d8++;
 2804              		.loc 3 219 9 is_stmt 1 view .LVU1048
 219:lvgl/src/lv_draw/../lv_core/../lv_font/../lv_misc/lv_mem.h ****         d8++;
 2805              		.loc 3 219 15 is_stmt 0 view .LVU1049
 2806 0812 11F8010B 		ldrb	r0, [r1], #1	@ zero_extendqisi2
 2807              	.LVL278:
 219:lvgl/src/lv_draw/../lv_core/../lv_font/../lv_misc/lv_mem.h ****         d8++;
 2808              		.loc 3 219 13 view .LVU1050
 2809 0816 02F8010B 		strb	r0, [r2], #1
 2810              	.LVL279:
ARM GAS  D:\Temp\ccGEpo4V.s 			page 92


 220:lvgl/src/lv_draw/../lv_core/../lv_font/../lv_misc/lv_mem.h ****         s8++;
 2811              		.loc 3 220 9 is_stmt 1 view .LVU1051
 221:lvgl/src/lv_draw/../lv_core/../lv_font/../lv_misc/lv_mem.h ****         len--;
 2812              		.loc 3 221 9 view .LVU1052
 222:lvgl/src/lv_draw/../lv_core/../lv_font/../lv_misc/lv_mem.h ****     }
 2813              		.loc 3 222 9 view .LVU1053
 222:lvgl/src/lv_draw/../lv_core/../lv_font/../lv_misc/lv_mem.h ****     }
 2814              		.loc 3 222 12 is_stmt 0 view .LVU1054
 2815 081a 013B     		subs	r3, r3, #1
 2816              	.LVL280:
 222:lvgl/src/lv_draw/../lv_core/../lv_font/../lv_misc/lv_mem.h ****     }
 2817              		.loc 3 222 12 view .LVU1055
 2818 081c F8E7     		b	.L112
 2819              	.L191:
 2820              		.loc 3 225 5 is_stmt 1 view .LVU1056
 2821              	.LVL281:
 2822              		.loc 3 225 5 is_stmt 0 view .LVU1057
 2823              	.LBE307:
 2824              	.LBE308:
 2825              	.LBE310:
 784:lvgl/src/lv_draw/lv_draw_rect.c **** 
 2826              		.loc 1 784 13 is_stmt 1 view .LVU1058
 784:lvgl/src/lv_draw/lv_draw_rect.c **** 
 2827              		.loc 1 784 23 is_stmt 0 view .LVU1059
 2828 081e BDF94630 		ldrsh	r3, [sp, #70]
 784:lvgl/src/lv_draw/lv_draw_rect.c **** 
 2829              		.loc 1 784 19 view .LVU1060
 2830 0822 ADF84A30 		strh	r3, [sp, #74]	@ movhi
 786:lvgl/src/lv_draw/lv_draw_rect.c ****                 _lv_memcpy(mask_buf, sh_buf_tmp, w);
 2831              		.loc 1 786 13 is_stmt 1 view .LVU1061
 2832              	.LVL282:
 786:lvgl/src/lv_draw/lv_draw_rect.c ****                 _lv_memcpy(mask_buf, sh_buf_tmp, w);
 2833              		.loc 1 786 19 is_stmt 0 view .LVU1062
 2834 0826 4FF00009 		mov	r9, #0
 786:lvgl/src/lv_draw/lv_draw_rect.c ****                 _lv_memcpy(mask_buf, sh_buf_tmp, w);
 2835              		.loc 1 786 13 view .LVU1063
 2836 082a 17E0     		b	.L114
 2837              	.LVL283:
 2838              	.L115:
 791:lvgl/src/lv_draw/lv_draw_rect.c ****                                mask_res, opa, dsc->shadow_blend_mode);
 2839              		.loc 1 791 17 is_stmt 1 discriminator 2 view .LVU1064
 2840 082c 95F82B30 		ldrb	r3, [r5, #43]	@ zero_extendqisi2
 2841 0830 0293     		str	r3, [sp, #8]
 2842 0832 0197     		str	r7, [sp, #4]
 2843 0834 0090     		str	r0, [sp]
 2844 0836 059B     		ldr	r3, [sp, #20]
 2845 0838 2A8C     		ldrh	r2, [r5, #32]
 2846 083a 11A9     		add	r1, sp, #68
 2847 083c 0698     		ldr	r0, [sp, #24]
 2848              	.LVL284:
 791:lvgl/src/lv_draw/lv_draw_rect.c ****                                mask_res, opa, dsc->shadow_blend_mode);
 2849              		.loc 1 791 17 is_stmt 0 discriminator 2 view .LVU1065
 2850 083e FFF7FEFF 		bl	_lv_blend_fill
 2851              	.LVL285:
 793:lvgl/src/lv_draw/lv_draw_rect.c ****                 fa.y2++;
 2852              		.loc 1 793 17 is_stmt 1 discriminator 2 view .LVU1066
 793:lvgl/src/lv_draw/lv_draw_rect.c ****                 fa.y2++;
ARM GAS  D:\Temp\ccGEpo4V.s 			page 93


 2853              		.loc 1 793 19 is_stmt 0 discriminator 2 view .LVU1067
 2854 0842 BDF94630 		ldrsh	r3, [sp, #70]
 793:lvgl/src/lv_draw/lv_draw_rect.c ****                 fa.y2++;
 2855              		.loc 1 793 22 discriminator 2 view .LVU1068
 2856 0846 0133     		adds	r3, r3, #1
 2857 0848 ADF84630 		strh	r3, [sp, #70]	@ movhi
 794:lvgl/src/lv_draw/lv_draw_rect.c ****                 sh_buf_tmp += corner_size;
 2858              		.loc 1 794 17 is_stmt 1 discriminator 2 view .LVU1069
 794:lvgl/src/lv_draw/lv_draw_rect.c ****                 sh_buf_tmp += corner_size;
 2859              		.loc 1 794 19 is_stmt 0 discriminator 2 view .LVU1070
 2860 084c BDF94A30 		ldrsh	r3, [sp, #74]
 794:lvgl/src/lv_draw/lv_draw_rect.c ****                 sh_buf_tmp += corner_size;
 2861              		.loc 1 794 22 discriminator 2 view .LVU1071
 2862 0850 0133     		adds	r3, r3, #1
 2863 0852 ADF84A30 		strh	r3, [sp, #74]	@ movhi
 795:lvgl/src/lv_draw/lv_draw_rect.c ****             }
 2864              		.loc 1 795 17 is_stmt 1 discriminator 2 view .LVU1072
 795:lvgl/src/lv_draw/lv_draw_rect.c ****             }
 2865              		.loc 1 795 28 is_stmt 0 discriminator 2 view .LVU1073
 2866 0856 A044     		add	r8, r8, r4
 2867              	.LVL286:
 786:lvgl/src/lv_draw/lv_draw_rect.c ****                 _lv_memcpy(mask_buf, sh_buf_tmp, w);
 2868              		.loc 1 786 32 discriminator 2 view .LVU1074
 2869 0858 09F10109 		add	r9, r9, #1
 2870              	.LVL287:
 2871              	.L114:
 786:lvgl/src/lv_draw/lv_draw_rect.c ****                 _lv_memcpy(mask_buf, sh_buf_tmp, w);
 2872              		.loc 1 786 13 discriminator 1 view .LVU1075
 2873 085c CA45     		cmp	r10, r9
 2874 085e 7FF7FFAE 		ble	.L109
 787:lvgl/src/lv_draw/lv_draw_rect.c ****                 mask_res = lv_draw_mask_apply(mask_buf, fa.x1, fa.y1, w);
 2875              		.loc 1 787 17 is_stmt 1 view .LVU1076
 2876 0862 0B9A     		ldr	r2, [sp, #44]
 2877 0864 4146     		mov	r1, r8
 2878 0866 0598     		ldr	r0, [sp, #20]
 2879 0868 FFF7FEFF 		bl	_lv_memcpy
 2880              	.LVL288:
 788:lvgl/src/lv_draw/lv_draw_rect.c ****                 if(mask_res == LV_DRAW_MASK_RES_FULL_COVER) mask_res = LV_DRAW_MASK_RES_CHANGED;
 2881              		.loc 1 788 17 view .LVU1077
 788:lvgl/src/lv_draw/lv_draw_rect.c ****                 if(mask_res == LV_DRAW_MASK_RES_FULL_COVER) mask_res = LV_DRAW_MASK_RES_CHANGED;
 2882              		.loc 1 788 28 is_stmt 0 view .LVU1078
 2883 086c 0B9B     		ldr	r3, [sp, #44]
 2884 086e BDF94620 		ldrsh	r2, [sp, #70]
 2885 0872 BDF94410 		ldrsh	r1, [sp, #68]
 2886 0876 0598     		ldr	r0, [sp, #20]
 2887 0878 FFF7FEFF 		bl	lv_draw_mask_apply
 2888              	.LVL289:
 789:lvgl/src/lv_draw/lv_draw_rect.c **** 
 2889              		.loc 1 789 17 is_stmt 1 view .LVU1079
 789:lvgl/src/lv_draw/lv_draw_rect.c **** 
 2890              		.loc 1 789 19 is_stmt 0 view .LVU1080
 2891 087c 0128     		cmp	r0, #1
 2892 087e D5D1     		bne	.L115
 789:lvgl/src/lv_draw/lv_draw_rect.c **** 
 2893              		.loc 1 789 70 view .LVU1081
 2894 0880 0220     		movs	r0, #2
 2895              	.LVL290:
ARM GAS  D:\Temp\ccGEpo4V.s 			page 94


 789:lvgl/src/lv_draw/lv_draw_rect.c **** 
 2896              		.loc 1 789 70 view .LVU1082
 2897 0882 D3E7     		b	.L115
 2898              	.LVL291:
 2899              	.L186:
 789:lvgl/src/lv_draw/lv_draw_rect.c **** 
 2900              		.loc 1 789 70 view .LVU1083
 2901              	.LBE311:
 2902              	.LBE312:
 807:lvgl/src/lv_draw/lv_draw_rect.c ****         /*Avoid overlap in the middle with large radius*/
 2903              		.loc 1 807 19 discriminator 1 view .LVU1084
 2904 0884 099A     		ldr	r2, [sp, #36]
 2905 0886 1EA9     		add	r1, sp, #120
 2906 0888 15A8     		add	r0, sp, #84
 2907              	.LVL292:
 807:lvgl/src/lv_draw/lv_draw_rect.c ****         /*Avoid overlap in the middle with large radius*/
 2908              		.loc 1 807 19 discriminator 1 view .LVU1085
 2909 088a FFF7FEFF 		bl	_lv_area_is_in
 2910              	.LVL293:
 807:lvgl/src/lv_draw/lv_draw_rect.c ****         /*Avoid overlap in the middle with large radius*/
 2911              		.loc 1 807 16 discriminator 1 view .LVU1086
 2912 088e 0028     		cmp	r0, #0
 2913 0890 7FF402AF 		bne	.L117
 2914              	.LBB313:
 809:lvgl/src/lv_draw/lv_draw_rect.c ****         if(ca.x2 > w_half) ca.x2 = w_half;
 2915              		.loc 1 809 9 is_stmt 1 view .LVU1087
 809:lvgl/src/lv_draw/lv_draw_rect.c ****         if(ca.x2 > w_half) ca.x2 = w_half;
 2916              		.loc 1 809 14 is_stmt 0 view .LVU1088
 2917 0894 BDF94E30 		ldrsh	r3, [sp, #78]
 809:lvgl/src/lv_draw/lv_draw_rect.c ****         if(ca.x2 > w_half) ca.x2 = w_half;
 2918              		.loc 1 809 11 view .LVU1089
 2919 0898 5B45     		cmp	r3, fp
 2920 089a 03DC     		bgt	.L118
 809:lvgl/src/lv_draw/lv_draw_rect.c ****         if(ca.x2 > w_half) ca.x2 = w_half;
 2921              		.loc 1 809 29 is_stmt 1 discriminator 1 view .LVU1090
 809:lvgl/src/lv_draw/lv_draw_rect.c ****         if(ca.x2 > w_half) ca.x2 = w_half;
 2922              		.loc 1 809 44 is_stmt 0 discriminator 1 view .LVU1091
 2923 089c 0E9B     		ldr	r3, [sp, #56]
 2924 089e 0133     		adds	r3, r3, #1
 809:lvgl/src/lv_draw/lv_draw_rect.c ****         if(ca.x2 > w_half) ca.x2 = w_half;
 2925              		.loc 1 809 35 discriminator 1 view .LVU1092
 2926 08a0 ADF84E30 		strh	r3, [sp, #78]	@ movhi
 2927              	.L118:
 810:lvgl/src/lv_draw/lv_draw_rect.c ****         lv_coord_t h = lv_area_get_height(&ca);
 2928              		.loc 1 810 9 is_stmt 1 view .LVU1093
 810:lvgl/src/lv_draw/lv_draw_rect.c ****         lv_coord_t h = lv_area_get_height(&ca);
 2929              		.loc 1 810 14 is_stmt 0 view .LVU1094
 2930 08a4 BDF95030 		ldrsh	r3, [sp, #80]
 810:lvgl/src/lv_draw/lv_draw_rect.c ****         lv_coord_t h = lv_area_get_height(&ca);
 2931              		.loc 1 810 11 view .LVU1095
 2932 08a8 0D9A     		ldr	r2, [sp, #52]
 2933 08aa 9342     		cmp	r3, r2
 2934 08ac 01DD     		ble	.L119
 810:lvgl/src/lv_draw/lv_draw_rect.c ****         lv_coord_t h = lv_area_get_height(&ca);
 2935              		.loc 1 810 28 is_stmt 1 discriminator 1 view .LVU1096
 810:lvgl/src/lv_draw/lv_draw_rect.c ****         lv_coord_t h = lv_area_get_height(&ca);
 2936              		.loc 1 810 34 is_stmt 0 discriminator 1 view .LVU1097
ARM GAS  D:\Temp\ccGEpo4V.s 			page 95


 2937 08ae ADF85020 		strh	r2, [sp, #80]	@ movhi
 2938              	.L119:
 811:lvgl/src/lv_draw/lv_draw_rect.c ****         lv_coord_t w = lv_area_get_width(&ca);
 2939              		.loc 1 811 9 is_stmt 1 view .LVU1098
 2940              	.LVL294:
 2941              	.LBB314:
 2942              	.LBI314:
 117:lvgl/src/lv_draw/../lv_core/../lv_font/../lv_misc/lv_area.h **** {
 2943              		.loc 2 117 26 view .LVU1099
 2944              	.LBB315:
 2945              		.loc 2 119 5 view .LVU1100
 2946              		.loc 2 119 31 is_stmt 0 view .LVU1101
 2947 08b2 BDF95230 		ldrsh	r3, [sp, #82]
 2948 08b6 1FFA83FA 		uxth	r10, r3
 2949              		.loc 2 119 44 view .LVU1102
 2950 08ba BDF84E20 		ldrh	r2, [sp, #78]
 2951              		.loc 2 119 36 view .LVU1103
 2952 08be AAEB020A 		sub	r10, r10, r2
 2953 08c2 1FFA8AFA 		uxth	r10, r10
 2954              		.loc 2 119 49 view .LVU1104
 2955 08c6 0AF1010A 		add	r10, r10, #1
 2956              		.loc 2 119 12 view .LVU1105
 2957 08ca 0FFA8AFA 		sxth	r10, r10
 2958              	.LVL295:
 2959              		.loc 2 119 12 view .LVU1106
 2960              	.LBE315:
 2961              	.LBE314:
 812:lvgl/src/lv_draw/lv_draw_rect.c **** 
 2962              		.loc 1 812 9 is_stmt 1 view .LVU1107
 2963              	.LBB316:
 2964              	.LBI316:
 107:lvgl/src/lv_draw/../lv_core/../lv_font/../lv_misc/lv_area.h **** {
 2965              		.loc 2 107 26 view .LVU1108
 2966              	.LBB317:
 109:lvgl/src/lv_draw/../lv_core/../lv_font/../lv_misc/lv_area.h **** }
 2967              		.loc 2 109 5 view .LVU1109
 109:lvgl/src/lv_draw/../lv_core/../lv_font/../lv_misc/lv_area.h **** }
 2968              		.loc 2 109 31 is_stmt 0 view .LVU1110
 2969 08ce BDF850B0 		ldrh	fp, [sp, #80]
 2970              	.LVL296:
 109:lvgl/src/lv_draw/../lv_core/../lv_font/../lv_misc/lv_area.h **** }
 2971              		.loc 2 109 44 view .LVU1111
 2972 08d2 BDF94C20 		ldrsh	r2, [sp, #76]
 2973 08d6 91B2     		uxth	r1, r2
 109:lvgl/src/lv_draw/../lv_core/../lv_font/../lv_misc/lv_area.h **** }
 2974              		.loc 2 109 36 view .LVU1112
 2975 08d8 ABEB010B 		sub	fp, fp, r1
 2976 08dc 1FFA8BFB 		uxth	fp, fp
 109:lvgl/src/lv_draw/../lv_core/../lv_font/../lv_misc/lv_area.h **** }
 2977              		.loc 2 109 49 view .LVU1113
 2978 08e0 0BF1010B 		add	fp, fp, #1
 109:lvgl/src/lv_draw/../lv_core/../lv_font/../lv_misc/lv_area.h **** }
 2979              		.loc 2 109 12 view .LVU1114
 2980 08e4 0FFA8BFB 		sxth	fp, fp
 2981              	.LVL297:
 109:lvgl/src/lv_draw/../lv_core/../lv_font/../lv_misc/lv_area.h **** }
 2982              		.loc 2 109 12 view .LVU1115
ARM GAS  D:\Temp\ccGEpo4V.s 			page 96


 2983              	.LBE317:
 2984              	.LBE316:
 814:lvgl/src/lv_draw/lv_draw_rect.c ****             sh_buf_tmp = sh_buf + (ca.x1 - a.x1);
 2985              		.loc 1 814 9 is_stmt 1 view .LVU1116
 814:lvgl/src/lv_draw/lv_draw_rect.c ****             sh_buf_tmp = sh_buf + (ca.x1 - a.x1);
 2986              		.loc 1 814 11 is_stmt 0 view .LVU1117
 2987 08e8 BBF1000F 		cmp	fp, #0
 2988 08ec 7FF7D4AE 		ble	.L117
 2989              	.LBB318:
 815:lvgl/src/lv_draw/lv_draw_rect.c ****             sh_buf_tmp += corner_size * (a.y2 - ca.y2);
 2990              		.loc 1 815 13 is_stmt 1 view .LVU1118
 815:lvgl/src/lv_draw/lv_draw_rect.c ****             sh_buf_tmp += corner_size * (a.y2 - ca.y2);
 2991              		.loc 1 815 45 is_stmt 0 view .LVU1119
 2992 08f0 BDF95410 		ldrsh	r1, [sp, #84]
 815:lvgl/src/lv_draw/lv_draw_rect.c ****             sh_buf_tmp += corner_size * (a.y2 - ca.y2);
 2993              		.loc 1 815 42 view .LVU1120
 2994 08f4 521A     		subs	r2, r2, r1
 2995              	.LVL298:
 816:lvgl/src/lv_draw/lv_draw_rect.c **** 
 2996              		.loc 1 816 13 is_stmt 1 view .LVU1121
 816:lvgl/src/lv_draw/lv_draw_rect.c **** 
 2997              		.loc 1 816 43 is_stmt 0 view .LVU1122
 2998 08f6 BDF95A10 		ldrsh	r1, [sp, #90]
 816:lvgl/src/lv_draw/lv_draw_rect.c **** 
 2999              		.loc 1 816 47 view .LVU1123
 3000 08fa CB1A     		subs	r3, r1, r3
 816:lvgl/src/lv_draw/lv_draw_rect.c **** 
 3001              		.loc 1 816 24 view .LVU1124
 3002 08fc 04FB0322 		mla	r2, r4, r3, r2
 3003              	.LVL299:
 816:lvgl/src/lv_draw/lv_draw_rect.c **** 
 3004              		.loc 1 816 24 view .LVU1125
 3005 0900 089B     		ldr	r3, [sp, #32]
 3006 0902 03EB0208 		add	r8, r3, r2
 3007              	.LVL300:
 818:lvgl/src/lv_draw/lv_draw_rect.c ****             lv_area_copy(&fa, &ca);
 3008              		.loc 1 818 13 is_stmt 1 view .LVU1126
 819:lvgl/src/lv_draw/lv_draw_rect.c ****             fa.y1 = fa.y2;    /*Fill from bottom to top*/
 3009              		.loc 1 819 13 view .LVU1127
 3010              	.LBB319:
 3011              	.LBI319:
  97:lvgl/src/lv_draw/../lv_core/../lv_font/../lv_misc/lv_area.h **** {
 3012              		.loc 2 97 20 view .LVU1128
 3013              	.LBE319:
 3014              	.LBE318:
 3015              	.LBE313:
  99:lvgl/src/lv_draw/../lv_core/../lv_font/../lv_misc/lv_area.h **** }
 3016              		.loc 2 99 5 view .LVU1129
 3017              	.LBB327:
 3018              	.LBB326:
 3019              	.LBB324:
 3020              	.LBB320:
 3021              	.LBI320:
 213:lvgl/src/lv_draw/../lv_core/../lv_font/../lv_misc/lv_mem.h **** {
 3022              		.loc 3 213 44 view .LVU1130
 3023              	.LBB321:
 215:lvgl/src/lv_draw/../lv_core/../lv_font/../lv_misc/lv_mem.h ****     const uint8_t * s8 = (const uint8_t *)src;
ARM GAS  D:\Temp\ccGEpo4V.s 			page 97


 3024              		.loc 3 215 5 view .LVU1131
 216:lvgl/src/lv_draw/../lv_core/../lv_font/../lv_misc/lv_mem.h **** 
 3025              		.loc 3 216 5 view .LVU1132
 218:lvgl/src/lv_draw/../lv_core/../lv_font/../lv_misc/lv_mem.h ****         *d8 = *s8;
 3026              		.loc 3 218 5 view .LVU1133
 216:lvgl/src/lv_draw/../lv_core/../lv_font/../lv_misc/lv_mem.h **** 
 3027              		.loc 3 216 21 is_stmt 0 view .LVU1134
 3028 0906 13A9     		add	r1, sp, #76
 3029              	.LVL301:
 215:lvgl/src/lv_draw/../lv_core/../lv_font/../lv_misc/lv_mem.h ****     const uint8_t * s8 = (const uint8_t *)src;
 3030              		.loc 3 215 15 view .LVU1135
 3031 0908 11AA     		add	r2, sp, #68
 3032              	.LVL302:
 215:lvgl/src/lv_draw/../lv_core/../lv_font/../lv_misc/lv_mem.h ****     const uint8_t * s8 = (const uint8_t *)src;
 3033              		.loc 3 215 15 view .LVU1136
 3034              	.LBE321:
 3035              	.LBE320:
 3036              	.LBE324:
 816:lvgl/src/lv_draw/lv_draw_rect.c **** 
 3037              		.loc 1 816 24 view .LVU1137
 3038 090a 0823     		movs	r3, #8
 3039              	.LVL303:
 3040              	.L120:
 3041              	.LBB325:
 3042              	.LBB323:
 3043              	.LBB322:
 218:lvgl/src/lv_draw/../lv_core/../lv_font/../lv_misc/lv_mem.h ****         *d8 = *s8;
 3044              		.loc 3 218 10 view .LVU1138
 3045 090c 2BB1     		cbz	r3, .L192
 219:lvgl/src/lv_draw/../lv_core/../lv_font/../lv_misc/lv_mem.h ****         d8++;
 3046              		.loc 3 219 9 is_stmt 1 view .LVU1139
 219:lvgl/src/lv_draw/../lv_core/../lv_font/../lv_misc/lv_mem.h ****         d8++;
 3047              		.loc 3 219 15 is_stmt 0 view .LVU1140
 3048 090e 11F8010B 		ldrb	r0, [r1], #1	@ zero_extendqisi2
 3049              	.LVL304:
 219:lvgl/src/lv_draw/../lv_core/../lv_font/../lv_misc/lv_mem.h ****         d8++;
 3050              		.loc 3 219 13 view .LVU1141
 3051 0912 02F8010B 		strb	r0, [r2], #1
 3052              	.LVL305:
 220:lvgl/src/lv_draw/../lv_core/../lv_font/../lv_misc/lv_mem.h ****         s8++;
 3053              		.loc 3 220 9 is_stmt 1 view .LVU1142
 221:lvgl/src/lv_draw/../lv_core/../lv_font/../lv_misc/lv_mem.h ****         len--;
 3054              		.loc 3 221 9 view .LVU1143
 222:lvgl/src/lv_draw/../lv_core/../lv_font/../lv_misc/lv_mem.h ****     }
 3055              		.loc 3 222 9 view .LVU1144
 222:lvgl/src/lv_draw/../lv_core/../lv_font/../lv_misc/lv_mem.h ****     }
 3056              		.loc 3 222 12 is_stmt 0 view .LVU1145
 3057 0916 013B     		subs	r3, r3, #1
 3058              	.LVL306:
 222:lvgl/src/lv_draw/../lv_core/../lv_font/../lv_misc/lv_mem.h ****     }
 3059              		.loc 3 222 12 view .LVU1146
 3060 0918 F8E7     		b	.L120
 3061              	.L192:
 3062              		.loc 3 225 5 is_stmt 1 view .LVU1147
 3063              	.LVL307:
 3064              		.loc 3 225 5 is_stmt 0 view .LVU1148
 3065              	.LBE322:
ARM GAS  D:\Temp\ccGEpo4V.s 			page 98


 3066              	.LBE323:
 3067              	.LBE325:
 820:lvgl/src/lv_draw/lv_draw_rect.c **** 
 3068              		.loc 1 820 13 is_stmt 1 view .LVU1149
 820:lvgl/src/lv_draw/lv_draw_rect.c **** 
 3069              		.loc 1 820 23 is_stmt 0 view .LVU1150
 3070 091a BDF94A30 		ldrsh	r3, [sp, #74]
 820:lvgl/src/lv_draw/lv_draw_rect.c **** 
 3071              		.loc 1 820 19 view .LVU1151
 3072 091e ADF84630 		strh	r3, [sp, #70]	@ movhi
 822:lvgl/src/lv_draw/lv_draw_rect.c ****                 _lv_memcpy(mask_buf, sh_buf_tmp, w);
 3073              		.loc 1 822 13 is_stmt 1 view .LVU1152
 3074              	.LVL308:
 822:lvgl/src/lv_draw/lv_draw_rect.c ****                 _lv_memcpy(mask_buf, sh_buf_tmp, w);
 3075              		.loc 1 822 19 is_stmt 0 view .LVU1153
 3076 0922 4FF00009 		mov	r9, #0
 822:lvgl/src/lv_draw/lv_draw_rect.c ****                 _lv_memcpy(mask_buf, sh_buf_tmp, w);
 3077              		.loc 1 822 13 view .LVU1154
 3078 0926 17E0     		b	.L122
 3079              	.LVL309:
 3080              	.L123:
 827:lvgl/src/lv_draw/lv_draw_rect.c ****                                mask_res, opa, dsc->shadow_blend_mode);
 3081              		.loc 1 827 17 is_stmt 1 discriminator 2 view .LVU1155
 3082 0928 95F82B30 		ldrb	r3, [r5, #43]	@ zero_extendqisi2
 3083 092c 0293     		str	r3, [sp, #8]
 3084 092e 0197     		str	r7, [sp, #4]
 3085 0930 0090     		str	r0, [sp]
 3086 0932 059B     		ldr	r3, [sp, #20]
 3087 0934 2A8C     		ldrh	r2, [r5, #32]
 3088 0936 11A9     		add	r1, sp, #68
 3089 0938 0698     		ldr	r0, [sp, #24]
 3090              	.LVL310:
 827:lvgl/src/lv_draw/lv_draw_rect.c ****                                mask_res, opa, dsc->shadow_blend_mode);
 3091              		.loc 1 827 17 is_stmt 0 discriminator 2 view .LVU1156
 3092 093a FFF7FEFF 		bl	_lv_blend_fill
 3093              	.LVL311:
 829:lvgl/src/lv_draw/lv_draw_rect.c ****                 fa.y2--;
 3094              		.loc 1 829 17 is_stmt 1 discriminator 2 view .LVU1157
 829:lvgl/src/lv_draw/lv_draw_rect.c ****                 fa.y2--;
 3095              		.loc 1 829 19 is_stmt 0 discriminator 2 view .LVU1158
 3096 093e BDF94630 		ldrsh	r3, [sp, #70]
 829:lvgl/src/lv_draw/lv_draw_rect.c ****                 fa.y2--;
 3097              		.loc 1 829 22 discriminator 2 view .LVU1159
 3098 0942 013B     		subs	r3, r3, #1
 3099 0944 ADF84630 		strh	r3, [sp, #70]	@ movhi
 830:lvgl/src/lv_draw/lv_draw_rect.c ****                 sh_buf_tmp += corner_size;
 3100              		.loc 1 830 17 is_stmt 1 discriminator 2 view .LVU1160
 830:lvgl/src/lv_draw/lv_draw_rect.c ****                 sh_buf_tmp += corner_size;
 3101              		.loc 1 830 19 is_stmt 0 discriminator 2 view .LVU1161
 3102 0948 BDF94A30 		ldrsh	r3, [sp, #74]
 830:lvgl/src/lv_draw/lv_draw_rect.c ****                 sh_buf_tmp += corner_size;
 3103              		.loc 1 830 22 discriminator 2 view .LVU1162
 3104 094c 013B     		subs	r3, r3, #1
 3105 094e ADF84A30 		strh	r3, [sp, #74]	@ movhi
 831:lvgl/src/lv_draw/lv_draw_rect.c ****             }
 3106              		.loc 1 831 17 is_stmt 1 discriminator 2 view .LVU1163
 831:lvgl/src/lv_draw/lv_draw_rect.c ****             }
ARM GAS  D:\Temp\ccGEpo4V.s 			page 99


 3107              		.loc 1 831 28 is_stmt 0 discriminator 2 view .LVU1164
 3108 0952 A044     		add	r8, r8, r4
 3109              	.LVL312:
 822:lvgl/src/lv_draw/lv_draw_rect.c ****                 _lv_memcpy(mask_buf, sh_buf_tmp, w);
 3110              		.loc 1 822 32 discriminator 2 view .LVU1165
 3111 0954 09F10109 		add	r9, r9, #1
 3112              	.LVL313:
 3113              	.L122:
 822:lvgl/src/lv_draw/lv_draw_rect.c ****                 _lv_memcpy(mask_buf, sh_buf_tmp, w);
 3114              		.loc 1 822 13 discriminator 1 view .LVU1166
 3115 0958 CA45     		cmp	r10, r9
 3116 095a 7FF79DAE 		ble	.L117
 823:lvgl/src/lv_draw/lv_draw_rect.c ****                 mask_res = lv_draw_mask_apply(mask_buf, fa.x1, fa.y1, w);
 3117              		.loc 1 823 17 is_stmt 1 view .LVU1167
 3118 095e 5A46     		mov	r2, fp
 3119 0960 4146     		mov	r1, r8
 3120 0962 0598     		ldr	r0, [sp, #20]
 3121 0964 FFF7FEFF 		bl	_lv_memcpy
 3122              	.LVL314:
 824:lvgl/src/lv_draw/lv_draw_rect.c ****                 if(mask_res == LV_DRAW_MASK_RES_FULL_COVER) mask_res = LV_DRAW_MASK_RES_CHANGED;
 3123              		.loc 1 824 17 view .LVU1168
 824:lvgl/src/lv_draw/lv_draw_rect.c ****                 if(mask_res == LV_DRAW_MASK_RES_FULL_COVER) mask_res = LV_DRAW_MASK_RES_CHANGED;
 3124              		.loc 1 824 28 is_stmt 0 view .LVU1169
 3125 0968 5B46     		mov	r3, fp
 3126 096a BDF94620 		ldrsh	r2, [sp, #70]
 3127 096e BDF94410 		ldrsh	r1, [sp, #68]
 3128 0972 0598     		ldr	r0, [sp, #20]
 3129 0974 FFF7FEFF 		bl	lv_draw_mask_apply
 3130              	.LVL315:
 825:lvgl/src/lv_draw/lv_draw_rect.c **** 
 3131              		.loc 1 825 17 is_stmt 1 view .LVU1170
 825:lvgl/src/lv_draw/lv_draw_rect.c **** 
 3132              		.loc 1 825 19 is_stmt 0 view .LVU1171
 3133 0978 0128     		cmp	r0, #1
 3134 097a D5D1     		bne	.L123
 825:lvgl/src/lv_draw/lv_draw_rect.c **** 
 3135              		.loc 1 825 70 view .LVU1172
 3136 097c 0220     		movs	r0, #2
 3137              	.LVL316:
 825:lvgl/src/lv_draw/lv_draw_rect.c **** 
 3138              		.loc 1 825 70 view .LVU1173
 3139 097e D3E7     		b	.L123
 3140              	.LVL317:
 3141              	.L187:
 825:lvgl/src/lv_draw/lv_draw_rect.c **** 
 3142              		.loc 1 825 70 view .LVU1174
 3143              	.LBE326:
 3144              	.LBE327:
 843:lvgl/src/lv_draw/lv_draw_rect.c ****         if(simple_mode) ca.x2 = LV_MATH_MIN(coords->x1, ca.x2);
 3145              		.loc 1 843 19 discriminator 1 view .LVU1175
 3146 0980 099A     		ldr	r2, [sp, #36]
 3147 0982 1EA9     		add	r1, sp, #120
 3148 0984 15A8     		add	r0, sp, #84
 3149              	.LVL318:
 843:lvgl/src/lv_draw/lv_draw_rect.c ****         if(simple_mode) ca.x2 = LV_MATH_MIN(coords->x1, ca.x2);
 3150              		.loc 1 843 19 discriminator 1 view .LVU1176
 3151 0986 FFF7FEFF 		bl	_lv_area_is_in
ARM GAS  D:\Temp\ccGEpo4V.s 			page 100


 3152              	.LVL319:
 843:lvgl/src/lv_draw/lv_draw_rect.c ****         if(simple_mode) ca.x2 = LV_MATH_MIN(coords->x1, ca.x2);
 3153              		.loc 1 843 16 discriminator 1 view .LVU1177
 3154 098a 0028     		cmp	r0, #0
 3155 098c 7FF4A0AE 		bne	.L125
 3156              	.LBB328:
 844:lvgl/src/lv_draw/lv_draw_rect.c ****         /*Draw vertical lines*/
 3157              		.loc 1 844 9 is_stmt 1 view .LVU1178
 844:lvgl/src/lv_draw/lv_draw_rect.c ****         /*Draw vertical lines*/
 3158              		.loc 1 844 11 is_stmt 0 view .LVU1179
 3159 0990 079B     		ldr	r3, [sp, #28]
 3160 0992 4BB1     		cbz	r3, .L126
 844:lvgl/src/lv_draw/lv_draw_rect.c ****         /*Draw vertical lines*/
 3161              		.loc 1 844 25 is_stmt 1 discriminator 1 view .LVU1180
 844:lvgl/src/lv_draw/lv_draw_rect.c ****         /*Draw vertical lines*/
 3162              		.loc 1 844 33 is_stmt 0 discriminator 1 view .LVU1181
 3163 0994 BDF95030 		ldrsh	r3, [sp, #80]
 3164 0998 0C9A     		ldr	r2, [sp, #48]
 3165 099a B2F90020 		ldrsh	r2, [r2]
 3166 099e 9342     		cmp	r3, r2
 3167 09a0 A8BF     		it	ge
 3168 09a2 1346     		movge	r3, r2
 844:lvgl/src/lv_draw/lv_draw_rect.c ****         /*Draw vertical lines*/
 3169              		.loc 1 844 31 discriminator 1 view .LVU1182
 3170 09a4 ADF85030 		strh	r3, [sp, #80]	@ movhi
 3171              	.L126:
 846:lvgl/src/lv_draw/lv_draw_rect.c ****         if(w > 0) {
 3172              		.loc 1 846 9 is_stmt 1 view .LVU1183
 3173              	.LVL320:
 3174              	.LBB329:
 3175              	.LBI329:
 107:lvgl/src/lv_draw/../lv_core/../lv_font/../lv_misc/lv_area.h **** {
 3176              		.loc 2 107 26 view .LVU1184
 3177              	.LBB330:
 109:lvgl/src/lv_draw/../lv_core/../lv_font/../lv_misc/lv_area.h **** }
 3178              		.loc 2 109 5 view .LVU1185
 109:lvgl/src/lv_draw/../lv_core/../lv_font/../lv_misc/lv_area.h **** }
 3179              		.loc 2 109 31 is_stmt 0 view .LVU1186
 3180 09a8 BDF850A0 		ldrh	r10, [sp, #80]
 109:lvgl/src/lv_draw/../lv_core/../lv_font/../lv_misc/lv_area.h **** }
 3181              		.loc 2 109 44 view .LVU1187
 3182 09ac BDF94C30 		ldrsh	r3, [sp, #76]
 3183 09b0 9AB2     		uxth	r2, r3
 109:lvgl/src/lv_draw/../lv_core/../lv_font/../lv_misc/lv_area.h **** }
 3184              		.loc 2 109 36 view .LVU1188
 3185 09b2 AAEB020A 		sub	r10, r10, r2
 3186 09b6 1FFA8AFA 		uxth	r10, r10
 109:lvgl/src/lv_draw/../lv_core/../lv_font/../lv_misc/lv_area.h **** }
 3187              		.loc 2 109 49 view .LVU1189
 3188 09ba 0AF1010A 		add	r10, r10, #1
 109:lvgl/src/lv_draw/../lv_core/../lv_font/../lv_misc/lv_area.h **** }
 3189              		.loc 2 109 12 view .LVU1190
 3190 09be 0FFA8AFA 		sxth	r10, r10
 3191              	.LVL321:
 109:lvgl/src/lv_draw/../lv_core/../lv_font/../lv_misc/lv_area.h **** }
 3192              		.loc 2 109 12 view .LVU1191
 3193              	.LBE330:
ARM GAS  D:\Temp\ccGEpo4V.s 			page 101


 3194              	.LBE329:
 847:lvgl/src/lv_draw/lv_draw_rect.c ****             lv_coord_t h = lv_area_get_height(&ca);
 3195              		.loc 1 847 9 is_stmt 1 view .LVU1192
 847:lvgl/src/lv_draw/lv_draw_rect.c ****             lv_coord_t h = lv_area_get_height(&ca);
 3196              		.loc 1 847 11 is_stmt 0 view .LVU1193
 3197 09c2 BAF1000F 		cmp	r10, #0
 3198 09c6 7FF783AE 		ble	.L125
 3199              	.LBB331:
 848:lvgl/src/lv_draw/lv_draw_rect.c ****             /*The last line of the shadow is repeated on the side*/
 3200              		.loc 1 848 13 is_stmt 1 view .LVU1194
 3201              	.LVL322:
 3202              	.LBB332:
 3203              	.LBI332:
 117:lvgl/src/lv_draw/../lv_core/../lv_font/../lv_misc/lv_area.h **** {
 3204              		.loc 2 117 26 view .LVU1195
 3205              	.LBB333:
 3206              		.loc 2 119 5 view .LVU1196
 3207              		.loc 2 119 31 is_stmt 0 view .LVU1197
 3208 09ca BDF85290 		ldrh	r9, [sp, #82]
 3209              		.loc 2 119 44 view .LVU1198
 3210 09ce BDF84E20 		ldrh	r2, [sp, #78]
 3211              		.loc 2 119 36 view .LVU1199
 3212 09d2 A9EB0209 		sub	r9, r9, r2
 3213 09d6 1FFA89F9 		uxth	r9, r9
 3214              		.loc 2 119 49 view .LVU1200
 3215 09da 09F10109 		add	r9, r9, #1
 3216              		.loc 2 119 12 view .LVU1201
 3217 09de 0FFA89F9 		sxth	r9, r9
 3218              	.LVL323:
 3219              		.loc 2 119 12 view .LVU1202
 3220              	.LBE333:
 3221              	.LBE332:
 850:lvgl/src/lv_draw/lv_draw_rect.c ****             sh_buf_tmp += ca.x1 - a.x1;
 3222              		.loc 1 850 13 is_stmt 1 view .LVU1203
 850:lvgl/src/lv_draw/lv_draw_rect.c ****             sh_buf_tmp += ca.x1 - a.x1;
 3223              		.loc 1 850 62 is_stmt 0 view .LVU1204
 3224 09e2 04F1FF3B 		add	fp, r4, #-1
 851:lvgl/src/lv_draw/lv_draw_rect.c **** 
 3225              		.loc 1 851 13 is_stmt 1 view .LVU1205
 851:lvgl/src/lv_draw/lv_draw_rect.c **** 
 3226              		.loc 1 851 36 is_stmt 0 view .LVU1206
 3227 09e6 BDF95420 		ldrsh	r2, [sp, #84]
 851:lvgl/src/lv_draw/lv_draw_rect.c **** 
 3228              		.loc 1 851 33 view .LVU1207
 3229 09ea 9B1A     		subs	r3, r3, r2
 851:lvgl/src/lv_draw/lv_draw_rect.c **** 
 3230              		.loc 1 851 24 view .LVU1208
 3231 09ec 04FB0B33 		mla	r3, r4, fp, r3
 3232 09f0 089A     		ldr	r2, [sp, #32]
 3233 09f2 02EB030B 		add	fp, r2, r3
 3234              	.LVL324:
 853:lvgl/src/lv_draw/lv_draw_rect.c ****             lv_area_copy(&fa, &ca);
 3235              		.loc 1 853 13 is_stmt 1 view .LVU1209
 854:lvgl/src/lv_draw/lv_draw_rect.c ****             fa.y2 = fa.y1;
 3236              		.loc 1 854 13 view .LVU1210
 3237              	.LBB334:
 3238              	.LBI334:
ARM GAS  D:\Temp\ccGEpo4V.s 			page 102


  97:lvgl/src/lv_draw/../lv_core/../lv_font/../lv_misc/lv_area.h **** {
 3239              		.loc 2 97 20 view .LVU1211
 3240              	.LBB335:
 3241              	.LBB336:
 216:lvgl/src/lv_draw/../lv_core/../lv_font/../lv_misc/lv_mem.h **** 
 3242              		.loc 3 216 21 is_stmt 0 view .LVU1212
 3243 09f6 13A9     		add	r1, sp, #76
 3244              	.LVL325:
 215:lvgl/src/lv_draw/../lv_core/../lv_font/../lv_misc/lv_mem.h ****     const uint8_t * s8 = (const uint8_t *)src;
 3245              		.loc 3 215 15 view .LVU1213
 3246 09f8 11AA     		add	r2, sp, #68
 3247              	.LVL326:
 215:lvgl/src/lv_draw/../lv_core/../lv_font/../lv_misc/lv_mem.h ****     const uint8_t * s8 = (const uint8_t *)src;
 3248              		.loc 3 215 15 view .LVU1214
 3249              	.LBE336:
 3250              	.LBE335:
 3251              	.LBE334:
 851:lvgl/src/lv_draw/lv_draw_rect.c **** 
 3252              		.loc 1 851 24 view .LVU1215
 3253 09fa 0823     		movs	r3, #8
 3254              	.LVL327:
 3255              	.L127:
 3256              	.LBB339:
 3257              	.LBB338:
 3258              	.LBB337:
 218:lvgl/src/lv_draw/../lv_core/../lv_font/../lv_misc/lv_mem.h ****         *d8 = *s8;
 3259              		.loc 3 218 10 view .LVU1216
 3260 09fc 2BB1     		cbz	r3, .L193
 219:lvgl/src/lv_draw/../lv_core/../lv_font/../lv_misc/lv_mem.h ****         d8++;
 3261              		.loc 3 219 9 is_stmt 1 view .LVU1217
 219:lvgl/src/lv_draw/../lv_core/../lv_font/../lv_misc/lv_mem.h ****         d8++;
 3262              		.loc 3 219 15 is_stmt 0 view .LVU1218
 3263 09fe 11F8010B 		ldrb	r0, [r1], #1	@ zero_extendqisi2
 3264              	.LVL328:
 219:lvgl/src/lv_draw/../lv_core/../lv_font/../lv_misc/lv_mem.h ****         d8++;
 3265              		.loc 3 219 13 view .LVU1219
 3266 0a02 02F8010B 		strb	r0, [r2], #1
 3267              	.LVL329:
 220:lvgl/src/lv_draw/../lv_core/../lv_font/../lv_misc/lv_mem.h ****         s8++;
 3268              		.loc 3 220 9 is_stmt 1 view .LVU1220
 221:lvgl/src/lv_draw/../lv_core/../lv_font/../lv_misc/lv_mem.h ****         len--;
 3269              		.loc 3 221 9 view .LVU1221
 222:lvgl/src/lv_draw/../lv_core/../lv_font/../lv_misc/lv_mem.h ****     }
 3270              		.loc 3 222 9 view .LVU1222
 222:lvgl/src/lv_draw/../lv_core/../lv_font/../lv_misc/lv_mem.h ****     }
 3271              		.loc 3 222 12 is_stmt 0 view .LVU1223
 3272 0a06 013B     		subs	r3, r3, #1
 3273              	.LVL330:
 222:lvgl/src/lv_draw/../lv_core/../lv_font/../lv_misc/lv_mem.h ****     }
 3274              		.loc 3 222 12 view .LVU1224
 3275 0a08 F8E7     		b	.L127
 3276              	.L193:
 3277              		.loc 3 225 5 is_stmt 1 view .LVU1225
 3278              	.LVL331:
 3279              		.loc 3 225 5 is_stmt 0 view .LVU1226
 3280              	.LBE337:
 3281              	.LBE338:
ARM GAS  D:\Temp\ccGEpo4V.s 			page 103


 3282              	.LBE339:
 855:lvgl/src/lv_draw/lv_draw_rect.c ****             for(y = 0; y < h; y++) {
 3283              		.loc 1 855 13 is_stmt 1 view .LVU1227
 855:lvgl/src/lv_draw/lv_draw_rect.c ****             for(y = 0; y < h; y++) {
 3284              		.loc 1 855 23 is_stmt 0 view .LVU1228
 3285 0a0a BDF94630 		ldrsh	r3, [sp, #70]
 855:lvgl/src/lv_draw/lv_draw_rect.c ****             for(y = 0; y < h; y++) {
 3286              		.loc 1 855 19 view .LVU1229
 3287 0a0e ADF84A30 		strh	r3, [sp, #74]	@ movhi
 856:lvgl/src/lv_draw/lv_draw_rect.c ****                 _lv_memcpy(mask_buf, sh_buf_tmp, w);
 3288              		.loc 1 856 13 is_stmt 1 view .LVU1230
 3289              	.LVL332:
 856:lvgl/src/lv_draw/lv_draw_rect.c ****                 _lv_memcpy(mask_buf, sh_buf_tmp, w);
 3290              		.loc 1 856 19 is_stmt 0 view .LVU1231
 3291 0a12 4FF00008 		mov	r8, #0
 3292 0a16 0B97     		str	r7, [sp, #44]
 3293 0a18 079F     		ldr	r7, [sp, #28]
 856:lvgl/src/lv_draw/lv_draw_rect.c ****                 _lv_memcpy(mask_buf, sh_buf_tmp, w);
 3294              		.loc 1 856 13 view .LVU1232
 3295 0a1a 22E0     		b	.L129
 3296              	.LVL333:
 3297              	.L196:
 862:lvgl/src/lv_draw/lv_draw_rect.c ****                     if(mask_res == LV_DRAW_MASK_RES_FULL_COVER) mask_res = LV_DRAW_MASK_RES_CHANGED
 3298              		.loc 1 862 21 is_stmt 1 view .LVU1233
 862:lvgl/src/lv_draw/lv_draw_rect.c ****                     if(mask_res == LV_DRAW_MASK_RES_FULL_COVER) mask_res = LV_DRAW_MASK_RES_CHANGED
 3299              		.loc 1 862 32 is_stmt 0 view .LVU1234
 3300 0a1c 5346     		mov	r3, r10
 3301 0a1e BDF94620 		ldrsh	r2, [sp, #70]
 3302 0a22 BDF94410 		ldrsh	r1, [sp, #68]
 3303 0a26 0598     		ldr	r0, [sp, #20]
 3304 0a28 FFF7FEFF 		bl	lv_draw_mask_apply
 3305              	.LVL334:
 863:lvgl/src/lv_draw/lv_draw_rect.c ****                 }
 3306              		.loc 1 863 21 is_stmt 1 view .LVU1235
 863:lvgl/src/lv_draw/lv_draw_rect.c ****                 }
 3307              		.loc 1 863 23 is_stmt 0 view .LVU1236
 3308 0a2c 0128     		cmp	r0, #1
 3309 0a2e 23D0     		beq	.L194
 3310              	.LVL335:
 3311              	.L130:
 866:lvgl/src/lv_draw/lv_draw_rect.c ****                                dsc->shadow_color, mask_buf, mask_res, dsc->shadow_opa, dsc->shadow_
 3312              		.loc 1 866 17 is_stmt 1 discriminator 2 view .LVU1237
 3313 0a30 95F82B30 		ldrb	r3, [r5, #43]	@ zero_extendqisi2
 3314 0a34 0293     		str	r3, [sp, #8]
 3315 0a36 95F82A30 		ldrb	r3, [r5, #42]	@ zero_extendqisi2
 3316 0a3a 0193     		str	r3, [sp, #4]
 3317 0a3c 0090     		str	r0, [sp]
 3318 0a3e 059B     		ldr	r3, [sp, #20]
 3319 0a40 2A8C     		ldrh	r2, [r5, #32]
 3320 0a42 11A9     		add	r1, sp, #68
 3321 0a44 0698     		ldr	r0, [sp, #24]
 3322              	.LVL336:
 866:lvgl/src/lv_draw/lv_draw_rect.c ****                                dsc->shadow_color, mask_buf, mask_res, dsc->shadow_opa, dsc->shadow_
 3323              		.loc 1 866 17 is_stmt 0 discriminator 2 view .LVU1238
 3324 0a46 FFF7FEFF 		bl	_lv_blend_fill
 3325              	.LVL337:
 868:lvgl/src/lv_draw/lv_draw_rect.c ****                 fa.y2++;
ARM GAS  D:\Temp\ccGEpo4V.s 			page 104


 3326              		.loc 1 868 17 is_stmt 1 discriminator 2 view .LVU1239
 868:lvgl/src/lv_draw/lv_draw_rect.c ****                 fa.y2++;
 3327              		.loc 1 868 19 is_stmt 0 discriminator 2 view .LVU1240
 3328 0a4a BDF94630 		ldrsh	r3, [sp, #70]
 868:lvgl/src/lv_draw/lv_draw_rect.c ****                 fa.y2++;
 3329              		.loc 1 868 22 discriminator 2 view .LVU1241
 3330 0a4e 0133     		adds	r3, r3, #1
 3331 0a50 ADF84630 		strh	r3, [sp, #70]	@ movhi
 869:lvgl/src/lv_draw/lv_draw_rect.c ****             }
 3332              		.loc 1 869 17 is_stmt 1 discriminator 2 view .LVU1242
 869:lvgl/src/lv_draw/lv_draw_rect.c ****             }
 3333              		.loc 1 869 19 is_stmt 0 discriminator 2 view .LVU1243
 3334 0a54 BDF94A30 		ldrsh	r3, [sp, #74]
 869:lvgl/src/lv_draw/lv_draw_rect.c ****             }
 3335              		.loc 1 869 22 discriminator 2 view .LVU1244
 3336 0a58 0133     		adds	r3, r3, #1
 3337 0a5a ADF84A30 		strh	r3, [sp, #74]	@ movhi
 856:lvgl/src/lv_draw/lv_draw_rect.c ****                 _lv_memcpy(mask_buf, sh_buf_tmp, w);
 3338              		.loc 1 856 32 discriminator 2 view .LVU1245
 3339 0a5e 08F10108 		add	r8, r8, #1
 3340              	.LVL338:
 3341              	.L129:
 856:lvgl/src/lv_draw/lv_draw_rect.c ****                 _lv_memcpy(mask_buf, sh_buf_tmp, w);
 3342              		.loc 1 856 13 discriminator 1 view .LVU1246
 3343 0a62 C145     		cmp	r9, r8
 3344 0a64 0ADD     		ble	.L195
 857:lvgl/src/lv_draw/lv_draw_rect.c ****                 if(simple_mode) {
 3345              		.loc 1 857 17 is_stmt 1 view .LVU1247
 3346 0a66 5246     		mov	r2, r10
 3347 0a68 5946     		mov	r1, fp
 3348 0a6a 0598     		ldr	r0, [sp, #20]
 3349 0a6c FFF7FEFF 		bl	_lv_memcpy
 3350              	.LVL339:
 858:lvgl/src/lv_draw/lv_draw_rect.c ****                     mask_res = LV_DRAW_MASK_RES_CHANGED;
 3351              		.loc 1 858 17 view .LVU1248
 858:lvgl/src/lv_draw/lv_draw_rect.c ****                     mask_res = LV_DRAW_MASK_RES_CHANGED;
 3352              		.loc 1 858 19 is_stmt 0 view .LVU1249
 3353 0a70 002F     		cmp	r7, #0
 3354 0a72 D3D0     		beq	.L196
 859:lvgl/src/lv_draw/lv_draw_rect.c ****                 }
 3355              		.loc 1 859 30 view .LVU1250
 3356 0a74 0220     		movs	r0, #2
 3357 0a76 DBE7     		b	.L130
 3358              	.LVL340:
 3359              	.L194:
 863:lvgl/src/lv_draw/lv_draw_rect.c ****                 }
 3360              		.loc 1 863 74 view .LVU1251
 3361 0a78 0220     		movs	r0, #2
 3362              	.LVL341:
 863:lvgl/src/lv_draw/lv_draw_rect.c ****                 }
 3363              		.loc 1 863 74 view .LVU1252
 3364 0a7a D9E7     		b	.L130
 3365              	.L195:
 863:lvgl/src/lv_draw/lv_draw_rect.c ****                 }
 3366              		.loc 1 863 74 view .LVU1253
 3367 0a7c 0B9F     		ldr	r7, [sp, #44]
 3368 0a7e 27E6     		b	.L125
ARM GAS  D:\Temp\ccGEpo4V.s 			page 105


 3369              	.LVL342:
 3370              	.L188:
 863:lvgl/src/lv_draw/lv_draw_rect.c ****                 }
 3371              		.loc 1 863 74 view .LVU1254
 3372              	.LBE331:
 3373              	.LBE328:
 881:lvgl/src/lv_draw/lv_draw_rect.c ****         if(simple_mode) ca.y2 = LV_MATH_MIN(ca.y2, coords->y1);
 3374              		.loc 1 881 19 discriminator 1 view .LVU1255
 3375 0a80 099A     		ldr	r2, [sp, #36]
 3376 0a82 1EA9     		add	r1, sp, #120
 3377 0a84 15A8     		add	r0, sp, #84
 3378              	.LVL343:
 881:lvgl/src/lv_draw/lv_draw_rect.c ****         if(simple_mode) ca.y2 = LV_MATH_MIN(ca.y2, coords->y1);
 3379              		.loc 1 881 19 discriminator 1 view .LVU1256
 3380 0a86 FFF7FEFF 		bl	_lv_area_is_in
 3381              	.LVL344:
 881:lvgl/src/lv_draw/lv_draw_rect.c ****         if(simple_mode) ca.y2 = LV_MATH_MIN(ca.y2, coords->y1);
 3382              		.loc 1 881 16 discriminator 1 view .LVU1257
 3383 0a8a 0028     		cmp	r0, #0
 3384 0a8c 7FF43CAE 		bne	.L132
 3385              	.LBB340:
 882:lvgl/src/lv_draw/lv_draw_rect.c ****         /*Draw horizontal lines*/
 3386              		.loc 1 882 9 is_stmt 1 view .LVU1258
 882:lvgl/src/lv_draw/lv_draw_rect.c ****         /*Draw horizontal lines*/
 3387              		.loc 1 882 11 is_stmt 0 view .LVU1259
 3388 0a90 079B     		ldr	r3, [sp, #28]
 3389 0a92 4BB1     		cbz	r3, .L133
 882:lvgl/src/lv_draw/lv_draw_rect.c ****         /*Draw horizontal lines*/
 3390              		.loc 1 882 25 is_stmt 1 discriminator 1 view .LVU1260
 882:lvgl/src/lv_draw/lv_draw_rect.c ****         /*Draw horizontal lines*/
 3391              		.loc 1 882 33 is_stmt 0 discriminator 1 view .LVU1261
 3392 0a94 0C9B     		ldr	r3, [sp, #48]
 3393 0a96 B3F90230 		ldrsh	r3, [r3, #2]
 3394 0a9a BDF95220 		ldrsh	r2, [sp, #82]
 3395 0a9e 9342     		cmp	r3, r2
 3396 0aa0 A8BF     		it	ge
 3397 0aa2 1346     		movge	r3, r2
 882:lvgl/src/lv_draw/lv_draw_rect.c ****         /*Draw horizontal lines*/
 3398              		.loc 1 882 31 discriminator 1 view .LVU1262
 3399 0aa4 ADF85230 		strh	r3, [sp, #82]	@ movhi
 3400              	.L133:
 884:lvgl/src/lv_draw/lv_draw_rect.c ****         lv_coord_t h = lv_area_get_height(&ca);
 3401              		.loc 1 884 9 is_stmt 1 view .LVU1263
 3402              	.LVL345:
 3403              	.LBB341:
 3404              	.LBI341:
 107:lvgl/src/lv_draw/../lv_core/../lv_font/../lv_misc/lv_area.h **** {
 3405              		.loc 2 107 26 view .LVU1264
 3406              	.LBB342:
 109:lvgl/src/lv_draw/../lv_core/../lv_font/../lv_misc/lv_area.h **** }
 3407              		.loc 2 109 5 view .LVU1265
 109:lvgl/src/lv_draw/../lv_core/../lv_font/../lv_misc/lv_area.h **** }
 3408              		.loc 2 109 31 is_stmt 0 view .LVU1266
 3409 0aa8 BDF85030 		ldrh	r3, [sp, #80]
 109:lvgl/src/lv_draw/../lv_core/../lv_font/../lv_misc/lv_area.h **** }
 3410              		.loc 2 109 44 view .LVU1267
 3411 0aac BDF84C20 		ldrh	r2, [sp, #76]
ARM GAS  D:\Temp\ccGEpo4V.s 			page 106


 109:lvgl/src/lv_draw/../lv_core/../lv_font/../lv_misc/lv_area.h **** }
 3412              		.loc 2 109 36 view .LVU1268
 3413 0ab0 9B1A     		subs	r3, r3, r2
 3414 0ab2 9BB2     		uxth	r3, r3
 109:lvgl/src/lv_draw/../lv_core/../lv_font/../lv_misc/lv_area.h **** }
 3415              		.loc 2 109 49 view .LVU1269
 3416 0ab4 0133     		adds	r3, r3, #1
 109:lvgl/src/lv_draw/../lv_core/../lv_font/../lv_misc/lv_area.h **** }
 3417              		.loc 2 109 12 view .LVU1270
 3418 0ab6 1BB2     		sxth	r3, r3
 3419 0ab8 0B93     		str	r3, [sp, #44]
 3420              	.LVL346:
 109:lvgl/src/lv_draw/../lv_core/../lv_font/../lv_misc/lv_area.h **** }
 3421              		.loc 2 109 12 view .LVU1271
 3422              	.LBE342:
 3423              	.LBE341:
 885:lvgl/src/lv_draw/lv_draw_rect.c ****         sh_buf_tmp = sh_buf + corner_size - 1;
 3424              		.loc 1 885 9 is_stmt 1 view .LVU1272
 3425              	.LBB343:
 3426              	.LBI343:
 117:lvgl/src/lv_draw/../lv_core/../lv_font/../lv_misc/lv_area.h **** {
 3427              		.loc 2 117 26 view .LVU1273
 3428              	.LBB344:
 3429              		.loc 2 119 5 view .LVU1274
 3430              		.loc 2 119 31 is_stmt 0 view .LVU1275
 3431 0aba BDF852A0 		ldrh	r10, [sp, #82]
 3432              		.loc 2 119 44 view .LVU1276
 3433 0abe BDF94E30 		ldrsh	r3, [sp, #78]
 3434 0ac2 9AB2     		uxth	r2, r3
 3435              		.loc 2 119 36 view .LVU1277
 3436 0ac4 AAEB020A 		sub	r10, r10, r2
 3437 0ac8 1FFA8AFA 		uxth	r10, r10
 3438              		.loc 2 119 49 view .LVU1278
 3439 0acc 0AF1010A 		add	r10, r10, #1
 3440              		.loc 2 119 12 view .LVU1279
 3441 0ad0 0FFA8AFA 		sxth	r10, r10
 3442              	.LVL347:
 3443              		.loc 2 119 12 view .LVU1280
 3444              	.LBE344:
 3445              	.LBE343:
 886:lvgl/src/lv_draw/lv_draw_rect.c ****         sh_buf_tmp += corner_size * (ca.y1 - a.y1);
 3446              		.loc 1 886 9 is_stmt 1 view .LVU1281
 886:lvgl/src/lv_draw/lv_draw_rect.c ****         sh_buf_tmp += corner_size * (ca.y1 - a.y1);
 3447              		.loc 1 886 43 is_stmt 0 view .LVU1282
 3448 0ad4 A346     		mov	fp, r4
 3449 0ad6 04F1FF38 		add	r8, r4, #-1
 887:lvgl/src/lv_draw/lv_draw_rect.c **** 
 3450              		.loc 1 887 9 is_stmt 1 view .LVU1283
 887:lvgl/src/lv_draw/lv_draw_rect.c **** 
 3451              		.loc 1 887 47 is_stmt 0 view .LVU1284
 3452 0ada BDF95620 		ldrsh	r2, [sp, #86]
 887:lvgl/src/lv_draw/lv_draw_rect.c **** 
 3453              		.loc 1 887 44 view .LVU1285
 3454 0ade 9B1A     		subs	r3, r3, r2
 887:lvgl/src/lv_draw/lv_draw_rect.c **** 
 3455              		.loc 1 887 20 view .LVU1286
 3456 0ae0 04FB0388 		mla	r8, r4, r3, r8
ARM GAS  D:\Temp\ccGEpo4V.s 			page 107


 3457 0ae4 089B     		ldr	r3, [sp, #32]
 3458 0ae6 9844     		add	r8, r8, r3
 3459              	.LVL348:
 889:lvgl/src/lv_draw/lv_draw_rect.c ****         lv_area_copy(&fa, &ca);
 3460              		.loc 1 889 9 is_stmt 1 view .LVU1287
 890:lvgl/src/lv_draw/lv_draw_rect.c ****         fa.y2 = fa.y1;
 3461              		.loc 1 890 9 view .LVU1288
 3462              	.LBB345:
 3463              	.LBI345:
  97:lvgl/src/lv_draw/../lv_core/../lv_font/../lv_misc/lv_area.h **** {
 3464              		.loc 2 97 20 view .LVU1289
 3465              	.LBB346:
 3466              	.LBB347:
 216:lvgl/src/lv_draw/../lv_core/../lv_font/../lv_misc/lv_mem.h **** 
 3467              		.loc 3 216 21 is_stmt 0 view .LVU1290
 3468 0ae8 13A9     		add	r1, sp, #76
 3469              	.LVL349:
 215:lvgl/src/lv_draw/../lv_core/../lv_font/../lv_misc/lv_mem.h ****     const uint8_t * s8 = (const uint8_t *)src;
 3470              		.loc 3 215 15 view .LVU1291
 3471 0aea 11AA     		add	r2, sp, #68
 3472              	.LVL350:
 215:lvgl/src/lv_draw/../lv_core/../lv_font/../lv_misc/lv_mem.h ****     const uint8_t * s8 = (const uint8_t *)src;
 3473              		.loc 3 215 15 view .LVU1292
 3474              	.LBE347:
 3475              	.LBE346:
 3476              	.LBE345:
 887:lvgl/src/lv_draw/lv_draw_rect.c **** 
 3477              		.loc 1 887 20 view .LVU1293
 3478 0aec 0823     		movs	r3, #8
 3479 0aee 04E0     		b	.L134
 3480              	.LVL351:
 3481              	.L135:
 3482              	.LBB350:
 3483              	.LBB349:
 3484              	.LBB348:
 219:lvgl/src/lv_draw/../lv_core/../lv_font/../lv_misc/lv_mem.h ****         d8++;
 3485              		.loc 3 219 9 is_stmt 1 view .LVU1294
 219:lvgl/src/lv_draw/../lv_core/../lv_font/../lv_misc/lv_mem.h ****         d8++;
 3486              		.loc 3 219 15 is_stmt 0 view .LVU1295
 3487 0af0 11F8010B 		ldrb	r0, [r1], #1	@ zero_extendqisi2
 3488              	.LVL352:
 219:lvgl/src/lv_draw/../lv_core/../lv_font/../lv_misc/lv_mem.h ****         d8++;
 3489              		.loc 3 219 13 view .LVU1296
 3490 0af4 02F8010B 		strb	r0, [r2], #1
 3491              	.LVL353:
 220:lvgl/src/lv_draw/../lv_core/../lv_font/../lv_misc/lv_mem.h ****         s8++;
 3492              		.loc 3 220 9 is_stmt 1 view .LVU1297
 221:lvgl/src/lv_draw/../lv_core/../lv_font/../lv_misc/lv_mem.h ****         len--;
 3493              		.loc 3 221 9 view .LVU1298
 222:lvgl/src/lv_draw/../lv_core/../lv_font/../lv_misc/lv_mem.h ****     }
 3494              		.loc 3 222 9 view .LVU1299
 222:lvgl/src/lv_draw/../lv_core/../lv_font/../lv_misc/lv_mem.h ****     }
 3495              		.loc 3 222 12 is_stmt 0 view .LVU1300
 3496 0af8 013B     		subs	r3, r3, #1
 3497              	.LVL354:
 3498              	.L134:
 218:lvgl/src/lv_draw/../lv_core/../lv_font/../lv_misc/lv_mem.h ****         *d8 = *s8;
ARM GAS  D:\Temp\ccGEpo4V.s 			page 108


 3499              		.loc 3 218 10 view .LVU1301
 3500 0afa 002B     		cmp	r3, #0
 3501 0afc F8D1     		bne	.L135
 3502              		.loc 3 225 5 is_stmt 1 view .LVU1302
 3503              	.LVL355:
 3504              		.loc 3 225 5 is_stmt 0 view .LVU1303
 3505              	.LBE348:
 3506              	.LBE349:
 3507              	.LBE350:
 891:lvgl/src/lv_draw/lv_draw_rect.c ****         mask_res = LV_DRAW_MASK_RES_FULL_COVER;
 3508              		.loc 1 891 9 is_stmt 1 view .LVU1304
 891:lvgl/src/lv_draw/lv_draw_rect.c ****         mask_res = LV_DRAW_MASK_RES_FULL_COVER;
 3509              		.loc 1 891 19 is_stmt 0 view .LVU1305
 3510 0afe BDF94630 		ldrsh	r3, [sp, #70]
 891:lvgl/src/lv_draw/lv_draw_rect.c ****         mask_res = LV_DRAW_MASK_RES_FULL_COVER;
 3511              		.loc 1 891 15 view .LVU1306
 3512 0b02 ADF84A30 		strh	r3, [sp, #74]	@ movhi
 892:lvgl/src/lv_draw/lv_draw_rect.c ****         for(y = 0; y < h; y++) {
 3513              		.loc 1 892 9 is_stmt 1 view .LVU1307
 3514              	.LVL356:
 893:lvgl/src/lv_draw/lv_draw_rect.c ****             lv_opa_t opa_tmp = sh_buf_tmp[0];
 3515              		.loc 1 893 9 view .LVU1308
 893:lvgl/src/lv_draw/lv_draw_rect.c ****             lv_opa_t opa_tmp = sh_buf_tmp[0];
 3516              		.loc 1 893 15 is_stmt 0 view .LVU1309
 3517 0b06 4FF00009 		mov	r9, #0
 3518 0b0a 0D96     		str	r6, [sp, #52]
 3519              	.LVL357:
 893:lvgl/src/lv_draw/lv_draw_rect.c ****             lv_opa_t opa_tmp = sh_buf_tmp[0];
 3520              		.loc 1 893 15 view .LVU1310
 3521 0b0c 079E     		ldr	r6, [sp, #28]
 893:lvgl/src/lv_draw/lv_draw_rect.c ****             lv_opa_t opa_tmp = sh_buf_tmp[0];
 3522              		.loc 1 893 9 view .LVU1311
 3523 0b0e 22E0     		b	.L136
 3524              	.LVL358:
 3525              	.L137:
 3526              	.LBB351:
 895:lvgl/src/lv_draw/lv_draw_rect.c **** 
 3527              		.loc 1 895 64 is_stmt 1 discriminator 3 view .LVU1312
 895:lvgl/src/lv_draw/lv_draw_rect.c **** 
 3528              		.loc 1 895 79 is_stmt 0 discriminator 3 view .LVU1313
 3529 0b10 01FB07F1 		mul	r1, r1, r7
 3530              	.LVL359:
 895:lvgl/src/lv_draw/lv_draw_rect.c **** 
 3531              		.loc 1 895 72 discriminator 3 view .LVU1314
 3532 0b14 C1F30721 		ubfx	r1, r1, #8, #8
 3533              	.LVL360:
 3534              	.L138:
 897:lvgl/src/lv_draw/lv_draw_rect.c **** 
 3535              		.loc 1 897 13 is_stmt 1 view .LVU1315
 3536 0b18 0B9A     		ldr	r2, [sp, #44]
 3537 0b1a 0598     		ldr	r0, [sp, #20]
 3538 0b1c FFF7FEFF 		bl	_lv_memset
 3539              	.LVL361:
 899:lvgl/src/lv_draw/lv_draw_rect.c ****                 mask_res = LV_DRAW_MASK_RES_CHANGED;
 3540              		.loc 1 899 13 view .LVU1316
 899:lvgl/src/lv_draw/lv_draw_rect.c ****                 mask_res = LV_DRAW_MASK_RES_CHANGED;
 3541              		.loc 1 899 15 is_stmt 0 view .LVU1317
ARM GAS  D:\Temp\ccGEpo4V.s 			page 109


 3542 0b20 16B3     		cbz	r6, .L197
 900:lvgl/src/lv_draw/lv_draw_rect.c ****             }
 3543              		.loc 1 900 26 view .LVU1318
 3544 0b22 0220     		movs	r0, #2
 3545              	.L139:
 3546              	.LVL362:
 907:lvgl/src/lv_draw/lv_draw_rect.c ****                            mask_res, LV_OPA_COVER, dsc->shadow_blend_mode);
 3547              		.loc 1 907 13 is_stmt 1 discriminator 2 view .LVU1319
 3548 0b24 95F82B30 		ldrb	r3, [r5, #43]	@ zero_extendqisi2
 3549 0b28 0293     		str	r3, [sp, #8]
 3550 0b2a FF23     		movs	r3, #255
 3551 0b2c 0193     		str	r3, [sp, #4]
 3552 0b2e 0090     		str	r0, [sp]
 3553 0b30 059B     		ldr	r3, [sp, #20]
 3554 0b32 2A8C     		ldrh	r2, [r5, #32]
 3555 0b34 11A9     		add	r1, sp, #68
 3556 0b36 0698     		ldr	r0, [sp, #24]
 3557              	.LVL363:
 907:lvgl/src/lv_draw/lv_draw_rect.c ****                            mask_res, LV_OPA_COVER, dsc->shadow_blend_mode);
 3558              		.loc 1 907 13 is_stmt 0 discriminator 2 view .LVU1320
 3559 0b38 FFF7FEFF 		bl	_lv_blend_fill
 3560              	.LVL364:
 909:lvgl/src/lv_draw/lv_draw_rect.c ****             fa.y2++;
 3561              		.loc 1 909 13 is_stmt 1 discriminator 2 view .LVU1321
 909:lvgl/src/lv_draw/lv_draw_rect.c ****             fa.y2++;
 3562              		.loc 1 909 15 is_stmt 0 discriminator 2 view .LVU1322
 3563 0b3c BDF94630 		ldrsh	r3, [sp, #70]
 909:lvgl/src/lv_draw/lv_draw_rect.c ****             fa.y2++;
 3564              		.loc 1 909 18 discriminator 2 view .LVU1323
 3565 0b40 0133     		adds	r3, r3, #1
 3566 0b42 ADF84630 		strh	r3, [sp, #70]	@ movhi
 910:lvgl/src/lv_draw/lv_draw_rect.c ****             sh_buf_tmp += corner_size;
 3567              		.loc 1 910 13 is_stmt 1 discriminator 2 view .LVU1324
 910:lvgl/src/lv_draw/lv_draw_rect.c ****             sh_buf_tmp += corner_size;
 3568              		.loc 1 910 15 is_stmt 0 discriminator 2 view .LVU1325
 3569 0b46 BDF94A30 		ldrsh	r3, [sp, #74]
 910:lvgl/src/lv_draw/lv_draw_rect.c ****             sh_buf_tmp += corner_size;
 3570              		.loc 1 910 18 discriminator 2 view .LVU1326
 3571 0b4a 0133     		adds	r3, r3, #1
 3572 0b4c ADF84A30 		strh	r3, [sp, #74]	@ movhi
 911:lvgl/src/lv_draw/lv_draw_rect.c ****         }
 3573              		.loc 1 911 13 is_stmt 1 discriminator 2 view .LVU1327
 911:lvgl/src/lv_draw/lv_draw_rect.c ****         }
 3574              		.loc 1 911 24 is_stmt 0 discriminator 2 view .LVU1328
 3575 0b50 D844     		add	r8, r8, fp
 3576              	.LVL365:
 911:lvgl/src/lv_draw/lv_draw_rect.c ****         }
 3577              		.loc 1 911 24 discriminator 2 view .LVU1329
 3578              	.LBE351:
 893:lvgl/src/lv_draw/lv_draw_rect.c ****             lv_opa_t opa_tmp = sh_buf_tmp[0];
 3579              		.loc 1 893 28 discriminator 2 view .LVU1330
 3580 0b52 09F10109 		add	r9, r9, #1
 3581              	.LVL366:
 3582              	.L136:
 893:lvgl/src/lv_draw/lv_draw_rect.c ****             lv_opa_t opa_tmp = sh_buf_tmp[0];
 3583              		.loc 1 893 9 discriminator 1 view .LVU1331
 3584 0b56 CA45     		cmp	r10, r9
ARM GAS  D:\Temp\ccGEpo4V.s 			page 110


 3585 0b58 12DD     		ble	.L198
 3586              	.LBB352:
 894:lvgl/src/lv_draw/lv_draw_rect.c ****             if(opa_tmp != LV_OPA_COVER || opa != LV_OPA_COVER) opa_tmp = (opa * opa_tmp) >> 8;
 3587              		.loc 1 894 13 is_stmt 1 view .LVU1332
 894:lvgl/src/lv_draw/lv_draw_rect.c ****             if(opa_tmp != LV_OPA_COVER || opa != LV_OPA_COVER) opa_tmp = (opa * opa_tmp) >> 8;
 3588              		.loc 1 894 22 is_stmt 0 view .LVU1333
 3589 0b5a 98F80010 		ldrb	r1, [r8]	@ zero_extendqisi2
 3590              	.LVL367:
 895:lvgl/src/lv_draw/lv_draw_rect.c **** 
 3591              		.loc 1 895 13 is_stmt 1 view .LVU1334
 895:lvgl/src/lv_draw/lv_draw_rect.c **** 
 3592              		.loc 1 895 15 is_stmt 0 view .LVU1335
 3593 0b5e FF29     		cmp	r1, #255
 3594 0b60 D6D1     		bne	.L137
 895:lvgl/src/lv_draw/lv_draw_rect.c **** 
 3595              		.loc 1 895 40 discriminator 2 view .LVU1336
 3596 0b62 FF2F     		cmp	r7, #255
 3597 0b64 D4D1     		bne	.L137
 3598 0b66 D7E7     		b	.L138
 3599              	.LVL368:
 3600              	.L197:
 903:lvgl/src/lv_draw/lv_draw_rect.c ****                 if(mask_res == LV_DRAW_MASK_RES_FULL_COVER) mask_res = LV_DRAW_MASK_RES_CHANGED;
 3601              		.loc 1 903 17 is_stmt 1 view .LVU1337
 903:lvgl/src/lv_draw/lv_draw_rect.c ****                 if(mask_res == LV_DRAW_MASK_RES_FULL_COVER) mask_res = LV_DRAW_MASK_RES_CHANGED;
 3602              		.loc 1 903 28 is_stmt 0 view .LVU1338
 3603 0b68 0B9B     		ldr	r3, [sp, #44]
 3604 0b6a BDF94620 		ldrsh	r2, [sp, #70]
 3605 0b6e BDF94410 		ldrsh	r1, [sp, #68]
 3606 0b72 0598     		ldr	r0, [sp, #20]
 3607 0b74 FFF7FEFF 		bl	lv_draw_mask_apply
 3608              	.LVL369:
 904:lvgl/src/lv_draw/lv_draw_rect.c ****             }
 3609              		.loc 1 904 17 is_stmt 1 view .LVU1339
 904:lvgl/src/lv_draw/lv_draw_rect.c ****             }
 3610              		.loc 1 904 19 is_stmt 0 view .LVU1340
 3611 0b78 0128     		cmp	r0, #1
 3612 0b7a D3D1     		bne	.L139
 904:lvgl/src/lv_draw/lv_draw_rect.c ****             }
 3613              		.loc 1 904 70 view .LVU1341
 3614 0b7c 0220     		movs	r0, #2
 3615              	.LVL370:
 904:lvgl/src/lv_draw/lv_draw_rect.c ****             }
 3616              		.loc 1 904 70 view .LVU1342
 3617 0b7e D1E7     		b	.L139
 3618              	.L198:
 904:lvgl/src/lv_draw/lv_draw_rect.c ****             }
 3619              		.loc 1 904 70 view .LVU1343
 3620 0b80 0D9E     		ldr	r6, [sp, #52]
 3621 0b82 C1E5     		b	.L132
 3622              	.LVL371:
 3623              	.L189:
 904:lvgl/src/lv_draw/lv_draw_rect.c ****             }
 3624              		.loc 1 904 70 view .LVU1344
 3625              	.LBE352:
 3626              	.LBE340:
 922:lvgl/src/lv_draw/lv_draw_rect.c ****         if(simple_mode) ca.y1 = LV_MATH_MAX(ca.y1, coords->y2);
 3627              		.loc 1 922 19 discriminator 1 view .LVU1345
ARM GAS  D:\Temp\ccGEpo4V.s 			page 111


 3628 0b84 099A     		ldr	r2, [sp, #36]
 3629 0b86 1EA9     		add	r1, sp, #120
 3630 0b88 15A8     		add	r0, sp, #84
 3631              	.LVL372:
 922:lvgl/src/lv_draw/lv_draw_rect.c ****         if(simple_mode) ca.y1 = LV_MATH_MAX(ca.y1, coords->y2);
 3632              		.loc 1 922 19 discriminator 1 view .LVU1346
 3633 0b8a FFF7FEFF 		bl	_lv_area_is_in
 3634              	.LVL373:
 922:lvgl/src/lv_draw/lv_draw_rect.c ****         if(simple_mode) ca.y1 = LV_MATH_MAX(ca.y1, coords->y2);
 3635              		.loc 1 922 16 discriminator 1 view .LVU1347
 3636 0b8e 0028     		cmp	r0, #0
 3637 0b90 7FF4D6AD 		bne	.L141
 3638              	.LBB353:
 923:lvgl/src/lv_draw/lv_draw_rect.c ****         /*Draw horizontal lines*/
 3639              		.loc 1 923 9 is_stmt 1 view .LVU1348
 923:lvgl/src/lv_draw/lv_draw_rect.c ****         /*Draw horizontal lines*/
 3640              		.loc 1 923 11 is_stmt 0 view .LVU1349
 3641 0b94 079B     		ldr	r3, [sp, #28]
 3642 0b96 4BB1     		cbz	r3, .L142
 923:lvgl/src/lv_draw/lv_draw_rect.c ****         /*Draw horizontal lines*/
 3643              		.loc 1 923 25 is_stmt 1 discriminator 1 view .LVU1350
 923:lvgl/src/lv_draw/lv_draw_rect.c ****         /*Draw horizontal lines*/
 3644              		.loc 1 923 33 is_stmt 0 discriminator 1 view .LVU1351
 3645 0b98 0C9B     		ldr	r3, [sp, #48]
 3646 0b9a B3F90630 		ldrsh	r3, [r3, #6]
 3647 0b9e BDF94E20 		ldrsh	r2, [sp, #78]
 3648 0ba2 9342     		cmp	r3, r2
 3649 0ba4 B8BF     		it	lt
 3650 0ba6 1346     		movlt	r3, r2
 923:lvgl/src/lv_draw/lv_draw_rect.c ****         /*Draw horizontal lines*/
 3651              		.loc 1 923 31 discriminator 1 view .LVU1352
 3652 0ba8 ADF84E30 		strh	r3, [sp, #78]	@ movhi
 3653              	.L142:
 925:lvgl/src/lv_draw/lv_draw_rect.c ****         lv_coord_t h = lv_area_get_height(&ca);
 3654              		.loc 1 925 9 is_stmt 1 view .LVU1353
 3655              	.LVL374:
 3656              	.LBB354:
 3657              	.LBI354:
 107:lvgl/src/lv_draw/../lv_core/../lv_font/../lv_misc/lv_area.h **** {
 3658              		.loc 2 107 26 view .LVU1354
 3659              	.LBB355:
 109:lvgl/src/lv_draw/../lv_core/../lv_font/../lv_misc/lv_area.h **** }
 3660              		.loc 2 109 5 view .LVU1355
 109:lvgl/src/lv_draw/../lv_core/../lv_font/../lv_misc/lv_area.h **** }
 3661              		.loc 2 109 31 is_stmt 0 view .LVU1356
 3662 0bac BDF850B0 		ldrh	fp, [sp, #80]
 109:lvgl/src/lv_draw/../lv_core/../lv_font/../lv_misc/lv_area.h **** }
 3663              		.loc 2 109 44 view .LVU1357
 3664 0bb0 BDF84C30 		ldrh	r3, [sp, #76]
 109:lvgl/src/lv_draw/../lv_core/../lv_font/../lv_misc/lv_area.h **** }
 3665              		.loc 2 109 36 view .LVU1358
 3666 0bb4 ABEB030B 		sub	fp, fp, r3
 3667 0bb8 1FFA8BFB 		uxth	fp, fp
 109:lvgl/src/lv_draw/../lv_core/../lv_font/../lv_misc/lv_area.h **** }
 3668              		.loc 2 109 49 view .LVU1359
 3669 0bbc 0BF1010B 		add	fp, fp, #1
 109:lvgl/src/lv_draw/../lv_core/../lv_font/../lv_misc/lv_area.h **** }
ARM GAS  D:\Temp\ccGEpo4V.s 			page 112


 3670              		.loc 2 109 12 view .LVU1360
 3671 0bc0 0FFA8BFB 		sxth	fp, fp
 3672              	.LVL375:
 109:lvgl/src/lv_draw/../lv_core/../lv_font/../lv_misc/lv_area.h **** }
 3673              		.loc 2 109 12 view .LVU1361
 3674              	.LBE355:
 3675              	.LBE354:
 926:lvgl/src/lv_draw/lv_draw_rect.c ****         sh_buf_tmp = sh_buf + corner_size - 1;
 3676              		.loc 1 926 9 is_stmt 1 view .LVU1362
 3677              	.LBB356:
 3678              	.LBI356:
 117:lvgl/src/lv_draw/../lv_core/../lv_font/../lv_misc/lv_area.h **** {
 3679              		.loc 2 117 26 view .LVU1363
 3680              	.LBB357:
 3681              		.loc 2 119 5 view .LVU1364
 3682              		.loc 2 119 31 is_stmt 0 view .LVU1365
 3683 0bc4 BDF95220 		ldrsh	r2, [sp, #82]
 3684 0bc8 1FFA82F8 		uxth	r8, r2
 3685              		.loc 2 119 44 view .LVU1366
 3686 0bcc BDF84E30 		ldrh	r3, [sp, #78]
 3687              		.loc 2 119 36 view .LVU1367
 3688 0bd0 A8EB0308 		sub	r8, r8, r3
 3689 0bd4 1FFA88F8 		uxth	r8, r8
 3690              		.loc 2 119 49 view .LVU1368
 3691 0bd8 08F10108 		add	r8, r8, #1
 3692              		.loc 2 119 12 view .LVU1369
 3693 0bdc 0FFA88F8 		sxth	r8, r8
 3694              	.LVL376:
 3695              		.loc 2 119 12 view .LVU1370
 3696              	.LBE357:
 3697              	.LBE356:
 927:lvgl/src/lv_draw/lv_draw_rect.c ****         sh_buf_tmp += corner_size * (a.y2 - ca.y2);
 3698              		.loc 1 927 9 is_stmt 1 view .LVU1371
 927:lvgl/src/lv_draw/lv_draw_rect.c ****         sh_buf_tmp += corner_size * (a.y2 - ca.y2);
 3699              		.loc 1 927 43 is_stmt 0 view .LVU1372
 3700 0be0 A146     		mov	r9, r4
 3701 0be2 611E     		subs	r1, r4, #1
 3702              	.LVL377:
 928:lvgl/src/lv_draw/lv_draw_rect.c **** 
 3703              		.loc 1 928 9 is_stmt 1 view .LVU1373
 928:lvgl/src/lv_draw/lv_draw_rect.c **** 
 3704              		.loc 1 928 39 is_stmt 0 view .LVU1374
 3705 0be4 BDF95A30 		ldrsh	r3, [sp, #90]
 928:lvgl/src/lv_draw/lv_draw_rect.c **** 
 3706              		.loc 1 928 43 view .LVU1375
 3707 0be8 9B1A     		subs	r3, r3, r2
 928:lvgl/src/lv_draw/lv_draw_rect.c **** 
 3708              		.loc 1 928 20 view .LVU1376
 3709 0bea 04FB0314 		mla	r4, r4, r3, r1
 3710              	.LVL378:
 928:lvgl/src/lv_draw/lv_draw_rect.c **** 
 3711              		.loc 1 928 20 view .LVU1377
 3712 0bee 089B     		ldr	r3, [sp, #32]
 3713 0bf0 1C44     		add	r4, r4, r3
 3714              	.LVL379:
 930:lvgl/src/lv_draw/lv_draw_rect.c ****         lv_area_copy(&fa, &ca);
 3715              		.loc 1 930 9 is_stmt 1 view .LVU1378
ARM GAS  D:\Temp\ccGEpo4V.s 			page 113


 931:lvgl/src/lv_draw/lv_draw_rect.c ****         fa.y1 = fa.y2;
 3716              		.loc 1 931 9 view .LVU1379
 3717              	.LBB358:
 3718              	.LBI358:
  97:lvgl/src/lv_draw/../lv_core/../lv_font/../lv_misc/lv_area.h **** {
 3719              		.loc 2 97 20 view .LVU1380
 3720              	.LBB359:
 3721              	.LBB360:
 216:lvgl/src/lv_draw/../lv_core/../lv_font/../lv_misc/lv_mem.h **** 
 3722              		.loc 3 216 21 is_stmt 0 view .LVU1381
 3723 0bf2 13A9     		add	r1, sp, #76
 3724              	.LVL380:
 215:lvgl/src/lv_draw/../lv_core/../lv_font/../lv_misc/lv_mem.h ****     const uint8_t * s8 = (const uint8_t *)src;
 3725              		.loc 3 215 15 view .LVU1382
 3726 0bf4 11AA     		add	r2, sp, #68
 3727              	.LVL381:
 215:lvgl/src/lv_draw/../lv_core/../lv_font/../lv_misc/lv_mem.h ****     const uint8_t * s8 = (const uint8_t *)src;
 3728              		.loc 3 215 15 view .LVU1383
 3729              	.LBE360:
 3730              	.LBE359:
 3731              	.LBE358:
 928:lvgl/src/lv_draw/lv_draw_rect.c **** 
 3732              		.loc 1 928 20 view .LVU1384
 3733 0bf6 0823     		movs	r3, #8
 3734 0bf8 04E0     		b	.L143
 3735              	.LVL382:
 3736              	.L144:
 3737              	.LBB363:
 3738              	.LBB362:
 3739              	.LBB361:
 219:lvgl/src/lv_draw/../lv_core/../lv_font/../lv_misc/lv_mem.h ****         d8++;
 3740              		.loc 3 219 9 is_stmt 1 view .LVU1385
 219:lvgl/src/lv_draw/../lv_core/../lv_font/../lv_misc/lv_mem.h ****         d8++;
 3741              		.loc 3 219 15 is_stmt 0 view .LVU1386
 3742 0bfa 11F8010B 		ldrb	r0, [r1], #1	@ zero_extendqisi2
 3743              	.LVL383:
 219:lvgl/src/lv_draw/../lv_core/../lv_font/../lv_misc/lv_mem.h ****         d8++;
 3744              		.loc 3 219 13 view .LVU1387
 3745 0bfe 02F8010B 		strb	r0, [r2], #1
 3746              	.LVL384:
 220:lvgl/src/lv_draw/../lv_core/../lv_font/../lv_misc/lv_mem.h ****         s8++;
 3747              		.loc 3 220 9 is_stmt 1 view .LVU1388
 221:lvgl/src/lv_draw/../lv_core/../lv_font/../lv_misc/lv_mem.h ****         len--;
 3748              		.loc 3 221 9 view .LVU1389
 222:lvgl/src/lv_draw/../lv_core/../lv_font/../lv_misc/lv_mem.h ****     }
 3749              		.loc 3 222 9 view .LVU1390
 222:lvgl/src/lv_draw/../lv_core/../lv_font/../lv_misc/lv_mem.h ****     }
 3750              		.loc 3 222 12 is_stmt 0 view .LVU1391
 3751 0c02 013B     		subs	r3, r3, #1
 3752              	.LVL385:
 3753              	.L143:
 218:lvgl/src/lv_draw/../lv_core/../lv_font/../lv_misc/lv_mem.h ****         *d8 = *s8;
 3754              		.loc 3 218 10 view .LVU1392
 3755 0c04 002B     		cmp	r3, #0
 3756 0c06 F8D1     		bne	.L144
 3757              		.loc 3 225 5 is_stmt 1 view .LVU1393
 3758              	.LVL386:
ARM GAS  D:\Temp\ccGEpo4V.s 			page 114


 3759              		.loc 3 225 5 is_stmt 0 view .LVU1394
 3760              	.LBE361:
 3761              	.LBE362:
 3762              	.LBE363:
 932:lvgl/src/lv_draw/lv_draw_rect.c ****         for(y = 0; y < h; y++) {
 3763              		.loc 1 932 9 is_stmt 1 view .LVU1395
 932:lvgl/src/lv_draw/lv_draw_rect.c ****         for(y = 0; y < h; y++) {
 3764              		.loc 1 932 19 is_stmt 0 view .LVU1396
 3765 0c08 BDF94A30 		ldrsh	r3, [sp, #74]
 932:lvgl/src/lv_draw/lv_draw_rect.c ****         for(y = 0; y < h; y++) {
 3766              		.loc 1 932 15 view .LVU1397
 3767 0c0c ADF84630 		strh	r3, [sp, #70]	@ movhi
 933:lvgl/src/lv_draw/lv_draw_rect.c ****             lv_opa_t opa_tmp = sh_buf_tmp[0];
 3768              		.loc 1 933 9 is_stmt 1 view .LVU1398
 3769              	.LVL387:
 933:lvgl/src/lv_draw/lv_draw_rect.c ****             lv_opa_t opa_tmp = sh_buf_tmp[0];
 3770              		.loc 1 933 15 is_stmt 0 view .LVU1399
 3771 0c10 4FF0000A 		mov	r10, #0
 3772 0c14 0B96     		str	r6, [sp, #44]
 3773 0c16 079E     		ldr	r6, [sp, #28]
 933:lvgl/src/lv_draw/lv_draw_rect.c ****             lv_opa_t opa_tmp = sh_buf_tmp[0];
 3774              		.loc 1 933 9 view .LVU1400
 3775 0c18 22E0     		b	.L145
 3776              	.LVL388:
 3777              	.L146:
 3778              	.LBB364:
 935:lvgl/src/lv_draw/lv_draw_rect.c **** 
 3779              		.loc 1 935 64 is_stmt 1 discriminator 3 view .LVU1401
 935:lvgl/src/lv_draw/lv_draw_rect.c **** 
 3780              		.loc 1 935 79 is_stmt 0 discriminator 3 view .LVU1402
 3781 0c1a 01FB07F1 		mul	r1, r1, r7
 3782              	.LVL389:
 935:lvgl/src/lv_draw/lv_draw_rect.c **** 
 3783              		.loc 1 935 72 discriminator 3 view .LVU1403
 3784 0c1e C1F30721 		ubfx	r1, r1, #8, #8
 3785              	.LVL390:
 3786              	.L147:
 937:lvgl/src/lv_draw/lv_draw_rect.c ****             if(simple_mode) {
 3787              		.loc 1 937 13 is_stmt 1 view .LVU1404
 3788 0c22 5A46     		mov	r2, fp
 3789 0c24 0598     		ldr	r0, [sp, #20]
 3790 0c26 FFF7FEFF 		bl	_lv_memset
 3791              	.LVL391:
 938:lvgl/src/lv_draw/lv_draw_rect.c ****                 mask_res = LV_DRAW_MASK_RES_CHANGED;
 3792              		.loc 1 938 13 view .LVU1405
 938:lvgl/src/lv_draw/lv_draw_rect.c ****                 mask_res = LV_DRAW_MASK_RES_CHANGED;
 3793              		.loc 1 938 15 is_stmt 0 view .LVU1406
 3794 0c2a 0EB3     		cbz	r6, .L199
 939:lvgl/src/lv_draw/lv_draw_rect.c ****             }
 3795              		.loc 1 939 26 view .LVU1407
 3796 0c2c 0220     		movs	r0, #2
 3797              	.L148:
 3798              	.LVL392:
 946:lvgl/src/lv_draw/lv_draw_rect.c ****                            mask_res, LV_OPA_COVER, dsc->shadow_blend_mode);
 3799              		.loc 1 946 13 is_stmt 1 discriminator 2 view .LVU1408
 3800 0c2e 95F82B30 		ldrb	r3, [r5, #43]	@ zero_extendqisi2
 3801 0c32 0293     		str	r3, [sp, #8]
ARM GAS  D:\Temp\ccGEpo4V.s 			page 115


 3802 0c34 FF23     		movs	r3, #255
 3803 0c36 0193     		str	r3, [sp, #4]
 3804 0c38 0090     		str	r0, [sp]
 3805 0c3a 059B     		ldr	r3, [sp, #20]
 3806 0c3c 2A8C     		ldrh	r2, [r5, #32]
 3807 0c3e 11A9     		add	r1, sp, #68
 3808 0c40 0698     		ldr	r0, [sp, #24]
 3809              	.LVL393:
 946:lvgl/src/lv_draw/lv_draw_rect.c ****                            mask_res, LV_OPA_COVER, dsc->shadow_blend_mode);
 3810              		.loc 1 946 13 is_stmt 0 discriminator 2 view .LVU1409
 3811 0c42 FFF7FEFF 		bl	_lv_blend_fill
 3812              	.LVL394:
 948:lvgl/src/lv_draw/lv_draw_rect.c ****             fa.y2--;
 3813              		.loc 1 948 13 is_stmt 1 discriminator 2 view .LVU1410
 948:lvgl/src/lv_draw/lv_draw_rect.c ****             fa.y2--;
 3814              		.loc 1 948 15 is_stmt 0 discriminator 2 view .LVU1411
 3815 0c46 BDF94630 		ldrsh	r3, [sp, #70]
 948:lvgl/src/lv_draw/lv_draw_rect.c ****             fa.y2--;
 3816              		.loc 1 948 18 discriminator 2 view .LVU1412
 3817 0c4a 013B     		subs	r3, r3, #1
 3818 0c4c ADF84630 		strh	r3, [sp, #70]	@ movhi
 949:lvgl/src/lv_draw/lv_draw_rect.c ****             sh_buf_tmp += corner_size;
 3819              		.loc 1 949 13 is_stmt 1 discriminator 2 view .LVU1413
 949:lvgl/src/lv_draw/lv_draw_rect.c ****             sh_buf_tmp += corner_size;
 3820              		.loc 1 949 15 is_stmt 0 discriminator 2 view .LVU1414
 3821 0c50 BDF94A30 		ldrsh	r3, [sp, #74]
 949:lvgl/src/lv_draw/lv_draw_rect.c ****             sh_buf_tmp += corner_size;
 3822              		.loc 1 949 18 discriminator 2 view .LVU1415
 3823 0c54 013B     		subs	r3, r3, #1
 3824 0c56 ADF84A30 		strh	r3, [sp, #74]	@ movhi
 950:lvgl/src/lv_draw/lv_draw_rect.c ****         }
 3825              		.loc 1 950 13 is_stmt 1 discriminator 2 view .LVU1416
 950:lvgl/src/lv_draw/lv_draw_rect.c ****         }
 3826              		.loc 1 950 24 is_stmt 0 discriminator 2 view .LVU1417
 3827 0c5a 4C44     		add	r4, r4, r9
 3828              	.LVL395:
 950:lvgl/src/lv_draw/lv_draw_rect.c ****         }
 3829              		.loc 1 950 24 discriminator 2 view .LVU1418
 3830              	.LBE364:
 933:lvgl/src/lv_draw/lv_draw_rect.c ****             lv_opa_t opa_tmp = sh_buf_tmp[0];
 3831              		.loc 1 933 28 discriminator 2 view .LVU1419
 3832 0c5c 0AF1010A 		add	r10, r10, #1
 3833              	.LVL396:
 3834              	.L145:
 933:lvgl/src/lv_draw/lv_draw_rect.c ****             lv_opa_t opa_tmp = sh_buf_tmp[0];
 3835              		.loc 1 933 9 discriminator 1 view .LVU1420
 3836 0c60 D045     		cmp	r8, r10
 3837 0c62 11DD     		ble	.L200
 3838              	.LBB365:
 934:lvgl/src/lv_draw/lv_draw_rect.c ****             if(opa_tmp != LV_OPA_COVER || opa != LV_OPA_COVER) opa_tmp = (opa * opa_tmp) >> 8;
 3839              		.loc 1 934 13 is_stmt 1 view .LVU1421
 934:lvgl/src/lv_draw/lv_draw_rect.c ****             if(opa_tmp != LV_OPA_COVER || opa != LV_OPA_COVER) opa_tmp = (opa * opa_tmp) >> 8;
 3840              		.loc 1 934 22 is_stmt 0 view .LVU1422
 3841 0c64 2178     		ldrb	r1, [r4]	@ zero_extendqisi2
 3842              	.LVL397:
 935:lvgl/src/lv_draw/lv_draw_rect.c **** 
 3843              		.loc 1 935 13 is_stmt 1 view .LVU1423
ARM GAS  D:\Temp\ccGEpo4V.s 			page 116


 935:lvgl/src/lv_draw/lv_draw_rect.c **** 
 3844              		.loc 1 935 15 is_stmt 0 view .LVU1424
 3845 0c66 FF29     		cmp	r1, #255
 3846 0c68 D7D1     		bne	.L146
 935:lvgl/src/lv_draw/lv_draw_rect.c **** 
 3847              		.loc 1 935 40 discriminator 2 view .LVU1425
 3848 0c6a FF2F     		cmp	r7, #255
 3849 0c6c D5D1     		bne	.L146
 3850 0c6e D8E7     		b	.L147
 3851              	.LVL398:
 3852              	.L199:
 942:lvgl/src/lv_draw/lv_draw_rect.c ****                 if(mask_res == LV_DRAW_MASK_RES_FULL_COVER) mask_res = LV_DRAW_MASK_RES_CHANGED;
 3853              		.loc 1 942 17 is_stmt 1 view .LVU1426
 942:lvgl/src/lv_draw/lv_draw_rect.c ****                 if(mask_res == LV_DRAW_MASK_RES_FULL_COVER) mask_res = LV_DRAW_MASK_RES_CHANGED;
 3854              		.loc 1 942 28 is_stmt 0 view .LVU1427
 3855 0c70 5B46     		mov	r3, fp
 3856 0c72 BDF94620 		ldrsh	r2, [sp, #70]
 3857 0c76 BDF94410 		ldrsh	r1, [sp, #68]
 3858 0c7a 0598     		ldr	r0, [sp, #20]
 3859 0c7c FFF7FEFF 		bl	lv_draw_mask_apply
 3860              	.LVL399:
 943:lvgl/src/lv_draw/lv_draw_rect.c ****             }
 3861              		.loc 1 943 17 is_stmt 1 view .LVU1428
 943:lvgl/src/lv_draw/lv_draw_rect.c ****             }
 3862              		.loc 1 943 19 is_stmt 0 view .LVU1429
 3863 0c80 0128     		cmp	r0, #1
 3864 0c82 D4D1     		bne	.L148
 943:lvgl/src/lv_draw/lv_draw_rect.c ****             }
 3865              		.loc 1 943 70 view .LVU1430
 3866 0c84 0220     		movs	r0, #2
 3867              	.LVL400:
 943:lvgl/src/lv_draw/lv_draw_rect.c ****             }
 3868              		.loc 1 943 70 view .LVU1431
 3869 0c86 D2E7     		b	.L148
 3870              	.L200:
 943:lvgl/src/lv_draw/lv_draw_rect.c ****             }
 3871              		.loc 1 943 70 view .LVU1432
 3872 0c88 0B9E     		ldr	r6, [sp, #44]
 3873 0c8a 59E5     		b	.L141
 3874              	.LVL401:
 3875              	.L190:
 943:lvgl/src/lv_draw/lv_draw_rect.c ****             }
 3876              		.loc 1 943 70 view .LVU1433
 3877              	.LBE365:
 3878              	.LBE353:
 961:lvgl/src/lv_draw/lv_draw_rect.c ****         /*Draw horizontal lines*/
 3879              		.loc 1 961 44 discriminator 2 view .LVU1434
 3880 0c8c 099A     		ldr	r2, [sp, #36]
 3881 0c8e 1EA9     		add	r1, sp, #120
 3882 0c90 15A8     		add	r0, sp, #84
 3883              	.LVL402:
 961:lvgl/src/lv_draw/lv_draw_rect.c ****         /*Draw horizontal lines*/
 3884              		.loc 1 961 44 discriminator 2 view .LVU1435
 3885 0c92 FFF7FEFF 		bl	_lv_area_is_in
 3886              	.LVL403:
 961:lvgl/src/lv_draw/lv_draw_rect.c ****         /*Draw horizontal lines*/
 3887              		.loc 1 961 40 discriminator 2 view .LVU1436
ARM GAS  D:\Temp\ccGEpo4V.s 			page 117


 3888 0c96 0028     		cmp	r0, #0
 3889 0c98 7FF470AD 		bne	.L150
 3890              	.LBB366:
 963:lvgl/src/lv_draw/lv_draw_rect.c ****         lv_coord_t h = lv_area_get_height(&ca);
 3891              		.loc 1 963 9 is_stmt 1 view .LVU1437
 3892              	.LVL404:
 3893              	.LBB367:
 3894              	.LBI367:
 107:lvgl/src/lv_draw/../lv_core/../lv_font/../lv_misc/lv_area.h **** {
 3895              		.loc 2 107 26 view .LVU1438
 3896              	.LBB368:
 109:lvgl/src/lv_draw/../lv_core/../lv_font/../lv_misc/lv_area.h **** }
 3897              		.loc 2 109 5 view .LVU1439
 109:lvgl/src/lv_draw/../lv_core/../lv_font/../lv_misc/lv_area.h **** }
 3898              		.loc 2 109 31 is_stmt 0 view .LVU1440
 3899 0c9c BDF85060 		ldrh	r6, [sp, #80]
 109:lvgl/src/lv_draw/../lv_core/../lv_font/../lv_misc/lv_area.h **** }
 3900              		.loc 2 109 44 view .LVU1441
 3901 0ca0 BDF84C30 		ldrh	r3, [sp, #76]
 109:lvgl/src/lv_draw/../lv_core/../lv_font/../lv_misc/lv_area.h **** }
 3902              		.loc 2 109 36 view .LVU1442
 3903 0ca4 F61A     		subs	r6, r6, r3
 3904 0ca6 B6B2     		uxth	r6, r6
 109:lvgl/src/lv_draw/../lv_core/../lv_font/../lv_misc/lv_area.h **** }
 3905              		.loc 2 109 49 view .LVU1443
 3906 0ca8 0136     		adds	r6, r6, #1
 109:lvgl/src/lv_draw/../lv_core/../lv_font/../lv_misc/lv_area.h **** }
 3907              		.loc 2 109 12 view .LVU1444
 3908 0caa 36B2     		sxth	r6, r6
 3909              	.LVL405:
 109:lvgl/src/lv_draw/../lv_core/../lv_font/../lv_misc/lv_area.h **** }
 3910              		.loc 2 109 12 view .LVU1445
 3911              	.LBE368:
 3912              	.LBE367:
 964:lvgl/src/lv_draw/lv_draw_rect.c **** 
 3913              		.loc 1 964 9 is_stmt 1 view .LVU1446
 3914              	.LBB369:
 3915              	.LBI369:
 117:lvgl/src/lv_draw/../lv_core/../lv_font/../lv_misc/lv_area.h **** {
 3916              		.loc 2 117 26 view .LVU1447
 3917              	.LBB370:
 3918              		.loc 2 119 5 view .LVU1448
 3919              		.loc 2 119 31 is_stmt 0 view .LVU1449
 3920 0cac BDF85270 		ldrh	r7, [sp, #82]
 3921              		.loc 2 119 44 view .LVU1450
 3922 0cb0 BDF84E30 		ldrh	r3, [sp, #78]
 3923              		.loc 2 119 36 view .LVU1451
 3924 0cb4 FF1A     		subs	r7, r7, r3
 3925 0cb6 BFB2     		uxth	r7, r7
 3926              		.loc 2 119 49 view .LVU1452
 3927 0cb8 0137     		adds	r7, r7, #1
 3928              		.loc 2 119 12 view .LVU1453
 3929 0cba 3FB2     		sxth	r7, r7
 3930              	.LVL406:
 3931              		.loc 2 119 12 view .LVU1454
 3932              	.LBE370:
 3933              	.LBE369:
ARM GAS  D:\Temp\ccGEpo4V.s 			page 118


 966:lvgl/src/lv_draw/lv_draw_rect.c ****         lv_area_copy(&fa, &ca);
 3934              		.loc 1 966 9 is_stmt 1 view .LVU1455
 967:lvgl/src/lv_draw/lv_draw_rect.c ****         fa.y2 = fa.y1;
 3935              		.loc 1 967 9 view .LVU1456
 3936              	.LBB372:
 3937              	.LBI372:
  97:lvgl/src/lv_draw/../lv_core/../lv_font/../lv_misc/lv_area.h **** {
 3938              		.loc 2 97 20 view .LVU1457
 3939              	.LBB373:
 3940              	.LBB374:
 216:lvgl/src/lv_draw/../lv_core/../lv_font/../lv_misc/lv_mem.h **** 
 3941              		.loc 3 216 21 is_stmt 0 view .LVU1458
 3942 0cbc 13A9     		add	r1, sp, #76
 3943              	.LVL407:
 215:lvgl/src/lv_draw/../lv_core/../lv_font/../lv_misc/lv_mem.h ****     const uint8_t * s8 = (const uint8_t *)src;
 3944              		.loc 3 215 15 view .LVU1459
 3945 0cbe 11AA     		add	r2, sp, #68
 3946              	.LVL408:
 215:lvgl/src/lv_draw/../lv_core/../lv_font/../lv_misc/lv_mem.h ****     const uint8_t * s8 = (const uint8_t *)src;
 3947              		.loc 3 215 15 view .LVU1460
 3948              	.LBE374:
 3949              	.LBE373:
 3950              	.LBE372:
 3951              	.LBB377:
 3952              	.LBB371:
 3953              		.loc 2 119 12 view .LVU1461
 3954 0cc0 0823     		movs	r3, #8
 3955 0cc2 04E0     		b	.L151
 3956              	.LVL409:
 3957              	.L152:
 3958              		.loc 2 119 12 view .LVU1462
 3959              	.LBE371:
 3960              	.LBE377:
 3961              	.LBB378:
 3962              	.LBB376:
 3963              	.LBB375:
 219:lvgl/src/lv_draw/../lv_core/../lv_font/../lv_misc/lv_mem.h ****         d8++;
 3964              		.loc 3 219 9 is_stmt 1 view .LVU1463
 219:lvgl/src/lv_draw/../lv_core/../lv_font/../lv_misc/lv_mem.h ****         d8++;
 3965              		.loc 3 219 15 is_stmt 0 view .LVU1464
 3966 0cc4 11F8010B 		ldrb	r0, [r1], #1	@ zero_extendqisi2
 3967              	.LVL410:
 219:lvgl/src/lv_draw/../lv_core/../lv_font/../lv_misc/lv_mem.h ****         d8++;
 3968              		.loc 3 219 13 view .LVU1465
 3969 0cc8 02F8010B 		strb	r0, [r2], #1
 3970              	.LVL411:
 220:lvgl/src/lv_draw/../lv_core/../lv_font/../lv_misc/lv_mem.h ****         s8++;
 3971              		.loc 3 220 9 is_stmt 1 view .LVU1466
 221:lvgl/src/lv_draw/../lv_core/../lv_font/../lv_misc/lv_mem.h ****         len--;
 3972              		.loc 3 221 9 view .LVU1467
 222:lvgl/src/lv_draw/../lv_core/../lv_font/../lv_misc/lv_mem.h ****     }
 3973              		.loc 3 222 9 view .LVU1468
 222:lvgl/src/lv_draw/../lv_core/../lv_font/../lv_misc/lv_mem.h ****     }
 3974              		.loc 3 222 12 is_stmt 0 view .LVU1469
 3975 0ccc 013B     		subs	r3, r3, #1
 3976              	.LVL412:
 3977              	.L151:
ARM GAS  D:\Temp\ccGEpo4V.s 			page 119


 218:lvgl/src/lv_draw/../lv_core/../lv_font/../lv_misc/lv_mem.h ****         *d8 = *s8;
 3978              		.loc 3 218 10 view .LVU1470
 3979 0cce 002B     		cmp	r3, #0
 3980 0cd0 F8D1     		bne	.L152
 3981              		.loc 3 225 5 is_stmt 1 view .LVU1471
 3982              	.LVL413:
 3983              		.loc 3 225 5 is_stmt 0 view .LVU1472
 3984              	.LBE375:
 3985              	.LBE376:
 3986              	.LBE378:
 968:lvgl/src/lv_draw/lv_draw_rect.c ****         for(y = 0; y < h; y++) {
 3987              		.loc 1 968 9 is_stmt 1 view .LVU1473
 968:lvgl/src/lv_draw/lv_draw_rect.c ****         for(y = 0; y < h; y++) {
 3988              		.loc 1 968 19 is_stmt 0 view .LVU1474
 3989 0cd2 BDF94630 		ldrsh	r3, [sp, #70]
 968:lvgl/src/lv_draw/lv_draw_rect.c ****         for(y = 0; y < h; y++) {
 3990              		.loc 1 968 15 view .LVU1475
 3991 0cd6 ADF84A30 		strh	r3, [sp, #74]	@ movhi
 969:lvgl/src/lv_draw/lv_draw_rect.c ****             _lv_memset(mask_buf, dsc->shadow_opa, w);
 3992              		.loc 1 969 9 is_stmt 1 view .LVU1476
 3993              	.LVL414:
 969:lvgl/src/lv_draw/lv_draw_rect.c ****             _lv_memset(mask_buf, dsc->shadow_opa, w);
 3994              		.loc 1 969 15 is_stmt 0 view .LVU1477
 3995 0cda 0024     		movs	r4, #0
 3996 0cdc DDF81480 		ldr	r8, [sp, #20]
 969:lvgl/src/lv_draw/lv_draw_rect.c ****             _lv_memset(mask_buf, dsc->shadow_opa, w);
 3997              		.loc 1 969 9 view .LVU1478
 3998 0ce0 16E0     		b	.L153
 3999              	.LVL415:
 4000              	.L154:
 974:lvgl/src/lv_draw/lv_draw_rect.c ****                            mask_res, LV_OPA_COVER, dsc->shadow_blend_mode);
 4001              		.loc 1 974 13 is_stmt 1 discriminator 2 view .LVU1479
 4002 0ce2 95F82B30 		ldrb	r3, [r5, #43]	@ zero_extendqisi2
 4003 0ce6 0293     		str	r3, [sp, #8]
 4004 0ce8 FF23     		movs	r3, #255
 4005 0cea 0193     		str	r3, [sp, #4]
 4006 0cec 0090     		str	r0, [sp]
 4007 0cee 4346     		mov	r3, r8
 4008 0cf0 2A8C     		ldrh	r2, [r5, #32]
 4009 0cf2 11A9     		add	r1, sp, #68
 4010 0cf4 0698     		ldr	r0, [sp, #24]
 4011              	.LVL416:
 974:lvgl/src/lv_draw/lv_draw_rect.c ****                            mask_res, LV_OPA_COVER, dsc->shadow_blend_mode);
 4012              		.loc 1 974 13 is_stmt 0 discriminator 2 view .LVU1480
 4013 0cf6 FFF7FEFF 		bl	_lv_blend_fill
 4014              	.LVL417:
 976:lvgl/src/lv_draw/lv_draw_rect.c ****             fa.y2++;
 4015              		.loc 1 976 13 is_stmt 1 discriminator 2 view .LVU1481
 976:lvgl/src/lv_draw/lv_draw_rect.c ****             fa.y2++;
 4016              		.loc 1 976 15 is_stmt 0 discriminator 2 view .LVU1482
 4017 0cfa BDF94630 		ldrsh	r3, [sp, #70]
 976:lvgl/src/lv_draw/lv_draw_rect.c ****             fa.y2++;
 4018              		.loc 1 976 18 discriminator 2 view .LVU1483
 4019 0cfe 0133     		adds	r3, r3, #1
 4020 0d00 ADF84630 		strh	r3, [sp, #70]	@ movhi
 977:lvgl/src/lv_draw/lv_draw_rect.c ****         }
 4021              		.loc 1 977 13 is_stmt 1 discriminator 2 view .LVU1484
ARM GAS  D:\Temp\ccGEpo4V.s 			page 120


 977:lvgl/src/lv_draw/lv_draw_rect.c ****         }
 4022              		.loc 1 977 15 is_stmt 0 discriminator 2 view .LVU1485
 4023 0d04 BDF94A30 		ldrsh	r3, [sp, #74]
 977:lvgl/src/lv_draw/lv_draw_rect.c ****         }
 4024              		.loc 1 977 18 discriminator 2 view .LVU1486
 4025 0d08 0133     		adds	r3, r3, #1
 4026 0d0a ADF84A30 		strh	r3, [sp, #74]	@ movhi
 969:lvgl/src/lv_draw/lv_draw_rect.c ****             _lv_memset(mask_buf, dsc->shadow_opa, w);
 4027              		.loc 1 969 28 discriminator 2 view .LVU1487
 4028 0d0e 0134     		adds	r4, r4, #1
 4029              	.LVL418:
 4030              	.L153:
 969:lvgl/src/lv_draw/lv_draw_rect.c ****             _lv_memset(mask_buf, dsc->shadow_opa, w);
 4031              		.loc 1 969 9 discriminator 1 view .LVU1488
 4032 0d10 A742     		cmp	r7, r4
 4033 0d12 7FF733AD 		ble	.L150
 970:lvgl/src/lv_draw/lv_draw_rect.c ****             mask_res = lv_draw_mask_apply(mask_buf, fa.x1, fa.y1, w);
 4034              		.loc 1 970 13 is_stmt 1 view .LVU1489
 4035 0d16 3246     		mov	r2, r6
 4036 0d18 95F82A10 		ldrb	r1, [r5, #42]	@ zero_extendqisi2
 4037 0d1c 4046     		mov	r0, r8
 4038 0d1e FFF7FEFF 		bl	_lv_memset
 4039              	.LVL419:
 971:lvgl/src/lv_draw/lv_draw_rect.c ****             if(mask_res == LV_DRAW_MASK_RES_FULL_COVER) mask_res = LV_DRAW_MASK_RES_CHANGED;
 4040              		.loc 1 971 13 view .LVU1490
 971:lvgl/src/lv_draw/lv_draw_rect.c ****             if(mask_res == LV_DRAW_MASK_RES_FULL_COVER) mask_res = LV_DRAW_MASK_RES_CHANGED;
 4041              		.loc 1 971 24 is_stmt 0 view .LVU1491
 4042 0d22 3346     		mov	r3, r6
 4043 0d24 BDF94620 		ldrsh	r2, [sp, #70]
 4044 0d28 BDF94410 		ldrsh	r1, [sp, #68]
 4045 0d2c 4046     		mov	r0, r8
 4046 0d2e FFF7FEFF 		bl	lv_draw_mask_apply
 4047              	.LVL420:
 972:lvgl/src/lv_draw/lv_draw_rect.c **** 
 4048              		.loc 1 972 13 is_stmt 1 view .LVU1492
 972:lvgl/src/lv_draw/lv_draw_rect.c **** 
 4049              		.loc 1 972 15 is_stmt 0 view .LVU1493
 4050 0d32 0128     		cmp	r0, #1
 4051 0d34 D5D1     		bne	.L154
 972:lvgl/src/lv_draw/lv_draw_rect.c **** 
 4052              		.loc 1 972 66 view .LVU1494
 4053 0d36 0220     		movs	r0, #2
 4054              	.LVL421:
 972:lvgl/src/lv_draw/lv_draw_rect.c **** 
 4055              		.loc 1 972 66 view .LVU1495
 4056 0d38 D3E7     		b	.L154
 4057              	.LBE366:
 4058              		.cfi_endproc
 4059              	.LFE464:
 4061              		.section	.text.draw_full_border,"ax",%progbits
 4062              		.align	1
 4063              		.syntax unified
 4064              		.thumb
 4065              		.thumb_func
 4066              		.fpu fpv4-sp-d16
 4068              	draw_full_border:
 4069              	.LVL422:
ARM GAS  D:\Temp\ccGEpo4V.s 			page 121


 4070              	.LFB470:
1147:lvgl/src/lv_draw/lv_draw_rect.c **** 
1148:lvgl/src/lv_draw/lv_draw_rect.c **** #endif
1149:lvgl/src/lv_draw/lv_draw_rect.c **** 
1150:lvgl/src/lv_draw/lv_draw_rect.c **** #if LV_USE_OUTLINE
1151:lvgl/src/lv_draw/lv_draw_rect.c **** static void draw_outline(const lv_area_t * coords, const lv_area_t * clip, const lv_draw_rect_dsc_t
1152:lvgl/src/lv_draw/lv_draw_rect.c **** {
1153:lvgl/src/lv_draw/lv_draw_rect.c ****     if(dsc->outline_opa <= LV_OPA_MIN) return;
1154:lvgl/src/lv_draw/lv_draw_rect.c ****     if(dsc->outline_width == 0) return;
1155:lvgl/src/lv_draw/lv_draw_rect.c **** 
1156:lvgl/src/lv_draw/lv_draw_rect.c ****     lv_opa_t opa = dsc->outline_opa;
1157:lvgl/src/lv_draw/lv_draw_rect.c **** 
1158:lvgl/src/lv_draw/lv_draw_rect.c ****     if(opa > LV_OPA_MAX) opa = LV_OPA_COVER;
1159:lvgl/src/lv_draw/lv_draw_rect.c **** 
1160:lvgl/src/lv_draw/lv_draw_rect.c ****     /*Get the inner radius*/
1161:lvgl/src/lv_draw/lv_draw_rect.c ****     lv_area_t area_inner;
1162:lvgl/src/lv_draw/lv_draw_rect.c ****     lv_area_copy(&area_inner, coords);
1163:lvgl/src/lv_draw/lv_draw_rect.c ****     area_inner.x1 -= dsc->outline_pad;
1164:lvgl/src/lv_draw/lv_draw_rect.c ****     area_inner.y1 -= dsc->outline_pad;
1165:lvgl/src/lv_draw/lv_draw_rect.c ****     area_inner.x2 += dsc->outline_pad;
1166:lvgl/src/lv_draw/lv_draw_rect.c ****     area_inner.y2 += dsc->outline_pad;
1167:lvgl/src/lv_draw/lv_draw_rect.c **** 
1168:lvgl/src/lv_draw/lv_draw_rect.c ****     lv_area_t area_outer;
1169:lvgl/src/lv_draw/lv_draw_rect.c ****     lv_area_copy(&area_outer, &area_inner);
1170:lvgl/src/lv_draw/lv_draw_rect.c **** 
1171:lvgl/src/lv_draw/lv_draw_rect.c ****     area_outer.x1 -= dsc->outline_width;
1172:lvgl/src/lv_draw/lv_draw_rect.c ****     area_outer.x2 += dsc->outline_width;
1173:lvgl/src/lv_draw/lv_draw_rect.c ****     area_outer.y1 -= dsc->outline_width;
1174:lvgl/src/lv_draw/lv_draw_rect.c ****     area_outer.y2 += dsc->outline_width;
1175:lvgl/src/lv_draw/lv_draw_rect.c **** 
1176:lvgl/src/lv_draw/lv_draw_rect.c ****     draw_full_border(&area_inner, &area_outer, clip, dsc->radius, true, dsc->outline_color, dsc->ou
1177:lvgl/src/lv_draw/lv_draw_rect.c ****                      dsc->outline_blend_mode);
1178:lvgl/src/lv_draw/lv_draw_rect.c **** }
1179:lvgl/src/lv_draw/lv_draw_rect.c **** #endif
1180:lvgl/src/lv_draw/lv_draw_rect.c **** 
1181:lvgl/src/lv_draw/lv_draw_rect.c **** #if LV_USE_PATTERN
1182:lvgl/src/lv_draw/lv_draw_rect.c **** static void draw_pattern(const lv_area_t * coords, const lv_area_t * clip, const lv_draw_rect_dsc_t
1183:lvgl/src/lv_draw/lv_draw_rect.c **** {
1184:lvgl/src/lv_draw/lv_draw_rect.c ****     if(dsc->pattern_image == NULL) return;
1185:lvgl/src/lv_draw/lv_draw_rect.c ****     if(dsc->pattern_opa <= LV_OPA_MIN) return;
1186:lvgl/src/lv_draw/lv_draw_rect.c **** 
1187:lvgl/src/lv_draw/lv_draw_rect.c ****     lv_img_src_t src_type = lv_img_src_get_type(dsc->pattern_image);
1188:lvgl/src/lv_draw/lv_draw_rect.c **** 
1189:lvgl/src/lv_draw/lv_draw_rect.c ****     lv_draw_img_dsc_t img_dsc;
1190:lvgl/src/lv_draw/lv_draw_rect.c ****     lv_draw_label_dsc_t label_dsc;
1191:lvgl/src/lv_draw/lv_draw_rect.c ****     int32_t img_w;
1192:lvgl/src/lv_draw/lv_draw_rect.c ****     int32_t img_h;
1193:lvgl/src/lv_draw/lv_draw_rect.c **** 
1194:lvgl/src/lv_draw/lv_draw_rect.c ****     if(src_type == LV_IMG_SRC_FILE || src_type == LV_IMG_SRC_VARIABLE) {
1195:lvgl/src/lv_draw/lv_draw_rect.c ****         lv_img_header_t header;
1196:lvgl/src/lv_draw/lv_draw_rect.c ****         lv_res_t res = lv_img_decoder_get_info(dsc->pattern_image, &header);
1197:lvgl/src/lv_draw/lv_draw_rect.c ****         if(res != LV_RES_OK) {
1198:lvgl/src/lv_draw/lv_draw_rect.c ****             LV_LOG_WARN("draw_img: can't get image info");
1199:lvgl/src/lv_draw/lv_draw_rect.c ****             return;
1200:lvgl/src/lv_draw/lv_draw_rect.c ****         }
1201:lvgl/src/lv_draw/lv_draw_rect.c **** 
1202:lvgl/src/lv_draw/lv_draw_rect.c ****         img_w = header.w;
ARM GAS  D:\Temp\ccGEpo4V.s 			page 122


1203:lvgl/src/lv_draw/lv_draw_rect.c ****         img_h = header.h;
1204:lvgl/src/lv_draw/lv_draw_rect.c **** 
1205:lvgl/src/lv_draw/lv_draw_rect.c ****         lv_draw_img_dsc_init(&img_dsc);
1206:lvgl/src/lv_draw/lv_draw_rect.c ****         img_dsc.opa = dsc->pattern_opa;
1207:lvgl/src/lv_draw/lv_draw_rect.c ****         img_dsc.recolor_opa = dsc->pattern_recolor_opa;
1208:lvgl/src/lv_draw/lv_draw_rect.c ****         img_dsc.recolor = dsc->pattern_recolor;
1209:lvgl/src/lv_draw/lv_draw_rect.c ****     }
1210:lvgl/src/lv_draw/lv_draw_rect.c ****     else if(src_type == LV_IMG_SRC_SYMBOL) {
1211:lvgl/src/lv_draw/lv_draw_rect.c ****         lv_draw_label_dsc_init(&label_dsc);
1212:lvgl/src/lv_draw/lv_draw_rect.c ****         label_dsc.color = dsc->pattern_recolor;
1213:lvgl/src/lv_draw/lv_draw_rect.c ****         label_dsc.font = dsc->pattern_font;
1214:lvgl/src/lv_draw/lv_draw_rect.c ****         label_dsc.opa = dsc->pattern_opa;
1215:lvgl/src/lv_draw/lv_draw_rect.c ****         lv_point_t s;
1216:lvgl/src/lv_draw/lv_draw_rect.c ****         _lv_txt_get_size(&s, dsc->pattern_image, label_dsc.font, label_dsc.letter_space, label_dsc.
1217:lvgl/src/lv_draw/lv_draw_rect.c ****                          LV_TXT_FLAG_NONE);
1218:lvgl/src/lv_draw/lv_draw_rect.c ****         img_w = s.x;
1219:lvgl/src/lv_draw/lv_draw_rect.c ****         img_h = s.y;
1220:lvgl/src/lv_draw/lv_draw_rect.c **** 
1221:lvgl/src/lv_draw/lv_draw_rect.c ****     }
1222:lvgl/src/lv_draw/lv_draw_rect.c ****     else {
1223:lvgl/src/lv_draw/lv_draw_rect.c ****         /*Trigger the error handler of image drawer*/
1224:lvgl/src/lv_draw/lv_draw_rect.c ****         LV_LOG_WARN("lv_img_design: image source type is unknown");
1225:lvgl/src/lv_draw/lv_draw_rect.c ****         lv_draw_img(coords, clip, NULL, NULL);
1226:lvgl/src/lv_draw/lv_draw_rect.c ****         return;
1227:lvgl/src/lv_draw/lv_draw_rect.c ****     }
1228:lvgl/src/lv_draw/lv_draw_rect.c **** 
1229:lvgl/src/lv_draw/lv_draw_rect.c ****     /*Can't draw zero sized images*/
1230:lvgl/src/lv_draw/lv_draw_rect.c ****     if(img_w == 0 || img_h == 0) return;
1231:lvgl/src/lv_draw/lv_draw_rect.c **** 
1232:lvgl/src/lv_draw/lv_draw_rect.c ****     lv_area_t coords_tmp;
1233:lvgl/src/lv_draw/lv_draw_rect.c ****     lv_draw_mask_radius_param_t radius_mask_param;
1234:lvgl/src/lv_draw/lv_draw_rect.c **** 
1235:lvgl/src/lv_draw/lv_draw_rect.c ****     if(dsc->pattern_repeat) {
1236:lvgl/src/lv_draw/lv_draw_rect.c ****         lv_draw_mask_radius_init(&radius_mask_param, coords, dsc->radius, false);
1237:lvgl/src/lv_draw/lv_draw_rect.c ****         int16_t radius_mask_id = lv_draw_mask_add(&radius_mask_param, NULL);
1238:lvgl/src/lv_draw/lv_draw_rect.c **** 
1239:lvgl/src/lv_draw/lv_draw_rect.c ****         /*Align the pattern to the middle*/
1240:lvgl/src/lv_draw/lv_draw_rect.c ****         int32_t ofs_x = (lv_area_get_width(coords) - (lv_area_get_width(coords) / img_w) * img_w) /
1241:lvgl/src/lv_draw/lv_draw_rect.c ****         int32_t ofs_y = (lv_area_get_height(coords) - (lv_area_get_height(coords) / img_h) * img_h)
1242:lvgl/src/lv_draw/lv_draw_rect.c **** 
1243:lvgl/src/lv_draw/lv_draw_rect.c ****         coords_tmp.y1 = coords->y1 - ofs_y;
1244:lvgl/src/lv_draw/lv_draw_rect.c ****         coords_tmp.y2 = coords_tmp.y1 + img_h - 1;
1245:lvgl/src/lv_draw/lv_draw_rect.c ****         for(; coords_tmp.y1 <= coords->y2; coords_tmp.y1 += img_h, coords_tmp.y2 += img_h) {
1246:lvgl/src/lv_draw/lv_draw_rect.c ****             coords_tmp.x1 = coords->x1 - ofs_x;
1247:lvgl/src/lv_draw/lv_draw_rect.c ****             coords_tmp.x2 = coords_tmp.x1 + img_w - 1;
1248:lvgl/src/lv_draw/lv_draw_rect.c ****             for(; coords_tmp.x1 <= coords->x2; coords_tmp.x1 += img_w, coords_tmp.x2 += img_w) {
1249:lvgl/src/lv_draw/lv_draw_rect.c ****                 if(src_type == LV_IMG_SRC_SYMBOL)  lv_draw_label(&coords_tmp, clip, &label_dsc, dsc
1250:lvgl/src/lv_draw/lv_draw_rect.c ****                 else lv_draw_img(&coords_tmp, clip, dsc->pattern_image, &img_dsc);
1251:lvgl/src/lv_draw/lv_draw_rect.c ****             }
1252:lvgl/src/lv_draw/lv_draw_rect.c ****         }
1253:lvgl/src/lv_draw/lv_draw_rect.c ****         lv_draw_mask_remove_id(radius_mask_id);
1254:lvgl/src/lv_draw/lv_draw_rect.c ****     }
1255:lvgl/src/lv_draw/lv_draw_rect.c ****     else {
1256:lvgl/src/lv_draw/lv_draw_rect.c ****         int32_t obj_w = lv_area_get_width(coords);
1257:lvgl/src/lv_draw/lv_draw_rect.c ****         int32_t obj_h = lv_area_get_height(coords);
1258:lvgl/src/lv_draw/lv_draw_rect.c ****         coords_tmp.x1 = coords->x1 + (obj_w - img_w) / 2;
1259:lvgl/src/lv_draw/lv_draw_rect.c ****         coords_tmp.y1 = coords->y1 + (obj_h - img_h) / 2;
ARM GAS  D:\Temp\ccGEpo4V.s 			page 123


1260:lvgl/src/lv_draw/lv_draw_rect.c ****         coords_tmp.x2 = coords_tmp.x1 + img_w - 1;
1261:lvgl/src/lv_draw/lv_draw_rect.c ****         coords_tmp.y2 = coords_tmp.y1 + img_h - 1;
1262:lvgl/src/lv_draw/lv_draw_rect.c **** 
1263:lvgl/src/lv_draw/lv_draw_rect.c ****         /* If the (obj_h - img_h) is odd there is a rounding error when divided by 2.
1264:lvgl/src/lv_draw/lv_draw_rect.c ****          * It's better round up in case of symbols because probably there is some extra space in th
1265:lvgl/src/lv_draw/lv_draw_rect.c ****          * due to the base line of font*/
1266:lvgl/src/lv_draw/lv_draw_rect.c ****         if(src_type == LV_IMG_SRC_SYMBOL) {
1267:lvgl/src/lv_draw/lv_draw_rect.c ****             int32_t y_corr = (obj_h - img_h) & 0x1;
1268:lvgl/src/lv_draw/lv_draw_rect.c ****             coords_tmp.y1 += y_corr;
1269:lvgl/src/lv_draw/lv_draw_rect.c ****             coords_tmp.y2 += y_corr;
1270:lvgl/src/lv_draw/lv_draw_rect.c ****         }
1271:lvgl/src/lv_draw/lv_draw_rect.c **** 
1272:lvgl/src/lv_draw/lv_draw_rect.c ****         int16_t radius_mask_id = LV_MASK_ID_INV;
1273:lvgl/src/lv_draw/lv_draw_rect.c ****         if(_lv_area_is_in(&coords_tmp, coords, dsc->radius) == false) {
1274:lvgl/src/lv_draw/lv_draw_rect.c ****             lv_draw_mask_radius_init(&radius_mask_param, coords, dsc->radius, false);
1275:lvgl/src/lv_draw/lv_draw_rect.c ****             radius_mask_id = lv_draw_mask_add(&radius_mask_param, NULL);
1276:lvgl/src/lv_draw/lv_draw_rect.c ****         }
1277:lvgl/src/lv_draw/lv_draw_rect.c **** 
1278:lvgl/src/lv_draw/lv_draw_rect.c ****         if(src_type == LV_IMG_SRC_SYMBOL)  lv_draw_label(&coords_tmp, clip, &label_dsc, dsc->patter
1279:lvgl/src/lv_draw/lv_draw_rect.c ****         else lv_draw_img(&coords_tmp, clip, dsc->pattern_image, &img_dsc);
1280:lvgl/src/lv_draw/lv_draw_rect.c **** 
1281:lvgl/src/lv_draw/lv_draw_rect.c ****         lv_draw_mask_remove_id(radius_mask_id);
1282:lvgl/src/lv_draw/lv_draw_rect.c ****     }
1283:lvgl/src/lv_draw/lv_draw_rect.c **** }
1284:lvgl/src/lv_draw/lv_draw_rect.c **** #endif
1285:lvgl/src/lv_draw/lv_draw_rect.c **** 
1286:lvgl/src/lv_draw/lv_draw_rect.c **** #if LV_USE_VALUE_STR
1287:lvgl/src/lv_draw/lv_draw_rect.c **** static void draw_value_str(const lv_area_t * coords, const lv_area_t * clip, const lv_draw_rect_dsc
1288:lvgl/src/lv_draw/lv_draw_rect.c **** {
1289:lvgl/src/lv_draw/lv_draw_rect.c ****     if(dsc->value_str == NULL) return;
1290:lvgl/src/lv_draw/lv_draw_rect.c ****     if(dsc->value_opa <= LV_OPA_MIN) return;
1291:lvgl/src/lv_draw/lv_draw_rect.c **** 
1292:lvgl/src/lv_draw/lv_draw_rect.c **** #if LV_USE_ARABIC_PERSIAN_CHARS == 0
1293:lvgl/src/lv_draw/lv_draw_rect.c ****     const char * str = dsc->value_str;
1294:lvgl/src/lv_draw/lv_draw_rect.c **** #else
1295:lvgl/src/lv_draw/lv_draw_rect.c ****     uint32_t str_len =  _lv_txt_ap_calc_bytes_cnt(dsc->value_str);
1296:lvgl/src/lv_draw/lv_draw_rect.c ****     char * str = _lv_mem_buf_get(str_len + 1);
1297:lvgl/src/lv_draw/lv_draw_rect.c ****     _lv_txt_ap_proc(dsc->value_str, str);
1298:lvgl/src/lv_draw/lv_draw_rect.c **** #endif
1299:lvgl/src/lv_draw/lv_draw_rect.c **** 
1300:lvgl/src/lv_draw/lv_draw_rect.c ****     lv_point_t s;
1301:lvgl/src/lv_draw/lv_draw_rect.c ****     _lv_txt_get_size(&s, str, dsc->value_font, dsc->value_letter_space, dsc->value_line_space, LV_C
1302:lvgl/src/lv_draw/lv_draw_rect.c ****                      LV_TXT_FLAG_NONE);
1303:lvgl/src/lv_draw/lv_draw_rect.c **** 
1304:lvgl/src/lv_draw/lv_draw_rect.c ****     lv_area_t value_area;
1305:lvgl/src/lv_draw/lv_draw_rect.c ****     value_area.x1 = 0;
1306:lvgl/src/lv_draw/lv_draw_rect.c ****     value_area.y1 = 0;
1307:lvgl/src/lv_draw/lv_draw_rect.c ****     value_area.x2 = s.x - 1;
1308:lvgl/src/lv_draw/lv_draw_rect.c ****     value_area.y2 = s.y - 1;
1309:lvgl/src/lv_draw/lv_draw_rect.c **** 
1310:lvgl/src/lv_draw/lv_draw_rect.c ****     lv_point_t p_align;
1311:lvgl/src/lv_draw/lv_draw_rect.c ****     _lv_area_align(coords, &value_area, dsc->value_align, &p_align);
1312:lvgl/src/lv_draw/lv_draw_rect.c **** 
1313:lvgl/src/lv_draw/lv_draw_rect.c ****     value_area.x1 += p_align.x + dsc->value_ofs_x;
1314:lvgl/src/lv_draw/lv_draw_rect.c ****     value_area.y1 += p_align.y + dsc->value_ofs_y;
1315:lvgl/src/lv_draw/lv_draw_rect.c ****     value_area.x2 += p_align.x + dsc->value_ofs_x;
1316:lvgl/src/lv_draw/lv_draw_rect.c ****     value_area.y2 += p_align.y + dsc->value_ofs_y;
ARM GAS  D:\Temp\ccGEpo4V.s 			page 124


1317:lvgl/src/lv_draw/lv_draw_rect.c **** 
1318:lvgl/src/lv_draw/lv_draw_rect.c ****     lv_draw_label_dsc_t label_dsc;
1319:lvgl/src/lv_draw/lv_draw_rect.c ****     lv_draw_label_dsc_init(&label_dsc);
1320:lvgl/src/lv_draw/lv_draw_rect.c ****     label_dsc.font = dsc->value_font;
1321:lvgl/src/lv_draw/lv_draw_rect.c ****     label_dsc.letter_space = dsc->value_letter_space;
1322:lvgl/src/lv_draw/lv_draw_rect.c ****     label_dsc.line_space = dsc->value_line_space;
1323:lvgl/src/lv_draw/lv_draw_rect.c ****     label_dsc.color = dsc->value_color;
1324:lvgl/src/lv_draw/lv_draw_rect.c ****     label_dsc.opa = dsc->value_opa;
1325:lvgl/src/lv_draw/lv_draw_rect.c **** 
1326:lvgl/src/lv_draw/lv_draw_rect.c ****     lv_draw_label(&value_area, clip, &label_dsc, str, NULL);
1327:lvgl/src/lv_draw/lv_draw_rect.c **** 
1328:lvgl/src/lv_draw/lv_draw_rect.c **** #if LV_USE_ARABIC_PERSIAN_CHARS
1329:lvgl/src/lv_draw/lv_draw_rect.c ****     _lv_mem_buf_release(str);
1330:lvgl/src/lv_draw/lv_draw_rect.c **** #endif
1331:lvgl/src/lv_draw/lv_draw_rect.c **** }
1332:lvgl/src/lv_draw/lv_draw_rect.c **** #endif
1333:lvgl/src/lv_draw/lv_draw_rect.c **** 
1334:lvgl/src/lv_draw/lv_draw_rect.c **** static void draw_full_border(const lv_area_t * area_inner, const lv_area_t * area_outer, const lv_a
1335:lvgl/src/lv_draw/lv_draw_rect.c ****                              lv_coord_t radius, bool radius_is_in, lv_color_t color, lv_opa_t opa, 
1336:lvgl/src/lv_draw/lv_draw_rect.c **** {
 4071              		.loc 1 1336 1 is_stmt 1 view -0
 4072              		.cfi_startproc
 4073              		@ args = 16, pretend = 0, frame = 128
 4074              		@ frame_needed = 0, uses_anonymous_args = 0
 4075              		.loc 1 1336 1 is_stmt 0 view .LVU1497
 4076 0000 2DE9F04F 		push	{r4, r5, r6, r7, r8, r9, r10, fp, lr}
 4077              	.LCFI10:
 4078              		.cfi_def_cfa_offset 36
 4079              		.cfi_offset 4, -36
 4080              		.cfi_offset 5, -32
 4081              		.cfi_offset 6, -28
 4082              		.cfi_offset 7, -24
 4083              		.cfi_offset 8, -20
 4084              		.cfi_offset 9, -16
 4085              		.cfi_offset 10, -12
 4086              		.cfi_offset 11, -8
 4087              		.cfi_offset 14, -4
 4088 0004 A5B0     		sub	sp, sp, #148
 4089              	.LCFI11:
 4090              		.cfi_def_cfa_offset 184
 4091 0006 8246     		mov	r10, r0
 4092 0008 0C46     		mov	r4, r1
 4093 000a 0492     		str	r2, [sp, #16]
 4094 000c 1E46     		mov	r6, r3
 4095 000e 9DF8B850 		ldrb	r5, [sp, #184]	@ zero_extendqisi2
 4096 0012 9DF8C070 		ldrb	r7, [sp, #192]	@ zero_extendqisi2
 4097 0016 9DF8C480 		ldrb	r8, [sp, #196]	@ zero_extendqisi2
1337:lvgl/src/lv_draw/lv_draw_rect.c ****     uint8_t other_mask_cnt = lv_draw_mask_get_cnt();
 4098              		.loc 1 1337 5 is_stmt 1 view .LVU1498
 4099              		.loc 1 1337 30 is_stmt 0 view .LVU1499
 4100 001a FFF7FEFF 		bl	lv_draw_mask_get_cnt
 4101              	.LVL423:
1338:lvgl/src/lv_draw/lv_draw_rect.c ****     bool simple_mode = true;
 4102              		.loc 1 1338 5 is_stmt 1 view .LVU1500
1339:lvgl/src/lv_draw/lv_draw_rect.c ****     if(other_mask_cnt) simple_mode = false;
 4103              		.loc 1 1339 5 view .LVU1501
 4104              		.loc 1 1339 7 is_stmt 0 view .LVU1502
ARM GAS  D:\Temp\ccGEpo4V.s 			page 125


 4105 001e 0028     		cmp	r0, #0
 4106 0020 40D1     		bne	.L223
1338:lvgl/src/lv_draw/lv_draw_rect.c ****     bool simple_mode = true;
 4107              		.loc 1 1338 10 view .LVU1503
 4108 0022 4FF0010B 		mov	fp, #1
 4109              	.L202:
 4110              	.LVL424:
1340:lvgl/src/lv_draw/lv_draw_rect.c **** 
1341:lvgl/src/lv_draw/lv_draw_rect.c ****     int32_t inner_w = lv_area_get_width(area_inner);
 4111              		.loc 1 1341 5 is_stmt 1 view .LVU1504
 4112              	.LBB379:
 4113              	.LBI379:
 107:lvgl/src/lv_draw/../lv_core/../lv_font/../lv_misc/lv_area.h **** {
 4114              		.loc 2 107 26 view .LVU1505
 4115              	.LBB380:
 109:lvgl/src/lv_draw/../lv_core/../lv_font/../lv_misc/lv_area.h **** }
 4116              		.loc 2 109 5 view .LVU1506
 109:lvgl/src/lv_draw/../lv_core/../lv_font/../lv_misc/lv_area.h **** }
 4117              		.loc 2 109 31 is_stmt 0 view .LVU1507
 4118 0026 BAF80410 		ldrh	r1, [r10, #4]
 4119 002a 0C91     		str	r1, [sp, #48]
 109:lvgl/src/lv_draw/../lv_core/../lv_font/../lv_misc/lv_area.h **** }
 4120              		.loc 2 109 44 view .LVU1508
 4121 002c BAF80020 		ldrh	r2, [r10]
 109:lvgl/src/lv_draw/../lv_core/../lv_font/../lv_misc/lv_area.h **** }
 4122              		.loc 2 109 36 view .LVU1509
 4123 0030 8A1A     		subs	r2, r1, r2
 4124 0032 92B2     		uxth	r2, r2
 109:lvgl/src/lv_draw/../lv_core/../lv_font/../lv_misc/lv_area.h **** }
 4125              		.loc 2 109 49 view .LVU1510
 4126 0034 0132     		adds	r2, r2, #1
 109:lvgl/src/lv_draw/../lv_core/../lv_font/../lv_misc/lv_area.h **** }
 4127              		.loc 2 109 12 view .LVU1511
 4128 0036 12B2     		sxth	r2, r2
 4129              	.LVL425:
 109:lvgl/src/lv_draw/../lv_core/../lv_font/../lv_misc/lv_area.h **** }
 4130              		.loc 2 109 12 view .LVU1512
 4131              	.LBE380:
 4132              	.LBE379:
1342:lvgl/src/lv_draw/lv_draw_rect.c ****     int32_t inner_h = lv_area_get_height(area_inner);
 4133              		.loc 1 1342 5 is_stmt 1 view .LVU1513
 4134              	.LBB381:
 4135              	.LBI381:
 117:lvgl/src/lv_draw/../lv_core/../lv_font/../lv_misc/lv_area.h **** {
 4136              		.loc 2 117 26 view .LVU1514
 4137              	.LBB382:
 4138              		.loc 2 119 5 view .LVU1515
 4139              		.loc 2 119 31 is_stmt 0 view .LVU1516
 4140 0038 BAF80600 		ldrh	r0, [r10, #6]
 4141              	.LVL426:
 4142              		.loc 2 119 44 view .LVU1517
 4143 003c BAF80230 		ldrh	r3, [r10, #2]
 4144              		.loc 2 119 36 view .LVU1518
 4145 0040 C01A     		subs	r0, r0, r3
 4146 0042 80B2     		uxth	r0, r0
 4147              		.loc 2 119 49 view .LVU1519
 4148 0044 0130     		adds	r0, r0, #1
ARM GAS  D:\Temp\ccGEpo4V.s 			page 126


 4149              		.loc 2 119 12 view .LVU1520
 4150 0046 00B2     		sxth	r0, r0
 4151              	.LVL427:
 4152              		.loc 2 119 12 view .LVU1521
 4153              	.LBE382:
 4154              	.LBE381:
1343:lvgl/src/lv_draw/lv_draw_rect.c ****     lv_coord_t border_width = area_outer->x2 - area_inner->x2;
 4155              		.loc 1 1343 5 is_stmt 1 view .LVU1522
 4156              		.loc 1 1343 41 is_stmt 0 view .LVU1523
 4157 0048 A388     		ldrh	r3, [r4, #4]
 4158              		.loc 1 1343 46 view .LVU1524
 4159 004a 0A93     		str	r3, [sp, #40]
 4160 004c 5B1A     		subs	r3, r3, r1
 4161 004e 99B2     		uxth	r1, r3
 4162 0050 0B91     		str	r1, [sp, #44]
 4163              		.loc 1 1343 16 view .LVU1525
 4164 0052 0FFA81F9 		sxth	r9, r1
 4165              	.LVL428:
1344:lvgl/src/lv_draw/lv_draw_rect.c **** 
1345:lvgl/src/lv_draw/lv_draw_rect.c ****     int32_t coords_out_w = lv_area_get_width(area_outer);
 4166              		.loc 1 1345 5 is_stmt 1 view .LVU1526
 4167              	.LBB383:
 4168              	.LBI383:
 107:lvgl/src/lv_draw/../lv_core/../lv_font/../lv_misc/lv_area.h **** {
 4169              		.loc 2 107 26 view .LVU1527
 4170              	.LBB384:
 109:lvgl/src/lv_draw/../lv_core/../lv_font/../lv_misc/lv_area.h **** }
 4171              		.loc 2 109 5 view .LVU1528
 109:lvgl/src/lv_draw/../lv_core/../lv_font/../lv_misc/lv_area.h **** }
 4172              		.loc 2 109 44 is_stmt 0 view .LVU1529
 4173 0056 2388     		ldrh	r3, [r4]
 109:lvgl/src/lv_draw/../lv_core/../lv_font/../lv_misc/lv_area.h **** }
 4174              		.loc 2 109 36 view .LVU1530
 4175 0058 0A99     		ldr	r1, [sp, #40]
 4176 005a CB1A     		subs	r3, r1, r3
 4177 005c 9BB2     		uxth	r3, r3
 109:lvgl/src/lv_draw/../lv_core/../lv_font/../lv_misc/lv_area.h **** }
 4178              		.loc 2 109 49 view .LVU1531
 4179 005e 0133     		adds	r3, r3, #1
 109:lvgl/src/lv_draw/../lv_core/../lv_font/../lv_misc/lv_area.h **** }
 4180              		.loc 2 109 12 view .LVU1532
 4181 0060 1BB2     		sxth	r3, r3
 4182              	.LVL429:
 109:lvgl/src/lv_draw/../lv_core/../lv_font/../lv_misc/lv_area.h **** }
 4183              		.loc 2 109 12 view .LVU1533
 4184              	.LBE384:
 4185              	.LBE383:
1346:lvgl/src/lv_draw/lv_draw_rect.c ****     int32_t coords_out_h = lv_area_get_height(area_outer);
 4186              		.loc 1 1346 5 is_stmt 1 view .LVU1534
 4187              	.LBB385:
 4188              	.LBI385:
 117:lvgl/src/lv_draw/../lv_core/../lv_font/../lv_misc/lv_area.h **** {
 4189              		.loc 2 117 26 view .LVU1535
 4190              	.LBB386:
 4191              		.loc 2 119 5 view .LVU1536
 4192              		.loc 2 119 31 is_stmt 0 view .LVU1537
 4193 0062 E188     		ldrh	r1, [r4, #6]
ARM GAS  D:\Temp\ccGEpo4V.s 			page 127


 4194              		.loc 2 119 44 view .LVU1538
 4195 0064 B4F802C0 		ldrh	ip, [r4, #2]
 4196              		.loc 2 119 36 view .LVU1539
 4197 0068 A1EB0C01 		sub	r1, r1, ip
 4198 006c 89B2     		uxth	r1, r1
 4199              		.loc 2 119 49 view .LVU1540
 4200 006e 0131     		adds	r1, r1, #1
 4201              		.loc 2 119 12 view .LVU1541
 4202 0070 09B2     		sxth	r1, r1
 4203              	.LVL430:
 4204              		.loc 2 119 12 view .LVU1542
 4205              	.LBE386:
 4206              	.LBE385:
1347:lvgl/src/lv_draw/lv_draw_rect.c **** 
1348:lvgl/src/lv_draw/lv_draw_rect.c ****     int32_t rin;
 4207              		.loc 1 1348 5 is_stmt 1 view .LVU1543
1349:lvgl/src/lv_draw/lv_draw_rect.c ****     int32_t rout;
 4208              		.loc 1 1349 5 view .LVU1544
1350:lvgl/src/lv_draw/lv_draw_rect.c ****     if(radius_is_in) {
 4209              		.loc 1 1350 5 view .LVU1545
 4210              		.loc 1 1350 7 is_stmt 0 view .LVU1546
 4211 0072 D5B1     		cbz	r5, .L203
 4212              	.LBB387:
1351:lvgl/src/lv_draw/lv_draw_rect.c ****         rin = radius;
 4213              		.loc 1 1351 9 is_stmt 1 view .LVU1547
 4214              	.LVL431:
1352:lvgl/src/lv_draw/lv_draw_rect.c ****         int32_t short_side = LV_MATH_MIN(inner_w, inner_h);
 4215              		.loc 1 1352 9 view .LVU1548
 4216              		.loc 1 1352 17 is_stmt 0 view .LVU1549
 4217 0074 8242     		cmp	r2, r0
 4218 0076 A8BF     		it	ge
 4219 0078 0246     		movge	r2, r0
 4220              	.LVL432:
1353:lvgl/src/lv_draw/lv_draw_rect.c ****         if(rin > short_side >> 1) rin = short_side >> 1;
 4221              		.loc 1 1353 9 is_stmt 1 view .LVU1550
 4222              		.loc 1 1353 29 is_stmt 0 view .LVU1551
 4223 007a 5510     		asrs	r5, r2, #1
 4224              		.loc 1 1353 11 view .LVU1552
 4225 007c B542     		cmp	r5, r6
 4226 007e 00DB     		blt	.L204
1351:lvgl/src/lv_draw/lv_draw_rect.c ****         rin = radius;
 4227              		.loc 1 1351 13 view .LVU1553
 4228 0080 3546     		mov	r5, r6
 4229              	.L204:
 4230              	.LVL433:
1354:lvgl/src/lv_draw/lv_draw_rect.c **** 
1355:lvgl/src/lv_draw/lv_draw_rect.c ****         /*Get the outer area*/
1356:lvgl/src/lv_draw/lv_draw_rect.c ****         rout = rin + border_width;
 4231              		.loc 1 1356 9 is_stmt 1 view .LVU1554
 4232              		.loc 1 1356 14 is_stmt 0 view .LVU1555
 4233 0082 09EB0503 		add	r3, r9, r5
 4234              	.LVL434:
 4235              		.loc 1 1356 14 view .LVU1556
 4236 0086 0593     		str	r3, [sp, #20]
 4237              	.LVL435:
 4238              	.L205:
 4239              		.loc 1 1356 14 view .LVU1557
ARM GAS  D:\Temp\ccGEpo4V.s 			page 128


 4240              	.LBE387:
1357:lvgl/src/lv_draw/lv_draw_rect.c ****     }
1358:lvgl/src/lv_draw/lv_draw_rect.c ****     else {
1359:lvgl/src/lv_draw/lv_draw_rect.c ****         rout = radius;
1360:lvgl/src/lv_draw/lv_draw_rect.c ****         int32_t short_side = LV_MATH_MIN(coords_out_w, coords_out_h);
1361:lvgl/src/lv_draw/lv_draw_rect.c ****         if(rout > short_side >> 1) rout = short_side >> 1;
1362:lvgl/src/lv_draw/lv_draw_rect.c **** 
1363:lvgl/src/lv_draw/lv_draw_rect.c ****         /*Get the outer area*/
1364:lvgl/src/lv_draw/lv_draw_rect.c ****         rin = rout - border_width;
1365:lvgl/src/lv_draw/lv_draw_rect.c ****         if(rin < 0) rin = 0;
1366:lvgl/src/lv_draw/lv_draw_rect.c **** 
1367:lvgl/src/lv_draw/lv_draw_rect.c ****     }
1368:lvgl/src/lv_draw/lv_draw_rect.c **** 
1369:lvgl/src/lv_draw/lv_draw_rect.c ****     lv_disp_t * disp    = _lv_refr_get_disp_refreshing();
 4241              		.loc 1 1369 5 is_stmt 1 view .LVU1558
 4242              		.loc 1 1369 27 is_stmt 0 view .LVU1559
 4243 0088 FFF7FEFF 		bl	_lv_refr_get_disp_refreshing
 4244              	.LVL436:
1370:lvgl/src/lv_draw/lv_draw_rect.c ****     lv_disp_buf_t * vdb = lv_disp_get_buf(disp);
 4245              		.loc 1 1370 5 is_stmt 1 view .LVU1560
 4246              		.loc 1 1370 27 is_stmt 0 view .LVU1561
 4247 008c FFF7FEFF 		bl	lv_disp_get_buf
 4248              	.LVL437:
 4249              		.loc 1 1370 27 view .LVU1562
 4250 0090 0646     		mov	r6, r0
 4251              	.LVL438:
1371:lvgl/src/lv_draw/lv_draw_rect.c **** 
1372:lvgl/src/lv_draw/lv_draw_rect.c ****     /* Get clipped fill area which is the real draw area.
1373:lvgl/src/lv_draw/lv_draw_rect.c ****      * It is always the same or inside `fill_area` */
1374:lvgl/src/lv_draw/lv_draw_rect.c ****     lv_area_t draw_area;
 4252              		.loc 1 1374 5 is_stmt 1 view .LVU1563
1375:lvgl/src/lv_draw/lv_draw_rect.c ****     bool is_common;
 4253              		.loc 1 1375 5 view .LVU1564
1376:lvgl/src/lv_draw/lv_draw_rect.c ****     is_common = _lv_area_intersect(&draw_area, area_outer, clip);
 4254              		.loc 1 1376 5 view .LVU1565
 4255              		.loc 1 1376 17 is_stmt 0 view .LVU1566
 4256 0092 049A     		ldr	r2, [sp, #16]
 4257 0094 2146     		mov	r1, r4
 4258 0096 22A8     		add	r0, sp, #136
 4259              	.LVL439:
 4260              		.loc 1 1376 17 view .LVU1567
 4261 0098 FFF7FEFF 		bl	_lv_area_intersect
 4262              	.LVL440:
1377:lvgl/src/lv_draw/lv_draw_rect.c ****     if(is_common == false) return;
 4263              		.loc 1 1377 5 is_stmt 1 view .LVU1568
 4264              		.loc 1 1377 7 is_stmt 0 view .LVU1569
 4265 009c 98B9     		cbnz	r0, .L229
 4266              	.LVL441:
 4267              	.L201:
1378:lvgl/src/lv_draw/lv_draw_rect.c **** 
1379:lvgl/src/lv_draw/lv_draw_rect.c ****     const lv_area_t * disp_area = &vdb->area;
1380:lvgl/src/lv_draw/lv_draw_rect.c **** 
1381:lvgl/src/lv_draw/lv_draw_rect.c ****     /* Now `draw_area` has absolute coordinates.
1382:lvgl/src/lv_draw/lv_draw_rect.c ****      * Make it relative to `disp_area` to simplify draw to `disp_buf`*/
1383:lvgl/src/lv_draw/lv_draw_rect.c ****     draw_area.x1 -= disp_area->x1;
1384:lvgl/src/lv_draw/lv_draw_rect.c ****     draw_area.y1 -= disp_area->y1;
1385:lvgl/src/lv_draw/lv_draw_rect.c ****     draw_area.x2 -= disp_area->x1;
ARM GAS  D:\Temp\ccGEpo4V.s 			page 129


1386:lvgl/src/lv_draw/lv_draw_rect.c ****     draw_area.y2 -= disp_area->y1;
1387:lvgl/src/lv_draw/lv_draw_rect.c **** 
1388:lvgl/src/lv_draw/lv_draw_rect.c ****     int32_t draw_area_w = lv_area_get_width(&draw_area);
1389:lvgl/src/lv_draw/lv_draw_rect.c **** 
1390:lvgl/src/lv_draw/lv_draw_rect.c ****     /*Create inner the mask*/
1391:lvgl/src/lv_draw/lv_draw_rect.c ****     lv_draw_mask_radius_param_t mask_rin_param;
1392:lvgl/src/lv_draw/lv_draw_rect.c ****     lv_draw_mask_radius_init(&mask_rin_param, area_inner, rin, true);
1393:lvgl/src/lv_draw/lv_draw_rect.c ****     int16_t mask_rin_id = lv_draw_mask_add(&mask_rin_param, NULL);
1394:lvgl/src/lv_draw/lv_draw_rect.c **** 
1395:lvgl/src/lv_draw/lv_draw_rect.c ****     lv_draw_mask_radius_param_t mask_rout_param;
1396:lvgl/src/lv_draw/lv_draw_rect.c ****     lv_draw_mask_radius_init(&mask_rout_param, area_outer, rout, false);
1397:lvgl/src/lv_draw/lv_draw_rect.c ****     int16_t mask_rout_id = lv_draw_mask_add(&mask_rout_param, NULL);
1398:lvgl/src/lv_draw/lv_draw_rect.c **** 
1399:lvgl/src/lv_draw/lv_draw_rect.c ****     lv_opa_t * mask_buf = _lv_mem_buf_get(draw_area_w);
1400:lvgl/src/lv_draw/lv_draw_rect.c **** 
1401:lvgl/src/lv_draw/lv_draw_rect.c ****     int32_t corner_size = LV_MATH_MAX(rout, border_width - 1);
1402:lvgl/src/lv_draw/lv_draw_rect.c **** 
1403:lvgl/src/lv_draw/lv_draw_rect.c ****     int32_t h;
1404:lvgl/src/lv_draw/lv_draw_rect.c ****     lv_draw_mask_res_t mask_res;
1405:lvgl/src/lv_draw/lv_draw_rect.c ****     lv_area_t fill_area;
1406:lvgl/src/lv_draw/lv_draw_rect.c **** 
1407:lvgl/src/lv_draw/lv_draw_rect.c ****     /*Apply some optimization if there is no other mask*/
1408:lvgl/src/lv_draw/lv_draw_rect.c ****     if(simple_mode) {
1409:lvgl/src/lv_draw/lv_draw_rect.c ****         /*Draw the upper corner area*/
1410:lvgl/src/lv_draw/lv_draw_rect.c ****         int32_t upper_corner_end = area_outer->y1 - disp_area->y1 + corner_size;
1411:lvgl/src/lv_draw/lv_draw_rect.c **** 
1412:lvgl/src/lv_draw/lv_draw_rect.c ****         fill_area.x1 = area_outer->x1;
1413:lvgl/src/lv_draw/lv_draw_rect.c ****         fill_area.x2 = area_outer->x2;
1414:lvgl/src/lv_draw/lv_draw_rect.c ****         fill_area.y1 = disp_area->y1 + draw_area.y1;
1415:lvgl/src/lv_draw/lv_draw_rect.c ****         fill_area.y2 = fill_area.y1;
1416:lvgl/src/lv_draw/lv_draw_rect.c ****         for(h = draw_area.y1; h <= upper_corner_end; h++) {
1417:lvgl/src/lv_draw/lv_draw_rect.c ****             _lv_memset_ff(mask_buf, draw_area_w);
1418:lvgl/src/lv_draw/lv_draw_rect.c ****             mask_res = lv_draw_mask_apply(mask_buf, vdb->area.x1 + draw_area.x1, vdb->area.y1 + h, 
1419:lvgl/src/lv_draw/lv_draw_rect.c **** 
1420:lvgl/src/lv_draw/lv_draw_rect.c ****             lv_area_t fill_area2;
1421:lvgl/src/lv_draw/lv_draw_rect.c ****             fill_area2.y1 = fill_area.y1;
1422:lvgl/src/lv_draw/lv_draw_rect.c ****             fill_area2.y2 = fill_area.y2;
1423:lvgl/src/lv_draw/lv_draw_rect.c **** 
1424:lvgl/src/lv_draw/lv_draw_rect.c ****             fill_area2.x1 = area_outer->x1;
1425:lvgl/src/lv_draw/lv_draw_rect.c ****             fill_area2.x2 = area_outer->x1 + rout - 1;
1426:lvgl/src/lv_draw/lv_draw_rect.c **** 
1427:lvgl/src/lv_draw/lv_draw_rect.c ****             _lv_blend_fill(clip, &fill_area2, color, mask_buf, mask_res, opa, blend_mode);
1428:lvgl/src/lv_draw/lv_draw_rect.c **** 
1429:lvgl/src/lv_draw/lv_draw_rect.c ****             /*Draw the top horizontal line*/
1430:lvgl/src/lv_draw/lv_draw_rect.c ****             if(fill_area2.y2 < area_outer->y1 + border_width) {
1431:lvgl/src/lv_draw/lv_draw_rect.c ****                 fill_area2.x1 = area_outer->x1 + rout;
1432:lvgl/src/lv_draw/lv_draw_rect.c ****                 fill_area2.x2 = area_outer->x2 - rout;
1433:lvgl/src/lv_draw/lv_draw_rect.c **** 
1434:lvgl/src/lv_draw/lv_draw_rect.c ****                 _lv_blend_fill(clip, &fill_area2, color, NULL, LV_DRAW_MASK_RES_FULL_COVER, opa, bl
1435:lvgl/src/lv_draw/lv_draw_rect.c ****             }
1436:lvgl/src/lv_draw/lv_draw_rect.c **** 
1437:lvgl/src/lv_draw/lv_draw_rect.c ****             fill_area2.x1 = area_outer->x2 - rout + 1;
1438:lvgl/src/lv_draw/lv_draw_rect.c ****             fill_area2.x2 = area_outer->x2;
1439:lvgl/src/lv_draw/lv_draw_rect.c **** 
1440:lvgl/src/lv_draw/lv_draw_rect.c ****             int32_t mask_ofs = (area_outer->x2 - rout + 1) - (vdb->area.x1 + draw_area.x1);
1441:lvgl/src/lv_draw/lv_draw_rect.c ****             if(mask_ofs < 0) mask_ofs = 0;
1442:lvgl/src/lv_draw/lv_draw_rect.c ****             _lv_blend_fill(clip, &fill_area2, color, mask_buf + mask_ofs, mask_res, opa, blend_mode
ARM GAS  D:\Temp\ccGEpo4V.s 			page 130


1443:lvgl/src/lv_draw/lv_draw_rect.c **** 
1444:lvgl/src/lv_draw/lv_draw_rect.c ****             fill_area.y1++;
1445:lvgl/src/lv_draw/lv_draw_rect.c ****             fill_area.y2++;
1446:lvgl/src/lv_draw/lv_draw_rect.c ****         }
1447:lvgl/src/lv_draw/lv_draw_rect.c **** 
1448:lvgl/src/lv_draw/lv_draw_rect.c ****         /*Draw the lower corner area */
1449:lvgl/src/lv_draw/lv_draw_rect.c ****         int32_t lower_corner_end = area_outer->y2 - disp_area->y1 - corner_size;
1450:lvgl/src/lv_draw/lv_draw_rect.c ****         if(lower_corner_end <= upper_corner_end) lower_corner_end = upper_corner_end + 1;
1451:lvgl/src/lv_draw/lv_draw_rect.c ****         fill_area.y1 = disp_area->y1 + lower_corner_end;
1452:lvgl/src/lv_draw/lv_draw_rect.c ****         fill_area.y2 = fill_area.y1;
1453:lvgl/src/lv_draw/lv_draw_rect.c ****         for(h = lower_corner_end; h <= draw_area.y2; h++) {
1454:lvgl/src/lv_draw/lv_draw_rect.c ****             _lv_memset_ff(mask_buf, draw_area_w);
1455:lvgl/src/lv_draw/lv_draw_rect.c ****             mask_res = lv_draw_mask_apply(mask_buf, vdb->area.x1 + draw_area.x1, vdb->area.y1 + h, 
1456:lvgl/src/lv_draw/lv_draw_rect.c **** 
1457:lvgl/src/lv_draw/lv_draw_rect.c ****             lv_area_t fill_area2;
1458:lvgl/src/lv_draw/lv_draw_rect.c ****             fill_area2.x1 = area_outer->x1;
1459:lvgl/src/lv_draw/lv_draw_rect.c ****             fill_area2.x2 = area_outer->x1 + rout - 1;
1460:lvgl/src/lv_draw/lv_draw_rect.c ****             fill_area2.y1 = fill_area.y1;
1461:lvgl/src/lv_draw/lv_draw_rect.c ****             fill_area2.y2 = fill_area.y2;
1462:lvgl/src/lv_draw/lv_draw_rect.c **** 
1463:lvgl/src/lv_draw/lv_draw_rect.c ****             _lv_blend_fill(clip, &fill_area2, color, mask_buf, mask_res, opa, blend_mode);
1464:lvgl/src/lv_draw/lv_draw_rect.c **** 
1465:lvgl/src/lv_draw/lv_draw_rect.c ****             /*Draw the bottom horizontal line*/
1466:lvgl/src/lv_draw/lv_draw_rect.c ****             if(fill_area2.y2 > area_outer->y2 - border_width) {
1467:lvgl/src/lv_draw/lv_draw_rect.c ****                 fill_area2.x1 = area_outer->x1 + rout;
1468:lvgl/src/lv_draw/lv_draw_rect.c ****                 fill_area2.x2 = area_outer->x2 - rout;
1469:lvgl/src/lv_draw/lv_draw_rect.c **** 
1470:lvgl/src/lv_draw/lv_draw_rect.c ****                 _lv_blend_fill(clip, &fill_area2, color, NULL, LV_DRAW_MASK_RES_FULL_COVER, opa, bl
1471:lvgl/src/lv_draw/lv_draw_rect.c ****             }
1472:lvgl/src/lv_draw/lv_draw_rect.c ****             fill_area2.x1 = area_outer->x2 - rout + 1;
1473:lvgl/src/lv_draw/lv_draw_rect.c ****             fill_area2.x2 = area_outer->x2;
1474:lvgl/src/lv_draw/lv_draw_rect.c **** 
1475:lvgl/src/lv_draw/lv_draw_rect.c ****             int32_t mask_ofs = (area_outer->x2 - rout + 1) - (vdb->area.x1 + draw_area.x1);
1476:lvgl/src/lv_draw/lv_draw_rect.c ****             if(mask_ofs < 0) mask_ofs = 0;
1477:lvgl/src/lv_draw/lv_draw_rect.c ****             _lv_blend_fill(clip, &fill_area2, color, mask_buf + mask_ofs, mask_res, opa, blend_mode
1478:lvgl/src/lv_draw/lv_draw_rect.c **** 
1479:lvgl/src/lv_draw/lv_draw_rect.c ****             fill_area.y1++;
1480:lvgl/src/lv_draw/lv_draw_rect.c ****             fill_area.y2++;
1481:lvgl/src/lv_draw/lv_draw_rect.c ****         }
1482:lvgl/src/lv_draw/lv_draw_rect.c **** 
1483:lvgl/src/lv_draw/lv_draw_rect.c ****         /*Draw the left vertical part*/
1484:lvgl/src/lv_draw/lv_draw_rect.c ****         fill_area.y1 = area_outer->y1 + corner_size + 1;
1485:lvgl/src/lv_draw/lv_draw_rect.c ****         fill_area.y2 = area_outer->y2 - corner_size - 1;
1486:lvgl/src/lv_draw/lv_draw_rect.c **** 
1487:lvgl/src/lv_draw/lv_draw_rect.c ****         fill_area.x1 = area_outer->x1;
1488:lvgl/src/lv_draw/lv_draw_rect.c ****         fill_area.x2 = area_outer->x1 + border_width - 1;
1489:lvgl/src/lv_draw/lv_draw_rect.c ****         _lv_blend_fill(clip, &fill_area, color, NULL, LV_DRAW_MASK_RES_FULL_COVER, opa, blend_mode)
1490:lvgl/src/lv_draw/lv_draw_rect.c **** 
1491:lvgl/src/lv_draw/lv_draw_rect.c ****         /*Draw the right vertical border*/
1492:lvgl/src/lv_draw/lv_draw_rect.c ****         fill_area.x1 = area_outer->x2 - border_width + 1;
1493:lvgl/src/lv_draw/lv_draw_rect.c ****         fill_area.x2 = area_outer->x2;
1494:lvgl/src/lv_draw/lv_draw_rect.c **** 
1495:lvgl/src/lv_draw/lv_draw_rect.c ****         _lv_blend_fill(clip, &fill_area, color, NULL, LV_DRAW_MASK_RES_FULL_COVER, opa, blend_mode)
1496:lvgl/src/lv_draw/lv_draw_rect.c ****     }
1497:lvgl/src/lv_draw/lv_draw_rect.c ****     /*Process line by line if there is other mask too*/
1498:lvgl/src/lv_draw/lv_draw_rect.c ****     else {
1499:lvgl/src/lv_draw/lv_draw_rect.c ****         fill_area.x1 = area_outer->x1;
ARM GAS  D:\Temp\ccGEpo4V.s 			page 131


1500:lvgl/src/lv_draw/lv_draw_rect.c ****         fill_area.x2 = area_outer->x2;
1501:lvgl/src/lv_draw/lv_draw_rect.c ****         fill_area.y1 = disp_area->y1 + draw_area.y1;
1502:lvgl/src/lv_draw/lv_draw_rect.c ****         fill_area.y2 = fill_area.y1;
1503:lvgl/src/lv_draw/lv_draw_rect.c **** 
1504:lvgl/src/lv_draw/lv_draw_rect.c ****         for(h = draw_area.y1; h <= draw_area.y2; h++) {
1505:lvgl/src/lv_draw/lv_draw_rect.c ****             _lv_memset_ff(mask_buf, draw_area_w);
1506:lvgl/src/lv_draw/lv_draw_rect.c ****             mask_res = lv_draw_mask_apply(mask_buf, vdb->area.x1 + draw_area.x1, vdb->area.y1 + h, 
1507:lvgl/src/lv_draw/lv_draw_rect.c **** 
1508:lvgl/src/lv_draw/lv_draw_rect.c ****             _lv_blend_fill(clip, &fill_area, color, mask_buf, mask_res, opa, blend_mode);
1509:lvgl/src/lv_draw/lv_draw_rect.c ****             fill_area.y1++;
1510:lvgl/src/lv_draw/lv_draw_rect.c ****             fill_area.y2++;
1511:lvgl/src/lv_draw/lv_draw_rect.c **** 
1512:lvgl/src/lv_draw/lv_draw_rect.c ****         }
1513:lvgl/src/lv_draw/lv_draw_rect.c ****     }
1514:lvgl/src/lv_draw/lv_draw_rect.c ****     lv_draw_mask_remove_id(mask_rin_id);
1515:lvgl/src/lv_draw/lv_draw_rect.c ****     lv_draw_mask_remove_id(mask_rout_id);
1516:lvgl/src/lv_draw/lv_draw_rect.c ****     _lv_mem_buf_release(mask_buf);
1517:lvgl/src/lv_draw/lv_draw_rect.c **** }
 4268              		.loc 1 1517 1 view .LVU1570
 4269 009e 25B0     		add	sp, sp, #148
 4270              	.LCFI12:
 4271              		.cfi_remember_state
 4272              		.cfi_def_cfa_offset 36
 4273              		@ sp needed
 4274 00a0 BDE8F08F 		pop	{r4, r5, r6, r7, r8, r9, r10, fp, pc}
 4275              	.LVL442:
 4276              	.L223:
 4277              	.LCFI13:
 4278              		.cfi_restore_state
1339:lvgl/src/lv_draw/lv_draw_rect.c **** 
 4279              		.loc 1 1339 36 view .LVU1571
 4280 00a4 4FF0000B 		mov	fp, #0
 4281 00a8 BDE7     		b	.L202
 4282              	.LVL443:
 4283              	.L203:
 4284              	.LBB388:
1359:lvgl/src/lv_draw/lv_draw_rect.c ****         int32_t short_side = LV_MATH_MIN(coords_out_w, coords_out_h);
 4285              		.loc 1 1359 9 is_stmt 1 view .LVU1572
1360:lvgl/src/lv_draw/lv_draw_rect.c ****         if(rout > short_side >> 1) rout = short_side >> 1;
 4286              		.loc 1 1360 9 view .LVU1573
1360:lvgl/src/lv_draw/lv_draw_rect.c ****         if(rout > short_side >> 1) rout = short_side >> 1;
 4287              		.loc 1 1360 17 is_stmt 0 view .LVU1574
 4288 00aa 9942     		cmp	r1, r3
 4289 00ac A8BF     		it	ge
 4290 00ae 1946     		movge	r1, r3
 4291              	.LVL444:
1361:lvgl/src/lv_draw/lv_draw_rect.c **** 
 4292              		.loc 1 1361 9 is_stmt 1 view .LVU1575
1361:lvgl/src/lv_draw/lv_draw_rect.c **** 
 4293              		.loc 1 1361 30 is_stmt 0 view .LVU1576
 4294 00b0 4B10     		asrs	r3, r1, #1
 4295              	.LVL445:
1361:lvgl/src/lv_draw/lv_draw_rect.c **** 
 4296              		.loc 1 1361 30 view .LVU1577
 4297 00b2 0593     		str	r3, [sp, #20]
1361:lvgl/src/lv_draw/lv_draw_rect.c **** 
 4298              		.loc 1 1361 11 view .LVU1578
ARM GAS  D:\Temp\ccGEpo4V.s 			page 132


 4299 00b4 B342     		cmp	r3, r6
 4300 00b6 00DB     		blt	.L206
1359:lvgl/src/lv_draw/lv_draw_rect.c ****         int32_t short_side = LV_MATH_MIN(coords_out_w, coords_out_h);
 4301              		.loc 1 1359 14 view .LVU1579
 4302 00b8 0596     		str	r6, [sp, #20]
 4303              	.L206:
 4304              	.LVL446:
1364:lvgl/src/lv_draw/lv_draw_rect.c ****         if(rin < 0) rin = 0;
 4305              		.loc 1 1364 9 is_stmt 1 view .LVU1580
1365:lvgl/src/lv_draw/lv_draw_rect.c **** 
 4306              		.loc 1 1365 9 view .LVU1581
1365:lvgl/src/lv_draw/lv_draw_rect.c **** 
 4307              		.loc 1 1365 11 is_stmt 0 view .LVU1582
 4308 00ba 059B     		ldr	r3, [sp, #20]
 4309 00bc B3EB0905 		subs	r5, r3, r9
 4310              	.LVL447:
1365:lvgl/src/lv_draw/lv_draw_rect.c **** 
 4311              		.loc 1 1365 11 view .LVU1583
 4312 00c0 E2D5     		bpl	.L205
1365:lvgl/src/lv_draw/lv_draw_rect.c **** 
 4313              		.loc 1 1365 25 view .LVU1584
 4314 00c2 0025     		movs	r5, #0
 4315              	.LVL448:
1365:lvgl/src/lv_draw/lv_draw_rect.c **** 
 4316              		.loc 1 1365 25 view .LVU1585
 4317 00c4 E0E7     		b	.L205
 4318              	.LVL449:
 4319              	.L229:
1365:lvgl/src/lv_draw/lv_draw_rect.c **** 
 4320              		.loc 1 1365 25 view .LVU1586
 4321              	.LBE388:
1379:lvgl/src/lv_draw/lv_draw_rect.c **** 
 4322              		.loc 1 1379 5 is_stmt 1 view .LVU1587
1383:lvgl/src/lv_draw/lv_draw_rect.c ****     draw_area.y1 -= disp_area->y1;
 4323              		.loc 1 1383 5 view .LVU1588
1383:lvgl/src/lv_draw/lv_draw_rect.c ****     draw_area.y1 -= disp_area->y1;
 4324              		.loc 1 1383 30 is_stmt 0 view .LVU1589
 4325 00c6 B6F810C0 		ldrh	ip, [r6, #16]
1383:lvgl/src/lv_draw/lv_draw_rect.c ****     draw_area.y1 -= disp_area->y1;
 4326              		.loc 1 1383 18 view .LVU1590
 4327 00ca BDF88830 		ldrh	r3, [sp, #136]
 4328 00ce A3EB0C03 		sub	r3, r3, ip
 4329 00d2 9AB2     		uxth	r2, r3
 4330 00d4 ADF88820 		strh	r2, [sp, #136]	@ movhi
1384:lvgl/src/lv_draw/lv_draw_rect.c ****     draw_area.x2 -= disp_area->x1;
 4331              		.loc 1 1384 5 is_stmt 1 view .LVU1591
1384:lvgl/src/lv_draw/lv_draw_rect.c ****     draw_area.x2 -= disp_area->x1;
 4332              		.loc 1 1384 30 is_stmt 0 view .LVU1592
 4333 00d8 708A     		ldrh	r0, [r6, #18]
 4334              	.LVL450:
1384:lvgl/src/lv_draw/lv_draw_rect.c ****     draw_area.x2 -= disp_area->x1;
 4335              		.loc 1 1384 18 view .LVU1593
 4336 00da BDF88A10 		ldrh	r1, [sp, #138]
 4337 00de 091A     		subs	r1, r1, r0
 4338 00e0 ADF88A10 		strh	r1, [sp, #138]	@ movhi
1385:lvgl/src/lv_draw/lv_draw_rect.c ****     draw_area.y2 -= disp_area->y1;
 4339              		.loc 1 1385 5 is_stmt 1 view .LVU1594
ARM GAS  D:\Temp\ccGEpo4V.s 			page 133


1385:lvgl/src/lv_draw/lv_draw_rect.c ****     draw_area.y2 -= disp_area->y1;
 4340              		.loc 1 1385 18 is_stmt 0 view .LVU1595
 4341 00e4 BDF88C30 		ldrh	r3, [sp, #140]
 4342 00e8 A3EB0C03 		sub	r3, r3, ip
 4343 00ec 9BB2     		uxth	r3, r3
 4344 00ee ADF88C30 		strh	r3, [sp, #140]	@ movhi
1386:lvgl/src/lv_draw/lv_draw_rect.c **** 
 4345              		.loc 1 1386 5 is_stmt 1 view .LVU1596
1386:lvgl/src/lv_draw/lv_draw_rect.c **** 
 4346              		.loc 1 1386 18 is_stmt 0 view .LVU1597
 4347 00f2 BDF88E10 		ldrh	r1, [sp, #142]
 4348 00f6 091A     		subs	r1, r1, r0
 4349 00f8 ADF88E10 		strh	r1, [sp, #142]	@ movhi
1388:lvgl/src/lv_draw/lv_draw_rect.c **** 
 4350              		.loc 1 1388 5 is_stmt 1 view .LVU1598
 4351              	.LVL451:
 4352              	.LBB389:
 4353              	.LBI389:
 107:lvgl/src/lv_draw/../lv_core/../lv_font/../lv_misc/lv_area.h **** {
 4354              		.loc 2 107 26 view .LVU1599
 4355              	.LBB390:
 109:lvgl/src/lv_draw/../lv_core/../lv_font/../lv_misc/lv_area.h **** }
 4356              		.loc 2 109 5 view .LVU1600
 109:lvgl/src/lv_draw/../lv_core/../lv_font/../lv_misc/lv_area.h **** }
 4357              		.loc 2 109 36 is_stmt 0 view .LVU1601
 4358 00fc 9B1A     		subs	r3, r3, r2
 4359 00fe 9BB2     		uxth	r3, r3
 109:lvgl/src/lv_draw/../lv_core/../lv_font/../lv_misc/lv_area.h **** }
 4360              		.loc 2 109 49 view .LVU1602
 4361 0100 0133     		adds	r3, r3, #1
 109:lvgl/src/lv_draw/../lv_core/../lv_font/../lv_misc/lv_area.h **** }
 4362              		.loc 2 109 12 view .LVU1603
 4363 0102 18B2     		sxth	r0, r3
 4364 0104 0690     		str	r0, [sp, #24]
 4365              	.LVL452:
 109:lvgl/src/lv_draw/../lv_core/../lv_font/../lv_misc/lv_area.h **** }
 4366              		.loc 2 109 12 view .LVU1604
 4367              	.LBE390:
 4368              	.LBE389:
1391:lvgl/src/lv_draw/lv_draw_rect.c ****     lv_draw_mask_radius_init(&mask_rin_param, area_inner, rin, true);
 4369              		.loc 1 1391 5 is_stmt 1 view .LVU1605
1392:lvgl/src/lv_draw/lv_draw_rect.c ****     int16_t mask_rin_id = lv_draw_mask_add(&mask_rin_param, NULL);
 4370              		.loc 1 1392 5 view .LVU1606
 4371 0106 0123     		movs	r3, #1
 4372 0108 2AB2     		sxth	r2, r5
 4373 010a 5146     		mov	r1, r10
 4374 010c 1BAD     		add	r5, sp, #108
 4375              	.LVL453:
1392:lvgl/src/lv_draw/lv_draw_rect.c ****     int16_t mask_rin_id = lv_draw_mask_add(&mask_rin_param, NULL);
 4376              		.loc 1 1392 5 is_stmt 0 view .LVU1607
 4377 010e 2846     		mov	r0, r5
 4378 0110 FFF7FEFF 		bl	lv_draw_mask_radius_init
 4379              	.LVL454:
1393:lvgl/src/lv_draw/lv_draw_rect.c **** 
 4380              		.loc 1 1393 5 is_stmt 1 view .LVU1608
1393:lvgl/src/lv_draw/lv_draw_rect.c **** 
 4381              		.loc 1 1393 27 is_stmt 0 view .LVU1609
ARM GAS  D:\Temp\ccGEpo4V.s 			page 134


 4382 0114 0021     		movs	r1, #0
 4383 0116 1BAB     		add	r3, sp, #108
 4384 0118 1846     		mov	r0, r3
 4385 011a FFF7FEFF 		bl	lv_draw_mask_add
 4386              	.LVL455:
 4387 011e 0E90     		str	r0, [sp, #56]
 4388              	.LVL456:
1395:lvgl/src/lv_draw/lv_draw_rect.c ****     lv_draw_mask_radius_init(&mask_rout_param, area_outer, rout, false);
 4389              		.loc 1 1395 5 is_stmt 1 view .LVU1610
1396:lvgl/src/lv_draw/lv_draw_rect.c ****     int16_t mask_rout_id = lv_draw_mask_add(&mask_rout_param, NULL);
 4390              		.loc 1 1396 5 view .LVU1611
 4391 0120 0023     		movs	r3, #0
 4392 0122 DDF814A0 		ldr	r10, [sp, #20]
 4393              	.LVL457:
1396:lvgl/src/lv_draw/lv_draw_rect.c ****     int16_t mask_rout_id = lv_draw_mask_add(&mask_rout_param, NULL);
 4394              		.loc 1 1396 5 is_stmt 0 view .LVU1612
 4395 0126 0FFA8AF2 		sxth	r2, r10
 4396 012a 2146     		mov	r1, r4
 4397 012c 14AD     		add	r5, sp, #80
 4398 012e 2846     		mov	r0, r5
 4399 0130 FFF7FEFF 		bl	lv_draw_mask_radius_init
 4400              	.LVL458:
1397:lvgl/src/lv_draw/lv_draw_rect.c **** 
 4401              		.loc 1 1397 5 is_stmt 1 view .LVU1613
1397:lvgl/src/lv_draw/lv_draw_rect.c **** 
 4402              		.loc 1 1397 28 is_stmt 0 view .LVU1614
 4403 0134 0021     		movs	r1, #0
 4404 0136 14AB     		add	r3, sp, #80
 4405 0138 1846     		mov	r0, r3
 4406 013a FFF7FEFF 		bl	lv_draw_mask_add
 4407              	.LVL459:
 4408 013e 0F90     		str	r0, [sp, #60]
 4409              	.LVL460:
1399:lvgl/src/lv_draw/lv_draw_rect.c **** 
 4410              		.loc 1 1399 5 is_stmt 1 view .LVU1615
1399:lvgl/src/lv_draw/lv_draw_rect.c **** 
 4411              		.loc 1 1399 27 is_stmt 0 view .LVU1616
 4412 0140 0698     		ldr	r0, [sp, #24]
 4413 0142 0790     		str	r0, [sp, #28]
 4414 0144 FFF7FEFF 		bl	_lv_mem_buf_get
 4415              	.LVL461:
 4416 0148 0546     		mov	r5, r0
 4417              	.LVL462:
1401:lvgl/src/lv_draw/lv_draw_rect.c **** 
 4418              		.loc 1 1401 5 is_stmt 1 view .LVU1617
1401:lvgl/src/lv_draw/lv_draw_rect.c **** 
 4419              		.loc 1 1401 27 is_stmt 0 view .LVU1618
 4420 014a CDF82090 		str	r9, [sp, #32]
 4421 014e D145     		cmp	r9, r10
 4422 0150 23DD     		ble	.L225
1401:lvgl/src/lv_draw/lv_draw_rect.c **** 
 4423              		.loc 1 1401 27 discriminator 1 view .LVU1619
 4424 0152 09F1FF33 		add	r3, r9, #-1
 4425 0156 0D93     		str	r3, [sp, #52]
 4426              	.L209:
 4427              	.LVL463:
1403:lvgl/src/lv_draw/lv_draw_rect.c ****     lv_draw_mask_res_t mask_res;
ARM GAS  D:\Temp\ccGEpo4V.s 			page 135


 4428              		.loc 1 1403 5 is_stmt 1 discriminator 4 view .LVU1620
1404:lvgl/src/lv_draw/lv_draw_rect.c ****     lv_area_t fill_area;
 4429              		.loc 1 1404 5 discriminator 4 view .LVU1621
1405:lvgl/src/lv_draw/lv_draw_rect.c **** 
 4430              		.loc 1 1405 5 discriminator 4 view .LVU1622
1408:lvgl/src/lv_draw/lv_draw_rect.c ****         /*Draw the upper corner area*/
 4431              		.loc 1 1408 5 discriminator 4 view .LVU1623
1408:lvgl/src/lv_draw/lv_draw_rect.c ****         /*Draw the upper corner area*/
 4432              		.loc 1 1408 7 is_stmt 0 discriminator 4 view .LVU1624
 4433 0158 BBF1000F 		cmp	fp, #0
 4434 015c 00F08D81 		beq	.L210
 4435              	.LBB391:
1410:lvgl/src/lv_draw/lv_draw_rect.c **** 
 4436              		.loc 1 1410 9 is_stmt 1 view .LVU1625
1410:lvgl/src/lv_draw/lv_draw_rect.c **** 
 4437              		.loc 1 1410 46 is_stmt 0 view .LVU1626
 4438 0160 B4F90220 		ldrsh	r2, [r4, #2]
1410:lvgl/src/lv_draw/lv_draw_rect.c **** 
 4439              		.loc 1 1410 62 view .LVU1627
 4440 0164 B6F91230 		ldrsh	r3, [r6, #18]
1410:lvgl/src/lv_draw/lv_draw_rect.c **** 
 4441              		.loc 1 1410 51 view .LVU1628
 4442 0168 D21A     		subs	r2, r2, r3
1410:lvgl/src/lv_draw/lv_draw_rect.c **** 
 4443              		.loc 1 1410 17 view .LVU1629
 4444 016a 0D99     		ldr	r1, [sp, #52]
 4445 016c 0A44     		add	r2, r2, r1
 4446 016e 0992     		str	r2, [sp, #36]
 4447              	.LVL464:
1412:lvgl/src/lv_draw/lv_draw_rect.c ****         fill_area.x2 = area_outer->x2;
 4448              		.loc 1 1412 9 is_stmt 1 view .LVU1630
1412:lvgl/src/lv_draw/lv_draw_rect.c ****         fill_area.x2 = area_outer->x2;
 4449              		.loc 1 1412 34 is_stmt 0 view .LVU1631
 4450 0170 B4F90020 		ldrsh	r2, [r4]
 4451              	.LVL465:
1412:lvgl/src/lv_draw/lv_draw_rect.c ****         fill_area.x2 = area_outer->x2;
 4452              		.loc 1 1412 22 view .LVU1632
 4453 0174 ADF84820 		strh	r2, [sp, #72]	@ movhi
1413:lvgl/src/lv_draw/lv_draw_rect.c ****         fill_area.y1 = disp_area->y1 + draw_area.y1;
 4454              		.loc 1 1413 9 is_stmt 1 view .LVU1633
1413:lvgl/src/lv_draw/lv_draw_rect.c ****         fill_area.y1 = disp_area->y1 + draw_area.y1;
 4455              		.loc 1 1413 34 is_stmt 0 view .LVU1634
 4456 0178 B4F90420 		ldrsh	r2, [r4, #4]
1413:lvgl/src/lv_draw/lv_draw_rect.c ****         fill_area.y1 = disp_area->y1 + draw_area.y1;
 4457              		.loc 1 1413 22 view .LVU1635
 4458 017c ADF84C20 		strh	r2, [sp, #76]	@ movhi
1414:lvgl/src/lv_draw/lv_draw_rect.c ****         fill_area.y2 = fill_area.y1;
 4459              		.loc 1 1414 9 is_stmt 1 view .LVU1636
1414:lvgl/src/lv_draw/lv_draw_rect.c ****         fill_area.y2 = fill_area.y1;
 4460              		.loc 1 1414 49 is_stmt 0 view .LVU1637
 4461 0180 BDF98A90 		ldrsh	r9, [sp, #138]
 4462              	.LVL466:
1414:lvgl/src/lv_draw/lv_draw_rect.c ****         fill_area.y2 = fill_area.y1;
 4463              		.loc 1 1414 49 view .LVU1638
 4464 0184 1FFA89F2 		uxth	r2, r9
1414:lvgl/src/lv_draw/lv_draw_rect.c ****         fill_area.y2 = fill_area.y1;
 4465              		.loc 1 1414 38 view .LVU1639
ARM GAS  D:\Temp\ccGEpo4V.s 			page 136


 4466 0188 12FA83F3 		uxtah	r3, r2, r3
 4467 018c 1BB2     		sxth	r3, r3
1414:lvgl/src/lv_draw/lv_draw_rect.c ****         fill_area.y2 = fill_area.y1;
 4468              		.loc 1 1414 22 view .LVU1640
 4469 018e ADF84A30 		strh	r3, [sp, #74]	@ movhi
1415:lvgl/src/lv_draw/lv_draw_rect.c ****         for(h = draw_area.y1; h <= upper_corner_end; h++) {
 4470              		.loc 1 1415 9 is_stmt 1 view .LVU1641
1415:lvgl/src/lv_draw/lv_draw_rect.c ****         for(h = draw_area.y1; h <= upper_corner_end; h++) {
 4471              		.loc 1 1415 22 is_stmt 0 view .LVU1642
 4472 0192 ADF84E30 		strh	r3, [sp, #78]	@ movhi
1416:lvgl/src/lv_draw/lv_draw_rect.c ****             _lv_memset_ff(mask_buf, draw_area_w);
 4473              		.loc 1 1416 9 is_stmt 1 view .LVU1643
 4474              	.LVL467:
1416:lvgl/src/lv_draw/lv_draw_rect.c ****             _lv_memset_ff(mask_buf, draw_area_w);
 4475              		.loc 1 1416 9 is_stmt 0 view .LVU1644
 4476 0196 BB46     		mov	fp, r7
 4477              	.LVL468:
1416:lvgl/src/lv_draw/lv_draw_rect.c ****             _lv_memset_ff(mask_buf, draw_area_w);
 4478              		.loc 1 1416 9 view .LVU1645
 4479 0198 31E0     		b	.L211
 4480              	.LVL469:
 4481              	.L225:
1416:lvgl/src/lv_draw/lv_draw_rect.c ****             _lv_memset_ff(mask_buf, draw_area_w);
 4482              		.loc 1 1416 9 view .LVU1646
 4483              	.LBE391:
1401:lvgl/src/lv_draw/lv_draw_rect.c **** 
 4484              		.loc 1 1401 27 view .LVU1647
 4485 019a 059B     		ldr	r3, [sp, #20]
 4486 019c 0D93     		str	r3, [sp, #52]
 4487 019e DBE7     		b	.L209
 4488              	.LVL470:
 4489              	.L231:
 4490              	.LBB396:
 4491              	.LBB392:
1431:lvgl/src/lv_draw/lv_draw_rect.c ****                 fill_area2.x2 = area_outer->x2 - rout;
 4492              		.loc 1 1431 17 is_stmt 1 view .LVU1648
1431:lvgl/src/lv_draw/lv_draw_rect.c ****                 fill_area2.x2 = area_outer->x2 - rout;
 4493              		.loc 1 1431 43 is_stmt 0 view .LVU1649
 4494 01a0 2388     		ldrh	r3, [r4]
1431:lvgl/src/lv_draw/lv_draw_rect.c ****                 fill_area2.x2 = area_outer->x2 - rout;
 4495              		.loc 1 1431 48 view .LVU1650
 4496 01a2 5344     		add	r3, r3, r10
1431:lvgl/src/lv_draw/lv_draw_rect.c ****                 fill_area2.x2 = area_outer->x2 - rout;
 4497              		.loc 1 1431 31 view .LVU1651
 4498 01a4 ADF84030 		strh	r3, [sp, #64]	@ movhi
1432:lvgl/src/lv_draw/lv_draw_rect.c **** 
 4499              		.loc 1 1432 17 is_stmt 1 view .LVU1652
1432:lvgl/src/lv_draw/lv_draw_rect.c **** 
 4500              		.loc 1 1432 43 is_stmt 0 view .LVU1653
 4501 01a8 A388     		ldrh	r3, [r4, #4]
1432:lvgl/src/lv_draw/lv_draw_rect.c **** 
 4502              		.loc 1 1432 48 view .LVU1654
 4503 01aa A3EB0A03 		sub	r3, r3, r10
1432:lvgl/src/lv_draw/lv_draw_rect.c **** 
 4504              		.loc 1 1432 31 view .LVU1655
 4505 01ae ADF84430 		strh	r3, [sp, #68]	@ movhi
1434:lvgl/src/lv_draw/lv_draw_rect.c ****             }
ARM GAS  D:\Temp\ccGEpo4V.s 			page 137


 4506              		.loc 1 1434 17 is_stmt 1 view .LVU1656
 4507 01b2 CDF80880 		str	r8, [sp, #8]
 4508 01b6 CDF804B0 		str	fp, [sp, #4]
 4509 01ba 0123     		movs	r3, #1
 4510 01bc 0093     		str	r3, [sp]
 4511 01be 0023     		movs	r3, #0
 4512 01c0 BDF8BC20 		ldrh	r2, [sp, #188]
 4513 01c4 10A9     		add	r1, sp, #64
 4514 01c6 0498     		ldr	r0, [sp, #16]
 4515 01c8 FFF7FEFF 		bl	_lv_blend_fill
 4516              	.LVL471:
 4517 01cc 53E0     		b	.L212
 4518              	.LVL472:
 4519              	.L213:
1442:lvgl/src/lv_draw/lv_draw_rect.c **** 
 4520              		.loc 1 1442 13 discriminator 2 view .LVU1657
 4521 01ce CDF80880 		str	r8, [sp, #8]
 4522 01d2 CDF804B0 		str	fp, [sp, #4]
 4523 01d6 0097     		str	r7, [sp]
 4524 01d8 2B44     		add	r3, r3, r5
 4525              	.LVL473:
1442:lvgl/src/lv_draw/lv_draw_rect.c **** 
 4526              		.loc 1 1442 13 is_stmt 0 discriminator 2 view .LVU1658
 4527 01da BDF8BC20 		ldrh	r2, [sp, #188]
 4528 01de 10A9     		add	r1, sp, #64
 4529 01e0 0498     		ldr	r0, [sp, #16]
 4530 01e2 FFF7FEFF 		bl	_lv_blend_fill
 4531              	.LVL474:
1444:lvgl/src/lv_draw/lv_draw_rect.c ****             fill_area.y2++;
 4532              		.loc 1 1444 13 is_stmt 1 discriminator 2 view .LVU1659
1444:lvgl/src/lv_draw/lv_draw_rect.c ****             fill_area.y2++;
 4533              		.loc 1 1444 22 is_stmt 0 discriminator 2 view .LVU1660
 4534 01e6 BDF94A30 		ldrsh	r3, [sp, #74]
1444:lvgl/src/lv_draw/lv_draw_rect.c ****             fill_area.y2++;
 4535              		.loc 1 1444 25 discriminator 2 view .LVU1661
 4536 01ea 0133     		adds	r3, r3, #1
 4537 01ec ADF84A30 		strh	r3, [sp, #74]	@ movhi
1445:lvgl/src/lv_draw/lv_draw_rect.c ****         }
 4538              		.loc 1 1445 13 is_stmt 1 discriminator 2 view .LVU1662
1445:lvgl/src/lv_draw/lv_draw_rect.c ****         }
 4539              		.loc 1 1445 22 is_stmt 0 discriminator 2 view .LVU1663
 4540 01f0 BDF94E30 		ldrsh	r3, [sp, #78]
1445:lvgl/src/lv_draw/lv_draw_rect.c ****         }
 4541              		.loc 1 1445 25 discriminator 2 view .LVU1664
 4542 01f4 0133     		adds	r3, r3, #1
 4543 01f6 ADF84E30 		strh	r3, [sp, #78]	@ movhi
 4544              	.LBE392:
1416:lvgl/src/lv_draw/lv_draw_rect.c ****             _lv_memset_ff(mask_buf, draw_area_w);
 4545              		.loc 1 1416 55 discriminator 2 view .LVU1665
 4546 01fa 09F10109 		add	r9, r9, #1
 4547              	.LVL475:
 4548              	.L211:
1416:lvgl/src/lv_draw/lv_draw_rect.c ****             _lv_memset_ff(mask_buf, draw_area_w);
 4549              		.loc 1 1416 9 discriminator 1 view .LVU1666
 4550 01fe 099B     		ldr	r3, [sp, #36]
 4551 0200 9945     		cmp	r9, r3
 4552 0202 51DC     		bgt	.L230
ARM GAS  D:\Temp\ccGEpo4V.s 			page 138


 4553              	.LBB393:
1417:lvgl/src/lv_draw/lv_draw_rect.c ****             mask_res = lv_draw_mask_apply(mask_buf, vdb->area.x1 + draw_area.x1, vdb->area.y1 + h, 
 4554              		.loc 1 1417 13 is_stmt 1 view .LVU1667
 4555 0204 0799     		ldr	r1, [sp, #28]
 4556 0206 2846     		mov	r0, r5
 4557 0208 FFF7FEFF 		bl	_lv_memset_ff
 4558              	.LVL476:
1418:lvgl/src/lv_draw/lv_draw_rect.c **** 
 4559              		.loc 1 1418 13 view .LVU1668
1418:lvgl/src/lv_draw/lv_draw_rect.c **** 
 4560              		.loc 1 1418 62 is_stmt 0 view .LVU1669
 4561 020c 318A     		ldrh	r1, [r6, #16]
1418:lvgl/src/lv_draw/lv_draw_rect.c **** 
 4562              		.loc 1 1418 77 view .LVU1670
 4563 020e BDF88830 		ldrh	r3, [sp, #136]
1418:lvgl/src/lv_draw/lv_draw_rect.c **** 
 4564              		.loc 1 1418 66 view .LVU1671
 4565 0212 1944     		add	r1, r1, r3
1418:lvgl/src/lv_draw/lv_draw_rect.c **** 
 4566              		.loc 1 1418 91 view .LVU1672
 4567 0214 728A     		ldrh	r2, [r6, #18]
1418:lvgl/src/lv_draw/lv_draw_rect.c **** 
 4568              		.loc 1 1418 95 view .LVU1673
 4569 0216 4A44     		add	r2, r2, r9
1418:lvgl/src/lv_draw/lv_draw_rect.c **** 
 4570              		.loc 1 1418 24 view .LVU1674
 4571 0218 069B     		ldr	r3, [sp, #24]
 4572 021a 12B2     		sxth	r2, r2
 4573 021c 09B2     		sxth	r1, r1
 4574 021e 2846     		mov	r0, r5
 4575 0220 FFF7FEFF 		bl	lv_draw_mask_apply
 4576              	.LVL477:
 4577 0224 0746     		mov	r7, r0
 4578              	.LVL478:
1420:lvgl/src/lv_draw/lv_draw_rect.c ****             fill_area2.y1 = fill_area.y1;
 4579              		.loc 1 1420 13 is_stmt 1 view .LVU1675
1421:lvgl/src/lv_draw/lv_draw_rect.c ****             fill_area2.y2 = fill_area.y2;
 4580              		.loc 1 1421 13 view .LVU1676
1421:lvgl/src/lv_draw/lv_draw_rect.c ****             fill_area2.y2 = fill_area.y2;
 4581              		.loc 1 1421 38 is_stmt 0 view .LVU1677
 4582 0226 BDF94A30 		ldrsh	r3, [sp, #74]
1421:lvgl/src/lv_draw/lv_draw_rect.c ****             fill_area2.y2 = fill_area.y2;
 4583              		.loc 1 1421 27 view .LVU1678
 4584 022a ADF84230 		strh	r3, [sp, #66]	@ movhi
1422:lvgl/src/lv_draw/lv_draw_rect.c **** 
 4585              		.loc 1 1422 13 is_stmt 1 view .LVU1679
1422:lvgl/src/lv_draw/lv_draw_rect.c **** 
 4586              		.loc 1 1422 38 is_stmt 0 view .LVU1680
 4587 022e BDF94E30 		ldrsh	r3, [sp, #78]
1422:lvgl/src/lv_draw/lv_draw_rect.c **** 
 4588              		.loc 1 1422 27 view .LVU1681
 4589 0232 ADF84630 		strh	r3, [sp, #70]	@ movhi
1424:lvgl/src/lv_draw/lv_draw_rect.c ****             fill_area2.x2 = area_outer->x1 + rout - 1;
 4590              		.loc 1 1424 13 is_stmt 1 view .LVU1682
1424:lvgl/src/lv_draw/lv_draw_rect.c ****             fill_area2.x2 = area_outer->x1 + rout - 1;
 4591              		.loc 1 1424 39 is_stmt 0 view .LVU1683
 4592 0236 B4F90030 		ldrsh	r3, [r4]
ARM GAS  D:\Temp\ccGEpo4V.s 			page 139


1424:lvgl/src/lv_draw/lv_draw_rect.c ****             fill_area2.x2 = area_outer->x1 + rout - 1;
 4593              		.loc 1 1424 27 view .LVU1684
 4594 023a ADF84030 		strh	r3, [sp, #64]	@ movhi
1425:lvgl/src/lv_draw/lv_draw_rect.c **** 
 4595              		.loc 1 1425 13 is_stmt 1 view .LVU1685
1425:lvgl/src/lv_draw/lv_draw_rect.c **** 
 4596              		.loc 1 1425 44 is_stmt 0 view .LVU1686
 4597 023e BDF814A0 		ldrh	r10, [sp, #20]
 4598 0242 1AFA83F3 		uxtah	r3, r10, r3
 4599 0246 9BB2     		uxth	r3, r3
1425:lvgl/src/lv_draw/lv_draw_rect.c **** 
 4600              		.loc 1 1425 51 view .LVU1687
 4601 0248 013B     		subs	r3, r3, #1
1425:lvgl/src/lv_draw/lv_draw_rect.c **** 
 4602              		.loc 1 1425 27 view .LVU1688
 4603 024a ADF84430 		strh	r3, [sp, #68]	@ movhi
1427:lvgl/src/lv_draw/lv_draw_rect.c **** 
 4604              		.loc 1 1427 13 is_stmt 1 view .LVU1689
 4605 024e CDF80880 		str	r8, [sp, #8]
 4606 0252 CDF804B0 		str	fp, [sp, #4]
 4607 0256 0090     		str	r0, [sp]
 4608 0258 2B46     		mov	r3, r5
 4609 025a BDF8BC20 		ldrh	r2, [sp, #188]
 4610 025e 10A9     		add	r1, sp, #64
 4611 0260 0498     		ldr	r0, [sp, #16]
 4612              	.LVL479:
1427:lvgl/src/lv_draw/lv_draw_rect.c **** 
 4613              		.loc 1 1427 13 is_stmt 0 view .LVU1690
 4614 0262 FFF7FEFF 		bl	_lv_blend_fill
 4615              	.LVL480:
1430:lvgl/src/lv_draw/lv_draw_rect.c ****                 fill_area2.x1 = area_outer->x1 + rout;
 4616              		.loc 1 1430 13 is_stmt 1 view .LVU1691
1430:lvgl/src/lv_draw/lv_draw_rect.c ****                 fill_area2.x1 = area_outer->x1 + rout;
 4617              		.loc 1 1430 26 is_stmt 0 view .LVU1692
 4618 0266 BDF94620 		ldrsh	r2, [sp, #70]
1430:lvgl/src/lv_draw/lv_draw_rect.c ****                 fill_area2.x1 = area_outer->x1 + rout;
 4619              		.loc 1 1430 42 view .LVU1693
 4620 026a B4F90230 		ldrsh	r3, [r4, #2]
1430:lvgl/src/lv_draw/lv_draw_rect.c ****                 fill_area2.x1 = area_outer->x1 + rout;
 4621              		.loc 1 1430 47 view .LVU1694
 4622 026e 0899     		ldr	r1, [sp, #32]
 4623 0270 0B44     		add	r3, r3, r1
1430:lvgl/src/lv_draw/lv_draw_rect.c ****                 fill_area2.x1 = area_outer->x1 + rout;
 4624              		.loc 1 1430 15 view .LVU1695
 4625 0272 9A42     		cmp	r2, r3
 4626 0274 94DB     		blt	.L231
 4627              	.L212:
1437:lvgl/src/lv_draw/lv_draw_rect.c ****             fill_area2.x2 = area_outer->x2;
 4628              		.loc 1 1437 13 is_stmt 1 view .LVU1696
1437:lvgl/src/lv_draw/lv_draw_rect.c ****             fill_area2.x2 = area_outer->x2;
 4629              		.loc 1 1437 39 is_stmt 0 view .LVU1697
 4630 0276 B4F90430 		ldrsh	r3, [r4, #4]
 4631 027a 9AB2     		uxth	r2, r3
1437:lvgl/src/lv_draw/lv_draw_rect.c ****             fill_area2.x2 = area_outer->x2;
 4632              		.loc 1 1437 44 view .LVU1698
 4633 027c A2EB0A0A 		sub	r10, r2, r10
 4634 0280 1FFA8AFA 		uxth	r10, r10
ARM GAS  D:\Temp\ccGEpo4V.s 			page 140


1437:lvgl/src/lv_draw/lv_draw_rect.c ****             fill_area2.x2 = area_outer->x2;
 4635              		.loc 1 1437 51 view .LVU1699
 4636 0284 0AF1010A 		add	r10, r10, #1
1437:lvgl/src/lv_draw/lv_draw_rect.c ****             fill_area2.x2 = area_outer->x2;
 4637              		.loc 1 1437 27 view .LVU1700
 4638 0288 ADF840A0 		strh	r10, [sp, #64]	@ movhi
1438:lvgl/src/lv_draw/lv_draw_rect.c **** 
 4639              		.loc 1 1438 13 is_stmt 1 view .LVU1701
1438:lvgl/src/lv_draw/lv_draw_rect.c **** 
 4640              		.loc 1 1438 27 is_stmt 0 view .LVU1702
 4641 028c ADF84430 		strh	r3, [sp, #68]	@ movhi
1440:lvgl/src/lv_draw/lv_draw_rect.c ****             if(mask_ofs < 0) mask_ofs = 0;
 4642              		.loc 1 1440 13 is_stmt 1 view .LVU1703
1440:lvgl/src/lv_draw/lv_draw_rect.c ****             if(mask_ofs < 0) mask_ofs = 0;
 4643              		.loc 1 1440 48 is_stmt 0 view .LVU1704
 4644 0290 059A     		ldr	r2, [sp, #20]
 4645 0292 9B1A     		subs	r3, r3, r2
1440:lvgl/src/lv_draw/lv_draw_rect.c ****             if(mask_ofs < 0) mask_ofs = 0;
 4646              		.loc 1 1440 55 view .LVU1705
 4647 0294 0133     		adds	r3, r3, #1
1440:lvgl/src/lv_draw/lv_draw_rect.c ****             if(mask_ofs < 0) mask_ofs = 0;
 4648              		.loc 1 1440 72 view .LVU1706
 4649 0296 B6F91020 		ldrsh	r2, [r6, #16]
1440:lvgl/src/lv_draw/lv_draw_rect.c ****             if(mask_ofs < 0) mask_ofs = 0;
 4650              		.loc 1 1440 87 view .LVU1707
 4651 029a BDF98810 		ldrsh	r1, [sp, #136]
1440:lvgl/src/lv_draw/lv_draw_rect.c ****             if(mask_ofs < 0) mask_ofs = 0;
 4652              		.loc 1 1440 76 view .LVU1708
 4653 029e 0A44     		add	r2, r2, r1
 4654              	.LVL481:
1441:lvgl/src/lv_draw/lv_draw_rect.c ****             _lv_blend_fill(clip, &fill_area2, color, mask_buf + mask_ofs, mask_res, opa, blend_mode
 4655              		.loc 1 1441 13 is_stmt 1 view .LVU1709
1441:lvgl/src/lv_draw/lv_draw_rect.c ****             _lv_blend_fill(clip, &fill_area2, color, mask_buf + mask_ofs, mask_res, opa, blend_mode
 4656              		.loc 1 1441 15 is_stmt 0 view .LVU1710
 4657 02a0 9B1A     		subs	r3, r3, r2
 4658              	.LVL482:
1441:lvgl/src/lv_draw/lv_draw_rect.c ****             _lv_blend_fill(clip, &fill_area2, color, mask_buf + mask_ofs, mask_res, opa, blend_mode
 4659              		.loc 1 1441 15 view .LVU1711
 4660 02a2 94D5     		bpl	.L213
1441:lvgl/src/lv_draw/lv_draw_rect.c ****             _lv_blend_fill(clip, &fill_area2, color, mask_buf + mask_ofs, mask_res, opa, blend_mode
 4661              		.loc 1 1441 39 view .LVU1712
 4662 02a4 0023     		movs	r3, #0
 4663              	.LVL483:
1441:lvgl/src/lv_draw/lv_draw_rect.c ****             _lv_blend_fill(clip, &fill_area2, color, mask_buf + mask_ofs, mask_res, opa, blend_mode
 4664              		.loc 1 1441 39 view .LVU1713
 4665 02a6 92E7     		b	.L213
 4666              	.L230:
1441:lvgl/src/lv_draw/lv_draw_rect.c ****             _lv_blend_fill(clip, &fill_area2, color, mask_buf + mask_ofs, mask_res, opa, blend_mode
 4667              		.loc 1 1441 39 view .LVU1714
 4668 02a8 5F46     		mov	r7, fp
 4669              	.LBE393:
1449:lvgl/src/lv_draw/lv_draw_rect.c ****         if(lower_corner_end <= upper_corner_end) lower_corner_end = upper_corner_end + 1;
 4670              		.loc 1 1449 9 is_stmt 1 view .LVU1715
1449:lvgl/src/lv_draw/lv_draw_rect.c ****         if(lower_corner_end <= upper_corner_end) lower_corner_end = upper_corner_end + 1;
 4671              		.loc 1 1449 46 is_stmt 0 view .LVU1716
 4672 02aa B4F90690 		ldrsh	r9, [r4, #6]
 4673              	.LVL484:
ARM GAS  D:\Temp\ccGEpo4V.s 			page 141


1449:lvgl/src/lv_draw/lv_draw_rect.c ****         if(lower_corner_end <= upper_corner_end) lower_corner_end = upper_corner_end + 1;
 4674              		.loc 1 1449 62 view .LVU1717
 4675 02ae B6F91230 		ldrsh	r3, [r6, #18]
1449:lvgl/src/lv_draw/lv_draw_rect.c ****         if(lower_corner_end <= upper_corner_end) lower_corner_end = upper_corner_end + 1;
 4676              		.loc 1 1449 51 view .LVU1718
 4677 02b2 A9EB0309 		sub	r9, r9, r3
1449:lvgl/src/lv_draw/lv_draw_rect.c ****         if(lower_corner_end <= upper_corner_end) lower_corner_end = upper_corner_end + 1;
 4678              		.loc 1 1449 17 view .LVU1719
 4679 02b6 0D9A     		ldr	r2, [sp, #52]
 4680 02b8 A9EB0209 		sub	r9, r9, r2
 4681              	.LVL485:
1450:lvgl/src/lv_draw/lv_draw_rect.c ****         fill_area.y1 = disp_area->y1 + lower_corner_end;
 4682              		.loc 1 1450 9 is_stmt 1 view .LVU1720
1450:lvgl/src/lv_draw/lv_draw_rect.c ****         fill_area.y1 = disp_area->y1 + lower_corner_end;
 4683              		.loc 1 1450 11 is_stmt 0 view .LVU1721
 4684 02bc 099A     		ldr	r2, [sp, #36]
 4685 02be 4A45     		cmp	r2, r9
 4686 02c0 01DB     		blt	.L215
1450:lvgl/src/lv_draw/lv_draw_rect.c ****         fill_area.y1 = disp_area->y1 + lower_corner_end;
 4687              		.loc 1 1450 50 is_stmt 1 discriminator 1 view .LVU1722
1450:lvgl/src/lv_draw/lv_draw_rect.c ****         fill_area.y1 = disp_area->y1 + lower_corner_end;
 4688              		.loc 1 1450 67 is_stmt 0 discriminator 1 view .LVU1723
 4689 02c2 02F10109 		add	r9, r2, #1
 4690              	.LVL486:
 4691              	.L215:
1451:lvgl/src/lv_draw/lv_draw_rect.c ****         fill_area.y2 = fill_area.y1;
 4692              		.loc 1 1451 9 is_stmt 1 view .LVU1724
1451:lvgl/src/lv_draw/lv_draw_rect.c ****         fill_area.y2 = fill_area.y1;
 4693              		.loc 1 1451 38 is_stmt 0 view .LVU1725
 4694 02c6 19FA83F3 		uxtah	r3, r9, r3
 4695 02ca 1BB2     		sxth	r3, r3
1451:lvgl/src/lv_draw/lv_draw_rect.c ****         fill_area.y2 = fill_area.y1;
 4696              		.loc 1 1451 22 view .LVU1726
 4697 02cc ADF84A30 		strh	r3, [sp, #74]	@ movhi
1452:lvgl/src/lv_draw/lv_draw_rect.c ****         for(h = lower_corner_end; h <= draw_area.y2; h++) {
 4698              		.loc 1 1452 9 is_stmt 1 view .LVU1727
1452:lvgl/src/lv_draw/lv_draw_rect.c ****         for(h = lower_corner_end; h <= draw_area.y2; h++) {
 4699              		.loc 1 1452 22 is_stmt 0 view .LVU1728
 4700 02d0 ADF84E30 		strh	r3, [sp, #78]	@ movhi
1453:lvgl/src/lv_draw/lv_draw_rect.c ****             _lv_memset_ff(mask_buf, draw_area_w);
 4701              		.loc 1 1453 9 is_stmt 1 view .LVU1729
 4702              	.LVL487:
1453:lvgl/src/lv_draw/lv_draw_rect.c ****             _lv_memset_ff(mask_buf, draw_area_w);
 4703              		.loc 1 1453 9 is_stmt 0 view .LVU1730
 4704 02d4 BB46     		mov	fp, r7
 4705 02d6 2EE0     		b	.L216
 4706              	.LVL488:
 4707              	.L233:
 4708              	.LBB394:
1467:lvgl/src/lv_draw/lv_draw_rect.c ****                 fill_area2.x2 = area_outer->x2 - rout;
 4709              		.loc 1 1467 17 is_stmt 1 view .LVU1731
1467:lvgl/src/lv_draw/lv_draw_rect.c ****                 fill_area2.x2 = area_outer->x2 - rout;
 4710              		.loc 1 1467 43 is_stmt 0 view .LVU1732
 4711 02d8 2388     		ldrh	r3, [r4]
1467:lvgl/src/lv_draw/lv_draw_rect.c ****                 fill_area2.x2 = area_outer->x2 - rout;
 4712              		.loc 1 1467 48 view .LVU1733
 4713 02da 5344     		add	r3, r3, r10
ARM GAS  D:\Temp\ccGEpo4V.s 			page 142


1467:lvgl/src/lv_draw/lv_draw_rect.c ****                 fill_area2.x2 = area_outer->x2 - rout;
 4714              		.loc 1 1467 31 view .LVU1734
 4715 02dc ADF84030 		strh	r3, [sp, #64]	@ movhi
1468:lvgl/src/lv_draw/lv_draw_rect.c **** 
 4716              		.loc 1 1468 17 is_stmt 1 view .LVU1735
1468:lvgl/src/lv_draw/lv_draw_rect.c **** 
 4717              		.loc 1 1468 43 is_stmt 0 view .LVU1736
 4718 02e0 A388     		ldrh	r3, [r4, #4]
1468:lvgl/src/lv_draw/lv_draw_rect.c **** 
 4719              		.loc 1 1468 48 view .LVU1737
 4720 02e2 A3EB0A03 		sub	r3, r3, r10
1468:lvgl/src/lv_draw/lv_draw_rect.c **** 
 4721              		.loc 1 1468 31 view .LVU1738
 4722 02e6 ADF84430 		strh	r3, [sp, #68]	@ movhi
1470:lvgl/src/lv_draw/lv_draw_rect.c ****             }
 4723              		.loc 1 1470 17 is_stmt 1 view .LVU1739
 4724 02ea CDF80880 		str	r8, [sp, #8]
 4725 02ee CDF804B0 		str	fp, [sp, #4]
 4726 02f2 0123     		movs	r3, #1
 4727 02f4 0093     		str	r3, [sp]
 4728 02f6 0023     		movs	r3, #0
 4729 02f8 BDF8BC20 		ldrh	r2, [sp, #188]
 4730 02fc 10A9     		add	r1, sp, #64
 4731 02fe 0498     		ldr	r0, [sp, #16]
 4732 0300 FFF7FEFF 		bl	_lv_blend_fill
 4733              	.LVL489:
 4734 0304 54E0     		b	.L217
 4735              	.LVL490:
 4736              	.L218:
1477:lvgl/src/lv_draw/lv_draw_rect.c **** 
 4737              		.loc 1 1477 13 discriminator 2 view .LVU1740
 4738 0306 CDF80880 		str	r8, [sp, #8]
 4739 030a CDF804B0 		str	fp, [sp, #4]
 4740 030e 0097     		str	r7, [sp]
 4741 0310 2B44     		add	r3, r3, r5
 4742              	.LVL491:
1477:lvgl/src/lv_draw/lv_draw_rect.c **** 
 4743              		.loc 1 1477 13 is_stmt 0 discriminator 2 view .LVU1741
 4744 0312 BDF8BC20 		ldrh	r2, [sp, #188]
 4745 0316 10A9     		add	r1, sp, #64
 4746 0318 0498     		ldr	r0, [sp, #16]
 4747 031a FFF7FEFF 		bl	_lv_blend_fill
 4748              	.LVL492:
1479:lvgl/src/lv_draw/lv_draw_rect.c ****             fill_area.y2++;
 4749              		.loc 1 1479 13 is_stmt 1 discriminator 2 view .LVU1742
1479:lvgl/src/lv_draw/lv_draw_rect.c ****             fill_area.y2++;
 4750              		.loc 1 1479 22 is_stmt 0 discriminator 2 view .LVU1743
 4751 031e BDF94A30 		ldrsh	r3, [sp, #74]
1479:lvgl/src/lv_draw/lv_draw_rect.c ****             fill_area.y2++;
 4752              		.loc 1 1479 25 discriminator 2 view .LVU1744
 4753 0322 0133     		adds	r3, r3, #1
 4754 0324 ADF84A30 		strh	r3, [sp, #74]	@ movhi
1480:lvgl/src/lv_draw/lv_draw_rect.c ****         }
 4755              		.loc 1 1480 13 is_stmt 1 discriminator 2 view .LVU1745
1480:lvgl/src/lv_draw/lv_draw_rect.c ****         }
 4756              		.loc 1 1480 22 is_stmt 0 discriminator 2 view .LVU1746
 4757 0328 BDF94E30 		ldrsh	r3, [sp, #78]
ARM GAS  D:\Temp\ccGEpo4V.s 			page 143


1480:lvgl/src/lv_draw/lv_draw_rect.c ****         }
 4758              		.loc 1 1480 25 discriminator 2 view .LVU1747
 4759 032c 0133     		adds	r3, r3, #1
 4760 032e ADF84E30 		strh	r3, [sp, #78]	@ movhi
 4761              	.LBE394:
1453:lvgl/src/lv_draw/lv_draw_rect.c ****             _lv_memset_ff(mask_buf, draw_area_w);
 4762              		.loc 1 1453 55 discriminator 2 view .LVU1748
 4763 0332 09F10109 		add	r9, r9, #1
 4764              	.LVL493:
 4765              	.L216:
1453:lvgl/src/lv_draw/lv_draw_rect.c ****             _lv_memset_ff(mask_buf, draw_area_w);
 4766              		.loc 1 1453 49 discriminator 1 view .LVU1749
 4767 0336 BDF98E30 		ldrsh	r3, [sp, #142]
1453:lvgl/src/lv_draw/lv_draw_rect.c ****             _lv_memset_ff(mask_buf, draw_area_w);
 4768              		.loc 1 1453 9 discriminator 1 view .LVU1750
 4769 033a 4B45     		cmp	r3, r9
 4770 033c 51DB     		blt	.L232
 4771              	.LBB395:
1454:lvgl/src/lv_draw/lv_draw_rect.c ****             mask_res = lv_draw_mask_apply(mask_buf, vdb->area.x1 + draw_area.x1, vdb->area.y1 + h, 
 4772              		.loc 1 1454 13 is_stmt 1 view .LVU1751
 4773 033e 0799     		ldr	r1, [sp, #28]
 4774 0340 2846     		mov	r0, r5
 4775 0342 FFF7FEFF 		bl	_lv_memset_ff
 4776              	.LVL494:
1455:lvgl/src/lv_draw/lv_draw_rect.c **** 
 4777              		.loc 1 1455 13 view .LVU1752
1455:lvgl/src/lv_draw/lv_draw_rect.c **** 
 4778              		.loc 1 1455 62 is_stmt 0 view .LVU1753
 4779 0346 318A     		ldrh	r1, [r6, #16]
1455:lvgl/src/lv_draw/lv_draw_rect.c **** 
 4780              		.loc 1 1455 77 view .LVU1754
 4781 0348 BDF88830 		ldrh	r3, [sp, #136]
1455:lvgl/src/lv_draw/lv_draw_rect.c **** 
 4782              		.loc 1 1455 66 view .LVU1755
 4783 034c 1944     		add	r1, r1, r3
1455:lvgl/src/lv_draw/lv_draw_rect.c **** 
 4784              		.loc 1 1455 91 view .LVU1756
 4785 034e 728A     		ldrh	r2, [r6, #18]
1455:lvgl/src/lv_draw/lv_draw_rect.c **** 
 4786              		.loc 1 1455 95 view .LVU1757
 4787 0350 4A44     		add	r2, r2, r9
1455:lvgl/src/lv_draw/lv_draw_rect.c **** 
 4788              		.loc 1 1455 24 view .LVU1758
 4789 0352 069B     		ldr	r3, [sp, #24]
 4790 0354 12B2     		sxth	r2, r2
 4791 0356 09B2     		sxth	r1, r1
 4792 0358 2846     		mov	r0, r5
 4793 035a FFF7FEFF 		bl	lv_draw_mask_apply
 4794              	.LVL495:
 4795 035e 0746     		mov	r7, r0
 4796              	.LVL496:
1457:lvgl/src/lv_draw/lv_draw_rect.c ****             fill_area2.x1 = area_outer->x1;
 4797              		.loc 1 1457 13 is_stmt 1 view .LVU1759
1458:lvgl/src/lv_draw/lv_draw_rect.c ****             fill_area2.x2 = area_outer->x1 + rout - 1;
 4798              		.loc 1 1458 13 view .LVU1760
1458:lvgl/src/lv_draw/lv_draw_rect.c ****             fill_area2.x2 = area_outer->x1 + rout - 1;
 4799              		.loc 1 1458 39 is_stmt 0 view .LVU1761
ARM GAS  D:\Temp\ccGEpo4V.s 			page 144


 4800 0360 B4F90030 		ldrsh	r3, [r4]
1458:lvgl/src/lv_draw/lv_draw_rect.c ****             fill_area2.x2 = area_outer->x1 + rout - 1;
 4801              		.loc 1 1458 27 view .LVU1762
 4802 0364 ADF84030 		strh	r3, [sp, #64]	@ movhi
1459:lvgl/src/lv_draw/lv_draw_rect.c ****             fill_area2.y1 = fill_area.y1;
 4803              		.loc 1 1459 13 is_stmt 1 view .LVU1763
1459:lvgl/src/lv_draw/lv_draw_rect.c ****             fill_area2.y1 = fill_area.y1;
 4804              		.loc 1 1459 44 is_stmt 0 view .LVU1764
 4805 0368 BDF814A0 		ldrh	r10, [sp, #20]
 4806 036c 1AFA83F3 		uxtah	r3, r10, r3
 4807 0370 9BB2     		uxth	r3, r3
1459:lvgl/src/lv_draw/lv_draw_rect.c ****             fill_area2.y1 = fill_area.y1;
 4808              		.loc 1 1459 51 view .LVU1765
 4809 0372 013B     		subs	r3, r3, #1
1459:lvgl/src/lv_draw/lv_draw_rect.c ****             fill_area2.y1 = fill_area.y1;
 4810              		.loc 1 1459 27 view .LVU1766
 4811 0374 ADF84430 		strh	r3, [sp, #68]	@ movhi
1460:lvgl/src/lv_draw/lv_draw_rect.c ****             fill_area2.y2 = fill_area.y2;
 4812              		.loc 1 1460 13 is_stmt 1 view .LVU1767
1460:lvgl/src/lv_draw/lv_draw_rect.c ****             fill_area2.y2 = fill_area.y2;
 4813              		.loc 1 1460 38 is_stmt 0 view .LVU1768
 4814 0378 BDF94A30 		ldrsh	r3, [sp, #74]
1460:lvgl/src/lv_draw/lv_draw_rect.c ****             fill_area2.y2 = fill_area.y2;
 4815              		.loc 1 1460 27 view .LVU1769
 4816 037c ADF84230 		strh	r3, [sp, #66]	@ movhi
1461:lvgl/src/lv_draw/lv_draw_rect.c **** 
 4817              		.loc 1 1461 13 is_stmt 1 view .LVU1770
1461:lvgl/src/lv_draw/lv_draw_rect.c **** 
 4818              		.loc 1 1461 38 is_stmt 0 view .LVU1771
 4819 0380 BDF94E30 		ldrsh	r3, [sp, #78]
1461:lvgl/src/lv_draw/lv_draw_rect.c **** 
 4820              		.loc 1 1461 27 view .LVU1772
 4821 0384 ADF84630 		strh	r3, [sp, #70]	@ movhi
1463:lvgl/src/lv_draw/lv_draw_rect.c **** 
 4822              		.loc 1 1463 13 is_stmt 1 view .LVU1773
 4823 0388 CDF80880 		str	r8, [sp, #8]
 4824 038c CDF804B0 		str	fp, [sp, #4]
 4825 0390 0090     		str	r0, [sp]
 4826 0392 2B46     		mov	r3, r5
 4827 0394 BDF8BC20 		ldrh	r2, [sp, #188]
 4828 0398 10A9     		add	r1, sp, #64
 4829 039a 0498     		ldr	r0, [sp, #16]
 4830              	.LVL497:
1463:lvgl/src/lv_draw/lv_draw_rect.c **** 
 4831              		.loc 1 1463 13 is_stmt 0 view .LVU1774
 4832 039c FFF7FEFF 		bl	_lv_blend_fill
 4833              	.LVL498:
1466:lvgl/src/lv_draw/lv_draw_rect.c ****                 fill_area2.x1 = area_outer->x1 + rout;
 4834              		.loc 1 1466 13 is_stmt 1 view .LVU1775
1466:lvgl/src/lv_draw/lv_draw_rect.c ****                 fill_area2.x1 = area_outer->x1 + rout;
 4835              		.loc 1 1466 26 is_stmt 0 view .LVU1776
 4836 03a0 BDF94620 		ldrsh	r2, [sp, #70]
1466:lvgl/src/lv_draw/lv_draw_rect.c ****                 fill_area2.x1 = area_outer->x1 + rout;
 4837              		.loc 1 1466 42 view .LVU1777
 4838 03a4 B4F90630 		ldrsh	r3, [r4, #6]
1466:lvgl/src/lv_draw/lv_draw_rect.c ****                 fill_area2.x1 = area_outer->x1 + rout;
 4839              		.loc 1 1466 47 view .LVU1778
ARM GAS  D:\Temp\ccGEpo4V.s 			page 145


 4840 03a8 0899     		ldr	r1, [sp, #32]
 4841 03aa 5B1A     		subs	r3, r3, r1
1466:lvgl/src/lv_draw/lv_draw_rect.c ****                 fill_area2.x1 = area_outer->x1 + rout;
 4842              		.loc 1 1466 15 view .LVU1779
 4843 03ac 9A42     		cmp	r2, r3
 4844 03ae 93DC     		bgt	.L233
 4845              	.L217:
1472:lvgl/src/lv_draw/lv_draw_rect.c ****             fill_area2.x2 = area_outer->x2;
 4846              		.loc 1 1472 13 is_stmt 1 view .LVU1780
1472:lvgl/src/lv_draw/lv_draw_rect.c ****             fill_area2.x2 = area_outer->x2;
 4847              		.loc 1 1472 39 is_stmt 0 view .LVU1781
 4848 03b0 B4F90430 		ldrsh	r3, [r4, #4]
 4849 03b4 9AB2     		uxth	r2, r3
1472:lvgl/src/lv_draw/lv_draw_rect.c ****             fill_area2.x2 = area_outer->x2;
 4850              		.loc 1 1472 44 view .LVU1782
 4851 03b6 A2EB0A0A 		sub	r10, r2, r10
 4852 03ba 1FFA8AFA 		uxth	r10, r10
1472:lvgl/src/lv_draw/lv_draw_rect.c ****             fill_area2.x2 = area_outer->x2;
 4853              		.loc 1 1472 51 view .LVU1783
 4854 03be 0AF1010A 		add	r10, r10, #1
1472:lvgl/src/lv_draw/lv_draw_rect.c ****             fill_area2.x2 = area_outer->x2;
 4855              		.loc 1 1472 27 view .LVU1784
 4856 03c2 ADF840A0 		strh	r10, [sp, #64]	@ movhi
1473:lvgl/src/lv_draw/lv_draw_rect.c **** 
 4857              		.loc 1 1473 13 is_stmt 1 view .LVU1785
1473:lvgl/src/lv_draw/lv_draw_rect.c **** 
 4858              		.loc 1 1473 27 is_stmt 0 view .LVU1786
 4859 03c6 ADF84430 		strh	r3, [sp, #68]	@ movhi
1475:lvgl/src/lv_draw/lv_draw_rect.c ****             if(mask_ofs < 0) mask_ofs = 0;
 4860              		.loc 1 1475 13 is_stmt 1 view .LVU1787
1475:lvgl/src/lv_draw/lv_draw_rect.c ****             if(mask_ofs < 0) mask_ofs = 0;
 4861              		.loc 1 1475 48 is_stmt 0 view .LVU1788
 4862 03ca 059A     		ldr	r2, [sp, #20]
 4863 03cc 9B1A     		subs	r3, r3, r2
1475:lvgl/src/lv_draw/lv_draw_rect.c ****             if(mask_ofs < 0) mask_ofs = 0;
 4864              		.loc 1 1475 55 view .LVU1789
 4865 03ce 0133     		adds	r3, r3, #1
1475:lvgl/src/lv_draw/lv_draw_rect.c ****             if(mask_ofs < 0) mask_ofs = 0;
 4866              		.loc 1 1475 72 view .LVU1790
 4867 03d0 B6F91020 		ldrsh	r2, [r6, #16]
1475:lvgl/src/lv_draw/lv_draw_rect.c ****             if(mask_ofs < 0) mask_ofs = 0;
 4868              		.loc 1 1475 87 view .LVU1791
 4869 03d4 BDF98810 		ldrsh	r1, [sp, #136]
1475:lvgl/src/lv_draw/lv_draw_rect.c ****             if(mask_ofs < 0) mask_ofs = 0;
 4870              		.loc 1 1475 76 view .LVU1792
 4871 03d8 0A44     		add	r2, r2, r1
 4872              	.LVL499:
1476:lvgl/src/lv_draw/lv_draw_rect.c ****             _lv_blend_fill(clip, &fill_area2, color, mask_buf + mask_ofs, mask_res, opa, blend_mode
 4873              		.loc 1 1476 13 is_stmt 1 view .LVU1793
1476:lvgl/src/lv_draw/lv_draw_rect.c ****             _lv_blend_fill(clip, &fill_area2, color, mask_buf + mask_ofs, mask_res, opa, blend_mode
 4874              		.loc 1 1476 15 is_stmt 0 view .LVU1794
 4875 03da 9B1A     		subs	r3, r3, r2
 4876              	.LVL500:
1476:lvgl/src/lv_draw/lv_draw_rect.c ****             _lv_blend_fill(clip, &fill_area2, color, mask_buf + mask_ofs, mask_res, opa, blend_mode
 4877              		.loc 1 1476 15 view .LVU1795
 4878 03dc 93D5     		bpl	.L218
1476:lvgl/src/lv_draw/lv_draw_rect.c ****             _lv_blend_fill(clip, &fill_area2, color, mask_buf + mask_ofs, mask_res, opa, blend_mode
ARM GAS  D:\Temp\ccGEpo4V.s 			page 146


 4879              		.loc 1 1476 39 view .LVU1796
 4880 03de 0023     		movs	r3, #0
 4881              	.LVL501:
1476:lvgl/src/lv_draw/lv_draw_rect.c ****             _lv_blend_fill(clip, &fill_area2, color, mask_buf + mask_ofs, mask_res, opa, blend_mode
 4882              		.loc 1 1476 39 view .LVU1797
 4883 03e0 91E7     		b	.L218
 4884              	.L232:
1476:lvgl/src/lv_draw/lv_draw_rect.c ****             _lv_blend_fill(clip, &fill_area2, color, mask_buf + mask_ofs, mask_res, opa, blend_mode
 4885              		.loc 1 1476 39 view .LVU1798
 4886              	.LBE395:
1484:lvgl/src/lv_draw/lv_draw_rect.c ****         fill_area.y2 = area_outer->y2 - corner_size - 1;
 4887              		.loc 1 1484 9 is_stmt 1 view .LVU1799
1484:lvgl/src/lv_draw/lv_draw_rect.c ****         fill_area.y2 = area_outer->y2 - corner_size - 1;
 4888              		.loc 1 1484 34 is_stmt 0 view .LVU1800
 4889 03e2 6388     		ldrh	r3, [r4, #2]
1484:lvgl/src/lv_draw/lv_draw_rect.c ****         fill_area.y2 = area_outer->y2 - corner_size - 1;
 4890              		.loc 1 1484 39 view .LVU1801
 4891 03e4 BDF83490 		ldrh	r9, [sp, #52]
 4892              	.LVL502:
1484:lvgl/src/lv_draw/lv_draw_rect.c ****         fill_area.y2 = area_outer->y2 - corner_size - 1;
 4893              		.loc 1 1484 39 view .LVU1802
 4894 03e8 4B44     		add	r3, r3, r9
 4895 03ea 9BB2     		uxth	r3, r3
1484:lvgl/src/lv_draw/lv_draw_rect.c ****         fill_area.y2 = area_outer->y2 - corner_size - 1;
 4896              		.loc 1 1484 53 view .LVU1803
 4897 03ec 0133     		adds	r3, r3, #1
1484:lvgl/src/lv_draw/lv_draw_rect.c ****         fill_area.y2 = area_outer->y2 - corner_size - 1;
 4898              		.loc 1 1484 22 view .LVU1804
 4899 03ee ADF84A30 		strh	r3, [sp, #74]	@ movhi
1485:lvgl/src/lv_draw/lv_draw_rect.c **** 
 4900              		.loc 1 1485 9 is_stmt 1 view .LVU1805
1485:lvgl/src/lv_draw/lv_draw_rect.c **** 
 4901              		.loc 1 1485 34 is_stmt 0 view .LVU1806
 4902 03f2 E388     		ldrh	r3, [r4, #6]
1485:lvgl/src/lv_draw/lv_draw_rect.c **** 
 4903              		.loc 1 1485 39 view .LVU1807
 4904 03f4 A3EB0903 		sub	r3, r3, r9
 4905 03f8 9BB2     		uxth	r3, r3
1485:lvgl/src/lv_draw/lv_draw_rect.c **** 
 4906              		.loc 1 1485 53 view .LVU1808
 4907 03fa 013B     		subs	r3, r3, #1
1485:lvgl/src/lv_draw/lv_draw_rect.c **** 
 4908              		.loc 1 1485 22 view .LVU1809
 4909 03fc ADF84E30 		strh	r3, [sp, #78]	@ movhi
1487:lvgl/src/lv_draw/lv_draw_rect.c ****         fill_area.x2 = area_outer->x1 + border_width - 1;
 4910              		.loc 1 1487 9 is_stmt 1 view .LVU1810
1487:lvgl/src/lv_draw/lv_draw_rect.c ****         fill_area.x2 = area_outer->x1 + border_width - 1;
 4911              		.loc 1 1487 34 is_stmt 0 view .LVU1811
 4912 0400 B4F90030 		ldrsh	r3, [r4]
1487:lvgl/src/lv_draw/lv_draw_rect.c ****         fill_area.x2 = area_outer->x1 + border_width - 1;
 4913              		.loc 1 1487 22 view .LVU1812
 4914 0404 ADF84830 		strh	r3, [sp, #72]	@ movhi
1488:lvgl/src/lv_draw/lv_draw_rect.c ****         _lv_blend_fill(clip, &fill_area, color, NULL, LV_DRAW_MASK_RES_FULL_COVER, opa, blend_mode)
 4915              		.loc 1 1488 9 is_stmt 1 view .LVU1813
1488:lvgl/src/lv_draw/lv_draw_rect.c ****         _lv_blend_fill(clip, &fill_area, color, NULL, LV_DRAW_MASK_RES_FULL_COVER, opa, blend_mode)
 4916              		.loc 1 1488 39 is_stmt 0 view .LVU1814
 4917 0408 0B9A     		ldr	r2, [sp, #44]
ARM GAS  D:\Temp\ccGEpo4V.s 			page 147


 4918 040a 12FA83F3 		uxtah	r3, r2, r3
 4919 040e 9BB2     		uxth	r3, r3
1488:lvgl/src/lv_draw/lv_draw_rect.c ****         _lv_blend_fill(clip, &fill_area, color, NULL, LV_DRAW_MASK_RES_FULL_COVER, opa, blend_mode)
 4920              		.loc 1 1488 54 view .LVU1815
 4921 0410 013B     		subs	r3, r3, #1
1488:lvgl/src/lv_draw/lv_draw_rect.c ****         _lv_blend_fill(clip, &fill_area, color, NULL, LV_DRAW_MASK_RES_FULL_COVER, opa, blend_mode)
 4922              		.loc 1 1488 22 view .LVU1816
 4923 0412 ADF84C30 		strh	r3, [sp, #76]	@ movhi
1489:lvgl/src/lv_draw/lv_draw_rect.c **** 
 4924              		.loc 1 1489 9 is_stmt 1 view .LVU1817
 4925 0416 CDF80880 		str	r8, [sp, #8]
 4926 041a CDF804B0 		str	fp, [sp, #4]
 4927 041e 0126     		movs	r6, #1
 4928              	.LVL503:
1489:lvgl/src/lv_draw/lv_draw_rect.c **** 
 4929              		.loc 1 1489 9 is_stmt 0 view .LVU1818
 4930 0420 0096     		str	r6, [sp]
 4931 0422 0023     		movs	r3, #0
 4932 0424 BDF8BC20 		ldrh	r2, [sp, #188]
 4933 0428 12A9     		add	r1, sp, #72
 4934 042a DDF81090 		ldr	r9, [sp, #16]
 4935 042e 4846     		mov	r0, r9
 4936 0430 FFF7FEFF 		bl	_lv_blend_fill
 4937              	.LVL504:
1492:lvgl/src/lv_draw/lv_draw_rect.c ****         fill_area.x2 = area_outer->x2;
 4938              		.loc 1 1492 9 is_stmt 1 view .LVU1819
1492:lvgl/src/lv_draw/lv_draw_rect.c ****         fill_area.x2 = area_outer->x2;
 4939              		.loc 1 1492 34 is_stmt 0 view .LVU1820
 4940 0434 B4F90420 		ldrsh	r2, [r4, #4]
1492:lvgl/src/lv_draw/lv_draw_rect.c ****         fill_area.x2 = area_outer->x2;
 4941              		.loc 1 1492 39 view .LVU1821
 4942 0438 0C9B     		ldr	r3, [sp, #48]
 4943 043a 0A99     		ldr	r1, [sp, #40]
 4944 043c 5B1A     		subs	r3, r3, r1
 4945 043e 13FA82F3 		uxtah	r3, r3, r2
 4946 0442 9BB2     		uxth	r3, r3
1492:lvgl/src/lv_draw/lv_draw_rect.c ****         fill_area.x2 = area_outer->x2;
 4947              		.loc 1 1492 54 view .LVU1822
 4948 0444 3344     		add	r3, r3, r6
1492:lvgl/src/lv_draw/lv_draw_rect.c ****         fill_area.x2 = area_outer->x2;
 4949              		.loc 1 1492 22 view .LVU1823
 4950 0446 ADF84830 		strh	r3, [sp, #72]	@ movhi
1493:lvgl/src/lv_draw/lv_draw_rect.c **** 
 4951              		.loc 1 1493 9 is_stmt 1 view .LVU1824
1493:lvgl/src/lv_draw/lv_draw_rect.c **** 
 4952              		.loc 1 1493 22 is_stmt 0 view .LVU1825
 4953 044a ADF84C20 		strh	r2, [sp, #76]	@ movhi
1495:lvgl/src/lv_draw/lv_draw_rect.c ****     }
 4954              		.loc 1 1495 9 is_stmt 1 view .LVU1826
 4955 044e CDF80880 		str	r8, [sp, #8]
 4956 0452 CDF804B0 		str	fp, [sp, #4]
 4957 0456 0096     		str	r6, [sp]
 4958 0458 0023     		movs	r3, #0
 4959 045a BDF8BC20 		ldrh	r2, [sp, #188]
 4960 045e 12A9     		add	r1, sp, #72
 4961 0460 4846     		mov	r0, r9
 4962 0462 FFF7FEFF 		bl	_lv_blend_fill
ARM GAS  D:\Temp\ccGEpo4V.s 			page 148


 4963              	.LVL505:
 4964              	.L220:
1495:lvgl/src/lv_draw/lv_draw_rect.c ****     }
 4965              		.loc 1 1495 9 is_stmt 0 view .LVU1827
 4966              	.LBE396:
1514:lvgl/src/lv_draw/lv_draw_rect.c ****     lv_draw_mask_remove_id(mask_rout_id);
 4967              		.loc 1 1514 5 is_stmt 1 view .LVU1828
 4968 0466 0E98     		ldr	r0, [sp, #56]
 4969 0468 FFF7FEFF 		bl	lv_draw_mask_remove_id
 4970              	.LVL506:
1515:lvgl/src/lv_draw/lv_draw_rect.c ****     _lv_mem_buf_release(mask_buf);
 4971              		.loc 1 1515 5 view .LVU1829
 4972 046c 0F98     		ldr	r0, [sp, #60]
 4973 046e FFF7FEFF 		bl	lv_draw_mask_remove_id
 4974              	.LVL507:
1516:lvgl/src/lv_draw/lv_draw_rect.c **** }
 4975              		.loc 1 1516 5 view .LVU1830
 4976 0472 2846     		mov	r0, r5
 4977 0474 FFF7FEFF 		bl	_lv_mem_buf_release
 4978              	.LVL508:
 4979 0478 11E6     		b	.L201
 4980              	.LVL509:
 4981              	.L210:
1499:lvgl/src/lv_draw/lv_draw_rect.c ****         fill_area.x2 = area_outer->x2;
 4982              		.loc 1 1499 9 view .LVU1831
1499:lvgl/src/lv_draw/lv_draw_rect.c ****         fill_area.x2 = area_outer->x2;
 4983              		.loc 1 1499 34 is_stmt 0 view .LVU1832
 4984 047a B4F90030 		ldrsh	r3, [r4]
1499:lvgl/src/lv_draw/lv_draw_rect.c ****         fill_area.x2 = area_outer->x2;
 4985              		.loc 1 1499 22 view .LVU1833
 4986 047e ADF84830 		strh	r3, [sp, #72]	@ movhi
1500:lvgl/src/lv_draw/lv_draw_rect.c ****         fill_area.y1 = disp_area->y1 + draw_area.y1;
 4987              		.loc 1 1500 9 is_stmt 1 view .LVU1834
1500:lvgl/src/lv_draw/lv_draw_rect.c ****         fill_area.y1 = disp_area->y1 + draw_area.y1;
 4988              		.loc 1 1500 34 is_stmt 0 view .LVU1835
 4989 0482 B4F90430 		ldrsh	r3, [r4, #4]
1500:lvgl/src/lv_draw/lv_draw_rect.c ****         fill_area.y1 = disp_area->y1 + draw_area.y1;
 4990              		.loc 1 1500 22 view .LVU1836
 4991 0486 ADF84C30 		strh	r3, [sp, #76]	@ movhi
1501:lvgl/src/lv_draw/lv_draw_rect.c ****         fill_area.y2 = fill_area.y1;
 4992              		.loc 1 1501 9 is_stmt 1 view .LVU1837
1501:lvgl/src/lv_draw/lv_draw_rect.c ****         fill_area.y2 = fill_area.y1;
 4993              		.loc 1 1501 33 is_stmt 0 view .LVU1838
 4994 048a 738A     		ldrh	r3, [r6, #18]
1501:lvgl/src/lv_draw/lv_draw_rect.c ****         fill_area.y2 = fill_area.y1;
 4995              		.loc 1 1501 49 view .LVU1839
 4996 048c BDF98A40 		ldrsh	r4, [sp, #138]
 4997              	.LVL510:
1501:lvgl/src/lv_draw/lv_draw_rect.c ****         fill_area.y2 = fill_area.y1;
 4998              		.loc 1 1501 38 view .LVU1840
 4999 0490 13FA84F3 		uxtah	r3, r3, r4
 5000 0494 1BB2     		sxth	r3, r3
1501:lvgl/src/lv_draw/lv_draw_rect.c ****         fill_area.y2 = fill_area.y1;
 5001              		.loc 1 1501 22 view .LVU1841
 5002 0496 ADF84A30 		strh	r3, [sp, #74]	@ movhi
1502:lvgl/src/lv_draw/lv_draw_rect.c **** 
 5003              		.loc 1 1502 9 is_stmt 1 view .LVU1842
ARM GAS  D:\Temp\ccGEpo4V.s 			page 149


1502:lvgl/src/lv_draw/lv_draw_rect.c **** 
 5004              		.loc 1 1502 22 is_stmt 0 view .LVU1843
 5005 049a ADF84E30 		strh	r3, [sp, #78]	@ movhi
1504:lvgl/src/lv_draw/lv_draw_rect.c ****             _lv_memset_ff(mask_buf, draw_area_w);
 5006              		.loc 1 1504 9 is_stmt 1 view .LVU1844
 5007              	.LVL511:
 5008              	.L221:
1504:lvgl/src/lv_draw/lv_draw_rect.c ****             _lv_memset_ff(mask_buf, draw_area_w);
 5009              		.loc 1 1504 45 is_stmt 0 discriminator 1 view .LVU1845
 5010 049e BDF98E30 		ldrsh	r3, [sp, #142]
1504:lvgl/src/lv_draw/lv_draw_rect.c ****             _lv_memset_ff(mask_buf, draw_area_w);
 5011              		.loc 1 1504 9 discriminator 1 view .LVU1846
 5012 04a2 A342     		cmp	r3, r4
 5013 04a4 DFDB     		blt	.L220
1505:lvgl/src/lv_draw/lv_draw_rect.c ****             mask_res = lv_draw_mask_apply(mask_buf, vdb->area.x1 + draw_area.x1, vdb->area.y1 + h, 
 5014              		.loc 1 1505 13 is_stmt 1 discriminator 3 view .LVU1847
 5015 04a6 0799     		ldr	r1, [sp, #28]
 5016 04a8 2846     		mov	r0, r5
 5017 04aa FFF7FEFF 		bl	_lv_memset_ff
 5018              	.LVL512:
1506:lvgl/src/lv_draw/lv_draw_rect.c **** 
 5019              		.loc 1 1506 13 discriminator 3 view .LVU1848
1506:lvgl/src/lv_draw/lv_draw_rect.c **** 
 5020              		.loc 1 1506 62 is_stmt 0 discriminator 3 view .LVU1849
 5021 04ae 318A     		ldrh	r1, [r6, #16]
1506:lvgl/src/lv_draw/lv_draw_rect.c **** 
 5022              		.loc 1 1506 77 discriminator 3 view .LVU1850
 5023 04b0 BDF88830 		ldrh	r3, [sp, #136]
1506:lvgl/src/lv_draw/lv_draw_rect.c **** 
 5024              		.loc 1 1506 66 discriminator 3 view .LVU1851
 5025 04b4 1944     		add	r1, r1, r3
1506:lvgl/src/lv_draw/lv_draw_rect.c **** 
 5026              		.loc 1 1506 91 discriminator 3 view .LVU1852
 5027 04b6 728A     		ldrh	r2, [r6, #18]
1506:lvgl/src/lv_draw/lv_draw_rect.c **** 
 5028              		.loc 1 1506 95 discriminator 3 view .LVU1853
 5029 04b8 2244     		add	r2, r2, r4
1506:lvgl/src/lv_draw/lv_draw_rect.c **** 
 5030              		.loc 1 1506 24 discriminator 3 view .LVU1854
 5031 04ba 069B     		ldr	r3, [sp, #24]
 5032 04bc 12B2     		sxth	r2, r2
 5033 04be 09B2     		sxth	r1, r1
 5034 04c0 2846     		mov	r0, r5
 5035 04c2 FFF7FEFF 		bl	lv_draw_mask_apply
 5036              	.LVL513:
1508:lvgl/src/lv_draw/lv_draw_rect.c ****             fill_area.y1++;
 5037              		.loc 1 1508 13 is_stmt 1 discriminator 3 view .LVU1855
 5038 04c6 CDF80880 		str	r8, [sp, #8]
 5039 04ca 0197     		str	r7, [sp, #4]
 5040 04cc 0090     		str	r0, [sp]
 5041 04ce 2B46     		mov	r3, r5
 5042 04d0 BDF8BC20 		ldrh	r2, [sp, #188]
 5043 04d4 12A9     		add	r1, sp, #72
 5044 04d6 0498     		ldr	r0, [sp, #16]
 5045              	.LVL514:
1508:lvgl/src/lv_draw/lv_draw_rect.c ****             fill_area.y1++;
 5046              		.loc 1 1508 13 is_stmt 0 discriminator 3 view .LVU1856
ARM GAS  D:\Temp\ccGEpo4V.s 			page 150


 5047 04d8 FFF7FEFF 		bl	_lv_blend_fill
 5048              	.LVL515:
1509:lvgl/src/lv_draw/lv_draw_rect.c ****             fill_area.y2++;
 5049              		.loc 1 1509 13 is_stmt 1 discriminator 3 view .LVU1857
1509:lvgl/src/lv_draw/lv_draw_rect.c ****             fill_area.y2++;
 5050              		.loc 1 1509 22 is_stmt 0 discriminator 3 view .LVU1858
 5051 04dc BDF94A30 		ldrsh	r3, [sp, #74]
1509:lvgl/src/lv_draw/lv_draw_rect.c ****             fill_area.y2++;
 5052              		.loc 1 1509 25 discriminator 3 view .LVU1859
 5053 04e0 0133     		adds	r3, r3, #1
 5054 04e2 ADF84A30 		strh	r3, [sp, #74]	@ movhi
1510:lvgl/src/lv_draw/lv_draw_rect.c **** 
 5055              		.loc 1 1510 13 is_stmt 1 discriminator 3 view .LVU1860
1510:lvgl/src/lv_draw/lv_draw_rect.c **** 
 5056              		.loc 1 1510 22 is_stmt 0 discriminator 3 view .LVU1861
 5057 04e6 BDF94E30 		ldrsh	r3, [sp, #78]
1510:lvgl/src/lv_draw/lv_draw_rect.c **** 
 5058              		.loc 1 1510 25 discriminator 3 view .LVU1862
 5059 04ea 0133     		adds	r3, r3, #1
 5060 04ec ADF84E30 		strh	r3, [sp, #78]	@ movhi
1504:lvgl/src/lv_draw/lv_draw_rect.c ****             _lv_memset_ff(mask_buf, draw_area_w);
 5061              		.loc 1 1504 51 discriminator 3 view .LVU1863
 5062 04f0 0134     		adds	r4, r4, #1
 5063              	.LVL516:
1504:lvgl/src/lv_draw/lv_draw_rect.c ****             _lv_memset_ff(mask_buf, draw_area_w);
 5064              		.loc 1 1504 51 discriminator 3 view .LVU1864
 5065 04f2 D4E7     		b	.L221
 5066              		.cfi_endproc
 5067              	.LFE470:
 5069              		.section	.text.draw_outline,"ax",%progbits
 5070              		.align	1
 5071              		.syntax unified
 5072              		.thumb
 5073              		.thumb_func
 5074              		.fpu fpv4-sp-d16
 5076              	draw_outline:
 5077              	.LVL517:
 5078              	.LFB467:
1152:lvgl/src/lv_draw/lv_draw_rect.c ****     if(dsc->outline_opa <= LV_OPA_MIN) return;
 5079              		.loc 1 1152 1 is_stmt 1 view -0
 5080              		.cfi_startproc
 5081              		@ args = 0, pretend = 0, frame = 16
 5082              		@ frame_needed = 0, uses_anonymous_args = 0
1153:lvgl/src/lv_draw/lv_draw_rect.c ****     if(dsc->outline_width == 0) return;
 5083              		.loc 1 1153 5 view .LVU1866
1153:lvgl/src/lv_draw/lv_draw_rect.c ****     if(dsc->outline_width == 0) return;
 5084              		.loc 1 1153 11 is_stmt 0 view .LVU1867
 5085 0000 937F     		ldrb	r3, [r2, #30]	@ zero_extendqisi2
1153:lvgl/src/lv_draw/lv_draw_rect.c ****     if(dsc->outline_width == 0) return;
 5086              		.loc 1 1153 7 view .LVU1868
 5087 0002 022B     		cmp	r3, #2
 5088 0004 54D9     		bls	.L242
1154:lvgl/src/lv_draw/lv_draw_rect.c **** 
 5089              		.loc 1 1154 5 is_stmt 1 view .LVU1869
1154:lvgl/src/lv_draw/lv_draw_rect.c **** 
 5090              		.loc 1 1154 11 is_stmt 0 view .LVU1870
 5091 0006 B2F91A30 		ldrsh	r3, [r2, #26]
ARM GAS  D:\Temp\ccGEpo4V.s 			page 151


1154:lvgl/src/lv_draw/lv_draw_rect.c **** 
 5092              		.loc 1 1154 7 view .LVU1871
 5093 000a 002B     		cmp	r3, #0
 5094 000c 50D0     		beq	.L242
1152:lvgl/src/lv_draw/lv_draw_rect.c ****     if(dsc->outline_opa <= LV_OPA_MIN) return;
 5095              		.loc 1 1152 1 view .LVU1872
 5096 000e 30B5     		push	{r4, r5, lr}
 5097              	.LCFI14:
 5098              		.cfi_def_cfa_offset 12
 5099              		.cfi_offset 4, -12
 5100              		.cfi_offset 5, -8
 5101              		.cfi_offset 14, -4
 5102 0010 89B0     		sub	sp, sp, #36
 5103              	.LCFI15:
 5104              		.cfi_def_cfa_offset 48
 5105 0012 06AC     		add	r4, sp, #24
 5106 0014 0823     		movs	r3, #8
 5107              	.LVL518:
 5108              	.L236:
 5109              	.LBB397:
 5110              	.LBB398:
 5111              	.LBB399:
 218:lvgl/src/lv_draw/../lv_core/../lv_font/../lv_misc/lv_mem.h ****         *d8 = *s8;
 5112              		.loc 3 218 10 view .LVU1873
 5113 0016 2BB1     		cbz	r3, .L245
 219:lvgl/src/lv_draw/../lv_core/../lv_font/../lv_misc/lv_mem.h ****         d8++;
 5114              		.loc 3 219 9 is_stmt 1 view .LVU1874
 219:lvgl/src/lv_draw/../lv_core/../lv_font/../lv_misc/lv_mem.h ****         d8++;
 5115              		.loc 3 219 15 is_stmt 0 view .LVU1875
 5116 0018 10F8015B 		ldrb	r5, [r0], #1	@ zero_extendqisi2
 5117              	.LVL519:
 219:lvgl/src/lv_draw/../lv_core/../lv_font/../lv_misc/lv_mem.h ****         d8++;
 5118              		.loc 3 219 13 view .LVU1876
 5119 001c 04F8015B 		strb	r5, [r4], #1
 5120              	.LVL520:
 220:lvgl/src/lv_draw/../lv_core/../lv_font/../lv_misc/lv_mem.h ****         s8++;
 5121              		.loc 3 220 9 is_stmt 1 view .LVU1877
 221:lvgl/src/lv_draw/../lv_core/../lv_font/../lv_misc/lv_mem.h ****         len--;
 5122              		.loc 3 221 9 view .LVU1878
 222:lvgl/src/lv_draw/../lv_core/../lv_font/../lv_misc/lv_mem.h ****     }
 5123              		.loc 3 222 9 view .LVU1879
 222:lvgl/src/lv_draw/../lv_core/../lv_font/../lv_misc/lv_mem.h ****     }
 5124              		.loc 3 222 12 is_stmt 0 view .LVU1880
 5125 0020 013B     		subs	r3, r3, #1
 5126              	.LVL521:
 222:lvgl/src/lv_draw/../lv_core/../lv_font/../lv_misc/lv_mem.h ****     }
 5127              		.loc 3 222 12 view .LVU1881
 5128 0022 F8E7     		b	.L236
 5129              	.L245:
 5130              		.loc 3 225 5 is_stmt 1 view .LVU1882
 5131              	.LVL522:
 5132              		.loc 3 225 5 is_stmt 0 view .LVU1883
 5133              	.LBE399:
 5134              	.LBE398:
 5135              	.LBE397:
1163:lvgl/src/lv_draw/lv_draw_rect.c ****     area_inner.y1 -= dsc->outline_pad;
 5136              		.loc 1 1163 5 is_stmt 1 view .LVU1884
ARM GAS  D:\Temp\ccGEpo4V.s 			page 152


1163:lvgl/src/lv_draw/lv_draw_rect.c ****     area_inner.y1 -= dsc->outline_pad;
 5137              		.loc 1 1163 25 is_stmt 0 view .LVU1885
 5138 0024 938B     		ldrh	r3, [r2, #28]
1163:lvgl/src/lv_draw/lv_draw_rect.c ****     area_inner.y1 -= dsc->outline_pad;
 5139              		.loc 1 1163 19 view .LVU1886
 5140 0026 BDF81800 		ldrh	r0, [sp, #24]
 5141 002a C01A     		subs	r0, r0, r3
 5142 002c ADF81800 		strh	r0, [sp, #24]	@ movhi
1164:lvgl/src/lv_draw/lv_draw_rect.c ****     area_inner.x2 += dsc->outline_pad;
 5143              		.loc 1 1164 5 is_stmt 1 view .LVU1887
1164:lvgl/src/lv_draw/lv_draw_rect.c ****     area_inner.x2 += dsc->outline_pad;
 5144              		.loc 1 1164 19 is_stmt 0 view .LVU1888
 5145 0030 BDF81A00 		ldrh	r0, [sp, #26]
 5146 0034 C01A     		subs	r0, r0, r3
 5147 0036 ADF81A00 		strh	r0, [sp, #26]	@ movhi
1165:lvgl/src/lv_draw/lv_draw_rect.c ****     area_inner.y2 += dsc->outline_pad;
 5148              		.loc 1 1165 5 is_stmt 1 view .LVU1889
1165:lvgl/src/lv_draw/lv_draw_rect.c ****     area_inner.y2 += dsc->outline_pad;
 5149              		.loc 1 1165 19 is_stmt 0 view .LVU1890
 5150 003a BDF81C00 		ldrh	r0, [sp, #28]
 5151 003e 1844     		add	r0, r0, r3
 5152 0040 ADF81C00 		strh	r0, [sp, #28]	@ movhi
1166:lvgl/src/lv_draw/lv_draw_rect.c **** 
 5153              		.loc 1 1166 5 is_stmt 1 view .LVU1891
1166:lvgl/src/lv_draw/lv_draw_rect.c **** 
 5154              		.loc 1 1166 19 is_stmt 0 view .LVU1892
 5155 0044 BDF81E00 		ldrh	r0, [sp, #30]
 5156 0048 0344     		add	r3, r3, r0
 5157 004a ADF81E30 		strh	r3, [sp, #30]	@ movhi
1168:lvgl/src/lv_draw/lv_draw_rect.c ****     lv_area_copy(&area_outer, &area_inner);
 5158              		.loc 1 1168 5 is_stmt 1 view .LVU1893
1169:lvgl/src/lv_draw/lv_draw_rect.c **** 
 5159              		.loc 1 1169 5 view .LVU1894
 5160              	.LVL523:
 5161              	.LBB400:
 5162              	.LBI400:
  97:lvgl/src/lv_draw/../lv_core/../lv_font/../lv_misc/lv_area.h **** {
 5163              		.loc 2 97 20 view .LVU1895
 5164              	.LBB401:
 5165              	.LBB402:
 216:lvgl/src/lv_draw/../lv_core/../lv_font/../lv_misc/lv_mem.h **** 
 5166              		.loc 3 216 21 is_stmt 0 view .LVU1896
 5167 004e 06AC     		add	r4, sp, #24
 5168              	.LVL524:
 215:lvgl/src/lv_draw/../lv_core/../lv_font/../lv_misc/lv_mem.h ****     const uint8_t * s8 = (const uint8_t *)src;
 5169              		.loc 3 215 15 view .LVU1897
 5170 0050 04A8     		add	r0, sp, #16
 5171              	.LVL525:
 215:lvgl/src/lv_draw/../lv_core/../lv_font/../lv_misc/lv_mem.h ****     const uint8_t * s8 = (const uint8_t *)src;
 5172              		.loc 3 215 15 view .LVU1898
 5173              	.LBE402:
 5174              	.LBE401:
 5175              	.LBE400:
1166:lvgl/src/lv_draw/lv_draw_rect.c **** 
 5176              		.loc 1 1166 19 view .LVU1899
 5177 0052 0823     		movs	r3, #8
 5178              	.LVL526:
ARM GAS  D:\Temp\ccGEpo4V.s 			page 153


 5179              	.L238:
 5180              	.LBB405:
 5181              	.LBB404:
 5182              	.LBB403:
 218:lvgl/src/lv_draw/../lv_core/../lv_font/../lv_misc/lv_mem.h ****         *d8 = *s8;
 5183              		.loc 3 218 10 view .LVU1900
 5184 0054 2BB1     		cbz	r3, .L246
 219:lvgl/src/lv_draw/../lv_core/../lv_font/../lv_misc/lv_mem.h ****         d8++;
 5185              		.loc 3 219 9 is_stmt 1 view .LVU1901
 219:lvgl/src/lv_draw/../lv_core/../lv_font/../lv_misc/lv_mem.h ****         d8++;
 5186              		.loc 3 219 15 is_stmt 0 view .LVU1902
 5187 0056 14F8015B 		ldrb	r5, [r4], #1	@ zero_extendqisi2
 5188              	.LVL527:
 219:lvgl/src/lv_draw/../lv_core/../lv_font/../lv_misc/lv_mem.h ****         d8++;
 5189              		.loc 3 219 13 view .LVU1903
 5190 005a 00F8015B 		strb	r5, [r0], #1
 5191              	.LVL528:
 220:lvgl/src/lv_draw/../lv_core/../lv_font/../lv_misc/lv_mem.h ****         s8++;
 5192              		.loc 3 220 9 is_stmt 1 view .LVU1904
 221:lvgl/src/lv_draw/../lv_core/../lv_font/../lv_misc/lv_mem.h ****         len--;
 5193              		.loc 3 221 9 view .LVU1905
 222:lvgl/src/lv_draw/../lv_core/../lv_font/../lv_misc/lv_mem.h ****     }
 5194              		.loc 3 222 9 view .LVU1906
 222:lvgl/src/lv_draw/../lv_core/../lv_font/../lv_misc/lv_mem.h ****     }
 5195              		.loc 3 222 12 is_stmt 0 view .LVU1907
 5196 005e 013B     		subs	r3, r3, #1
 5197              	.LVL529:
 222:lvgl/src/lv_draw/../lv_core/../lv_font/../lv_misc/lv_mem.h ****     }
 5198              		.loc 3 222 12 view .LVU1908
 5199 0060 F8E7     		b	.L238
 5200              	.L246:
 5201              		.loc 3 225 5 is_stmt 1 view .LVU1909
 5202              	.LVL530:
 5203              		.loc 3 225 5 is_stmt 0 view .LVU1910
 5204              	.LBE403:
 5205              	.LBE404:
 5206              	.LBE405:
1171:lvgl/src/lv_draw/lv_draw_rect.c ****     area_outer.x2 += dsc->outline_width;
 5207              		.loc 1 1171 5 is_stmt 1 view .LVU1911
1171:lvgl/src/lv_draw/lv_draw_rect.c ****     area_outer.x2 += dsc->outline_width;
 5208              		.loc 1 1171 25 is_stmt 0 view .LVU1912
 5209 0062 538B     		ldrh	r3, [r2, #26]
1171:lvgl/src/lv_draw/lv_draw_rect.c ****     area_outer.x2 += dsc->outline_width;
 5210              		.loc 1 1171 19 view .LVU1913
 5211 0064 BDF81000 		ldrh	r0, [sp, #16]
 5212 0068 C01A     		subs	r0, r0, r3
 5213 006a ADF81000 		strh	r0, [sp, #16]	@ movhi
1172:lvgl/src/lv_draw/lv_draw_rect.c ****     area_outer.y1 -= dsc->outline_width;
 5214              		.loc 1 1172 5 is_stmt 1 view .LVU1914
1172:lvgl/src/lv_draw/lv_draw_rect.c ****     area_outer.y1 -= dsc->outline_width;
 5215              		.loc 1 1172 19 is_stmt 0 view .LVU1915
 5216 006e BDF81400 		ldrh	r0, [sp, #20]
 5217 0072 1844     		add	r0, r0, r3
 5218 0074 ADF81400 		strh	r0, [sp, #20]	@ movhi
1173:lvgl/src/lv_draw/lv_draw_rect.c ****     area_outer.y2 += dsc->outline_width;
 5219              		.loc 1 1173 5 is_stmt 1 view .LVU1916
1173:lvgl/src/lv_draw/lv_draw_rect.c ****     area_outer.y2 += dsc->outline_width;
ARM GAS  D:\Temp\ccGEpo4V.s 			page 154


 5220              		.loc 1 1173 19 is_stmt 0 view .LVU1917
 5221 0078 BDF81200 		ldrh	r0, [sp, #18]
 5222 007c C01A     		subs	r0, r0, r3
 5223 007e ADF81200 		strh	r0, [sp, #18]	@ movhi
1174:lvgl/src/lv_draw/lv_draw_rect.c **** 
 5224              		.loc 1 1174 5 is_stmt 1 view .LVU1918
1174:lvgl/src/lv_draw/lv_draw_rect.c **** 
 5225              		.loc 1 1174 19 is_stmt 0 view .LVU1919
 5226 0082 BDF81600 		ldrh	r0, [sp, #22]
 5227 0086 0344     		add	r3, r3, r0
 5228 0088 ADF81630 		strh	r3, [sp, #22]	@ movhi
1176:lvgl/src/lv_draw/lv_draw_rect.c ****                      dsc->outline_blend_mode);
 5229              		.loc 1 1176 5 is_stmt 1 view .LVU1920
 5230 008c D37F     		ldrb	r3, [r2, #31]	@ zero_extendqisi2
 5231 008e 0393     		str	r3, [sp, #12]
 5232 0090 937F     		ldrb	r3, [r2, #30]	@ zero_extendqisi2
 5233 0092 0293     		str	r3, [sp, #8]
 5234 0094 138B     		ldrh	r3, [r2, #24]
 5235 0096 ADF80430 		strh	r3, [sp, #4]	@ movhi
 5236 009a 0123     		movs	r3, #1
 5237 009c 0093     		str	r3, [sp]
 5238 009e B2F90030 		ldrsh	r3, [r2]
 5239 00a2 0A46     		mov	r2, r1
 5240              	.LVL531:
1176:lvgl/src/lv_draw/lv_draw_rect.c ****                      dsc->outline_blend_mode);
 5241              		.loc 1 1176 5 is_stmt 0 view .LVU1921
 5242 00a4 04A9     		add	r1, sp, #16
 5243              	.LVL532:
1176:lvgl/src/lv_draw/lv_draw_rect.c ****                      dsc->outline_blend_mode);
 5244              		.loc 1 1176 5 view .LVU1922
 5245 00a6 06A8     		add	r0, sp, #24
 5246 00a8 FFF7FEFF 		bl	draw_full_border
 5247              	.LVL533:
1178:lvgl/src/lv_draw/lv_draw_rect.c **** #endif
 5248              		.loc 1 1178 1 view .LVU1923
 5249 00ac 09B0     		add	sp, sp, #36
 5250              	.LCFI16:
 5251              		.cfi_def_cfa_offset 12
 5252              		@ sp needed
 5253 00ae 30BD     		pop	{r4, r5, pc}
 5254              	.LVL534:
 5255              	.L242:
 5256              	.LCFI17:
 5257              		.cfi_def_cfa_offset 0
 5258              		.cfi_restore 4
 5259              		.cfi_restore 5
 5260              		.cfi_restore 14
1178:lvgl/src/lv_draw/lv_draw_rect.c **** #endif
 5261              		.loc 1 1178 1 view .LVU1924
 5262 00b0 7047     		bx	lr
 5263              		.cfi_endproc
 5264              	.LFE467:
 5266              		.section	.text.draw_border,"ax",%progbits
 5267              		.align	1
 5268              		.syntax unified
 5269              		.thumb
 5270              		.thumb_func
ARM GAS  D:\Temp\ccGEpo4V.s 			page 155


 5271              		.fpu fpv4-sp-d16
 5273              	draw_border:
 5274              	.LVL535:
 5275              	.LFB462:
 388:lvgl/src/lv_draw/lv_draw_rect.c ****     if(dsc->border_opa <= LV_OPA_MIN) return;
 5276              		.loc 1 388 1 is_stmt 1 view -0
 5277              		.cfi_startproc
 5278              		@ args = 0, pretend = 0, frame = 112
 5279              		@ frame_needed = 0, uses_anonymous_args = 0
 389:lvgl/src/lv_draw/lv_draw_rect.c ****     if(dsc->border_width == 0) return;
 5280              		.loc 1 389 5 view .LVU1926
 389:lvgl/src/lv_draw/lv_draw_rect.c ****     if(dsc->border_width == 0) return;
 5281              		.loc 1 389 11 is_stmt 0 view .LVU1927
 5282 0000 137D     		ldrb	r3, [r2, #20]	@ zero_extendqisi2
 389:lvgl/src/lv_draw/lv_draw_rect.c ****     if(dsc->border_width == 0) return;
 5283              		.loc 1 389 7 view .LVU1928
 5284 0002 022B     		cmp	r3, #2
 5285 0004 40F29E81 		bls	.L284
 390:lvgl/src/lv_draw/lv_draw_rect.c ****     if(dsc->border_side == LV_BORDER_SIDE_NONE) return;
 5286              		.loc 1 390 5 is_stmt 1 view .LVU1929
 390:lvgl/src/lv_draw/lv_draw_rect.c ****     if(dsc->border_side == LV_BORDER_SIDE_NONE) return;
 5287              		.loc 1 390 11 is_stmt 0 view .LVU1930
 5288 0008 B2F91030 		ldrsh	r3, [r2, #16]
 390:lvgl/src/lv_draw/lv_draw_rect.c ****     if(dsc->border_side == LV_BORDER_SIDE_NONE) return;
 5289              		.loc 1 390 7 view .LVU1931
 5290 000c 002B     		cmp	r3, #0
 5291 000e 00F09981 		beq	.L284
 391:lvgl/src/lv_draw/lv_draw_rect.c ****     if(dsc->border_post) return;
 5292              		.loc 1 391 5 is_stmt 1 view .LVU1932
 391:lvgl/src/lv_draw/lv_draw_rect.c ****     if(dsc->border_post) return;
 5293              		.loc 1 391 11 is_stmt 0 view .LVU1933
 5294 0012 B2F91230 		ldrsh	r3, [r2, #18]
 391:lvgl/src/lv_draw/lv_draw_rect.c ****     if(dsc->border_post) return;
 5295              		.loc 1 391 7 view .LVU1934
 5296 0016 002B     		cmp	r3, #0
 5297 0018 00F09481 		beq	.L284
 392:lvgl/src/lv_draw/lv_draw_rect.c **** 
 5298              		.loc 1 392 5 is_stmt 1 view .LVU1935
 392:lvgl/src/lv_draw/lv_draw_rect.c **** 
 5299              		.loc 1 392 8 is_stmt 0 view .LVU1936
 5300 001c 937D     		ldrb	r3, [r2, #22]	@ zero_extendqisi2
 392:lvgl/src/lv_draw/lv_draw_rect.c **** 
 5301              		.loc 1 392 7 view .LVU1937
 5302 001e 13F0010F 		tst	r3, #1
 5303 0022 40F08F81 		bne	.L284
 388:lvgl/src/lv_draw/lv_draw_rect.c ****     if(dsc->border_opa <= LV_OPA_MIN) return;
 5304              		.loc 1 388 1 view .LVU1938
 5305 0026 2DE9F04F 		push	{r4, r5, r6, r7, r8, r9, r10, fp, lr}
 5306              	.LCFI18:
 5307              		.cfi_def_cfa_offset 36
 5308              		.cfi_offset 4, -36
 5309              		.cfi_offset 5, -32
 5310              		.cfi_offset 6, -28
 5311              		.cfi_offset 7, -24
 5312              		.cfi_offset 8, -20
 5313              		.cfi_offset 9, -16
 5314              		.cfi_offset 10, -12
ARM GAS  D:\Temp\ccGEpo4V.s 			page 156


 5315              		.cfi_offset 11, -8
 5316              		.cfi_offset 14, -4
 5317 002a A1B0     		sub	sp, sp, #132
 5318              	.LCFI19:
 5319              		.cfi_def_cfa_offset 168
 394:lvgl/src/lv_draw/lv_draw_rect.c ****     int32_t coords_h = lv_area_get_height(coords);
 5320              		.loc 1 394 5 is_stmt 1 view .LVU1939
 5321              	.LVL536:
 5322              	.LBB406:
 5323              	.LBI406:
 107:lvgl/src/lv_draw/../lv_core/../lv_font/../lv_misc/lv_area.h **** {
 5324              		.loc 2 107 26 view .LVU1940
 5325              	.LBB407:
 109:lvgl/src/lv_draw/../lv_core/../lv_font/../lv_misc/lv_area.h **** }
 5326              		.loc 2 109 5 view .LVU1941
 109:lvgl/src/lv_draw/../lv_core/../lv_font/../lv_misc/lv_area.h **** }
 5327              		.loc 2 109 31 is_stmt 0 view .LVU1942
 5328 002c 8488     		ldrh	r4, [r0, #4]
 109:lvgl/src/lv_draw/../lv_core/../lv_font/../lv_misc/lv_area.h **** }
 5329              		.loc 2 109 44 view .LVU1943
 5330 002e 0388     		ldrh	r3, [r0]
 109:lvgl/src/lv_draw/../lv_core/../lv_font/../lv_misc/lv_area.h **** }
 5331              		.loc 2 109 36 view .LVU1944
 5332 0030 E41A     		subs	r4, r4, r3
 5333 0032 A4B2     		uxth	r4, r4
 109:lvgl/src/lv_draw/../lv_core/../lv_font/../lv_misc/lv_area.h **** }
 5334              		.loc 2 109 49 view .LVU1945
 5335 0034 0134     		adds	r4, r4, #1
 109:lvgl/src/lv_draw/../lv_core/../lv_font/../lv_misc/lv_area.h **** }
 5336              		.loc 2 109 12 view .LVU1946
 5337 0036 24B2     		sxth	r4, r4
 5338              	.LVL537:
 109:lvgl/src/lv_draw/../lv_core/../lv_font/../lv_misc/lv_area.h **** }
 5339              		.loc 2 109 12 view .LVU1947
 5340              	.LBE407:
 5341              	.LBE406:
 395:lvgl/src/lv_draw/lv_draw_rect.c **** 
 5342              		.loc 1 395 5 is_stmt 1 view .LVU1948
 5343              	.LBB408:
 5344              	.LBI408:
 117:lvgl/src/lv_draw/../lv_core/../lv_font/../lv_misc/lv_area.h **** {
 5345              		.loc 2 117 26 view .LVU1949
 5346              	.LBB409:
 5347              		.loc 2 119 5 view .LVU1950
 5348              		.loc 2 119 31 is_stmt 0 view .LVU1951
 5349 0038 C388     		ldrh	r3, [r0, #6]
 5350              		.loc 2 119 44 view .LVU1952
 5351 003a 4588     		ldrh	r5, [r0, #2]
 5352              		.loc 2 119 36 view .LVU1953
 5353 003c 5B1B     		subs	r3, r3, r5
 5354 003e 9BB2     		uxth	r3, r3
 5355              		.loc 2 119 49 view .LVU1954
 5356 0040 0133     		adds	r3, r3, #1
 5357              		.loc 2 119 12 view .LVU1955
 5358 0042 1BB2     		sxth	r3, r3
 5359              	.LVL538:
 5360              		.loc 2 119 12 view .LVU1956
ARM GAS  D:\Temp\ccGEpo4V.s 			page 157


 5361              	.LBE409:
 5362              	.LBE408:
 398:lvgl/src/lv_draw/lv_draw_rect.c ****     int32_t short_side = LV_MATH_MIN(coords_w, coords_h);
 5363              		.loc 1 398 5 is_stmt 1 view .LVU1957
 398:lvgl/src/lv_draw/lv_draw_rect.c ****     int32_t short_side = LV_MATH_MIN(coords_w, coords_h);
 5364              		.loc 1 398 23 is_stmt 0 view .LVU1958
 5365 0044 B2F90050 		ldrsh	r5, [r2]
 5366              	.LVL539:
 399:lvgl/src/lv_draw/lv_draw_rect.c ****     if(rout > short_side >> 1) rout = short_side >> 1;
 5367              		.loc 1 399 5 is_stmt 1 view .LVU1959
 399:lvgl/src/lv_draw/lv_draw_rect.c ****     if(rout > short_side >> 1) rout = short_side >> 1;
 5368              		.loc 1 399 13 is_stmt 0 view .LVU1960
 5369 0048 9C42     		cmp	r4, r3
 5370 004a A8BF     		it	ge
 5371 004c 1C46     		movge	r4, r3
 5372              	.LVL540:
 400:lvgl/src/lv_draw/lv_draw_rect.c **** 
 5373              		.loc 1 400 5 is_stmt 1 view .LVU1961
 400:lvgl/src/lv_draw/lv_draw_rect.c **** 
 5374              		.loc 1 400 26 is_stmt 0 view .LVU1962
 5375 004e 6410     		asrs	r4, r4, #1
 5376              	.LVL541:
 400:lvgl/src/lv_draw/lv_draw_rect.c **** 
 5377              		.loc 1 400 7 view .LVU1963
 5378 0050 AC42     		cmp	r4, r5
 5379              	.LVL542:
 400:lvgl/src/lv_draw/lv_draw_rect.c **** 
 5380              		.loc 1 400 7 view .LVU1964
 5381 0052 00DB     		blt	.L249
 398:lvgl/src/lv_draw/lv_draw_rect.c ****     int32_t short_side = LV_MATH_MIN(coords_w, coords_h);
 5382              		.loc 1 398 13 view .LVU1965
 5383 0054 2C46     		mov	r4, r5
 5384              	.L249:
 5385              	.LVL543:
 403:lvgl/src/lv_draw/lv_draw_rect.c ****     lv_area_copy(&area_inner, coords);
 5386              		.loc 1 403 5 is_stmt 1 view .LVU1966
 404:lvgl/src/lv_draw/lv_draw_rect.c ****     area_inner.x1 += ((dsc->border_side & LV_BORDER_SIDE_LEFT) ? dsc->border_width : - (dsc->border
 5387              		.loc 1 404 5 view .LVU1967
 5388              	.LBB410:
 5389              	.LBI410:
  97:lvgl/src/lv_draw/../lv_core/../lv_font/../lv_misc/lv_area.h **** {
 5390              		.loc 2 97 20 view .LVU1968
 5391              	.LBE410:
  99:lvgl/src/lv_draw/../lv_core/../lv_font/../lv_misc/lv_area.h **** }
 5392              		.loc 2 99 5 view .LVU1969
 5393              	.LBB413:
 5394              	.LBB411:
 5395              	.LBI411:
 213:lvgl/src/lv_draw/../lv_core/../lv_font/../lv_misc/lv_mem.h **** {
 5396              		.loc 3 213 44 view .LVU1970
 5397              	.LBB412:
 215:lvgl/src/lv_draw/../lv_core/../lv_font/../lv_misc/lv_mem.h ****     const uint8_t * s8 = (const uint8_t *)src;
 5398              		.loc 3 215 5 view .LVU1971
 216:lvgl/src/lv_draw/../lv_core/../lv_font/../lv_misc/lv_mem.h **** 
 5399              		.loc 3 216 5 view .LVU1972
 218:lvgl/src/lv_draw/../lv_core/../lv_font/../lv_misc/lv_mem.h ****         *d8 = *s8;
 5400              		.loc 3 218 5 view .LVU1973
ARM GAS  D:\Temp\ccGEpo4V.s 			page 158


 216:lvgl/src/lv_draw/../lv_core/../lv_font/../lv_misc/lv_mem.h **** 
 5401              		.loc 3 216 21 is_stmt 0 view .LVU1974
 5402 0056 0746     		mov	r7, r0
 215:lvgl/src/lv_draw/../lv_core/../lv_font/../lv_misc/lv_mem.h ****     const uint8_t * s8 = (const uint8_t *)src;
 5403              		.loc 3 215 15 view .LVU1975
 5404 0058 1EAE     		add	r6, sp, #120
 5405              	.LVL544:
 215:lvgl/src/lv_draw/../lv_core/../lv_font/../lv_misc/lv_mem.h ****     const uint8_t * s8 = (const uint8_t *)src;
 5406              		.loc 3 215 15 view .LVU1976
 5407 005a 0823     		movs	r3, #8
 5408              	.LVL545:
 5409              	.L250:
 218:lvgl/src/lv_draw/../lv_core/../lv_font/../lv_misc/lv_mem.h ****         *d8 = *s8;
 5410              		.loc 3 218 10 view .LVU1977
 5411 005c 2BB1     		cbz	r3, .L287
 219:lvgl/src/lv_draw/../lv_core/../lv_font/../lv_misc/lv_mem.h ****         d8++;
 5412              		.loc 3 219 9 is_stmt 1 view .LVU1978
 219:lvgl/src/lv_draw/../lv_core/../lv_font/../lv_misc/lv_mem.h ****         d8++;
 5413              		.loc 3 219 15 is_stmt 0 view .LVU1979
 5414 005e 17F8015B 		ldrb	r5, [r7], #1	@ zero_extendqisi2
 5415              	.LVL546:
 219:lvgl/src/lv_draw/../lv_core/../lv_font/../lv_misc/lv_mem.h ****         d8++;
 5416              		.loc 3 219 13 view .LVU1980
 5417 0062 06F8015B 		strb	r5, [r6], #1
 5418              	.LVL547:
 220:lvgl/src/lv_draw/../lv_core/../lv_font/../lv_misc/lv_mem.h ****         s8++;
 5419              		.loc 3 220 9 is_stmt 1 view .LVU1981
 221:lvgl/src/lv_draw/../lv_core/../lv_font/../lv_misc/lv_mem.h ****         len--;
 5420              		.loc 3 221 9 view .LVU1982
 222:lvgl/src/lv_draw/../lv_core/../lv_font/../lv_misc/lv_mem.h ****     }
 5421              		.loc 3 222 9 view .LVU1983
 222:lvgl/src/lv_draw/../lv_core/../lv_font/../lv_misc/lv_mem.h ****     }
 5422              		.loc 3 222 12 is_stmt 0 view .LVU1984
 5423 0066 013B     		subs	r3, r3, #1
 5424              	.LVL548:
 222:lvgl/src/lv_draw/../lv_core/../lv_font/../lv_misc/lv_mem.h ****     }
 5425              		.loc 3 222 12 view .LVU1985
 5426 0068 F8E7     		b	.L250
 5427              	.L287:
 5428              		.loc 3 225 5 is_stmt 1 view .LVU1986
 5429              	.LVL549:
 5430              		.loc 3 225 5 is_stmt 0 view .LVU1987
 5431              	.LBE412:
 5432              	.LBE411:
 5433              	.LBE413:
 405:lvgl/src/lv_draw/lv_draw_rect.c ****     area_inner.x2 -= ((dsc->border_side & LV_BORDER_SIDE_RIGHT) ? dsc->border_width : - (dsc->borde
 5434              		.loc 1 405 5 is_stmt 1 view .LVU1988
 405:lvgl/src/lv_draw/lv_draw_rect.c ****     area_inner.x2 -= ((dsc->border_side & LV_BORDER_SIDE_RIGHT) ? dsc->border_width : - (dsc->borde
 5435              		.loc 1 405 19 is_stmt 0 view .LVU1989
 5436 006a BDF87860 		ldrh	r6, [sp, #120]
 405:lvgl/src/lv_draw/lv_draw_rect.c ****     area_inner.x2 -= ((dsc->border_side & LV_BORDER_SIDE_RIGHT) ? dsc->border_width : - (dsc->borde
 5437              		.loc 1 405 27 view .LVU1990
 5438 006e B2F91270 		ldrsh	r7, [r2, #18]
 405:lvgl/src/lv_draw/lv_draw_rect.c ****     area_inner.x2 -= ((dsc->border_side & LV_BORDER_SIDE_RIGHT) ? dsc->border_width : - (dsc->borde
 5439              		.loc 1 405 41 view .LVU1991
 5440 0072 BDB2     		uxth	r5, r7
 405:lvgl/src/lv_draw/lv_draw_rect.c ****     area_inner.x2 -= ((dsc->border_side & LV_BORDER_SIDE_RIGHT) ? dsc->border_width : - (dsc->borde
ARM GAS  D:\Temp\ccGEpo4V.s 			page 159


 5441              		.loc 1 405 19 view .LVU1992
 5442 0074 15F0040F 		tst	r5, #4
 5443 0078 40D0     		beq	.L252
 405:lvgl/src/lv_draw/lv_draw_rect.c ****     area_inner.x2 -= ((dsc->border_side & LV_BORDER_SIDE_RIGHT) ? dsc->border_width : - (dsc->borde
 5444              		.loc 1 405 69 discriminator 1 view .LVU1993
 5445 007a B2F91030 		ldrsh	r3, [r2, #16]
 405:lvgl/src/lv_draw/lv_draw_rect.c ****     area_inner.x2 -= ((dsc->border_side & LV_BORDER_SIDE_RIGHT) ? dsc->border_width : - (dsc->borde
 5446              		.loc 1 405 19 discriminator 1 view .LVU1994
 5447 007e 9BB2     		uxth	r3, r3
 5448              	.L253:
 405:lvgl/src/lv_draw/lv_draw_rect.c ****     area_inner.x2 -= ((dsc->border_side & LV_BORDER_SIDE_RIGHT) ? dsc->border_width : - (dsc->borde
 5449              		.loc 1 405 19 discriminator 4 view .LVU1995
 5450 0080 3344     		add	r3, r3, r6
 5451 0082 ADF87830 		strh	r3, [sp, #120]	@ movhi
 406:lvgl/src/lv_draw/lv_draw_rect.c ****     area_inner.y1 += ((dsc->border_side & LV_BORDER_SIDE_TOP) ? dsc->border_width : - (dsc->border_
 5452              		.loc 1 406 5 is_stmt 1 discriminator 4 view .LVU1996
 406:lvgl/src/lv_draw/lv_draw_rect.c ****     area_inner.y1 += ((dsc->border_side & LV_BORDER_SIDE_TOP) ? dsc->border_width : - (dsc->border_
 5453              		.loc 1 406 19 is_stmt 0 discriminator 4 view .LVU1997
 5454 0086 BDF87C60 		ldrh	r6, [sp, #124]
 5455 008a 15F0080F 		tst	r5, #8
 5456 008e 3BD0     		beq	.L254
 406:lvgl/src/lv_draw/lv_draw_rect.c ****     area_inner.y1 += ((dsc->border_side & LV_BORDER_SIDE_TOP) ? dsc->border_width : - (dsc->border_
 5457              		.loc 1 406 70 discriminator 1 view .LVU1998
 5458 0090 B2F91030 		ldrsh	r3, [r2, #16]
 406:lvgl/src/lv_draw/lv_draw_rect.c ****     area_inner.y1 += ((dsc->border_side & LV_BORDER_SIDE_TOP) ? dsc->border_width : - (dsc->border_
 5459              		.loc 1 406 19 discriminator 1 view .LVU1999
 5460 0094 9BB2     		uxth	r3, r3
 5461              	.L255:
 406:lvgl/src/lv_draw/lv_draw_rect.c ****     area_inner.y1 += ((dsc->border_side & LV_BORDER_SIDE_TOP) ? dsc->border_width : - (dsc->border_
 5462              		.loc 1 406 19 discriminator 4 view .LVU2000
 5463 0096 F31A     		subs	r3, r6, r3
 5464 0098 ADF87C30 		strh	r3, [sp, #124]	@ movhi
 407:lvgl/src/lv_draw/lv_draw_rect.c ****     area_inner.y2 -= ((dsc->border_side & LV_BORDER_SIDE_BOTTOM) ? dsc->border_width : - (dsc->bord
 5465              		.loc 1 407 5 is_stmt 1 discriminator 4 view .LVU2001
 407:lvgl/src/lv_draw/lv_draw_rect.c ****     area_inner.y2 -= ((dsc->border_side & LV_BORDER_SIDE_BOTTOM) ? dsc->border_width : - (dsc->bord
 5466              		.loc 1 407 19 is_stmt 0 discriminator 4 view .LVU2002
 5467 009c BDF87A60 		ldrh	r6, [sp, #122]
 5468 00a0 15F0020F 		tst	r5, #2
 5469 00a4 36D0     		beq	.L256
 407:lvgl/src/lv_draw/lv_draw_rect.c ****     area_inner.y2 -= ((dsc->border_side & LV_BORDER_SIDE_BOTTOM) ? dsc->border_width : - (dsc->bord
 5470              		.loc 1 407 68 discriminator 1 view .LVU2003
 5471 00a6 B2F91030 		ldrsh	r3, [r2, #16]
 407:lvgl/src/lv_draw/lv_draw_rect.c ****     area_inner.y2 -= ((dsc->border_side & LV_BORDER_SIDE_BOTTOM) ? dsc->border_width : - (dsc->bord
 5472              		.loc 1 407 19 discriminator 1 view .LVU2004
 5473 00aa 9BB2     		uxth	r3, r3
 5474              	.L257:
 407:lvgl/src/lv_draw/lv_draw_rect.c ****     area_inner.y2 -= ((dsc->border_side & LV_BORDER_SIDE_BOTTOM) ? dsc->border_width : - (dsc->bord
 5475              		.loc 1 407 19 discriminator 4 view .LVU2005
 5476 00ac 3344     		add	r3, r3, r6
 5477 00ae ADF87A30 		strh	r3, [sp, #122]	@ movhi
 408:lvgl/src/lv_draw/lv_draw_rect.c **** 
 5478              		.loc 1 408 5 is_stmt 1 discriminator 4 view .LVU2006
 408:lvgl/src/lv_draw/lv_draw_rect.c **** 
 5479              		.loc 1 408 19 is_stmt 0 discriminator 4 view .LVU2007
 5480 00b2 BDF87E60 		ldrh	r6, [sp, #126]
 5481 00b6 15F0010F 		tst	r5, #1
 5482 00ba 31D0     		beq	.L258
ARM GAS  D:\Temp\ccGEpo4V.s 			page 160


 408:lvgl/src/lv_draw/lv_draw_rect.c **** 
 5483              		.loc 1 408 71 discriminator 1 view .LVU2008
 5484 00bc B2F91030 		ldrsh	r3, [r2, #16]
 408:lvgl/src/lv_draw/lv_draw_rect.c **** 
 5485              		.loc 1 408 19 discriminator 1 view .LVU2009
 5486 00c0 9BB2     		uxth	r3, r3
 5487              	.L259:
 408:lvgl/src/lv_draw/lv_draw_rect.c **** 
 5488              		.loc 1 408 19 discriminator 1 view .LVU2010
 5489 00c2 9246     		mov	r10, r2
 5490 00c4 0491     		str	r1, [sp, #16]
 5491 00c6 0546     		mov	r5, r0
 408:lvgl/src/lv_draw/lv_draw_rect.c **** 
 5492              		.loc 1 408 19 discriminator 4 view .LVU2011
 5493 00c8 F31A     		subs	r3, r6, r3
 5494 00ca ADF87E30 		strh	r3, [sp, #126]	@ movhi
 410:lvgl/src/lv_draw/lv_draw_rect.c ****         draw_full_border(&area_inner, coords, clip, dsc->radius, false, dsc->border_color, dsc->bor
 5495              		.loc 1 410 5 is_stmt 1 discriminator 4 view .LVU2012
 410:lvgl/src/lv_draw/lv_draw_rect.c ****         draw_full_border(&area_inner, coords, clip, dsc->radius, false, dsc->border_color, dsc->bor
 5496              		.loc 1 410 7 is_stmt 0 discriminator 4 view .LVU2013
 5497 00ce 0F2F     		cmp	r7, #15
 5498 00d0 2CD0     		beq	.L288
 5499              	.LBB414:
 415:lvgl/src/lv_draw/lv_draw_rect.c ****         if(opa > LV_OPA_MAX) opa = LV_OPA_COVER;
 5500              		.loc 1 415 9 is_stmt 1 view .LVU2014
 415:lvgl/src/lv_draw/lv_draw_rect.c ****         if(opa > LV_OPA_MAX) opa = LV_OPA_COVER;
 5501              		.loc 1 415 18 is_stmt 0 view .LVU2015
 5502 00d2 92F81490 		ldrb	r9, [r2, #20]	@ zero_extendqisi2
 5503              	.LVL550:
 416:lvgl/src/lv_draw/lv_draw_rect.c **** 
 5504              		.loc 1 416 9 is_stmt 1 view .LVU2016
 416:lvgl/src/lv_draw/lv_draw_rect.c **** 
 5505              		.loc 1 416 11 is_stmt 0 view .LVU2017
 5506 00d6 B9F1FD0F 		cmp	r9, #253
 5507 00da 01D9     		bls	.L262
 416:lvgl/src/lv_draw/lv_draw_rect.c **** 
 5508              		.loc 1 416 34 view .LVU2018
 5509 00dc 4FF0FF09 		mov	r9, #255
 5510              	.LVL551:
 5511              	.L262:
 418:lvgl/src/lv_draw/lv_draw_rect.c ****         lv_disp_buf_t * vdb = lv_disp_get_buf(disp);
 5512              		.loc 1 418 9 is_stmt 1 view .LVU2019
 418:lvgl/src/lv_draw/lv_draw_rect.c ****         lv_disp_buf_t * vdb = lv_disp_get_buf(disp);
 5513              		.loc 1 418 31 is_stmt 0 view .LVU2020
 5514 00e0 FFF7FEFF 		bl	_lv_refr_get_disp_refreshing
 5515              	.LVL552:
 419:lvgl/src/lv_draw/lv_draw_rect.c **** 
 5516              		.loc 1 419 9 is_stmt 1 view .LVU2021
 419:lvgl/src/lv_draw/lv_draw_rect.c **** 
 5517              		.loc 1 419 31 is_stmt 0 view .LVU2022
 5518 00e4 FFF7FEFF 		bl	lv_disp_get_buf
 5519              	.LVL553:
 419:lvgl/src/lv_draw/lv_draw_rect.c **** 
 5520              		.loc 1 419 31 view .LVU2023
 5521 00e8 8046     		mov	r8, r0
 5522              	.LVL554:
 423:lvgl/src/lv_draw/lv_draw_rect.c ****         bool is_common;
ARM GAS  D:\Temp\ccGEpo4V.s 			page 161


 5523              		.loc 1 423 9 is_stmt 1 view .LVU2024
 424:lvgl/src/lv_draw/lv_draw_rect.c ****         is_common = _lv_area_intersect(&draw_area, coords, clip);
 5524              		.loc 1 424 9 view .LVU2025
 425:lvgl/src/lv_draw/lv_draw_rect.c ****         if(is_common == false) return;
 5525              		.loc 1 425 9 view .LVU2026
 425:lvgl/src/lv_draw/lv_draw_rect.c ****         if(is_common == false) return;
 5526              		.loc 1 425 21 is_stmt 0 view .LVU2027
 5527 00ea 049A     		ldr	r2, [sp, #16]
 5528 00ec 2946     		mov	r1, r5
 5529 00ee 0CA8     		add	r0, sp, #48
 5530              	.LVL555:
 425:lvgl/src/lv_draw/lv_draw_rect.c ****         if(is_common == false) return;
 5531              		.loc 1 425 21 view .LVU2028
 5532 00f0 FFF7FEFF 		bl	_lv_area_intersect
 5533              	.LVL556:
 426:lvgl/src/lv_draw/lv_draw_rect.c **** 
 5534              		.loc 1 426 9 is_stmt 1 view .LVU2029
 426:lvgl/src/lv_draw/lv_draw_rect.c **** 
 5535              		.loc 1 426 11 is_stmt 0 view .LVU2030
 5536 00f4 58BB     		cbnz	r0, .L289
 5537              	.LVL557:
 5538              	.L247:
 426:lvgl/src/lv_draw/lv_draw_rect.c **** 
 5539              		.loc 1 426 11 view .LVU2031
 5540              	.LBE414:
 505:lvgl/src/lv_draw/lv_draw_rect.c **** 
 5541              		.loc 1 505 1 view .LVU2032
 5542 00f6 21B0     		add	sp, sp, #132
 5543              	.LCFI20:
 5544              		.cfi_remember_state
 5545              		.cfi_def_cfa_offset 36
 5546              		@ sp needed
 5547 00f8 BDE8F08F 		pop	{r4, r5, r6, r7, r8, r9, r10, fp, pc}
 5548              	.LVL558:
 5549              	.L252:
 5550              	.LCFI21:
 5551              		.cfi_restore_state
 405:lvgl/src/lv_draw/lv_draw_rect.c ****     area_inner.x2 -= ((dsc->border_side & LV_BORDER_SIDE_RIGHT) ? dsc->border_width : - (dsc->borde
 5552              		.loc 1 405 92 discriminator 2 view .LVU2033
 5553 00fc 138A     		ldrh	r3, [r2, #16]
 405:lvgl/src/lv_draw/lv_draw_rect.c ****     area_inner.x2 -= ((dsc->border_side & LV_BORDER_SIDE_RIGHT) ? dsc->border_width : - (dsc->borde
 5554              		.loc 1 405 107 discriminator 2 view .LVU2034
 5555 00fe 2344     		add	r3, r3, r4
 5556 0100 9BB2     		uxth	r3, r3
 405:lvgl/src/lv_draw/lv_draw_rect.c ****     area_inner.x2 -= ((dsc->border_side & LV_BORDER_SIDE_RIGHT) ? dsc->border_width : - (dsc->borde
 5557              		.loc 1 405 19 discriminator 2 view .LVU2035
 5558 0102 5B42     		rsbs	r3, r3, #0
 5559 0104 9BB2     		uxth	r3, r3
 5560 0106 BBE7     		b	.L253
 5561              	.L254:
 406:lvgl/src/lv_draw/lv_draw_rect.c ****     area_inner.y1 += ((dsc->border_side & LV_BORDER_SIDE_TOP) ? dsc->border_width : - (dsc->border_
 5562              		.loc 1 406 93 discriminator 2 view .LVU2036
 5563 0108 138A     		ldrh	r3, [r2, #16]
 406:lvgl/src/lv_draw/lv_draw_rect.c ****     area_inner.y1 += ((dsc->border_side & LV_BORDER_SIDE_TOP) ? dsc->border_width : - (dsc->border_
 5564              		.loc 1 406 108 discriminator 2 view .LVU2037
 5565 010a 2344     		add	r3, r3, r4
 5566 010c 9BB2     		uxth	r3, r3
ARM GAS  D:\Temp\ccGEpo4V.s 			page 162


 406:lvgl/src/lv_draw/lv_draw_rect.c ****     area_inner.y1 += ((dsc->border_side & LV_BORDER_SIDE_TOP) ? dsc->border_width : - (dsc->border_
 5567              		.loc 1 406 19 discriminator 2 view .LVU2038
 5568 010e 5B42     		rsbs	r3, r3, #0
 5569 0110 9BB2     		uxth	r3, r3
 5570 0112 C0E7     		b	.L255
 5571              	.L256:
 407:lvgl/src/lv_draw/lv_draw_rect.c ****     area_inner.y2 -= ((dsc->border_side & LV_BORDER_SIDE_BOTTOM) ? dsc->border_width : - (dsc->bord
 5572              		.loc 1 407 91 discriminator 2 view .LVU2039
 5573 0114 138A     		ldrh	r3, [r2, #16]
 407:lvgl/src/lv_draw/lv_draw_rect.c ****     area_inner.y2 -= ((dsc->border_side & LV_BORDER_SIDE_BOTTOM) ? dsc->border_width : - (dsc->bord
 5574              		.loc 1 407 106 discriminator 2 view .LVU2040
 5575 0116 2344     		add	r3, r3, r4
 5576 0118 9BB2     		uxth	r3, r3
 407:lvgl/src/lv_draw/lv_draw_rect.c ****     area_inner.y2 -= ((dsc->border_side & LV_BORDER_SIDE_BOTTOM) ? dsc->border_width : - (dsc->bord
 5577              		.loc 1 407 19 discriminator 2 view .LVU2041
 5578 011a 5B42     		rsbs	r3, r3, #0
 5579 011c 9BB2     		uxth	r3, r3
 5580 011e C5E7     		b	.L257
 5581              	.L258:
 408:lvgl/src/lv_draw/lv_draw_rect.c **** 
 5582              		.loc 1 408 94 discriminator 2 view .LVU2042
 5583 0120 138A     		ldrh	r3, [r2, #16]
 408:lvgl/src/lv_draw/lv_draw_rect.c **** 
 5584              		.loc 1 408 109 discriminator 2 view .LVU2043
 5585 0122 2344     		add	r3, r3, r4
 5586 0124 9BB2     		uxth	r3, r3
 408:lvgl/src/lv_draw/lv_draw_rect.c **** 
 5587              		.loc 1 408 19 discriminator 2 view .LVU2044
 5588 0126 5B42     		rsbs	r3, r3, #0
 5589 0128 9BB2     		uxth	r3, r3
 5590 012a CAE7     		b	.L259
 5591              	.L288:
 411:lvgl/src/lv_draw/lv_draw_rect.c ****                          dsc->border_blend_mode);
 5592              		.loc 1 411 9 is_stmt 1 view .LVU2045
 5593 012c 537D     		ldrb	r3, [r2, #21]	@ zero_extendqisi2
 5594 012e 0393     		str	r3, [sp, #12]
 5595 0130 137D     		ldrb	r3, [r2, #20]	@ zero_extendqisi2
 5596 0132 0293     		str	r3, [sp, #8]
 5597 0134 D389     		ldrh	r3, [r2, #14]
 5598 0136 ADF80430 		strh	r3, [sp, #4]	@ movhi
 5599 013a 0023     		movs	r3, #0
 5600 013c 0093     		str	r3, [sp]
 5601 013e B2F90030 		ldrsh	r3, [r2]
 5602 0142 0A46     		mov	r2, r1
 5603              	.LVL559:
 411:lvgl/src/lv_draw/lv_draw_rect.c ****                          dsc->border_blend_mode);
 5604              		.loc 1 411 9 is_stmt 0 view .LVU2046
 5605 0144 0146     		mov	r1, r0
 5606              	.LVL560:
 411:lvgl/src/lv_draw/lv_draw_rect.c ****                          dsc->border_blend_mode);
 5607              		.loc 1 411 9 view .LVU2047
 5608 0146 1EA8     		add	r0, sp, #120
 5609              	.LVL561:
 411:lvgl/src/lv_draw/lv_draw_rect.c ****                          dsc->border_blend_mode);
 5610              		.loc 1 411 9 view .LVU2048
 5611 0148 FFF7FEFF 		bl	draw_full_border
 5612              	.LVL562:
ARM GAS  D:\Temp\ccGEpo4V.s 			page 163


 5613 014c D3E7     		b	.L247
 5614              	.LVL563:
 5615              	.L289:
 5616              	.LBB417:
 428:lvgl/src/lv_draw/lv_draw_rect.c **** 
 5617              		.loc 1 428 9 is_stmt 1 view .LVU2049
 432:lvgl/src/lv_draw/lv_draw_rect.c ****         draw_area.y1 -= disp_area->y1;
 5618              		.loc 1 432 9 view .LVU2050
 432:lvgl/src/lv_draw/lv_draw_rect.c ****         draw_area.y1 -= disp_area->y1;
 5619              		.loc 1 432 34 is_stmt 0 view .LVU2051
 5620 014e B8F81010 		ldrh	r1, [r8, #16]
 432:lvgl/src/lv_draw/lv_draw_rect.c ****         draw_area.y1 -= disp_area->y1;
 5621              		.loc 1 432 22 view .LVU2052
 5622 0152 BDF83020 		ldrh	r2, [sp, #48]
 5623 0156 531A     		subs	r3, r2, r1
 5624 0158 9AB2     		uxth	r2, r3
 5625 015a ADF83020 		strh	r2, [sp, #48]	@ movhi
 433:lvgl/src/lv_draw/lv_draw_rect.c ****         draw_area.x2 -= disp_area->x1;
 5626              		.loc 1 433 9 is_stmt 1 view .LVU2053
 433:lvgl/src/lv_draw/lv_draw_rect.c ****         draw_area.x2 -= disp_area->x1;
 5627              		.loc 1 433 34 is_stmt 0 view .LVU2054
 5628 015e B8F81260 		ldrh	r6, [r8, #18]
 433:lvgl/src/lv_draw/lv_draw_rect.c ****         draw_area.x2 -= disp_area->x1;
 5629              		.loc 1 433 22 view .LVU2055
 5630 0162 BDF83200 		ldrh	r0, [sp, #50]
 5631              	.LVL564:
 433:lvgl/src/lv_draw/lv_draw_rect.c ****         draw_area.x2 -= disp_area->x1;
 5632              		.loc 1 433 22 view .LVU2056
 5633 0166 801B     		subs	r0, r0, r6
 5634 0168 ADF83200 		strh	r0, [sp, #50]	@ movhi
 434:lvgl/src/lv_draw/lv_draw_rect.c ****         draw_area.y2 -= disp_area->y1;
 5635              		.loc 1 434 9 is_stmt 1 view .LVU2057
 434:lvgl/src/lv_draw/lv_draw_rect.c ****         draw_area.y2 -= disp_area->y1;
 5636              		.loc 1 434 22 is_stmt 0 view .LVU2058
 5637 016c BDF83430 		ldrh	r3, [sp, #52]
 5638 0170 5B1A     		subs	r3, r3, r1
 5639 0172 9BB2     		uxth	r3, r3
 5640 0174 ADF83430 		strh	r3, [sp, #52]	@ movhi
 435:lvgl/src/lv_draw/lv_draw_rect.c **** 
 5641              		.loc 1 435 9 is_stmt 1 view .LVU2059
 435:lvgl/src/lv_draw/lv_draw_rect.c **** 
 5642              		.loc 1 435 22 is_stmt 0 view .LVU2060
 5643 0178 BDF83610 		ldrh	r1, [sp, #54]
 5644 017c 891B     		subs	r1, r1, r6
 5645 017e ADF83610 		strh	r1, [sp, #54]	@ movhi
 437:lvgl/src/lv_draw/lv_draw_rect.c **** 
 5646              		.loc 1 437 9 is_stmt 1 view .LVU2061
 5647              	.LVL565:
 5648              	.LBB415:
 5649              	.LBI415:
 107:lvgl/src/lv_draw/../lv_core/../lv_font/../lv_misc/lv_area.h **** {
 5650              		.loc 2 107 26 view .LVU2062
 5651              	.LBB416:
 109:lvgl/src/lv_draw/../lv_core/../lv_font/../lv_misc/lv_area.h **** }
 5652              		.loc 2 109 5 view .LVU2063
 109:lvgl/src/lv_draw/../lv_core/../lv_font/../lv_misc/lv_area.h **** }
 5653              		.loc 2 109 36 is_stmt 0 view .LVU2064
ARM GAS  D:\Temp\ccGEpo4V.s 			page 164


 5654 0182 9B1A     		subs	r3, r3, r2
 5655 0184 9BB2     		uxth	r3, r3
 109:lvgl/src/lv_draw/../lv_core/../lv_font/../lv_misc/lv_area.h **** }
 5656              		.loc 2 109 49 view .LVU2065
 5657 0186 0133     		adds	r3, r3, #1
 109:lvgl/src/lv_draw/../lv_core/../lv_font/../lv_misc/lv_area.h **** }
 5658              		.loc 2 109 12 view .LVU2066
 5659 0188 18B2     		sxth	r0, r3
 5660 018a 0690     		str	r0, [sp, #24]
 5661              	.LVL566:
 109:lvgl/src/lv_draw/../lv_core/../lv_font/../lv_misc/lv_area.h **** }
 5662              		.loc 2 109 12 view .LVU2067
 5663              	.LBE416:
 5664              	.LBE415:
 440:lvgl/src/lv_draw/lv_draw_rect.c **** 
 5665              		.loc 1 440 9 is_stmt 1 view .LVU2068
 440:lvgl/src/lv_draw/lv_draw_rect.c **** 
 5666              		.loc 1 440 31 is_stmt 0 view .LVU2069
 5667 018c 0590     		str	r0, [sp, #20]
 5668 018e FFF7FEFF 		bl	_lv_mem_buf_get
 5669              	.LVL567:
 440:lvgl/src/lv_draw/lv_draw_rect.c **** 
 5670              		.loc 1 440 31 view .LVU2070
 5671 0192 0746     		mov	r7, r0
 5672              	.LVL568:
 443:lvgl/src/lv_draw/lv_draw_rect.c ****         lv_draw_mask_radius_param_t mask_rout_param;
 5673              		.loc 1 443 9 is_stmt 1 view .LVU2071
 444:lvgl/src/lv_draw/lv_draw_rect.c ****         if(rout > 0) {
 5674              		.loc 1 444 9 view .LVU2072
 445:lvgl/src/lv_draw/lv_draw_rect.c ****             lv_draw_mask_radius_init(&mask_rout_param, coords, rout, false);
 5675              		.loc 1 445 9 view .LVU2073
 445:lvgl/src/lv_draw/lv_draw_rect.c ****             lv_draw_mask_radius_init(&mask_rout_param, coords, rout, false);
 5676              		.loc 1 445 11 is_stmt 0 view .LVU2074
 5677 0194 002C     		cmp	r4, #0
 5678 0196 4ADC     		bgt	.L290
 443:lvgl/src/lv_draw/lv_draw_rect.c ****         lv_draw_mask_radius_param_t mask_rout_param;
 5679              		.loc 1 443 17 view .LVU2075
 5680 0198 4FF0FF33 		mov	r3, #-1
 5681 019c 0893     		str	r3, [sp, #32]
 5682              	.LVL569:
 5683              	.L264:
 451:lvgl/src/lv_draw/lv_draw_rect.c ****         if(rin < 0) rin = 0;
 5684              		.loc 1 451 9 is_stmt 1 view .LVU2076
 451:lvgl/src/lv_draw/lv_draw_rect.c ****         if(rin < 0) rin = 0;
 5685              		.loc 1 451 33 is_stmt 0 view .LVU2077
 5686 019e BAF91020 		ldrsh	r2, [r10, #16]
 5687              	.LVL570:
 452:lvgl/src/lv_draw/lv_draw_rect.c ****         lv_draw_mask_radius_param_t mask_rin_param;
 5688              		.loc 1 452 9 is_stmt 1 view .LVU2078
 453:lvgl/src/lv_draw/lv_draw_rect.c ****         lv_draw_mask_radius_init(&mask_rin_param, &area_inner, rout - dsc->border_width, true);
 5689              		.loc 1 453 9 view .LVU2079
 454:lvgl/src/lv_draw/lv_draw_rect.c ****         int16_t mask_rin_id = lv_draw_mask_add(&mask_rin_param, NULL);
 5690              		.loc 1 454 9 view .LVU2080
 454:lvgl/src/lv_draw/lv_draw_rect.c ****         int16_t mask_rin_id = lv_draw_mask_add(&mask_rin_param, NULL);
 5691              		.loc 1 454 74 is_stmt 0 view .LVU2081
 5692 01a2 92B2     		uxth	r2, r2
 454:lvgl/src/lv_draw/lv_draw_rect.c ****         int16_t mask_rin_id = lv_draw_mask_add(&mask_rin_param, NULL);
ARM GAS  D:\Temp\ccGEpo4V.s 			page 165


 5693              		.loc 1 454 69 view .LVU2082
 5694 01a4 A21A     		subs	r2, r4, r2
 5695              	.LVL571:
 454:lvgl/src/lv_draw/lv_draw_rect.c ****         int16_t mask_rin_id = lv_draw_mask_add(&mask_rin_param, NULL);
 5696              		.loc 1 454 9 view .LVU2083
 5697 01a6 0123     		movs	r3, #1
 5698 01a8 12B2     		sxth	r2, r2
 5699 01aa 1EA9     		add	r1, sp, #120
 5700 01ac 17A8     		add	r0, sp, #92
 5701 01ae FFF7FEFF 		bl	lv_draw_mask_radius_init
 5702              	.LVL572:
 455:lvgl/src/lv_draw/lv_draw_rect.c **** 
 5703              		.loc 1 455 9 is_stmt 1 view .LVU2084
 455:lvgl/src/lv_draw/lv_draw_rect.c **** 
 5704              		.loc 1 455 31 is_stmt 0 view .LVU2085
 5705 01b2 0021     		movs	r1, #0
 5706 01b4 17A8     		add	r0, sp, #92
 5707 01b6 FFF7FEFF 		bl	lv_draw_mask_add
 5708              	.LVL573:
 5709 01ba 0990     		str	r0, [sp, #36]
 5710              	.LVL574:
 457:lvgl/src/lv_draw/lv_draw_rect.c **** 
 5711              		.loc 1 457 9 is_stmt 1 view .LVU2086
 457:lvgl/src/lv_draw/lv_draw_rect.c **** 
 5712              		.loc 1 457 31 is_stmt 0 view .LVU2087
 5713 01bc BAF91030 		ldrsh	r3, [r10, #16]
 5714 01c0 A342     		cmp	r3, r4
 5715 01c2 00DD     		ble	.L265
 457:lvgl/src/lv_draw/lv_draw_rect.c **** 
 5716              		.loc 1 457 31 discriminator 1 view .LVU2088
 5717 01c4 5C1E     		subs	r4, r3, #1
 5718              	.LVL575:
 5719              	.L265:
 459:lvgl/src/lv_draw/lv_draw_rect.c ****         lv_draw_mask_res_t mask_res;
 5720              		.loc 1 459 9 is_stmt 1 discriminator 4 view .LVU2089
 460:lvgl/src/lv_draw/lv_draw_rect.c ****         lv_area_t fill_area;
 5721              		.loc 1 460 9 discriminator 4 view .LVU2090
 461:lvgl/src/lv_draw/lv_draw_rect.c **** 
 5722              		.loc 1 461 9 discriminator 4 view .LVU2091
 463:lvgl/src/lv_draw/lv_draw_rect.c ****         lv_blend_mode_t blend_mode = dsc->border_blend_mode;
 5723              		.loc 1 463 9 discriminator 4 view .LVU2092
 463:lvgl/src/lv_draw/lv_draw_rect.c ****         lv_blend_mode_t blend_mode = dsc->border_blend_mode;
 5724              		.loc 1 463 20 is_stmt 0 discriminator 4 view .LVU2093
 5725 01c6 BAF80E30 		ldrh	r3, [r10, #14]
 5726              	.LVL576:
 463:lvgl/src/lv_draw/lv_draw_rect.c ****         lv_blend_mode_t blend_mode = dsc->border_blend_mode;
 5727              		.loc 1 463 20 discriminator 4 view .LVU2094
 5728 01ca ADF81E30 		strh	r3, [sp, #30]	@ movhi
 464:lvgl/src/lv_draw/lv_draw_rect.c **** 
 5729              		.loc 1 464 9 is_stmt 1 discriminator 4 view .LVU2095
 464:lvgl/src/lv_draw/lv_draw_rect.c **** 
 5730              		.loc 1 464 25 is_stmt 0 discriminator 4 view .LVU2096
 5731 01ce 9AF815B0 		ldrb	fp, [r10, #21]	@ zero_extendqisi2
 5732              	.LVL577:
 466:lvgl/src/lv_draw/lv_draw_rect.c ****         fill_area.x2 = coords->x2;
 5733              		.loc 1 466 9 is_stmt 1 discriminator 4 view .LVU2097
 466:lvgl/src/lv_draw/lv_draw_rect.c ****         fill_area.x2 = coords->x2;
ARM GAS  D:\Temp\ccGEpo4V.s 			page 166


 5734              		.loc 1 466 30 is_stmt 0 discriminator 4 view .LVU2098
 5735 01d2 B5F90030 		ldrsh	r3, [r5]
 5736              	.LVL578:
 466:lvgl/src/lv_draw/lv_draw_rect.c ****         fill_area.x2 = coords->x2;
 5737              		.loc 1 466 22 discriminator 4 view .LVU2099
 5738 01d6 ADF83830 		strh	r3, [sp, #56]	@ movhi
 467:lvgl/src/lv_draw/lv_draw_rect.c ****         fill_area.y1 = disp_area->y1 + draw_area.y1;
 5739              		.loc 1 467 9 is_stmt 1 discriminator 4 view .LVU2100
 467:lvgl/src/lv_draw/lv_draw_rect.c ****         fill_area.y1 = disp_area->y1 + draw_area.y1;
 5740              		.loc 1 467 30 is_stmt 0 discriminator 4 view .LVU2101
 5741 01da B5F90430 		ldrsh	r3, [r5, #4]
 467:lvgl/src/lv_draw/lv_draw_rect.c ****         fill_area.y1 = disp_area->y1 + draw_area.y1;
 5742              		.loc 1 467 22 discriminator 4 view .LVU2102
 5743 01de ADF83C30 		strh	r3, [sp, #60]	@ movhi
 468:lvgl/src/lv_draw/lv_draw_rect.c ****         fill_area.y2 = fill_area.y1;
 5744              		.loc 1 468 9 is_stmt 1 discriminator 4 view .LVU2103
 468:lvgl/src/lv_draw/lv_draw_rect.c ****         fill_area.y2 = fill_area.y1;
 5745              		.loc 1 468 33 is_stmt 0 discriminator 4 view .LVU2104
 5746 01e2 B8F81230 		ldrh	r3, [r8, #18]
 468:lvgl/src/lv_draw/lv_draw_rect.c ****         fill_area.y2 = fill_area.y1;
 5747              		.loc 1 468 49 discriminator 4 view .LVU2105
 5748 01e6 BDF93260 		ldrsh	r6, [sp, #50]
 468:lvgl/src/lv_draw/lv_draw_rect.c ****         fill_area.y2 = fill_area.y1;
 5749              		.loc 1 468 38 discriminator 4 view .LVU2106
 5750 01ea 13FA86F3 		uxtah	r3, r3, r6
 5751 01ee 1BB2     		sxth	r3, r3
 468:lvgl/src/lv_draw/lv_draw_rect.c ****         fill_area.y2 = fill_area.y1;
 5752              		.loc 1 468 22 discriminator 4 view .LVU2107
 5753 01f0 ADF83A30 		strh	r3, [sp, #58]	@ movhi
 469:lvgl/src/lv_draw/lv_draw_rect.c **** 
 5754              		.loc 1 469 9 is_stmt 1 discriminator 4 view .LVU2108
 469:lvgl/src/lv_draw/lv_draw_rect.c **** 
 5755              		.loc 1 469 22 is_stmt 0 discriminator 4 view .LVU2109
 5756 01f4 ADF83E30 		strh	r3, [sp, #62]	@ movhi
 471:lvgl/src/lv_draw/lv_draw_rect.c ****         if(dsc->border_side == LV_BORDER_SIDE_LEFT) fill_area.x2 = coords->x1 + corner_size;
 5757              		.loc 1 471 9 is_stmt 1 discriminator 4 view .LVU2110
 5758              	.LVL579:
 472:lvgl/src/lv_draw/lv_draw_rect.c ****         else if(dsc->border_side == LV_BORDER_SIDE_RIGHT) {
 5759              		.loc 1 472 9 discriminator 4 view .LVU2111
 472:lvgl/src/lv_draw/lv_draw_rect.c ****         else if(dsc->border_side == LV_BORDER_SIDE_RIGHT) {
 5760              		.loc 1 472 15 is_stmt 0 discriminator 4 view .LVU2112
 5761 01f8 BAF91230 		ldrsh	r3, [r10, #18]
 472:lvgl/src/lv_draw/lv_draw_rect.c ****         else if(dsc->border_side == LV_BORDER_SIDE_RIGHT) {
 5762              		.loc 1 472 11 discriminator 4 view .LVU2113
 5763 01fc 042B     		cmp	r3, #4
 5764 01fe 22D0     		beq	.L291
 473:lvgl/src/lv_draw/lv_draw_rect.c ****             fill_area.x1 = coords->x2 - corner_size;
 5765              		.loc 1 473 14 is_stmt 1 view .LVU2114
 473:lvgl/src/lv_draw/lv_draw_rect.c ****             fill_area.x1 = coords->x2 - corner_size;
 5766              		.loc 1 473 16 is_stmt 0 view .LVU2115
 5767 0200 082B     		cmp	r3, #8
 5768 0202 27D0     		beq	.L292
 471:lvgl/src/lv_draw/lv_draw_rect.c ****         if(dsc->border_side == LV_BORDER_SIDE_LEFT) fill_area.x2 = coords->x1 + corner_size;
 5769              		.loc 1 471 18 view .LVU2116
 5770 0204 4FF0000A 		mov	r10, #0
 5771              	.LVL580:
 5772              	.L267:
ARM GAS  D:\Temp\ccGEpo4V.s 			page 167


 478:lvgl/src/lv_draw/lv_draw_rect.c ****         volatile bool bottom_only = false;
 5773              		.loc 1 478 9 is_stmt 1 view .LVU2117
 478:lvgl/src/lv_draw/lv_draw_rect.c ****         volatile bool bottom_only = false;
 5774              		.loc 1 478 23 is_stmt 0 view .LVU2118
 5775 0208 0022     		movs	r2, #0
 5776 020a 8DF82D20 		strb	r2, [sp, #45]
 479:lvgl/src/lv_draw/lv_draw_rect.c ****         if(dsc->border_side == LV_BORDER_SIDE_TOP) top_only = true;
 5777              		.loc 1 479 9 is_stmt 1 view .LVU2119
 479:lvgl/src/lv_draw/lv_draw_rect.c ****         if(dsc->border_side == LV_BORDER_SIDE_TOP) top_only = true;
 5778              		.loc 1 479 23 is_stmt 0 view .LVU2120
 5779 020e 8DF82E20 		strb	r2, [sp, #46]
 480:lvgl/src/lv_draw/lv_draw_rect.c ****         if(dsc->border_side == LV_BORDER_SIDE_BOTTOM) bottom_only = true;
 5780              		.loc 1 480 9 is_stmt 1 view .LVU2121
 480:lvgl/src/lv_draw/lv_draw_rect.c ****         if(dsc->border_side == LV_BORDER_SIDE_BOTTOM) bottom_only = true;
 5781              		.loc 1 480 11 is_stmt 0 view .LVU2122
 5782 0212 022B     		cmp	r3, #2
 5783 0214 2BD0     		beq	.L293
 5784              	.L268:
 481:lvgl/src/lv_draw/lv_draw_rect.c ****         if(dsc->border_side == (LV_BORDER_SIDE_TOP | LV_BORDER_SIDE_BOTTOM)) {
 5785              		.loc 1 481 9 is_stmt 1 view .LVU2123
 481:lvgl/src/lv_draw/lv_draw_rect.c ****         if(dsc->border_side == (LV_BORDER_SIDE_TOP | LV_BORDER_SIDE_BOTTOM)) {
 5786              		.loc 1 481 11 is_stmt 0 view .LVU2124
 5787 0216 012B     		cmp	r3, #1
 5788 0218 2DD0     		beq	.L294
 5789              	.L269:
 482:lvgl/src/lv_draw/lv_draw_rect.c ****             top_only = true;
 5790              		.loc 1 482 9 is_stmt 1 view .LVU2125
 482:lvgl/src/lv_draw/lv_draw_rect.c ****             top_only = true;
 5791              		.loc 1 482 11 is_stmt 0 view .LVU2126
 5792 021a 032B     		cmp	r3, #3
 5793 021c 2FD0     		beq	.L295
 5794              	.L270:
 487:lvgl/src/lv_draw/lv_draw_rect.c **** 
 5795              		.loc 1 487 9 is_stmt 1 view .LVU2127
 487:lvgl/src/lv_draw/lv_draw_rect.c **** 
 5796              		.loc 1 487 32 is_stmt 0 view .LVU2128
 5797 021e 9DF82D30 		ldrb	r3, [sp, #45]	@ zero_extendqisi2
 487:lvgl/src/lv_draw/lv_draw_rect.c **** 
 5798              		.loc 1 487 65 view .LVU2129
 5799 0222 93BB     		cbnz	r3, .L281
 487:lvgl/src/lv_draw/lv_draw_rect.c **** 
 5800              		.loc 1 487 45 discriminator 1 view .LVU2130
 5801 0224 9DF82E30 		ldrb	r3, [sp, #46]	@ zero_extendqisi2
 487:lvgl/src/lv_draw/lv_draw_rect.c **** 
 5802              		.loc 1 487 65 discriminator 1 view .LVU2131
 5803 0228 CBB3     		cbz	r3, .L282
 487:lvgl/src/lv_draw/lv_draw_rect.c **** 
 5804              		.loc 1 487 65 view .LVU2132
 5805 022a 0023     		movs	r3, #0
 5806 022c 2EE0     		b	.L271
 5807              	.LVL581:
 5808              	.L290:
 446:lvgl/src/lv_draw/lv_draw_rect.c ****             mask_rout_id = lv_draw_mask_add(&mask_rout_param, NULL);
 5809              		.loc 1 446 13 is_stmt 1 view .LVU2133
 5810 022e 0023     		movs	r3, #0
 5811 0230 22B2     		sxth	r2, r4
 5812 0232 2946     		mov	r1, r5
ARM GAS  D:\Temp\ccGEpo4V.s 			page 168


 5813 0234 10A8     		add	r0, sp, #64
 5814              	.LVL582:
 446:lvgl/src/lv_draw/lv_draw_rect.c ****             mask_rout_id = lv_draw_mask_add(&mask_rout_param, NULL);
 5815              		.loc 1 446 13 is_stmt 0 view .LVU2134
 5816 0236 FFF7FEFF 		bl	lv_draw_mask_radius_init
 5817              	.LVL583:
 447:lvgl/src/lv_draw/lv_draw_rect.c ****         }
 5818              		.loc 1 447 13 is_stmt 1 view .LVU2135
 447:lvgl/src/lv_draw/lv_draw_rect.c ****         }
 5819              		.loc 1 447 28 is_stmt 0 view .LVU2136
 5820 023a 0021     		movs	r1, #0
 5821 023c 10A8     		add	r0, sp, #64
 5822 023e FFF7FEFF 		bl	lv_draw_mask_add
 5823              	.LVL584:
 5824 0242 0890     		str	r0, [sp, #32]
 5825              	.LVL585:
 447:lvgl/src/lv_draw/lv_draw_rect.c ****         }
 5826              		.loc 1 447 28 view .LVU2137
 5827 0244 ABE7     		b	.L264
 5828              	.LVL586:
 5829              	.L291:
 472:lvgl/src/lv_draw/lv_draw_rect.c ****         else if(dsc->border_side == LV_BORDER_SIDE_RIGHT) {
 5830              		.loc 1 472 53 is_stmt 1 discriminator 1 view .LVU2138
 472:lvgl/src/lv_draw/lv_draw_rect.c ****         else if(dsc->border_side == LV_BORDER_SIDE_RIGHT) {
 5831              		.loc 1 472 74 is_stmt 0 discriminator 1 view .LVU2139
 5832 0246 2A88     		ldrh	r2, [r5]
 472:lvgl/src/lv_draw/lv_draw_rect.c ****         else if(dsc->border_side == LV_BORDER_SIDE_RIGHT) {
 5833              		.loc 1 472 79 discriminator 1 view .LVU2140
 5834 0248 2244     		add	r2, r2, r4
 472:lvgl/src/lv_draw/lv_draw_rect.c ****         else if(dsc->border_side == LV_BORDER_SIDE_RIGHT) {
 5835              		.loc 1 472 66 discriminator 1 view .LVU2141
 5836 024a ADF83C20 		strh	r2, [sp, #60]	@ movhi
 471:lvgl/src/lv_draw/lv_draw_rect.c ****         if(dsc->border_side == LV_BORDER_SIDE_LEFT) fill_area.x2 = coords->x1 + corner_size;
 5837              		.loc 1 471 18 discriminator 1 view .LVU2142
 5838 024e 4FF0000A 		mov	r10, #0
 5839              	.LVL587:
 471:lvgl/src/lv_draw/lv_draw_rect.c ****         if(dsc->border_side == LV_BORDER_SIDE_LEFT) fill_area.x2 = coords->x1 + corner_size;
 5840              		.loc 1 471 18 discriminator 1 view .LVU2143
 5841 0252 D9E7     		b	.L267
 5842              	.LVL588:
 5843              	.L292:
 474:lvgl/src/lv_draw/lv_draw_rect.c ****             buf_ofs = fill_area.x1 - coords->x1;
 5844              		.loc 1 474 13 is_stmt 1 view .LVU2144
 474:lvgl/src/lv_draw/lv_draw_rect.c ****             buf_ofs = fill_area.x1 - coords->x1;
 5845              		.loc 1 474 34 is_stmt 0 view .LVU2145
 5846 0254 B5F804A0 		ldrh	r10, [r5, #4]
 5847              	.LVL589:
 474:lvgl/src/lv_draw/lv_draw_rect.c ****             buf_ofs = fill_area.x1 - coords->x1;
 5848              		.loc 1 474 39 view .LVU2146
 5849 0258 AAEB040A 		sub	r10, r10, r4
 5850 025c 0FFA8AFA 		sxth	r10, r10
 474:lvgl/src/lv_draw/lv_draw_rect.c ****             buf_ofs = fill_area.x1 - coords->x1;
 5851              		.loc 1 474 26 view .LVU2147
 5852 0260 ADF838A0 		strh	r10, [sp, #56]	@ movhi
 475:lvgl/src/lv_draw/lv_draw_rect.c ****         }
 5853              		.loc 1 475 13 is_stmt 1 view .LVU2148
 475:lvgl/src/lv_draw/lv_draw_rect.c ****         }
ARM GAS  D:\Temp\ccGEpo4V.s 			page 169


 5854              		.loc 1 475 44 is_stmt 0 view .LVU2149
 5855 0264 B5F90020 		ldrsh	r2, [r5]
 475:lvgl/src/lv_draw/lv_draw_rect.c ****         }
 5856              		.loc 1 475 36 view .LVU2150
 5857 0268 AAEB020A 		sub	r10, r10, r2
 5858              	.LVL590:
 475:lvgl/src/lv_draw/lv_draw_rect.c ****         }
 5859              		.loc 1 475 36 view .LVU2151
 5860 026c CCE7     		b	.L267
 5861              	.L293:
 480:lvgl/src/lv_draw/lv_draw_rect.c ****         if(dsc->border_side == LV_BORDER_SIDE_BOTTOM) bottom_only = true;
 5862              		.loc 1 480 52 is_stmt 1 discriminator 1 view .LVU2152
 480:lvgl/src/lv_draw/lv_draw_rect.c ****         if(dsc->border_side == LV_BORDER_SIDE_BOTTOM) bottom_only = true;
 5863              		.loc 1 480 61 is_stmt 0 discriminator 1 view .LVU2153
 5864 026e 0122     		movs	r2, #1
 5865 0270 8DF82D20 		strb	r2, [sp, #45]
 5866 0274 CFE7     		b	.L268
 5867              	.L294:
 481:lvgl/src/lv_draw/lv_draw_rect.c ****         if(dsc->border_side == (LV_BORDER_SIDE_TOP | LV_BORDER_SIDE_BOTTOM)) {
 5868              		.loc 1 481 55 is_stmt 1 discriminator 1 view .LVU2154
 481:lvgl/src/lv_draw/lv_draw_rect.c ****         if(dsc->border_side == (LV_BORDER_SIDE_TOP | LV_BORDER_SIDE_BOTTOM)) {
 5869              		.loc 1 481 67 is_stmt 0 discriminator 1 view .LVU2155
 5870 0276 0122     		movs	r2, #1
 5871 0278 8DF82E20 		strb	r2, [sp, #46]
 5872 027c CDE7     		b	.L269
 5873              	.L295:
 483:lvgl/src/lv_draw/lv_draw_rect.c ****             bottom_only = true;
 5874              		.loc 1 483 13 is_stmt 1 view .LVU2156
 483:lvgl/src/lv_draw/lv_draw_rect.c ****             bottom_only = true;
 5875              		.loc 1 483 22 is_stmt 0 view .LVU2157
 5876 027e 0123     		movs	r3, #1
 5877 0280 8DF82D30 		strb	r3, [sp, #45]
 484:lvgl/src/lv_draw/lv_draw_rect.c ****         }
 5878              		.loc 1 484 13 is_stmt 1 view .LVU2158
 484:lvgl/src/lv_draw/lv_draw_rect.c ****         }
 5879              		.loc 1 484 25 is_stmt 0 view .LVU2159
 5880 0284 8DF82E30 		strb	r3, [sp, #46]
 5881 0288 C9E7     		b	.L270
 5882              	.L281:
 487:lvgl/src/lv_draw/lv_draw_rect.c **** 
 5883              		.loc 1 487 65 view .LVU2160
 5884 028a 0023     		movs	r3, #0
 5885              	.L271:
 487:lvgl/src/lv_draw/lv_draw_rect.c **** 
 5886              		.loc 1 487 23 discriminator 6 view .LVU2161
 5887 028c 8DF82F30 		strb	r3, [sp, #47]
 489:lvgl/src/lv_draw/lv_draw_rect.c ****             if(normal ||
 5888              		.loc 1 489 9 is_stmt 1 discriminator 6 view .LVU2162
 5889              	.LVL591:
 489:lvgl/src/lv_draw/lv_draw_rect.c ****             if(normal ||
 5890              		.loc 1 489 9 is_stmt 0 discriminator 6 view .LVU2163
 5891 0290 4A46     		mov	r2, r9
 5892 0292 A146     		mov	r9, r4
 5893              	.LVL592:
 489:lvgl/src/lv_draw/lv_draw_rect.c ****             if(normal ||
 5894              		.loc 1 489 9 discriminator 6 view .LVU2164
 5895 0294 2B46     		mov	r3, r5
ARM GAS  D:\Temp\ccGEpo4V.s 			page 170


 5896 0296 5D46     		mov	r5, fp
 5897              	.LVL593:
 489:lvgl/src/lv_draw/lv_draw_rect.c ****             if(normal ||
 5898              		.loc 1 489 9 discriminator 6 view .LVU2165
 5899 0298 9B46     		mov	fp, r3
 5900              	.LVL594:
 489:lvgl/src/lv_draw/lv_draw_rect.c ****             if(normal ||
 5901              		.loc 1 489 9 discriminator 6 view .LVU2166
 5902 029a 1446     		mov	r4, r2
 5903              	.LVL595:
 489:lvgl/src/lv_draw/lv_draw_rect.c ****             if(normal ||
 5904              		.loc 1 489 9 discriminator 6 view .LVU2167
 5905 029c 29E0     		b	.L272
 5906              	.LVL596:
 5907              	.L282:
 487:lvgl/src/lv_draw/lv_draw_rect.c **** 
 5908              		.loc 1 487 65 view .LVU2168
 5909 029e 0123     		movs	r3, #1
 5910 02a0 F4E7     		b	.L271
 5911              	.LVL597:
 5912              	.L273:
 493:lvgl/src/lv_draw/lv_draw_rect.c ****                 mask_res = lv_draw_mask_apply(mask_buf, vdb->area.x1 + draw_area.x1, vdb->area.y1 +
 5913              		.loc 1 493 17 is_stmt 1 view .LVU2169
 5914 02a2 0599     		ldr	r1, [sp, #20]
 5915 02a4 3846     		mov	r0, r7
 5916 02a6 FFF7FEFF 		bl	_lv_memset_ff
 5917              	.LVL598:
 494:lvgl/src/lv_draw/lv_draw_rect.c ****                 _lv_blend_fill(clip, &fill_area, color, mask_buf + buf_ofs, mask_res, opa, blend_mo
 5918              		.loc 1 494 17 view .LVU2170
 494:lvgl/src/lv_draw/lv_draw_rect.c ****                 _lv_blend_fill(clip, &fill_area, color, mask_buf + buf_ofs, mask_res, opa, blend_mo
 5919              		.loc 1 494 66 is_stmt 0 view .LVU2171
 5920 02aa B8F81010 		ldrh	r1, [r8, #16]
 494:lvgl/src/lv_draw/lv_draw_rect.c ****                 _lv_blend_fill(clip, &fill_area, color, mask_buf + buf_ofs, mask_res, opa, blend_mo
 5921              		.loc 1 494 81 view .LVU2172
 5922 02ae BDF83030 		ldrh	r3, [sp, #48]
 494:lvgl/src/lv_draw/lv_draw_rect.c ****                 _lv_blend_fill(clip, &fill_area, color, mask_buf + buf_ofs, mask_res, opa, blend_mo
 5923              		.loc 1 494 70 view .LVU2173
 5924 02b2 1944     		add	r1, r1, r3
 494:lvgl/src/lv_draw/lv_draw_rect.c ****                 _lv_blend_fill(clip, &fill_area, color, mask_buf + buf_ofs, mask_res, opa, blend_mo
 5925              		.loc 1 494 95 view .LVU2174
 5926 02b4 B8F81220 		ldrh	r2, [r8, #18]
 494:lvgl/src/lv_draw/lv_draw_rect.c ****                 _lv_blend_fill(clip, &fill_area, color, mask_buf + buf_ofs, mask_res, opa, blend_mo
 5927              		.loc 1 494 99 view .LVU2175
 5928 02b8 3244     		add	r2, r2, r6
 494:lvgl/src/lv_draw/lv_draw_rect.c ****                 _lv_blend_fill(clip, &fill_area, color, mask_buf + buf_ofs, mask_res, opa, blend_mo
 5929              		.loc 1 494 28 view .LVU2176
 5930 02ba 069B     		ldr	r3, [sp, #24]
 5931 02bc 12B2     		sxth	r2, r2
 5932 02be 09B2     		sxth	r1, r1
 5933 02c0 3846     		mov	r0, r7
 5934 02c2 FFF7FEFF 		bl	lv_draw_mask_apply
 5935              	.LVL599:
 495:lvgl/src/lv_draw/lv_draw_rect.c ****             }
 5936              		.loc 1 495 17 is_stmt 1 view .LVU2177
 5937 02c6 0295     		str	r5, [sp, #8]
 5938 02c8 0194     		str	r4, [sp, #4]
 5939 02ca 0090     		str	r0, [sp]
ARM GAS  D:\Temp\ccGEpo4V.s 			page 171


 5940 02cc 07EB0A03 		add	r3, r7, r10
 5941 02d0 BDF81E20 		ldrh	r2, [sp, #30]
 5942 02d4 0EA9     		add	r1, sp, #56
 5943 02d6 0498     		ldr	r0, [sp, #16]
 5944              	.LVL600:
 495:lvgl/src/lv_draw/lv_draw_rect.c ****             }
 5945              		.loc 1 495 17 is_stmt 0 view .LVU2178
 5946 02d8 FFF7FEFF 		bl	_lv_blend_fill
 5947              	.LVL601:
 5948              	.L275:
 497:lvgl/src/lv_draw/lv_draw_rect.c ****             fill_area.y2++;
 5949              		.loc 1 497 13 is_stmt 1 discriminator 2 view .LVU2179
 497:lvgl/src/lv_draw/lv_draw_rect.c ****             fill_area.y2++;
 5950              		.loc 1 497 22 is_stmt 0 discriminator 2 view .LVU2180
 5951 02dc BDF93A30 		ldrsh	r3, [sp, #58]
 497:lvgl/src/lv_draw/lv_draw_rect.c ****             fill_area.y2++;
 5952              		.loc 1 497 25 discriminator 2 view .LVU2181
 5953 02e0 0133     		adds	r3, r3, #1
 5954 02e2 ADF83A30 		strh	r3, [sp, #58]	@ movhi
 498:lvgl/src/lv_draw/lv_draw_rect.c **** 
 5955              		.loc 1 498 13 is_stmt 1 discriminator 2 view .LVU2182
 498:lvgl/src/lv_draw/lv_draw_rect.c **** 
 5956              		.loc 1 498 22 is_stmt 0 discriminator 2 view .LVU2183
 5957 02e6 BDF93E30 		ldrsh	r3, [sp, #62]
 498:lvgl/src/lv_draw/lv_draw_rect.c **** 
 5958              		.loc 1 498 25 discriminator 2 view .LVU2184
 5959 02ea 0133     		adds	r3, r3, #1
 5960 02ec ADF83E30 		strh	r3, [sp, #62]	@ movhi
 489:lvgl/src/lv_draw/lv_draw_rect.c ****             if(normal ||
 5961              		.loc 1 489 51 discriminator 2 view .LVU2185
 5962 02f0 0136     		adds	r6, r6, #1
 5963              	.LVL602:
 5964              	.L272:
 489:lvgl/src/lv_draw/lv_draw_rect.c ****             if(normal ||
 5965              		.loc 1 489 45 discriminator 1 view .LVU2186
 5966 02f2 BDF93630 		ldrsh	r3, [sp, #54]
 489:lvgl/src/lv_draw/lv_draw_rect.c ****             if(normal ||
 5967              		.loc 1 489 9 discriminator 1 view .LVU2187
 5968 02f6 B342     		cmp	r3, r6
 5969 02f8 1ADB     		blt	.L296
 490:lvgl/src/lv_draw/lv_draw_rect.c ****                (top_only && fill_area.y1 <= coords->y1 + corner_size) ||
 5970              		.loc 1 490 13 is_stmt 1 view .LVU2188
 490:lvgl/src/lv_draw/lv_draw_rect.c ****                (top_only && fill_area.y1 <= coords->y1 + corner_size) ||
 5971              		.loc 1 490 16 is_stmt 0 view .LVU2189
 5972 02fa 9DF82F30 		ldrb	r3, [sp, #47]	@ zero_extendqisi2
 490:lvgl/src/lv_draw/lv_draw_rect.c ****                (top_only && fill_area.y1 <= coords->y1 + corner_size) ||
 5973              		.loc 1 490 15 view .LVU2190
 5974 02fe 002B     		cmp	r3, #0
 5975 0300 CFD1     		bne	.L273
 491:lvgl/src/lv_draw/lv_draw_rect.c ****                (bottom_only && fill_area.y1 >= coords->y2 - corner_size)) {
 5976              		.loc 1 491 17 discriminator 1 view .LVU2191
 5977 0302 9DF82D30 		ldrb	r3, [sp, #45]	@ zero_extendqisi2
 490:lvgl/src/lv_draw/lv_draw_rect.c ****                (top_only && fill_area.y1 <= coords->y1 + corner_size) ||
 5978              		.loc 1 490 23 discriminator 1 view .LVU2192
 5979 0306 33B1     		cbz	r3, .L274
 491:lvgl/src/lv_draw/lv_draw_rect.c ****                (bottom_only && fill_area.y1 >= coords->y2 - corner_size)) {
 5980              		.loc 1 491 38 view .LVU2193
ARM GAS  D:\Temp\ccGEpo4V.s 			page 172


 5981 0308 BDF93A20 		ldrsh	r2, [sp, #58]
 491:lvgl/src/lv_draw/lv_draw_rect.c ****                (bottom_only && fill_area.y1 >= coords->y2 - corner_size)) {
 5982              		.loc 1 491 51 view .LVU2194
 5983 030c BBF90230 		ldrsh	r3, [fp, #2]
 491:lvgl/src/lv_draw/lv_draw_rect.c ****                (bottom_only && fill_area.y1 >= coords->y2 - corner_size)) {
 5984              		.loc 1 491 56 view .LVU2195
 5985 0310 4B44     		add	r3, r3, r9
 491:lvgl/src/lv_draw/lv_draw_rect.c ****                (bottom_only && fill_area.y1 >= coords->y2 - corner_size)) {
 5986              		.loc 1 491 26 view .LVU2196
 5987 0312 9A42     		cmp	r2, r3
 5988 0314 C5DD     		ble	.L273
 5989              	.L274:
 492:lvgl/src/lv_draw/lv_draw_rect.c ****                 _lv_memset_ff(mask_buf, draw_area_w);
 5990              		.loc 1 492 17 discriminator 1 view .LVU2197
 5991 0316 9DF82E30 		ldrb	r3, [sp, #46]	@ zero_extendqisi2
 491:lvgl/src/lv_draw/lv_draw_rect.c ****                (bottom_only && fill_area.y1 >= coords->y2 - corner_size)) {
 5992              		.loc 1 491 71 discriminator 1 view .LVU2198
 5993 031a 002B     		cmp	r3, #0
 5994 031c DED0     		beq	.L275
 492:lvgl/src/lv_draw/lv_draw_rect.c ****                 _lv_memset_ff(mask_buf, draw_area_w);
 5995              		.loc 1 492 41 view .LVU2199
 5996 031e BDF93A20 		ldrsh	r2, [sp, #58]
 492:lvgl/src/lv_draw/lv_draw_rect.c ****                 _lv_memset_ff(mask_buf, draw_area_w);
 5997              		.loc 1 492 54 view .LVU2200
 5998 0322 BBF90630 		ldrsh	r3, [fp, #6]
 492:lvgl/src/lv_draw/lv_draw_rect.c ****                 _lv_memset_ff(mask_buf, draw_area_w);
 5999              		.loc 1 492 59 view .LVU2201
 6000 0326 A3EB0903 		sub	r3, r3, r9
 492:lvgl/src/lv_draw/lv_draw_rect.c ****                 _lv_memset_ff(mask_buf, draw_area_w);
 6001              		.loc 1 492 29 view .LVU2202
 6002 032a 9A42     		cmp	r2, r3
 6003 032c D6DB     		blt	.L275
 6004 032e B8E7     		b	.L273
 6005              	.L296:
 501:lvgl/src/lv_draw/lv_draw_rect.c ****         lv_draw_mask_remove_id(mask_rout_id);
 6006              		.loc 1 501 9 is_stmt 1 view .LVU2203
 6007 0330 0998     		ldr	r0, [sp, #36]
 6008 0332 FFF7FEFF 		bl	lv_draw_mask_remove_id
 6009              	.LVL603:
 502:lvgl/src/lv_draw/lv_draw_rect.c ****         _lv_mem_buf_release(mask_buf);
 6010              		.loc 1 502 9 view .LVU2204
 6011 0336 0898     		ldr	r0, [sp, #32]
 6012 0338 FFF7FEFF 		bl	lv_draw_mask_remove_id
 6013              	.LVL604:
 503:lvgl/src/lv_draw/lv_draw_rect.c ****     }
 6014              		.loc 1 503 9 view .LVU2205
 6015 033c 3846     		mov	r0, r7
 6016 033e FFF7FEFF 		bl	_lv_mem_buf_release
 6017              	.LVL605:
 6018 0342 D8E6     		b	.L247
 6019              	.LVL606:
 6020              	.L284:
 6021              	.LCFI22:
 6022              		.cfi_def_cfa_offset 0
 6023              		.cfi_restore 4
 6024              		.cfi_restore 5
 6025              		.cfi_restore 6
ARM GAS  D:\Temp\ccGEpo4V.s 			page 173


 6026              		.cfi_restore 7
 6027              		.cfi_restore 8
 6028              		.cfi_restore 9
 6029              		.cfi_restore 10
 6030              		.cfi_restore 11
 6031              		.cfi_restore 14
 503:lvgl/src/lv_draw/lv_draw_rect.c ****     }
 6032              		.loc 1 503 9 is_stmt 0 view .LVU2206
 6033 0344 7047     		bx	lr
 6034              	.LBE417:
 6035              		.cfi_endproc
 6036              	.LFE462:
 6038              		.section	.text.draw_pattern,"ax",%progbits
 6039              		.align	1
 6040              		.syntax unified
 6041              		.thumb
 6042              		.thumb_func
 6043              		.fpu fpv4-sp-d16
 6045              	draw_pattern:
 6046              	.LVL607:
 6047              	.LFB468:
1183:lvgl/src/lv_draw/lv_draw_rect.c ****     if(dsc->pattern_image == NULL) return;
 6048              		.loc 1 1183 1 is_stmt 1 view -0
 6049              		.cfi_startproc
 6050              		@ args = 0, pretend = 0, frame = 104
 6051              		@ frame_needed = 0, uses_anonymous_args = 0
1184:lvgl/src/lv_draw/lv_draw_rect.c ****     if(dsc->pattern_opa <= LV_OPA_MIN) return;
 6052              		.loc 1 1184 5 view .LVU2208
1184:lvgl/src/lv_draw/lv_draw_rect.c ****     if(dsc->pattern_opa <= LV_OPA_MIN) return;
 6053              		.loc 1 1184 11 is_stmt 0 view .LVU2209
 6054 0000 D36A     		ldr	r3, [r2, #44]
1184:lvgl/src/lv_draw/lv_draw_rect.c ****     if(dsc->pattern_opa <= LV_OPA_MIN) return;
 6055              		.loc 1 1184 7 view .LVU2210
 6056 0002 002B     		cmp	r3, #0
 6057 0004 00F03D81 		beq	.L318
1183:lvgl/src/lv_draw/lv_draw_rect.c ****     if(dsc->pattern_image == NULL) return;
 6058              		.loc 1 1183 1 view .LVU2211
 6059 0008 2DE9F04F 		push	{r4, r5, r6, r7, r8, r9, r10, fp, lr}
 6060              	.LCFI23:
 6061              		.cfi_def_cfa_offset 36
 6062              		.cfi_offset 4, -36
 6063              		.cfi_offset 5, -32
 6064              		.cfi_offset 6, -28
 6065              		.cfi_offset 7, -24
 6066              		.cfi_offset 8, -20
 6067              		.cfi_offset 9, -16
 6068              		.cfi_offset 10, -12
 6069              		.cfi_offset 11, -8
 6070              		.cfi_offset 14, -4
 6071 000c 9FB0     		sub	sp, sp, #124
 6072              	.LCFI24:
 6073              		.cfi_def_cfa_offset 160
1185:lvgl/src/lv_draw/lv_draw_rect.c **** 
 6074              		.loc 1 1185 5 is_stmt 1 view .LVU2212
1185:lvgl/src/lv_draw/lv_draw_rect.c **** 
 6075              		.loc 1 1185 11 is_stmt 0 view .LVU2213
 6076 000e 92F83640 		ldrb	r4, [r2, #54]	@ zero_extendqisi2
ARM GAS  D:\Temp\ccGEpo4V.s 			page 174


1185:lvgl/src/lv_draw/lv_draw_rect.c **** 
 6077              		.loc 1 1185 7 view .LVU2214
 6078 0012 022C     		cmp	r4, #2
 6079 0014 02D8     		bhi	.L321
 6080              	.LVL608:
 6081              	.L297:
1283:lvgl/src/lv_draw/lv_draw_rect.c **** #endif
 6082              		.loc 1 1283 1 view .LVU2215
 6083 0016 1FB0     		add	sp, sp, #124
 6084              	.LCFI25:
 6085              		.cfi_remember_state
 6086              		.cfi_def_cfa_offset 36
 6087              		@ sp needed
 6088 0018 BDE8F08F 		pop	{r4, r5, r6, r7, r8, r9, r10, fp, pc}
 6089              	.LVL609:
 6090              	.L321:
 6091              	.LCFI26:
 6092              		.cfi_restore_state
1283:lvgl/src/lv_draw/lv_draw_rect.c **** #endif
 6093              		.loc 1 1283 1 view .LVU2216
 6094 001c 1446     		mov	r4, r2
 6095 001e 0F46     		mov	r7, r1
 6096 0020 0546     		mov	r5, r0
1187:lvgl/src/lv_draw/lv_draw_rect.c **** 
 6097              		.loc 1 1187 5 is_stmt 1 view .LVU2217
1187:lvgl/src/lv_draw/lv_draw_rect.c **** 
 6098              		.loc 1 1187 29 is_stmt 0 view .LVU2218
 6099 0022 1846     		mov	r0, r3
 6100              	.LVL610:
1187:lvgl/src/lv_draw/lv_draw_rect.c **** 
 6101              		.loc 1 1187 29 view .LVU2219
 6102 0024 FFF7FEFF 		bl	lv_img_src_get_type
 6103              	.LVL611:
1187:lvgl/src/lv_draw/lv_draw_rect.c **** 
 6104              		.loc 1 1187 29 view .LVU2220
 6105 0028 8046     		mov	r8, r0
 6106              	.LVL612:
1189:lvgl/src/lv_draw/lv_draw_rect.c ****     lv_draw_label_dsc_t label_dsc;
 6107              		.loc 1 1189 5 is_stmt 1 view .LVU2221
1190:lvgl/src/lv_draw/lv_draw_rect.c ****     int32_t img_w;
 6108              		.loc 1 1190 5 view .LVU2222
1191:lvgl/src/lv_draw/lv_draw_rect.c ****     int32_t img_h;
 6109              		.loc 1 1191 5 view .LVU2223
1192:lvgl/src/lv_draw/lv_draw_rect.c **** 
 6110              		.loc 1 1192 5 view .LVU2224
1194:lvgl/src/lv_draw/lv_draw_rect.c ****         lv_img_header_t header;
 6111              		.loc 1 1194 5 view .LVU2225
1194:lvgl/src/lv_draw/lv_draw_rect.c ****         lv_img_header_t header;
 6112              		.loc 1 1194 7 is_stmt 0 view .LVU2226
 6113 002a 0128     		cmp	r0, #1
 6114 002c 6FD9     		bls	.L322
1210:lvgl/src/lv_draw/lv_draw_rect.c ****         lv_draw_label_dsc_init(&label_dsc);
 6115              		.loc 1 1210 10 is_stmt 1 view .LVU2227
1210:lvgl/src/lv_draw/lv_draw_rect.c ****         lv_draw_label_dsc_init(&label_dsc);
 6116              		.loc 1 1210 12 is_stmt 0 view .LVU2228
 6117 002e 0228     		cmp	r0, #2
 6118 0030 40F08A80 		bne	.L302
ARM GAS  D:\Temp\ccGEpo4V.s 			page 175


 6119              	.LBB418:
1211:lvgl/src/lv_draw/lv_draw_rect.c ****         label_dsc.color = dsc->pattern_recolor;
 6120              		.loc 1 1211 9 is_stmt 1 view .LVU2229
 6121 0034 11A8     		add	r0, sp, #68
 6122              	.LVL613:
1211:lvgl/src/lv_draw/lv_draw_rect.c ****         label_dsc.color = dsc->pattern_recolor;
 6123              		.loc 1 1211 9 is_stmt 0 view .LVU2230
 6124 0036 FFF7FEFF 		bl	lv_draw_label_dsc_init
 6125              	.LVL614:
1212:lvgl/src/lv_draw/lv_draw_rect.c ****         label_dsc.font = dsc->pattern_font;
 6126              		.loc 1 1212 9 is_stmt 1 view .LVU2231
1212:lvgl/src/lv_draw/lv_draw_rect.c ****         label_dsc.font = dsc->pattern_font;
 6127              		.loc 1 1212 25 is_stmt 0 view .LVU2232
 6128 003a A38E     		ldrh	r3, [r4, #52]
 6129 003c ADF84430 		strh	r3, [sp, #68]	@ movhi
1213:lvgl/src/lv_draw/lv_draw_rect.c ****         label_dsc.opa = dsc->pattern_opa;
 6130              		.loc 1 1213 9 is_stmt 1 view .LVU2233
1213:lvgl/src/lv_draw/lv_draw_rect.c ****         label_dsc.opa = dsc->pattern_opa;
 6131              		.loc 1 1213 29 is_stmt 0 view .LVU2234
 6132 0040 226B     		ldr	r2, [r4, #48]
1213:lvgl/src/lv_draw/lv_draw_rect.c ****         label_dsc.opa = dsc->pattern_opa;
 6133              		.loc 1 1213 24 view .LVU2235
 6134 0042 1392     		str	r2, [sp, #76]
1214:lvgl/src/lv_draw/lv_draw_rect.c ****         lv_point_t s;
 6135              		.loc 1 1214 9 is_stmt 1 view .LVU2236
1214:lvgl/src/lv_draw/lv_draw_rect.c ****         lv_point_t s;
 6136              		.loc 1 1214 28 is_stmt 0 view .LVU2237
 6137 0044 94F83630 		ldrb	r3, [r4, #54]	@ zero_extendqisi2
1214:lvgl/src/lv_draw/lv_draw_rect.c ****         lv_point_t s;
 6138              		.loc 1 1214 23 view .LVU2238
 6139 0048 8DF85030 		strb	r3, [sp, #80]
1215:lvgl/src/lv_draw/lv_draw_rect.c ****         _lv_txt_get_size(&s, dsc->pattern_image, label_dsc.font, label_dsc.letter_space, label_dsc.
 6140              		.loc 1 1215 9 is_stmt 1 view .LVU2239
1216:lvgl/src/lv_draw/lv_draw_rect.c ****                          LV_TXT_FLAG_NONE);
 6141              		.loc 1 1216 9 view .LVU2240
 6142 004c 0023     		movs	r3, #0
 6143 004e 0293     		str	r3, [sp, #8]
 6144 0050 47F61843 		movw	r3, #31768
 6145 0054 0193     		str	r3, [sp, #4]
 6146 0056 BDF95230 		ldrsh	r3, [sp, #82]
 6147 005a 0093     		str	r3, [sp]
 6148 005c BDF95430 		ldrsh	r3, [sp, #84]
 6149 0060 E16A     		ldr	r1, [r4, #44]
 6150 0062 07A8     		add	r0, sp, #28
 6151 0064 FFF7FEFF 		bl	_lv_txt_get_size
 6152              	.LVL615:
1218:lvgl/src/lv_draw/lv_draw_rect.c ****         img_h = s.y;
 6153              		.loc 1 1218 9 view .LVU2241
1218:lvgl/src/lv_draw/lv_draw_rect.c ****         img_h = s.y;
 6154              		.loc 1 1218 18 is_stmt 0 view .LVU2242
 6155 0068 BDF91CA0 		ldrsh	r10, [sp, #28]
 6156              	.LVL616:
1219:lvgl/src/lv_draw/lv_draw_rect.c **** 
 6157              		.loc 1 1219 9 is_stmt 1 view .LVU2243
1219:lvgl/src/lv_draw/lv_draw_rect.c **** 
 6158              		.loc 1 1219 18 is_stmt 0 view .LVU2244
 6159 006c BDF91E60 		ldrsh	r6, [sp, #30]
ARM GAS  D:\Temp\ccGEpo4V.s 			page 176


 6160              	.LVL617:
 6161              	.L301:
1219:lvgl/src/lv_draw/lv_draw_rect.c **** 
 6162              		.loc 1 1219 18 view .LVU2245
 6163              	.LBE418:
1230:lvgl/src/lv_draw/lv_draw_rect.c **** 
 6164              		.loc 1 1230 5 is_stmt 1 view .LVU2246
1230:lvgl/src/lv_draw/lv_draw_rect.c **** 
 6165              		.loc 1 1230 7 is_stmt 0 view .LVU2247
 6166 0070 BAF1000F 		cmp	r10, #0
 6167 0074 CFD0     		beq	.L297
1230:lvgl/src/lv_draw/lv_draw_rect.c **** 
 6168              		.loc 1 1230 19 discriminator 2 view .LVU2248
 6169 0076 002E     		cmp	r6, #0
 6170 0078 CDD0     		beq	.L297
1232:lvgl/src/lv_draw/lv_draw_rect.c ****     lv_draw_mask_radius_param_t radius_mask_param;
 6171              		.loc 1 1232 5 is_stmt 1 view .LVU2249
1233:lvgl/src/lv_draw/lv_draw_rect.c **** 
 6172              		.loc 1 1233 5 view .LVU2250
1235:lvgl/src/lv_draw/lv_draw_rect.c ****         lv_draw_mask_radius_init(&radius_mask_param, coords, dsc->radius, false);
 6173              		.loc 1 1235 5 view .LVU2251
1235:lvgl/src/lv_draw/lv_draw_rect.c ****         lv_draw_mask_radius_init(&radius_mask_param, coords, dsc->radius, false);
 6174              		.loc 1 1235 8 is_stmt 0 view .LVU2252
 6175 007a 94F83830 		ldrb	r3, [r4, #56]	@ zero_extendqisi2
1235:lvgl/src/lv_draw/lv_draw_rect.c ****         lv_draw_mask_radius_init(&radius_mask_param, coords, dsc->radius, false);
 6176              		.loc 1 1235 7 view .LVU2253
 6177 007e 13F0010F 		tst	r3, #1
 6178 0082 68D1     		bne	.L323
 6179              	.LBB419:
1256:lvgl/src/lv_draw/lv_draw_rect.c ****         int32_t obj_h = lv_area_get_height(coords);
 6180              		.loc 1 1256 9 is_stmt 1 view .LVU2254
 6181              	.LVL618:
 6182              	.LBB420:
 6183              	.LBI420:
 107:lvgl/src/lv_draw/../lv_core/../lv_font/../lv_misc/lv_area.h **** {
 6184              		.loc 2 107 26 view .LVU2255
 6185              	.LBB421:
 109:lvgl/src/lv_draw/../lv_core/../lv_font/../lv_misc/lv_area.h **** }
 6186              		.loc 2 109 5 view .LVU2256
 109:lvgl/src/lv_draw/../lv_core/../lv_font/../lv_misc/lv_area.h **** }
 6187              		.loc 2 109 31 is_stmt 0 view .LVU2257
 6188 0084 AB88     		ldrh	r3, [r5, #4]
 109:lvgl/src/lv_draw/../lv_core/../lv_font/../lv_misc/lv_area.h **** }
 6189              		.loc 2 109 44 view .LVU2258
 6190 0086 2988     		ldrh	r1, [r5]
 109:lvgl/src/lv_draw/../lv_core/../lv_font/../lv_misc/lv_area.h **** }
 6191              		.loc 2 109 36 view .LVU2259
 6192 0088 5B1A     		subs	r3, r3, r1
 6193 008a 9BB2     		uxth	r3, r3
 109:lvgl/src/lv_draw/../lv_core/../lv_font/../lv_misc/lv_area.h **** }
 6194              		.loc 2 109 49 view .LVU2260
 6195 008c 0133     		adds	r3, r3, #1
 109:lvgl/src/lv_draw/../lv_core/../lv_font/../lv_misc/lv_area.h **** }
 6196              		.loc 2 109 12 view .LVU2261
 6197 008e 1BB2     		sxth	r3, r3
 6198              	.LVL619:
 109:lvgl/src/lv_draw/../lv_core/../lv_font/../lv_misc/lv_area.h **** }
ARM GAS  D:\Temp\ccGEpo4V.s 			page 177


 6199              		.loc 2 109 12 view .LVU2262
 6200              	.LBE421:
 6201              	.LBE420:
1257:lvgl/src/lv_draw/lv_draw_rect.c ****         coords_tmp.x1 = coords->x1 + (obj_w - img_w) / 2;
 6202              		.loc 1 1257 9 is_stmt 1 view .LVU2263
 6203              	.LBB422:
 6204              	.LBI422:
 117:lvgl/src/lv_draw/../lv_core/../lv_font/../lv_misc/lv_area.h **** {
 6205              		.loc 2 117 26 view .LVU2264
 6206              	.LBB423:
 6207              		.loc 2 119 5 view .LVU2265
 6208              		.loc 2 119 31 is_stmt 0 view .LVU2266
 6209 0090 EA88     		ldrh	r2, [r5, #6]
 6210              		.loc 2 119 44 view .LVU2267
 6211 0092 6888     		ldrh	r0, [r5, #2]
 6212              		.loc 2 119 36 view .LVU2268
 6213 0094 121A     		subs	r2, r2, r0
 6214 0096 92B2     		uxth	r2, r2
 6215              		.loc 2 119 49 view .LVU2269
 6216 0098 0132     		adds	r2, r2, #1
 6217              		.loc 2 119 12 view .LVU2270
 6218 009a 12B2     		sxth	r2, r2
 6219              	.LVL620:
 6220              		.loc 2 119 12 view .LVU2271
 6221              	.LBE423:
 6222              	.LBE422:
1258:lvgl/src/lv_draw/lv_draw_rect.c ****         coords_tmp.y1 = coords->y1 + (obj_h - img_h) / 2;
 6223              		.loc 1 1258 9 is_stmt 1 view .LVU2272
1258:lvgl/src/lv_draw/lv_draw_rect.c ****         coords_tmp.y1 = coords->y1 + (obj_h - img_h) / 2;
 6224              		.loc 1 1258 45 is_stmt 0 view .LVU2273
 6225 009c A3EB0A03 		sub	r3, r3, r10
 6226              	.LVL621:
1258:lvgl/src/lv_draw/lv_draw_rect.c ****         coords_tmp.y1 = coords->y1 + (obj_h - img_h) / 2;
 6227              		.loc 1 1258 54 view .LVU2274
 6228 00a0 03EBD373 		add	r3, r3, r3, lsr #31
1258:lvgl/src/lv_draw/lv_draw_rect.c ****         coords_tmp.y1 = coords->y1 + (obj_h - img_h) / 2;
 6229              		.loc 1 1258 36 view .LVU2275
 6230 00a4 01EB6303 		add	r3, r1, r3, asr #1
 6231 00a8 9BB2     		uxth	r3, r3
1258:lvgl/src/lv_draw/lv_draw_rect.c ****         coords_tmp.y1 = coords->y1 + (obj_h - img_h) / 2;
 6232              		.loc 1 1258 23 view .LVU2276
 6233 00aa ADF83C30 		strh	r3, [sp, #60]	@ movhi
1259:lvgl/src/lv_draw/lv_draw_rect.c ****         coords_tmp.x2 = coords_tmp.x1 + img_w - 1;
 6234              		.loc 1 1259 9 is_stmt 1 view .LVU2277
1259:lvgl/src/lv_draw/lv_draw_rect.c ****         coords_tmp.x2 = coords_tmp.x1 + img_w - 1;
 6235              		.loc 1 1259 45 is_stmt 0 view .LVU2278
 6236 00ae 921B     		subs	r2, r2, r6
 6237              	.LVL622:
1259:lvgl/src/lv_draw/lv_draw_rect.c ****         coords_tmp.x2 = coords_tmp.x1 + img_w - 1;
 6238              		.loc 1 1259 54 view .LVU2279
 6239 00b0 02EBD271 		add	r1, r2, r2, lsr #31
 6240              	.LVL623:
1259:lvgl/src/lv_draw/lv_draw_rect.c ****         coords_tmp.x2 = coords_tmp.x1 + img_w - 1;
 6241              		.loc 1 1259 36 view .LVU2280
 6242 00b4 00EB6101 		add	r1, r0, r1, asr #1
 6243 00b8 89B2     		uxth	r1, r1
1259:lvgl/src/lv_draw/lv_draw_rect.c ****         coords_tmp.x2 = coords_tmp.x1 + img_w - 1;
ARM GAS  D:\Temp\ccGEpo4V.s 			page 178


 6244              		.loc 1 1259 23 view .LVU2281
 6245 00ba ADF83E10 		strh	r1, [sp, #62]	@ movhi
1260:lvgl/src/lv_draw/lv_draw_rect.c ****         coords_tmp.y2 = coords_tmp.y1 + img_h - 1;
 6246              		.loc 1 1260 9 is_stmt 1 view .LVU2282
1260:lvgl/src/lv_draw/lv_draw_rect.c ****         coords_tmp.y2 = coords_tmp.y1 + img_h - 1;
 6247              		.loc 1 1260 39 is_stmt 0 view .LVU2283
 6248 00be 5344     		add	r3, r3, r10
 6249 00c0 9BB2     		uxth	r3, r3
1260:lvgl/src/lv_draw/lv_draw_rect.c ****         coords_tmp.y2 = coords_tmp.y1 + img_h - 1;
 6250              		.loc 1 1260 47 view .LVU2284
 6251 00c2 013B     		subs	r3, r3, #1
1260:lvgl/src/lv_draw/lv_draw_rect.c ****         coords_tmp.y2 = coords_tmp.y1 + img_h - 1;
 6252              		.loc 1 1260 23 view .LVU2285
 6253 00c4 ADF84030 		strh	r3, [sp, #64]	@ movhi
1261:lvgl/src/lv_draw/lv_draw_rect.c **** 
 6254              		.loc 1 1261 9 is_stmt 1 view .LVU2286
1261:lvgl/src/lv_draw/lv_draw_rect.c **** 
 6255              		.loc 1 1261 39 is_stmt 0 view .LVU2287
 6256 00c8 8B19     		adds	r3, r1, r6
 6257 00ca 9BB2     		uxth	r3, r3
1261:lvgl/src/lv_draw/lv_draw_rect.c **** 
 6258              		.loc 1 1261 47 view .LVU2288
 6259 00cc 013B     		subs	r3, r3, #1
 6260 00ce 9BB2     		uxth	r3, r3
1261:lvgl/src/lv_draw/lv_draw_rect.c **** 
 6261              		.loc 1 1261 23 view .LVU2289
 6262 00d0 ADF84230 		strh	r3, [sp, #66]	@ movhi
 6263              	.LVL624:
1266:lvgl/src/lv_draw/lv_draw_rect.c ****             int32_t y_corr = (obj_h - img_h) & 0x1;
 6264              		.loc 1 1266 9 is_stmt 1 view .LVU2290
1266:lvgl/src/lv_draw/lv_draw_rect.c ****             int32_t y_corr = (obj_h - img_h) & 0x1;
 6265              		.loc 1 1266 11 is_stmt 0 view .LVU2291
 6266 00d4 B8F1020F 		cmp	r8, #2
 6267 00d8 00F0B480 		beq	.L324
 6268              	.L311:
1272:lvgl/src/lv_draw/lv_draw_rect.c ****         if(_lv_area_is_in(&coords_tmp, coords, dsc->radius) == false) {
 6269              		.loc 1 1272 9 is_stmt 1 view .LVU2292
 6270              	.LVL625:
1273:lvgl/src/lv_draw/lv_draw_rect.c ****             lv_draw_mask_radius_init(&radius_mask_param, coords, dsc->radius, false);
 6271              		.loc 1 1273 9 view .LVU2293
1273:lvgl/src/lv_draw/lv_draw_rect.c ****             lv_draw_mask_radius_init(&radius_mask_param, coords, dsc->radius, false);
 6272              		.loc 1 1273 12 is_stmt 0 view .LVU2294
 6273 00dc B4F90020 		ldrsh	r2, [r4]
 6274 00e0 2946     		mov	r1, r5
 6275 00e2 0FA8     		add	r0, sp, #60
 6276 00e4 FFF7FEFF 		bl	_lv_area_is_in
 6277              	.LVL626:
1273:lvgl/src/lv_draw/lv_draw_rect.c ****             lv_draw_mask_radius_init(&radius_mask_param, coords, dsc->radius, false);
 6278              		.loc 1 1273 11 view .LVU2295
 6279 00e8 0028     		cmp	r0, #0
 6280 00ea 00F0B480 		beq	.L325
1272:lvgl/src/lv_draw/lv_draw_rect.c ****         if(_lv_area_is_in(&coords_tmp, coords, dsc->radius) == false) {
 6281              		.loc 1 1272 17 view .LVU2296
 6282 00ee 4FF0FF35 		mov	r5, #-1
 6283              	.LVL627:
 6284              	.L312:
1278:lvgl/src/lv_draw/lv_draw_rect.c ****         else lv_draw_img(&coords_tmp, clip, dsc->pattern_image, &img_dsc);
ARM GAS  D:\Temp\ccGEpo4V.s 			page 179


 6285              		.loc 1 1278 9 is_stmt 1 view .LVU2297
1278:lvgl/src/lv_draw/lv_draw_rect.c ****         else lv_draw_img(&coords_tmp, clip, dsc->pattern_image, &img_dsc);
 6286              		.loc 1 1278 11 is_stmt 0 view .LVU2298
 6287 00f2 B8F1020F 		cmp	r8, #2
 6288 00f6 00F0BB80 		beq	.L326
1279:lvgl/src/lv_draw/lv_draw_rect.c **** 
 6289              		.loc 1 1279 14 is_stmt 1 view .LVU2299
 6290 00fa 1AAB     		add	r3, sp, #104
 6291 00fc E26A     		ldr	r2, [r4, #44]
 6292 00fe 3946     		mov	r1, r7
 6293 0100 0FA8     		add	r0, sp, #60
 6294 0102 FFF7FEFF 		bl	lv_draw_img
 6295              	.LVL628:
 6296              	.L314:
1281:lvgl/src/lv_draw/lv_draw_rect.c ****     }
 6297              		.loc 1 1281 9 view .LVU2300
 6298 0106 2846     		mov	r0, r5
 6299 0108 FFF7FEFF 		bl	lv_draw_mask_remove_id
 6300              	.LVL629:
 6301 010c 83E7     		b	.L297
 6302              	.LVL630:
 6303              	.L322:
1281:lvgl/src/lv_draw/lv_draw_rect.c ****     }
 6304              		.loc 1 1281 9 is_stmt 0 view .LVU2301
 6305              	.LBE419:
 6306              	.LBB425:
1195:lvgl/src/lv_draw/lv_draw_rect.c ****         lv_res_t res = lv_img_decoder_get_info(dsc->pattern_image, &header);
 6307              		.loc 1 1195 9 is_stmt 1 view .LVU2302
1196:lvgl/src/lv_draw/lv_draw_rect.c ****         if(res != LV_RES_OK) {
 6308              		.loc 1 1196 9 view .LVU2303
1196:lvgl/src/lv_draw/lv_draw_rect.c ****         if(res != LV_RES_OK) {
 6309              		.loc 1 1196 24 is_stmt 0 view .LVU2304
 6310 010e 07A9     		add	r1, sp, #28
 6311 0110 E06A     		ldr	r0, [r4, #44]
 6312              	.LVL631:
1196:lvgl/src/lv_draw/lv_draw_rect.c ****         if(res != LV_RES_OK) {
 6313              		.loc 1 1196 24 view .LVU2305
 6314 0112 FFF7FEFF 		bl	lv_img_decoder_get_info
 6315              	.LVL632:
1197:lvgl/src/lv_draw/lv_draw_rect.c ****             LV_LOG_WARN("draw_img: can't get image info");
 6316              		.loc 1 1197 9 is_stmt 1 view .LVU2306
1197:lvgl/src/lv_draw/lv_draw_rect.c ****             LV_LOG_WARN("draw_img: can't get image info");
 6317              		.loc 1 1197 11 is_stmt 0 view .LVU2307
 6318 0116 0128     		cmp	r0, #1
 6319 0118 7FF47DAF 		bne	.L297
1202:lvgl/src/lv_draw/lv_draw_rect.c ****         img_h = header.h;
 6320              		.loc 1 1202 9 is_stmt 1 view .LVU2308
1202:lvgl/src/lv_draw/lv_draw_rect.c ****         img_h = header.h;
 6321              		.loc 1 1202 23 is_stmt 0 view .LVU2309
 6322 011c 079B     		ldr	r3, [sp, #28]
 6323 011e C3F38A2A 		ubfx	r10, r3, #10, #11
 6324              	.LVL633:
1203:lvgl/src/lv_draw/lv_draw_rect.c **** 
 6325              		.loc 1 1203 9 is_stmt 1 view .LVU2310
1203:lvgl/src/lv_draw/lv_draw_rect.c **** 
 6326              		.loc 1 1203 23 is_stmt 0 view .LVU2311
 6327 0122 BDF81E90 		ldrh	r9, [sp, #30]
ARM GAS  D:\Temp\ccGEpo4V.s 			page 180


 6328 0126 4FEA5916 		lsr	r6, r9, #5
 6329              	.LVL634:
1205:lvgl/src/lv_draw/lv_draw_rect.c ****         img_dsc.opa = dsc->pattern_opa;
 6330              		.loc 1 1205 9 is_stmt 1 view .LVU2312
 6331 012a 1AA8     		add	r0, sp, #104
 6332              	.LVL635:
1205:lvgl/src/lv_draw/lv_draw_rect.c ****         img_dsc.opa = dsc->pattern_opa;
 6333              		.loc 1 1205 9 is_stmt 0 view .LVU2313
 6334 012c FFF7FEFF 		bl	lv_draw_img_dsc_init
 6335              	.LVL636:
1206:lvgl/src/lv_draw/lv_draw_rect.c ****         img_dsc.recolor_opa = dsc->pattern_recolor_opa;
 6336              		.loc 1 1206 9 is_stmt 1 view .LVU2314
1206:lvgl/src/lv_draw/lv_draw_rect.c ****         img_dsc.recolor_opa = dsc->pattern_recolor_opa;
 6337              		.loc 1 1206 26 is_stmt 0 view .LVU2315
 6338 0130 94F83630 		ldrb	r3, [r4, #54]	@ zero_extendqisi2
1206:lvgl/src/lv_draw/lv_draw_rect.c ****         img_dsc.recolor_opa = dsc->pattern_recolor_opa;
 6339              		.loc 1 1206 21 view .LVU2316
 6340 0134 8DF86830 		strb	r3, [sp, #104]
1207:lvgl/src/lv_draw/lv_draw_rect.c ****         img_dsc.recolor = dsc->pattern_recolor;
 6341              		.loc 1 1207 9 is_stmt 1 view .LVU2317
1207:lvgl/src/lv_draw/lv_draw_rect.c ****         img_dsc.recolor = dsc->pattern_recolor;
 6342              		.loc 1 1207 34 is_stmt 0 view .LVU2318
 6343 0138 94F83730 		ldrb	r3, [r4, #55]	@ zero_extendqisi2
1207:lvgl/src/lv_draw/lv_draw_rect.c ****         img_dsc.recolor = dsc->pattern_recolor;
 6344              		.loc 1 1207 29 view .LVU2319
 6345 013c 8DF87230 		strb	r3, [sp, #114]
1208:lvgl/src/lv_draw/lv_draw_rect.c ****     }
 6346              		.loc 1 1208 9 is_stmt 1 view .LVU2320
1208:lvgl/src/lv_draw/lv_draw_rect.c ****     }
 6347              		.loc 1 1208 25 is_stmt 0 view .LVU2321
 6348 0140 A38E     		ldrh	r3, [r4, #52]
 6349 0142 ADF87430 		strh	r3, [sp, #116]	@ movhi
 6350              	.LBE425:
 6351 0146 93E7     		b	.L301
 6352              	.LVL637:
 6353              	.L302:
1224:lvgl/src/lv_draw/lv_draw_rect.c ****         lv_draw_img(coords, clip, NULL, NULL);
 6354              		.loc 1 1224 67 is_stmt 1 view .LVU2322
1225:lvgl/src/lv_draw/lv_draw_rect.c ****         return;
 6355              		.loc 1 1225 9 view .LVU2323
 6356 0148 0023     		movs	r3, #0
 6357 014a 1A46     		mov	r2, r3
 6358 014c 3946     		mov	r1, r7
 6359 014e 2846     		mov	r0, r5
 6360              	.LVL638:
1225:lvgl/src/lv_draw/lv_draw_rect.c ****         return;
 6361              		.loc 1 1225 9 is_stmt 0 view .LVU2324
 6362 0150 FFF7FEFF 		bl	lv_draw_img
 6363              	.LVL639:
1226:lvgl/src/lv_draw/lv_draw_rect.c ****     }
 6364              		.loc 1 1226 9 is_stmt 1 view .LVU2325
 6365 0154 5FE7     		b	.L297
 6366              	.LVL640:
 6367              	.L323:
 6368              	.LBB426:
1236:lvgl/src/lv_draw/lv_draw_rect.c ****         int16_t radius_mask_id = lv_draw_mask_add(&radius_mask_param, NULL);
 6369              		.loc 1 1236 9 view .LVU2326
ARM GAS  D:\Temp\ccGEpo4V.s 			page 181


 6370 0156 0023     		movs	r3, #0
 6371 0158 B4F90020 		ldrsh	r2, [r4]
 6372 015c 2946     		mov	r1, r5
 6373 015e 08A8     		add	r0, sp, #32
 6374 0160 FFF7FEFF 		bl	lv_draw_mask_radius_init
 6375              	.LVL641:
1237:lvgl/src/lv_draw/lv_draw_rect.c **** 
 6376              		.loc 1 1237 9 view .LVU2327
1237:lvgl/src/lv_draw/lv_draw_rect.c **** 
 6377              		.loc 1 1237 34 is_stmt 0 view .LVU2328
 6378 0164 0021     		movs	r1, #0
 6379 0166 08A8     		add	r0, sp, #32
 6380 0168 FFF7FEFF 		bl	lv_draw_mask_add
 6381              	.LVL642:
 6382 016c 0590     		str	r0, [sp, #20]
 6383              	.LVL643:
1240:lvgl/src/lv_draw/lv_draw_rect.c ****         int32_t ofs_y = (lv_area_get_height(coords) - (lv_area_get_height(coords) / img_h) * img_h)
 6384              		.loc 1 1240 9 is_stmt 1 view .LVU2329
 6385              	.LBB427:
 6386              	.LBI427:
 107:lvgl/src/lv_draw/../lv_core/../lv_font/../lv_misc/lv_area.h **** {
 6387              		.loc 2 107 26 view .LVU2330
 6388              	.LBB428:
 109:lvgl/src/lv_draw/../lv_core/../lv_font/../lv_misc/lv_area.h **** }
 6389              		.loc 2 109 5 view .LVU2331
 109:lvgl/src/lv_draw/../lv_core/../lv_font/../lv_misc/lv_area.h **** }
 6390              		.loc 2 109 31 is_stmt 0 view .LVU2332
 6391 016e AB88     		ldrh	r3, [r5, #4]
 109:lvgl/src/lv_draw/../lv_core/../lv_font/../lv_misc/lv_area.h **** }
 6392              		.loc 2 109 44 view .LVU2333
 6393 0170 2A88     		ldrh	r2, [r5]
 109:lvgl/src/lv_draw/../lv_core/../lv_font/../lv_misc/lv_area.h **** }
 6394              		.loc 2 109 36 view .LVU2334
 6395 0172 9B1A     		subs	r3, r3, r2
 6396 0174 9BB2     		uxth	r3, r3
 109:lvgl/src/lv_draw/../lv_core/../lv_font/../lv_misc/lv_area.h **** }
 6397              		.loc 2 109 49 view .LVU2335
 6398 0176 0133     		adds	r3, r3, #1
 109:lvgl/src/lv_draw/../lv_core/../lv_font/../lv_misc/lv_area.h **** }
 6399              		.loc 2 109 12 view .LVU2336
 6400 0178 1BB2     		sxth	r3, r3
 6401              	.LVL644:
 109:lvgl/src/lv_draw/../lv_core/../lv_font/../lv_misc/lv_area.h **** }
 6402              		.loc 2 109 12 view .LVU2337
 6403              	.LBE428:
 6404              	.LBE427:
 6405              	.LBE426:
 109:lvgl/src/lv_draw/../lv_core/../lv_font/../lv_misc/lv_area.h **** }
 6406              		.loc 2 109 5 is_stmt 1 view .LVU2338
 6407              	.LBB431:
1240:lvgl/src/lv_draw/lv_draw_rect.c ****         int32_t ofs_y = (lv_area_get_height(coords) - (lv_area_get_height(coords) / img_h) * img_h)
 6408              		.loc 1 1240 81 is_stmt 0 view .LVU2339
 6409 017a 93FBFAF2 		sdiv	r2, r3, r10
1240:lvgl/src/lv_draw/lv_draw_rect.c ****         int32_t ofs_y = (lv_area_get_height(coords) - (lv_area_get_height(coords) / img_h) * img_h)
 6410              		.loc 1 1240 52 view .LVU2340
 6411 017e 0AFB1233 		mls	r3, r10, r2, r3
1240:lvgl/src/lv_draw/lv_draw_rect.c ****         int32_t ofs_y = (lv_area_get_height(coords) - (lv_area_get_height(coords) / img_h) * img_h)
ARM GAS  D:\Temp\ccGEpo4V.s 			page 182


 6412              		.loc 1 1240 17 view .LVU2341
 6413 0182 03EBD373 		add	r3, r3, r3, lsr #31
 6414 0186 4FEA630B 		asr	fp, r3, #1
 6415              	.LVL645:
1241:lvgl/src/lv_draw/lv_draw_rect.c **** 
 6416              		.loc 1 1241 9 is_stmt 1 view .LVU2342
 6417              	.LBB429:
 6418              	.LBI429:
 117:lvgl/src/lv_draw/../lv_core/../lv_font/../lv_misc/lv_area.h **** {
 6419              		.loc 2 117 26 view .LVU2343
 6420              	.LBB430:
 6421              		.loc 2 119 5 view .LVU2344
 6422              		.loc 2 119 31 is_stmt 0 view .LVU2345
 6423 018a EA88     		ldrh	r2, [r5, #6]
 6424              		.loc 2 119 44 view .LVU2346
 6425 018c 6B88     		ldrh	r3, [r5, #2]
 6426              		.loc 2 119 36 view .LVU2347
 6427 018e D21A     		subs	r2, r2, r3
 6428 0190 92B2     		uxth	r2, r2
 6429              		.loc 2 119 49 view .LVU2348
 6430 0192 0132     		adds	r2, r2, #1
 6431              		.loc 2 119 12 view .LVU2349
 6432 0194 12B2     		sxth	r2, r2
 6433              	.LVL646:
 6434              		.loc 2 119 12 view .LVU2350
 6435              	.LBE430:
 6436              	.LBE429:
 6437              	.LBE431:
 6438              		.loc 2 119 5 is_stmt 1 view .LVU2351
 6439              	.LBB432:
1241:lvgl/src/lv_draw/lv_draw_rect.c **** 
 6440              		.loc 1 1241 83 is_stmt 0 view .LVU2352
 6441 0196 92FBF6F1 		sdiv	r1, r2, r6
1241:lvgl/src/lv_draw/lv_draw_rect.c **** 
 6442              		.loc 1 1241 53 view .LVU2353
 6443 019a 06FB1122 		mls	r2, r6, r1, r2
1241:lvgl/src/lv_draw/lv_draw_rect.c **** 
 6444              		.loc 1 1241 17 view .LVU2354
 6445 019e 02EBD272 		add	r2, r2, r2, lsr #31
 6446              	.LVL647:
1243:lvgl/src/lv_draw/lv_draw_rect.c ****         coords_tmp.y2 = coords_tmp.y1 + img_h - 1;
 6447              		.loc 1 1243 9 is_stmt 1 view .LVU2355
1243:lvgl/src/lv_draw/lv_draw_rect.c ****         coords_tmp.y2 = coords_tmp.y1 + img_h - 1;
 6448              		.loc 1 1243 36 is_stmt 0 view .LVU2356
 6449 01a2 A3EB6203 		sub	r3, r3, r2, asr #1
 6450 01a6 9BB2     		uxth	r3, r3
1243:lvgl/src/lv_draw/lv_draw_rect.c ****         coords_tmp.y2 = coords_tmp.y1 + img_h - 1;
 6451              		.loc 1 1243 23 view .LVU2357
 6452 01a8 ADF83E30 		strh	r3, [sp, #62]	@ movhi
1244:lvgl/src/lv_draw/lv_draw_rect.c ****         for(; coords_tmp.y1 <= coords->y2; coords_tmp.y1 += img_h, coords_tmp.y2 += img_h) {
 6453              		.loc 1 1244 9 is_stmt 1 view .LVU2358
1244:lvgl/src/lv_draw/lv_draw_rect.c ****         for(; coords_tmp.y1 <= coords->y2; coords_tmp.y1 += img_h, coords_tmp.y2 += img_h) {
 6454              		.loc 1 1244 39 is_stmt 0 view .LVU2359
 6455 01ac 1FFA86F9 		uxth	r9, r6
 6456 01b0 4B44     		add	r3, r3, r9
 6457 01b2 9BB2     		uxth	r3, r3
1244:lvgl/src/lv_draw/lv_draw_rect.c ****         for(; coords_tmp.y1 <= coords->y2; coords_tmp.y1 += img_h, coords_tmp.y2 += img_h) {
ARM GAS  D:\Temp\ccGEpo4V.s 			page 183


 6458              		.loc 1 1244 47 view .LVU2360
 6459 01b4 013B     		subs	r3, r3, #1
1244:lvgl/src/lv_draw/lv_draw_rect.c ****         for(; coords_tmp.y1 <= coords->y2; coords_tmp.y1 += img_h, coords_tmp.y2 += img_h) {
 6460              		.loc 1 1244 23 view .LVU2361
 6461 01b6 ADF84230 		strh	r3, [sp, #66]	@ movhi
1245:lvgl/src/lv_draw/lv_draw_rect.c ****             coords_tmp.x1 = coords->x1 - ofs_x;
 6462              		.loc 1 1245 9 is_stmt 1 view .LVU2362
 6463 01ba 2BE0     		b	.L304
 6464              	.LVL648:
 6465              	.L306:
1250:lvgl/src/lv_draw/lv_draw_rect.c ****             }
 6466              		.loc 1 1250 22 view .LVU2363
 6467 01bc 1AAB     		add	r3, sp, #104
 6468 01be E26A     		ldr	r2, [r4, #44]
 6469 01c0 3946     		mov	r1, r7
 6470 01c2 0FA8     		add	r0, sp, #60
 6471 01c4 FFF7FEFF 		bl	lv_draw_img
 6472              	.LVL649:
 6473              	.L307:
1248:lvgl/src/lv_draw/lv_draw_rect.c ****                 if(src_type == LV_IMG_SRC_SYMBOL)  lv_draw_label(&coords_tmp, clip, &label_dsc, dsc
 6474              		.loc 1 1248 62 is_stmt 0 view .LVU2364
 6475 01c8 BDF83C30 		ldrh	r3, [sp, #60]
 6476 01cc 3344     		add	r3, r3, r6
 6477 01ce ADF83C30 		strh	r3, [sp, #60]	@ movhi
1248:lvgl/src/lv_draw/lv_draw_rect.c ****                 if(src_type == LV_IMG_SRC_SYMBOL)  lv_draw_label(&coords_tmp, clip, &label_dsc, dsc
 6478              		.loc 1 1248 86 view .LVU2365
 6479 01d2 BDF84030 		ldrh	r3, [sp, #64]
 6480 01d6 3344     		add	r3, r3, r6
 6481 01d8 ADF84030 		strh	r3, [sp, #64]	@ movhi
 6482              	.L305:
1248:lvgl/src/lv_draw/lv_draw_rect.c ****                 if(src_type == LV_IMG_SRC_SYMBOL)  lv_draw_label(&coords_tmp, clip, &label_dsc, dsc
 6483              		.loc 1 1248 29 discriminator 1 view .LVU2366
 6484 01dc BDF93C20 		ldrsh	r2, [sp, #60]
1248:lvgl/src/lv_draw/lv_draw_rect.c ****                 if(src_type == LV_IMG_SRC_SYMBOL)  lv_draw_label(&coords_tmp, clip, &label_dsc, dsc
 6485              		.loc 1 1248 42 discriminator 1 view .LVU2367
 6486 01e0 B5F90430 		ldrsh	r3, [r5, #4]
1248:lvgl/src/lv_draw/lv_draw_rect.c ****                 if(src_type == LV_IMG_SRC_SYMBOL)  lv_draw_label(&coords_tmp, clip, &label_dsc, dsc
 6487              		.loc 1 1248 13 discriminator 1 view .LVU2368
 6488 01e4 9A42     		cmp	r2, r3
 6489 01e6 0BDC     		bgt	.L327
1249:lvgl/src/lv_draw/lv_draw_rect.c ****                 else lv_draw_img(&coords_tmp, clip, dsc->pattern_image, &img_dsc);
 6490              		.loc 1 1249 17 is_stmt 1 view .LVU2369
1249:lvgl/src/lv_draw/lv_draw_rect.c ****                 else lv_draw_img(&coords_tmp, clip, dsc->pattern_image, &img_dsc);
 6491              		.loc 1 1249 19 is_stmt 0 view .LVU2370
 6492 01e8 B8F1020F 		cmp	r8, #2
 6493 01ec E6D1     		bne	.L306
1249:lvgl/src/lv_draw/lv_draw_rect.c ****                 else lv_draw_img(&coords_tmp, clip, dsc->pattern_image, &img_dsc);
 6494              		.loc 1 1249 52 is_stmt 1 discriminator 1 view .LVU2371
 6495 01ee 0023     		movs	r3, #0
 6496 01f0 0093     		str	r3, [sp]
 6497 01f2 E36A     		ldr	r3, [r4, #44]
 6498 01f4 11AA     		add	r2, sp, #68
 6499 01f6 3946     		mov	r1, r7
 6500 01f8 0FA8     		add	r0, sp, #60
 6501 01fa FFF7FEFF 		bl	lv_draw_label
 6502              	.LVL650:
 6503 01fe E3E7     		b	.L307
ARM GAS  D:\Temp\ccGEpo4V.s 			page 184


 6504              	.L327:
1245:lvgl/src/lv_draw/lv_draw_rect.c ****             coords_tmp.x1 = coords->x1 - ofs_x;
 6505              		.loc 1 1245 58 is_stmt 0 view .LVU2372
 6506 0200 BDF83E30 		ldrh	r3, [sp, #62]
 6507 0204 4B44     		add	r3, r3, r9
 6508 0206 ADF83E30 		strh	r3, [sp, #62]	@ movhi
1245:lvgl/src/lv_draw/lv_draw_rect.c ****             coords_tmp.x1 = coords->x1 - ofs_x;
 6509              		.loc 1 1245 82 view .LVU2373
 6510 020a BDF84230 		ldrh	r3, [sp, #66]
 6511 020e 4B44     		add	r3, r3, r9
 6512 0210 ADF84230 		strh	r3, [sp, #66]	@ movhi
 6513              	.L304:
1245:lvgl/src/lv_draw/lv_draw_rect.c ****             coords_tmp.x1 = coords->x1 - ofs_x;
 6514              		.loc 1 1245 25 discriminator 1 view .LVU2374
 6515 0214 BDF93E20 		ldrsh	r2, [sp, #62]
1245:lvgl/src/lv_draw/lv_draw_rect.c ****             coords_tmp.x1 = coords->x1 - ofs_x;
 6516              		.loc 1 1245 38 discriminator 1 view .LVU2375
 6517 0218 B5F90630 		ldrsh	r3, [r5, #6]
1245:lvgl/src/lv_draw/lv_draw_rect.c ****             coords_tmp.x1 = coords->x1 - ofs_x;
 6518              		.loc 1 1245 9 discriminator 1 view .LVU2376
 6519 021c 9A42     		cmp	r2, r3
 6520 021e 0DDC     		bgt	.L328
1246:lvgl/src/lv_draw/lv_draw_rect.c ****             coords_tmp.x2 = coords_tmp.x1 + img_w - 1;
 6521              		.loc 1 1246 13 is_stmt 1 view .LVU2377
1246:lvgl/src/lv_draw/lv_draw_rect.c ****             coords_tmp.x2 = coords_tmp.x1 + img_w - 1;
 6522              		.loc 1 1246 35 is_stmt 0 view .LVU2378
 6523 0220 2B88     		ldrh	r3, [r5]
1246:lvgl/src/lv_draw/lv_draw_rect.c ****             coords_tmp.x2 = coords_tmp.x1 + img_w - 1;
 6524              		.loc 1 1246 40 view .LVU2379
 6525 0222 A3EB0B03 		sub	r3, r3, fp
 6526 0226 9BB2     		uxth	r3, r3
1246:lvgl/src/lv_draw/lv_draw_rect.c ****             coords_tmp.x2 = coords_tmp.x1 + img_w - 1;
 6527              		.loc 1 1246 27 view .LVU2380
 6528 0228 ADF83C30 		strh	r3, [sp, #60]	@ movhi
1247:lvgl/src/lv_draw/lv_draw_rect.c ****             for(; coords_tmp.x1 <= coords->x2; coords_tmp.x1 += img_w, coords_tmp.x2 += img_w) {
 6529              		.loc 1 1247 13 is_stmt 1 view .LVU2381
1247:lvgl/src/lv_draw/lv_draw_rect.c ****             for(; coords_tmp.x1 <= coords->x2; coords_tmp.x1 += img_w, coords_tmp.x2 += img_w) {
 6530              		.loc 1 1247 43 is_stmt 0 view .LVU2382
 6531 022c 1FFA8AF6 		uxth	r6, r10
 6532 0230 3344     		add	r3, r3, r6
 6533 0232 9BB2     		uxth	r3, r3
1247:lvgl/src/lv_draw/lv_draw_rect.c ****             for(; coords_tmp.x1 <= coords->x2; coords_tmp.x1 += img_w, coords_tmp.x2 += img_w) {
 6534              		.loc 1 1247 51 view .LVU2383
 6535 0234 013B     		subs	r3, r3, #1
1247:lvgl/src/lv_draw/lv_draw_rect.c ****             for(; coords_tmp.x1 <= coords->x2; coords_tmp.x1 += img_w, coords_tmp.x2 += img_w) {
 6536              		.loc 1 1247 27 view .LVU2384
 6537 0236 ADF84030 		strh	r3, [sp, #64]	@ movhi
1248:lvgl/src/lv_draw/lv_draw_rect.c ****                 if(src_type == LV_IMG_SRC_SYMBOL)  lv_draw_label(&coords_tmp, clip, &label_dsc, dsc
 6538              		.loc 1 1248 13 is_stmt 1 view .LVU2385
 6539 023a CFE7     		b	.L305
 6540              	.L328:
1253:lvgl/src/lv_draw/lv_draw_rect.c ****     }
 6541              		.loc 1 1253 9 view .LVU2386
 6542 023c 0598     		ldr	r0, [sp, #20]
 6543 023e FFF7FEFF 		bl	lv_draw_mask_remove_id
 6544              	.LVL651:
 6545              	.LBE432:
ARM GAS  D:\Temp\ccGEpo4V.s 			page 185


 6546 0242 E8E6     		b	.L297
 6547              	.LVL652:
 6548              	.L324:
 6549              	.LBB433:
 6550              	.LBB424:
1267:lvgl/src/lv_draw/lv_draw_rect.c ****             coords_tmp.y1 += y_corr;
 6551              		.loc 1 1267 13 view .LVU2387
1268:lvgl/src/lv_draw/lv_draw_rect.c ****             coords_tmp.y2 += y_corr;
 6552              		.loc 1 1268 13 view .LVU2388
1268:lvgl/src/lv_draw/lv_draw_rect.c ****             coords_tmp.y2 += y_corr;
 6553              		.loc 1 1268 27 is_stmt 0 view .LVU2389
 6554 0244 02F00102 		and	r2, r2, #1
 6555              	.LVL653:
1268:lvgl/src/lv_draw/lv_draw_rect.c ****             coords_tmp.y2 += y_corr;
 6556              		.loc 1 1268 27 view .LVU2390
 6557 0248 1144     		add	r1, r1, r2
 6558 024a ADF83E10 		strh	r1, [sp, #62]	@ movhi
1269:lvgl/src/lv_draw/lv_draw_rect.c ****         }
 6559              		.loc 1 1269 13 is_stmt 1 view .LVU2391
1269:lvgl/src/lv_draw/lv_draw_rect.c ****         }
 6560              		.loc 1 1269 27 is_stmt 0 view .LVU2392
 6561 024e 1344     		add	r3, r3, r2
 6562 0250 ADF84230 		strh	r3, [sp, #66]	@ movhi
 6563 0254 42E7     		b	.L311
 6564              	.LVL654:
 6565              	.L325:
1269:lvgl/src/lv_draw/lv_draw_rect.c ****         }
 6566              		.loc 1 1269 27 view .LVU2393
 6567              	.LBE424:
1274:lvgl/src/lv_draw/lv_draw_rect.c ****             radius_mask_id = lv_draw_mask_add(&radius_mask_param, NULL);
 6568              		.loc 1 1274 13 is_stmt 1 view .LVU2394
 6569 0256 0023     		movs	r3, #0
 6570 0258 B4F90020 		ldrsh	r2, [r4]
 6571 025c 2946     		mov	r1, r5
 6572 025e 08A8     		add	r0, sp, #32
 6573 0260 FFF7FEFF 		bl	lv_draw_mask_radius_init
 6574              	.LVL655:
1275:lvgl/src/lv_draw/lv_draw_rect.c ****         }
 6575              		.loc 1 1275 13 view .LVU2395
1275:lvgl/src/lv_draw/lv_draw_rect.c ****         }
 6576              		.loc 1 1275 30 is_stmt 0 view .LVU2396
 6577 0264 0021     		movs	r1, #0
 6578 0266 08A8     		add	r0, sp, #32
 6579 0268 FFF7FEFF 		bl	lv_draw_mask_add
 6580              	.LVL656:
 6581 026c 0546     		mov	r5, r0
 6582              	.LVL657:
1275:lvgl/src/lv_draw/lv_draw_rect.c ****         }
 6583              		.loc 1 1275 30 view .LVU2397
 6584 026e 40E7     		b	.L312
 6585              	.L326:
1278:lvgl/src/lv_draw/lv_draw_rect.c ****         else lv_draw_img(&coords_tmp, clip, dsc->pattern_image, &img_dsc);
 6586              		.loc 1 1278 44 is_stmt 1 discriminator 1 view .LVU2398
 6587 0270 0023     		movs	r3, #0
 6588 0272 0093     		str	r3, [sp]
 6589 0274 E36A     		ldr	r3, [r4, #44]
 6590 0276 11AA     		add	r2, sp, #68
ARM GAS  D:\Temp\ccGEpo4V.s 			page 186


 6591 0278 3946     		mov	r1, r7
 6592 027a 0FA8     		add	r0, sp, #60
 6593 027c FFF7FEFF 		bl	lv_draw_label
 6594              	.LVL658:
 6595 0280 41E7     		b	.L314
 6596              	.LVL659:
 6597              	.L318:
 6598              	.LCFI27:
 6599              		.cfi_def_cfa_offset 0
 6600              		.cfi_restore 4
 6601              		.cfi_restore 5
 6602              		.cfi_restore 6
 6603              		.cfi_restore 7
 6604              		.cfi_restore 8
 6605              		.cfi_restore 9
 6606              		.cfi_restore 10
 6607              		.cfi_restore 11
 6608              		.cfi_restore 14
1278:lvgl/src/lv_draw/lv_draw_rect.c ****         else lv_draw_img(&coords_tmp, clip, dsc->pattern_image, &img_dsc);
 6609              		.loc 1 1278 44 is_stmt 0 discriminator 1 view .LVU2399
 6610 0282 7047     		bx	lr
 6611              	.LBE433:
 6612              		.cfi_endproc
 6613              	.LFE468:
 6615              		.section	.text.draw_value_str,"ax",%progbits
 6616              		.align	1
 6617              		.syntax unified
 6618              		.thumb
 6619              		.thumb_func
 6620              		.fpu fpv4-sp-d16
 6622              	draw_value_str:
 6623              	.LVL660:
 6624              	.LFB469:
1288:lvgl/src/lv_draw/lv_draw_rect.c ****     if(dsc->value_str == NULL) return;
 6625              		.loc 1 1288 1 is_stmt 1 view -0
 6626              		.cfi_startproc
 6627              		@ args = 0, pretend = 0, frame = 56
 6628              		@ frame_needed = 0, uses_anonymous_args = 0
1288:lvgl/src/lv_draw/lv_draw_rect.c ****     if(dsc->value_str == NULL) return;
 6629              		.loc 1 1288 1 is_stmt 0 view .LVU2401
 6630 0000 2DE9F041 		push	{r4, r5, r6, r7, r8, lr}
 6631              	.LCFI28:
 6632              		.cfi_def_cfa_offset 24
 6633              		.cfi_offset 4, -24
 6634              		.cfi_offset 5, -20
 6635              		.cfi_offset 6, -16
 6636              		.cfi_offset 7, -12
 6637              		.cfi_offset 8, -8
 6638              		.cfi_offset 14, -4
 6639 0004 92B0     		sub	sp, sp, #72
 6640              	.LCFI29:
 6641              		.cfi_def_cfa_offset 96
1289:lvgl/src/lv_draw/lv_draw_rect.c ****     if(dsc->value_opa <= LV_OPA_MIN) return;
 6642              		.loc 1 1289 5 is_stmt 1 view .LVU2402
1289:lvgl/src/lv_draw/lv_draw_rect.c ****     if(dsc->value_opa <= LV_OPA_MIN) return;
 6643              		.loc 1 1289 11 is_stmt 0 view .LVU2403
 6644 0006 D56B     		ldr	r5, [r2, #60]
ARM GAS  D:\Temp\ccGEpo4V.s 			page 187


1289:lvgl/src/lv_draw/lv_draw_rect.c ****     if(dsc->value_opa <= LV_OPA_MIN) return;
 6645              		.loc 1 1289 7 view .LVU2404
 6646 0008 1DB1     		cbz	r5, .L329
1290:lvgl/src/lv_draw/lv_draw_rect.c **** 
 6647              		.loc 1 1290 5 is_stmt 1 view .LVU2405
1290:lvgl/src/lv_draw/lv_draw_rect.c **** 
 6648              		.loc 1 1290 11 is_stmt 0 view .LVU2406
 6649 000a 92F84430 		ldrb	r3, [r2, #68]	@ zero_extendqisi2
1290:lvgl/src/lv_draw/lv_draw_rect.c **** 
 6650              		.loc 1 1290 7 view .LVU2407
 6651 000e 022B     		cmp	r3, #2
 6652 0010 02D8     		bhi	.L333
 6653              	.LVL661:
 6654              	.L329:
1331:lvgl/src/lv_draw/lv_draw_rect.c **** #endif
 6655              		.loc 1 1331 1 view .LVU2408
 6656 0012 12B0     		add	sp, sp, #72
 6657              	.LCFI30:
 6658              		.cfi_remember_state
 6659              		.cfi_def_cfa_offset 24
 6660              		@ sp needed
 6661 0014 BDE8F081 		pop	{r4, r5, r6, r7, r8, pc}
 6662              	.LVL662:
 6663              	.L333:
 6664              	.LCFI31:
 6665              		.cfi_restore_state
1331:lvgl/src/lv_draw/lv_draw_rect.c **** #endif
 6666              		.loc 1 1331 1 view .LVU2409
 6667 0018 1446     		mov	r4, r2
 6668 001a 0E46     		mov	r6, r1
 6669 001c 8046     		mov	r8, r0
1293:lvgl/src/lv_draw/lv_draw_rect.c **** #else
 6670              		.loc 1 1293 5 is_stmt 1 view .LVU2410
 6671              	.LVL663:
1300:lvgl/src/lv_draw/lv_draw_rect.c ****     _lv_txt_get_size(&s, str, dsc->value_font, dsc->value_letter_space, dsc->value_line_space, LV_C
 6672              		.loc 1 1300 5 view .LVU2411
1301:lvgl/src/lv_draw/lv_draw_rect.c ****                      LV_TXT_FLAG_NONE);
 6673              		.loc 1 1301 5 view .LVU2412
 6674 001e 0027     		movs	r7, #0
 6675 0020 0297     		str	r7, [sp, #8]
 6676 0022 47F61843 		movw	r3, #31768
 6677 0026 0193     		str	r3, [sp, #4]
 6678 0028 B2F94E30 		ldrsh	r3, [r2, #78]
 6679 002c 0093     		str	r3, [sp]
 6680 002e B2F94C30 		ldrsh	r3, [r2, #76]
 6681 0032 126C     		ldr	r2, [r2, #64]
 6682              	.LVL664:
1301:lvgl/src/lv_draw/lv_draw_rect.c ****                      LV_TXT_FLAG_NONE);
 6683              		.loc 1 1301 5 is_stmt 0 view .LVU2413
 6684 0034 2946     		mov	r1, r5
 6685              	.LVL665:
1301:lvgl/src/lv_draw/lv_draw_rect.c ****                      LV_TXT_FLAG_NONE);
 6686              		.loc 1 1301 5 view .LVU2414
 6687 0036 11A8     		add	r0, sp, #68
 6688              	.LVL666:
1301:lvgl/src/lv_draw/lv_draw_rect.c ****                      LV_TXT_FLAG_NONE);
 6689              		.loc 1 1301 5 view .LVU2415
ARM GAS  D:\Temp\ccGEpo4V.s 			page 188


 6690 0038 FFF7FEFF 		bl	_lv_txt_get_size
 6691              	.LVL667:
1304:lvgl/src/lv_draw/lv_draw_rect.c ****     value_area.x1 = 0;
 6692              		.loc 1 1304 5 is_stmt 1 view .LVU2416
1305:lvgl/src/lv_draw/lv_draw_rect.c ****     value_area.y1 = 0;
 6693              		.loc 1 1305 5 view .LVU2417
1305:lvgl/src/lv_draw/lv_draw_rect.c ****     value_area.y1 = 0;
 6694              		.loc 1 1305 19 is_stmt 0 view .LVU2418
 6695 003c ADF83C70 		strh	r7, [sp, #60]	@ movhi
1306:lvgl/src/lv_draw/lv_draw_rect.c ****     value_area.x2 = s.x - 1;
 6696              		.loc 1 1306 5 is_stmt 1 view .LVU2419
1306:lvgl/src/lv_draw/lv_draw_rect.c ****     value_area.x2 = s.x - 1;
 6697              		.loc 1 1306 19 is_stmt 0 view .LVU2420
 6698 0040 ADF83E70 		strh	r7, [sp, #62]	@ movhi
1307:lvgl/src/lv_draw/lv_draw_rect.c ****     value_area.y2 = s.y - 1;
 6699              		.loc 1 1307 5 is_stmt 1 view .LVU2421
1307:lvgl/src/lv_draw/lv_draw_rect.c ****     value_area.y2 = s.y - 1;
 6700              		.loc 1 1307 22 is_stmt 0 view .LVU2422
 6701 0044 BDF84430 		ldrh	r3, [sp, #68]
1307:lvgl/src/lv_draw/lv_draw_rect.c ****     value_area.y2 = s.y - 1;
 6702              		.loc 1 1307 25 view .LVU2423
 6703 0048 013B     		subs	r3, r3, #1
1307:lvgl/src/lv_draw/lv_draw_rect.c ****     value_area.y2 = s.y - 1;
 6704              		.loc 1 1307 19 view .LVU2424
 6705 004a ADF84030 		strh	r3, [sp, #64]	@ movhi
1308:lvgl/src/lv_draw/lv_draw_rect.c **** 
 6706              		.loc 1 1308 5 is_stmt 1 view .LVU2425
1308:lvgl/src/lv_draw/lv_draw_rect.c **** 
 6707              		.loc 1 1308 22 is_stmt 0 view .LVU2426
 6708 004e BDF84630 		ldrh	r3, [sp, #70]
1308:lvgl/src/lv_draw/lv_draw_rect.c **** 
 6709              		.loc 1 1308 25 view .LVU2427
 6710 0052 013B     		subs	r3, r3, #1
1308:lvgl/src/lv_draw/lv_draw_rect.c **** 
 6711              		.loc 1 1308 19 view .LVU2428
 6712 0054 ADF84230 		strh	r3, [sp, #66]	@ movhi
1310:lvgl/src/lv_draw/lv_draw_rect.c ****     _lv_area_align(coords, &value_area, dsc->value_align, &p_align);
 6713              		.loc 1 1310 5 is_stmt 1 view .LVU2429
1311:lvgl/src/lv_draw/lv_draw_rect.c **** 
 6714              		.loc 1 1311 5 view .LVU2430
 6715 0058 0EAB     		add	r3, sp, #56
 6716 005a 94F85020 		ldrb	r2, [r4, #80]	@ zero_extendqisi2
 6717 005e 0FA9     		add	r1, sp, #60
 6718 0060 4046     		mov	r0, r8
 6719 0062 FFF7FEFF 		bl	_lv_area_align
 6720              	.LVL668:
1313:lvgl/src/lv_draw/lv_draw_rect.c ****     value_area.y1 += p_align.y + dsc->value_ofs_y;
 6721              		.loc 1 1313 5 view .LVU2431
1313:lvgl/src/lv_draw/lv_draw_rect.c ****     value_area.y1 += p_align.y + dsc->value_ofs_y;
 6722              		.loc 1 1313 29 is_stmt 0 view .LVU2432
 6723 0066 BDF83820 		ldrh	r2, [sp, #56]
1313:lvgl/src/lv_draw/lv_draw_rect.c ****     value_area.y1 += p_align.y + dsc->value_ofs_y;
 6724              		.loc 1 1313 37 view .LVU2433
 6725 006a B4F84830 		ldrh	r3, [r4, #72]
1313:lvgl/src/lv_draw/lv_draw_rect.c ****     value_area.y1 += p_align.y + dsc->value_ofs_y;
 6726              		.loc 1 1313 32 view .LVU2434
 6727 006e 1A44     		add	r2, r2, r3
ARM GAS  D:\Temp\ccGEpo4V.s 			page 189


 6728 0070 92B2     		uxth	r2, r2
1313:lvgl/src/lv_draw/lv_draw_rect.c ****     value_area.y1 += p_align.y + dsc->value_ofs_y;
 6729              		.loc 1 1313 19 view .LVU2435
 6730 0072 BDF83C30 		ldrh	r3, [sp, #60]
 6731 0076 1344     		add	r3, r3, r2
 6732 0078 ADF83C30 		strh	r3, [sp, #60]	@ movhi
1314:lvgl/src/lv_draw/lv_draw_rect.c ****     value_area.x2 += p_align.x + dsc->value_ofs_x;
 6733              		.loc 1 1314 5 is_stmt 1 view .LVU2436
1314:lvgl/src/lv_draw/lv_draw_rect.c ****     value_area.x2 += p_align.x + dsc->value_ofs_x;
 6734              		.loc 1 1314 29 is_stmt 0 view .LVU2437
 6735 007c BDF83A30 		ldrh	r3, [sp, #58]
1314:lvgl/src/lv_draw/lv_draw_rect.c ****     value_area.x2 += p_align.x + dsc->value_ofs_x;
 6736              		.loc 1 1314 37 view .LVU2438
 6737 0080 B4F84A10 		ldrh	r1, [r4, #74]
1314:lvgl/src/lv_draw/lv_draw_rect.c ****     value_area.x2 += p_align.x + dsc->value_ofs_x;
 6738              		.loc 1 1314 32 view .LVU2439
 6739 0084 0B44     		add	r3, r3, r1
 6740 0086 9BB2     		uxth	r3, r3
1314:lvgl/src/lv_draw/lv_draw_rect.c ****     value_area.x2 += p_align.x + dsc->value_ofs_x;
 6741              		.loc 1 1314 19 view .LVU2440
 6742 0088 BDF83E10 		ldrh	r1, [sp, #62]
 6743 008c 1944     		add	r1, r1, r3
 6744 008e ADF83E10 		strh	r1, [sp, #62]	@ movhi
1315:lvgl/src/lv_draw/lv_draw_rect.c ****     value_area.y2 += p_align.y + dsc->value_ofs_y;
 6745              		.loc 1 1315 5 is_stmt 1 view .LVU2441
1315:lvgl/src/lv_draw/lv_draw_rect.c ****     value_area.y2 += p_align.y + dsc->value_ofs_y;
 6746              		.loc 1 1315 19 is_stmt 0 view .LVU2442
 6747 0092 BDF84010 		ldrh	r1, [sp, #64]
 6748 0096 0A44     		add	r2, r2, r1
 6749 0098 ADF84020 		strh	r2, [sp, #64]	@ movhi
1316:lvgl/src/lv_draw/lv_draw_rect.c **** 
 6750              		.loc 1 1316 5 is_stmt 1 view .LVU2443
1316:lvgl/src/lv_draw/lv_draw_rect.c **** 
 6751              		.loc 1 1316 19 is_stmt 0 view .LVU2444
 6752 009c BDF84220 		ldrh	r2, [sp, #66]
 6753 00a0 1344     		add	r3, r3, r2
 6754 00a2 ADF84230 		strh	r3, [sp, #66]	@ movhi
1318:lvgl/src/lv_draw/lv_draw_rect.c ****     lv_draw_label_dsc_init(&label_dsc);
 6755              		.loc 1 1318 5 is_stmt 1 view .LVU2445
1319:lvgl/src/lv_draw/lv_draw_rect.c ****     label_dsc.font = dsc->value_font;
 6756              		.loc 1 1319 5 view .LVU2446
 6757 00a6 05A8     		add	r0, sp, #20
 6758 00a8 FFF7FEFF 		bl	lv_draw_label_dsc_init
 6759              	.LVL669:
1320:lvgl/src/lv_draw/lv_draw_rect.c ****     label_dsc.letter_space = dsc->value_letter_space;
 6760              		.loc 1 1320 5 view .LVU2447
1320:lvgl/src/lv_draw/lv_draw_rect.c ****     label_dsc.letter_space = dsc->value_letter_space;
 6761              		.loc 1 1320 25 is_stmt 0 view .LVU2448
 6762 00ac 236C     		ldr	r3, [r4, #64]
1320:lvgl/src/lv_draw/lv_draw_rect.c ****     label_dsc.letter_space = dsc->value_letter_space;
 6763              		.loc 1 1320 20 view .LVU2449
 6764 00ae 0793     		str	r3, [sp, #28]
1321:lvgl/src/lv_draw/lv_draw_rect.c ****     label_dsc.line_space = dsc->value_line_space;
 6765              		.loc 1 1321 5 is_stmt 1 view .LVU2450
1321:lvgl/src/lv_draw/lv_draw_rect.c ****     label_dsc.line_space = dsc->value_line_space;
 6766              		.loc 1 1321 33 is_stmt 0 view .LVU2451
 6767 00b0 B4F94C30 		ldrsh	r3, [r4, #76]
ARM GAS  D:\Temp\ccGEpo4V.s 			page 190


1321:lvgl/src/lv_draw/lv_draw_rect.c ****     label_dsc.line_space = dsc->value_line_space;
 6768              		.loc 1 1321 28 view .LVU2452
 6769 00b4 ADF82430 		strh	r3, [sp, #36]	@ movhi
1322:lvgl/src/lv_draw/lv_draw_rect.c ****     label_dsc.color = dsc->value_color;
 6770              		.loc 1 1322 5 is_stmt 1 view .LVU2453
1322:lvgl/src/lv_draw/lv_draw_rect.c ****     label_dsc.color = dsc->value_color;
 6771              		.loc 1 1322 31 is_stmt 0 view .LVU2454
 6772 00b8 B4F94E30 		ldrsh	r3, [r4, #78]
1322:lvgl/src/lv_draw/lv_draw_rect.c ****     label_dsc.color = dsc->value_color;
 6773              		.loc 1 1322 26 view .LVU2455
 6774 00bc ADF82230 		strh	r3, [sp, #34]	@ movhi
1323:lvgl/src/lv_draw/lv_draw_rect.c ****     label_dsc.opa = dsc->value_opa;
 6775              		.loc 1 1323 5 is_stmt 1 view .LVU2456
1323:lvgl/src/lv_draw/lv_draw_rect.c ****     label_dsc.opa = dsc->value_opa;
 6776              		.loc 1 1323 21 is_stmt 0 view .LVU2457
 6777 00c0 B4F84630 		ldrh	r3, [r4, #70]
 6778 00c4 ADF81430 		strh	r3, [sp, #20]	@ movhi
1324:lvgl/src/lv_draw/lv_draw_rect.c **** 
 6779              		.loc 1 1324 5 is_stmt 1 view .LVU2458
1324:lvgl/src/lv_draw/lv_draw_rect.c **** 
 6780              		.loc 1 1324 24 is_stmt 0 view .LVU2459
 6781 00c8 94F84430 		ldrb	r3, [r4, #68]	@ zero_extendqisi2
1324:lvgl/src/lv_draw/lv_draw_rect.c **** 
 6782              		.loc 1 1324 19 view .LVU2460
 6783 00cc 8DF82030 		strb	r3, [sp, #32]
1326:lvgl/src/lv_draw/lv_draw_rect.c **** 
 6784              		.loc 1 1326 5 is_stmt 1 view .LVU2461
 6785 00d0 0097     		str	r7, [sp]
 6786 00d2 2B46     		mov	r3, r5
 6787 00d4 05AA     		add	r2, sp, #20
 6788 00d6 3146     		mov	r1, r6
 6789 00d8 0FA8     		add	r0, sp, #60
 6790 00da FFF7FEFF 		bl	lv_draw_label
 6791              	.LVL670:
 6792 00de 98E7     		b	.L329
 6793              		.cfi_endproc
 6794              	.LFE469:
 6796              		.section	.text.draw_bg,"ax",%progbits
 6797              		.align	1
 6798              		.syntax unified
 6799              		.thumb
 6800              		.thumb_func
 6801              		.fpu fpv4-sp-d16
 6803              	draw_bg:
 6804              	.LVL671:
 6805              	.LFB461:
 169:lvgl/src/lv_draw/lv_draw_rect.c ****     if(dsc->bg_opa <= LV_OPA_MIN) return;
 6806              		.loc 1 169 1 view -0
 6807              		.cfi_startproc
 6808              		@ args = 0, pretend = 0, frame = 120
 6809              		@ frame_needed = 0, uses_anonymous_args = 0
 169:lvgl/src/lv_draw/lv_draw_rect.c ****     if(dsc->bg_opa <= LV_OPA_MIN) return;
 6810              		.loc 1 169 1 is_stmt 0 view .LVU2463
 6811 0000 2DE9F04F 		push	{r4, r5, r6, r7, r8, r9, r10, fp, lr}
 6812              	.LCFI32:
 6813              		.cfi_def_cfa_offset 36
 6814              		.cfi_offset 4, -36
ARM GAS  D:\Temp\ccGEpo4V.s 			page 191


 6815              		.cfi_offset 5, -32
 6816              		.cfi_offset 6, -28
 6817              		.cfi_offset 7, -24
 6818              		.cfi_offset 8, -20
 6819              		.cfi_offset 9, -16
 6820              		.cfi_offset 10, -12
 6821              		.cfi_offset 11, -8
 6822              		.cfi_offset 14, -4
 6823 0004 A3B0     		sub	sp, sp, #140
 6824              	.LCFI33:
 6825              		.cfi_def_cfa_offset 176
 6826 0006 0791     		str	r1, [sp, #28]
 170:lvgl/src/lv_draw/lv_draw_rect.c **** 
 6827              		.loc 1 170 5 is_stmt 1 view .LVU2464
 170:lvgl/src/lv_draw/lv_draw_rect.c **** 
 6828              		.loc 1 170 11 is_stmt 0 view .LVU2465
 6829 0008 137B     		ldrb	r3, [r2, #12]	@ zero_extendqisi2
 170:lvgl/src/lv_draw/lv_draw_rect.c **** 
 6830              		.loc 1 170 7 view .LVU2466
 6831 000a 022B     		cmp	r3, #2
 6832 000c 44D9     		bls	.L334
 6833 000e 1646     		mov	r6, r2
 6834              	.LBB459:
 6835              	.LBB460:
 6836              	.LBB461:
 215:lvgl/src/lv_draw/../lv_core/../lv_font/../lv_misc/lv_mem.h ****     const uint8_t * s8 = (const uint8_t *)src;
 6837              		.loc 3 215 15 view .LVU2467
 6838 0010 20AA     		add	r2, sp, #128
 6839              	.LVL672:
 215:lvgl/src/lv_draw/../lv_core/../lv_font/../lv_misc/lv_mem.h ****     const uint8_t * s8 = (const uint8_t *)src;
 6840              		.loc 3 215 15 view .LVU2468
 6841              	.LBE461:
 6842              	.LBE460:
 6843              	.LBE459:
 6844 0012 0823     		movs	r3, #8
 6845              	.LVL673:
 6846              	.L336:
 6847              	.LBB464:
 6848              	.LBB463:
 6849              	.LBB462:
 218:lvgl/src/lv_draw/../lv_core/../lv_font/../lv_misc/lv_mem.h ****         *d8 = *s8;
 6850              		.loc 3 218 10 view .LVU2469
 6851 0014 2BB1     		cbz	r3, .L384
 219:lvgl/src/lv_draw/../lv_core/../lv_font/../lv_misc/lv_mem.h ****         d8++;
 6852              		.loc 3 219 9 is_stmt 1 view .LVU2470
 219:lvgl/src/lv_draw/../lv_core/../lv_font/../lv_misc/lv_mem.h ****         d8++;
 6853              		.loc 3 219 15 is_stmt 0 view .LVU2471
 6854 0016 10F8011B 		ldrb	r1, [r0], #1	@ zero_extendqisi2
 6855              	.LVL674:
 219:lvgl/src/lv_draw/../lv_core/../lv_font/../lv_misc/lv_mem.h ****         d8++;
 6856              		.loc 3 219 13 view .LVU2472
 6857 001a 02F8011B 		strb	r1, [r2], #1
 6858              	.LVL675:
 220:lvgl/src/lv_draw/../lv_core/../lv_font/../lv_misc/lv_mem.h ****         s8++;
 6859              		.loc 3 220 9 is_stmt 1 view .LVU2473
 221:lvgl/src/lv_draw/../lv_core/../lv_font/../lv_misc/lv_mem.h ****         len--;
 6860              		.loc 3 221 9 view .LVU2474
ARM GAS  D:\Temp\ccGEpo4V.s 			page 192


 222:lvgl/src/lv_draw/../lv_core/../lv_font/../lv_misc/lv_mem.h ****     }
 6861              		.loc 3 222 9 view .LVU2475
 222:lvgl/src/lv_draw/../lv_core/../lv_font/../lv_misc/lv_mem.h ****     }
 6862              		.loc 3 222 12 is_stmt 0 view .LVU2476
 6863 001e 013B     		subs	r3, r3, #1
 6864              	.LVL676:
 222:lvgl/src/lv_draw/../lv_core/../lv_font/../lv_misc/lv_mem.h ****     }
 6865              		.loc 3 222 12 view .LVU2477
 6866 0020 F8E7     		b	.L336
 6867              	.L384:
 6868              		.loc 3 225 5 is_stmt 1 view .LVU2478
 6869              	.LVL677:
 6870              		.loc 3 225 5 is_stmt 0 view .LVU2479
 6871              	.LBE462:
 6872              	.LBE463:
 6873              	.LBE464:
 176:lvgl/src/lv_draw/lv_draw_rect.c ****         coords_bg.x1 += (dsc->border_side & LV_BORDER_SIDE_LEFT) ? 1 : 0;
 6874              		.loc 1 176 5 is_stmt 1 view .LVU2480
 176:lvgl/src/lv_draw/lv_draw_rect.c ****         coords_bg.x1 += (dsc->border_side & LV_BORDER_SIDE_LEFT) ? 1 : 0;
 6875              		.loc 1 176 11 is_stmt 0 view .LVU2481
 6876 0022 B6F91030 		ldrsh	r3, [r6, #16]
 176:lvgl/src/lv_draw/lv_draw_rect.c ****         coords_bg.x1 += (dsc->border_side & LV_BORDER_SIDE_LEFT) ? 1 : 0;
 6877              		.loc 1 176 7 view .LVU2482
 6878 0026 012B     		cmp	r3, #1
 6879 0028 24DD     		ble	.L338
 176:lvgl/src/lv_draw/lv_draw_rect.c ****         coords_bg.x1 += (dsc->border_side & LV_BORDER_SIDE_LEFT) ? 1 : 0;
 6880              		.loc 1 176 36 discriminator 1 view .LVU2483
 6881 002a 337D     		ldrb	r3, [r6, #20]	@ zero_extendqisi2
 176:lvgl/src/lv_draw/lv_draw_rect.c ****         coords_bg.x1 += (dsc->border_side & LV_BORDER_SIDE_LEFT) ? 1 : 0;
 6882              		.loc 1 176 30 discriminator 1 view .LVU2484
 6883 002c FC2B     		cmp	r3, #252
 6884 002e 21D9     		bls	.L338
 176:lvgl/src/lv_draw/lv_draw_rect.c ****         coords_bg.x1 += (dsc->border_side & LV_BORDER_SIDE_LEFT) ? 1 : 0;
 6885              		.loc 1 176 69 discriminator 2 view .LVU2485
 6886 0030 B6F90030 		ldrsh	r3, [r6]
 176:lvgl/src/lv_draw/lv_draw_rect.c ****         coords_bg.x1 += (dsc->border_side & LV_BORDER_SIDE_LEFT) ? 1 : 0;
 6887              		.loc 1 176 63 discriminator 2 view .LVU2486
 6888 0034 F3B1     		cbz	r3, .L338
 177:lvgl/src/lv_draw/lv_draw_rect.c ****         coords_bg.y1 += (dsc->border_side & LV_BORDER_SIDE_TOP) ? 1 : 0;
 6889              		.loc 1 177 9 is_stmt 1 view .LVU2487
 177:lvgl/src/lv_draw/lv_draw_rect.c ****         coords_bg.y1 += (dsc->border_side & LV_BORDER_SIDE_TOP) ? 1 : 0;
 6890              		.loc 1 177 29 is_stmt 0 view .LVU2488
 6891 0036 B6F91230 		ldrsh	r3, [r6, #18]
 177:lvgl/src/lv_draw/lv_draw_rect.c ****         coords_bg.y1 += (dsc->border_side & LV_BORDER_SIDE_TOP) ? 1 : 0;
 6892              		.loc 1 177 70 view .LVU2489
 6893 003a 9BB2     		uxth	r3, r3
 6894 003c C3F38002 		ubfx	r2, r3, #2, #1
 177:lvgl/src/lv_draw/lv_draw_rect.c ****         coords_bg.y1 += (dsc->border_side & LV_BORDER_SIDE_TOP) ? 1 : 0;
 6895              		.loc 1 177 22 view .LVU2490
 6896 0040 BDF88010 		ldrh	r1, [sp, #128]
 6897 0044 0A44     		add	r2, r2, r1
 6898 0046 ADF88020 		strh	r2, [sp, #128]	@ movhi
 178:lvgl/src/lv_draw/lv_draw_rect.c ****         coords_bg.x2 -= (dsc->border_side & LV_BORDER_SIDE_RIGHT) ? 1 : 0;
 6899              		.loc 1 178 9 is_stmt 1 view .LVU2491
 178:lvgl/src/lv_draw/lv_draw_rect.c ****         coords_bg.x2 -= (dsc->border_side & LV_BORDER_SIDE_RIGHT) ? 1 : 0;
 6900              		.loc 1 178 69 is_stmt 0 view .LVU2492
 6901 004a C3F34002 		ubfx	r2, r3, #1, #1
ARM GAS  D:\Temp\ccGEpo4V.s 			page 193


 178:lvgl/src/lv_draw/lv_draw_rect.c ****         coords_bg.x2 -= (dsc->border_side & LV_BORDER_SIDE_RIGHT) ? 1 : 0;
 6902              		.loc 1 178 22 view .LVU2493
 6903 004e BDF88210 		ldrh	r1, [sp, #130]
 6904 0052 0A44     		add	r2, r2, r1
 6905 0054 ADF88220 		strh	r2, [sp, #130]	@ movhi
 179:lvgl/src/lv_draw/lv_draw_rect.c ****         coords_bg.y2 -= (dsc->border_side & LV_BORDER_SIDE_BOTTOM) ? 1 : 0;
 6906              		.loc 1 179 9 is_stmt 1 view .LVU2494
 179:lvgl/src/lv_draw/lv_draw_rect.c ****         coords_bg.y2 -= (dsc->border_side & LV_BORDER_SIDE_BOTTOM) ? 1 : 0;
 6907              		.loc 1 179 71 is_stmt 0 view .LVU2495
 6908 0058 C3F3C001 		ubfx	r1, r3, #3, #1
 179:lvgl/src/lv_draw/lv_draw_rect.c ****         coords_bg.y2 -= (dsc->border_side & LV_BORDER_SIDE_BOTTOM) ? 1 : 0;
 6909              		.loc 1 179 22 view .LVU2496
 6910 005c BDF88420 		ldrh	r2, [sp, #132]
 6911 0060 521A     		subs	r2, r2, r1
 6912 0062 ADF88420 		strh	r2, [sp, #132]	@ movhi
 180:lvgl/src/lv_draw/lv_draw_rect.c ****     }
 6913              		.loc 1 180 9 is_stmt 1 view .LVU2497
 180:lvgl/src/lv_draw/lv_draw_rect.c ****     }
 6914              		.loc 1 180 72 is_stmt 0 view .LVU2498
 6915 0066 03F00103 		and	r3, r3, #1
 180:lvgl/src/lv_draw/lv_draw_rect.c ****     }
 6916              		.loc 1 180 22 view .LVU2499
 6917 006a BDF88620 		ldrh	r2, [sp, #134]
 6918 006e D31A     		subs	r3, r2, r3
 6919 0070 ADF88630 		strh	r3, [sp, #134]	@ movhi
 6920              	.L338:
 183:lvgl/src/lv_draw/lv_draw_rect.c **** 
 6921              		.loc 1 183 5 is_stmt 1 view .LVU2500
 183:lvgl/src/lv_draw/lv_draw_rect.c **** 
 6922              		.loc 1 183 14 is_stmt 0 view .LVU2501
 6923 0074 337B     		ldrb	r3, [r6, #12]	@ zero_extendqisi2
 6924 0076 0593     		str	r3, [sp, #20]
 6925              	.LVL678:
 185:lvgl/src/lv_draw/lv_draw_rect.c **** 
 6926              		.loc 1 185 5 is_stmt 1 view .LVU2502
 185:lvgl/src/lv_draw/lv_draw_rect.c **** 
 6927              		.loc 1 185 7 is_stmt 0 view .LVU2503
 6928 0078 FD2B     		cmp	r3, #253
 6929 007a 01D9     		bls	.L339
 185:lvgl/src/lv_draw/lv_draw_rect.c **** 
 6930              		.loc 1 185 30 view .LVU2504
 6931 007c FF23     		movs	r3, #255
 6932              	.LVL679:
 185:lvgl/src/lv_draw/lv_draw_rect.c **** 
 6933              		.loc 1 185 30 view .LVU2505
 6934 007e 0593     		str	r3, [sp, #20]
 6935              	.LVL680:
 6936              	.L339:
 187:lvgl/src/lv_draw/lv_draw_rect.c ****     lv_disp_buf_t * vdb = lv_disp_get_buf(disp);
 6937              		.loc 1 187 5 is_stmt 1 view .LVU2506
 187:lvgl/src/lv_draw/lv_draw_rect.c ****     lv_disp_buf_t * vdb = lv_disp_get_buf(disp);
 6938              		.loc 1 187 27 is_stmt 0 view .LVU2507
 6939 0080 FFF7FEFF 		bl	_lv_refr_get_disp_refreshing
 6940              	.LVL681:
 188:lvgl/src/lv_draw/lv_draw_rect.c **** 
 6941              		.loc 1 188 5 is_stmt 1 view .LVU2508
 188:lvgl/src/lv_draw/lv_draw_rect.c **** 
ARM GAS  D:\Temp\ccGEpo4V.s 			page 194


 6942              		.loc 1 188 27 is_stmt 0 view .LVU2509
 6943 0084 FFF7FEFF 		bl	lv_disp_get_buf
 6944              	.LVL682:
 188:lvgl/src/lv_draw/lv_draw_rect.c **** 
 6945              		.loc 1 188 27 view .LVU2510
 6946 0088 0746     		mov	r7, r0
 6947              	.LVL683:
 192:lvgl/src/lv_draw/lv_draw_rect.c ****     bool is_common;
 6948              		.loc 1 192 5 is_stmt 1 view .LVU2511
 193:lvgl/src/lv_draw/lv_draw_rect.c ****     is_common = _lv_area_intersect(&draw_area, &coords_bg, clip);
 6949              		.loc 1 193 5 view .LVU2512
 194:lvgl/src/lv_draw/lv_draw_rect.c ****     if(is_common == false) return;
 6950              		.loc 1 194 5 view .LVU2513
 194:lvgl/src/lv_draw/lv_draw_rect.c ****     if(is_common == false) return;
 6951              		.loc 1 194 17 is_stmt 0 view .LVU2514
 6952 008a 079A     		ldr	r2, [sp, #28]
 6953 008c 20A9     		add	r1, sp, #128
 6954 008e 1EA8     		add	r0, sp, #120
 6955              	.LVL684:
 194:lvgl/src/lv_draw/lv_draw_rect.c ****     if(is_common == false) return;
 6956              		.loc 1 194 17 view .LVU2515
 6957 0090 FFF7FEFF 		bl	_lv_area_intersect
 6958              	.LVL685:
 195:lvgl/src/lv_draw/lv_draw_rect.c **** 
 6959              		.loc 1 195 5 is_stmt 1 view .LVU2516
 195:lvgl/src/lv_draw/lv_draw_rect.c **** 
 6960              		.loc 1 195 7 is_stmt 0 view .LVU2517
 6961 0094 0A90     		str	r0, [sp, #40]
 6962 0096 10B9     		cbnz	r0, .L385
 6963              	.LVL686:
 6964              	.L334:
 384:lvgl/src/lv_draw/lv_draw_rect.c **** 
 6965              		.loc 1 384 1 view .LVU2518
 6966 0098 23B0     		add	sp, sp, #140
 6967              	.LCFI34:
 6968              		.cfi_remember_state
 6969              		.cfi_def_cfa_offset 36
 6970              		@ sp needed
 6971 009a BDE8F08F 		pop	{r4, r5, r6, r7, r8, r9, r10, fp, pc}
 6972              	.LVL687:
 6973              	.L385:
 6974              	.LCFI35:
 6975              		.cfi_restore_state
 197:lvgl/src/lv_draw/lv_draw_rect.c **** 
 6976              		.loc 1 197 5 is_stmt 1 view .LVU2519
 201:lvgl/src/lv_draw/lv_draw_rect.c ****     draw_area.y1 -= disp_area->y1;
 6977              		.loc 1 201 5 view .LVU2520
 201:lvgl/src/lv_draw/lv_draw_rect.c ****     draw_area.y1 -= disp_area->y1;
 6978              		.loc 1 201 30 is_stmt 0 view .LVU2521
 6979 009e 398A     		ldrh	r1, [r7, #16]
 201:lvgl/src/lv_draw/lv_draw_rect.c ****     draw_area.y1 -= disp_area->y1;
 6980              		.loc 1 201 18 view .LVU2522
 6981 00a0 BDF87830 		ldrh	r3, [sp, #120]
 6982 00a4 5B1A     		subs	r3, r3, r1
 6983 00a6 9AB2     		uxth	r2, r3
 6984 00a8 ADF87820 		strh	r2, [sp, #120]	@ movhi
 202:lvgl/src/lv_draw/lv_draw_rect.c ****     draw_area.x2 -= disp_area->x1;
ARM GAS  D:\Temp\ccGEpo4V.s 			page 195


 6985              		.loc 1 202 5 is_stmt 1 view .LVU2523
 202:lvgl/src/lv_draw/lv_draw_rect.c ****     draw_area.x2 -= disp_area->x1;
 6986              		.loc 1 202 30 is_stmt 0 view .LVU2524
 6987 00ac 7C8A     		ldrh	r4, [r7, #18]
 202:lvgl/src/lv_draw/lv_draw_rect.c ****     draw_area.x2 -= disp_area->x1;
 6988              		.loc 1 202 18 view .LVU2525
 6989 00ae BDF87A00 		ldrh	r0, [sp, #122]
 6990              	.LVL688:
 202:lvgl/src/lv_draw/lv_draw_rect.c ****     draw_area.x2 -= disp_area->x1;
 6991              		.loc 1 202 18 view .LVU2526
 6992 00b2 001B     		subs	r0, r0, r4
 6993 00b4 ADF87A00 		strh	r0, [sp, #122]	@ movhi
 203:lvgl/src/lv_draw/lv_draw_rect.c ****     draw_area.y2 -= disp_area->y1;
 6994              		.loc 1 203 5 is_stmt 1 view .LVU2527
 203:lvgl/src/lv_draw/lv_draw_rect.c ****     draw_area.y2 -= disp_area->y1;
 6995              		.loc 1 203 18 is_stmt 0 view .LVU2528
 6996 00b8 BDF87C30 		ldrh	r3, [sp, #124]
 6997 00bc 5B1A     		subs	r3, r3, r1
 6998 00be 9BB2     		uxth	r3, r3
 6999 00c0 ADF87C30 		strh	r3, [sp, #124]	@ movhi
 204:lvgl/src/lv_draw/lv_draw_rect.c **** 
 7000              		.loc 1 204 5 is_stmt 1 view .LVU2529
 204:lvgl/src/lv_draw/lv_draw_rect.c **** 
 7001              		.loc 1 204 18 is_stmt 0 view .LVU2530
 7002 00c4 BDF87E10 		ldrh	r1, [sp, #126]
 7003 00c8 091B     		subs	r1, r1, r4
 7004 00ca ADF87E10 		strh	r1, [sp, #126]	@ movhi
 206:lvgl/src/lv_draw/lv_draw_rect.c **** 
 7005              		.loc 1 206 5 is_stmt 1 view .LVU2531
 7006              	.LVL689:
 7007              	.LBB465:
 7008              	.LBI465:
 107:lvgl/src/lv_draw/../lv_core/../lv_font/../lv_misc/lv_area.h **** {
 7009              		.loc 2 107 26 view .LVU2532
 7010              	.LBB466:
 109:lvgl/src/lv_draw/../lv_core/../lv_font/../lv_misc/lv_area.h **** }
 7011              		.loc 2 109 5 view .LVU2533
 109:lvgl/src/lv_draw/../lv_core/../lv_font/../lv_misc/lv_area.h **** }
 7012              		.loc 2 109 36 is_stmt 0 view .LVU2534
 7013 00ce 9B1A     		subs	r3, r3, r2
 7014 00d0 9BB2     		uxth	r3, r3
 109:lvgl/src/lv_draw/../lv_core/../lv_font/../lv_misc/lv_area.h **** }
 7015              		.loc 2 109 49 view .LVU2535
 7016 00d2 0133     		adds	r3, r3, #1
 109:lvgl/src/lv_draw/../lv_core/../lv_font/../lv_misc/lv_area.h **** }
 7017              		.loc 2 109 12 view .LVU2536
 7018 00d4 18B2     		sxth	r0, r3
 7019 00d6 0C90     		str	r0, [sp, #48]
 7020              	.LVL690:
 109:lvgl/src/lv_draw/../lv_core/../lv_font/../lv_misc/lv_area.h **** }
 7021              		.loc 2 109 12 view .LVU2537
 7022              	.LBE466:
 7023              	.LBE465:
 209:lvgl/src/lv_draw/lv_draw_rect.c **** 
 7024              		.loc 1 209 5 is_stmt 1 view .LVU2538
 209:lvgl/src/lv_draw/lv_draw_rect.c **** 
 7025              		.loc 1 209 27 is_stmt 0 view .LVU2539
ARM GAS  D:\Temp\ccGEpo4V.s 			page 196


 7026 00d8 0B90     		str	r0, [sp, #44]
 7027 00da FFF7FEFF 		bl	_lv_mem_buf_get
 7028              	.LVL691:
 209:lvgl/src/lv_draw/lv_draw_rect.c **** 
 7029              		.loc 1 209 27 view .LVU2540
 7030 00de 0490     		str	r0, [sp, #16]
 7031              	.LVL692:
 211:lvgl/src/lv_draw/lv_draw_rect.c ****     if(dsc->bg_color.full == dsc->bg_grad_color.full) grad_dir = LV_GRAD_DIR_NONE;
 7032              		.loc 1 211 5 is_stmt 1 view .LVU2541
 211:lvgl/src/lv_draw/lv_draw_rect.c ****     if(dsc->bg_color.full == dsc->bg_grad_color.full) grad_dir = LV_GRAD_DIR_NONE;
 7033              		.loc 1 211 19 is_stmt 0 view .LVU2542
 7034 00e0 96F80680 		ldrb	r8, [r6, #6]	@ zero_extendqisi2
 7035              	.LVL693:
 212:lvgl/src/lv_draw/lv_draw_rect.c **** 
 7036              		.loc 1 212 5 is_stmt 1 view .LVU2543
 212:lvgl/src/lv_draw/lv_draw_rect.c **** 
 7037              		.loc 1 212 21 is_stmt 0 view .LVU2544
 7038 00e4 7288     		ldrh	r2, [r6, #2]
 212:lvgl/src/lv_draw/lv_draw_rect.c **** 
 7039              		.loc 1 212 48 view .LVU2545
 7040 00e6 B388     		ldrh	r3, [r6, #4]
 212:lvgl/src/lv_draw/lv_draw_rect.c **** 
 7041              		.loc 1 212 7 view .LVU2546
 7042 00e8 9A42     		cmp	r2, r3
 7043 00ea 0AD0     		beq	.L386
 7044              	.LVL694:
 7045              	.L340:
 214:lvgl/src/lv_draw/lv_draw_rect.c ****     bool simple_mode = true;
 7046              		.loc 1 214 5 is_stmt 1 view .LVU2547
 214:lvgl/src/lv_draw/lv_draw_rect.c ****     bool simple_mode = true;
 7047              		.loc 1 214 31 is_stmt 0 view .LVU2548
 7048 00ec FFF7FEFF 		bl	lv_draw_mask_get_cnt
 7049              	.LVL695:
 214:lvgl/src/lv_draw/lv_draw_rect.c ****     bool simple_mode = true;
 7050              		.loc 1 214 14 view .LVU2549
 7051 00f0 83B2     		uxth	r3, r0
 7052 00f2 0D93     		str	r3, [sp, #52]
 7053              	.LVL696:
 215:lvgl/src/lv_draw/lv_draw_rect.c ****     if(other_mask_cnt) simple_mode = false;
 7054              		.loc 1 215 5 is_stmt 1 view .LVU2550
 216:lvgl/src/lv_draw/lv_draw_rect.c ****     else if(grad_dir == LV_GRAD_DIR_HOR) simple_mode = false;
 7055              		.loc 1 216 5 view .LVU2551
 216:lvgl/src/lv_draw/lv_draw_rect.c ****     else if(grad_dir == LV_GRAD_DIR_HOR) simple_mode = false;
 7056              		.loc 1 216 7 is_stmt 0 view .LVU2552
 7057 00f4 43B9     		cbnz	r3, .L376
 217:lvgl/src/lv_draw/lv_draw_rect.c **** 
 7058              		.loc 1 217 10 is_stmt 1 view .LVU2553
 217:lvgl/src/lv_draw/lv_draw_rect.c **** 
 7059              		.loc 1 217 12 is_stmt 0 view .LVU2554
 7060 00f6 B8F1020F 		cmp	r8, #2
 7061 00fa 5AD0     		beq	.L377
 215:lvgl/src/lv_draw/lv_draw_rect.c ****     if(other_mask_cnt) simple_mode = false;
 7062              		.loc 1 215 10 view .LVU2555
 7063 00fc 0A9B     		ldr	r3, [sp, #40]
 7064              	.LVL697:
 215:lvgl/src/lv_draw/lv_draw_rect.c ****     if(other_mask_cnt) simple_mode = false;
 7065              		.loc 1 215 10 view .LVU2556
ARM GAS  D:\Temp\ccGEpo4V.s 			page 197


 7066 00fe 0893     		str	r3, [sp, #32]
 7067 0100 04E0     		b	.L341
 7068              	.LVL698:
 7069              	.L386:
 212:lvgl/src/lv_draw/lv_draw_rect.c **** 
 7070              		.loc 1 212 64 view .LVU2557
 7071 0102 4FF00008 		mov	r8, #0
 7072              	.LVL699:
 212:lvgl/src/lv_draw/lv_draw_rect.c **** 
 7073              		.loc 1 212 64 view .LVU2558
 7074 0106 F1E7     		b	.L340
 7075              	.LVL700:
 7076              	.L376:
 216:lvgl/src/lv_draw/lv_draw_rect.c ****     else if(grad_dir == LV_GRAD_DIR_HOR) simple_mode = false;
 7077              		.loc 1 216 36 view .LVU2559
 7078 0108 0023     		movs	r3, #0
 7079              	.LVL701:
 216:lvgl/src/lv_draw/lv_draw_rect.c ****     else if(grad_dir == LV_GRAD_DIR_HOR) simple_mode = false;
 7080              		.loc 1 216 36 view .LVU2560
 7081 010a 0893     		str	r3, [sp, #32]
 7082              	.L341:
 7083              	.LVL702:
 219:lvgl/src/lv_draw/lv_draw_rect.c **** 
 7084              		.loc 1 219 5 is_stmt 1 view .LVU2561
 221:lvgl/src/lv_draw/lv_draw_rect.c ****     int32_t coords_h = lv_area_get_height(&coords_bg);
 7085              		.loc 1 221 5 view .LVU2562
 7086              	.LBB467:
 7087              	.LBI467:
 107:lvgl/src/lv_draw/../lv_core/../lv_font/../lv_misc/lv_area.h **** {
 7088              		.loc 2 107 26 view .LVU2563
 7089              	.LBB468:
 109:lvgl/src/lv_draw/../lv_core/../lv_font/../lv_misc/lv_area.h **** }
 7090              		.loc 2 109 5 view .LVU2564
 109:lvgl/src/lv_draw/../lv_core/../lv_font/../lv_misc/lv_area.h **** }
 7091              		.loc 2 109 31 is_stmt 0 view .LVU2565
 7092 010c BDF88440 		ldrh	r4, [sp, #132]
 109:lvgl/src/lv_draw/../lv_core/../lv_font/../lv_misc/lv_area.h **** }
 7093              		.loc 2 109 44 view .LVU2566
 7094 0110 BDF88030 		ldrh	r3, [sp, #128]
 109:lvgl/src/lv_draw/../lv_core/../lv_font/../lv_misc/lv_area.h **** }
 7095              		.loc 2 109 36 view .LVU2567
 7096 0114 E41A     		subs	r4, r4, r3
 7097 0116 A4B2     		uxth	r4, r4
 109:lvgl/src/lv_draw/../lv_core/../lv_font/../lv_misc/lv_area.h **** }
 7098              		.loc 2 109 49 view .LVU2568
 7099 0118 0134     		adds	r4, r4, #1
 109:lvgl/src/lv_draw/../lv_core/../lv_font/../lv_misc/lv_area.h **** }
 7100              		.loc 2 109 12 view .LVU2569
 7101 011a 24B2     		sxth	r4, r4
 7102              	.LVL703:
 109:lvgl/src/lv_draw/../lv_core/../lv_font/../lv_misc/lv_area.h **** }
 7103              		.loc 2 109 12 view .LVU2570
 7104              	.LBE468:
 7105              	.LBE467:
 221:lvgl/src/lv_draw/lv_draw_rect.c ****     int32_t coords_h = lv_area_get_height(&coords_bg);
 7106              		.loc 1 221 13 view .LVU2571
 7107 011c A146     		mov	r9, r4
ARM GAS  D:\Temp\ccGEpo4V.s 			page 198


 7108              	.LVL704:
 222:lvgl/src/lv_draw/lv_draw_rect.c **** 
 7109              		.loc 1 222 5 is_stmt 1 view .LVU2572
 7110              	.LBB469:
 7111              	.LBI469:
 117:lvgl/src/lv_draw/../lv_core/../lv_font/../lv_misc/lv_area.h **** {
 7112              		.loc 2 117 26 view .LVU2573
 7113              	.LBB470:
 7114              		.loc 2 119 5 view .LVU2574
 7115              		.loc 2 119 31 is_stmt 0 view .LVU2575
 7116 011e BDF88630 		ldrh	r3, [sp, #134]
 7117              		.loc 2 119 44 view .LVU2576
 7118 0122 BDF88220 		ldrh	r2, [sp, #130]
 7119              		.loc 2 119 36 view .LVU2577
 7120 0126 9B1A     		subs	r3, r3, r2
 7121 0128 9BB2     		uxth	r3, r3
 7122              		.loc 2 119 49 view .LVU2578
 7123 012a 0133     		adds	r3, r3, #1
 7124              		.loc 2 119 12 view .LVU2579
 7125 012c 1BB2     		sxth	r3, r3
 7126              	.LVL705:
 7127              		.loc 2 119 12 view .LVU2580
 7128              	.LBE470:
 7129              	.LBE469:
 225:lvgl/src/lv_draw/lv_draw_rect.c ****     int32_t short_side = LV_MATH_MIN(coords_w, coords_h);
 7130              		.loc 1 225 5 is_stmt 1 view .LVU2581
 225:lvgl/src/lv_draw/lv_draw_rect.c ****     int32_t short_side = LV_MATH_MIN(coords_w, coords_h);
 7131              		.loc 1 225 23 is_stmt 0 view .LVU2582
 7132 012e B6F90020 		ldrsh	r2, [r6]
 7133              	.LVL706:
 226:lvgl/src/lv_draw/lv_draw_rect.c ****     if(rout > short_side >> 1) rout = short_side >> 1;
 7134              		.loc 1 226 5 is_stmt 1 view .LVU2583
 226:lvgl/src/lv_draw/lv_draw_rect.c ****     if(rout > short_side >> 1) rout = short_side >> 1;
 7135              		.loc 1 226 13 is_stmt 0 view .LVU2584
 7136 0132 A342     		cmp	r3, r4
 7137 0134 A8BF     		it	ge
 7138 0136 2346     		movge	r3, r4
 7139              	.LVL707:
 227:lvgl/src/lv_draw/lv_draw_rect.c **** 
 7140              		.loc 1 227 5 is_stmt 1 view .LVU2585
 227:lvgl/src/lv_draw/lv_draw_rect.c **** 
 7141              		.loc 1 227 26 is_stmt 0 view .LVU2586
 7142 0138 4FEA630B 		asr	fp, r3, #1
 227:lvgl/src/lv_draw/lv_draw_rect.c **** 
 7143              		.loc 1 227 7 view .LVU2587
 7144 013c 9345     		cmp	fp, r2
 7145 013e 00DB     		blt	.L342
 225:lvgl/src/lv_draw/lv_draw_rect.c ****     int32_t short_side = LV_MATH_MIN(coords_w, coords_h);
 7146              		.loc 1 225 13 view .LVU2588
 7147 0140 9346     		mov	fp, r2
 7148              	.L342:
 7149              	.LVL708:
 230:lvgl/src/lv_draw/lv_draw_rect.c ****         _lv_blend_fill(clip, &coords_bg,
 7150              		.loc 1 230 5 is_stmt 1 view .LVU2589
 230:lvgl/src/lv_draw/lv_draw_rect.c ****         _lv_blend_fill(clip, &coords_bg,
 7151              		.loc 1 230 7 is_stmt 0 view .LVU2590
 7152 0142 089B     		ldr	r3, [sp, #32]
ARM GAS  D:\Temp\ccGEpo4V.s 			page 199


 7153              	.LVL709:
 230:lvgl/src/lv_draw/lv_draw_rect.c ****         _lv_blend_fill(clip, &coords_bg,
 7154              		.loc 1 230 7 view .LVU2591
 7155 0144 2BB1     		cbz	r3, .L343
 230:lvgl/src/lv_draw/lv_draw_rect.c ****         _lv_blend_fill(clip, &coords_bg,
 7156              		.loc 1 230 20 discriminator 1 view .LVU2592
 7157 0146 BBF1000F 		cmp	fp, #0
 7158 014a 02D1     		bne	.L343
 230:lvgl/src/lv_draw/lv_draw_rect.c ****         _lv_blend_fill(clip, &coords_bg,
 7159              		.loc 1 230 33 discriminator 2 view .LVU2593
 7160 014c B8F1000F 		cmp	r8, #0
 7161 0150 32D0     		beq	.L387
 7162              	.L343:
 7163              	.LBB471:
 237:lvgl/src/lv_draw/lv_draw_rect.c ****         if(rout > 0) {
 7164              		.loc 1 237 9 is_stmt 1 view .LVU2594
 238:lvgl/src/lv_draw/lv_draw_rect.c ****             lv_draw_mask_radius_init(&mask_rout_param, &coords_bg, rout, false);
 7165              		.loc 1 238 9 view .LVU2595
 238:lvgl/src/lv_draw/lv_draw_rect.c ****             lv_draw_mask_radius_init(&mask_rout_param, &coords_bg, rout, false);
 7166              		.loc 1 238 11 is_stmt 0 view .LVU2596
 7167 0152 BBF1000F 		cmp	fp, #0
 7168 0156 3FDC     		bgt	.L388
 7169              	.LBE471:
 219:lvgl/src/lv_draw/lv_draw_rect.c **** 
 7170              		.loc 1 219 13 view .LVU2597
 7171 0158 4FF0FF33 		mov	r3, #-1
 7172 015c 0F93     		str	r3, [sp, #60]
 7173              	.LVL710:
 7174              	.L345:
 7175              	.LBB491:
 244:lvgl/src/lv_draw/lv_draw_rect.c ****         lv_draw_mask_res_t mask_res = LV_DRAW_MASK_RES_FULL_COVER;
 7176              		.loc 1 244 9 is_stmt 1 view .LVU2598
 245:lvgl/src/lv_draw/lv_draw_rect.c ****         lv_color_t grad_color = dsc->bg_color;
 7177              		.loc 1 245 9 view .LVU2599
 246:lvgl/src/lv_draw/lv_draw_rect.c **** 
 7178              		.loc 1 246 9 view .LVU2600
 246:lvgl/src/lv_draw/lv_draw_rect.c **** 
 7179              		.loc 1 246 20 is_stmt 0 view .LVU2601
 7180 015e 7388     		ldrh	r3, [r6, #2]
 7181              	.LVL711:
 246:lvgl/src/lv_draw/lv_draw_rect.c **** 
 7182              		.loc 1 246 20 view .LVU2602
 7183 0160 ADF82430 		strh	r3, [sp, #36]	@ movhi
 248:lvgl/src/lv_draw/lv_draw_rect.c ****         /*In case of horizontal gradient pre-compute a line with a gradient*/
 7184              		.loc 1 248 9 is_stmt 1 view .LVU2603
 7185              	.LVL712:
 250:lvgl/src/lv_draw/lv_draw_rect.c ****             grad_map = _lv_mem_buf_get(coords_w * sizeof(lv_color_t));
 7186              		.loc 1 250 9 view .LVU2604
 250:lvgl/src/lv_draw/lv_draw_rect.c ****             grad_map = _lv_mem_buf_get(coords_w * sizeof(lv_color_t));
 7187              		.loc 1 250 11 is_stmt 0 view .LVU2605
 7188 0164 B8F1020F 		cmp	r8, #2
 7189 0168 42D0     		beq	.L389
 248:lvgl/src/lv_draw/lv_draw_rect.c ****         /*In case of horizontal gradient pre-compute a line with a gradient*/
 7190              		.loc 1 248 22 view .LVU2606
 7191 016a 0023     		movs	r3, #0
 7192              	.LVL713:
 248:lvgl/src/lv_draw/lv_draw_rect.c ****         /*In case of horizontal gradient pre-compute a line with a gradient*/
ARM GAS  D:\Temp\ccGEpo4V.s 			page 200


 7193              		.loc 1 248 22 view .LVU2607
 7194 016c 0E93     		str	r3, [sp, #56]
 7195              	.LVL714:
 7196              	.L346:
 259:lvgl/src/lv_draw/lv_draw_rect.c ****         if(lv_area_get_width(&coords_bg) - 2 * rout > SPLIT_LIMIT) split = true;
 7197              		.loc 1 259 9 is_stmt 1 view .LVU2608
 260:lvgl/src/lv_draw/lv_draw_rect.c **** 
 7198              		.loc 1 260 9 view .LVU2609
 7199              	.LBB472:
 7200              	.LBI472:
 107:lvgl/src/lv_draw/../lv_core/../lv_font/../lv_misc/lv_area.h **** {
 7201              		.loc 2 107 26 view .LVU2610
 7202              	.LBB473:
 109:lvgl/src/lv_draw/../lv_core/../lv_font/../lv_misc/lv_area.h **** }
 7203              		.loc 2 109 5 view .LVU2611
 109:lvgl/src/lv_draw/../lv_core/../lv_font/../lv_misc/lv_area.h **** }
 7204              		.loc 2 109 31 is_stmt 0 view .LVU2612
 7205 016e BDF98420 		ldrsh	r2, [sp, #132]
 7206 0172 93B2     		uxth	r3, r2
 109:lvgl/src/lv_draw/../lv_core/../lv_font/../lv_misc/lv_area.h **** }
 7207              		.loc 2 109 44 view .LVU2613
 7208 0174 BDF98010 		ldrsh	r1, [sp, #128]
 7209 0178 88B2     		uxth	r0, r1
 109:lvgl/src/lv_draw/../lv_core/../lv_font/../lv_misc/lv_area.h **** }
 7210              		.loc 2 109 36 view .LVU2614
 7211 017a 1B1A     		subs	r3, r3, r0
 7212 017c 9BB2     		uxth	r3, r3
 109:lvgl/src/lv_draw/../lv_core/../lv_font/../lv_misc/lv_area.h **** }
 7213              		.loc 2 109 49 view .LVU2615
 7214 017e 0133     		adds	r3, r3, #1
 109:lvgl/src/lv_draw/../lv_core/../lv_font/../lv_misc/lv_area.h **** }
 7215              		.loc 2 109 12 view .LVU2616
 7216 0180 1BB2     		sxth	r3, r3
 7217              	.LVL715:
 109:lvgl/src/lv_draw/../lv_core/../lv_font/../lv_misc/lv_area.h **** }
 7218              		.loc 2 109 12 view .LVU2617
 7219              	.LBE473:
 7220              	.LBE472:
 260:lvgl/src/lv_draw/lv_draw_rect.c **** 
 7221              		.loc 1 260 42 view .LVU2618
 7222 0182 A3EB4B03 		sub	r3, r3, fp, lsl #1
 260:lvgl/src/lv_draw/lv_draw_rect.c **** 
 7223              		.loc 1 260 11 view .LVU2619
 7224 0186 322B     		cmp	r3, #50
 7225 0188 01DC     		bgt	.L352
 259:lvgl/src/lv_draw/lv_draw_rect.c ****         if(lv_area_get_width(&coords_bg) - 2 * rout > SPLIT_LIMIT) split = true;
 7226              		.loc 1 259 14 view .LVU2620
 7227 018a 0023     		movs	r3, #0
 7228 018c 0A93     		str	r3, [sp, #40]
 7229              	.L352:
 7230              	.LVL716:
 262:lvgl/src/lv_draw/lv_draw_rect.c **** 
 7231              		.loc 1 262 9 is_stmt 1 view .LVU2621
 264:lvgl/src/lv_draw/lv_draw_rect.c ****         fill_area.x1 = coords_bg.x1;
 7232              		.loc 1 264 9 view .LVU2622
 265:lvgl/src/lv_draw/lv_draw_rect.c ****         fill_area.x2 = coords_bg.x2;
 7233              		.loc 1 265 9 view .LVU2623
ARM GAS  D:\Temp\ccGEpo4V.s 			page 201


 265:lvgl/src/lv_draw/lv_draw_rect.c ****         fill_area.x2 = coords_bg.x2;
 7234              		.loc 1 265 22 is_stmt 0 view .LVU2624
 7235 018e ADF84C10 		strh	r1, [sp, #76]	@ movhi
 266:lvgl/src/lv_draw/lv_draw_rect.c ****         fill_area.y1 = disp_area->y1 + draw_area.y1;
 7236              		.loc 1 266 9 is_stmt 1 view .LVU2625
 266:lvgl/src/lv_draw/lv_draw_rect.c ****         fill_area.y1 = disp_area->y1 + draw_area.y1;
 7237              		.loc 1 266 22 is_stmt 0 view .LVU2626
 7238 0192 ADF85020 		strh	r2, [sp, #80]	@ movhi
 267:lvgl/src/lv_draw/lv_draw_rect.c ****         fill_area.y2 = fill_area.y1;
 7239              		.loc 1 267 9 is_stmt 1 view .LVU2627
 267:lvgl/src/lv_draw/lv_draw_rect.c ****         fill_area.y2 = fill_area.y1;
 7240              		.loc 1 267 33 is_stmt 0 view .LVU2628
 7241 0196 7B8A     		ldrh	r3, [r7, #18]
 267:lvgl/src/lv_draw/lv_draw_rect.c ****         fill_area.y2 = fill_area.y1;
 7242              		.loc 1 267 49 view .LVU2629
 7243 0198 BDF97A50 		ldrsh	r5, [sp, #122]
 7244              	.LVL717:
 267:lvgl/src/lv_draw/lv_draw_rect.c ****         fill_area.y2 = fill_area.y1;
 7245              		.loc 1 267 38 view .LVU2630
 7246 019c 13FA85F3 		uxtah	r3, r3, r5
 7247 01a0 1BB2     		sxth	r3, r3
 267:lvgl/src/lv_draw/lv_draw_rect.c ****         fill_area.y2 = fill_area.y1;
 7248              		.loc 1 267 22 view .LVU2631
 7249 01a2 ADF84E30 		strh	r3, [sp, #78]	@ movhi
 268:lvgl/src/lv_draw/lv_draw_rect.c ****         for(h = draw_area.y1; h <= draw_area.y2; h++) {
 7250              		.loc 1 268 9 is_stmt 1 view .LVU2632
 268:lvgl/src/lv_draw/lv_draw_rect.c ****         for(h = draw_area.y1; h <= draw_area.y2; h++) {
 7251              		.loc 1 268 22 is_stmt 0 view .LVU2633
 7252 01a6 ADF85230 		strh	r3, [sp, #82]	@ movhi
 269:lvgl/src/lv_draw/lv_draw_rect.c ****             int32_t y = h + vdb->area.y1;
 7253              		.loc 1 269 9 is_stmt 1 view .LVU2634
 7254              	.LVL718:
 269:lvgl/src/lv_draw/lv_draw_rect.c ****             int32_t y = h + vdb->area.y1;
 7255              		.loc 1 269 9 is_stmt 0 view .LVU2635
 7256 01aa B946     		mov	r9, r7
 7257 01ac BDF818A0 		ldrh	r10, [sp, #24]
 7258 01b0 BEE1     		b	.L353
 7259              	.LVL719:
 7260              	.L377:
 269:lvgl/src/lv_draw/lv_draw_rect.c ****             int32_t y = h + vdb->area.y1;
 7261              		.loc 1 269 9 view .LVU2636
 7262              	.LBE491:
 217:lvgl/src/lv_draw/lv_draw_rect.c **** 
 7263              		.loc 1 217 54 view .LVU2637
 7264 01b2 0023     		movs	r3, #0
 7265              	.LVL720:
 217:lvgl/src/lv_draw/lv_draw_rect.c **** 
 7266              		.loc 1 217 54 view .LVU2638
 7267 01b4 0893     		str	r3, [sp, #32]
 7268 01b6 A9E7     		b	.L341
 7269              	.LVL721:
 7270              	.L387:
 231:lvgl/src/lv_draw/lv_draw_rect.c ****                        dsc->bg_color, NULL, LV_DRAW_MASK_RES_FULL_COVER, opa,
 7271              		.loc 1 231 9 is_stmt 1 view .LVU2639
 7272 01b8 737B     		ldrb	r3, [r6, #13]	@ zero_extendqisi2
 7273 01ba 0293     		str	r3, [sp, #8]
 7274 01bc 059B     		ldr	r3, [sp, #20]
ARM GAS  D:\Temp\ccGEpo4V.s 			page 202


 7275 01be 0193     		str	r3, [sp, #4]
 7276 01c0 0123     		movs	r3, #1
 7277 01c2 0093     		str	r3, [sp]
 7278 01c4 0023     		movs	r3, #0
 7279 01c6 7288     		ldrh	r2, [r6, #2]
 7280 01c8 20A9     		add	r1, sp, #128
 7281 01ca 0798     		ldr	r0, [sp, #28]
 7282 01cc FFF7FEFF 		bl	_lv_blend_fill
 7283              	.LVL722:
 219:lvgl/src/lv_draw/lv_draw_rect.c **** 
 7284              		.loc 1 219 13 is_stmt 0 view .LVU2640
 7285 01d0 4FF0FF33 		mov	r3, #-1
 7286 01d4 0F93     		str	r3, [sp, #60]
 231:lvgl/src/lv_draw/lv_draw_rect.c ****                        dsc->bg_color, NULL, LV_DRAW_MASK_RES_FULL_COVER, opa,
 7287              		.loc 1 231 9 view .LVU2641
 7288 01d6 EEE1     		b	.L344
 7289              	.LVL723:
 7290              	.L388:
 7291              	.LBB492:
 239:lvgl/src/lv_draw/lv_draw_rect.c ****             mask_rout_id = lv_draw_mask_add(&mask_rout_param, NULL);
 7292              		.loc 1 239 13 is_stmt 1 view .LVU2642
 7293 01d8 0023     		movs	r3, #0
 7294 01da 5A46     		mov	r2, fp
 7295 01dc 20A9     		add	r1, sp, #128
 7296 01de 17A8     		add	r0, sp, #92
 7297 01e0 FFF7FEFF 		bl	lv_draw_mask_radius_init
 7298              	.LVL724:
 240:lvgl/src/lv_draw/lv_draw_rect.c ****         }
 7299              		.loc 1 240 13 view .LVU2643
 240:lvgl/src/lv_draw/lv_draw_rect.c ****         }
 7300              		.loc 1 240 28 is_stmt 0 view .LVU2644
 7301 01e4 0021     		movs	r1, #0
 7302 01e6 17A8     		add	r0, sp, #92
 7303 01e8 FFF7FEFF 		bl	lv_draw_mask_add
 7304              	.LVL725:
 7305 01ec 0F90     		str	r0, [sp, #60]
 7306              	.LVL726:
 240:lvgl/src/lv_draw/lv_draw_rect.c ****         }
 7307              		.loc 1 240 28 view .LVU2645
 7308 01ee B6E7     		b	.L345
 7309              	.LVL727:
 7310              	.L389:
 7311              	.LBB474:
 251:lvgl/src/lv_draw/lv_draw_rect.c **** 
 7312              		.loc 1 251 13 is_stmt 1 view .LVU2646
 251:lvgl/src/lv_draw/lv_draw_rect.c **** 
 7313              		.loc 1 251 24 is_stmt 0 view .LVU2647
 7314 01f0 6000     		lsls	r0, r4, #1
 7315 01f2 FFF7FEFF 		bl	_lv_mem_buf_get
 7316              	.LVL728:
 251:lvgl/src/lv_draw/lv_draw_rect.c **** 
 7317              		.loc 1 251 24 view .LVU2648
 7318 01f6 0E90     		str	r0, [sp, #56]
 7319              	.LVL729:
 253:lvgl/src/lv_draw/lv_draw_rect.c ****             for(i = 0; i < coords_w; i++) {
 7320              		.loc 1 253 13 is_stmt 1 view .LVU2649
 254:lvgl/src/lv_draw/lv_draw_rect.c ****                 grad_map[i] = grad_get(dsc, coords_w, i);
ARM GAS  D:\Temp\ccGEpo4V.s 			page 203


 7321              		.loc 1 254 13 view .LVU2650
 254:lvgl/src/lv_draw/lv_draw_rect.c ****                 grad_map[i] = grad_get(dsc, coords_w, i);
 7322              		.loc 1 254 19 is_stmt 0 view .LVU2651
 7323 01f8 0022     		movs	r2, #0
 7324 01fa CDF840B0 		str	fp, [sp, #64]
 7325 01fe CDF84480 		str	r8, [sp, #68]
 7326 0202 8246     		mov	r10, r0
 254:lvgl/src/lv_draw/lv_draw_rect.c ****                 grad_map[i] = grad_get(dsc, coords_w, i);
 7327              		.loc 1 254 13 view .LVU2652
 7328 0204 03E0     		b	.L347
 7329              	.LVL730:
 7330              	.L391:
 7331              	.LBB475:
 7332              	.LBB476:
 510:lvgl/src/lv_draw/lv_draw_rect.c **** 
 7333              		.loc 1 510 18 is_stmt 1 view .LVU2653
 510:lvgl/src/lv_draw/lv_draw_rect.c **** 
 7334              		.loc 1 510 28 is_stmt 0 view .LVU2654
 7335 0206 7388     		ldrh	r3, [r6, #2]
 7336              	.LVL731:
 7337              	.L349:
 510:lvgl/src/lv_draw/lv_draw_rect.c **** 
 7338              		.loc 1 510 28 view .LVU2655
 7339              	.LBE476:
 7340              	.LBE475:
 255:lvgl/src/lv_draw/lv_draw_rect.c ****             }
 7341              		.loc 1 255 31 view .LVU2656
 7342 0208 AEF80030 		strh	r3, [lr]	@ movhi
 254:lvgl/src/lv_draw/lv_draw_rect.c ****                 grad_map[i] = grad_get(dsc, coords_w, i);
 7343              		.loc 1 254 39 view .LVU2657
 7344 020c 0132     		adds	r2, r2, #1
 7345              	.LVL732:
 7346              	.L347:
 254:lvgl/src/lv_draw/lv_draw_rect.c ****                 grad_map[i] = grad_get(dsc, coords_w, i);
 7347              		.loc 1 254 13 discriminator 1 view .LVU2658
 7348 020e 4A45     		cmp	r2, r9
 7349 0210 58DA     		bge	.L390
 255:lvgl/src/lv_draw/lv_draw_rect.c ****             }
 7350              		.loc 1 255 17 is_stmt 1 discriminator 3 view .LVU2659
 255:lvgl/src/lv_draw/lv_draw_rect.c ****             }
 7351              		.loc 1 255 31 is_stmt 0 discriminator 3 view .LVU2660
 7352 0212 13B2     		sxth	r3, r2
 255:lvgl/src/lv_draw/lv_draw_rect.c ****             }
 7353              		.loc 1 255 25 discriminator 3 view .LVU2661
 7354 0214 0AEB420E 		add	lr, r10, r2, lsl #1
 7355              	.LVL733:
 7356              	.LBB480:
 7357              	.LBI475:
 507:lvgl/src/lv_draw/lv_draw_rect.c **** {
 7358              		.loc 1 507 48 is_stmt 1 discriminator 3 view .LVU2662
 7359              	.LBB479:
 509:lvgl/src/lv_draw/lv_draw_rect.c ****     if(i <= min) return dsc->bg_color;
 7360              		.loc 1 509 5 discriminator 3 view .LVU2663
 509:lvgl/src/lv_draw/lv_draw_rect.c ****     if(i <= min) return dsc->bg_color;
 7361              		.loc 1 509 23 is_stmt 0 discriminator 3 view .LVU2664
 7362 0218 B6F908C0 		ldrsh	ip, [r6, #8]
 509:lvgl/src/lv_draw/lv_draw_rect.c ****     if(i <= min) return dsc->bg_color;
ARM GAS  D:\Temp\ccGEpo4V.s 			page 204


 7363              		.loc 1 509 44 discriminator 3 view .LVU2665
 7364 021c 04FB0CF1 		mul	r1, r4, ip
 509:lvgl/src/lv_draw/lv_draw_rect.c ****     if(i <= min) return dsc->bg_color;
 7365              		.loc 1 509 13 discriminator 3 view .LVU2666
 7366 0220 0912     		asrs	r1, r1, #8
 7367              	.LVL734:
 510:lvgl/src/lv_draw/lv_draw_rect.c **** 
 7368              		.loc 1 510 5 is_stmt 1 discriminator 3 view .LVU2667
 510:lvgl/src/lv_draw/lv_draw_rect.c **** 
 7369              		.loc 1 510 7 is_stmt 0 discriminator 3 view .LVU2668
 7370 0222 9942     		cmp	r1, r3
 7371 0224 EFDA     		bge	.L391
 512:lvgl/src/lv_draw/lv_draw_rect.c ****     if(i >= max) return dsc->bg_grad_color;
 7372              		.loc 1 512 5 is_stmt 1 view .LVU2669
 512:lvgl/src/lv_draw/lv_draw_rect.c ****     if(i >= max) return dsc->bg_grad_color;
 7373              		.loc 1 512 23 is_stmt 0 view .LVU2670
 7374 0226 B6F90A00 		ldrsh	r0, [r6, #10]
 512:lvgl/src/lv_draw/lv_draw_rect.c ****     if(i >= max) return dsc->bg_grad_color;
 7375              		.loc 1 512 44 view .LVU2671
 7376 022a 00FB04F8 		mul	r8, r0, r4
 7377              	.LVL735:
 513:lvgl/src/lv_draw/lv_draw_rect.c **** 
 7378              		.loc 1 513 5 is_stmt 1 view .LVU2672
 513:lvgl/src/lv_draw/lv_draw_rect.c **** 
 7379              		.loc 1 513 7 is_stmt 0 view .LVU2673
 7380 022e B3EB282F 		cmp	r3, r8, asr #8
 7381 0232 45DA     		bge	.L392
 515:lvgl/src/lv_draw/lv_draw_rect.c ****     d = (s * d) >> 8;
 7382              		.loc 1 515 5 is_stmt 1 view .LVU2674
 515:lvgl/src/lv_draw/lv_draw_rect.c ****     d = (s * d) >> 8;
 7383              		.loc 1 515 13 is_stmt 0 view .LVU2675
 7384 0234 A0EB0C00 		sub	r0, r0, ip
 7385              	.LVL736:
 516:lvgl/src/lv_draw/lv_draw_rect.c ****     i -= min;
 7386              		.loc 1 516 5 is_stmt 1 view .LVU2676
 516:lvgl/src/lv_draw/lv_draw_rect.c ****     i -= min;
 7387              		.loc 1 516 12 is_stmt 0 view .LVU2677
 7388 0238 00FB04F0 		mul	r0, r0, r4
 7389              	.LVL737:
 516:lvgl/src/lv_draw/lv_draw_rect.c ****     i -= min;
 7390              		.loc 1 516 7 view .LVU2678
 7391 023c 0012     		asrs	r0, r0, #8
 7392              	.LVL738:
 517:lvgl/src/lv_draw/lv_draw_rect.c ****     lv_opa_t mix = (i * 255) / d;
 7393              		.loc 1 517 5 is_stmt 1 view .LVU2679
 517:lvgl/src/lv_draw/lv_draw_rect.c ****     lv_opa_t mix = (i * 255) / d;
 7394              		.loc 1 517 7 is_stmt 0 view .LVU2680
 7395 023e 5B1A     		subs	r3, r3, r1
 7396              	.LVL739:
 517:lvgl/src/lv_draw/lv_draw_rect.c ****     lv_opa_t mix = (i * 255) / d;
 7397              		.loc 1 517 7 view .LVU2681
 7398 0240 1BB2     		sxth	r3, r3
 7399              	.LVL740:
 518:lvgl/src/lv_draw/lv_draw_rect.c ****     return lv_color_mix(dsc->bg_grad_color, dsc->bg_color, mix);
 7400              		.loc 1 518 5 is_stmt 1 view .LVU2682
 518:lvgl/src/lv_draw/lv_draw_rect.c ****     return lv_color_mix(dsc->bg_grad_color, dsc->bg_color, mix);
 7401              		.loc 1 518 23 is_stmt 0 view .LVU2683
ARM GAS  D:\Temp\ccGEpo4V.s 			page 205


 7402 0242 C3EB0323 		rsb	r3, r3, r3, lsl #8
 7403              	.LVL741:
 518:lvgl/src/lv_draw/lv_draw_rect.c ****     return lv_color_mix(dsc->bg_grad_color, dsc->bg_color, mix);
 7404              		.loc 1 518 30 view .LVU2684
 7405 0246 93FBF0F3 		sdiv	r3, r3, r0
 518:lvgl/src/lv_draw/lv_draw_rect.c ****     return lv_color_mix(dsc->bg_grad_color, dsc->bg_color, mix);
 7406              		.loc 1 518 14 view .LVU2685
 7407 024a DBB2     		uxtb	r3, r3
 7408              	.LVL742:
 519:lvgl/src/lv_draw/lv_draw_rect.c **** }
 7409              		.loc 1 519 5 is_stmt 1 view .LVU2686
 7410 024c B6F804C0 		ldrh	ip, [r6, #4]
 7411 0250 7088     		ldrh	r0, [r6, #2]
 7412              	.LVL743:
 7413              	.LBB477:
 7414              	.LBI477:
 7415              		.file 4 "lvgl/src/lv_draw/../lv_core/../lv_misc/lv_color.h"
   1:lvgl/src/lv_draw/../lv_core/../lv_misc/lv_color.h **** /**
   2:lvgl/src/lv_draw/../lv_core/../lv_misc/lv_color.h ****  * @file lv_color.h
   3:lvgl/src/lv_draw/../lv_core/../lv_misc/lv_color.h ****  *
   4:lvgl/src/lv_draw/../lv_core/../lv_misc/lv_color.h ****  */
   5:lvgl/src/lv_draw/../lv_core/../lv_misc/lv_color.h **** 
   6:lvgl/src/lv_draw/../lv_core/../lv_misc/lv_color.h **** #ifndef LV_COLOR_H
   7:lvgl/src/lv_draw/../lv_core/../lv_misc/lv_color.h **** #define LV_COLOR_H
   8:lvgl/src/lv_draw/../lv_core/../lv_misc/lv_color.h **** 
   9:lvgl/src/lv_draw/../lv_core/../lv_misc/lv_color.h **** #ifdef __cplusplus
  10:lvgl/src/lv_draw/../lv_core/../lv_misc/lv_color.h **** extern "C" {
  11:lvgl/src/lv_draw/../lv_core/../lv_misc/lv_color.h **** #endif
  12:lvgl/src/lv_draw/../lv_core/../lv_misc/lv_color.h **** 
  13:lvgl/src/lv_draw/../lv_core/../lv_misc/lv_color.h **** /*********************
  14:lvgl/src/lv_draw/../lv_core/../lv_misc/lv_color.h ****  *      INCLUDES
  15:lvgl/src/lv_draw/../lv_core/../lv_misc/lv_color.h ****  *********************/
  16:lvgl/src/lv_draw/../lv_core/../lv_misc/lv_color.h **** #include "../lv_conf_internal.h"
  17:lvgl/src/lv_draw/../lv_core/../lv_misc/lv_color.h **** #include "lv_math.h"
  18:lvgl/src/lv_draw/../lv_core/../lv_misc/lv_color.h **** 
  19:lvgl/src/lv_draw/../lv_core/../lv_misc/lv_color.h **** /*Error checking*/
  20:lvgl/src/lv_draw/../lv_core/../lv_misc/lv_color.h **** #if LV_COLOR_DEPTH == 24
  21:lvgl/src/lv_draw/../lv_core/../lv_misc/lv_color.h **** #error "LV_COLOR_DEPTH 24 is deprecated. Use LV_COLOR_DEPTH 32 instead (lv_conf.h)"
  22:lvgl/src/lv_draw/../lv_core/../lv_misc/lv_color.h **** #endif
  23:lvgl/src/lv_draw/../lv_core/../lv_misc/lv_color.h **** 
  24:lvgl/src/lv_draw/../lv_core/../lv_misc/lv_color.h **** #if LV_COLOR_DEPTH != 32 && LV_COLOR_SCREEN_TRANSP != 0
  25:lvgl/src/lv_draw/../lv_core/../lv_misc/lv_color.h **** #error "LV_COLOR_SCREEN_TRANSP requires LV_COLOR_DEPTH == 32. Set it in lv_conf.h"
  26:lvgl/src/lv_draw/../lv_core/../lv_misc/lv_color.h **** #endif
  27:lvgl/src/lv_draw/../lv_core/../lv_misc/lv_color.h **** 
  28:lvgl/src/lv_draw/../lv_core/../lv_misc/lv_color.h **** #if LV_COLOR_DEPTH != 16 && LV_COLOR_16_SWAP != 0
  29:lvgl/src/lv_draw/../lv_core/../lv_misc/lv_color.h **** #error "LV_COLOR_16_SWAP requires LV_COLOR_DEPTH == 16. Set it in lv_conf.h"
  30:lvgl/src/lv_draw/../lv_core/../lv_misc/lv_color.h **** #endif
  31:lvgl/src/lv_draw/../lv_core/../lv_misc/lv_color.h **** 
  32:lvgl/src/lv_draw/../lv_core/../lv_misc/lv_color.h **** #include <stdint.h>
  33:lvgl/src/lv_draw/../lv_core/../lv_misc/lv_color.h **** 
  34:lvgl/src/lv_draw/../lv_core/../lv_misc/lv_color.h **** /*********************
  35:lvgl/src/lv_draw/../lv_core/../lv_misc/lv_color.h ****  *      DEFINES
  36:lvgl/src/lv_draw/../lv_core/../lv_misc/lv_color.h ****  *********************/
  37:lvgl/src/lv_draw/../lv_core/../lv_misc/lv_color.h **** #define LV_COLOR_WHITE   LV_COLOR_MAKE(0xFF, 0xFF, 0xFF)
  38:lvgl/src/lv_draw/../lv_core/../lv_misc/lv_color.h **** #define LV_COLOR_SILVER  LV_COLOR_MAKE(0xC0, 0xC0, 0xC0)
  39:lvgl/src/lv_draw/../lv_core/../lv_misc/lv_color.h **** #define LV_COLOR_GRAY    LV_COLOR_MAKE(0x80, 0x80, 0x80)
  40:lvgl/src/lv_draw/../lv_core/../lv_misc/lv_color.h **** #define LV_COLOR_BLACK   LV_COLOR_MAKE(0x00, 0x00, 0x00)
ARM GAS  D:\Temp\ccGEpo4V.s 			page 206


  41:lvgl/src/lv_draw/../lv_core/../lv_misc/lv_color.h **** #define LV_COLOR_RED     LV_COLOR_MAKE(0xFF, 0x00, 0x00)
  42:lvgl/src/lv_draw/../lv_core/../lv_misc/lv_color.h **** #define LV_COLOR_MAROON  LV_COLOR_MAKE(0x80, 0x00, 0x00)
  43:lvgl/src/lv_draw/../lv_core/../lv_misc/lv_color.h **** #define LV_COLOR_YELLOW  LV_COLOR_MAKE(0xFF, 0xFF, 0x00)
  44:lvgl/src/lv_draw/../lv_core/../lv_misc/lv_color.h **** #define LV_COLOR_OLIVE   LV_COLOR_MAKE(0x80, 0x80, 0x00)
  45:lvgl/src/lv_draw/../lv_core/../lv_misc/lv_color.h **** #define LV_COLOR_LIME    LV_COLOR_MAKE(0x00, 0xFF, 0x00)
  46:lvgl/src/lv_draw/../lv_core/../lv_misc/lv_color.h **** #define LV_COLOR_GREEN   LV_COLOR_MAKE(0x00, 0x80, 0x00)
  47:lvgl/src/lv_draw/../lv_core/../lv_misc/lv_color.h **** #define LV_COLOR_CYAN    LV_COLOR_MAKE(0x00, 0xFF, 0xFF)
  48:lvgl/src/lv_draw/../lv_core/../lv_misc/lv_color.h **** #define LV_COLOR_AQUA    LV_COLOR_CYAN
  49:lvgl/src/lv_draw/../lv_core/../lv_misc/lv_color.h **** #define LV_COLOR_TEAL    LV_COLOR_MAKE(0x00, 0x80, 0x80)
  50:lvgl/src/lv_draw/../lv_core/../lv_misc/lv_color.h **** #define LV_COLOR_BLUE    LV_COLOR_MAKE(0x00, 0x00, 0xFF)
  51:lvgl/src/lv_draw/../lv_core/../lv_misc/lv_color.h **** #define LV_COLOR_NAVY    LV_COLOR_MAKE(0x00, 0x00, 0x80)
  52:lvgl/src/lv_draw/../lv_core/../lv_misc/lv_color.h **** #define LV_COLOR_MAGENTA LV_COLOR_MAKE(0xFF, 0x00, 0xFF)
  53:lvgl/src/lv_draw/../lv_core/../lv_misc/lv_color.h **** #define LV_COLOR_PURPLE  LV_COLOR_MAKE(0x80, 0x00, 0x80)
  54:lvgl/src/lv_draw/../lv_core/../lv_misc/lv_color.h **** #define LV_COLOR_ORANGE  LV_COLOR_MAKE(0xFF, 0xA5, 0x00)
  55:lvgl/src/lv_draw/../lv_core/../lv_misc/lv_color.h **** 
  56:lvgl/src/lv_draw/../lv_core/../lv_misc/lv_color.h **** /**
  57:lvgl/src/lv_draw/../lv_core/../lv_misc/lv_color.h ****  * Opacity percentages.
  58:lvgl/src/lv_draw/../lv_core/../lv_misc/lv_color.h ****  */
  59:lvgl/src/lv_draw/../lv_core/../lv_misc/lv_color.h **** enum {
  60:lvgl/src/lv_draw/../lv_core/../lv_misc/lv_color.h ****     LV_OPA_TRANSP = 0,
  61:lvgl/src/lv_draw/../lv_core/../lv_misc/lv_color.h ****     LV_OPA_0      = 0,
  62:lvgl/src/lv_draw/../lv_core/../lv_misc/lv_color.h ****     LV_OPA_10     = 25,
  63:lvgl/src/lv_draw/../lv_core/../lv_misc/lv_color.h ****     LV_OPA_20     = 51,
  64:lvgl/src/lv_draw/../lv_core/../lv_misc/lv_color.h ****     LV_OPA_30     = 76,
  65:lvgl/src/lv_draw/../lv_core/../lv_misc/lv_color.h ****     LV_OPA_40     = 102,
  66:lvgl/src/lv_draw/../lv_core/../lv_misc/lv_color.h ****     LV_OPA_50     = 127,
  67:lvgl/src/lv_draw/../lv_core/../lv_misc/lv_color.h ****     LV_OPA_60     = 153,
  68:lvgl/src/lv_draw/../lv_core/../lv_misc/lv_color.h ****     LV_OPA_70     = 178,
  69:lvgl/src/lv_draw/../lv_core/../lv_misc/lv_color.h ****     LV_OPA_80     = 204,
  70:lvgl/src/lv_draw/../lv_core/../lv_misc/lv_color.h ****     LV_OPA_90     = 229,
  71:lvgl/src/lv_draw/../lv_core/../lv_misc/lv_color.h ****     LV_OPA_100    = 255,
  72:lvgl/src/lv_draw/../lv_core/../lv_misc/lv_color.h ****     LV_OPA_COVER  = 255,
  73:lvgl/src/lv_draw/../lv_core/../lv_misc/lv_color.h **** };
  74:lvgl/src/lv_draw/../lv_core/../lv_misc/lv_color.h **** 
  75:lvgl/src/lv_draw/../lv_core/../lv_misc/lv_color.h **** #define LV_OPA_MIN 2    /*Opacities below this will be transparent*/
  76:lvgl/src/lv_draw/../lv_core/../lv_misc/lv_color.h **** #define LV_OPA_MAX 253  /*Opacities above this will fully cover*/
  77:lvgl/src/lv_draw/../lv_core/../lv_misc/lv_color.h **** 
  78:lvgl/src/lv_draw/../lv_core/../lv_misc/lv_color.h **** #if LV_COLOR_DEPTH == 1
  79:lvgl/src/lv_draw/../lv_core/../lv_misc/lv_color.h **** #define LV_COLOR_SIZE 8
  80:lvgl/src/lv_draw/../lv_core/../lv_misc/lv_color.h **** #elif LV_COLOR_DEPTH == 8
  81:lvgl/src/lv_draw/../lv_core/../lv_misc/lv_color.h **** #define LV_COLOR_SIZE 8
  82:lvgl/src/lv_draw/../lv_core/../lv_misc/lv_color.h **** #elif LV_COLOR_DEPTH == 16
  83:lvgl/src/lv_draw/../lv_core/../lv_misc/lv_color.h **** #define LV_COLOR_SIZE 16
  84:lvgl/src/lv_draw/../lv_core/../lv_misc/lv_color.h **** #elif LV_COLOR_DEPTH == 32
  85:lvgl/src/lv_draw/../lv_core/../lv_misc/lv_color.h **** #define LV_COLOR_SIZE 32
  86:lvgl/src/lv_draw/../lv_core/../lv_misc/lv_color.h **** #else
  87:lvgl/src/lv_draw/../lv_core/../lv_misc/lv_color.h **** #error "Invalid LV_COLOR_DEPTH in lv_conf.h! Set it to 1, 8, 16 or 32!"
  88:lvgl/src/lv_draw/../lv_core/../lv_misc/lv_color.h **** #endif
  89:lvgl/src/lv_draw/../lv_core/../lv_misc/lv_color.h **** 
  90:lvgl/src/lv_draw/../lv_core/../lv_misc/lv_color.h **** /* Adjust color mix functions rounding.
  91:lvgl/src/lv_draw/../lv_core/../lv_misc/lv_color.h ****  * GPUs might calculate color mix (blending) differently.
  92:lvgl/src/lv_draw/../lv_core/../lv_misc/lv_color.h ****  * Should be in range of 0..254
  93:lvgl/src/lv_draw/../lv_core/../lv_misc/lv_color.h ****  * 0: no adjustment, get the integer part of the result (round down)
  94:lvgl/src/lv_draw/../lv_core/../lv_misc/lv_color.h ****  * 64: round up from x.75
  95:lvgl/src/lv_draw/../lv_core/../lv_misc/lv_color.h ****  * 128: round up from half
  96:lvgl/src/lv_draw/../lv_core/../lv_misc/lv_color.h ****  * 192: round up from x.25
  97:lvgl/src/lv_draw/../lv_core/../lv_misc/lv_color.h ****  * 254: round up */
ARM GAS  D:\Temp\ccGEpo4V.s 			page 207


  98:lvgl/src/lv_draw/../lv_core/../lv_misc/lv_color.h **** #ifndef LV_COLOR_MIX_ROUND_OFS
  99:lvgl/src/lv_draw/../lv_core/../lv_misc/lv_color.h **** #if LV_COLOR_DEPTH == 32
 100:lvgl/src/lv_draw/../lv_core/../lv_misc/lv_color.h **** #define LV_COLOR_MIX_ROUND_OFS 0
 101:lvgl/src/lv_draw/../lv_core/../lv_misc/lv_color.h **** #else
 102:lvgl/src/lv_draw/../lv_core/../lv_misc/lv_color.h **** #define LV_COLOR_MIX_ROUND_OFS 128
 103:lvgl/src/lv_draw/../lv_core/../lv_misc/lv_color.h **** #endif
 104:lvgl/src/lv_draw/../lv_core/../lv_misc/lv_color.h **** #endif
 105:lvgl/src/lv_draw/../lv_core/../lv_misc/lv_color.h **** 
 106:lvgl/src/lv_draw/../lv_core/../lv_misc/lv_color.h **** /*---------------------------------------
 107:lvgl/src/lv_draw/../lv_core/../lv_misc/lv_color.h ****  * Macros for all existing color depths
 108:lvgl/src/lv_draw/../lv_core/../lv_misc/lv_color.h ****  * to set/get values of the color channels
 109:lvgl/src/lv_draw/../lv_core/../lv_misc/lv_color.h ****  *------------------------------------------*/
 110:lvgl/src/lv_draw/../lv_core/../lv_misc/lv_color.h **** # define LV_COLOR_SET_R1(c, v) (c).ch.red = (uint8_t)((v) & 0x1)
 111:lvgl/src/lv_draw/../lv_core/../lv_misc/lv_color.h **** # define LV_COLOR_SET_G1(c, v) (c).ch.green = (uint8_t)((v) & 0x1)
 112:lvgl/src/lv_draw/../lv_core/../lv_misc/lv_color.h **** # define LV_COLOR_SET_B1(c, v) (c).ch.blue = (uint8_t)((v) & 0x1)
 113:lvgl/src/lv_draw/../lv_core/../lv_misc/lv_color.h **** # define LV_COLOR_SET_A1(c, v) do {} while(0)
 114:lvgl/src/lv_draw/../lv_core/../lv_misc/lv_color.h **** 
 115:lvgl/src/lv_draw/../lv_core/../lv_misc/lv_color.h **** # define LV_COLOR_GET_R1(c) (c).ch.red
 116:lvgl/src/lv_draw/../lv_core/../lv_misc/lv_color.h **** # define LV_COLOR_GET_G1(c) (c).ch.green
 117:lvgl/src/lv_draw/../lv_core/../lv_misc/lv_color.h **** # define LV_COLOR_GET_B1(c) (c).ch.blue
 118:lvgl/src/lv_draw/../lv_core/../lv_misc/lv_color.h **** # define LV_COLOR_GET_A1(c) 0xFF
 119:lvgl/src/lv_draw/../lv_core/../lv_misc/lv_color.h **** 
 120:lvgl/src/lv_draw/../lv_core/../lv_misc/lv_color.h **** # define LV_COLOR_SET_R8(c, v) (c).ch.red = (uint8_t)((v) & 0x7U)
 121:lvgl/src/lv_draw/../lv_core/../lv_misc/lv_color.h **** # define LV_COLOR_SET_G8(c, v) (c).ch.green = (uint8_t)((v) & 0x7U)
 122:lvgl/src/lv_draw/../lv_core/../lv_misc/lv_color.h **** # define LV_COLOR_SET_B8(c, v) (c).ch.blue = (uint8_t)((v) & 0x3U)
 123:lvgl/src/lv_draw/../lv_core/../lv_misc/lv_color.h **** # define LV_COLOR_SET_A8(c, v) do {} while(0)
 124:lvgl/src/lv_draw/../lv_core/../lv_misc/lv_color.h **** 
 125:lvgl/src/lv_draw/../lv_core/../lv_misc/lv_color.h **** # define LV_COLOR_GET_R8(c) (c).ch.red
 126:lvgl/src/lv_draw/../lv_core/../lv_misc/lv_color.h **** # define LV_COLOR_GET_G8(c) (c).ch.green
 127:lvgl/src/lv_draw/../lv_core/../lv_misc/lv_color.h **** # define LV_COLOR_GET_B8(c) (c).ch.blue
 128:lvgl/src/lv_draw/../lv_core/../lv_misc/lv_color.h **** # define LV_COLOR_GET_A8(c) 0xFF
 129:lvgl/src/lv_draw/../lv_core/../lv_misc/lv_color.h **** 
 130:lvgl/src/lv_draw/../lv_core/../lv_misc/lv_color.h **** # define LV_COLOR_SET_R16(c, v) (c).ch.red = (uint8_t)((v) & 0x1FU)
 131:lvgl/src/lv_draw/../lv_core/../lv_misc/lv_color.h **** #if LV_COLOR_16_SWAP == 0
 132:lvgl/src/lv_draw/../lv_core/../lv_misc/lv_color.h **** # define LV_COLOR_SET_G16(c, v) (c).ch.green = (uint8_t)((v) & 0x3FU)
 133:lvgl/src/lv_draw/../lv_core/../lv_misc/lv_color.h **** #else
 134:lvgl/src/lv_draw/../lv_core/../lv_misc/lv_color.h **** # define LV_COLOR_SET_G16(c, v) {(c).ch.green_h = (uint8_t)(((v) >> 3) & 0x7); (c).ch.green_l = (ui
 135:lvgl/src/lv_draw/../lv_core/../lv_misc/lv_color.h **** #endif
 136:lvgl/src/lv_draw/../lv_core/../lv_misc/lv_color.h **** # define LV_COLOR_SET_B16(c, v) (c).ch.blue = (uint8_t)((v) & 0x1FU)
 137:lvgl/src/lv_draw/../lv_core/../lv_misc/lv_color.h **** # define LV_COLOR_SET_A16(c, v) do {} while(0)
 138:lvgl/src/lv_draw/../lv_core/../lv_misc/lv_color.h **** 
 139:lvgl/src/lv_draw/../lv_core/../lv_misc/lv_color.h **** # define LV_COLOR_GET_R16(c) (c).ch.red
 140:lvgl/src/lv_draw/../lv_core/../lv_misc/lv_color.h **** #if LV_COLOR_16_SWAP == 0
 141:lvgl/src/lv_draw/../lv_core/../lv_misc/lv_color.h **** # define LV_COLOR_GET_G16(c) (c).ch.green
 142:lvgl/src/lv_draw/../lv_core/../lv_misc/lv_color.h **** #else
 143:lvgl/src/lv_draw/../lv_core/../lv_misc/lv_color.h **** # define LV_COLOR_GET_G16(c) (((c).ch.green_h << 3) + (c).ch.green_l)
 144:lvgl/src/lv_draw/../lv_core/../lv_misc/lv_color.h **** #endif
 145:lvgl/src/lv_draw/../lv_core/../lv_misc/lv_color.h **** # define LV_COLOR_GET_B16(c) (c).ch.blue
 146:lvgl/src/lv_draw/../lv_core/../lv_misc/lv_color.h **** # define LV_COLOR_GET_A16(c) 0xFF
 147:lvgl/src/lv_draw/../lv_core/../lv_misc/lv_color.h **** 
 148:lvgl/src/lv_draw/../lv_core/../lv_misc/lv_color.h **** # define LV_COLOR_SET_R32(c, v) (c).ch.red = (uint8_t)((v) & 0xFF)
 149:lvgl/src/lv_draw/../lv_core/../lv_misc/lv_color.h **** # define LV_COLOR_SET_G32(c, v) (c).ch.green = (uint8_t)((v) & 0xFF)
 150:lvgl/src/lv_draw/../lv_core/../lv_misc/lv_color.h **** # define LV_COLOR_SET_B32(c, v) (c).ch.blue = (uint8_t)((v) & 0xFF)
 151:lvgl/src/lv_draw/../lv_core/../lv_misc/lv_color.h **** # define LV_COLOR_SET_A32(c, v) (c).ch.alpha = (uint8_t)((v) & 0xFF)
 152:lvgl/src/lv_draw/../lv_core/../lv_misc/lv_color.h **** 
 153:lvgl/src/lv_draw/../lv_core/../lv_misc/lv_color.h **** # define LV_COLOR_GET_R32(c) (c).ch.red
 154:lvgl/src/lv_draw/../lv_core/../lv_misc/lv_color.h **** # define LV_COLOR_GET_G32(c) (c).ch.green
ARM GAS  D:\Temp\ccGEpo4V.s 			page 208


 155:lvgl/src/lv_draw/../lv_core/../lv_misc/lv_color.h **** # define LV_COLOR_GET_B32(c) (c).ch.blue
 156:lvgl/src/lv_draw/../lv_core/../lv_misc/lv_color.h **** # define LV_COLOR_GET_A32(c) (c).ch.alpha
 157:lvgl/src/lv_draw/../lv_core/../lv_misc/lv_color.h **** 
 158:lvgl/src/lv_draw/../lv_core/../lv_misc/lv_color.h **** /*---------------------------------------
 159:lvgl/src/lv_draw/../lv_core/../lv_misc/lv_color.h ****  * Macros for the current color depth
 160:lvgl/src/lv_draw/../lv_core/../lv_misc/lv_color.h ****  * to set/get values of the color channels
 161:lvgl/src/lv_draw/../lv_core/../lv_misc/lv_color.h ****  *------------------------------------------*/
 162:lvgl/src/lv_draw/../lv_core/../lv_misc/lv_color.h **** #if LV_COLOR_DEPTH == 1
 163:lvgl/src/lv_draw/../lv_core/../lv_misc/lv_color.h **** # define LV_COLOR_SET_R(c, v) LV_COLOR_SET_R1(c,v)
 164:lvgl/src/lv_draw/../lv_core/../lv_misc/lv_color.h **** # define LV_COLOR_SET_G(c, v) LV_COLOR_SET_G1(c,v)
 165:lvgl/src/lv_draw/../lv_core/../lv_misc/lv_color.h **** # define LV_COLOR_SET_B(c, v) LV_COLOR_SET_B1(c,v)
 166:lvgl/src/lv_draw/../lv_core/../lv_misc/lv_color.h **** # define LV_COLOR_SET_A(c, v) LV_COLOR_SET_A1(c,v)
 167:lvgl/src/lv_draw/../lv_core/../lv_misc/lv_color.h **** 
 168:lvgl/src/lv_draw/../lv_core/../lv_misc/lv_color.h **** # define LV_COLOR_GET_R(c) LV_COLOR_GET_R1(c)
 169:lvgl/src/lv_draw/../lv_core/../lv_misc/lv_color.h **** # define LV_COLOR_GET_G(c) LV_COLOR_GET_G1(c)
 170:lvgl/src/lv_draw/../lv_core/../lv_misc/lv_color.h **** # define LV_COLOR_GET_B(c) LV_COLOR_GET_B1(c)
 171:lvgl/src/lv_draw/../lv_core/../lv_misc/lv_color.h **** # define LV_COLOR_GET_A(c) LV_COLOR_GET_A1(c)
 172:lvgl/src/lv_draw/../lv_core/../lv_misc/lv_color.h **** 
 173:lvgl/src/lv_draw/../lv_core/../lv_misc/lv_color.h **** #elif LV_COLOR_DEPTH == 8
 174:lvgl/src/lv_draw/../lv_core/../lv_misc/lv_color.h **** # define LV_COLOR_SET_R(c, v) LV_COLOR_SET_R8(c,v)
 175:lvgl/src/lv_draw/../lv_core/../lv_misc/lv_color.h **** # define LV_COLOR_SET_G(c, v) LV_COLOR_SET_G8(c,v)
 176:lvgl/src/lv_draw/../lv_core/../lv_misc/lv_color.h **** # define LV_COLOR_SET_B(c, v) LV_COLOR_SET_B8(c,v)
 177:lvgl/src/lv_draw/../lv_core/../lv_misc/lv_color.h **** # define LV_COLOR_SET_A(c, v) LV_COLOR_SET_A8(c,v)
 178:lvgl/src/lv_draw/../lv_core/../lv_misc/lv_color.h **** 
 179:lvgl/src/lv_draw/../lv_core/../lv_misc/lv_color.h **** # define LV_COLOR_GET_R(c) LV_COLOR_GET_R8(c)
 180:lvgl/src/lv_draw/../lv_core/../lv_misc/lv_color.h **** # define LV_COLOR_GET_G(c) LV_COLOR_GET_G8(c)
 181:lvgl/src/lv_draw/../lv_core/../lv_misc/lv_color.h **** # define LV_COLOR_GET_B(c) LV_COLOR_GET_B8(c)
 182:lvgl/src/lv_draw/../lv_core/../lv_misc/lv_color.h **** # define LV_COLOR_GET_A(c) LV_COLOR_GET_A8(c)
 183:lvgl/src/lv_draw/../lv_core/../lv_misc/lv_color.h **** 
 184:lvgl/src/lv_draw/../lv_core/../lv_misc/lv_color.h **** #elif LV_COLOR_DEPTH == 16
 185:lvgl/src/lv_draw/../lv_core/../lv_misc/lv_color.h **** # define LV_COLOR_SET_R(c, v) LV_COLOR_SET_R16(c,v)
 186:lvgl/src/lv_draw/../lv_core/../lv_misc/lv_color.h **** # define LV_COLOR_SET_G(c, v) LV_COLOR_SET_G16(c,v)
 187:lvgl/src/lv_draw/../lv_core/../lv_misc/lv_color.h **** # define LV_COLOR_SET_B(c, v) LV_COLOR_SET_B16(c,v)
 188:lvgl/src/lv_draw/../lv_core/../lv_misc/lv_color.h **** # define LV_COLOR_SET_A(c, v) LV_COLOR_SET_A16(c,v)
 189:lvgl/src/lv_draw/../lv_core/../lv_misc/lv_color.h **** 
 190:lvgl/src/lv_draw/../lv_core/../lv_misc/lv_color.h **** # define LV_COLOR_GET_R(c) LV_COLOR_GET_R16(c)
 191:lvgl/src/lv_draw/../lv_core/../lv_misc/lv_color.h **** # define LV_COLOR_GET_G(c) LV_COLOR_GET_G16(c)
 192:lvgl/src/lv_draw/../lv_core/../lv_misc/lv_color.h **** # define LV_COLOR_GET_B(c) LV_COLOR_GET_B16(c)
 193:lvgl/src/lv_draw/../lv_core/../lv_misc/lv_color.h **** # define LV_COLOR_GET_A(c) LV_COLOR_GET_A16(c)
 194:lvgl/src/lv_draw/../lv_core/../lv_misc/lv_color.h **** 
 195:lvgl/src/lv_draw/../lv_core/../lv_misc/lv_color.h **** #elif LV_COLOR_DEPTH == 32
 196:lvgl/src/lv_draw/../lv_core/../lv_misc/lv_color.h **** # define LV_COLOR_SET_R(c, v) LV_COLOR_SET_R32(c,v)
 197:lvgl/src/lv_draw/../lv_core/../lv_misc/lv_color.h **** # define LV_COLOR_SET_G(c, v) LV_COLOR_SET_G32(c,v)
 198:lvgl/src/lv_draw/../lv_core/../lv_misc/lv_color.h **** # define LV_COLOR_SET_B(c, v) LV_COLOR_SET_B32(c,v)
 199:lvgl/src/lv_draw/../lv_core/../lv_misc/lv_color.h **** # define LV_COLOR_SET_A(c, v) LV_COLOR_SET_A32(c,v)
 200:lvgl/src/lv_draw/../lv_core/../lv_misc/lv_color.h **** 
 201:lvgl/src/lv_draw/../lv_core/../lv_misc/lv_color.h **** # define LV_COLOR_GET_R(c) LV_COLOR_GET_R32(c)
 202:lvgl/src/lv_draw/../lv_core/../lv_misc/lv_color.h **** # define LV_COLOR_GET_G(c) LV_COLOR_GET_G32(c)
 203:lvgl/src/lv_draw/../lv_core/../lv_misc/lv_color.h **** # define LV_COLOR_GET_B(c) LV_COLOR_GET_B32(c)
 204:lvgl/src/lv_draw/../lv_core/../lv_misc/lv_color.h **** # define LV_COLOR_GET_A(c) LV_COLOR_GET_A32(c)
 205:lvgl/src/lv_draw/../lv_core/../lv_misc/lv_color.h **** #endif
 206:lvgl/src/lv_draw/../lv_core/../lv_misc/lv_color.h **** 
 207:lvgl/src/lv_draw/../lv_core/../lv_misc/lv_color.h **** /**********************
 208:lvgl/src/lv_draw/../lv_core/../lv_misc/lv_color.h ****  *      TYPEDEFS
 209:lvgl/src/lv_draw/../lv_core/../lv_misc/lv_color.h ****  **********************/
 210:lvgl/src/lv_draw/../lv_core/../lv_misc/lv_color.h **** 
 211:lvgl/src/lv_draw/../lv_core/../lv_misc/lv_color.h **** typedef union {
ARM GAS  D:\Temp\ccGEpo4V.s 			page 209


 212:lvgl/src/lv_draw/../lv_core/../lv_misc/lv_color.h ****     uint8_t full; /*must be declared first to set all bits of byte via initializer list */
 213:lvgl/src/lv_draw/../lv_core/../lv_misc/lv_color.h ****     union {
 214:lvgl/src/lv_draw/../lv_core/../lv_misc/lv_color.h ****         uint8_t blue : 1;
 215:lvgl/src/lv_draw/../lv_core/../lv_misc/lv_color.h ****         uint8_t green : 1;
 216:lvgl/src/lv_draw/../lv_core/../lv_misc/lv_color.h ****         uint8_t red : 1;
 217:lvgl/src/lv_draw/../lv_core/../lv_misc/lv_color.h ****     } ch;
 218:lvgl/src/lv_draw/../lv_core/../lv_misc/lv_color.h **** } lv_color1_t;
 219:lvgl/src/lv_draw/../lv_core/../lv_misc/lv_color.h **** 
 220:lvgl/src/lv_draw/../lv_core/../lv_misc/lv_color.h **** typedef union {
 221:lvgl/src/lv_draw/../lv_core/../lv_misc/lv_color.h ****     struct {
 222:lvgl/src/lv_draw/../lv_core/../lv_misc/lv_color.h ****         uint8_t blue : 2;
 223:lvgl/src/lv_draw/../lv_core/../lv_misc/lv_color.h ****         uint8_t green : 3;
 224:lvgl/src/lv_draw/../lv_core/../lv_misc/lv_color.h ****         uint8_t red : 3;
 225:lvgl/src/lv_draw/../lv_core/../lv_misc/lv_color.h ****     } ch;
 226:lvgl/src/lv_draw/../lv_core/../lv_misc/lv_color.h ****     uint8_t full;
 227:lvgl/src/lv_draw/../lv_core/../lv_misc/lv_color.h **** } lv_color8_t;
 228:lvgl/src/lv_draw/../lv_core/../lv_misc/lv_color.h **** 
 229:lvgl/src/lv_draw/../lv_core/../lv_misc/lv_color.h **** typedef union {
 230:lvgl/src/lv_draw/../lv_core/../lv_misc/lv_color.h ****     struct {
 231:lvgl/src/lv_draw/../lv_core/../lv_misc/lv_color.h **** #if LV_COLOR_16_SWAP == 0
 232:lvgl/src/lv_draw/../lv_core/../lv_misc/lv_color.h ****         uint16_t blue : 5;
 233:lvgl/src/lv_draw/../lv_core/../lv_misc/lv_color.h ****         uint16_t green : 6;
 234:lvgl/src/lv_draw/../lv_core/../lv_misc/lv_color.h ****         uint16_t red : 5;
 235:lvgl/src/lv_draw/../lv_core/../lv_misc/lv_color.h **** #else
 236:lvgl/src/lv_draw/../lv_core/../lv_misc/lv_color.h ****         uint16_t green_h : 3;
 237:lvgl/src/lv_draw/../lv_core/../lv_misc/lv_color.h ****         uint16_t red : 5;
 238:lvgl/src/lv_draw/../lv_core/../lv_misc/lv_color.h ****         uint16_t blue : 5;
 239:lvgl/src/lv_draw/../lv_core/../lv_misc/lv_color.h ****         uint16_t green_l : 3;
 240:lvgl/src/lv_draw/../lv_core/../lv_misc/lv_color.h **** #endif
 241:lvgl/src/lv_draw/../lv_core/../lv_misc/lv_color.h ****     } ch;
 242:lvgl/src/lv_draw/../lv_core/../lv_misc/lv_color.h ****     uint16_t full;
 243:lvgl/src/lv_draw/../lv_core/../lv_misc/lv_color.h **** } lv_color16_t;
 244:lvgl/src/lv_draw/../lv_core/../lv_misc/lv_color.h **** 
 245:lvgl/src/lv_draw/../lv_core/../lv_misc/lv_color.h **** typedef union {
 246:lvgl/src/lv_draw/../lv_core/../lv_misc/lv_color.h ****     struct {
 247:lvgl/src/lv_draw/../lv_core/../lv_misc/lv_color.h ****         uint8_t blue;
 248:lvgl/src/lv_draw/../lv_core/../lv_misc/lv_color.h ****         uint8_t green;
 249:lvgl/src/lv_draw/../lv_core/../lv_misc/lv_color.h ****         uint8_t red;
 250:lvgl/src/lv_draw/../lv_core/../lv_misc/lv_color.h ****         uint8_t alpha;
 251:lvgl/src/lv_draw/../lv_core/../lv_misc/lv_color.h ****     } ch;
 252:lvgl/src/lv_draw/../lv_core/../lv_misc/lv_color.h ****     uint32_t full;
 253:lvgl/src/lv_draw/../lv_core/../lv_misc/lv_color.h **** } lv_color32_t;
 254:lvgl/src/lv_draw/../lv_core/../lv_misc/lv_color.h **** 
 255:lvgl/src/lv_draw/../lv_core/../lv_misc/lv_color.h **** #if LV_COLOR_DEPTH == 1
 256:lvgl/src/lv_draw/../lv_core/../lv_misc/lv_color.h **** typedef uint8_t lv_color_int_t;
 257:lvgl/src/lv_draw/../lv_core/../lv_misc/lv_color.h **** typedef lv_color1_t lv_color_t;
 258:lvgl/src/lv_draw/../lv_core/../lv_misc/lv_color.h **** #define _LV_COLOR_ZERO_INITIALIZER {0x00}
 259:lvgl/src/lv_draw/../lv_core/../lv_misc/lv_color.h **** #elif LV_COLOR_DEPTH == 8
 260:lvgl/src/lv_draw/../lv_core/../lv_misc/lv_color.h **** typedef uint8_t lv_color_int_t;
 261:lvgl/src/lv_draw/../lv_core/../lv_misc/lv_color.h **** typedef lv_color8_t lv_color_t;
 262:lvgl/src/lv_draw/../lv_core/../lv_misc/lv_color.h **** #define _LV_COLOR_ZERO_INITIALIZER {{0x00, 0x00, 0x00}}
 263:lvgl/src/lv_draw/../lv_core/../lv_misc/lv_color.h **** #elif LV_COLOR_DEPTH == 16
 264:lvgl/src/lv_draw/../lv_core/../lv_misc/lv_color.h **** typedef uint16_t lv_color_int_t;
 265:lvgl/src/lv_draw/../lv_core/../lv_misc/lv_color.h **** typedef lv_color16_t lv_color_t;
 266:lvgl/src/lv_draw/../lv_core/../lv_misc/lv_color.h **** # if LV_COLOR_16_SWAP == 0
 267:lvgl/src/lv_draw/../lv_core/../lv_misc/lv_color.h **** #  define _LV_COLOR_ZERO_INITIALIZER {{0x00, 0x00, 0x00}}
 268:lvgl/src/lv_draw/../lv_core/../lv_misc/lv_color.h **** # else
ARM GAS  D:\Temp\ccGEpo4V.s 			page 210


 269:lvgl/src/lv_draw/../lv_core/../lv_misc/lv_color.h **** #  define _LV_COLOR_ZERO_INITIALIZER {{0x00, 0x00, 0x00, 0x00}}
 270:lvgl/src/lv_draw/../lv_core/../lv_misc/lv_color.h **** # endif
 271:lvgl/src/lv_draw/../lv_core/../lv_misc/lv_color.h **** #elif LV_COLOR_DEPTH == 32
 272:lvgl/src/lv_draw/../lv_core/../lv_misc/lv_color.h **** typedef uint32_t lv_color_int_t;
 273:lvgl/src/lv_draw/../lv_core/../lv_misc/lv_color.h **** typedef lv_color32_t lv_color_t;
 274:lvgl/src/lv_draw/../lv_core/../lv_misc/lv_color.h **** #define _LV_COLOR_ZERO_INITIALIZER {{0x00, 0x00, 0x00, 0x00}}
 275:lvgl/src/lv_draw/../lv_core/../lv_misc/lv_color.h **** #else
 276:lvgl/src/lv_draw/../lv_core/../lv_misc/lv_color.h **** #error "Invalid LV_COLOR_DEPTH in lv_conf.h! Set it to 1, 8, 16 or 32!"
 277:lvgl/src/lv_draw/../lv_core/../lv_misc/lv_color.h **** #endif
 278:lvgl/src/lv_draw/../lv_core/../lv_misc/lv_color.h **** 
 279:lvgl/src/lv_draw/../lv_core/../lv_misc/lv_color.h **** typedef struct {
 280:lvgl/src/lv_draw/../lv_core/../lv_misc/lv_color.h ****     uint16_t h;
 281:lvgl/src/lv_draw/../lv_core/../lv_misc/lv_color.h ****     uint8_t s;
 282:lvgl/src/lv_draw/../lv_core/../lv_misc/lv_color.h ****     uint8_t v;
 283:lvgl/src/lv_draw/../lv_core/../lv_misc/lv_color.h **** } lv_color_hsv_t;
 284:lvgl/src/lv_draw/../lv_core/../lv_misc/lv_color.h **** 
 285:lvgl/src/lv_draw/../lv_core/../lv_misc/lv_color.h **** //! @cond Doxygen_Suppress
 286:lvgl/src/lv_draw/../lv_core/../lv_misc/lv_color.h **** /*No idea where the guard is required but else throws warnings in the docs*/
 287:lvgl/src/lv_draw/../lv_core/../lv_misc/lv_color.h **** typedef uint8_t lv_opa_t;
 288:lvgl/src/lv_draw/../lv_core/../lv_misc/lv_color.h **** //! @endcond
 289:lvgl/src/lv_draw/../lv_core/../lv_misc/lv_color.h **** 
 290:lvgl/src/lv_draw/../lv_core/../lv_misc/lv_color.h **** /**********************
 291:lvgl/src/lv_draw/../lv_core/../lv_misc/lv_color.h ****  * GLOBAL PROTOTYPES
 292:lvgl/src/lv_draw/../lv_core/../lv_misc/lv_color.h ****  **********************/
 293:lvgl/src/lv_draw/../lv_core/../lv_misc/lv_color.h **** 
 294:lvgl/src/lv_draw/../lv_core/../lv_misc/lv_color.h **** /*In color conversations:
 295:lvgl/src/lv_draw/../lv_core/../lv_misc/lv_color.h ****  * - When converting to bigger color type the LSB weight of 1 LSB is calculated
 296:lvgl/src/lv_draw/../lv_core/../lv_misc/lv_color.h ****  *   E.g. 16 bit Red has 5 bits
 297:lvgl/src/lv_draw/../lv_core/../lv_misc/lv_color.h ****  *         8 bit Red has 3 bits
 298:lvgl/src/lv_draw/../lv_core/../lv_misc/lv_color.h ****  *        ----------------------
 299:lvgl/src/lv_draw/../lv_core/../lv_misc/lv_color.h ****  *        8 bit red LSB = (2^5 - 1) / (2^3 - 1) = 31 / 7 = 4
 300:lvgl/src/lv_draw/../lv_core/../lv_misc/lv_color.h ****  *
 301:lvgl/src/lv_draw/../lv_core/../lv_misc/lv_color.h ****  * - When calculating to smaller color type simply shift out the LSBs
 302:lvgl/src/lv_draw/../lv_core/../lv_misc/lv_color.h ****  *   E.g.  8 bit Red has 3 bits
 303:lvgl/src/lv_draw/../lv_core/../lv_misc/lv_color.h ****  *        16 bit Red has 5 bits
 304:lvgl/src/lv_draw/../lv_core/../lv_misc/lv_color.h ****  *        ----------------------
 305:lvgl/src/lv_draw/../lv_core/../lv_misc/lv_color.h ****  *         Shift right with 5 - 3 = 2
 306:lvgl/src/lv_draw/../lv_core/../lv_misc/lv_color.h ****  */
 307:lvgl/src/lv_draw/../lv_core/../lv_misc/lv_color.h **** static inline uint8_t lv_color_to1(lv_color_t color)
 308:lvgl/src/lv_draw/../lv_core/../lv_misc/lv_color.h **** {
 309:lvgl/src/lv_draw/../lv_core/../lv_misc/lv_color.h **** #if LV_COLOR_DEPTH == 1
 310:lvgl/src/lv_draw/../lv_core/../lv_misc/lv_color.h ****     return color.full;
 311:lvgl/src/lv_draw/../lv_core/../lv_misc/lv_color.h **** #elif LV_COLOR_DEPTH == 8
 312:lvgl/src/lv_draw/../lv_core/../lv_misc/lv_color.h ****     if((LV_COLOR_GET_R(color) & 0x4) || (LV_COLOR_GET_G(color) & 0x4) || (LV_COLOR_GET_B(color) & 0
 313:lvgl/src/lv_draw/../lv_core/../lv_misc/lv_color.h ****         return 1;
 314:lvgl/src/lv_draw/../lv_core/../lv_misc/lv_color.h ****     }
 315:lvgl/src/lv_draw/../lv_core/../lv_misc/lv_color.h ****     else {
 316:lvgl/src/lv_draw/../lv_core/../lv_misc/lv_color.h ****         return 0;
 317:lvgl/src/lv_draw/../lv_core/../lv_misc/lv_color.h ****     }
 318:lvgl/src/lv_draw/../lv_core/../lv_misc/lv_color.h **** #elif LV_COLOR_DEPTH == 16
 319:lvgl/src/lv_draw/../lv_core/../lv_misc/lv_color.h ****     if((LV_COLOR_GET_R(color) & 0x10) || (LV_COLOR_GET_G(color) & 0x20) || (LV_COLOR_GET_B(color) &
 320:lvgl/src/lv_draw/../lv_core/../lv_misc/lv_color.h ****         return 1;
 321:lvgl/src/lv_draw/../lv_core/../lv_misc/lv_color.h ****     }
 322:lvgl/src/lv_draw/../lv_core/../lv_misc/lv_color.h ****     else {
 323:lvgl/src/lv_draw/../lv_core/../lv_misc/lv_color.h ****         return 0;
 324:lvgl/src/lv_draw/../lv_core/../lv_misc/lv_color.h ****     }
 325:lvgl/src/lv_draw/../lv_core/../lv_misc/lv_color.h **** #elif LV_COLOR_DEPTH == 32
ARM GAS  D:\Temp\ccGEpo4V.s 			page 211


 326:lvgl/src/lv_draw/../lv_core/../lv_misc/lv_color.h ****     if((LV_COLOR_GET_R(color) & 0x80) || (LV_COLOR_GET_G(color) & 0x80) || (LV_COLOR_GET_B(color) &
 327:lvgl/src/lv_draw/../lv_core/../lv_misc/lv_color.h ****         return 1;
 328:lvgl/src/lv_draw/../lv_core/../lv_misc/lv_color.h ****     }
 329:lvgl/src/lv_draw/../lv_core/../lv_misc/lv_color.h ****     else {
 330:lvgl/src/lv_draw/../lv_core/../lv_misc/lv_color.h ****         return 0;
 331:lvgl/src/lv_draw/../lv_core/../lv_misc/lv_color.h ****     }
 332:lvgl/src/lv_draw/../lv_core/../lv_misc/lv_color.h **** #endif
 333:lvgl/src/lv_draw/../lv_core/../lv_misc/lv_color.h **** }
 334:lvgl/src/lv_draw/../lv_core/../lv_misc/lv_color.h **** 
 335:lvgl/src/lv_draw/../lv_core/../lv_misc/lv_color.h **** static inline uint8_t lv_color_to8(lv_color_t color)
 336:lvgl/src/lv_draw/../lv_core/../lv_misc/lv_color.h **** {
 337:lvgl/src/lv_draw/../lv_core/../lv_misc/lv_color.h **** #if LV_COLOR_DEPTH == 1
 338:lvgl/src/lv_draw/../lv_core/../lv_misc/lv_color.h ****     if(color.full == 0)
 339:lvgl/src/lv_draw/../lv_core/../lv_misc/lv_color.h ****         return 0;
 340:lvgl/src/lv_draw/../lv_core/../lv_misc/lv_color.h ****     else
 341:lvgl/src/lv_draw/../lv_core/../lv_misc/lv_color.h ****         return 0xFF;
 342:lvgl/src/lv_draw/../lv_core/../lv_misc/lv_color.h **** #elif LV_COLOR_DEPTH == 8
 343:lvgl/src/lv_draw/../lv_core/../lv_misc/lv_color.h ****     return color.full;
 344:lvgl/src/lv_draw/../lv_core/../lv_misc/lv_color.h **** #elif LV_COLOR_DEPTH == 16
 345:lvgl/src/lv_draw/../lv_core/../lv_misc/lv_color.h ****     lv_color8_t ret;
 346:lvgl/src/lv_draw/../lv_core/../lv_misc/lv_color.h ****     LV_COLOR_SET_R8(ret, LV_COLOR_GET_R(color) >> 2); /* 5 - 3  = 2*/
 347:lvgl/src/lv_draw/../lv_core/../lv_misc/lv_color.h ****     LV_COLOR_SET_G8(ret, LV_COLOR_GET_G(color) >> 3); /* 6 - 3  = 3*/
 348:lvgl/src/lv_draw/../lv_core/../lv_misc/lv_color.h ****     LV_COLOR_SET_B8(ret, LV_COLOR_GET_B(color) >> 3); /* 5 - 2  = 3*/
 349:lvgl/src/lv_draw/../lv_core/../lv_misc/lv_color.h ****     return ret.full;
 350:lvgl/src/lv_draw/../lv_core/../lv_misc/lv_color.h **** #elif LV_COLOR_DEPTH == 32
 351:lvgl/src/lv_draw/../lv_core/../lv_misc/lv_color.h ****     lv_color8_t ret;
 352:lvgl/src/lv_draw/../lv_core/../lv_misc/lv_color.h ****     LV_COLOR_SET_R8(ret, LV_COLOR_GET_R(color) >> 5); /* 8 - 3  = 5*/
 353:lvgl/src/lv_draw/../lv_core/../lv_misc/lv_color.h ****     LV_COLOR_SET_G8(ret, LV_COLOR_GET_G(color) >> 5); /* 8 - 3  = 5*/
 354:lvgl/src/lv_draw/../lv_core/../lv_misc/lv_color.h ****     LV_COLOR_SET_B8(ret, LV_COLOR_GET_B(color) >> 6); /* 8 - 2  = 6*/
 355:lvgl/src/lv_draw/../lv_core/../lv_misc/lv_color.h ****     return ret.full;
 356:lvgl/src/lv_draw/../lv_core/../lv_misc/lv_color.h **** #endif
 357:lvgl/src/lv_draw/../lv_core/../lv_misc/lv_color.h **** }
 358:lvgl/src/lv_draw/../lv_core/../lv_misc/lv_color.h **** 
 359:lvgl/src/lv_draw/../lv_core/../lv_misc/lv_color.h **** static inline uint16_t lv_color_to16(lv_color_t color)
 360:lvgl/src/lv_draw/../lv_core/../lv_misc/lv_color.h **** {
 361:lvgl/src/lv_draw/../lv_core/../lv_misc/lv_color.h **** #if LV_COLOR_DEPTH == 1
 362:lvgl/src/lv_draw/../lv_core/../lv_misc/lv_color.h ****     if(color.full == 0)
 363:lvgl/src/lv_draw/../lv_core/../lv_misc/lv_color.h ****         return 0;
 364:lvgl/src/lv_draw/../lv_core/../lv_misc/lv_color.h ****     else
 365:lvgl/src/lv_draw/../lv_core/../lv_misc/lv_color.h ****         return 0xFFFF;
 366:lvgl/src/lv_draw/../lv_core/../lv_misc/lv_color.h **** #elif LV_COLOR_DEPTH == 8
 367:lvgl/src/lv_draw/../lv_core/../lv_misc/lv_color.h ****     lv_color16_t ret;
 368:lvgl/src/lv_draw/../lv_core/../lv_misc/lv_color.h ****     LV_COLOR_SET_R16(ret, LV_COLOR_GET_R(color) * 4);  /*(2^5 - 1)/(2^3 - 1) = 31/7 = 4*/
 369:lvgl/src/lv_draw/../lv_core/../lv_misc/lv_color.h ****     LV_COLOR_SET_G16(ret, LV_COLOR_GET_G(color) * 9);  /*(2^6 - 1)/(2^3 - 1) = 63/7 = 9*/
 370:lvgl/src/lv_draw/../lv_core/../lv_misc/lv_color.h ****     LV_COLOR_SET_B16(ret, LV_COLOR_GET_B(color) * 10); /*(2^5 - 1)/(2^2 - 1) = 31/3 = 10*/
 371:lvgl/src/lv_draw/../lv_core/../lv_misc/lv_color.h ****     return ret.full;
 372:lvgl/src/lv_draw/../lv_core/../lv_misc/lv_color.h **** #elif LV_COLOR_DEPTH == 16
 373:lvgl/src/lv_draw/../lv_core/../lv_misc/lv_color.h ****     return color.full;
 374:lvgl/src/lv_draw/../lv_core/../lv_misc/lv_color.h **** #elif LV_COLOR_DEPTH == 32
 375:lvgl/src/lv_draw/../lv_core/../lv_misc/lv_color.h ****     lv_color16_t ret;
 376:lvgl/src/lv_draw/../lv_core/../lv_misc/lv_color.h ****     LV_COLOR_SET_R16(ret, LV_COLOR_GET_R(color) >> 3); /* 8 - 5  = 3*/
 377:lvgl/src/lv_draw/../lv_core/../lv_misc/lv_color.h ****     LV_COLOR_SET_G16(ret, LV_COLOR_GET_G(color) >> 2); /* 8 - 6  = 2*/
 378:lvgl/src/lv_draw/../lv_core/../lv_misc/lv_color.h ****     LV_COLOR_SET_B16(ret, LV_COLOR_GET_B(color) >> 3); /* 8 - 5  = 3*/
 379:lvgl/src/lv_draw/../lv_core/../lv_misc/lv_color.h ****     return ret.full;
 380:lvgl/src/lv_draw/../lv_core/../lv_misc/lv_color.h **** #endif
 381:lvgl/src/lv_draw/../lv_core/../lv_misc/lv_color.h **** }
 382:lvgl/src/lv_draw/../lv_core/../lv_misc/lv_color.h **** 
ARM GAS  D:\Temp\ccGEpo4V.s 			page 212


 383:lvgl/src/lv_draw/../lv_core/../lv_misc/lv_color.h **** static inline uint32_t lv_color_to32(lv_color_t color)
 384:lvgl/src/lv_draw/../lv_core/../lv_misc/lv_color.h **** {
 385:lvgl/src/lv_draw/../lv_core/../lv_misc/lv_color.h **** #if LV_COLOR_DEPTH == 1
 386:lvgl/src/lv_draw/../lv_core/../lv_misc/lv_color.h ****     if(color.full == 0)
 387:lvgl/src/lv_draw/../lv_core/../lv_misc/lv_color.h ****         return 0xFF000000;
 388:lvgl/src/lv_draw/../lv_core/../lv_misc/lv_color.h ****     else
 389:lvgl/src/lv_draw/../lv_core/../lv_misc/lv_color.h ****         return 0xFFFFFFFF;
 390:lvgl/src/lv_draw/../lv_core/../lv_misc/lv_color.h **** #elif LV_COLOR_DEPTH == 8
 391:lvgl/src/lv_draw/../lv_core/../lv_misc/lv_color.h ****     lv_color32_t ret;
 392:lvgl/src/lv_draw/../lv_core/../lv_misc/lv_color.h ****     LV_COLOR_SET_R32(ret, LV_COLOR_GET_R(color) * 36); /*(2^8 - 1)/(2^3 - 1) = 255/7 = 36*/
 393:lvgl/src/lv_draw/../lv_core/../lv_misc/lv_color.h ****     LV_COLOR_SET_G32(ret, LV_COLOR_GET_G(color) * 36); /*(2^8 - 1)/(2^3 - 1) = 255/7 = 36*/
 394:lvgl/src/lv_draw/../lv_core/../lv_misc/lv_color.h ****     LV_COLOR_SET_B32(ret, LV_COLOR_GET_B(color) * 85); /*(2^8 - 1)/(2^2 - 1) = 255/3 = 85*/
 395:lvgl/src/lv_draw/../lv_core/../lv_misc/lv_color.h ****     LV_COLOR_SET_A32(ret, 0xFF);
 396:lvgl/src/lv_draw/../lv_core/../lv_misc/lv_color.h ****     return ret.full;
 397:lvgl/src/lv_draw/../lv_core/../lv_misc/lv_color.h **** #elif LV_COLOR_DEPTH == 16
 398:lvgl/src/lv_draw/../lv_core/../lv_misc/lv_color.h ****     /**
 399:lvgl/src/lv_draw/../lv_core/../lv_misc/lv_color.h ****      * The floating point math for conversion is:
 400:lvgl/src/lv_draw/../lv_core/../lv_misc/lv_color.h ****      *  valueto = valuefrom * ( (2^bitsto - 1) / (float)(2^bitsfrom - 1) )
 401:lvgl/src/lv_draw/../lv_core/../lv_misc/lv_color.h ****      * The faster integer math for conversion is:
 402:lvgl/src/lv_draw/../lv_core/../lv_misc/lv_color.h ****      *  valueto = ( valuefrom * multiplier + adder ) >> divisor
 403:lvgl/src/lv_draw/../lv_core/../lv_misc/lv_color.h ****      *   multiplier = FLOOR( ( (2^bitsto - 1) << divisor ) / (float)(2^bitsfrom - 1) )
 404:lvgl/src/lv_draw/../lv_core/../lv_misc/lv_color.h ****      *
 405:lvgl/src/lv_draw/../lv_core/../lv_misc/lv_color.h ****      * Find the first divisor where ( adder >> divisor ) <= 0
 406:lvgl/src/lv_draw/../lv_core/../lv_misc/lv_color.h ****      *
 407:lvgl/src/lv_draw/../lv_core/../lv_misc/lv_color.h ****      * 5-bit to 8-bit: ( 31 * multiplier + adder ) >> divisor = 255
 408:lvgl/src/lv_draw/../lv_core/../lv_misc/lv_color.h ****      * divisor  multiplier  adder  min (0)  max (31)
 409:lvgl/src/lv_draw/../lv_core/../lv_misc/lv_color.h ****      *       0           8      7        7       255
 410:lvgl/src/lv_draw/../lv_core/../lv_misc/lv_color.h ****      *       1          16     14        7       255
 411:lvgl/src/lv_draw/../lv_core/../lv_misc/lv_color.h ****      *       2          32     28        7       255
 412:lvgl/src/lv_draw/../lv_core/../lv_misc/lv_color.h ****      *       3          65     25        3       255
 413:lvgl/src/lv_draw/../lv_core/../lv_misc/lv_color.h ****      *       4         131     19        1       255
 414:lvgl/src/lv_draw/../lv_core/../lv_misc/lv_color.h ****      *       5         263      7        0       255
 415:lvgl/src/lv_draw/../lv_core/../lv_misc/lv_color.h ****      *
 416:lvgl/src/lv_draw/../lv_core/../lv_misc/lv_color.h ****      * 6-bit to 8-bit: 255 = ( 63 * multiplier + adder ) >> divisor
 417:lvgl/src/lv_draw/../lv_core/../lv_misc/lv_color.h ****      * divisor  multiplier  adder  min (0)  max (63)
 418:lvgl/src/lv_draw/../lv_core/../lv_misc/lv_color.h ****      *       0           4      3        3       255
 419:lvgl/src/lv_draw/../lv_core/../lv_misc/lv_color.h ****      *       1           8      6        3       255
 420:lvgl/src/lv_draw/../lv_core/../lv_misc/lv_color.h ****      *       2          16     12        3       255
 421:lvgl/src/lv_draw/../lv_core/../lv_misc/lv_color.h ****      *       3          32     24        3       255
 422:lvgl/src/lv_draw/../lv_core/../lv_misc/lv_color.h ****      *       4          64     48        3       255
 423:lvgl/src/lv_draw/../lv_core/../lv_misc/lv_color.h ****      *       5         129     33        1       255
 424:lvgl/src/lv_draw/../lv_core/../lv_misc/lv_color.h ****      *       6         259      3        0       255
 425:lvgl/src/lv_draw/../lv_core/../lv_misc/lv_color.h ****      */
 426:lvgl/src/lv_draw/../lv_core/../lv_misc/lv_color.h **** 
 427:lvgl/src/lv_draw/../lv_core/../lv_misc/lv_color.h ****     lv_color32_t ret;
 428:lvgl/src/lv_draw/../lv_core/../lv_misc/lv_color.h ****     LV_COLOR_SET_R32(ret, (LV_COLOR_GET_R(color) * 263 + 7) >> 5);
 429:lvgl/src/lv_draw/../lv_core/../lv_misc/lv_color.h ****     LV_COLOR_SET_G32(ret, (LV_COLOR_GET_G(color) * 259 + 3) >> 6);
 430:lvgl/src/lv_draw/../lv_core/../lv_misc/lv_color.h ****     LV_COLOR_SET_B32(ret, (LV_COLOR_GET_B(color) * 263 + 7) >> 5);
 431:lvgl/src/lv_draw/../lv_core/../lv_misc/lv_color.h ****     LV_COLOR_SET_A32(ret, 0xFF);
 432:lvgl/src/lv_draw/../lv_core/../lv_misc/lv_color.h ****     return ret.full;
 433:lvgl/src/lv_draw/../lv_core/../lv_misc/lv_color.h **** #elif LV_COLOR_DEPTH == 32
 434:lvgl/src/lv_draw/../lv_core/../lv_misc/lv_color.h ****     return color.full;
 435:lvgl/src/lv_draw/../lv_core/../lv_misc/lv_color.h **** #endif
 436:lvgl/src/lv_draw/../lv_core/../lv_misc/lv_color.h **** }
 437:lvgl/src/lv_draw/../lv_core/../lv_misc/lv_color.h **** 
 438:lvgl/src/lv_draw/../lv_core/../lv_misc/lv_color.h **** //! @cond Doxygen_Suppress
 439:lvgl/src/lv_draw/../lv_core/../lv_misc/lv_color.h **** 
ARM GAS  D:\Temp\ccGEpo4V.s 			page 213


 440:lvgl/src/lv_draw/../lv_core/../lv_misc/lv_color.h **** /**
 441:lvgl/src/lv_draw/../lv_core/../lv_misc/lv_color.h ****  * Mix two colors with a given ratio.
 442:lvgl/src/lv_draw/../lv_core/../lv_misc/lv_color.h ****  * @param c1 the first color to mix (usually the foreground)
 443:lvgl/src/lv_draw/../lv_core/../lv_misc/lv_color.h ****  * @param c2 the second color to mix (usually the background)
 444:lvgl/src/lv_draw/../lv_core/../lv_misc/lv_color.h ****  * @param mix The ratio of the colors. 0: full `c2`, 255: full `c1`, 127: half `c1` and half`c2`
 445:lvgl/src/lv_draw/../lv_core/../lv_misc/lv_color.h ****  * @return the mixed color
 446:lvgl/src/lv_draw/../lv_core/../lv_misc/lv_color.h ****  */
 447:lvgl/src/lv_draw/../lv_core/../lv_misc/lv_color.h **** LV_ATTRIBUTE_FAST_MEM static inline lv_color_t lv_color_mix(lv_color_t c1, lv_color_t c2, uint8_t m
 7416              		.loc 4 447 48 view .LVU2687
 7417              	.LBB478:
 448:lvgl/src/lv_draw/../lv_core/../lv_misc/lv_color.h **** {
 449:lvgl/src/lv_draw/../lv_core/../lv_misc/lv_color.h ****     lv_color_t ret;
 7418              		.loc 4 449 5 view .LVU2688
 450:lvgl/src/lv_draw/../lv_core/../lv_misc/lv_color.h **** #if LV_COLOR_DEPTH != 1
 451:lvgl/src/lv_draw/../lv_core/../lv_misc/lv_color.h ****     /*LV_COLOR_DEPTH == 8, 16 or 32*/
 452:lvgl/src/lv_draw/../lv_core/../lv_misc/lv_color.h ****     LV_COLOR_SET_R(ret, LV_MATH_UDIV255((uint16_t) LV_COLOR_GET_R(c1) * mix + LV_COLOR_GET_R(c2) *
 7419              		.loc 4 452 5 view .LVU2689
 7420              		.loc 4 452 5 is_stmt 0 view .LVU2690
 7421 0252 4FEADC21 		lsr	r1, ip, #11
 7422              	.LVL744:
 7423              		.loc 4 452 5 view .LVU2691
 7424 0256 4FEAD02B 		lsr	fp, r0, #11
 7425 025a C3F1FF08 		rsb	r8, r3, #255
 7426              	.LVL745:
 7427              		.loc 4 452 5 view .LVU2692
 7428 025e 08FB0BFB 		mul	fp, r8, fp
 7429 0262 03FB01B1 		mla	r1, r3, r1, fp
 7430 0266 8031     		adds	r1, r1, #128
 7431 0268 01EB012B 		add	fp, r1, r1, lsl #8
 7432 026c 01EBCB11 		add	r1, r1, fp, lsl #7
 7433 0270 C1F3C451 		ubfx	r1, r1, #23, #5
 7434 0274 61F3CF25 		bfi	r5, r1, #11, #5
 453:lvgl/src/lv_draw/../lv_core/../lv_misc/lv_color.h ****                                         (255 - mix) + LV_COLOR_MIX_ROUND_OFS));
 454:lvgl/src/lv_draw/../lv_core/../lv_misc/lv_color.h ****     LV_COLOR_SET_G(ret, LV_MATH_UDIV255((uint16_t) LV_COLOR_GET_G(c1) * mix + LV_COLOR_GET_G(c2) *
 7435              		.loc 4 454 5 is_stmt 1 view .LVU2693
 7436 0278 CCF34511 		ubfx	r1, ip, #5, #6
 7437 027c C0F3451B 		ubfx	fp, r0, #5, #6
 7438 0280 0BFB08FB 		mul	fp, fp, r8
 7439 0284 01FB03B1 		mla	r1, r1, r3, fp
 7440 0288 8031     		adds	r1, r1, #128
 7441 028a 01EB012B 		add	fp, r1, r1, lsl #8
 7442 028e 01EBCB11 		add	r1, r1, fp, lsl #7
 7443 0292 C1F3C551 		ubfx	r1, r1, #23, #6
 7444 0296 61F34A15 		bfi	r5, r1, #5, #6
 455:lvgl/src/lv_draw/../lv_core/../lv_misc/lv_color.h ****                                         (255 - mix) + LV_COLOR_MIX_ROUND_OFS));
 456:lvgl/src/lv_draw/../lv_core/../lv_misc/lv_color.h ****     LV_COLOR_SET_B(ret, LV_MATH_UDIV255((uint16_t) LV_COLOR_GET_B(c1) * mix + LV_COLOR_GET_B(c2) *
 7445              		.loc 4 456 5 view .LVU2694
 7446 029a 0CF01F0C 		and	ip, ip, #31
 7447              	.LVL746:
 7448              		.loc 4 456 5 is_stmt 0 view .LVU2695
 7449 029e 00F01F00 		and	r0, r0, #31
 7450              	.LVL747:
 7451              		.loc 4 456 5 view .LVU2696
 7452 02a2 00FB08F8 		mul	r8, r0, r8
 7453 02a6 0CFB0383 		mla	r3, ip, r3, r8
 7454              	.LVL748:
 7455              		.loc 4 456 5 view .LVU2697
ARM GAS  D:\Temp\ccGEpo4V.s 			page 214


 7456 02aa 8033     		adds	r3, r3, #128
 7457 02ac 03EB0321 		add	r1, r3, r3, lsl #8
 7458 02b0 03EBC113 		add	r3, r3, r1, lsl #7
 7459 02b4 C3F3C453 		ubfx	r3, r3, #23, #5
 7460 02b8 63F30405 		bfi	r5, r3, #0, #5
 457:lvgl/src/lv_draw/../lv_core/../lv_misc/lv_color.h ****                                         (255 - mix) + LV_COLOR_MIX_ROUND_OFS));
 458:lvgl/src/lv_draw/../lv_core/../lv_misc/lv_color.h ****     LV_COLOR_SET_A(ret, 0xFF);
 7461              		.loc 4 458 5 is_stmt 1 view .LVU2698
 7462              		.loc 4 458 5 view .LVU2699
 459:lvgl/src/lv_draw/../lv_core/../lv_misc/lv_color.h **** #else
 460:lvgl/src/lv_draw/../lv_core/../lv_misc/lv_color.h ****     /*LV_COLOR_DEPTH == 1*/
 461:lvgl/src/lv_draw/../lv_core/../lv_misc/lv_color.h ****     ret.full = mix > LV_OPA_50 ? c1.full : c2.full;
 462:lvgl/src/lv_draw/../lv_core/../lv_misc/lv_color.h **** #endif
 463:lvgl/src/lv_draw/../lv_core/../lv_misc/lv_color.h **** 
 464:lvgl/src/lv_draw/../lv_core/../lv_misc/lv_color.h ****     return ret;
 7463              		.loc 4 464 5 view .LVU2700
 7464 02bc 2B46     		mov	r3, r5	@ movhi
 7465              	.LVL749:
 7466              		.loc 4 464 5 is_stmt 0 view .LVU2701
 7467 02be A3E7     		b	.L349
 7468              	.LVL750:
 7469              	.L392:
 7470              		.loc 4 464 5 view .LVU2702
 7471              	.LBE478:
 7472              	.LBE477:
 513:lvgl/src/lv_draw/lv_draw_rect.c **** 
 7473              		.loc 1 513 18 is_stmt 1 view .LVU2703
 513:lvgl/src/lv_draw/lv_draw_rect.c **** 
 7474              		.loc 1 513 28 is_stmt 0 view .LVU2704
 7475 02c0 B388     		ldrh	r3, [r6, #4]
 7476              	.LVL751:
 513:lvgl/src/lv_draw/lv_draw_rect.c **** 
 7477              		.loc 1 513 28 view .LVU2705
 7478 02c2 A1E7     		b	.L349
 7479              	.LVL752:
 7480              	.L390:
 513:lvgl/src/lv_draw/lv_draw_rect.c **** 
 7481              		.loc 1 513 28 view .LVU2706
 7482 02c4 DDF840B0 		ldr	fp, [sp, #64]
 7483 02c8 DDF84480 		ldr	r8, [sp, #68]
 7484 02cc 4FE7     		b	.L346
 7485              	.LVL753:
 7486              	.L401:
 513:lvgl/src/lv_draw/lv_draw_rect.c **** 
 7487              		.loc 1 513 28 view .LVU2707
 7488              	.LBE479:
 7489              	.LBE480:
 7490              	.LBE474:
 7491              	.LBB481:
 279:lvgl/src/lv_draw/lv_draw_rect.c ****                     mask_res = lv_draw_mask_apply(mask_buf, vdb->area.x1 + draw_area.x1, vdb->area.
 7492              		.loc 1 279 21 is_stmt 1 view .LVU2708
 7493 02ce 0B9A     		ldr	r2, [sp, #44]
 7494 02d0 0599     		ldr	r1, [sp, #20]
 7495 02d2 049F     		ldr	r7, [sp, #16]
 7496 02d4 3846     		mov	r0, r7
 7497 02d6 FFF7FEFF 		bl	_lv_memset
 7498              	.LVL754:
ARM GAS  D:\Temp\ccGEpo4V.s 			page 215


 280:lvgl/src/lv_draw/lv_draw_rect.c ****                 }
 7499              		.loc 1 280 21 view .LVU2709
 280:lvgl/src/lv_draw/lv_draw_rect.c ****                 }
 7500              		.loc 1 280 70 is_stmt 0 view .LVU2710
 7501 02da B9F81010 		ldrh	r1, [r9, #16]
 280:lvgl/src/lv_draw/lv_draw_rect.c ****                 }
 7502              		.loc 1 280 85 view .LVU2711
 7503 02de BDF87830 		ldrh	r3, [sp, #120]
 280:lvgl/src/lv_draw/lv_draw_rect.c ****                 }
 7504              		.loc 1 280 74 view .LVU2712
 7505 02e2 1944     		add	r1, r1, r3
 280:lvgl/src/lv_draw/lv_draw_rect.c ****                 }
 7506              		.loc 1 280 99 view .LVU2713
 7507 02e4 B9F81220 		ldrh	r2, [r9, #18]
 280:lvgl/src/lv_draw/lv_draw_rect.c ****                 }
 7508              		.loc 1 280 103 view .LVU2714
 7509 02e8 2A44     		add	r2, r2, r5
 280:lvgl/src/lv_draw/lv_draw_rect.c ****                 }
 7510              		.loc 1 280 32 view .LVU2715
 7511 02ea 0C9B     		ldr	r3, [sp, #48]
 7512 02ec 12B2     		sxth	r2, r2
 7513 02ee 09B2     		sxth	r1, r1
 7514 02f0 3846     		mov	r0, r7
 7515 02f2 FFF7FEFF 		bl	lv_draw_mask_apply
 7516              	.LVL755:
 7517 02f6 0746     		mov	r7, r0
 7518              	.LVL756:
 280:lvgl/src/lv_draw/lv_draw_rect.c ****                 }
 7519              		.loc 1 280 32 view .LVU2716
 7520 02f8 14E0     		b	.L356
 7521              	.LVL757:
 7522              	.L354:
 285:lvgl/src/lv_draw/lv_draw_rect.c ****                 mask_res = lv_draw_mask_apply(mask_buf, vdb->area.x1 + draw_area.x1, vdb->area.y1 +
 7523              		.loc 1 285 17 is_stmt 1 view .LVU2717
 7524 02fa 0B9A     		ldr	r2, [sp, #44]
 7525 02fc 0599     		ldr	r1, [sp, #20]
 7526 02fe 049F     		ldr	r7, [sp, #16]
 7527 0300 3846     		mov	r0, r7
 7528 0302 FFF7FEFF 		bl	_lv_memset
 7529              	.LVL758:
 286:lvgl/src/lv_draw/lv_draw_rect.c ****             }
 7530              		.loc 1 286 17 view .LVU2718
 286:lvgl/src/lv_draw/lv_draw_rect.c ****             }
 7531              		.loc 1 286 66 is_stmt 0 view .LVU2719
 7532 0306 B9F81010 		ldrh	r1, [r9, #16]
 286:lvgl/src/lv_draw/lv_draw_rect.c ****             }
 7533              		.loc 1 286 81 view .LVU2720
 7534 030a BDF87830 		ldrh	r3, [sp, #120]
 286:lvgl/src/lv_draw/lv_draw_rect.c ****             }
 7535              		.loc 1 286 70 view .LVU2721
 7536 030e 1944     		add	r1, r1, r3
 286:lvgl/src/lv_draw/lv_draw_rect.c ****             }
 7537              		.loc 1 286 95 view .LVU2722
 7538 0310 B9F81220 		ldrh	r2, [r9, #18]
 286:lvgl/src/lv_draw/lv_draw_rect.c ****             }
 7539              		.loc 1 286 99 view .LVU2723
 7540 0314 2A44     		add	r2, r2, r5
ARM GAS  D:\Temp\ccGEpo4V.s 			page 216


 286:lvgl/src/lv_draw/lv_draw_rect.c ****             }
 7541              		.loc 1 286 28 view .LVU2724
 7542 0316 0C9B     		ldr	r3, [sp, #48]
 7543 0318 12B2     		sxth	r2, r2
 7544 031a 09B2     		sxth	r1, r1
 7545 031c 3846     		mov	r0, r7
 7546 031e FFF7FEFF 		bl	lv_draw_mask_apply
 7547              	.LVL759:
 7548 0322 0746     		mov	r7, r0
 7549              	.LVL760:
 7550              	.L356:
 290:lvgl/src/lv_draw/lv_draw_rect.c ****                 opa2 = LV_OPA_COVER;
 7551              		.loc 1 290 13 is_stmt 1 view .LVU2725
 290:lvgl/src/lv_draw/lv_draw_rect.c ****                 opa2 = LV_OPA_COVER;
 7552              		.loc 1 290 15 is_stmt 0 view .LVU2726
 7553 0324 022F     		cmp	r7, #2
 7554 0326 5FD0     		beq	.L381
 272:lvgl/src/lv_draw/lv_draw_rect.c **** 
 7555              		.loc 1 272 18 view .LVU2727
 7556 0328 059B     		ldr	r3, [sp, #20]
 7557 032a 0693     		str	r3, [sp, #24]
 7558              	.LVL761:
 7559              	.L355:
 295:lvgl/src/lv_draw/lv_draw_rect.c ****                 grad_color = grad_get(dsc, lv_area_get_height(&coords_bg), y - coords_bg.y1);
 7560              		.loc 1 295 13 is_stmt 1 view .LVU2728
 295:lvgl/src/lv_draw/lv_draw_rect.c ****                 grad_color = grad_get(dsc, lv_area_get_height(&coords_bg), y - coords_bg.y1);
 7561              		.loc 1 295 15 is_stmt 0 view .LVU2729
 7562 032c B8F1010F 		cmp	r8, #1
 7563 0330 5DD0     		beq	.L393
 7564              	.L357:
 301:lvgl/src/lv_draw/lv_draw_rect.c ****                (y < coords_bg.y1 + rout + 1 ||
 7565              		.loc 1 301 13 is_stmt 1 view .LVU2730
 301:lvgl/src/lv_draw/lv_draw_rect.c ****                (y < coords_bg.y1 + rout + 1 ||
 7566              		.loc 1 301 15 is_stmt 0 view .LVU2731
 7567 0332 089B     		ldr	r3, [sp, #32]
 7568 0334 002B     		cmp	r3, #0
 7569 0336 00F0DA80 		beq	.L361
 301:lvgl/src/lv_draw/lv_draw_rect.c ****                (y < coords_bg.y1 + rout + 1 ||
 7570              		.loc 1 301 28 discriminator 1 view .LVU2732
 7571 033a 0A9B     		ldr	r3, [sp, #40]
 7572 033c 002B     		cmp	r3, #0
 7573 033e 00F0D680 		beq	.L361
 302:lvgl/src/lv_draw/lv_draw_rect.c ****                 y > coords_bg.y2 - rout - 1)) {
 7574              		.loc 1 302 30 discriminator 2 view .LVU2733
 7575 0342 BDF98230 		ldrsh	r3, [sp, #130]
 302:lvgl/src/lv_draw/lv_draw_rect.c ****                 y > coords_bg.y2 - rout - 1)) {
 7576              		.loc 1 302 34 discriminator 2 view .LVU2734
 7577 0346 5B44     		add	r3, r3, fp
 301:lvgl/src/lv_draw/lv_draw_rect.c ****                (y < coords_bg.y1 + rout + 1 ||
 7578              		.loc 1 301 37 discriminator 2 view .LVU2735
 7579 0348 A342     		cmp	r3, r4
 7580 034a 06DA     		bge	.L362
 303:lvgl/src/lv_draw/lv_draw_rect.c **** 
 7581              		.loc 1 303 30 view .LVU2736
 7582 034c BDF98630 		ldrsh	r3, [sp, #134]
 303:lvgl/src/lv_draw/lv_draw_rect.c **** 
 7583              		.loc 1 303 34 view .LVU2737
ARM GAS  D:\Temp\ccGEpo4V.s 			page 217


 7584 0350 A3EB0B03 		sub	r3, r3, fp
 302:lvgl/src/lv_draw/lv_draw_rect.c ****                 y > coords_bg.y2 - rout - 1)) {
 7585              		.loc 1 302 45 view .LVU2738
 7586 0354 A342     		cmp	r3, r4
 7587 0356 00F3CA80 		bgt	.L361
 7588              	.L362:
 7589              	.LBB482:
 306:lvgl/src/lv_draw/lv_draw_rect.c ****                 fill_area2.x1 = coords_bg.x1;
 7590              		.loc 1 306 17 is_stmt 1 view .LVU2739
 307:lvgl/src/lv_draw/lv_draw_rect.c ****                 fill_area2.x2 = coords_bg.x1 + rout - 1;
 7591              		.loc 1 307 17 view .LVU2740
 307:lvgl/src/lv_draw/lv_draw_rect.c ****                 fill_area2.x2 = coords_bg.x1 + rout - 1;
 7592              		.loc 1 307 42 is_stmt 0 view .LVU2741
 7593 035a BDF98030 		ldrsh	r3, [sp, #128]
 307:lvgl/src/lv_draw/lv_draw_rect.c ****                 fill_area2.x2 = coords_bg.x1 + rout - 1;
 7594              		.loc 1 307 31 view .LVU2742
 7595 035e ADF85430 		strh	r3, [sp, #84]	@ movhi
 308:lvgl/src/lv_draw/lv_draw_rect.c ****                 fill_area2.y1 = fill_area.y1;
 7596              		.loc 1 308 17 is_stmt 1 view .LVU2743
 308:lvgl/src/lv_draw/lv_draw_rect.c ****                 fill_area2.y1 = fill_area.y1;
 7597              		.loc 1 308 46 is_stmt 0 view .LVU2744
 7598 0362 1FFA8BF4 		uxth	r4, fp
 7599              	.LVL762:
 308:lvgl/src/lv_draw/lv_draw_rect.c ****                 fill_area2.y1 = fill_area.y1;
 7600              		.loc 1 308 46 view .LVU2745
 7601 0366 14FA83F3 		uxtah	r3, r4, r3
 7602 036a 9BB2     		uxth	r3, r3
 308:lvgl/src/lv_draw/lv_draw_rect.c ****                 fill_area2.y1 = fill_area.y1;
 7603              		.loc 1 308 53 view .LVU2746
 7604 036c 013B     		subs	r3, r3, #1
 308:lvgl/src/lv_draw/lv_draw_rect.c ****                 fill_area2.y1 = fill_area.y1;
 7605              		.loc 1 308 31 view .LVU2747
 7606 036e ADF85830 		strh	r3, [sp, #88]	@ movhi
 309:lvgl/src/lv_draw/lv_draw_rect.c ****                 fill_area2.y2 = fill_area.y2;
 7607              		.loc 1 309 17 is_stmt 1 view .LVU2748
 309:lvgl/src/lv_draw/lv_draw_rect.c ****                 fill_area2.y2 = fill_area.y2;
 7608              		.loc 1 309 42 is_stmt 0 view .LVU2749
 7609 0372 BDF94E30 		ldrsh	r3, [sp, #78]
 309:lvgl/src/lv_draw/lv_draw_rect.c ****                 fill_area2.y2 = fill_area.y2;
 7610              		.loc 1 309 31 view .LVU2750
 7611 0376 ADF85630 		strh	r3, [sp, #86]	@ movhi
 310:lvgl/src/lv_draw/lv_draw_rect.c **** 
 7612              		.loc 1 310 17 is_stmt 1 view .LVU2751
 310:lvgl/src/lv_draw/lv_draw_rect.c **** 
 7613              		.loc 1 310 42 is_stmt 0 view .LVU2752
 7614 037a BDF95230 		ldrsh	r3, [sp, #82]
 310:lvgl/src/lv_draw/lv_draw_rect.c **** 
 7615              		.loc 1 310 31 view .LVU2753
 7616 037e ADF85A30 		strh	r3, [sp, #90]	@ movhi
 312:lvgl/src/lv_draw/lv_draw_rect.c ****                                grad_color, mask_buf, mask_res, opa2, dsc->bg_blend_mode);
 7617              		.loc 1 312 17 is_stmt 1 view .LVU2754
 7618 0382 737B     		ldrb	r3, [r6, #13]	@ zero_extendqisi2
 7619 0384 0293     		str	r3, [sp, #8]
 7620 0386 069B     		ldr	r3, [sp, #24]
 7621 0388 0193     		str	r3, [sp, #4]
 7622 038a 0097     		str	r7, [sp]
 7623 038c 049B     		ldr	r3, [sp, #16]
ARM GAS  D:\Temp\ccGEpo4V.s 			page 218


 7624 038e BDF82420 		ldrh	r2, [sp, #36]
 7625 0392 15A9     		add	r1, sp, #84
 7626 0394 0798     		ldr	r0, [sp, #28]
 7627 0396 FFF7FEFF 		bl	_lv_blend_fill
 7628              	.LVL763:
 316:lvgl/src/lv_draw/lv_draw_rect.c ****                     fill_area2.x1 = coords_bg.x1 + rout;
 7629              		.loc 1 316 17 view .LVU2755
 316:lvgl/src/lv_draw/lv_draw_rect.c ****                     fill_area2.x1 = coords_bg.x1 + rout;
 7630              		.loc 1 316 19 is_stmt 0 view .LVU2756
 7631 039a B8F1010F 		cmp	r8, #1
 7632 039e 00F08C80 		beq	.L394
 7633              	.L363:
 324:lvgl/src/lv_draw/lv_draw_rect.c ****                 fill_area2.x2 = coords_bg.x2;
 7634              		.loc 1 324 17 is_stmt 1 view .LVU2757
 324:lvgl/src/lv_draw/lv_draw_rect.c ****                 fill_area2.x2 = coords_bg.x2;
 7635              		.loc 1 324 42 is_stmt 0 view .LVU2758
 7636 03a2 BDF98430 		ldrsh	r3, [sp, #132]
 7637 03a6 9AB2     		uxth	r2, r3
 324:lvgl/src/lv_draw/lv_draw_rect.c ****                 fill_area2.x2 = coords_bg.x2;
 7638              		.loc 1 324 46 view .LVU2759
 7639 03a8 141B     		subs	r4, r2, r4
 7640 03aa A4B2     		uxth	r4, r4
 324:lvgl/src/lv_draw/lv_draw_rect.c ****                 fill_area2.x2 = coords_bg.x2;
 7641              		.loc 1 324 53 view .LVU2760
 7642 03ac 0134     		adds	r4, r4, #1
 324:lvgl/src/lv_draw/lv_draw_rect.c ****                 fill_area2.x2 = coords_bg.x2;
 7643              		.loc 1 324 31 view .LVU2761
 7644 03ae ADF85440 		strh	r4, [sp, #84]	@ movhi
 325:lvgl/src/lv_draw/lv_draw_rect.c **** 
 7645              		.loc 1 325 17 is_stmt 1 view .LVU2762
 325:lvgl/src/lv_draw/lv_draw_rect.c **** 
 7646              		.loc 1 325 31 is_stmt 0 view .LVU2763
 7647 03b2 ADF85830 		strh	r3, [sp, #88]	@ movhi
 327:lvgl/src/lv_draw/lv_draw_rect.c ****                 if(mask_ofs < 0) mask_ofs = 0;
 7648              		.loc 1 327 17 is_stmt 1 view .LVU2764
 327:lvgl/src/lv_draw/lv_draw_rect.c ****                 if(mask_ofs < 0) mask_ofs = 0;
 7649              		.loc 1 327 50 is_stmt 0 view .LVU2765
 7650 03b6 A3EB0B03 		sub	r3, r3, fp
 327:lvgl/src/lv_draw/lv_draw_rect.c ****                 if(mask_ofs < 0) mask_ofs = 0;
 7651              		.loc 1 327 57 view .LVU2766
 7652 03ba 0133     		adds	r3, r3, #1
 327:lvgl/src/lv_draw/lv_draw_rect.c ****                 if(mask_ofs < 0) mask_ofs = 0;
 7653              		.loc 1 327 74 view .LVU2767
 7654 03bc B9F91020 		ldrsh	r2, [r9, #16]
 327:lvgl/src/lv_draw/lv_draw_rect.c ****                 if(mask_ofs < 0) mask_ofs = 0;
 7655              		.loc 1 327 89 view .LVU2768
 7656 03c0 BDF97810 		ldrsh	r1, [sp, #120]
 327:lvgl/src/lv_draw/lv_draw_rect.c ****                 if(mask_ofs < 0) mask_ofs = 0;
 7657              		.loc 1 327 78 view .LVU2769
 7658 03c4 0A44     		add	r2, r2, r1
 7659              	.LVL764:
 328:lvgl/src/lv_draw/lv_draw_rect.c ****                 _lv_blend_fill(clip, &fill_area2,
 7660              		.loc 1 328 17 is_stmt 1 view .LVU2770
 328:lvgl/src/lv_draw/lv_draw_rect.c ****                 _lv_blend_fill(clip, &fill_area2,
 7661              		.loc 1 328 19 is_stmt 0 view .LVU2771
 7662 03c6 9B1A     		subs	r3, r3, r2
 7663              	.LVL765:
ARM GAS  D:\Temp\ccGEpo4V.s 			page 219


 328:lvgl/src/lv_draw/lv_draw_rect.c ****                 _lv_blend_fill(clip, &fill_area2,
 7664              		.loc 1 328 19 view .LVU2772
 7665 03c8 00F18F80 		bmi	.L395
 7666              	.LVL766:
 7667              	.L364:
 329:lvgl/src/lv_draw/lv_draw_rect.c ****                                grad_color, mask_buf + mask_ofs, mask_res, opa2, dsc->bg_blend_mode)
 7668              		.loc 1 329 17 is_stmt 1 view .LVU2773
 7669 03cc 727B     		ldrb	r2, [r6, #13]	@ zero_extendqisi2
 7670 03ce 0292     		str	r2, [sp, #8]
 7671 03d0 069A     		ldr	r2, [sp, #24]
 7672 03d2 0192     		str	r2, [sp, #4]
 7673 03d4 0097     		str	r7, [sp]
 7674 03d6 049A     		ldr	r2, [sp, #16]
 7675 03d8 1344     		add	r3, r3, r2
 7676              	.LVL767:
 329:lvgl/src/lv_draw/lv_draw_rect.c ****                                grad_color, mask_buf + mask_ofs, mask_res, opa2, dsc->bg_blend_mode)
 7677              		.loc 1 329 17 is_stmt 0 view .LVU2774
 7678 03da BDF82420 		ldrh	r2, [sp, #36]
 7679 03de 15A9     		add	r1, sp, #84
 7680 03e0 0798     		ldr	r0, [sp, #28]
 7681 03e2 FFF7FEFF 		bl	_lv_blend_fill
 7682              	.LVL768:
 7683              	.LBE482:
 303:lvgl/src/lv_draw/lv_draw_rect.c **** 
 7684              		.loc 1 303 47 view .LVU2775
 7685 03e6 98E0     		b	.L365
 7686              	.LVL769:
 7687              	.L381:
 291:lvgl/src/lv_draw/lv_draw_rect.c ****             }
 7688              		.loc 1 291 22 view .LVU2776
 7689 03e8 FF23     		movs	r3, #255
 7690 03ea 0693     		str	r3, [sp, #24]
 7691 03ec 9EE7     		b	.L355
 7692              	.LVL770:
 7693              	.L393:
 296:lvgl/src/lv_draw/lv_draw_rect.c ****             }
 7694              		.loc 1 296 17 is_stmt 1 view .LVU2777
 7695              	.LBB483:
 7696              	.LBI483:
 117:lvgl/src/lv_draw/../lv_core/../lv_font/../lv_misc/lv_area.h **** {
 7697              		.loc 2 117 26 view .LVU2778
 7698              	.LBB484:
 7699              		.loc 2 119 5 view .LVU2779
 7700              		.loc 2 119 31 is_stmt 0 view .LVU2780
 7701 03ee BDF88620 		ldrh	r2, [sp, #134]
 7702              		.loc 2 119 44 view .LVU2781
 7703 03f2 BDF88230 		ldrh	r3, [sp, #130]
 7704              		.loc 2 119 36 view .LVU2782
 7705 03f6 D21A     		subs	r2, r2, r3
 7706 03f8 92B2     		uxth	r2, r2
 7707              		.loc 2 119 49 view .LVU2783
 7708 03fa 0132     		adds	r2, r2, #1
 7709              		.loc 2 119 12 view .LVU2784
 7710 03fc 12B2     		sxth	r2, r2
 7711              	.LVL771:
 7712              		.loc 2 119 12 view .LVU2785
 7713              	.LBE484:
ARM GAS  D:\Temp\ccGEpo4V.s 			page 220


 7714              	.LBE483:
 296:lvgl/src/lv_draw/lv_draw_rect.c ****             }
 7715              		.loc 1 296 78 view .LVU2786
 7716 03fe E31A     		subs	r3, r4, r3
 7717 0400 9BB2     		uxth	r3, r3
 296:lvgl/src/lv_draw/lv_draw_rect.c ****             }
 7718              		.loc 1 296 30 view .LVU2787
 7719 0402 0FFA83FC 		sxth	ip, r3
 7720              	.LVL772:
 7721              	.LBB485:
 7722              	.LBI485:
 507:lvgl/src/lv_draw/lv_draw_rect.c **** {
 7723              		.loc 1 507 48 is_stmt 1 view .LVU2788
 7724              	.LBB486:
 509:lvgl/src/lv_draw/lv_draw_rect.c ****     if(i <= min) return dsc->bg_color;
 7725              		.loc 1 509 5 view .LVU2789
 509:lvgl/src/lv_draw/lv_draw_rect.c ****     if(i <= min) return dsc->bg_color;
 7726              		.loc 1 509 23 is_stmt 0 view .LVU2790
 7727 0406 B6F908E0 		ldrsh	lr, [r6, #8]
 509:lvgl/src/lv_draw/lv_draw_rect.c ****     if(i <= min) return dsc->bg_color;
 7728              		.loc 1 509 44 view .LVU2791
 7729 040a 02FB0EF1 		mul	r1, r2, lr
 509:lvgl/src/lv_draw/lv_draw_rect.c ****     if(i <= min) return dsc->bg_color;
 7730              		.loc 1 509 13 view .LVU2792
 7731 040e 0912     		asrs	r1, r1, #8
 7732              	.LVL773:
 510:lvgl/src/lv_draw/lv_draw_rect.c **** 
 7733              		.loc 1 510 5 is_stmt 1 view .LVU2793
 510:lvgl/src/lv_draw/lv_draw_rect.c **** 
 7734              		.loc 1 510 7 is_stmt 0 view .LVU2794
 7735 0410 6145     		cmp	r1, ip
 7736 0412 4EDA     		bge	.L396
 512:lvgl/src/lv_draw/lv_draw_rect.c ****     if(i >= max) return dsc->bg_grad_color;
 7737              		.loc 1 512 5 is_stmt 1 view .LVU2795
 512:lvgl/src/lv_draw/lv_draw_rect.c ****     if(i >= max) return dsc->bg_grad_color;
 7738              		.loc 1 512 23 is_stmt 0 view .LVU2796
 7739 0414 B6F90A00 		ldrsh	r0, [r6, #10]
 7740 0418 0990     		str	r0, [sp, #36]
 512:lvgl/src/lv_draw/lv_draw_rect.c ****     if(i >= max) return dsc->bg_grad_color;
 7741              		.loc 1 512 44 view .LVU2797
 7742 041a 00FB02F0 		mul	r0, r0, r2
 7743              	.LVL774:
 513:lvgl/src/lv_draw/lv_draw_rect.c **** 
 7744              		.loc 1 513 5 is_stmt 1 view .LVU2798
 513:lvgl/src/lv_draw/lv_draw_rect.c **** 
 7745              		.loc 1 513 7 is_stmt 0 view .LVU2799
 7746 041e BCEB202F 		cmp	ip, r0, asr #8
 7747 0422 48DA     		bge	.L397
 515:lvgl/src/lv_draw/lv_draw_rect.c ****     d = (s * d) >> 8;
 7748              		.loc 1 515 5 is_stmt 1 view .LVU2800
 515:lvgl/src/lv_draw/lv_draw_rect.c ****     d = (s * d) >> 8;
 7749              		.loc 1 515 13 is_stmt 0 view .LVU2801
 7750 0424 0998     		ldr	r0, [sp, #36]
 7751              	.LVL775:
 515:lvgl/src/lv_draw/lv_draw_rect.c ****     d = (s * d) >> 8;
 7752              		.loc 1 515 13 view .LVU2802
 7753 0426 A0EB0E00 		sub	r0, r0, lr
ARM GAS  D:\Temp\ccGEpo4V.s 			page 221


 7754              	.LVL776:
 516:lvgl/src/lv_draw/lv_draw_rect.c ****     i -= min;
 7755              		.loc 1 516 5 is_stmt 1 view .LVU2803
 516:lvgl/src/lv_draw/lv_draw_rect.c ****     i -= min;
 7756              		.loc 1 516 12 is_stmt 0 view .LVU2804
 7757 042a 00FB02F2 		mul	r2, r0, r2
 7758              	.LVL777:
 516:lvgl/src/lv_draw/lv_draw_rect.c ****     i -= min;
 7759              		.loc 1 516 7 view .LVU2805
 7760 042e 1212     		asrs	r2, r2, #8
 7761              	.LVL778:
 517:lvgl/src/lv_draw/lv_draw_rect.c ****     lv_opa_t mix = (i * 255) / d;
 7762              		.loc 1 517 5 is_stmt 1 view .LVU2806
 517:lvgl/src/lv_draw/lv_draw_rect.c ****     lv_opa_t mix = (i * 255) / d;
 7763              		.loc 1 517 7 is_stmt 0 view .LVU2807
 7764 0430 5B1A     		subs	r3, r3, r1
 7765 0432 1BB2     		sxth	r3, r3
 7766              	.LVL779:
 518:lvgl/src/lv_draw/lv_draw_rect.c ****     return lv_color_mix(dsc->bg_grad_color, dsc->bg_color, mix);
 7767              		.loc 1 518 5 is_stmt 1 view .LVU2808
 518:lvgl/src/lv_draw/lv_draw_rect.c ****     return lv_color_mix(dsc->bg_grad_color, dsc->bg_color, mix);
 7768              		.loc 1 518 23 is_stmt 0 view .LVU2809
 7769 0434 C3EB0323 		rsb	r3, r3, r3, lsl #8
 7770              	.LVL780:
 518:lvgl/src/lv_draw/lv_draw_rect.c ****     return lv_color_mix(dsc->bg_grad_color, dsc->bg_color, mix);
 7771              		.loc 1 518 30 view .LVU2810
 7772 0438 93FBF2F3 		sdiv	r3, r3, r2
 518:lvgl/src/lv_draw/lv_draw_rect.c ****     return lv_color_mix(dsc->bg_grad_color, dsc->bg_color, mix);
 7773              		.loc 1 518 14 view .LVU2811
 7774 043c DBB2     		uxtb	r3, r3
 7775              	.LVL781:
 519:lvgl/src/lv_draw/lv_draw_rect.c **** }
 7776              		.loc 1 519 5 is_stmt 1 view .LVU2812
 7777 043e B088     		ldrh	r0, [r6, #4]
 7778 0440 7188     		ldrh	r1, [r6, #2]
 7779              	.LVL782:
 7780              	.LBB487:
 7781              	.LBI487:
 447:lvgl/src/lv_draw/../lv_core/../lv_misc/lv_color.h **** {
 7782              		.loc 4 447 48 view .LVU2813
 7783              	.LBB488:
 449:lvgl/src/lv_draw/../lv_core/../lv_misc/lv_color.h **** #if LV_COLOR_DEPTH != 1
 7784              		.loc 4 449 5 view .LVU2814
 452:lvgl/src/lv_draw/../lv_core/../lv_misc/lv_color.h ****                                         (255 - mix) + LV_COLOR_MIX_ROUND_OFS));
 7785              		.loc 4 452 5 view .LVU2815
 452:lvgl/src/lv_draw/../lv_core/../lv_misc/lv_color.h ****                                         (255 - mix) + LV_COLOR_MIX_ROUND_OFS));
 7786              		.loc 4 452 5 is_stmt 0 view .LVU2816
 7787 0442 C20A     		lsrs	r2, r0, #11
 7788              	.LVL783:
 452:lvgl/src/lv_draw/../lv_core/../lv_misc/lv_color.h ****                                         (255 - mix) + LV_COLOR_MIX_ROUND_OFS));
 7789              		.loc 4 452 5 view .LVU2817
 7790 0444 4FEAD12E 		lsr	lr, r1, #11
 7791              	.LVL784:
 452:lvgl/src/lv_draw/../lv_core/../lv_misc/lv_color.h ****                                         (255 - mix) + LV_COLOR_MIX_ROUND_OFS));
 7792              		.loc 4 452 5 view .LVU2818
 7793 0448 C3F1FF0C 		rsb	ip, r3, #255
 7794 044c 0CFB0EFE 		mul	lr, ip, lr
ARM GAS  D:\Temp\ccGEpo4V.s 			page 222


 7795 0450 03FB02E2 		mla	r2, r3, r2, lr
 7796 0454 8032     		adds	r2, r2, #128
 7797 0456 02EB022E 		add	lr, r2, r2, lsl #8
 7798 045a 02EBCE12 		add	r2, r2, lr, lsl #7
 7799 045e C2F3C452 		ubfx	r2, r2, #23, #5
 7800 0462 62F3CF2A 		bfi	r10, r2, #11, #5
 454:lvgl/src/lv_draw/../lv_core/../lv_misc/lv_color.h ****                                         (255 - mix) + LV_COLOR_MIX_ROUND_OFS));
 7801              		.loc 4 454 5 is_stmt 1 view .LVU2819
 7802 0466 C0F34512 		ubfx	r2, r0, #5, #6
 7803 046a C1F3451E 		ubfx	lr, r1, #5, #6
 7804 046e 0EFB0CFE 		mul	lr, lr, ip
 7805 0472 02FB03E2 		mla	r2, r2, r3, lr
 7806 0476 8032     		adds	r2, r2, #128
 7807 0478 02EB022E 		add	lr, r2, r2, lsl #8
 7808 047c 02EBCE12 		add	r2, r2, lr, lsl #7
 7809 0480 C2F3C552 		ubfx	r2, r2, #23, #6
 7810 0484 62F34A1A 		bfi	r10, r2, #5, #6
 456:lvgl/src/lv_draw/../lv_core/../lv_misc/lv_color.h ****                                         (255 - mix) + LV_COLOR_MIX_ROUND_OFS));
 7811              		.loc 4 456 5 view .LVU2820
 7812 0488 00F01F00 		and	r0, r0, #31
 7813              	.LVL785:
 456:lvgl/src/lv_draw/../lv_core/../lv_misc/lv_color.h ****                                         (255 - mix) + LV_COLOR_MIX_ROUND_OFS));
 7814              		.loc 4 456 5 is_stmt 0 view .LVU2821
 7815 048c 01F01F01 		and	r1, r1, #31
 7816              	.LVL786:
 456:lvgl/src/lv_draw/../lv_core/../lv_misc/lv_color.h ****                                         (255 - mix) + LV_COLOR_MIX_ROUND_OFS));
 7817              		.loc 4 456 5 view .LVU2822
 7818 0490 01FB0CFC 		mul	ip, r1, ip
 7819 0494 00FB03C3 		mla	r3, r0, r3, ip
 7820              	.LVL787:
 456:lvgl/src/lv_draw/../lv_core/../lv_misc/lv_color.h ****                                         (255 - mix) + LV_COLOR_MIX_ROUND_OFS));
 7821              		.loc 4 456 5 view .LVU2823
 7822 0498 8033     		adds	r3, r3, #128
 7823 049a 03EB0322 		add	r2, r3, r3, lsl #8
 7824 049e 03EBC213 		add	r3, r3, r2, lsl #7
 7825 04a2 C3F3C453 		ubfx	r3, r3, #23, #5
 7826 04a6 63F3040A 		bfi	r10, r3, #0, #5
 458:lvgl/src/lv_draw/../lv_core/../lv_misc/lv_color.h **** #else
 7827              		.loc 4 458 5 is_stmt 1 view .LVU2824
 458:lvgl/src/lv_draw/../lv_core/../lv_misc/lv_color.h **** #else
 7828              		.loc 4 458 5 view .LVU2825
 7829              		.loc 4 464 5 view .LVU2826
 7830 04aa 5346     		mov	r3, r10	@ movhi
 7831              	.LVL788:
 7832              	.L359:
 7833              		.loc 4 464 5 is_stmt 0 view .LVU2827
 7834 04ac ADF82430 		strh	r3, [sp, #36]	@ movhi
 7835 04b0 3FE7     		b	.L357
 7836              	.LVL789:
 7837              	.L396:
 7838              		.loc 4 464 5 view .LVU2828
 7839              	.LBE488:
 7840              	.LBE487:
 510:lvgl/src/lv_draw/lv_draw_rect.c **** 
 7841              		.loc 1 510 18 is_stmt 1 view .LVU2829
 510:lvgl/src/lv_draw/lv_draw_rect.c **** 
 7842              		.loc 1 510 28 is_stmt 0 view .LVU2830
ARM GAS  D:\Temp\ccGEpo4V.s 			page 223


 7843 04b2 7388     		ldrh	r3, [r6, #2]
 7844 04b4 FAE7     		b	.L359
 7845              	.LVL790:
 7846              	.L397:
 513:lvgl/src/lv_draw/lv_draw_rect.c **** 
 7847              		.loc 1 513 18 is_stmt 1 view .LVU2831
 513:lvgl/src/lv_draw/lv_draw_rect.c **** 
 7848              		.loc 1 513 28 is_stmt 0 view .LVU2832
 7849 04b6 B388     		ldrh	r3, [r6, #4]
 7850 04b8 F8E7     		b	.L359
 7851              	.LVL791:
 7852              	.L394:
 513:lvgl/src/lv_draw/lv_draw_rect.c **** 
 7853              		.loc 1 513 28 view .LVU2833
 7854              	.LBE486:
 7855              	.LBE485:
 7856              	.LBB489:
 317:lvgl/src/lv_draw/lv_draw_rect.c ****                     fill_area2.x2 = coords_bg.x2 - rout;
 7857              		.loc 1 317 21 is_stmt 1 view .LVU2834
 317:lvgl/src/lv_draw/lv_draw_rect.c ****                     fill_area2.x2 = coords_bg.x2 - rout;
 7858              		.loc 1 317 46 is_stmt 0 view .LVU2835
 7859 04ba BDF88030 		ldrh	r3, [sp, #128]
 317:lvgl/src/lv_draw/lv_draw_rect.c ****                     fill_area2.x2 = coords_bg.x2 - rout;
 7860              		.loc 1 317 50 view .LVU2836
 7861 04be 2344     		add	r3, r3, r4
 317:lvgl/src/lv_draw/lv_draw_rect.c ****                     fill_area2.x2 = coords_bg.x2 - rout;
 7862              		.loc 1 317 35 view .LVU2837
 7863 04c0 ADF85430 		strh	r3, [sp, #84]	@ movhi
 318:lvgl/src/lv_draw/lv_draw_rect.c ****                     _lv_blend_fill(clip, &fill_area2,
 7864              		.loc 1 318 21 is_stmt 1 view .LVU2838
 318:lvgl/src/lv_draw/lv_draw_rect.c ****                     _lv_blend_fill(clip, &fill_area2,
 7865              		.loc 1 318 46 is_stmt 0 view .LVU2839
 7866 04c4 BDF88430 		ldrh	r3, [sp, #132]
 318:lvgl/src/lv_draw/lv_draw_rect.c ****                     _lv_blend_fill(clip, &fill_area2,
 7867              		.loc 1 318 50 view .LVU2840
 7868 04c8 1B1B     		subs	r3, r3, r4
 318:lvgl/src/lv_draw/lv_draw_rect.c ****                     _lv_blend_fill(clip, &fill_area2,
 7869              		.loc 1 318 35 view .LVU2841
 7870 04ca ADF85830 		strh	r3, [sp, #88]	@ movhi
 319:lvgl/src/lv_draw/lv_draw_rect.c ****                                    grad_color, NULL, LV_DRAW_MASK_RES_FULL_COVER, opa, dsc->bg_blen
 7871              		.loc 1 319 21 is_stmt 1 view .LVU2842
 7872 04ce 737B     		ldrb	r3, [r6, #13]	@ zero_extendqisi2
 7873 04d0 0293     		str	r3, [sp, #8]
 7874 04d2 059B     		ldr	r3, [sp, #20]
 7875 04d4 0193     		str	r3, [sp, #4]
 7876 04d6 0123     		movs	r3, #1
 7877 04d8 0093     		str	r3, [sp]
 7878 04da 0023     		movs	r3, #0
 7879 04dc BDF82420 		ldrh	r2, [sp, #36]
 7880 04e0 15A9     		add	r1, sp, #84
 7881 04e2 0798     		ldr	r0, [sp, #28]
 7882 04e4 FFF7FEFF 		bl	_lv_blend_fill
 7883              	.LVL792:
 7884 04e8 5BE7     		b	.L363
 7885              	.LVL793:
 7886              	.L395:
 328:lvgl/src/lv_draw/lv_draw_rect.c ****                 _lv_blend_fill(clip, &fill_area2,
ARM GAS  D:\Temp\ccGEpo4V.s 			page 224


 7887              		.loc 1 328 43 is_stmt 0 view .LVU2843
 7888 04ea 0023     		movs	r3, #0
 7889              	.LVL794:
 328:lvgl/src/lv_draw/lv_draw_rect.c ****                 _lv_blend_fill(clip, &fill_area2,
 7890              		.loc 1 328 43 view .LVU2844
 7891 04ec 6EE7     		b	.L364
 7892              	.LVL795:
 7893              	.L361:
 328:lvgl/src/lv_draw/lv_draw_rect.c ****                 _lv_blend_fill(clip, &fill_area2,
 7894              		.loc 1 328 43 view .LVU2845
 7895              	.LBE489:
 334:lvgl/src/lv_draw/lv_draw_rect.c ****                     _lv_blend_map(clip, &fill_area, grad_map, mask_buf, mask_res, opa2, dsc->bg_ble
 7896              		.loc 1 334 17 is_stmt 1 view .LVU2846
 334:lvgl/src/lv_draw/lv_draw_rect.c ****                     _lv_blend_map(clip, &fill_area, grad_map, mask_buf, mask_res, opa2, dsc->bg_ble
 7897              		.loc 1 334 19 is_stmt 0 view .LVU2847
 7898 04ee B8F1020F 		cmp	r8, #2
 7899 04f2 3BD0     		beq	.L398
 337:lvgl/src/lv_draw/lv_draw_rect.c ****                     _lv_blend_fill(clip, &fill_area,
 7900              		.loc 1 337 22 is_stmt 1 view .LVU2848
 337:lvgl/src/lv_draw/lv_draw_rect.c ****                     _lv_blend_fill(clip, &fill_area,
 7901              		.loc 1 337 24 is_stmt 0 view .LVU2849
 7902 04f4 B8F1010F 		cmp	r8, #1
 7903 04f8 44D0     		beq	.L399
 341:lvgl/src/lv_draw/lv_draw_rect.c ****                     _lv_blend_fill(clip, &fill_area,
 7904              		.loc 1 341 22 is_stmt 1 view .LVU2850
 341:lvgl/src/lv_draw/lv_draw_rect.c ****                     _lv_blend_fill(clip, &fill_area,
 7905              		.loc 1 341 24 is_stmt 0 view .LVU2851
 7906 04fa 0D9B     		ldr	r3, [sp, #52]
 7907 04fc 0BB9     		cbnz	r3, .L368
 341:lvgl/src/lv_draw/lv_draw_rect.c ****                     _lv_blend_fill(clip, &fill_area,
 7908              		.loc 1 341 45 discriminator 1 view .LVU2852
 7909 04fe 0A9B     		ldr	r3, [sp, #40]
 7910 0500 5BB9     		cbnz	r3, .L365
 7911              	.L368:
 342:lvgl/src/lv_draw/lv_draw_rect.c ****                                    grad_color, mask_buf, mask_res, opa2, dsc->bg_blend_mode);
 7912              		.loc 1 342 21 is_stmt 1 view .LVU2853
 7913 0502 737B     		ldrb	r3, [r6, #13]	@ zero_extendqisi2
 7914 0504 0293     		str	r3, [sp, #8]
 7915 0506 069B     		ldr	r3, [sp, #24]
 7916 0508 0193     		str	r3, [sp, #4]
 7917 050a 0097     		str	r7, [sp]
 7918 050c 049B     		ldr	r3, [sp, #16]
 7919 050e BDF82420 		ldrh	r2, [sp, #36]
 7920 0512 13A9     		add	r1, sp, #76
 7921 0514 0798     		ldr	r0, [sp, #28]
 7922 0516 FFF7FEFF 		bl	_lv_blend_fill
 7923              	.LVL796:
 7924              	.L365:
 346:lvgl/src/lv_draw/lv_draw_rect.c ****             fill_area.y2++;
 7925              		.loc 1 346 13 discriminator 2 view .LVU2854
 346:lvgl/src/lv_draw/lv_draw_rect.c ****             fill_area.y2++;
 7926              		.loc 1 346 22 is_stmt 0 discriminator 2 view .LVU2855
 7927 051a BDF94E30 		ldrsh	r3, [sp, #78]
 346:lvgl/src/lv_draw/lv_draw_rect.c ****             fill_area.y2++;
 7928              		.loc 1 346 25 discriminator 2 view .LVU2856
 7929 051e 0133     		adds	r3, r3, #1
 7930 0520 ADF84E30 		strh	r3, [sp, #78]	@ movhi
ARM GAS  D:\Temp\ccGEpo4V.s 			page 225


 347:lvgl/src/lv_draw/lv_draw_rect.c ****         }
 7931              		.loc 1 347 13 is_stmt 1 discriminator 2 view .LVU2857
 347:lvgl/src/lv_draw/lv_draw_rect.c ****         }
 7932              		.loc 1 347 22 is_stmt 0 discriminator 2 view .LVU2858
 7933 0524 BDF95230 		ldrsh	r3, [sp, #82]
 347:lvgl/src/lv_draw/lv_draw_rect.c ****         }
 7934              		.loc 1 347 25 discriminator 2 view .LVU2859
 7935 0528 0133     		adds	r3, r3, #1
 7936 052a ADF85230 		strh	r3, [sp, #82]	@ movhi
 7937              	.LBE481:
 269:lvgl/src/lv_draw/lv_draw_rect.c ****             int32_t y = h + vdb->area.y1;
 7938              		.loc 1 269 51 discriminator 2 view .LVU2860
 7939 052e 0135     		adds	r5, r5, #1
 7940              	.LVL797:
 7941              	.L353:
 269:lvgl/src/lv_draw/lv_draw_rect.c ****             int32_t y = h + vdb->area.y1;
 7942              		.loc 1 269 45 discriminator 1 view .LVU2861
 7943 0530 BDF97E30 		ldrsh	r3, [sp, #126]
 269:lvgl/src/lv_draw/lv_draw_rect.c ****             int32_t y = h + vdb->area.y1;
 7944              		.loc 1 269 9 discriminator 1 view .LVU2862
 7945 0534 AB42     		cmp	r3, r5
 7946 0536 32DB     		blt	.L400
 7947              	.LBB490:
 270:lvgl/src/lv_draw/lv_draw_rect.c **** 
 7948              		.loc 1 270 13 is_stmt 1 view .LVU2863
 270:lvgl/src/lv_draw/lv_draw_rect.c **** 
 7949              		.loc 1 270 38 is_stmt 0 view .LVU2864
 7950 0538 B9F91240 		ldrsh	r4, [r9, #18]
 270:lvgl/src/lv_draw/lv_draw_rect.c **** 
 7951              		.loc 1 270 21 view .LVU2865
 7952 053c 2C44     		add	r4, r4, r5
 7953              	.LVL798:
 272:lvgl/src/lv_draw/lv_draw_rect.c **** 
 7954              		.loc 1 272 13 is_stmt 1 view .LVU2866
 275:lvgl/src/lv_draw/lv_draw_rect.c ****                y < coords_bg.y2 - rout - 1) {
 7955              		.loc 1 275 13 view .LVU2867
 275:lvgl/src/lv_draw/lv_draw_rect.c ****                y < coords_bg.y2 - rout - 1) {
 7956              		.loc 1 275 29 is_stmt 0 view .LVU2868
 7957 053e BDF98230 		ldrsh	r3, [sp, #130]
 275:lvgl/src/lv_draw/lv_draw_rect.c ****                y < coords_bg.y2 - rout - 1) {
 7958              		.loc 1 275 33 view .LVU2869
 7959 0542 5B44     		add	r3, r3, fp
 275:lvgl/src/lv_draw/lv_draw_rect.c ****                y < coords_bg.y2 - rout - 1) {
 7960              		.loc 1 275 40 view .LVU2870
 7961 0544 0133     		adds	r3, r3, #1
 275:lvgl/src/lv_draw/lv_draw_rect.c ****                y < coords_bg.y2 - rout - 1) {
 7962              		.loc 1 275 15 view .LVU2871
 7963 0546 A342     		cmp	r3, r4
 7964 0548 BFF6D7AE 		bge	.L354
 276:lvgl/src/lv_draw/lv_draw_rect.c ****                 mask_res = LV_DRAW_MASK_RES_FULL_COVER;
 7965              		.loc 1 276 29 discriminator 1 view .LVU2872
 7966 054c BDF98630 		ldrsh	r3, [sp, #134]
 276:lvgl/src/lv_draw/lv_draw_rect.c ****                 mask_res = LV_DRAW_MASK_RES_FULL_COVER;
 7967              		.loc 1 276 33 discriminator 1 view .LVU2873
 7968 0550 A3EB0B03 		sub	r3, r3, fp
 276:lvgl/src/lv_draw/lv_draw_rect.c ****                 mask_res = LV_DRAW_MASK_RES_FULL_COVER;
 7969              		.loc 1 276 40 discriminator 1 view .LVU2874
ARM GAS  D:\Temp\ccGEpo4V.s 			page 226


 7970 0554 013B     		subs	r3, r3, #1
 275:lvgl/src/lv_draw/lv_draw_rect.c ****                y < coords_bg.y2 - rout - 1) {
 7971              		.loc 1 275 44 discriminator 1 view .LVU2875
 7972 0556 A342     		cmp	r3, r4
 7973 0558 7FF7CFAE 		ble	.L354
 277:lvgl/src/lv_draw/lv_draw_rect.c ****                 if(simple_mode == false) {
 7974              		.loc 1 277 17 is_stmt 1 view .LVU2876
 7975              	.LVL799:
 278:lvgl/src/lv_draw/lv_draw_rect.c ****                     _lv_memset(mask_buf, opa, draw_area_w);
 7976              		.loc 1 278 17 view .LVU2877
 278:lvgl/src/lv_draw/lv_draw_rect.c ****                     _lv_memset(mask_buf, opa, draw_area_w);
 7977              		.loc 1 278 19 is_stmt 0 view .LVU2878
 7978 055c 089B     		ldr	r3, [sp, #32]
 7979 055e 002B     		cmp	r3, #0
 7980 0560 3FF4B5AE 		beq	.L401
 272:lvgl/src/lv_draw/lv_draw_rect.c **** 
 7981              		.loc 1 272 18 view .LVU2879
 7982 0564 059B     		ldr	r3, [sp, #20]
 7983 0566 0693     		str	r3, [sp, #24]
 277:lvgl/src/lv_draw/lv_draw_rect.c ****                 if(simple_mode == false) {
 7984              		.loc 1 277 26 view .LVU2880
 7985 0568 0127     		movs	r7, #1
 7986 056a DFE6     		b	.L355
 7987              	.LVL800:
 7988              	.L398:
 335:lvgl/src/lv_draw/lv_draw_rect.c ****                 }
 7989              		.loc 1 335 21 is_stmt 1 view .LVU2881
 7990 056c 737B     		ldrb	r3, [r6, #13]	@ zero_extendqisi2
 7991 056e 0293     		str	r3, [sp, #8]
 7992 0570 069B     		ldr	r3, [sp, #24]
 7993 0572 0193     		str	r3, [sp, #4]
 7994 0574 0097     		str	r7, [sp]
 7995 0576 049B     		ldr	r3, [sp, #16]
 7996 0578 0E9A     		ldr	r2, [sp, #56]
 7997 057a 13A9     		add	r1, sp, #76
 7998 057c 0798     		ldr	r0, [sp, #28]
 7999 057e FFF7FEFF 		bl	_lv_blend_map
 8000              	.LVL801:
 8001 0582 CAE7     		b	.L365
 8002              	.L399:
 338:lvgl/src/lv_draw/lv_draw_rect.c ****                                    grad_color, mask_buf, mask_res, opa2, dsc->bg_blend_mode);
 8003              		.loc 1 338 21 view .LVU2882
 8004 0584 737B     		ldrb	r3, [r6, #13]	@ zero_extendqisi2
 8005 0586 0293     		str	r3, [sp, #8]
 8006 0588 069B     		ldr	r3, [sp, #24]
 8007 058a 0193     		str	r3, [sp, #4]
 8008 058c 0097     		str	r7, [sp]
 8009 058e 049B     		ldr	r3, [sp, #16]
 8010 0590 BDF82420 		ldrh	r2, [sp, #36]
 8011 0594 13A9     		add	r1, sp, #76
 8012 0596 0798     		ldr	r0, [sp, #28]
 8013 0598 FFF7FEFF 		bl	_lv_blend_fill
 8014              	.LVL802:
 8015 059c BDE7     		b	.L365
 8016              	.LVL803:
 8017              	.L400:
 338:lvgl/src/lv_draw/lv_draw_rect.c ****                                    grad_color, mask_buf, mask_res, opa2, dsc->bg_blend_mode);
ARM GAS  D:\Temp\ccGEpo4V.s 			page 227


 8018              		.loc 1 338 21 is_stmt 0 view .LVU2883
 8019              	.LBE490:
 350:lvgl/src/lv_draw/lv_draw_rect.c ****             /*Central part*/
 8020              		.loc 1 350 9 is_stmt 1 view .LVU2884
 350:lvgl/src/lv_draw/lv_draw_rect.c ****             /*Central part*/
 8021              		.loc 1 350 11 is_stmt 0 view .LVU2885
 8022 059e B8F1000F 		cmp	r8, #0
 8023 05a2 03D1     		bne	.L370
 350:lvgl/src/lv_draw/lv_draw_rect.c ****             /*Central part*/
 8024              		.loc 1 350 41 discriminator 1 view .LVU2886
 8025 05a4 0D9B     		ldr	r3, [sp, #52]
 8026 05a6 0BB9     		cbnz	r3, .L370
 350:lvgl/src/lv_draw/lv_draw_rect.c ****             /*Central part*/
 8027              		.loc 1 350 64 discriminator 2 view .LVU2887
 8028 05a8 0A9B     		ldr	r3, [sp, #40]
 8029 05aa 5BB9     		cbnz	r3, .L402
 8030              	.LVL804:
 8031              	.L370:
 377:lvgl/src/lv_draw/lv_draw_rect.c ****     }
 8032              		.loc 1 377 9 is_stmt 1 view .LVU2888
 377:lvgl/src/lv_draw/lv_draw_rect.c ****     }
 8033              		.loc 1 377 11 is_stmt 0 view .LVU2889
 8034 05ac 0E9B     		ldr	r3, [sp, #56]
 8035 05ae 13B1     		cbz	r3, .L344
 377:lvgl/src/lv_draw/lv_draw_rect.c ****     }
 8036              		.loc 1 377 22 is_stmt 1 discriminator 1 view .LVU2890
 8037 05b0 1846     		mov	r0, r3
 8038 05b2 FFF7FEFF 		bl	_lv_mem_buf_release
 8039              	.LVL805:
 8040              	.L344:
 377:lvgl/src/lv_draw/lv_draw_rect.c ****     }
 8041              		.loc 1 377 22 is_stmt 0 discriminator 1 view .LVU2891
 8042              	.LBE492:
 380:lvgl/src/lv_draw/lv_draw_rect.c **** 
 8043              		.loc 1 380 5 is_stmt 1 discriminator 1 view .LVU2892
 8044 05b6 0F98     		ldr	r0, [sp, #60]
 8045 05b8 FFF7FEFF 		bl	lv_draw_mask_remove_id
 8046              	.LVL806:
 382:lvgl/src/lv_draw/lv_draw_rect.c **** 
 8047              		.loc 1 382 5 discriminator 1 view .LVU2893
 8048 05bc 0498     		ldr	r0, [sp, #16]
 8049 05be FFF7FEFF 		bl	_lv_mem_buf_release
 8050              	.LVL807:
 8051 05c2 69E5     		b	.L334
 8052              	.LVL808:
 8053              	.L402:
 8054              	.LBB493:
 352:lvgl/src/lv_draw/lv_draw_rect.c ****             fill_area.x2 = coords_bg.x2 - rout;
 8055              		.loc 1 352 13 view .LVU2894
 352:lvgl/src/lv_draw/lv_draw_rect.c ****             fill_area.x2 = coords_bg.x2 - rout;
 8056              		.loc 1 352 37 is_stmt 0 view .LVU2895
 8057 05c4 BDF88030 		ldrh	r3, [sp, #128]
 352:lvgl/src/lv_draw/lv_draw_rect.c ****             fill_area.x2 = coords_bg.x2 - rout;
 8058              		.loc 1 352 41 view .LVU2896
 8059 05c8 1FFA8BF5 		uxth	r5, fp
 8060              	.LVL809:
 352:lvgl/src/lv_draw/lv_draw_rect.c ****             fill_area.x2 = coords_bg.x2 - rout;
ARM GAS  D:\Temp\ccGEpo4V.s 			page 228


 8061              		.loc 1 352 41 view .LVU2897
 8062 05cc 2B44     		add	r3, r3, r5
 352:lvgl/src/lv_draw/lv_draw_rect.c ****             fill_area.x2 = coords_bg.x2 - rout;
 8063              		.loc 1 352 26 view .LVU2898
 8064 05ce ADF84C30 		strh	r3, [sp, #76]	@ movhi
 353:lvgl/src/lv_draw/lv_draw_rect.c ****             fill_area.y1 = coords_bg.y1;
 8065              		.loc 1 353 13 is_stmt 1 view .LVU2899
 353:lvgl/src/lv_draw/lv_draw_rect.c ****             fill_area.y1 = coords_bg.y1;
 8066              		.loc 1 353 37 is_stmt 0 view .LVU2900
 8067 05d2 BDF88430 		ldrh	r3, [sp, #132]
 353:lvgl/src/lv_draw/lv_draw_rect.c ****             fill_area.y1 = coords_bg.y1;
 8068              		.loc 1 353 41 view .LVU2901
 8069 05d6 5B1B     		subs	r3, r3, r5
 353:lvgl/src/lv_draw/lv_draw_rect.c ****             fill_area.y1 = coords_bg.y1;
 8070              		.loc 1 353 26 view .LVU2902
 8071 05d8 ADF85030 		strh	r3, [sp, #80]	@ movhi
 354:lvgl/src/lv_draw/lv_draw_rect.c ****             fill_area.y2 = coords_bg.y1 + rout;
 8072              		.loc 1 354 13 is_stmt 1 view .LVU2903
 354:lvgl/src/lv_draw/lv_draw_rect.c ****             fill_area.y2 = coords_bg.y1 + rout;
 8073              		.loc 1 354 37 is_stmt 0 view .LVU2904
 8074 05dc BDF98230 		ldrsh	r3, [sp, #130]
 354:lvgl/src/lv_draw/lv_draw_rect.c ****             fill_area.y2 = coords_bg.y1 + rout;
 8075              		.loc 1 354 26 view .LVU2905
 8076 05e0 ADF84E30 		strh	r3, [sp, #78]	@ movhi
 355:lvgl/src/lv_draw/lv_draw_rect.c **** 
 8077              		.loc 1 355 13 is_stmt 1 view .LVU2906
 355:lvgl/src/lv_draw/lv_draw_rect.c **** 
 8078              		.loc 1 355 41 is_stmt 0 view .LVU2907
 8079 05e4 15FA83F3 		uxtah	r3, r5, r3
 355:lvgl/src/lv_draw/lv_draw_rect.c **** 
 8080              		.loc 1 355 26 view .LVU2908
 8081 05e8 ADF85230 		strh	r3, [sp, #82]	@ movhi
 357:lvgl/src/lv_draw/lv_draw_rect.c ****                            dsc->bg_color, NULL, LV_DRAW_MASK_RES_FULL_COVER, opa, dsc->bg_blend_mod
 8082              		.loc 1 357 13 is_stmt 1 view .LVU2909
 8083 05ec 737B     		ldrb	r3, [r6, #13]	@ zero_extendqisi2
 8084 05ee 0293     		str	r3, [sp, #8]
 8085 05f0 059B     		ldr	r3, [sp, #20]
 8086 05f2 0193     		str	r3, [sp, #4]
 8087 05f4 0123     		movs	r3, #1
 8088 05f6 0093     		str	r3, [sp]
 8089 05f8 0023     		movs	r3, #0
 8090 05fa 7288     		ldrh	r2, [r6, #2]
 8091 05fc 13A9     		add	r1, sp, #76
 8092 05fe 0798     		ldr	r0, [sp, #28]
 8093 0600 FFF7FEFF 		bl	_lv_blend_fill
 8094              	.LVL810:
 360:lvgl/src/lv_draw/lv_draw_rect.c ****             if(fill_area.y1 <= fill_area.y2) fill_area.y1 = fill_area.y2 + 1;    /*Avoid overdrawin
 8095              		.loc 1 360 13 view .LVU2910
 360:lvgl/src/lv_draw/lv_draw_rect.c ****             if(fill_area.y1 <= fill_area.y2) fill_area.y1 = fill_area.y2 + 1;    /*Avoid overdrawin
 8096              		.loc 1 360 37 is_stmt 0 view .LVU2911
 8097 0604 BDF98610 		ldrsh	r1, [sp, #134]
 8098 0608 8BB2     		uxth	r3, r1
 360:lvgl/src/lv_draw/lv_draw_rect.c ****             if(fill_area.y1 <= fill_area.y2) fill_area.y1 = fill_area.y2 + 1;    /*Avoid overdrawin
 8099              		.loc 1 360 41 view .LVU2912
 8100 060a 5B1B     		subs	r3, r3, r5
 8101 060c 1BB2     		sxth	r3, r3
 360:lvgl/src/lv_draw/lv_draw_rect.c ****             if(fill_area.y1 <= fill_area.y2) fill_area.y1 = fill_area.y2 + 1;    /*Avoid overdrawin
ARM GAS  D:\Temp\ccGEpo4V.s 			page 229


 8102              		.loc 1 360 26 view .LVU2913
 8103 060e ADF84E30 		strh	r3, [sp, #78]	@ movhi
 361:lvgl/src/lv_draw/lv_draw_rect.c ****             fill_area.y2 = coords_bg.y2;
 8104              		.loc 1 361 13 is_stmt 1 view .LVU2914
 361:lvgl/src/lv_draw/lv_draw_rect.c ****             fill_area.y2 = coords_bg.y2;
 8105              		.loc 1 361 41 is_stmt 0 view .LVU2915
 8106 0612 BDF95220 		ldrsh	r2, [sp, #82]
 361:lvgl/src/lv_draw/lv_draw_rect.c ****             fill_area.y2 = coords_bg.y2;
 8107              		.loc 1 361 15 view .LVU2916
 8108 0616 9342     		cmp	r3, r2
 8109 0618 03DC     		bgt	.L371
 361:lvgl/src/lv_draw/lv_draw_rect.c ****             fill_area.y2 = coords_bg.y2;
 8110              		.loc 1 361 46 is_stmt 1 discriminator 1 view .LVU2917
 361:lvgl/src/lv_draw/lv_draw_rect.c ****             fill_area.y2 = coords_bg.y2;
 8111              		.loc 1 361 70 is_stmt 0 discriminator 1 view .LVU2918
 8112 061a 93B2     		uxth	r3, r2
 361:lvgl/src/lv_draw/lv_draw_rect.c ****             fill_area.y2 = coords_bg.y2;
 8113              		.loc 1 361 74 discriminator 1 view .LVU2919
 8114 061c 0133     		adds	r3, r3, #1
 361:lvgl/src/lv_draw/lv_draw_rect.c ****             fill_area.y2 = coords_bg.y2;
 8115              		.loc 1 361 59 discriminator 1 view .LVU2920
 8116 061e ADF84E30 		strh	r3, [sp, #78]	@ movhi
 8117              	.L371:
 362:lvgl/src/lv_draw/lv_draw_rect.c **** 
 8118              		.loc 1 362 13 is_stmt 1 view .LVU2921
 362:lvgl/src/lv_draw/lv_draw_rect.c **** 
 8119              		.loc 1 362 26 is_stmt 0 view .LVU2922
 8120 0622 ADF85210 		strh	r1, [sp, #82]	@ movhi
 364:lvgl/src/lv_draw/lv_draw_rect.c ****                            dsc->bg_color, NULL, LV_DRAW_MASK_RES_FULL_COVER, opa, dsc->bg_blend_mod
 8121              		.loc 1 364 13 is_stmt 1 view .LVU2923
 8122 0626 737B     		ldrb	r3, [r6, #13]	@ zero_extendqisi2
 8123 0628 0293     		str	r3, [sp, #8]
 8124 062a 059F     		ldr	r7, [sp, #20]
 8125 062c 0197     		str	r7, [sp, #4]
 8126 062e 0124     		movs	r4, #1
 8127 0630 0094     		str	r4, [sp]
 8128 0632 0023     		movs	r3, #0
 8129 0634 7288     		ldrh	r2, [r6, #2]
 8130 0636 13A9     		add	r1, sp, #76
 8131 0638 DDF81C80 		ldr	r8, [sp, #28]
 8132 063c 4046     		mov	r0, r8
 8133 063e FFF7FEFF 		bl	_lv_blend_fill
 8134              	.LVL811:
 367:lvgl/src/lv_draw/lv_draw_rect.c ****             fill_area.x2 = coords_bg.x2;
 8135              		.loc 1 367 13 view .LVU2924
 367:lvgl/src/lv_draw/lv_draw_rect.c ****             fill_area.x2 = coords_bg.x2;
 8136              		.loc 1 367 37 is_stmt 0 view .LVU2925
 8137 0642 BDF98030 		ldrsh	r3, [sp, #128]
 367:lvgl/src/lv_draw/lv_draw_rect.c ****             fill_area.x2 = coords_bg.x2;
 8138              		.loc 1 367 26 view .LVU2926
 8139 0646 ADF84C30 		strh	r3, [sp, #76]	@ movhi
 368:lvgl/src/lv_draw/lv_draw_rect.c ****             fill_area.y1 = coords_bg.y1 + rout + 1;
 8140              		.loc 1 368 13 is_stmt 1 view .LVU2927
 368:lvgl/src/lv_draw/lv_draw_rect.c ****             fill_area.y1 = coords_bg.y1 + rout + 1;
 8141              		.loc 1 368 37 is_stmt 0 view .LVU2928
 8142 064a BDF98430 		ldrsh	r3, [sp, #132]
 368:lvgl/src/lv_draw/lv_draw_rect.c ****             fill_area.y1 = coords_bg.y1 + rout + 1;
ARM GAS  D:\Temp\ccGEpo4V.s 			page 230


 8143              		.loc 1 368 26 view .LVU2929
 8144 064e ADF85030 		strh	r3, [sp, #80]	@ movhi
 369:lvgl/src/lv_draw/lv_draw_rect.c ****             fill_area.y2 = coords_bg.y2 - rout - 1;
 8145              		.loc 1 369 13 is_stmt 1 view .LVU2930
 369:lvgl/src/lv_draw/lv_draw_rect.c ****             fill_area.y2 = coords_bg.y2 - rout - 1;
 8146              		.loc 1 369 37 is_stmt 0 view .LVU2931
 8147 0652 BDF88230 		ldrh	r3, [sp, #130]
 369:lvgl/src/lv_draw/lv_draw_rect.c ****             fill_area.y2 = coords_bg.y2 - rout - 1;
 8148              		.loc 1 369 41 view .LVU2932
 8149 0656 2B44     		add	r3, r3, r5
 8150 0658 9BB2     		uxth	r3, r3
 369:lvgl/src/lv_draw/lv_draw_rect.c ****             fill_area.y2 = coords_bg.y2 - rout - 1;
 8151              		.loc 1 369 48 view .LVU2933
 8152 065a 2344     		add	r3, r3, r4
 369:lvgl/src/lv_draw/lv_draw_rect.c ****             fill_area.y2 = coords_bg.y2 - rout - 1;
 8153              		.loc 1 369 26 view .LVU2934
 8154 065c ADF84E30 		strh	r3, [sp, #78]	@ movhi
 370:lvgl/src/lv_draw/lv_draw_rect.c **** 
 8155              		.loc 1 370 13 is_stmt 1 view .LVU2935
 370:lvgl/src/lv_draw/lv_draw_rect.c **** 
 8156              		.loc 1 370 37 is_stmt 0 view .LVU2936
 8157 0660 BDF88630 		ldrh	r3, [sp, #134]
 370:lvgl/src/lv_draw/lv_draw_rect.c **** 
 8158              		.loc 1 370 41 view .LVU2937
 8159 0664 5B1B     		subs	r3, r3, r5
 8160 0666 9BB2     		uxth	r3, r3
 370:lvgl/src/lv_draw/lv_draw_rect.c **** 
 8161              		.loc 1 370 48 view .LVU2938
 8162 0668 013B     		subs	r3, r3, #1
 370:lvgl/src/lv_draw/lv_draw_rect.c **** 
 8163              		.loc 1 370 26 view .LVU2939
 8164 066a ADF85230 		strh	r3, [sp, #82]	@ movhi
 372:lvgl/src/lv_draw/lv_draw_rect.c ****                            dsc->bg_color, NULL, LV_DRAW_MASK_RES_FULL_COVER, opa, dsc->bg_blend_mod
 8165              		.loc 1 372 13 is_stmt 1 view .LVU2940
 8166 066e 737B     		ldrb	r3, [r6, #13]	@ zero_extendqisi2
 8167 0670 0293     		str	r3, [sp, #8]
 8168 0672 0197     		str	r7, [sp, #4]
 8169 0674 0094     		str	r4, [sp]
 8170 0676 0023     		movs	r3, #0
 8171 0678 7288     		ldrh	r2, [r6, #2]
 8172 067a 13A9     		add	r1, sp, #76
 8173 067c 4046     		mov	r0, r8
 8174 067e FFF7FEFF 		bl	_lv_blend_fill
 8175              	.LVL812:
 8176 0682 93E7     		b	.L370
 8177              	.LBE493:
 8178              		.cfi_endproc
 8179              	.LFE461:
 8181              		.section	.text.lv_draw_rect_dsc_init,"ax",%progbits
 8182              		.align	1
 8183              		.global	lv_draw_rect_dsc_init
 8184              		.syntax unified
 8185              		.thumb
 8186              		.thumb_func
 8187              		.fpu fpv4-sp-d16
 8189              	lv_draw_rect_dsc_init:
 8190              	.LVL813:
ARM GAS  D:\Temp\ccGEpo4V.s 			page 231


 8191              	.LFB458:
  76:lvgl/src/lv_draw/lv_draw_rect.c ****     _lv_memset_00(dsc, sizeof(lv_draw_rect_dsc_t));
 8192              		.loc 1 76 1 view -0
 8193              		.cfi_startproc
 8194              		@ args = 0, pretend = 0, frame = 0
 8195              		@ frame_needed = 0, uses_anonymous_args = 0
  76:lvgl/src/lv_draw/lv_draw_rect.c ****     _lv_memset_00(dsc, sizeof(lv_draw_rect_dsc_t));
 8196              		.loc 1 76 1 is_stmt 0 view .LVU2942
 8197 0000 10B5     		push	{r4, lr}
 8198              	.LCFI36:
 8199              		.cfi_def_cfa_offset 8
 8200              		.cfi_offset 4, -8
 8201              		.cfi_offset 14, -4
 8202 0002 0446     		mov	r4, r0
  77:lvgl/src/lv_draw/lv_draw_rect.c ****     dsc->bg_color = LV_COLOR_WHITE;
 8203              		.loc 1 77 5 is_stmt 1 view .LVU2943
 8204 0004 5421     		movs	r1, #84
 8205 0006 FFF7FEFF 		bl	_lv_memset_00
 8206              	.LVL814:
  78:lvgl/src/lv_draw/lv_draw_rect.c ****     dsc->bg_grad_color = LV_COLOR_BLACK;
 8207              		.loc 1 78 5 view .LVU2944
  78:lvgl/src/lv_draw/lv_draw_rect.c ****     dsc->bg_grad_color = LV_COLOR_BLACK;
 8208              		.loc 1 78 19 is_stmt 0 view .LVU2945
 8209 000a 304B     		ldr	r3, .L405
 8210 000c 1B88     		ldrh	r3, [r3]
 8211 000e 6380     		strh	r3, [r4, #2]	@ movhi
  79:lvgl/src/lv_draw/lv_draw_rect.c ****     dsc->border_color = LV_COLOR_BLACK;
 8212              		.loc 1 79 5 is_stmt 1 view .LVU2946
  79:lvgl/src/lv_draw/lv_draw_rect.c ****     dsc->border_color = LV_COLOR_BLACK;
 8213              		.loc 1 79 24 is_stmt 0 view .LVU2947
 8214 0010 2379     		ldrb	r3, [r4, #4]	@ zero_extendqisi2
 8215 0012 6FF30403 		bfc	r3, #0, #5
 8216 0016 2371     		strb	r3, [r4, #4]
 8217 0018 A388     		ldrh	r3, [r4, #4]
 8218 001a 6FF34A13 		bfc	r3, #5, #6
 8219 001e A380     		strh	r3, [r4, #4]	@ movhi
 8220 0020 C3F30723 		ubfx	r3, r3, #8, #8
 8221 0024 6FF3C703 		bfc	r3, #3, #5
 8222 0028 6371     		strb	r3, [r4, #5]
  80:lvgl/src/lv_draw/lv_draw_rect.c ****     dsc->pattern_recolor = LV_COLOR_BLACK;
 8223              		.loc 1 80 5 is_stmt 1 view .LVU2948
  80:lvgl/src/lv_draw/lv_draw_rect.c ****     dsc->pattern_recolor = LV_COLOR_BLACK;
 8224              		.loc 1 80 23 is_stmt 0 view .LVU2949
 8225 002a A37B     		ldrb	r3, [r4, #14]	@ zero_extendqisi2
 8226 002c 6FF30403 		bfc	r3, #0, #5
 8227 0030 A373     		strb	r3, [r4, #14]
 8228 0032 E389     		ldrh	r3, [r4, #14]
 8229 0034 6FF34A13 		bfc	r3, #5, #6
 8230 0038 E381     		strh	r3, [r4, #14]	@ movhi
 8231 003a C3F30723 		ubfx	r3, r3, #8, #8
 8232 003e 6FF3C703 		bfc	r3, #3, #5
 8233 0042 E373     		strb	r3, [r4, #15]
  81:lvgl/src/lv_draw/lv_draw_rect.c ****     dsc->value_color = LV_COLOR_BLACK;
 8234              		.loc 1 81 5 is_stmt 1 view .LVU2950
  81:lvgl/src/lv_draw/lv_draw_rect.c ****     dsc->value_color = LV_COLOR_BLACK;
 8235              		.loc 1 81 26 is_stmt 0 view .LVU2951
 8236 0044 94F83430 		ldrb	r3, [r4, #52]	@ zero_extendqisi2
ARM GAS  D:\Temp\ccGEpo4V.s 			page 232


 8237 0048 6FF30403 		bfc	r3, #0, #5
 8238 004c 84F83430 		strb	r3, [r4, #52]
 8239 0050 A38E     		ldrh	r3, [r4, #52]
 8240 0052 6FF34A13 		bfc	r3, #5, #6
 8241 0056 A386     		strh	r3, [r4, #52]	@ movhi
 8242 0058 C3F30723 		ubfx	r3, r3, #8, #8
 8243 005c 6FF3C703 		bfc	r3, #3, #5
 8244 0060 84F83530 		strb	r3, [r4, #53]
  82:lvgl/src/lv_draw/lv_draw_rect.c ****     dsc->shadow_color = LV_COLOR_BLACK;
 8245              		.loc 1 82 5 is_stmt 1 view .LVU2952
  82:lvgl/src/lv_draw/lv_draw_rect.c ****     dsc->shadow_color = LV_COLOR_BLACK;
 8246              		.loc 1 82 22 is_stmt 0 view .LVU2953
 8247 0064 94F84630 		ldrb	r3, [r4, #70]	@ zero_extendqisi2
 8248 0068 6FF30403 		bfc	r3, #0, #5
 8249 006c 84F84630 		strb	r3, [r4, #70]
 8250 0070 B4F84630 		ldrh	r3, [r4, #70]
 8251 0074 6FF34A13 		bfc	r3, #5, #6
 8252 0078 A4F84630 		strh	r3, [r4, #70]	@ movhi
 8253 007c C3F30723 		ubfx	r3, r3, #8, #8
 8254 0080 6FF3C703 		bfc	r3, #3, #5
 8255 0084 84F84730 		strb	r3, [r4, #71]
  83:lvgl/src/lv_draw/lv_draw_rect.c ****     dsc->bg_grad_color_stop = 0xFF;
 8256              		.loc 1 83 5 is_stmt 1 view .LVU2954
  83:lvgl/src/lv_draw/lv_draw_rect.c ****     dsc->bg_grad_color_stop = 0xFF;
 8257              		.loc 1 83 23 is_stmt 0 view .LVU2955
 8258 0088 94F82030 		ldrb	r3, [r4, #32]	@ zero_extendqisi2
 8259 008c 6FF30403 		bfc	r3, #0, #5
 8260 0090 84F82030 		strb	r3, [r4, #32]
 8261 0094 238C     		ldrh	r3, [r4, #32]
 8262 0096 6FF34A13 		bfc	r3, #5, #6
 8263 009a 2384     		strh	r3, [r4, #32]	@ movhi
 8264 009c C3F30723 		ubfx	r3, r3, #8, #8
 8265 00a0 6FF3C703 		bfc	r3, #3, #5
 8266 00a4 84F82130 		strb	r3, [r4, #33]
  84:lvgl/src/lv_draw/lv_draw_rect.c ****     dsc->bg_opa = LV_OPA_COVER;
 8267              		.loc 1 84 5 is_stmt 1 view .LVU2956
  84:lvgl/src/lv_draw/lv_draw_rect.c ****     dsc->bg_opa = LV_OPA_COVER;
 8268              		.loc 1 84 29 is_stmt 0 view .LVU2957
 8269 00a8 FF23     		movs	r3, #255
 8270 00aa 6381     		strh	r3, [r4, #10]	@ movhi
  85:lvgl/src/lv_draw/lv_draw_rect.c ****     dsc->outline_opa = LV_OPA_COVER;
 8271              		.loc 1 85 5 is_stmt 1 view .LVU2958
  85:lvgl/src/lv_draw/lv_draw_rect.c ****     dsc->outline_opa = LV_OPA_COVER;
 8272              		.loc 1 85 17 is_stmt 0 view .LVU2959
 8273 00ac 2373     		strb	r3, [r4, #12]
  86:lvgl/src/lv_draw/lv_draw_rect.c ****     dsc->border_opa = LV_OPA_COVER;
 8274              		.loc 1 86 5 is_stmt 1 view .LVU2960
  86:lvgl/src/lv_draw/lv_draw_rect.c ****     dsc->border_opa = LV_OPA_COVER;
 8275              		.loc 1 86 22 is_stmt 0 view .LVU2961
 8276 00ae A377     		strb	r3, [r4, #30]
  87:lvgl/src/lv_draw/lv_draw_rect.c ****     dsc->pattern_opa = LV_OPA_COVER;
 8277              		.loc 1 87 5 is_stmt 1 view .LVU2962
  87:lvgl/src/lv_draw/lv_draw_rect.c ****     dsc->pattern_opa = LV_OPA_COVER;
 8278              		.loc 1 87 21 is_stmt 0 view .LVU2963
 8279 00b0 2375     		strb	r3, [r4, #20]
  88:lvgl/src/lv_draw/lv_draw_rect.c ****     dsc->pattern_font = LV_THEME_DEFAULT_FONT_NORMAL;
 8280              		.loc 1 88 5 is_stmt 1 view .LVU2964
ARM GAS  D:\Temp\ccGEpo4V.s 			page 233


  88:lvgl/src/lv_draw/lv_draw_rect.c ****     dsc->pattern_font = LV_THEME_DEFAULT_FONT_NORMAL;
 8281              		.loc 1 88 22 is_stmt 0 view .LVU2965
 8282 00b2 84F83630 		strb	r3, [r4, #54]
  89:lvgl/src/lv_draw/lv_draw_rect.c ****     dsc->value_opa = LV_OPA_COVER;
 8283              		.loc 1 89 5 is_stmt 1 view .LVU2966
  89:lvgl/src/lv_draw/lv_draw_rect.c ****     dsc->value_opa = LV_OPA_COVER;
 8284              		.loc 1 89 23 is_stmt 0 view .LVU2967
 8285 00b6 064A     		ldr	r2, .L405+4
 8286 00b8 2263     		str	r2, [r4, #48]
  90:lvgl/src/lv_draw/lv_draw_rect.c ****     dsc->value_font = LV_THEME_DEFAULT_FONT_NORMAL;
 8287              		.loc 1 90 5 is_stmt 1 view .LVU2968
  90:lvgl/src/lv_draw/lv_draw_rect.c ****     dsc->value_font = LV_THEME_DEFAULT_FONT_NORMAL;
 8288              		.loc 1 90 20 is_stmt 0 view .LVU2969
 8289 00ba 84F84430 		strb	r3, [r4, #68]
  91:lvgl/src/lv_draw/lv_draw_rect.c ****     dsc->shadow_opa = LV_OPA_COVER;
 8290              		.loc 1 91 5 is_stmt 1 view .LVU2970
  91:lvgl/src/lv_draw/lv_draw_rect.c ****     dsc->shadow_opa = LV_OPA_COVER;
 8291              		.loc 1 91 21 is_stmt 0 view .LVU2971
 8292 00be 2264     		str	r2, [r4, #64]
  92:lvgl/src/lv_draw/lv_draw_rect.c ****     dsc->border_side = LV_BORDER_SIDE_FULL;
 8293              		.loc 1 92 5 is_stmt 1 view .LVU2972
  92:lvgl/src/lv_draw/lv_draw_rect.c ****     dsc->border_side = LV_BORDER_SIDE_FULL;
 8294              		.loc 1 92 21 is_stmt 0 view .LVU2973
 8295 00c0 84F82A30 		strb	r3, [r4, #42]
  93:lvgl/src/lv_draw/lv_draw_rect.c **** 
 8296              		.loc 1 93 5 is_stmt 1 view .LVU2974
  93:lvgl/src/lv_draw/lv_draw_rect.c **** 
 8297              		.loc 1 93 22 is_stmt 0 view .LVU2975
 8298 00c4 0F23     		movs	r3, #15
 8299 00c6 6382     		strh	r3, [r4, #18]	@ movhi
  95:lvgl/src/lv_draw/lv_draw_rect.c **** 
 8300              		.loc 1 95 1 view .LVU2976
 8301 00c8 10BD     		pop	{r4, pc}
 8302              	.LVL815:
 8303              	.L406:
  95:lvgl/src/lv_draw/lv_draw_rect.c **** 
 8304              		.loc 1 95 1 view .LVU2977
 8305 00ca 00BF     		.align	2
 8306              	.L405:
 8307 00cc 00000000 		.word	.LANCHOR0
 8308 00d0 00000000 		.word	lv_font_montserrat_12
 8309              		.cfi_endproc
 8310              	.LFE458:
 8312              		.section	.text.lv_draw_rect,"ax",%progbits
 8313              		.align	1
 8314              		.global	lv_draw_rect
 8315              		.syntax unified
 8316              		.thumb
 8317              		.thumb_func
 8318              		.fpu fpv4-sp-d16
 8320              	lv_draw_rect:
 8321              	.LVL816:
 8322              	.LFB459:
 104:lvgl/src/lv_draw/lv_draw_rect.c ****     if(lv_area_get_height(coords) < 1 || lv_area_get_width(coords) < 1) return;
 8323              		.loc 1 104 1 is_stmt 1 view -0
 8324              		.cfi_startproc
 8325              		@ args = 0, pretend = 0, frame = 0
ARM GAS  D:\Temp\ccGEpo4V.s 			page 234


 8326              		@ frame_needed = 0, uses_anonymous_args = 0
 104:lvgl/src/lv_draw/lv_draw_rect.c ****     if(lv_area_get_height(coords) < 1 || lv_area_get_width(coords) < 1) return;
 8327              		.loc 1 104 1 is_stmt 0 view .LVU2979
 8328 0000 70B5     		push	{r4, r5, r6, lr}
 8329              	.LCFI37:
 8330              		.cfi_def_cfa_offset 16
 8331              		.cfi_offset 4, -16
 8332              		.cfi_offset 5, -12
 8333              		.cfi_offset 6, -8
 8334              		.cfi_offset 14, -4
 105:lvgl/src/lv_draw/lv_draw_rect.c **** #if LV_USE_SHADOW
 8335              		.loc 1 105 5 is_stmt 1 view .LVU2980
 8336              	.LVL817:
 8337              	.LBB494:
 8338              	.LBI494:
 117:lvgl/src/lv_draw/../lv_core/../lv_font/../lv_misc/lv_area.h **** {
 8339              		.loc 2 117 26 view .LVU2981
 8340              	.LBB495:
 8341              		.loc 2 119 5 view .LVU2982
 8342              		.loc 2 119 31 is_stmt 0 view .LVU2983
 8343 0002 C388     		ldrh	r3, [r0, #6]
 8344              		.loc 2 119 44 view .LVU2984
 8345 0004 4488     		ldrh	r4, [r0, #2]
 8346              		.loc 2 119 36 view .LVU2985
 8347 0006 1B1B     		subs	r3, r3, r4
 8348 0008 9BB2     		uxth	r3, r3
 8349              		.loc 2 119 49 view .LVU2986
 8350 000a 0133     		adds	r3, r3, #1
 8351              		.loc 2 119 12 view .LVU2987
 8352 000c 1BB2     		sxth	r3, r3
 8353              	.LVL818:
 8354              		.loc 2 119 12 view .LVU2988
 8355              	.LBE495:
 8356              	.LBE494:
 105:lvgl/src/lv_draw/lv_draw_rect.c **** #if LV_USE_SHADOW
 8357              		.loc 1 105 7 view .LVU2989
 8358 000e 002B     		cmp	r3, #0
 8359 0010 25DD     		ble	.L407
 8360              	.LVL819:
 8361              	.LBB496:
 8362              	.LBI496:
 107:lvgl/src/lv_draw/../lv_core/../lv_font/../lv_misc/lv_area.h **** {
 8363              		.loc 2 107 26 is_stmt 1 view .LVU2990
 8364              	.LBB497:
 109:lvgl/src/lv_draw/../lv_core/../lv_font/../lv_misc/lv_area.h **** }
 8365              		.loc 2 109 5 view .LVU2991
 109:lvgl/src/lv_draw/../lv_core/../lv_font/../lv_misc/lv_area.h **** }
 8366              		.loc 2 109 31 is_stmt 0 view .LVU2992
 8367 0012 8388     		ldrh	r3, [r0, #4]
 109:lvgl/src/lv_draw/../lv_core/../lv_font/../lv_misc/lv_area.h **** }
 8368              		.loc 2 109 44 view .LVU2993
 8369 0014 0488     		ldrh	r4, [r0]
 109:lvgl/src/lv_draw/../lv_core/../lv_font/../lv_misc/lv_area.h **** }
 8370              		.loc 2 109 36 view .LVU2994
 8371 0016 1B1B     		subs	r3, r3, r4
 8372 0018 9BB2     		uxth	r3, r3
 109:lvgl/src/lv_draw/../lv_core/../lv_font/../lv_misc/lv_area.h **** }
ARM GAS  D:\Temp\ccGEpo4V.s 			page 235


 8373              		.loc 2 109 49 view .LVU2995
 8374 001a 0133     		adds	r3, r3, #1
 109:lvgl/src/lv_draw/../lv_core/../lv_font/../lv_misc/lv_area.h **** }
 8375              		.loc 2 109 12 view .LVU2996
 8376 001c 1BB2     		sxth	r3, r3
 8377              	.LVL820:
 109:lvgl/src/lv_draw/../lv_core/../lv_font/../lv_misc/lv_area.h **** }
 8378              		.loc 2 109 12 view .LVU2997
 8379              	.LBE497:
 8380              	.LBE496:
 105:lvgl/src/lv_draw/lv_draw_rect.c **** #if LV_USE_SHADOW
 8381              		.loc 1 105 39 view .LVU2998
 8382 001e 002B     		cmp	r3, #0
 8383 0020 1DDD     		ble	.L407
 8384 0022 1646     		mov	r6, r2
 8385 0024 0D46     		mov	r5, r1
 8386 0026 0446     		mov	r4, r0
 107:lvgl/src/lv_draw/lv_draw_rect.c **** #endif
 8387              		.loc 1 107 5 is_stmt 1 view .LVU2999
 8388 0028 FFF7FEFF 		bl	draw_shadow
 8389              	.LVL821:
 110:lvgl/src/lv_draw/lv_draw_rect.c **** 
 8390              		.loc 1 110 5 view .LVU3000
 8391 002c 3246     		mov	r2, r6
 8392 002e 2946     		mov	r1, r5
 8393 0030 2046     		mov	r0, r4
 8394 0032 FFF7FEFF 		bl	draw_bg
 8395              	.LVL822:
 113:lvgl/src/lv_draw/lv_draw_rect.c **** #endif
 8396              		.loc 1 113 5 view .LVU3001
 8397 0036 3246     		mov	r2, r6
 8398 0038 2946     		mov	r1, r5
 8399 003a 2046     		mov	r0, r4
 8400 003c FFF7FEFF 		bl	draw_pattern
 8401              	.LVL823:
 115:lvgl/src/lv_draw/lv_draw_rect.c **** 
 8402              		.loc 1 115 5 view .LVU3002
 8403 0040 3246     		mov	r2, r6
 8404 0042 2946     		mov	r1, r5
 8405 0044 2046     		mov	r0, r4
 8406 0046 FFF7FEFF 		bl	draw_border
 8407              	.LVL824:
 118:lvgl/src/lv_draw/lv_draw_rect.c **** #endif
 8408              		.loc 1 118 5 view .LVU3003
 8409 004a 3246     		mov	r2, r6
 8410 004c 2946     		mov	r1, r5
 8411 004e 2046     		mov	r0, r4
 8412 0050 FFF7FEFF 		bl	draw_value_str
 8413              	.LVL825:
 122:lvgl/src/lv_draw/lv_draw_rect.c **** #endif
 8414              		.loc 1 122 5 view .LVU3004
 8415 0054 3246     		mov	r2, r6
 8416 0056 2946     		mov	r1, r5
 8417 0058 2046     		mov	r0, r4
 8418 005a FFF7FEFF 		bl	draw_outline
 8419              	.LVL826:
 125:lvgl/src/lv_draw/lv_draw_rect.c **** }
ARM GAS  D:\Temp\ccGEpo4V.s 			page 236


 8420              		.loc 1 125 30 view .LVU3005
 8421              	.L407:
 126:lvgl/src/lv_draw/lv_draw_rect.c **** 
 8422              		.loc 1 126 1 is_stmt 0 view .LVU3006
 8423 005e 70BD     		pop	{r4, r5, r6, pc}
 8424              		.cfi_endproc
 8425              	.LFE459:
 8427              		.section	.text.lv_draw_px,"ax",%progbits
 8428              		.align	1
 8429              		.global	lv_draw_px
 8430              		.syntax unified
 8431              		.thumb
 8432              		.thumb_func
 8433              		.fpu fpv4-sp-d16
 8435              	lv_draw_px:
 8436              	.LVL827:
 8437              	.LFB460:
 136:lvgl/src/lv_draw/lv_draw_rect.c ****     LV_UNUSED(point);
 8438              		.loc 1 136 1 is_stmt 1 view -0
 8439              		.cfi_startproc
 8440              		@ args = 0, pretend = 0, frame = 0
 8441              		@ frame_needed = 0, uses_anonymous_args = 0
 8442              		@ link register save eliminated.
 137:lvgl/src/lv_draw/lv_draw_rect.c ****     LV_UNUSED(clip_area);
 8443              		.loc 1 137 5 view .LVU3008
 138:lvgl/src/lv_draw/lv_draw_rect.c ****     LV_UNUSED(style);
 8444              		.loc 1 138 5 view .LVU3009
 139:lvgl/src/lv_draw/lv_draw_rect.c ****     //    lv_opa_t opa = style->body.opa;
 8445              		.loc 1 139 5 view .LVU3010
 161:lvgl/src/lv_draw/lv_draw_rect.c **** 
 8446              		.loc 1 161 1 is_stmt 0 view .LVU3011
 8447 0000 7047     		bx	lr
 8448              		.cfi_endproc
 8449              	.LFE460:
 8451              		.section	.rodata
 8452              		.align	2
 8453              		.set	.LANCHOR0,. + 0
 8454              	.LC0:
 8455 0000 FF       		.byte	255
 8456 0001 FF       		.byte	255
 8457              		.text
 8458              	.Letext0:
 8459              		.file 5 "c:\\stm32\\gnu mcu eclipse\\arm embedded gcc\\8.2.1-1.4-20190214-0604\\arm-none-eabi\\inc
 8460              		.file 6 "c:\\stm32\\gnu mcu eclipse\\arm embedded gcc\\8.2.1-1.4-20190214-0604\\arm-none-eabi\\inc
 8461              		.file 7 "Drivers/CMSIS/Include/core_cm4.h"
 8462              		.file 8 "Drivers/CMSIS/Device/ST/STM32F4xx/Include/system_stm32f4xx.h"
 8463              		.file 9 "c:\\stm32\\gnu mcu eclipse\\arm embedded gcc\\8.2.1-1.4-20190214-0604\\lib\\gcc\\arm-none
 8464              		.file 10 "Drivers/STM32F4xx_HAL_Driver/Inc/stm32f4xx_hal.h"
 8465              		.file 11 "lvgl/lv_conf.h"
 8466              		.file 12 "c:\\stm32\\gnu mcu eclipse\\arm embedded gcc\\8.2.1-1.4-20190214-0604\\arm-none-eabi\\in
 8467              		.file 13 "c:\\stm32\\gnu mcu eclipse\\arm embedded gcc\\8.2.1-1.4-20190214-0604\\arm-none-eabi\\in
 8468              		.file 14 "c:\\stm32\\gnu mcu eclipse\\arm embedded gcc\\8.2.1-1.4-20190214-0604\\arm-none-eabi\\in
 8469              		.file 15 "lvgl/src/lv_draw/../lv_core/../lv_font/../lv_misc/lv_types.h"
 8470              		.file 16 "lvgl/src/lv_draw/../lv_core/../lv_font/lv_font.h"
 8471              		.file 17 "lvgl/src/lv_draw/../lv_core/../lv_misc/lv_math.h"
 8472              		.file 18 "lvgl/src/lv_draw/../lv_core/../lv_misc/lv_anim.h"
 8473              		.file 19 "lvgl/src/lv_draw/../lv_core/../lv_draw/lv_draw_mask.h"
ARM GAS  D:\Temp\ccGEpo4V.s 			page 237


 8474              		.file 20 "lvgl/src/lv_draw/../lv_core/../lv_draw/lv_draw_blend.h"
 8475              		.file 21 "lvgl/src/lv_draw/../lv_core/lv_style.h"
 8476              		.file 22 "lvgl/src/lv_draw/lv_draw_rect.h"
 8477              		.file 23 "lvgl/src/lv_draw/../lv_misc/lv_txt.h"
 8478              		.file 24 "lvgl/src/lv_draw/../lv_misc/../lv_draw/lv_img_buf.h"
 8479              		.file 25 "lvgl/src/lv_draw/../lv_misc/../lv_draw/lv_img_decoder.h"
 8480              		.file 26 "lvgl/src/lv_draw/../lv_misc/../lv_draw/../lv_misc/lv_bidi.h"
 8481              		.file 27 "lvgl/src/lv_draw/../lv_misc/../lv_draw/lv_draw_label.h"
 8482              		.file 28 "lvgl/src/lv_draw/../lv_misc/../lv_draw/lv_draw_img.h"
 8483              		.file 29 "lvgl/src/lv_draw/../lv_core/../lv_hal/../lv_misc/lv_ll.h"
 8484              		.file 30 "lvgl/src/lv_draw/../lv_core/../lv_hal/../lv_misc/lv_task.h"
 8485              		.file 31 "lvgl/src/lv_draw/../lv_core/../lv_hal/lv_hal_disp.h"
 8486              		.file 32 "lvgl/src/lv_draw/../lv_core/lv_obj.h"
 8487              		.file 33 "lvgl/src/lv_draw/../lv_core/../lv_hal/lv_hal_indev.h"
 8488              		.file 34 "lvgl/src/lv_draw/../lv_core/lv_refr.h"
ARM GAS  D:\Temp\ccGEpo4V.s 			page 238


DEFINED SYMBOLS
                            *ABS*:0000000000000000 lv_draw_rect.c
  D:\Temp\ccGEpo4V.s:18     .text.shadow_blur_corner:0000000000000000 $t
  D:\Temp\ccGEpo4V.s:25     .text.shadow_blur_corner:0000000000000000 shadow_blur_corner
  D:\Temp\ccGEpo4V.s:424    .text.shadow_draw_corner_buf:0000000000000000 $t
  D:\Temp\ccGEpo4V.s:430    .text.shadow_draw_corner_buf:0000000000000000 shadow_draw_corner_buf
  D:\Temp\ccGEpo4V.s:893    .text.draw_shadow:0000000000000000 $t
  D:\Temp\ccGEpo4V.s:899    .text.draw_shadow:0000000000000000 draw_shadow
  D:\Temp\ccGEpo4V.s:4062   .text.draw_full_border:0000000000000000 $t
  D:\Temp\ccGEpo4V.s:4068   .text.draw_full_border:0000000000000000 draw_full_border
  D:\Temp\ccGEpo4V.s:5070   .text.draw_outline:0000000000000000 $t
  D:\Temp\ccGEpo4V.s:5076   .text.draw_outline:0000000000000000 draw_outline
  D:\Temp\ccGEpo4V.s:5267   .text.draw_border:0000000000000000 $t
  D:\Temp\ccGEpo4V.s:5273   .text.draw_border:0000000000000000 draw_border
  D:\Temp\ccGEpo4V.s:6039   .text.draw_pattern:0000000000000000 $t
  D:\Temp\ccGEpo4V.s:6045   .text.draw_pattern:0000000000000000 draw_pattern
  D:\Temp\ccGEpo4V.s:6616   .text.draw_value_str:0000000000000000 $t
  D:\Temp\ccGEpo4V.s:6622   .text.draw_value_str:0000000000000000 draw_value_str
  D:\Temp\ccGEpo4V.s:6797   .text.draw_bg:0000000000000000 $t
  D:\Temp\ccGEpo4V.s:6803   .text.draw_bg:0000000000000000 draw_bg
  D:\Temp\ccGEpo4V.s:8182   .text.lv_draw_rect_dsc_init:0000000000000000 $t
  D:\Temp\ccGEpo4V.s:8189   .text.lv_draw_rect_dsc_init:0000000000000000 lv_draw_rect_dsc_init
  D:\Temp\ccGEpo4V.s:8307   .text.lv_draw_rect_dsc_init:00000000000000cc $d
  D:\Temp\ccGEpo4V.s:8313   .text.lv_draw_rect:0000000000000000 $t
  D:\Temp\ccGEpo4V.s:8320   .text.lv_draw_rect:0000000000000000 lv_draw_rect
  D:\Temp\ccGEpo4V.s:8428   .text.lv_draw_px:0000000000000000 $t
  D:\Temp\ccGEpo4V.s:8435   .text.lv_draw_px:0000000000000000 lv_draw_px
  D:\Temp\ccGEpo4V.s:8452   .rodata:0000000000000000 $d

UNDEFINED SYMBOLS
_lv_mem_buf_get
_lv_memcpy
_lv_mem_buf_release
lv_draw_mask_radius_init
_lv_memset_00
_lv_memset_ff
_lv_refr_get_disp_refreshing
lv_disp_get_buf
_lv_area_intersect
lv_draw_mask_get_cnt
lv_draw_mask_add
_lv_area_is_in
_lv_blend_fill
lv_draw_mask_apply
lv_draw_mask_remove_id
_lv_memset
lv_img_src_get_type
lv_draw_label_dsc_init
_lv_txt_get_size
lv_draw_img
lv_img_decoder_get_info
lv_draw_img_dsc_init
lv_draw_label
_lv_area_align
_lv_blend_map
lv_font_montserrat_12
