ARM GAS  D:\Temp\ccIRM2yk.s 			page 1


   1              		.cpu cortex-m4
   2              		.eabi_attribute 27, 1
   3              		.eabi_attribute 28, 1
   4              		.eabi_attribute 20, 1
   5              		.eabi_attribute 21, 1
   6              		.eabi_attribute 23, 3
   7              		.eabi_attribute 24, 1
   8              		.eabi_attribute 25, 1
   9              		.eabi_attribute 26, 1
  10              		.eabi_attribute 30, 1
  11              		.eabi_attribute 34, 1
  12              		.eabi_attribute 18, 4
  13              		.file	"lv_dropdown.c"
  14              		.text
  15              	.Ltext0:
  16              		.cfi_sections	.debug_frame
  17              		.section	.text.lv_dropdown_get_style,"ax",%progbits
  18              		.align	1
  19              		.arch armv7e-m
  20              		.syntax unified
  21              		.thumb
  22              		.thumb_func
  23              		.fpu fpv4-sp-d16
  25              	lv_dropdown_get_style:
  26              	.LVL0:
  27              	.LFB505:
  28              		.file 1 "lvgl/src/lv_widgets/lv_dropdown.c"
   1:lvgl/src/lv_widgets/lv_dropdown.c **** /**
   2:lvgl/src/lv_widgets/lv_dropdown.c ****  * @file lv_ddlist.c
   3:lvgl/src/lv_widgets/lv_dropdown.c ****  *
   4:lvgl/src/lv_widgets/lv_dropdown.c ****  */
   5:lvgl/src/lv_widgets/lv_dropdown.c **** 
   6:lvgl/src/lv_widgets/lv_dropdown.c **** /*********************
   7:lvgl/src/lv_widgets/lv_dropdown.c ****  *      INCLUDES
   8:lvgl/src/lv_widgets/lv_dropdown.c ****  *********************/
   9:lvgl/src/lv_widgets/lv_dropdown.c **** #include "lv_dropdown.h"
  10:lvgl/src/lv_widgets/lv_dropdown.c **** #if LV_USE_DROPDOWN != 0
  11:lvgl/src/lv_widgets/lv_dropdown.c **** 
  12:lvgl/src/lv_widgets/lv_dropdown.c **** #include "../lv_misc/lv_debug.h"
  13:lvgl/src/lv_widgets/lv_dropdown.c **** #include "../lv_draw/lv_draw.h"
  14:lvgl/src/lv_widgets/lv_dropdown.c **** #include "../lv_core/lv_group.h"
  15:lvgl/src/lv_widgets/lv_dropdown.c **** #include "../lv_core/lv_indev.h"
  16:lvgl/src/lv_widgets/lv_dropdown.c **** #include "../lv_core/lv_disp.h"
  17:lvgl/src/lv_widgets/lv_dropdown.c **** #include "../lv_themes/lv_theme.h"
  18:lvgl/src/lv_widgets/lv_dropdown.c **** #include "../lv_font/lv_symbol_def.h"
  19:lvgl/src/lv_widgets/lv_dropdown.c **** #include "../lv_misc/lv_anim.h"
  20:lvgl/src/lv_widgets/lv_dropdown.c **** #include "../lv_misc/lv_math.h"
  21:lvgl/src/lv_widgets/lv_dropdown.c **** #include "../lv_misc/lv_txt_ap.h"
  22:lvgl/src/lv_widgets/lv_dropdown.c **** #include <string.h>
  23:lvgl/src/lv_widgets/lv_dropdown.c **** 
  24:lvgl/src/lv_widgets/lv_dropdown.c **** /*********************
  25:lvgl/src/lv_widgets/lv_dropdown.c ****  *      DEFINES
  26:lvgl/src/lv_widgets/lv_dropdown.c ****  *********************/
  27:lvgl/src/lv_widgets/lv_dropdown.c **** #define LV_OBJX_NAME "lv_dropdown"
  28:lvgl/src/lv_widgets/lv_dropdown.c **** 
  29:lvgl/src/lv_widgets/lv_dropdown.c **** #if LV_USE_ANIMATION == 0
  30:lvgl/src/lv_widgets/lv_dropdown.c ****     #undef LV_DROPDOWN_DEF_ANIM_TIME
ARM GAS  D:\Temp\ccIRM2yk.s 			page 2


  31:lvgl/src/lv_widgets/lv_dropdown.c ****     #define LV_DROPDOWN_DEF_ANIM_TIME 0 /*No animation*/
  32:lvgl/src/lv_widgets/lv_dropdown.c **** #endif
  33:lvgl/src/lv_widgets/lv_dropdown.c **** 
  34:lvgl/src/lv_widgets/lv_dropdown.c **** #define LV_DROPDOWN_PR_NONE 0xFFFF
  35:lvgl/src/lv_widgets/lv_dropdown.c **** 
  36:lvgl/src/lv_widgets/lv_dropdown.c **** /**********************
  37:lvgl/src/lv_widgets/lv_dropdown.c ****  *      TYPEDEFS
  38:lvgl/src/lv_widgets/lv_dropdown.c ****  **********************/
  39:lvgl/src/lv_widgets/lv_dropdown.c **** typedef struct {
  40:lvgl/src/lv_widgets/lv_dropdown.c ****     lv_page_ext_t page;
  41:lvgl/src/lv_widgets/lv_dropdown.c ****     lv_obj_t * ddlist;      /*Pointer to the ddlist where the page belongs*/
  42:lvgl/src/lv_widgets/lv_dropdown.c **** } lv_dropdown_page_ext_t;
  43:lvgl/src/lv_widgets/lv_dropdown.c **** 
  44:lvgl/src/lv_widgets/lv_dropdown.c **** /**********************
  45:lvgl/src/lv_widgets/lv_dropdown.c ****  *  STATIC PROTOTYPES
  46:lvgl/src/lv_widgets/lv_dropdown.c ****  **********************/
  47:lvgl/src/lv_widgets/lv_dropdown.c **** static lv_design_res_t lv_dropdown_design(lv_obj_t * ddlist, const lv_area_t * clip_area, lv_design
  48:lvgl/src/lv_widgets/lv_dropdown.c **** static lv_design_res_t lv_dropdown_page_design(lv_obj_t * page, const lv_area_t * clip_area, lv_des
  49:lvgl/src/lv_widgets/lv_dropdown.c **** static lv_res_t lv_dropdown_signal(lv_obj_t * ddlist, lv_signal_t sign, void * param);
  50:lvgl/src/lv_widgets/lv_dropdown.c **** static lv_res_t lv_dropdown_page_signal(lv_obj_t * page, lv_signal_t sign, void * param);
  51:lvgl/src/lv_widgets/lv_dropdown.c **** static lv_res_t lv_dropdown_page_scrl_signal(lv_obj_t * scrl, lv_signal_t sign, void * param);
  52:lvgl/src/lv_widgets/lv_dropdown.c **** static lv_style_list_t * lv_dropdown_get_style(lv_obj_t * ddlist, uint8_t part);
  53:lvgl/src/lv_widgets/lv_dropdown.c **** static void draw_box(lv_obj_t * ddlist, const lv_area_t * clip_area, uint16_t id, lv_state_t state)
  54:lvgl/src/lv_widgets/lv_dropdown.c **** static void draw_box_label(lv_obj_t * ddlist, const lv_area_t * clip_area, uint16_t id, lv_state_t 
  55:lvgl/src/lv_widgets/lv_dropdown.c **** static lv_res_t page_release_handler(lv_obj_t * page);
  56:lvgl/src/lv_widgets/lv_dropdown.c **** static void page_press_handler(lv_obj_t * page);
  57:lvgl/src/lv_widgets/lv_dropdown.c **** static uint16_t get_id_on_point(lv_obj_t * ddlist, lv_coord_t y);
  58:lvgl/src/lv_widgets/lv_dropdown.c **** static void position_to_selected(lv_obj_t * ddlist);
  59:lvgl/src/lv_widgets/lv_dropdown.c **** static lv_obj_t * get_label(const lv_obj_t * ddlist);
  60:lvgl/src/lv_widgets/lv_dropdown.c **** 
  61:lvgl/src/lv_widgets/lv_dropdown.c **** /**********************
  62:lvgl/src/lv_widgets/lv_dropdown.c ****  *  STATIC VARIABLES
  63:lvgl/src/lv_widgets/lv_dropdown.c ****  **********************/
  64:lvgl/src/lv_widgets/lv_dropdown.c **** static lv_signal_cb_t ancestor_signal;
  65:lvgl/src/lv_widgets/lv_dropdown.c **** static lv_signal_cb_t ancestor_page_signal;
  66:lvgl/src/lv_widgets/lv_dropdown.c **** static lv_signal_cb_t ancestor_page_scrl_signal;
  67:lvgl/src/lv_widgets/lv_dropdown.c **** static lv_design_cb_t ancestor_design;
  68:lvgl/src/lv_widgets/lv_dropdown.c **** static lv_design_cb_t ancestor_page_design;
  69:lvgl/src/lv_widgets/lv_dropdown.c **** 
  70:lvgl/src/lv_widgets/lv_dropdown.c **** /**********************
  71:lvgl/src/lv_widgets/lv_dropdown.c ****  *      MACROS
  72:lvgl/src/lv_widgets/lv_dropdown.c ****  **********************/
  73:lvgl/src/lv_widgets/lv_dropdown.c **** 
  74:lvgl/src/lv_widgets/lv_dropdown.c **** /**********************
  75:lvgl/src/lv_widgets/lv_dropdown.c ****  *   GLOBAL FUNCTIONS
  76:lvgl/src/lv_widgets/lv_dropdown.c ****  **********************/
  77:lvgl/src/lv_widgets/lv_dropdown.c **** 
  78:lvgl/src/lv_widgets/lv_dropdown.c **** /**
  79:lvgl/src/lv_widgets/lv_dropdown.c ****  * Create a drop down list objects
  80:lvgl/src/lv_widgets/lv_dropdown.c ****  * @param par pointer to an object, it will be the parent of the new drop down list
  81:lvgl/src/lv_widgets/lv_dropdown.c ****  * @param copy pointer to a drop down list object, if not NULL then the new object will be copied
  82:lvgl/src/lv_widgets/lv_dropdown.c ****  * from it
  83:lvgl/src/lv_widgets/lv_dropdown.c ****  * @return pointer to the created drop down list
  84:lvgl/src/lv_widgets/lv_dropdown.c ****  */
  85:lvgl/src/lv_widgets/lv_dropdown.c **** lv_obj_t * lv_dropdown_create(lv_obj_t * par, const lv_obj_t * copy)
  86:lvgl/src/lv_widgets/lv_dropdown.c **** {
  87:lvgl/src/lv_widgets/lv_dropdown.c ****     LV_LOG_TRACE("drop down list create started");
ARM GAS  D:\Temp\ccIRM2yk.s 			page 3


  88:lvgl/src/lv_widgets/lv_dropdown.c **** 
  89:lvgl/src/lv_widgets/lv_dropdown.c ****     /*Create the ancestor drop down list*/
  90:lvgl/src/lv_widgets/lv_dropdown.c ****     lv_obj_t * ddlist = lv_obj_create(par, copy);
  91:lvgl/src/lv_widgets/lv_dropdown.c ****     LV_ASSERT_MEM(ddlist);
  92:lvgl/src/lv_widgets/lv_dropdown.c ****     if(ddlist == NULL) return NULL;
  93:lvgl/src/lv_widgets/lv_dropdown.c **** 
  94:lvgl/src/lv_widgets/lv_dropdown.c ****     if(ancestor_signal == NULL) ancestor_signal = lv_obj_get_signal_cb(ddlist);
  95:lvgl/src/lv_widgets/lv_dropdown.c ****     if(ancestor_design == NULL) ancestor_design = lv_obj_get_design_cb(ddlist);
  96:lvgl/src/lv_widgets/lv_dropdown.c **** 
  97:lvgl/src/lv_widgets/lv_dropdown.c ****     /*Allocate the drop down list type specific extended data*/
  98:lvgl/src/lv_widgets/lv_dropdown.c ****     lv_dropdown_ext_t * ext = lv_obj_allocate_ext_attr(ddlist, sizeof(lv_dropdown_ext_t));
  99:lvgl/src/lv_widgets/lv_dropdown.c ****     LV_ASSERT_MEM(ext);
 100:lvgl/src/lv_widgets/lv_dropdown.c ****     if(ext == NULL) {
 101:lvgl/src/lv_widgets/lv_dropdown.c ****         lv_obj_del(ddlist);
 102:lvgl/src/lv_widgets/lv_dropdown.c ****         return NULL;
 103:lvgl/src/lv_widgets/lv_dropdown.c ****     }
 104:lvgl/src/lv_widgets/lv_dropdown.c **** 
 105:lvgl/src/lv_widgets/lv_dropdown.c ****     /*Initialize the allocated 'ext' */
 106:lvgl/src/lv_widgets/lv_dropdown.c ****     ext->page          = NULL;
 107:lvgl/src/lv_widgets/lv_dropdown.c ****     ext->options     = NULL;
 108:lvgl/src/lv_widgets/lv_dropdown.c ****     ext->symbol         = LV_SYMBOL_DOWN;
 109:lvgl/src/lv_widgets/lv_dropdown.c ****     ext->text         = "Select";
 110:lvgl/src/lv_widgets/lv_dropdown.c ****     ext->static_txt = 1;
 111:lvgl/src/lv_widgets/lv_dropdown.c ****     ext->show_selected   = 1;
 112:lvgl/src/lv_widgets/lv_dropdown.c ****     ext->sel_opt_id      = 0;
 113:lvgl/src/lv_widgets/lv_dropdown.c ****     ext->sel_opt_id_orig = 0;
 114:lvgl/src/lv_widgets/lv_dropdown.c ****     ext->pr_opt_id = LV_DROPDOWN_PR_NONE;
 115:lvgl/src/lv_widgets/lv_dropdown.c ****     ext->option_cnt      = 0;
 116:lvgl/src/lv_widgets/lv_dropdown.c ****     ext->dir = LV_DROPDOWN_DIR_DOWN;
 117:lvgl/src/lv_widgets/lv_dropdown.c ****     ext->max_height = (3 * lv_disp_get_ver_res(NULL)) / 4;
 118:lvgl/src/lv_widgets/lv_dropdown.c ****     lv_style_list_init(&ext->style_page);
 119:lvgl/src/lv_widgets/lv_dropdown.c ****     lv_style_list_init(&ext->style_scrlbar);
 120:lvgl/src/lv_widgets/lv_dropdown.c ****     lv_style_list_init(&ext->style_selected);
 121:lvgl/src/lv_widgets/lv_dropdown.c **** 
 122:lvgl/src/lv_widgets/lv_dropdown.c ****     /*The signal and design functions are not copied so set them here*/
 123:lvgl/src/lv_widgets/lv_dropdown.c ****     lv_obj_set_signal_cb(ddlist, lv_dropdown_signal);
 124:lvgl/src/lv_widgets/lv_dropdown.c ****     lv_obj_set_design_cb(ddlist, lv_dropdown_design);
 125:lvgl/src/lv_widgets/lv_dropdown.c **** 
 126:lvgl/src/lv_widgets/lv_dropdown.c ****     /*Init the new drop down list drop down list*/
 127:lvgl/src/lv_widgets/lv_dropdown.c ****     if(copy == NULL) {
 128:lvgl/src/lv_widgets/lv_dropdown.c ****         lv_obj_set_width(ddlist, LV_DPX(150));
 129:lvgl/src/lv_widgets/lv_dropdown.c ****         lv_dropdown_set_options_static(ddlist, "Option 1\nOption 2\nOption 3");
 130:lvgl/src/lv_widgets/lv_dropdown.c ****         lv_theme_apply(ddlist, LV_THEME_DROPDOWN);
 131:lvgl/src/lv_widgets/lv_dropdown.c ****     }
 132:lvgl/src/lv_widgets/lv_dropdown.c ****     /*Copy an existing drop down list*/
 133:lvgl/src/lv_widgets/lv_dropdown.c ****     else {
 134:lvgl/src/lv_widgets/lv_dropdown.c ****         lv_dropdown_ext_t * copy_ext = lv_obj_get_ext_attr(copy);
 135:lvgl/src/lv_widgets/lv_dropdown.c ****         if(copy_ext->static_txt == 0)
 136:lvgl/src/lv_widgets/lv_dropdown.c ****             lv_dropdown_set_options(ddlist, lv_dropdown_get_options(copy));
 137:lvgl/src/lv_widgets/lv_dropdown.c ****         else
 138:lvgl/src/lv_widgets/lv_dropdown.c ****             lv_dropdown_set_options_static(ddlist, lv_dropdown_get_options(copy));
 139:lvgl/src/lv_widgets/lv_dropdown.c ****         ext->option_cnt        = copy_ext->option_cnt;
 140:lvgl/src/lv_widgets/lv_dropdown.c ****         ext->sel_opt_id     = copy_ext->sel_opt_id;
 141:lvgl/src/lv_widgets/lv_dropdown.c ****         ext->sel_opt_id_orig = copy_ext->sel_opt_id;
 142:lvgl/src/lv_widgets/lv_dropdown.c ****         ext->symbol           = copy_ext->symbol;
 143:lvgl/src/lv_widgets/lv_dropdown.c ****         ext->max_height      = copy_ext->max_height;
 144:lvgl/src/lv_widgets/lv_dropdown.c ****         ext->text      = copy_ext->text;
ARM GAS  D:\Temp\ccIRM2yk.s 			page 4


 145:lvgl/src/lv_widgets/lv_dropdown.c ****         ext->dir      = copy_ext->dir;
 146:lvgl/src/lv_widgets/lv_dropdown.c ****         ext->show_selected      = copy_ext->show_selected;
 147:lvgl/src/lv_widgets/lv_dropdown.c ****         lv_style_list_copy(&ext->style_page, &copy_ext->style_page);
 148:lvgl/src/lv_widgets/lv_dropdown.c ****         lv_style_list_copy(&ext->style_selected, &copy_ext->style_selected);
 149:lvgl/src/lv_widgets/lv_dropdown.c ****         lv_style_list_copy(&ext->style_scrlbar, &copy_ext->style_scrlbar);
 150:lvgl/src/lv_widgets/lv_dropdown.c ****     }
 151:lvgl/src/lv_widgets/lv_dropdown.c **** 
 152:lvgl/src/lv_widgets/lv_dropdown.c ****     LV_LOG_INFO("drop down list created");
 153:lvgl/src/lv_widgets/lv_dropdown.c **** 
 154:lvgl/src/lv_widgets/lv_dropdown.c ****     return ddlist;
 155:lvgl/src/lv_widgets/lv_dropdown.c **** }
 156:lvgl/src/lv_widgets/lv_dropdown.c **** 
 157:lvgl/src/lv_widgets/lv_dropdown.c **** /*=====================
 158:lvgl/src/lv_widgets/lv_dropdown.c ****  * Setter functions
 159:lvgl/src/lv_widgets/lv_dropdown.c ****  *====================*/
 160:lvgl/src/lv_widgets/lv_dropdown.c **** 
 161:lvgl/src/lv_widgets/lv_dropdown.c **** /**
 162:lvgl/src/lv_widgets/lv_dropdown.c ****  * Set text of the ddlist (Displayed on the button if `show_selected = false`)
 163:lvgl/src/lv_widgets/lv_dropdown.c ****  * @param ddlist pointer to a drop down list object
 164:lvgl/src/lv_widgets/lv_dropdown.c ****  * @param txt the text as a string (Only it's pointer is saved)
 165:lvgl/src/lv_widgets/lv_dropdown.c ****  */
 166:lvgl/src/lv_widgets/lv_dropdown.c **** void lv_dropdown_set_text(lv_obj_t * ddlist, const char * txt)
 167:lvgl/src/lv_widgets/lv_dropdown.c **** {
 168:lvgl/src/lv_widgets/lv_dropdown.c ****     LV_ASSERT_OBJ(ddlist, LV_OBJX_NAME);
 169:lvgl/src/lv_widgets/lv_dropdown.c ****     lv_dropdown_ext_t * ext = lv_obj_get_ext_attr(ddlist);
 170:lvgl/src/lv_widgets/lv_dropdown.c ****     if(ext->text == txt) return;
 171:lvgl/src/lv_widgets/lv_dropdown.c **** 
 172:lvgl/src/lv_widgets/lv_dropdown.c ****     ext->text = txt;
 173:lvgl/src/lv_widgets/lv_dropdown.c **** 
 174:lvgl/src/lv_widgets/lv_dropdown.c ****     lv_obj_invalidate(ddlist);
 175:lvgl/src/lv_widgets/lv_dropdown.c **** }
 176:lvgl/src/lv_widgets/lv_dropdown.c **** 
 177:lvgl/src/lv_widgets/lv_dropdown.c **** /**
 178:lvgl/src/lv_widgets/lv_dropdown.c ****  * Clear any options in a drop down list.  Static or dynamic.
 179:lvgl/src/lv_widgets/lv_dropdown.c ****  * @param ddlist pointer to drop down list object
 180:lvgl/src/lv_widgets/lv_dropdown.c ****  */
 181:lvgl/src/lv_widgets/lv_dropdown.c **** void lv_dropdown_clear_options(lv_obj_t * ddlist)
 182:lvgl/src/lv_widgets/lv_dropdown.c **** {
 183:lvgl/src/lv_widgets/lv_dropdown.c ****     LV_ASSERT_OBJ(ddlist, LV_OBJX_NAME);
 184:lvgl/src/lv_widgets/lv_dropdown.c ****     lv_dropdown_ext_t * ext = lv_obj_get_ext_attr(ddlist);
 185:lvgl/src/lv_widgets/lv_dropdown.c ****     if(ext->options == NULL) return;
 186:lvgl/src/lv_widgets/lv_dropdown.c **** 
 187:lvgl/src/lv_widgets/lv_dropdown.c ****     if(ext->static_txt == 0)
 188:lvgl/src/lv_widgets/lv_dropdown.c ****         lv_mem_free(ext->options);
 189:lvgl/src/lv_widgets/lv_dropdown.c **** 
 190:lvgl/src/lv_widgets/lv_dropdown.c ****     ext->options = NULL;
 191:lvgl/src/lv_widgets/lv_dropdown.c ****     ext->static_txt = 0;
 192:lvgl/src/lv_widgets/lv_dropdown.c ****     ext->option_cnt = 0;
 193:lvgl/src/lv_widgets/lv_dropdown.c **** 
 194:lvgl/src/lv_widgets/lv_dropdown.c ****     lv_obj_invalidate(ddlist);
 195:lvgl/src/lv_widgets/lv_dropdown.c **** }
 196:lvgl/src/lv_widgets/lv_dropdown.c **** 
 197:lvgl/src/lv_widgets/lv_dropdown.c **** /**
 198:lvgl/src/lv_widgets/lv_dropdown.c ****  * Set the options in a drop down list from a string
 199:lvgl/src/lv_widgets/lv_dropdown.c ****  * @param ddlist pointer to drop down list object
 200:lvgl/src/lv_widgets/lv_dropdown.c ****  * @param options a string with '\n' separated options. E.g. "One\nTwo\nThree"
 201:lvgl/src/lv_widgets/lv_dropdown.c ****  * The options string can be destroyed after calling this function
ARM GAS  D:\Temp\ccIRM2yk.s 			page 5


 202:lvgl/src/lv_widgets/lv_dropdown.c ****  */
 203:lvgl/src/lv_widgets/lv_dropdown.c **** void lv_dropdown_set_options(lv_obj_t * ddlist, const char * options)
 204:lvgl/src/lv_widgets/lv_dropdown.c **** {
 205:lvgl/src/lv_widgets/lv_dropdown.c ****     LV_ASSERT_OBJ(ddlist, LV_OBJX_NAME);
 206:lvgl/src/lv_widgets/lv_dropdown.c ****     LV_ASSERT_STR(options);
 207:lvgl/src/lv_widgets/lv_dropdown.c **** 
 208:lvgl/src/lv_widgets/lv_dropdown.c ****     lv_dropdown_ext_t * ext = lv_obj_get_ext_attr(ddlist);
 209:lvgl/src/lv_widgets/lv_dropdown.c **** 
 210:lvgl/src/lv_widgets/lv_dropdown.c ****     /*Count the '\n'-s to determine the number of options*/
 211:lvgl/src/lv_widgets/lv_dropdown.c ****     ext->option_cnt = 0;
 212:lvgl/src/lv_widgets/lv_dropdown.c ****     uint32_t i;
 213:lvgl/src/lv_widgets/lv_dropdown.c ****     for(i = 0; options[i] != '\0'; i++) {
 214:lvgl/src/lv_widgets/lv_dropdown.c ****         if(options[i] == '\n') ext->option_cnt++;
 215:lvgl/src/lv_widgets/lv_dropdown.c ****     }
 216:lvgl/src/lv_widgets/lv_dropdown.c ****     ext->option_cnt++;   /*Last option has no `\n`*/
 217:lvgl/src/lv_widgets/lv_dropdown.c ****     ext->sel_opt_id      = 0;
 218:lvgl/src/lv_widgets/lv_dropdown.c ****     ext->sel_opt_id_orig = 0;
 219:lvgl/src/lv_widgets/lv_dropdown.c **** 
 220:lvgl/src/lv_widgets/lv_dropdown.c ****     /*Allocate space for the new text*/
 221:lvgl/src/lv_widgets/lv_dropdown.c **** #if LV_USE_ARABIC_PERSIAN_CHARS == 0
 222:lvgl/src/lv_widgets/lv_dropdown.c ****     size_t len = strlen(options) + 1;
 223:lvgl/src/lv_widgets/lv_dropdown.c **** #else
 224:lvgl/src/lv_widgets/lv_dropdown.c ****     size_t len = _lv_txt_ap_calc_bytes_cnt(options) + 1;
 225:lvgl/src/lv_widgets/lv_dropdown.c **** #endif
 226:lvgl/src/lv_widgets/lv_dropdown.c **** 
 227:lvgl/src/lv_widgets/lv_dropdown.c ****     if(ext->options != NULL && ext->static_txt == 0) {
 228:lvgl/src/lv_widgets/lv_dropdown.c ****         lv_mem_free(ext->options);
 229:lvgl/src/lv_widgets/lv_dropdown.c ****         ext->options = NULL;
 230:lvgl/src/lv_widgets/lv_dropdown.c ****     }
 231:lvgl/src/lv_widgets/lv_dropdown.c **** 
 232:lvgl/src/lv_widgets/lv_dropdown.c ****     ext->options = lv_mem_alloc(len);
 233:lvgl/src/lv_widgets/lv_dropdown.c **** 
 234:lvgl/src/lv_widgets/lv_dropdown.c ****     LV_ASSERT_MEM(ext->options);
 235:lvgl/src/lv_widgets/lv_dropdown.c ****     if(ext->options == NULL) return;
 236:lvgl/src/lv_widgets/lv_dropdown.c **** 
 237:lvgl/src/lv_widgets/lv_dropdown.c **** #if LV_USE_ARABIC_PERSIAN_CHARS == 0
 238:lvgl/src/lv_widgets/lv_dropdown.c ****     strcpy(ext->options, options);
 239:lvgl/src/lv_widgets/lv_dropdown.c **** #else
 240:lvgl/src/lv_widgets/lv_dropdown.c ****     _lv_txt_ap_proc(options, ext->options);
 241:lvgl/src/lv_widgets/lv_dropdown.c **** #endif
 242:lvgl/src/lv_widgets/lv_dropdown.c **** 
 243:lvgl/src/lv_widgets/lv_dropdown.c ****     /*Now the text is dynamically allocated*/
 244:lvgl/src/lv_widgets/lv_dropdown.c ****     ext->static_txt = 0;
 245:lvgl/src/lv_widgets/lv_dropdown.c **** }
 246:lvgl/src/lv_widgets/lv_dropdown.c **** 
 247:lvgl/src/lv_widgets/lv_dropdown.c **** /**
 248:lvgl/src/lv_widgets/lv_dropdown.c ****  * Set the options in a drop down list from a string
 249:lvgl/src/lv_widgets/lv_dropdown.c ****  * @param ddlist pointer to drop down list object
 250:lvgl/src/lv_widgets/lv_dropdown.c ****  * @param options a static string with '\n' separated options. E.g. "One\nTwo\nThree"
 251:lvgl/src/lv_widgets/lv_dropdown.c ****  */
 252:lvgl/src/lv_widgets/lv_dropdown.c **** void lv_dropdown_set_options_static(lv_obj_t * ddlist, const char * options)
 253:lvgl/src/lv_widgets/lv_dropdown.c **** {
 254:lvgl/src/lv_widgets/lv_dropdown.c ****     LV_ASSERT_OBJ(ddlist, LV_OBJX_NAME);
 255:lvgl/src/lv_widgets/lv_dropdown.c ****     LV_ASSERT_STR(options);
 256:lvgl/src/lv_widgets/lv_dropdown.c **** 
 257:lvgl/src/lv_widgets/lv_dropdown.c ****     lv_dropdown_ext_t * ext = lv_obj_get_ext_attr(ddlist);
 258:lvgl/src/lv_widgets/lv_dropdown.c **** 
ARM GAS  D:\Temp\ccIRM2yk.s 			page 6


 259:lvgl/src/lv_widgets/lv_dropdown.c ****     /*Count the '\n'-s to determine the number of options*/
 260:lvgl/src/lv_widgets/lv_dropdown.c ****     ext->option_cnt = 0;
 261:lvgl/src/lv_widgets/lv_dropdown.c ****     uint32_t i;
 262:lvgl/src/lv_widgets/lv_dropdown.c ****     for(i = 0; options[i] != '\0'; i++) {
 263:lvgl/src/lv_widgets/lv_dropdown.c ****         if(options[i] == '\n') ext->option_cnt++;
 264:lvgl/src/lv_widgets/lv_dropdown.c ****     }
 265:lvgl/src/lv_widgets/lv_dropdown.c ****     ext->option_cnt++;   /*Last option has no `\n`*/
 266:lvgl/src/lv_widgets/lv_dropdown.c ****     ext->sel_opt_id      = 0;
 267:lvgl/src/lv_widgets/lv_dropdown.c ****     ext->sel_opt_id_orig = 0;
 268:lvgl/src/lv_widgets/lv_dropdown.c **** 
 269:lvgl/src/lv_widgets/lv_dropdown.c ****     if(ext->static_txt == 0 && ext->options != NULL) {
 270:lvgl/src/lv_widgets/lv_dropdown.c ****         lv_mem_free(ext->options);
 271:lvgl/src/lv_widgets/lv_dropdown.c ****         ext->options = NULL;
 272:lvgl/src/lv_widgets/lv_dropdown.c ****     }
 273:lvgl/src/lv_widgets/lv_dropdown.c **** 
 274:lvgl/src/lv_widgets/lv_dropdown.c ****     ext->static_txt = 1;
 275:lvgl/src/lv_widgets/lv_dropdown.c ****     ext->options = (char *)options;
 276:lvgl/src/lv_widgets/lv_dropdown.c **** }
 277:lvgl/src/lv_widgets/lv_dropdown.c **** 
 278:lvgl/src/lv_widgets/lv_dropdown.c **** /**
 279:lvgl/src/lv_widgets/lv_dropdown.c ****  * Add an options to a drop down list from a string.  Only works for dynamic options.
 280:lvgl/src/lv_widgets/lv_dropdown.c ****  * @param ddlist pointer to drop down list object
 281:lvgl/src/lv_widgets/lv_dropdown.c ****  * @param option a string without '\n'. E.g. "Four"
 282:lvgl/src/lv_widgets/lv_dropdown.c ****  * @param pos the insert position, indexed from 0, LV_DROPDOWN_POS_LAST = end of string
 283:lvgl/src/lv_widgets/lv_dropdown.c ****  */
 284:lvgl/src/lv_widgets/lv_dropdown.c **** void lv_dropdown_add_option(lv_obj_t * ddlist, const char * option, uint32_t pos)
 285:lvgl/src/lv_widgets/lv_dropdown.c **** {
 286:lvgl/src/lv_widgets/lv_dropdown.c ****     LV_ASSERT_OBJ(ddlist, LV_OBJX_NAME);
 287:lvgl/src/lv_widgets/lv_dropdown.c ****     LV_ASSERT_STR(option);
 288:lvgl/src/lv_widgets/lv_dropdown.c **** 
 289:lvgl/src/lv_widgets/lv_dropdown.c ****     lv_dropdown_ext_t * ext = lv_obj_get_ext_attr(ddlist);
 290:lvgl/src/lv_widgets/lv_dropdown.c **** 
 291:lvgl/src/lv_widgets/lv_dropdown.c ****     /*Convert static options to dynamic*/
 292:lvgl/src/lv_widgets/lv_dropdown.c ****     if(ext->static_txt != 0) {
 293:lvgl/src/lv_widgets/lv_dropdown.c ****         char * static_options = ext->options;
 294:lvgl/src/lv_widgets/lv_dropdown.c ****         size_t len = strlen(static_options) + 1;
 295:lvgl/src/lv_widgets/lv_dropdown.c **** 
 296:lvgl/src/lv_widgets/lv_dropdown.c ****         ext->options = lv_mem_alloc(len);
 297:lvgl/src/lv_widgets/lv_dropdown.c ****         LV_ASSERT_MEM(ext->options);
 298:lvgl/src/lv_widgets/lv_dropdown.c ****         if(ext->options == NULL) return;
 299:lvgl/src/lv_widgets/lv_dropdown.c **** 
 300:lvgl/src/lv_widgets/lv_dropdown.c ****         strcpy(ext->options, static_options);
 301:lvgl/src/lv_widgets/lv_dropdown.c ****         ext->static_txt = 0;
 302:lvgl/src/lv_widgets/lv_dropdown.c ****     }
 303:lvgl/src/lv_widgets/lv_dropdown.c **** 
 304:lvgl/src/lv_widgets/lv_dropdown.c ****     /*Allocate space for the new option*/
 305:lvgl/src/lv_widgets/lv_dropdown.c ****     size_t old_len = (ext->options == NULL) ? 0 : strlen(ext->options);
 306:lvgl/src/lv_widgets/lv_dropdown.c **** #if LV_USE_ARABIC_PERSIAN_CHARS == 0
 307:lvgl/src/lv_widgets/lv_dropdown.c ****     size_t ins_len = strlen(option) + 1;
 308:lvgl/src/lv_widgets/lv_dropdown.c **** #else
 309:lvgl/src/lv_widgets/lv_dropdown.c ****     size_t ins_len = _lv_txt_ap_calc_bytes_cnt(option) + 1;
 310:lvgl/src/lv_widgets/lv_dropdown.c **** #endif
 311:lvgl/src/lv_widgets/lv_dropdown.c **** 
 312:lvgl/src/lv_widgets/lv_dropdown.c ****     size_t new_len = ins_len + old_len + 2; /* +2 for terminating NULL and possible \n */
 313:lvgl/src/lv_widgets/lv_dropdown.c ****     ext->options        = lv_mem_realloc(ext->options, new_len + 1);
 314:lvgl/src/lv_widgets/lv_dropdown.c ****     LV_ASSERT_MEM(ext->options);
 315:lvgl/src/lv_widgets/lv_dropdown.c ****     if(ext->options == NULL) return;
ARM GAS  D:\Temp\ccIRM2yk.s 			page 7


 316:lvgl/src/lv_widgets/lv_dropdown.c **** 
 317:lvgl/src/lv_widgets/lv_dropdown.c ****     ext->options[old_len] = 0;
 318:lvgl/src/lv_widgets/lv_dropdown.c **** 
 319:lvgl/src/lv_widgets/lv_dropdown.c ****     /*Find the insert character position*/
 320:lvgl/src/lv_widgets/lv_dropdown.c ****     uint32_t insert_pos = old_len;
 321:lvgl/src/lv_widgets/lv_dropdown.c ****     if(pos != LV_DROPDOWN_POS_LAST) {
 322:lvgl/src/lv_widgets/lv_dropdown.c ****         uint32_t opcnt = 0;
 323:lvgl/src/lv_widgets/lv_dropdown.c ****         for(insert_pos = 0; ext->options[insert_pos] != 0; insert_pos++) {
 324:lvgl/src/lv_widgets/lv_dropdown.c ****             if(opcnt == pos)
 325:lvgl/src/lv_widgets/lv_dropdown.c ****                 break;
 326:lvgl/src/lv_widgets/lv_dropdown.c ****             if(ext->options[insert_pos] == '\n')
 327:lvgl/src/lv_widgets/lv_dropdown.c ****                 opcnt++;
 328:lvgl/src/lv_widgets/lv_dropdown.c ****         }
 329:lvgl/src/lv_widgets/lv_dropdown.c ****     }
 330:lvgl/src/lv_widgets/lv_dropdown.c **** 
 331:lvgl/src/lv_widgets/lv_dropdown.c ****     /*Add delimiter to existing options*/
 332:lvgl/src/lv_widgets/lv_dropdown.c ****     if((insert_pos > 0) && (pos >= ext->option_cnt))
 333:lvgl/src/lv_widgets/lv_dropdown.c ****         _lv_txt_ins(ext->options, _lv_txt_encoded_get_char_id(ext->options, insert_pos++), "\n");
 334:lvgl/src/lv_widgets/lv_dropdown.c **** 
 335:lvgl/src/lv_widgets/lv_dropdown.c ****     /*Insert the new option, adding \n if necessary*/
 336:lvgl/src/lv_widgets/lv_dropdown.c ****     char * ins_buf = _lv_mem_buf_get(ins_len + 2); /* + 2 for terminating NULL and possible \n */
 337:lvgl/src/lv_widgets/lv_dropdown.c ****     LV_ASSERT_MEM(ins_buf);
 338:lvgl/src/lv_widgets/lv_dropdown.c ****     if(ins_buf == NULL) return;
 339:lvgl/src/lv_widgets/lv_dropdown.c **** #if LV_USE_ARABIC_PERSIAN_CHARS == 0
 340:lvgl/src/lv_widgets/lv_dropdown.c ****     strcpy(ins_buf, option);
 341:lvgl/src/lv_widgets/lv_dropdown.c **** #else
 342:lvgl/src/lv_widgets/lv_dropdown.c ****     _lv_txt_ap_proc(option, ins_buf);
 343:lvgl/src/lv_widgets/lv_dropdown.c **** #endif
 344:lvgl/src/lv_widgets/lv_dropdown.c ****     if(pos < ext->option_cnt) strcat(ins_buf, "\n");
 345:lvgl/src/lv_widgets/lv_dropdown.c **** 
 346:lvgl/src/lv_widgets/lv_dropdown.c ****     _lv_txt_ins(ext->options, _lv_txt_encoded_get_char_id(ext->options, insert_pos), ins_buf);
 347:lvgl/src/lv_widgets/lv_dropdown.c ****     _lv_mem_buf_release(ins_buf);
 348:lvgl/src/lv_widgets/lv_dropdown.c **** 
 349:lvgl/src/lv_widgets/lv_dropdown.c ****     ext->option_cnt++;
 350:lvgl/src/lv_widgets/lv_dropdown.c **** 
 351:lvgl/src/lv_widgets/lv_dropdown.c ****     lv_obj_invalidate(ddlist);
 352:lvgl/src/lv_widgets/lv_dropdown.c **** }
 353:lvgl/src/lv_widgets/lv_dropdown.c **** 
 354:lvgl/src/lv_widgets/lv_dropdown.c **** /**
 355:lvgl/src/lv_widgets/lv_dropdown.c ****  * Set the selected option
 356:lvgl/src/lv_widgets/lv_dropdown.c ****  * @param ddlist pointer to drop down list object
 357:lvgl/src/lv_widgets/lv_dropdown.c ****  * @param sel_opt id of the selected option (0 ... number of option - 1);
 358:lvgl/src/lv_widgets/lv_dropdown.c ****  */
 359:lvgl/src/lv_widgets/lv_dropdown.c **** void lv_dropdown_set_selected(lv_obj_t * ddlist, uint16_t sel_opt)
 360:lvgl/src/lv_widgets/lv_dropdown.c **** {
 361:lvgl/src/lv_widgets/lv_dropdown.c ****     LV_ASSERT_OBJ(ddlist, LV_OBJX_NAME);
 362:lvgl/src/lv_widgets/lv_dropdown.c **** 
 363:lvgl/src/lv_widgets/lv_dropdown.c ****     lv_dropdown_ext_t * ext = lv_obj_get_ext_attr(ddlist);
 364:lvgl/src/lv_widgets/lv_dropdown.c ****     if(ext->sel_opt_id == sel_opt) return;
 365:lvgl/src/lv_widgets/lv_dropdown.c **** 
 366:lvgl/src/lv_widgets/lv_dropdown.c ****     ext->sel_opt_id      = sel_opt < ext->option_cnt ? sel_opt : ext->option_cnt - 1;
 367:lvgl/src/lv_widgets/lv_dropdown.c ****     ext->sel_opt_id_orig = ext->sel_opt_id;
 368:lvgl/src/lv_widgets/lv_dropdown.c **** 
 369:lvgl/src/lv_widgets/lv_dropdown.c ****     lv_obj_invalidate(ddlist);
 370:lvgl/src/lv_widgets/lv_dropdown.c **** }
 371:lvgl/src/lv_widgets/lv_dropdown.c **** 
 372:lvgl/src/lv_widgets/lv_dropdown.c **** /**
ARM GAS  D:\Temp\ccIRM2yk.s 			page 8


 373:lvgl/src/lv_widgets/lv_dropdown.c ****  * Set the direction of the a drop down list
 374:lvgl/src/lv_widgets/lv_dropdown.c ****  * @param ddlist pointer to a drop down list object
 375:lvgl/src/lv_widgets/lv_dropdown.c ****  * @param dir LV_DROPDOWN_DIR_LEF/RIGHT/TOP/BOTTOM
 376:lvgl/src/lv_widgets/lv_dropdown.c ****  */
 377:lvgl/src/lv_widgets/lv_dropdown.c **** void lv_dropdown_set_dir(lv_obj_t * ddlist, lv_dropdown_dir_t dir)
 378:lvgl/src/lv_widgets/lv_dropdown.c **** {
 379:lvgl/src/lv_widgets/lv_dropdown.c ****     LV_ASSERT_OBJ(ddlist, LV_OBJX_NAME);
 380:lvgl/src/lv_widgets/lv_dropdown.c **** 
 381:lvgl/src/lv_widgets/lv_dropdown.c ****     lv_dropdown_ext_t * ext = lv_obj_get_ext_attr(ddlist);
 382:lvgl/src/lv_widgets/lv_dropdown.c ****     if(ext->dir == dir) return;
 383:lvgl/src/lv_widgets/lv_dropdown.c **** 
 384:lvgl/src/lv_widgets/lv_dropdown.c ****     ext->dir = dir;
 385:lvgl/src/lv_widgets/lv_dropdown.c **** 
 386:lvgl/src/lv_widgets/lv_dropdown.c ****     lv_obj_invalidate(ddlist);
 387:lvgl/src/lv_widgets/lv_dropdown.c **** }
 388:lvgl/src/lv_widgets/lv_dropdown.c **** 
 389:lvgl/src/lv_widgets/lv_dropdown.c **** /**
 390:lvgl/src/lv_widgets/lv_dropdown.c ****  * Set the maximal height for the drop down list
 391:lvgl/src/lv_widgets/lv_dropdown.c ****  * @param ddlist pointer to a drop down list
 392:lvgl/src/lv_widgets/lv_dropdown.c ****  * @param h the maximal height
 393:lvgl/src/lv_widgets/lv_dropdown.c ****  */
 394:lvgl/src/lv_widgets/lv_dropdown.c **** void lv_dropdown_set_max_height(lv_obj_t * ddlist, lv_coord_t h)
 395:lvgl/src/lv_widgets/lv_dropdown.c **** {
 396:lvgl/src/lv_widgets/lv_dropdown.c ****     LV_ASSERT_OBJ(ddlist, LV_OBJX_NAME);
 397:lvgl/src/lv_widgets/lv_dropdown.c **** 
 398:lvgl/src/lv_widgets/lv_dropdown.c ****     lv_dropdown_ext_t * ext = lv_obj_get_ext_attr(ddlist);
 399:lvgl/src/lv_widgets/lv_dropdown.c ****     if(ext->max_height == h) return;
 400:lvgl/src/lv_widgets/lv_dropdown.c **** 
 401:lvgl/src/lv_widgets/lv_dropdown.c ****     ext->max_height = h;
 402:lvgl/src/lv_widgets/lv_dropdown.c **** 
 403:lvgl/src/lv_widgets/lv_dropdown.c ****     if(ext->page) {
 404:lvgl/src/lv_widgets/lv_dropdown.c ****         if(h == 0) {
 405:lvgl/src/lv_widgets/lv_dropdown.c ****             lv_cont_set_fit(ext->page, LV_FIT_TIGHT);
 406:lvgl/src/lv_widgets/lv_dropdown.c ****         }
 407:lvgl/src/lv_widgets/lv_dropdown.c ****         else {
 408:lvgl/src/lv_widgets/lv_dropdown.c ****             lv_cont_set_fit2(ext->page, LV_FIT_TIGHT, LV_FIT_NONE);
 409:lvgl/src/lv_widgets/lv_dropdown.c ****             lv_obj_set_height(ext->page, h);
 410:lvgl/src/lv_widgets/lv_dropdown.c ****         }
 411:lvgl/src/lv_widgets/lv_dropdown.c ****     }
 412:lvgl/src/lv_widgets/lv_dropdown.c **** }
 413:lvgl/src/lv_widgets/lv_dropdown.c **** 
 414:lvgl/src/lv_widgets/lv_dropdown.c **** /**
 415:lvgl/src/lv_widgets/lv_dropdown.c ****  * Set an arrow or other symbol to display when the drop-down list is closed.
 416:lvgl/src/lv_widgets/lv_dropdown.c ****  * @param ddlist pointer to drop down list object
 417:lvgl/src/lv_widgets/lv_dropdown.c ****  * @param symbol a text like `LV_SYMBOL_DOWN` or NULL to not draw icon
 418:lvgl/src/lv_widgets/lv_dropdown.c ****  */
 419:lvgl/src/lv_widgets/lv_dropdown.c **** void lv_dropdown_set_symbol(lv_obj_t * ddlist, const char * symbol)
 420:lvgl/src/lv_widgets/lv_dropdown.c **** {
 421:lvgl/src/lv_widgets/lv_dropdown.c ****     LV_ASSERT_OBJ(ddlist, LV_OBJX_NAME);
 422:lvgl/src/lv_widgets/lv_dropdown.c **** 
 423:lvgl/src/lv_widgets/lv_dropdown.c ****     lv_dropdown_ext_t * ext = lv_obj_get_ext_attr(ddlist);
 424:lvgl/src/lv_widgets/lv_dropdown.c ****     ext->symbol = symbol;
 425:lvgl/src/lv_widgets/lv_dropdown.c ****     lv_obj_invalidate(ddlist);
 426:lvgl/src/lv_widgets/lv_dropdown.c **** }
 427:lvgl/src/lv_widgets/lv_dropdown.c **** 
 428:lvgl/src/lv_widgets/lv_dropdown.c **** /**
 429:lvgl/src/lv_widgets/lv_dropdown.c ****  * Set whether the ddlist highlight the last selected option and display its text or not
ARM GAS  D:\Temp\ccIRM2yk.s 			page 9


 430:lvgl/src/lv_widgets/lv_dropdown.c ****  * @param ddlist pointer to a drop down list object
 431:lvgl/src/lv_widgets/lv_dropdown.c ****  * @param show true/false
 432:lvgl/src/lv_widgets/lv_dropdown.c ****  */
 433:lvgl/src/lv_widgets/lv_dropdown.c **** void lv_dropdown_set_show_selected(lv_obj_t * ddlist, bool show)
 434:lvgl/src/lv_widgets/lv_dropdown.c **** {
 435:lvgl/src/lv_widgets/lv_dropdown.c ****     LV_ASSERT_OBJ(ddlist, LV_OBJX_NAME);
 436:lvgl/src/lv_widgets/lv_dropdown.c **** 
 437:lvgl/src/lv_widgets/lv_dropdown.c ****     lv_dropdown_ext_t * ext = lv_obj_get_ext_attr(ddlist);
 438:lvgl/src/lv_widgets/lv_dropdown.c ****     if(ext->show_selected == show) return;
 439:lvgl/src/lv_widgets/lv_dropdown.c **** 
 440:lvgl/src/lv_widgets/lv_dropdown.c ****     ext->show_selected = show;
 441:lvgl/src/lv_widgets/lv_dropdown.c **** 
 442:lvgl/src/lv_widgets/lv_dropdown.c ****     lv_obj_invalidate(ddlist);
 443:lvgl/src/lv_widgets/lv_dropdown.c **** }
 444:lvgl/src/lv_widgets/lv_dropdown.c **** 
 445:lvgl/src/lv_widgets/lv_dropdown.c **** /*=====================
 446:lvgl/src/lv_widgets/lv_dropdown.c ****  * Getter functions
 447:lvgl/src/lv_widgets/lv_dropdown.c ****  *====================*/
 448:lvgl/src/lv_widgets/lv_dropdown.c **** 
 449:lvgl/src/lv_widgets/lv_dropdown.c **** /**
 450:lvgl/src/lv_widgets/lv_dropdown.c ****  * Get text of the ddlist (Displayed on the button if `show_selected = false`)
 451:lvgl/src/lv_widgets/lv_dropdown.c ****  * @param ddlist pointer to a drop down list object
 452:lvgl/src/lv_widgets/lv_dropdown.c ****  * @return the text string
 453:lvgl/src/lv_widgets/lv_dropdown.c ****  */
 454:lvgl/src/lv_widgets/lv_dropdown.c **** const char * lv_dropdown_get_text(lv_obj_t * ddlist)
 455:lvgl/src/lv_widgets/lv_dropdown.c **** {
 456:lvgl/src/lv_widgets/lv_dropdown.c ****     LV_ASSERT_OBJ(ddlist, LV_OBJX_NAME);
 457:lvgl/src/lv_widgets/lv_dropdown.c ****     lv_dropdown_ext_t * ext = lv_obj_get_ext_attr(ddlist);
 458:lvgl/src/lv_widgets/lv_dropdown.c **** 
 459:lvgl/src/lv_widgets/lv_dropdown.c ****     return ext->text;
 460:lvgl/src/lv_widgets/lv_dropdown.c **** }
 461:lvgl/src/lv_widgets/lv_dropdown.c **** 
 462:lvgl/src/lv_widgets/lv_dropdown.c **** /**
 463:lvgl/src/lv_widgets/lv_dropdown.c ****  * Get the options of a drop down list
 464:lvgl/src/lv_widgets/lv_dropdown.c ****  * @param ddlist pointer to drop down list object
 465:lvgl/src/lv_widgets/lv_dropdown.c ****  * @return the options separated by '\n'-s (E.g. "Option1\nOption2\nOption3")
 466:lvgl/src/lv_widgets/lv_dropdown.c ****  */
 467:lvgl/src/lv_widgets/lv_dropdown.c **** const char * lv_dropdown_get_options(const lv_obj_t * ddlist)
 468:lvgl/src/lv_widgets/lv_dropdown.c **** {
 469:lvgl/src/lv_widgets/lv_dropdown.c ****     LV_ASSERT_OBJ(ddlist, LV_OBJX_NAME);
 470:lvgl/src/lv_widgets/lv_dropdown.c **** 
 471:lvgl/src/lv_widgets/lv_dropdown.c ****     lv_dropdown_ext_t * ext = lv_obj_get_ext_attr(ddlist);
 472:lvgl/src/lv_widgets/lv_dropdown.c ****     return ext->options;
 473:lvgl/src/lv_widgets/lv_dropdown.c **** }
 474:lvgl/src/lv_widgets/lv_dropdown.c **** 
 475:lvgl/src/lv_widgets/lv_dropdown.c **** /**
 476:lvgl/src/lv_widgets/lv_dropdown.c ****  * Get the selected option
 477:lvgl/src/lv_widgets/lv_dropdown.c ****  * @param ddlist pointer to drop down list object
 478:lvgl/src/lv_widgets/lv_dropdown.c ****  * @return id of the selected option (0 ... number of option - 1);
 479:lvgl/src/lv_widgets/lv_dropdown.c ****  */
 480:lvgl/src/lv_widgets/lv_dropdown.c **** uint16_t lv_dropdown_get_selected(const lv_obj_t * ddlist)
 481:lvgl/src/lv_widgets/lv_dropdown.c **** {
 482:lvgl/src/lv_widgets/lv_dropdown.c ****     LV_ASSERT_OBJ(ddlist, LV_OBJX_NAME);
 483:lvgl/src/lv_widgets/lv_dropdown.c **** 
 484:lvgl/src/lv_widgets/lv_dropdown.c ****     lv_dropdown_ext_t * ext = lv_obj_get_ext_attr(ddlist);
 485:lvgl/src/lv_widgets/lv_dropdown.c **** 
 486:lvgl/src/lv_widgets/lv_dropdown.c ****     return ext->sel_opt_id;
ARM GAS  D:\Temp\ccIRM2yk.s 			page 10


 487:lvgl/src/lv_widgets/lv_dropdown.c **** }
 488:lvgl/src/lv_widgets/lv_dropdown.c **** 
 489:lvgl/src/lv_widgets/lv_dropdown.c **** /**
 490:lvgl/src/lv_widgets/lv_dropdown.c ****  * Get the total number of options
 491:lvgl/src/lv_widgets/lv_dropdown.c ****  * @param ddlist pointer to drop down list object
 492:lvgl/src/lv_widgets/lv_dropdown.c ****  * @return the total number of options in the list
 493:lvgl/src/lv_widgets/lv_dropdown.c ****  */
 494:lvgl/src/lv_widgets/lv_dropdown.c **** uint16_t lv_dropdown_get_option_cnt(const lv_obj_t * ddlist)
 495:lvgl/src/lv_widgets/lv_dropdown.c **** {
 496:lvgl/src/lv_widgets/lv_dropdown.c ****     LV_ASSERT_OBJ(ddlist, LV_OBJX_NAME);
 497:lvgl/src/lv_widgets/lv_dropdown.c **** 
 498:lvgl/src/lv_widgets/lv_dropdown.c ****     lv_dropdown_ext_t * ext = lv_obj_get_ext_attr(ddlist);
 499:lvgl/src/lv_widgets/lv_dropdown.c **** 
 500:lvgl/src/lv_widgets/lv_dropdown.c ****     return ext->option_cnt;
 501:lvgl/src/lv_widgets/lv_dropdown.c **** }
 502:lvgl/src/lv_widgets/lv_dropdown.c **** 
 503:lvgl/src/lv_widgets/lv_dropdown.c **** /**
 504:lvgl/src/lv_widgets/lv_dropdown.c ****  * Get the current selected option as a string
 505:lvgl/src/lv_widgets/lv_dropdown.c ****  * @param ddlist pointer to ddlist object
 506:lvgl/src/lv_widgets/lv_dropdown.c ****  * @param buf pointer to an array to store the string
 507:lvgl/src/lv_widgets/lv_dropdown.c ****  * @param buf_size size of `buf` in bytes. 0: to ignore it.
 508:lvgl/src/lv_widgets/lv_dropdown.c ****  */
 509:lvgl/src/lv_widgets/lv_dropdown.c **** void lv_dropdown_get_selected_str(const lv_obj_t * ddlist, char * buf, uint32_t buf_size)
 510:lvgl/src/lv_widgets/lv_dropdown.c **** {
 511:lvgl/src/lv_widgets/lv_dropdown.c ****     LV_ASSERT_OBJ(ddlist, LV_OBJX_NAME);
 512:lvgl/src/lv_widgets/lv_dropdown.c **** 
 513:lvgl/src/lv_widgets/lv_dropdown.c ****     lv_dropdown_ext_t * ext = lv_obj_get_ext_attr(ddlist);
 514:lvgl/src/lv_widgets/lv_dropdown.c **** 
 515:lvgl/src/lv_widgets/lv_dropdown.c ****     uint32_t i;
 516:lvgl/src/lv_widgets/lv_dropdown.c ****     uint32_t line        = 0;
 517:lvgl/src/lv_widgets/lv_dropdown.c ****     size_t txt_len     = strlen(ext->options);
 518:lvgl/src/lv_widgets/lv_dropdown.c **** 
 519:lvgl/src/lv_widgets/lv_dropdown.c ****     for(i = 0; i < txt_len && line != ext->sel_opt_id_orig; i++) {
 520:lvgl/src/lv_widgets/lv_dropdown.c ****         if(ext->options[i] == '\n') line++;
 521:lvgl/src/lv_widgets/lv_dropdown.c ****     }
 522:lvgl/src/lv_widgets/lv_dropdown.c **** 
 523:lvgl/src/lv_widgets/lv_dropdown.c ****     uint32_t c;
 524:lvgl/src/lv_widgets/lv_dropdown.c ****     for(c = 0; i < txt_len && ext->options[i] != '\n'; c++, i++) {
 525:lvgl/src/lv_widgets/lv_dropdown.c ****         if(buf_size && c >= buf_size - 1) {
 526:lvgl/src/lv_widgets/lv_dropdown.c ****             LV_LOG_WARN("lv_dropdown_get_selected_str: the buffer was too small")
 527:lvgl/src/lv_widgets/lv_dropdown.c ****             break;
 528:lvgl/src/lv_widgets/lv_dropdown.c ****         }
 529:lvgl/src/lv_widgets/lv_dropdown.c ****         buf[c] = ext->options[i];
 530:lvgl/src/lv_widgets/lv_dropdown.c ****     }
 531:lvgl/src/lv_widgets/lv_dropdown.c **** 
 532:lvgl/src/lv_widgets/lv_dropdown.c ****     buf[c] = '\0';
 533:lvgl/src/lv_widgets/lv_dropdown.c **** }
 534:lvgl/src/lv_widgets/lv_dropdown.c **** 
 535:lvgl/src/lv_widgets/lv_dropdown.c **** /**
 536:lvgl/src/lv_widgets/lv_dropdown.c ****  * Get the fix height value.
 537:lvgl/src/lv_widgets/lv_dropdown.c ****  * @param ddlist pointer to a drop down list object
 538:lvgl/src/lv_widgets/lv_dropdown.c ****  * @return the height if the ddlist is opened (0: auto size)
 539:lvgl/src/lv_widgets/lv_dropdown.c ****  */
 540:lvgl/src/lv_widgets/lv_dropdown.c **** lv_coord_t lv_dropdown_get_max_height(const lv_obj_t * ddlist)
 541:lvgl/src/lv_widgets/lv_dropdown.c **** {
 542:lvgl/src/lv_widgets/lv_dropdown.c ****     LV_ASSERT_OBJ(ddlist, LV_OBJX_NAME);
 543:lvgl/src/lv_widgets/lv_dropdown.c **** 
ARM GAS  D:\Temp\ccIRM2yk.s 			page 11


 544:lvgl/src/lv_widgets/lv_dropdown.c ****     lv_dropdown_ext_t * ext = lv_obj_get_ext_attr(ddlist);
 545:lvgl/src/lv_widgets/lv_dropdown.c ****     return ext->max_height;
 546:lvgl/src/lv_widgets/lv_dropdown.c **** }
 547:lvgl/src/lv_widgets/lv_dropdown.c **** 
 548:lvgl/src/lv_widgets/lv_dropdown.c **** /**
 549:lvgl/src/lv_widgets/lv_dropdown.c ****  * Get the symbol to draw when the drop-down list is closed
 550:lvgl/src/lv_widgets/lv_dropdown.c ****  * @param ddlist pointer to drop down list object
 551:lvgl/src/lv_widgets/lv_dropdown.c ****  * @return the symbol or NULL if not enabled
 552:lvgl/src/lv_widgets/lv_dropdown.c ****  */
 553:lvgl/src/lv_widgets/lv_dropdown.c **** const char * lv_dropdown_get_symbol(lv_obj_t * ddlist)
 554:lvgl/src/lv_widgets/lv_dropdown.c **** {
 555:lvgl/src/lv_widgets/lv_dropdown.c ****     LV_ASSERT_OBJ(ddlist, LV_OBJX_NAME);
 556:lvgl/src/lv_widgets/lv_dropdown.c **** 
 557:lvgl/src/lv_widgets/lv_dropdown.c ****     lv_dropdown_ext_t * ext = lv_obj_get_ext_attr(ddlist);
 558:lvgl/src/lv_widgets/lv_dropdown.c **** 
 559:lvgl/src/lv_widgets/lv_dropdown.c ****     return ext->symbol;
 560:lvgl/src/lv_widgets/lv_dropdown.c **** }
 561:lvgl/src/lv_widgets/lv_dropdown.c **** 
 562:lvgl/src/lv_widgets/lv_dropdown.c **** /**
 563:lvgl/src/lv_widgets/lv_dropdown.c ****  * Get the direction of the drop down list
 564:lvgl/src/lv_widgets/lv_dropdown.c ****  * @param ddlist pointer to a drop down list object
 565:lvgl/src/lv_widgets/lv_dropdown.c ****  * @return LV_DROPDOWN_DIR_LEF/RIGHT/TOP/BOTTOM
 566:lvgl/src/lv_widgets/lv_dropdown.c ****  */
 567:lvgl/src/lv_widgets/lv_dropdown.c **** lv_dropdown_dir_t lv_dropdown_get_dir(const lv_obj_t * ddlist)
 568:lvgl/src/lv_widgets/lv_dropdown.c **** {
 569:lvgl/src/lv_widgets/lv_dropdown.c ****     LV_ASSERT_OBJ(ddlist, LV_OBJX_NAME);
 570:lvgl/src/lv_widgets/lv_dropdown.c **** 
 571:lvgl/src/lv_widgets/lv_dropdown.c ****     lv_dropdown_ext_t * ext = lv_obj_get_ext_attr(ddlist);
 572:lvgl/src/lv_widgets/lv_dropdown.c **** 
 573:lvgl/src/lv_widgets/lv_dropdown.c ****     return ext->dir;
 574:lvgl/src/lv_widgets/lv_dropdown.c **** }
 575:lvgl/src/lv_widgets/lv_dropdown.c **** 
 576:lvgl/src/lv_widgets/lv_dropdown.c **** /**
 577:lvgl/src/lv_widgets/lv_dropdown.c ****  * Get whether the ddlist highlight the last selected option and display its text or not
 578:lvgl/src/lv_widgets/lv_dropdown.c ****  * @param ddlist pointer to a drop down list object
 579:lvgl/src/lv_widgets/lv_dropdown.c ****  * @return true/false
 580:lvgl/src/lv_widgets/lv_dropdown.c ****  */
 581:lvgl/src/lv_widgets/lv_dropdown.c **** bool lv_dropdown_get_show_selected(lv_obj_t * ddlist)
 582:lvgl/src/lv_widgets/lv_dropdown.c **** {
 583:lvgl/src/lv_widgets/lv_dropdown.c ****     LV_ASSERT_OBJ(ddlist, LV_OBJX_NAME);
 584:lvgl/src/lv_widgets/lv_dropdown.c **** 
 585:lvgl/src/lv_widgets/lv_dropdown.c ****     lv_dropdown_ext_t * ext = lv_obj_get_ext_attr(ddlist);
 586:lvgl/src/lv_widgets/lv_dropdown.c **** 
 587:lvgl/src/lv_widgets/lv_dropdown.c ****     return ext->show_selected ? true : false;
 588:lvgl/src/lv_widgets/lv_dropdown.c **** 
 589:lvgl/src/lv_widgets/lv_dropdown.c **** }
 590:lvgl/src/lv_widgets/lv_dropdown.c **** 
 591:lvgl/src/lv_widgets/lv_dropdown.c **** /*=====================
 592:lvgl/src/lv_widgets/lv_dropdown.c ****  * Other functions
 593:lvgl/src/lv_widgets/lv_dropdown.c ****  *====================*/
 594:lvgl/src/lv_widgets/lv_dropdown.c **** 
 595:lvgl/src/lv_widgets/lv_dropdown.c **** /**
 596:lvgl/src/lv_widgets/lv_dropdown.c ****  * Open the drop down list with or without animation
 597:lvgl/src/lv_widgets/lv_dropdown.c ****  * @param ddlist pointer to drop down list object
 598:lvgl/src/lv_widgets/lv_dropdown.c ****  */
 599:lvgl/src/lv_widgets/lv_dropdown.c **** void lv_dropdown_open(lv_obj_t * ddlist)
 600:lvgl/src/lv_widgets/lv_dropdown.c **** {
ARM GAS  D:\Temp\ccIRM2yk.s 			page 12


 601:lvgl/src/lv_widgets/lv_dropdown.c ****     lv_dropdown_ext_t * ext = lv_obj_get_ext_attr(ddlist);
 602:lvgl/src/lv_widgets/lv_dropdown.c ****     if(ext->page) return;
 603:lvgl/src/lv_widgets/lv_dropdown.c **** 
 604:lvgl/src/lv_widgets/lv_dropdown.c ****     ext->page = lv_page_create(lv_obj_get_screen(ddlist), NULL);
 605:lvgl/src/lv_widgets/lv_dropdown.c ****     lv_obj_add_protect(ext->page, LV_PROTECT_POS | LV_PROTECT_CLICK_FOCUS);
 606:lvgl/src/lv_widgets/lv_dropdown.c ****     lv_obj_add_protect(lv_page_get_scrollable(ext->page), LV_PROTECT_CLICK_FOCUS);
 607:lvgl/src/lv_widgets/lv_dropdown.c **** 
 608:lvgl/src/lv_widgets/lv_dropdown.c ****     lv_obj_set_base_dir(ext->page, lv_obj_get_base_dir(ddlist));
 609:lvgl/src/lv_widgets/lv_dropdown.c **** 
 610:lvgl/src/lv_widgets/lv_dropdown.c ****     if(ancestor_page_signal == NULL) ancestor_page_signal = lv_obj_get_signal_cb(ext->page);
 611:lvgl/src/lv_widgets/lv_dropdown.c ****     if(ancestor_page_scrl_signal == NULL) ancestor_page_scrl_signal = lv_obj_get_signal_cb(lv_page_
 612:lvgl/src/lv_widgets/lv_dropdown.c ****                                                                                                    
 613:lvgl/src/lv_widgets/lv_dropdown.c ****     if(ancestor_page_design == NULL) ancestor_page_design = lv_obj_get_design_cb(ext->page);
 614:lvgl/src/lv_widgets/lv_dropdown.c **** 
 615:lvgl/src/lv_widgets/lv_dropdown.c ****     lv_dropdown_page_ext_t * page_ext = lv_obj_allocate_ext_attr(ext->page, sizeof(lv_dropdown_page
 616:lvgl/src/lv_widgets/lv_dropdown.c ****     LV_ASSERT_MEM(page_ext);
 617:lvgl/src/lv_widgets/lv_dropdown.c ****     if(page_ext == NULL) {
 618:lvgl/src/lv_widgets/lv_dropdown.c ****         lv_obj_del(ext->page);
 619:lvgl/src/lv_widgets/lv_dropdown.c ****         ext->page = NULL;
 620:lvgl/src/lv_widgets/lv_dropdown.c ****         return;
 621:lvgl/src/lv_widgets/lv_dropdown.c ****     }
 622:lvgl/src/lv_widgets/lv_dropdown.c ****     page_ext->ddlist = ddlist;
 623:lvgl/src/lv_widgets/lv_dropdown.c **** 
 624:lvgl/src/lv_widgets/lv_dropdown.c ****     lv_obj_set_design_cb(ext->page, lv_dropdown_page_design);
 625:lvgl/src/lv_widgets/lv_dropdown.c ****     lv_obj_set_signal_cb(ext->page, lv_dropdown_page_signal);
 626:lvgl/src/lv_widgets/lv_dropdown.c ****     lv_obj_set_signal_cb(lv_page_get_scrollable(ext->page), lv_dropdown_page_scrl_signal);
 627:lvgl/src/lv_widgets/lv_dropdown.c **** 
 628:lvgl/src/lv_widgets/lv_dropdown.c ****     lv_style_list_copy(lv_obj_get_style_list(ext->page, LV_PAGE_PART_BG), &ext->style_page);
 629:lvgl/src/lv_widgets/lv_dropdown.c ****     lv_style_list_copy(lv_obj_get_style_list(ext->page, LV_PAGE_PART_SCROLLBAR), &ext->style_scrlba
 630:lvgl/src/lv_widgets/lv_dropdown.c ****     lv_obj_clean_style_list(ext->page, LV_PAGE_PART_SCROLLABLE);
 631:lvgl/src/lv_widgets/lv_dropdown.c ****     lv_obj_refresh_style(ext->page, LV_OBJ_PART_ALL, LV_STYLE_PROP_ALL);
 632:lvgl/src/lv_widgets/lv_dropdown.c **** 
 633:lvgl/src/lv_widgets/lv_dropdown.c ****     lv_obj_t * label = lv_label_create(ext->page, NULL);
 634:lvgl/src/lv_widgets/lv_dropdown.c ****     lv_label_set_text_static(label, ext->options);
 635:lvgl/src/lv_widgets/lv_dropdown.c **** 
 636:lvgl/src/lv_widgets/lv_dropdown.c ****     lv_cont_set_fit2(ext->page, LV_FIT_TIGHT, LV_FIT_NONE);
 637:lvgl/src/lv_widgets/lv_dropdown.c ****     /*Set small width to the width of the button*/
 638:lvgl/src/lv_widgets/lv_dropdown.c ****     if(lv_obj_get_width(ext->page) < lv_obj_get_width(ddlist) &&
 639:lvgl/src/lv_widgets/lv_dropdown.c ****        (ext->dir == LV_DROPDOWN_DIR_UP || ext->dir == LV_DROPDOWN_DIR_DOWN)) {
 640:lvgl/src/lv_widgets/lv_dropdown.c ****         lv_cont_set_fit2(ext->page, LV_FIT_NONE, LV_FIT_NONE);
 641:lvgl/src/lv_widgets/lv_dropdown.c ****         lv_obj_set_width(ext->page, lv_obj_get_width(ddlist));
 642:lvgl/src/lv_widgets/lv_dropdown.c ****     }
 643:lvgl/src/lv_widgets/lv_dropdown.c **** 
 644:lvgl/src/lv_widgets/lv_dropdown.c ****     lv_coord_t label_h = lv_obj_get_height(label);
 645:lvgl/src/lv_widgets/lv_dropdown.c ****     lv_style_int_t top = lv_obj_get_style_pad_top(ddlist, LV_DROPDOWN_PART_LIST);
 646:lvgl/src/lv_widgets/lv_dropdown.c ****     lv_style_int_t bottom = lv_obj_get_style_pad_bottom(ddlist, LV_DROPDOWN_PART_LIST);
 647:lvgl/src/lv_widgets/lv_dropdown.c **** 
 648:lvgl/src/lv_widgets/lv_dropdown.c ****     lv_coord_t list_fit_h = label_h + top + bottom;
 649:lvgl/src/lv_widgets/lv_dropdown.c ****     lv_coord_t list_h = list_fit_h;
 650:lvgl/src/lv_widgets/lv_dropdown.c ****     if(list_h > ext->max_height) list_h = ext->max_height;
 651:lvgl/src/lv_widgets/lv_dropdown.c **** 
 652:lvgl/src/lv_widgets/lv_dropdown.c ****     lv_dropdown_dir_t dir = ext->dir;
 653:lvgl/src/lv_widgets/lv_dropdown.c ****     /*No place on the bottom? See if top is better.*/
 654:lvgl/src/lv_widgets/lv_dropdown.c ****     if(ext->dir == LV_DROPDOWN_DIR_DOWN) {
 655:lvgl/src/lv_widgets/lv_dropdown.c ****         if(ddlist->coords.y2 + list_h > LV_VER_RES) {
 656:lvgl/src/lv_widgets/lv_dropdown.c ****             if(ddlist->coords.y1 > LV_VER_RES - ddlist->coords.y2) {
 657:lvgl/src/lv_widgets/lv_dropdown.c ****                 /*There is more space on the top, so make it drop up*/
ARM GAS  D:\Temp\ccIRM2yk.s 			page 13


 658:lvgl/src/lv_widgets/lv_dropdown.c ****                 dir = LV_DROPDOWN_DIR_UP;
 659:lvgl/src/lv_widgets/lv_dropdown.c ****                 list_h = ddlist->coords.y1;
 660:lvgl/src/lv_widgets/lv_dropdown.c ****             }
 661:lvgl/src/lv_widgets/lv_dropdown.c ****             else {
 662:lvgl/src/lv_widgets/lv_dropdown.c ****                 list_h = LV_VER_RES - ddlist->coords.y2;
 663:lvgl/src/lv_widgets/lv_dropdown.c ****             }
 664:lvgl/src/lv_widgets/lv_dropdown.c ****         }
 665:lvgl/src/lv_widgets/lv_dropdown.c ****     }
 666:lvgl/src/lv_widgets/lv_dropdown.c ****     /*No place on the top? See if bottom is better.*/
 667:lvgl/src/lv_widgets/lv_dropdown.c ****     else if(ext->dir == LV_DROPDOWN_DIR_UP) {
 668:lvgl/src/lv_widgets/lv_dropdown.c ****         if(ddlist->coords.y1 - list_h < 0) {
 669:lvgl/src/lv_widgets/lv_dropdown.c ****             if(ddlist->coords.y1 < LV_VER_RES - ddlist->coords.y2) {
 670:lvgl/src/lv_widgets/lv_dropdown.c ****                 /*There is more space on the top, so make it drop up*/
 671:lvgl/src/lv_widgets/lv_dropdown.c ****                 dir = LV_DROPDOWN_DIR_DOWN;
 672:lvgl/src/lv_widgets/lv_dropdown.c ****                 list_h = LV_VER_RES - ddlist->coords.y2;
 673:lvgl/src/lv_widgets/lv_dropdown.c ****             }
 674:lvgl/src/lv_widgets/lv_dropdown.c ****             else {
 675:lvgl/src/lv_widgets/lv_dropdown.c ****                 list_h = ddlist->coords.y1;
 676:lvgl/src/lv_widgets/lv_dropdown.c ****             }
 677:lvgl/src/lv_widgets/lv_dropdown.c ****         }
 678:lvgl/src/lv_widgets/lv_dropdown.c ****     }
 679:lvgl/src/lv_widgets/lv_dropdown.c **** 
 680:lvgl/src/lv_widgets/lv_dropdown.c ****     if(list_h > list_fit_h) list_h = list_fit_h;
 681:lvgl/src/lv_widgets/lv_dropdown.c ****     if(list_h > ext->max_height) list_h = ext->max_height;
 682:lvgl/src/lv_widgets/lv_dropdown.c **** 
 683:lvgl/src/lv_widgets/lv_dropdown.c ****     lv_obj_set_height(ext->page, list_h);
 684:lvgl/src/lv_widgets/lv_dropdown.c **** 
 685:lvgl/src/lv_widgets/lv_dropdown.c ****     position_to_selected(ddlist);
 686:lvgl/src/lv_widgets/lv_dropdown.c **** 
 687:lvgl/src/lv_widgets/lv_dropdown.c ****     if(dir == LV_DROPDOWN_DIR_DOWN)      lv_obj_align(ext->page, ddlist, LV_ALIGN_OUT_BOTTOM_LEFT, 
 688:lvgl/src/lv_widgets/lv_dropdown.c ****     else if(dir == LV_DROPDOWN_DIR_UP)   lv_obj_align(ext->page, ddlist, LV_ALIGN_OUT_TOP_LEFT, 0, 
 689:lvgl/src/lv_widgets/lv_dropdown.c ****     else if(dir == LV_DROPDOWN_DIR_LEFT) lv_obj_align(ext->page, ddlist, LV_ALIGN_OUT_LEFT_TOP, 0, 
 690:lvgl/src/lv_widgets/lv_dropdown.c ****     else if(dir == LV_DROPDOWN_DIR_RIGHT)lv_obj_align(ext->page, ddlist, LV_ALIGN_OUT_RIGHT_TOP, 0,
 691:lvgl/src/lv_widgets/lv_dropdown.c **** 
 692:lvgl/src/lv_widgets/lv_dropdown.c ****     if(ext->dir == LV_DROPDOWN_DIR_LEFT || ext->dir == LV_DROPDOWN_DIR_RIGHT) {
 693:lvgl/src/lv_widgets/lv_dropdown.c ****         if(ext->page->coords.y2 > LV_VER_RES) {
 694:lvgl/src/lv_widgets/lv_dropdown.c ****             lv_obj_set_y(ext->page, lv_obj_get_y(ext->page) - (ext->page->coords.y2 - LV_VER_RES));
 695:lvgl/src/lv_widgets/lv_dropdown.c ****         }
 696:lvgl/src/lv_widgets/lv_dropdown.c ****     }
 697:lvgl/src/lv_widgets/lv_dropdown.c **** 
 698:lvgl/src/lv_widgets/lv_dropdown.c ****     if(lv_label_get_align(label) == LV_LABEL_ALIGN_RIGHT) {
 699:lvgl/src/lv_widgets/lv_dropdown.c ****         lv_obj_set_x(label, lv_obj_get_width_fit(ext->page) - lv_obj_get_width(label));
 700:lvgl/src/lv_widgets/lv_dropdown.c ****     }
 701:lvgl/src/lv_widgets/lv_dropdown.c **** }
 702:lvgl/src/lv_widgets/lv_dropdown.c **** 
 703:lvgl/src/lv_widgets/lv_dropdown.c **** /**
 704:lvgl/src/lv_widgets/lv_dropdown.c ****  * Close (Collapse) the drop down list
 705:lvgl/src/lv_widgets/lv_dropdown.c ****  * @param ddlist pointer to drop down list object
 706:lvgl/src/lv_widgets/lv_dropdown.c ****  */
 707:lvgl/src/lv_widgets/lv_dropdown.c **** void lv_dropdown_close(lv_obj_t * ddlist)
 708:lvgl/src/lv_widgets/lv_dropdown.c **** {
 709:lvgl/src/lv_widgets/lv_dropdown.c ****     lv_dropdown_ext_t * ext = lv_obj_get_ext_attr(ddlist);
 710:lvgl/src/lv_widgets/lv_dropdown.c ****     if(ext->page == NULL) return;
 711:lvgl/src/lv_widgets/lv_dropdown.c **** 
 712:lvgl/src/lv_widgets/lv_dropdown.c ****     ext->pr_opt_id = LV_DROPDOWN_PR_NONE;
 713:lvgl/src/lv_widgets/lv_dropdown.c ****     lv_obj_del(ext->page);
 714:lvgl/src/lv_widgets/lv_dropdown.c ****     ext->page = NULL;
ARM GAS  D:\Temp\ccIRM2yk.s 			page 14


 715:lvgl/src/lv_widgets/lv_dropdown.c **** }
 716:lvgl/src/lv_widgets/lv_dropdown.c **** 
 717:lvgl/src/lv_widgets/lv_dropdown.c **** /**********************
 718:lvgl/src/lv_widgets/lv_dropdown.c ****  *   STATIC FUNCTIONS
 719:lvgl/src/lv_widgets/lv_dropdown.c ****  **********************/
 720:lvgl/src/lv_widgets/lv_dropdown.c **** 
 721:lvgl/src/lv_widgets/lv_dropdown.c **** /**
 722:lvgl/src/lv_widgets/lv_dropdown.c ****  * Handle the drawing related tasks of the drop down list
 723:lvgl/src/lv_widgets/lv_dropdown.c ****  * @param ddlist pointer to an object
 724:lvgl/src/lv_widgets/lv_dropdown.c ****  * @param clip_area the object will be drawn only in this area
 725:lvgl/src/lv_widgets/lv_dropdown.c ****  * @param mode LV_DESIGN_COVER_CHK: only check if the object fully covers the 'mask_p' area
 726:lvgl/src/lv_widgets/lv_dropdown.c ****  *                                  (return 'true' if yes)
 727:lvgl/src/lv_widgets/lv_dropdown.c ****  *             LV_DESIGN_DRAW: draw the object (always return 'true')
 728:lvgl/src/lv_widgets/lv_dropdown.c ****  *             LV_DESIGN_DRAW_POST: drawing after every children are drawn
 729:lvgl/src/lv_widgets/lv_dropdown.c ****  * @param return an element of `lv_design_res_t`
 730:lvgl/src/lv_widgets/lv_dropdown.c ****  */
 731:lvgl/src/lv_widgets/lv_dropdown.c **** static lv_design_res_t lv_dropdown_design(lv_obj_t * ddlist, const lv_area_t * clip_area, lv_design
 732:lvgl/src/lv_widgets/lv_dropdown.c **** {
 733:lvgl/src/lv_widgets/lv_dropdown.c ****     /*Return false if the object is not covers the mask_p area*/
 734:lvgl/src/lv_widgets/lv_dropdown.c ****     if(mode == LV_DESIGN_COVER_CHK) {
 735:lvgl/src/lv_widgets/lv_dropdown.c ****         return ancestor_design(ddlist, clip_area, mode);
 736:lvgl/src/lv_widgets/lv_dropdown.c ****     }
 737:lvgl/src/lv_widgets/lv_dropdown.c ****     /*Draw the object*/
 738:lvgl/src/lv_widgets/lv_dropdown.c ****     else if(mode == LV_DESIGN_DRAW_MAIN) {
 739:lvgl/src/lv_widgets/lv_dropdown.c ****         ancestor_design(ddlist, clip_area, mode);
 740:lvgl/src/lv_widgets/lv_dropdown.c **** 
 741:lvgl/src/lv_widgets/lv_dropdown.c ****         lv_dropdown_ext_t * ext = lv_obj_get_ext_attr(ddlist);
 742:lvgl/src/lv_widgets/lv_dropdown.c **** 
 743:lvgl/src/lv_widgets/lv_dropdown.c ****         lv_style_int_t left = lv_obj_get_style_pad_left(ddlist, LV_DROPDOWN_PART_MAIN);
 744:lvgl/src/lv_widgets/lv_dropdown.c ****         lv_style_int_t right = lv_obj_get_style_pad_right(ddlist, LV_DROPDOWN_PART_MAIN);
 745:lvgl/src/lv_widgets/lv_dropdown.c ****         lv_style_int_t top = lv_obj_get_style_pad_top(ddlist, LV_DROPDOWN_PART_MAIN);
 746:lvgl/src/lv_widgets/lv_dropdown.c **** 
 747:lvgl/src/lv_widgets/lv_dropdown.c ****         lv_draw_label_dsc_t label_dsc;
 748:lvgl/src/lv_widgets/lv_dropdown.c ****         lv_draw_label_dsc_init(&label_dsc);
 749:lvgl/src/lv_widgets/lv_dropdown.c ****         lv_obj_init_draw_label_dsc(ddlist, LV_DROPDOWN_PART_MAIN, &label_dsc);
 750:lvgl/src/lv_widgets/lv_dropdown.c **** 
 751:lvgl/src/lv_widgets/lv_dropdown.c ****         lv_area_t txt_area;
 752:lvgl/src/lv_widgets/lv_dropdown.c ****         lv_point_t txt_size;
 753:lvgl/src/lv_widgets/lv_dropdown.c **** 
 754:lvgl/src/lv_widgets/lv_dropdown.c ****         const char * opt_txt = ext->text;
 755:lvgl/src/lv_widgets/lv_dropdown.c ****         if(ext->show_selected) {
 756:lvgl/src/lv_widgets/lv_dropdown.c ****             char * buf = _lv_mem_buf_get(128);
 757:lvgl/src/lv_widgets/lv_dropdown.c ****             lv_dropdown_get_selected_str(ddlist, buf, 128);
 758:lvgl/src/lv_widgets/lv_dropdown.c ****             opt_txt = buf;
 759:lvgl/src/lv_widgets/lv_dropdown.c ****         }
 760:lvgl/src/lv_widgets/lv_dropdown.c **** 
 761:lvgl/src/lv_widgets/lv_dropdown.c ****         const char * txt;
 762:lvgl/src/lv_widgets/lv_dropdown.c **** 
 763:lvgl/src/lv_widgets/lv_dropdown.c ****         bool rev = false;
 764:lvgl/src/lv_widgets/lv_dropdown.c ****         if(ext->dir == LV_DROPDOWN_DIR_LEFT) rev = true;
 765:lvgl/src/lv_widgets/lv_dropdown.c ****         if(lv_obj_get_base_dir(ddlist) == LV_BIDI_DIR_RTL) rev = true;
 766:lvgl/src/lv_widgets/lv_dropdown.c **** 
 767:lvgl/src/lv_widgets/lv_dropdown.c ****         txt = rev ? ext->symbol : opt_txt;
 768:lvgl/src/lv_widgets/lv_dropdown.c ****         if(txt) {
 769:lvgl/src/lv_widgets/lv_dropdown.c ****             _lv_txt_get_size(&txt_size, txt, label_dsc.font, label_dsc.letter_space, label_dsc.line
 770:lvgl/src/lv_widgets/lv_dropdown.c ****                              label_dsc.flag);
 771:lvgl/src/lv_widgets/lv_dropdown.c **** 
ARM GAS  D:\Temp\ccIRM2yk.s 			page 15


 772:lvgl/src/lv_widgets/lv_dropdown.c ****             txt_area.y1 = ddlist->coords.y1 + top;
 773:lvgl/src/lv_widgets/lv_dropdown.c ****             txt_area.y2 = txt_area.y1 + txt_size.y;
 774:lvgl/src/lv_widgets/lv_dropdown.c **** 
 775:lvgl/src/lv_widgets/lv_dropdown.c ****             /*Center align the text if no symbol*/
 776:lvgl/src/lv_widgets/lv_dropdown.c ****             if(ext->symbol == NULL && txt == opt_txt) {
 777:lvgl/src/lv_widgets/lv_dropdown.c ****                 txt_area.x1 = ddlist->coords.x1 + (lv_obj_get_width(ddlist) - txt_size.x) / 2;
 778:lvgl/src/lv_widgets/lv_dropdown.c ****                 txt_area.x2 = txt_area.x1 + txt_size.x;
 779:lvgl/src/lv_widgets/lv_dropdown.c ****             }
 780:lvgl/src/lv_widgets/lv_dropdown.c ****             else {
 781:lvgl/src/lv_widgets/lv_dropdown.c ****                 txt_area.x1 = ddlist->coords.x1 + left;
 782:lvgl/src/lv_widgets/lv_dropdown.c ****                 txt_area.x2 = txt_area.x1 + txt_size.x;
 783:lvgl/src/lv_widgets/lv_dropdown.c ****             }
 784:lvgl/src/lv_widgets/lv_dropdown.c ****             lv_draw_label(&txt_area, clip_area, &label_dsc, txt, NULL);
 785:lvgl/src/lv_widgets/lv_dropdown.c ****         }
 786:lvgl/src/lv_widgets/lv_dropdown.c **** 
 787:lvgl/src/lv_widgets/lv_dropdown.c ****         txt = rev ? opt_txt : ext->symbol;
 788:lvgl/src/lv_widgets/lv_dropdown.c ****         if(txt) {
 789:lvgl/src/lv_widgets/lv_dropdown.c ****             _lv_txt_get_size(&txt_size, txt, label_dsc.font, label_dsc.letter_space, label_dsc.line
 790:lvgl/src/lv_widgets/lv_dropdown.c ****                              label_dsc.flag);
 791:lvgl/src/lv_widgets/lv_dropdown.c ****             txt_area.y1 = ddlist->coords.y1 + top;
 792:lvgl/src/lv_widgets/lv_dropdown.c ****             txt_area.y2 = txt_area.y1 + txt_size.y;
 793:lvgl/src/lv_widgets/lv_dropdown.c **** 
 794:lvgl/src/lv_widgets/lv_dropdown.c ****             /*Center align the text if no symbol*/
 795:lvgl/src/lv_widgets/lv_dropdown.c ****             if(ext->symbol == NULL && txt == opt_txt) {
 796:lvgl/src/lv_widgets/lv_dropdown.c ****                 txt_area.x1 = ddlist->coords.x1 + (lv_obj_get_width(ddlist) - txt_size.x) / 2;
 797:lvgl/src/lv_widgets/lv_dropdown.c ****                 txt_area.x2 = txt_area.x1 + txt_size.x;
 798:lvgl/src/lv_widgets/lv_dropdown.c ****             }
 799:lvgl/src/lv_widgets/lv_dropdown.c ****             else {
 800:lvgl/src/lv_widgets/lv_dropdown.c ****                 txt_area.x1 = ddlist->coords.x2 - right - txt_size.x;
 801:lvgl/src/lv_widgets/lv_dropdown.c ****                 txt_area.x2 = txt_area.x1 + txt_size.x;
 802:lvgl/src/lv_widgets/lv_dropdown.c ****             }
 803:lvgl/src/lv_widgets/lv_dropdown.c **** 
 804:lvgl/src/lv_widgets/lv_dropdown.c ****             lv_draw_label(&txt_area, clip_area, &label_dsc, txt, NULL);
 805:lvgl/src/lv_widgets/lv_dropdown.c ****         }
 806:lvgl/src/lv_widgets/lv_dropdown.c **** 
 807:lvgl/src/lv_widgets/lv_dropdown.c ****         if(ext->show_selected) {
 808:lvgl/src/lv_widgets/lv_dropdown.c ****             _lv_mem_buf_release((char *)opt_txt);
 809:lvgl/src/lv_widgets/lv_dropdown.c ****         }
 810:lvgl/src/lv_widgets/lv_dropdown.c **** 
 811:lvgl/src/lv_widgets/lv_dropdown.c ****     }
 812:lvgl/src/lv_widgets/lv_dropdown.c ****     else if(mode == LV_DESIGN_DRAW_POST) {
 813:lvgl/src/lv_widgets/lv_dropdown.c ****         ancestor_design(ddlist, clip_area, mode);
 814:lvgl/src/lv_widgets/lv_dropdown.c ****     }
 815:lvgl/src/lv_widgets/lv_dropdown.c **** 
 816:lvgl/src/lv_widgets/lv_dropdown.c ****     return LV_DESIGN_RES_OK;
 817:lvgl/src/lv_widgets/lv_dropdown.c **** }
 818:lvgl/src/lv_widgets/lv_dropdown.c **** 
 819:lvgl/src/lv_widgets/lv_dropdown.c **** /**
 820:lvgl/src/lv_widgets/lv_dropdown.c ****  * Handle the drawing related tasks of the drop down list's page
 821:lvgl/src/lv_widgets/lv_dropdown.c ****  * @param page pointer to an object
 822:lvgl/src/lv_widgets/lv_dropdown.c ****  * @param clip_area the object will be drawn only in this area
 823:lvgl/src/lv_widgets/lv_dropdown.c ****  * @param mode LV_DESIGN_COVER_CHK: only check if the object fully covers the 'mask_p' area
 824:lvgl/src/lv_widgets/lv_dropdown.c ****  *                                  (return 'true' if yes)
 825:lvgl/src/lv_widgets/lv_dropdown.c ****  *             LV_DESIGN_DRAW: draw the object (always return 'true')
 826:lvgl/src/lv_widgets/lv_dropdown.c ****  *             LV_DESIGN_DRAW_POST: drawing after every children are drawn
 827:lvgl/src/lv_widgets/lv_dropdown.c ****  * @param return an element of `lv_design_res_t`
 828:lvgl/src/lv_widgets/lv_dropdown.c ****  */
ARM GAS  D:\Temp\ccIRM2yk.s 			page 16


 829:lvgl/src/lv_widgets/lv_dropdown.c **** static lv_design_res_t lv_dropdown_page_design(lv_obj_t * page, const lv_area_t * clip_area, lv_des
 830:lvgl/src/lv_widgets/lv_dropdown.c **** {
 831:lvgl/src/lv_widgets/lv_dropdown.c ****     /*Return false if the object is not covers the mask_p area*/
 832:lvgl/src/lv_widgets/lv_dropdown.c ****     if(mode == LV_DESIGN_COVER_CHK) {
 833:lvgl/src/lv_widgets/lv_dropdown.c ****         return ancestor_page_design(page, clip_area, mode);
 834:lvgl/src/lv_widgets/lv_dropdown.c ****     }
 835:lvgl/src/lv_widgets/lv_dropdown.c ****     /*Draw the object*/
 836:lvgl/src/lv_widgets/lv_dropdown.c ****     else if(mode == LV_DESIGN_DRAW_MAIN) {
 837:lvgl/src/lv_widgets/lv_dropdown.c ****         ancestor_page_design(page, clip_area, mode);
 838:lvgl/src/lv_widgets/lv_dropdown.c **** 
 839:lvgl/src/lv_widgets/lv_dropdown.c ****         lv_dropdown_page_ext_t * page_ext = lv_obj_get_ext_attr(page);
 840:lvgl/src/lv_widgets/lv_dropdown.c ****         lv_obj_t * ddlist = page_ext->ddlist;
 841:lvgl/src/lv_widgets/lv_dropdown.c ****         lv_dropdown_ext_t * ext = lv_obj_get_ext_attr(ddlist);
 842:lvgl/src/lv_widgets/lv_dropdown.c **** 
 843:lvgl/src/lv_widgets/lv_dropdown.c ****         /*Draw the boxes if the page is not being deleted*/
 844:lvgl/src/lv_widgets/lv_dropdown.c ****         if(ext->page) {
 845:lvgl/src/lv_widgets/lv_dropdown.c ****             /* Clip area might be too large too to shadow but
 846:lvgl/src/lv_widgets/lv_dropdown.c ****              * the selected option can be drawn on only the background*/
 847:lvgl/src/lv_widgets/lv_dropdown.c ****             lv_area_t clip_area_core;
 848:lvgl/src/lv_widgets/lv_dropdown.c ****             bool has_common;
 849:lvgl/src/lv_widgets/lv_dropdown.c ****             has_common = _lv_area_intersect(&clip_area_core, clip_area, &ext->page->coords);
 850:lvgl/src/lv_widgets/lv_dropdown.c ****             if(has_common) {
 851:lvgl/src/lv_widgets/lv_dropdown.c ****                 if(ext->pr_opt_id != LV_DROPDOWN_PR_NONE) {
 852:lvgl/src/lv_widgets/lv_dropdown.c ****                     draw_box(ddlist, &clip_area_core, ext->pr_opt_id, LV_STATE_PRESSED);
 853:lvgl/src/lv_widgets/lv_dropdown.c ****                 }
 854:lvgl/src/lv_widgets/lv_dropdown.c **** 
 855:lvgl/src/lv_widgets/lv_dropdown.c ****                 draw_box(ddlist, &clip_area_core, ext->sel_opt_id, LV_STATE_DEFAULT);
 856:lvgl/src/lv_widgets/lv_dropdown.c ****             }
 857:lvgl/src/lv_widgets/lv_dropdown.c ****         }
 858:lvgl/src/lv_widgets/lv_dropdown.c ****     }
 859:lvgl/src/lv_widgets/lv_dropdown.c ****     /*Post draw when the children are drawn*/
 860:lvgl/src/lv_widgets/lv_dropdown.c ****     else if(mode == LV_DESIGN_DRAW_POST) {
 861:lvgl/src/lv_widgets/lv_dropdown.c ****         /*Draw the scrollbar in the ancestor page design function*/
 862:lvgl/src/lv_widgets/lv_dropdown.c ****         ancestor_page_design(page, clip_area, mode);
 863:lvgl/src/lv_widgets/lv_dropdown.c **** 
 864:lvgl/src/lv_widgets/lv_dropdown.c ****         /*Redraw the text on the selected area with a different color*/
 865:lvgl/src/lv_widgets/lv_dropdown.c ****         lv_dropdown_page_ext_t * page_ext = lv_obj_get_ext_attr(page);
 866:lvgl/src/lv_widgets/lv_dropdown.c ****         lv_obj_t * ddlist = page_ext->ddlist;
 867:lvgl/src/lv_widgets/lv_dropdown.c ****         lv_dropdown_ext_t * ext = lv_obj_get_ext_attr(ddlist);
 868:lvgl/src/lv_widgets/lv_dropdown.c **** 
 869:lvgl/src/lv_widgets/lv_dropdown.c ****         /*Draw the box labels if the page is not being deleted*/
 870:lvgl/src/lv_widgets/lv_dropdown.c ****         if(ext->page) {
 871:lvgl/src/lv_widgets/lv_dropdown.c ****             /* Clip area might be too large too to shadow but
 872:lvgl/src/lv_widgets/lv_dropdown.c ****              * the selected option can be drawn on only the background*/
 873:lvgl/src/lv_widgets/lv_dropdown.c ****             lv_area_t clip_area_core;
 874:lvgl/src/lv_widgets/lv_dropdown.c ****             bool has_common;
 875:lvgl/src/lv_widgets/lv_dropdown.c ****             has_common = _lv_area_intersect(&clip_area_core, clip_area, &ext->page->coords);
 876:lvgl/src/lv_widgets/lv_dropdown.c ****             if(has_common) {
 877:lvgl/src/lv_widgets/lv_dropdown.c ****                 if(ext->pr_opt_id != LV_DROPDOWN_PR_NONE) {
 878:lvgl/src/lv_widgets/lv_dropdown.c ****                     draw_box_label(ddlist, &clip_area_core, ext->pr_opt_id, LV_STATE_PRESSED);
 879:lvgl/src/lv_widgets/lv_dropdown.c ****                 }
 880:lvgl/src/lv_widgets/lv_dropdown.c **** 
 881:lvgl/src/lv_widgets/lv_dropdown.c ****                 draw_box_label(ddlist, &clip_area_core, ext->sel_opt_id, LV_STATE_DEFAULT);
 882:lvgl/src/lv_widgets/lv_dropdown.c ****             }
 883:lvgl/src/lv_widgets/lv_dropdown.c ****         }
 884:lvgl/src/lv_widgets/lv_dropdown.c ****     }
 885:lvgl/src/lv_widgets/lv_dropdown.c **** 
ARM GAS  D:\Temp\ccIRM2yk.s 			page 17


 886:lvgl/src/lv_widgets/lv_dropdown.c ****     return LV_DESIGN_RES_OK;
 887:lvgl/src/lv_widgets/lv_dropdown.c **** }
 888:lvgl/src/lv_widgets/lv_dropdown.c **** 
 889:lvgl/src/lv_widgets/lv_dropdown.c **** /**
 890:lvgl/src/lv_widgets/lv_dropdown.c ****  * Signal function of the drop down list
 891:lvgl/src/lv_widgets/lv_dropdown.c ****  * @param ddlist pointer to a drop down list object
 892:lvgl/src/lv_widgets/lv_dropdown.c ****  * @param sign a signal type from lv_signal_t enum
 893:lvgl/src/lv_widgets/lv_dropdown.c ****  * @param param pointer to a signal specific variable
 894:lvgl/src/lv_widgets/lv_dropdown.c ****  * @return LV_RES_OK: the object is not deleted in the function; LV_RES_INV: the object is deleted
 895:lvgl/src/lv_widgets/lv_dropdown.c ****  */
 896:lvgl/src/lv_widgets/lv_dropdown.c **** static lv_res_t lv_dropdown_signal(lv_obj_t * ddlist, lv_signal_t sign, void * param)
 897:lvgl/src/lv_widgets/lv_dropdown.c **** {
 898:lvgl/src/lv_widgets/lv_dropdown.c ****     lv_res_t res;
 899:lvgl/src/lv_widgets/lv_dropdown.c **** 
 900:lvgl/src/lv_widgets/lv_dropdown.c ****     /* Include the ancient signal function */
 901:lvgl/src/lv_widgets/lv_dropdown.c ****     res = ancestor_signal(ddlist, sign, param);
 902:lvgl/src/lv_widgets/lv_dropdown.c ****     if(res != LV_RES_OK) return res;
 903:lvgl/src/lv_widgets/lv_dropdown.c ****     if(sign == LV_SIGNAL_GET_TYPE) return lv_obj_handle_get_type_signal(param, LV_OBJX_NAME);
 904:lvgl/src/lv_widgets/lv_dropdown.c **** 
 905:lvgl/src/lv_widgets/lv_dropdown.c ****     lv_dropdown_ext_t * ext = lv_obj_get_ext_attr(ddlist);
 906:lvgl/src/lv_widgets/lv_dropdown.c **** 
 907:lvgl/src/lv_widgets/lv_dropdown.c ****     if(sign == LV_SIGNAL_GET_STYLE) {
 908:lvgl/src/lv_widgets/lv_dropdown.c ****         lv_get_style_info_t * info = param;
 909:lvgl/src/lv_widgets/lv_dropdown.c ****         info->result = lv_dropdown_get_style(ddlist, info->part);
 910:lvgl/src/lv_widgets/lv_dropdown.c ****         if(info->result != NULL) return LV_RES_OK;
 911:lvgl/src/lv_widgets/lv_dropdown.c ****         return LV_RES_OK;
 912:lvgl/src/lv_widgets/lv_dropdown.c ****     }
 913:lvgl/src/lv_widgets/lv_dropdown.c ****     else if(sign == LV_SIGNAL_GET_STATE_DSC) {
 914:lvgl/src/lv_widgets/lv_dropdown.c ****         lv_get_state_info_t * info = param;
 915:lvgl/src/lv_widgets/lv_dropdown.c ****         if(info->part == LV_DROPDOWN_PART_LIST ||
 916:lvgl/src/lv_widgets/lv_dropdown.c ****            info->part == LV_DROPDOWN_PART_SCROLLBAR ||
 917:lvgl/src/lv_widgets/lv_dropdown.c ****            info->part == LV_DROPDOWN_PART_SELECTED) {
 918:lvgl/src/lv_widgets/lv_dropdown.c ****             info->result = lv_obj_get_state(ext->page, LV_PAGE_PART_BG);
 919:lvgl/src/lv_widgets/lv_dropdown.c ****         }
 920:lvgl/src/lv_widgets/lv_dropdown.c ****     }
 921:lvgl/src/lv_widgets/lv_dropdown.c ****     else if(sign == LV_SIGNAL_CLEANUP) {
 922:lvgl/src/lv_widgets/lv_dropdown.c ****         lv_dropdown_close(ddlist);
 923:lvgl/src/lv_widgets/lv_dropdown.c ****         if(ext->static_txt == 0) {
 924:lvgl/src/lv_widgets/lv_dropdown.c ****             lv_mem_free(ext->options);
 925:lvgl/src/lv_widgets/lv_dropdown.c ****             ext->options = NULL;
 926:lvgl/src/lv_widgets/lv_dropdown.c ****         }
 927:lvgl/src/lv_widgets/lv_dropdown.c **** 
 928:lvgl/src/lv_widgets/lv_dropdown.c ****         /*`lv_obj_clean_style_list` is not required because these styles are only copied to the pag
 929:lvgl/src/lv_widgets/lv_dropdown.c ****          * so they can have transitions or other object related things. */
 930:lvgl/src/lv_widgets/lv_dropdown.c ****         _lv_style_list_reset(&ext->style_page);
 931:lvgl/src/lv_widgets/lv_dropdown.c ****         _lv_style_list_reset(&ext->style_scrlbar);
 932:lvgl/src/lv_widgets/lv_dropdown.c ****         _lv_style_list_reset(&ext->style_selected);
 933:lvgl/src/lv_widgets/lv_dropdown.c **** 
 934:lvgl/src/lv_widgets/lv_dropdown.c ****     }
 935:lvgl/src/lv_widgets/lv_dropdown.c ****     else if(sign == LV_SIGNAL_FOCUS) {
 936:lvgl/src/lv_widgets/lv_dropdown.c **** #if LV_USE_GROUP
 937:lvgl/src/lv_widgets/lv_dropdown.c ****         lv_group_t * g             = lv_obj_get_group(ddlist);
 938:lvgl/src/lv_widgets/lv_dropdown.c ****         bool editing               = lv_group_get_editing(g);
 939:lvgl/src/lv_widgets/lv_dropdown.c ****         lv_indev_type_t indev_type = lv_indev_get_type(lv_indev_get_act());
 940:lvgl/src/lv_widgets/lv_dropdown.c **** 
 941:lvgl/src/lv_widgets/lv_dropdown.c ****         /*Encoders need special handling*/
 942:lvgl/src/lv_widgets/lv_dropdown.c ****         if(indev_type == LV_INDEV_TYPE_ENCODER) {
ARM GAS  D:\Temp\ccIRM2yk.s 			page 18


 943:lvgl/src/lv_widgets/lv_dropdown.c ****             /*Open the list if editing*/
 944:lvgl/src/lv_widgets/lv_dropdown.c ****             if(editing) lv_dropdown_open(ddlist);
 945:lvgl/src/lv_widgets/lv_dropdown.c ****             /*Close the list if navigating*/
 946:lvgl/src/lv_widgets/lv_dropdown.c ****             else
 947:lvgl/src/lv_widgets/lv_dropdown.c ****                 lv_dropdown_close(ddlist);
 948:lvgl/src/lv_widgets/lv_dropdown.c ****         }
 949:lvgl/src/lv_widgets/lv_dropdown.c **** #endif
 950:lvgl/src/lv_widgets/lv_dropdown.c ****     }
 951:lvgl/src/lv_widgets/lv_dropdown.c ****     else if(sign == LV_SIGNAL_DEFOCUS || sign == LV_SIGNAL_LEAVE) {
 952:lvgl/src/lv_widgets/lv_dropdown.c ****         lv_dropdown_close(ddlist);
 953:lvgl/src/lv_widgets/lv_dropdown.c ****     }
 954:lvgl/src/lv_widgets/lv_dropdown.c ****     else if(sign == LV_SIGNAL_RELEASED) {
 955:lvgl/src/lv_widgets/lv_dropdown.c ****         lv_indev_t * indev = lv_indev_get_act();
 956:lvgl/src/lv_widgets/lv_dropdown.c ****         if(lv_indev_is_dragging(indev) == false) {
 957:lvgl/src/lv_widgets/lv_dropdown.c ****             if(ext->page) {
 958:lvgl/src/lv_widgets/lv_dropdown.c ****                 lv_dropdown_close(ddlist);
 959:lvgl/src/lv_widgets/lv_dropdown.c ****                 if(ext->sel_opt_id_orig != ext->sel_opt_id) {
 960:lvgl/src/lv_widgets/lv_dropdown.c ****                     ext->sel_opt_id_orig = ext->sel_opt_id;
 961:lvgl/src/lv_widgets/lv_dropdown.c ****                     uint32_t id  = ext->sel_opt_id; /*Just to use uint32_t in event data*/
 962:lvgl/src/lv_widgets/lv_dropdown.c ****                     res = lv_event_send(ddlist, LV_EVENT_VALUE_CHANGED, &id);
 963:lvgl/src/lv_widgets/lv_dropdown.c ****                     if(res != LV_RES_OK) return res;
 964:lvgl/src/lv_widgets/lv_dropdown.c ****                     lv_obj_invalidate(ddlist);
 965:lvgl/src/lv_widgets/lv_dropdown.c ****                 }
 966:lvgl/src/lv_widgets/lv_dropdown.c **** #if LV_USE_GROUP
 967:lvgl/src/lv_widgets/lv_dropdown.c ****                 lv_indev_type_t indev_type = lv_indev_get_type(indev);
 968:lvgl/src/lv_widgets/lv_dropdown.c ****                 if(indev_type == LV_INDEV_TYPE_ENCODER) {
 969:lvgl/src/lv_widgets/lv_dropdown.c ****                     lv_group_set_editing(lv_obj_get_group(ddlist), false);
 970:lvgl/src/lv_widgets/lv_dropdown.c ****                 }
 971:lvgl/src/lv_widgets/lv_dropdown.c **** #endif
 972:lvgl/src/lv_widgets/lv_dropdown.c ****             }
 973:lvgl/src/lv_widgets/lv_dropdown.c ****             else {
 974:lvgl/src/lv_widgets/lv_dropdown.c ****                 lv_dropdown_open(ddlist);
 975:lvgl/src/lv_widgets/lv_dropdown.c ****             }
 976:lvgl/src/lv_widgets/lv_dropdown.c ****         }
 977:lvgl/src/lv_widgets/lv_dropdown.c ****         else {
 978:lvgl/src/lv_widgets/lv_dropdown.c ****             ext->sel_opt_id = ext->sel_opt_id_orig;
 979:lvgl/src/lv_widgets/lv_dropdown.c ****             lv_obj_invalidate(ddlist);
 980:lvgl/src/lv_widgets/lv_dropdown.c ****         }
 981:lvgl/src/lv_widgets/lv_dropdown.c ****     }
 982:lvgl/src/lv_widgets/lv_dropdown.c ****     else if(sign == LV_SIGNAL_COORD_CHG) {
 983:lvgl/src/lv_widgets/lv_dropdown.c ****         if(ext->page) lv_dropdown_close(ddlist);
 984:lvgl/src/lv_widgets/lv_dropdown.c ****     }
 985:lvgl/src/lv_widgets/lv_dropdown.c ****     else if(sign == LV_SIGNAL_STYLE_CHG) {
 986:lvgl/src/lv_widgets/lv_dropdown.c ****         lv_style_int_t top = lv_obj_get_style_pad_top(ddlist, LV_DROPDOWN_PART_MAIN);
 987:lvgl/src/lv_widgets/lv_dropdown.c ****         lv_style_int_t bottom = lv_obj_get_style_pad_bottom(ddlist, LV_DROPDOWN_PART_MAIN);
 988:lvgl/src/lv_widgets/lv_dropdown.c ****         const lv_font_t * font = lv_obj_get_style_text_font(ddlist, LV_DROPDOWN_PART_MAIN);
 989:lvgl/src/lv_widgets/lv_dropdown.c ****         lv_obj_set_height(ddlist, top + bottom + lv_font_get_line_height(font));
 990:lvgl/src/lv_widgets/lv_dropdown.c **** 
 991:lvgl/src/lv_widgets/lv_dropdown.c ****         if(ext->page) lv_obj_refresh_style(ext->page, LV_OBJ_PART_ALL, LV_STYLE_PROP_ALL);
 992:lvgl/src/lv_widgets/lv_dropdown.c ****     }
 993:lvgl/src/lv_widgets/lv_dropdown.c ****     else if(sign == LV_SIGNAL_CONTROL) {
 994:lvgl/src/lv_widgets/lv_dropdown.c **** #if LV_USE_GROUP
 995:lvgl/src/lv_widgets/lv_dropdown.c ****         char c = *((char *)param);
 996:lvgl/src/lv_widgets/lv_dropdown.c ****         if(c == LV_KEY_RIGHT || c == LV_KEY_DOWN) {
 997:lvgl/src/lv_widgets/lv_dropdown.c ****             if(ext->page == NULL) {
 998:lvgl/src/lv_widgets/lv_dropdown.c ****                 lv_dropdown_open(ddlist);
 999:lvgl/src/lv_widgets/lv_dropdown.c ****             }
ARM GAS  D:\Temp\ccIRM2yk.s 			page 19


1000:lvgl/src/lv_widgets/lv_dropdown.c ****             else if(ext->sel_opt_id + 1 < ext->option_cnt) {
1001:lvgl/src/lv_widgets/lv_dropdown.c ****                 ext->sel_opt_id++;
1002:lvgl/src/lv_widgets/lv_dropdown.c ****                 position_to_selected(ddlist);
1003:lvgl/src/lv_widgets/lv_dropdown.c ****             }
1004:lvgl/src/lv_widgets/lv_dropdown.c ****         }
1005:lvgl/src/lv_widgets/lv_dropdown.c ****         else if(c == LV_KEY_LEFT || c == LV_KEY_UP) {
1006:lvgl/src/lv_widgets/lv_dropdown.c **** 
1007:lvgl/src/lv_widgets/lv_dropdown.c ****             if(ext->page == NULL) {
1008:lvgl/src/lv_widgets/lv_dropdown.c ****                 lv_dropdown_open(ddlist);
1009:lvgl/src/lv_widgets/lv_dropdown.c ****             }
1010:lvgl/src/lv_widgets/lv_dropdown.c ****             else if(ext->sel_opt_id > 0) {
1011:lvgl/src/lv_widgets/lv_dropdown.c ****                 ext->sel_opt_id--;
1012:lvgl/src/lv_widgets/lv_dropdown.c ****                 position_to_selected(ddlist);
1013:lvgl/src/lv_widgets/lv_dropdown.c ****             }
1014:lvgl/src/lv_widgets/lv_dropdown.c ****         }
1015:lvgl/src/lv_widgets/lv_dropdown.c ****         else if(c == LV_KEY_ESC) {
1016:lvgl/src/lv_widgets/lv_dropdown.c ****             ext->sel_opt_id = ext->sel_opt_id_orig;
1017:lvgl/src/lv_widgets/lv_dropdown.c ****             lv_dropdown_close(ddlist);
1018:lvgl/src/lv_widgets/lv_dropdown.c ****         }
1019:lvgl/src/lv_widgets/lv_dropdown.c **** #endif
1020:lvgl/src/lv_widgets/lv_dropdown.c ****     }
1021:lvgl/src/lv_widgets/lv_dropdown.c ****     else if(sign == LV_SIGNAL_GET_EDITABLE) {
1022:lvgl/src/lv_widgets/lv_dropdown.c **** #if LV_USE_GROUP
1023:lvgl/src/lv_widgets/lv_dropdown.c ****         bool * editable = (bool *)param;
1024:lvgl/src/lv_widgets/lv_dropdown.c ****         *editable       = true;
1025:lvgl/src/lv_widgets/lv_dropdown.c **** #endif
1026:lvgl/src/lv_widgets/lv_dropdown.c ****     }
1027:lvgl/src/lv_widgets/lv_dropdown.c **** 
1028:lvgl/src/lv_widgets/lv_dropdown.c ****     return res;
1029:lvgl/src/lv_widgets/lv_dropdown.c **** }
1030:lvgl/src/lv_widgets/lv_dropdown.c **** 
1031:lvgl/src/lv_widgets/lv_dropdown.c **** /**
1032:lvgl/src/lv_widgets/lv_dropdown.c ****  * Signal function of the drop down list's scrollable part
1033:lvgl/src/lv_widgets/lv_dropdown.c ****  * @param scrl pointer to a drop down list's scrollable part
1034:lvgl/src/lv_widgets/lv_dropdown.c ****  * @param sign a signal type from lv_signal_t enum
1035:lvgl/src/lv_widgets/lv_dropdown.c ****  * @param param pointer to a signal specific variable
1036:lvgl/src/lv_widgets/lv_dropdown.c ****  * @return LV_RES_OK: the object is not deleted in the function; LV_RES_INV: the object is deleted
1037:lvgl/src/lv_widgets/lv_dropdown.c ****  */
1038:lvgl/src/lv_widgets/lv_dropdown.c **** static lv_res_t lv_dropdown_page_signal(lv_obj_t * page, lv_signal_t sign, void * param)
1039:lvgl/src/lv_widgets/lv_dropdown.c **** {
1040:lvgl/src/lv_widgets/lv_dropdown.c ****     lv_res_t res;
1041:lvgl/src/lv_widgets/lv_dropdown.c **** 
1042:lvgl/src/lv_widgets/lv_dropdown.c ****     /* Include the ancient signal function */
1043:lvgl/src/lv_widgets/lv_dropdown.c ****     res = ancestor_page_signal(page, sign, param);
1044:lvgl/src/lv_widgets/lv_dropdown.c ****     if(res != LV_RES_OK) return res;
1045:lvgl/src/lv_widgets/lv_dropdown.c ****     if(sign == LV_SIGNAL_GET_TYPE) return lv_obj_handle_get_type_signal(param, "");
1046:lvgl/src/lv_widgets/lv_dropdown.c **** 
1047:lvgl/src/lv_widgets/lv_dropdown.c ****     lv_dropdown_page_ext_t * page_ext = lv_obj_get_ext_attr(page);
1048:lvgl/src/lv_widgets/lv_dropdown.c ****     lv_obj_t * ddlist = page_ext->ddlist;
1049:lvgl/src/lv_widgets/lv_dropdown.c **** 
1050:lvgl/src/lv_widgets/lv_dropdown.c ****     if(sign == LV_SIGNAL_REFR_EXT_DRAW_PAD) {
1051:lvgl/src/lv_widgets/lv_dropdown.c ****         /* Make possible to draw on the full width of the background to redraw the selected rectang
1052:lvgl/src/lv_widgets/lv_dropdown.c ****          * when the ddlist is scrolled in fix height mode.
1053:lvgl/src/lv_widgets/lv_dropdown.c ****          * (The scrollable is scrolled then "select rectangle" is drawn on the bg too)*/
1054:lvgl/src/lv_widgets/lv_dropdown.c ****         lv_style_int_t left = lv_obj_get_style_pad_left(ddlist, LV_DROPDOWN_PART_LIST);
1055:lvgl/src/lv_widgets/lv_dropdown.c ****         lv_style_int_t right = lv_obj_get_style_pad_right(ddlist, LV_DROPDOWN_PART_LIST);
1056:lvgl/src/lv_widgets/lv_dropdown.c ****         lv_obj_t * scrl = lv_page_get_scrollable(page);
ARM GAS  D:\Temp\ccIRM2yk.s 			page 20


1057:lvgl/src/lv_widgets/lv_dropdown.c ****         scrl->ext_draw_pad = LV_MATH_MAX3(scrl->ext_draw_pad, left, right);
1058:lvgl/src/lv_widgets/lv_dropdown.c ****     }
1059:lvgl/src/lv_widgets/lv_dropdown.c ****     else if(sign == LV_SIGNAL_RELEASED) {
1060:lvgl/src/lv_widgets/lv_dropdown.c ****         if(lv_indev_is_dragging(lv_indev_get_act()) == false) {
1061:lvgl/src/lv_widgets/lv_dropdown.c ****             page_release_handler(page);
1062:lvgl/src/lv_widgets/lv_dropdown.c ****         }
1063:lvgl/src/lv_widgets/lv_dropdown.c ****     }
1064:lvgl/src/lv_widgets/lv_dropdown.c ****     else if(sign == LV_SIGNAL_PRESSED) {
1065:lvgl/src/lv_widgets/lv_dropdown.c ****         page_press_handler(page);
1066:lvgl/src/lv_widgets/lv_dropdown.c ****     }
1067:lvgl/src/lv_widgets/lv_dropdown.c ****     else if(sign == LV_SIGNAL_CLEANUP) {
1068:lvgl/src/lv_widgets/lv_dropdown.c ****         lv_dropdown_ext_t * ext = lv_obj_get_ext_attr(ddlist);
1069:lvgl/src/lv_widgets/lv_dropdown.c ****         ext->page  = NULL; /*The page is just being deleted*/
1070:lvgl/src/lv_widgets/lv_dropdown.c ****     }
1071:lvgl/src/lv_widgets/lv_dropdown.c **** 
1072:lvgl/src/lv_widgets/lv_dropdown.c ****     return res;
1073:lvgl/src/lv_widgets/lv_dropdown.c **** }
1074:lvgl/src/lv_widgets/lv_dropdown.c **** 
1075:lvgl/src/lv_widgets/lv_dropdown.c **** /**
1076:lvgl/src/lv_widgets/lv_dropdown.c ****  * Signal function of the drop down list's scrollable part
1077:lvgl/src/lv_widgets/lv_dropdown.c ****  * @param scrl pointer to a drop down list's scrollable part
1078:lvgl/src/lv_widgets/lv_dropdown.c ****  * @param sign a signal type from lv_signal_t enum
1079:lvgl/src/lv_widgets/lv_dropdown.c ****  * @param param pointer to a signal specific variable
1080:lvgl/src/lv_widgets/lv_dropdown.c ****  * @return LV_RES_OK: the object is not deleted in the function; LV_RES_INV: the object is deleted
1081:lvgl/src/lv_widgets/lv_dropdown.c ****  */
1082:lvgl/src/lv_widgets/lv_dropdown.c **** static lv_res_t lv_dropdown_page_scrl_signal(lv_obj_t * scrl, lv_signal_t sign, void * param)
1083:lvgl/src/lv_widgets/lv_dropdown.c **** {
1084:lvgl/src/lv_widgets/lv_dropdown.c ****     lv_res_t res;
1085:lvgl/src/lv_widgets/lv_dropdown.c **** 
1086:lvgl/src/lv_widgets/lv_dropdown.c ****     /* Include the ancient signal function */
1087:lvgl/src/lv_widgets/lv_dropdown.c ****     res = ancestor_page_scrl_signal(scrl, sign, param);
1088:lvgl/src/lv_widgets/lv_dropdown.c ****     if(res != LV_RES_OK) return res;
1089:lvgl/src/lv_widgets/lv_dropdown.c ****     if(sign == LV_SIGNAL_GET_TYPE) return lv_obj_handle_get_type_signal(param, "");
1090:lvgl/src/lv_widgets/lv_dropdown.c **** 
1091:lvgl/src/lv_widgets/lv_dropdown.c ****     lv_obj_t * page = lv_obj_get_parent(scrl);
1092:lvgl/src/lv_widgets/lv_dropdown.c ****     lv_dropdown_page_ext_t * page_ext = lv_obj_get_ext_attr(page);
1093:lvgl/src/lv_widgets/lv_dropdown.c ****     lv_obj_t * ddlist = page_ext->ddlist;
1094:lvgl/src/lv_widgets/lv_dropdown.c ****     lv_dropdown_ext_t * ext = lv_obj_get_ext_attr(ddlist);
1095:lvgl/src/lv_widgets/lv_dropdown.c **** 
1096:lvgl/src/lv_widgets/lv_dropdown.c ****     if(sign == LV_SIGNAL_RELEASED) {
1097:lvgl/src/lv_widgets/lv_dropdown.c ****         if(lv_indev_is_dragging(lv_indev_get_act()) == false) {
1098:lvgl/src/lv_widgets/lv_dropdown.c ****             page_release_handler(page);
1099:lvgl/src/lv_widgets/lv_dropdown.c ****         }
1100:lvgl/src/lv_widgets/lv_dropdown.c ****     }
1101:lvgl/src/lv_widgets/lv_dropdown.c ****     else if(sign == LV_SIGNAL_PRESSED) {
1102:lvgl/src/lv_widgets/lv_dropdown.c ****         page_press_handler(page);
1103:lvgl/src/lv_widgets/lv_dropdown.c ****     }
1104:lvgl/src/lv_widgets/lv_dropdown.c ****     else if(sign == LV_SIGNAL_DRAG_BEGIN) {
1105:lvgl/src/lv_widgets/lv_dropdown.c ****         ext->pr_opt_id = LV_DROPDOWN_PR_NONE;
1106:lvgl/src/lv_widgets/lv_dropdown.c ****         lv_obj_invalidate(page);
1107:lvgl/src/lv_widgets/lv_dropdown.c ****     }
1108:lvgl/src/lv_widgets/lv_dropdown.c ****     else if(sign == LV_SIGNAL_REFR_EXT_DRAW_PAD) {
1109:lvgl/src/lv_widgets/lv_dropdown.c ****         /* Make possible to draw on the full width of the background to redraw the selected rectang
1110:lvgl/src/lv_widgets/lv_dropdown.c ****          * when the ddlist is scrolled in fix height mode.
1111:lvgl/src/lv_widgets/lv_dropdown.c ****          * (The scrollable is scrolled then "select rectangle" is drawn on the bg too)*/
1112:lvgl/src/lv_widgets/lv_dropdown.c ****         lv_style_int_t left = lv_obj_get_style_pad_left(ddlist, LV_DROPDOWN_PART_LIST);
1113:lvgl/src/lv_widgets/lv_dropdown.c ****         lv_style_int_t right = lv_obj_get_style_pad_right(ddlist, LV_DROPDOWN_PART_LIST);
ARM GAS  D:\Temp\ccIRM2yk.s 			page 21


1114:lvgl/src/lv_widgets/lv_dropdown.c ****         scrl->ext_draw_pad = LV_MATH_MAX3(scrl->ext_draw_pad, left, right);
1115:lvgl/src/lv_widgets/lv_dropdown.c ****     }
1116:lvgl/src/lv_widgets/lv_dropdown.c **** 
1117:lvgl/src/lv_widgets/lv_dropdown.c ****     return res;
1118:lvgl/src/lv_widgets/lv_dropdown.c **** }
1119:lvgl/src/lv_widgets/lv_dropdown.c **** 
1120:lvgl/src/lv_widgets/lv_dropdown.c **** /**
1121:lvgl/src/lv_widgets/lv_dropdown.c ****  * Get the style descriptor of a part of the object
1122:lvgl/src/lv_widgets/lv_dropdown.c ****  * @param page pointer the object
1123:lvgl/src/lv_widgets/lv_dropdown.c ****  * @param part the part from `lv_dropdown_part_t`. (LV_DROPDOWN_PART_...)
1124:lvgl/src/lv_widgets/lv_dropdown.c ****  * @return pointer to the style descriptor of the specified part
1125:lvgl/src/lv_widgets/lv_dropdown.c ****  */
1126:lvgl/src/lv_widgets/lv_dropdown.c **** static lv_style_list_t * lv_dropdown_get_style(lv_obj_t * ddlist, uint8_t part)
1127:lvgl/src/lv_widgets/lv_dropdown.c **** {
  29              		.loc 1 1127 1 view -0
  30              		.cfi_startproc
  31              		@ args = 0, pretend = 0, frame = 0
  32              		@ frame_needed = 0, uses_anonymous_args = 0
  33              		.loc 1 1127 1 is_stmt 0 view .LVU1
  34 0000 38B5     		push	{r3, r4, r5, lr}
  35              	.LCFI0:
  36              		.cfi_def_cfa_offset 16
  37              		.cfi_offset 3, -16
  38              		.cfi_offset 4, -12
  39              		.cfi_offset 5, -8
  40              		.cfi_offset 14, -4
  41 0002 0546     		mov	r5, r0
  42 0004 0C46     		mov	r4, r1
1128:lvgl/src/lv_widgets/lv_dropdown.c ****     LV_ASSERT_OBJ(ddlist, LV_OBJX_NAME);
  43              		.loc 1 1128 5 is_stmt 1 view .LVU2
  44              		.loc 1 1128 5 view .LVU3
  45 0006 FFF7FEFF 		bl	lv_debug_check_null
  46              	.LVL1:
  47              		.loc 1 1128 5 is_stmt 0 view .LVU4
  48 000a 28B9     		cbnz	r0, .L2
  49              		.loc 1 1128 5 is_stmt 1 discriminator 1 view .LVU5
  50              		.loc 1 1128 5 discriminator 1 view .LVU6
  51 000c 2A46     		mov	r2, r5
  52 000e 0023     		movs	r3, #0
  53 0010 0D48     		ldr	r0, .L14
  54 0012 FFF7FEFF 		bl	lv_debug_log_error
  55              	.LVL2:
  56              	.L3:
  57              		.loc 1 1128 5 discriminator 1 view .LVU7
  58              		.loc 1 1128 5 discriminator 1 view .LVU8
  59 0016 FEE7     		b	.L3
  60              	.L2:
  61              		.loc 1 1128 40 discriminator 2 view .LVU9
1129:lvgl/src/lv_widgets/lv_dropdown.c **** 
1130:lvgl/src/lv_widgets/lv_dropdown.c ****     lv_dropdown_ext_t * ext = lv_obj_get_ext_attr(ddlist);
  62              		.loc 1 1130 5 discriminator 2 view .LVU10
  63              		.loc 1 1130 31 is_stmt 0 discriminator 2 view .LVU11
  64 0018 2846     		mov	r0, r5
  65 001a FFF7FEFF 		bl	lv_obj_get_ext_attr
  66              	.LVL3:
1131:lvgl/src/lv_widgets/lv_dropdown.c ****     lv_style_list_t * style_dsc_p;
  67              		.loc 1 1131 5 is_stmt 1 discriminator 2 view .LVU12
ARM GAS  D:\Temp\ccIRM2yk.s 			page 22


1132:lvgl/src/lv_widgets/lv_dropdown.c **** 
1133:lvgl/src/lv_widgets/lv_dropdown.c ****     switch(part) {
  68              		.loc 1 1133 5 discriminator 2 view .LVU13
  69 001e 402C     		cmp	r4, #64
  70 0020 0ED0     		beq	.L4
  71              		.loc 1 1133 5 is_stmt 0 view .LVU14
  72 0022 05D9     		bls	.L11
  73 0024 412C     		cmp	r4, #65
  74 0026 0DD0     		beq	.L8
  75 0028 422C     		cmp	r4, #66
  76 002a 07D1     		bne	.L12
1134:lvgl/src/lv_widgets/lv_dropdown.c ****         case LV_DROPDOWN_PART_MAIN:
1135:lvgl/src/lv_widgets/lv_dropdown.c ****             style_dsc_p = &ddlist->style_list;
1136:lvgl/src/lv_widgets/lv_dropdown.c ****             break;
1137:lvgl/src/lv_widgets/lv_dropdown.c ****         case LV_DROPDOWN_PART_LIST:
1138:lvgl/src/lv_widgets/lv_dropdown.c ****             style_dsc_p = &ext->style_page;
1139:lvgl/src/lv_widgets/lv_dropdown.c ****             break;
1140:lvgl/src/lv_widgets/lv_dropdown.c ****         case LV_DROPDOWN_PART_SCROLLBAR:
1141:lvgl/src/lv_widgets/lv_dropdown.c ****             style_dsc_p = &ext->style_scrlbar;
1142:lvgl/src/lv_widgets/lv_dropdown.c ****             break;
1143:lvgl/src/lv_widgets/lv_dropdown.c ****         case LV_DROPDOWN_PART_SELECTED:
1144:lvgl/src/lv_widgets/lv_dropdown.c ****             style_dsc_p = &ext->style_selected;
  77              		.loc 1 1144 13 is_stmt 1 view .LVU15
  78              		.loc 1 1144 25 is_stmt 0 view .LVU16
  79 002c 1030     		adds	r0, r0, #16
  80              	.LVL4:
1145:lvgl/src/lv_widgets/lv_dropdown.c ****             break;
  81              		.loc 1 1145 13 is_stmt 1 view .LVU17
1146:lvgl/src/lv_widgets/lv_dropdown.c ****         default:
1147:lvgl/src/lv_widgets/lv_dropdown.c ****             style_dsc_p = NULL;
1148:lvgl/src/lv_widgets/lv_dropdown.c ****     }
1149:lvgl/src/lv_widgets/lv_dropdown.c **** 
1150:lvgl/src/lv_widgets/lv_dropdown.c ****     return style_dsc_p;
  82              		.loc 1 1150 5 view .LVU18
  83              		.loc 1 1150 12 is_stmt 0 view .LVU19
  84 002e 04E0     		b	.L1
  85              	.LVL5:
  86              	.L11:
1133:lvgl/src/lv_widgets/lv_dropdown.c ****         case LV_DROPDOWN_PART_MAIN:
  87              		.loc 1 1133 5 view .LVU20
  88 0030 14B9     		cbnz	r4, .L13
1135:lvgl/src/lv_widgets/lv_dropdown.c ****             break;
  89              		.loc 1 1135 13 is_stmt 1 view .LVU21
1135:lvgl/src/lv_widgets/lv_dropdown.c ****             break;
  90              		.loc 1 1135 25 is_stmt 0 view .LVU22
  91 0032 05F12800 		add	r0, r5, #40
  92              	.LVL6:
1136:lvgl/src/lv_widgets/lv_dropdown.c ****         case LV_DROPDOWN_PART_LIST:
  93              		.loc 1 1136 13 is_stmt 1 view .LVU23
  94 0036 00E0     		b	.L1
  95              	.LVL7:
  96              	.L13:
1147:lvgl/src/lv_widgets/lv_dropdown.c ****     }
  97              		.loc 1 1147 25 is_stmt 0 view .LVU24
  98 0038 0020     		movs	r0, #0
  99              	.LVL8:
 100              	.L1:
ARM GAS  D:\Temp\ccIRM2yk.s 			page 23


1151:lvgl/src/lv_widgets/lv_dropdown.c **** }
 101              		.loc 1 1151 1 view .LVU25
 102 003a 38BD     		pop	{r3, r4, r5, pc}
 103              	.LVL9:
 104              	.L12:
1147:lvgl/src/lv_widgets/lv_dropdown.c ****     }
 105              		.loc 1 1147 25 view .LVU26
 106 003c 0020     		movs	r0, #0
 107              	.LVL10:
1147:lvgl/src/lv_widgets/lv_dropdown.c ****     }
 108              		.loc 1 1147 25 view .LVU27
 109 003e FCE7     		b	.L1
 110              	.LVL11:
 111              	.L4:
1138:lvgl/src/lv_widgets/lv_dropdown.c ****             break;
 112              		.loc 1 1138 13 is_stmt 1 view .LVU28
1138:lvgl/src/lv_widgets/lv_dropdown.c ****             break;
 113              		.loc 1 1138 25 is_stmt 0 view .LVU29
 114 0040 1830     		adds	r0, r0, #24
 115              	.LVL12:
1139:lvgl/src/lv_widgets/lv_dropdown.c ****         case LV_DROPDOWN_PART_SCROLLBAR:
 116              		.loc 1 1139 13 is_stmt 1 view .LVU30
 117 0042 FAE7     		b	.L1
 118              	.LVL13:
 119              	.L8:
1141:lvgl/src/lv_widgets/lv_dropdown.c ****             break;
 120              		.loc 1 1141 13 view .LVU31
1141:lvgl/src/lv_widgets/lv_dropdown.c ****             break;
 121              		.loc 1 1141 25 is_stmt 0 view .LVU32
 122 0044 2030     		adds	r0, r0, #32
 123              	.LVL14:
1142:lvgl/src/lv_widgets/lv_dropdown.c ****         case LV_DROPDOWN_PART_SELECTED:
 124              		.loc 1 1142 13 is_stmt 1 view .LVU33
 125 0046 F8E7     		b	.L1
 126              	.L15:
 127              		.align	2
 128              	.L14:
 129 0048 00000000 		.word	.LC0
 130              		.cfi_endproc
 131              	.LFE505:
 133              		.section	.text.get_label,"ax",%progbits
 134              		.align	1
 135              		.syntax unified
 136              		.thumb
 137              		.thumb_func
 138              		.fpu fpv4-sp-d16
 140              	get_label:
 141              	.LVL15:
 142              	.LFB512:
1152:lvgl/src/lv_widgets/lv_dropdown.c **** 
1153:lvgl/src/lv_widgets/lv_dropdown.c **** static void draw_box(lv_obj_t * ddlist, const lv_area_t * clip_area, uint16_t id, lv_state_t state)
1154:lvgl/src/lv_widgets/lv_dropdown.c **** {
1155:lvgl/src/lv_widgets/lv_dropdown.c ****     lv_dropdown_ext_t * ext = lv_obj_get_ext_attr(ddlist);
1156:lvgl/src/lv_widgets/lv_dropdown.c ****     lv_obj_t * page = ext->page;
1157:lvgl/src/lv_widgets/lv_dropdown.c ****     lv_state_t state_orig = page->state;
1158:lvgl/src/lv_widgets/lv_dropdown.c **** 
1159:lvgl/src/lv_widgets/lv_dropdown.c ****     if(state != page->state) {
ARM GAS  D:\Temp\ccIRM2yk.s 			page 24


1160:lvgl/src/lv_widgets/lv_dropdown.c ****         _lv_obj_disable_style_caching(ddlist, true);
1161:lvgl/src/lv_widgets/lv_dropdown.c ****         page->state = state;
1162:lvgl/src/lv_widgets/lv_dropdown.c ****     }
1163:lvgl/src/lv_widgets/lv_dropdown.c **** 
1164:lvgl/src/lv_widgets/lv_dropdown.c ****     /*Draw a rectangle under the selected item*/
1165:lvgl/src/lv_widgets/lv_dropdown.c ****     const lv_font_t * font    = lv_obj_get_style_text_font(ddlist, LV_DROPDOWN_PART_LIST);
1166:lvgl/src/lv_widgets/lv_dropdown.c ****     lv_style_int_t line_space = lv_obj_get_style_text_line_space(ddlist, LV_DROPDOWN_PART_LIST);
1167:lvgl/src/lv_widgets/lv_dropdown.c ****     lv_coord_t font_h         = lv_font_get_line_height(font);
1168:lvgl/src/lv_widgets/lv_dropdown.c **** 
1169:lvgl/src/lv_widgets/lv_dropdown.c ****     /*Draw the selected*/
1170:lvgl/src/lv_widgets/lv_dropdown.c ****     lv_obj_t * label = get_label(ddlist);
1171:lvgl/src/lv_widgets/lv_dropdown.c ****     lv_area_t rect_area;
1172:lvgl/src/lv_widgets/lv_dropdown.c ****     rect_area.y1 = label->coords.y1;
1173:lvgl/src/lv_widgets/lv_dropdown.c ****     rect_area.y1 += id * (font_h + line_space);
1174:lvgl/src/lv_widgets/lv_dropdown.c ****     rect_area.y1 -= line_space / 2;
1175:lvgl/src/lv_widgets/lv_dropdown.c **** 
1176:lvgl/src/lv_widgets/lv_dropdown.c ****     rect_area.y2 = rect_area.y1 + font_h + line_space - 1;
1177:lvgl/src/lv_widgets/lv_dropdown.c ****     rect_area.x1 = ext->page->coords.x1;
1178:lvgl/src/lv_widgets/lv_dropdown.c ****     rect_area.x2 = ext->page->coords.x2;
1179:lvgl/src/lv_widgets/lv_dropdown.c **** 
1180:lvgl/src/lv_widgets/lv_dropdown.c ****     lv_draw_rect_dsc_t sel_rect;
1181:lvgl/src/lv_widgets/lv_dropdown.c ****     lv_draw_rect_dsc_init(&sel_rect);
1182:lvgl/src/lv_widgets/lv_dropdown.c ****     lv_obj_init_draw_rect_dsc(ddlist, LV_DROPDOWN_PART_SELECTED, &sel_rect);
1183:lvgl/src/lv_widgets/lv_dropdown.c ****     lv_draw_rect(&rect_area, clip_area, &sel_rect);
1184:lvgl/src/lv_widgets/lv_dropdown.c **** 
1185:lvgl/src/lv_widgets/lv_dropdown.c ****     page->state = state_orig;
1186:lvgl/src/lv_widgets/lv_dropdown.c ****     _lv_obj_disable_style_caching(ddlist, false);
1187:lvgl/src/lv_widgets/lv_dropdown.c **** }
1188:lvgl/src/lv_widgets/lv_dropdown.c **** 
1189:lvgl/src/lv_widgets/lv_dropdown.c **** static void draw_box_label(lv_obj_t * ddlist, const lv_area_t * clip_area, uint16_t id, lv_state_t 
1190:lvgl/src/lv_widgets/lv_dropdown.c **** {
1191:lvgl/src/lv_widgets/lv_dropdown.c ****     lv_dropdown_ext_t * ext = lv_obj_get_ext_attr(ddlist);
1192:lvgl/src/lv_widgets/lv_dropdown.c ****     lv_obj_t * page = ext->page;
1193:lvgl/src/lv_widgets/lv_dropdown.c ****     lv_state_t state_orig = page->state;
1194:lvgl/src/lv_widgets/lv_dropdown.c **** 
1195:lvgl/src/lv_widgets/lv_dropdown.c ****     if(state != page->state) {
1196:lvgl/src/lv_widgets/lv_dropdown.c ****         page->state =  state;
1197:lvgl/src/lv_widgets/lv_dropdown.c ****         _lv_obj_disable_style_caching(ddlist, true);
1198:lvgl/src/lv_widgets/lv_dropdown.c ****     }
1199:lvgl/src/lv_widgets/lv_dropdown.c **** 
1200:lvgl/src/lv_widgets/lv_dropdown.c ****     lv_draw_label_dsc_t label_dsc;
1201:lvgl/src/lv_widgets/lv_dropdown.c ****     lv_draw_label_dsc_init(&label_dsc);
1202:lvgl/src/lv_widgets/lv_dropdown.c ****     lv_obj_init_draw_label_dsc(ddlist, LV_DROPDOWN_PART_SELECTED, &label_dsc);
1203:lvgl/src/lv_widgets/lv_dropdown.c **** 
1204:lvgl/src/lv_widgets/lv_dropdown.c ****     label_dsc.line_space = lv_obj_get_style_text_line_space(ddlist,
1205:lvgl/src/lv_widgets/lv_dropdown.c ****                                                             LV_DROPDOWN_PART_LIST);  /*Line space s
1206:lvgl/src/lv_widgets/lv_dropdown.c **** 
1207:lvgl/src/lv_widgets/lv_dropdown.c ****     lv_obj_t * label = get_label(ddlist);
1208:lvgl/src/lv_widgets/lv_dropdown.c ****     if(label == NULL) return;
1209:lvgl/src/lv_widgets/lv_dropdown.c **** 
1210:lvgl/src/lv_widgets/lv_dropdown.c ****     lv_label_align_t align = lv_label_get_align(label);
1211:lvgl/src/lv_widgets/lv_dropdown.c **** 
1212:lvgl/src/lv_widgets/lv_dropdown.c ****     if(align == LV_LABEL_ALIGN_CENTER) label_dsc.flag |= LV_TXT_FLAG_CENTER;
1213:lvgl/src/lv_widgets/lv_dropdown.c ****     else if(align == LV_LABEL_ALIGN_RIGHT) label_dsc.flag |= LV_TXT_FLAG_RIGHT;
1214:lvgl/src/lv_widgets/lv_dropdown.c **** 
1215:lvgl/src/lv_widgets/lv_dropdown.c ****     lv_coord_t font_h        = lv_font_get_line_height(label_dsc.font);
1216:lvgl/src/lv_widgets/lv_dropdown.c **** 
ARM GAS  D:\Temp\ccIRM2yk.s 			page 25


1217:lvgl/src/lv_widgets/lv_dropdown.c ****     lv_area_t area_sel;
1218:lvgl/src/lv_widgets/lv_dropdown.c ****     area_sel.y1 = label->coords.y1;
1219:lvgl/src/lv_widgets/lv_dropdown.c ****     area_sel.y1 += id * (font_h + label_dsc.line_space);
1220:lvgl/src/lv_widgets/lv_dropdown.c ****     area_sel.y1 -= label_dsc.line_space / 2;
1221:lvgl/src/lv_widgets/lv_dropdown.c **** 
1222:lvgl/src/lv_widgets/lv_dropdown.c ****     area_sel.y2 = area_sel.y1 + font_h + label_dsc.line_space - 1;
1223:lvgl/src/lv_widgets/lv_dropdown.c ****     area_sel.x1 = page->coords.x1;
1224:lvgl/src/lv_widgets/lv_dropdown.c ****     area_sel.x2 = page->coords.x2;
1225:lvgl/src/lv_widgets/lv_dropdown.c ****     lv_area_t mask_sel;
1226:lvgl/src/lv_widgets/lv_dropdown.c ****     bool area_ok;
1227:lvgl/src/lv_widgets/lv_dropdown.c ****     area_ok = _lv_area_intersect(&mask_sel, clip_area, &area_sel);
1228:lvgl/src/lv_widgets/lv_dropdown.c ****     if(area_ok) {
1229:lvgl/src/lv_widgets/lv_dropdown.c ****         lv_draw_label(&label->coords, &mask_sel, &label_dsc, lv_label_get_text(label), NULL);
1230:lvgl/src/lv_widgets/lv_dropdown.c ****     }
1231:lvgl/src/lv_widgets/lv_dropdown.c ****     page->state = state_orig;
1232:lvgl/src/lv_widgets/lv_dropdown.c ****     _lv_obj_disable_style_caching(ddlist, false);
1233:lvgl/src/lv_widgets/lv_dropdown.c **** }
1234:lvgl/src/lv_widgets/lv_dropdown.c **** 
1235:lvgl/src/lv_widgets/lv_dropdown.c **** /**
1236:lvgl/src/lv_widgets/lv_dropdown.c ****  * Called when a drop down list is released to open it or set new option
1237:lvgl/src/lv_widgets/lv_dropdown.c ****  * @param page pointer to the drop down list's page
1238:lvgl/src/lv_widgets/lv_dropdown.c ****  * @return LV_RES_INV if the page is not being deleted in the user callback. Else LV_RES_OK
1239:lvgl/src/lv_widgets/lv_dropdown.c ****  */
1240:lvgl/src/lv_widgets/lv_dropdown.c **** static lv_res_t page_release_handler(lv_obj_t * page)
1241:lvgl/src/lv_widgets/lv_dropdown.c **** {
1242:lvgl/src/lv_widgets/lv_dropdown.c ****     lv_dropdown_page_ext_t * page_ext = lv_obj_get_ext_attr(page);
1243:lvgl/src/lv_widgets/lv_dropdown.c ****     lv_obj_t * ddlist = page_ext->ddlist;
1244:lvgl/src/lv_widgets/lv_dropdown.c **** 
1245:lvgl/src/lv_widgets/lv_dropdown.c ****     lv_dropdown_ext_t * ext = lv_obj_get_ext_attr(ddlist);
1246:lvgl/src/lv_widgets/lv_dropdown.c **** 
1247:lvgl/src/lv_widgets/lv_dropdown.c ****     lv_indev_t * indev = lv_indev_get_act();
1248:lvgl/src/lv_widgets/lv_dropdown.c **** #if LV_USE_GROUP
1249:lvgl/src/lv_widgets/lv_dropdown.c ****     /*Leave edit mode once a new item is selected*/
1250:lvgl/src/lv_widgets/lv_dropdown.c ****     if(lv_indev_get_type(indev) == LV_INDEV_TYPE_ENCODER) {
1251:lvgl/src/lv_widgets/lv_dropdown.c ****         ext->sel_opt_id_orig = ext->sel_opt_id;
1252:lvgl/src/lv_widgets/lv_dropdown.c ****         lv_group_t * g      = lv_obj_get_group(ddlist);
1253:lvgl/src/lv_widgets/lv_dropdown.c ****         if(lv_group_get_editing(g)) {
1254:lvgl/src/lv_widgets/lv_dropdown.c ****             lv_group_set_editing(g, false);
1255:lvgl/src/lv_widgets/lv_dropdown.c ****         }
1256:lvgl/src/lv_widgets/lv_dropdown.c ****     }
1257:lvgl/src/lv_widgets/lv_dropdown.c **** #endif
1258:lvgl/src/lv_widgets/lv_dropdown.c **** 
1259:lvgl/src/lv_widgets/lv_dropdown.c ****     /*Search the clicked option (For KEYPAD and ENCODER the new value should be already set)*/
1260:lvgl/src/lv_widgets/lv_dropdown.c ****     if(lv_indev_get_type(indev) == LV_INDEV_TYPE_POINTER || lv_indev_get_type(indev) == LV_INDEV_TY
1261:lvgl/src/lv_widgets/lv_dropdown.c ****         lv_point_t p;
1262:lvgl/src/lv_widgets/lv_dropdown.c ****         lv_indev_get_point(indev, &p);
1263:lvgl/src/lv_widgets/lv_dropdown.c ****         ext->sel_opt_id     = get_id_on_point(ddlist, p.y);
1264:lvgl/src/lv_widgets/lv_dropdown.c ****         ext->sel_opt_id_orig = ext->sel_opt_id;
1265:lvgl/src/lv_widgets/lv_dropdown.c ****     }
1266:lvgl/src/lv_widgets/lv_dropdown.c **** 
1267:lvgl/src/lv_widgets/lv_dropdown.c ****     lv_dropdown_close(ddlist);
1268:lvgl/src/lv_widgets/lv_dropdown.c **** 
1269:lvgl/src/lv_widgets/lv_dropdown.c ****     /*Invalidate to refresh the text*/
1270:lvgl/src/lv_widgets/lv_dropdown.c ****     if(ext->show_selected) lv_obj_invalidate(ddlist);
1271:lvgl/src/lv_widgets/lv_dropdown.c **** 
1272:lvgl/src/lv_widgets/lv_dropdown.c ****     uint32_t id  = ext->sel_opt_id; /*Just to use uint32_t in event data*/
1273:lvgl/src/lv_widgets/lv_dropdown.c ****     lv_res_t res = lv_event_send(ddlist, LV_EVENT_VALUE_CHANGED, &id);
ARM GAS  D:\Temp\ccIRM2yk.s 			page 26


1274:lvgl/src/lv_widgets/lv_dropdown.c ****     if(res != LV_RES_OK) return res;
1275:lvgl/src/lv_widgets/lv_dropdown.c ****     if(ext->page == NULL) return LV_RES_INV;
1276:lvgl/src/lv_widgets/lv_dropdown.c **** 
1277:lvgl/src/lv_widgets/lv_dropdown.c ****     return LV_RES_OK;
1278:lvgl/src/lv_widgets/lv_dropdown.c **** }
1279:lvgl/src/lv_widgets/lv_dropdown.c **** 
1280:lvgl/src/lv_widgets/lv_dropdown.c **** static void page_press_handler(lv_obj_t * page)
1281:lvgl/src/lv_widgets/lv_dropdown.c **** {
1282:lvgl/src/lv_widgets/lv_dropdown.c ****     lv_dropdown_page_ext_t * page_ext = lv_obj_get_ext_attr(page);
1283:lvgl/src/lv_widgets/lv_dropdown.c ****     lv_obj_t * ddlist = page_ext->ddlist;
1284:lvgl/src/lv_widgets/lv_dropdown.c **** 
1285:lvgl/src/lv_widgets/lv_dropdown.c ****     lv_dropdown_ext_t * ext = lv_obj_get_ext_attr(ddlist);
1286:lvgl/src/lv_widgets/lv_dropdown.c **** 
1287:lvgl/src/lv_widgets/lv_dropdown.c ****     lv_indev_t * indev = lv_indev_get_act();
1288:lvgl/src/lv_widgets/lv_dropdown.c ****     if(indev && (lv_indev_get_type(indev) == LV_INDEV_TYPE_POINTER || lv_indev_get_type(indev) == L
1289:lvgl/src/lv_widgets/lv_dropdown.c ****         lv_point_t p;
1290:lvgl/src/lv_widgets/lv_dropdown.c ****         lv_indev_get_point(indev, &p);
1291:lvgl/src/lv_widgets/lv_dropdown.c ****         ext->pr_opt_id = get_id_on_point(ddlist, p.y);
1292:lvgl/src/lv_widgets/lv_dropdown.c ****         lv_obj_invalidate(page);
1293:lvgl/src/lv_widgets/lv_dropdown.c ****     }
1294:lvgl/src/lv_widgets/lv_dropdown.c **** }
1295:lvgl/src/lv_widgets/lv_dropdown.c **** 
1296:lvgl/src/lv_widgets/lv_dropdown.c **** static uint16_t get_id_on_point(lv_obj_t * ddlist, lv_coord_t y)
1297:lvgl/src/lv_widgets/lv_dropdown.c **** {
1298:lvgl/src/lv_widgets/lv_dropdown.c ****     lv_dropdown_ext_t * ext          = lv_obj_get_ext_attr(ddlist);
1299:lvgl/src/lv_widgets/lv_dropdown.c ****     lv_obj_t * label = get_label(ddlist);
1300:lvgl/src/lv_widgets/lv_dropdown.c ****     if(label == NULL) return 0;
1301:lvgl/src/lv_widgets/lv_dropdown.c ****     y -= label->coords.y1;
1302:lvgl/src/lv_widgets/lv_dropdown.c **** 
1303:lvgl/src/lv_widgets/lv_dropdown.c ****     const lv_font_t * font         = lv_obj_get_style_text_font(label, LV_LABEL_PART_MAIN);
1304:lvgl/src/lv_widgets/lv_dropdown.c ****     lv_coord_t font_h              = lv_font_get_line_height(font);
1305:lvgl/src/lv_widgets/lv_dropdown.c ****     lv_style_int_t line_space = lv_obj_get_style_text_line_space(label, LV_LABEL_PART_MAIN);
1306:lvgl/src/lv_widgets/lv_dropdown.c **** 
1307:lvgl/src/lv_widgets/lv_dropdown.c ****     y += line_space / 2;
1308:lvgl/src/lv_widgets/lv_dropdown.c ****     lv_coord_t h = font_h + line_space;
1309:lvgl/src/lv_widgets/lv_dropdown.c **** 
1310:lvgl/src/lv_widgets/lv_dropdown.c ****     uint16_t opt = y / h;
1311:lvgl/src/lv_widgets/lv_dropdown.c **** 
1312:lvgl/src/lv_widgets/lv_dropdown.c ****     if(opt >= ext->option_cnt) opt = ext->option_cnt - 1;
1313:lvgl/src/lv_widgets/lv_dropdown.c ****     return opt;
1314:lvgl/src/lv_widgets/lv_dropdown.c **** }
1315:lvgl/src/lv_widgets/lv_dropdown.c **** 
1316:lvgl/src/lv_widgets/lv_dropdown.c **** /**
1317:lvgl/src/lv_widgets/lv_dropdown.c ****  * Set the position of list when it is closed to show the selected item
1318:lvgl/src/lv_widgets/lv_dropdown.c ****  * @param ddlist pointer to a drop down list
1319:lvgl/src/lv_widgets/lv_dropdown.c ****  */
1320:lvgl/src/lv_widgets/lv_dropdown.c **** static void position_to_selected(lv_obj_t * ddlist)
1321:lvgl/src/lv_widgets/lv_dropdown.c **** {
1322:lvgl/src/lv_widgets/lv_dropdown.c ****     lv_dropdown_ext_t * ext          = lv_obj_get_ext_attr(ddlist);
1323:lvgl/src/lv_widgets/lv_dropdown.c **** 
1324:lvgl/src/lv_widgets/lv_dropdown.c ****     const lv_font_t * font         = lv_obj_get_style_text_font(ddlist, LV_DROPDOWN_PART_LIST);
1325:lvgl/src/lv_widgets/lv_dropdown.c ****     lv_coord_t font_h              = lv_font_get_line_height(font);
1326:lvgl/src/lv_widgets/lv_dropdown.c ****     lv_obj_t * scrl                = lv_page_get_scrollable(ext->page);
1327:lvgl/src/lv_widgets/lv_dropdown.c ****     lv_obj_t * label = get_label(ddlist);
1328:lvgl/src/lv_widgets/lv_dropdown.c ****     if(label == NULL) return;
1329:lvgl/src/lv_widgets/lv_dropdown.c **** 
1330:lvgl/src/lv_widgets/lv_dropdown.c ****     lv_coord_t h = lv_obj_get_height(ext->page);
ARM GAS  D:\Temp\ccIRM2yk.s 			page 27


1331:lvgl/src/lv_widgets/lv_dropdown.c ****     lv_style_int_t line_space = lv_obj_get_style_text_line_space(ddlist, LV_DROPDOWN_PART_LIST);
1332:lvgl/src/lv_widgets/lv_dropdown.c **** 
1333:lvgl/src/lv_widgets/lv_dropdown.c ****     lv_coord_t line_y1 = ext->sel_opt_id * (font_h + line_space) + label->coords.y1 - scrl->coords.
1334:lvgl/src/lv_widgets/lv_dropdown.c **** 
1335:lvgl/src/lv_widgets/lv_dropdown.c ****     lv_obj_set_y(scrl, -line_y1 + (h - font_h) / 2);
1336:lvgl/src/lv_widgets/lv_dropdown.c ****     lv_obj_invalidate(ext->page);
1337:lvgl/src/lv_widgets/lv_dropdown.c **** }
1338:lvgl/src/lv_widgets/lv_dropdown.c **** 
1339:lvgl/src/lv_widgets/lv_dropdown.c **** static lv_obj_t * get_label(const lv_obj_t * ddlist)
1340:lvgl/src/lv_widgets/lv_dropdown.c **** {
 143              		.loc 1 1340 1 view -0
 144              		.cfi_startproc
 145              		@ args = 0, pretend = 0, frame = 0
 146              		@ frame_needed = 0, uses_anonymous_args = 0
 147              		.loc 1 1340 1 is_stmt 0 view .LVU35
 148 0000 08B5     		push	{r3, lr}
 149              	.LCFI1:
 150              		.cfi_def_cfa_offset 8
 151              		.cfi_offset 3, -8
 152              		.cfi_offset 14, -4
1341:lvgl/src/lv_widgets/lv_dropdown.c ****     lv_dropdown_ext_t * ext = lv_obj_get_ext_attr(ddlist);
 153              		.loc 1 1341 5 is_stmt 1 view .LVU36
 154              		.loc 1 1341 31 is_stmt 0 view .LVU37
 155 0002 FFF7FEFF 		bl	lv_obj_get_ext_attr
 156              	.LVL16:
1342:lvgl/src/lv_widgets/lv_dropdown.c ****     if(ext->page == NULL) return NULL;
 157              		.loc 1 1342 5 is_stmt 1 view .LVU38
 158              		.loc 1 1342 11 is_stmt 0 view .LVU39
 159 0006 0068     		ldr	r0, [r0]
 160              	.LVL17:
 161              		.loc 1 1342 7 view .LVU40
 162 0008 20B1     		cbz	r0, .L16
1343:lvgl/src/lv_widgets/lv_dropdown.c **** 
1344:lvgl/src/lv_widgets/lv_dropdown.c ****     return lv_obj_get_child(lv_page_get_scrollable(ext->page), NULL);
 163              		.loc 1 1344 5 is_stmt 1 view .LVU41
 164              		.loc 1 1344 29 is_stmt 0 view .LVU42
 165 000a FFF7FEFF 		bl	lv_page_get_scrollable
 166              	.LVL18:
 167              		.loc 1 1344 12 view .LVU43
 168 000e 0021     		movs	r1, #0
 169 0010 FFF7FEFF 		bl	lv_obj_get_child
 170              	.LVL19:
 171              	.L16:
1345:lvgl/src/lv_widgets/lv_dropdown.c **** }
 172              		.loc 1 1345 1 view .LVU44
 173 0014 08BD     		pop	{r3, pc}
 174              		.cfi_endproc
 175              	.LFE512:
 177              		.section	.text.position_to_selected,"ax",%progbits
 178              		.align	1
 179              		.syntax unified
 180              		.thumb
 181              		.thumb_func
 182              		.fpu fpv4-sp-d16
 184              	position_to_selected:
 185              	.LVL20:
 186              	.LFB511:
ARM GAS  D:\Temp\ccIRM2yk.s 			page 28


1321:lvgl/src/lv_widgets/lv_dropdown.c ****     lv_dropdown_ext_t * ext          = lv_obj_get_ext_attr(ddlist);
 187              		.loc 1 1321 1 is_stmt 1 view -0
 188              		.cfi_startproc
 189              		@ args = 0, pretend = 0, frame = 0
 190              		@ frame_needed = 0, uses_anonymous_args = 0
1321:lvgl/src/lv_widgets/lv_dropdown.c ****     lv_dropdown_ext_t * ext          = lv_obj_get_ext_attr(ddlist);
 191              		.loc 1 1321 1 is_stmt 0 view .LVU46
 192 0000 2DE9F843 		push	{r3, r4, r5, r6, r7, r8, r9, lr}
 193              	.LCFI2:
 194              		.cfi_def_cfa_offset 32
 195              		.cfi_offset 3, -32
 196              		.cfi_offset 4, -28
 197              		.cfi_offset 5, -24
 198              		.cfi_offset 6, -20
 199              		.cfi_offset 7, -16
 200              		.cfi_offset 8, -12
 201              		.cfi_offset 9, -8
 202              		.cfi_offset 14, -4
 203 0004 8046     		mov	r8, r0
1322:lvgl/src/lv_widgets/lv_dropdown.c **** 
 204              		.loc 1 1322 5 is_stmt 1 view .LVU47
1322:lvgl/src/lv_widgets/lv_dropdown.c **** 
 205              		.loc 1 1322 40 is_stmt 0 view .LVU48
 206 0006 FFF7FEFF 		bl	lv_obj_get_ext_attr
 207              	.LVL21:
1322:lvgl/src/lv_widgets/lv_dropdown.c **** 
 208              		.loc 1 1322 40 view .LVU49
 209 000a 0546     		mov	r5, r0
 210              	.LVL22:
1324:lvgl/src/lv_widgets/lv_dropdown.c ****     lv_coord_t font_h              = lv_font_get_line_height(font);
 211              		.loc 1 1324 5 is_stmt 1 view .LVU50
 212              	.LBB72:
 213              	.LBI72:
 214              		.file 2 "lvgl/src/lv_widgets/../lv_widgets/../lv_core/lv_obj_style_dec.h"
   1:lvgl/src/lv_widgets/../lv_widgets/../lv_core/lv_obj_style_dec.h **** 
   2:lvgl/src/lv_widgets/../lv_widgets/../lv_core/lv_obj_style_dec.h **** /**
   3:lvgl/src/lv_widgets/../lv_widgets/../lv_core/lv_obj_style_dec.h ****  * @file lv_obj_style_dec.h
   4:lvgl/src/lv_widgets/../lv_widgets/../lv_core/lv_obj_style_dec.h ****  *
   5:lvgl/src/lv_widgets/../lv_widgets/../lv_core/lv_obj_style_dec.h ****  */
   6:lvgl/src/lv_widgets/../lv_widgets/../lv_core/lv_obj_style_dec.h **** 
   7:lvgl/src/lv_widgets/../lv_widgets/../lv_core/lv_obj_style_dec.h **** #ifndef LV_OBJ_STYLE_DEC_H
   8:lvgl/src/lv_widgets/../lv_widgets/../lv_core/lv_obj_style_dec.h **** #define LV_OBJ_STYLE_DEC_H
   9:lvgl/src/lv_widgets/../lv_widgets/../lv_core/lv_obj_style_dec.h **** 
  10:lvgl/src/lv_widgets/../lv_widgets/../lv_core/lv_obj_style_dec.h **** #ifdef __cplusplus
  11:lvgl/src/lv_widgets/../lv_widgets/../lv_core/lv_obj_style_dec.h **** extern "C" {
  12:lvgl/src/lv_widgets/../lv_widgets/../lv_core/lv_obj_style_dec.h **** #endif
  13:lvgl/src/lv_widgets/../lv_widgets/../lv_core/lv_obj_style_dec.h **** 
  14:lvgl/src/lv_widgets/../lv_widgets/../lv_core/lv_obj_style_dec.h **** /*********************
  15:lvgl/src/lv_widgets/../lv_widgets/../lv_core/lv_obj_style_dec.h ****  *      DEFINES
  16:lvgl/src/lv_widgets/../lv_widgets/../lv_core/lv_obj_style_dec.h ****  *********************/
  17:lvgl/src/lv_widgets/../lv_widgets/../lv_core/lv_obj_style_dec.h **** 
  18:lvgl/src/lv_widgets/../lv_widgets/../lv_core/lv_obj_style_dec.h **** /**
  19:lvgl/src/lv_widgets/../lv_widgets/../lv_core/lv_obj_style_dec.h ****  * Macro to declare the most important style set/get API functions.
  20:lvgl/src/lv_widgets/../lv_widgets/../lv_core/lv_obj_style_dec.h ****  *
  21:lvgl/src/lv_widgets/../lv_widgets/../lv_core/lv_obj_style_dec.h ****  * Get the value of a style property from an object in the object's current state
  22:lvgl/src/lv_widgets/../lv_widgets/../lv_core/lv_obj_style_dec.h ****  * -----------------------------------------------------------------------------
  23:lvgl/src/lv_widgets/../lv_widgets/../lv_core/lv_obj_style_dec.h ****  *  - Get the value of a style property from an object in the object's current state.
ARM GAS  D:\Temp\ccIRM2yk.s 			page 29


  24:lvgl/src/lv_widgets/../lv_widgets/../lv_core/lv_obj_style_dec.h ****  *  - Transition animation is taken into account.
  25:lvgl/src/lv_widgets/../lv_widgets/../lv_core/lv_obj_style_dec.h ****  *  - If the property is not set in the object's styles check the parent(s) if the property can be 
  26:lvgl/src/lv_widgets/../lv_widgets/../lv_core/lv_obj_style_dec.h ****  *  - If still not found return a default value.
  27:lvgl/src/lv_widgets/../lv_widgets/../lv_core/lv_obj_style_dec.h ****  *  - For example:
  28:lvgl/src/lv_widgets/../lv_widgets/../lv_core/lv_obj_style_dec.h ****  *      `lv_style_int_t w = lv_obj_get_style_border_width(btn1, LV_BTN_PART_MAIN);`
  29:lvgl/src/lv_widgets/../lv_widgets/../lv_core/lv_obj_style_dec.h ****  *
  30:lvgl/src/lv_widgets/../lv_widgets/../lv_core/lv_obj_style_dec.h ****  * Set a local style property for an object in a given state
  31:lvgl/src/lv_widgets/../lv_widgets/../lv_core/lv_obj_style_dec.h ****  * ---------------------------------------------------------
  32:lvgl/src/lv_widgets/../lv_widgets/../lv_core/lv_obj_style_dec.h ****  *  - For example:
  33:lvgl/src/lv_widgets/../lv_widgets/../lv_core/lv_obj_style_dec.h ****  *      `lv_obj_set_style_local_border_width(btn1, LV_BTN_PART_MAIN, LV_STATE_PRESSED, 2);`
  34:lvgl/src/lv_widgets/../lv_widgets/../lv_core/lv_obj_style_dec.h ****  *
  35:lvgl/src/lv_widgets/../lv_widgets/../lv_core/lv_obj_style_dec.h ****  * Get a local style property's value of an object in a given state
  36:lvgl/src/lv_widgets/../lv_widgets/../lv_core/lv_obj_style_dec.h ****  * ----------------------------------------------------------------
  37:lvgl/src/lv_widgets/../lv_widgets/../lv_core/lv_obj_style_dec.h ****  *  - Return the best matching property in the given state.
  38:lvgl/src/lv_widgets/../lv_widgets/../lv_core/lv_obj_style_dec.h ****  *  - E.g. if `state` parameter is LV_STATE_PRESSED | LV_STATE_CHECKED` but the property defined on
  39:lvgl/src/lv_widgets/../lv_widgets/../lv_core/lv_obj_style_dec.h ****  *    `LV_STATE_PRESSED` and `LV_STATE_DEFAULT` the best matching state is `LV_STATE_PRESSED`
  40:lvgl/src/lv_widgets/../lv_widgets/../lv_core/lv_obj_style_dec.h ****  *    (because it has higher precedence) and it will be returned.
  41:lvgl/src/lv_widgets/../lv_widgets/../lv_core/lv_obj_style_dec.h ****  *  - If the property is not found even in `LV_STATE_DEFAULT` `-1` is returned.
  42:lvgl/src/lv_widgets/../lv_widgets/../lv_core/lv_obj_style_dec.h ****  *  - For example:
  43:lvgl/src/lv_widgets/../lv_widgets/../lv_core/lv_obj_style_dec.h ****  *      `//Type of result should be lv_style_int_t/lv_opa_t/lv_color_t/const void * according to th
  44:lvgl/src/lv_widgets/../lv_widgets/../lv_core/lv_obj_style_dec.h ****  *      `lv_style_int_t result;`
  45:lvgl/src/lv_widgets/../lv_widgets/../lv_core/lv_obj_style_dec.h ****  *      `lv_obj_get_style_local_border_width(btn1, LV_BTN_PART_MAIN, LV_STATE_PRESSED, &result);`
  46:lvgl/src/lv_widgets/../lv_widgets/../lv_core/lv_obj_style_dec.h ****  *      `if(weight > 0) ...the property is found and loaded into result...`
  47:lvgl/src/lv_widgets/../lv_widgets/../lv_core/lv_obj_style_dec.h ****  *
  48:lvgl/src/lv_widgets/../lv_widgets/../lv_core/lv_obj_style_dec.h ****  * Get the value from a style in a given state
  49:lvgl/src/lv_widgets/../lv_widgets/../lv_core/lv_obj_style_dec.h ****  * -------------------------------------------
  50:lvgl/src/lv_widgets/../lv_widgets/../lv_core/lv_obj_style_dec.h ****  * - The same rules applies to the return value then for "lv_obj_get_style_local_...()" above
  51:lvgl/src/lv_widgets/../lv_widgets/../lv_core/lv_obj_style_dec.h ****  * - For example
  52:lvgl/src/lv_widgets/../lv_widgets/../lv_core/lv_obj_style_dec.h ****  *      `int16_t weight = lv_style_get_border_width(&style1, LV_STATE_PRESSED, &result);`
  53:lvgl/src/lv_widgets/../lv_widgets/../lv_core/lv_obj_style_dec.h ****  *      `if(weight > 0) ...the property is found and loaded into result...`
  54:lvgl/src/lv_widgets/../lv_widgets/../lv_core/lv_obj_style_dec.h **** 
  55:lvgl/src/lv_widgets/../lv_widgets/../lv_core/lv_obj_style_dec.h ****  * Set a value in a style in a given state
  56:lvgl/src/lv_widgets/../lv_widgets/../lv_core/lv_obj_style_dec.h ****  * ---------------------------------------
  57:lvgl/src/lv_widgets/../lv_widgets/../lv_core/lv_obj_style_dec.h ****  * - For example
  58:lvgl/src/lv_widgets/../lv_widgets/../lv_core/lv_obj_style_dec.h ****  *      `lv_style_set_border_width(&style1, LV_STATE_PRESSED, 2);`
  59:lvgl/src/lv_widgets/../lv_widgets/../lv_core/lv_obj_style_dec.h ****  */
  60:lvgl/src/lv_widgets/../lv_widgets/../lv_core/lv_obj_style_dec.h **** 
  61:lvgl/src/lv_widgets/../lv_widgets/../lv_core/lv_obj_style_dec.h **** #define _OBJ_GET_STYLE_scalar(prop_name, func_name, value_type, style_type)                        
  62:lvgl/src/lv_widgets/../lv_widgets/../lv_core/lv_obj_style_dec.h ****     static inline value_type lv_obj_get_style_##func_name (const lv_obj_t * obj, uint8_t part)     
  63:lvgl/src/lv_widgets/../lv_widgets/../lv_core/lv_obj_style_dec.h ****     {                                                                                              
  64:lvgl/src/lv_widgets/../lv_widgets/../lv_core/lv_obj_style_dec.h ****         return (value_type) _lv_obj_get_style##style_type (obj, part, LV_STYLE_##prop_name);       
  65:lvgl/src/lv_widgets/../lv_widgets/../lv_core/lv_obj_style_dec.h ****     }
  66:lvgl/src/lv_widgets/../lv_widgets/../lv_core/lv_obj_style_dec.h **** 
  67:lvgl/src/lv_widgets/../lv_widgets/../lv_core/lv_obj_style_dec.h **** #define _OBJ_GET_STYLE_nonscalar(prop_name, func_name, value_type, style_type)                     
  68:lvgl/src/lv_widgets/../lv_widgets/../lv_core/lv_obj_style_dec.h ****     static inline value_type lv_obj_get_style_##func_name (const lv_obj_t * obj, uint8_t part)     
  69:lvgl/src/lv_widgets/../lv_widgets/../lv_core/lv_obj_style_dec.h ****     {                                                                                              
  70:lvgl/src/lv_widgets/../lv_widgets/../lv_core/lv_obj_style_dec.h ****         return _lv_obj_get_style##style_type (obj, part, LV_STYLE_##prop_name);                    
  71:lvgl/src/lv_widgets/../lv_widgets/../lv_core/lv_obj_style_dec.h ****     }
  72:lvgl/src/lv_widgets/../lv_widgets/../lv_core/lv_obj_style_dec.h **** 
  73:lvgl/src/lv_widgets/../lv_widgets/../lv_core/lv_obj_style_dec.h **** #define _OBJ_SET_STYLE_LOCAL_scalar(prop_name, func_name, value_type, style_type)                  
  74:lvgl/src/lv_widgets/../lv_widgets/../lv_core/lv_obj_style_dec.h ****     static inline void lv_obj_set_style_local_##func_name (lv_obj_t * obj, uint8_t part, lv_state_t
  75:lvgl/src/lv_widgets/../lv_widgets/../lv_core/lv_obj_style_dec.h ****     {                                                                                              
  76:lvgl/src/lv_widgets/../lv_widgets/../lv_core/lv_obj_style_dec.h ****         _lv_obj_set_style_local##style_type (obj, part, LV_STYLE_##prop_name | (state << LV_STYLE_S
  77:lvgl/src/lv_widgets/../lv_widgets/../lv_core/lv_obj_style_dec.h ****     }
  78:lvgl/src/lv_widgets/../lv_widgets/../lv_core/lv_obj_style_dec.h **** 
  79:lvgl/src/lv_widgets/../lv_widgets/../lv_core/lv_obj_style_dec.h **** #define _OBJ_SET_STYLE_LOCAL_nonscalar(prop_name, func_name, value_type, style_type)               
  80:lvgl/src/lv_widgets/../lv_widgets/../lv_core/lv_obj_style_dec.h ****     static inline void lv_obj_set_style_local_##func_name (lv_obj_t * obj, uint8_t part, lv_state_t
ARM GAS  D:\Temp\ccIRM2yk.s 			page 30


  81:lvgl/src/lv_widgets/../lv_widgets/../lv_core/lv_obj_style_dec.h ****     {                                                                                              
  82:lvgl/src/lv_widgets/../lv_widgets/../lv_core/lv_obj_style_dec.h ****         _lv_obj_set_style_local##style_type (obj, part, LV_STYLE_##prop_name | (state << LV_STYLE_S
  83:lvgl/src/lv_widgets/../lv_widgets/../lv_core/lv_obj_style_dec.h ****     }
  84:lvgl/src/lv_widgets/../lv_widgets/../lv_core/lv_obj_style_dec.h **** 
  85:lvgl/src/lv_widgets/../lv_widgets/../lv_core/lv_obj_style_dec.h **** #define _OBJ_SET_STYLE_scalar(prop_name, func_name, value_type, style_type)                        
  86:lvgl/src/lv_widgets/../lv_widgets/../lv_core/lv_obj_style_dec.h ****     static inline void lv_style_set_##func_name (lv_style_t * style, lv_state_t state, value_type v
  87:lvgl/src/lv_widgets/../lv_widgets/../lv_core/lv_obj_style_dec.h ****     {                                                                                              
  88:lvgl/src/lv_widgets/../lv_widgets/../lv_core/lv_obj_style_dec.h ****         _lv_style_set##style_type (style, LV_STYLE_##prop_name | (state << LV_STYLE_STATE_POS), val
  89:lvgl/src/lv_widgets/../lv_widgets/../lv_core/lv_obj_style_dec.h ****     }
  90:lvgl/src/lv_widgets/../lv_widgets/../lv_core/lv_obj_style_dec.h **** 
  91:lvgl/src/lv_widgets/../lv_widgets/../lv_core/lv_obj_style_dec.h **** #define _OBJ_SET_STYLE_nonscalar(prop_name, func_name, value_type, style_type)                     
  92:lvgl/src/lv_widgets/../lv_widgets/../lv_core/lv_obj_style_dec.h ****     static inline void lv_style_set_##func_name (lv_style_t * style, lv_state_t state, value_type v
  93:lvgl/src/lv_widgets/../lv_widgets/../lv_core/lv_obj_style_dec.h ****     {                                                                                              
  94:lvgl/src/lv_widgets/../lv_widgets/../lv_core/lv_obj_style_dec.h ****         _lv_style_set##style_type (style, LV_STYLE_##prop_name | (state << LV_STYLE_STATE_POS), val
  95:lvgl/src/lv_widgets/../lv_widgets/../lv_core/lv_obj_style_dec.h ****     }
  96:lvgl/src/lv_widgets/../lv_widgets/../lv_core/lv_obj_style_dec.h **** 
  97:lvgl/src/lv_widgets/../lv_widgets/../lv_core/lv_obj_style_dec.h **** #define _LV_OBJ_STYLE_SET_GET_DECLARE(prop_name, func_name, value_type, style_type, scalar)        
  98:lvgl/src/lv_widgets/../lv_widgets/../lv_core/lv_obj_style_dec.h ****     _OBJ_GET_STYLE_##scalar(prop_name, func_name, value_type, style_type)                          
  99:lvgl/src/lv_widgets/../lv_widgets/../lv_core/lv_obj_style_dec.h ****     _OBJ_SET_STYLE_LOCAL_##scalar(prop_name, func_name, value_type, style_type)                    
 100:lvgl/src/lv_widgets/../lv_widgets/../lv_core/lv_obj_style_dec.h ****     _OBJ_SET_STYLE_##scalar(prop_name, func_name, value_type, style_type)
 101:lvgl/src/lv_widgets/../lv_widgets/../lv_core/lv_obj_style_dec.h **** 
 102:lvgl/src/lv_widgets/../lv_widgets/../lv_core/lv_obj_style_dec.h **** _LV_OBJ_STYLE_SET_GET_DECLARE(RADIUS, radius, lv_style_int_t, _int, scalar)
 103:lvgl/src/lv_widgets/../lv_widgets/../lv_core/lv_obj_style_dec.h **** _LV_OBJ_STYLE_SET_GET_DECLARE(CLIP_CORNER, clip_corner, bool, _int, scalar)
 104:lvgl/src/lv_widgets/../lv_widgets/../lv_core/lv_obj_style_dec.h **** _LV_OBJ_STYLE_SET_GET_DECLARE(SIZE, size, lv_style_int_t, _int, scalar)
 105:lvgl/src/lv_widgets/../lv_widgets/../lv_core/lv_obj_style_dec.h **** _LV_OBJ_STYLE_SET_GET_DECLARE(TRANSFORM_WIDTH, transform_width, lv_style_int_t, _int, scalar)
 106:lvgl/src/lv_widgets/../lv_widgets/../lv_core/lv_obj_style_dec.h **** _LV_OBJ_STYLE_SET_GET_DECLARE(TRANSFORM_HEIGHT, transform_height, lv_style_int_t, _int, scalar)
 107:lvgl/src/lv_widgets/../lv_widgets/../lv_core/lv_obj_style_dec.h **** _LV_OBJ_STYLE_SET_GET_DECLARE(TRANSFORM_ANGLE, transform_angle, lv_style_int_t, _int, scalar)
 108:lvgl/src/lv_widgets/../lv_widgets/../lv_core/lv_obj_style_dec.h **** _LV_OBJ_STYLE_SET_GET_DECLARE(TRANSFORM_ZOOM, transform_zoom, lv_style_int_t, _int, scalar)
 109:lvgl/src/lv_widgets/../lv_widgets/../lv_core/lv_obj_style_dec.h **** _LV_OBJ_STYLE_SET_GET_DECLARE(OPA_SCALE, opa_scale, lv_opa_t, _opa, scalar)
 110:lvgl/src/lv_widgets/../lv_widgets/../lv_core/lv_obj_style_dec.h **** _LV_OBJ_STYLE_SET_GET_DECLARE(PAD_TOP, pad_top, lv_style_int_t, _int, scalar)
 111:lvgl/src/lv_widgets/../lv_widgets/../lv_core/lv_obj_style_dec.h **** _LV_OBJ_STYLE_SET_GET_DECLARE(PAD_BOTTOM, pad_bottom, lv_style_int_t, _int, scalar)
 112:lvgl/src/lv_widgets/../lv_widgets/../lv_core/lv_obj_style_dec.h **** _LV_OBJ_STYLE_SET_GET_DECLARE(PAD_LEFT, pad_left, lv_style_int_t, _int, scalar)
 113:lvgl/src/lv_widgets/../lv_widgets/../lv_core/lv_obj_style_dec.h **** _LV_OBJ_STYLE_SET_GET_DECLARE(PAD_RIGHT, pad_right, lv_style_int_t, _int, scalar)
 114:lvgl/src/lv_widgets/../lv_widgets/../lv_core/lv_obj_style_dec.h **** _LV_OBJ_STYLE_SET_GET_DECLARE(PAD_INNER, pad_inner, lv_style_int_t, _int, scalar)
 115:lvgl/src/lv_widgets/../lv_widgets/../lv_core/lv_obj_style_dec.h **** _LV_OBJ_STYLE_SET_GET_DECLARE(MARGIN_TOP, margin_top, lv_style_int_t, _int, scalar)
 116:lvgl/src/lv_widgets/../lv_widgets/../lv_core/lv_obj_style_dec.h **** _LV_OBJ_STYLE_SET_GET_DECLARE(MARGIN_BOTTOM, margin_bottom, lv_style_int_t, _int, scalar)
 117:lvgl/src/lv_widgets/../lv_widgets/../lv_core/lv_obj_style_dec.h **** _LV_OBJ_STYLE_SET_GET_DECLARE(MARGIN_LEFT, margin_left, lv_style_int_t, _int, scalar)
 118:lvgl/src/lv_widgets/../lv_widgets/../lv_core/lv_obj_style_dec.h **** _LV_OBJ_STYLE_SET_GET_DECLARE(MARGIN_RIGHT, margin_right, lv_style_int_t, _int, scalar)
 119:lvgl/src/lv_widgets/../lv_widgets/../lv_core/lv_obj_style_dec.h **** _LV_OBJ_STYLE_SET_GET_DECLARE(BG_BLEND_MODE, bg_blend_mode, lv_blend_mode_t, _int, scalar)
 120:lvgl/src/lv_widgets/../lv_widgets/../lv_core/lv_obj_style_dec.h **** _LV_OBJ_STYLE_SET_GET_DECLARE(BG_MAIN_STOP, bg_main_stop, lv_style_int_t, _int, scalar)
 121:lvgl/src/lv_widgets/../lv_widgets/../lv_core/lv_obj_style_dec.h **** _LV_OBJ_STYLE_SET_GET_DECLARE(BG_GRAD_STOP, bg_grad_stop, lv_style_int_t, _int, scalar)
 122:lvgl/src/lv_widgets/../lv_widgets/../lv_core/lv_obj_style_dec.h **** _LV_OBJ_STYLE_SET_GET_DECLARE(BG_GRAD_DIR, bg_grad_dir, lv_grad_dir_t, _int, scalar)
 123:lvgl/src/lv_widgets/../lv_widgets/../lv_core/lv_obj_style_dec.h **** _LV_OBJ_STYLE_SET_GET_DECLARE(BG_COLOR, bg_color, lv_color_t, _color, nonscalar)
 124:lvgl/src/lv_widgets/../lv_widgets/../lv_core/lv_obj_style_dec.h **** _LV_OBJ_STYLE_SET_GET_DECLARE(BG_GRAD_COLOR, bg_grad_color, lv_color_t, _color, nonscalar)
 125:lvgl/src/lv_widgets/../lv_widgets/../lv_core/lv_obj_style_dec.h **** _LV_OBJ_STYLE_SET_GET_DECLARE(BG_OPA, bg_opa, lv_opa_t, _opa, scalar)
 126:lvgl/src/lv_widgets/../lv_widgets/../lv_core/lv_obj_style_dec.h **** _LV_OBJ_STYLE_SET_GET_DECLARE(BORDER_WIDTH, border_width, lv_style_int_t, _int, scalar)
 127:lvgl/src/lv_widgets/../lv_widgets/../lv_core/lv_obj_style_dec.h **** _LV_OBJ_STYLE_SET_GET_DECLARE(BORDER_SIDE, border_side, lv_border_side_t, _int, scalar)
 128:lvgl/src/lv_widgets/../lv_widgets/../lv_core/lv_obj_style_dec.h **** _LV_OBJ_STYLE_SET_GET_DECLARE(BORDER_BLEND_MODE, border_blend_mode, lv_blend_mode_t, _int, scalar)
 129:lvgl/src/lv_widgets/../lv_widgets/../lv_core/lv_obj_style_dec.h **** _LV_OBJ_STYLE_SET_GET_DECLARE(BORDER_POST, border_post, bool, _int, scalar)
 130:lvgl/src/lv_widgets/../lv_widgets/../lv_core/lv_obj_style_dec.h **** _LV_OBJ_STYLE_SET_GET_DECLARE(BORDER_COLOR, border_color, lv_color_t, _color, nonscalar)
 131:lvgl/src/lv_widgets/../lv_widgets/../lv_core/lv_obj_style_dec.h **** _LV_OBJ_STYLE_SET_GET_DECLARE(BORDER_OPA, border_opa, lv_opa_t, _opa, scalar)
 132:lvgl/src/lv_widgets/../lv_widgets/../lv_core/lv_obj_style_dec.h **** _LV_OBJ_STYLE_SET_GET_DECLARE(OUTLINE_WIDTH, outline_width, lv_style_int_t, _int, scalar)
 133:lvgl/src/lv_widgets/../lv_widgets/../lv_core/lv_obj_style_dec.h **** _LV_OBJ_STYLE_SET_GET_DECLARE(OUTLINE_PAD, outline_pad, lv_style_int_t, _int, scalar)
 134:lvgl/src/lv_widgets/../lv_widgets/../lv_core/lv_obj_style_dec.h **** _LV_OBJ_STYLE_SET_GET_DECLARE(OUTLINE_BLEND_MODE, outline_blend_mode, lv_blend_mode_t, _int, scalar
 135:lvgl/src/lv_widgets/../lv_widgets/../lv_core/lv_obj_style_dec.h **** _LV_OBJ_STYLE_SET_GET_DECLARE(OUTLINE_COLOR, outline_color, lv_color_t, _color, nonscalar)
 136:lvgl/src/lv_widgets/../lv_widgets/../lv_core/lv_obj_style_dec.h **** _LV_OBJ_STYLE_SET_GET_DECLARE(OUTLINE_OPA, outline_opa, lv_opa_t, _opa, scalar)
 137:lvgl/src/lv_widgets/../lv_widgets/../lv_core/lv_obj_style_dec.h **** _LV_OBJ_STYLE_SET_GET_DECLARE(SHADOW_WIDTH, shadow_width, lv_style_int_t, _int, scalar)
ARM GAS  D:\Temp\ccIRM2yk.s 			page 31


 138:lvgl/src/lv_widgets/../lv_widgets/../lv_core/lv_obj_style_dec.h **** _LV_OBJ_STYLE_SET_GET_DECLARE(SHADOW_OFS_X, shadow_ofs_x, lv_style_int_t, _int, scalar)
 139:lvgl/src/lv_widgets/../lv_widgets/../lv_core/lv_obj_style_dec.h **** _LV_OBJ_STYLE_SET_GET_DECLARE(SHADOW_OFS_Y, shadow_ofs_y, lv_style_int_t, _int, scalar)
 140:lvgl/src/lv_widgets/../lv_widgets/../lv_core/lv_obj_style_dec.h **** _LV_OBJ_STYLE_SET_GET_DECLARE(SHADOW_SPREAD, shadow_spread, lv_style_int_t, _int, scalar)
 141:lvgl/src/lv_widgets/../lv_widgets/../lv_core/lv_obj_style_dec.h **** _LV_OBJ_STYLE_SET_GET_DECLARE(SHADOW_BLEND_MODE, shadow_blend_mode, lv_blend_mode_t, _int, scalar)
 142:lvgl/src/lv_widgets/../lv_widgets/../lv_core/lv_obj_style_dec.h **** _LV_OBJ_STYLE_SET_GET_DECLARE(SHADOW_COLOR, shadow_color, lv_color_t, _color, nonscalar)
 143:lvgl/src/lv_widgets/../lv_widgets/../lv_core/lv_obj_style_dec.h **** _LV_OBJ_STYLE_SET_GET_DECLARE(SHADOW_OPA, shadow_opa, lv_opa_t, _opa, scalar)
 144:lvgl/src/lv_widgets/../lv_widgets/../lv_core/lv_obj_style_dec.h **** _LV_OBJ_STYLE_SET_GET_DECLARE(PATTERN_REPEAT, pattern_repeat, bool, _int, scalar)
 145:lvgl/src/lv_widgets/../lv_widgets/../lv_core/lv_obj_style_dec.h **** _LV_OBJ_STYLE_SET_GET_DECLARE(PATTERN_BLEND_MODE, pattern_blend_mode, lv_blend_mode_t, _int, scalar
 146:lvgl/src/lv_widgets/../lv_widgets/../lv_core/lv_obj_style_dec.h **** _LV_OBJ_STYLE_SET_GET_DECLARE(PATTERN_RECOLOR, pattern_recolor, lv_color_t, _color, nonscalar)
 147:lvgl/src/lv_widgets/../lv_widgets/../lv_core/lv_obj_style_dec.h **** _LV_OBJ_STYLE_SET_GET_DECLARE(PATTERN_OPA, pattern_opa, lv_opa_t, _opa, scalar)
 148:lvgl/src/lv_widgets/../lv_widgets/../lv_core/lv_obj_style_dec.h **** _LV_OBJ_STYLE_SET_GET_DECLARE(PATTERN_RECOLOR_OPA, pattern_recolor_opa, lv_opa_t, _opa, scalar)
 149:lvgl/src/lv_widgets/../lv_widgets/../lv_core/lv_obj_style_dec.h **** _LV_OBJ_STYLE_SET_GET_DECLARE(PATTERN_IMAGE, pattern_image, const void *, _ptr, scalar)
 150:lvgl/src/lv_widgets/../lv_widgets/../lv_core/lv_obj_style_dec.h **** _LV_OBJ_STYLE_SET_GET_DECLARE(VALUE_LETTER_SPACE, value_letter_space, lv_style_int_t, _int, scalar)
 151:lvgl/src/lv_widgets/../lv_widgets/../lv_core/lv_obj_style_dec.h **** _LV_OBJ_STYLE_SET_GET_DECLARE(VALUE_LINE_SPACE, value_line_space, lv_style_int_t, _int, scalar)
 152:lvgl/src/lv_widgets/../lv_widgets/../lv_core/lv_obj_style_dec.h **** _LV_OBJ_STYLE_SET_GET_DECLARE(VALUE_BLEND_MODE, value_blend_mode, lv_blend_mode_t, _int, scalar)
 153:lvgl/src/lv_widgets/../lv_widgets/../lv_core/lv_obj_style_dec.h **** _LV_OBJ_STYLE_SET_GET_DECLARE(VALUE_OFS_X, value_ofs_x, lv_style_int_t, _int, scalar)
 154:lvgl/src/lv_widgets/../lv_widgets/../lv_core/lv_obj_style_dec.h **** _LV_OBJ_STYLE_SET_GET_DECLARE(VALUE_OFS_Y, value_ofs_y, lv_style_int_t, _int, scalar)
 155:lvgl/src/lv_widgets/../lv_widgets/../lv_core/lv_obj_style_dec.h **** _LV_OBJ_STYLE_SET_GET_DECLARE(VALUE_ALIGN, value_align, lv_align_t, _int, scalar)
 156:lvgl/src/lv_widgets/../lv_widgets/../lv_core/lv_obj_style_dec.h **** _LV_OBJ_STYLE_SET_GET_DECLARE(VALUE_COLOR, value_color, lv_color_t, _color, nonscalar)
 157:lvgl/src/lv_widgets/../lv_widgets/../lv_core/lv_obj_style_dec.h **** _LV_OBJ_STYLE_SET_GET_DECLARE(VALUE_OPA, value_opa, lv_opa_t, _opa, scalar)
 158:lvgl/src/lv_widgets/../lv_widgets/../lv_core/lv_obj_style_dec.h **** _LV_OBJ_STYLE_SET_GET_DECLARE(VALUE_FONT, value_font, const lv_font_t *, _ptr, scalar)
 159:lvgl/src/lv_widgets/../lv_widgets/../lv_core/lv_obj_style_dec.h **** _LV_OBJ_STYLE_SET_GET_DECLARE(VALUE_STR, value_str, const char *, _ptr, scalar)
 160:lvgl/src/lv_widgets/../lv_widgets/../lv_core/lv_obj_style_dec.h **** _LV_OBJ_STYLE_SET_GET_DECLARE(TEXT_LETTER_SPACE, text_letter_space, lv_style_int_t, _int, scalar)
 161:lvgl/src/lv_widgets/../lv_widgets/../lv_core/lv_obj_style_dec.h **** _LV_OBJ_STYLE_SET_GET_DECLARE(TEXT_LINE_SPACE, text_line_space, lv_style_int_t, _int, scalar)
 162:lvgl/src/lv_widgets/../lv_widgets/../lv_core/lv_obj_style_dec.h **** _LV_OBJ_STYLE_SET_GET_DECLARE(TEXT_DECOR, text_decor, lv_text_decor_t, _int, scalar)
 163:lvgl/src/lv_widgets/../lv_widgets/../lv_core/lv_obj_style_dec.h **** _LV_OBJ_STYLE_SET_GET_DECLARE(TEXT_BLEND_MODE, text_blend_mode, lv_blend_mode_t, _int, scalar)
 164:lvgl/src/lv_widgets/../lv_widgets/../lv_core/lv_obj_style_dec.h **** _LV_OBJ_STYLE_SET_GET_DECLARE(TEXT_COLOR, text_color, lv_color_t, _color, nonscalar)
 165:lvgl/src/lv_widgets/../lv_widgets/../lv_core/lv_obj_style_dec.h **** _LV_OBJ_STYLE_SET_GET_DECLARE(TEXT_SEL_COLOR, text_sel_color, lv_color_t, _color, nonscalar)
 166:lvgl/src/lv_widgets/../lv_widgets/../lv_core/lv_obj_style_dec.h **** _LV_OBJ_STYLE_SET_GET_DECLARE(TEXT_SEL_BG_COLOR, text_sel_bg_color, lv_color_t, _color, nonscalar)
 167:lvgl/src/lv_widgets/../lv_widgets/../lv_core/lv_obj_style_dec.h **** _LV_OBJ_STYLE_SET_GET_DECLARE(TEXT_OPA, text_opa, lv_opa_t, _opa, scalar)
 168:lvgl/src/lv_widgets/../lv_widgets/../lv_core/lv_obj_style_dec.h **** _LV_OBJ_STYLE_SET_GET_DECLARE(TEXT_FONT, text_font, const lv_font_t *, _ptr, scalar)
 215              		.loc 2 168 1 view .LVU51
 216              	.LBB73:
 217              		.loc 2 168 1 view .LVU52
 218 000c 48F28E02 		movw	r2, #32910
 219 0010 4021     		movs	r1, #64
 220 0012 4046     		mov	r0, r8
 221              	.LVL23:
 222              		.loc 2 168 1 is_stmt 0 view .LVU53
 223 0014 FFF7FEFF 		bl	_lv_obj_get_style_ptr
 224              	.LVL24:
 225              		.loc 2 168 1 view .LVU54
 226              	.LBE73:
 227              	.LBE72:
1325:lvgl/src/lv_widgets/lv_dropdown.c ****     lv_obj_t * scrl                = lv_page_get_scrollable(ext->page);
 228              		.loc 1 1325 5 is_stmt 1 view .LVU55
 229              	.LBB74:
 230              	.LBI74:
 231              		.file 3 "d:\\_project\\stm32\\f407\\hack_rf_new\\lvgl\\src\\lv_font\\lv_font.h"
   1:d:\_project\stm32\f407\hack_rf_new\lvgl\src\lv_font\lv_font.h **** /**
   2:d:\_project\stm32\f407\hack_rf_new\lvgl\src\lv_font\lv_font.h ****  * @file lv_font.h
   3:d:\_project\stm32\f407\hack_rf_new\lvgl\src\lv_font\lv_font.h ****  *
   4:d:\_project\stm32\f407\hack_rf_new\lvgl\src\lv_font\lv_font.h ****  */
   5:d:\_project\stm32\f407\hack_rf_new\lvgl\src\lv_font\lv_font.h **** 
   6:d:\_project\stm32\f407\hack_rf_new\lvgl\src\lv_font\lv_font.h **** #ifndef LV_FONT_H
   7:d:\_project\stm32\f407\hack_rf_new\lvgl\src\lv_font\lv_font.h **** #define LV_FONT_H
   8:d:\_project\stm32\f407\hack_rf_new\lvgl\src\lv_font\lv_font.h **** 
ARM GAS  D:\Temp\ccIRM2yk.s 			page 32


   9:d:\_project\stm32\f407\hack_rf_new\lvgl\src\lv_font\lv_font.h **** #ifdef __cplusplus
  10:d:\_project\stm32\f407\hack_rf_new\lvgl\src\lv_font\lv_font.h **** extern "C" {
  11:d:\_project\stm32\f407\hack_rf_new\lvgl\src\lv_font\lv_font.h **** #endif
  12:d:\_project\stm32\f407\hack_rf_new\lvgl\src\lv_font\lv_font.h **** 
  13:d:\_project\stm32\f407\hack_rf_new\lvgl\src\lv_font\lv_font.h **** /*********************
  14:d:\_project\stm32\f407\hack_rf_new\lvgl\src\lv_font\lv_font.h ****  *      INCLUDES
  15:d:\_project\stm32\f407\hack_rf_new\lvgl\src\lv_font\lv_font.h ****  *********************/
  16:d:\_project\stm32\f407\hack_rf_new\lvgl\src\lv_font\lv_font.h **** #include "../lv_conf_internal.h"
  17:d:\_project\stm32\f407\hack_rf_new\lvgl\src\lv_font\lv_font.h **** #include <stdint.h>
  18:d:\_project\stm32\f407\hack_rf_new\lvgl\src\lv_font\lv_font.h **** #include <stddef.h>
  19:d:\_project\stm32\f407\hack_rf_new\lvgl\src\lv_font\lv_font.h **** #include <stdbool.h>
  20:d:\_project\stm32\f407\hack_rf_new\lvgl\src\lv_font\lv_font.h **** 
  21:d:\_project\stm32\f407\hack_rf_new\lvgl\src\lv_font\lv_font.h **** #include "lv_symbol_def.h"
  22:d:\_project\stm32\f407\hack_rf_new\lvgl\src\lv_font\lv_font.h **** #include "../lv_misc/lv_area.h"
  23:d:\_project\stm32\f407\hack_rf_new\lvgl\src\lv_font\lv_font.h **** 
  24:d:\_project\stm32\f407\hack_rf_new\lvgl\src\lv_font\lv_font.h **** /*********************
  25:d:\_project\stm32\f407\hack_rf_new\lvgl\src\lv_font\lv_font.h ****  *      DEFINES
  26:d:\_project\stm32\f407\hack_rf_new\lvgl\src\lv_font\lv_font.h ****  *********************/
  27:d:\_project\stm32\f407\hack_rf_new\lvgl\src\lv_font\lv_font.h **** 
  28:d:\_project\stm32\f407\hack_rf_new\lvgl\src\lv_font\lv_font.h **** /**********************
  29:d:\_project\stm32\f407\hack_rf_new\lvgl\src\lv_font\lv_font.h ****  *      TYPEDEFS
  30:d:\_project\stm32\f407\hack_rf_new\lvgl\src\lv_font\lv_font.h ****  **********************/
  31:d:\_project\stm32\f407\hack_rf_new\lvgl\src\lv_font\lv_font.h **** 
  32:d:\_project\stm32\f407\hack_rf_new\lvgl\src\lv_font\lv_font.h **** /*------------------
  33:d:\_project\stm32\f407\hack_rf_new\lvgl\src\lv_font\lv_font.h ****  * General types
  34:d:\_project\stm32\f407\hack_rf_new\lvgl\src\lv_font\lv_font.h ****  *-----------------*/
  35:d:\_project\stm32\f407\hack_rf_new\lvgl\src\lv_font\lv_font.h **** 
  36:d:\_project\stm32\f407\hack_rf_new\lvgl\src\lv_font\lv_font.h **** /** Describes the properties of a glyph. */
  37:d:\_project\stm32\f407\hack_rf_new\lvgl\src\lv_font\lv_font.h **** typedef struct {
  38:d:\_project\stm32\f407\hack_rf_new\lvgl\src\lv_font\lv_font.h ****     uint16_t adv_w; /**< The glyph needs this space. Draw the next glyph after this width. 8 bit in
  39:d:\_project\stm32\f407\hack_rf_new\lvgl\src\lv_font\lv_font.h ****     uint16_t box_w;  /**< Width of the glyph's bounding box*/
  40:d:\_project\stm32\f407\hack_rf_new\lvgl\src\lv_font\lv_font.h ****     uint16_t box_h;  /**< Height of the glyph's bounding box*/
  41:d:\_project\stm32\f407\hack_rf_new\lvgl\src\lv_font\lv_font.h ****     int16_t ofs_x;   /**< x offset of the bounding box*/
  42:d:\_project\stm32\f407\hack_rf_new\lvgl\src\lv_font\lv_font.h ****     int16_t ofs_y;  /**< y offset of the bounding box*/
  43:d:\_project\stm32\f407\hack_rf_new\lvgl\src\lv_font\lv_font.h ****     uint8_t bpp;   /**< Bit-per-pixel: 1, 2, 4, 8*/
  44:d:\_project\stm32\f407\hack_rf_new\lvgl\src\lv_font\lv_font.h **** } lv_font_glyph_dsc_t;
  45:d:\_project\stm32\f407\hack_rf_new\lvgl\src\lv_font\lv_font.h **** 
  46:d:\_project\stm32\f407\hack_rf_new\lvgl\src\lv_font\lv_font.h **** /** The bitmaps might be upscaled by 3 to achieve subpixel rendering. */
  47:d:\_project\stm32\f407\hack_rf_new\lvgl\src\lv_font\lv_font.h **** enum {
  48:d:\_project\stm32\f407\hack_rf_new\lvgl\src\lv_font\lv_font.h ****     LV_FONT_SUBPX_NONE,
  49:d:\_project\stm32\f407\hack_rf_new\lvgl\src\lv_font\lv_font.h ****     LV_FONT_SUBPX_HOR,
  50:d:\_project\stm32\f407\hack_rf_new\lvgl\src\lv_font\lv_font.h ****     LV_FONT_SUBPX_VER,
  51:d:\_project\stm32\f407\hack_rf_new\lvgl\src\lv_font\lv_font.h ****     LV_FONT_SUBPX_BOTH,
  52:d:\_project\stm32\f407\hack_rf_new\lvgl\src\lv_font\lv_font.h **** };
  53:d:\_project\stm32\f407\hack_rf_new\lvgl\src\lv_font\lv_font.h **** 
  54:d:\_project\stm32\f407\hack_rf_new\lvgl\src\lv_font\lv_font.h **** typedef uint8_t lv_font_subpx_t;
  55:d:\_project\stm32\f407\hack_rf_new\lvgl\src\lv_font\lv_font.h **** 
  56:d:\_project\stm32\f407\hack_rf_new\lvgl\src\lv_font\lv_font.h **** /** Describe the properties of a font*/
  57:d:\_project\stm32\f407\hack_rf_new\lvgl\src\lv_font\lv_font.h **** typedef struct _lv_font_struct {
  58:d:\_project\stm32\f407\hack_rf_new\lvgl\src\lv_font\lv_font.h ****     /** Get a glyph's descriptor from a font*/
  59:d:\_project\stm32\f407\hack_rf_new\lvgl\src\lv_font\lv_font.h ****     bool (*get_glyph_dsc)(const struct _lv_font_struct *, lv_font_glyph_dsc_t *, uint32_t letter, u
  60:d:\_project\stm32\f407\hack_rf_new\lvgl\src\lv_font\lv_font.h **** 
  61:d:\_project\stm32\f407\hack_rf_new\lvgl\src\lv_font\lv_font.h ****     /** Get a glyph's bitmap from a font*/
  62:d:\_project\stm32\f407\hack_rf_new\lvgl\src\lv_font\lv_font.h ****     const uint8_t * (*get_glyph_bitmap)(const struct _lv_font_struct *, uint32_t);
  63:d:\_project\stm32\f407\hack_rf_new\lvgl\src\lv_font\lv_font.h **** 
  64:d:\_project\stm32\f407\hack_rf_new\lvgl\src\lv_font\lv_font.h ****     /*Pointer to the font in a font pack (must have the same line height)*/
  65:d:\_project\stm32\f407\hack_rf_new\lvgl\src\lv_font\lv_font.h ****     lv_coord_t line_height;         /**< The real line height where any text fits*/
ARM GAS  D:\Temp\ccIRM2yk.s 			page 33


  66:d:\_project\stm32\f407\hack_rf_new\lvgl\src\lv_font\lv_font.h ****     lv_coord_t base_line;           /**< Base line measured from the top of the line_height*/
  67:d:\_project\stm32\f407\hack_rf_new\lvgl\src\lv_font\lv_font.h ****     uint8_t subpx  : 2;             /**< An element of `lv_font_subpx_t`*/
  68:d:\_project\stm32\f407\hack_rf_new\lvgl\src\lv_font\lv_font.h **** 
  69:d:\_project\stm32\f407\hack_rf_new\lvgl\src\lv_font\lv_font.h ****     int8_t underline_position;      /**< Distance between the top of the underline and base line (<
  70:d:\_project\stm32\f407\hack_rf_new\lvgl\src\lv_font\lv_font.h ****     int8_t underline_thickness;     /**< Thickness of the underline*/
  71:d:\_project\stm32\f407\hack_rf_new\lvgl\src\lv_font\lv_font.h **** 
  72:d:\_project\stm32\f407\hack_rf_new\lvgl\src\lv_font\lv_font.h ****     void * dsc;                     /**< Store implementation specific or run_time data or caching 
  73:d:\_project\stm32\f407\hack_rf_new\lvgl\src\lv_font\lv_font.h **** #if LV_USE_USER_DATA
  74:d:\_project\stm32\f407\hack_rf_new\lvgl\src\lv_font\lv_font.h ****     lv_font_user_data_t user_data;  /**< Custom user data for font. */
  75:d:\_project\stm32\f407\hack_rf_new\lvgl\src\lv_font\lv_font.h **** #endif
  76:d:\_project\stm32\f407\hack_rf_new\lvgl\src\lv_font\lv_font.h **** 
  77:d:\_project\stm32\f407\hack_rf_new\lvgl\src\lv_font\lv_font.h **** } lv_font_t;
  78:d:\_project\stm32\f407\hack_rf_new\lvgl\src\lv_font\lv_font.h **** 
  79:d:\_project\stm32\f407\hack_rf_new\lvgl\src\lv_font\lv_font.h **** /**********************
  80:d:\_project\stm32\f407\hack_rf_new\lvgl\src\lv_font\lv_font.h ****  * GLOBAL PROTOTYPES
  81:d:\_project\stm32\f407\hack_rf_new\lvgl\src\lv_font\lv_font.h ****  **********************/
  82:d:\_project\stm32\f407\hack_rf_new\lvgl\src\lv_font\lv_font.h **** 
  83:d:\_project\stm32\f407\hack_rf_new\lvgl\src\lv_font\lv_font.h **** /**
  84:d:\_project\stm32\f407\hack_rf_new\lvgl\src\lv_font\lv_font.h ****  * Return with the bitmap of a font.
  85:d:\_project\stm32\f407\hack_rf_new\lvgl\src\lv_font\lv_font.h ****  * @param font_p pointer to a font
  86:d:\_project\stm32\f407\hack_rf_new\lvgl\src\lv_font\lv_font.h ****  * @param letter an UNICODE character code
  87:d:\_project\stm32\f407\hack_rf_new\lvgl\src\lv_font\lv_font.h ****  * @return pointer to the bitmap of the letter
  88:d:\_project\stm32\f407\hack_rf_new\lvgl\src\lv_font\lv_font.h ****  */
  89:d:\_project\stm32\f407\hack_rf_new\lvgl\src\lv_font\lv_font.h **** const uint8_t * lv_font_get_glyph_bitmap(const lv_font_t * font_p, uint32_t letter);
  90:d:\_project\stm32\f407\hack_rf_new\lvgl\src\lv_font\lv_font.h **** 
  91:d:\_project\stm32\f407\hack_rf_new\lvgl\src\lv_font\lv_font.h **** /**
  92:d:\_project\stm32\f407\hack_rf_new\lvgl\src\lv_font\lv_font.h ****  * Get the descriptor of a glyph
  93:d:\_project\stm32\f407\hack_rf_new\lvgl\src\lv_font\lv_font.h ****  * @param font_p pointer to font
  94:d:\_project\stm32\f407\hack_rf_new\lvgl\src\lv_font\lv_font.h ****  * @param dsc_out store the result descriptor here
  95:d:\_project\stm32\f407\hack_rf_new\lvgl\src\lv_font\lv_font.h ****  * @param letter an UNICODE letter code
  96:d:\_project\stm32\f407\hack_rf_new\lvgl\src\lv_font\lv_font.h ****  * @return true: descriptor is successfully loaded into `dsc_out`.
  97:d:\_project\stm32\f407\hack_rf_new\lvgl\src\lv_font\lv_font.h ****  *         false: the letter was not found, no data is loaded to `dsc_out`
  98:d:\_project\stm32\f407\hack_rf_new\lvgl\src\lv_font\lv_font.h ****  */
  99:d:\_project\stm32\f407\hack_rf_new\lvgl\src\lv_font\lv_font.h **** bool lv_font_get_glyph_dsc(const lv_font_t * font_p, lv_font_glyph_dsc_t * dsc_out, uint32_t letter
 100:d:\_project\stm32\f407\hack_rf_new\lvgl\src\lv_font\lv_font.h ****                            uint32_t letter_next);
 101:d:\_project\stm32\f407\hack_rf_new\lvgl\src\lv_font\lv_font.h **** 
 102:d:\_project\stm32\f407\hack_rf_new\lvgl\src\lv_font\lv_font.h **** /**
 103:d:\_project\stm32\f407\hack_rf_new\lvgl\src\lv_font\lv_font.h ****  * Get the width of a glyph with kerning
 104:d:\_project\stm32\f407\hack_rf_new\lvgl\src\lv_font\lv_font.h ****  * @param font pointer to a font
 105:d:\_project\stm32\f407\hack_rf_new\lvgl\src\lv_font\lv_font.h ****  * @param letter an UNICODE letter
 106:d:\_project\stm32\f407\hack_rf_new\lvgl\src\lv_font\lv_font.h ****  * @param letter_next the next letter after `letter`. Used for kerning
 107:d:\_project\stm32\f407\hack_rf_new\lvgl\src\lv_font\lv_font.h ****  * @return the width of the glyph
 108:d:\_project\stm32\f407\hack_rf_new\lvgl\src\lv_font\lv_font.h ****  */
 109:d:\_project\stm32\f407\hack_rf_new\lvgl\src\lv_font\lv_font.h **** uint16_t lv_font_get_glyph_width(const lv_font_t * font, uint32_t letter, uint32_t letter_next);
 110:d:\_project\stm32\f407\hack_rf_new\lvgl\src\lv_font\lv_font.h **** 
 111:d:\_project\stm32\f407\hack_rf_new\lvgl\src\lv_font\lv_font.h **** /**
 112:d:\_project\stm32\f407\hack_rf_new\lvgl\src\lv_font\lv_font.h ****  * Get the line height of a font. All characters fit into this height
 113:d:\_project\stm32\f407\hack_rf_new\lvgl\src\lv_font\lv_font.h ****  * @param font_p pointer to a font
 114:d:\_project\stm32\f407\hack_rf_new\lvgl\src\lv_font\lv_font.h ****  * @return the height of a font
 115:d:\_project\stm32\f407\hack_rf_new\lvgl\src\lv_font\lv_font.h ****  */
 116:d:\_project\stm32\f407\hack_rf_new\lvgl\src\lv_font\lv_font.h **** static inline lv_coord_t lv_font_get_line_height(const lv_font_t * font_p)
 232              		.loc 3 116 26 view .LVU56
 233              	.LBB75:
 117:d:\_project\stm32\f407\hack_rf_new\lvgl\src\lv_font\lv_font.h **** {
 118:d:\_project\stm32\f407\hack_rf_new\lvgl\src\lv_font\lv_font.h ****     return font_p->line_height;
 234              		.loc 3 118 5 view .LVU57
 235              		.loc 3 118 18 is_stmt 0 view .LVU58
ARM GAS  D:\Temp\ccIRM2yk.s 			page 34


 236 0018 B0F90870 		ldrsh	r7, [r0, #8]
 237              	.LVL25:
 238              		.loc 3 118 18 view .LVU59
 239              	.LBE75:
 240              	.LBE74:
1326:lvgl/src/lv_widgets/lv_dropdown.c ****     lv_obj_t * label = get_label(ddlist);
 241              		.loc 1 1326 5 is_stmt 1 view .LVU60
1326:lvgl/src/lv_widgets/lv_dropdown.c ****     lv_obj_t * label = get_label(ddlist);
 242              		.loc 1 1326 38 is_stmt 0 view .LVU61
 243 001c 2868     		ldr	r0, [r5]
 244              	.LVL26:
1326:lvgl/src/lv_widgets/lv_dropdown.c ****     lv_obj_t * label = get_label(ddlist);
 245              		.loc 1 1326 38 view .LVU62
 246 001e FFF7FEFF 		bl	lv_page_get_scrollable
 247              	.LVL27:
 248 0022 0646     		mov	r6, r0
 249              	.LVL28:
1327:lvgl/src/lv_widgets/lv_dropdown.c ****     if(label == NULL) return;
 250              		.loc 1 1327 5 is_stmt 1 view .LVU63
1327:lvgl/src/lv_widgets/lv_dropdown.c ****     if(label == NULL) return;
 251              		.loc 1 1327 24 is_stmt 0 view .LVU64
 252 0024 4046     		mov	r0, r8
 253              	.LVL29:
1327:lvgl/src/lv_widgets/lv_dropdown.c ****     if(label == NULL) return;
 254              		.loc 1 1327 24 view .LVU65
 255 0026 FFF7FEFF 		bl	get_label
 256              	.LVL30:
1328:lvgl/src/lv_widgets/lv_dropdown.c **** 
 257              		.loc 1 1328 5 is_stmt 1 view .LVU66
1328:lvgl/src/lv_widgets/lv_dropdown.c **** 
 258              		.loc 1 1328 7 is_stmt 0 view .LVU67
 259 002a F8B1     		cbz	r0, .L19
 260 002c 8146     		mov	r9, r0
1330:lvgl/src/lv_widgets/lv_dropdown.c ****     lv_style_int_t line_space = lv_obj_get_style_text_line_space(ddlist, LV_DROPDOWN_PART_LIST);
 261              		.loc 1 1330 5 is_stmt 1 view .LVU68
1330:lvgl/src/lv_widgets/lv_dropdown.c ****     lv_style_int_t line_space = lv_obj_get_style_text_line_space(ddlist, LV_DROPDOWN_PART_LIST);
 262              		.loc 1 1330 20 is_stmt 0 view .LVU69
 263 002e 2868     		ldr	r0, [r5]
 264              	.LVL31:
1330:lvgl/src/lv_widgets/lv_dropdown.c ****     lv_style_int_t line_space = lv_obj_get_style_text_line_space(ddlist, LV_DROPDOWN_PART_LIST);
 265              		.loc 1 1330 20 view .LVU70
 266 0030 FFF7FEFF 		bl	lv_obj_get_height
 267              	.LVL32:
 268 0034 0446     		mov	r4, r0
 269              	.LVL33:
1331:lvgl/src/lv_widgets/lv_dropdown.c **** 
 270              		.loc 1 1331 5 is_stmt 1 view .LVU71
 271              	.LBB76:
 272              	.LBI76:
 161:lvgl/src/lv_widgets/../lv_widgets/../lv_core/lv_obj_style_dec.h **** _LV_OBJ_STYLE_SET_GET_DECLARE(TEXT_DECOR, text_decor, lv_text_decor_t, _int, scalar)
 273              		.loc 2 161 1 view .LVU72
 274              	.LBB77:
 161:lvgl/src/lv_widgets/../lv_widgets/../lv_core/lv_obj_style_dec.h **** _LV_OBJ_STYLE_SET_GET_DECLARE(TEXT_DECOR, text_decor, lv_text_decor_t, _int, scalar)
 275              		.loc 2 161 1 view .LVU73
 276 0036 48F28102 		movw	r2, #32897
 277 003a 4021     		movs	r1, #64
 278 003c 4046     		mov	r0, r8
ARM GAS  D:\Temp\ccIRM2yk.s 			page 35


 279 003e FFF7FEFF 		bl	_lv_obj_get_style_int
 280              	.LVL34:
 161:lvgl/src/lv_widgets/../lv_widgets/../lv_core/lv_obj_style_dec.h **** _LV_OBJ_STYLE_SET_GET_DECLARE(TEXT_DECOR, text_decor, lv_text_decor_t, _int, scalar)
 281              		.loc 2 161 1 is_stmt 0 view .LVU74
 282              	.LBE77:
 283              	.LBE76:
1333:lvgl/src/lv_widgets/lv_dropdown.c **** 
 284              		.loc 1 1333 5 is_stmt 1 view .LVU75
1333:lvgl/src/lv_widgets/lv_dropdown.c **** 
 285              		.loc 1 1333 29 is_stmt 0 view .LVU76
 286 0042 AB8D     		ldrh	r3, [r5, #44]
1333:lvgl/src/lv_widgets/lv_dropdown.c **** 
 287              		.loc 1 1333 52 view .LVU77
 288 0044 3844     		add	r0, r0, r7
 289              	.LVL35:
1333:lvgl/src/lv_widgets/lv_dropdown.c **** 
 290              		.loc 1 1333 81 view .LVU78
 291 0046 B9F81210 		ldrh	r1, [r9, #18]
1333:lvgl/src/lv_widgets/lv_dropdown.c **** 
 292              		.loc 1 1333 66 view .LVU79
 293 004a 10FB0311 		smlabb	r1, r0, r3, r1
 294 004e 8BB2     		uxth	r3, r1
1333:lvgl/src/lv_widgets/lv_dropdown.c **** 
 295              		.loc 1 1333 99 view .LVU80
 296 0050 718A     		ldrh	r1, [r6, #18]
 297              	.LVL36:
1335:lvgl/src/lv_widgets/lv_dropdown.c ****     lv_obj_invalidate(ext->page);
 298              		.loc 1 1335 5 is_stmt 1 view .LVU81
1335:lvgl/src/lv_widgets/lv_dropdown.c ****     lv_obj_invalidate(ext->page);
 299              		.loc 1 1335 38 is_stmt 0 view .LVU82
 300 0052 E01B     		subs	r0, r4, r7
1335:lvgl/src/lv_widgets/lv_dropdown.c ****     lv_obj_invalidate(ext->page);
 301              		.loc 1 1335 48 view .LVU83
 302 0054 00EBD070 		add	r0, r0, r0, lsr #31
1335:lvgl/src/lv_widgets/lv_dropdown.c ****     lv_obj_invalidate(ext->page);
 303              		.loc 1 1335 33 view .LVU84
 304 0058 C91A     		subs	r1, r1, r3
 305              	.LVL37:
1335:lvgl/src/lv_widgets/lv_dropdown.c ****     lv_obj_invalidate(ext->page);
 306              		.loc 1 1335 33 view .LVU85
 307 005a 01EB6001 		add	r1, r1, r0, asr #1
1335:lvgl/src/lv_widgets/lv_dropdown.c ****     lv_obj_invalidate(ext->page);
 308              		.loc 1 1335 5 view .LVU86
 309 005e 09B2     		sxth	r1, r1
 310 0060 3046     		mov	r0, r6
 311 0062 FFF7FEFF 		bl	lv_obj_set_y
 312              	.LVL38:
1336:lvgl/src/lv_widgets/lv_dropdown.c **** }
 313              		.loc 1 1336 5 is_stmt 1 view .LVU87
 314 0066 2868     		ldr	r0, [r5]
 315 0068 FFF7FEFF 		bl	lv_obj_invalidate
 316              	.LVL39:
 317              	.L19:
1337:lvgl/src/lv_widgets/lv_dropdown.c **** 
 318              		.loc 1 1337 1 is_stmt 0 view .LVU88
 319 006c BDE8F883 		pop	{r3, r4, r5, r6, r7, r8, r9, pc}
1337:lvgl/src/lv_widgets/lv_dropdown.c **** 
ARM GAS  D:\Temp\ccIRM2yk.s 			page 36


 320              		.loc 1 1337 1 view .LVU89
 321              		.cfi_endproc
 322              	.LFE511:
 324              		.section	.text.get_id_on_point,"ax",%progbits
 325              		.align	1
 326              		.syntax unified
 327              		.thumb
 328              		.thumb_func
 329              		.fpu fpv4-sp-d16
 331              	get_id_on_point:
 332              	.LVL40:
 333              	.LFB510:
1297:lvgl/src/lv_widgets/lv_dropdown.c ****     lv_dropdown_ext_t * ext          = lv_obj_get_ext_attr(ddlist);
 334              		.loc 1 1297 1 is_stmt 1 view -0
 335              		.cfi_startproc
 336              		@ args = 0, pretend = 0, frame = 0
 337              		@ frame_needed = 0, uses_anonymous_args = 0
1297:lvgl/src/lv_widgets/lv_dropdown.c ****     lv_dropdown_ext_t * ext          = lv_obj_get_ext_attr(ddlist);
 338              		.loc 1 1297 1 is_stmt 0 view .LVU91
 339 0000 F8B5     		push	{r3, r4, r5, r6, r7, lr}
 340              	.LCFI3:
 341              		.cfi_def_cfa_offset 24
 342              		.cfi_offset 3, -24
 343              		.cfi_offset 4, -20
 344              		.cfi_offset 5, -16
 345              		.cfi_offset 6, -12
 346              		.cfi_offset 7, -8
 347              		.cfi_offset 14, -4
 348 0002 0646     		mov	r6, r0
 349 0004 0C46     		mov	r4, r1
1298:lvgl/src/lv_widgets/lv_dropdown.c ****     lv_obj_t * label = get_label(ddlist);
 350              		.loc 1 1298 5 is_stmt 1 view .LVU92
1298:lvgl/src/lv_widgets/lv_dropdown.c ****     lv_obj_t * label = get_label(ddlist);
 351              		.loc 1 1298 40 is_stmt 0 view .LVU93
 352 0006 FFF7FEFF 		bl	lv_obj_get_ext_attr
 353              	.LVL41:
1298:lvgl/src/lv_widgets/lv_dropdown.c ****     lv_obj_t * label = get_label(ddlist);
 354              		.loc 1 1298 40 view .LVU94
 355 000a 0546     		mov	r5, r0
 356              	.LVL42:
1299:lvgl/src/lv_widgets/lv_dropdown.c ****     if(label == NULL) return 0;
 357              		.loc 1 1299 5 is_stmt 1 view .LVU95
1299:lvgl/src/lv_widgets/lv_dropdown.c ****     if(label == NULL) return 0;
 358              		.loc 1 1299 24 is_stmt 0 view .LVU96
 359 000c 3046     		mov	r0, r6
 360              	.LVL43:
1299:lvgl/src/lv_widgets/lv_dropdown.c ****     if(label == NULL) return 0;
 361              		.loc 1 1299 24 view .LVU97
 362 000e FFF7FEFF 		bl	get_label
 363              	.LVL44:
1300:lvgl/src/lv_widgets/lv_dropdown.c ****     y -= label->coords.y1;
 364              		.loc 1 1300 5 is_stmt 1 view .LVU98
1300:lvgl/src/lv_widgets/lv_dropdown.c ****     y -= label->coords.y1;
 365              		.loc 1 1300 7 is_stmt 0 view .LVU99
 366 0012 00B3     		cbz	r0, .L24
 367 0014 0746     		mov	r7, r0
1301:lvgl/src/lv_widgets/lv_dropdown.c **** 
ARM GAS  D:\Temp\ccIRM2yk.s 			page 37


 368              		.loc 1 1301 5 is_stmt 1 view .LVU100
1301:lvgl/src/lv_widgets/lv_dropdown.c **** 
 369              		.loc 1 1301 23 is_stmt 0 view .LVU101
 370 0016 438A     		ldrh	r3, [r0, #18]
1301:lvgl/src/lv_widgets/lv_dropdown.c **** 
 371              		.loc 1 1301 7 view .LVU102
 372 0018 E41A     		subs	r4, r4, r3
 373 001a A4B2     		uxth	r4, r4
 374              	.LVL45:
1303:lvgl/src/lv_widgets/lv_dropdown.c ****     lv_coord_t font_h              = lv_font_get_line_height(font);
 375              		.loc 1 1303 5 is_stmt 1 view .LVU103
 376              	.LBB78:
 377              	.LBI78:
 378              		.loc 2 168 1 view .LVU104
 379              	.LBB79:
 380              		.loc 2 168 1 view .LVU105
 381 001c 48F28E02 		movw	r2, #32910
 382 0020 0021     		movs	r1, #0
 383 0022 FFF7FEFF 		bl	_lv_obj_get_style_ptr
 384              	.LVL46:
 385              		.loc 2 168 1 is_stmt 0 view .LVU106
 386              	.LBE79:
 387              	.LBE78:
1304:lvgl/src/lv_widgets/lv_dropdown.c ****     lv_style_int_t line_space = lv_obj_get_style_text_line_space(label, LV_LABEL_PART_MAIN);
 388              		.loc 1 1304 5 is_stmt 1 view .LVU107
 389              	.LBB80:
 390              	.LBI80:
 116:d:\_project\stm32\f407\hack_rf_new\lvgl\src\lv_font\lv_font.h **** {
 391              		.loc 3 116 26 view .LVU108
 392              	.LBB81:
 393              		.loc 3 118 5 view .LVU109
 394              		.loc 3 118 18 is_stmt 0 view .LVU110
 395 0026 B0F90860 		ldrsh	r6, [r0, #8]
 396              	.LVL47:
 397              		.loc 3 118 18 view .LVU111
 398              	.LBE81:
 399              	.LBE80:
1305:lvgl/src/lv_widgets/lv_dropdown.c **** 
 400              		.loc 1 1305 5 is_stmt 1 view .LVU112
 401              	.LBB82:
 402              	.LBI82:
 161:lvgl/src/lv_widgets/../lv_widgets/../lv_core/lv_obj_style_dec.h **** _LV_OBJ_STYLE_SET_GET_DECLARE(TEXT_DECOR, text_decor, lv_text_decor_t, _int, scalar)
 403              		.loc 2 161 1 view .LVU113
 404              	.LBB83:
 161:lvgl/src/lv_widgets/../lv_widgets/../lv_core/lv_obj_style_dec.h **** _LV_OBJ_STYLE_SET_GET_DECLARE(TEXT_DECOR, text_decor, lv_text_decor_t, _int, scalar)
 405              		.loc 2 161 1 view .LVU114
 406 002a 48F28102 		movw	r2, #32897
 407 002e 0021     		movs	r1, #0
 408 0030 3846     		mov	r0, r7
 409              	.LVL48:
 161:lvgl/src/lv_widgets/../lv_widgets/../lv_core/lv_obj_style_dec.h **** _LV_OBJ_STYLE_SET_GET_DECLARE(TEXT_DECOR, text_decor, lv_text_decor_t, _int, scalar)
 410              		.loc 2 161 1 is_stmt 0 view .LVU115
 411 0032 FFF7FEFF 		bl	_lv_obj_get_style_int
 412              	.LVL49:
 161:lvgl/src/lv_widgets/../lv_widgets/../lv_core/lv_obj_style_dec.h **** _LV_OBJ_STYLE_SET_GET_DECLARE(TEXT_DECOR, text_decor, lv_text_decor_t, _int, scalar)
 413              		.loc 2 161 1 view .LVU116
 414              	.LBE83:
ARM GAS  D:\Temp\ccIRM2yk.s 			page 38


 415              	.LBE82:
1307:lvgl/src/lv_widgets/lv_dropdown.c ****     lv_coord_t h = font_h + line_space;
 416              		.loc 1 1307 5 is_stmt 1 view .LVU117
1307:lvgl/src/lv_widgets/lv_dropdown.c ****     lv_coord_t h = font_h + line_space;
 417              		.loc 1 1307 7 is_stmt 0 view .LVU118
 418 0036 00EBD073 		add	r3, r0, r0, lsr #31
 419 003a 04EB6304 		add	r4, r4, r3, asr #1
 420              	.LVL50:
1307:lvgl/src/lv_widgets/lv_dropdown.c ****     lv_coord_t h = font_h + line_space;
 421              		.loc 1 1307 7 view .LVU119
 422 003e 24B2     		sxth	r4, r4
 423              	.LVL51:
1308:lvgl/src/lv_widgets/lv_dropdown.c **** 
 424              		.loc 1 1308 5 is_stmt 1 view .LVU120
1308:lvgl/src/lv_widgets/lv_dropdown.c **** 
 425              		.loc 1 1308 27 is_stmt 0 view .LVU121
 426 0040 3044     		add	r0, r0, r6
 427              	.LVL52:
1308:lvgl/src/lv_widgets/lv_dropdown.c **** 
 428              		.loc 1 1308 16 view .LVU122
 429 0042 00B2     		sxth	r0, r0
 430              	.LVL53:
1310:lvgl/src/lv_widgets/lv_dropdown.c **** 
 431              		.loc 1 1310 5 is_stmt 1 view .LVU123
1310:lvgl/src/lv_widgets/lv_dropdown.c **** 
 432              		.loc 1 1310 22 is_stmt 0 view .LVU124
 433 0044 94FBF0F0 		sdiv	r0, r4, r0
 434              	.LVL54:
1310:lvgl/src/lv_widgets/lv_dropdown.c **** 
 435              		.loc 1 1310 14 view .LVU125
 436 0048 80B2     		uxth	r0, r0
 437              	.LVL55:
1312:lvgl/src/lv_widgets/lv_dropdown.c ****     return opt;
 438              		.loc 1 1312 5 is_stmt 1 view .LVU126
1312:lvgl/src/lv_widgets/lv_dropdown.c ****     return opt;
 439              		.loc 1 1312 18 is_stmt 0 view .LVU127
 440 004a 6B8D     		ldrh	r3, [r5, #42]
1312:lvgl/src/lv_widgets/lv_dropdown.c ****     return opt;
 441              		.loc 1 1312 7 view .LVU128
 442 004c 8342     		cmp	r3, r0
 443 004e 01D8     		bhi	.L23
1312:lvgl/src/lv_widgets/lv_dropdown.c ****     return opt;
 444              		.loc 1 1312 32 is_stmt 1 discriminator 1 view .LVU129
1312:lvgl/src/lv_widgets/lv_dropdown.c ****     return opt;
 445              		.loc 1 1312 36 is_stmt 0 discriminator 1 view .LVU130
 446 0050 581E     		subs	r0, r3, #1
 447              	.LVL56:
1312:lvgl/src/lv_widgets/lv_dropdown.c ****     return opt;
 448              		.loc 1 1312 36 discriminator 1 view .LVU131
 449 0052 80B2     		uxth	r0, r0
 450              	.LVL57:
 451              	.L23:
1314:lvgl/src/lv_widgets/lv_dropdown.c **** 
 452              		.loc 1 1314 1 view .LVU132
 453 0054 F8BD     		pop	{r3, r4, r5, r6, r7, pc}
 454              	.LVL58:
 455              	.L24:
ARM GAS  D:\Temp\ccIRM2yk.s 			page 39


1300:lvgl/src/lv_widgets/lv_dropdown.c ****     y -= label->coords.y1;
 456              		.loc 1 1300 30 view .LVU133
 457 0056 0020     		movs	r0, #0
 458              	.LVL59:
1300:lvgl/src/lv_widgets/lv_dropdown.c ****     y -= label->coords.y1;
 459              		.loc 1 1300 30 view .LVU134
 460 0058 FCE7     		b	.L23
 461              		.cfi_endproc
 462              	.LFE510:
 464              		.section	.text.page_press_handler,"ax",%progbits
 465              		.align	1
 466              		.syntax unified
 467              		.thumb
 468              		.thumb_func
 469              		.fpu fpv4-sp-d16
 471              	page_press_handler:
 472              	.LVL60:
 473              	.LFB509:
1281:lvgl/src/lv_widgets/lv_dropdown.c ****     lv_dropdown_page_ext_t * page_ext = lv_obj_get_ext_attr(page);
 474              		.loc 1 1281 1 is_stmt 1 view -0
 475              		.cfi_startproc
 476              		@ args = 0, pretend = 0, frame = 8
 477              		@ frame_needed = 0, uses_anonymous_args = 0
1281:lvgl/src/lv_widgets/lv_dropdown.c ****     lv_dropdown_page_ext_t * page_ext = lv_obj_get_ext_attr(page);
 478              		.loc 1 1281 1 is_stmt 0 view .LVU136
 479 0000 F0B5     		push	{r4, r5, r6, r7, lr}
 480              	.LCFI4:
 481              		.cfi_def_cfa_offset 20
 482              		.cfi_offset 4, -20
 483              		.cfi_offset 5, -16
 484              		.cfi_offset 6, -12
 485              		.cfi_offset 7, -8
 486              		.cfi_offset 14, -4
 487 0002 83B0     		sub	sp, sp, #12
 488              	.LCFI5:
 489              		.cfi_def_cfa_offset 32
 490 0004 0646     		mov	r6, r0
1282:lvgl/src/lv_widgets/lv_dropdown.c ****     lv_obj_t * ddlist = page_ext->ddlist;
 491              		.loc 1 1282 5 is_stmt 1 view .LVU137
1282:lvgl/src/lv_widgets/lv_dropdown.c ****     lv_obj_t * ddlist = page_ext->ddlist;
 492              		.loc 1 1282 41 is_stmt 0 view .LVU138
 493 0006 FFF7FEFF 		bl	lv_obj_get_ext_attr
 494              	.LVL61:
1283:lvgl/src/lv_widgets/lv_dropdown.c **** 
 495              		.loc 1 1283 5 is_stmt 1 view .LVU139
1283:lvgl/src/lv_widgets/lv_dropdown.c **** 
 496              		.loc 1 1283 16 is_stmt 0 view .LVU140
 497 000a 046C     		ldr	r4, [r0, #64]
 498              	.LVL62:
1285:lvgl/src/lv_widgets/lv_dropdown.c **** 
 499              		.loc 1 1285 5 is_stmt 1 view .LVU141
1285:lvgl/src/lv_widgets/lv_dropdown.c **** 
 500              		.loc 1 1285 31 is_stmt 0 view .LVU142
 501 000c 2046     		mov	r0, r4
 502              	.LVL63:
1285:lvgl/src/lv_widgets/lv_dropdown.c **** 
 503              		.loc 1 1285 31 view .LVU143
ARM GAS  D:\Temp\ccIRM2yk.s 			page 40


 504 000e FFF7FEFF 		bl	lv_obj_get_ext_attr
 505              	.LVL64:
 506 0012 0746     		mov	r7, r0
 507              	.LVL65:
1287:lvgl/src/lv_widgets/lv_dropdown.c ****     if(indev && (lv_indev_get_type(indev) == LV_INDEV_TYPE_POINTER || lv_indev_get_type(indev) == L
 508              		.loc 1 1287 5 is_stmt 1 view .LVU144
1287:lvgl/src/lv_widgets/lv_dropdown.c ****     if(indev && (lv_indev_get_type(indev) == LV_INDEV_TYPE_POINTER || lv_indev_get_type(indev) == L
 509              		.loc 1 1287 26 is_stmt 0 view .LVU145
 510 0014 FFF7FEFF 		bl	lv_indev_get_act
 511              	.LVL66:
1288:lvgl/src/lv_widgets/lv_dropdown.c ****         lv_point_t p;
 512              		.loc 1 1288 5 is_stmt 1 view .LVU146
1288:lvgl/src/lv_widgets/lv_dropdown.c ****         lv_point_t p;
 513              		.loc 1 1288 7 is_stmt 0 view .LVU147
 514 0018 B0B1     		cbz	r0, .L26
 515 001a 0546     		mov	r5, r0
1288:lvgl/src/lv_widgets/lv_dropdown.c ****         lv_point_t p;
 516              		.loc 1 1288 18 discriminator 1 view .LVU148
 517 001c FFF7FEFF 		bl	lv_indev_get_type
 518              	.LVL67:
1288:lvgl/src/lv_widgets/lv_dropdown.c ****         lv_point_t p;
 519              		.loc 1 1288 14 discriminator 1 view .LVU149
 520 0020 0128     		cmp	r0, #1
 521 0022 04D0     		beq	.L28
1288:lvgl/src/lv_widgets/lv_dropdown.c ****         lv_point_t p;
 522              		.loc 1 1288 71 discriminator 2 view .LVU150
 523 0024 2846     		mov	r0, r5
 524 0026 FFF7FEFF 		bl	lv_indev_get_type
 525              	.LVL68:
1288:lvgl/src/lv_widgets/lv_dropdown.c ****         lv_point_t p;
 526              		.loc 1 1288 68 discriminator 2 view .LVU151
 527 002a 0328     		cmp	r0, #3
 528 002c 0CD1     		bne	.L26
 529              	.L28:
 530              	.LBB84:
1289:lvgl/src/lv_widgets/lv_dropdown.c ****         lv_indev_get_point(indev, &p);
 531              		.loc 1 1289 9 is_stmt 1 view .LVU152
1290:lvgl/src/lv_widgets/lv_dropdown.c ****         ext->pr_opt_id = get_id_on_point(ddlist, p.y);
 532              		.loc 1 1290 9 view .LVU153
 533 002e 01A9     		add	r1, sp, #4
 534 0030 2846     		mov	r0, r5
 535 0032 FFF7FEFF 		bl	lv_indev_get_point
 536              	.LVL69:
1291:lvgl/src/lv_widgets/lv_dropdown.c ****         lv_obj_invalidate(page);
 537              		.loc 1 1291 9 view .LVU154
1291:lvgl/src/lv_widgets/lv_dropdown.c ****         lv_obj_invalidate(page);
 538              		.loc 1 1291 26 is_stmt 0 view .LVU155
 539 0036 BDF90610 		ldrsh	r1, [sp, #6]
 540 003a 2046     		mov	r0, r4
 541 003c FFF7FEFF 		bl	get_id_on_point
 542              	.LVL70:
1291:lvgl/src/lv_widgets/lv_dropdown.c ****         lv_obj_invalidate(page);
 543              		.loc 1 1291 24 view .LVU156
 544 0040 3886     		strh	r0, [r7, #48]	@ movhi
1292:lvgl/src/lv_widgets/lv_dropdown.c ****     }
 545              		.loc 1 1292 9 is_stmt 1 view .LVU157
 546 0042 3046     		mov	r0, r6
ARM GAS  D:\Temp\ccIRM2yk.s 			page 41


 547 0044 FFF7FEFF 		bl	lv_obj_invalidate
 548              	.LVL71:
 549              	.L26:
1292:lvgl/src/lv_widgets/lv_dropdown.c ****     }
 550              		.loc 1 1292 9 is_stmt 0 view .LVU158
 551              	.LBE84:
1294:lvgl/src/lv_widgets/lv_dropdown.c **** 
 552              		.loc 1 1294 1 view .LVU159
 553 0048 03B0     		add	sp, sp, #12
 554              	.LCFI6:
 555              		.cfi_def_cfa_offset 20
 556              		@ sp needed
 557 004a F0BD     		pop	{r4, r5, r6, r7, pc}
1294:lvgl/src/lv_widgets/lv_dropdown.c **** 
 558              		.loc 1 1294 1 view .LVU160
 559              		.cfi_endproc
 560              	.LFE509:
 562              		.section	.text.draw_box,"ax",%progbits
 563              		.align	1
 564              		.syntax unified
 565              		.thumb
 566              		.thumb_func
 567              		.fpu fpv4-sp-d16
 569              	draw_box:
 570              	.LVL72:
 571              	.LFB506:
1154:lvgl/src/lv_widgets/lv_dropdown.c ****     lv_dropdown_ext_t * ext = lv_obj_get_ext_attr(ddlist);
 572              		.loc 1 1154 1 is_stmt 1 view -0
 573              		.cfi_startproc
 574              		@ args = 0, pretend = 0, frame = 96
 575              		@ frame_needed = 0, uses_anonymous_args = 0
1154:lvgl/src/lv_widgets/lv_dropdown.c ****     lv_dropdown_ext_t * ext = lv_obj_get_ext_attr(ddlist);
 576              		.loc 1 1154 1 is_stmt 0 view .LVU162
 577 0000 2DE9F04F 		push	{r4, r5, r6, r7, r8, r9, r10, fp, lr}
 578              	.LCFI7:
 579              		.cfi_def_cfa_offset 36
 580              		.cfi_offset 4, -36
 581              		.cfi_offset 5, -32
 582              		.cfi_offset 6, -28
 583              		.cfi_offset 7, -24
 584              		.cfi_offset 8, -20
 585              		.cfi_offset 9, -16
 586              		.cfi_offset 10, -12
 587              		.cfi_offset 11, -8
 588              		.cfi_offset 14, -4
 589 0004 99B0     		sub	sp, sp, #100
 590              	.LCFI8:
 591              		.cfi_def_cfa_offset 136
 592 0006 0446     		mov	r4, r0
 593 0008 8846     		mov	r8, r1
 594 000a 9346     		mov	fp, r2
 595 000c 9946     		mov	r9, r3
1155:lvgl/src/lv_widgets/lv_dropdown.c ****     lv_obj_t * page = ext->page;
 596              		.loc 1 1155 5 is_stmt 1 view .LVU163
1155:lvgl/src/lv_widgets/lv_dropdown.c ****     lv_obj_t * page = ext->page;
 597              		.loc 1 1155 31 is_stmt 0 view .LVU164
 598 000e FFF7FEFF 		bl	lv_obj_get_ext_attr
ARM GAS  D:\Temp\ccIRM2yk.s 			page 42


 599              	.LVL73:
1155:lvgl/src/lv_widgets/lv_dropdown.c ****     lv_obj_t * page = ext->page;
 600              		.loc 1 1155 31 view .LVU165
 601 0012 0546     		mov	r5, r0
 602              	.LVL74:
1156:lvgl/src/lv_widgets/lv_dropdown.c ****     lv_state_t state_orig = page->state;
 603              		.loc 1 1156 5 is_stmt 1 view .LVU166
1156:lvgl/src/lv_widgets/lv_dropdown.c ****     lv_state_t state_orig = page->state;
 604              		.loc 1 1156 16 is_stmt 0 view .LVU167
 605 0014 0668     		ldr	r6, [r0]
 606              	.LVL75:
1157:lvgl/src/lv_widgets/lv_dropdown.c **** 
 607              		.loc 1 1157 5 is_stmt 1 view .LVU168
1157:lvgl/src/lv_widgets/lv_dropdown.c **** 
 608              		.loc 1 1157 16 is_stmt 0 view .LVU169
 609 0016 96F83D70 		ldrb	r7, [r6, #61]	@ zero_extendqisi2
 610              	.LVL76:
1159:lvgl/src/lv_widgets/lv_dropdown.c ****         _lv_obj_disable_style_caching(ddlist, true);
 611              		.loc 1 1159 5 is_stmt 1 view .LVU170
1159:lvgl/src/lv_widgets/lv_dropdown.c ****         _lv_obj_disable_style_caching(ddlist, true);
 612              		.loc 1 1159 7 is_stmt 0 view .LVU171
 613 001a 4F45     		cmp	r7, r9
 614 001c 47D1     		bne	.L33
 615              	.LVL77:
 616              	.L31:
1165:lvgl/src/lv_widgets/lv_dropdown.c ****     lv_style_int_t line_space = lv_obj_get_style_text_line_space(ddlist, LV_DROPDOWN_PART_LIST);
 617              		.loc 1 1165 5 is_stmt 1 view .LVU172
 618              	.LBB85:
 619              	.LBI85:
 620              		.loc 2 168 1 view .LVU173
 621              	.LBB86:
 622              		.loc 2 168 1 view .LVU174
 623 001e 48F28E02 		movw	r2, #32910
 624 0022 4021     		movs	r1, #64
 625 0024 2046     		mov	r0, r4
 626 0026 FFF7FEFF 		bl	_lv_obj_get_style_ptr
 627              	.LVL78:
 628 002a 8246     		mov	r10, r0
 629              	.LVL79:
 630              		.loc 2 168 1 is_stmt 0 view .LVU175
 631              	.LBE86:
 632              	.LBE85:
1166:lvgl/src/lv_widgets/lv_dropdown.c ****     lv_coord_t font_h         = lv_font_get_line_height(font);
 633              		.loc 1 1166 5 is_stmt 1 view .LVU176
 634              	.LBB87:
 635              	.LBI87:
 161:lvgl/src/lv_widgets/../lv_widgets/../lv_core/lv_obj_style_dec.h **** _LV_OBJ_STYLE_SET_GET_DECLARE(TEXT_DECOR, text_decor, lv_text_decor_t, _int, scalar)
 636              		.loc 2 161 1 view .LVU177
 637              	.LBB88:
 161:lvgl/src/lv_widgets/../lv_widgets/../lv_core/lv_obj_style_dec.h **** _LV_OBJ_STYLE_SET_GET_DECLARE(TEXT_DECOR, text_decor, lv_text_decor_t, _int, scalar)
 638              		.loc 2 161 1 view .LVU178
 639 002c 48F28102 		movw	r2, #32897
 640 0030 4021     		movs	r1, #64
 641 0032 2046     		mov	r0, r4
 642              	.LVL80:
 161:lvgl/src/lv_widgets/../lv_widgets/../lv_core/lv_obj_style_dec.h **** _LV_OBJ_STYLE_SET_GET_DECLARE(TEXT_DECOR, text_decor, lv_text_decor_t, _int, scalar)
 643              		.loc 2 161 1 is_stmt 0 view .LVU179
ARM GAS  D:\Temp\ccIRM2yk.s 			page 43


 644 0034 FFF7FEFF 		bl	_lv_obj_get_style_int
 645              	.LVL81:
 646 0038 8146     		mov	r9, r0
 647              	.LVL82:
 161:lvgl/src/lv_widgets/../lv_widgets/../lv_core/lv_obj_style_dec.h **** _LV_OBJ_STYLE_SET_GET_DECLARE(TEXT_DECOR, text_decor, lv_text_decor_t, _int, scalar)
 648              		.loc 2 161 1 view .LVU180
 649              	.LBE88:
 650              	.LBE87:
1167:lvgl/src/lv_widgets/lv_dropdown.c **** 
 651              		.loc 1 1167 5 is_stmt 1 view .LVU181
 652              	.LBB89:
 653              	.LBI89:
 116:d:\_project\stm32\f407\hack_rf_new\lvgl\src\lv_font\lv_font.h **** {
 654              		.loc 3 116 26 view .LVU182
 655              	.LBB90:
 656              		.loc 3 118 5 view .LVU183
 657              		.loc 3 118 18 is_stmt 0 view .LVU184
 658 003a BAF908A0 		ldrsh	r10, [r10, #8]
 659              	.LVL83:
 660              		.loc 3 118 18 view .LVU185
 661              	.LBE90:
 662              	.LBE89:
1170:lvgl/src/lv_widgets/lv_dropdown.c ****     lv_area_t rect_area;
 663              		.loc 1 1170 5 is_stmt 1 view .LVU186
1170:lvgl/src/lv_widgets/lv_dropdown.c ****     lv_area_t rect_area;
 664              		.loc 1 1170 24 is_stmt 0 view .LVU187
 665 003e 2046     		mov	r0, r4
 666 0040 FFF7FEFF 		bl	get_label
 667              	.LVL84:
1171:lvgl/src/lv_widgets/lv_dropdown.c ****     rect_area.y1 = label->coords.y1;
 668              		.loc 1 1171 5 is_stmt 1 view .LVU188
1172:lvgl/src/lv_widgets/lv_dropdown.c ****     rect_area.y1 += id * (font_h + line_space);
 669              		.loc 1 1172 5 view .LVU189
1172:lvgl/src/lv_widgets/lv_dropdown.c ****     rect_area.y1 += id * (font_h + line_space);
 670              		.loc 1 1172 33 is_stmt 0 view .LVU190
 671 0044 B0F91230 		ldrsh	r3, [r0, #18]
1173:lvgl/src/lv_widgets/lv_dropdown.c ****     rect_area.y1 -= line_space / 2;
 672              		.loc 1 1173 5 is_stmt 1 view .LVU191
1173:lvgl/src/lv_widgets/lv_dropdown.c ****     rect_area.y1 -= line_space / 2;
 673              		.loc 1 1173 34 is_stmt 0 view .LVU192
 674 0048 0AEB0900 		add	r0, r10, r9
 675              	.LVL85:
1173:lvgl/src/lv_widgets/lv_dropdown.c ****     rect_area.y1 -= line_space / 2;
 676              		.loc 1 1173 18 view .LVU193
 677 004c 10FB0B30 		smlabb	r0, r0, fp, r3
 678 0050 80B2     		uxth	r0, r0
1174:lvgl/src/lv_widgets/lv_dropdown.c **** 
 679              		.loc 1 1174 5 is_stmt 1 view .LVU194
1174:lvgl/src/lv_widgets/lv_dropdown.c **** 
 680              		.loc 1 1174 18 is_stmt 0 view .LVU195
 681 0052 09EBD973 		add	r3, r9, r9, lsr #31
 682 0056 A0EB6300 		sub	r0, r0, r3, asr #1
 683 005a 80B2     		uxth	r0, r0
 684 005c ADF85A00 		strh	r0, [sp, #90]	@ movhi
1176:lvgl/src/lv_widgets/lv_dropdown.c ****     rect_area.x1 = ext->page->coords.x1;
 685              		.loc 1 1176 5 is_stmt 1 view .LVU196
1176:lvgl/src/lv_widgets/lv_dropdown.c ****     rect_area.x1 = ext->page->coords.x1;
ARM GAS  D:\Temp\ccIRM2yk.s 			page 44


 686              		.loc 1 1176 33 is_stmt 0 view .LVU197
 687 0060 5044     		add	r0, r0, r10
1176:lvgl/src/lv_widgets/lv_dropdown.c ****     rect_area.x1 = ext->page->coords.x1;
 688              		.loc 1 1176 42 view .LVU198
 689 0062 19FA80F0 		uxtah	r0, r9, r0
 690 0066 80B2     		uxth	r0, r0
1176:lvgl/src/lv_widgets/lv_dropdown.c ****     rect_area.x1 = ext->page->coords.x1;
 691              		.loc 1 1176 55 view .LVU199
 692 0068 0138     		subs	r0, r0, #1
1176:lvgl/src/lv_widgets/lv_dropdown.c ****     rect_area.x1 = ext->page->coords.x1;
 693              		.loc 1 1176 18 view .LVU200
 694 006a ADF85E00 		strh	r0, [sp, #94]	@ movhi
1177:lvgl/src/lv_widgets/lv_dropdown.c ****     rect_area.x2 = ext->page->coords.x2;
 695              		.loc 1 1177 5 is_stmt 1 view .LVU201
1177:lvgl/src/lv_widgets/lv_dropdown.c ****     rect_area.x2 = ext->page->coords.x2;
 696              		.loc 1 1177 23 is_stmt 0 view .LVU202
 697 006e 2B68     		ldr	r3, [r5]
1177:lvgl/src/lv_widgets/lv_dropdown.c ****     rect_area.x2 = ext->page->coords.x2;
 698              		.loc 1 1177 37 view .LVU203
 699 0070 B3F91030 		ldrsh	r3, [r3, #16]
1177:lvgl/src/lv_widgets/lv_dropdown.c ****     rect_area.x2 = ext->page->coords.x2;
 700              		.loc 1 1177 18 view .LVU204
 701 0074 ADF85830 		strh	r3, [sp, #88]	@ movhi
1178:lvgl/src/lv_widgets/lv_dropdown.c **** 
 702              		.loc 1 1178 5 is_stmt 1 view .LVU205
1178:lvgl/src/lv_widgets/lv_dropdown.c **** 
 703              		.loc 1 1178 23 is_stmt 0 view .LVU206
 704 0078 2B68     		ldr	r3, [r5]
1178:lvgl/src/lv_widgets/lv_dropdown.c **** 
 705              		.loc 1 1178 37 view .LVU207
 706 007a B3F91430 		ldrsh	r3, [r3, #20]
1178:lvgl/src/lv_widgets/lv_dropdown.c **** 
 707              		.loc 1 1178 18 view .LVU208
 708 007e ADF85C30 		strh	r3, [sp, #92]	@ movhi
1180:lvgl/src/lv_widgets/lv_dropdown.c ****     lv_draw_rect_dsc_init(&sel_rect);
 709              		.loc 1 1180 5 is_stmt 1 view .LVU209
1181:lvgl/src/lv_widgets/lv_dropdown.c ****     lv_obj_init_draw_rect_dsc(ddlist, LV_DROPDOWN_PART_SELECTED, &sel_rect);
 710              		.loc 1 1181 5 view .LVU210
 711 0082 01A8     		add	r0, sp, #4
 712 0084 FFF7FEFF 		bl	lv_draw_rect_dsc_init
 713              	.LVL86:
1182:lvgl/src/lv_widgets/lv_dropdown.c ****     lv_draw_rect(&rect_area, clip_area, &sel_rect);
 714              		.loc 1 1182 5 view .LVU211
 715 0088 01AA     		add	r2, sp, #4
 716 008a 4221     		movs	r1, #66
 717 008c 2046     		mov	r0, r4
 718 008e FFF7FEFF 		bl	lv_obj_init_draw_rect_dsc
 719              	.LVL87:
1183:lvgl/src/lv_widgets/lv_dropdown.c **** 
 720              		.loc 1 1183 5 view .LVU212
 721 0092 01AA     		add	r2, sp, #4
 722 0094 4146     		mov	r1, r8
 723 0096 16A8     		add	r0, sp, #88
 724 0098 FFF7FEFF 		bl	lv_draw_rect
 725              	.LVL88:
1185:lvgl/src/lv_widgets/lv_dropdown.c ****     _lv_obj_disable_style_caching(ddlist, false);
 726              		.loc 1 1185 5 view .LVU213
ARM GAS  D:\Temp\ccIRM2yk.s 			page 45


1185:lvgl/src/lv_widgets/lv_dropdown.c ****     _lv_obj_disable_style_caching(ddlist, false);
 727              		.loc 1 1185 17 is_stmt 0 view .LVU214
 728 009c 86F83D70 		strb	r7, [r6, #61]
1186:lvgl/src/lv_widgets/lv_dropdown.c **** }
 729              		.loc 1 1186 5 is_stmt 1 view .LVU215
 730 00a0 0021     		movs	r1, #0
 731 00a2 2046     		mov	r0, r4
 732 00a4 FFF7FEFF 		bl	_lv_obj_disable_style_caching
 733              	.LVL89:
1187:lvgl/src/lv_widgets/lv_dropdown.c **** 
 734              		.loc 1 1187 1 is_stmt 0 view .LVU216
 735 00a8 19B0     		add	sp, sp, #100
 736              	.LCFI9:
 737              		.cfi_remember_state
 738              		.cfi_def_cfa_offset 36
 739              		@ sp needed
 740 00aa BDE8F08F 		pop	{r4, r5, r6, r7, r8, r9, r10, fp, pc}
 741              	.LVL90:
 742              	.L33:
 743              	.LCFI10:
 744              		.cfi_restore_state
1160:lvgl/src/lv_widgets/lv_dropdown.c ****         page->state = state;
 745              		.loc 1 1160 9 is_stmt 1 view .LVU217
 746 00ae 0121     		movs	r1, #1
 747 00b0 2046     		mov	r0, r4
 748              	.LVL91:
1160:lvgl/src/lv_widgets/lv_dropdown.c ****         page->state = state;
 749              		.loc 1 1160 9 is_stmt 0 view .LVU218
 750 00b2 FFF7FEFF 		bl	_lv_obj_disable_style_caching
 751              	.LVL92:
1161:lvgl/src/lv_widgets/lv_dropdown.c ****     }
 752              		.loc 1 1161 9 is_stmt 1 view .LVU219
1161:lvgl/src/lv_widgets/lv_dropdown.c ****     }
 753              		.loc 1 1161 21 is_stmt 0 view .LVU220
 754 00b6 86F83D90 		strb	r9, [r6, #61]
 755 00ba B0E7     		b	.L31
 756              		.cfi_endproc
 757              	.LFE506:
 759              		.section	.text.draw_box_label,"ax",%progbits
 760              		.align	1
 761              		.syntax unified
 762              		.thumb
 763              		.thumb_func
 764              		.fpu fpv4-sp-d16
 766              	draw_box_label:
 767              	.LVL93:
 768              	.LFB507:
1190:lvgl/src/lv_widgets/lv_dropdown.c ****     lv_dropdown_ext_t * ext = lv_obj_get_ext_attr(ddlist);
 769              		.loc 1 1190 1 is_stmt 1 view -0
 770              		.cfi_startproc
 771              		@ args = 0, pretend = 0, frame = 56
 772              		@ frame_needed = 0, uses_anonymous_args = 0
1190:lvgl/src/lv_widgets/lv_dropdown.c ****     lv_dropdown_ext_t * ext = lv_obj_get_ext_attr(ddlist);
 773              		.loc 1 1190 1 is_stmt 0 view .LVU222
 774 0000 2DE9F043 		push	{r4, r5, r6, r7, r8, r9, lr}
 775              	.LCFI11:
 776              		.cfi_def_cfa_offset 28
ARM GAS  D:\Temp\ccIRM2yk.s 			page 46


 777              		.cfi_offset 4, -28
 778              		.cfi_offset 5, -24
 779              		.cfi_offset 6, -20
 780              		.cfi_offset 7, -16
 781              		.cfi_offset 8, -12
 782              		.cfi_offset 9, -8
 783              		.cfi_offset 14, -4
 784 0004 91B0     		sub	sp, sp, #68
 785              	.LCFI12:
 786              		.cfi_def_cfa_offset 96
 787 0006 0446     		mov	r4, r0
 788 0008 8846     		mov	r8, r1
 789 000a 9146     		mov	r9, r2
 790 000c 1E46     		mov	r6, r3
1191:lvgl/src/lv_widgets/lv_dropdown.c ****     lv_obj_t * page = ext->page;
 791              		.loc 1 1191 5 is_stmt 1 view .LVU223
1191:lvgl/src/lv_widgets/lv_dropdown.c ****     lv_obj_t * page = ext->page;
 792              		.loc 1 1191 31 is_stmt 0 view .LVU224
 793 000e FFF7FEFF 		bl	lv_obj_get_ext_attr
 794              	.LVL94:
1192:lvgl/src/lv_widgets/lv_dropdown.c ****     lv_state_t state_orig = page->state;
 795              		.loc 1 1192 5 is_stmt 1 view .LVU225
1192:lvgl/src/lv_widgets/lv_dropdown.c ****     lv_state_t state_orig = page->state;
 796              		.loc 1 1192 16 is_stmt 0 view .LVU226
 797 0012 0568     		ldr	r5, [r0]
 798              	.LVL95:
1193:lvgl/src/lv_widgets/lv_dropdown.c **** 
 799              		.loc 1 1193 5 is_stmt 1 view .LVU227
1193:lvgl/src/lv_widgets/lv_dropdown.c **** 
 800              		.loc 1 1193 16 is_stmt 0 view .LVU228
 801 0014 95F83D70 		ldrb	r7, [r5, #61]	@ zero_extendqisi2
 802              	.LVL96:
1195:lvgl/src/lv_widgets/lv_dropdown.c ****         page->state =  state;
 803              		.loc 1 1195 5 is_stmt 1 view .LVU229
1195:lvgl/src/lv_widgets/lv_dropdown.c ****         page->state =  state;
 804              		.loc 1 1195 7 is_stmt 0 view .LVU230
 805 0018 B742     		cmp	r7, r6
 806 001a 4BD1     		bne	.L42
 807              	.LVL97:
 808              	.L35:
1200:lvgl/src/lv_widgets/lv_dropdown.c ****     lv_draw_label_dsc_init(&label_dsc);
 809              		.loc 1 1200 5 is_stmt 1 view .LVU231
1201:lvgl/src/lv_widgets/lv_dropdown.c ****     lv_obj_init_draw_label_dsc(ddlist, LV_DROPDOWN_PART_SELECTED, &label_dsc);
 810              		.loc 1 1201 5 view .LVU232
 811 001c 07A8     		add	r0, sp, #28
 812 001e FFF7FEFF 		bl	lv_draw_label_dsc_init
 813              	.LVL98:
1202:lvgl/src/lv_widgets/lv_dropdown.c **** 
 814              		.loc 1 1202 5 view .LVU233
 815 0022 07AA     		add	r2, sp, #28
 816 0024 4221     		movs	r1, #66
 817 0026 2046     		mov	r0, r4
 818 0028 FFF7FEFF 		bl	lv_obj_init_draw_label_dsc
 819              	.LVL99:
1204:lvgl/src/lv_widgets/lv_dropdown.c ****                                                             LV_DROPDOWN_PART_LIST);  /*Line space s
 820              		.loc 1 1204 5 view .LVU234
 821              	.LBB91:
ARM GAS  D:\Temp\ccIRM2yk.s 			page 47


 822              	.LBI91:
 161:lvgl/src/lv_widgets/../lv_widgets/../lv_core/lv_obj_style_dec.h **** _LV_OBJ_STYLE_SET_GET_DECLARE(TEXT_DECOR, text_decor, lv_text_decor_t, _int, scalar)
 823              		.loc 2 161 1 view .LVU235
 824              	.LBB92:
 161:lvgl/src/lv_widgets/../lv_widgets/../lv_core/lv_obj_style_dec.h **** _LV_OBJ_STYLE_SET_GET_DECLARE(TEXT_DECOR, text_decor, lv_text_decor_t, _int, scalar)
 825              		.loc 2 161 1 view .LVU236
 826 002c 48F28102 		movw	r2, #32897
 827 0030 4021     		movs	r1, #64
 828 0032 2046     		mov	r0, r4
 829 0034 FFF7FEFF 		bl	_lv_obj_get_style_int
 830              	.LVL100:
 161:lvgl/src/lv_widgets/../lv_widgets/../lv_core/lv_obj_style_dec.h **** _LV_OBJ_STYLE_SET_GET_DECLARE(TEXT_DECOR, text_decor, lv_text_decor_t, _int, scalar)
 831              		.loc 2 161 1 is_stmt 0 view .LVU237
 832              	.LBE92:
 833              	.LBE91:
1204:lvgl/src/lv_widgets/lv_dropdown.c ****                                                             LV_DROPDOWN_PART_LIST);  /*Line space s
 834              		.loc 1 1204 26 view .LVU238
 835 0038 ADF82A00 		strh	r0, [sp, #42]	@ movhi
1207:lvgl/src/lv_widgets/lv_dropdown.c ****     if(label == NULL) return;
 836              		.loc 1 1207 5 is_stmt 1 view .LVU239
1207:lvgl/src/lv_widgets/lv_dropdown.c ****     if(label == NULL) return;
 837              		.loc 1 1207 24 is_stmt 0 view .LVU240
 838 003c 2046     		mov	r0, r4
 839 003e FFF7FEFF 		bl	get_label
 840              	.LVL101:
1208:lvgl/src/lv_widgets/lv_dropdown.c **** 
 841              		.loc 1 1208 5 is_stmt 1 view .LVU241
1208:lvgl/src/lv_widgets/lv_dropdown.c **** 
 842              		.loc 1 1208 7 is_stmt 0 view .LVU242
 843 0042 0646     		mov	r6, r0
 844 0044 98B3     		cbz	r0, .L34
1210:lvgl/src/lv_widgets/lv_dropdown.c **** 
 845              		.loc 1 1210 5 is_stmt 1 view .LVU243
1210:lvgl/src/lv_widgets/lv_dropdown.c **** 
 846              		.loc 1 1210 30 is_stmt 0 view .LVU244
 847 0046 FFF7FEFF 		bl	lv_label_get_align
 848              	.LVL102:
1212:lvgl/src/lv_widgets/lv_dropdown.c ****     else if(align == LV_LABEL_ALIGN_RIGHT) label_dsc.flag |= LV_TXT_FLAG_RIGHT;
 849              		.loc 1 1212 5 is_stmt 1 view .LVU245
1212:lvgl/src/lv_widgets/lv_dropdown.c ****     else if(align == LV_LABEL_ALIGN_RIGHT) label_dsc.flag |= LV_TXT_FLAG_RIGHT;
 850              		.loc 1 1212 7 is_stmt 0 view .LVU246
 851 004a 0128     		cmp	r0, #1
 852 004c 39D0     		beq	.L43
1213:lvgl/src/lv_widgets/lv_dropdown.c **** 
 853              		.loc 1 1213 10 is_stmt 1 view .LVU247
1213:lvgl/src/lv_widgets/lv_dropdown.c **** 
 854              		.loc 1 1213 12 is_stmt 0 view .LVU248
 855 004e 0228     		cmp	r0, #2
 856 0050 3ED0     		beq	.L44
 857              	.L39:
1215:lvgl/src/lv_widgets/lv_dropdown.c **** 
 858              		.loc 1 1215 5 is_stmt 1 view .LVU249
1215:lvgl/src/lv_widgets/lv_dropdown.c **** 
 859              		.loc 1 1215 32 is_stmt 0 view .LVU250
 860 0052 099B     		ldr	r3, [sp, #36]
 861              	.LVL103:
 862              	.LBB93:
ARM GAS  D:\Temp\ccIRM2yk.s 			page 48


 863              	.LBI93:
 116:d:\_project\stm32\f407\hack_rf_new\lvgl\src\lv_font\lv_font.h **** {
 864              		.loc 3 116 26 is_stmt 1 view .LVU251
 865              	.LBB94:
 866              		.loc 3 118 5 view .LVU252
 867              		.loc 3 118 18 is_stmt 0 view .LVU253
 868 0054 B3F90800 		ldrsh	r0, [r3, #8]
 869              	.LVL104:
 870              		.loc 3 118 18 view .LVU254
 871              	.LBE94:
 872              	.LBE93:
1217:lvgl/src/lv_widgets/lv_dropdown.c ****     area_sel.y1 = label->coords.y1;
 873              		.loc 1 1217 5 is_stmt 1 view .LVU255
1218:lvgl/src/lv_widgets/lv_dropdown.c ****     area_sel.y1 += id * (font_h + label_dsc.line_space);
 874              		.loc 1 1218 5 view .LVU256
1218:lvgl/src/lv_widgets/lv_dropdown.c ****     area_sel.y1 += id * (font_h + label_dsc.line_space);
 875              		.loc 1 1218 32 is_stmt 0 view .LVU257
 876 0058 B6F91230 		ldrsh	r3, [r6, #18]
1219:lvgl/src/lv_widgets/lv_dropdown.c ****     area_sel.y1 -= label_dsc.line_space / 2;
 877              		.loc 1 1219 5 is_stmt 1 view .LVU258
1219:lvgl/src/lv_widgets/lv_dropdown.c ****     area_sel.y1 -= label_dsc.line_space / 2;
 878              		.loc 1 1219 44 is_stmt 0 view .LVU259
 879 005c BDF92A10 		ldrsh	r1, [sp, #42]
1219:lvgl/src/lv_widgets/lv_dropdown.c ****     area_sel.y1 -= label_dsc.line_space / 2;
 880              		.loc 1 1219 33 view .LVU260
 881 0060 4218     		adds	r2, r0, r1
1219:lvgl/src/lv_widgets/lv_dropdown.c ****     area_sel.y1 -= label_dsc.line_space / 2;
 882              		.loc 1 1219 17 view .LVU261
 883 0062 12FB0932 		smlabb	r2, r2, r9, r3
 884 0066 92B2     		uxth	r2, r2
1220:lvgl/src/lv_widgets/lv_dropdown.c **** 
 885              		.loc 1 1220 5 is_stmt 1 view .LVU262
1220:lvgl/src/lv_widgets/lv_dropdown.c **** 
 886              		.loc 1 1220 17 is_stmt 0 view .LVU263
 887 0068 01EBD173 		add	r3, r1, r1, lsr #31
 888 006c A2EB6302 		sub	r2, r2, r3, asr #1
 889 0070 93B2     		uxth	r3, r2
 890 0072 ADF81630 		strh	r3, [sp, #22]	@ movhi
1222:lvgl/src/lv_widgets/lv_dropdown.c ****     area_sel.x1 = page->coords.x1;
 891              		.loc 1 1222 5 is_stmt 1 view .LVU264
1222:lvgl/src/lv_widgets/lv_dropdown.c ****     area_sel.x1 = page->coords.x1;
 892              		.loc 1 1222 31 is_stmt 0 view .LVU265
 893 0076 0344     		add	r3, r3, r0
1222:lvgl/src/lv_widgets/lv_dropdown.c ****     area_sel.x1 = page->coords.x1;
 894              		.loc 1 1222 51 view .LVU266
 895 0078 89B2     		uxth	r1, r1
1222:lvgl/src/lv_widgets/lv_dropdown.c ****     area_sel.x1 = page->coords.x1;
 896              		.loc 1 1222 40 view .LVU267
 897 007a 11FA83F3 		uxtah	r3, r1, r3
 898 007e 9BB2     		uxth	r3, r3
1222:lvgl/src/lv_widgets/lv_dropdown.c ****     area_sel.x1 = page->coords.x1;
 899              		.loc 1 1222 63 view .LVU268
 900 0080 013B     		subs	r3, r3, #1
1222:lvgl/src/lv_widgets/lv_dropdown.c ****     area_sel.x1 = page->coords.x1;
 901              		.loc 1 1222 17 view .LVU269
 902 0082 ADF81A30 		strh	r3, [sp, #26]	@ movhi
1223:lvgl/src/lv_widgets/lv_dropdown.c ****     area_sel.x2 = page->coords.x2;
ARM GAS  D:\Temp\ccIRM2yk.s 			page 49


 903              		.loc 1 1223 5 is_stmt 1 view .LVU270
1223:lvgl/src/lv_widgets/lv_dropdown.c ****     area_sel.x2 = page->coords.x2;
 904              		.loc 1 1223 31 is_stmt 0 view .LVU271
 905 0086 B5F91030 		ldrsh	r3, [r5, #16]
1223:lvgl/src/lv_widgets/lv_dropdown.c ****     area_sel.x2 = page->coords.x2;
 906              		.loc 1 1223 17 view .LVU272
 907 008a ADF81430 		strh	r3, [sp, #20]	@ movhi
1224:lvgl/src/lv_widgets/lv_dropdown.c ****     lv_area_t mask_sel;
 908              		.loc 1 1224 5 is_stmt 1 view .LVU273
1224:lvgl/src/lv_widgets/lv_dropdown.c ****     lv_area_t mask_sel;
 909              		.loc 1 1224 31 is_stmt 0 view .LVU274
 910 008e B5F91430 		ldrsh	r3, [r5, #20]
1224:lvgl/src/lv_widgets/lv_dropdown.c ****     lv_area_t mask_sel;
 911              		.loc 1 1224 17 view .LVU275
 912 0092 ADF81830 		strh	r3, [sp, #24]	@ movhi
1225:lvgl/src/lv_widgets/lv_dropdown.c ****     bool area_ok;
 913              		.loc 1 1225 5 is_stmt 1 view .LVU276
1226:lvgl/src/lv_widgets/lv_dropdown.c ****     area_ok = _lv_area_intersect(&mask_sel, clip_area, &area_sel);
 914              		.loc 1 1226 5 view .LVU277
1227:lvgl/src/lv_widgets/lv_dropdown.c ****     if(area_ok) {
 915              		.loc 1 1227 5 view .LVU278
1227:lvgl/src/lv_widgets/lv_dropdown.c ****     if(area_ok) {
 916              		.loc 1 1227 15 is_stmt 0 view .LVU279
 917 0096 05AA     		add	r2, sp, #20
 918 0098 4146     		mov	r1, r8
 919 009a 03A8     		add	r0, sp, #12
 920              	.LVL105:
1227:lvgl/src/lv_widgets/lv_dropdown.c ****     if(area_ok) {
 921              		.loc 1 1227 15 view .LVU280
 922 009c FFF7FEFF 		bl	_lv_area_intersect
 923              	.LVL106:
1228:lvgl/src/lv_widgets/lv_dropdown.c ****         lv_draw_label(&label->coords, &mask_sel, &label_dsc, lv_label_get_text(label), NULL);
 924              		.loc 1 1228 5 is_stmt 1 view .LVU281
1228:lvgl/src/lv_widgets/lv_dropdown.c ****         lv_draw_label(&label->coords, &mask_sel, &label_dsc, lv_label_get_text(label), NULL);
 925              		.loc 1 1228 7 is_stmt 0 view .LVU282
 926 00a0 E8B9     		cbnz	r0, .L45
 927              	.LVL107:
 928              	.L40:
1231:lvgl/src/lv_widgets/lv_dropdown.c ****     _lv_obj_disable_style_caching(ddlist, false);
 929              		.loc 1 1231 5 is_stmt 1 view .LVU283
1231:lvgl/src/lv_widgets/lv_dropdown.c ****     _lv_obj_disable_style_caching(ddlist, false);
 930              		.loc 1 1231 17 is_stmt 0 view .LVU284
 931 00a2 85F83D70 		strb	r7, [r5, #61]
1232:lvgl/src/lv_widgets/lv_dropdown.c **** }
 932              		.loc 1 1232 5 is_stmt 1 view .LVU285
 933 00a6 0021     		movs	r1, #0
 934 00a8 2046     		mov	r0, r4
 935 00aa FFF7FEFF 		bl	_lv_obj_disable_style_caching
 936              	.LVL108:
 937              	.L34:
1233:lvgl/src/lv_widgets/lv_dropdown.c **** 
 938              		.loc 1 1233 1 is_stmt 0 view .LVU286
 939 00ae 11B0     		add	sp, sp, #68
 940              	.LCFI13:
 941              		.cfi_remember_state
 942              		.cfi_def_cfa_offset 28
 943              		@ sp needed
ARM GAS  D:\Temp\ccIRM2yk.s 			page 50


 944 00b0 BDE8F083 		pop	{r4, r5, r6, r7, r8, r9, pc}
 945              	.LVL109:
 946              	.L42:
 947              	.LCFI14:
 948              		.cfi_restore_state
1196:lvgl/src/lv_widgets/lv_dropdown.c ****         _lv_obj_disable_style_caching(ddlist, true);
 949              		.loc 1 1196 9 is_stmt 1 view .LVU287
1196:lvgl/src/lv_widgets/lv_dropdown.c ****         _lv_obj_disable_style_caching(ddlist, true);
 950              		.loc 1 1196 21 is_stmt 0 view .LVU288
 951 00b4 85F83D60 		strb	r6, [r5, #61]
1197:lvgl/src/lv_widgets/lv_dropdown.c ****     }
 952              		.loc 1 1197 9 is_stmt 1 view .LVU289
 953 00b8 0121     		movs	r1, #1
 954 00ba 2046     		mov	r0, r4
 955              	.LVL110:
1197:lvgl/src/lv_widgets/lv_dropdown.c ****     }
 956              		.loc 1 1197 9 is_stmt 0 view .LVU290
 957 00bc FFF7FEFF 		bl	_lv_obj_disable_style_caching
 958              	.LVL111:
 959 00c0 ACE7     		b	.L35
 960              	.LVL112:
 961              	.L43:
1212:lvgl/src/lv_widgets/lv_dropdown.c ****     else if(align == LV_LABEL_ALIGN_RIGHT) label_dsc.flag |= LV_TXT_FLAG_RIGHT;
 962              		.loc 1 1212 40 is_stmt 1 discriminator 1 view .LVU291
1212:lvgl/src/lv_widgets/lv_dropdown.c ****     else if(align == LV_LABEL_ALIGN_RIGHT) label_dsc.flag |= LV_TXT_FLAG_RIGHT;
 963              		.loc 1 1212 55 is_stmt 0 discriminator 1 view .LVU292
 964 00c2 9DF83D30 		ldrb	r3, [sp, #61]	@ zero_extendqisi2
 965 00c6 43F00403 		orr	r3, r3, #4
 966 00ca 8DF83D30 		strb	r3, [sp, #61]
 967 00ce C0E7     		b	.L39
 968              	.L44:
1213:lvgl/src/lv_widgets/lv_dropdown.c **** 
 969              		.loc 1 1213 44 is_stmt 1 discriminator 1 view .LVU293
1213:lvgl/src/lv_widgets/lv_dropdown.c **** 
 970              		.loc 1 1213 59 is_stmt 0 discriminator 1 view .LVU294
 971 00d0 9DF83D30 		ldrb	r3, [sp, #61]	@ zero_extendqisi2
 972 00d4 43F00803 		orr	r3, r3, #8
 973 00d8 8DF83D30 		strb	r3, [sp, #61]
 974 00dc B9E7     		b	.L39
 975              	.LVL113:
 976              	.L45:
1229:lvgl/src/lv_widgets/lv_dropdown.c ****     }
 977              		.loc 1 1229 9 is_stmt 1 view .LVU295
1229:lvgl/src/lv_widgets/lv_dropdown.c ****     }
 978              		.loc 1 1229 23 is_stmt 0 view .LVU296
 979 00de 06F11008 		add	r8, r6, #16
 980              	.LVL114:
1229:lvgl/src/lv_widgets/lv_dropdown.c ****     }
 981              		.loc 1 1229 62 view .LVU297
 982 00e2 3046     		mov	r0, r6
 983              	.LVL115:
1229:lvgl/src/lv_widgets/lv_dropdown.c ****     }
 984              		.loc 1 1229 62 view .LVU298
 985 00e4 FFF7FEFF 		bl	lv_label_get_text
 986              	.LVL116:
1229:lvgl/src/lv_widgets/lv_dropdown.c ****     }
 987              		.loc 1 1229 9 view .LVU299
ARM GAS  D:\Temp\ccIRM2yk.s 			page 51


 988 00e8 0023     		movs	r3, #0
 989 00ea 0093     		str	r3, [sp]
 990 00ec 0346     		mov	r3, r0
 991 00ee 07AA     		add	r2, sp, #28
 992 00f0 03A9     		add	r1, sp, #12
 993 00f2 4046     		mov	r0, r8
 994 00f4 FFF7FEFF 		bl	lv_draw_label
 995              	.LVL117:
 996 00f8 D3E7     		b	.L40
 997              		.cfi_endproc
 998              	.LFE507:
 1000              		.section	.text.lv_dropdown_page_design,"ax",%progbits
 1001              		.align	1
 1002              		.syntax unified
 1003              		.thumb
 1004              		.thumb_func
 1005              		.fpu fpv4-sp-d16
 1007              	lv_dropdown_page_design:
 1008              	.LVL118:
 1009              	.LFB501:
 830:lvgl/src/lv_widgets/lv_dropdown.c ****     /*Return false if the object is not covers the mask_p area*/
 1010              		.loc 1 830 1 is_stmt 1 view -0
 1011              		.cfi_startproc
 1012              		@ args = 0, pretend = 0, frame = 8
 1013              		@ frame_needed = 0, uses_anonymous_args = 0
 830:lvgl/src/lv_widgets/lv_dropdown.c ****     /*Return false if the object is not covers the mask_p area*/
 1014              		.loc 1 830 1 is_stmt 0 view .LVU301
 1015 0000 70B5     		push	{r4, r5, r6, lr}
 1016              	.LCFI15:
 1017              		.cfi_def_cfa_offset 16
 1018              		.cfi_offset 4, -16
 1019              		.cfi_offset 5, -12
 1020              		.cfi_offset 6, -8
 1021              		.cfi_offset 14, -4
 1022 0002 82B0     		sub	sp, sp, #8
 1023              	.LCFI16:
 1024              		.cfi_def_cfa_offset 24
 1025 0004 0446     		mov	r4, r0
 1026 0006 0D46     		mov	r5, r1
 832:lvgl/src/lv_widgets/lv_dropdown.c ****         return ancestor_page_design(page, clip_area, mode);
 1027              		.loc 1 832 5 is_stmt 1 view .LVU302
 832:lvgl/src/lv_widgets/lv_dropdown.c ****         return ancestor_page_design(page, clip_area, mode);
 1028              		.loc 1 832 7 is_stmt 0 view .LVU303
 1029 0008 022A     		cmp	r2, #2
 1030 000a 21D0     		beq	.L58
 836:lvgl/src/lv_widgets/lv_dropdown.c ****         ancestor_page_design(page, clip_area, mode);
 1031              		.loc 1 836 10 is_stmt 1 view .LVU304
 836:lvgl/src/lv_widgets/lv_dropdown.c ****         ancestor_page_design(page, clip_area, mode);
 1032              		.loc 1 836 12 is_stmt 0 view .LVU305
 1033 000c 52BB     		cbnz	r2, .L49
 1034              	.LBB95:
 837:lvgl/src/lv_widgets/lv_dropdown.c **** 
 1035              		.loc 1 837 9 is_stmt 1 view .LVU306
 1036 000e 2D4B     		ldr	r3, .L62
 1037 0010 1B68     		ldr	r3, [r3]
 1038 0012 9847     		blx	r3
 1039              	.LVL119:
ARM GAS  D:\Temp\ccIRM2yk.s 			page 52


 839:lvgl/src/lv_widgets/lv_dropdown.c ****         lv_obj_t * ddlist = page_ext->ddlist;
 1040              		.loc 1 839 9 view .LVU307
 839:lvgl/src/lv_widgets/lv_dropdown.c ****         lv_obj_t * ddlist = page_ext->ddlist;
 1041              		.loc 1 839 45 is_stmt 0 view .LVU308
 1042 0014 2046     		mov	r0, r4
 1043 0016 FFF7FEFF 		bl	lv_obj_get_ext_attr
 1044              	.LVL120:
 840:lvgl/src/lv_widgets/lv_dropdown.c ****         lv_dropdown_ext_t * ext = lv_obj_get_ext_attr(ddlist);
 1045              		.loc 1 840 9 is_stmt 1 view .LVU309
 840:lvgl/src/lv_widgets/lv_dropdown.c ****         lv_dropdown_ext_t * ext = lv_obj_get_ext_attr(ddlist);
 1046              		.loc 1 840 20 is_stmt 0 view .LVU310
 1047 001a 066C     		ldr	r6, [r0, #64]
 1048              	.LVL121:
 841:lvgl/src/lv_widgets/lv_dropdown.c **** 
 1049              		.loc 1 841 9 is_stmt 1 view .LVU311
 841:lvgl/src/lv_widgets/lv_dropdown.c **** 
 1050              		.loc 1 841 35 is_stmt 0 view .LVU312
 1051 001c 3046     		mov	r0, r6
 1052              	.LVL122:
 841:lvgl/src/lv_widgets/lv_dropdown.c **** 
 1053              		.loc 1 841 35 view .LVU313
 1054 001e FFF7FEFF 		bl	lv_obj_get_ext_attr
 1055              	.LVL123:
 1056 0022 0446     		mov	r4, r0
 1057              	.LVL124:
 844:lvgl/src/lv_widgets/lv_dropdown.c ****             /* Clip area might be too large too to shadow but
 1058              		.loc 1 844 9 is_stmt 1 view .LVU314
 844:lvgl/src/lv_widgets/lv_dropdown.c ****             /* Clip area might be too large too to shadow but
 1059              		.loc 1 844 15 is_stmt 0 view .LVU315
 1060 0024 0268     		ldr	r2, [r0]
 844:lvgl/src/lv_widgets/lv_dropdown.c ****             /* Clip area might be too large too to shadow but
 1061              		.loc 1 844 11 view .LVU316
 1062 0026 002A     		cmp	r2, #0
 1063 0028 47D0     		beq	.L54
 1064              	.LBB96:
 847:lvgl/src/lv_widgets/lv_dropdown.c ****             bool has_common;
 1065              		.loc 1 847 13 is_stmt 1 view .LVU317
 848:lvgl/src/lv_widgets/lv_dropdown.c ****             has_common = _lv_area_intersect(&clip_area_core, clip_area, &ext->page->coords);
 1066              		.loc 1 848 13 view .LVU318
 849:lvgl/src/lv_widgets/lv_dropdown.c ****             if(has_common) {
 1067              		.loc 1 849 13 view .LVU319
 849:lvgl/src/lv_widgets/lv_dropdown.c ****             if(has_common) {
 1068              		.loc 1 849 26 is_stmt 0 view .LVU320
 1069 002a 1032     		adds	r2, r2, #16
 1070 002c 2946     		mov	r1, r5
 1071 002e 6846     		mov	r0, sp
 1072              	.LVL125:
 849:lvgl/src/lv_widgets/lv_dropdown.c ****             if(has_common) {
 1073              		.loc 1 849 26 view .LVU321
 1074 0030 FFF7FEFF 		bl	_lv_area_intersect
 1075              	.LVL126:
 850:lvgl/src/lv_widgets/lv_dropdown.c ****                 if(ext->pr_opt_id != LV_DROPDOWN_PR_NONE) {
 1076              		.loc 1 850 13 is_stmt 1 view .LVU322
 850:lvgl/src/lv_widgets/lv_dropdown.c ****                 if(ext->pr_opt_id != LV_DROPDOWN_PR_NONE) {
 1077              		.loc 1 850 15 is_stmt 0 view .LVU323
 1078 0034 50B1     		cbz	r0, .L50
 851:lvgl/src/lv_widgets/lv_dropdown.c ****                     draw_box(ddlist, &clip_area_core, ext->pr_opt_id, LV_STATE_PRESSED);
ARM GAS  D:\Temp\ccIRM2yk.s 			page 53


 1079              		.loc 1 851 17 is_stmt 1 view .LVU324
 851:lvgl/src/lv_widgets/lv_dropdown.c ****                     draw_box(ddlist, &clip_area_core, ext->pr_opt_id, LV_STATE_PRESSED);
 1080              		.loc 1 851 23 is_stmt 0 view .LVU325
 1081 0036 228E     		ldrh	r2, [r4, #48]
 851:lvgl/src/lv_widgets/lv_dropdown.c ****                     draw_box(ddlist, &clip_area_core, ext->pr_opt_id, LV_STATE_PRESSED);
 1082              		.loc 1 851 19 view .LVU326
 1083 0038 4FF6FF73 		movw	r3, #65535
 1084 003c 9A42     		cmp	r2, r3
 1085 003e 0BD1     		bne	.L59
 1086              	.LVL127:
 1087              	.L51:
 855:lvgl/src/lv_widgets/lv_dropdown.c ****             }
 1088              		.loc 1 855 17 is_stmt 1 view .LVU327
 1089 0040 0023     		movs	r3, #0
 1090 0042 A28D     		ldrh	r2, [r4, #44]
 1091 0044 6946     		mov	r1, sp
 1092 0046 3046     		mov	r0, r6
 1093 0048 FFF7FEFF 		bl	draw_box
 1094              	.LVL128:
 1095              	.L50:
 855:lvgl/src/lv_widgets/lv_dropdown.c ****             }
 1096              		.loc 1 855 17 is_stmt 0 view .LVU328
 1097              	.LBE96:
 1098              	.LBE95:
 886:lvgl/src/lv_widgets/lv_dropdown.c **** }
 1099              		.loc 1 886 12 view .LVU329
 1100 004c 0020     		movs	r0, #0
 1101 004e 0CE0     		b	.L48
 1102              	.LVL129:
 1103              	.L58:
 833:lvgl/src/lv_widgets/lv_dropdown.c ****     }
 1104              		.loc 1 833 9 is_stmt 1 view .LVU330
 833:lvgl/src/lv_widgets/lv_dropdown.c ****     }
 1105              		.loc 1 833 16 is_stmt 0 view .LVU331
 1106 0050 1C4B     		ldr	r3, .L62
 1107 0052 1B68     		ldr	r3, [r3]
 1108 0054 9847     		blx	r3
 1109              	.LVL130:
 833:lvgl/src/lv_widgets/lv_dropdown.c ****     }
 1110              		.loc 1 833 16 view .LVU332
 1111 0056 08E0     		b	.L48
 1112              	.LVL131:
 1113              	.L59:
 1114              	.LBB98:
 1115              	.LBB97:
 852:lvgl/src/lv_widgets/lv_dropdown.c ****                 }
 1116              		.loc 1 852 21 is_stmt 1 view .LVU333
 1117 0058 1023     		movs	r3, #16
 1118 005a 6946     		mov	r1, sp
 1119 005c 3046     		mov	r0, r6
 1120              	.LVL132:
 852:lvgl/src/lv_widgets/lv_dropdown.c ****                 }
 1121              		.loc 1 852 21 is_stmt 0 view .LVU334
 1122 005e FFF7FEFF 		bl	draw_box
 1123              	.LVL133:
 1124 0062 EDE7     		b	.L51
 1125              	.LVL134:
ARM GAS  D:\Temp\ccIRM2yk.s 			page 54


 1126              	.L49:
 852:lvgl/src/lv_widgets/lv_dropdown.c ****                 }
 1127              		.loc 1 852 21 view .LVU335
 1128              	.LBE97:
 1129              	.LBE98:
 860:lvgl/src/lv_widgets/lv_dropdown.c ****         /*Draw the scrollbar in the ancestor page design function*/
 1130              		.loc 1 860 10 is_stmt 1 view .LVU336
 860:lvgl/src/lv_widgets/lv_dropdown.c ****         /*Draw the scrollbar in the ancestor page design function*/
 1131              		.loc 1 860 12 is_stmt 0 view .LVU337
 1132 0064 012A     		cmp	r2, #1
 1133 0066 02D0     		beq	.L60
 886:lvgl/src/lv_widgets/lv_dropdown.c **** }
 1134              		.loc 1 886 12 view .LVU338
 1135 0068 0020     		movs	r0, #0
 1136              	.LVL135:
 1137              	.L48:
 887:lvgl/src/lv_widgets/lv_dropdown.c **** 
 1138              		.loc 1 887 1 view .LVU339
 1139 006a 02B0     		add	sp, sp, #8
 1140              	.LCFI17:
 1141              		.cfi_remember_state
 1142              		.cfi_def_cfa_offset 16
 1143              		@ sp needed
 1144 006c 70BD     		pop	{r4, r5, r6, pc}
 1145              	.LVL136:
 1146              	.L60:
 1147              	.LCFI18:
 1148              		.cfi_restore_state
 1149              	.LBB99:
 862:lvgl/src/lv_widgets/lv_dropdown.c **** 
 1150              		.loc 1 862 9 is_stmt 1 view .LVU340
 1151 006e 154B     		ldr	r3, .L62
 1152 0070 1B68     		ldr	r3, [r3]
 1153 0072 9847     		blx	r3
 1154              	.LVL137:
 865:lvgl/src/lv_widgets/lv_dropdown.c ****         lv_obj_t * ddlist = page_ext->ddlist;
 1155              		.loc 1 865 9 view .LVU341
 865:lvgl/src/lv_widgets/lv_dropdown.c ****         lv_obj_t * ddlist = page_ext->ddlist;
 1156              		.loc 1 865 45 is_stmt 0 view .LVU342
 1157 0074 2046     		mov	r0, r4
 1158 0076 FFF7FEFF 		bl	lv_obj_get_ext_attr
 1159              	.LVL138:
 866:lvgl/src/lv_widgets/lv_dropdown.c ****         lv_dropdown_ext_t * ext = lv_obj_get_ext_attr(ddlist);
 1160              		.loc 1 866 9 is_stmt 1 view .LVU343
 866:lvgl/src/lv_widgets/lv_dropdown.c ****         lv_dropdown_ext_t * ext = lv_obj_get_ext_attr(ddlist);
 1161              		.loc 1 866 20 is_stmt 0 view .LVU344
 1162 007a 066C     		ldr	r6, [r0, #64]
 1163              	.LVL139:
 867:lvgl/src/lv_widgets/lv_dropdown.c **** 
 1164              		.loc 1 867 9 is_stmt 1 view .LVU345
 867:lvgl/src/lv_widgets/lv_dropdown.c **** 
 1165              		.loc 1 867 35 is_stmt 0 view .LVU346
 1166 007c 3046     		mov	r0, r6
 1167              	.LVL140:
 867:lvgl/src/lv_widgets/lv_dropdown.c **** 
 1168              		.loc 1 867 35 view .LVU347
 1169 007e FFF7FEFF 		bl	lv_obj_get_ext_attr
ARM GAS  D:\Temp\ccIRM2yk.s 			page 55


 1170              	.LVL141:
 1171 0082 0446     		mov	r4, r0
 1172              	.LVL142:
 870:lvgl/src/lv_widgets/lv_dropdown.c ****             /* Clip area might be too large too to shadow but
 1173              		.loc 1 870 9 is_stmt 1 view .LVU348
 870:lvgl/src/lv_widgets/lv_dropdown.c ****             /* Clip area might be too large too to shadow but
 1174              		.loc 1 870 15 is_stmt 0 view .LVU349
 1175 0084 0268     		ldr	r2, [r0]
 870:lvgl/src/lv_widgets/lv_dropdown.c ****             /* Clip area might be too large too to shadow but
 1176              		.loc 1 870 11 view .LVU350
 1177 0086 D2B1     		cbz	r2, .L56
 1178              	.LBB100:
 873:lvgl/src/lv_widgets/lv_dropdown.c ****             bool has_common;
 1179              		.loc 1 873 13 is_stmt 1 view .LVU351
 874:lvgl/src/lv_widgets/lv_dropdown.c ****             has_common = _lv_area_intersect(&clip_area_core, clip_area, &ext->page->coords);
 1180              		.loc 1 874 13 view .LVU352
 875:lvgl/src/lv_widgets/lv_dropdown.c ****             if(has_common) {
 1181              		.loc 1 875 13 view .LVU353
 875:lvgl/src/lv_widgets/lv_dropdown.c ****             if(has_common) {
 1182              		.loc 1 875 26 is_stmt 0 view .LVU354
 1183 0088 1032     		adds	r2, r2, #16
 1184 008a 2946     		mov	r1, r5
 1185 008c 6846     		mov	r0, sp
 1186              	.LVL143:
 875:lvgl/src/lv_widgets/lv_dropdown.c ****             if(has_common) {
 1187              		.loc 1 875 26 view .LVU355
 1188 008e FFF7FEFF 		bl	_lv_area_intersect
 1189              	.LVL144:
 876:lvgl/src/lv_widgets/lv_dropdown.c ****                 if(ext->pr_opt_id != LV_DROPDOWN_PR_NONE) {
 1190              		.loc 1 876 13 is_stmt 1 view .LVU356
 876:lvgl/src/lv_widgets/lv_dropdown.c ****                 if(ext->pr_opt_id != LV_DROPDOWN_PR_NONE) {
 1191              		.loc 1 876 15 is_stmt 0 view .LVU357
 1192 0092 50B1     		cbz	r0, .L52
 877:lvgl/src/lv_widgets/lv_dropdown.c ****                     draw_box_label(ddlist, &clip_area_core, ext->pr_opt_id, LV_STATE_PRESSED);
 1193              		.loc 1 877 17 is_stmt 1 view .LVU358
 877:lvgl/src/lv_widgets/lv_dropdown.c ****                     draw_box_label(ddlist, &clip_area_core, ext->pr_opt_id, LV_STATE_PRESSED);
 1194              		.loc 1 877 23 is_stmt 0 view .LVU359
 1195 0094 228E     		ldrh	r2, [r4, #48]
 877:lvgl/src/lv_widgets/lv_dropdown.c ****                     draw_box_label(ddlist, &clip_area_core, ext->pr_opt_id, LV_STATE_PRESSED);
 1196              		.loc 1 877 19 view .LVU360
 1197 0096 4FF6FF73 		movw	r3, #65535
 1198 009a 9A42     		cmp	r2, r3
 1199 009c 07D1     		bne	.L61
 1200              	.LVL145:
 1201              	.L53:
 881:lvgl/src/lv_widgets/lv_dropdown.c ****             }
 1202              		.loc 1 881 17 is_stmt 1 view .LVU361
 1203 009e 0023     		movs	r3, #0
 1204 00a0 A28D     		ldrh	r2, [r4, #44]
 1205 00a2 6946     		mov	r1, sp
 1206 00a4 3046     		mov	r0, r6
 1207 00a6 FFF7FEFF 		bl	draw_box_label
 1208              	.LVL146:
 1209              	.L52:
 881:lvgl/src/lv_widgets/lv_dropdown.c ****             }
 1210              		.loc 1 881 17 is_stmt 0 view .LVU362
 1211              	.LBE100:
ARM GAS  D:\Temp\ccIRM2yk.s 			page 56


 1212              	.LBE99:
 886:lvgl/src/lv_widgets/lv_dropdown.c **** }
 1213              		.loc 1 886 12 view .LVU363
 1214 00aa 0020     		movs	r0, #0
 1215 00ac DDE7     		b	.L48
 1216              	.LVL147:
 1217              	.L61:
 1218              	.LBB102:
 1219              	.LBB101:
 878:lvgl/src/lv_widgets/lv_dropdown.c ****                 }
 1220              		.loc 1 878 21 is_stmt 1 view .LVU364
 1221 00ae 1023     		movs	r3, #16
 1222 00b0 6946     		mov	r1, sp
 1223 00b2 3046     		mov	r0, r6
 1224              	.LVL148:
 878:lvgl/src/lv_widgets/lv_dropdown.c ****                 }
 1225              		.loc 1 878 21 is_stmt 0 view .LVU365
 1226 00b4 FFF7FEFF 		bl	draw_box_label
 1227              	.LVL149:
 1228 00b8 F1E7     		b	.L53
 1229              	.LVL150:
 1230              	.L54:
 878:lvgl/src/lv_widgets/lv_dropdown.c ****                 }
 1231              		.loc 1 878 21 view .LVU366
 1232              	.LBE101:
 1233              	.LBE102:
 886:lvgl/src/lv_widgets/lv_dropdown.c **** }
 1234              		.loc 1 886 12 view .LVU367
 1235 00ba 0020     		movs	r0, #0
 1236              	.LVL151:
 886:lvgl/src/lv_widgets/lv_dropdown.c **** }
 1237              		.loc 1 886 12 view .LVU368
 1238 00bc D5E7     		b	.L48
 1239              	.LVL152:
 1240              	.L56:
 886:lvgl/src/lv_widgets/lv_dropdown.c **** }
 1241              		.loc 1 886 12 view .LVU369
 1242 00be 0020     		movs	r0, #0
 1243              	.LVL153:
 886:lvgl/src/lv_widgets/lv_dropdown.c **** }
 1244              		.loc 1 886 12 view .LVU370
 1245 00c0 D3E7     		b	.L48
 1246              	.L63:
 1247 00c2 00BF     		.align	2
 1248              	.L62:
 1249 00c4 00000000 		.word	.LANCHOR0
 1250              		.cfi_endproc
 1251              	.LFE501:
 1253              		.section	.text.lv_dropdown_set_text,"ax",%progbits
 1254              		.align	1
 1255              		.global	lv_dropdown_set_text
 1256              		.syntax unified
 1257              		.thumb
 1258              		.thumb_func
 1259              		.fpu fpv4-sp-d16
 1261              	lv_dropdown_set_text:
 1262              	.LVL154:
ARM GAS  D:\Temp\ccIRM2yk.s 			page 57


 1263              	.LFB479:
 167:lvgl/src/lv_widgets/lv_dropdown.c ****     LV_ASSERT_OBJ(ddlist, LV_OBJX_NAME);
 1264              		.loc 1 167 1 is_stmt 1 view -0
 1265              		.cfi_startproc
 1266              		@ args = 0, pretend = 0, frame = 0
 1267              		@ frame_needed = 0, uses_anonymous_args = 0
 167:lvgl/src/lv_widgets/lv_dropdown.c ****     LV_ASSERT_OBJ(ddlist, LV_OBJX_NAME);
 1268              		.loc 1 167 1 is_stmt 0 view .LVU372
 1269 0000 38B5     		push	{r3, r4, r5, lr}
 1270              	.LCFI19:
 1271              		.cfi_def_cfa_offset 16
 1272              		.cfi_offset 3, -16
 1273              		.cfi_offset 4, -12
 1274              		.cfi_offset 5, -8
 1275              		.cfi_offset 14, -4
 1276 0002 0446     		mov	r4, r0
 1277 0004 0D46     		mov	r5, r1
 168:lvgl/src/lv_widgets/lv_dropdown.c ****     lv_dropdown_ext_t * ext = lv_obj_get_ext_attr(ddlist);
 1278              		.loc 1 168 5 is_stmt 1 view .LVU373
 168:lvgl/src/lv_widgets/lv_dropdown.c ****     lv_dropdown_ext_t * ext = lv_obj_get_ext_attr(ddlist);
 1279              		.loc 1 168 5 view .LVU374
 1280 0006 FFF7FEFF 		bl	lv_debug_check_null
 1281              	.LVL155:
 168:lvgl/src/lv_widgets/lv_dropdown.c ****     lv_dropdown_ext_t * ext = lv_obj_get_ext_attr(ddlist);
 1282              		.loc 1 168 5 is_stmt 0 view .LVU375
 1283 000a 28B9     		cbnz	r0, .L65
 168:lvgl/src/lv_widgets/lv_dropdown.c ****     lv_dropdown_ext_t * ext = lv_obj_get_ext_attr(ddlist);
 1284              		.loc 1 168 5 is_stmt 1 discriminator 1 view .LVU376
 168:lvgl/src/lv_widgets/lv_dropdown.c ****     lv_dropdown_ext_t * ext = lv_obj_get_ext_attr(ddlist);
 1285              		.loc 1 168 5 discriminator 1 view .LVU377
 1286 000c 2246     		mov	r2, r4
 1287 000e 0023     		movs	r3, #0
 1288 0010 0748     		ldr	r0, .L69
 1289 0012 FFF7FEFF 		bl	lv_debug_log_error
 1290              	.LVL156:
 1291              	.L66:
 168:lvgl/src/lv_widgets/lv_dropdown.c ****     lv_dropdown_ext_t * ext = lv_obj_get_ext_attr(ddlist);
 1292              		.loc 1 168 5 discriminator 1 view .LVU378
 168:lvgl/src/lv_widgets/lv_dropdown.c ****     lv_dropdown_ext_t * ext = lv_obj_get_ext_attr(ddlist);
 1293              		.loc 1 168 5 discriminator 1 view .LVU379
 1294 0016 FEE7     		b	.L66
 1295              	.L65:
 168:lvgl/src/lv_widgets/lv_dropdown.c ****     lv_dropdown_ext_t * ext = lv_obj_get_ext_attr(ddlist);
 1296              		.loc 1 168 40 discriminator 2 view .LVU380
 169:lvgl/src/lv_widgets/lv_dropdown.c ****     if(ext->text == txt) return;
 1297              		.loc 1 169 5 discriminator 2 view .LVU381
 169:lvgl/src/lv_widgets/lv_dropdown.c ****     if(ext->text == txt) return;
 1298              		.loc 1 169 31 is_stmt 0 discriminator 2 view .LVU382
 1299 0018 2046     		mov	r0, r4
 1300 001a FFF7FEFF 		bl	lv_obj_get_ext_attr
 1301              	.LVL157:
 170:lvgl/src/lv_widgets/lv_dropdown.c **** 
 1302              		.loc 1 170 5 is_stmt 1 discriminator 2 view .LVU383
 170:lvgl/src/lv_widgets/lv_dropdown.c **** 
 1303              		.loc 1 170 11 is_stmt 0 discriminator 2 view .LVU384
 1304 001e 4368     		ldr	r3, [r0, #4]
 170:lvgl/src/lv_widgets/lv_dropdown.c **** 
ARM GAS  D:\Temp\ccIRM2yk.s 			page 58


 1305              		.loc 1 170 7 discriminator 2 view .LVU385
 1306 0020 AB42     		cmp	r3, r5
 1307 0022 03D0     		beq	.L64
 172:lvgl/src/lv_widgets/lv_dropdown.c **** 
 1308              		.loc 1 172 5 is_stmt 1 view .LVU386
 172:lvgl/src/lv_widgets/lv_dropdown.c **** 
 1309              		.loc 1 172 15 is_stmt 0 view .LVU387
 1310 0024 4560     		str	r5, [r0, #4]
 174:lvgl/src/lv_widgets/lv_dropdown.c **** }
 1311              		.loc 1 174 5 is_stmt 1 view .LVU388
 1312 0026 2046     		mov	r0, r4
 1313              	.LVL158:
 174:lvgl/src/lv_widgets/lv_dropdown.c **** }
 1314              		.loc 1 174 5 is_stmt 0 view .LVU389
 1315 0028 FFF7FEFF 		bl	lv_obj_invalidate
 1316              	.LVL159:
 1317              	.L64:
 175:lvgl/src/lv_widgets/lv_dropdown.c **** 
 1318              		.loc 1 175 1 view .LVU390
 1319 002c 38BD     		pop	{r3, r4, r5, pc}
 1320              	.LVL160:
 1321              	.L70:
 175:lvgl/src/lv_widgets/lv_dropdown.c **** 
 1322              		.loc 1 175 1 view .LVU391
 1323 002e 00BF     		.align	2
 1324              	.L69:
 1325 0030 00000000 		.word	.LC0
 1326              		.cfi_endproc
 1327              	.LFE479:
 1329              		.section	.text.lv_dropdown_clear_options,"ax",%progbits
 1330              		.align	1
 1331              		.global	lv_dropdown_clear_options
 1332              		.syntax unified
 1333              		.thumb
 1334              		.thumb_func
 1335              		.fpu fpv4-sp-d16
 1337              	lv_dropdown_clear_options:
 1338              	.LVL161:
 1339              	.LFB480:
 182:lvgl/src/lv_widgets/lv_dropdown.c ****     LV_ASSERT_OBJ(ddlist, LV_OBJX_NAME);
 1340              		.loc 1 182 1 is_stmt 1 view -0
 1341              		.cfi_startproc
 1342              		@ args = 0, pretend = 0, frame = 0
 1343              		@ frame_needed = 0, uses_anonymous_args = 0
 182:lvgl/src/lv_widgets/lv_dropdown.c ****     LV_ASSERT_OBJ(ddlist, LV_OBJX_NAME);
 1344              		.loc 1 182 1 is_stmt 0 view .LVU393
 1345 0000 38B5     		push	{r3, r4, r5, lr}
 1346              	.LCFI20:
 1347              		.cfi_def_cfa_offset 16
 1348              		.cfi_offset 3, -16
 1349              		.cfi_offset 4, -12
 1350              		.cfi_offset 5, -8
 1351              		.cfi_offset 14, -4
 1352 0002 0546     		mov	r5, r0
 183:lvgl/src/lv_widgets/lv_dropdown.c ****     lv_dropdown_ext_t * ext = lv_obj_get_ext_attr(ddlist);
 1353              		.loc 1 183 5 is_stmt 1 view .LVU394
 183:lvgl/src/lv_widgets/lv_dropdown.c ****     lv_dropdown_ext_t * ext = lv_obj_get_ext_attr(ddlist);
ARM GAS  D:\Temp\ccIRM2yk.s 			page 59


 1354              		.loc 1 183 5 view .LVU395
 1355 0004 FFF7FEFF 		bl	lv_debug_check_null
 1356              	.LVL162:
 183:lvgl/src/lv_widgets/lv_dropdown.c ****     lv_dropdown_ext_t * ext = lv_obj_get_ext_attr(ddlist);
 1357              		.loc 1 183 5 is_stmt 0 view .LVU396
 1358 0008 28B9     		cbnz	r0, .L72
 183:lvgl/src/lv_widgets/lv_dropdown.c ****     lv_dropdown_ext_t * ext = lv_obj_get_ext_attr(ddlist);
 1359              		.loc 1 183 5 is_stmt 1 discriminator 1 view .LVU397
 183:lvgl/src/lv_widgets/lv_dropdown.c ****     lv_dropdown_ext_t * ext = lv_obj_get_ext_attr(ddlist);
 1360              		.loc 1 183 5 discriminator 1 view .LVU398
 1361 000a 2A46     		mov	r2, r5
 1362 000c 0023     		movs	r3, #0
 1363 000e 0F48     		ldr	r0, .L78
 1364 0010 FFF7FEFF 		bl	lv_debug_log_error
 1365              	.LVL163:
 1366              	.L73:
 183:lvgl/src/lv_widgets/lv_dropdown.c ****     lv_dropdown_ext_t * ext = lv_obj_get_ext_attr(ddlist);
 1367              		.loc 1 183 5 discriminator 1 view .LVU399
 183:lvgl/src/lv_widgets/lv_dropdown.c ****     lv_dropdown_ext_t * ext = lv_obj_get_ext_attr(ddlist);
 1368              		.loc 1 183 5 discriminator 1 view .LVU400
 1369 0014 FEE7     		b	.L73
 1370              	.L72:
 183:lvgl/src/lv_widgets/lv_dropdown.c ****     lv_dropdown_ext_t * ext = lv_obj_get_ext_attr(ddlist);
 1371              		.loc 1 183 40 discriminator 2 view .LVU401
 184:lvgl/src/lv_widgets/lv_dropdown.c ****     if(ext->options == NULL) return;
 1372              		.loc 1 184 5 discriminator 2 view .LVU402
 184:lvgl/src/lv_widgets/lv_dropdown.c ****     if(ext->options == NULL) return;
 1373              		.loc 1 184 31 is_stmt 0 discriminator 2 view .LVU403
 1374 0016 2846     		mov	r0, r5
 1375 0018 FFF7FEFF 		bl	lv_obj_get_ext_attr
 1376              	.LVL164:
 1377 001c 0446     		mov	r4, r0
 1378              	.LVL165:
 185:lvgl/src/lv_widgets/lv_dropdown.c **** 
 1379              		.loc 1 185 5 is_stmt 1 discriminator 2 view .LVU404
 185:lvgl/src/lv_widgets/lv_dropdown.c **** 
 1380              		.loc 1 185 11 is_stmt 0 discriminator 2 view .LVU405
 1381 001e C068     		ldr	r0, [r0, #12]
 1382              	.LVL166:
 185:lvgl/src/lv_widgets/lv_dropdown.c **** 
 1383              		.loc 1 185 7 discriminator 2 view .LVU406
 1384 0020 80B1     		cbz	r0, .L71
 187:lvgl/src/lv_widgets/lv_dropdown.c ****         lv_mem_free(ext->options);
 1385              		.loc 1 187 5 is_stmt 1 view .LVU407
 187:lvgl/src/lv_widgets/lv_dropdown.c ****         lv_mem_free(ext->options);
 1386              		.loc 1 187 24 is_stmt 0 view .LVU408
 1387 0022 94F83230 		ldrb	r3, [r4, #50]	@ zero_extendqisi2
 187:lvgl/src/lv_widgets/lv_dropdown.c ****         lv_mem_free(ext->options);
 1388              		.loc 1 187 7 view .LVU409
 1389 0026 13F0080F 		tst	r3, #8
 1390 002a 0CD0     		beq	.L77
 1391              	.L75:
 190:lvgl/src/lv_widgets/lv_dropdown.c ****     ext->static_txt = 0;
 1392              		.loc 1 190 5 is_stmt 1 view .LVU410
 190:lvgl/src/lv_widgets/lv_dropdown.c ****     ext->static_txt = 0;
 1393              		.loc 1 190 18 is_stmt 0 view .LVU411
 1394 002c 0023     		movs	r3, #0
ARM GAS  D:\Temp\ccIRM2yk.s 			page 60


 1395 002e E360     		str	r3, [r4, #12]
 191:lvgl/src/lv_widgets/lv_dropdown.c ****     ext->option_cnt = 0;
 1396              		.loc 1 191 5 is_stmt 1 view .LVU412
 191:lvgl/src/lv_widgets/lv_dropdown.c ****     ext->option_cnt = 0;
 1397              		.loc 1 191 21 is_stmt 0 view .LVU413
 1398 0030 94F83220 		ldrb	r2, [r4, #50]	@ zero_extendqisi2
 1399 0034 63F3C302 		bfi	r2, r3, #3, #1
 1400 0038 84F83220 		strb	r2, [r4, #50]
 192:lvgl/src/lv_widgets/lv_dropdown.c **** 
 1401              		.loc 1 192 5 is_stmt 1 view .LVU414
 192:lvgl/src/lv_widgets/lv_dropdown.c **** 
 1402              		.loc 1 192 21 is_stmt 0 view .LVU415
 1403 003c 6385     		strh	r3, [r4, #42]	@ movhi
 194:lvgl/src/lv_widgets/lv_dropdown.c **** }
 1404              		.loc 1 194 5 is_stmt 1 view .LVU416
 1405 003e 2846     		mov	r0, r5
 1406 0040 FFF7FEFF 		bl	lv_obj_invalidate
 1407              	.LVL167:
 1408              	.L71:
 195:lvgl/src/lv_widgets/lv_dropdown.c **** 
 1409              		.loc 1 195 1 is_stmt 0 view .LVU417
 1410 0044 38BD     		pop	{r3, r4, r5, pc}
 1411              	.LVL168:
 1412              	.L77:
 188:lvgl/src/lv_widgets/lv_dropdown.c **** 
 1413              		.loc 1 188 9 is_stmt 1 view .LVU418
 1414 0046 FFF7FEFF 		bl	lv_mem_free
 1415              	.LVL169:
 1416 004a EFE7     		b	.L75
 1417              	.L79:
 1418              		.align	2
 1419              	.L78:
 1420 004c 00000000 		.word	.LC0
 1421              		.cfi_endproc
 1422              	.LFE480:
 1424              		.section	.text.lv_dropdown_set_options,"ax",%progbits
 1425              		.align	1
 1426              		.global	lv_dropdown_set_options
 1427              		.syntax unified
 1428              		.thumb
 1429              		.thumb_func
 1430              		.fpu fpv4-sp-d16
 1432              	lv_dropdown_set_options:
 1433              	.LVL170:
 1434              	.LFB481:
 204:lvgl/src/lv_widgets/lv_dropdown.c ****     LV_ASSERT_OBJ(ddlist, LV_OBJX_NAME);
 1435              		.loc 1 204 1 view -0
 1436              		.cfi_startproc
 1437              		@ args = 0, pretend = 0, frame = 0
 1438              		@ frame_needed = 0, uses_anonymous_args = 0
 204:lvgl/src/lv_widgets/lv_dropdown.c ****     LV_ASSERT_OBJ(ddlist, LV_OBJX_NAME);
 1439              		.loc 1 204 1 is_stmt 0 view .LVU420
 1440 0000 70B5     		push	{r4, r5, r6, lr}
 1441              	.LCFI21:
 1442              		.cfi_def_cfa_offset 16
 1443              		.cfi_offset 4, -16
 1444              		.cfi_offset 5, -12
ARM GAS  D:\Temp\ccIRM2yk.s 			page 61


 1445              		.cfi_offset 6, -8
 1446              		.cfi_offset 14, -4
 1447 0002 0446     		mov	r4, r0
 1448 0004 0D46     		mov	r5, r1
 205:lvgl/src/lv_widgets/lv_dropdown.c ****     LV_ASSERT_STR(options);
 1449              		.loc 1 205 5 is_stmt 1 view .LVU421
 205:lvgl/src/lv_widgets/lv_dropdown.c ****     LV_ASSERT_STR(options);
 1450              		.loc 1 205 5 view .LVU422
 1451 0006 FFF7FEFF 		bl	lv_debug_check_null
 1452              	.LVL171:
 205:lvgl/src/lv_widgets/lv_dropdown.c ****     LV_ASSERT_STR(options);
 1453              		.loc 1 205 5 is_stmt 0 view .LVU423
 1454 000a 28B9     		cbnz	r0, .L81
 205:lvgl/src/lv_widgets/lv_dropdown.c ****     LV_ASSERT_STR(options);
 1455              		.loc 1 205 5 is_stmt 1 discriminator 1 view .LVU424
 205:lvgl/src/lv_widgets/lv_dropdown.c ****     LV_ASSERT_STR(options);
 1456              		.loc 1 205 5 discriminator 1 view .LVU425
 1457 000c 2246     		mov	r2, r4
 1458 000e 0023     		movs	r3, #0
 1459 0010 2648     		ldr	r0, .L96
 1460 0012 FFF7FEFF 		bl	lv_debug_log_error
 1461              	.LVL172:
 1462              	.L82:
 205:lvgl/src/lv_widgets/lv_dropdown.c ****     LV_ASSERT_STR(options);
 1463              		.loc 1 205 5 discriminator 1 view .LVU426
 205:lvgl/src/lv_widgets/lv_dropdown.c ****     LV_ASSERT_STR(options);
 1464              		.loc 1 205 5 discriminator 1 view .LVU427
 1465 0016 FEE7     		b	.L82
 1466              	.L81:
 205:lvgl/src/lv_widgets/lv_dropdown.c ****     LV_ASSERT_STR(options);
 1467              		.loc 1 205 40 discriminator 2 view .LVU428
 206:lvgl/src/lv_widgets/lv_dropdown.c **** 
 1468              		.loc 1 206 5 discriminator 2 view .LVU429
 206:lvgl/src/lv_widgets/lv_dropdown.c **** 
 1469              		.loc 1 206 5 discriminator 2 view .LVU430
 1470 0018 2846     		mov	r0, r5
 1471 001a FFF7FEFF 		bl	lv_debug_check_null
 1472              	.LVL173:
 1473 001e 28B9     		cbnz	r0, .L83
 206:lvgl/src/lv_widgets/lv_dropdown.c **** 
 1474              		.loc 1 206 5 discriminator 1 view .LVU431
 206:lvgl/src/lv_widgets/lv_dropdown.c **** 
 1475              		.loc 1 206 5 discriminator 1 view .LVU432
 1476 0020 2A46     		mov	r2, r5
 1477 0022 0023     		movs	r3, #0
 1478 0024 2148     		ldr	r0, .L96
 1479 0026 FFF7FEFF 		bl	lv_debug_log_error
 1480              	.LVL174:
 1481              	.L84:
 206:lvgl/src/lv_widgets/lv_dropdown.c **** 
 1482              		.loc 1 206 5 discriminator 2 view .LVU433
 206:lvgl/src/lv_widgets/lv_dropdown.c **** 
 1483              		.loc 1 206 5 discriminator 2 view .LVU434
 1484 002a FEE7     		b	.L84
 1485              	.L83:
 206:lvgl/src/lv_widgets/lv_dropdown.c **** 
 1486              		.loc 1 206 27 discriminator 2 view .LVU435
ARM GAS  D:\Temp\ccIRM2yk.s 			page 62


 208:lvgl/src/lv_widgets/lv_dropdown.c **** 
 1487              		.loc 1 208 5 discriminator 2 view .LVU436
 208:lvgl/src/lv_widgets/lv_dropdown.c **** 
 1488              		.loc 1 208 31 is_stmt 0 discriminator 2 view .LVU437
 1489 002c 2046     		mov	r0, r4
 1490 002e FFF7FEFF 		bl	lv_obj_get_ext_attr
 1491              	.LVL175:
 1492 0032 0446     		mov	r4, r0
 1493              	.LVL176:
 211:lvgl/src/lv_widgets/lv_dropdown.c ****     uint32_t i;
 1494              		.loc 1 211 5 is_stmt 1 discriminator 2 view .LVU438
 211:lvgl/src/lv_widgets/lv_dropdown.c ****     uint32_t i;
 1495              		.loc 1 211 21 is_stmt 0 discriminator 2 view .LVU439
 1496 0034 0023     		movs	r3, #0
 1497 0036 4385     		strh	r3, [r0, #42]	@ movhi
 212:lvgl/src/lv_widgets/lv_dropdown.c ****     for(i = 0; options[i] != '\0'; i++) {
 1498              		.loc 1 212 5 is_stmt 1 discriminator 2 view .LVU440
 213:lvgl/src/lv_widgets/lv_dropdown.c ****         if(options[i] == '\n') ext->option_cnt++;
 1499              		.loc 1 213 5 discriminator 2 view .LVU441
 1500              	.LVL177:
 213:lvgl/src/lv_widgets/lv_dropdown.c ****         if(options[i] == '\n') ext->option_cnt++;
 1501              		.loc 1 213 5 is_stmt 0 discriminator 2 view .LVU442
 1502 0038 00E0     		b	.L85
 1503              	.LVL178:
 1504              	.L86:
 213:lvgl/src/lv_widgets/lv_dropdown.c ****         if(options[i] == '\n') ext->option_cnt++;
 1505              		.loc 1 213 37 discriminator 2 view .LVU443
 1506 003a 0133     		adds	r3, r3, #1
 1507              	.LVL179:
 1508              	.L85:
 213:lvgl/src/lv_widgets/lv_dropdown.c ****         if(options[i] == '\n') ext->option_cnt++;
 1509              		.loc 1 213 23 discriminator 1 view .LVU444
 1510 003c EA5C     		ldrb	r2, [r5, r3]	@ zero_extendqisi2
 213:lvgl/src/lv_widgets/lv_dropdown.c ****         if(options[i] == '\n') ext->option_cnt++;
 1511              		.loc 1 213 5 discriminator 1 view .LVU445
 1512 003e 2AB1     		cbz	r2, .L93
 214:lvgl/src/lv_widgets/lv_dropdown.c ****     }
 1513              		.loc 1 214 9 is_stmt 1 view .LVU446
 214:lvgl/src/lv_widgets/lv_dropdown.c ****     }
 1514              		.loc 1 214 11 is_stmt 0 view .LVU447
 1515 0040 0A2A     		cmp	r2, #10
 1516 0042 FAD1     		bne	.L86
 214:lvgl/src/lv_widgets/lv_dropdown.c ****     }
 1517              		.loc 1 214 32 is_stmt 1 discriminator 1 view .LVU448
 214:lvgl/src/lv_widgets/lv_dropdown.c ****     }
 1518              		.loc 1 214 35 is_stmt 0 discriminator 1 view .LVU449
 1519 0044 628D     		ldrh	r2, [r4, #42]
 214:lvgl/src/lv_widgets/lv_dropdown.c ****     }
 1520              		.loc 1 214 47 discriminator 1 view .LVU450
 1521 0046 0132     		adds	r2, r2, #1
 1522 0048 6285     		strh	r2, [r4, #42]	@ movhi
 1523 004a F6E7     		b	.L86
 1524              	.L93:
 216:lvgl/src/lv_widgets/lv_dropdown.c ****     ext->sel_opt_id      = 0;
 1525              		.loc 1 216 5 is_stmt 1 view .LVU451
 216:lvgl/src/lv_widgets/lv_dropdown.c ****     ext->sel_opt_id      = 0;
 1526              		.loc 1 216 8 is_stmt 0 view .LVU452
ARM GAS  D:\Temp\ccIRM2yk.s 			page 63


 1527 004c 638D     		ldrh	r3, [r4, #42]
 1528              	.LVL180:
 216:lvgl/src/lv_widgets/lv_dropdown.c ****     ext->sel_opt_id      = 0;
 1529              		.loc 1 216 20 view .LVU453
 1530 004e 0133     		adds	r3, r3, #1
 1531 0050 6385     		strh	r3, [r4, #42]	@ movhi
 217:lvgl/src/lv_widgets/lv_dropdown.c ****     ext->sel_opt_id_orig = 0;
 1532              		.loc 1 217 5 is_stmt 1 view .LVU454
 217:lvgl/src/lv_widgets/lv_dropdown.c ****     ext->sel_opt_id_orig = 0;
 1533              		.loc 1 217 26 is_stmt 0 view .LVU455
 1534 0052 0023     		movs	r3, #0
 1535 0054 A385     		strh	r3, [r4, #44]	@ movhi
 218:lvgl/src/lv_widgets/lv_dropdown.c **** 
 1536              		.loc 1 218 5 is_stmt 1 view .LVU456
 218:lvgl/src/lv_widgets/lv_dropdown.c **** 
 1537              		.loc 1 218 26 is_stmt 0 view .LVU457
 1538 0056 E385     		strh	r3, [r4, #46]	@ movhi
 222:lvgl/src/lv_widgets/lv_dropdown.c **** #else
 1539              		.loc 1 222 5 is_stmt 1 view .LVU458
 222:lvgl/src/lv_widgets/lv_dropdown.c **** #else
 1540              		.loc 1 222 18 is_stmt 0 view .LVU459
 1541 0058 2846     		mov	r0, r5
 1542              	.LVL181:
 222:lvgl/src/lv_widgets/lv_dropdown.c **** #else
 1543              		.loc 1 222 18 view .LVU460
 1544 005a FFF7FEFF 		bl	strlen
 1545              	.LVL182:
 222:lvgl/src/lv_widgets/lv_dropdown.c **** #else
 1546              		.loc 1 222 12 view .LVU461
 1547 005e 461C     		adds	r6, r0, #1
 1548              	.LVL183:
 227:lvgl/src/lv_widgets/lv_dropdown.c ****         lv_mem_free(ext->options);
 1549              		.loc 1 227 5 is_stmt 1 view .LVU462
 227:lvgl/src/lv_widgets/lv_dropdown.c ****         lv_mem_free(ext->options);
 1550              		.loc 1 227 11 is_stmt 0 view .LVU463
 1551 0060 E068     		ldr	r0, [r4, #12]
 227:lvgl/src/lv_widgets/lv_dropdown.c ****         lv_mem_free(ext->options);
 1552              		.loc 1 227 7 view .LVU464
 1553 0062 20B1     		cbz	r0, .L88
 227:lvgl/src/lv_widgets/lv_dropdown.c ****         lv_mem_free(ext->options);
 1554              		.loc 1 227 48 discriminator 1 view .LVU465
 1555 0064 94F83230 		ldrb	r3, [r4, #50]	@ zero_extendqisi2
 227:lvgl/src/lv_widgets/lv_dropdown.c ****         lv_mem_free(ext->options);
 1556              		.loc 1 227 29 discriminator 1 view .LVU466
 1557 0068 13F0080F 		tst	r3, #8
 1558 006c 12D0     		beq	.L94
 1559              	.L88:
 232:lvgl/src/lv_widgets/lv_dropdown.c **** 
 1560              		.loc 1 232 5 is_stmt 1 view .LVU467
 232:lvgl/src/lv_widgets/lv_dropdown.c **** 
 1561              		.loc 1 232 20 is_stmt 0 view .LVU468
 1562 006e 3046     		mov	r0, r6
 1563 0070 FFF7FEFF 		bl	lv_mem_alloc
 1564              	.LVL184:
 232:lvgl/src/lv_widgets/lv_dropdown.c **** 
 1565              		.loc 1 232 18 view .LVU469
 1566 0074 E060     		str	r0, [r4, #12]
ARM GAS  D:\Temp\ccIRM2yk.s 			page 64


 234:lvgl/src/lv_widgets/lv_dropdown.c ****     if(ext->options == NULL) return;
 1567              		.loc 1 234 5 is_stmt 1 view .LVU470
 234:lvgl/src/lv_widgets/lv_dropdown.c ****     if(ext->options == NULL) return;
 1568              		.loc 1 234 5 view .LVU471
 1569 0076 FFF7FEFF 		bl	lv_debug_check_null
 1570              	.LVL185:
 1571 007a 80B1     		cbz	r0, .L95
 234:lvgl/src/lv_widgets/lv_dropdown.c ****     if(ext->options == NULL) return;
 1572              		.loc 1 234 32 discriminator 2 view .LVU472
 235:lvgl/src/lv_widgets/lv_dropdown.c **** 
 1573              		.loc 1 235 5 discriminator 2 view .LVU473
 235:lvgl/src/lv_widgets/lv_dropdown.c **** 
 1574              		.loc 1 235 11 is_stmt 0 discriminator 2 view .LVU474
 1575 007c E068     		ldr	r0, [r4, #12]
 235:lvgl/src/lv_widgets/lv_dropdown.c **** 
 1576              		.loc 1 235 7 discriminator 2 view .LVU475
 1577 007e 40B1     		cbz	r0, .L80
 238:lvgl/src/lv_widgets/lv_dropdown.c **** #else
 1578              		.loc 1 238 5 is_stmt 1 view .LVU476
 1579 0080 2946     		mov	r1, r5
 1580 0082 FFF7FEFF 		bl	strcpy
 1581              	.LVL186:
 244:lvgl/src/lv_widgets/lv_dropdown.c **** }
 1582              		.loc 1 244 5 view .LVU477
 244:lvgl/src/lv_widgets/lv_dropdown.c **** }
 1583              		.loc 1 244 21 is_stmt 0 view .LVU478
 1584 0086 94F83230 		ldrb	r3, [r4, #50]	@ zero_extendqisi2
 1585 008a 6FF3C303 		bfc	r3, #3, #1
 1586 008e 84F83230 		strb	r3, [r4, #50]
 1587              	.L80:
 245:lvgl/src/lv_widgets/lv_dropdown.c **** 
 1588              		.loc 1 245 1 view .LVU479
 1589 0092 70BD     		pop	{r4, r5, r6, pc}
 1590              	.LVL187:
 1591              	.L94:
 228:lvgl/src/lv_widgets/lv_dropdown.c ****         ext->options = NULL;
 1592              		.loc 1 228 9 is_stmt 1 view .LVU480
 1593 0094 FFF7FEFF 		bl	lv_mem_free
 1594              	.LVL188:
 229:lvgl/src/lv_widgets/lv_dropdown.c ****     }
 1595              		.loc 1 229 9 view .LVU481
 229:lvgl/src/lv_widgets/lv_dropdown.c ****     }
 1596              		.loc 1 229 22 is_stmt 0 view .LVU482
 1597 0098 0023     		movs	r3, #0
 1598 009a E360     		str	r3, [r4, #12]
 1599 009c E7E7     		b	.L88
 1600              	.L95:
 234:lvgl/src/lv_widgets/lv_dropdown.c ****     if(ext->options == NULL) return;
 1601              		.loc 1 234 5 is_stmt 1 discriminator 1 view .LVU483
 234:lvgl/src/lv_widgets/lv_dropdown.c ****     if(ext->options == NULL) return;
 1602              		.loc 1 234 5 discriminator 1 view .LVU484
 1603 009e E268     		ldr	r2, [r4, #12]
 1604 00a0 0023     		movs	r3, #0
 1605 00a2 0348     		ldr	r0, .L96+4
 1606 00a4 FFF7FEFF 		bl	lv_debug_log_error
 1607              	.LVL189:
 1608              	.L90:
ARM GAS  D:\Temp\ccIRM2yk.s 			page 65


 234:lvgl/src/lv_widgets/lv_dropdown.c ****     if(ext->options == NULL) return;
 1609              		.loc 1 234 5 discriminator 3 view .LVU485
 234:lvgl/src/lv_widgets/lv_dropdown.c ****     if(ext->options == NULL) return;
 1610              		.loc 1 234 5 discriminator 3 view .LVU486
 1611 00a8 FEE7     		b	.L90
 1612              	.L97:
 1613 00aa 00BF     		.align	2
 1614              	.L96:
 1615 00ac 00000000 		.word	.LC0
 1616 00b0 00000000 		.word	.LC1
 1617              		.cfi_endproc
 1618              	.LFE481:
 1620              		.section	.text.lv_dropdown_set_options_static,"ax",%progbits
 1621              		.align	1
 1622              		.global	lv_dropdown_set_options_static
 1623              		.syntax unified
 1624              		.thumb
 1625              		.thumb_func
 1626              		.fpu fpv4-sp-d16
 1628              	lv_dropdown_set_options_static:
 1629              	.LVL190:
 1630              	.LFB482:
 253:lvgl/src/lv_widgets/lv_dropdown.c ****     LV_ASSERT_OBJ(ddlist, LV_OBJX_NAME);
 1631              		.loc 1 253 1 view -0
 1632              		.cfi_startproc
 1633              		@ args = 0, pretend = 0, frame = 0
 1634              		@ frame_needed = 0, uses_anonymous_args = 0
 253:lvgl/src/lv_widgets/lv_dropdown.c ****     LV_ASSERT_OBJ(ddlist, LV_OBJX_NAME);
 1635              		.loc 1 253 1 is_stmt 0 view .LVU488
 1636 0000 38B5     		push	{r3, r4, r5, lr}
 1637              	.LCFI22:
 1638              		.cfi_def_cfa_offset 16
 1639              		.cfi_offset 3, -16
 1640              		.cfi_offset 4, -12
 1641              		.cfi_offset 5, -8
 1642              		.cfi_offset 14, -4
 1643 0002 0446     		mov	r4, r0
 1644 0004 0D46     		mov	r5, r1
 254:lvgl/src/lv_widgets/lv_dropdown.c ****     LV_ASSERT_STR(options);
 1645              		.loc 1 254 5 is_stmt 1 view .LVU489
 254:lvgl/src/lv_widgets/lv_dropdown.c ****     LV_ASSERT_STR(options);
 1646              		.loc 1 254 5 view .LVU490
 1647 0006 FFF7FEFF 		bl	lv_debug_check_null
 1648              	.LVL191:
 254:lvgl/src/lv_widgets/lv_dropdown.c ****     LV_ASSERT_STR(options);
 1649              		.loc 1 254 5 is_stmt 0 view .LVU491
 1650 000a 28B9     		cbnz	r0, .L99
 254:lvgl/src/lv_widgets/lv_dropdown.c ****     LV_ASSERT_STR(options);
 1651              		.loc 1 254 5 is_stmt 1 discriminator 1 view .LVU492
 254:lvgl/src/lv_widgets/lv_dropdown.c ****     LV_ASSERT_STR(options);
 1652              		.loc 1 254 5 discriminator 1 view .LVU493
 1653 000c 2246     		mov	r2, r4
 1654 000e 0023     		movs	r3, #0
 1655 0010 1A48     		ldr	r0, .L109
 1656 0012 FFF7FEFF 		bl	lv_debug_log_error
 1657              	.LVL192:
 1658              	.L100:
ARM GAS  D:\Temp\ccIRM2yk.s 			page 66


 254:lvgl/src/lv_widgets/lv_dropdown.c ****     LV_ASSERT_STR(options);
 1659              		.loc 1 254 5 discriminator 1 view .LVU494
 254:lvgl/src/lv_widgets/lv_dropdown.c ****     LV_ASSERT_STR(options);
 1660              		.loc 1 254 5 discriminator 1 view .LVU495
 1661 0016 FEE7     		b	.L100
 1662              	.L99:
 254:lvgl/src/lv_widgets/lv_dropdown.c ****     LV_ASSERT_STR(options);
 1663              		.loc 1 254 40 discriminator 2 view .LVU496
 255:lvgl/src/lv_widgets/lv_dropdown.c **** 
 1664              		.loc 1 255 5 discriminator 2 view .LVU497
 255:lvgl/src/lv_widgets/lv_dropdown.c **** 
 1665              		.loc 1 255 5 discriminator 2 view .LVU498
 1666 0018 2846     		mov	r0, r5
 1667 001a FFF7FEFF 		bl	lv_debug_check_null
 1668              	.LVL193:
 1669 001e 28B9     		cbnz	r0, .L101
 255:lvgl/src/lv_widgets/lv_dropdown.c **** 
 1670              		.loc 1 255 5 discriminator 1 view .LVU499
 255:lvgl/src/lv_widgets/lv_dropdown.c **** 
 1671              		.loc 1 255 5 discriminator 1 view .LVU500
 1672 0020 2A46     		mov	r2, r5
 1673 0022 0023     		movs	r3, #0
 1674 0024 1548     		ldr	r0, .L109
 1675 0026 FFF7FEFF 		bl	lv_debug_log_error
 1676              	.LVL194:
 1677              	.L102:
 255:lvgl/src/lv_widgets/lv_dropdown.c **** 
 1678              		.loc 1 255 5 discriminator 2 view .LVU501
 255:lvgl/src/lv_widgets/lv_dropdown.c **** 
 1679              		.loc 1 255 5 discriminator 2 view .LVU502
 1680 002a FEE7     		b	.L102
 1681              	.L101:
 255:lvgl/src/lv_widgets/lv_dropdown.c **** 
 1682              		.loc 1 255 27 discriminator 2 view .LVU503
 257:lvgl/src/lv_widgets/lv_dropdown.c **** 
 1683              		.loc 1 257 5 discriminator 2 view .LVU504
 257:lvgl/src/lv_widgets/lv_dropdown.c **** 
 1684              		.loc 1 257 31 is_stmt 0 discriminator 2 view .LVU505
 1685 002c 2046     		mov	r0, r4
 1686 002e FFF7FEFF 		bl	lv_obj_get_ext_attr
 1687              	.LVL195:
 1688 0032 0446     		mov	r4, r0
 1689              	.LVL196:
 260:lvgl/src/lv_widgets/lv_dropdown.c ****     uint32_t i;
 1690              		.loc 1 260 5 is_stmt 1 discriminator 2 view .LVU506
 260:lvgl/src/lv_widgets/lv_dropdown.c ****     uint32_t i;
 1691              		.loc 1 260 21 is_stmt 0 discriminator 2 view .LVU507
 1692 0034 0023     		movs	r3, #0
 1693 0036 4385     		strh	r3, [r0, #42]	@ movhi
 261:lvgl/src/lv_widgets/lv_dropdown.c ****     for(i = 0; options[i] != '\0'; i++) {
 1694              		.loc 1 261 5 is_stmt 1 discriminator 2 view .LVU508
 262:lvgl/src/lv_widgets/lv_dropdown.c ****         if(options[i] == '\n') ext->option_cnt++;
 1695              		.loc 1 262 5 discriminator 2 view .LVU509
 1696              	.LVL197:
 262:lvgl/src/lv_widgets/lv_dropdown.c ****         if(options[i] == '\n') ext->option_cnt++;
 1697              		.loc 1 262 5 is_stmt 0 discriminator 2 view .LVU510
 1698 0038 00E0     		b	.L103
ARM GAS  D:\Temp\ccIRM2yk.s 			page 67


 1699              	.LVL198:
 1700              	.L104:
 262:lvgl/src/lv_widgets/lv_dropdown.c ****         if(options[i] == '\n') ext->option_cnt++;
 1701              		.loc 1 262 37 discriminator 2 view .LVU511
 1702 003a 0133     		adds	r3, r3, #1
 1703              	.LVL199:
 1704              	.L103:
 262:lvgl/src/lv_widgets/lv_dropdown.c ****         if(options[i] == '\n') ext->option_cnt++;
 1705              		.loc 1 262 23 discriminator 1 view .LVU512
 1706 003c EA5C     		ldrb	r2, [r5, r3]	@ zero_extendqisi2
 262:lvgl/src/lv_widgets/lv_dropdown.c ****         if(options[i] == '\n') ext->option_cnt++;
 1707              		.loc 1 262 5 discriminator 1 view .LVU513
 1708 003e 2AB1     		cbz	r2, .L108
 263:lvgl/src/lv_widgets/lv_dropdown.c ****     }
 1709              		.loc 1 263 9 is_stmt 1 view .LVU514
 263:lvgl/src/lv_widgets/lv_dropdown.c ****     }
 1710              		.loc 1 263 11 is_stmt 0 view .LVU515
 1711 0040 0A2A     		cmp	r2, #10
 1712 0042 FAD1     		bne	.L104
 263:lvgl/src/lv_widgets/lv_dropdown.c ****     }
 1713              		.loc 1 263 32 is_stmt 1 discriminator 1 view .LVU516
 263:lvgl/src/lv_widgets/lv_dropdown.c ****     }
 1714              		.loc 1 263 35 is_stmt 0 discriminator 1 view .LVU517
 1715 0044 628D     		ldrh	r2, [r4, #42]
 263:lvgl/src/lv_widgets/lv_dropdown.c ****     }
 1716              		.loc 1 263 47 discriminator 1 view .LVU518
 1717 0046 0132     		adds	r2, r2, #1
 1718 0048 6285     		strh	r2, [r4, #42]	@ movhi
 1719 004a F6E7     		b	.L104
 1720              	.L108:
 265:lvgl/src/lv_widgets/lv_dropdown.c ****     ext->sel_opt_id      = 0;
 1721              		.loc 1 265 5 is_stmt 1 view .LVU519
 265:lvgl/src/lv_widgets/lv_dropdown.c ****     ext->sel_opt_id      = 0;
 1722              		.loc 1 265 8 is_stmt 0 view .LVU520
 1723 004c 638D     		ldrh	r3, [r4, #42]
 1724              	.LVL200:
 265:lvgl/src/lv_widgets/lv_dropdown.c ****     ext->sel_opt_id      = 0;
 1725              		.loc 1 265 20 view .LVU521
 1726 004e 0133     		adds	r3, r3, #1
 1727 0050 6385     		strh	r3, [r4, #42]	@ movhi
 266:lvgl/src/lv_widgets/lv_dropdown.c ****     ext->sel_opt_id_orig = 0;
 1728              		.loc 1 266 5 is_stmt 1 view .LVU522
 266:lvgl/src/lv_widgets/lv_dropdown.c ****     ext->sel_opt_id_orig = 0;
 1729              		.loc 1 266 26 is_stmt 0 view .LVU523
 1730 0052 0023     		movs	r3, #0
 1731 0054 A385     		strh	r3, [r4, #44]	@ movhi
