ARM GAS  D:\Temp\cc42SHz2.s 			page 1


   1              		.cpu cortex-m4
   2              		.eabi_attribute 27, 1
   3              		.eabi_attribute 28, 1
   4              		.eabi_attribute 20, 1
   5              		.eabi_attribute 21, 1
   6              		.eabi_attribute 23, 3
   7              		.eabi_attribute 24, 1
   8              		.eabi_attribute 25, 1
   9              		.eabi_attribute 26, 1
  10              		.eabi_attribute 30, 1
  11              		.eabi_attribute 34, 1
  12              		.eabi_attribute 18, 4
  13              		.file	"lv_gauge.c"
  14              		.text
  15              	.Ltext0:
  16              		.cfi_sections	.debug_frame
  17              		.section	.text.lv_gauge_get_style,"ax",%progbits
  18              		.align	1
  19              		.arch armv7e-m
  20              		.syntax unified
  21              		.thumb
  22              		.thumb_func
  23              		.fpu fpv4-sp-d16
  25              	lv_gauge_get_style:
  26              	.LVL0:
  27              	.LFB484:
  28              		.file 1 "lvgl/src/lv_widgets/lv_gauge.c"
   1:lvgl/src/lv_widgets/lv_gauge.c **** /**
   2:lvgl/src/lv_widgets/lv_gauge.c **** * @file lv_gauge.c
   3:lvgl/src/lv_widgets/lv_gauge.c **** *
   4:lvgl/src/lv_widgets/lv_gauge.c **** */
   5:lvgl/src/lv_widgets/lv_gauge.c **** 
   6:lvgl/src/lv_widgets/lv_gauge.c **** /*********************
   7:lvgl/src/lv_widgets/lv_gauge.c ****  *      INCLUDES
   8:lvgl/src/lv_widgets/lv_gauge.c ****  *********************/
   9:lvgl/src/lv_widgets/lv_gauge.c **** #include "lv_gauge.h"
  10:lvgl/src/lv_widgets/lv_gauge.c **** #if LV_USE_GAUGE != 0
  11:lvgl/src/lv_widgets/lv_gauge.c **** 
  12:lvgl/src/lv_widgets/lv_gauge.c **** #include "../lv_misc/lv_debug.h"
  13:lvgl/src/lv_widgets/lv_gauge.c **** #include "../lv_draw/lv_draw.h"
  14:lvgl/src/lv_widgets/lv_gauge.c **** #include "../lv_themes/lv_theme.h"
  15:lvgl/src/lv_widgets/lv_gauge.c **** #include "../lv_misc/lv_txt.h"
  16:lvgl/src/lv_widgets/lv_gauge.c **** #include "../lv_misc/lv_math.h"
  17:lvgl/src/lv_widgets/lv_gauge.c **** #include "../lv_misc/lv_utils.h"
  18:lvgl/src/lv_widgets/lv_gauge.c **** #include "lv_img.h"
  19:lvgl/src/lv_widgets/lv_gauge.c **** #include <stdio.h>
  20:lvgl/src/lv_widgets/lv_gauge.c **** #include <string.h>
  21:lvgl/src/lv_widgets/lv_gauge.c **** 
  22:lvgl/src/lv_widgets/lv_gauge.c **** /*********************
  23:lvgl/src/lv_widgets/lv_gauge.c ****  *      DEFINES
  24:lvgl/src/lv_widgets/lv_gauge.c ****  *********************/
  25:lvgl/src/lv_widgets/lv_gauge.c **** #define LV_OBJX_NAME "lv_gauge"
  26:lvgl/src/lv_widgets/lv_gauge.c **** 
  27:lvgl/src/lv_widgets/lv_gauge.c **** #define LV_GAUGE_DEF_NEEDLE_COLOR LV_COLOR_RED
  28:lvgl/src/lv_widgets/lv_gauge.c **** #define LV_GAUGE_DEF_LABEL_COUNT 6
  29:lvgl/src/lv_widgets/lv_gauge.c **** #define LV_GAUGE_DEF_LINE_COUNT 21 /*Should be: ((label_cnt - 1) * internal_lines) + 1*/
  30:lvgl/src/lv_widgets/lv_gauge.c **** #define LV_GAUGE_DEF_ANGLE 270
ARM GAS  D:\Temp\cc42SHz2.s 			page 2


  31:lvgl/src/lv_widgets/lv_gauge.c **** 
  32:lvgl/src/lv_widgets/lv_gauge.c **** /**********************
  33:lvgl/src/lv_widgets/lv_gauge.c ****  *      TYPEDEFS
  34:lvgl/src/lv_widgets/lv_gauge.c ****  **********************/
  35:lvgl/src/lv_widgets/lv_gauge.c **** 
  36:lvgl/src/lv_widgets/lv_gauge.c **** /**********************
  37:lvgl/src/lv_widgets/lv_gauge.c ****  *  STATIC PROTOTYPES
  38:lvgl/src/lv_widgets/lv_gauge.c ****  **********************/
  39:lvgl/src/lv_widgets/lv_gauge.c **** static lv_design_res_t lv_gauge_design(lv_obj_t * gauge, const lv_area_t * clip_area, lv_design_mod
  40:lvgl/src/lv_widgets/lv_gauge.c **** static lv_res_t lv_gauge_signal(lv_obj_t * gauge, lv_signal_t sign, void * param);
  41:lvgl/src/lv_widgets/lv_gauge.c **** static lv_style_list_t * lv_gauge_get_style(lv_obj_t * gauge, uint8_t part);
  42:lvgl/src/lv_widgets/lv_gauge.c **** static void lv_gauge_draw_labels(lv_obj_t * gauge, const lv_area_t * mask);
  43:lvgl/src/lv_widgets/lv_gauge.c **** static void lv_gauge_draw_needle(lv_obj_t * gauge, const lv_area_t * clip_area);
  44:lvgl/src/lv_widgets/lv_gauge.c **** 
  45:lvgl/src/lv_widgets/lv_gauge.c **** /**********************
  46:lvgl/src/lv_widgets/lv_gauge.c ****  *  STATIC VARIABLES
  47:lvgl/src/lv_widgets/lv_gauge.c ****  **********************/
  48:lvgl/src/lv_widgets/lv_gauge.c **** static lv_design_cb_t ancestor_design;
  49:lvgl/src/lv_widgets/lv_gauge.c **** static lv_signal_cb_t ancestor_signal;
  50:lvgl/src/lv_widgets/lv_gauge.c **** 
  51:lvgl/src/lv_widgets/lv_gauge.c **** /**********************
  52:lvgl/src/lv_widgets/lv_gauge.c ****  *      MACROS
  53:lvgl/src/lv_widgets/lv_gauge.c ****  **********************/
  54:lvgl/src/lv_widgets/lv_gauge.c **** 
  55:lvgl/src/lv_widgets/lv_gauge.c **** /**********************
  56:lvgl/src/lv_widgets/lv_gauge.c ****  *   GLOBAL FUNCTIONS
  57:lvgl/src/lv_widgets/lv_gauge.c ****  **********************/
  58:lvgl/src/lv_widgets/lv_gauge.c **** 
  59:lvgl/src/lv_widgets/lv_gauge.c **** /**
  60:lvgl/src/lv_widgets/lv_gauge.c ****  * Create a gauge objects
  61:lvgl/src/lv_widgets/lv_gauge.c ****  * @param par pointer to an object, it will be the parent of the new gauge
  62:lvgl/src/lv_widgets/lv_gauge.c ****  * @param copy pointer to a gauge object, if not NULL then the new object will be copied from it
  63:lvgl/src/lv_widgets/lv_gauge.c ****  * @return pointer to the created gauge
  64:lvgl/src/lv_widgets/lv_gauge.c ****  */
  65:lvgl/src/lv_widgets/lv_gauge.c **** lv_obj_t * lv_gauge_create(lv_obj_t * par, const lv_obj_t * copy)
  66:lvgl/src/lv_widgets/lv_gauge.c **** {
  67:lvgl/src/lv_widgets/lv_gauge.c ****     LV_LOG_TRACE("gauge create started");
  68:lvgl/src/lv_widgets/lv_gauge.c **** 
  69:lvgl/src/lv_widgets/lv_gauge.c ****     /*Create the ancestor gauge*/
  70:lvgl/src/lv_widgets/lv_gauge.c ****     lv_obj_t * gauge = lv_linemeter_create(par, copy);
  71:lvgl/src/lv_widgets/lv_gauge.c ****     LV_ASSERT_MEM(gauge);
  72:lvgl/src/lv_widgets/lv_gauge.c ****     if(gauge == NULL) return NULL;
  73:lvgl/src/lv_widgets/lv_gauge.c **** 
  74:lvgl/src/lv_widgets/lv_gauge.c ****     /*Allocate the gauge type specific extended data*/
  75:lvgl/src/lv_widgets/lv_gauge.c ****     lv_gauge_ext_t * ext = lv_obj_allocate_ext_attr(gauge, sizeof(lv_gauge_ext_t));
  76:lvgl/src/lv_widgets/lv_gauge.c ****     LV_ASSERT_MEM(ext);
  77:lvgl/src/lv_widgets/lv_gauge.c ****     if(ext == NULL) {
  78:lvgl/src/lv_widgets/lv_gauge.c ****         lv_obj_del(gauge);
  79:lvgl/src/lv_widgets/lv_gauge.c ****         return NULL;
  80:lvgl/src/lv_widgets/lv_gauge.c ****     }
  81:lvgl/src/lv_widgets/lv_gauge.c **** 
  82:lvgl/src/lv_widgets/lv_gauge.c ****     /*Initialize the allocated 'ext' */
  83:lvgl/src/lv_widgets/lv_gauge.c ****     ext->needle_count  = 0;
  84:lvgl/src/lv_widgets/lv_gauge.c ****     ext->values        = NULL;
  85:lvgl/src/lv_widgets/lv_gauge.c ****     ext->needle_colors = NULL;
  86:lvgl/src/lv_widgets/lv_gauge.c ****     ext->label_count   = LV_GAUGE_DEF_LABEL_COUNT;
  87:lvgl/src/lv_widgets/lv_gauge.c ****     ext->format_cb     = NULL;
ARM GAS  D:\Temp\cc42SHz2.s 			page 3


  88:lvgl/src/lv_widgets/lv_gauge.c **** 
  89:lvgl/src/lv_widgets/lv_gauge.c ****     ext->needle_img = 0;
  90:lvgl/src/lv_widgets/lv_gauge.c ****     ext->needle_img_pivot.x = 0;
  91:lvgl/src/lv_widgets/lv_gauge.c ****     ext->needle_img_pivot.y = 0;
  92:lvgl/src/lv_widgets/lv_gauge.c ****     if(ancestor_signal == NULL) ancestor_signal = lv_obj_get_signal_cb(gauge);
  93:lvgl/src/lv_widgets/lv_gauge.c ****     if(ancestor_design == NULL) ancestor_design = lv_obj_get_design_cb(gauge);
  94:lvgl/src/lv_widgets/lv_gauge.c **** 
  95:lvgl/src/lv_widgets/lv_gauge.c ****     lv_style_list_init(&ext->style_strong);
  96:lvgl/src/lv_widgets/lv_gauge.c ****     lv_style_list_init(&ext->style_needle);
  97:lvgl/src/lv_widgets/lv_gauge.c **** 
  98:lvgl/src/lv_widgets/lv_gauge.c ****     /*The signal and design functions are not copied so set them here*/
  99:lvgl/src/lv_widgets/lv_gauge.c ****     lv_obj_set_signal_cb(gauge, lv_gauge_signal);
 100:lvgl/src/lv_widgets/lv_gauge.c ****     lv_obj_set_design_cb(gauge, lv_gauge_design);
 101:lvgl/src/lv_widgets/lv_gauge.c **** 
 102:lvgl/src/lv_widgets/lv_gauge.c ****     /*Init the new gauge gauge*/
 103:lvgl/src/lv_widgets/lv_gauge.c ****     if(copy == NULL) {
 104:lvgl/src/lv_widgets/lv_gauge.c ****         lv_gauge_set_scale(gauge, LV_GAUGE_DEF_ANGLE, LV_GAUGE_DEF_LINE_COUNT, LV_GAUGE_DEF_LABEL_C
 105:lvgl/src/lv_widgets/lv_gauge.c ****         lv_gauge_set_needle_count(gauge, 1, NULL);
 106:lvgl/src/lv_widgets/lv_gauge.c ****         lv_gauge_set_critical_value(gauge, 80);
 107:lvgl/src/lv_widgets/lv_gauge.c **** 
 108:lvgl/src/lv_widgets/lv_gauge.c ****         lv_theme_apply(gauge, LV_THEME_GAUGE);
 109:lvgl/src/lv_widgets/lv_gauge.c **** 
 110:lvgl/src/lv_widgets/lv_gauge.c ****     }
 111:lvgl/src/lv_widgets/lv_gauge.c ****     /*Copy an existing gauge*/
 112:lvgl/src/lv_widgets/lv_gauge.c ****     else {
 113:lvgl/src/lv_widgets/lv_gauge.c ****         lv_gauge_ext_t * copy_ext = lv_obj_get_ext_attr(copy);
 114:lvgl/src/lv_widgets/lv_gauge.c ****         lv_gauge_set_needle_count(gauge, copy_ext->needle_count, copy_ext->needle_colors);
 115:lvgl/src/lv_widgets/lv_gauge.c **** 
 116:lvgl/src/lv_widgets/lv_gauge.c ****         lv_style_list_copy(&ext->style_strong, &copy_ext->style_strong);
 117:lvgl/src/lv_widgets/lv_gauge.c ****         lv_style_list_copy(&ext->style_needle, &copy_ext->style_needle);
 118:lvgl/src/lv_widgets/lv_gauge.c **** 
 119:lvgl/src/lv_widgets/lv_gauge.c ****         uint8_t i;
 120:lvgl/src/lv_widgets/lv_gauge.c ****         for(i = 0; i < ext->needle_count; i++) {
 121:lvgl/src/lv_widgets/lv_gauge.c ****             ext->values[i] = copy_ext->values[i];
 122:lvgl/src/lv_widgets/lv_gauge.c ****         }
 123:lvgl/src/lv_widgets/lv_gauge.c ****         ext->label_count = copy_ext->label_count;
 124:lvgl/src/lv_widgets/lv_gauge.c ****         ext->format_cb   = copy_ext->format_cb;
 125:lvgl/src/lv_widgets/lv_gauge.c **** 
 126:lvgl/src/lv_widgets/lv_gauge.c ****         /*Refresh the style with new signal function*/
 127:lvgl/src/lv_widgets/lv_gauge.c ****         lv_obj_refresh_style(gauge, LV_OBJ_PART_ALL, LV_STYLE_PROP_ALL);
 128:lvgl/src/lv_widgets/lv_gauge.c ****     }
 129:lvgl/src/lv_widgets/lv_gauge.c **** 
 130:lvgl/src/lv_widgets/lv_gauge.c ****     LV_LOG_INFO("gauge created");
 131:lvgl/src/lv_widgets/lv_gauge.c **** 
 132:lvgl/src/lv_widgets/lv_gauge.c ****     return gauge;
 133:lvgl/src/lv_widgets/lv_gauge.c **** }
 134:lvgl/src/lv_widgets/lv_gauge.c **** 
 135:lvgl/src/lv_widgets/lv_gauge.c **** /*=====================
 136:lvgl/src/lv_widgets/lv_gauge.c ****  * Setter functions
 137:lvgl/src/lv_widgets/lv_gauge.c ****  *====================*/
 138:lvgl/src/lv_widgets/lv_gauge.c **** 
 139:lvgl/src/lv_widgets/lv_gauge.c **** /**
 140:lvgl/src/lv_widgets/lv_gauge.c ****  * Set the number of needles
 141:lvgl/src/lv_widgets/lv_gauge.c ****  * @param gauge pointer to gauge object
 142:lvgl/src/lv_widgets/lv_gauge.c ****  * @param needle_cnt new count of needles
 143:lvgl/src/lv_widgets/lv_gauge.c ****  * @param colors an array of colors for needles (with 'num' elements)
 144:lvgl/src/lv_widgets/lv_gauge.c ****  */
ARM GAS  D:\Temp\cc42SHz2.s 			page 4


 145:lvgl/src/lv_widgets/lv_gauge.c **** void lv_gauge_set_needle_count(lv_obj_t * gauge, uint8_t needle_cnt, const lv_color_t colors[])
 146:lvgl/src/lv_widgets/lv_gauge.c **** {
 147:lvgl/src/lv_widgets/lv_gauge.c ****     LV_ASSERT_OBJ(gauge, LV_OBJX_NAME);
 148:lvgl/src/lv_widgets/lv_gauge.c **** 
 149:lvgl/src/lv_widgets/lv_gauge.c ****     lv_gauge_ext_t * ext = lv_obj_get_ext_attr(gauge);
 150:lvgl/src/lv_widgets/lv_gauge.c **** 
 151:lvgl/src/lv_widgets/lv_gauge.c ****     if(ext->needle_count != needle_cnt) {
 152:lvgl/src/lv_widgets/lv_gauge.c ****         if(ext->values != NULL) {
 153:lvgl/src/lv_widgets/lv_gauge.c ****             lv_mem_free(ext->values);
 154:lvgl/src/lv_widgets/lv_gauge.c ****             ext->values = NULL;
 155:lvgl/src/lv_widgets/lv_gauge.c ****         }
 156:lvgl/src/lv_widgets/lv_gauge.c **** 
 157:lvgl/src/lv_widgets/lv_gauge.c ****         ext->values = lv_mem_realloc(ext->values, needle_cnt * sizeof(ext->values[0]));
 158:lvgl/src/lv_widgets/lv_gauge.c ****         LV_ASSERT_MEM(ext->values);
 159:lvgl/src/lv_widgets/lv_gauge.c ****         if(ext->values == NULL) return;
 160:lvgl/src/lv_widgets/lv_gauge.c **** 
 161:lvgl/src/lv_widgets/lv_gauge.c ****         int16_t min = lv_gauge_get_min_value(gauge);
 162:lvgl/src/lv_widgets/lv_gauge.c ****         uint8_t n;
 163:lvgl/src/lv_widgets/lv_gauge.c ****         for(n = ext->needle_count; n < needle_cnt; n++) {
 164:lvgl/src/lv_widgets/lv_gauge.c ****             ext->values[n] = min;
 165:lvgl/src/lv_widgets/lv_gauge.c ****         }
 166:lvgl/src/lv_widgets/lv_gauge.c **** 
 167:lvgl/src/lv_widgets/lv_gauge.c ****         ext->needle_count = needle_cnt;
 168:lvgl/src/lv_widgets/lv_gauge.c ****     }
 169:lvgl/src/lv_widgets/lv_gauge.c **** 
 170:lvgl/src/lv_widgets/lv_gauge.c ****     ext->needle_colors = colors;
 171:lvgl/src/lv_widgets/lv_gauge.c ****     lv_obj_invalidate(gauge);
 172:lvgl/src/lv_widgets/lv_gauge.c **** }
 173:lvgl/src/lv_widgets/lv_gauge.c **** 
 174:lvgl/src/lv_widgets/lv_gauge.c **** /**
 175:lvgl/src/lv_widgets/lv_gauge.c ****  * Set the value of a needle
 176:lvgl/src/lv_widgets/lv_gauge.c ****  * @param gauge pointer to a gauge
 177:lvgl/src/lv_widgets/lv_gauge.c ****  * @param needle_id the id of the needle
 178:lvgl/src/lv_widgets/lv_gauge.c ****  * @param value the new value
 179:lvgl/src/lv_widgets/lv_gauge.c ****  */
 180:lvgl/src/lv_widgets/lv_gauge.c **** void lv_gauge_set_value(lv_obj_t * gauge, uint8_t needle_id, int32_t value)
 181:lvgl/src/lv_widgets/lv_gauge.c **** {
 182:lvgl/src/lv_widgets/lv_gauge.c ****     LV_ASSERT_OBJ(gauge, LV_OBJX_NAME);
 183:lvgl/src/lv_widgets/lv_gauge.c **** 
 184:lvgl/src/lv_widgets/lv_gauge.c ****     lv_gauge_ext_t * ext = lv_obj_get_ext_attr(gauge);
 185:lvgl/src/lv_widgets/lv_gauge.c **** 
 186:lvgl/src/lv_widgets/lv_gauge.c ****     if(needle_id >= ext->needle_count) return;
 187:lvgl/src/lv_widgets/lv_gauge.c ****     if(ext->values[needle_id] == value) return;
 188:lvgl/src/lv_widgets/lv_gauge.c **** 
 189:lvgl/src/lv_widgets/lv_gauge.c ****     int16_t min = lv_gauge_get_min_value(gauge);
 190:lvgl/src/lv_widgets/lv_gauge.c ****     int16_t max = lv_gauge_get_max_value(gauge);
 191:lvgl/src/lv_widgets/lv_gauge.c **** 
 192:lvgl/src/lv_widgets/lv_gauge.c ****     if(value > max)
 193:lvgl/src/lv_widgets/lv_gauge.c ****         value = max;
 194:lvgl/src/lv_widgets/lv_gauge.c ****     else if(value < min)
 195:lvgl/src/lv_widgets/lv_gauge.c ****         value = min;
 196:lvgl/src/lv_widgets/lv_gauge.c **** 
 197:lvgl/src/lv_widgets/lv_gauge.c ****     int32_t old_value = ext->values[needle_id];
 198:lvgl/src/lv_widgets/lv_gauge.c ****     ext->values[needle_id] = value;
 199:lvgl/src/lv_widgets/lv_gauge.c **** 
 200:lvgl/src/lv_widgets/lv_gauge.c ****     lv_coord_t r      = lv_obj_get_width(gauge) / 2;
 201:lvgl/src/lv_widgets/lv_gauge.c ****     lv_coord_t x_ofs  = gauge->coords.x1 + r;
ARM GAS  D:\Temp\cc42SHz2.s 			page 5


 202:lvgl/src/lv_widgets/lv_gauge.c ****     lv_coord_t y_ofs  = gauge->coords.y1 + r;
 203:lvgl/src/lv_widgets/lv_gauge.c ****     uint16_t angle    = lv_linemeter_get_scale_angle(gauge);
 204:lvgl/src/lv_widgets/lv_gauge.c ****     int16_t angle_ofs = 90 + (360 - angle) / 2 + lv_gauge_get_angle_offset(gauge);
 205:lvgl/src/lv_widgets/lv_gauge.c ****     lv_point_t p_mid;
 206:lvgl/src/lv_widgets/lv_gauge.c ****     lv_point_t p_end;
 207:lvgl/src/lv_widgets/lv_gauge.c ****     lv_coord_t needle_w;
 208:lvgl/src/lv_widgets/lv_gauge.c **** 
 209:lvgl/src/lv_widgets/lv_gauge.c ****     if(ext->needle_img) {
 210:lvgl/src/lv_widgets/lv_gauge.c ****         lv_img_header_t info;
 211:lvgl/src/lv_widgets/lv_gauge.c ****         lv_img_decoder_get_info(ext->needle_img, &info);
 212:lvgl/src/lv_widgets/lv_gauge.c ****         needle_w = info.h;
 213:lvgl/src/lv_widgets/lv_gauge.c ****     }
 214:lvgl/src/lv_widgets/lv_gauge.c ****     else {
 215:lvgl/src/lv_widgets/lv_gauge.c ****         needle_w = lv_obj_get_style_line_width(gauge, LV_GAUGE_PART_NEEDLE);
 216:lvgl/src/lv_widgets/lv_gauge.c ****     }
 217:lvgl/src/lv_widgets/lv_gauge.c **** 
 218:lvgl/src/lv_widgets/lv_gauge.c ****     p_mid.x = x_ofs;
 219:lvgl/src/lv_widgets/lv_gauge.c ****     p_mid.y = y_ofs;
 220:lvgl/src/lv_widgets/lv_gauge.c ****     /*Calculate the end point of a needle*/
 221:lvgl/src/lv_widgets/lv_gauge.c ****     int16_t needle_angle = (old_value - min) * angle / (max - min) + angle_ofs;
 222:lvgl/src/lv_widgets/lv_gauge.c **** 
 223:lvgl/src/lv_widgets/lv_gauge.c ****     p_end.y = (_lv_trigo_sin(needle_angle) * r) / LV_TRIGO_SIN_MAX + y_ofs;
 224:lvgl/src/lv_widgets/lv_gauge.c ****     p_end.x = (_lv_trigo_sin(needle_angle + 90) * r) / LV_TRIGO_SIN_MAX + x_ofs;
 225:lvgl/src/lv_widgets/lv_gauge.c **** 
 226:lvgl/src/lv_widgets/lv_gauge.c ****     lv_area_t a;
 227:lvgl/src/lv_widgets/lv_gauge.c ****     a.x1 = LV_MATH_MIN(p_mid.x, p_end.x) - needle_w;
 228:lvgl/src/lv_widgets/lv_gauge.c ****     a.y1 = LV_MATH_MIN(p_mid.y, p_end.y) - needle_w;
 229:lvgl/src/lv_widgets/lv_gauge.c ****     a.x2 = LV_MATH_MAX(p_mid.x, p_end.x) + needle_w;
 230:lvgl/src/lv_widgets/lv_gauge.c ****     a.y2 = LV_MATH_MAX(p_mid.y, p_end.y) + needle_w;
 231:lvgl/src/lv_widgets/lv_gauge.c ****     lv_obj_invalidate_area(gauge, &a);
 232:lvgl/src/lv_widgets/lv_gauge.c **** 
 233:lvgl/src/lv_widgets/lv_gauge.c ****     needle_angle = (value - min) * angle / (max - min) + angle_ofs;
 234:lvgl/src/lv_widgets/lv_gauge.c ****     p_end.y = (_lv_trigo_sin(needle_angle) * r) / LV_TRIGO_SIN_MAX + y_ofs;
 235:lvgl/src/lv_widgets/lv_gauge.c ****     p_end.x = (_lv_trigo_sin(needle_angle + 90) * r) / LV_TRIGO_SIN_MAX + x_ofs;
 236:lvgl/src/lv_widgets/lv_gauge.c **** 
 237:lvgl/src/lv_widgets/lv_gauge.c ****     a.x1 = LV_MATH_MIN(p_mid.x, p_end.x) - needle_w;
 238:lvgl/src/lv_widgets/lv_gauge.c ****     a.y1 = LV_MATH_MIN(p_mid.y, p_end.y) - needle_w;
 239:lvgl/src/lv_widgets/lv_gauge.c ****     a.x2 = LV_MATH_MAX(p_mid.x, p_end.x) + needle_w;
 240:lvgl/src/lv_widgets/lv_gauge.c ****     a.y2 = LV_MATH_MAX(p_mid.y, p_end.y) + needle_w;
 241:lvgl/src/lv_widgets/lv_gauge.c ****     lv_obj_invalidate_area(gauge, &a);
 242:lvgl/src/lv_widgets/lv_gauge.c **** 
 243:lvgl/src/lv_widgets/lv_gauge.c **** }
 244:lvgl/src/lv_widgets/lv_gauge.c **** 
 245:lvgl/src/lv_widgets/lv_gauge.c **** /**
 246:lvgl/src/lv_widgets/lv_gauge.c ****  * Set the scale settings of a gauge
 247:lvgl/src/lv_widgets/lv_gauge.c ****  * @param gauge pointer to a gauge object
 248:lvgl/src/lv_widgets/lv_gauge.c ****  * @param angle angle of the scale (0..360)
 249:lvgl/src/lv_widgets/lv_gauge.c ****  * @param line_cnt count of scale lines.
 250:lvgl/src/lv_widgets/lv_gauge.c ****  * To get a given "subdivision" lines between labels:
 251:lvgl/src/lv_widgets/lv_gauge.c ****  * `line_cnt = (sub_div + 1) * (label_cnt - 1) + 1 `
 252:lvgl/src/lv_widgets/lv_gauge.c ****  * @param label_cnt count of scale labels.
 253:lvgl/src/lv_widgets/lv_gauge.c ****  */
 254:lvgl/src/lv_widgets/lv_gauge.c **** void lv_gauge_set_scale(lv_obj_t * gauge, uint16_t angle, uint8_t line_cnt, uint8_t label_cnt)
 255:lvgl/src/lv_widgets/lv_gauge.c **** {
 256:lvgl/src/lv_widgets/lv_gauge.c ****     LV_ASSERT_OBJ(gauge, LV_OBJX_NAME);
 257:lvgl/src/lv_widgets/lv_gauge.c **** 
 258:lvgl/src/lv_widgets/lv_gauge.c ****     lv_linemeter_set_scale(gauge, angle, line_cnt);
ARM GAS  D:\Temp\cc42SHz2.s 			page 6


 259:lvgl/src/lv_widgets/lv_gauge.c **** 
 260:lvgl/src/lv_widgets/lv_gauge.c ****     lv_gauge_ext_t * ext = lv_obj_get_ext_attr(gauge);
 261:lvgl/src/lv_widgets/lv_gauge.c ****     ext->label_count     = label_cnt;
 262:lvgl/src/lv_widgets/lv_gauge.c ****     lv_obj_invalidate(gauge);
 263:lvgl/src/lv_widgets/lv_gauge.c **** }
 264:lvgl/src/lv_widgets/lv_gauge.c **** 
 265:lvgl/src/lv_widgets/lv_gauge.c **** /**
 266:lvgl/src/lv_widgets/lv_gauge.c ****  * Set an image to display as needle(s).
 267:lvgl/src/lv_widgets/lv_gauge.c ****  * The needle image should be horizontal and pointing to the right (`--->`).
 268:lvgl/src/lv_widgets/lv_gauge.c ****  * @param gauge pointer to a gauge object
 269:lvgl/src/lv_widgets/lv_gauge.c ****  * @param img_src pointer to an `lv_img_dsc_t` variable or a path to an image
 270:lvgl/src/lv_widgets/lv_gauge.c ****  *        (not an `lv_img` object)
 271:lvgl/src/lv_widgets/lv_gauge.c ****  * @param pivot_x the X coordinate of rotation center of the image
 272:lvgl/src/lv_widgets/lv_gauge.c ****  * @param pivot_y the Y coordinate of rotation center of the image
 273:lvgl/src/lv_widgets/lv_gauge.c ****  */
 274:lvgl/src/lv_widgets/lv_gauge.c **** void lv_gauge_set_needle_img(lv_obj_t * gauge, const void * img, lv_coord_t pivot_x, lv_coord_t piv
 275:lvgl/src/lv_widgets/lv_gauge.c **** {
 276:lvgl/src/lv_widgets/lv_gauge.c ****     LV_ASSERT_OBJ(gauge, LV_OBJX_NAME);
 277:lvgl/src/lv_widgets/lv_gauge.c **** 
 278:lvgl/src/lv_widgets/lv_gauge.c ****     lv_gauge_ext_t * ext = lv_obj_get_ext_attr(gauge);
 279:lvgl/src/lv_widgets/lv_gauge.c **** 
 280:lvgl/src/lv_widgets/lv_gauge.c ****     ext->needle_img = img;
 281:lvgl/src/lv_widgets/lv_gauge.c ****     ext->needle_img_pivot.x = pivot_x;
 282:lvgl/src/lv_widgets/lv_gauge.c ****     ext->needle_img_pivot.y = pivot_y;
 283:lvgl/src/lv_widgets/lv_gauge.c **** 
 284:lvgl/src/lv_widgets/lv_gauge.c ****     lv_obj_invalidate(gauge);
 285:lvgl/src/lv_widgets/lv_gauge.c **** }
 286:lvgl/src/lv_widgets/lv_gauge.c **** 
 287:lvgl/src/lv_widgets/lv_gauge.c **** /**
 288:lvgl/src/lv_widgets/lv_gauge.c ****  * Assign a function to format gauge values
 289:lvgl/src/lv_widgets/lv_gauge.c ****  * @param gauge pointer to a gauge object
 290:lvgl/src/lv_widgets/lv_gauge.c ****  * @param format_cb pointer to function of lv_gauge_format_cb_t
 291:lvgl/src/lv_widgets/lv_gauge.c ****  */
 292:lvgl/src/lv_widgets/lv_gauge.c **** void lv_gauge_set_formatter_cb(lv_obj_t * gauge, lv_gauge_format_cb_t format_cb)
 293:lvgl/src/lv_widgets/lv_gauge.c **** {
 294:lvgl/src/lv_widgets/lv_gauge.c ****     LV_ASSERT_OBJ(gauge, LV_OBJX_NAME);
 295:lvgl/src/lv_widgets/lv_gauge.c **** 
 296:lvgl/src/lv_widgets/lv_gauge.c ****     lv_gauge_ext_t * ext = lv_obj_get_ext_attr(gauge);
 297:lvgl/src/lv_widgets/lv_gauge.c **** 
 298:lvgl/src/lv_widgets/lv_gauge.c ****     ext->format_cb = format_cb;
 299:lvgl/src/lv_widgets/lv_gauge.c **** }
 300:lvgl/src/lv_widgets/lv_gauge.c **** 
 301:lvgl/src/lv_widgets/lv_gauge.c **** /*=====================
 302:lvgl/src/lv_widgets/lv_gauge.c ****  * Getter functions
 303:lvgl/src/lv_widgets/lv_gauge.c ****  *====================*/
 304:lvgl/src/lv_widgets/lv_gauge.c **** 
 305:lvgl/src/lv_widgets/lv_gauge.c **** /**
 306:lvgl/src/lv_widgets/lv_gauge.c ****  * Get the value of a needle
 307:lvgl/src/lv_widgets/lv_gauge.c ****  * @param gauge pointer to gauge object
 308:lvgl/src/lv_widgets/lv_gauge.c ****  * @param needle the id of the needle
 309:lvgl/src/lv_widgets/lv_gauge.c ****  * @return the value of the needle [min,max]
 310:lvgl/src/lv_widgets/lv_gauge.c ****  */
 311:lvgl/src/lv_widgets/lv_gauge.c **** int32_t lv_gauge_get_value(const lv_obj_t * gauge, uint8_t needle)
 312:lvgl/src/lv_widgets/lv_gauge.c **** {
 313:lvgl/src/lv_widgets/lv_gauge.c ****     LV_ASSERT_OBJ(gauge, LV_OBJX_NAME);
 314:lvgl/src/lv_widgets/lv_gauge.c **** 
 315:lvgl/src/lv_widgets/lv_gauge.c ****     lv_gauge_ext_t * ext = lv_obj_get_ext_attr(gauge);
ARM GAS  D:\Temp\cc42SHz2.s 			page 7


 316:lvgl/src/lv_widgets/lv_gauge.c ****     int16_t min          = lv_gauge_get_min_value(gauge);
 317:lvgl/src/lv_widgets/lv_gauge.c **** 
 318:lvgl/src/lv_widgets/lv_gauge.c ****     if(needle >= ext->needle_count) return min;
 319:lvgl/src/lv_widgets/lv_gauge.c **** 
 320:lvgl/src/lv_widgets/lv_gauge.c ****     return ext->values[needle];
 321:lvgl/src/lv_widgets/lv_gauge.c **** }
 322:lvgl/src/lv_widgets/lv_gauge.c **** 
 323:lvgl/src/lv_widgets/lv_gauge.c **** /**
 324:lvgl/src/lv_widgets/lv_gauge.c ****  * Get the count of needles on a gauge
 325:lvgl/src/lv_widgets/lv_gauge.c ****  * @param gauge pointer to gauge
 326:lvgl/src/lv_widgets/lv_gauge.c ****  * @return count of needles
 327:lvgl/src/lv_widgets/lv_gauge.c ****  */
 328:lvgl/src/lv_widgets/lv_gauge.c **** uint8_t lv_gauge_get_needle_count(const lv_obj_t * gauge)
 329:lvgl/src/lv_widgets/lv_gauge.c **** {
 330:lvgl/src/lv_widgets/lv_gauge.c ****     LV_ASSERT_OBJ(gauge, LV_OBJX_NAME);
 331:lvgl/src/lv_widgets/lv_gauge.c **** 
 332:lvgl/src/lv_widgets/lv_gauge.c ****     lv_gauge_ext_t * ext = lv_obj_get_ext_attr(gauge);
 333:lvgl/src/lv_widgets/lv_gauge.c ****     return ext->needle_count;
 334:lvgl/src/lv_widgets/lv_gauge.c **** }
 335:lvgl/src/lv_widgets/lv_gauge.c **** 
 336:lvgl/src/lv_widgets/lv_gauge.c **** /**
 337:lvgl/src/lv_widgets/lv_gauge.c ****  * Set the number of labels (and the thicker lines too)
 338:lvgl/src/lv_widgets/lv_gauge.c ****  * @param gauge pointer to a gauge object
 339:lvgl/src/lv_widgets/lv_gauge.c ****  * @return count of labels
 340:lvgl/src/lv_widgets/lv_gauge.c ****  */
 341:lvgl/src/lv_widgets/lv_gauge.c **** uint8_t lv_gauge_get_label_count(const lv_obj_t * gauge)
 342:lvgl/src/lv_widgets/lv_gauge.c **** {
 343:lvgl/src/lv_widgets/lv_gauge.c ****     LV_ASSERT_OBJ(gauge, LV_OBJX_NAME);
 344:lvgl/src/lv_widgets/lv_gauge.c **** 
 345:lvgl/src/lv_widgets/lv_gauge.c ****     lv_gauge_ext_t * ext = lv_obj_get_ext_attr(gauge);
 346:lvgl/src/lv_widgets/lv_gauge.c ****     return ext->label_count;
 347:lvgl/src/lv_widgets/lv_gauge.c **** }
 348:lvgl/src/lv_widgets/lv_gauge.c **** 
 349:lvgl/src/lv_widgets/lv_gauge.c **** /**
 350:lvgl/src/lv_widgets/lv_gauge.c ****  * Get an image to display as needle(s).
 351:lvgl/src/lv_widgets/lv_gauge.c ****  * @param gauge pointer to a gauge object
 352:lvgl/src/lv_widgets/lv_gauge.c ****  * @return pointer to an `lv_img_dsc_t` variable or a path to an image
 353:lvgl/src/lv_widgets/lv_gauge.c ****  *        (not an `lv_img` object). `NULL` if not used.
 354:lvgl/src/lv_widgets/lv_gauge.c ****  */
 355:lvgl/src/lv_widgets/lv_gauge.c **** const void * lv_gauge_get_needle_img(lv_obj_t * gauge)
 356:lvgl/src/lv_widgets/lv_gauge.c **** {
 357:lvgl/src/lv_widgets/lv_gauge.c ****     LV_ASSERT_OBJ(gauge, LV_OBJX_NAME);
 358:lvgl/src/lv_widgets/lv_gauge.c **** 
 359:lvgl/src/lv_widgets/lv_gauge.c ****     lv_gauge_ext_t * ext = lv_obj_get_ext_attr(gauge);
 360:lvgl/src/lv_widgets/lv_gauge.c **** 
 361:lvgl/src/lv_widgets/lv_gauge.c ****     return ext->needle_img;
 362:lvgl/src/lv_widgets/lv_gauge.c **** }
 363:lvgl/src/lv_widgets/lv_gauge.c **** 
 364:lvgl/src/lv_widgets/lv_gauge.c **** /**
 365:lvgl/src/lv_widgets/lv_gauge.c ****  * Get the X coordinate of the rotation center of the needle image
 366:lvgl/src/lv_widgets/lv_gauge.c ****  * @param gauge pointer to a gauge object
 367:lvgl/src/lv_widgets/lv_gauge.c ****  * @return the X coordinate of rotation center of the image
 368:lvgl/src/lv_widgets/lv_gauge.c ****  */
 369:lvgl/src/lv_widgets/lv_gauge.c **** lv_coord_t lv_gauge_get_needle_img_pivot_x(lv_obj_t * gauge)
 370:lvgl/src/lv_widgets/lv_gauge.c **** {
 371:lvgl/src/lv_widgets/lv_gauge.c ****     LV_ASSERT_OBJ(gauge, LV_OBJX_NAME);
 372:lvgl/src/lv_widgets/lv_gauge.c **** 
ARM GAS  D:\Temp\cc42SHz2.s 			page 8


 373:lvgl/src/lv_widgets/lv_gauge.c ****     lv_gauge_ext_t * ext = lv_obj_get_ext_attr(gauge);
 374:lvgl/src/lv_widgets/lv_gauge.c **** 
 375:lvgl/src/lv_widgets/lv_gauge.c ****     return ext->needle_img_pivot.x;
 376:lvgl/src/lv_widgets/lv_gauge.c **** }
 377:lvgl/src/lv_widgets/lv_gauge.c **** 
 378:lvgl/src/lv_widgets/lv_gauge.c **** /**
 379:lvgl/src/lv_widgets/lv_gauge.c ****  * Get the Y coordinate of the rotation center of the needle image
 380:lvgl/src/lv_widgets/lv_gauge.c ****  * @param gauge pointer to a gauge object
 381:lvgl/src/lv_widgets/lv_gauge.c ****  * @return the X coordinate of rotation center of the image
 382:lvgl/src/lv_widgets/lv_gauge.c ****  */
 383:lvgl/src/lv_widgets/lv_gauge.c **** lv_coord_t lv_gauge_get_needle_img_pivot_y(lv_obj_t * gauge)
 384:lvgl/src/lv_widgets/lv_gauge.c **** {
 385:lvgl/src/lv_widgets/lv_gauge.c ****     LV_ASSERT_OBJ(gauge, LV_OBJX_NAME);
 386:lvgl/src/lv_widgets/lv_gauge.c **** 
 387:lvgl/src/lv_widgets/lv_gauge.c ****     lv_gauge_ext_t * ext = lv_obj_get_ext_attr(gauge);
 388:lvgl/src/lv_widgets/lv_gauge.c **** 
 389:lvgl/src/lv_widgets/lv_gauge.c ****     return ext->needle_img_pivot.y;
 390:lvgl/src/lv_widgets/lv_gauge.c **** }
 391:lvgl/src/lv_widgets/lv_gauge.c **** 
 392:lvgl/src/lv_widgets/lv_gauge.c **** /**********************
 393:lvgl/src/lv_widgets/lv_gauge.c ****  *   STATIC FUNCTIONS
 394:lvgl/src/lv_widgets/lv_gauge.c ****  **********************/
 395:lvgl/src/lv_widgets/lv_gauge.c **** 
 396:lvgl/src/lv_widgets/lv_gauge.c **** /**
 397:lvgl/src/lv_widgets/lv_gauge.c ****  * Handle the drawing related tasks of the gauges
 398:lvgl/src/lv_widgets/lv_gauge.c ****  * @param gauge pointer to an object
 399:lvgl/src/lv_widgets/lv_gauge.c ****  * @param clip_area the object will be drawn only in this area
 400:lvgl/src/lv_widgets/lv_gauge.c ****  * @param mode LV_DESIGN_COVER_CHK: only check if the object fully covers the 'mask_p' area
 401:lvgl/src/lv_widgets/lv_gauge.c ****  *                                  (return 'true' if yes)
 402:lvgl/src/lv_widgets/lv_gauge.c ****  *             LV_DESIGN_DRAW: draw the object (always return 'true')
 403:lvgl/src/lv_widgets/lv_gauge.c ****  *             LV_DESIGN_DRAW_POST: drawing after every children are drawn
 404:lvgl/src/lv_widgets/lv_gauge.c ****  * @param return an element of `lv_design_res_t`
 405:lvgl/src/lv_widgets/lv_gauge.c ****  */
 406:lvgl/src/lv_widgets/lv_gauge.c **** static lv_design_res_t lv_gauge_design(lv_obj_t * gauge, const lv_area_t * clip_area, lv_design_mod
 407:lvgl/src/lv_widgets/lv_gauge.c **** {
 408:lvgl/src/lv_widgets/lv_gauge.c ****     /*Return false if the object is not covers the mask_p area*/
 409:lvgl/src/lv_widgets/lv_gauge.c ****     if(mode == LV_DESIGN_COVER_CHK) {
 410:lvgl/src/lv_widgets/lv_gauge.c ****         return LV_DESIGN_RES_NOT_COVER;
 411:lvgl/src/lv_widgets/lv_gauge.c ****     }
 412:lvgl/src/lv_widgets/lv_gauge.c ****     /*Draw the object*/
 413:lvgl/src/lv_widgets/lv_gauge.c ****     else if(mode == LV_DESIGN_DRAW_MAIN) {
 414:lvgl/src/lv_widgets/lv_gauge.c ****         ancestor_design(gauge, clip_area, mode);
 415:lvgl/src/lv_widgets/lv_gauge.c **** 
 416:lvgl/src/lv_widgets/lv_gauge.c ****         lv_gauge_ext_t * ext           = lv_obj_get_ext_attr(gauge);
 417:lvgl/src/lv_widgets/lv_gauge.c ****         lv_gauge_draw_labels(gauge, clip_area);
 418:lvgl/src/lv_widgets/lv_gauge.c **** 
 419:lvgl/src/lv_widgets/lv_gauge.c ****         /*Add the strong lines*/
 420:lvgl/src/lv_widgets/lv_gauge.c ****         uint16_t line_cnt_tmp = ext->lmeter.line_cnt;
 421:lvgl/src/lv_widgets/lv_gauge.c ****         ext->lmeter.line_cnt         = ext->label_count;                 /*Only to labels*/
 422:lvgl/src/lv_widgets/lv_gauge.c ****         lv_linemeter_draw_scale(gauge, clip_area, LV_GAUGE_PART_MAJOR);
 423:lvgl/src/lv_widgets/lv_gauge.c ****         ext->lmeter.line_cnt = line_cnt_tmp; /*Restore the parameters*/
 424:lvgl/src/lv_widgets/lv_gauge.c **** 
 425:lvgl/src/lv_widgets/lv_gauge.c ****         lv_gauge_draw_needle(gauge, clip_area);
 426:lvgl/src/lv_widgets/lv_gauge.c ****     }
 427:lvgl/src/lv_widgets/lv_gauge.c ****     /*Post draw when the children are drawn*/
 428:lvgl/src/lv_widgets/lv_gauge.c ****     else if(mode == LV_DESIGN_DRAW_POST) {
 429:lvgl/src/lv_widgets/lv_gauge.c ****         ancestor_design(gauge, clip_area, mode);
ARM GAS  D:\Temp\cc42SHz2.s 			page 9


 430:lvgl/src/lv_widgets/lv_gauge.c ****     }
 431:lvgl/src/lv_widgets/lv_gauge.c **** 
 432:lvgl/src/lv_widgets/lv_gauge.c ****     return LV_DESIGN_RES_OK;
 433:lvgl/src/lv_widgets/lv_gauge.c **** }
 434:lvgl/src/lv_widgets/lv_gauge.c **** 
 435:lvgl/src/lv_widgets/lv_gauge.c **** /**
 436:lvgl/src/lv_widgets/lv_gauge.c ****  * Signal function of the gauge
 437:lvgl/src/lv_widgets/lv_gauge.c ****  * @param gauge pointer to a gauge object
 438:lvgl/src/lv_widgets/lv_gauge.c ****  * @param sign a signal type from lv_signal_t enum
 439:lvgl/src/lv_widgets/lv_gauge.c ****  * @param param pointer to a signal specific variable
 440:lvgl/src/lv_widgets/lv_gauge.c ****  * @return LV_RES_OK: the object is not deleted in the function; LV_RES_INV: the object is deleted
 441:lvgl/src/lv_widgets/lv_gauge.c ****  */
 442:lvgl/src/lv_widgets/lv_gauge.c **** static lv_res_t lv_gauge_signal(lv_obj_t * gauge, lv_signal_t sign, void * param)
 443:lvgl/src/lv_widgets/lv_gauge.c **** {
 444:lvgl/src/lv_widgets/lv_gauge.c ****     lv_res_t res;
 445:lvgl/src/lv_widgets/lv_gauge.c ****     if(sign == LV_SIGNAL_GET_STYLE) {
 446:lvgl/src/lv_widgets/lv_gauge.c ****         lv_get_style_info_t * info = param;
 447:lvgl/src/lv_widgets/lv_gauge.c ****         info->result = lv_gauge_get_style(gauge, info->part);
 448:lvgl/src/lv_widgets/lv_gauge.c ****         if(info->result != NULL) return LV_RES_OK;
 449:lvgl/src/lv_widgets/lv_gauge.c ****         else return ancestor_signal(gauge, sign, param);
 450:lvgl/src/lv_widgets/lv_gauge.c ****     }
 451:lvgl/src/lv_widgets/lv_gauge.c **** 
 452:lvgl/src/lv_widgets/lv_gauge.c ****     /* Include the ancient signal function */
 453:lvgl/src/lv_widgets/lv_gauge.c ****     res = ancestor_signal(gauge, sign, param);
 454:lvgl/src/lv_widgets/lv_gauge.c ****     if(res != LV_RES_OK) return res;
 455:lvgl/src/lv_widgets/lv_gauge.c ****     if(sign == LV_SIGNAL_GET_TYPE) return lv_obj_handle_get_type_signal(param, LV_OBJX_NAME);
 456:lvgl/src/lv_widgets/lv_gauge.c **** 
 457:lvgl/src/lv_widgets/lv_gauge.c ****     lv_gauge_ext_t * ext = lv_obj_get_ext_attr(gauge);
 458:lvgl/src/lv_widgets/lv_gauge.c ****     if(sign == LV_SIGNAL_CLEANUP) {
 459:lvgl/src/lv_widgets/lv_gauge.c ****         lv_mem_free(ext->values);
 460:lvgl/src/lv_widgets/lv_gauge.c ****         ext->values = NULL;
 461:lvgl/src/lv_widgets/lv_gauge.c ****         lv_obj_clean_style_list(gauge, LV_GAUGE_PART_NEEDLE);
 462:lvgl/src/lv_widgets/lv_gauge.c ****         lv_obj_clean_style_list(gauge, LV_GAUGE_PART_MAJOR);
 463:lvgl/src/lv_widgets/lv_gauge.c ****     }
 464:lvgl/src/lv_widgets/lv_gauge.c **** 
 465:lvgl/src/lv_widgets/lv_gauge.c ****     return res;
 466:lvgl/src/lv_widgets/lv_gauge.c **** }
 467:lvgl/src/lv_widgets/lv_gauge.c **** /**
 468:lvgl/src/lv_widgets/lv_gauge.c ****  * Get the style descriptor of a part of the object
 469:lvgl/src/lv_widgets/lv_gauge.c ****  * @param page pointer the object
 470:lvgl/src/lv_widgets/lv_gauge.c ****  * @param part the part from `lv_gauge_part_t`. (LV_GAUGE_PART_...)
 471:lvgl/src/lv_widgets/lv_gauge.c ****  * @return pointer to the style descriptor of the specified part
 472:lvgl/src/lv_widgets/lv_gauge.c ****  */
 473:lvgl/src/lv_widgets/lv_gauge.c **** static lv_style_list_t * lv_gauge_get_style(lv_obj_t * gauge, uint8_t part)
 474:lvgl/src/lv_widgets/lv_gauge.c **** {
  29              		.loc 1 474 1 view -0
  30              		.cfi_startproc
  31              		@ args = 0, pretend = 0, frame = 0
  32              		@ frame_needed = 0, uses_anonymous_args = 0
  33              		.loc 1 474 1 is_stmt 0 view .LVU1
  34 0000 38B5     		push	{r3, r4, r5, lr}
  35              	.LCFI0:
  36              		.cfi_def_cfa_offset 16
  37              		.cfi_offset 3, -16
  38              		.cfi_offset 4, -12
  39              		.cfi_offset 5, -8
  40              		.cfi_offset 14, -4
ARM GAS  D:\Temp\cc42SHz2.s 			page 10


  41 0002 0446     		mov	r4, r0
  42 0004 0D46     		mov	r5, r1
 475:lvgl/src/lv_widgets/lv_gauge.c ****     LV_ASSERT_OBJ(gauge, LV_OBJX_NAME);
  43              		.loc 1 475 5 is_stmt 1 view .LVU2
  44              		.loc 1 475 5 view .LVU3
  45 0006 FFF7FEFF 		bl	lv_debug_check_null
  46              	.LVL1:
  47              		.loc 1 475 5 is_stmt 0 view .LVU4
  48 000a 28B9     		cbnz	r0, .L2
  49              		.loc 1 475 5 is_stmt 1 discriminator 1 view .LVU5
  50              		.loc 1 475 5 discriminator 1 view .LVU6
  51 000c 2246     		mov	r2, r4
  52 000e 0023     		movs	r3, #0
  53 0010 0A48     		ldr	r0, .L9
  54 0012 FFF7FEFF 		bl	lv_debug_log_error
  55              	.LVL2:
  56              	.L3:
  57              		.loc 1 475 5 discriminator 1 view .LVU7
  58              		.loc 1 475 5 discriminator 1 view .LVU8
  59 0016 FEE7     		b	.L3
  60              	.L2:
  61              		.loc 1 475 39 discriminator 2 view .LVU9
 476:lvgl/src/lv_widgets/lv_gauge.c **** 
 477:lvgl/src/lv_widgets/lv_gauge.c ****     lv_gauge_ext_t * ext = lv_obj_get_ext_attr(gauge);
  62              		.loc 1 477 5 discriminator 2 view .LVU10
  63              		.loc 1 477 28 is_stmt 0 discriminator 2 view .LVU11
  64 0018 2046     		mov	r0, r4
  65 001a FFF7FEFF 		bl	lv_obj_get_ext_attr
  66              	.LVL3:
 478:lvgl/src/lv_widgets/lv_gauge.c ****     lv_style_list_t * style_dsc_p;
  67              		.loc 1 478 5 is_stmt 1 discriminator 2 view .LVU12
 479:lvgl/src/lv_widgets/lv_gauge.c **** 
 480:lvgl/src/lv_widgets/lv_gauge.c ****     switch(part) {
  68              		.loc 1 480 5 discriminator 2 view .LVU13
  69 001e 012D     		cmp	r5, #1
  70 0020 08D0     		beq	.L4
  71              		.loc 1 480 5 is_stmt 0 view .LVU14
  72 0022 6BB2     		sxtb	r3, r5
  73 0024 1BB1     		cbz	r3, .L5
  74 0026 022D     		cmp	r5, #2
  75 0028 06D0     		beq	.L6
 481:lvgl/src/lv_widgets/lv_gauge.c ****         case LV_GAUGE_PART_MAIN:
 482:lvgl/src/lv_widgets/lv_gauge.c ****             style_dsc_p = &gauge->style_list;
 483:lvgl/src/lv_widgets/lv_gauge.c ****             break;
 484:lvgl/src/lv_widgets/lv_gauge.c ****         case LV_GAUGE_PART_MAJOR:
 485:lvgl/src/lv_widgets/lv_gauge.c ****             style_dsc_p = &ext->style_strong;
 486:lvgl/src/lv_widgets/lv_gauge.c ****             break;
 487:lvgl/src/lv_widgets/lv_gauge.c ****         case LV_GAUGE_PART_NEEDLE:
 488:lvgl/src/lv_widgets/lv_gauge.c ****             style_dsc_p = &ext->style_needle;
 489:lvgl/src/lv_widgets/lv_gauge.c ****             break;
 490:lvgl/src/lv_widgets/lv_gauge.c ****         default:
 491:lvgl/src/lv_widgets/lv_gauge.c ****             style_dsc_p = NULL;
  76              		.loc 1 491 25 view .LVU15
  77 002a 0020     		movs	r0, #0
  78              	.LVL4:
  79              	.L1:
 492:lvgl/src/lv_widgets/lv_gauge.c ****     }
ARM GAS  D:\Temp\cc42SHz2.s 			page 11


 493:lvgl/src/lv_widgets/lv_gauge.c **** 
 494:lvgl/src/lv_widgets/lv_gauge.c ****     return style_dsc_p;
 495:lvgl/src/lv_widgets/lv_gauge.c **** }
  80              		.loc 1 495 1 view .LVU16
  81 002c 38BD     		pop	{r3, r4, r5, pc}
  82              	.LVL5:
  83              	.L5:
 482:lvgl/src/lv_widgets/lv_gauge.c ****             break;
  84              		.loc 1 482 13 is_stmt 1 view .LVU17
 482:lvgl/src/lv_widgets/lv_gauge.c ****             break;
  85              		.loc 1 482 25 is_stmt 0 view .LVU18
  86 002e 04F12800 		add	r0, r4, #40
  87              	.LVL6:
 483:lvgl/src/lv_widgets/lv_gauge.c ****         case LV_GAUGE_PART_MAJOR:
  88              		.loc 1 483 13 is_stmt 1 view .LVU19
  89 0032 FBE7     		b	.L1
  90              	.LVL7:
  91              	.L4:
 485:lvgl/src/lv_widgets/lv_gauge.c ****             break;
  92              		.loc 1 485 13 view .LVU20
 485:lvgl/src/lv_widgets/lv_gauge.c ****             break;
  93              		.loc 1 485 25 is_stmt 0 view .LVU21
  94 0034 3030     		adds	r0, r0, #48
  95              	.LVL8:
 486:lvgl/src/lv_widgets/lv_gauge.c ****         case LV_GAUGE_PART_NEEDLE:
  96              		.loc 1 486 13 is_stmt 1 view .LVU22
  97 0036 F9E7     		b	.L1
  98              	.LVL9:
  99              	.L6:
 488:lvgl/src/lv_widgets/lv_gauge.c ****             break;
 100              		.loc 1 488 13 view .LVU23
 488:lvgl/src/lv_widgets/lv_gauge.c ****             break;
 101              		.loc 1 488 25 is_stmt 0 view .LVU24
 102 0038 2830     		adds	r0, r0, #40
 103              	.LVL10:
 489:lvgl/src/lv_widgets/lv_gauge.c ****         default:
 104              		.loc 1 489 13 is_stmt 1 view .LVU25
 494:lvgl/src/lv_widgets/lv_gauge.c **** }
 105              		.loc 1 494 5 view .LVU26
 494:lvgl/src/lv_widgets/lv_gauge.c **** }
 106              		.loc 1 494 12 is_stmt 0 view .LVU27
 107 003a F7E7     		b	.L1
 108              	.L10:
 109              		.align	2
 110              	.L9:
 111 003c 00000000 		.word	.LC0
 112              		.cfi_endproc
 113              	.LFE484:
 115              		.section	.text.lv_gauge_draw_labels,"ax",%progbits
 116              		.align	1
 117              		.syntax unified
 118              		.thumb
 119              		.thumb_func
 120              		.fpu fpv4-sp-d16
 122              	lv_gauge_draw_labels:
 123              	.LVL11:
 124              	.LFB485:
ARM GAS  D:\Temp\cc42SHz2.s 			page 12


 496:lvgl/src/lv_widgets/lv_gauge.c **** /**
 497:lvgl/src/lv_widgets/lv_gauge.c ****  * Draw the scale on a gauge
 498:lvgl/src/lv_widgets/lv_gauge.c ****  * @param gauge pointer to gauge object
 499:lvgl/src/lv_widgets/lv_gauge.c ****  * @param mask mask of drawing
 500:lvgl/src/lv_widgets/lv_gauge.c ****  */
 501:lvgl/src/lv_widgets/lv_gauge.c **** static void lv_gauge_draw_labels(lv_obj_t * gauge, const lv_area_t * mask)
 502:lvgl/src/lv_widgets/lv_gauge.c **** {
 125              		.loc 1 502 1 is_stmt 1 view -0
 126              		.cfi_startproc
 127              		@ args = 0, pretend = 0, frame = 96
 128              		@ frame_needed = 0, uses_anonymous_args = 0
 129              		.loc 1 502 1 is_stmt 0 view .LVU29
 130 0000 2DE9F04F 		push	{r4, r5, r6, r7, r8, r9, r10, fp, lr}
 131              	.LCFI1:
 132              		.cfi_def_cfa_offset 36
 133              		.cfi_offset 4, -36
 134              		.cfi_offset 5, -32
 135              		.cfi_offset 6, -28
 136              		.cfi_offset 7, -24
 137              		.cfi_offset 8, -20
 138              		.cfi_offset 9, -16
 139              		.cfi_offset 10, -12
 140              		.cfi_offset 11, -8
 141              		.cfi_offset 14, -4
 142 0004 9DB0     		sub	sp, sp, #116
 143              	.LCFI2:
 144              		.cfi_def_cfa_offset 152
 145 0006 8146     		mov	r9, r0
 146 0008 0B90     		str	r0, [sp, #44]
 147 000a 0A91     		str	r1, [sp, #40]
 503:lvgl/src/lv_widgets/lv_gauge.c ****     lv_gauge_ext_t * ext     = lv_obj_get_ext_attr(gauge);
 148              		.loc 1 503 5 is_stmt 1 view .LVU30
 149              		.loc 1 503 32 is_stmt 0 view .LVU31
 150 000c FFF7FEFF 		bl	lv_obj_get_ext_attr
 151              	.LVL12:
 152              		.loc 1 503 32 view .LVU32
 153 0010 8246     		mov	r10, r0
 154 0012 0890     		str	r0, [sp, #32]
 155              	.LVL13:
 504:lvgl/src/lv_widgets/lv_gauge.c ****     lv_style_int_t scale_width = lv_obj_get_style_scale_width(gauge, LV_GAUGE_PART_MAJOR);
 156              		.loc 1 504 5 is_stmt 1 view .LVU33
 157              	.LBB58:
 158              	.LBI58:
 159              		.file 2 "lvgl/src/lv_widgets/../lv_core/lv_obj_style_dec.h"
   1:lvgl/src/lv_widgets/../lv_core/lv_obj_style_dec.h **** 
   2:lvgl/src/lv_widgets/../lv_core/lv_obj_style_dec.h **** /**
   3:lvgl/src/lv_widgets/../lv_core/lv_obj_style_dec.h ****  * @file lv_obj_style_dec.h
   4:lvgl/src/lv_widgets/../lv_core/lv_obj_style_dec.h ****  *
   5:lvgl/src/lv_widgets/../lv_core/lv_obj_style_dec.h ****  */
   6:lvgl/src/lv_widgets/../lv_core/lv_obj_style_dec.h **** 
   7:lvgl/src/lv_widgets/../lv_core/lv_obj_style_dec.h **** #ifndef LV_OBJ_STYLE_DEC_H
   8:lvgl/src/lv_widgets/../lv_core/lv_obj_style_dec.h **** #define LV_OBJ_STYLE_DEC_H
   9:lvgl/src/lv_widgets/../lv_core/lv_obj_style_dec.h **** 
  10:lvgl/src/lv_widgets/../lv_core/lv_obj_style_dec.h **** #ifdef __cplusplus
  11:lvgl/src/lv_widgets/../lv_core/lv_obj_style_dec.h **** extern "C" {
  12:lvgl/src/lv_widgets/../lv_core/lv_obj_style_dec.h **** #endif
  13:lvgl/src/lv_widgets/../lv_core/lv_obj_style_dec.h **** 
ARM GAS  D:\Temp\cc42SHz2.s 			page 13


  14:lvgl/src/lv_widgets/../lv_core/lv_obj_style_dec.h **** /*********************
  15:lvgl/src/lv_widgets/../lv_core/lv_obj_style_dec.h ****  *      DEFINES
  16:lvgl/src/lv_widgets/../lv_core/lv_obj_style_dec.h ****  *********************/
  17:lvgl/src/lv_widgets/../lv_core/lv_obj_style_dec.h **** 
  18:lvgl/src/lv_widgets/../lv_core/lv_obj_style_dec.h **** /**
  19:lvgl/src/lv_widgets/../lv_core/lv_obj_style_dec.h ****  * Macro to declare the most important style set/get API functions.
  20:lvgl/src/lv_widgets/../lv_core/lv_obj_style_dec.h ****  *
  21:lvgl/src/lv_widgets/../lv_core/lv_obj_style_dec.h ****  * Get the value of a style property from an object in the object's current state
  22:lvgl/src/lv_widgets/../lv_core/lv_obj_style_dec.h ****  * -----------------------------------------------------------------------------
  23:lvgl/src/lv_widgets/../lv_core/lv_obj_style_dec.h ****  *  - Get the value of a style property from an object in the object's current state.
  24:lvgl/src/lv_widgets/../lv_core/lv_obj_style_dec.h ****  *  - Transition animation is taken into account.
  25:lvgl/src/lv_widgets/../lv_core/lv_obj_style_dec.h ****  *  - If the property is not set in the object's styles check the parent(s) if the property can be 
  26:lvgl/src/lv_widgets/../lv_core/lv_obj_style_dec.h ****  *  - If still not found return a default value.
  27:lvgl/src/lv_widgets/../lv_core/lv_obj_style_dec.h ****  *  - For example:
  28:lvgl/src/lv_widgets/../lv_core/lv_obj_style_dec.h ****  *      `lv_style_int_t w = lv_obj_get_style_border_width(btn1, LV_BTN_PART_MAIN);`
  29:lvgl/src/lv_widgets/../lv_core/lv_obj_style_dec.h ****  *
  30:lvgl/src/lv_widgets/../lv_core/lv_obj_style_dec.h ****  * Set a local style property for an object in a given state
  31:lvgl/src/lv_widgets/../lv_core/lv_obj_style_dec.h ****  * ---------------------------------------------------------
  32:lvgl/src/lv_widgets/../lv_core/lv_obj_style_dec.h ****  *  - For example:
  33:lvgl/src/lv_widgets/../lv_core/lv_obj_style_dec.h ****  *      `lv_obj_set_style_local_border_width(btn1, LV_BTN_PART_MAIN, LV_STATE_PRESSED, 2);`
  34:lvgl/src/lv_widgets/../lv_core/lv_obj_style_dec.h ****  *
  35:lvgl/src/lv_widgets/../lv_core/lv_obj_style_dec.h ****  * Get a local style property's value of an object in a given state
  36:lvgl/src/lv_widgets/../lv_core/lv_obj_style_dec.h ****  * ----------------------------------------------------------------
  37:lvgl/src/lv_widgets/../lv_core/lv_obj_style_dec.h ****  *  - Return the best matching property in the given state.
  38:lvgl/src/lv_widgets/../lv_core/lv_obj_style_dec.h ****  *  - E.g. if `state` parameter is LV_STATE_PRESSED | LV_STATE_CHECKED` but the property defined on
  39:lvgl/src/lv_widgets/../lv_core/lv_obj_style_dec.h ****  *    `LV_STATE_PRESSED` and `LV_STATE_DEFAULT` the best matching state is `LV_STATE_PRESSED`
  40:lvgl/src/lv_widgets/../lv_core/lv_obj_style_dec.h ****  *    (because it has higher precedence) and it will be returned.
  41:lvgl/src/lv_widgets/../lv_core/lv_obj_style_dec.h ****  *  - If the property is not found even in `LV_STATE_DEFAULT` `-1` is returned.
  42:lvgl/src/lv_widgets/../lv_core/lv_obj_style_dec.h ****  *  - For example:
  43:lvgl/src/lv_widgets/../lv_core/lv_obj_style_dec.h ****  *      `//Type of result should be lv_style_int_t/lv_opa_t/lv_color_t/const void * according to th
  44:lvgl/src/lv_widgets/../lv_core/lv_obj_style_dec.h ****  *      `lv_style_int_t result;`
  45:lvgl/src/lv_widgets/../lv_core/lv_obj_style_dec.h ****  *      `lv_obj_get_style_local_border_width(btn1, LV_BTN_PART_MAIN, LV_STATE_PRESSED, &result);`
  46:lvgl/src/lv_widgets/../lv_core/lv_obj_style_dec.h ****  *      `if(weight > 0) ...the property is found and loaded into result...`
  47:lvgl/src/lv_widgets/../lv_core/lv_obj_style_dec.h ****  *
  48:lvgl/src/lv_widgets/../lv_core/lv_obj_style_dec.h ****  * Get the value from a style in a given state
  49:lvgl/src/lv_widgets/../lv_core/lv_obj_style_dec.h ****  * -------------------------------------------
  50:lvgl/src/lv_widgets/../lv_core/lv_obj_style_dec.h ****  * - The same rules applies to the return value then for "lv_obj_get_style_local_...()" above
  51:lvgl/src/lv_widgets/../lv_core/lv_obj_style_dec.h ****  * - For example
  52:lvgl/src/lv_widgets/../lv_core/lv_obj_style_dec.h ****  *      `int16_t weight = lv_style_get_border_width(&style1, LV_STATE_PRESSED, &result);`
  53:lvgl/src/lv_widgets/../lv_core/lv_obj_style_dec.h ****  *      `if(weight > 0) ...the property is found and loaded into result...`
  54:lvgl/src/lv_widgets/../lv_core/lv_obj_style_dec.h **** 
  55:lvgl/src/lv_widgets/../lv_core/lv_obj_style_dec.h ****  * Set a value in a style in a given state
  56:lvgl/src/lv_widgets/../lv_core/lv_obj_style_dec.h ****  * ---------------------------------------
  57:lvgl/src/lv_widgets/../lv_core/lv_obj_style_dec.h ****  * - For example
  58:lvgl/src/lv_widgets/../lv_core/lv_obj_style_dec.h ****  *      `lv_style_set_border_width(&style1, LV_STATE_PRESSED, 2);`
  59:lvgl/src/lv_widgets/../lv_core/lv_obj_style_dec.h ****  */
  60:lvgl/src/lv_widgets/../lv_core/lv_obj_style_dec.h **** 
  61:lvgl/src/lv_widgets/../lv_core/lv_obj_style_dec.h **** #define _OBJ_GET_STYLE_scalar(prop_name, func_name, value_type, style_type)                        
  62:lvgl/src/lv_widgets/../lv_core/lv_obj_style_dec.h ****     static inline value_type lv_obj_get_style_##func_name (const lv_obj_t * obj, uint8_t part)     
  63:lvgl/src/lv_widgets/../lv_core/lv_obj_style_dec.h ****     {                                                                                              
  64:lvgl/src/lv_widgets/../lv_core/lv_obj_style_dec.h ****         return (value_type) _lv_obj_get_style##style_type (obj, part, LV_STYLE_##prop_name);       
  65:lvgl/src/lv_widgets/../lv_core/lv_obj_style_dec.h ****     }
  66:lvgl/src/lv_widgets/../lv_core/lv_obj_style_dec.h **** 
  67:lvgl/src/lv_widgets/../lv_core/lv_obj_style_dec.h **** #define _OBJ_GET_STYLE_nonscalar(prop_name, func_name, value_type, style_type)                     
  68:lvgl/src/lv_widgets/../lv_core/lv_obj_style_dec.h ****     static inline value_type lv_obj_get_style_##func_name (const lv_obj_t * obj, uint8_t part)     
  69:lvgl/src/lv_widgets/../lv_core/lv_obj_style_dec.h ****     {                                                                                              
  70:lvgl/src/lv_widgets/../lv_core/lv_obj_style_dec.h ****         return _lv_obj_get_style##style_type (obj, part, LV_STYLE_##prop_name);                    
ARM GAS  D:\Temp\cc42SHz2.s 			page 14


  71:lvgl/src/lv_widgets/../lv_core/lv_obj_style_dec.h ****     }
  72:lvgl/src/lv_widgets/../lv_core/lv_obj_style_dec.h **** 
  73:lvgl/src/lv_widgets/../lv_core/lv_obj_style_dec.h **** #define _OBJ_SET_STYLE_LOCAL_scalar(prop_name, func_name, value_type, style_type)                  
  74:lvgl/src/lv_widgets/../lv_core/lv_obj_style_dec.h ****     static inline void lv_obj_set_style_local_##func_name (lv_obj_t * obj, uint8_t part, lv_state_t
  75:lvgl/src/lv_widgets/../lv_core/lv_obj_style_dec.h ****     {                                                                                              
  76:lvgl/src/lv_widgets/../lv_core/lv_obj_style_dec.h ****         _lv_obj_set_style_local##style_type (obj, part, LV_STYLE_##prop_name | (state << LV_STYLE_S
  77:lvgl/src/lv_widgets/../lv_core/lv_obj_style_dec.h ****     }
  78:lvgl/src/lv_widgets/../lv_core/lv_obj_style_dec.h **** 
  79:lvgl/src/lv_widgets/../lv_core/lv_obj_style_dec.h **** #define _OBJ_SET_STYLE_LOCAL_nonscalar(prop_name, func_name, value_type, style_type)               
  80:lvgl/src/lv_widgets/../lv_core/lv_obj_style_dec.h ****     static inline void lv_obj_set_style_local_##func_name (lv_obj_t * obj, uint8_t part, lv_state_t
  81:lvgl/src/lv_widgets/../lv_core/lv_obj_style_dec.h ****     {                                                                                              
  82:lvgl/src/lv_widgets/../lv_core/lv_obj_style_dec.h ****         _lv_obj_set_style_local##style_type (obj, part, LV_STYLE_##prop_name | (state << LV_STYLE_S
  83:lvgl/src/lv_widgets/../lv_core/lv_obj_style_dec.h ****     }
  84:lvgl/src/lv_widgets/../lv_core/lv_obj_style_dec.h **** 
  85:lvgl/src/lv_widgets/../lv_core/lv_obj_style_dec.h **** #define _OBJ_SET_STYLE_scalar(prop_name, func_name, value_type, style_type)                        
  86:lvgl/src/lv_widgets/../lv_core/lv_obj_style_dec.h ****     static inline void lv_style_set_##func_name (lv_style_t * style, lv_state_t state, value_type v
  87:lvgl/src/lv_widgets/../lv_core/lv_obj_style_dec.h ****     {                                                                                              
  88:lvgl/src/lv_widgets/../lv_core/lv_obj_style_dec.h ****         _lv_style_set##style_type (style, LV_STYLE_##prop_name | (state << LV_STYLE_STATE_POS), val
  89:lvgl/src/lv_widgets/../lv_core/lv_obj_style_dec.h ****     }
  90:lvgl/src/lv_widgets/../lv_core/lv_obj_style_dec.h **** 
  91:lvgl/src/lv_widgets/../lv_core/lv_obj_style_dec.h **** #define _OBJ_SET_STYLE_nonscalar(prop_name, func_name, value_type, style_type)                     
  92:lvgl/src/lv_widgets/../lv_core/lv_obj_style_dec.h ****     static inline void lv_style_set_##func_name (lv_style_t * style, lv_state_t state, value_type v
  93:lvgl/src/lv_widgets/../lv_core/lv_obj_style_dec.h ****     {                                                                                              
  94:lvgl/src/lv_widgets/../lv_core/lv_obj_style_dec.h ****         _lv_style_set##style_type (style, LV_STYLE_##prop_name | (state << LV_STYLE_STATE_POS), val
  95:lvgl/src/lv_widgets/../lv_core/lv_obj_style_dec.h ****     }
  96:lvgl/src/lv_widgets/../lv_core/lv_obj_style_dec.h **** 
  97:lvgl/src/lv_widgets/../lv_core/lv_obj_style_dec.h **** #define _LV_OBJ_STYLE_SET_GET_DECLARE(prop_name, func_name, value_type, style_type, scalar)        
  98:lvgl/src/lv_widgets/../lv_core/lv_obj_style_dec.h ****     _OBJ_GET_STYLE_##scalar(prop_name, func_name, value_type, style_type)                          
  99:lvgl/src/lv_widgets/../lv_core/lv_obj_style_dec.h ****     _OBJ_SET_STYLE_LOCAL_##scalar(prop_name, func_name, value_type, style_type)                    
 100:lvgl/src/lv_widgets/../lv_core/lv_obj_style_dec.h ****     _OBJ_SET_STYLE_##scalar(prop_name, func_name, value_type, style_type)
 101:lvgl/src/lv_widgets/../lv_core/lv_obj_style_dec.h **** 
 102:lvgl/src/lv_widgets/../lv_core/lv_obj_style_dec.h **** _LV_OBJ_STYLE_SET_GET_DECLARE(RADIUS, radius, lv_style_int_t, _int, scalar)
 103:lvgl/src/lv_widgets/../lv_core/lv_obj_style_dec.h **** _LV_OBJ_STYLE_SET_GET_DECLARE(CLIP_CORNER, clip_corner, bool, _int, scalar)
 104:lvgl/src/lv_widgets/../lv_core/lv_obj_style_dec.h **** _LV_OBJ_STYLE_SET_GET_DECLARE(SIZE, size, lv_style_int_t, _int, scalar)
 105:lvgl/src/lv_widgets/../lv_core/lv_obj_style_dec.h **** _LV_OBJ_STYLE_SET_GET_DECLARE(TRANSFORM_WIDTH, transform_width, lv_style_int_t, _int, scalar)
 106:lvgl/src/lv_widgets/../lv_core/lv_obj_style_dec.h **** _LV_OBJ_STYLE_SET_GET_DECLARE(TRANSFORM_HEIGHT, transform_height, lv_style_int_t, _int, scalar)
 107:lvgl/src/lv_widgets/../lv_core/lv_obj_style_dec.h **** _LV_OBJ_STYLE_SET_GET_DECLARE(TRANSFORM_ANGLE, transform_angle, lv_style_int_t, _int, scalar)
 108:lvgl/src/lv_widgets/../lv_core/lv_obj_style_dec.h **** _LV_OBJ_STYLE_SET_GET_DECLARE(TRANSFORM_ZOOM, transform_zoom, lv_style_int_t, _int, scalar)
 109:lvgl/src/lv_widgets/../lv_core/lv_obj_style_dec.h **** _LV_OBJ_STYLE_SET_GET_DECLARE(OPA_SCALE, opa_scale, lv_opa_t, _opa, scalar)
 110:lvgl/src/lv_widgets/../lv_core/lv_obj_style_dec.h **** _LV_OBJ_STYLE_SET_GET_DECLARE(PAD_TOP, pad_top, lv_style_int_t, _int, scalar)
 111:lvgl/src/lv_widgets/../lv_core/lv_obj_style_dec.h **** _LV_OBJ_STYLE_SET_GET_DECLARE(PAD_BOTTOM, pad_bottom, lv_style_int_t, _int, scalar)
 112:lvgl/src/lv_widgets/../lv_core/lv_obj_style_dec.h **** _LV_OBJ_STYLE_SET_GET_DECLARE(PAD_LEFT, pad_left, lv_style_int_t, _int, scalar)
 113:lvgl/src/lv_widgets/../lv_core/lv_obj_style_dec.h **** _LV_OBJ_STYLE_SET_GET_DECLARE(PAD_RIGHT, pad_right, lv_style_int_t, _int, scalar)
 114:lvgl/src/lv_widgets/../lv_core/lv_obj_style_dec.h **** _LV_OBJ_STYLE_SET_GET_DECLARE(PAD_INNER, pad_inner, lv_style_int_t, _int, scalar)
 115:lvgl/src/lv_widgets/../lv_core/lv_obj_style_dec.h **** _LV_OBJ_STYLE_SET_GET_DECLARE(MARGIN_TOP, margin_top, lv_style_int_t, _int, scalar)
 116:lvgl/src/lv_widgets/../lv_core/lv_obj_style_dec.h **** _LV_OBJ_STYLE_SET_GET_DECLARE(MARGIN_BOTTOM, margin_bottom, lv_style_int_t, _int, scalar)
 117:lvgl/src/lv_widgets/../lv_core/lv_obj_style_dec.h **** _LV_OBJ_STYLE_SET_GET_DECLARE(MARGIN_LEFT, margin_left, lv_style_int_t, _int, scalar)
 118:lvgl/src/lv_widgets/../lv_core/lv_obj_style_dec.h **** _LV_OBJ_STYLE_SET_GET_DECLARE(MARGIN_RIGHT, margin_right, lv_style_int_t, _int, scalar)
 119:lvgl/src/lv_widgets/../lv_core/lv_obj_style_dec.h **** _LV_OBJ_STYLE_SET_GET_DECLARE(BG_BLEND_MODE, bg_blend_mode, lv_blend_mode_t, _int, scalar)
 120:lvgl/src/lv_widgets/../lv_core/lv_obj_style_dec.h **** _LV_OBJ_STYLE_SET_GET_DECLARE(BG_MAIN_STOP, bg_main_stop, lv_style_int_t, _int, scalar)
 121:lvgl/src/lv_widgets/../lv_core/lv_obj_style_dec.h **** _LV_OBJ_STYLE_SET_GET_DECLARE(BG_GRAD_STOP, bg_grad_stop, lv_style_int_t, _int, scalar)
 122:lvgl/src/lv_widgets/../lv_core/lv_obj_style_dec.h **** _LV_OBJ_STYLE_SET_GET_DECLARE(BG_GRAD_DIR, bg_grad_dir, lv_grad_dir_t, _int, scalar)
 123:lvgl/src/lv_widgets/../lv_core/lv_obj_style_dec.h **** _LV_OBJ_STYLE_SET_GET_DECLARE(BG_COLOR, bg_color, lv_color_t, _color, nonscalar)
 124:lvgl/src/lv_widgets/../lv_core/lv_obj_style_dec.h **** _LV_OBJ_STYLE_SET_GET_DECLARE(BG_GRAD_COLOR, bg_grad_color, lv_color_t, _color, nonscalar)
 125:lvgl/src/lv_widgets/../lv_core/lv_obj_style_dec.h **** _LV_OBJ_STYLE_SET_GET_DECLARE(BG_OPA, bg_opa, lv_opa_t, _opa, scalar)
 126:lvgl/src/lv_widgets/../lv_core/lv_obj_style_dec.h **** _LV_OBJ_STYLE_SET_GET_DECLARE(BORDER_WIDTH, border_width, lv_style_int_t, _int, scalar)
 127:lvgl/src/lv_widgets/../lv_core/lv_obj_style_dec.h **** _LV_OBJ_STYLE_SET_GET_DECLARE(BORDER_SIDE, border_side, lv_border_side_t, _int, scalar)
ARM GAS  D:\Temp\cc42SHz2.s 			page 15


 128:lvgl/src/lv_widgets/../lv_core/lv_obj_style_dec.h **** _LV_OBJ_STYLE_SET_GET_DECLARE(BORDER_BLEND_MODE, border_blend_mode, lv_blend_mode_t, _int, scalar)
 129:lvgl/src/lv_widgets/../lv_core/lv_obj_style_dec.h **** _LV_OBJ_STYLE_SET_GET_DECLARE(BORDER_POST, border_post, bool, _int, scalar)
 130:lvgl/src/lv_widgets/../lv_core/lv_obj_style_dec.h **** _LV_OBJ_STYLE_SET_GET_DECLARE(BORDER_COLOR, border_color, lv_color_t, _color, nonscalar)
 131:lvgl/src/lv_widgets/../lv_core/lv_obj_style_dec.h **** _LV_OBJ_STYLE_SET_GET_DECLARE(BORDER_OPA, border_opa, lv_opa_t, _opa, scalar)
 132:lvgl/src/lv_widgets/../lv_core/lv_obj_style_dec.h **** _LV_OBJ_STYLE_SET_GET_DECLARE(OUTLINE_WIDTH, outline_width, lv_style_int_t, _int, scalar)
 133:lvgl/src/lv_widgets/../lv_core/lv_obj_style_dec.h **** _LV_OBJ_STYLE_SET_GET_DECLARE(OUTLINE_PAD, outline_pad, lv_style_int_t, _int, scalar)
 134:lvgl/src/lv_widgets/../lv_core/lv_obj_style_dec.h **** _LV_OBJ_STYLE_SET_GET_DECLARE(OUTLINE_BLEND_MODE, outline_blend_mode, lv_blend_mode_t, _int, scalar
 135:lvgl/src/lv_widgets/../lv_core/lv_obj_style_dec.h **** _LV_OBJ_STYLE_SET_GET_DECLARE(OUTLINE_COLOR, outline_color, lv_color_t, _color, nonscalar)
 136:lvgl/src/lv_widgets/../lv_core/lv_obj_style_dec.h **** _LV_OBJ_STYLE_SET_GET_DECLARE(OUTLINE_OPA, outline_opa, lv_opa_t, _opa, scalar)
 137:lvgl/src/lv_widgets/../lv_core/lv_obj_style_dec.h **** _LV_OBJ_STYLE_SET_GET_DECLARE(SHADOW_WIDTH, shadow_width, lv_style_int_t, _int, scalar)
 138:lvgl/src/lv_widgets/../lv_core/lv_obj_style_dec.h **** _LV_OBJ_STYLE_SET_GET_DECLARE(SHADOW_OFS_X, shadow_ofs_x, lv_style_int_t, _int, scalar)
 139:lvgl/src/lv_widgets/../lv_core/lv_obj_style_dec.h **** _LV_OBJ_STYLE_SET_GET_DECLARE(SHADOW_OFS_Y, shadow_ofs_y, lv_style_int_t, _int, scalar)
 140:lvgl/src/lv_widgets/../lv_core/lv_obj_style_dec.h **** _LV_OBJ_STYLE_SET_GET_DECLARE(SHADOW_SPREAD, shadow_spread, lv_style_int_t, _int, scalar)
 141:lvgl/src/lv_widgets/../lv_core/lv_obj_style_dec.h **** _LV_OBJ_STYLE_SET_GET_DECLARE(SHADOW_BLEND_MODE, shadow_blend_mode, lv_blend_mode_t, _int, scalar)
 142:lvgl/src/lv_widgets/../lv_core/lv_obj_style_dec.h **** _LV_OBJ_STYLE_SET_GET_DECLARE(SHADOW_COLOR, shadow_color, lv_color_t, _color, nonscalar)
 143:lvgl/src/lv_widgets/../lv_core/lv_obj_style_dec.h **** _LV_OBJ_STYLE_SET_GET_DECLARE(SHADOW_OPA, shadow_opa, lv_opa_t, _opa, scalar)
 144:lvgl/src/lv_widgets/../lv_core/lv_obj_style_dec.h **** _LV_OBJ_STYLE_SET_GET_DECLARE(PATTERN_REPEAT, pattern_repeat, bool, _int, scalar)
 145:lvgl/src/lv_widgets/../lv_core/lv_obj_style_dec.h **** _LV_OBJ_STYLE_SET_GET_DECLARE(PATTERN_BLEND_MODE, pattern_blend_mode, lv_blend_mode_t, _int, scalar
 146:lvgl/src/lv_widgets/../lv_core/lv_obj_style_dec.h **** _LV_OBJ_STYLE_SET_GET_DECLARE(PATTERN_RECOLOR, pattern_recolor, lv_color_t, _color, nonscalar)
 147:lvgl/src/lv_widgets/../lv_core/lv_obj_style_dec.h **** _LV_OBJ_STYLE_SET_GET_DECLARE(PATTERN_OPA, pattern_opa, lv_opa_t, _opa, scalar)
 148:lvgl/src/lv_widgets/../lv_core/lv_obj_style_dec.h **** _LV_OBJ_STYLE_SET_GET_DECLARE(PATTERN_RECOLOR_OPA, pattern_recolor_opa, lv_opa_t, _opa, scalar)
 149:lvgl/src/lv_widgets/../lv_core/lv_obj_style_dec.h **** _LV_OBJ_STYLE_SET_GET_DECLARE(PATTERN_IMAGE, pattern_image, const void *, _ptr, scalar)
 150:lvgl/src/lv_widgets/../lv_core/lv_obj_style_dec.h **** _LV_OBJ_STYLE_SET_GET_DECLARE(VALUE_LETTER_SPACE, value_letter_space, lv_style_int_t, _int, scalar)
 151:lvgl/src/lv_widgets/../lv_core/lv_obj_style_dec.h **** _LV_OBJ_STYLE_SET_GET_DECLARE(VALUE_LINE_SPACE, value_line_space, lv_style_int_t, _int, scalar)
 152:lvgl/src/lv_widgets/../lv_core/lv_obj_style_dec.h **** _LV_OBJ_STYLE_SET_GET_DECLARE(VALUE_BLEND_MODE, value_blend_mode, lv_blend_mode_t, _int, scalar)
 153:lvgl/src/lv_widgets/../lv_core/lv_obj_style_dec.h **** _LV_OBJ_STYLE_SET_GET_DECLARE(VALUE_OFS_X, value_ofs_x, lv_style_int_t, _int, scalar)
 154:lvgl/src/lv_widgets/../lv_core/lv_obj_style_dec.h **** _LV_OBJ_STYLE_SET_GET_DECLARE(VALUE_OFS_Y, value_ofs_y, lv_style_int_t, _int, scalar)
 155:lvgl/src/lv_widgets/../lv_core/lv_obj_style_dec.h **** _LV_OBJ_STYLE_SET_GET_DECLARE(VALUE_ALIGN, value_align, lv_align_t, _int, scalar)
 156:lvgl/src/lv_widgets/../lv_core/lv_obj_style_dec.h **** _LV_OBJ_STYLE_SET_GET_DECLARE(VALUE_COLOR, value_color, lv_color_t, _color, nonscalar)
 157:lvgl/src/lv_widgets/../lv_core/lv_obj_style_dec.h **** _LV_OBJ_STYLE_SET_GET_DECLARE(VALUE_OPA, value_opa, lv_opa_t, _opa, scalar)
 158:lvgl/src/lv_widgets/../lv_core/lv_obj_style_dec.h **** _LV_OBJ_STYLE_SET_GET_DECLARE(VALUE_FONT, value_font, const lv_font_t *, _ptr, scalar)
 159:lvgl/src/lv_widgets/../lv_core/lv_obj_style_dec.h **** _LV_OBJ_STYLE_SET_GET_DECLARE(VALUE_STR, value_str, const char *, _ptr, scalar)
 160:lvgl/src/lv_widgets/../lv_core/lv_obj_style_dec.h **** _LV_OBJ_STYLE_SET_GET_DECLARE(TEXT_LETTER_SPACE, text_letter_space, lv_style_int_t, _int, scalar)
 161:lvgl/src/lv_widgets/../lv_core/lv_obj_style_dec.h **** _LV_OBJ_STYLE_SET_GET_DECLARE(TEXT_LINE_SPACE, text_line_space, lv_style_int_t, _int, scalar)
 162:lvgl/src/lv_widgets/../lv_core/lv_obj_style_dec.h **** _LV_OBJ_STYLE_SET_GET_DECLARE(TEXT_DECOR, text_decor, lv_text_decor_t, _int, scalar)
 163:lvgl/src/lv_widgets/../lv_core/lv_obj_style_dec.h **** _LV_OBJ_STYLE_SET_GET_DECLARE(TEXT_BLEND_MODE, text_blend_mode, lv_blend_mode_t, _int, scalar)
 164:lvgl/src/lv_widgets/../lv_core/lv_obj_style_dec.h **** _LV_OBJ_STYLE_SET_GET_DECLARE(TEXT_COLOR, text_color, lv_color_t, _color, nonscalar)
 165:lvgl/src/lv_widgets/../lv_core/lv_obj_style_dec.h **** _LV_OBJ_STYLE_SET_GET_DECLARE(TEXT_SEL_COLOR, text_sel_color, lv_color_t, _color, nonscalar)
 166:lvgl/src/lv_widgets/../lv_core/lv_obj_style_dec.h **** _LV_OBJ_STYLE_SET_GET_DECLARE(TEXT_SEL_BG_COLOR, text_sel_bg_color, lv_color_t, _color, nonscalar)
 167:lvgl/src/lv_widgets/../lv_core/lv_obj_style_dec.h **** _LV_OBJ_STYLE_SET_GET_DECLARE(TEXT_OPA, text_opa, lv_opa_t, _opa, scalar)
 168:lvgl/src/lv_widgets/../lv_core/lv_obj_style_dec.h **** _LV_OBJ_STYLE_SET_GET_DECLARE(TEXT_FONT, text_font, const lv_font_t *, _ptr, scalar)
 169:lvgl/src/lv_widgets/../lv_core/lv_obj_style_dec.h **** _LV_OBJ_STYLE_SET_GET_DECLARE(LINE_WIDTH, line_width, lv_style_int_t, _int, scalar)
 170:lvgl/src/lv_widgets/../lv_core/lv_obj_style_dec.h **** _LV_OBJ_STYLE_SET_GET_DECLARE(LINE_BLEND_MODE, line_blend_mode, lv_blend_mode_t, _int, scalar)
 171:lvgl/src/lv_widgets/../lv_core/lv_obj_style_dec.h **** _LV_OBJ_STYLE_SET_GET_DECLARE(LINE_DASH_WIDTH, line_dash_width, lv_style_int_t, _int, scalar)
 172:lvgl/src/lv_widgets/../lv_core/lv_obj_style_dec.h **** _LV_OBJ_STYLE_SET_GET_DECLARE(LINE_DASH_GAP, line_dash_gap, lv_style_int_t, _int, scalar)
 173:lvgl/src/lv_widgets/../lv_core/lv_obj_style_dec.h **** _LV_OBJ_STYLE_SET_GET_DECLARE(LINE_ROUNDED, line_rounded, bool, _int, scalar)
 174:lvgl/src/lv_widgets/../lv_core/lv_obj_style_dec.h **** _LV_OBJ_STYLE_SET_GET_DECLARE(LINE_COLOR, line_color, lv_color_t, _color, nonscalar)
 175:lvgl/src/lv_widgets/../lv_core/lv_obj_style_dec.h **** _LV_OBJ_STYLE_SET_GET_DECLARE(LINE_OPA, line_opa, lv_opa_t, _opa, scalar)
 176:lvgl/src/lv_widgets/../lv_core/lv_obj_style_dec.h **** _LV_OBJ_STYLE_SET_GET_DECLARE(IMAGE_BLEND_MODE, image_blend_mode, lv_blend_mode_t, _int, scalar)
 177:lvgl/src/lv_widgets/../lv_core/lv_obj_style_dec.h **** _LV_OBJ_STYLE_SET_GET_DECLARE(IMAGE_RECOLOR, image_recolor, lv_color_t, _color, nonscalar)
 178:lvgl/src/lv_widgets/../lv_core/lv_obj_style_dec.h **** _LV_OBJ_STYLE_SET_GET_DECLARE(IMAGE_OPA, image_opa, lv_opa_t, _opa, scalar)
 179:lvgl/src/lv_widgets/../lv_core/lv_obj_style_dec.h **** _LV_OBJ_STYLE_SET_GET_DECLARE(IMAGE_RECOLOR_OPA, image_recolor_opa, lv_opa_t, _opa, scalar)
 180:lvgl/src/lv_widgets/../lv_core/lv_obj_style_dec.h **** _LV_OBJ_STYLE_SET_GET_DECLARE(TRANSITION_TIME, transition_time, lv_style_int_t, _int, scalar)
 181:lvgl/src/lv_widgets/../lv_core/lv_obj_style_dec.h **** _LV_OBJ_STYLE_SET_GET_DECLARE(TRANSITION_DELAY, transition_delay, lv_style_int_t, _int, scalar)
 182:lvgl/src/lv_widgets/../lv_core/lv_obj_style_dec.h **** _LV_OBJ_STYLE_SET_GET_DECLARE(TRANSITION_PROP_1, transition_prop_1, lv_style_int_t, _int, scalar)
 183:lvgl/src/lv_widgets/../lv_core/lv_obj_style_dec.h **** _LV_OBJ_STYLE_SET_GET_DECLARE(TRANSITION_PROP_2, transition_prop_2, lv_style_int_t, _int, scalar)
 184:lvgl/src/lv_widgets/../lv_core/lv_obj_style_dec.h **** _LV_OBJ_STYLE_SET_GET_DECLARE(TRANSITION_PROP_3, transition_prop_3, lv_style_int_t, _int, scalar)
ARM GAS  D:\Temp\cc42SHz2.s 			page 16


 185:lvgl/src/lv_widgets/../lv_core/lv_obj_style_dec.h **** _LV_OBJ_STYLE_SET_GET_DECLARE(TRANSITION_PROP_4, transition_prop_4, lv_style_int_t, _int, scalar)
 186:lvgl/src/lv_widgets/../lv_core/lv_obj_style_dec.h **** _LV_OBJ_STYLE_SET_GET_DECLARE(TRANSITION_PROP_5, transition_prop_5, lv_style_int_t, _int, scalar)
 187:lvgl/src/lv_widgets/../lv_core/lv_obj_style_dec.h **** _LV_OBJ_STYLE_SET_GET_DECLARE(TRANSITION_PROP_6, transition_prop_6, lv_style_int_t, _int, scalar)
 188:lvgl/src/lv_widgets/../lv_core/lv_obj_style_dec.h **** #if LV_USE_ANIMATION
 189:lvgl/src/lv_widgets/../lv_core/lv_obj_style_dec.h **** _LV_OBJ_STYLE_SET_GET_DECLARE(TRANSITION_PATH, transition_path, lv_anim_path_t *, _ptr, scalar)
 190:lvgl/src/lv_widgets/../lv_core/lv_obj_style_dec.h **** #else
 191:lvgl/src/lv_widgets/../lv_core/lv_obj_style_dec.h **** /*For compatibility*/
 192:lvgl/src/lv_widgets/../lv_core/lv_obj_style_dec.h **** _LV_OBJ_STYLE_SET_GET_DECLARE(TRANSITION_PATH, transition_path, const void *, _ptr, scalar)
 193:lvgl/src/lv_widgets/../lv_core/lv_obj_style_dec.h **** #endif
 194:lvgl/src/lv_widgets/../lv_core/lv_obj_style_dec.h **** _LV_OBJ_STYLE_SET_GET_DECLARE(SCALE_WIDTH, scale_width, lv_style_int_t, _int, scalar)
 160              		.loc 2 194 1 view .LVU34
 161              	.LBB59:
 162              		.loc 2 194 1 view .LVU35
 163 0014 C022     		movs	r2, #192
 164 0016 0121     		movs	r1, #1
 165 0018 4846     		mov	r0, r9
 166              	.LVL14:
 167              		.loc 2 194 1 is_stmt 0 view .LVU36
 168 001a FFF7FEFF 		bl	_lv_obj_get_style_int
 169              	.LVL15:
 170 001e 0746     		mov	r7, r0
 171              	.LVL16:
 172              		.loc 2 194 1 view .LVU37
 173              	.LBE59:
 174              	.LBE58:
 505:lvgl/src/lv_widgets/lv_gauge.c ****     lv_style_int_t left = lv_obj_get_style_pad_left(gauge, LV_GAUGE_PART_MAIN);
 175              		.loc 1 505 5 is_stmt 1 view .LVU38
 176              	.LBB60:
 177              	.LBI60:
 112:lvgl/src/lv_widgets/../lv_core/lv_obj_style_dec.h **** _LV_OBJ_STYLE_SET_GET_DECLARE(PAD_RIGHT, pad_right, lv_style_int_t, _int, scalar)
 178              		.loc 2 112 1 view .LVU39
 179              	.LBB61:
 112:lvgl/src/lv_widgets/../lv_core/lv_obj_style_dec.h **** _LV_OBJ_STYLE_SET_GET_DECLARE(PAD_RIGHT, pad_right, lv_style_int_t, _int, scalar)
 180              		.loc 2 112 1 view .LVU40
 181 0020 1222     		movs	r2, #18
 182 0022 0021     		movs	r1, #0
 183 0024 4846     		mov	r0, r9
 184 0026 FFF7FEFF 		bl	_lv_obj_get_style_int
 185              	.LVL17:
 186 002a 0546     		mov	r5, r0
 187              	.LVL18:
 112:lvgl/src/lv_widgets/../lv_core/lv_obj_style_dec.h **** _LV_OBJ_STYLE_SET_GET_DECLARE(PAD_RIGHT, pad_right, lv_style_int_t, _int, scalar)
 188              		.loc 2 112 1 is_stmt 0 view .LVU41
 189              	.LBE61:
 190              	.LBE60:
 506:lvgl/src/lv_widgets/lv_gauge.c ****     lv_style_int_t right = lv_obj_get_style_pad_right(gauge, LV_GAUGE_PART_MAIN);
 191              		.loc 1 506 5 is_stmt 1 view .LVU42
 192              	.LBB62:
 193              	.LBI62:
 113:lvgl/src/lv_widgets/../lv_core/lv_obj_style_dec.h **** _LV_OBJ_STYLE_SET_GET_DECLARE(PAD_INNER, pad_inner, lv_style_int_t, _int, scalar)
 194              		.loc 2 113 1 view .LVU43
 195              	.LBB63:
 113:lvgl/src/lv_widgets/../lv_core/lv_obj_style_dec.h **** _LV_OBJ_STYLE_SET_GET_DECLARE(PAD_INNER, pad_inner, lv_style_int_t, _int, scalar)
 196              		.loc 2 113 1 view .LVU44
 197 002c 1322     		movs	r2, #19
 198 002e 0021     		movs	r1, #0
 199 0030 4846     		mov	r0, r9
ARM GAS  D:\Temp\cc42SHz2.s 			page 17


 200 0032 FFF7FEFF 		bl	_lv_obj_get_style_int
 201              	.LVL19:
 202 0036 8046     		mov	r8, r0
 203              	.LVL20:
 113:lvgl/src/lv_widgets/../lv_core/lv_obj_style_dec.h **** _LV_OBJ_STYLE_SET_GET_DECLARE(PAD_INNER, pad_inner, lv_style_int_t, _int, scalar)
 204              		.loc 2 113 1 is_stmt 0 view .LVU45
 205              	.LBE63:
 206              	.LBE62:
 507:lvgl/src/lv_widgets/lv_gauge.c ****     lv_style_int_t top = lv_obj_get_style_pad_top(gauge, LV_GAUGE_PART_MAIN);
 207              		.loc 1 507 5 is_stmt 1 view .LVU46
 208              	.LBB64:
 209              	.LBI64:
 110:lvgl/src/lv_widgets/../lv_core/lv_obj_style_dec.h **** _LV_OBJ_STYLE_SET_GET_DECLARE(PAD_BOTTOM, pad_bottom, lv_style_int_t, _int, scalar)
 210              		.loc 2 110 1 view .LVU47
 211              	.LBB65:
 110:lvgl/src/lv_widgets/../lv_core/lv_obj_style_dec.h **** _LV_OBJ_STYLE_SET_GET_DECLARE(PAD_BOTTOM, pad_bottom, lv_style_int_t, _int, scalar)
 212              		.loc 2 110 1 view .LVU48
 213 0038 1022     		movs	r2, #16
 214 003a 0021     		movs	r1, #0
 215 003c 4846     		mov	r0, r9
 216 003e FFF7FEFF 		bl	_lv_obj_get_style_int
 217              	.LVL21:
 218 0042 0446     		mov	r4, r0
 219              	.LVL22:
 110:lvgl/src/lv_widgets/../lv_core/lv_obj_style_dec.h **** _LV_OBJ_STYLE_SET_GET_DECLARE(PAD_BOTTOM, pad_bottom, lv_style_int_t, _int, scalar)
 220              		.loc 2 110 1 is_stmt 0 view .LVU49
 221              	.LBE65:
 222              	.LBE64:
 508:lvgl/src/lv_widgets/lv_gauge.c ****     lv_style_int_t txt_pad = lv_obj_get_style_pad_inner(gauge, LV_GAUGE_PART_MAIN);
 223              		.loc 1 508 5 is_stmt 1 view .LVU50
 224              	.LBB66:
 225              	.LBI66:
 114:lvgl/src/lv_widgets/../lv_core/lv_obj_style_dec.h **** _LV_OBJ_STYLE_SET_GET_DECLARE(MARGIN_TOP, margin_top, lv_style_int_t, _int, scalar)
 226              		.loc 2 114 1 view .LVU51
 227              	.LBB67:
 114:lvgl/src/lv_widgets/../lv_core/lv_obj_style_dec.h **** _LV_OBJ_STYLE_SET_GET_DECLARE(MARGIN_TOP, margin_top, lv_style_int_t, _int, scalar)
 228              		.loc 2 114 1 view .LVU52
 229 0044 1422     		movs	r2, #20
 230 0046 0021     		movs	r1, #0
 231 0048 4846     		mov	r0, r9
 232 004a FFF7FEFF 		bl	_lv_obj_get_style_int
 233              	.LVL23:
 234 004e 0646     		mov	r6, r0
 235              	.LVL24:
 114:lvgl/src/lv_widgets/../lv_core/lv_obj_style_dec.h **** _LV_OBJ_STYLE_SET_GET_DECLARE(MARGIN_TOP, margin_top, lv_style_int_t, _int, scalar)
 236              		.loc 2 114 1 is_stmt 0 view .LVU53
 237              	.LBE67:
 238              	.LBE66:
 509:lvgl/src/lv_widgets/lv_gauge.c ****     lv_coord_t r             = (lv_obj_get_width(gauge) - left - right) / 2 - scale_width - txt_pad
 239              		.loc 1 509 5 is_stmt 1 view .LVU54
 240              		.loc 1 509 33 is_stmt 0 view .LVU55
 241 0050 4846     		mov	r0, r9
 242 0052 FFF7FEFF 		bl	lv_obj_get_width
 243              	.LVL25:
 244              		.loc 1 509 57 view .LVU56
 245 0056 401B     		subs	r0, r0, r5
 246              		.loc 1 509 64 view .LVU57
ARM GAS  D:\Temp\cc42SHz2.s 			page 18


 247 0058 A0EB0800 		sub	r0, r0, r8
 248              		.loc 1 509 73 view .LVU58
 249 005c 00EBD070 		add	r0, r0, r0, lsr #31
 250              		.loc 1 509 77 view .LVU59
 251 0060 BFB2     		uxth	r7, r7
 252              		.loc 1 509 77 view .LVU60
 253 0062 C7EB6003 		rsb	r3, r7, r0, asr #1
 254 0066 9BB2     		uxth	r3, r3
 255              		.loc 1 509 91 view .LVU61
 256 0068 B6B2     		uxth	r6, r6
 257              		.loc 1 509 91 view .LVU62
 258 006a 9B1B     		subs	r3, r3, r6
 259 006c 9BB2     		uxth	r3, r3
 260              		.loc 1 509 16 view .LVU63
 261 006e 0FFA83FB 		sxth	fp, r3
 262              	.LVL26:
 510:lvgl/src/lv_widgets/lv_gauge.c ****     lv_coord_t x_ofs         = gauge->coords.x1 + r + left + scale_width + txt_pad;
 263              		.loc 1 510 5 is_stmt 1 view .LVU64
 264              		.loc 1 510 45 is_stmt 0 view .LVU65
 265 0072 B9F81020 		ldrh	r2, [r9, #16]
 266              		.loc 1 510 49 view .LVU66
 267 0076 1A44     		add	r2, r2, r3
 268              		.loc 1 510 53 view .LVU67
 269 0078 15FA82F5 		uxtah	r5, r5, r2
 270              	.LVL27:
 271              		.loc 1 510 60 view .LVU68
 272 007c 17FA85F5 		uxtah	r5, r7, r5
 273              		.loc 1 510 74 view .LVU69
 274 0080 16FA85F5 		uxtah	r5, r6, r5
 275 0084 AAB2     		uxth	r2, r5
 276 0086 0492     		str	r2, [sp, #16]
 277              	.LVL28:
 511:lvgl/src/lv_widgets/lv_gauge.c ****     lv_coord_t y_ofs         = gauge->coords.y1 + r + top + scale_width + txt_pad;
 278              		.loc 1 511 5 is_stmt 1 view .LVU70
 279              		.loc 1 511 45 is_stmt 0 view .LVU71
 280 0088 B9F81220 		ldrh	r2, [r9, #18]
 281              		.loc 1 511 49 view .LVU72
 282 008c 1344     		add	r3, r3, r2
 283              		.loc 1 511 53 view .LVU73
 284 008e 14FA83F4 		uxtah	r4, r4, r3
 285              	.LVL29:
 286              		.loc 1 511 59 view .LVU74
 287 0092 17FA84F4 		uxtah	r4, r7, r4
 288              		.loc 1 511 73 view .LVU75
 289 0096 16FA84F6 		uxtah	r6, r6, r4
 290              	.LVL30:
 291              		.loc 1 511 73 view .LVU76
 292 009a B3B2     		uxth	r3, r6
 293 009c 0593     		str	r3, [sp, #20]
 294              	.LVL31:
 512:lvgl/src/lv_widgets/lv_gauge.c ****     int16_t scale_angle      = lv_linemeter_get_scale_angle(gauge);
 295              		.loc 1 512 5 is_stmt 1 view .LVU77
 296              		.loc 1 512 32 is_stmt 0 view .LVU78
 297 009e 4D46     		mov	r5, r9
 298 00a0 4846     		mov	r0, r9
 299 00a2 FFF7FEFF 		bl	lv_linemeter_get_scale_angle
 300              	.LVL32:
ARM GAS  D:\Temp\cc42SHz2.s 			page 19


 301              		.loc 1 512 13 view .LVU79
 302 00a6 04B2     		sxth	r4, r0
 303              	.LVL33:
 513:lvgl/src/lv_widgets/lv_gauge.c ****     uint16_t label_num       = ext->label_count;
 304              		.loc 1 513 5 is_stmt 1 view .LVU80
 305              		.loc 1 513 35 is_stmt 0 view .LVU81
 306 00a8 9AF83990 		ldrb	r9, [r10, #57]	@ zero_extendqisi2
 307              	.LVL34:
 514:lvgl/src/lv_widgets/lv_gauge.c ****     int16_t angle_ofs        = 90 + (360 - scale_angle) / 2 + lv_gauge_get_angle_offset(gauge);
 308              		.loc 1 514 5 is_stmt 1 view .LVU82
 309              		.loc 1 514 42 is_stmt 0 view .LVU83
 310 00ac 0694     		str	r4, [sp, #24]
 311 00ae C4F5B474 		rsb	r4, r4, #360
 312              	.LVL35:
 313              		.loc 1 514 57 view .LVU84
 314 00b2 04EBD474 		add	r4, r4, r4, lsr #31
 315 00b6 6410     		asrs	r4, r4, #1
 316              	.LVL36:
 317              	.LBB68:
 318              	.LBI68:
 319              		.file 3 "lvgl/src/lv_widgets/lv_gauge.h"
   1:lvgl/src/lv_widgets/lv_gauge.h **** /**
   2:lvgl/src/lv_widgets/lv_gauge.h ****  * @file lv_gauge.h
   3:lvgl/src/lv_widgets/lv_gauge.h ****  *
   4:lvgl/src/lv_widgets/lv_gauge.h ****  */
   5:lvgl/src/lv_widgets/lv_gauge.h **** 
   6:lvgl/src/lv_widgets/lv_gauge.h **** #ifndef LV_GAUGE_H
   7:lvgl/src/lv_widgets/lv_gauge.h **** #define LV_GAUGE_H
   8:lvgl/src/lv_widgets/lv_gauge.h **** 
   9:lvgl/src/lv_widgets/lv_gauge.h **** #ifdef __cplusplus
  10:lvgl/src/lv_widgets/lv_gauge.h **** extern "C" {
  11:lvgl/src/lv_widgets/lv_gauge.h **** #endif
  12:lvgl/src/lv_widgets/lv_gauge.h **** 
  13:lvgl/src/lv_widgets/lv_gauge.h **** /*********************
  14:lvgl/src/lv_widgets/lv_gauge.h ****  *      INCLUDES
  15:lvgl/src/lv_widgets/lv_gauge.h ****  *********************/
  16:lvgl/src/lv_widgets/lv_gauge.h **** #include "../lv_conf_internal.h"
  17:lvgl/src/lv_widgets/lv_gauge.h **** 
  18:lvgl/src/lv_widgets/lv_gauge.h **** #if LV_USE_GAUGE != 0
  19:lvgl/src/lv_widgets/lv_gauge.h **** 
  20:lvgl/src/lv_widgets/lv_gauge.h **** /*Testing of dependencies*/
  21:lvgl/src/lv_widgets/lv_gauge.h **** #if LV_USE_LINEMETER == 0
  22:lvgl/src/lv_widgets/lv_gauge.h **** #error "lv_gauge: lv_linemeter is required. Enable it in lv_conf.h (LV_USE_LINEMETER 1)"
  23:lvgl/src/lv_widgets/lv_gauge.h **** #endif
  24:lvgl/src/lv_widgets/lv_gauge.h **** 
  25:lvgl/src/lv_widgets/lv_gauge.h **** #include "../lv_core/lv_obj.h"
  26:lvgl/src/lv_widgets/lv_gauge.h **** #include "lv_linemeter.h"
  27:lvgl/src/lv_widgets/lv_gauge.h **** #include "lv_label.h"
  28:lvgl/src/lv_widgets/lv_gauge.h **** #include "lv_line.h"
  29:lvgl/src/lv_widgets/lv_gauge.h **** 
  30:lvgl/src/lv_widgets/lv_gauge.h **** /*********************
  31:lvgl/src/lv_widgets/lv_gauge.h ****  *      DEFINES
  32:lvgl/src/lv_widgets/lv_gauge.h ****  *********************/
  33:lvgl/src/lv_widgets/lv_gauge.h **** 
  34:lvgl/src/lv_widgets/lv_gauge.h **** /**********************
  35:lvgl/src/lv_widgets/lv_gauge.h ****  *      TYPEDEFS
  36:lvgl/src/lv_widgets/lv_gauge.h ****  **********************/
ARM GAS  D:\Temp\cc42SHz2.s 			page 20


  37:lvgl/src/lv_widgets/lv_gauge.h **** 
  38:lvgl/src/lv_widgets/lv_gauge.h **** typedef void (*lv_gauge_format_cb_t)(lv_obj_t * gauge, char * buf, int bufsize, int32_t value);
  39:lvgl/src/lv_widgets/lv_gauge.h **** 
  40:lvgl/src/lv_widgets/lv_gauge.h **** /*Data of gauge*/
  41:lvgl/src/lv_widgets/lv_gauge.h **** typedef struct {
  42:lvgl/src/lv_widgets/lv_gauge.h ****     lv_linemeter_ext_t lmeter; /*Ext. of ancestor*/
  43:lvgl/src/lv_widgets/lv_gauge.h ****     /*New data for this type */
  44:lvgl/src/lv_widgets/lv_gauge.h ****     int32_t * values;        /*Array of the set values (for needles) */
  45:lvgl/src/lv_widgets/lv_gauge.h ****     const lv_color_t * needle_colors; /*Color of the needles (lv_color_t my_colors[needle_num])*/
  46:lvgl/src/lv_widgets/lv_gauge.h ****     const void * needle_img;
  47:lvgl/src/lv_widgets/lv_gauge.h ****     lv_point_t needle_img_pivot;
  48:lvgl/src/lv_widgets/lv_gauge.h ****     lv_style_list_t style_needle;
  49:lvgl/src/lv_widgets/lv_gauge.h ****     lv_style_list_t style_strong;
  50:lvgl/src/lv_widgets/lv_gauge.h ****     uint8_t needle_count;             /*Number of needles*/
  51:lvgl/src/lv_widgets/lv_gauge.h ****     uint8_t label_count;              /*Number of labels on the scale*/
  52:lvgl/src/lv_widgets/lv_gauge.h ****     lv_gauge_format_cb_t format_cb;
  53:lvgl/src/lv_widgets/lv_gauge.h **** } lv_gauge_ext_t;
  54:lvgl/src/lv_widgets/lv_gauge.h **** 
  55:lvgl/src/lv_widgets/lv_gauge.h **** /*Styles*/
  56:lvgl/src/lv_widgets/lv_gauge.h **** enum {
  57:lvgl/src/lv_widgets/lv_gauge.h ****     LV_GAUGE_PART_MAIN = LV_LINEMETER_PART_MAIN,
  58:lvgl/src/lv_widgets/lv_gauge.h ****     LV_GAUGE_PART_MAJOR = _LV_LINEMETER_PART_VIRTUAL_LAST,
  59:lvgl/src/lv_widgets/lv_gauge.h ****     LV_GAUGE_PART_NEEDLE,
  60:lvgl/src/lv_widgets/lv_gauge.h ****     _LV_GAUGE_PART_VIRTUAL_LAST = _LV_LINEMETER_PART_VIRTUAL_LAST,
  61:lvgl/src/lv_widgets/lv_gauge.h ****     _LV_GAUGE_PART_REAL_LAST = _LV_LINEMETER_PART_REAL_LAST,
  62:lvgl/src/lv_widgets/lv_gauge.h **** };
  63:lvgl/src/lv_widgets/lv_gauge.h **** typedef uint8_t lv_gauge_style_t;
  64:lvgl/src/lv_widgets/lv_gauge.h **** 
  65:lvgl/src/lv_widgets/lv_gauge.h **** /**********************
  66:lvgl/src/lv_widgets/lv_gauge.h ****  * GLOBAL PROTOTYPES
  67:lvgl/src/lv_widgets/lv_gauge.h ****  **********************/
  68:lvgl/src/lv_widgets/lv_gauge.h **** 
  69:lvgl/src/lv_widgets/lv_gauge.h **** /**
  70:lvgl/src/lv_widgets/lv_gauge.h ****  * Create a gauge objects
  71:lvgl/src/lv_widgets/lv_gauge.h ****  * @param par pointer to an object, it will be the parent of the new gauge
  72:lvgl/src/lv_widgets/lv_gauge.h ****  * @param copy pointer to a gauge object, if not NULL then the new object will be copied from it
  73:lvgl/src/lv_widgets/lv_gauge.h ****  * @return pointer to the created gauge
  74:lvgl/src/lv_widgets/lv_gauge.h ****  */
  75:lvgl/src/lv_widgets/lv_gauge.h **** lv_obj_t * lv_gauge_create(lv_obj_t * par, const lv_obj_t * copy);
  76:lvgl/src/lv_widgets/lv_gauge.h **** 
  77:lvgl/src/lv_widgets/lv_gauge.h **** /*=====================
  78:lvgl/src/lv_widgets/lv_gauge.h ****  * Setter functions
  79:lvgl/src/lv_widgets/lv_gauge.h ****  *====================*/
  80:lvgl/src/lv_widgets/lv_gauge.h **** 
  81:lvgl/src/lv_widgets/lv_gauge.h **** /**
  82:lvgl/src/lv_widgets/lv_gauge.h ****  * Set the number of needles
  83:lvgl/src/lv_widgets/lv_gauge.h ****  * @param gauge pointer to gauge object
  84:lvgl/src/lv_widgets/lv_gauge.h ****  * @param needle_cnt new count of needles
  85:lvgl/src/lv_widgets/lv_gauge.h ****  * @param colors an array of colors for needles (with 'num' elements)
  86:lvgl/src/lv_widgets/lv_gauge.h ****  */
  87:lvgl/src/lv_widgets/lv_gauge.h **** void lv_gauge_set_needle_count(lv_obj_t * gauge, uint8_t needle_cnt, const lv_color_t colors[]);
  88:lvgl/src/lv_widgets/lv_gauge.h **** 
  89:lvgl/src/lv_widgets/lv_gauge.h **** /**
  90:lvgl/src/lv_widgets/lv_gauge.h ****  * Set the value of a needle
  91:lvgl/src/lv_widgets/lv_gauge.h ****  * @param gauge pointer to a gauge
  92:lvgl/src/lv_widgets/lv_gauge.h ****  * @param needle_id the id of the needle
  93:lvgl/src/lv_widgets/lv_gauge.h ****  * @param value the new value
ARM GAS  D:\Temp\cc42SHz2.s 			page 21


  94:lvgl/src/lv_widgets/lv_gauge.h ****  */
  95:lvgl/src/lv_widgets/lv_gauge.h **** void lv_gauge_set_value(lv_obj_t * gauge, uint8_t needle_id, int32_t value);
  96:lvgl/src/lv_widgets/lv_gauge.h **** 
  97:lvgl/src/lv_widgets/lv_gauge.h **** /**
  98:lvgl/src/lv_widgets/lv_gauge.h ****  * Set minimum and the maximum values of a gauge
  99:lvgl/src/lv_widgets/lv_gauge.h ****  * @param gauge pointer to he gauge object
 100:lvgl/src/lv_widgets/lv_gauge.h ****  * @param min minimum value
 101:lvgl/src/lv_widgets/lv_gauge.h ****  * @param max maximum value
 102:lvgl/src/lv_widgets/lv_gauge.h ****  */
 103:lvgl/src/lv_widgets/lv_gauge.h **** static inline void lv_gauge_set_range(lv_obj_t * gauge, int32_t min, int32_t max)
 104:lvgl/src/lv_widgets/lv_gauge.h **** {
 105:lvgl/src/lv_widgets/lv_gauge.h ****     lv_linemeter_set_range(gauge, min, max);
 106:lvgl/src/lv_widgets/lv_gauge.h **** }
 107:lvgl/src/lv_widgets/lv_gauge.h **** 
 108:lvgl/src/lv_widgets/lv_gauge.h **** /**
 109:lvgl/src/lv_widgets/lv_gauge.h ****  * Set a critical value on the scale. After this value 'line.color' scale lines will be drawn
 110:lvgl/src/lv_widgets/lv_gauge.h ****  * @param gauge pointer to a gauge object
 111:lvgl/src/lv_widgets/lv_gauge.h ****  * @param value the critical value
 112:lvgl/src/lv_widgets/lv_gauge.h ****  */
 113:lvgl/src/lv_widgets/lv_gauge.h **** static inline void lv_gauge_set_critical_value(lv_obj_t * gauge, int32_t value)
 114:lvgl/src/lv_widgets/lv_gauge.h **** {
 115:lvgl/src/lv_widgets/lv_gauge.h ****     lv_linemeter_set_value(gauge, value);
 116:lvgl/src/lv_widgets/lv_gauge.h **** }
 117:lvgl/src/lv_widgets/lv_gauge.h **** 
 118:lvgl/src/lv_widgets/lv_gauge.h **** /**
 119:lvgl/src/lv_widgets/lv_gauge.h ****  * Set the scale settings of a gauge
 120:lvgl/src/lv_widgets/lv_gauge.h ****  * @param gauge pointer to a gauge object
 121:lvgl/src/lv_widgets/lv_gauge.h ****  * @param angle angle of the scale (0..360)
 122:lvgl/src/lv_widgets/lv_gauge.h ****  * @param line_cnt count of scale lines.
 123:lvgl/src/lv_widgets/lv_gauge.h ****  * To get a given "subdivision" lines between labels:
 124:lvgl/src/lv_widgets/lv_gauge.h ****  * `line_cnt = (sub_div + 1) * (label_cnt - 1) + 1 `
 125:lvgl/src/lv_widgets/lv_gauge.h ****  * @param label_cnt count of scale labels.
 126:lvgl/src/lv_widgets/lv_gauge.h ****  */
 127:lvgl/src/lv_widgets/lv_gauge.h **** void lv_gauge_set_scale(lv_obj_t * gauge, uint16_t angle, uint8_t line_cnt, uint8_t label_cnt);
 128:lvgl/src/lv_widgets/lv_gauge.h **** 
 129:lvgl/src/lv_widgets/lv_gauge.h **** /**
 130:lvgl/src/lv_widgets/lv_gauge.h ****  * Set the set an offset for the gauge's angles to rotate it.
 131:lvgl/src/lv_widgets/lv_gauge.h ****  * @param gauge pointer to a line meter object
 132:lvgl/src/lv_widgets/lv_gauge.h ****  * @param angle angle offset (0..360), rotates clockwise
 133:lvgl/src/lv_widgets/lv_gauge.h ****  */
 134:lvgl/src/lv_widgets/lv_gauge.h **** static inline void lv_gauge_set_angle_offset(lv_obj_t * gauge, uint16_t angle)
 135:lvgl/src/lv_widgets/lv_gauge.h **** {
 136:lvgl/src/lv_widgets/lv_gauge.h ****     lv_linemeter_set_angle_offset(gauge, angle);
 137:lvgl/src/lv_widgets/lv_gauge.h **** }
 138:lvgl/src/lv_widgets/lv_gauge.h **** 
 139:lvgl/src/lv_widgets/lv_gauge.h **** /**
 140:lvgl/src/lv_widgets/lv_gauge.h ****  * Set an image to display as needle(s).
 141:lvgl/src/lv_widgets/lv_gauge.h ****  * The needle image should be horizontal and pointing to the right (`--->`).
 142:lvgl/src/lv_widgets/lv_gauge.h ****  * @param gauge pointer to a gauge object
 143:lvgl/src/lv_widgets/lv_gauge.h ****  * @param img_src pointer to an `lv_img_dsc_t` variable or a path to an image
 144:lvgl/src/lv_widgets/lv_gauge.h ****  *        (not an `lv_img` object)
 145:lvgl/src/lv_widgets/lv_gauge.h ****  * @param pivot_x the X coordinate of rotation center of the image
 146:lvgl/src/lv_widgets/lv_gauge.h ****  * @param pivot_y the Y coordinate of rotation center of the image
 147:lvgl/src/lv_widgets/lv_gauge.h ****  */
 148:lvgl/src/lv_widgets/lv_gauge.h **** void lv_gauge_set_needle_img(lv_obj_t * gauge, const void * img, lv_coord_t pivot_x, lv_coord_t piv
 149:lvgl/src/lv_widgets/lv_gauge.h **** 
 150:lvgl/src/lv_widgets/lv_gauge.h **** /**
ARM GAS  D:\Temp\cc42SHz2.s 			page 22


 151:lvgl/src/lv_widgets/lv_gauge.h ****  * Assign a function to format gauge values
 152:lvgl/src/lv_widgets/lv_gauge.h ****  * @param gauge pointer to a gauge object
 153:lvgl/src/lv_widgets/lv_gauge.h ****  * @param format_cb pointer to function of lv_gauge_format_cb_t
 154:lvgl/src/lv_widgets/lv_gauge.h ****  */
 155:lvgl/src/lv_widgets/lv_gauge.h **** void lv_gauge_set_formatter_cb(lv_obj_t * gauge, lv_gauge_format_cb_t format_cb);
 156:lvgl/src/lv_widgets/lv_gauge.h **** 
 157:lvgl/src/lv_widgets/lv_gauge.h **** /*=====================
 158:lvgl/src/lv_widgets/lv_gauge.h ****  * Getter functions
 159:lvgl/src/lv_widgets/lv_gauge.h ****  *====================*/
 160:lvgl/src/lv_widgets/lv_gauge.h **** 
 161:lvgl/src/lv_widgets/lv_gauge.h **** /**
 162:lvgl/src/lv_widgets/lv_gauge.h ****  * Get the value of a needle
 163:lvgl/src/lv_widgets/lv_gauge.h ****  * @param gauge pointer to gauge object
 164:lvgl/src/lv_widgets/lv_gauge.h ****  * @param needle the id of the needle
 165:lvgl/src/lv_widgets/lv_gauge.h ****  * @return the value of the needle [min,max]
 166:lvgl/src/lv_widgets/lv_gauge.h ****  */
 167:lvgl/src/lv_widgets/lv_gauge.h **** int32_t lv_gauge_get_value(const lv_obj_t * gauge, uint8_t needle);
 168:lvgl/src/lv_widgets/lv_gauge.h **** 
 169:lvgl/src/lv_widgets/lv_gauge.h **** /**
 170:lvgl/src/lv_widgets/lv_gauge.h ****  * Get the count of needles on a gauge
 171:lvgl/src/lv_widgets/lv_gauge.h ****  * @param gauge pointer to gauge
 172:lvgl/src/lv_widgets/lv_gauge.h ****  * @return count of needles
 173:lvgl/src/lv_widgets/lv_gauge.h ****  */
 174:lvgl/src/lv_widgets/lv_gauge.h **** uint8_t lv_gauge_get_needle_count(const lv_obj_t * gauge);
 175:lvgl/src/lv_widgets/lv_gauge.h **** 
 176:lvgl/src/lv_widgets/lv_gauge.h **** /**
 177:lvgl/src/lv_widgets/lv_gauge.h ****  * Get the minimum value of a gauge
 178:lvgl/src/lv_widgets/lv_gauge.h ****  * @param gauge pointer to a gauge object
 179:lvgl/src/lv_widgets/lv_gauge.h ****  * @return the minimum value of the gauge
 180:lvgl/src/lv_widgets/lv_gauge.h ****  */
 181:lvgl/src/lv_widgets/lv_gauge.h **** static inline int32_t lv_gauge_get_min_value(const lv_obj_t * lmeter)
 182:lvgl/src/lv_widgets/lv_gauge.h **** {
 183:lvgl/src/lv_widgets/lv_gauge.h ****     return lv_linemeter_get_min_value(lmeter);
 184:lvgl/src/lv_widgets/lv_gauge.h **** }
 185:lvgl/src/lv_widgets/lv_gauge.h **** 
 186:lvgl/src/lv_widgets/lv_gauge.h **** /**
 187:lvgl/src/lv_widgets/lv_gauge.h ****  * Get the maximum value of a gauge
 188:lvgl/src/lv_widgets/lv_gauge.h ****  * @param gauge pointer to a gauge object
 189:lvgl/src/lv_widgets/lv_gauge.h ****  * @return the maximum value of the gauge
 190:lvgl/src/lv_widgets/lv_gauge.h ****  */
 191:lvgl/src/lv_widgets/lv_gauge.h **** static inline int32_t lv_gauge_get_max_value(const lv_obj_t * lmeter)
 192:lvgl/src/lv_widgets/lv_gauge.h **** {
 193:lvgl/src/lv_widgets/lv_gauge.h ****     return lv_linemeter_get_max_value(lmeter);
 194:lvgl/src/lv_widgets/lv_gauge.h **** }
 195:lvgl/src/lv_widgets/lv_gauge.h **** 
 196:lvgl/src/lv_widgets/lv_gauge.h **** /**
 197:lvgl/src/lv_widgets/lv_gauge.h ****  * Get a critical value on the scale.
 198:lvgl/src/lv_widgets/lv_gauge.h ****  * @param gauge pointer to a gauge object
 199:lvgl/src/lv_widgets/lv_gauge.h ****  * @return the critical value
 200:lvgl/src/lv_widgets/lv_gauge.h ****  */
 201:lvgl/src/lv_widgets/lv_gauge.h **** static inline int32_t lv_gauge_get_critical_value(const lv_obj_t * gauge)
 202:lvgl/src/lv_widgets/lv_gauge.h **** {
 203:lvgl/src/lv_widgets/lv_gauge.h ****     return lv_linemeter_get_value(gauge);
 204:lvgl/src/lv_widgets/lv_gauge.h **** }
 205:lvgl/src/lv_widgets/lv_gauge.h **** 
 206:lvgl/src/lv_widgets/lv_gauge.h **** /**
 207:lvgl/src/lv_widgets/lv_gauge.h ****  * Set the number of labels (and the thicker lines too)
ARM GAS  D:\Temp\cc42SHz2.s 			page 23


 208:lvgl/src/lv_widgets/lv_gauge.h ****  * @param gauge pointer to a gauge object
 209:lvgl/src/lv_widgets/lv_gauge.h ****  * @return count of labels
 210:lvgl/src/lv_widgets/lv_gauge.h ****  */
 211:lvgl/src/lv_widgets/lv_gauge.h **** uint8_t lv_gauge_get_label_count(const lv_obj_t * gauge);
 212:lvgl/src/lv_widgets/lv_gauge.h **** 
 213:lvgl/src/lv_widgets/lv_gauge.h **** /**
 214:lvgl/src/lv_widgets/lv_gauge.h ****  * Get the scale number of a gauge
 215:lvgl/src/lv_widgets/lv_gauge.h ****  * @param gauge pointer to a gauge object
 216:lvgl/src/lv_widgets/lv_gauge.h ****  * @return number of the scale units
 217:lvgl/src/lv_widgets/lv_gauge.h ****  */
 218:lvgl/src/lv_widgets/lv_gauge.h **** static inline uint16_t lv_gauge_get_line_count(const lv_obj_t * gauge)
 219:lvgl/src/lv_widgets/lv_gauge.h **** {
 220:lvgl/src/lv_widgets/lv_gauge.h ****     return lv_linemeter_get_line_count(gauge);
 221:lvgl/src/lv_widgets/lv_gauge.h **** }
 222:lvgl/src/lv_widgets/lv_gauge.h **** 
 223:lvgl/src/lv_widgets/lv_gauge.h **** /**
 224:lvgl/src/lv_widgets/lv_gauge.h ****  * Get the scale angle of a gauge
 225:lvgl/src/lv_widgets/lv_gauge.h ****  * @param gauge pointer to a gauge object
 226:lvgl/src/lv_widgets/lv_gauge.h ****  * @return angle of the scale
 227:lvgl/src/lv_widgets/lv_gauge.h ****  */
 228:lvgl/src/lv_widgets/lv_gauge.h **** static inline uint16_t lv_gauge_get_scale_angle(const lv_obj_t * gauge)
 229:lvgl/src/lv_widgets/lv_gauge.h **** {
 230:lvgl/src/lv_widgets/lv_gauge.h ****     return lv_linemeter_get_scale_angle(gauge);
 231:lvgl/src/lv_widgets/lv_gauge.h **** }
 232:lvgl/src/lv_widgets/lv_gauge.h **** 
 233:lvgl/src/lv_widgets/lv_gauge.h **** /**
 234:lvgl/src/lv_widgets/lv_gauge.h ****  * Get the offset for the gauge.
 235:lvgl/src/lv_widgets/lv_gauge.h ****  * @param gauge pointer to a gauge object
 236:lvgl/src/lv_widgets/lv_gauge.h ****  * @return angle offset (0..360)
 237:lvgl/src/lv_widgets/lv_gauge.h ****  */
 238:lvgl/src/lv_widgets/lv_gauge.h **** static inline uint16_t lv_gauge_get_angle_offset(lv_obj_t * gauge)
 320              		.loc 3 238 24 is_stmt 1 view .LVU85
 321              	.LBB69:
 239:lvgl/src/lv_widgets/lv_gauge.h **** {
 240:lvgl/src/lv_widgets/lv_gauge.h ****     return lv_linemeter_get_angle_offset(gauge);
 322              		.loc 3 240 5 view .LVU86
 323              		.loc 3 240 12 is_stmt 0 view .LVU87
 324 00b8 2846     		mov	r0, r5
 325 00ba FFF7FEFF 		bl	lv_linemeter_get_angle_offset
 326              	.LVL37:
 327              		.loc 3 240 12 view .LVU88
 328              	.LBE69:
 329              	.LBE68:
 330              		.loc 1 514 61 view .LVU89
 331 00be 2044     		add	r0, r0, r4
 332 00c0 5A30     		adds	r0, r0, #90
 333 00c2 83B2     		uxth	r3, r0
 334 00c4 0793     		str	r3, [sp, #28]
 335              	.LVL38:
 515:lvgl/src/lv_widgets/lv_gauge.c ****     int32_t min              = lv_gauge_get_min_value(gauge);
 336              		.loc 1 515 5 is_stmt 1 view .LVU90
 337              	.LBB70:
 338              	.LBI70:
 181:lvgl/src/lv_widgets/lv_gauge.h **** {
 339              		.loc 3 181 23 view .LVU91
 340              	.LBB71:
 183:lvgl/src/lv_widgets/lv_gauge.h **** }
ARM GAS  D:\Temp\cc42SHz2.s 			page 24


 341              		.loc 3 183 5 view .LVU92
 183:lvgl/src/lv_widgets/lv_gauge.h **** }
 342              		.loc 3 183 12 is_stmt 0 view .LVU93
 343 00c6 2846     		mov	r0, r5
 344 00c8 FFF7FEFF 		bl	lv_linemeter_get_min_value
 345              	.LVL39:
 346 00cc 8246     		mov	r10, r0
 347              	.LVL40:
 183:lvgl/src/lv_widgets/lv_gauge.h **** }
 348              		.loc 3 183 12 view .LVU94
 349              	.LBE71:
 350              	.LBE70:
 516:lvgl/src/lv_widgets/lv_gauge.c ****     int32_t max              = lv_gauge_get_max_value(gauge);
 351              		.loc 1 516 5 is_stmt 1 view .LVU95
 352              	.LBB72:
 353              	.LBI72:
 191:lvgl/src/lv_widgets/lv_gauge.h **** {
 354              		.loc 3 191 23 view .LVU96
 355              	.LBB73:
 193:lvgl/src/lv_widgets/lv_gauge.h **** }
 356              		.loc 3 193 5 view .LVU97
 193:lvgl/src/lv_widgets/lv_gauge.h **** }
 357              		.loc 3 193 12 is_stmt 0 view .LVU98
 358 00ce 2846     		mov	r0, r5
 359              	.LVL41:
 193:lvgl/src/lv_widgets/lv_gauge.h **** }
 360              		.loc 3 193 12 view .LVU99
 361 00d0 FFF7FEFF 		bl	lv_linemeter_get_max_value
 362              	.LVL42:
 363 00d4 0990     		str	r0, [sp, #36]
 364              	.LVL43:
 193:lvgl/src/lv_widgets/lv_gauge.h **** }
 365              		.loc 3 193 12 view .LVU100
 366              	.LBE73:
 367              	.LBE72:
 517:lvgl/src/lv_widgets/lv_gauge.c **** 
 518:lvgl/src/lv_widgets/lv_gauge.c ****     lv_draw_label_dsc_t label_dsc;
 368              		.loc 1 518 5 is_stmt 1 view .LVU101
 519:lvgl/src/lv_widgets/lv_gauge.c ****     lv_draw_label_dsc_init(&label_dsc);
 369              		.loc 1 519 5 view .LVU102
 370 00d6 13A8     		add	r0, sp, #76
 371              	.LVL44:
 372              		.loc 1 519 5 is_stmt 0 view .LVU103
 373 00d8 FFF7FEFF 		bl	lv_draw_label_dsc_init
 374              	.LVL45:
 520:lvgl/src/lv_widgets/lv_gauge.c ****     lv_obj_init_draw_label_dsc(gauge, LV_GAUGE_PART_MAJOR, &label_dsc);
 375              		.loc 1 520 5 is_stmt 1 view .LVU104
 376 00dc 13AA     		add	r2, sp, #76
 377 00de 0121     		movs	r1, #1
 378 00e0 2846     		mov	r0, r5
 379 00e2 FFF7FEFF 		bl	lv_obj_init_draw_label_dsc
 380              	.LVL46:
 521:lvgl/src/lv_widgets/lv_gauge.c **** 
 522:lvgl/src/lv_widgets/lv_gauge.c ****     uint8_t i;
 381              		.loc 1 522 5 view .LVU105
 523:lvgl/src/lv_widgets/lv_gauge.c ****     for(i = 0; i < label_num; i++) {
 382              		.loc 1 523 5 view .LVU106
ARM GAS  D:\Temp\cc42SHz2.s 			page 25


 383              		.loc 1 523 11 is_stmt 0 view .LVU107
 384 00e6 0026     		movs	r6, #0
 385              		.loc 1 523 5 view .LVU108
 386 00e8 35E0     		b	.L12
 387              	.LVL47:
 388              	.L18:
 389              	.LBB74:
 524:lvgl/src/lv_widgets/lv_gauge.c ****         /*Calculate the position a scale label*/
 525:lvgl/src/lv_widgets/lv_gauge.c ****         int16_t angle = (i * scale_angle) / (label_num - 1) + angle_ofs;
 526:lvgl/src/lv_widgets/lv_gauge.c **** 
 527:lvgl/src/lv_widgets/lv_gauge.c ****         lv_coord_t y = (int32_t)((int32_t)_lv_trigo_sin(angle) * r) / LV_TRIGO_SIN_MAX;
 528:lvgl/src/lv_widgets/lv_gauge.c ****         y += y_ofs;
 529:lvgl/src/lv_widgets/lv_gauge.c **** 
 530:lvgl/src/lv_widgets/lv_gauge.c ****         lv_coord_t x = (int32_t)((int32_t)_lv_trigo_sin(angle + 90) * r) / LV_TRIGO_SIN_MAX;
 531:lvgl/src/lv_widgets/lv_gauge.c ****         x += x_ofs;
 532:lvgl/src/lv_widgets/lv_gauge.c **** 
 533:lvgl/src/lv_widgets/lv_gauge.c ****         int32_t scale_act = (int32_t)((int32_t)(max - min) * i) / (label_num - 1);
 534:lvgl/src/lv_widgets/lv_gauge.c ****         scale_act += min;
 535:lvgl/src/lv_widgets/lv_gauge.c ****         char scale_txt[16];
 536:lvgl/src/lv_widgets/lv_gauge.c ****         if(ext->format_cb == NULL)
 537:lvgl/src/lv_widgets/lv_gauge.c ****             _lv_utils_num_to_str(scale_act, scale_txt);
 390              		.loc 1 537 13 is_stmt 1 view .LVU109
 391 00ea 0FA9     		add	r1, sp, #60
 392 00ec 1846     		mov	r0, r3
 393 00ee FFF7FEFF 		bl	_lv_utils_num_to_str
 394              	.LVL48:
 395              	.L14:
 538:lvgl/src/lv_widgets/lv_gauge.c ****         else
 539:lvgl/src/lv_widgets/lv_gauge.c ****             ext->format_cb(gauge, scale_txt, sizeof(scale_txt), scale_act);
 540:lvgl/src/lv_widgets/lv_gauge.c **** 
 541:lvgl/src/lv_widgets/lv_gauge.c ****         lv_area_t label_cord;
 396              		.loc 1 541 9 discriminator 2 view .LVU110
 542:lvgl/src/lv_widgets/lv_gauge.c ****         lv_point_t label_size;
 397              		.loc 1 542 9 discriminator 2 view .LVU111
 543:lvgl/src/lv_widgets/lv_gauge.c ****         _lv_txt_get_size(&label_size, scale_txt, label_dsc.font, label_dsc.letter_space, label_dsc.
 398              		.loc 1 543 9 discriminator 2 view .LVU112
 399 00f2 0027     		movs	r7, #0
 400 00f4 0297     		str	r7, [sp, #8]
 401 00f6 47F61843 		movw	r3, #31768
 402 00fa 0193     		str	r3, [sp, #4]
 403 00fc BDF95A30 		ldrsh	r3, [sp, #90]
 404 0100 0093     		str	r3, [sp]
 405 0102 BDF95C30 		ldrsh	r3, [sp, #92]
 406 0106 159A     		ldr	r2, [sp, #84]
 407 0108 0FA9     		add	r1, sp, #60
 408 010a 0CA8     		add	r0, sp, #48
 409 010c FFF7FEFF 		bl	_lv_txt_get_size
 410              	.LVL49:
 544:lvgl/src/lv_widgets/lv_gauge.c ****                          LV_COORD_MAX, LV_TXT_FLAG_NONE);
 545:lvgl/src/lv_widgets/lv_gauge.c **** 
 546:lvgl/src/lv_widgets/lv_gauge.c ****         /*Draw the label*/
 547:lvgl/src/lv_widgets/lv_gauge.c ****         label_cord.x1 = x - label_size.x / 2;
 411              		.loc 1 547 9 discriminator 2 view .LVU113
 412              		.loc 1 547 39 is_stmt 0 discriminator 2 view .LVU114
 413 0110 BDF93020 		ldrsh	r2, [sp, #48]
 414              		.loc 1 547 27 discriminator 2 view .LVU115
 415 0114 02EBD273 		add	r3, r2, r2, lsr #31
ARM GAS  D:\Temp\cc42SHz2.s 			page 26


 416 0118 A5EB6305 		sub	r5, r5, r3, asr #1
 417              	.LVL50:
 418              		.loc 1 547 27 discriminator 2 view .LVU116
 419 011c ADB2     		uxth	r5, r5
 420              		.loc 1 547 23 discriminator 2 view .LVU117
 421 011e ADF83450 		strh	r5, [sp, #52]	@ movhi
 548:lvgl/src/lv_widgets/lv_gauge.c ****         label_cord.y1 = y - label_size.y / 2;
 422              		.loc 1 548 9 is_stmt 1 discriminator 2 view .LVU118
 423              		.loc 1 548 39 is_stmt 0 discriminator 2 view .LVU119
 424 0122 BDF93230 		ldrsh	r3, [sp, #50]
 425              		.loc 1 548 27 discriminator 2 view .LVU120
 426 0126 03EBD371 		add	r1, r3, r3, lsr #31
 427 012a A4EB6104 		sub	r4, r4, r1, asr #1
 428              	.LVL51:
 429              		.loc 1 548 27 discriminator 2 view .LVU121
 430 012e A4B2     		uxth	r4, r4
 431              		.loc 1 548 23 discriminator 2 view .LVU122
 432 0130 ADF83640 		strh	r4, [sp, #54]	@ movhi
 549:lvgl/src/lv_widgets/lv_gauge.c ****         label_cord.x2 = label_cord.x1 + label_size.x;
 433              		.loc 1 549 9 is_stmt 1 discriminator 2 view .LVU123
 434              		.loc 1 549 39 is_stmt 0 discriminator 2 view .LVU124
 435 0134 15FA82F5 		uxtah	r5, r5, r2
 436              		.loc 1 549 23 discriminator 2 view .LVU125
 437 0138 ADF83850 		strh	r5, [sp, #56]	@ movhi
 550:lvgl/src/lv_widgets/lv_gauge.c ****         label_cord.y2 = label_cord.y1 + label_size.y;
 438              		.loc 1 550 9 is_stmt 1 discriminator 2 view .LVU126
 439              		.loc 1 550 39 is_stmt 0 discriminator 2 view .LVU127
 440 013c 14FA83F4 		uxtah	r4, r4, r3
 441              		.loc 1 550 23 discriminator 2 view .LVU128
 442 0140 ADF83A40 		strh	r4, [sp, #58]	@ movhi
 551:lvgl/src/lv_widgets/lv_gauge.c **** 
 552:lvgl/src/lv_widgets/lv_gauge.c ****         lv_draw_label(&label_cord, mask, &label_dsc, scale_txt, NULL);
 443              		.loc 1 552 9 is_stmt 1 discriminator 2 view .LVU129
 444 0144 0097     		str	r7, [sp]
 445 0146 0FAB     		add	r3, sp, #60
 446 0148 13AA     		add	r2, sp, #76
 447 014a 0A99     		ldr	r1, [sp, #40]
 448 014c 0DA8     		add	r0, sp, #52
 449 014e FFF7FEFF 		bl	lv_draw_label
 450              	.LVL52:
 451              	.LBE74:
 523:lvgl/src/lv_widgets/lv_gauge.c ****         /*Calculate the position a scale label*/
 452              		.loc 1 523 32 is_stmt 0 discriminator 2 view .LVU130
 453 0152 0136     		adds	r6, r6, #1
 454              	.LVL53:
 523:lvgl/src/lv_widgets/lv_gauge.c ****         /*Calculate the position a scale label*/
 455              		.loc 1 523 32 discriminator 2 view .LVU131
 456 0154 F6B2     		uxtb	r6, r6
 457              	.LVL54:
 458              	.L12:
 523:lvgl/src/lv_widgets/lv_gauge.c ****         /*Calculate the position a scale label*/
 459              		.loc 1 523 5 discriminator 1 view .LVU132
 460 0156 B145     		cmp	r9, r6
 461 0158 3AD9     		bls	.L17
 462              	.LBB75:
 525:lvgl/src/lv_widgets/lv_gauge.c **** 
 463              		.loc 1 525 9 is_stmt 1 view .LVU133
ARM GAS  D:\Temp\cc42SHz2.s 			page 27


 525:lvgl/src/lv_widgets/lv_gauge.c **** 
 464              		.loc 1 525 28 is_stmt 0 view .LVU134
 465 015a 069B     		ldr	r3, [sp, #24]
 466 015c 06FB03F5 		mul	r5, r6, r3
 525:lvgl/src/lv_widgets/lv_gauge.c **** 
 467              		.loc 1 525 56 view .LVU135
 468 0160 09F1FF38 		add	r8, r9, #-1
 525:lvgl/src/lv_widgets/lv_gauge.c **** 
 469              		.loc 1 525 43 view .LVU136
 470 0164 95FBF8F5 		sdiv	r5, r5, r8
 525:lvgl/src/lv_widgets/lv_gauge.c **** 
 471              		.loc 1 525 61 view .LVU137
 472 0168 079B     		ldr	r3, [sp, #28]
 473 016a 1D44     		add	r5, r5, r3
 474 016c ADB2     		uxth	r5, r5
 475              	.LVL55:
 527:lvgl/src/lv_widgets/lv_gauge.c ****         y += y_ofs;
 476              		.loc 1 527 9 is_stmt 1 view .LVU138
 527:lvgl/src/lv_widgets/lv_gauge.c ****         y += y_ofs;
 477              		.loc 1 527 43 is_stmt 0 view .LVU139
 478 016e 28B2     		sxth	r0, r5
 479 0170 FFF7FEFF 		bl	_lv_trigo_sin
 480              	.LVL56:
 527:lvgl/src/lv_widgets/lv_gauge.c ****         y += y_ofs;
 481              		.loc 1 527 24 view .LVU140
 482 0174 0BFB00F0 		mul	r0, fp, r0
 527:lvgl/src/lv_widgets/lv_gauge.c ****         y += y_ofs;
 483              		.loc 1 527 69 view .LVU141
 484 0178 174F     		ldr	r7, .L19
 485 017a 87FB0034 		smull	r3, r4, r7, r0
 486 017e 2318     		adds	r3, r4, r0
 487 0180 C417     		asrs	r4, r0, #31
 488 0182 C4EBA334 		rsb	r4, r4, r3, asr #14
 489              	.LVL57:
 528:lvgl/src/lv_widgets/lv_gauge.c **** 
 490              		.loc 1 528 9 is_stmt 1 view .LVU142
 528:lvgl/src/lv_widgets/lv_gauge.c **** 
 491              		.loc 1 528 11 is_stmt 0 view .LVU143
 492 0186 059B     		ldr	r3, [sp, #20]
 493 0188 1C44     		add	r4, r4, r3
 494              	.LVL58:
 528:lvgl/src/lv_widgets/lv_gauge.c **** 
 495              		.loc 1 528 11 view .LVU144
 496 018a A4B2     		uxth	r4, r4
 497              	.LVL59:
 530:lvgl/src/lv_widgets/lv_gauge.c ****         x += x_ofs;
 498              		.loc 1 530 9 is_stmt 1 view .LVU145
 530:lvgl/src/lv_widgets/lv_gauge.c ****         x += x_ofs;
 499              		.loc 1 530 63 is_stmt 0 view .LVU146
 500 018c 05F15A00 		add	r0, r5, #90
 530:lvgl/src/lv_widgets/lv_gauge.c ****         x += x_ofs;
 501              		.loc 1 530 43 view .LVU147
 502 0190 00B2     		sxth	r0, r0
 503 0192 FFF7FEFF 		bl	_lv_trigo_sin
 504              	.LVL60:
 530:lvgl/src/lv_widgets/lv_gauge.c ****         x += x_ofs;
 505              		.loc 1 530 24 view .LVU148
ARM GAS  D:\Temp\cc42SHz2.s 			page 28


 506 0196 00FB0BF0 		mul	r0, r0, fp
 530:lvgl/src/lv_widgets/lv_gauge.c ****         x += x_ofs;
 507              		.loc 1 530 74 view .LVU149
 508 019a 87FB0037 		smull	r3, r7, r7, r0
 509 019e 0744     		add	r7, r7, r0
 510 01a0 C517     		asrs	r5, r0, #31
 511              	.LVL61:
 530:lvgl/src/lv_widgets/lv_gauge.c ****         x += x_ofs;
 512              		.loc 1 530 74 view .LVU150
 513 01a2 C5EBA735 		rsb	r5, r5, r7, asr #14
 514              	.LVL62:
 531:lvgl/src/lv_widgets/lv_gauge.c **** 
 515              		.loc 1 531 9 is_stmt 1 view .LVU151
 531:lvgl/src/lv_widgets/lv_gauge.c **** 
 516              		.loc 1 531 11 is_stmt 0 view .LVU152
 517 01a6 049B     		ldr	r3, [sp, #16]
 518 01a8 1D44     		add	r5, r5, r3
 519              	.LVL63:
 531:lvgl/src/lv_widgets/lv_gauge.c **** 
 520              		.loc 1 531 11 view .LVU153
 521 01aa ADB2     		uxth	r5, r5
 522              	.LVL64:
 533:lvgl/src/lv_widgets/lv_gauge.c ****         scale_act += min;
 523              		.loc 1 533 9 is_stmt 1 view .LVU154
 533:lvgl/src/lv_widgets/lv_gauge.c ****         scale_act += min;
 524              		.loc 1 533 53 is_stmt 0 view .LVU155
 525 01ac 099B     		ldr	r3, [sp, #36]
 526 01ae A3EB0A00 		sub	r0, r3, r10
 533:lvgl/src/lv_widgets/lv_gauge.c ****         scale_act += min;
 527              		.loc 1 533 29 view .LVU156
 528 01b2 00FB06F0 		mul	r0, r0, r6
 533:lvgl/src/lv_widgets/lv_gauge.c ****         scale_act += min;
 529              		.loc 1 533 17 view .LVU157
 530 01b6 90FBF8F8 		sdiv	r8, r0, r8
 531              	.LVL65:
 534:lvgl/src/lv_widgets/lv_gauge.c ****         char scale_txt[16];
 532              		.loc 1 534 9 is_stmt 1 view .LVU158
 534:lvgl/src/lv_widgets/lv_gauge.c ****         char scale_txt[16];
 533              		.loc 1 534 19 is_stmt 0 view .LVU159
 534 01ba 08EB0A03 		add	r3, r8, r10
 535              	.LVL66:
 535:lvgl/src/lv_widgets/lv_gauge.c ****         if(ext->format_cb == NULL)
 536              		.loc 1 535 9 is_stmt 1 view .LVU160
 536:lvgl/src/lv_widgets/lv_gauge.c ****             _lv_utils_num_to_str(scale_act, scale_txt);
 537              		.loc 1 536 9 view .LVU161
 536:lvgl/src/lv_widgets/lv_gauge.c ****             _lv_utils_num_to_str(scale_act, scale_txt);
 538              		.loc 1 536 15 is_stmt 0 view .LVU162
 539 01be 089A     		ldr	r2, [sp, #32]
 540 01c0 D76B     		ldr	r7, [r2, #60]
 536:lvgl/src/lv_widgets/lv_gauge.c ****             _lv_utils_num_to_str(scale_act, scale_txt);
 541              		.loc 1 536 11 view .LVU163
 542 01c2 002F     		cmp	r7, #0
 543 01c4 91D0     		beq	.L18
 539:lvgl/src/lv_widgets/lv_gauge.c **** 
 544              		.loc 1 539 13 is_stmt 1 view .LVU164
 545 01c6 1022     		movs	r2, #16
 546 01c8 0FA9     		add	r1, sp, #60
ARM GAS  D:\Temp\cc42SHz2.s 			page 29


 547 01ca 0B98     		ldr	r0, [sp, #44]
 548 01cc B847     		blx	r7
 549              	.LVL67:
 539:lvgl/src/lv_widgets/lv_gauge.c **** 
 550              		.loc 1 539 13 is_stmt 0 view .LVU165
 551 01ce 90E7     		b	.L14
 552              	.LVL68:
 553              	.L17:
 539:lvgl/src/lv_widgets/lv_gauge.c **** 
 554              		.loc 1 539 13 view .LVU166
 555              	.LBE75:
 553:lvgl/src/lv_widgets/lv_gauge.c ****     }
 554:lvgl/src/lv_widgets/lv_gauge.c **** }
 556              		.loc 1 554 1 view .LVU167
 557 01d0 1DB0     		add	sp, sp, #116
 558              	.LCFI3:
 559              		.cfi_def_cfa_offset 36
 560              		@ sp needed
 561 01d2 BDE8F08F 		pop	{r4, r5, r6, r7, r8, r9, r10, fp, pc}
 562              	.LVL69:
 563              	.L20:
 564              		.loc 1 554 1 view .LVU168
 565 01d6 00BF     		.align	2
 566              	.L19:
 567 01d8 03000180 		.word	-2147418109
 568              		.cfi_endproc
 569              	.LFE485:
 571              		.section	.text.lv_gauge_draw_needle,"ax",%progbits
 572              		.align	1
 573              		.syntax unified
 574              		.thumb
 575              		.thumb_func
 576              		.fpu fpv4-sp-d16
 578              	lv_gauge_draw_needle:
 579              	.LVL70:
 580              	.LFB486:
 555:lvgl/src/lv_widgets/lv_gauge.c **** /**
 556:lvgl/src/lv_widgets/lv_gauge.c ****  * Draw the needles of a gauge
 557:lvgl/src/lv_widgets/lv_gauge.c ****  * @param gauge pointer to gauge object
 558:lvgl/src/lv_widgets/lv_gauge.c ****  * @param mask mask of drawing
 559:lvgl/src/lv_widgets/lv_gauge.c ****  */
 560:lvgl/src/lv_widgets/lv_gauge.c **** static void lv_gauge_draw_needle(lv_obj_t * gauge, const lv_area_t * clip_area)
 561:lvgl/src/lv_widgets/lv_gauge.c **** {
 581              		.loc 1 561 1 is_stmt 1 view -0
 582              		.cfi_startproc
 583              		@ args = 0, pretend = 0, frame = 168
 584              		@ frame_needed = 0, uses_anonymous_args = 0
 585              		.loc 1 561 1 is_stmt 0 view .LVU170
 586 0000 2DE9F04F 		push	{r4, r5, r6, r7, r8, r9, r10, fp, lr}
 587              	.LCFI4:
 588              		.cfi_def_cfa_offset 36
 589              		.cfi_offset 4, -36
 590              		.cfi_offset 5, -32
 591              		.cfi_offset 6, -28
 592              		.cfi_offset 7, -24
 593              		.cfi_offset 8, -20
 594              		.cfi_offset 9, -16
ARM GAS  D:\Temp\cc42SHz2.s 			page 30


 595              		.cfi_offset 10, -12
 596              		.cfi_offset 11, -8
 597              		.cfi_offset 14, -4
 598 0004 ABB0     		sub	sp, sp, #172
 599              	.LCFI5:
 600              		.cfi_def_cfa_offset 208
 601 0006 0746     		mov	r7, r0
 602 0008 0091     		str	r1, [sp]
 562:lvgl/src/lv_widgets/lv_gauge.c ****     lv_gauge_ext_t * ext     = lv_obj_get_ext_attr(gauge);
 603              		.loc 1 562 5 is_stmt 1 view .LVU171
 604              		.loc 1 562 32 is_stmt 0 view .LVU172
 605 000a FFF7FEFF 		bl	lv_obj_get_ext_attr
 606              	.LVL71:
 607              		.loc 1 562 32 view .LVU173
 608 000e 0646     		mov	r6, r0
 609              	.LVL72:
 563:lvgl/src/lv_widgets/lv_gauge.c **** 
 564:lvgl/src/lv_widgets/lv_gauge.c ****     lv_style_int_t pad = lv_obj_get_style_pad_inner(gauge, LV_GAUGE_PART_NEEDLE);
 610              		.loc 1 564 5 is_stmt 1 view .LVU174
 611              	.LBB76:
 612              	.LBI76:
 114:lvgl/src/lv_widgets/../lv_core/lv_obj_style_dec.h **** _LV_OBJ_STYLE_SET_GET_DECLARE(MARGIN_TOP, margin_top, lv_style_int_t, _int, scalar)
 613              		.loc 2 114 1 view .LVU175
 614              	.LBB77:
 114:lvgl/src/lv_widgets/../lv_core/lv_obj_style_dec.h **** _LV_OBJ_STYLE_SET_GET_DECLARE(MARGIN_TOP, margin_top, lv_style_int_t, _int, scalar)
 615              		.loc 2 114 1 view .LVU176
 616 0010 1422     		movs	r2, #20
 617 0012 0221     		movs	r1, #2
 618 0014 3846     		mov	r0, r7
 619              	.LVL73:
 114:lvgl/src/lv_widgets/../lv_core/lv_obj_style_dec.h **** _LV_OBJ_STYLE_SET_GET_DECLARE(MARGIN_TOP, margin_top, lv_style_int_t, _int, scalar)
 620              		.loc 2 114 1 is_stmt 0 view .LVU177
 621 0016 FFF7FEFF 		bl	_lv_obj_get_style_int
 622              	.LVL74:
 623 001a 8046     		mov	r8, r0
 624              	.LVL75:
 114:lvgl/src/lv_widgets/../lv_core/lv_obj_style_dec.h **** _LV_OBJ_STYLE_SET_GET_DECLARE(MARGIN_TOP, margin_top, lv_style_int_t, _int, scalar)
 625              		.loc 2 114 1 view .LVU178
 626              	.LBE77:
 627              	.LBE76:
 565:lvgl/src/lv_widgets/lv_gauge.c ****     lv_style_int_t left = lv_obj_get_style_pad_left(gauge, LV_GAUGE_PART_MAIN);
 628              		.loc 1 565 5 is_stmt 1 view .LVU179
 629              	.LBB78:
 630              	.LBI78:
 112:lvgl/src/lv_widgets/../lv_core/lv_obj_style_dec.h **** _LV_OBJ_STYLE_SET_GET_DECLARE(PAD_RIGHT, pad_right, lv_style_int_t, _int, scalar)
 631              		.loc 2 112 1 view .LVU180
 632              	.LBB79:
 112:lvgl/src/lv_widgets/../lv_core/lv_obj_style_dec.h **** _LV_OBJ_STYLE_SET_GET_DECLARE(PAD_RIGHT, pad_right, lv_style_int_t, _int, scalar)
 633              		.loc 2 112 1 view .LVU181
 634 001c 1222     		movs	r2, #18
 635 001e 0021     		movs	r1, #0
 636 0020 3846     		mov	r0, r7
 637 0022 FFF7FEFF 		bl	_lv_obj_get_style_int
 638              	.LVL76:
 639 0026 0546     		mov	r5, r0
 640              	.LVL77:
 112:lvgl/src/lv_widgets/../lv_core/lv_obj_style_dec.h **** _LV_OBJ_STYLE_SET_GET_DECLARE(PAD_RIGHT, pad_right, lv_style_int_t, _int, scalar)
ARM GAS  D:\Temp\cc42SHz2.s 			page 31


 641              		.loc 2 112 1 is_stmt 0 view .LVU182
 642              	.LBE79:
 643              	.LBE78:
 566:lvgl/src/lv_widgets/lv_gauge.c ****     lv_style_int_t right = lv_obj_get_style_pad_right(gauge, LV_GAUGE_PART_MAIN);
 644              		.loc 1 566 5 is_stmt 1 view .LVU183
 645              	.LBB80:
 646              	.LBI80:
 113:lvgl/src/lv_widgets/../lv_core/lv_obj_style_dec.h **** _LV_OBJ_STYLE_SET_GET_DECLARE(PAD_INNER, pad_inner, lv_style_int_t, _int, scalar)
 647              		.loc 2 113 1 view .LVU184
 648              	.LBB81:
 113:lvgl/src/lv_widgets/../lv_core/lv_obj_style_dec.h **** _LV_OBJ_STYLE_SET_GET_DECLARE(PAD_INNER, pad_inner, lv_style_int_t, _int, scalar)
 649              		.loc 2 113 1 view .LVU185
 650 0028 1322     		movs	r2, #19
 651 002a 0021     		movs	r1, #0
 652 002c 3846     		mov	r0, r7
 653 002e FFF7FEFF 		bl	_lv_obj_get_style_int
 654              	.LVL78:
 655 0032 8146     		mov	r9, r0
 656              	.LVL79:
 113:lvgl/src/lv_widgets/../lv_core/lv_obj_style_dec.h **** _LV_OBJ_STYLE_SET_GET_DECLARE(PAD_INNER, pad_inner, lv_style_int_t, _int, scalar)
 657              		.loc 2 113 1 is_stmt 0 view .LVU186
 658              	.LBE81:
 659              	.LBE80:
 567:lvgl/src/lv_widgets/lv_gauge.c ****     lv_style_int_t top = lv_obj_get_style_pad_top(gauge, LV_GAUGE_PART_MAIN);
 660              		.loc 1 567 5 is_stmt 1 view .LVU187
 661              	.LBB82:
 662              	.LBI82:
 110:lvgl/src/lv_widgets/../lv_core/lv_obj_style_dec.h **** _LV_OBJ_STYLE_SET_GET_DECLARE(PAD_BOTTOM, pad_bottom, lv_style_int_t, _int, scalar)
 663              		.loc 2 110 1 view .LVU188
 664              	.LBB83:
 110:lvgl/src/lv_widgets/../lv_core/lv_obj_style_dec.h **** _LV_OBJ_STYLE_SET_GET_DECLARE(PAD_BOTTOM, pad_bottom, lv_style_int_t, _int, scalar)
 665              		.loc 2 110 1 view .LVU189
 666 0034 1022     		movs	r2, #16
 667 0036 0021     		movs	r1, #0
 668 0038 3846     		mov	r0, r7
 669 003a FFF7FEFF 		bl	_lv_obj_get_style_int
 670              	.LVL80:
 671 003e 0446     		mov	r4, r0
 672              	.LVL81:
 110:lvgl/src/lv_widgets/../lv_core/lv_obj_style_dec.h **** _LV_OBJ_STYLE_SET_GET_DECLARE(PAD_BOTTOM, pad_bottom, lv_style_int_t, _int, scalar)
 673              		.loc 2 110 1 is_stmt 0 view .LVU190
 674              	.LBE83:
 675              	.LBE82:
 568:lvgl/src/lv_widgets/lv_gauge.c **** 
 569:lvgl/src/lv_widgets/lv_gauge.c ****     lv_coord_t r      = (lv_obj_get_width(gauge) - left - right) / 2 - pad;
 676              		.loc 1 569 5 is_stmt 1 view .LVU191
 677              		.loc 1 569 26 is_stmt 0 view .LVU192
 678 0040 3846     		mov	r0, r7
 679 0042 FFF7FEFF 		bl	lv_obj_get_width
 680              	.LVL82:
 681              		.loc 1 569 50 view .LVU193
 682 0046 401B     		subs	r0, r0, r5
 683              		.loc 1 569 57 view .LVU194
 684 0048 A0EB0900 		sub	r0, r0, r9
 685              		.loc 1 569 66 view .LVU195
 686 004c 00EBD070 		add	r0, r0, r0, lsr #31
 687              		.loc 1 569 70 view .LVU196
ARM GAS  D:\Temp\cc42SHz2.s 			page 32


 688 0050 1FFA88F8 		uxth	r8, r8
 689              		.loc 1 569 70 view .LVU197
 690 0054 C8EB6003 		rsb	r3, r8, r0, asr #1
 691 0058 9BB2     		uxth	r3, r3
 692              		.loc 1 569 16 view .LVU198
 693 005a 1AB2     		sxth	r2, r3
 694 005c 0392     		str	r2, [sp, #12]
 695              	.LVL83:
 570:lvgl/src/lv_widgets/lv_gauge.c ****     lv_coord_t x_ofs  = gauge->coords.x1 + r + left + pad;
 696              		.loc 1 570 5 is_stmt 1 view .LVU199
 697              		.loc 1 570 38 is_stmt 0 view .LVU200
 698 005e 3A8A     		ldrh	r2, [r7, #16]
 699              		.loc 1 570 42 view .LVU201
 700 0060 1A44     		add	r2, r2, r3
 701              		.loc 1 570 46 view .LVU202
 702 0062 15FA82F5 		uxtah	r5, r5, r2
 703              	.LVL84:
 704              		.loc 1 570 53 view .LVU203
 705 0066 18FA85F5 		uxtah	r5, r8, r5
 706 006a AAB2     		uxth	r2, r5
 707 006c 0492     		str	r2, [sp, #16]
 708              		.loc 1 570 16 view .LVU204
 709 006e 15B2     		sxth	r5, r2
 710              	.LVL85:
 571:lvgl/src/lv_widgets/lv_gauge.c ****     lv_coord_t y_ofs  = gauge->coords.y1 + r + top + pad;
 711              		.loc 1 571 5 is_stmt 1 view .LVU205
 712              		.loc 1 571 38 is_stmt 0 view .LVU206
 713 0070 7A8A     		ldrh	r2, [r7, #18]
 714              		.loc 1 571 42 view .LVU207
 715 0072 1344     		add	r3, r3, r2
 716              		.loc 1 571 46 view .LVU208
 717 0074 14FA83F3 		uxtah	r3, r4, r3
 718              		.loc 1 571 52 view .LVU209
 719 0078 18FA83F3 		uxtah	r3, r8, r3
 720 007c 9BB2     		uxth	r3, r3
 721 007e 0593     		str	r3, [sp, #20]
 722              		.loc 1 571 16 view .LVU210
 723 0080 1CB2     		sxth	r4, r3
 724              	.LVL86:
 572:lvgl/src/lv_widgets/lv_gauge.c ****     uint16_t angle    = lv_linemeter_get_scale_angle(gauge);
 725              		.loc 1 572 5 is_stmt 1 view .LVU211
 726              		.loc 1 572 25 is_stmt 0 view .LVU212
 727 0082 3846     		mov	r0, r7
 728 0084 FFF7FEFF 		bl	lv_linemeter_get_scale_angle
 729              	.LVL87:
 573:lvgl/src/lv_widgets/lv_gauge.c ****     int16_t angle_ofs = 90 + (360 - angle) / 2 + lv_gauge_get_angle_offset(gauge);
 730              		.loc 1 573 5 is_stmt 1 view .LVU213
 731              		.loc 1 573 35 is_stmt 0 view .LVU214
 732 0088 0190     		str	r0, [sp, #4]
 733 008a C0F5B470 		rsb	r0, r0, #360
 734              	.LVL88:
 735              		.loc 1 573 44 view .LVU215
 736 008e 00EBD070 		add	r0, r0, r0, lsr #31
 737 0092 4FEA6008 		asr	r8, r0, #1
 738              	.LVL89:
 739              	.LBB84:
 740              	.LBI84:
ARM GAS  D:\Temp\cc42SHz2.s 			page 33


 238:lvgl/src/lv_widgets/lv_gauge.h **** {
 741              		.loc 3 238 24 is_stmt 1 view .LVU216
 742              	.LBB85:
 743              		.loc 3 240 5 view .LVU217
 744              		.loc 3 240 12 is_stmt 0 view .LVU218
 745 0096 3846     		mov	r0, r7
 746 0098 FFF7FEFF 		bl	lv_linemeter_get_angle_offset
 747              	.LVL90:
 748              		.loc 3 240 12 view .LVU219
 749              	.LBE85:
 750              	.LBE84:
 751              		.loc 1 573 48 view .LVU220
 752 009c 4044     		add	r0, r0, r8
 753 009e 5A30     		adds	r0, r0, #90
 754 00a0 83B2     		uxth	r3, r0
 755 00a2 0293     		str	r3, [sp, #8]
 756              	.LVL91:
 574:lvgl/src/lv_widgets/lv_gauge.c ****     int16_t min       = lv_gauge_get_min_value(gauge);
 757              		.loc 1 574 5 is_stmt 1 view .LVU221
 758              	.LBB86:
 759              	.LBI86:
 181:lvgl/src/lv_widgets/lv_gauge.h **** {
 760              		.loc 3 181 23 view .LVU222
 761              	.LBB87:
 183:lvgl/src/lv_widgets/lv_gauge.h **** }
 762              		.loc 3 183 5 view .LVU223
 183:lvgl/src/lv_widgets/lv_gauge.h **** }
 763              		.loc 3 183 12 is_stmt 0 view .LVU224
 764 00a4 3846     		mov	r0, r7
 765 00a6 FFF7FEFF 		bl	lv_linemeter_get_min_value
 766              	.LVL92:
 183:lvgl/src/lv_widgets/lv_gauge.h **** }
 767              		.loc 3 183 12 view .LVU225
 768              	.LBE87:
 769              	.LBE86:
 770              		.loc 1 574 13 view .LVU226
 771 00aa 0FFA80F8 		sxth	r8, r0
 772              	.LVL93:
 575:lvgl/src/lv_widgets/lv_gauge.c ****     int16_t max       = lv_gauge_get_max_value(gauge);
 773              		.loc 1 575 5 is_stmt 1 view .LVU227
 774              	.LBB88:
 775              	.LBI88:
 191:lvgl/src/lv_widgets/lv_gauge.h **** {
 776              		.loc 3 191 23 view .LVU228
 777              	.LBB89:
 193:lvgl/src/lv_widgets/lv_gauge.h **** }
 778              		.loc 3 193 5 view .LVU229
 193:lvgl/src/lv_widgets/lv_gauge.h **** }
 779              		.loc 3 193 12 is_stmt 0 view .LVU230
 780 00ae 3846     		mov	r0, r7
 781 00b0 FFF7FEFF 		bl	lv_linemeter_get_max_value
 782              	.LVL94:
 193:lvgl/src/lv_widgets/lv_gauge.h **** }
 783              		.loc 3 193 12 view .LVU231
 784              	.LBE89:
 785              	.LBE88:
 786              		.loc 1 575 13 view .LVU232
ARM GAS  D:\Temp\cc42SHz2.s 			page 34


 787 00b4 0FFA80FB 		sxth	fp, r0
 788              	.LVL95:
 576:lvgl/src/lv_widgets/lv_gauge.c ****     lv_point_t p_mid;
 789              		.loc 1 576 5 is_stmt 1 view .LVU233
 577:lvgl/src/lv_widgets/lv_gauge.c ****     lv_point_t p_end;
 790              		.loc 1 577 5 view .LVU234
 578:lvgl/src/lv_widgets/lv_gauge.c ****     uint8_t i;
 791              		.loc 1 578 5 view .LVU235
 579:lvgl/src/lv_widgets/lv_gauge.c **** 
 580:lvgl/src/lv_widgets/lv_gauge.c ****     lv_draw_line_dsc_t line_dsc;
 792              		.loc 1 580 5 view .LVU236
 581:lvgl/src/lv_widgets/lv_gauge.c ****     lv_draw_img_dsc_t img_dsc;
 793              		.loc 1 581 5 view .LVU237
 582:lvgl/src/lv_widgets/lv_gauge.c ****     if(ext->needle_img == NULL) {
 794              		.loc 1 582 5 view .LVU238
 795              		.loc 1 582 11 is_stmt 0 view .LVU239
 796 00b8 336A     		ldr	r3, [r6, #32]
 797              		.loc 1 582 7 view .LVU240
 798 00ba 6BB1     		cbz	r3, .L32
 583:lvgl/src/lv_widgets/lv_gauge.c ****         lv_draw_line_dsc_init(&line_dsc);
 584:lvgl/src/lv_widgets/lv_gauge.c ****         lv_obj_init_draw_line_dsc(gauge, LV_GAUGE_PART_NEEDLE, &line_dsc);
 585:lvgl/src/lv_widgets/lv_gauge.c ****     }
 586:lvgl/src/lv_widgets/lv_gauge.c ****     else {
 587:lvgl/src/lv_widgets/lv_gauge.c ****         lv_draw_img_dsc_init(&img_dsc);
 799              		.loc 1 587 9 is_stmt 1 view .LVU241
 800 00bc 21A8     		add	r0, sp, #132
 801 00be FFF7FEFF 		bl	lv_draw_img_dsc_init
 802              	.LVL96:
 588:lvgl/src/lv_widgets/lv_gauge.c ****         lv_obj_init_draw_img_dsc(gauge, LV_GAUGE_PART_NEEDLE, &img_dsc);
 803              		.loc 1 588 9 view .LVU242
 804 00c2 21AA     		add	r2, sp, #132
 805 00c4 0221     		movs	r1, #2
 806 00c6 3846     		mov	r0, r7
 807 00c8 FFF7FEFF 		bl	lv_obj_init_draw_img_dsc
 808              	.LVL97:
 809              	.L23:
 589:lvgl/src/lv_widgets/lv_gauge.c ****     }
 590:lvgl/src/lv_widgets/lv_gauge.c **** 
 591:lvgl/src/lv_widgets/lv_gauge.c ****     p_mid.x = x_ofs;
 810              		.loc 1 591 5 view .LVU243
 811              		.loc 1 591 13 is_stmt 0 view .LVU244
 812 00cc ADF8A450 		strh	r5, [sp, #164]	@ movhi
 592:lvgl/src/lv_widgets/lv_gauge.c ****     p_mid.y = y_ofs;
 813              		.loc 1 592 5 is_stmt 1 view .LVU245
 814              		.loc 1 592 13 is_stmt 0 view .LVU246
 815 00d0 ADF8A640 		strh	r4, [sp, #166]	@ movhi
 593:lvgl/src/lv_widgets/lv_gauge.c ****     for(i = 0; i < ext->needle_count; i++) {
 816              		.loc 1 593 5 is_stmt 1 view .LVU247
 817              	.LVL98:
 818              		.loc 1 593 11 is_stmt 0 view .LVU248
 819 00d4 0025     		movs	r5, #0
 820              	.LVL99:
 821              		.loc 1 593 5 view .LVU249
 822 00d6 43E0     		b	.L24
 823              	.LVL100:
 824              	.L32:
 583:lvgl/src/lv_widgets/lv_gauge.c ****         lv_obj_init_draw_line_dsc(gauge, LV_GAUGE_PART_NEEDLE, &line_dsc);
ARM GAS  D:\Temp\cc42SHz2.s 			page 35


 825              		.loc 1 583 9 is_stmt 1 view .LVU250
 826 00d8 25A8     		add	r0, sp, #148
 827 00da FFF7FEFF 		bl	lv_draw_line_dsc_init
 828              	.LVL101:
 584:lvgl/src/lv_widgets/lv_gauge.c ****     }
 829              		.loc 1 584 9 view .LVU251
 830 00de 25AA     		add	r2, sp, #148
 831 00e0 0221     		movs	r1, #2
 832 00e2 3846     		mov	r0, r7
 833 00e4 FFF7FEFF 		bl	lv_obj_init_draw_line_dsc
 834              	.LVL102:
 835 00e8 F0E7     		b	.L23
 836              	.LVL103:
 837              	.L34:
 838              	.LBB90:
 594:lvgl/src/lv_widgets/lv_gauge.c ****         /*Calculate the end point of a needle*/
 595:lvgl/src/lv_widgets/lv_gauge.c ****         int16_t needle_angle =
 596:lvgl/src/lv_widgets/lv_gauge.c ****             (ext->values[i] - min) * angle / (max - min) + angle_ofs;
 597:lvgl/src/lv_widgets/lv_gauge.c **** 
 598:lvgl/src/lv_widgets/lv_gauge.c ****         /*Draw line*/
 599:lvgl/src/lv_widgets/lv_gauge.c ****         if(ext->needle_img == NULL) {
 600:lvgl/src/lv_widgets/lv_gauge.c ****             p_end.y = (_lv_trigo_sin(needle_angle) * r) / LV_TRIGO_SIN_MAX + y_ofs;
 839              		.loc 1 600 13 view .LVU252
 840              		.loc 1 600 24 is_stmt 0 view .LVU253
 841 00ea 1846     		mov	r0, r3
 842 00ec FFF7FEFF 		bl	_lv_trigo_sin
 843              	.LVL104:
 844              		.loc 1 600 52 view .LVU254
 845 00f0 039B     		ldr	r3, [sp, #12]
 846 00f2 03FB00F0 		mul	r0, r3, r0
 847              		.loc 1 600 57 view .LVU255
 848 00f6 DFF88091 		ldr	r9, .L35
 849 00fa 89FB0023 		smull	r2, r3, r9, r0
 850 00fe 0344     		add	r3, r3, r0
 851 0100 C017     		asrs	r0, r0, #31
 852 0102 C0EBA330 		rsb	r0, r0, r3, asr #14
 853              		.loc 1 600 76 view .LVU256
 854 0106 059A     		ldr	r2, [sp, #20]
 855 0108 1044     		add	r0, r0, r2
 856              		.loc 1 600 21 view .LVU257
 857 010a ADF8A200 		strh	r0, [sp, #162]	@ movhi
 601:lvgl/src/lv_widgets/lv_gauge.c ****             p_end.x = (_lv_trigo_sin(needle_angle + 90) * r) / LV_TRIGO_SIN_MAX + x_ofs;
 858              		.loc 1 601 13 is_stmt 1 view .LVU258
 859              		.loc 1 601 51 is_stmt 0 view .LVU259
 860 010e 04F15A00 		add	r0, r4, #90
 861              		.loc 1 601 24 view .LVU260
 862 0112 00B2     		sxth	r0, r0
 863 0114 FFF7FEFF 		bl	_lv_trigo_sin
 864              	.LVL105:
 865              		.loc 1 601 57 view .LVU261
 866 0118 039B     		ldr	r3, [sp, #12]
 867 011a 00FB03F0 		mul	r0, r0, r3
 868              		.loc 1 601 62 view .LVU262
 869 011e 89FB0039 		smull	r3, r9, r9, r0
 870 0122 8144     		add	r9, r9, r0
 871 0124 C017     		asrs	r0, r0, #31
 872 0126 C0EBA930 		rsb	r0, r0, r9, asr #14
ARM GAS  D:\Temp\cc42SHz2.s 			page 36


 873              		.loc 1 601 81 view .LVU263
 874 012a 049B     		ldr	r3, [sp, #16]
 875 012c 1844     		add	r0, r0, r3
 876              		.loc 1 601 21 view .LVU264
 877 012e ADF8A000 		strh	r0, [sp, #160]	@ movhi
 602:lvgl/src/lv_widgets/lv_gauge.c **** 
 603:lvgl/src/lv_widgets/lv_gauge.c ****             /*Draw the needle with the corresponding color*/
 604:lvgl/src/lv_widgets/lv_gauge.c ****             if(ext->needle_colors != NULL) line_dsc.color = ext->needle_colors[i];
 878              		.loc 1 604 13 is_stmt 1 view .LVU265
 879              		.loc 1 604 19 is_stmt 0 view .LVU266
 880 0132 F369     		ldr	r3, [r6, #28]
 881              		.loc 1 604 15 view .LVU267
 882 0134 1BB1     		cbz	r3, .L26
 883              		.loc 1 604 44 is_stmt 1 discriminator 1 view .LVU268
 884              		.loc 1 604 59 is_stmt 0 discriminator 1 view .LVU269
 885 0136 33F81530 		ldrh	r3, [r3, r5, lsl #1]
 886 013a ADF89430 		strh	r3, [sp, #148]	@ movhi
 887              	.L26:
 605:lvgl/src/lv_widgets/lv_gauge.c **** 
 606:lvgl/src/lv_widgets/lv_gauge.c ****             lv_draw_line(&p_mid, &p_end, clip_area, &line_dsc);
 888              		.loc 1 606 13 is_stmt 1 view .LVU270
 889 013e 25AB     		add	r3, sp, #148
 890 0140 009A     		ldr	r2, [sp]
 891 0142 28A9     		add	r1, sp, #160
 892 0144 29A8     		add	r0, sp, #164
 893 0146 FFF7FEFF 		bl	lv_draw_line
 894              	.LVL106:
 895 014a 07E0     		b	.L27
 896              	.LVL107:
 897              	.L29:
 898              	.LBB91:
 607:lvgl/src/lv_widgets/lv_gauge.c ****         }
 608:lvgl/src/lv_widgets/lv_gauge.c ****         /*Draw image*/
 609:lvgl/src/lv_widgets/lv_gauge.c ****         else {
 610:lvgl/src/lv_widgets/lv_gauge.c ****             lv_img_header_t info;
 611:lvgl/src/lv_widgets/lv_gauge.c ****             lv_img_decoder_get_info(ext->needle_img, &info);
 612:lvgl/src/lv_widgets/lv_gauge.c **** 
 613:lvgl/src/lv_widgets/lv_gauge.c ****             lv_area_t a;
 614:lvgl/src/lv_widgets/lv_gauge.c ****             a.x1 = gauge->coords.x1 + lv_area_get_width(&gauge->coords) / 2 - ext->needle_img_pivot
 615:lvgl/src/lv_widgets/lv_gauge.c ****             a.y1 = gauge->coords.y1 + lv_area_get_height(&gauge->coords) / 2  - ext->needle_img_piv
 616:lvgl/src/lv_widgets/lv_gauge.c ****             a.x2 = a.x1 + info.w - 1;
 617:lvgl/src/lv_widgets/lv_gauge.c ****             a.y2 = a.y1 + info.h - 1;
 618:lvgl/src/lv_widgets/lv_gauge.c ****             img_dsc.pivot.x = ext->needle_img_pivot.x;
 619:lvgl/src/lv_widgets/lv_gauge.c ****             img_dsc.pivot.y = ext->needle_img_pivot.y;
 620:lvgl/src/lv_widgets/lv_gauge.c **** 
 621:lvgl/src/lv_widgets/lv_gauge.c ****             if(ext->needle_colors != NULL) img_dsc.recolor = ext->needle_colors[i];
 622:lvgl/src/lv_widgets/lv_gauge.c **** 
 623:lvgl/src/lv_widgets/lv_gauge.c ****             needle_angle = (needle_angle * 10);
 624:lvgl/src/lv_widgets/lv_gauge.c ****             if(needle_angle > 3600) needle_angle -= 3600;
 625:lvgl/src/lv_widgets/lv_gauge.c ****             img_dsc.angle = needle_angle;
 899              		.loc 1 625 13 view .LVU271
 900              		.loc 1 625 27 is_stmt 0 view .LVU272
 901 014c ADF88620 		strh	r2, [sp, #134]	@ movhi
 626:lvgl/src/lv_widgets/lv_gauge.c ****             lv_draw_img(&a, clip_area, ext->needle_img, &img_dsc);
 902              		.loc 1 626 13 is_stmt 1 view .LVU273
 903 0150 21AB     		add	r3, sp, #132
 904 0152 326A     		ldr	r2, [r6, #32]
ARM GAS  D:\Temp\cc42SHz2.s 			page 37


 905              	.LVL108:
 906              		.loc 1 626 13 is_stmt 0 view .LVU274
 907 0154 0099     		ldr	r1, [sp]
 908 0156 08A8     		add	r0, sp, #32
 909 0158 FFF7FEFF 		bl	lv_draw_img
 910              	.LVL109:
 911              	.L27:
 912              		.loc 1 626 13 view .LVU275
 913              	.LBE91:
 914              	.LBE90:
 593:lvgl/src/lv_widgets/lv_gauge.c ****         /*Calculate the end point of a needle*/
 915              		.loc 1 593 40 discriminator 2 view .LVU276
 916 015c 0135     		adds	r5, r5, #1
 917              	.LVL110:
 593:lvgl/src/lv_widgets/lv_gauge.c ****         /*Calculate the end point of a needle*/
 918              		.loc 1 593 40 discriminator 2 view .LVU277
 919 015e EDB2     		uxtb	r5, r5
 920              	.LVL111:
 921              	.L24:
 593:lvgl/src/lv_widgets/lv_gauge.c ****         /*Calculate the end point of a needle*/
 922              		.loc 1 593 23 discriminator 1 view .LVU278
 923 0160 96F83830 		ldrb	r3, [r6, #56]	@ zero_extendqisi2
 593:lvgl/src/lv_widgets/lv_gauge.c ****         /*Calculate the end point of a needle*/
 924              		.loc 1 593 5 discriminator 1 view .LVU279
 925 0164 AB42     		cmp	r3, r5
 926 0166 60D9     		bls	.L33
 927              	.LBB97:
 595:lvgl/src/lv_widgets/lv_gauge.c ****             (ext->values[i] - min) * angle / (max - min) + angle_ofs;
 928              		.loc 1 595 9 is_stmt 1 view .LVU280
 596:lvgl/src/lv_widgets/lv_gauge.c **** 
 929              		.loc 1 596 17 is_stmt 0 view .LVU281
 930 0168 B369     		ldr	r3, [r6, #24]
 596:lvgl/src/lv_widgets/lv_gauge.c **** 
 931              		.loc 1 596 25 view .LVU282
 932 016a 53F82540 		ldr	r4, [r3, r5, lsl #2]
 596:lvgl/src/lv_widgets/lv_gauge.c **** 
 933              		.loc 1 596 29 view .LVU283
 934 016e A4EB0804 		sub	r4, r4, r8
 596:lvgl/src/lv_widgets/lv_gauge.c **** 
 935              		.loc 1 596 36 view .LVU284
 936 0172 019B     		ldr	r3, [sp, #4]
 937 0174 04FB03F4 		mul	r4, r4, r3
 596:lvgl/src/lv_widgets/lv_gauge.c **** 
 938              		.loc 1 596 51 view .LVU285
 939 0178 ABEB0800 		sub	r0, fp, r8
 596:lvgl/src/lv_widgets/lv_gauge.c **** 
 940              		.loc 1 596 44 view .LVU286
 941 017c 94FBF0F4 		sdiv	r4, r4, r0
 596:lvgl/src/lv_widgets/lv_gauge.c **** 
 942              		.loc 1 596 58 view .LVU287
 943 0180 029B     		ldr	r3, [sp, #8]
 944 0182 1C44     		add	r4, r4, r3
 945 0184 A4B2     		uxth	r4, r4
 595:lvgl/src/lv_widgets/lv_gauge.c ****             (ext->values[i] - min) * angle / (max - min) + angle_ofs;
 946              		.loc 1 595 17 view .LVU288
 947 0186 23B2     		sxth	r3, r4
 948              	.LVL112:
ARM GAS  D:\Temp\cc42SHz2.s 			page 38


 599:lvgl/src/lv_widgets/lv_gauge.c ****             p_end.y = (_lv_trigo_sin(needle_angle) * r) / LV_TRIGO_SIN_MAX + y_ofs;
 949              		.loc 1 599 9 is_stmt 1 view .LVU289
 599:lvgl/src/lv_widgets/lv_gauge.c ****             p_end.y = (_lv_trigo_sin(needle_angle) * r) / LV_TRIGO_SIN_MAX + y_ofs;
 950              		.loc 1 599 15 is_stmt 0 view .LVU290
 951 0188 306A     		ldr	r0, [r6, #32]
 599:lvgl/src/lv_widgets/lv_gauge.c ****             p_end.y = (_lv_trigo_sin(needle_angle) * r) / LV_TRIGO_SIN_MAX + y_ofs;
 952              		.loc 1 599 11 view .LVU291
 953 018a 0028     		cmp	r0, #0
 954 018c ADD0     		beq	.L34
 955              	.LBB96:
 610:lvgl/src/lv_widgets/lv_gauge.c ****             lv_img_decoder_get_info(ext->needle_img, &info);
 956              		.loc 1 610 13 is_stmt 1 view .LVU292
 611:lvgl/src/lv_widgets/lv_gauge.c **** 
 957              		.loc 1 611 13 view .LVU293
 958 018e 07A9     		add	r1, sp, #28
 959 0190 FFF7FEFF 		bl	lv_img_decoder_get_info
 960              	.LVL113:
 613:lvgl/src/lv_widgets/lv_gauge.c ****             a.x1 = gauge->coords.x1 + lv_area_get_width(&gauge->coords) / 2 - ext->needle_img_pivot
 961              		.loc 1 613 13 view .LVU294
 614:lvgl/src/lv_widgets/lv_gauge.c ****             a.y1 = gauge->coords.y1 + lv_area_get_height(&gauge->coords) / 2  - ext->needle_img_piv
 962              		.loc 1 614 13 view .LVU295
 614:lvgl/src/lv_widgets/lv_gauge.c ****             a.y1 = gauge->coords.y1 + lv_area_get_height(&gauge->coords) / 2  - ext->needle_img_piv
 963              		.loc 1 614 33 is_stmt 0 view .LVU296
 964 0194 3A8A     		ldrh	r2, [r7, #16]
 965              	.LVL114:
 966              	.LBB92:
 967              	.LBI92:
 968              		.file 4 "d:\\_project\\stm32\\f407\\hack_rf_new\\lvgl\\src\\lv_misc\\lv_area.h"
   1:d:\_project\stm32\f407\hack_rf_new\lvgl\src\lv_misc\lv_area.h **** /**
   2:d:\_project\stm32\f407\hack_rf_new\lvgl\src\lv_misc\lv_area.h ****  * @file lv_area.h
   3:d:\_project\stm32\f407\hack_rf_new\lvgl\src\lv_misc\lv_area.h ****  *
   4:d:\_project\stm32\f407\hack_rf_new\lvgl\src\lv_misc\lv_area.h ****  */
   5:d:\_project\stm32\f407\hack_rf_new\lvgl\src\lv_misc\lv_area.h **** 
   6:d:\_project\stm32\f407\hack_rf_new\lvgl\src\lv_misc\lv_area.h **** #ifndef LV_AREA_H
   7:d:\_project\stm32\f407\hack_rf_new\lvgl\src\lv_misc\lv_area.h **** #define LV_AREA_H
   8:d:\_project\stm32\f407\hack_rf_new\lvgl\src\lv_misc\lv_area.h **** 
   9:d:\_project\stm32\f407\hack_rf_new\lvgl\src\lv_misc\lv_area.h **** #ifdef __cplusplus
  10:d:\_project\stm32\f407\hack_rf_new\lvgl\src\lv_misc\lv_area.h **** extern "C" {
  11:d:\_project\stm32\f407\hack_rf_new\lvgl\src\lv_misc\lv_area.h **** #endif
  12:d:\_project\stm32\f407\hack_rf_new\lvgl\src\lv_misc\lv_area.h **** 
  13:d:\_project\stm32\f407\hack_rf_new\lvgl\src\lv_misc\lv_area.h **** /*********************
  14:d:\_project\stm32\f407\hack_rf_new\lvgl\src\lv_misc\lv_area.h ****  *      INCLUDES
  15:d:\_project\stm32\f407\hack_rf_new\lvgl\src\lv_misc\lv_area.h ****  *********************/
  16:d:\_project\stm32\f407\hack_rf_new\lvgl\src\lv_misc\lv_area.h **** #include "../lv_conf_internal.h"
  17:d:\_project\stm32\f407\hack_rf_new\lvgl\src\lv_misc\lv_area.h **** #include <string.h>
  18:d:\_project\stm32\f407\hack_rf_new\lvgl\src\lv_misc\lv_area.h **** #include <stdbool.h>
  19:d:\_project\stm32\f407\hack_rf_new\lvgl\src\lv_misc\lv_area.h **** #include <stdint.h>
  20:d:\_project\stm32\f407\hack_rf_new\lvgl\src\lv_misc\lv_area.h **** #include "lv_mem.h"
  21:d:\_project\stm32\f407\hack_rf_new\lvgl\src\lv_misc\lv_area.h **** 
  22:d:\_project\stm32\f407\hack_rf_new\lvgl\src\lv_misc\lv_area.h **** /*********************
  23:d:\_project\stm32\f407\hack_rf_new\lvgl\src\lv_misc\lv_area.h ****  *      DEFINES
  24:d:\_project\stm32\f407\hack_rf_new\lvgl\src\lv_misc\lv_area.h ****  *********************/
  25:d:\_project\stm32\f407\hack_rf_new\lvgl\src\lv_misc\lv_area.h **** /*To avoid overflow don't let the max ranges (reduce with 1000) */
  26:d:\_project\stm32\f407\hack_rf_new\lvgl\src\lv_misc\lv_area.h **** #define LV_COORD_MAX ((lv_coord_t)((uint32_t)((uint32_t)1 << (8 * sizeof(lv_coord_t) - 1)) - 1000))
  27:d:\_project\stm32\f407\hack_rf_new\lvgl\src\lv_misc\lv_area.h **** #define LV_COORD_MIN (-LV_COORD_MAX)
  28:d:\_project\stm32\f407\hack_rf_new\lvgl\src\lv_misc\lv_area.h **** 
  29:d:\_project\stm32\f407\hack_rf_new\lvgl\src\lv_misc\lv_area.h **** LV_EXPORT_CONST_INT(LV_COORD_MAX);
ARM GAS  D:\Temp\cc42SHz2.s 			page 39


  30:d:\_project\stm32\f407\hack_rf_new\lvgl\src\lv_misc\lv_area.h **** LV_EXPORT_CONST_INT(LV_COORD_MIN);
  31:d:\_project\stm32\f407\hack_rf_new\lvgl\src\lv_misc\lv_area.h **** 
  32:d:\_project\stm32\f407\hack_rf_new\lvgl\src\lv_misc\lv_area.h **** /**********************
  33:d:\_project\stm32\f407\hack_rf_new\lvgl\src\lv_misc\lv_area.h ****  *      TYPEDEFS
  34:d:\_project\stm32\f407\hack_rf_new\lvgl\src\lv_misc\lv_area.h ****  **********************/
  35:d:\_project\stm32\f407\hack_rf_new\lvgl\src\lv_misc\lv_area.h **** 
  36:d:\_project\stm32\f407\hack_rf_new\lvgl\src\lv_misc\lv_area.h **** /**
  37:d:\_project\stm32\f407\hack_rf_new\lvgl\src\lv_misc\lv_area.h ****  * Represents a point on the screen.
  38:d:\_project\stm32\f407\hack_rf_new\lvgl\src\lv_misc\lv_area.h ****  */
  39:d:\_project\stm32\f407\hack_rf_new\lvgl\src\lv_misc\lv_area.h **** typedef struct {
  40:d:\_project\stm32\f407\hack_rf_new\lvgl\src\lv_misc\lv_area.h ****     lv_coord_t x;
  41:d:\_project\stm32\f407\hack_rf_new\lvgl\src\lv_misc\lv_area.h ****     lv_coord_t y;
  42:d:\_project\stm32\f407\hack_rf_new\lvgl\src\lv_misc\lv_area.h **** } lv_point_t;
  43:d:\_project\stm32\f407\hack_rf_new\lvgl\src\lv_misc\lv_area.h **** 
  44:d:\_project\stm32\f407\hack_rf_new\lvgl\src\lv_misc\lv_area.h **** /** Represents an area of the screen. */
  45:d:\_project\stm32\f407\hack_rf_new\lvgl\src\lv_misc\lv_area.h **** typedef struct {
  46:d:\_project\stm32\f407\hack_rf_new\lvgl\src\lv_misc\lv_area.h ****     lv_coord_t x1;
  47:d:\_project\stm32\f407\hack_rf_new\lvgl\src\lv_misc\lv_area.h ****     lv_coord_t y1;
  48:d:\_project\stm32\f407\hack_rf_new\lvgl\src\lv_misc\lv_area.h ****     lv_coord_t x2;
  49:d:\_project\stm32\f407\hack_rf_new\lvgl\src\lv_misc\lv_area.h ****     lv_coord_t y2;
  50:d:\_project\stm32\f407\hack_rf_new\lvgl\src\lv_misc\lv_area.h **** } lv_area_t;
  51:d:\_project\stm32\f407\hack_rf_new\lvgl\src\lv_misc\lv_area.h **** 
  52:d:\_project\stm32\f407\hack_rf_new\lvgl\src\lv_misc\lv_area.h **** /** Alignments */
  53:d:\_project\stm32\f407\hack_rf_new\lvgl\src\lv_misc\lv_area.h **** enum {
  54:d:\_project\stm32\f407\hack_rf_new\lvgl\src\lv_misc\lv_area.h ****     LV_ALIGN_CENTER = 0,
  55:d:\_project\stm32\f407\hack_rf_new\lvgl\src\lv_misc\lv_area.h ****     LV_ALIGN_IN_TOP_LEFT,
  56:d:\_project\stm32\f407\hack_rf_new\lvgl\src\lv_misc\lv_area.h ****     LV_ALIGN_IN_TOP_MID,
  57:d:\_project\stm32\f407\hack_rf_new\lvgl\src\lv_misc\lv_area.h ****     LV_ALIGN_IN_TOP_RIGHT,
  58:d:\_project\stm32\f407\hack_rf_new\lvgl\src\lv_misc\lv_area.h ****     LV_ALIGN_IN_BOTTOM_LEFT,
  59:d:\_project\stm32\f407\hack_rf_new\lvgl\src\lv_misc\lv_area.h ****     LV_ALIGN_IN_BOTTOM_MID,
  60:d:\_project\stm32\f407\hack_rf_new\lvgl\src\lv_misc\lv_area.h ****     LV_ALIGN_IN_BOTTOM_RIGHT,
  61:d:\_project\stm32\f407\hack_rf_new\lvgl\src\lv_misc\lv_area.h ****     LV_ALIGN_IN_LEFT_MID,
  62:d:\_project\stm32\f407\hack_rf_new\lvgl\src\lv_misc\lv_area.h ****     LV_ALIGN_IN_RIGHT_MID,
  63:d:\_project\stm32\f407\hack_rf_new\lvgl\src\lv_misc\lv_area.h ****     LV_ALIGN_OUT_TOP_LEFT,
  64:d:\_project\stm32\f407\hack_rf_new\lvgl\src\lv_misc\lv_area.h ****     LV_ALIGN_OUT_TOP_MID,
  65:d:\_project\stm32\f407\hack_rf_new\lvgl\src\lv_misc\lv_area.h ****     LV_ALIGN_OUT_TOP_RIGHT,
  66:d:\_project\stm32\f407\hack_rf_new\lvgl\src\lv_misc\lv_area.h ****     LV_ALIGN_OUT_BOTTOM_LEFT,
  67:d:\_project\stm32\f407\hack_rf_new\lvgl\src\lv_misc\lv_area.h ****     LV_ALIGN_OUT_BOTTOM_MID,
  68:d:\_project\stm32\f407\hack_rf_new\lvgl\src\lv_misc\lv_area.h ****     LV_ALIGN_OUT_BOTTOM_RIGHT,
  69:d:\_project\stm32\f407\hack_rf_new\lvgl\src\lv_misc\lv_area.h ****     LV_ALIGN_OUT_LEFT_TOP,
  70:d:\_project\stm32\f407\hack_rf_new\lvgl\src\lv_misc\lv_area.h ****     LV_ALIGN_OUT_LEFT_MID,
  71:d:\_project\stm32\f407\hack_rf_new\lvgl\src\lv_misc\lv_area.h ****     LV_ALIGN_OUT_LEFT_BOTTOM,
  72:d:\_project\stm32\f407\hack_rf_new\lvgl\src\lv_misc\lv_area.h ****     LV_ALIGN_OUT_RIGHT_TOP,
  73:d:\_project\stm32\f407\hack_rf_new\lvgl\src\lv_misc\lv_area.h ****     LV_ALIGN_OUT_RIGHT_MID,
  74:d:\_project\stm32\f407\hack_rf_new\lvgl\src\lv_misc\lv_area.h ****     LV_ALIGN_OUT_RIGHT_BOTTOM,
  75:d:\_project\stm32\f407\hack_rf_new\lvgl\src\lv_misc\lv_area.h **** };
  76:d:\_project\stm32\f407\hack_rf_new\lvgl\src\lv_misc\lv_area.h **** typedef uint8_t lv_align_t;
  77:d:\_project\stm32\f407\hack_rf_new\lvgl\src\lv_misc\lv_area.h **** 
  78:d:\_project\stm32\f407\hack_rf_new\lvgl\src\lv_misc\lv_area.h **** /**********************
  79:d:\_project\stm32\f407\hack_rf_new\lvgl\src\lv_misc\lv_area.h ****  * GLOBAL PROTOTYPES
  80:d:\_project\stm32\f407\hack_rf_new\lvgl\src\lv_misc\lv_area.h ****  **********************/
  81:d:\_project\stm32\f407\hack_rf_new\lvgl\src\lv_misc\lv_area.h **** 
  82:d:\_project\stm32\f407\hack_rf_new\lvgl\src\lv_misc\lv_area.h **** /**
  83:d:\_project\stm32\f407\hack_rf_new\lvgl\src\lv_misc\lv_area.h ****  * Initialize an area
  84:d:\_project\stm32\f407\hack_rf_new\lvgl\src\lv_misc\lv_area.h ****  * @param area_p pointer to an area
  85:d:\_project\stm32\f407\hack_rf_new\lvgl\src\lv_misc\lv_area.h ****  * @param x1 left coordinate of the area
  86:d:\_project\stm32\f407\hack_rf_new\lvgl\src\lv_misc\lv_area.h ****  * @param y1 top coordinate of the area
ARM GAS  D:\Temp\cc42SHz2.s 			page 40


  87:d:\_project\stm32\f407\hack_rf_new\lvgl\src\lv_misc\lv_area.h ****  * @param x2 right coordinate of the area
  88:d:\_project\stm32\f407\hack_rf_new\lvgl\src\lv_misc\lv_area.h ****  * @param y2 bottom coordinate of the area
  89:d:\_project\stm32\f407\hack_rf_new\lvgl\src\lv_misc\lv_area.h ****  */
  90:d:\_project\stm32\f407\hack_rf_new\lvgl\src\lv_misc\lv_area.h **** void lv_area_set(lv_area_t * area_p, lv_coord_t x1, lv_coord_t y1, lv_coord_t x2, lv_coord_t y2);
  91:d:\_project\stm32\f407\hack_rf_new\lvgl\src\lv_misc\lv_area.h **** 
  92:d:\_project\stm32\f407\hack_rf_new\lvgl\src\lv_misc\lv_area.h **** /**
  93:d:\_project\stm32\f407\hack_rf_new\lvgl\src\lv_misc\lv_area.h ****  * Copy an area
  94:d:\_project\stm32\f407\hack_rf_new\lvgl\src\lv_misc\lv_area.h ****  * @param dest pointer to the destination area
  95:d:\_project\stm32\f407\hack_rf_new\lvgl\src\lv_misc\lv_area.h ****  * @param src pointer to the source area
  96:d:\_project\stm32\f407\hack_rf_new\lvgl\src\lv_misc\lv_area.h ****  */
  97:d:\_project\stm32\f407\hack_rf_new\lvgl\src\lv_misc\lv_area.h **** inline static void lv_area_copy(lv_area_t * dest, const lv_area_t * src)
  98:d:\_project\stm32\f407\hack_rf_new\lvgl\src\lv_misc\lv_area.h **** {
  99:d:\_project\stm32\f407\hack_rf_new\lvgl\src\lv_misc\lv_area.h ****     _lv_memcpy_small(dest, src, sizeof(lv_area_t));
 100:d:\_project\stm32\f407\hack_rf_new\lvgl\src\lv_misc\lv_area.h **** }
 101:d:\_project\stm32\f407\hack_rf_new\lvgl\src\lv_misc\lv_area.h **** 
 102:d:\_project\stm32\f407\hack_rf_new\lvgl\src\lv_misc\lv_area.h **** /**
 103:d:\_project\stm32\f407\hack_rf_new\lvgl\src\lv_misc\lv_area.h ****  * Get the width of an area
 104:d:\_project\stm32\f407\hack_rf_new\lvgl\src\lv_misc\lv_area.h ****  * @param area_p pointer to an area
 105:d:\_project\stm32\f407\hack_rf_new\lvgl\src\lv_misc\lv_area.h ****  * @return the width of the area (if x1 == x2 -> width = 1)
 106:d:\_project\stm32\f407\hack_rf_new\lvgl\src\lv_misc\lv_area.h ****  */
 107:d:\_project\stm32\f407\hack_rf_new\lvgl\src\lv_misc\lv_area.h **** static inline lv_coord_t lv_area_get_width(const lv_area_t * area_p)
 969              		.loc 4 107 26 is_stmt 1 view .LVU297
 970              	.LBB93:
 108:d:\_project\stm32\f407\hack_rf_new\lvgl\src\lv_misc\lv_area.h **** {
 109:d:\_project\stm32\f407\hack_rf_new\lvgl\src\lv_misc\lv_area.h ****     return (lv_coord_t)(area_p->x2 - area_p->x1 + 1);
 971              		.loc 4 109 5 view .LVU298
 972              		.loc 4 109 31 is_stmt 0 view .LVU299
 973 0196 BB8A     		ldrh	r3, [r7, #20]
 974              		.loc 4 109 36 view .LVU300
 975 0198 9B1A     		subs	r3, r3, r2
 976 019a 9BB2     		uxth	r3, r3
 977              		.loc 4 109 49 view .LVU301
 978 019c 0133     		adds	r3, r3, #1
 979              		.loc 4 109 12 view .LVU302
 980 019e 1BB2     		sxth	r3, r3
 981              	.LVL115:
 982              		.loc 4 109 12 view .LVU303
 983              	.LBE93:
 984              	.LBE92:
 614:lvgl/src/lv_widgets/lv_gauge.c ****             a.y1 = gauge->coords.y1 + lv_area_get_height(&gauge->coords) / 2  - ext->needle_img_piv
 985              		.loc 1 614 37 view .LVU304
 986 01a0 03EBD373 		add	r3, r3, r3, lsr #31
 987 01a4 02EB6302 		add	r2, r2, r3, asr #1
 988 01a8 92B2     		uxth	r2, r2
 614:lvgl/src/lv_widgets/lv_gauge.c ****             a.y1 = gauge->coords.y1 + lv_area_get_height(&gauge->coords) / 2  - ext->needle_img_piv
 989              		.loc 1 614 100 view .LVU305
 990 01aa B6F92400 		ldrsh	r0, [r6, #36]
 991 01ae 83B2     		uxth	r3, r0
 614:lvgl/src/lv_widgets/lv_gauge.c ****             a.y1 = gauge->coords.y1 + lv_area_get_height(&gauge->coords) / 2  - ext->needle_img_piv
 992              		.loc 1 614 77 view .LVU306
 993 01b0 D21A     		subs	r2, r2, r3
 994 01b2 92B2     		uxth	r2, r2
 614:lvgl/src/lv_widgets/lv_gauge.c ****             a.y1 = gauge->coords.y1 + lv_area_get_height(&gauge->coords) / 2  - ext->needle_img_piv
 995              		.loc 1 614 18 view .LVU307
 996 01b4 ADF82020 		strh	r2, [sp, #32]	@ movhi
 615:lvgl/src/lv_widgets/lv_gauge.c ****             a.x2 = a.x1 + info.w - 1;
 997              		.loc 1 615 13 is_stmt 1 view .LVU308
ARM GAS  D:\Temp\cc42SHz2.s 			page 41


 615:lvgl/src/lv_widgets/lv_gauge.c ****             a.x2 = a.x1 + info.w - 1;
 998              		.loc 1 615 33 is_stmt 0 view .LVU309
 999 01b8 7B8A     		ldrh	r3, [r7, #18]
 1000              	.LVL116:
 1001              	.LBB94:
 1002              	.LBI94:
 110:d:\_project\stm32\f407\hack_rf_new\lvgl\src\lv_misc\lv_area.h **** }
 111:d:\_project\stm32\f407\hack_rf_new\lvgl\src\lv_misc\lv_area.h **** 
 112:d:\_project\stm32\f407\hack_rf_new\lvgl\src\lv_misc\lv_area.h **** /**
 113:d:\_project\stm32\f407\hack_rf_new\lvgl\src\lv_misc\lv_area.h ****  * Get the height of an area
 114:d:\_project\stm32\f407\hack_rf_new\lvgl\src\lv_misc\lv_area.h ****  * @param area_p pointer to an area
 115:d:\_project\stm32\f407\hack_rf_new\lvgl\src\lv_misc\lv_area.h ****  * @return the height of the area (if y1 == y2 -> height = 1)
 116:d:\_project\stm32\f407\hack_rf_new\lvgl\src\lv_misc\lv_area.h ****  */
 117:d:\_project\stm32\f407\hack_rf_new\lvgl\src\lv_misc\lv_area.h **** static inline lv_coord_t lv_area_get_height(const lv_area_t * area_p)
 1003              		.loc 4 117 26 is_stmt 1 view .LVU310
 1004              	.LBB95:
 118:d:\_project\stm32\f407\hack_rf_new\lvgl\src\lv_misc\lv_area.h **** {
 119:d:\_project\stm32\f407\hack_rf_new\lvgl\src\lv_misc\lv_area.h ****     return (lv_coord_t)(area_p->y2 - area_p->y1 + 1);
 1005              		.loc 4 119 5 view .LVU311
 1006              		.loc 4 119 31 is_stmt 0 view .LVU312
 1007 01ba F98A     		ldrh	r1, [r7, #22]
 1008              		.loc 4 119 36 view .LVU313
 1009 01bc C91A     		subs	r1, r1, r3
 1010 01be 89B2     		uxth	r1, r1
 1011              		.loc 4 119 49 view .LVU314
 1012 01c0 0131     		adds	r1, r1, #1
 1013              		.loc 4 119 12 view .LVU315
 1014 01c2 09B2     		sxth	r1, r1
 1015              	.LVL117:
 1016              		.loc 4 119 12 view .LVU316
 1017              	.LBE95:
 1018              	.LBE94:
 615:lvgl/src/lv_widgets/lv_gauge.c ****             a.x2 = a.x1 + info.w - 1;
 1019              		.loc 1 615 37 view .LVU317
 1020 01c4 01EBD171 		add	r1, r1, r1, lsr #31
 1021 01c8 03EB6103 		add	r3, r3, r1, asr #1
 1022 01cc 9BB2     		uxth	r3, r3
 615:lvgl/src/lv_widgets/lv_gauge.c ****             a.x2 = a.x1 + info.w - 1;
 1023              		.loc 1 615 102 view .LVU318
 1024 01ce B6F926C0 		ldrsh	ip, [r6, #38]
 1025 01d2 1FFA8CF1 		uxth	r1, ip
 615:lvgl/src/lv_widgets/lv_gauge.c ****             a.x2 = a.x1 + info.w - 1;
 1026              		.loc 1 615 79 view .LVU319
 1027 01d6 5B1A     		subs	r3, r3, r1
 1028 01d8 9BB2     		uxth	r3, r3
 615:lvgl/src/lv_widgets/lv_gauge.c ****             a.x2 = a.x1 + info.w - 1;
 1029              		.loc 1 615 18 view .LVU320
 1030 01da ADF82230 		strh	r3, [sp, #34]	@ movhi
 616:lvgl/src/lv_widgets/lv_gauge.c ****             a.y2 = a.y1 + info.h - 1;
 1031              		.loc 1 616 13 is_stmt 1 view .LVU321
 616:lvgl/src/lv_widgets/lv_gauge.c ****             a.y2 = a.y1 + info.h - 1;
 1032              		.loc 1 616 31 is_stmt 0 view .LVU322
 1033 01de 0799     		ldr	r1, [sp, #28]
 1034 01e0 C1F38A21 		ubfx	r1, r1, #10, #11
 616:lvgl/src/lv_widgets/lv_gauge.c ****             a.y2 = a.y1 + info.h - 1;
 1035              		.loc 1 616 25 view .LVU323
 1036 01e4 0A44     		add	r2, r2, r1
ARM GAS  D:\Temp\cc42SHz2.s 			page 42


 1037 01e6 92B2     		uxth	r2, r2
 616:lvgl/src/lv_widgets/lv_gauge.c ****             a.y2 = a.y1 + info.h - 1;
 1038              		.loc 1 616 34 view .LVU324
 1039 01e8 013A     		subs	r2, r2, #1
 616:lvgl/src/lv_widgets/lv_gauge.c ****             a.y2 = a.y1 + info.h - 1;
 1040              		.loc 1 616 18 view .LVU325
 1041 01ea ADF82420 		strh	r2, [sp, #36]	@ movhi
 617:lvgl/src/lv_widgets/lv_gauge.c ****             img_dsc.pivot.x = ext->needle_img_pivot.x;
 1042              		.loc 1 617 13 is_stmt 1 view .LVU326
 617:lvgl/src/lv_widgets/lv_gauge.c ****             img_dsc.pivot.x = ext->needle_img_pivot.x;
 1043              		.loc 1 617 31 is_stmt 0 view .LVU327
 1044 01ee BDF81E20 		ldrh	r2, [sp, #30]
 617:lvgl/src/lv_widgets/lv_gauge.c ****             img_dsc.pivot.x = ext->needle_img_pivot.x;
 1045              		.loc 1 617 25 view .LVU328
 1046 01f2 03EB5213 		add	r3, r3, r2, lsr #5
 1047 01f6 9BB2     		uxth	r3, r3
 617:lvgl/src/lv_widgets/lv_gauge.c ****             img_dsc.pivot.x = ext->needle_img_pivot.x;
 1048              		.loc 1 617 34 view .LVU329
 1049 01f8 013B     		subs	r3, r3, #1
 617:lvgl/src/lv_widgets/lv_gauge.c ****             img_dsc.pivot.x = ext->needle_img_pivot.x;
 1050              		.loc 1 617 18 view .LVU330
 1051 01fa ADF82630 		strh	r3, [sp, #38]	@ movhi
 618:lvgl/src/lv_widgets/lv_gauge.c ****             img_dsc.pivot.y = ext->needle_img_pivot.y;
 1052              		.loc 1 618 13 is_stmt 1 view .LVU331
 618:lvgl/src/lv_widgets/lv_gauge.c ****             img_dsc.pivot.y = ext->needle_img_pivot.y;
 1053              		.loc 1 618 29 is_stmt 0 view .LVU332
 1054 01fe ADF88800 		strh	r0, [sp, #136]	@ movhi
 619:lvgl/src/lv_widgets/lv_gauge.c **** 
 1055              		.loc 1 619 13 is_stmt 1 view .LVU333
 619:lvgl/src/lv_widgets/lv_gauge.c **** 
 1056              		.loc 1 619 29 is_stmt 0 view .LVU334
 1057 0202 ADF88AC0 		strh	ip, [sp, #138]	@ movhi
 621:lvgl/src/lv_widgets/lv_gauge.c **** 
 1058              		.loc 1 621 13 is_stmt 1 view .LVU335
 621:lvgl/src/lv_widgets/lv_gauge.c **** 
 1059              		.loc 1 621 19 is_stmt 0 view .LVU336
 1060 0206 F369     		ldr	r3, [r6, #28]
 621:lvgl/src/lv_widgets/lv_gauge.c **** 
 1061              		.loc 1 621 15 view .LVU337
 1062 0208 1BB1     		cbz	r3, .L28
 621:lvgl/src/lv_widgets/lv_gauge.c **** 
 1063              		.loc 1 621 44 is_stmt 1 discriminator 1 view .LVU338
 621:lvgl/src/lv_widgets/lv_gauge.c **** 
 1064              		.loc 1 621 60 is_stmt 0 discriminator 1 view .LVU339
 1065 020a 33F81530 		ldrh	r3, [r3, r5, lsl #1]
 1066 020e ADF89030 		strh	r3, [sp, #144]	@ movhi
 1067              	.L28:
 623:lvgl/src/lv_widgets/lv_gauge.c ****             if(needle_angle > 3600) needle_angle -= 3600;
 1068              		.loc 1 623 13 is_stmt 1 view .LVU340
 623:lvgl/src/lv_widgets/lv_gauge.c ****             if(needle_angle > 3600) needle_angle -= 3600;
 1069              		.loc 1 623 42 is_stmt 0 view .LVU341
 1070 0212 04EB8404 		add	r4, r4, r4, lsl #2
 1071              	.LVL118:
 623:lvgl/src/lv_widgets/lv_gauge.c ****             if(needle_angle > 3600) needle_angle -= 3600;
 1072              		.loc 1 623 42 view .LVU342
 1073 0216 6300     		lsls	r3, r4, #1
 1074 0218 9BB2     		uxth	r3, r3
ARM GAS  D:\Temp\cc42SHz2.s 			page 43


 623:lvgl/src/lv_widgets/lv_gauge.c ****             if(needle_angle > 3600) needle_angle -= 3600;
 1075              		.loc 1 623 26 view .LVU343
 1076 021a 1AB2     		sxth	r2, r3
 1077              	.LVL119:
 624:lvgl/src/lv_widgets/lv_gauge.c ****             img_dsc.angle = needle_angle;
 1078              		.loc 1 624 13 is_stmt 1 view .LVU344
 624:lvgl/src/lv_widgets/lv_gauge.c ****             img_dsc.angle = needle_angle;
 1079              		.loc 1 624 15 is_stmt 0 view .LVU345
 1080 021c B2F5616F 		cmp	r2, #3600
 1081 0220 94DD     		ble	.L29
 624:lvgl/src/lv_widgets/lv_gauge.c ****             img_dsc.angle = needle_angle;
 1082              		.loc 1 624 37 is_stmt 1 discriminator 1 view .LVU346
 624:lvgl/src/lv_widgets/lv_gauge.c ****             img_dsc.angle = needle_angle;
 1083              		.loc 1 624 50 is_stmt 0 discriminator 1 view .LVU347
 1084 0222 A3F56163 		sub	r3, r3, #3600
 1085 0226 1AB2     		sxth	r2, r3
 1086              	.LVL120:
 624:lvgl/src/lv_widgets/lv_gauge.c ****             img_dsc.angle = needle_angle;
 1087              		.loc 1 624 50 discriminator 1 view .LVU348
 1088 0228 90E7     		b	.L29
 1089              	.LVL121:
 1090              	.L33:
 624:lvgl/src/lv_widgets/lv_gauge.c ****             img_dsc.angle = needle_angle;
 1091              		.loc 1 624 50 discriminator 1 view .LVU349
 1092              	.LBE96:
 1093              	.LBE97:
 627:lvgl/src/lv_widgets/lv_gauge.c ****         }
 628:lvgl/src/lv_widgets/lv_gauge.c ****     }
 629:lvgl/src/lv_widgets/lv_gauge.c **** 
 630:lvgl/src/lv_widgets/lv_gauge.c ****     lv_draw_rect_dsc_t mid_dsc;
 1094              		.loc 1 630 5 is_stmt 1 view .LVU350
 631:lvgl/src/lv_widgets/lv_gauge.c ****     lv_draw_rect_dsc_init(&mid_dsc);
 1095              		.loc 1 631 5 view .LVU351
 1096 022a 0CA8     		add	r0, sp, #48
 1097 022c FFF7FEFF 		bl	lv_draw_rect_dsc_init
 1098              	.LVL122:
 632:lvgl/src/lv_widgets/lv_gauge.c ****     lv_obj_init_draw_rect_dsc(gauge, LV_GAUGE_PART_NEEDLE, &mid_dsc);
 1099              		.loc 1 632 5 view .LVU352
 1100 0230 0CAA     		add	r2, sp, #48
 1101 0232 0221     		movs	r1, #2
 1102 0234 3846     		mov	r0, r7
 1103 0236 FFF7FEFF 		bl	lv_obj_init_draw_rect_dsc
 1104              	.LVL123:
 633:lvgl/src/lv_widgets/lv_gauge.c ****     lv_style_int_t size = lv_obj_get_style_size(gauge, LV_GAUGE_PART_NEEDLE) / 2;
 1105              		.loc 1 633 5 view .LVU353
 1106              	.LBB98:
 1107              	.LBI98:
 104:lvgl/src/lv_widgets/../lv_core/lv_obj_style_dec.h **** _LV_OBJ_STYLE_SET_GET_DECLARE(TRANSFORM_WIDTH, transform_width, lv_style_int_t, _int, scalar)
 1108              		.loc 2 104 1 view .LVU354
 1109              	.LBB99:
 104:lvgl/src/lv_widgets/../lv_core/lv_obj_style_dec.h **** _LV_OBJ_STYLE_SET_GET_DECLARE(TRANSFORM_WIDTH, transform_width, lv_style_int_t, _int, scalar)
 1110              		.loc 2 104 1 view .LVU355
 1111 023a 0322     		movs	r2, #3
 1112 023c 0221     		movs	r1, #2
 1113 023e 3846     		mov	r0, r7
 1114 0240 FFF7FEFF 		bl	_lv_obj_get_style_int
 1115              	.LVL124:
ARM GAS  D:\Temp\cc42SHz2.s 			page 44


 104:lvgl/src/lv_widgets/../lv_core/lv_obj_style_dec.h **** _LV_OBJ_STYLE_SET_GET_DECLARE(TRANSFORM_WIDTH, transform_width, lv_style_int_t, _int, scalar)
 1116              		.loc 2 104 1 is_stmt 0 view .LVU356
 1117              	.LBE99:
 1118              	.LBE98:
 1119              		.loc 1 633 20 view .LVU357
 1120 0244 00EBD070 		add	r0, r0, r0, lsr #31
 1121              	.LVL125:
 634:lvgl/src/lv_widgets/lv_gauge.c ****     lv_area_t nm_cord;
 1122              		.loc 1 634 5 is_stmt 1 view .LVU358
 635:lvgl/src/lv_widgets/lv_gauge.c ****     nm_cord.x1 = x_ofs - size;
 1123              		.loc 1 635 5 view .LVU359
 1124              		.loc 1 635 24 is_stmt 0 view .LVU360
 1125 0248 C0F34F00 		ubfx	r0, r0, #1, #16
 1126              	.LVL126:
 1127              		.loc 1 635 24 view .LVU361
 1128 024c 049A     		ldr	r2, [sp, #16]
 1129 024e 131A     		subs	r3, r2, r0
 1130              		.loc 1 635 16 view .LVU362
 1131 0250 ADF82830 		strh	r3, [sp, #40]	@ movhi
 636:lvgl/src/lv_widgets/lv_gauge.c ****     nm_cord.y1 = y_ofs - size;
 1132              		.loc 1 636 5 is_stmt 1 view .LVU363
 1133              		.loc 1 636 24 is_stmt 0 view .LVU364
 1134 0254 0599     		ldr	r1, [sp, #20]
 1135 0256 0B1A     		subs	r3, r1, r0
 1136              		.loc 1 636 16 view .LVU365
 1137 0258 ADF82A30 		strh	r3, [sp, #42]	@ movhi
 637:lvgl/src/lv_widgets/lv_gauge.c ****     nm_cord.x2 = x_ofs + size;
 1138              		.loc 1 637 5 is_stmt 1 view .LVU366
 1139              		.loc 1 637 24 is_stmt 0 view .LVU367
 1140 025c 1318     		adds	r3, r2, r0
 1141              		.loc 1 637 16 view .LVU368
 1142 025e ADF82C30 		strh	r3, [sp, #44]	@ movhi
 638:lvgl/src/lv_widgets/lv_gauge.c ****     nm_cord.y2 = y_ofs + size;
 1143              		.loc 1 638 5 is_stmt 1 view .LVU369
 1144              		.loc 1 638 24 is_stmt 0 view .LVU370
 1145 0262 0844     		add	r0, r0, r1
 1146              		.loc 1 638 16 view .LVU371
 1147 0264 ADF82E00 		strh	r0, [sp, #46]	@ movhi
 639:lvgl/src/lv_widgets/lv_gauge.c ****     lv_draw_rect(&nm_cord, clip_area, &mid_dsc);
 1148              		.loc 1 639 5 is_stmt 1 view .LVU372
 1149 0268 0CAA     		add	r2, sp, #48
 1150 026a 0099     		ldr	r1, [sp]
 1151 026c 0AA8     		add	r0, sp, #40
 1152 026e FFF7FEFF 		bl	lv_draw_rect
 1153              	.LVL127:
 640:lvgl/src/lv_widgets/lv_gauge.c **** }
 1154              		.loc 1 640 1 is_stmt 0 view .LVU373
 1155 0272 2BB0     		add	sp, sp, #172
 1156              	.LCFI6:
 1157              		.cfi_def_cfa_offset 36
 1158              	.LVL128:
 1159              		.loc 1 640 1 view .LVU374
 1160              		@ sp needed
 1161 0274 BDE8F08F 		pop	{r4, r5, r6, r7, r8, r9, r10, fp, pc}
 1162              	.LVL129:
 1163              	.L36:
 1164              		.loc 1 640 1 view .LVU375
ARM GAS  D:\Temp\cc42SHz2.s 			page 45


 1165              		.align	2
 1166              	.L35:
 1167 0278 03000180 		.word	-2147418109
 1168              		.cfi_endproc
 1169              	.LFE486:
 1171              		.section	.text.lv_gauge_design,"ax",%progbits
 1172              		.align	1
 1173              		.syntax unified
 1174              		.thumb
 1175              		.thumb_func
 1176              		.fpu fpv4-sp-d16
 1178              	lv_gauge_design:
 1179              	.LVL130:
 1180              	.LFB482:
 407:lvgl/src/lv_widgets/lv_gauge.c ****     /*Return false if the object is not covers the mask_p area*/
 1181              		.loc 1 407 1 is_stmt 1 view -0
 1182              		.cfi_startproc
 1183              		@ args = 0, pretend = 0, frame = 0
 1184              		@ frame_needed = 0, uses_anonymous_args = 0
 409:lvgl/src/lv_widgets/lv_gauge.c ****         return LV_DESIGN_RES_NOT_COVER;
 1185              		.loc 1 409 5 view .LVU377
 409:lvgl/src/lv_widgets/lv_gauge.c ****         return LV_DESIGN_RES_NOT_COVER;
 1186              		.loc 1 409 7 is_stmt 0 view .LVU378
 1187 0000 022A     		cmp	r2, #2
 1188 0002 27D0     		beq	.L40
 407:lvgl/src/lv_widgets/lv_gauge.c ****     /*Return false if the object is not covers the mask_p area*/
 1189              		.loc 1 407 1 view .LVU379
 1190 0004 F8B5     		push	{r3, r4, r5, r6, r7, lr}
 1191              	.LCFI7:
 1192              		.cfi_def_cfa_offset 24
 1193              		.cfi_offset 3, -24
 1194              		.cfi_offset 4, -20
 1195              		.cfi_offset 5, -16
 1196              		.cfi_offset 6, -12
 1197              		.cfi_offset 7, -8
 1198              		.cfi_offset 14, -4
 1199 0006 0E46     		mov	r6, r1
 1200 0008 0446     		mov	r4, r0
 413:lvgl/src/lv_widgets/lv_gauge.c ****         ancestor_design(gauge, clip_area, mode);
 1201              		.loc 1 413 10 is_stmt 1 view .LVU380
 413:lvgl/src/lv_widgets/lv_gauge.c ****         ancestor_design(gauge, clip_area, mode);
 1202              		.loc 1 413 12 is_stmt 0 view .LVU381
 1203 000a D2B9     		cbnz	r2, .L39
 1204              	.LBB100:
 414:lvgl/src/lv_widgets/lv_gauge.c **** 
 1205              		.loc 1 414 9 is_stmt 1 view .LVU382
 1206 000c 124B     		ldr	r3, .L47
 1207 000e 1B68     		ldr	r3, [r3]
 1208 0010 9847     		blx	r3
 1209              	.LVL131:
 416:lvgl/src/lv_widgets/lv_gauge.c ****         lv_gauge_draw_labels(gauge, clip_area);
 1210              		.loc 1 416 9 view .LVU383
 416:lvgl/src/lv_widgets/lv_gauge.c ****         lv_gauge_draw_labels(gauge, clip_area);
 1211              		.loc 1 416 42 is_stmt 0 view .LVU384
 1212 0012 2046     		mov	r0, r4
 1213 0014 FFF7FEFF 		bl	lv_obj_get_ext_attr
 1214              	.LVL132:
ARM GAS  D:\Temp\cc42SHz2.s 			page 46


 1215 0018 0546     		mov	r5, r0
 1216              	.LVL133:
 417:lvgl/src/lv_widgets/lv_gauge.c **** 
 1217              		.loc 1 417 9 is_stmt 1 view .LVU385
 1218 001a 3146     		mov	r1, r6
 1219 001c 2046     		mov	r0, r4
 1220              	.LVL134:
 417:lvgl/src/lv_widgets/lv_gauge.c **** 
 1221              		.loc 1 417 9 is_stmt 0 view .LVU386
 1222 001e FFF7FEFF 		bl	lv_gauge_draw_labels
 1223              	.LVL135:
 420:lvgl/src/lv_widgets/lv_gauge.c ****         ext->lmeter.line_cnt         = ext->label_count;                 /*Only to labels*/
 1224              		.loc 1 420 9 is_stmt 1 view .LVU387
 420:lvgl/src/lv_widgets/lv_gauge.c ****         ext->lmeter.line_cnt         = ext->label_count;                 /*Only to labels*/
 1225              		.loc 1 420 18 is_stmt 0 view .LVU388
 1226 0022 AF88     		ldrh	r7, [r5, #4]
 1227              	.LVL136:
 421:lvgl/src/lv_widgets/lv_gauge.c ****         lv_linemeter_draw_scale(gauge, clip_area, LV_GAUGE_PART_MAJOR);
 1228              		.loc 1 421 9 is_stmt 1 view .LVU389
 421:lvgl/src/lv_widgets/lv_gauge.c ****         lv_linemeter_draw_scale(gauge, clip_area, LV_GAUGE_PART_MAJOR);
 1229              		.loc 1 421 43 is_stmt 0 view .LVU390
 1230 0024 95F83930 		ldrb	r3, [r5, #57]	@ zero_extendqisi2
 421:lvgl/src/lv_widgets/lv_gauge.c ****         lv_linemeter_draw_scale(gauge, clip_area, LV_GAUGE_PART_MAJOR);
 1231              		.loc 1 421 38 view .LVU391
 1232 0028 AB80     		strh	r3, [r5, #4]	@ movhi
 422:lvgl/src/lv_widgets/lv_gauge.c ****         ext->lmeter.line_cnt = line_cnt_tmp; /*Restore the parameters*/
 1233              		.loc 1 422 9 is_stmt 1 view .LVU392
 1234 002a 0122     		movs	r2, #1
 1235 002c 3146     		mov	r1, r6
 1236 002e 2046     		mov	r0, r4
 1237 0030 FFF7FEFF 		bl	lv_linemeter_draw_scale
 1238              	.LVL137:
 423:lvgl/src/lv_widgets/lv_gauge.c **** 
 1239              		.loc 1 423 9 view .LVU393
 423:lvgl/src/lv_widgets/lv_gauge.c **** 
 1240              		.loc 1 423 30 is_stmt 0 view .LVU394
 1241 0034 AF80     		strh	r7, [r5, #4]	@ movhi
 425:lvgl/src/lv_widgets/lv_gauge.c ****     }
 1242              		.loc 1 425 9 is_stmt 1 view .LVU395
 1243 0036 3146     		mov	r1, r6
 1244 0038 2046     		mov	r0, r4
 1245 003a FFF7FEFF 		bl	lv_gauge_draw_needle
 1246              	.LVL138:
 1247              	.LBE100:
 432:lvgl/src/lv_widgets/lv_gauge.c **** }
 1248              		.loc 1 432 12 is_stmt 0 view .LVU396
 1249 003e 0020     		movs	r0, #0
 1250              	.LVL139:
 1251              	.L38:
 433:lvgl/src/lv_widgets/lv_gauge.c **** 
 1252              		.loc 1 433 1 view .LVU397
 1253 0040 F8BD     		pop	{r3, r4, r5, r6, r7, pc}
 1254              	.LVL140:
 1255              	.L39:
 428:lvgl/src/lv_widgets/lv_gauge.c ****         ancestor_design(gauge, clip_area, mode);
 1256              		.loc 1 428 10 is_stmt 1 view .LVU398
 428:lvgl/src/lv_widgets/lv_gauge.c ****         ancestor_design(gauge, clip_area, mode);
ARM GAS  D:\Temp\cc42SHz2.s 			page 47


 1257              		.loc 1 428 12 is_stmt 0 view .LVU399
 1258 0042 012A     		cmp	r2, #1
 1259 0044 01D0     		beq	.L46
 432:lvgl/src/lv_widgets/lv_gauge.c **** }
 1260              		.loc 1 432 12 view .LVU400
 1261 0046 0020     		movs	r0, #0
 1262              	.LVL141:
 432:lvgl/src/lv_widgets/lv_gauge.c **** }
 1263              		.loc 1 432 12 view .LVU401
 1264 0048 FAE7     		b	.L38
 1265              	.LVL142:
 1266              	.L46:
 429:lvgl/src/lv_widgets/lv_gauge.c ****     }
 1267              		.loc 1 429 9 is_stmt 1 view .LVU402
 1268 004a 034B     		ldr	r3, .L47
 1269 004c 1B68     		ldr	r3, [r3]
 1270 004e 9847     		blx	r3
 1271              	.LVL143:
 432:lvgl/src/lv_widgets/lv_gauge.c **** }
 1272              		.loc 1 432 12 is_stmt 0 view .LVU403
 1273 0050 0020     		movs	r0, #0
 1274 0052 F5E7     		b	.L38
 1275              	.LVL144:
 1276              	.L40:
 1277              	.LCFI8:
 1278              		.cfi_def_cfa_offset 0
 1279              		.cfi_restore 3
 1280              		.cfi_restore 4
 1281              		.cfi_restore 5
 1282              		.cfi_restore 6
 1283              		.cfi_restore 7
 1284              		.cfi_restore 14
 410:lvgl/src/lv_widgets/lv_gauge.c ****     }
 1285              		.loc 1 410 16 view .LVU404
 1286 0054 0220     		movs	r0, #2
 1287              	.LVL145:
 433:lvgl/src/lv_widgets/lv_gauge.c **** 
 1288              		.loc 1 433 1 view .LVU405
 1289 0056 7047     		bx	lr
 1290              	.L48:
 1291              		.align	2
 1292              	.L47:
 1293 0058 00000000 		.word	.LANCHOR0
 1294              		.cfi_endproc
 1295              	.LFE482:
 1297              		.section	.text.lv_gauge_signal,"ax",%progbits
 1298              		.align	1
 1299              		.syntax unified
 1300              		.thumb
 1301              		.thumb_func
 1302              		.fpu fpv4-sp-d16
 1304              	lv_gauge_signal:
 1305              	.LVL146:
 1306              	.LFB483:
 443:lvgl/src/lv_widgets/lv_gauge.c ****     lv_res_t res;
 1307              		.loc 1 443 1 is_stmt 1 view -0
 1308              		.cfi_startproc
ARM GAS  D:\Temp\cc42SHz2.s 			page 48


 1309              		@ args = 0, pretend = 0, frame = 0
 1310              		@ frame_needed = 0, uses_anonymous_args = 0
 443:lvgl/src/lv_widgets/lv_gauge.c ****     lv_res_t res;
 1311              		.loc 1 443 1 is_stmt 0 view .LVU407
 1312 0000 F8B5     		push	{r3, r4, r5, r6, r7, lr}
 1313              	.LCFI9:
 1314              		.cfi_def_cfa_offset 24
 1315              		.cfi_offset 3, -24
 1316              		.cfi_offset 4, -20
 1317              		.cfi_offset 5, -16
 1318              		.cfi_offset 6, -12
 1319              		.cfi_offset 7, -8
 1320              		.cfi_offset 14, -4
 1321 0002 0646     		mov	r6, r0
 1322 0004 0C46     		mov	r4, r1
 1323 0006 1746     		mov	r7, r2
 444:lvgl/src/lv_widgets/lv_gauge.c ****     if(sign == LV_SIGNAL_GET_STYLE) {
 1324              		.loc 1 444 5 is_stmt 1 view .LVU408
 445:lvgl/src/lv_widgets/lv_gauge.c ****         lv_get_style_info_t * info = param;
 1325              		.loc 1 445 5 view .LVU409
 445:lvgl/src/lv_widgets/lv_gauge.c ****         lv_get_style_info_t * info = param;
 1326              		.loc 1 445 7 is_stmt 0 view .LVU410
 1327 0008 0829     		cmp	r1, #8
 1328 000a 0ED0     		beq	.L55
 453:lvgl/src/lv_widgets/lv_gauge.c ****     if(res != LV_RES_OK) return res;
 1329              		.loc 1 453 5 is_stmt 1 view .LVU411
 453:lvgl/src/lv_widgets/lv_gauge.c ****     if(res != LV_RES_OK) return res;
 1330              		.loc 1 453 11 is_stmt 0 view .LVU412
 1331 000c 184B     		ldr	r3, .L59
 1332 000e 1B68     		ldr	r3, [r3]
 1333 0010 9847     		blx	r3
 1334              	.LVL147:
 453:lvgl/src/lv_widgets/lv_gauge.c ****     if(res != LV_RES_OK) return res;
 1335              		.loc 1 453 11 view .LVU413
 1336 0012 0546     		mov	r5, r0
 1337              	.LVL148:
 454:lvgl/src/lv_widgets/lv_gauge.c ****     if(sign == LV_SIGNAL_GET_TYPE) return lv_obj_handle_get_type_signal(param, LV_OBJX_NAME);
 1338              		.loc 1 454 5 is_stmt 1 view .LVU414
 454:lvgl/src/lv_widgets/lv_gauge.c ****     if(sign == LV_SIGNAL_GET_TYPE) return lv_obj_handle_get_type_signal(param, LV_OBJX_NAME);
 1339              		.loc 1 454 7 is_stmt 0 view .LVU415
 1340 0014 0128     		cmp	r0, #1
 1341 0016 06D1     		bne	.L51
 455:lvgl/src/lv_widgets/lv_gauge.c **** 
 1342              		.loc 1 455 5 is_stmt 1 view .LVU416
 455:lvgl/src/lv_widgets/lv_gauge.c **** 
 1343              		.loc 1 455 7 is_stmt 0 view .LVU417
 1344 0018 072C     		cmp	r4, #7
 1345 001a 15D0     		beq	.L56
 457:lvgl/src/lv_widgets/lv_gauge.c ****     if(sign == LV_SIGNAL_CLEANUP) {
 1346              		.loc 1 457 5 is_stmt 1 view .LVU418
 457:lvgl/src/lv_widgets/lv_gauge.c ****     if(sign == LV_SIGNAL_CLEANUP) {
 1347              		.loc 1 457 28 is_stmt 0 view .LVU419
 1348 001c 3046     		mov	r0, r6
 1349              	.LVL149:
 457:lvgl/src/lv_widgets/lv_gauge.c ****     if(sign == LV_SIGNAL_CLEANUP) {
 1350              		.loc 1 457 28 view .LVU420
 1351 001e FFF7FEFF 		bl	lv_obj_get_ext_attr
ARM GAS  D:\Temp\cc42SHz2.s 			page 49


 1352              	.LVL150:
 1353 0022 0746     		mov	r7, r0
 1354              	.LVL151:
 458:lvgl/src/lv_widgets/lv_gauge.c ****         lv_mem_free(ext->values);
 1355              		.loc 1 458 5 is_stmt 1 view .LVU421
 458:lvgl/src/lv_widgets/lv_gauge.c ****         lv_mem_free(ext->values);
 1356              		.loc 1 458 7 is_stmt 0 view .LVU422
 1357 0024 B4B1     		cbz	r4, .L57
 1358              	.LVL152:
 1359              	.L51:
 466:lvgl/src/lv_widgets/lv_gauge.c **** /**
 1360              		.loc 1 466 1 view .LVU423
 1361 0026 2846     		mov	r0, r5
 1362 0028 F8BD     		pop	{r3, r4, r5, r6, r7, pc}
 1363              	.LVL153:
 1364              	.L55:
 1365              	.LBB101:
 446:lvgl/src/lv_widgets/lv_gauge.c ****         info->result = lv_gauge_get_style(gauge, info->part);
 1366              		.loc 1 446 9 is_stmt 1 view .LVU424
 447:lvgl/src/lv_widgets/lv_gauge.c ****         if(info->result != NULL) return LV_RES_OK;
 1367              		.loc 1 447 9 view .LVU425
 447:lvgl/src/lv_widgets/lv_gauge.c ****         if(info->result != NULL) return LV_RES_OK;
 1368              		.loc 1 447 24 is_stmt 0 view .LVU426
 1369 002a 1178     		ldrb	r1, [r2]	@ zero_extendqisi2
 1370              	.LVL154:
 447:lvgl/src/lv_widgets/lv_gauge.c ****         if(info->result != NULL) return LV_RES_OK;
 1371              		.loc 1 447 24 view .LVU427
 1372 002c FFF7FEFF 		bl	lv_gauge_get_style
 1373              	.LVL155:
 447:lvgl/src/lv_widgets/lv_gauge.c ****         if(info->result != NULL) return LV_RES_OK;
 1374              		.loc 1 447 22 view .LVU428
 1375 0030 7860     		str	r0, [r7, #4]
 448:lvgl/src/lv_widgets/lv_gauge.c ****         else return ancestor_signal(gauge, sign, param);
 1376              		.loc 1 448 9 is_stmt 1 view .LVU429
 448:lvgl/src/lv_widgets/lv_gauge.c ****         else return ancestor_signal(gauge, sign, param);
 1377              		.loc 1 448 11 is_stmt 0 view .LVU430
 1378 0032 08B1     		cbz	r0, .L58
 448:lvgl/src/lv_widgets/lv_gauge.c ****         else return ancestor_signal(gauge, sign, param);
 1379              		.loc 1 448 41 view .LVU431
 1380 0034 0125     		movs	r5, #1
 1381 0036 F6E7     		b	.L51
 1382              	.L58:
 449:lvgl/src/lv_widgets/lv_gauge.c ****     }
 1383              		.loc 1 449 14 is_stmt 1 view .LVU432
 449:lvgl/src/lv_widgets/lv_gauge.c ****     }
 1384              		.loc 1 449 21 is_stmt 0 view .LVU433
 1385 0038 0D4B     		ldr	r3, .L59
 1386 003a 1B68     		ldr	r3, [r3]
 1387 003c 3A46     		mov	r2, r7
 1388 003e 2146     		mov	r1, r4
 1389 0040 3046     		mov	r0, r6
 1390 0042 9847     		blx	r3
 1391              	.LVL156:
 1392 0044 0546     		mov	r5, r0
 1393 0046 EEE7     		b	.L51
 1394              	.LVL157:
 1395              	.L56:
ARM GAS  D:\Temp\cc42SHz2.s 			page 50


 449:lvgl/src/lv_widgets/lv_gauge.c ****     }
 1396              		.loc 1 449 21 view .LVU434
 1397              	.LBE101:
 455:lvgl/src/lv_widgets/lv_gauge.c **** 
 1398              		.loc 1 455 36 is_stmt 1 discriminator 1 view .LVU435
 455:lvgl/src/lv_widgets/lv_gauge.c **** 
 1399              		.loc 1 455 43 is_stmt 0 discriminator 1 view .LVU436
 1400 0048 0A49     		ldr	r1, .L59+4
 1401 004a 3846     		mov	r0, r7
 1402              	.LVL158:
 455:lvgl/src/lv_widgets/lv_gauge.c **** 
 1403              		.loc 1 455 43 discriminator 1 view .LVU437
 1404 004c FFF7FEFF 		bl	lv_obj_handle_get_type_signal
 1405              	.LVL159:
 1406 0050 0546     		mov	r5, r0
 1407 0052 E8E7     		b	.L51
 1408              	.LVL160:
 1409              	.L57:
 459:lvgl/src/lv_widgets/lv_gauge.c ****         ext->values = NULL;
 1410              		.loc 1 459 9 is_stmt 1 view .LVU438
 1411 0054 8069     		ldr	r0, [r0, #24]
 1412              	.LVL161:
 459:lvgl/src/lv_widgets/lv_gauge.c ****         ext->values = NULL;
 1413              		.loc 1 459 9 is_stmt 0 view .LVU439
 1414 0056 FFF7FEFF 		bl	lv_mem_free
 1415              	.LVL162:
 460:lvgl/src/lv_widgets/lv_gauge.c ****         lv_obj_clean_style_list(gauge, LV_GAUGE_PART_NEEDLE);
 1416              		.loc 1 460 9 is_stmt 1 view .LVU440
 460:lvgl/src/lv_widgets/lv_gauge.c ****         lv_obj_clean_style_list(gauge, LV_GAUGE_PART_NEEDLE);
 1417              		.loc 1 460 21 is_stmt 0 view .LVU441
 1418 005a 0023     		movs	r3, #0
 1419 005c BB61     		str	r3, [r7, #24]
 461:lvgl/src/lv_widgets/lv_gauge.c ****         lv_obj_clean_style_list(gauge, LV_GAUGE_PART_MAJOR);
 1420              		.loc 1 461 9 is_stmt 1 view .LVU442
 1421 005e 0221     		movs	r1, #2
 1422 0060 3046     		mov	r0, r6
 1423 0062 FFF7FEFF 		bl	lv_obj_clean_style_list
 1424              	.LVL163:
 462:lvgl/src/lv_widgets/lv_gauge.c ****     }
 1425              		.loc 1 462 9 view .LVU443
 1426 0066 0121     		movs	r1, #1
 1427 0068 3046     		mov	r0, r6
 1428 006a FFF7FEFF 		bl	lv_obj_clean_style_list
 1429              	.LVL164:
 1430 006e DAE7     		b	.L51
 1431              	.L60:
 1432              		.align	2
 1433              	.L59:
 1434 0070 00000000 		.word	.LANCHOR1
 1435 0074 00000000 		.word	.LC1
 1436              		.cfi_endproc
 1437              	.LFE483:
 1439              		.section	.text.lv_gauge_set_needle_count,"ax",%progbits
 1440              		.align	1
 1441              		.global	lv_gauge_set_needle_count
 1442              		.syntax unified
 1443              		.thumb
ARM GAS  D:\Temp\cc42SHz2.s 			page 51


 1444              		.thumb_func
 1445              		.fpu fpv4-sp-d16
 1447              	lv_gauge_set_needle_count:
 1448              	.LVL165:
 1449              	.LFB471:
 146:lvgl/src/lv_widgets/lv_gauge.c ****     LV_ASSERT_OBJ(gauge, LV_OBJX_NAME);
 1450              		.loc 1 146 1 view -0
 1451              		.cfi_startproc
 1452              		@ args = 0, pretend = 0, frame = 0
 1453              		@ frame_needed = 0, uses_anonymous_args = 0
 146:lvgl/src/lv_widgets/lv_gauge.c ****     LV_ASSERT_OBJ(gauge, LV_OBJX_NAME);
 1454              		.loc 1 146 1 is_stmt 0 view .LVU445
 1455 0000 F8B5     		push	{r3, r4, r5, r6, r7, lr}
 1456              	.LCFI10:
 1457              		.cfi_def_cfa_offset 24
 1458              		.cfi_offset 3, -24
 1459              		.cfi_offset 4, -20
 1460              		.cfi_offset 5, -16
 1461              		.cfi_offset 6, -12
 1462              		.cfi_offset 7, -8
 1463              		.cfi_offset 14, -4
 1464 0002 0546     		mov	r5, r0
 1465 0004 0E46     		mov	r6, r1
 1466 0006 1746     		mov	r7, r2
 147:lvgl/src/lv_widgets/lv_gauge.c **** 
 1467              		.loc 1 147 5 is_stmt 1 view .LVU446
 147:lvgl/src/lv_widgets/lv_gauge.c **** 
 1468              		.loc 1 147 5 view .LVU447
 1469 0008 FFF7FEFF 		bl	lv_debug_check_null
 1470              	.LVL166:
 147:lvgl/src/lv_widgets/lv_gauge.c **** 
 1471              		.loc 1 147 5 is_stmt 0 view .LVU448
 1472 000c 28B9     		cbnz	r0, .L62
 147:lvgl/src/lv_widgets/lv_gauge.c **** 
 1473              		.loc 1 147 5 is_stmt 1 discriminator 1 view .LVU449
 147:lvgl/src/lv_widgets/lv_gauge.c **** 
 1474              		.loc 1 147 5 discriminator 1 view .LVU450
 1475 000e 2A46     		mov	r2, r5
 1476 0010 0023     		movs	r3, #0
 1477 0012 1B48     		ldr	r0, .L73
 1478 0014 FFF7FEFF 		bl	lv_debug_log_error
 1479              	.LVL167:
 1480              	.L63:
 147:lvgl/src/lv_widgets/lv_gauge.c **** 
 1481              		.loc 1 147 5 discriminator 1 view .LVU451
 147:lvgl/src/lv_widgets/lv_gauge.c **** 
 1482              		.loc 1 147 5 discriminator 1 view .LVU452
 1483 0018 FEE7     		b	.L63
 1484              	.L62:
 147:lvgl/src/lv_widgets/lv_gauge.c **** 
 1485              		.loc 1 147 39 discriminator 2 view .LVU453
 149:lvgl/src/lv_widgets/lv_gauge.c **** 
 1486              		.loc 1 149 5 discriminator 2 view .LVU454
 149:lvgl/src/lv_widgets/lv_gauge.c **** 
 1487              		.loc 1 149 28 is_stmt 0 discriminator 2 view .LVU455
 1488 001a 2846     		mov	r0, r5
 1489 001c FFF7FEFF 		bl	lv_obj_get_ext_attr
ARM GAS  D:\Temp\cc42SHz2.s 			page 52


 1490              	.LVL168:
 1491 0020 0446     		mov	r4, r0
 1492              	.LVL169:
 151:lvgl/src/lv_widgets/lv_gauge.c ****         if(ext->values != NULL) {
 1493              		.loc 1 151 5 is_stmt 1 discriminator 2 view .LVU456
 151:lvgl/src/lv_widgets/lv_gauge.c ****         if(ext->values != NULL) {
 1494              		.loc 1 151 11 is_stmt 0 discriminator 2 view .LVU457
 1495 0022 90F83830 		ldrb	r3, [r0, #56]	@ zero_extendqisi2
 151:lvgl/src/lv_widgets/lv_gauge.c ****         if(ext->values != NULL) {
 1496              		.loc 1 151 7 discriminator 2 view .LVU458
 1497 0026 B342     		cmp	r3, r6
 1498 0028 25D0     		beq	.L64
 1499              	.LBB102:
 152:lvgl/src/lv_widgets/lv_gauge.c ****             lv_mem_free(ext->values);
 1500              		.loc 1 152 9 is_stmt 1 view .LVU459
 152:lvgl/src/lv_widgets/lv_gauge.c ****             lv_mem_free(ext->values);
 1501              		.loc 1 152 15 is_stmt 0 view .LVU460
 1502 002a 8069     		ldr	r0, [r0, #24]
 1503              	.LVL170:
 152:lvgl/src/lv_widgets/lv_gauge.c ****             lv_mem_free(ext->values);
 1504              		.loc 1 152 11 view .LVU461
 1505 002c 18B1     		cbz	r0, .L65
 153:lvgl/src/lv_widgets/lv_gauge.c ****             ext->values = NULL;
 1506              		.loc 1 153 13 is_stmt 1 view .LVU462
 1507 002e FFF7FEFF 		bl	lv_mem_free
 1508              	.LVL171:
 154:lvgl/src/lv_widgets/lv_gauge.c ****         }
 1509              		.loc 1 154 13 view .LVU463
 154:lvgl/src/lv_widgets/lv_gauge.c ****         }
 1510              		.loc 1 154 25 is_stmt 0 view .LVU464
 1511 0032 0023     		movs	r3, #0
 1512 0034 A361     		str	r3, [r4, #24]
 1513              	.L65:
 157:lvgl/src/lv_widgets/lv_gauge.c ****         LV_ASSERT_MEM(ext->values);
 1514              		.loc 1 157 9 is_stmt 1 view .LVU465
 157:lvgl/src/lv_widgets/lv_gauge.c ****         LV_ASSERT_MEM(ext->values);
 1515              		.loc 1 157 23 is_stmt 0 view .LVU466
 1516 0036 B100     		lsls	r1, r6, #2
 1517 0038 A069     		ldr	r0, [r4, #24]
 1518 003a FFF7FEFF 		bl	lv_mem_realloc
 1519              	.LVL172:
 157:lvgl/src/lv_widgets/lv_gauge.c ****         LV_ASSERT_MEM(ext->values);
 1520              		.loc 1 157 21 view .LVU467
 1521 003e A061     		str	r0, [r4, #24]
 158:lvgl/src/lv_widgets/lv_gauge.c ****         if(ext->values == NULL) return;
 1522              		.loc 1 158 9 is_stmt 1 view .LVU468
 158:lvgl/src/lv_widgets/lv_gauge.c ****         if(ext->values == NULL) return;
 1523              		.loc 1 158 9 view .LVU469
 1524 0040 FFF7FEFF 		bl	lv_debug_check_null
 1525              	.LVL173:
 1526 0044 40B1     		cbz	r0, .L72
 158:lvgl/src/lv_widgets/lv_gauge.c ****         if(ext->values == NULL) return;
 1527              		.loc 1 158 35 discriminator 2 view .LVU470
 159:lvgl/src/lv_widgets/lv_gauge.c **** 
 1528              		.loc 1 159 9 discriminator 2 view .LVU471
 159:lvgl/src/lv_widgets/lv_gauge.c **** 
 1529              		.loc 1 159 15 is_stmt 0 discriminator 2 view .LVU472
ARM GAS  D:\Temp\cc42SHz2.s 			page 53


 1530 0046 A369     		ldr	r3, [r4, #24]
 159:lvgl/src/lv_widgets/lv_gauge.c **** 
 1531              		.loc 1 159 11 discriminator 2 view .LVU473
 1532 0048 CBB1     		cbz	r3, .L61
 161:lvgl/src/lv_widgets/lv_gauge.c ****         uint8_t n;
 1533              		.loc 1 161 9 is_stmt 1 view .LVU474
 1534              	.LVL174:
 1535              	.LBB103:
 1536              	.LBI103:
 181:lvgl/src/lv_widgets/lv_gauge.h **** {
 1537              		.loc 3 181 23 view .LVU475
 1538              	.LBB104:
 183:lvgl/src/lv_widgets/lv_gauge.h **** }
 1539              		.loc 3 183 5 view .LVU476
 183:lvgl/src/lv_widgets/lv_gauge.h **** }
 1540              		.loc 3 183 12 is_stmt 0 view .LVU477
 1541 004a 2846     		mov	r0, r5
 1542 004c FFF7FEFF 		bl	lv_linemeter_get_min_value
 1543              	.LVL175:
 183:lvgl/src/lv_widgets/lv_gauge.h **** }
 1544              		.loc 3 183 12 view .LVU478
 1545              	.LBE104:
 1546              	.LBE103:
 161:lvgl/src/lv_widgets/lv_gauge.c ****         uint8_t n;
 1547              		.loc 1 161 17 view .LVU479
 1548 0050 00B2     		sxth	r0, r0
 1549              	.LVL176:
 162:lvgl/src/lv_widgets/lv_gauge.c ****         for(n = ext->needle_count; n < needle_cnt; n++) {
 1550              		.loc 1 162 9 is_stmt 1 view .LVU480
 163:lvgl/src/lv_widgets/lv_gauge.c ****             ext->values[n] = min;
 1551              		.loc 1 163 9 view .LVU481
 163:lvgl/src/lv_widgets/lv_gauge.c ****             ext->values[n] = min;
 1552              		.loc 1 163 15 is_stmt 0 view .LVU482
 1553 0052 94F83830 		ldrb	r3, [r4, #56]	@ zero_extendqisi2
 1554              	.LVL177:
 163:lvgl/src/lv_widgets/lv_gauge.c ****             ext->values[n] = min;
 1555              		.loc 1 163 9 view .LVU483
 1556 0056 0AE0     		b	.L69
 1557              	.LVL178:
 1558              	.L72:
 158:lvgl/src/lv_widgets/lv_gauge.c ****         if(ext->values == NULL) return;
 1559              		.loc 1 158 9 is_stmt 1 discriminator 1 view .LVU484
 158:lvgl/src/lv_widgets/lv_gauge.c ****         if(ext->values == NULL) return;
 1560              		.loc 1 158 9 discriminator 1 view .LVU485
 1561 0058 A269     		ldr	r2, [r4, #24]
 1562 005a 0023     		movs	r3, #0
 1563 005c 0948     		ldr	r0, .L73+4
 1564 005e FFF7FEFF 		bl	lv_debug_log_error
 1565              	.LVL179:
 1566              	.L67:
 158:lvgl/src/lv_widgets/lv_gauge.c ****         if(ext->values == NULL) return;
 1567              		.loc 1 158 9 discriminator 2 view .LVU486
 158:lvgl/src/lv_widgets/lv_gauge.c ****         if(ext->values == NULL) return;
 1568              		.loc 1 158 9 discriminator 2 view .LVU487
 1569 0062 FEE7     		b	.L67
 1570              	.LVL180:
 1571              	.L70:
ARM GAS  D:\Temp\cc42SHz2.s 			page 54


 164:lvgl/src/lv_widgets/lv_gauge.c ****         }
 1572              		.loc 1 164 13 discriminator 3 view .LVU488
 164:lvgl/src/lv_widgets/lv_gauge.c ****         }
 1573              		.loc 1 164 16 is_stmt 0 discriminator 3 view .LVU489
 1574 0064 A269     		ldr	r2, [r4, #24]
 164:lvgl/src/lv_widgets/lv_gauge.c ****         }
 1575              		.loc 1 164 28 discriminator 3 view .LVU490
 1576 0066 42F82300 		str	r0, [r2, r3, lsl #2]
 163:lvgl/src/lv_widgets/lv_gauge.c ****             ext->values[n] = min;
 1577              		.loc 1 163 53 discriminator 3 view .LVU491
 1578 006a 0133     		adds	r3, r3, #1
 1579              	.LVL181:
 163:lvgl/src/lv_widgets/lv_gauge.c ****             ext->values[n] = min;
 1580              		.loc 1 163 53 discriminator 3 view .LVU492
 1581 006c DBB2     		uxtb	r3, r3
 1582              	.LVL182:
 1583              	.L69:
 163:lvgl/src/lv_widgets/lv_gauge.c ****             ext->values[n] = min;
 1584              		.loc 1 163 9 discriminator 1 view .LVU493
 1585 006e B342     		cmp	r3, r6
 1586 0070 F8D3     		bcc	.L70
 167:lvgl/src/lv_widgets/lv_gauge.c ****     }
 1587              		.loc 1 167 9 is_stmt 1 view .LVU494
 167:lvgl/src/lv_widgets/lv_gauge.c ****     }
 1588              		.loc 1 167 27 is_stmt 0 view .LVU495
 1589 0072 84F83860 		strb	r6, [r4, #56]
 1590              	.LVL183:
 1591              	.L64:
 167:lvgl/src/lv_widgets/lv_gauge.c ****     }
 1592              		.loc 1 167 27 view .LVU496
 1593              	.LBE102:
 170:lvgl/src/lv_widgets/lv_gauge.c ****     lv_obj_invalidate(gauge);
 1594              		.loc 1 170 5 is_stmt 1 view .LVU497
 170:lvgl/src/lv_widgets/lv_gauge.c ****     lv_obj_invalidate(gauge);
 1595              		.loc 1 170 24 is_stmt 0 view .LVU498
 1596 0076 E761     		str	r7, [r4, #28]
 171:lvgl/src/lv_widgets/lv_gauge.c **** }
 1597              		.loc 1 171 5 is_stmt 1 view .LVU499
 1598 0078 2846     		mov	r0, r5
 1599 007a FFF7FEFF 		bl	lv_obj_invalidate
 1600              	.LVL184:
 1601              	.L61:
 172:lvgl/src/lv_widgets/lv_gauge.c **** 
 1602              		.loc 1 172 1 is_stmt 0 view .LVU500
 1603 007e F8BD     		pop	{r3, r4, r5, r6, r7, pc}
 1604              	.LVL185:
 1605              	.L74:
 172:lvgl/src/lv_widgets/lv_gauge.c **** 
 1606              		.loc 1 172 1 view .LVU501
 1607              		.align	2
 1608              	.L73:
 1609 0080 00000000 		.word	.LC0
 1610 0084 00000000 		.word	.LC2
 1611              		.cfi_endproc
 1612              	.LFE471:
 1614              		.section	.text.lv_gauge_set_value,"ax",%progbits
 1615              		.align	1
ARM GAS  D:\Temp\cc42SHz2.s 			page 55


 1616              		.global	lv_gauge_set_value
 1617              		.syntax unified
 1618              		.thumb
 1619              		.thumb_func
 1620              		.fpu fpv4-sp-d16
 1622              	lv_gauge_set_value:
 1623              	.LVL186:
 1624              	.LFB472:
 181:lvgl/src/lv_widgets/lv_gauge.c ****     LV_ASSERT_OBJ(gauge, LV_OBJX_NAME);
 1625              		.loc 1 181 1 is_stmt 1 view -0
 1626              		.cfi_startproc
 1627              		@ args = 0, pretend = 0, frame = 48
 1628              		@ frame_needed = 0, uses_anonymous_args = 0
 181:lvgl/src/lv_widgets/lv_gauge.c ****     LV_ASSERT_OBJ(gauge, LV_OBJX_NAME);
 1629              		.loc 1 181 1 is_stmt 0 view .LVU503
 1630 0000 2DE9F04F 		push	{r4, r5, r6, r7, r8, r9, r10, fp, lr}
 1631              	.LCFI11:
 1632              		.cfi_def_cfa_offset 36
 1633              		.cfi_offset 4, -36
 1634              		.cfi_offset 5, -32
 1635              		.cfi_offset 6, -28
 1636              		.cfi_offset 7, -24
 1637              		.cfi_offset 8, -20
 1638              		.cfi_offset 9, -16
 1639              		.cfi_offset 10, -12
 1640              		.cfi_offset 11, -8
 1641              		.cfi_offset 14, -4
 1642 0004 8DB0     		sub	sp, sp, #52
 1643              	.LCFI12:
 1644              		.cfi_def_cfa_offset 88
 1645 0006 0646     		mov	r6, r0
 1646 0008 0190     		str	r0, [sp, #4]
 1647 000a 0C46     		mov	r4, r1
 1648 000c 1546     		mov	r5, r2
 182:lvgl/src/lv_widgets/lv_gauge.c **** 
 1649              		.loc 1 182 5 is_stmt 1 view .LVU504
 182:lvgl/src/lv_widgets/lv_gauge.c **** 
 1650              		.loc 1 182 5 view .LVU505
 1651 000e FFF7FEFF 		bl	lv_debug_check_null
 1652              	.LVL187:
 182:lvgl/src/lv_widgets/lv_gauge.c **** 
 1653              		.loc 1 182 5 is_stmt 0 view .LVU506
 1654 0012 28B9     		cbnz	r0, .L76
 182:lvgl/src/lv_widgets/lv_gauge.c **** 
 1655              		.loc 1 182 5 is_stmt 1 discriminator 1 view .LVU507
 182:lvgl/src/lv_widgets/lv_gauge.c **** 
 1656              		.loc 1 182 5 discriminator 1 view .LVU508
 1657 0014 3246     		mov	r2, r6
 1658 0016 0023     		movs	r3, #0
 1659 0018 8648     		ldr	r0, .L85
 1660 001a FFF7FEFF 		bl	lv_debug_log_error
 1661              	.LVL188:
 1662              	.L77:
 182:lvgl/src/lv_widgets/lv_gauge.c **** 
 1663              		.loc 1 182 5 discriminator 1 view .LVU509
 182:lvgl/src/lv_widgets/lv_gauge.c **** 
 1664              		.loc 1 182 5 discriminator 1 view .LVU510
ARM GAS  D:\Temp\cc42SHz2.s 			page 56


 1665 001e FEE7     		b	.L77
 1666              	.L76:
 182:lvgl/src/lv_widgets/lv_gauge.c **** 
 1667              		.loc 1 182 39 discriminator 2 view .LVU511
 184:lvgl/src/lv_widgets/lv_gauge.c **** 
 1668              		.loc 1 184 5 discriminator 2 view .LVU512
 184:lvgl/src/lv_widgets/lv_gauge.c **** 
 1669              		.loc 1 184 28 is_stmt 0 discriminator 2 view .LVU513
 1670 0020 019E     		ldr	r6, [sp, #4]
 1671              	.LVL189:
 184:lvgl/src/lv_widgets/lv_gauge.c **** 
 1672              		.loc 1 184 28 discriminator 2 view .LVU514
 1673 0022 3046     		mov	r0, r6
 1674 0024 FFF7FEFF 		bl	lv_obj_get_ext_attr
 1675              	.LVL190:
 1676 0028 8246     		mov	r10, r0
 1677              	.LVL191:
 186:lvgl/src/lv_widgets/lv_gauge.c ****     if(ext->values[needle_id] == value) return;
 1678              		.loc 1 186 5 is_stmt 1 discriminator 2 view .LVU515
 186:lvgl/src/lv_widgets/lv_gauge.c ****     if(ext->values[needle_id] == value) return;
 1679              		.loc 1 186 24 is_stmt 0 discriminator 2 view .LVU516
 1680 002a 90F83830 		ldrb	r3, [r0, #56]	@ zero_extendqisi2
 186:lvgl/src/lv_widgets/lv_gauge.c ****     if(ext->values[needle_id] == value) return;
 1681              		.loc 1 186 7 discriminator 2 view .LVU517
 1682 002e A342     		cmp	r3, r4
 1683 0030 40F2F680 		bls	.L75
 187:lvgl/src/lv_widgets/lv_gauge.c **** 
 1684              		.loc 1 187 5 is_stmt 1 view .LVU518
 187:lvgl/src/lv_widgets/lv_gauge.c **** 
 1685              		.loc 1 187 11 is_stmt 0 view .LVU519
 1686 0034 8369     		ldr	r3, [r0, #24]
 187:lvgl/src/lv_widgets/lv_gauge.c **** 
 1687              		.loc 1 187 19 view .LVU520
 1688 0036 53F82430 		ldr	r3, [r3, r4, lsl #2]
 187:lvgl/src/lv_widgets/lv_gauge.c **** 
 1689              		.loc 1 187 7 view .LVU521
 1690 003a AB42     		cmp	r3, r5
 1691 003c 00F0F080 		beq	.L75
 189:lvgl/src/lv_widgets/lv_gauge.c ****     int16_t max = lv_gauge_get_max_value(gauge);
 1692              		.loc 1 189 5 is_stmt 1 view .LVU522
 1693              	.LVL192:
 1694              	.LBB105:
 1695              	.LBI105:
 181:lvgl/src/lv_widgets/lv_gauge.h **** {
 1696              		.loc 3 181 23 view .LVU523
 1697              	.LBB106:
 183:lvgl/src/lv_widgets/lv_gauge.h **** }
 1698              		.loc 3 183 5 view .LVU524
 183:lvgl/src/lv_widgets/lv_gauge.h **** }
 1699              		.loc 3 183 12 is_stmt 0 view .LVU525
 1700 0040 3046     		mov	r0, r6
 1701              	.LVL193:
 183:lvgl/src/lv_widgets/lv_gauge.h **** }
 1702              		.loc 3 183 12 view .LVU526
 1703 0042 FFF7FEFF 		bl	lv_linemeter_get_min_value
 1704              	.LVL194:
 183:lvgl/src/lv_widgets/lv_gauge.h **** }
ARM GAS  D:\Temp\cc42SHz2.s 			page 57


 1705              		.loc 3 183 12 view .LVU527
 1706              	.LBE106:
 1707              	.LBE105:
 189:lvgl/src/lv_widgets/lv_gauge.c ****     int16_t max = lv_gauge_get_max_value(gauge);
 1708              		.loc 1 189 13 view .LVU528
 1709 0046 0FFA80F8 		sxth	r8, r0
 1710              	.LVL195:
 190:lvgl/src/lv_widgets/lv_gauge.c **** 
 1711              		.loc 1 190 5 is_stmt 1 view .LVU529
 1712              	.LBB107:
 1713              	.LBI107:
 191:lvgl/src/lv_widgets/lv_gauge.h **** {
 1714              		.loc 3 191 23 view .LVU530
 1715              	.LBB108:
 193:lvgl/src/lv_widgets/lv_gauge.h **** }
 1716              		.loc 3 193 5 view .LVU531
 193:lvgl/src/lv_widgets/lv_gauge.h **** }
 1717              		.loc 3 193 12 is_stmt 0 view .LVU532
 1718 004a 3046     		mov	r0, r6
 1719 004c FFF7FEFF 		bl	lv_linemeter_get_max_value
 1720              	.LVL196:
 193:lvgl/src/lv_widgets/lv_gauge.h **** }
 1721              		.loc 3 193 12 view .LVU533
 1722              	.LBE108:
 1723              	.LBE107:
 190:lvgl/src/lv_widgets/lv_gauge.c **** 
 1724              		.loc 1 190 13 view .LVU534
 1725 0050 0FFA80FB 		sxth	fp, r0
 192:lvgl/src/lv_widgets/lv_gauge.c ****         value = max;
 1726              		.loc 1 192 5 is_stmt 1 view .LVU535
 192:lvgl/src/lv_widgets/lv_gauge.c ****         value = max;
 1727              		.loc 1 192 7 is_stmt 0 view .LVU536
 1728 0054 AB45     		cmp	fp, r5
 1729 0056 05DB     		blt	.L83
 194:lvgl/src/lv_widgets/lv_gauge.c ****         value = min;
 1730              		.loc 1 194 10 is_stmt 1 view .LVU537
 194:lvgl/src/lv_widgets/lv_gauge.c ****         value = min;
 1731              		.loc 1 194 19 is_stmt 0 view .LVU538
 1732 0058 CDF80880 		str	r8, [sp, #8]
 194:lvgl/src/lv_widgets/lv_gauge.c ****         value = min;
 1733              		.loc 1 194 12 view .LVU539
 1734 005c A845     		cmp	r8, r5
 1735 005e 03DC     		bgt	.L79
 1736 0060 0295     		str	r5, [sp, #8]
 1737 0062 01E0     		b	.L79
 1738              	.L83:
 193:lvgl/src/lv_widgets/lv_gauge.c ****     else if(value < min)
 1739              		.loc 1 193 15 view .LVU540
 1740 0064 CDF808B0 		str	fp, [sp, #8]
 1741              	.L79:
 1742              	.LVL197:
 197:lvgl/src/lv_widgets/lv_gauge.c ****     ext->values[needle_id] = value;
 1743              		.loc 1 197 5 is_stmt 1 view .LVU541
 197:lvgl/src/lv_widgets/lv_gauge.c ****     ext->values[needle_id] = value;
 1744              		.loc 1 197 28 is_stmt 0 view .LVU542
 1745 0068 DAF81830 		ldr	r3, [r10, #24]
 197:lvgl/src/lv_widgets/lv_gauge.c ****     ext->values[needle_id] = value;
ARM GAS  D:\Temp\cc42SHz2.s 			page 58


 1746              		.loc 1 197 13 view .LVU543
 1747 006c 53F82450 		ldr	r5, [r3, r4, lsl #2]
 1748              	.LVL198:
 198:lvgl/src/lv_widgets/lv_gauge.c **** 
 1749              		.loc 1 198 5 is_stmt 1 view .LVU544
 198:lvgl/src/lv_widgets/lv_gauge.c **** 
 1750              		.loc 1 198 28 is_stmt 0 view .LVU545
 1751 0070 029A     		ldr	r2, [sp, #8]
 1752 0072 43F82420 		str	r2, [r3, r4, lsl #2]
 200:lvgl/src/lv_widgets/lv_gauge.c ****     lv_coord_t x_ofs  = gauge->coords.x1 + r;
 1753              		.loc 1 200 5 is_stmt 1 view .LVU546
 200:lvgl/src/lv_widgets/lv_gauge.c ****     lv_coord_t x_ofs  = gauge->coords.x1 + r;
 1754              		.loc 1 200 25 is_stmt 0 view .LVU547
 1755 0076 019E     		ldr	r6, [sp, #4]
 1756 0078 3046     		mov	r0, r6
 1757 007a FFF7FEFF 		bl	lv_obj_get_width
 1758              	.LVL199:
 200:lvgl/src/lv_widgets/lv_gauge.c ****     lv_coord_t x_ofs  = gauge->coords.x1 + r;
 1759              		.loc 1 200 16 view .LVU548
 1760 007e 00EBD070 		add	r0, r0, r0, lsr #31
 1761 0082 40F34F04 		sbfx	r4, r0, #1, #16
 1762              	.LVL200:
 201:lvgl/src/lv_widgets/lv_gauge.c ****     lv_coord_t y_ofs  = gauge->coords.y1 + r;
 1763              		.loc 1 201 5 is_stmt 1 view .LVU549
 201:lvgl/src/lv_widgets/lv_gauge.c ****     lv_coord_t y_ofs  = gauge->coords.y1 + r;
 1764              		.loc 1 201 38 is_stmt 0 view .LVU550
 1765 0086 3146     		mov	r1, r6
 1766 0088 328A     		ldrh	r2, [r6, #16]
 201:lvgl/src/lv_widgets/lv_gauge.c ****     lv_coord_t y_ofs  = gauge->coords.y1 + r;
 1767              		.loc 1 201 42 view .LVU551
 1768 008a A3B2     		uxth	r3, r4
 1769 008c 1A44     		add	r2, r2, r3
 1770 008e 92B2     		uxth	r2, r2
 1771 0090 0392     		str	r2, [sp, #12]
 201:lvgl/src/lv_widgets/lv_gauge.c ****     lv_coord_t y_ofs  = gauge->coords.y1 + r;
 1772              		.loc 1 201 16 view .LVU552
 1773 0092 0FFA82F9 		sxth	r9, r2
 1774              	.LVL201:
 202:lvgl/src/lv_widgets/lv_gauge.c ****     uint16_t angle    = lv_linemeter_get_scale_angle(gauge);
 1775              		.loc 1 202 5 is_stmt 1 view .LVU553
 202:lvgl/src/lv_widgets/lv_gauge.c ****     uint16_t angle    = lv_linemeter_get_scale_angle(gauge);
 1776              		.loc 1 202 38 is_stmt 0 view .LVU554
 1777 0096 728A     		ldrh	r2, [r6, #18]
 202:lvgl/src/lv_widgets/lv_gauge.c ****     uint16_t angle    = lv_linemeter_get_scale_angle(gauge);
 1778              		.loc 1 202 42 view .LVU555
 1779 0098 1344     		add	r3, r3, r2
 1780 009a 9BB2     		uxth	r3, r3
 1781 009c 0493     		str	r3, [sp, #16]
 202:lvgl/src/lv_widgets/lv_gauge.c ****     uint16_t angle    = lv_linemeter_get_scale_angle(gauge);
 1782              		.loc 1 202 16 view .LVU556
 1783 009e 1EB2     		sxth	r6, r3
 1784              	.LVL202:
 203:lvgl/src/lv_widgets/lv_gauge.c ****     int16_t angle_ofs = 90 + (360 - angle) / 2 + lv_gauge_get_angle_offset(gauge);
 1785              		.loc 1 203 5 is_stmt 1 view .LVU557
 203:lvgl/src/lv_widgets/lv_gauge.c ****     int16_t angle_ofs = 90 + (360 - angle) / 2 + lv_gauge_get_angle_offset(gauge);
 1786              		.loc 1 203 25 is_stmt 0 view .LVU558
 1787 00a0 0191     		str	r1, [sp, #4]
ARM GAS  D:\Temp\cc42SHz2.s 			page 59


 1788              	.LVL203:
 203:lvgl/src/lv_widgets/lv_gauge.c ****     int16_t angle_ofs = 90 + (360 - angle) / 2 + lv_gauge_get_angle_offset(gauge);
 1789              		.loc 1 203 25 view .LVU559
 1790 00a2 0846     		mov	r0, r1
 1791 00a4 FFF7FEFF 		bl	lv_linemeter_get_scale_angle
 1792              	.LVL204:
 1793 00a8 0790     		str	r0, [sp, #28]
 1794              	.LVL205:
 204:lvgl/src/lv_widgets/lv_gauge.c ****     lv_point_t p_mid;
 1795              		.loc 1 204 5 is_stmt 1 view .LVU560
 204:lvgl/src/lv_widgets/lv_gauge.c ****     lv_point_t p_mid;
 1796              		.loc 1 204 35 is_stmt 0 view .LVU561
 1797 00aa C0F5B477 		rsb	r7, r0, #360
 204:lvgl/src/lv_widgets/lv_gauge.c ****     lv_point_t p_mid;
 1798              		.loc 1 204 44 view .LVU562
 1799 00ae 07EBD777 		add	r7, r7, r7, lsr #31
 1800 00b2 7F10     		asrs	r7, r7, #1
 1801              	.LVL206:
 1802              	.LBB109:
 1803              	.LBI109:
 238:lvgl/src/lv_widgets/lv_gauge.h **** {
 1804              		.loc 3 238 24 is_stmt 1 view .LVU563
 1805              	.LBB110:
 1806              		.loc 3 240 5 view .LVU564
 1807              		.loc 3 240 12 is_stmt 0 view .LVU565
 1808 00b4 0198     		ldr	r0, [sp, #4]
 1809              	.LVL207:
 1810              		.loc 3 240 12 view .LVU566
 1811 00b6 FFF7FEFF 		bl	lv_linemeter_get_angle_offset
 1812              	.LVL208:
 1813              		.loc 3 240 12 view .LVU567
 1814              	.LBE110:
 1815              	.LBE109:
 204:lvgl/src/lv_widgets/lv_gauge.c ****     lv_point_t p_mid;
 1816              		.loc 1 204 48 view .LVU568
 1817 00ba C319     		adds	r3, r0, r7
 1818 00bc 5A33     		adds	r3, r3, #90
 1819 00be 9BB2     		uxth	r3, r3
 1820 00c0 0593     		str	r3, [sp, #20]
 1821              	.LVL209:
 205:lvgl/src/lv_widgets/lv_gauge.c ****     lv_point_t p_end;
 1822              		.loc 1 205 5 is_stmt 1 view .LVU569
 206:lvgl/src/lv_widgets/lv_gauge.c ****     lv_coord_t needle_w;
 1823              		.loc 1 206 5 view .LVU570
 207:lvgl/src/lv_widgets/lv_gauge.c **** 
 1824              		.loc 1 207 5 view .LVU571
 209:lvgl/src/lv_widgets/lv_gauge.c ****         lv_img_header_t info;
 1825              		.loc 1 209 5 view .LVU572
 209:lvgl/src/lv_widgets/lv_gauge.c ****         lv_img_header_t info;
 1826              		.loc 1 209 11 is_stmt 0 view .LVU573
 1827 00c2 DAF82000 		ldr	r0, [r10, #32]
 209:lvgl/src/lv_widgets/lv_gauge.c ****         lv_img_header_t info;
 1828              		.loc 1 209 7 view .LVU574
 1829 00c6 0028     		cmp	r0, #0
 1830 00c8 00F0AD80 		beq	.L80
 1831              	.LBB111:
 210:lvgl/src/lv_widgets/lv_gauge.c ****         lv_img_decoder_get_info(ext->needle_img, &info);
ARM GAS  D:\Temp\cc42SHz2.s 			page 60


 1832              		.loc 1 210 9 is_stmt 1 view .LVU575
 211:lvgl/src/lv_widgets/lv_gauge.c ****         needle_w = info.h;
 1833              		.loc 1 211 9 view .LVU576
 1834 00cc 09A9     		add	r1, sp, #36
 1835 00ce FFF7FEFF 		bl	lv_img_decoder_get_info
 1836              	.LVL210:
 212:lvgl/src/lv_widgets/lv_gauge.c ****     }
 1837              		.loc 1 212 9 view .LVU577
 212:lvgl/src/lv_widgets/lv_gauge.c ****     }
 1838              		.loc 1 212 24 is_stmt 0 view .LVU578
 1839 00d2 BDF82630 		ldrh	r3, [sp, #38]
 212:lvgl/src/lv_widgets/lv_gauge.c ****     }
 1840              		.loc 1 212 18 view .LVU579
 1841 00d6 5B09     		lsrs	r3, r3, #5
 1842 00d8 0693     		str	r3, [sp, #24]
 1843              	.LVL211:
 1844              	.L81:
 212:lvgl/src/lv_widgets/lv_gauge.c ****     }
 1845              		.loc 1 212 18 view .LVU580
 1846              	.LBE111:
 218:lvgl/src/lv_widgets/lv_gauge.c ****     p_mid.y = y_ofs;
 1847              		.loc 1 218 5 is_stmt 1 discriminator 2 view .LVU581
 219:lvgl/src/lv_widgets/lv_gauge.c ****     /*Calculate the end point of a needle*/
 1848              		.loc 1 219 5 discriminator 2 view .LVU582
 221:lvgl/src/lv_widgets/lv_gauge.c **** 
 1849              		.loc 1 221 5 discriminator 2 view .LVU583
 221:lvgl/src/lv_widgets/lv_gauge.c **** 
 1850              		.loc 1 221 39 is_stmt 0 discriminator 2 view .LVU584
 1851 00da A5EB0805 		sub	r5, r5, r8
 1852              	.LVL212:
 221:lvgl/src/lv_widgets/lv_gauge.c **** 
 1853              		.loc 1 221 46 discriminator 2 view .LVU585
 1854 00de 079B     		ldr	r3, [sp, #28]
 1855 00e0 05FB03F5 		mul	r5, r5, r3
 221:lvgl/src/lv_widgets/lv_gauge.c **** 
 1856              		.loc 1 221 61 discriminator 2 view .LVU586
 1857 00e4 ABEB080B 		sub	fp, fp, r8
 221:lvgl/src/lv_widgets/lv_gauge.c **** 
 1858              		.loc 1 221 54 discriminator 2 view .LVU587
 1859 00e8 95FBFBF5 		sdiv	r5, r5, fp
 221:lvgl/src/lv_widgets/lv_gauge.c **** 
 1860              		.loc 1 221 68 discriminator 2 view .LVU588
 1861 00ec 0599     		ldr	r1, [sp, #20]
 1862 00ee 0D44     		add	r5, r5, r1
 1863 00f0 ADB2     		uxth	r5, r5
 1864              	.LVL213:
 223:lvgl/src/lv_widgets/lv_gauge.c ****     p_end.x = (_lv_trigo_sin(needle_angle + 90) * r) / LV_TRIGO_SIN_MAX + x_ofs;
 1865              		.loc 1 223 5 is_stmt 1 discriminator 2 view .LVU589
 223:lvgl/src/lv_widgets/lv_gauge.c ****     p_end.x = (_lv_trigo_sin(needle_angle + 90) * r) / LV_TRIGO_SIN_MAX + x_ofs;
 1866              		.loc 1 223 16 is_stmt 0 discriminator 2 view .LVU590
 1867 00f2 28B2     		sxth	r0, r5
 1868 00f4 FFF7FEFF 		bl	_lv_trigo_sin
 1869              	.LVL214:
 223:lvgl/src/lv_widgets/lv_gauge.c ****     p_end.x = (_lv_trigo_sin(needle_angle + 90) * r) / LV_TRIGO_SIN_MAX + x_ofs;
 1870              		.loc 1 223 44 discriminator 2 view .LVU591
 1871 00f8 04FB00F0 		mul	r0, r4, r0
 223:lvgl/src/lv_widgets/lv_gauge.c ****     p_end.x = (_lv_trigo_sin(needle_angle + 90) * r) / LV_TRIGO_SIN_MAX + x_ofs;
ARM GAS  D:\Temp\cc42SHz2.s 			page 61


 1872              		.loc 1 223 49 discriminator 2 view .LVU592
 1873 00fc 4E4F     		ldr	r7, .L85+4
 1874 00fe 87FB00C3 		smull	ip, r3, r7, r0
 1875 0102 0344     		add	r3, r3, r0
 1876 0104 4FEAE07A 		asr	r10, r0, #31
 1877              	.LVL215:
 223:lvgl/src/lv_widgets/lv_gauge.c ****     p_end.x = (_lv_trigo_sin(needle_angle + 90) * r) / LV_TRIGO_SIN_MAX + x_ofs;
 1878              		.loc 1 223 49 discriminator 2 view .LVU593
 1879 0108 CAEBA33A 		rsb	r10, r10, r3, asr #14
 223:lvgl/src/lv_widgets/lv_gauge.c ****     p_end.x = (_lv_trigo_sin(needle_angle + 90) * r) / LV_TRIGO_SIN_MAX + x_ofs;
 1880              		.loc 1 223 68 discriminator 2 view .LVU594
 1881 010c 0498     		ldr	r0, [sp, #16]
 1882 010e 8244     		add	r10, r10, r0
 1883 0110 0FFA8AFA 		sxth	r10, r10
 224:lvgl/src/lv_widgets/lv_gauge.c **** 
 1884              		.loc 1 224 5 is_stmt 1 discriminator 2 view .LVU595
 224:lvgl/src/lv_widgets/lv_gauge.c **** 
 1885              		.loc 1 224 43 is_stmt 0 discriminator 2 view .LVU596
 1886 0114 05F15A00 		add	r0, r5, #90
 224:lvgl/src/lv_widgets/lv_gauge.c **** 
 1887              		.loc 1 224 16 discriminator 2 view .LVU597
 1888 0118 00B2     		sxth	r0, r0
 1889 011a FFF7FEFF 		bl	_lv_trigo_sin
 1890              	.LVL216:
 224:lvgl/src/lv_widgets/lv_gauge.c **** 
 1891              		.loc 1 224 49 discriminator 2 view .LVU598
 1892 011e 00FB04F0 		mul	r0, r0, r4
 224:lvgl/src/lv_widgets/lv_gauge.c **** 
 1893              		.loc 1 224 54 discriminator 2 view .LVU599
 1894 0122 87FB0053 		smull	r5, r3, r7, r0
 1895              	.LVL217:
 224:lvgl/src/lv_widgets/lv_gauge.c **** 
 1896              		.loc 1 224 54 discriminator 2 view .LVU600
 1897 0126 1A18     		adds	r2, r3, r0
 1898 0128 C317     		asrs	r3, r0, #31
 1899 012a C3EBA233 		rsb	r3, r3, r2, asr #14
 224:lvgl/src/lv_widgets/lv_gauge.c **** 
 1900              		.loc 1 224 73 discriminator 2 view .LVU601
 1901 012e 039D     		ldr	r5, [sp, #12]
 1902 0130 2B44     		add	r3, r3, r5
 1903 0132 1BB2     		sxth	r3, r3
 226:lvgl/src/lv_widgets/lv_gauge.c ****     a.x1 = LV_MATH_MIN(p_mid.x, p_end.x) - needle_w;
 1904              		.loc 1 226 5 is_stmt 1 discriminator 2 view .LVU602
 227:lvgl/src/lv_widgets/lv_gauge.c ****     a.y1 = LV_MATH_MIN(p_mid.y, p_end.y) - needle_w;
 1905              		.loc 1 227 5 discriminator 2 view .LVU603
 227:lvgl/src/lv_widgets/lv_gauge.c ****     a.y1 = LV_MATH_MIN(p_mid.y, p_end.y) - needle_w;
 1906              		.loc 1 227 12 is_stmt 0 discriminator 2 view .LVU604
 1907 0134 9C46     		mov	ip, r3
 1908 0136 4B45     		cmp	r3, r9
 1909 0138 A8BF     		it	ge
 1910 013a CC46     		movge	ip, r9
 1911 013c 1FFA8CF2 		uxth	r2, ip
 227:lvgl/src/lv_widgets/lv_gauge.c ****     a.y1 = LV_MATH_MIN(p_mid.y, p_end.y) - needle_w;
 1912              		.loc 1 227 42 discriminator 2 view .LVU605
 1913 0140 BDF81850 		ldrh	r5, [sp, #24]
 1914 0144 521B     		subs	r2, r2, r5
 227:lvgl/src/lv_widgets/lv_gauge.c ****     a.y1 = LV_MATH_MIN(p_mid.y, p_end.y) - needle_w;
ARM GAS  D:\Temp\cc42SHz2.s 			page 62


 1915              		.loc 1 227 10 discriminator 2 view .LVU606
 1916 0146 ADF82820 		strh	r2, [sp, #40]	@ movhi
 228:lvgl/src/lv_widgets/lv_gauge.c ****     a.x2 = LV_MATH_MAX(p_mid.x, p_end.x) + needle_w;
 1917              		.loc 1 228 5 is_stmt 1 discriminator 2 view .LVU607
 228:lvgl/src/lv_widgets/lv_gauge.c ****     a.x2 = LV_MATH_MAX(p_mid.x, p_end.x) + needle_w;
 1918              		.loc 1 228 12 is_stmt 0 discriminator 2 view .LVU608
 1919 014a D446     		mov	ip, r10
 1920 014c B245     		cmp	r10, r6
 1921 014e A8BF     		it	ge
 1922 0150 B446     		movge	ip, r6
 1923 0152 1FFA8CF2 		uxth	r2, ip
 228:lvgl/src/lv_widgets/lv_gauge.c ****     a.x2 = LV_MATH_MAX(p_mid.x, p_end.x) + needle_w;
 1924              		.loc 1 228 42 discriminator 2 view .LVU609
 1925 0156 521B     		subs	r2, r2, r5
 228:lvgl/src/lv_widgets/lv_gauge.c ****     a.x2 = LV_MATH_MAX(p_mid.x, p_end.x) + needle_w;
 1926              		.loc 1 228 10 discriminator 2 view .LVU610
 1927 0158 ADF82A20 		strh	r2, [sp, #42]	@ movhi
 229:lvgl/src/lv_widgets/lv_gauge.c ****     a.y2 = LV_MATH_MAX(p_mid.y, p_end.y) + needle_w;
 1928              		.loc 1 229 5 is_stmt 1 discriminator 2 view .LVU611
 229:lvgl/src/lv_widgets/lv_gauge.c ****     a.y2 = LV_MATH_MAX(p_mid.y, p_end.y) + needle_w;
 1929              		.loc 1 229 12 is_stmt 0 discriminator 2 view .LVU612
 1930 015c 4B45     		cmp	r3, r9
 1931 015e B8BF     		it	lt
 1932 0160 4B46     		movlt	r3, r9
 229:lvgl/src/lv_widgets/lv_gauge.c ****     a.y2 = LV_MATH_MAX(p_mid.y, p_end.y) + needle_w;
 1933              		.loc 1 229 42 discriminator 2 view .LVU613
 1934 0162 15FA83F3 		uxtah	r3, r5, r3
 229:lvgl/src/lv_widgets/lv_gauge.c ****     a.y2 = LV_MATH_MAX(p_mid.y, p_end.y) + needle_w;
 1935              		.loc 1 229 10 discriminator 2 view .LVU614
 1936 0166 ADF82C30 		strh	r3, [sp, #44]	@ movhi
 230:lvgl/src/lv_widgets/lv_gauge.c ****     lv_obj_invalidate_area(gauge, &a);
 1937              		.loc 1 230 5 is_stmt 1 discriminator 2 view .LVU615
 230:lvgl/src/lv_widgets/lv_gauge.c ****     lv_obj_invalidate_area(gauge, &a);
 1938              		.loc 1 230 12 is_stmt 0 discriminator 2 view .LVU616
 1939 016a B245     		cmp	r10, r6
 1940 016c B8BF     		it	lt
 1941 016e B246     		movlt	r10, r6
 230:lvgl/src/lv_widgets/lv_gauge.c ****     lv_obj_invalidate_area(gauge, &a);
 1942              		.loc 1 230 42 discriminator 2 view .LVU617
 1943 0170 15FA8AF3 		uxtah	r3, r5, r10
 230:lvgl/src/lv_widgets/lv_gauge.c ****     lv_obj_invalidate_area(gauge, &a);
 1944              		.loc 1 230 10 discriminator 2 view .LVU618
 1945 0174 ADF82E30 		strh	r3, [sp, #46]	@ movhi
 231:lvgl/src/lv_widgets/lv_gauge.c **** 
 1946              		.loc 1 231 5 is_stmt 1 discriminator 2 view .LVU619
 1947 0178 0DF1280C 		add	ip, sp, #40
 1948 017c 6146     		mov	r1, ip
 1949 017e 0198     		ldr	r0, [sp, #4]
 1950 0180 FFF7FEFF 		bl	lv_obj_invalidate_area
 1951              	.LVL218:
 233:lvgl/src/lv_widgets/lv_gauge.c ****     p_end.y = (_lv_trigo_sin(needle_angle) * r) / LV_TRIGO_SIN_MAX + y_ofs;
 1952              		.loc 1 233 5 discriminator 2 view .LVU620
 233:lvgl/src/lv_widgets/lv_gauge.c ****     p_end.y = (_lv_trigo_sin(needle_angle) * r) / LV_TRIGO_SIN_MAX + y_ofs;
 1953              		.loc 1 233 27 is_stmt 0 discriminator 2 view .LVU621
 1954 0184 029B     		ldr	r3, [sp, #8]
 1955 0186 A3EB0803 		sub	r3, r3, r8
 233:lvgl/src/lv_widgets/lv_gauge.c ****     p_end.y = (_lv_trigo_sin(needle_angle) * r) / LV_TRIGO_SIN_MAX + y_ofs;
ARM GAS  D:\Temp\cc42SHz2.s 			page 63


 1956              		.loc 1 233 34 discriminator 2 view .LVU622
 1957 018a 079A     		ldr	r2, [sp, #28]
 1958 018c 03FB02F3 		mul	r3, r3, r2
 233:lvgl/src/lv_widgets/lv_gauge.c ****     p_end.y = (_lv_trigo_sin(needle_angle) * r) / LV_TRIGO_SIN_MAX + y_ofs;
 1959              		.loc 1 233 42 discriminator 2 view .LVU623
 1960 0190 93FBFBFB 		sdiv	fp, r3, fp
 233:lvgl/src/lv_widgets/lv_gauge.c ****     p_end.y = (_lv_trigo_sin(needle_angle) * r) / LV_TRIGO_SIN_MAX + y_ofs;
 1961              		.loc 1 233 56 discriminator 2 view .LVU624
 1962 0194 0599     		ldr	r1, [sp, #20]
 1963 0196 8B44     		add	fp, fp, r1
 1964 0198 1FFA8BFB 		uxth	fp, fp
 1965              	.LVL219:
 234:lvgl/src/lv_widgets/lv_gauge.c ****     p_end.x = (_lv_trigo_sin(needle_angle + 90) * r) / LV_TRIGO_SIN_MAX + x_ofs;
 1966              		.loc 1 234 5 is_stmt 1 discriminator 2 view .LVU625
 234:lvgl/src/lv_widgets/lv_gauge.c ****     p_end.x = (_lv_trigo_sin(needle_angle + 90) * r) / LV_TRIGO_SIN_MAX + x_ofs;
 1967              		.loc 1 234 16 is_stmt 0 discriminator 2 view .LVU626
 1968 019c 0FFA8BF0 		sxth	r0, fp
 1969 01a0 FFF7FEFF 		bl	_lv_trigo_sin
 1970              	.LVL220:
 234:lvgl/src/lv_widgets/lv_gauge.c ****     p_end.x = (_lv_trigo_sin(needle_angle + 90) * r) / LV_TRIGO_SIN_MAX + x_ofs;
 1971              		.loc 1 234 44 discriminator 2 view .LVU627
 1972 01a4 00FB04F0 		mul	r0, r0, r4
 234:lvgl/src/lv_widgets/lv_gauge.c ****     p_end.x = (_lv_trigo_sin(needle_angle + 90) * r) / LV_TRIGO_SIN_MAX + x_ofs;
 1973              		.loc 1 234 49 discriminator 2 view .LVU628
 1974 01a8 87FB0013 		smull	r1, r3, r7, r0
 1975 01ac 1A18     		adds	r2, r3, r0
 1976 01ae C317     		asrs	r3, r0, #31
 1977 01b0 C3EBA233 		rsb	r3, r3, r2, asr #14
 234:lvgl/src/lv_widgets/lv_gauge.c ****     p_end.x = (_lv_trigo_sin(needle_angle + 90) * r) / LV_TRIGO_SIN_MAX + x_ofs;
 1978              		.loc 1 234 68 discriminator 2 view .LVU629
 1979 01b4 049A     		ldr	r2, [sp, #16]
 1980 01b6 1344     		add	r3, r3, r2
 1981 01b8 0FFA83FA 		sxth	r10, r3
 235:lvgl/src/lv_widgets/lv_gauge.c **** 
 1982              		.loc 1 235 5 is_stmt 1 discriminator 2 view .LVU630
 235:lvgl/src/lv_widgets/lv_gauge.c **** 
 1983              		.loc 1 235 43 is_stmt 0 discriminator 2 view .LVU631
 1984 01bc 0BF15A00 		add	r0, fp, #90
 235:lvgl/src/lv_widgets/lv_gauge.c **** 
 1985              		.loc 1 235 16 discriminator 2 view .LVU632
 1986 01c0 00B2     		sxth	r0, r0
 1987 01c2 FFF7FEFF 		bl	_lv_trigo_sin
 1988              	.LVL221:
 235:lvgl/src/lv_widgets/lv_gauge.c **** 
 1989              		.loc 1 235 49 discriminator 2 view .LVU633
 1990 01c6 00FB04F0 		mul	r0, r0, r4
 235:lvgl/src/lv_widgets/lv_gauge.c **** 
 1991              		.loc 1 235 54 discriminator 2 view .LVU634
 1992 01ca 87FB0013 		smull	r1, r3, r7, r0
 1993 01ce 1A18     		adds	r2, r3, r0
 1994 01d0 C317     		asrs	r3, r0, #31
 1995 01d2 C3EBA233 		rsb	r3, r3, r2, asr #14
 235:lvgl/src/lv_widgets/lv_gauge.c **** 
 1996              		.loc 1 235 73 discriminator 2 view .LVU635
 1997 01d6 039A     		ldr	r2, [sp, #12]
 1998 01d8 1344     		add	r3, r3, r2
 1999 01da 1BB2     		sxth	r3, r3
ARM GAS  D:\Temp\cc42SHz2.s 			page 64


 237:lvgl/src/lv_widgets/lv_gauge.c ****     a.y1 = LV_MATH_MIN(p_mid.y, p_end.y) - needle_w;
 2000              		.loc 1 237 5 is_stmt 1 discriminator 2 view .LVU636
 237:lvgl/src/lv_widgets/lv_gauge.c ****     a.y1 = LV_MATH_MIN(p_mid.y, p_end.y) - needle_w;
 2001              		.loc 1 237 12 is_stmt 0 discriminator 2 view .LVU637
 2002 01dc 1A46     		mov	r2, r3
 2003 01de 4B45     		cmp	r3, r9
 2004 01e0 A8BF     		it	ge
 2005 01e2 4A46     		movge	r2, r9
 2006 01e4 92B2     		uxth	r2, r2
 237:lvgl/src/lv_widgets/lv_gauge.c ****     a.y1 = LV_MATH_MIN(p_mid.y, p_end.y) - needle_w;
 2007              		.loc 1 237 42 discriminator 2 view .LVU638
 2008 01e6 521B     		subs	r2, r2, r5
 237:lvgl/src/lv_widgets/lv_gauge.c ****     a.y1 = LV_MATH_MIN(p_mid.y, p_end.y) - needle_w;
 2009              		.loc 1 237 10 discriminator 2 view .LVU639
 2010 01e8 ADF82820 		strh	r2, [sp, #40]	@ movhi
 238:lvgl/src/lv_widgets/lv_gauge.c ****     a.x2 = LV_MATH_MAX(p_mid.x, p_end.x) + needle_w;
 2011              		.loc 1 238 5 is_stmt 1 discriminator 2 view .LVU640
 238:lvgl/src/lv_widgets/lv_gauge.c ****     a.x2 = LV_MATH_MAX(p_mid.x, p_end.x) + needle_w;
 2012              		.loc 1 238 12 is_stmt 0 discriminator 2 view .LVU641
 2013 01ec 5246     		mov	r2, r10
 2014 01ee B245     		cmp	r10, r6
 2015 01f0 A8BF     		it	ge
 2016 01f2 3246     		movge	r2, r6
 2017 01f4 92B2     		uxth	r2, r2
 238:lvgl/src/lv_widgets/lv_gauge.c ****     a.x2 = LV_MATH_MAX(p_mid.x, p_end.x) + needle_w;
 2018              		.loc 1 238 42 discriminator 2 view .LVU642
 2019 01f6 521B     		subs	r2, r2, r5
 238:lvgl/src/lv_widgets/lv_gauge.c ****     a.x2 = LV_MATH_MAX(p_mid.x, p_end.x) + needle_w;
 2020              		.loc 1 238 10 discriminator 2 view .LVU643
 2021 01f8 ADF82A20 		strh	r2, [sp, #42]	@ movhi
 239:lvgl/src/lv_widgets/lv_gauge.c ****     a.y2 = LV_MATH_MAX(p_mid.y, p_end.y) + needle_w;
 2022              		.loc 1 239 5 is_stmt 1 discriminator 2 view .LVU644
 239:lvgl/src/lv_widgets/lv_gauge.c ****     a.y2 = LV_MATH_MAX(p_mid.y, p_end.y) + needle_w;
 2023              		.loc 1 239 12 is_stmt 0 discriminator 2 view .LVU645
 2024 01fc 4B45     		cmp	r3, r9
 2025 01fe B8BF     		it	lt
 2026 0200 4B46     		movlt	r3, r9
 239:lvgl/src/lv_widgets/lv_gauge.c ****     a.y2 = LV_MATH_MAX(p_mid.y, p_end.y) + needle_w;
 2027              		.loc 1 239 42 discriminator 2 view .LVU646
 2028 0202 15FA83F3 		uxtah	r3, r5, r3
 239:lvgl/src/lv_widgets/lv_gauge.c ****     a.y2 = LV_MATH_MAX(p_mid.y, p_end.y) + needle_w;
 2029              		.loc 1 239 10 discriminator 2 view .LVU647
 2030 0206 ADF82C30 		strh	r3, [sp, #44]	@ movhi
 240:lvgl/src/lv_widgets/lv_gauge.c ****     lv_obj_invalidate_area(gauge, &a);
 2031              		.loc 1 240 5 is_stmt 1 discriminator 2 view .LVU648
 240:lvgl/src/lv_widgets/lv_gauge.c ****     lv_obj_invalidate_area(gauge, &a);
 2032              		.loc 1 240 12 is_stmt 0 discriminator 2 view .LVU649
 2033 020a B245     		cmp	r10, r6
 2034 020c B8BF     		it	lt
 2035 020e B246     		movlt	r10, r6
 240:lvgl/src/lv_widgets/lv_gauge.c ****     lv_obj_invalidate_area(gauge, &a);
 2036              		.loc 1 240 42 discriminator 2 view .LVU650
 2037 0210 15FA8AF5 		uxtah	r5, r5, r10
 240:lvgl/src/lv_widgets/lv_gauge.c ****     lv_obj_invalidate_area(gauge, &a);
 2038              		.loc 1 240 10 discriminator 2 view .LVU651
 2039 0214 ADF82E50 		strh	r5, [sp, #46]	@ movhi
 241:lvgl/src/lv_widgets/lv_gauge.c **** 
ARM GAS  D:\Temp\cc42SHz2.s 			page 65


 2040              		.loc 1 241 5 is_stmt 1 discriminator 2 view .LVU652
 2041 0218 0AA9     		add	r1, sp, #40
 2042 021a 0198     		ldr	r0, [sp, #4]
 2043 021c FFF7FEFF 		bl	lv_obj_invalidate_area
 2044              	.LVL222:
 2045              	.L75:
 243:lvgl/src/lv_widgets/lv_gauge.c **** 
 2046              		.loc 1 243 1 is_stmt 0 view .LVU653
 2047 0220 0DB0     		add	sp, sp, #52
 2048              	.LCFI13:
 2049              		.cfi_remember_state
 2050              		.cfi_def_cfa_offset 36
 2051              		@ sp needed
 2052 0222 BDE8F08F 		pop	{r4, r5, r6, r7, r8, r9, r10, fp, pc}
 2053              	.LVL223:
 2054              	.L80:
 2055              	.LCFI14:
 2056              		.cfi_restore_state
 215:lvgl/src/lv_widgets/lv_gauge.c ****     }
 2057              		.loc 1 215 9 is_stmt 1 view .LVU654
 2058              	.LBB112:
 2059              	.LBI112:
 169:lvgl/src/lv_widgets/../lv_core/lv_obj_style_dec.h **** _LV_OBJ_STYLE_SET_GET_DECLARE(LINE_BLEND_MODE, line_blend_mode, lv_blend_mode_t, _int, scalar)
 2060              		.loc 2 169 1 view .LVU655
 2061              	.LBB113:
 169:lvgl/src/lv_widgets/../lv_core/lv_obj_style_dec.h **** _LV_OBJ_STYLE_SET_GET_DECLARE(LINE_BLEND_MODE, line_blend_mode, lv_blend_mode_t, _int, scalar)
 2062              		.loc 2 169 1 view .LVU656
 2063 0226 9022     		movs	r2, #144
 2064 0228 0221     		movs	r1, #2
 2065 022a 0198     		ldr	r0, [sp, #4]
 2066 022c FFF7FEFF 		bl	_lv_obj_get_style_int
 2067              	.LVL224:
 2068 0230 0690     		str	r0, [sp, #24]
 2069              	.LVL225:
 169:lvgl/src/lv_widgets/../lv_core/lv_obj_style_dec.h **** _LV_OBJ_STYLE_SET_GET_DECLARE(LINE_BLEND_MODE, line_blend_mode, lv_blend_mode_t, _int, scalar)
 2070              		.loc 2 169 1 is_stmt 0 view .LVU657
 2071 0232 52E7     		b	.L81
 2072              	.L86:
 2073              		.align	2
 2074              	.L85:
 2075 0234 00000000 		.word	.LC0
 2076 0238 03000180 		.word	-2147418109
 2077              	.LBE113:
 2078              	.LBE112:
 2079              		.cfi_endproc
 2080              	.LFE472:
 2082              		.section	.text.lv_gauge_set_scale,"ax",%progbits
 2083              		.align	1
 2084              		.global	lv_gauge_set_scale
 2085              		.syntax unified
 2086              		.thumb
 2087              		.thumb_func
 2088              		.fpu fpv4-sp-d16
 2090              	lv_gauge_set_scale:
 2091              	.LVL226:
 2092              	.LFB473:
 255:lvgl/src/lv_widgets/lv_gauge.c ****     LV_ASSERT_OBJ(gauge, LV_OBJX_NAME);
ARM GAS  D:\Temp\cc42SHz2.s 			page 66


 2093              		.loc 1 255 1 is_stmt 1 view -0
 2094              		.cfi_startproc
 2095              		@ args = 0, pretend = 0, frame = 0
 2096              		@ frame_needed = 0, uses_anonymous_args = 0
 255:lvgl/src/lv_widgets/lv_gauge.c ****     LV_ASSERT_OBJ(gauge, LV_OBJX_NAME);
 2097              		.loc 1 255 1 is_stmt 0 view .LVU659
 2098 0000 F8B5     		push	{r3, r4, r5, r6, r7, lr}
 2099              	.LCFI15:
 2100              		.cfi_def_cfa_offset 24
 2101              		.cfi_offset 3, -24
 2102              		.cfi_offset 4, -20
 2103              		.cfi_offset 5, -16
 2104              		.cfi_offset 6, -12
 2105              		.cfi_offset 7, -8
 2106              		.cfi_offset 14, -4
 2107 0002 0446     		mov	r4, r0
 2108 0004 0E46     		mov	r6, r1
 2109 0006 1746     		mov	r7, r2
 2110 0008 1D46     		mov	r5, r3
 256:lvgl/src/lv_widgets/lv_gauge.c **** 
 2111              		.loc 1 256 5 is_stmt 1 view .LVU660
 256:lvgl/src/lv_widgets/lv_gauge.c **** 
 2112              		.loc 1 256 5 view .LVU661
 2113 000a FFF7FEFF 		bl	lv_debug_check_null
 2114              	.LVL227:
 256:lvgl/src/lv_widgets/lv_gauge.c **** 
 2115              		.loc 1 256 5 is_stmt 0 view .LVU662
 2116 000e 28B9     		cbnz	r0, .L88
 256:lvgl/src/lv_widgets/lv_gauge.c **** 
 2117              		.loc 1 256 5 is_stmt 1 discriminator 1 view .LVU663
 256:lvgl/src/lv_widgets/lv_gauge.c **** 
 2118              		.loc 1 256 5 discriminator 1 view .LVU664
 2119 0010 2246     		mov	r2, r4
 2120 0012 0023     		movs	r3, #0
 2121 0014 0848     		ldr	r0, .L91
 2122 0016 FFF7FEFF 		bl	lv_debug_log_error
 2123              	.LVL228:
 2124              	.L89:
 256:lvgl/src/lv_widgets/lv_gauge.c **** 
 2125              		.loc 1 256 5 discriminator 1 view .LVU665
 256:lvgl/src/lv_widgets/lv_gauge.c **** 
 2126              		.loc 1 256 5 discriminator 1 view .LVU666
 2127 001a FEE7     		b	.L89
 2128              	.L88:
 256:lvgl/src/lv_widgets/lv_gauge.c **** 
 2129              		.loc 1 256 39 discriminator 2 view .LVU667
 258:lvgl/src/lv_widgets/lv_gauge.c **** 
 2130              		.loc 1 258 5 discriminator 2 view .LVU668
 2131 001c 3A46     		mov	r2, r7
 2132 001e 3146     		mov	r1, r6
 2133 0020 2046     		mov	r0, r4
 2134 0022 FFF7FEFF 		bl	lv_linemeter_set_scale
 2135              	.LVL229:
 260:lvgl/src/lv_widgets/lv_gauge.c ****     ext->label_count     = label_cnt;
 2136              		.loc 1 260 5 discriminator 2 view .LVU669
 260:lvgl/src/lv_widgets/lv_gauge.c ****     ext->label_count     = label_cnt;
 2137              		.loc 1 260 28 is_stmt 0 discriminator 2 view .LVU670
ARM GAS  D:\Temp\cc42SHz2.s 			page 67


 2138 0026 2046     		mov	r0, r4
 2139 0028 FFF7FEFF 		bl	lv_obj_get_ext_attr
 2140              	.LVL230:
 261:lvgl/src/lv_widgets/lv_gauge.c ****     lv_obj_invalidate(gauge);
 2141              		.loc 1 261 5 is_stmt 1 discriminator 2 view .LVU671
 261:lvgl/src/lv_widgets/lv_gauge.c ****     lv_obj_invalidate(gauge);
 2142              		.loc 1 261 26 is_stmt 0 discriminator 2 view .LVU672
 2143 002c 80F83950 		strb	r5, [r0, #57]
 262:lvgl/src/lv_widgets/lv_gauge.c **** }
 2144              		.loc 1 262 5 is_stmt 1 discriminator 2 view .LVU673
 2145 0030 2046     		mov	r0, r4
 2146              	.LVL231:
 262:lvgl/src/lv_widgets/lv_gauge.c **** }
 2147              		.loc 1 262 5 is_stmt 0 discriminator 2 view .LVU674
 2148 0032 FFF7FEFF 		bl	lv_obj_invalidate
 2149              	.LVL232:
 263:lvgl/src/lv_widgets/lv_gauge.c **** 
 2150              		.loc 1 263 1 discriminator 2 view .LVU675
 2151 0036 F8BD     		pop	{r3, r4, r5, r6, r7, pc}
 2152              	.LVL233:
 2153              	.L92:
 263:lvgl/src/lv_widgets/lv_gauge.c **** 
 2154              		.loc 1 263 1 discriminator 2 view .LVU676
 2155              		.align	2
 2156              	.L91:
 2157 0038 00000000 		.word	.LC0
 2158              		.cfi_endproc
 2159              	.LFE473:
 2161              		.section	.text.lv_gauge_create,"ax",%progbits
 2162              		.align	1
 2163              		.global	lv_gauge_create
 2164              		.syntax unified
 2165              		.thumb
 2166              		.thumb_func
 2167              		.fpu fpv4-sp-d16
 2169              	lv_gauge_create:
 2170              	.LVL234:
 2171              	.LFB470:
  66:lvgl/src/lv_widgets/lv_gauge.c ****     LV_LOG_TRACE("gauge create started");
 2172              		.loc 1 66 1 is_stmt 1 view -0
 2173              		.cfi_startproc
 2174              		@ args = 0, pretend = 0, frame = 0
 2175              		@ frame_needed = 0, uses_anonymous_args = 0
  66:lvgl/src/lv_widgets/lv_gauge.c ****     LV_LOG_TRACE("gauge create started");
 2176              		.loc 1 66 1 is_stmt 0 view .LVU678
 2177 0000 2DE9F041 		push	{r4, r5, r6, r7, r8, lr}
 2178              	.LCFI16:
 2179              		.cfi_def_cfa_offset 24
 2180              		.cfi_offset 4, -24
 2181              		.cfi_offset 5, -20
 2182              		.cfi_offset 6, -16
 2183              		.cfi_offset 7, -12
 2184              		.cfi_offset 8, -8
 2185              		.cfi_offset 14, -4
 2186 0004 0E46     		mov	r6, r1
  67:lvgl/src/lv_widgets/lv_gauge.c **** 
 2187              		.loc 1 67 41 is_stmt 1 view .LVU679
ARM GAS  D:\Temp\cc42SHz2.s 			page 68


  70:lvgl/src/lv_widgets/lv_gauge.c ****     LV_ASSERT_MEM(gauge);
 2188              		.loc 1 70 5 view .LVU680
  70:lvgl/src/lv_widgets/lv_gauge.c ****     LV_ASSERT_MEM(gauge);
 2189              		.loc 1 70 24 is_stmt 0 view .LVU681
 2190 0006 FFF7FEFF 		bl	lv_linemeter_create
 2191              	.LVL235:
  70:lvgl/src/lv_widgets/lv_gauge.c ****     LV_ASSERT_MEM(gauge);
 2192              		.loc 1 70 24 view .LVU682
 2193 000a 0446     		mov	r4, r0
 2194              	.LVL236:
  71:lvgl/src/lv_widgets/lv_gauge.c ****     if(gauge == NULL) return NULL;
 2195              		.loc 1 71 5 is_stmt 1 view .LVU683
  71:lvgl/src/lv_widgets/lv_gauge.c ****     if(gauge == NULL) return NULL;
 2196              		.loc 1 71 5 view .LVU684
 2197 000c FFF7FEFF 		bl	lv_debug_check_null
 2198              	.LVL237:
  71:lvgl/src/lv_widgets/lv_gauge.c ****     if(gauge == NULL) return NULL;
 2199              		.loc 1 71 5 is_stmt 0 view .LVU685
 2200 0010 0028     		cmp	r0, #0
 2201 0012 4AD0     		beq	.L106
  71:lvgl/src/lv_widgets/lv_gauge.c ****     if(gauge == NULL) return NULL;
 2202              		.loc 1 71 25 is_stmt 1 discriminator 2 view .LVU686
  72:lvgl/src/lv_widgets/lv_gauge.c **** 
 2203              		.loc 1 72 5 discriminator 2 view .LVU687
  72:lvgl/src/lv_widgets/lv_gauge.c **** 
 2204              		.loc 1 72 7 is_stmt 0 discriminator 2 view .LVU688
 2205 0014 002C     		cmp	r4, #0
 2206 0016 00F09180 		beq	.L93
  75:lvgl/src/lv_widgets/lv_gauge.c ****     LV_ASSERT_MEM(ext);
 2207              		.loc 1 75 5 is_stmt 1 view .LVU689
  75:lvgl/src/lv_widgets/lv_gauge.c ****     LV_ASSERT_MEM(ext);
 2208              		.loc 1 75 28 is_stmt 0 view .LVU690
 2209 001a 4021     		movs	r1, #64
 2210 001c 2046     		mov	r0, r4
 2211 001e FFF7FEFF 		bl	lv_obj_allocate_ext_attr
 2212              	.LVL238:
 2213 0022 0546     		mov	r5, r0
 2214              	.LVL239:
  76:lvgl/src/lv_widgets/lv_gauge.c ****     if(ext == NULL) {
 2215              		.loc 1 76 5 is_stmt 1 view .LVU691
  76:lvgl/src/lv_widgets/lv_gauge.c ****     if(ext == NULL) {
 2216              		.loc 1 76 5 view .LVU692
 2217 0024 FFF7FEFF 		bl	lv_debug_check_null
 2218              	.LVL240:
  76:lvgl/src/lv_widgets/lv_gauge.c ****     if(ext == NULL) {
 2219              		.loc 1 76 5 is_stmt 0 view .LVU693
 2220 0028 0028     		cmp	r0, #0
 2221 002a 44D0     		beq	.L107
  76:lvgl/src/lv_widgets/lv_gauge.c ****     if(ext == NULL) {
 2222              		.loc 1 76 23 is_stmt 1 discriminator 2 view .LVU694
  77:lvgl/src/lv_widgets/lv_gauge.c ****         lv_obj_del(gauge);
 2223              		.loc 1 77 5 discriminator 2 view .LVU695
  77:lvgl/src/lv_widgets/lv_gauge.c ****         lv_obj_del(gauge);
 2224              		.loc 1 77 7 is_stmt 0 discriminator 2 view .LVU696
 2225 002c 002D     		cmp	r5, #0
 2226 002e 48D0     		beq	.L108
  83:lvgl/src/lv_widgets/lv_gauge.c ****     ext->values        = NULL;
ARM GAS  D:\Temp\cc42SHz2.s 			page 69


 2227              		.loc 1 83 5 is_stmt 1 view .LVU697
  83:lvgl/src/lv_widgets/lv_gauge.c ****     ext->values        = NULL;
 2228              		.loc 1 83 24 is_stmt 0 view .LVU698
 2229 0030 0023     		movs	r3, #0
 2230 0032 85F83830 		strb	r3, [r5, #56]
  84:lvgl/src/lv_widgets/lv_gauge.c ****     ext->needle_colors = NULL;
 2231              		.loc 1 84 5 is_stmt 1 view .LVU699
  84:lvgl/src/lv_widgets/lv_gauge.c ****     ext->needle_colors = NULL;
 2232              		.loc 1 84 24 is_stmt 0 view .LVU700
 2233 0036 AB61     		str	r3, [r5, #24]
  85:lvgl/src/lv_widgets/lv_gauge.c ****     ext->label_count   = LV_GAUGE_DEF_LABEL_COUNT;
 2234              		.loc 1 85 5 is_stmt 1 view .LVU701
  85:lvgl/src/lv_widgets/lv_gauge.c ****     ext->label_count   = LV_GAUGE_DEF_LABEL_COUNT;
 2235              		.loc 1 85 24 is_stmt 0 view .LVU702
 2236 0038 EB61     		str	r3, [r5, #28]
  86:lvgl/src/lv_widgets/lv_gauge.c ****     ext->format_cb     = NULL;
 2237              		.loc 1 86 5 is_stmt 1 view .LVU703
  86:lvgl/src/lv_widgets/lv_gauge.c ****     ext->format_cb     = NULL;
 2238              		.loc 1 86 24 is_stmt 0 view .LVU704
 2239 003a 0622     		movs	r2, #6
 2240 003c 85F83920 		strb	r2, [r5, #57]
  87:lvgl/src/lv_widgets/lv_gauge.c **** 
 2241              		.loc 1 87 5 is_stmt 1 view .LVU705
  87:lvgl/src/lv_widgets/lv_gauge.c **** 
 2242              		.loc 1 87 24 is_stmt 0 view .LVU706
 2243 0040 EB63     		str	r3, [r5, #60]
  89:lvgl/src/lv_widgets/lv_gauge.c ****     ext->needle_img_pivot.x = 0;
 2244              		.loc 1 89 5 is_stmt 1 view .LVU707
  89:lvgl/src/lv_widgets/lv_gauge.c ****     ext->needle_img_pivot.x = 0;
 2245              		.loc 1 89 21 is_stmt 0 view .LVU708
 2246 0042 2B62     		str	r3, [r5, #32]
  90:lvgl/src/lv_widgets/lv_gauge.c ****     ext->needle_img_pivot.y = 0;
 2247              		.loc 1 90 5 is_stmt 1 view .LVU709
  90:lvgl/src/lv_widgets/lv_gauge.c ****     ext->needle_img_pivot.y = 0;
 2248              		.loc 1 90 29 is_stmt 0 view .LVU710
 2249 0044 AB84     		strh	r3, [r5, #36]	@ movhi
  91:lvgl/src/lv_widgets/lv_gauge.c ****     if(ancestor_signal == NULL) ancestor_signal = lv_obj_get_signal_cb(gauge);
 2250              		.loc 1 91 5 is_stmt 1 view .LVU711
  91:lvgl/src/lv_widgets/lv_gauge.c ****     if(ancestor_signal == NULL) ancestor_signal = lv_obj_get_signal_cb(gauge);
 2251              		.loc 1 91 29 is_stmt 0 view .LVU712
 2252 0046 EB84     		strh	r3, [r5, #38]	@ movhi
  92:lvgl/src/lv_widgets/lv_gauge.c ****     if(ancestor_design == NULL) ancestor_design = lv_obj_get_design_cb(gauge);
 2253              		.loc 1 92 5 is_stmt 1 view .LVU713
  92:lvgl/src/lv_widgets/lv_gauge.c ****     if(ancestor_design == NULL) ancestor_design = lv_obj_get_design_cb(gauge);
 2254              		.loc 1 92 24 is_stmt 0 view .LVU714
 2255 0048 3E4B     		ldr	r3, .L112
 2256 004a 1B68     		ldr	r3, [r3]
  92:lvgl/src/lv_widgets/lv_gauge.c ****     if(ancestor_design == NULL) ancestor_design = lv_obj_get_design_cb(gauge);
 2257              		.loc 1 92 7 view .LVU715
 2258 004c 002B     		cmp	r3, #0
 2259 004e 3DD0     		beq	.L109
 2260              	.L100:
  93:lvgl/src/lv_widgets/lv_gauge.c **** 
 2261              		.loc 1 93 5 is_stmt 1 view .LVU716
  93:lvgl/src/lv_widgets/lv_gauge.c **** 
 2262              		.loc 1 93 24 is_stmt 0 view .LVU717
 2263 0050 3D4B     		ldr	r3, .L112+4
ARM GAS  D:\Temp\cc42SHz2.s 			page 70


 2264 0052 1B68     		ldr	r3, [r3]
  93:lvgl/src/lv_widgets/lv_gauge.c **** 
 2265              		.loc 1 93 7 view .LVU718
 2266 0054 002B     		cmp	r3, #0
 2267 0056 3FD0     		beq	.L110
 2268              	.L101:
  95:lvgl/src/lv_widgets/lv_gauge.c ****     lv_style_list_init(&ext->style_needle);
 2269              		.loc 1 95 5 is_stmt 1 view .LVU719
 2270 0058 05F13008 		add	r8, r5, #48
 2271 005c 4046     		mov	r0, r8
 2272 005e FFF7FEFF 		bl	lv_style_list_init
 2273              	.LVL241:
  96:lvgl/src/lv_widgets/lv_gauge.c **** 
 2274              		.loc 1 96 5 view .LVU720
 2275 0062 05F12807 		add	r7, r5, #40
 2276 0066 3846     		mov	r0, r7
 2277 0068 FFF7FEFF 		bl	lv_style_list_init
 2278              	.LVL242:
  99:lvgl/src/lv_widgets/lv_gauge.c ****     lv_obj_set_design_cb(gauge, lv_gauge_design);
 2279              		.loc 1 99 5 view .LVU721
 2280 006c 3749     		ldr	r1, .L112+8
 2281 006e 2046     		mov	r0, r4
 2282 0070 FFF7FEFF 		bl	lv_obj_set_signal_cb
 2283              	.LVL243:
 100:lvgl/src/lv_widgets/lv_gauge.c **** 
 2284              		.loc 1 100 5 view .LVU722
 2285 0074 3649     		ldr	r1, .L112+12
 2286 0076 2046     		mov	r0, r4
 2287 0078 FFF7FEFF 		bl	lv_obj_set_design_cb
 2288              	.LVL244:
 103:lvgl/src/lv_widgets/lv_gauge.c ****         lv_gauge_set_scale(gauge, LV_GAUGE_DEF_ANGLE, LV_GAUGE_DEF_LINE_COUNT, LV_GAUGE_DEF_LABEL_C
 2289              		.loc 1 103 5 view .LVU723
 103:lvgl/src/lv_widgets/lv_gauge.c ****         lv_gauge_set_scale(gauge, LV_GAUGE_DEF_ANGLE, LV_GAUGE_DEF_LINE_COUNT, LV_GAUGE_DEF_LABEL_C
 2290              		.loc 1 103 7 is_stmt 0 view .LVU724
 2291 007c 96B3     		cbz	r6, .L111
 2292              	.LBB114:
 113:lvgl/src/lv_widgets/lv_gauge.c ****         lv_gauge_set_needle_count(gauge, copy_ext->needle_count, copy_ext->needle_colors);
 2293              		.loc 1 113 9 is_stmt 1 view .LVU725
 113:lvgl/src/lv_widgets/lv_gauge.c ****         lv_gauge_set_needle_count(gauge, copy_ext->needle_count, copy_ext->needle_colors);
 2294              		.loc 1 113 37 is_stmt 0 view .LVU726
 2295 007e 3046     		mov	r0, r6
 2296 0080 FFF7FEFF 		bl	lv_obj_get_ext_attr
 2297              	.LVL245:
 2298 0084 0646     		mov	r6, r0
 2299              	.LVL246:
 114:lvgl/src/lv_widgets/lv_gauge.c **** 
 2300              		.loc 1 114 9 is_stmt 1 view .LVU727
 2301 0086 C269     		ldr	r2, [r0, #28]
 2302 0088 90F83810 		ldrb	r1, [r0, #56]	@ zero_extendqisi2
 2303 008c 2046     		mov	r0, r4
 2304              	.LVL247:
 114:lvgl/src/lv_widgets/lv_gauge.c **** 
 2305              		.loc 1 114 9 is_stmt 0 view .LVU728
 2306 008e FFF7FEFF 		bl	lv_gauge_set_needle_count
 2307              	.LVL248:
 116:lvgl/src/lv_widgets/lv_gauge.c ****         lv_style_list_copy(&ext->style_needle, &copy_ext->style_needle);
 2308              		.loc 1 116 9 is_stmt 1 view .LVU729
ARM GAS  D:\Temp\cc42SHz2.s 			page 71


 2309 0092 06F13001 		add	r1, r6, #48
 2310 0096 4046     		mov	r0, r8
 2311 0098 FFF7FEFF 		bl	lv_style_list_copy
 2312              	.LVL249:
 117:lvgl/src/lv_widgets/lv_gauge.c **** 
 2313              		.loc 1 117 9 view .LVU730
 2314 009c 06F12801 		add	r1, r6, #40
 2315 00a0 3846     		mov	r0, r7
 2316 00a2 FFF7FEFF 		bl	lv_style_list_copy
 2317              	.LVL250:
 119:lvgl/src/lv_widgets/lv_gauge.c ****         for(i = 0; i < ext->needle_count; i++) {
 2318              		.loc 1 119 9 view .LVU731
 120:lvgl/src/lv_widgets/lv_gauge.c ****             ext->values[i] = copy_ext->values[i];
 2319              		.loc 1 120 9 view .LVU732
 120:lvgl/src/lv_widgets/lv_gauge.c ****             ext->values[i] = copy_ext->values[i];
 2320              		.loc 1 120 15 is_stmt 0 view .LVU733
 2321 00a6 0023     		movs	r3, #0
 120:lvgl/src/lv_widgets/lv_gauge.c ****             ext->values[i] = copy_ext->values[i];
 2322              		.loc 1 120 9 view .LVU734
 2323 00a8 39E0     		b	.L103
 2324              	.LVL251:
 2325              	.L106:
 120:lvgl/src/lv_widgets/lv_gauge.c ****             ext->values[i] = copy_ext->values[i];
 2326              		.loc 1 120 9 view .LVU735
 2327              	.LBE114:
  71:lvgl/src/lv_widgets/lv_gauge.c ****     if(gauge == NULL) return NULL;
 2328              		.loc 1 71 5 is_stmt 1 discriminator 1 view .LVU736
  71:lvgl/src/lv_widgets/lv_gauge.c ****     if(gauge == NULL) return NULL;
 2329              		.loc 1 71 5 discriminator 1 view .LVU737
 2330 00aa 2246     		mov	r2, r4
 2331 00ac 0023     		movs	r3, #0
 2332 00ae 2948     		ldr	r0, .L112+16
 2333 00b0 FFF7FEFF 		bl	lv_debug_log_error
 2334              	.LVL252:
 2335              	.L95:
  71:lvgl/src/lv_widgets/lv_gauge.c ****     if(gauge == NULL) return NULL;
 2336              		.loc 1 71 5 discriminator 1 view .LVU738
  71:lvgl/src/lv_widgets/lv_gauge.c ****     if(gauge == NULL) return NULL;
 2337              		.loc 1 71 5 discriminator 1 view .LVU739
 2338 00b4 FEE7     		b	.L95
 2339              	.LVL253:
 2340              	.L107:
  76:lvgl/src/lv_widgets/lv_gauge.c ****     if(ext == NULL) {
 2341              		.loc 1 76 5 discriminator 1 view .LVU740
  76:lvgl/src/lv_widgets/lv_gauge.c ****     if(ext == NULL) {
 2342              		.loc 1 76 5 discriminator 1 view .LVU741
 2343 00b6 2A46     		mov	r2, r5
 2344 00b8 0023     		movs	r3, #0
 2345 00ba 2648     		ldr	r0, .L112+16
 2346 00bc FFF7FEFF 		bl	lv_debug_log_error
 2347              	.LVL254:
 2348              	.L98:
  76:lvgl/src/lv_widgets/lv_gauge.c ****     if(ext == NULL) {
 2349              		.loc 1 76 5 discriminator 2 view .LVU742
  76:lvgl/src/lv_widgets/lv_gauge.c ****     if(ext == NULL) {
 2350              		.loc 1 76 5 discriminator 2 view .LVU743
 2351 00c0 FEE7     		b	.L98
ARM GAS  D:\Temp\cc42SHz2.s 			page 72


 2352              	.L108:
  78:lvgl/src/lv_widgets/lv_gauge.c ****         return NULL;
 2353              		.loc 1 78 9 view .LVU744
 2354 00c2 2046     		mov	r0, r4
 2355 00c4 FFF7FEFF 		bl	lv_obj_del
 2356              	.LVL255:
  79:lvgl/src/lv_widgets/lv_gauge.c ****     }
 2357              		.loc 1 79 9 view .LVU745
  79:lvgl/src/lv_widgets/lv_gauge.c ****     }
 2358              		.loc 1 79 16 is_stmt 0 view .LVU746
 2359 00c8 0024     		movs	r4, #0
 2360              	.LVL256:
  79:lvgl/src/lv_widgets/lv_gauge.c ****     }
 2361              		.loc 1 79 16 view .LVU747
 2362 00ca 37E0     		b	.L93
 2363              	.LVL257:
 2364              	.L109:
  92:lvgl/src/lv_widgets/lv_gauge.c ****     if(ancestor_design == NULL) ancestor_design = lv_obj_get_design_cb(gauge);
 2365              		.loc 1 92 33 is_stmt 1 discriminator 1 view .LVU748
  92:lvgl/src/lv_widgets/lv_gauge.c ****     if(ancestor_design == NULL) ancestor_design = lv_obj_get_design_cb(gauge);
 2366              		.loc 1 92 51 is_stmt 0 discriminator 1 view .LVU749
 2367 00cc 2046     		mov	r0, r4
 2368 00ce FFF7FEFF 		bl	lv_obj_get_signal_cb
 2369              	.LVL258:
  92:lvgl/src/lv_widgets/lv_gauge.c ****     if(ancestor_design == NULL) ancestor_design = lv_obj_get_design_cb(gauge);
 2370              		.loc 1 92 49 discriminator 1 view .LVU750
 2371 00d2 1C4B     		ldr	r3, .L112
 2372 00d4 1860     		str	r0, [r3]
 2373 00d6 BBE7     		b	.L100
 2374              	.L110:
  93:lvgl/src/lv_widgets/lv_gauge.c **** 
 2375              		.loc 1 93 33 is_stmt 1 discriminator 1 view .LVU751
  93:lvgl/src/lv_widgets/lv_gauge.c **** 
 2376              		.loc 1 93 51 is_stmt 0 discriminator 1 view .LVU752
 2377 00d8 2046     		mov	r0, r4
 2378 00da FFF7FEFF 		bl	lv_obj_get_design_cb
 2379              	.LVL259:
  93:lvgl/src/lv_widgets/lv_gauge.c **** 
 2380              		.loc 1 93 49 discriminator 1 view .LVU753
 2381 00de 1A4B     		ldr	r3, .L112+4
 2382 00e0 1860     		str	r0, [r3]
 2383 00e2 B9E7     		b	.L101
 2384              	.L111:
 104:lvgl/src/lv_widgets/lv_gauge.c ****         lv_gauge_set_needle_count(gauge, 1, NULL);
 2385              		.loc 1 104 9 is_stmt 1 view .LVU754
 2386 00e4 0623     		movs	r3, #6
 2387 00e6 1522     		movs	r2, #21
 2388 00e8 4FF48771 		mov	r1, #270
 2389 00ec 2046     		mov	r0, r4
 2390 00ee FFF7FEFF 		bl	lv_gauge_set_scale
 2391              	.LVL260:
 105:lvgl/src/lv_widgets/lv_gauge.c ****         lv_gauge_set_critical_value(gauge, 80);
 2392              		.loc 1 105 9 view .LVU755
 2393 00f2 0022     		movs	r2, #0
 2394 00f4 0121     		movs	r1, #1
 2395 00f6 2046     		mov	r0, r4
 2396 00f8 FFF7FEFF 		bl	lv_gauge_set_needle_count
ARM GAS  D:\Temp\cc42SHz2.s 			page 73


 2397              	.LVL261:
 106:lvgl/src/lv_widgets/lv_gauge.c **** 
 2398              		.loc 1 106 9 view .LVU756
 2399              	.LBB115:
 2400              	.LBI115:
 113:lvgl/src/lv_widgets/lv_gauge.h **** {
 2401              		.loc 3 113 20 view .LVU757
 2402              	.LBB116:
 115:lvgl/src/lv_widgets/lv_gauge.h **** }
 2403              		.loc 3 115 5 view .LVU758
 2404 00fc 5021     		movs	r1, #80
 2405 00fe 2046     		mov	r0, r4
 2406 0100 FFF7FEFF 		bl	lv_linemeter_set_value
 2407              	.LVL262:
 115:lvgl/src/lv_widgets/lv_gauge.h **** }
 2408              		.loc 3 115 5 is_stmt 0 view .LVU759
 2409              	.LBE116:
 2410              	.LBE115:
 108:lvgl/src/lv_widgets/lv_gauge.c **** 
 2411              		.loc 1 108 9 is_stmt 1 view .LVU760
 2412 0104 0E21     		movs	r1, #14
 2413 0106 2046     		mov	r0, r4
 2414 0108 FFF7FEFF 		bl	lv_theme_apply
 2415              	.LVL263:
 2416 010c 16E0     		b	.L93
 2417              	.LVL264:
 2418              	.L104:
 2419              	.LBB117:
 121:lvgl/src/lv_widgets/lv_gauge.c ****         }
 2420              		.loc 1 121 13 discriminator 3 view .LVU761
 121:lvgl/src/lv_widgets/lv_gauge.c ****         }
 2421              		.loc 1 121 38 is_stmt 0 discriminator 3 view .LVU762
 2422 010e B169     		ldr	r1, [r6, #24]
 121:lvgl/src/lv_widgets/lv_gauge.c ****         }
 2423              		.loc 1 121 16 discriminator 3 view .LVU763
 2424 0110 AA69     		ldr	r2, [r5, #24]
 121:lvgl/src/lv_widgets/lv_gauge.c ****         }
 2425              		.loc 1 121 46 discriminator 3 view .LVU764
 2426 0112 51F82310 		ldr	r1, [r1, r3, lsl #2]
 121:lvgl/src/lv_widgets/lv_gauge.c ****         }
 2427              		.loc 1 121 28 discriminator 3 view .LVU765
 2428 0116 42F82310 		str	r1, [r2, r3, lsl #2]
 120:lvgl/src/lv_widgets/lv_gauge.c ****             ext->values[i] = copy_ext->values[i];
 2429              		.loc 1 120 44 discriminator 3 view .LVU766
 2430 011a 0133     		adds	r3, r3, #1
 2431              	.LVL265:
 120:lvgl/src/lv_widgets/lv_gauge.c ****             ext->values[i] = copy_ext->values[i];
 2432              		.loc 1 120 44 discriminator 3 view .LVU767
 2433 011c DBB2     		uxtb	r3, r3
 2434              	.LVL266:
 2435              	.L103:
 120:lvgl/src/lv_widgets/lv_gauge.c ****             ext->values[i] = copy_ext->values[i];
 2436              		.loc 1 120 27 discriminator 1 view .LVU768
 2437 011e 95F83820 		ldrb	r2, [r5, #56]	@ zero_extendqisi2
 120:lvgl/src/lv_widgets/lv_gauge.c ****             ext->values[i] = copy_ext->values[i];
 2438              		.loc 1 120 9 discriminator 1 view .LVU769
 2439 0122 9A42     		cmp	r2, r3
ARM GAS  D:\Temp\cc42SHz2.s 			page 74


 2440 0124 F3D8     		bhi	.L104
 123:lvgl/src/lv_widgets/lv_gauge.c ****         ext->format_cb   = copy_ext->format_cb;
 2441              		.loc 1 123 9 is_stmt 1 view .LVU770
 123:lvgl/src/lv_widgets/lv_gauge.c ****         ext->format_cb   = copy_ext->format_cb;
 2442              		.loc 1 123 36 is_stmt 0 view .LVU771
 2443 0126 96F83930 		ldrb	r3, [r6, #57]	@ zero_extendqisi2
 2444              	.LVL267:
 123:lvgl/src/lv_widgets/lv_gauge.c ****         ext->format_cb   = copy_ext->format_cb;
 2445              		.loc 1 123 26 view .LVU772
 2446 012a 85F83930 		strb	r3, [r5, #57]
 124:lvgl/src/lv_widgets/lv_gauge.c **** 
 2447              		.loc 1 124 9 is_stmt 1 view .LVU773
 124:lvgl/src/lv_widgets/lv_gauge.c **** 
 2448              		.loc 1 124 36 is_stmt 0 view .LVU774
 2449 012e F36B     		ldr	r3, [r6, #60]
 124:lvgl/src/lv_widgets/lv_gauge.c **** 
 2450              		.loc 1 124 26 view .LVU775
 2451 0130 EB63     		str	r3, [r5, #60]
 127:lvgl/src/lv_widgets/lv_gauge.c ****     }
 2452              		.loc 1 127 9 is_stmt 1 view .LVU776
 2453 0132 FF22     		movs	r2, #255
 2454 0134 1146     		mov	r1, r2
 2455 0136 2046     		mov	r0, r4
 2456 0138 FFF7FEFF 		bl	lv_obj_refresh_style
 2457              	.LVL268:
 2458              	.L93:
 127:lvgl/src/lv_widgets/lv_gauge.c ****     }
 2459              		.loc 1 127 9 is_stmt 0 view .LVU777
 2460              	.LBE117:
 133:lvgl/src/lv_widgets/lv_gauge.c **** 
 2461              		.loc 1 133 1 view .LVU778
 2462 013c 2046     		mov	r0, r4
 2463 013e BDE8F081 		pop	{r4, r5, r6, r7, r8, pc}
 2464              	.L113:
 2465 0142 00BF     		.align	2
 2466              	.L112:
 2467 0144 00000000 		.word	.LANCHOR1
 2468 0148 00000000 		.word	.LANCHOR0
 2469 014c 00000000 		.word	lv_gauge_signal
 2470 0150 00000000 		.word	lv_gauge_design
 2471 0154 00000000 		.word	.LC2
 2472              		.cfi_endproc
 2473              	.LFE470:
 2475              		.section	.text.lv_gauge_set_needle_img,"ax",%progbits
 2476              		.align	1
 2477              		.global	lv_gauge_set_needle_img
 2478              		.syntax unified
 2479              		.thumb
 2480              		.thumb_func
 2481              		.fpu fpv4-sp-d16
 2483              	lv_gauge_set_needle_img:
 2484              	.LVL269:
 2485              	.LFB474:
 275:lvgl/src/lv_widgets/lv_gauge.c ****     LV_ASSERT_OBJ(gauge, LV_OBJX_NAME);
 2486              		.loc 1 275 1 is_stmt 1 view -0
 2487              		.cfi_startproc
 2488              		@ args = 0, pretend = 0, frame = 0
ARM GAS  D:\Temp\cc42SHz2.s 			page 75


 2489              		@ frame_needed = 0, uses_anonymous_args = 0
 275:lvgl/src/lv_widgets/lv_gauge.c ****     LV_ASSERT_OBJ(gauge, LV_OBJX_NAME);
 2490              		.loc 1 275 1 is_stmt 0 view .LVU780
 2491 0000 F8B5     		push	{r3, r4, r5, r6, r7, lr}
 2492              	.LCFI17:
 2493              		.cfi_def_cfa_offset 24
 2494              		.cfi_offset 3, -24
 2495              		.cfi_offset 4, -20
 2496              		.cfi_offset 5, -16
 2497              		.cfi_offset 6, -12
 2498              		.cfi_offset 7, -8
 2499              		.cfi_offset 14, -4
 2500 0002 0446     		mov	r4, r0
 2501 0004 0F46     		mov	r7, r1
 2502 0006 1646     		mov	r6, r2
 2503 0008 1D46     		mov	r5, r3
 276:lvgl/src/lv_widgets/lv_gauge.c **** 
 2504              		.loc 1 276 5 is_stmt 1 view .LVU781
 276:lvgl/src/lv_widgets/lv_gauge.c **** 
 2505              		.loc 1 276 5 view .LVU782
 2506 000a FFF7FEFF 		bl	lv_debug_check_null
 2507              	.LVL270:
 276:lvgl/src/lv_widgets/lv_gauge.c **** 
 2508              		.loc 1 276 5 is_stmt 0 view .LVU783
 2509 000e 28B9     		cbnz	r0, .L115
 276:lvgl/src/lv_widgets/lv_gauge.c **** 
 2510              		.loc 1 276 5 is_stmt 1 discriminator 1 view .LVU784
 276:lvgl/src/lv_widgets/lv_gauge.c **** 
 2511              		.loc 1 276 5 discriminator 1 view .LVU785
 2512 0010 2246     		mov	r2, r4
 2513 0012 0023     		movs	r3, #0
 2514 0014 0648     		ldr	r0, .L118
 2515 0016 FFF7FEFF 		bl	lv_debug_log_error
 2516              	.LVL271:
 2517              	.L116:
 276:lvgl/src/lv_widgets/lv_gauge.c **** 
 2518              		.loc 1 276 5 discriminator 1 view .LVU786
 276:lvgl/src/lv_widgets/lv_gauge.c **** 
 2519              		.loc 1 276 5 discriminator 1 view .LVU787
 2520 001a FEE7     		b	.L116
 2521              	.L115:
 276:lvgl/src/lv_widgets/lv_gauge.c **** 
 2522              		.loc 1 276 39 discriminator 2 view .LVU788
 278:lvgl/src/lv_widgets/lv_gauge.c **** 
 2523              		.loc 1 278 5 discriminator 2 view .LVU789
 278:lvgl/src/lv_widgets/lv_gauge.c **** 
 2524              		.loc 1 278 28 is_stmt 0 discriminator 2 view .LVU790
 2525 001c 2046     		mov	r0, r4
