ARM GAS  D:\Temp\ccdlqfAs.s 			page 1


   1              		.cpu cortex-m4
   2              		.eabi_attribute 27, 1
   3              		.eabi_attribute 28, 1
   4              		.eabi_attribute 20, 1
   5              		.eabi_attribute 21, 1
   6              		.eabi_attribute 23, 3
   7              		.eabi_attribute 24, 1
   8              		.eabi_attribute 25, 1
   9              		.eabi_attribute 26, 1
  10              		.eabi_attribute 30, 1
  11              		.eabi_attribute 34, 1
  12              		.eabi_attribute 18, 4
  13              		.file	"lv_img.c"
  14              		.text
  15              	.Ltext0:
  16              		.cfi_sections	.debug_frame
  17              		.section	.text.lv_img_get_style,"ax",%progbits
  18              		.align	1
  19              		.arch armv7e-m
  20              		.syntax unified
  21              		.thumb
  22              		.thumb_func
  23              		.fpu fpv4-sp-d16
  25              	lv_img_get_style:
  26              	.LVL0:
  27              	.LFB478:
  28              		.file 1 "lvgl/src/lv_widgets/lv_img.c"
   1:lvgl/src/lv_widgets/lv_img.c **** /**
   2:lvgl/src/lv_widgets/lv_img.c ****  * @file lv_img.c
   3:lvgl/src/lv_widgets/lv_img.c ****  *
   4:lvgl/src/lv_widgets/lv_img.c ****  */
   5:lvgl/src/lv_widgets/lv_img.c **** 
   6:lvgl/src/lv_widgets/lv_img.c **** /*********************
   7:lvgl/src/lv_widgets/lv_img.c ****  *      INCLUDES
   8:lvgl/src/lv_widgets/lv_img.c ****  *********************/
   9:lvgl/src/lv_widgets/lv_img.c **** #include "lv_img.h"
  10:lvgl/src/lv_widgets/lv_img.c **** #if LV_USE_IMG != 0
  11:lvgl/src/lv_widgets/lv_img.c **** 
  12:lvgl/src/lv_widgets/lv_img.c **** /*Testing of dependencies*/
  13:lvgl/src/lv_widgets/lv_img.c **** #if LV_USE_LABEL == 0
  14:lvgl/src/lv_widgets/lv_img.c ****     #error "lv_img: lv_label is required. Enable it in lv_conf.h (LV_USE_LABEL 1)"
  15:lvgl/src/lv_widgets/lv_img.c **** #endif
  16:lvgl/src/lv_widgets/lv_img.c **** 
  17:lvgl/src/lv_widgets/lv_img.c **** #include "../lv_misc/lv_debug.h"
  18:lvgl/src/lv_widgets/lv_img.c **** #include "../lv_themes/lv_theme.h"
  19:lvgl/src/lv_widgets/lv_img.c **** #include "../lv_draw/lv_img_decoder.h"
  20:lvgl/src/lv_widgets/lv_img.c **** #include "../lv_misc/lv_fs.h"
  21:lvgl/src/lv_widgets/lv_img.c **** #include "../lv_misc/lv_txt.h"
  22:lvgl/src/lv_widgets/lv_img.c **** #include "../lv_misc/lv_math.h"
  23:lvgl/src/lv_widgets/lv_img.c **** #include "../lv_misc/lv_log.h"
  24:lvgl/src/lv_widgets/lv_img.c **** 
  25:lvgl/src/lv_widgets/lv_img.c **** /*********************
  26:lvgl/src/lv_widgets/lv_img.c ****  *      DEFINES
  27:lvgl/src/lv_widgets/lv_img.c ****  *********************/
  28:lvgl/src/lv_widgets/lv_img.c **** #define LV_OBJX_NAME "lv_img"
  29:lvgl/src/lv_widgets/lv_img.c **** 
  30:lvgl/src/lv_widgets/lv_img.c **** /**********************
ARM GAS  D:\Temp\ccdlqfAs.s 			page 2


  31:lvgl/src/lv_widgets/lv_img.c ****  *      TYPEDEFS
  32:lvgl/src/lv_widgets/lv_img.c ****  **********************/
  33:lvgl/src/lv_widgets/lv_img.c **** 
  34:lvgl/src/lv_widgets/lv_img.c **** /**********************
  35:lvgl/src/lv_widgets/lv_img.c ****  *  STATIC PROTOTYPES
  36:lvgl/src/lv_widgets/lv_img.c ****  **********************/
  37:lvgl/src/lv_widgets/lv_img.c **** static lv_design_res_t lv_img_design(lv_obj_t * img, const lv_area_t * clip_area, lv_design_mode_t 
  38:lvgl/src/lv_widgets/lv_img.c **** static lv_res_t lv_img_signal(lv_obj_t * img, lv_signal_t sign, void * param);
  39:lvgl/src/lv_widgets/lv_img.c **** static lv_style_list_t * lv_img_get_style(lv_obj_t * img, uint8_t type);
  40:lvgl/src/lv_widgets/lv_img.c **** 
  41:lvgl/src/lv_widgets/lv_img.c **** /**********************
  42:lvgl/src/lv_widgets/lv_img.c ****  *  STATIC VARIABLES
  43:lvgl/src/lv_widgets/lv_img.c ****  **********************/
  44:lvgl/src/lv_widgets/lv_img.c **** static lv_signal_cb_t ancestor_signal;
  45:lvgl/src/lv_widgets/lv_img.c **** 
  46:lvgl/src/lv_widgets/lv_img.c **** /**********************
  47:lvgl/src/lv_widgets/lv_img.c ****  *      MACROS
  48:lvgl/src/lv_widgets/lv_img.c ****  **********************/
  49:lvgl/src/lv_widgets/lv_img.c **** 
  50:lvgl/src/lv_widgets/lv_img.c **** /**********************
  51:lvgl/src/lv_widgets/lv_img.c ****  *   GLOBAL FUNCTIONS
  52:lvgl/src/lv_widgets/lv_img.c ****  **********************/
  53:lvgl/src/lv_widgets/lv_img.c **** 
  54:lvgl/src/lv_widgets/lv_img.c **** /**
  55:lvgl/src/lv_widgets/lv_img.c ****  * Create an image objects
  56:lvgl/src/lv_widgets/lv_img.c ****  * @param par pointer to an object, it will be the parent of the new button
  57:lvgl/src/lv_widgets/lv_img.c ****  * @param copy pointer to a image object, if not NULL then the new object will be copied from it
  58:lvgl/src/lv_widgets/lv_img.c ****  * @return pointer to the created image
  59:lvgl/src/lv_widgets/lv_img.c ****  */
  60:lvgl/src/lv_widgets/lv_img.c **** lv_obj_t * lv_img_create(lv_obj_t * par, const lv_obj_t * copy)
  61:lvgl/src/lv_widgets/lv_img.c **** {
  62:lvgl/src/lv_widgets/lv_img.c ****     LV_LOG_TRACE("image create started");
  63:lvgl/src/lv_widgets/lv_img.c **** 
  64:lvgl/src/lv_widgets/lv_img.c ****     /*Create a basic object*/
  65:lvgl/src/lv_widgets/lv_img.c ****     lv_obj_t * img = lv_obj_create(par, copy);
  66:lvgl/src/lv_widgets/lv_img.c ****     LV_ASSERT_MEM(img);
  67:lvgl/src/lv_widgets/lv_img.c ****     if(img == NULL) return NULL;
  68:lvgl/src/lv_widgets/lv_img.c **** 
  69:lvgl/src/lv_widgets/lv_img.c ****     if(ancestor_signal == NULL) ancestor_signal = lv_obj_get_signal_cb(img);
  70:lvgl/src/lv_widgets/lv_img.c **** 
  71:lvgl/src/lv_widgets/lv_img.c ****     /*Extend the basic object to image object*/
  72:lvgl/src/lv_widgets/lv_img.c ****     lv_img_ext_t * ext = lv_obj_allocate_ext_attr(img, sizeof(lv_img_ext_t));
  73:lvgl/src/lv_widgets/lv_img.c ****     LV_ASSERT_MEM(ext);
  74:lvgl/src/lv_widgets/lv_img.c ****     if(ext == NULL) {
  75:lvgl/src/lv_widgets/lv_img.c ****         lv_obj_del(img);
  76:lvgl/src/lv_widgets/lv_img.c ****         return NULL;
  77:lvgl/src/lv_widgets/lv_img.c ****     }
  78:lvgl/src/lv_widgets/lv_img.c **** 
  79:lvgl/src/lv_widgets/lv_img.c ****     ext->src       = NULL;
  80:lvgl/src/lv_widgets/lv_img.c ****     ext->src_type  = LV_IMG_SRC_UNKNOWN;
  81:lvgl/src/lv_widgets/lv_img.c ****     ext->cf        = LV_IMG_CF_UNKNOWN;
  82:lvgl/src/lv_widgets/lv_img.c ****     ext->w         = lv_obj_get_width(img);
  83:lvgl/src/lv_widgets/lv_img.c ****     ext->h         = lv_obj_get_height(img);
  84:lvgl/src/lv_widgets/lv_img.c ****     ext->angle = 0;
  85:lvgl/src/lv_widgets/lv_img.c ****     ext->zoom = LV_IMG_ZOOM_NONE;
  86:lvgl/src/lv_widgets/lv_img.c ****     ext->antialias = LV_ANTIALIAS ? 1 : 0;
  87:lvgl/src/lv_widgets/lv_img.c ****     ext->auto_size = 1;
ARM GAS  D:\Temp\ccdlqfAs.s 			page 3


  88:lvgl/src/lv_widgets/lv_img.c ****     ext->offset.x  = 0;
  89:lvgl/src/lv_widgets/lv_img.c ****     ext->offset.y  = 0;
  90:lvgl/src/lv_widgets/lv_img.c ****     ext->pivot.x = 0;
  91:lvgl/src/lv_widgets/lv_img.c ****     ext->pivot.y = 0;
  92:lvgl/src/lv_widgets/lv_img.c **** 
  93:lvgl/src/lv_widgets/lv_img.c ****     /*Init the new object*/
  94:lvgl/src/lv_widgets/lv_img.c ****     lv_obj_set_signal_cb(img, lv_img_signal);
  95:lvgl/src/lv_widgets/lv_img.c ****     lv_obj_set_design_cb(img, lv_img_design);
  96:lvgl/src/lv_widgets/lv_img.c **** 
  97:lvgl/src/lv_widgets/lv_img.c ****     if(copy == NULL) {
  98:lvgl/src/lv_widgets/lv_img.c ****         lv_theme_apply(img, LV_THEME_IMAGE);
  99:lvgl/src/lv_widgets/lv_img.c ****         lv_obj_set_click(img, false);
 100:lvgl/src/lv_widgets/lv_img.c ****         lv_obj_set_adv_hittest(img, true); /*Images have fast hit-testing*/
 101:lvgl/src/lv_widgets/lv_img.c ****         /* Enable auto size for non screens
 102:lvgl/src/lv_widgets/lv_img.c ****          * because image screens are wallpapers
 103:lvgl/src/lv_widgets/lv_img.c ****          * and must be screen sized*/
 104:lvgl/src/lv_widgets/lv_img.c ****         if(par != NULL) {
 105:lvgl/src/lv_widgets/lv_img.c ****             ext->auto_size = 1;
 106:lvgl/src/lv_widgets/lv_img.c ****         }
 107:lvgl/src/lv_widgets/lv_img.c ****         else {
 108:lvgl/src/lv_widgets/lv_img.c ****             ext->auto_size = 0;
 109:lvgl/src/lv_widgets/lv_img.c ****         }
 110:lvgl/src/lv_widgets/lv_img.c ****     }
 111:lvgl/src/lv_widgets/lv_img.c ****     else {
 112:lvgl/src/lv_widgets/lv_img.c ****         lv_img_ext_t * copy_ext = lv_obj_get_ext_attr(copy);
 113:lvgl/src/lv_widgets/lv_img.c ****         ext->auto_size     = copy_ext->auto_size;
 114:lvgl/src/lv_widgets/lv_img.c ****         ext->zoom          = copy_ext->zoom;
 115:lvgl/src/lv_widgets/lv_img.c ****         ext->angle         = copy_ext->angle;
 116:lvgl/src/lv_widgets/lv_img.c ****         ext->antialias     = copy_ext->antialias;
 117:lvgl/src/lv_widgets/lv_img.c ****         ext->offset.x     = copy_ext->offset.x;
 118:lvgl/src/lv_widgets/lv_img.c ****         ext->offset.y     = copy_ext->offset.y;
 119:lvgl/src/lv_widgets/lv_img.c ****         ext->pivot.x     = copy_ext->pivot.x;
 120:lvgl/src/lv_widgets/lv_img.c ****         ext->pivot.y     = copy_ext->pivot.y;
 121:lvgl/src/lv_widgets/lv_img.c ****         lv_img_set_src(img, copy_ext->src);
 122:lvgl/src/lv_widgets/lv_img.c **** 
 123:lvgl/src/lv_widgets/lv_img.c ****         /*Refresh the style with new signal function*/
 124:lvgl/src/lv_widgets/lv_img.c ****         lv_obj_refresh_style(img, LV_OBJ_PART_ALL, LV_STYLE_PROP_ALL);
 125:lvgl/src/lv_widgets/lv_img.c ****     }
 126:lvgl/src/lv_widgets/lv_img.c **** 
 127:lvgl/src/lv_widgets/lv_img.c ****     LV_LOG_INFO("image created");
 128:lvgl/src/lv_widgets/lv_img.c **** 
 129:lvgl/src/lv_widgets/lv_img.c ****     return img;
 130:lvgl/src/lv_widgets/lv_img.c **** }
 131:lvgl/src/lv_widgets/lv_img.c **** 
 132:lvgl/src/lv_widgets/lv_img.c **** /*=====================
 133:lvgl/src/lv_widgets/lv_img.c ****  * Setter functions
 134:lvgl/src/lv_widgets/lv_img.c ****  *====================*/
 135:lvgl/src/lv_widgets/lv_img.c **** 
 136:lvgl/src/lv_widgets/lv_img.c **** /**
 137:lvgl/src/lv_widgets/lv_img.c ****  * Set the pixel map to display by the image
 138:lvgl/src/lv_widgets/lv_img.c ****  * @param img pointer to an image object
 139:lvgl/src/lv_widgets/lv_img.c ****  * @param data the image data
 140:lvgl/src/lv_widgets/lv_img.c ****  */
 141:lvgl/src/lv_widgets/lv_img.c **** void lv_img_set_src(lv_obj_t * img, const void * src_img)
 142:lvgl/src/lv_widgets/lv_img.c **** {
 143:lvgl/src/lv_widgets/lv_img.c ****     LV_ASSERT_OBJ(img, LV_OBJX_NAME);
 144:lvgl/src/lv_widgets/lv_img.c **** 
ARM GAS  D:\Temp\ccdlqfAs.s 			page 4


 145:lvgl/src/lv_widgets/lv_img.c ****     lv_img_src_t src_type = lv_img_src_get_type(src_img);
 146:lvgl/src/lv_widgets/lv_img.c ****     lv_img_ext_t * ext    = lv_obj_get_ext_attr(img);
 147:lvgl/src/lv_widgets/lv_img.c **** 
 148:lvgl/src/lv_widgets/lv_img.c **** #if LV_USE_LOG && LV_LOG_LEVEL >= LV_LOG_LEVEL_INFO
 149:lvgl/src/lv_widgets/lv_img.c ****     switch(src_type) {
 150:lvgl/src/lv_widgets/lv_img.c ****         case LV_IMG_SRC_FILE:
 151:lvgl/src/lv_widgets/lv_img.c ****             LV_LOG_TRACE("lv_img_set_src: `LV_IMG_SRC_FILE` type found");
 152:lvgl/src/lv_widgets/lv_img.c ****             break;
 153:lvgl/src/lv_widgets/lv_img.c ****         case LV_IMG_SRC_VARIABLE:
 154:lvgl/src/lv_widgets/lv_img.c ****             LV_LOG_TRACE("lv_img_set_src: `LV_IMG_SRC_VARIABLE` type found");
 155:lvgl/src/lv_widgets/lv_img.c ****             break;
 156:lvgl/src/lv_widgets/lv_img.c ****         case LV_IMG_SRC_SYMBOL:
 157:lvgl/src/lv_widgets/lv_img.c ****             LV_LOG_TRACE("lv_img_set_src: `LV_IMG_SRC_SYMBOL` type found");
 158:lvgl/src/lv_widgets/lv_img.c ****             break;
 159:lvgl/src/lv_widgets/lv_img.c ****         default:
 160:lvgl/src/lv_widgets/lv_img.c ****             LV_LOG_WARN("lv_img_set_src: unknown type");
 161:lvgl/src/lv_widgets/lv_img.c ****     }
 162:lvgl/src/lv_widgets/lv_img.c **** #endif
 163:lvgl/src/lv_widgets/lv_img.c **** 
 164:lvgl/src/lv_widgets/lv_img.c ****     /*If the new source type is unknown free the memories of the old source*/
 165:lvgl/src/lv_widgets/lv_img.c ****     if(src_type == LV_IMG_SRC_UNKNOWN) {
 166:lvgl/src/lv_widgets/lv_img.c ****         LV_LOG_WARN("lv_img_set_src: unknown image type");
 167:lvgl/src/lv_widgets/lv_img.c ****         if(ext->src_type == LV_IMG_SRC_SYMBOL || ext->src_type == LV_IMG_SRC_FILE) {
 168:lvgl/src/lv_widgets/lv_img.c ****             lv_mem_free(ext->src);
 169:lvgl/src/lv_widgets/lv_img.c ****         }
 170:lvgl/src/lv_widgets/lv_img.c ****         ext->src      = NULL;
 171:lvgl/src/lv_widgets/lv_img.c ****         ext->src_type = LV_IMG_SRC_UNKNOWN;
 172:lvgl/src/lv_widgets/lv_img.c ****         return;
 173:lvgl/src/lv_widgets/lv_img.c ****     }
 174:lvgl/src/lv_widgets/lv_img.c **** 
 175:lvgl/src/lv_widgets/lv_img.c ****     lv_img_header_t header;
 176:lvgl/src/lv_widgets/lv_img.c ****     lv_img_decoder_get_info(src_img, &header);
 177:lvgl/src/lv_widgets/lv_img.c **** 
 178:lvgl/src/lv_widgets/lv_img.c ****     /*Save the source*/
 179:lvgl/src/lv_widgets/lv_img.c ****     if(src_type == LV_IMG_SRC_VARIABLE) {
 180:lvgl/src/lv_widgets/lv_img.c ****         LV_LOG_INFO("lv_img_set_src:  `LV_IMG_SRC_VARIABLE` type found");
 181:lvgl/src/lv_widgets/lv_img.c **** 
 182:lvgl/src/lv_widgets/lv_img.c ****         /*If memory was allocated because of the previous `src_type` then free it*/
 183:lvgl/src/lv_widgets/lv_img.c ****         if(ext->src_type == LV_IMG_SRC_FILE || ext->src_type == LV_IMG_SRC_SYMBOL) {
 184:lvgl/src/lv_widgets/lv_img.c ****             lv_mem_free(ext->src);
 185:lvgl/src/lv_widgets/lv_img.c ****         }
 186:lvgl/src/lv_widgets/lv_img.c ****         ext->src = src_img;
 187:lvgl/src/lv_widgets/lv_img.c ****     }
 188:lvgl/src/lv_widgets/lv_img.c ****     else if(src_type == LV_IMG_SRC_FILE || src_type == LV_IMG_SRC_SYMBOL) {
 189:lvgl/src/lv_widgets/lv_img.c ****         /* If the new and the old src are the same then it was only a refresh.*/
 190:lvgl/src/lv_widgets/lv_img.c ****         if(ext->src != src_img) {
 191:lvgl/src/lv_widgets/lv_img.c ****             const void * old_src = NULL;
 192:lvgl/src/lv_widgets/lv_img.c ****             /* If memory was allocated because of the previous `src_type` then save its pointer and
 193:lvgl/src/lv_widgets/lv_img.c ****              * It's important to allocate first to be sure the new data will be on a new address.
 194:lvgl/src/lv_widgets/lv_img.c ****              * Else `img_cache` wouldn't see the change in source.*/
 195:lvgl/src/lv_widgets/lv_img.c ****             if(ext->src_type == LV_IMG_SRC_FILE || ext->src_type == LV_IMG_SRC_SYMBOL) {
 196:lvgl/src/lv_widgets/lv_img.c ****                 old_src = ext->src;
 197:lvgl/src/lv_widgets/lv_img.c ****             }
 198:lvgl/src/lv_widgets/lv_img.c ****             char * new_str = lv_mem_alloc(strlen(src_img) + 1);
 199:lvgl/src/lv_widgets/lv_img.c ****             LV_ASSERT_MEM(new_str);
 200:lvgl/src/lv_widgets/lv_img.c ****             if(new_str == NULL) return;
 201:lvgl/src/lv_widgets/lv_img.c ****             strcpy(new_str, src_img);
ARM GAS  D:\Temp\ccdlqfAs.s 			page 5


 202:lvgl/src/lv_widgets/lv_img.c ****             ext->src = new_str;
 203:lvgl/src/lv_widgets/lv_img.c **** 
 204:lvgl/src/lv_widgets/lv_img.c ****             if(old_src) lv_mem_free(old_src);
 205:lvgl/src/lv_widgets/lv_img.c ****         }
 206:lvgl/src/lv_widgets/lv_img.c ****     }
 207:lvgl/src/lv_widgets/lv_img.c **** 
 208:lvgl/src/lv_widgets/lv_img.c ****     if(src_type == LV_IMG_SRC_SYMBOL) {
 209:lvgl/src/lv_widgets/lv_img.c ****         /*`lv_img_dsc_get_info` couldn't set the with and height of a font so set it here*/
 210:lvgl/src/lv_widgets/lv_img.c ****         const lv_font_t * font = lv_obj_get_style_text_font(img, LV_IMG_PART_MAIN);
 211:lvgl/src/lv_widgets/lv_img.c ****         lv_style_int_t letter_space = lv_obj_get_style_text_letter_space(img, LV_IMG_PART_MAIN);
 212:lvgl/src/lv_widgets/lv_img.c ****         lv_style_int_t line_space = lv_obj_get_style_text_line_space(img, LV_IMG_PART_MAIN);
 213:lvgl/src/lv_widgets/lv_img.c ****         lv_point_t size;
 214:lvgl/src/lv_widgets/lv_img.c ****         _lv_txt_get_size(&size, src_img, font, letter_space, line_space,
 215:lvgl/src/lv_widgets/lv_img.c ****                          LV_COORD_MAX, LV_TXT_FLAG_NONE);
 216:lvgl/src/lv_widgets/lv_img.c ****         header.w = size.x;
 217:lvgl/src/lv_widgets/lv_img.c ****         header.h = size.y;
 218:lvgl/src/lv_widgets/lv_img.c ****     }
 219:lvgl/src/lv_widgets/lv_img.c **** 
 220:lvgl/src/lv_widgets/lv_img.c ****     ext->src_type = src_type;
 221:lvgl/src/lv_widgets/lv_img.c ****     ext->w        = header.w;
 222:lvgl/src/lv_widgets/lv_img.c ****     ext->h        = header.h;
 223:lvgl/src/lv_widgets/lv_img.c ****     ext->cf       = header.cf;
 224:lvgl/src/lv_widgets/lv_img.c ****     ext->pivot.x = header.w / 2;
 225:lvgl/src/lv_widgets/lv_img.c ****     ext->pivot.y = header.h / 2;
 226:lvgl/src/lv_widgets/lv_img.c **** 
 227:lvgl/src/lv_widgets/lv_img.c ****     if(lv_img_get_auto_size(img) != false) {
 228:lvgl/src/lv_widgets/lv_img.c ****         lv_obj_set_size(img, ext->w, ext->h);
 229:lvgl/src/lv_widgets/lv_img.c ****     }
 230:lvgl/src/lv_widgets/lv_img.c **** 
 231:lvgl/src/lv_widgets/lv_img.c ****     /*Provide enough room for the rotated corners*/
 232:lvgl/src/lv_widgets/lv_img.c ****     if(ext->angle || ext->zoom != LV_IMG_ZOOM_NONE) lv_obj_refresh_ext_draw_pad(img);
 233:lvgl/src/lv_widgets/lv_img.c **** 
 234:lvgl/src/lv_widgets/lv_img.c ****     lv_obj_invalidate(img);
 235:lvgl/src/lv_widgets/lv_img.c **** }
 236:lvgl/src/lv_widgets/lv_img.c **** 
 237:lvgl/src/lv_widgets/lv_img.c **** /**
 238:lvgl/src/lv_widgets/lv_img.c ****  * Enable the auto size feature.
 239:lvgl/src/lv_widgets/lv_img.c ****  * If enabled the object size will be same as the picture size.
 240:lvgl/src/lv_widgets/lv_img.c ****  * @param img pointer to an image
 241:lvgl/src/lv_widgets/lv_img.c ****  * @param en true: auto size enable, false: auto size disable
 242:lvgl/src/lv_widgets/lv_img.c ****  */
 243:lvgl/src/lv_widgets/lv_img.c **** void lv_img_set_auto_size(lv_obj_t * img, bool en)
 244:lvgl/src/lv_widgets/lv_img.c **** {
 245:lvgl/src/lv_widgets/lv_img.c ****     LV_ASSERT_OBJ(img, LV_OBJX_NAME);
 246:lvgl/src/lv_widgets/lv_img.c **** 
 247:lvgl/src/lv_widgets/lv_img.c ****     lv_img_ext_t * ext = lv_obj_get_ext_attr(img);
 248:lvgl/src/lv_widgets/lv_img.c **** 
 249:lvgl/src/lv_widgets/lv_img.c ****     ext->auto_size = (en == false ? 0 : 1);
 250:lvgl/src/lv_widgets/lv_img.c **** }
 251:lvgl/src/lv_widgets/lv_img.c **** 
 252:lvgl/src/lv_widgets/lv_img.c **** /**
 253:lvgl/src/lv_widgets/lv_img.c ****  * Set an offset for the source of an image.
 254:lvgl/src/lv_widgets/lv_img.c ****  * so the image will be displayed from the new origin.
 255:lvgl/src/lv_widgets/lv_img.c ****  * @param img pointer to an image
 256:lvgl/src/lv_widgets/lv_img.c ****  * @param x: the new offset along x axis.
 257:lvgl/src/lv_widgets/lv_img.c ****  */
 258:lvgl/src/lv_widgets/lv_img.c **** void lv_img_set_offset_x(lv_obj_t * img, lv_coord_t x)
ARM GAS  D:\Temp\ccdlqfAs.s 			page 6


 259:lvgl/src/lv_widgets/lv_img.c **** {
 260:lvgl/src/lv_widgets/lv_img.c ****     LV_ASSERT_OBJ(img, LV_OBJX_NAME);
 261:lvgl/src/lv_widgets/lv_img.c **** 
 262:lvgl/src/lv_widgets/lv_img.c ****     lv_img_ext_t * ext = lv_obj_get_ext_attr(img);
 263:lvgl/src/lv_widgets/lv_img.c **** 
 264:lvgl/src/lv_widgets/lv_img.c ****     x = x % ext->w;
 265:lvgl/src/lv_widgets/lv_img.c **** 
 266:lvgl/src/lv_widgets/lv_img.c ****     ext->offset.x = x;
 267:lvgl/src/lv_widgets/lv_img.c ****     lv_obj_invalidate(img);
 268:lvgl/src/lv_widgets/lv_img.c **** }
 269:lvgl/src/lv_widgets/lv_img.c **** 
 270:lvgl/src/lv_widgets/lv_img.c **** /**
 271:lvgl/src/lv_widgets/lv_img.c ****  * Set an offset for the source of an image.
 272:lvgl/src/lv_widgets/lv_img.c ****  * so the image will be displayed from the new origin.
 273:lvgl/src/lv_widgets/lv_img.c ****  * @param img pointer to an image
 274:lvgl/src/lv_widgets/lv_img.c ****  * @param y: the new offset along y axis.
 275:lvgl/src/lv_widgets/lv_img.c ****  */
 276:lvgl/src/lv_widgets/lv_img.c **** void lv_img_set_offset_y(lv_obj_t * img, lv_coord_t y)
 277:lvgl/src/lv_widgets/lv_img.c **** {
 278:lvgl/src/lv_widgets/lv_img.c ****     LV_ASSERT_OBJ(img, LV_OBJX_NAME);
 279:lvgl/src/lv_widgets/lv_img.c **** 
 280:lvgl/src/lv_widgets/lv_img.c ****     lv_img_ext_t * ext = lv_obj_get_ext_attr(img);
 281:lvgl/src/lv_widgets/lv_img.c **** 
 282:lvgl/src/lv_widgets/lv_img.c ****     y = y % ext->h;
 283:lvgl/src/lv_widgets/lv_img.c **** 
 284:lvgl/src/lv_widgets/lv_img.c ****     ext->offset.y = y;
 285:lvgl/src/lv_widgets/lv_img.c ****     lv_obj_invalidate(img);
 286:lvgl/src/lv_widgets/lv_img.c **** }
 287:lvgl/src/lv_widgets/lv_img.c **** 
 288:lvgl/src/lv_widgets/lv_img.c **** /**
 289:lvgl/src/lv_widgets/lv_img.c ****  * Set the rotation center of the image.
 290:lvgl/src/lv_widgets/lv_img.c ****  * The image will be rotated around this point
 291:lvgl/src/lv_widgets/lv_img.c ****  * @param img pointer to an image object
 292:lvgl/src/lv_widgets/lv_img.c ****  * @param pivot_x rotation center x of the image
 293:lvgl/src/lv_widgets/lv_img.c ****  * @param pivot_y rotation center y of the image
 294:lvgl/src/lv_widgets/lv_img.c ****  */
 295:lvgl/src/lv_widgets/lv_img.c **** void lv_img_set_pivot(lv_obj_t * img, lv_coord_t pivot_x, lv_coord_t pivot_y)
 296:lvgl/src/lv_widgets/lv_img.c **** {
 297:lvgl/src/lv_widgets/lv_img.c ****     lv_img_ext_t * ext = lv_obj_get_ext_attr(img);
 298:lvgl/src/lv_widgets/lv_img.c ****     if(ext->pivot.x == pivot_x && ext->pivot.y == pivot_y) return;
 299:lvgl/src/lv_widgets/lv_img.c **** 
 300:lvgl/src/lv_widgets/lv_img.c ****     lv_style_int_t transf_zoom = lv_obj_get_style_transform_zoom(img, LV_IMG_PART_MAIN);
 301:lvgl/src/lv_widgets/lv_img.c ****     transf_zoom = (transf_zoom * ext->zoom) >> 8;
 302:lvgl/src/lv_widgets/lv_img.c **** 
 303:lvgl/src/lv_widgets/lv_img.c ****     lv_style_int_t transf_angle = lv_obj_get_style_transform_angle(img, LV_IMG_PART_MAIN);
 304:lvgl/src/lv_widgets/lv_img.c ****     transf_angle += ext->angle;
 305:lvgl/src/lv_widgets/lv_img.c **** 
 306:lvgl/src/lv_widgets/lv_img.c ****     lv_coord_t w = lv_obj_get_width(img);
 307:lvgl/src/lv_widgets/lv_img.c ****     lv_coord_t h = lv_obj_get_height(img);
 308:lvgl/src/lv_widgets/lv_img.c ****     lv_area_t a;
 309:lvgl/src/lv_widgets/lv_img.c ****     _lv_img_buf_get_transformed_area(&a, w, h, transf_angle, transf_zoom, &ext->pivot);
 310:lvgl/src/lv_widgets/lv_img.c ****     a.x1 += img->coords.x1;
 311:lvgl/src/lv_widgets/lv_img.c ****     a.y1 += img->coords.y1;
 312:lvgl/src/lv_widgets/lv_img.c ****     a.x2 += img->coords.x1;
 313:lvgl/src/lv_widgets/lv_img.c ****     a.y2 += img->coords.y1;
 314:lvgl/src/lv_widgets/lv_img.c ****     lv_obj_invalidate_area(img, &a);
 315:lvgl/src/lv_widgets/lv_img.c **** 
ARM GAS  D:\Temp\ccdlqfAs.s 			page 7


 316:lvgl/src/lv_widgets/lv_img.c ****     ext->pivot.x = pivot_x;
 317:lvgl/src/lv_widgets/lv_img.c ****     ext->pivot.y = pivot_y;
 318:lvgl/src/lv_widgets/lv_img.c ****     lv_obj_refresh_ext_draw_pad(img);
 319:lvgl/src/lv_widgets/lv_img.c **** 
 320:lvgl/src/lv_widgets/lv_img.c ****     _lv_img_buf_get_transformed_area(&a, w, h, transf_angle, transf_zoom, &ext->pivot);
 321:lvgl/src/lv_widgets/lv_img.c ****     a.x1 += img->coords.x1;
 322:lvgl/src/lv_widgets/lv_img.c ****     a.y1 += img->coords.y1;
 323:lvgl/src/lv_widgets/lv_img.c ****     a.x2 += img->coords.x1;
 324:lvgl/src/lv_widgets/lv_img.c ****     a.y2 += img->coords.y1;
 325:lvgl/src/lv_widgets/lv_img.c ****     lv_obj_invalidate_area(img, &a);
 326:lvgl/src/lv_widgets/lv_img.c **** }
 327:lvgl/src/lv_widgets/lv_img.c **** 
 328:lvgl/src/lv_widgets/lv_img.c **** /**
 329:lvgl/src/lv_widgets/lv_img.c ****  * Set the rotation angle of the image.
 330:lvgl/src/lv_widgets/lv_img.c ****  * The image will be rotated around the set pivot set by `lv_img_set_pivot()`
 331:lvgl/src/lv_widgets/lv_img.c ****  * @param img pointer to an image object
 332:lvgl/src/lv_widgets/lv_img.c ****  * @param angle rotation angle in degree with 0.1 degree resolution (0..3600: clock wise)
 333:lvgl/src/lv_widgets/lv_img.c ****  */
 334:lvgl/src/lv_widgets/lv_img.c **** void lv_img_set_angle(lv_obj_t * img, int16_t angle)
 335:lvgl/src/lv_widgets/lv_img.c **** {
 336:lvgl/src/lv_widgets/lv_img.c ****     if(angle < 0 || angle >= 3600) angle = angle % 3600;
 337:lvgl/src/lv_widgets/lv_img.c **** 
 338:lvgl/src/lv_widgets/lv_img.c ****     lv_img_ext_t * ext = lv_obj_get_ext_attr(img);
 339:lvgl/src/lv_widgets/lv_img.c ****     if(angle == ext->angle) return;
 340:lvgl/src/lv_widgets/lv_img.c **** 
 341:lvgl/src/lv_widgets/lv_img.c ****     lv_style_int_t transf_zoom = lv_obj_get_style_transform_zoom(img, LV_IMG_PART_MAIN);
 342:lvgl/src/lv_widgets/lv_img.c ****     transf_zoom = (transf_zoom * ext->zoom) >> 8;
 343:lvgl/src/lv_widgets/lv_img.c **** 
 344:lvgl/src/lv_widgets/lv_img.c ****     lv_style_int_t transf_angle = lv_obj_get_style_transform_angle(img, LV_IMG_PART_MAIN);
 345:lvgl/src/lv_widgets/lv_img.c **** 
 346:lvgl/src/lv_widgets/lv_img.c ****     lv_coord_t w = lv_obj_get_width(img);
 347:lvgl/src/lv_widgets/lv_img.c ****     lv_coord_t h = lv_obj_get_height(img);
 348:lvgl/src/lv_widgets/lv_img.c ****     lv_area_t a;
 349:lvgl/src/lv_widgets/lv_img.c ****     _lv_img_buf_get_transformed_area(&a, w, h, transf_angle + ext->angle, transf_zoom, &ext->pivot)
 350:lvgl/src/lv_widgets/lv_img.c ****     a.x1 += img->coords.x1;
 351:lvgl/src/lv_widgets/lv_img.c ****     a.y1 += img->coords.y1;
 352:lvgl/src/lv_widgets/lv_img.c ****     a.x2 += img->coords.x1;
 353:lvgl/src/lv_widgets/lv_img.c ****     a.y2 += img->coords.y1;
 354:lvgl/src/lv_widgets/lv_img.c ****     lv_obj_invalidate_area(img, &a);
 355:lvgl/src/lv_widgets/lv_img.c **** 
 356:lvgl/src/lv_widgets/lv_img.c ****     ext->angle = angle;
 357:lvgl/src/lv_widgets/lv_img.c ****     lv_obj_refresh_ext_draw_pad(img);
 358:lvgl/src/lv_widgets/lv_img.c **** 
 359:lvgl/src/lv_widgets/lv_img.c ****     _lv_img_buf_get_transformed_area(&a, w, h, transf_angle + ext->angle, transf_zoom, &ext->pivot)
 360:lvgl/src/lv_widgets/lv_img.c ****     a.x1 += img->coords.x1;
 361:lvgl/src/lv_widgets/lv_img.c ****     a.y1 += img->coords.y1;
 362:lvgl/src/lv_widgets/lv_img.c ****     a.x2 += img->coords.x1;
 363:lvgl/src/lv_widgets/lv_img.c ****     a.y2 += img->coords.y1;
 364:lvgl/src/lv_widgets/lv_img.c ****     lv_obj_invalidate_area(img, &a);
 365:lvgl/src/lv_widgets/lv_img.c **** }
 366:lvgl/src/lv_widgets/lv_img.c **** 
 367:lvgl/src/lv_widgets/lv_img.c **** /**
 368:lvgl/src/lv_widgets/lv_img.c ****  * Set the zoom factor of the image.
 369:lvgl/src/lv_widgets/lv_img.c ****  * @param img pointer to an image object
 370:lvgl/src/lv_widgets/lv_img.c ****  * @param zoom the zoom factor.
 371:lvgl/src/lv_widgets/lv_img.c ****  * - 256 or LV_ZOOM_IMG_NONE for no zoom
 372:lvgl/src/lv_widgets/lv_img.c ****  * - <256: scale down
ARM GAS  D:\Temp\ccdlqfAs.s 			page 8


 373:lvgl/src/lv_widgets/lv_img.c ****  * - >256 scale up
 374:lvgl/src/lv_widgets/lv_img.c ****  * - 128 half size
 375:lvgl/src/lv_widgets/lv_img.c ****  * - 512 double size
 376:lvgl/src/lv_widgets/lv_img.c ****  */
 377:lvgl/src/lv_widgets/lv_img.c **** void lv_img_set_zoom(lv_obj_t * img, uint16_t zoom)
 378:lvgl/src/lv_widgets/lv_img.c **** {
 379:lvgl/src/lv_widgets/lv_img.c ****     lv_img_ext_t * ext = lv_obj_get_ext_attr(img);
 380:lvgl/src/lv_widgets/lv_img.c ****     if(zoom == ext->zoom) return;
 381:lvgl/src/lv_widgets/lv_img.c **** 
 382:lvgl/src/lv_widgets/lv_img.c ****     if(zoom == 0) zoom = 1;
 383:lvgl/src/lv_widgets/lv_img.c **** 
 384:lvgl/src/lv_widgets/lv_img.c ****     lv_style_int_t transf_zoom = lv_obj_get_style_transform_zoom(img, LV_IMG_PART_MAIN);
 385:lvgl/src/lv_widgets/lv_img.c **** 
 386:lvgl/src/lv_widgets/lv_img.c ****     lv_style_int_t transf_angle = lv_obj_get_style_transform_angle(img, LV_IMG_PART_MAIN);
 387:lvgl/src/lv_widgets/lv_img.c ****     transf_angle += ext->angle;
 388:lvgl/src/lv_widgets/lv_img.c **** 
 389:lvgl/src/lv_widgets/lv_img.c ****     lv_coord_t w = lv_obj_get_width(img);
 390:lvgl/src/lv_widgets/lv_img.c ****     lv_coord_t h = lv_obj_get_height(img);
 391:lvgl/src/lv_widgets/lv_img.c ****     lv_area_t a;
 392:lvgl/src/lv_widgets/lv_img.c ****     _lv_img_buf_get_transformed_area(&a, w, h, transf_angle, (transf_zoom * ext->zoom) >> 8, &ext->
 393:lvgl/src/lv_widgets/lv_img.c ****     a.x1 += img->coords.x1 - 1;
 394:lvgl/src/lv_widgets/lv_img.c ****     a.y1 += img->coords.y1 - 1;
 395:lvgl/src/lv_widgets/lv_img.c ****     a.x2 += img->coords.x1 + 1;
 396:lvgl/src/lv_widgets/lv_img.c ****     a.y2 += img->coords.y1 + 1;
 397:lvgl/src/lv_widgets/lv_img.c ****     lv_obj_invalidate_area(img, &a);
 398:lvgl/src/lv_widgets/lv_img.c **** 
 399:lvgl/src/lv_widgets/lv_img.c ****     ext->zoom = zoom;
 400:lvgl/src/lv_widgets/lv_img.c ****     lv_obj_refresh_ext_draw_pad(img);
 401:lvgl/src/lv_widgets/lv_img.c **** 
 402:lvgl/src/lv_widgets/lv_img.c ****     _lv_img_buf_get_transformed_area(&a, w, h, transf_angle, (transf_zoom * ext->zoom) >> 8, &ext->
 403:lvgl/src/lv_widgets/lv_img.c ****     a.x1 += img->coords.x1 - 1;
 404:lvgl/src/lv_widgets/lv_img.c ****     a.y1 += img->coords.y1 - 1;
 405:lvgl/src/lv_widgets/lv_img.c ****     a.x2 += img->coords.x1 + 1;
 406:lvgl/src/lv_widgets/lv_img.c ****     a.y2 += img->coords.y1 + 1;
 407:lvgl/src/lv_widgets/lv_img.c ****     lv_obj_invalidate_area(img, &a);
 408:lvgl/src/lv_widgets/lv_img.c **** }
 409:lvgl/src/lv_widgets/lv_img.c **** 
 410:lvgl/src/lv_widgets/lv_img.c **** /**
 411:lvgl/src/lv_widgets/lv_img.c ****  * Enable/disable anti-aliasing for the transformations (rotate, zoom) or not
 412:lvgl/src/lv_widgets/lv_img.c ****  * @param img pointer to an image object
 413:lvgl/src/lv_widgets/lv_img.c ****  * @param antialias true: anti-aliased; false: not anti-aliased
 414:lvgl/src/lv_widgets/lv_img.c ****  */
 415:lvgl/src/lv_widgets/lv_img.c **** void lv_img_set_antialias(lv_obj_t * img, bool antialias)
 416:lvgl/src/lv_widgets/lv_img.c **** {
 417:lvgl/src/lv_widgets/lv_img.c ****     lv_img_ext_t * ext = lv_obj_get_ext_attr(img);
 418:lvgl/src/lv_widgets/lv_img.c ****     if(antialias == ext->antialias) return;
 419:lvgl/src/lv_widgets/lv_img.c **** 
 420:lvgl/src/lv_widgets/lv_img.c ****     ext->antialias = antialias;
 421:lvgl/src/lv_widgets/lv_img.c ****     lv_obj_invalidate(img);
 422:lvgl/src/lv_widgets/lv_img.c **** }
 423:lvgl/src/lv_widgets/lv_img.c **** 
 424:lvgl/src/lv_widgets/lv_img.c **** /*=====================
 425:lvgl/src/lv_widgets/lv_img.c ****  * Getter functions
 426:lvgl/src/lv_widgets/lv_img.c ****  *====================*/
 427:lvgl/src/lv_widgets/lv_img.c **** 
 428:lvgl/src/lv_widgets/lv_img.c **** /**
 429:lvgl/src/lv_widgets/lv_img.c ****  * Get the source of the image
ARM GAS  D:\Temp\ccdlqfAs.s 			page 9


 430:lvgl/src/lv_widgets/lv_img.c ****  * @param img pointer to an image object
 431:lvgl/src/lv_widgets/lv_img.c ****  * @return the image source (symbol, file name or C array)
 432:lvgl/src/lv_widgets/lv_img.c ****  */
 433:lvgl/src/lv_widgets/lv_img.c **** const void * lv_img_get_src(lv_obj_t * img)
 434:lvgl/src/lv_widgets/lv_img.c **** {
 435:lvgl/src/lv_widgets/lv_img.c ****     LV_ASSERT_OBJ(img, LV_OBJX_NAME);
 436:lvgl/src/lv_widgets/lv_img.c **** 
 437:lvgl/src/lv_widgets/lv_img.c ****     lv_img_ext_t * ext = lv_obj_get_ext_attr(img);
 438:lvgl/src/lv_widgets/lv_img.c **** 
 439:lvgl/src/lv_widgets/lv_img.c ****     return ext->src;
 440:lvgl/src/lv_widgets/lv_img.c **** }
 441:lvgl/src/lv_widgets/lv_img.c **** 
 442:lvgl/src/lv_widgets/lv_img.c **** /**
 443:lvgl/src/lv_widgets/lv_img.c ****  * Get the name of the file set for an image
 444:lvgl/src/lv_widgets/lv_img.c ****  * @param img pointer to an image
 445:lvgl/src/lv_widgets/lv_img.c ****  * @return file name
 446:lvgl/src/lv_widgets/lv_img.c ****  */
 447:lvgl/src/lv_widgets/lv_img.c **** const char * lv_img_get_file_name(const lv_obj_t * img)
 448:lvgl/src/lv_widgets/lv_img.c **** {
 449:lvgl/src/lv_widgets/lv_img.c ****     LV_ASSERT_OBJ(img, LV_OBJX_NAME);
 450:lvgl/src/lv_widgets/lv_img.c **** 
 451:lvgl/src/lv_widgets/lv_img.c ****     lv_img_ext_t * ext = lv_obj_get_ext_attr(img);
 452:lvgl/src/lv_widgets/lv_img.c **** 
 453:lvgl/src/lv_widgets/lv_img.c ****     if(ext->src_type == LV_IMG_SRC_FILE)
 454:lvgl/src/lv_widgets/lv_img.c ****         return ext->src;
 455:lvgl/src/lv_widgets/lv_img.c ****     else
 456:lvgl/src/lv_widgets/lv_img.c ****         return "";
 457:lvgl/src/lv_widgets/lv_img.c **** }
 458:lvgl/src/lv_widgets/lv_img.c **** 
 459:lvgl/src/lv_widgets/lv_img.c **** /**
 460:lvgl/src/lv_widgets/lv_img.c ****  * Get the auto size enable attribute
 461:lvgl/src/lv_widgets/lv_img.c ****  * @param img pointer to an image
 462:lvgl/src/lv_widgets/lv_img.c ****  * @return true: auto size is enabled, false: auto size is disabled
 463:lvgl/src/lv_widgets/lv_img.c ****  */
 464:lvgl/src/lv_widgets/lv_img.c **** bool lv_img_get_auto_size(const lv_obj_t * img)
 465:lvgl/src/lv_widgets/lv_img.c **** {
 466:lvgl/src/lv_widgets/lv_img.c ****     LV_ASSERT_OBJ(img, LV_OBJX_NAME);
 467:lvgl/src/lv_widgets/lv_img.c **** 
 468:lvgl/src/lv_widgets/lv_img.c ****     lv_img_ext_t * ext = lv_obj_get_ext_attr(img);
 469:lvgl/src/lv_widgets/lv_img.c **** 
 470:lvgl/src/lv_widgets/lv_img.c ****     return ext->auto_size == 0 ? false : true;
 471:lvgl/src/lv_widgets/lv_img.c **** }
 472:lvgl/src/lv_widgets/lv_img.c **** 
 473:lvgl/src/lv_widgets/lv_img.c **** /**
 474:lvgl/src/lv_widgets/lv_img.c ****  * Get the offset.x attribute of the img object.
 475:lvgl/src/lv_widgets/lv_img.c ****  * @param img pointer to an image
 476:lvgl/src/lv_widgets/lv_img.c ****  * @return offset.x value.
 477:lvgl/src/lv_widgets/lv_img.c ****  */
 478:lvgl/src/lv_widgets/lv_img.c **** lv_coord_t lv_img_get_offset_x(lv_obj_t * img)
 479:lvgl/src/lv_widgets/lv_img.c **** {
 480:lvgl/src/lv_widgets/lv_img.c ****     LV_ASSERT_OBJ(img, LV_OBJX_NAME);
 481:lvgl/src/lv_widgets/lv_img.c **** 
 482:lvgl/src/lv_widgets/lv_img.c ****     lv_img_ext_t * ext = lv_obj_get_ext_attr(img);
 483:lvgl/src/lv_widgets/lv_img.c **** 
 484:lvgl/src/lv_widgets/lv_img.c ****     return ext->offset.x;
 485:lvgl/src/lv_widgets/lv_img.c **** }
 486:lvgl/src/lv_widgets/lv_img.c **** 
ARM GAS  D:\Temp\ccdlqfAs.s 			page 10


 487:lvgl/src/lv_widgets/lv_img.c **** /**
 488:lvgl/src/lv_widgets/lv_img.c ****  * Get the offset.y attribute of the img object.
 489:lvgl/src/lv_widgets/lv_img.c ****  * @param img pointer to an image
 490:lvgl/src/lv_widgets/lv_img.c ****  * @return offset.y value.
 491:lvgl/src/lv_widgets/lv_img.c ****  */
 492:lvgl/src/lv_widgets/lv_img.c **** lv_coord_t lv_img_get_offset_y(lv_obj_t * img)
 493:lvgl/src/lv_widgets/lv_img.c **** {
 494:lvgl/src/lv_widgets/lv_img.c ****     LV_ASSERT_OBJ(img, LV_OBJX_NAME);
 495:lvgl/src/lv_widgets/lv_img.c **** 
 496:lvgl/src/lv_widgets/lv_img.c ****     lv_img_ext_t * ext = lv_obj_get_ext_attr(img);
 497:lvgl/src/lv_widgets/lv_img.c **** 
 498:lvgl/src/lv_widgets/lv_img.c ****     return ext->offset.y;
 499:lvgl/src/lv_widgets/lv_img.c **** }
 500:lvgl/src/lv_widgets/lv_img.c **** 
 501:lvgl/src/lv_widgets/lv_img.c **** /**
 502:lvgl/src/lv_widgets/lv_img.c ****  * Get the rotation center of the image.
 503:lvgl/src/lv_widgets/lv_img.c ****  * @param img pointer to an image object
 504:lvgl/src/lv_widgets/lv_img.c ****  * @param center rotation center of the image
 505:lvgl/src/lv_widgets/lv_img.c ****  */
 506:lvgl/src/lv_widgets/lv_img.c **** void lv_img_get_pivot(lv_obj_t * img, lv_point_t * pivot)
 507:lvgl/src/lv_widgets/lv_img.c **** {
 508:lvgl/src/lv_widgets/lv_img.c ****     LV_ASSERT_OBJ(img, LV_OBJX_NAME);
 509:lvgl/src/lv_widgets/lv_img.c **** 
 510:lvgl/src/lv_widgets/lv_img.c ****     lv_img_ext_t * ext = lv_obj_get_ext_attr(img);
 511:lvgl/src/lv_widgets/lv_img.c **** 
 512:lvgl/src/lv_widgets/lv_img.c ****     *pivot = ext->pivot;
 513:lvgl/src/lv_widgets/lv_img.c **** }
 514:lvgl/src/lv_widgets/lv_img.c **** 
 515:lvgl/src/lv_widgets/lv_img.c **** /**
 516:lvgl/src/lv_widgets/lv_img.c ****  * Get the rotation angle of the image.
 517:lvgl/src/lv_widgets/lv_img.c ****  * @param img pointer to an image object
 518:lvgl/src/lv_widgets/lv_img.c ****  * @return rotation angle in degree (0..359)
 519:lvgl/src/lv_widgets/lv_img.c ****  */
 520:lvgl/src/lv_widgets/lv_img.c **** uint16_t lv_img_get_angle(lv_obj_t * img)
 521:lvgl/src/lv_widgets/lv_img.c **** {
 522:lvgl/src/lv_widgets/lv_img.c ****     LV_ASSERT_OBJ(img, LV_OBJX_NAME);
 523:lvgl/src/lv_widgets/lv_img.c **** 
 524:lvgl/src/lv_widgets/lv_img.c ****     lv_img_ext_t * ext = lv_obj_get_ext_attr(img);
 525:lvgl/src/lv_widgets/lv_img.c **** 
 526:lvgl/src/lv_widgets/lv_img.c ****     return ext->angle;
 527:lvgl/src/lv_widgets/lv_img.c **** }
 528:lvgl/src/lv_widgets/lv_img.c **** 
 529:lvgl/src/lv_widgets/lv_img.c **** /**
 530:lvgl/src/lv_widgets/lv_img.c ****  * Get the zoom factor of the image.
 531:lvgl/src/lv_widgets/lv_img.c ****  * @param img pointer to an image object
 532:lvgl/src/lv_widgets/lv_img.c ****  * @return zoom factor (256: no zoom)
 533:lvgl/src/lv_widgets/lv_img.c ****  */
 534:lvgl/src/lv_widgets/lv_img.c **** uint16_t lv_img_get_zoom(lv_obj_t * img)
 535:lvgl/src/lv_widgets/lv_img.c **** {
 536:lvgl/src/lv_widgets/lv_img.c ****     LV_ASSERT_OBJ(img, LV_OBJX_NAME);
 537:lvgl/src/lv_widgets/lv_img.c **** 
 538:lvgl/src/lv_widgets/lv_img.c ****     lv_img_ext_t * ext = lv_obj_get_ext_attr(img);
 539:lvgl/src/lv_widgets/lv_img.c **** 
 540:lvgl/src/lv_widgets/lv_img.c ****     return ext->zoom;
 541:lvgl/src/lv_widgets/lv_img.c **** }
 542:lvgl/src/lv_widgets/lv_img.c **** 
 543:lvgl/src/lv_widgets/lv_img.c **** /**
ARM GAS  D:\Temp\ccdlqfAs.s 			page 11


 544:lvgl/src/lv_widgets/lv_img.c ****  * Get whether the transformations (rotate, zoom) are anti-aliased or not
 545:lvgl/src/lv_widgets/lv_img.c ****  * @param img pointer to an image object
 546:lvgl/src/lv_widgets/lv_img.c ****  * @return true: anti-aliased; false: not anti-aliased
 547:lvgl/src/lv_widgets/lv_img.c ****  */
 548:lvgl/src/lv_widgets/lv_img.c **** bool lv_img_get_antialias(lv_obj_t * img)
 549:lvgl/src/lv_widgets/lv_img.c **** {
 550:lvgl/src/lv_widgets/lv_img.c ****     LV_ASSERT_OBJ(img, LV_OBJX_NAME);
 551:lvgl/src/lv_widgets/lv_img.c **** 
 552:lvgl/src/lv_widgets/lv_img.c ****     lv_img_ext_t * ext = lv_obj_get_ext_attr(img);
 553:lvgl/src/lv_widgets/lv_img.c **** 
 554:lvgl/src/lv_widgets/lv_img.c ****     return ext->antialias ? true : false;
 555:lvgl/src/lv_widgets/lv_img.c **** }
 556:lvgl/src/lv_widgets/lv_img.c **** 
 557:lvgl/src/lv_widgets/lv_img.c **** /**********************
 558:lvgl/src/lv_widgets/lv_img.c ****  *   STATIC FUNCTIONS
 559:lvgl/src/lv_widgets/lv_img.c ****  **********************/
 560:lvgl/src/lv_widgets/lv_img.c **** 
 561:lvgl/src/lv_widgets/lv_img.c **** /**
 562:lvgl/src/lv_widgets/lv_img.c ****  * Handle the drawing related tasks of the images
 563:lvgl/src/lv_widgets/lv_img.c ****  * @param img pointer to an object
 564:lvgl/src/lv_widgets/lv_img.c ****  * @param clip_area the object will be drawn only in this area
 565:lvgl/src/lv_widgets/lv_img.c ****  * @param mode LV_DESIGN_COVER_CHK: only check if the object fully covers the 'mask_p' area
 566:lvgl/src/lv_widgets/lv_img.c ****  *                                  (return 'true' if yes)
 567:lvgl/src/lv_widgets/lv_img.c ****  *             LV_DESIGN_DRAW: draw the object (always return 'true')
 568:lvgl/src/lv_widgets/lv_img.c ****  *             LV_DESIGN_DRAW_POST: drawing after every children are drawn
 569:lvgl/src/lv_widgets/lv_img.c ****  * @param return an element of `lv_design_res_t`
 570:lvgl/src/lv_widgets/lv_img.c ****  */
 571:lvgl/src/lv_widgets/lv_img.c **** static lv_design_res_t lv_img_design(lv_obj_t * img, const lv_area_t * clip_area, lv_design_mode_t 
 572:lvgl/src/lv_widgets/lv_img.c **** {
 573:lvgl/src/lv_widgets/lv_img.c ****     lv_img_ext_t * ext       = lv_obj_get_ext_attr(img);
 574:lvgl/src/lv_widgets/lv_img.c **** 
 575:lvgl/src/lv_widgets/lv_img.c ****     if(mode == LV_DESIGN_COVER_CHK) {
 576:lvgl/src/lv_widgets/lv_img.c ****         if(lv_obj_get_style_clip_corner(img, LV_IMG_PART_MAIN)) return LV_DESIGN_RES_MASKED;
 577:lvgl/src/lv_widgets/lv_img.c **** 
 578:lvgl/src/lv_widgets/lv_img.c ****         if(ext->src_type == LV_IMG_SRC_UNKNOWN || ext->src_type == LV_IMG_SRC_SYMBOL) return LV_DES
 579:lvgl/src/lv_widgets/lv_img.c **** 
 580:lvgl/src/lv_widgets/lv_img.c ****         /*Non true color format might have "holes"*/
 581:lvgl/src/lv_widgets/lv_img.c ****         if(ext->cf != LV_IMG_CF_TRUE_COLOR && ext->cf != LV_IMG_CF_RAW) return LV_DESIGN_RES_NOT_CO
 582:lvgl/src/lv_widgets/lv_img.c **** 
 583:lvgl/src/lv_widgets/lv_img.c ****         /*With not LV_OPA_COVER images acn't cover an area */
 584:lvgl/src/lv_widgets/lv_img.c ****         if(lv_obj_get_style_image_opa(img, LV_IMG_PART_MAIN) != LV_OPA_COVER) return LV_DESIGN_RES_
 585:lvgl/src/lv_widgets/lv_img.c **** 
 586:lvgl/src/lv_widgets/lv_img.c ****         int32_t angle_final = lv_obj_get_style_transform_angle(img, LV_IMG_PART_MAIN);
 587:lvgl/src/lv_widgets/lv_img.c ****         angle_final += ext->angle;
 588:lvgl/src/lv_widgets/lv_img.c **** 
 589:lvgl/src/lv_widgets/lv_img.c ****         if(angle_final != 0) return LV_DESIGN_RES_NOT_COVER;
 590:lvgl/src/lv_widgets/lv_img.c **** 
 591:lvgl/src/lv_widgets/lv_img.c ****         int32_t zoom_final = lv_obj_get_style_transform_zoom(img, LV_IMG_PART_MAIN);
 592:lvgl/src/lv_widgets/lv_img.c ****         zoom_final = (zoom_final * ext->zoom) >> 8;
 593:lvgl/src/lv_widgets/lv_img.c **** 
 594:lvgl/src/lv_widgets/lv_img.c ****         if(zoom_final == LV_IMG_ZOOM_NONE) {
 595:lvgl/src/lv_widgets/lv_img.c ****             if(_lv_area_is_in(clip_area, &img->coords, 0) == false) return LV_DESIGN_RES_NOT_COVER;
 596:lvgl/src/lv_widgets/lv_img.c ****         }
 597:lvgl/src/lv_widgets/lv_img.c ****         else {
 598:lvgl/src/lv_widgets/lv_img.c ****             lv_area_t a;
 599:lvgl/src/lv_widgets/lv_img.c ****             _lv_img_buf_get_transformed_area(&a, lv_obj_get_width(img), lv_obj_get_height(img), 0, 
 600:lvgl/src/lv_widgets/lv_img.c ****             a.x1 += img->coords.x1;
ARM GAS  D:\Temp\ccdlqfAs.s 			page 12


 601:lvgl/src/lv_widgets/lv_img.c ****             a.y1 += img->coords.y1;
 602:lvgl/src/lv_widgets/lv_img.c ****             a.x2 += img->coords.x1;
 603:lvgl/src/lv_widgets/lv_img.c ****             a.y2 += img->coords.y1;
 604:lvgl/src/lv_widgets/lv_img.c **** 
 605:lvgl/src/lv_widgets/lv_img.c ****             if(_lv_area_is_in(clip_area, &a, 0) == false) return LV_DESIGN_RES_NOT_COVER;
 606:lvgl/src/lv_widgets/lv_img.c ****         }
 607:lvgl/src/lv_widgets/lv_img.c **** 
 608:lvgl/src/lv_widgets/lv_img.c **** #if LV_USE_BLEND_MODES
 609:lvgl/src/lv_widgets/lv_img.c ****         if(lv_obj_get_style_bg_blend_mode(img, LV_IMG_PART_MAIN) != LV_BLEND_MODE_NORMAL) return LV
 610:lvgl/src/lv_widgets/lv_img.c ****         if(lv_obj_get_style_image_blend_mode(img, LV_IMG_PART_MAIN) != LV_BLEND_MODE_NORMAL) return
 611:lvgl/src/lv_widgets/lv_img.c **** #endif
 612:lvgl/src/lv_widgets/lv_img.c **** 
 613:lvgl/src/lv_widgets/lv_img.c ****         return LV_DESIGN_RES_COVER;
 614:lvgl/src/lv_widgets/lv_img.c ****     }
 615:lvgl/src/lv_widgets/lv_img.c ****     else if(mode == LV_DESIGN_DRAW_MAIN) {
 616:lvgl/src/lv_widgets/lv_img.c ****         if(ext->h == 0 || ext->w == 0) return true;
 617:lvgl/src/lv_widgets/lv_img.c **** 
 618:lvgl/src/lv_widgets/lv_img.c ****         lv_draw_rect_dsc_t bg_dsc;
 619:lvgl/src/lv_widgets/lv_img.c ****         lv_draw_rect_dsc_init(&bg_dsc);
 620:lvgl/src/lv_widgets/lv_img.c ****         lv_obj_init_draw_rect_dsc(img, LV_IMG_PART_MAIN, &bg_dsc);
 621:lvgl/src/lv_widgets/lv_img.c **** 
 622:lvgl/src/lv_widgets/lv_img.c ****         /*If the border is drawn later disable loading its properties*/
 623:lvgl/src/lv_widgets/lv_img.c ****         if(lv_obj_get_style_border_post(img, LV_OBJ_PART_MAIN)) {
 624:lvgl/src/lv_widgets/lv_img.c ****             bg_dsc.border_opa = LV_OPA_TRANSP;
 625:lvgl/src/lv_widgets/lv_img.c ****         }
 626:lvgl/src/lv_widgets/lv_img.c **** 
 627:lvgl/src/lv_widgets/lv_img.c ****         int32_t zoom_final = lv_obj_get_style_transform_zoom(img, LV_IMG_PART_MAIN);
 628:lvgl/src/lv_widgets/lv_img.c ****         zoom_final = (zoom_final * ext->zoom) >> 8;
 629:lvgl/src/lv_widgets/lv_img.c **** 
 630:lvgl/src/lv_widgets/lv_img.c ****         int32_t angle_final = lv_obj_get_style_transform_angle(img, LV_IMG_PART_MAIN);
 631:lvgl/src/lv_widgets/lv_img.c ****         angle_final += ext->angle;
 632:lvgl/src/lv_widgets/lv_img.c **** 
 633:lvgl/src/lv_widgets/lv_img.c ****         lv_coord_t obj_w = lv_obj_get_width(img);
 634:lvgl/src/lv_widgets/lv_img.c ****         lv_coord_t obj_h = lv_obj_get_height(img);
 635:lvgl/src/lv_widgets/lv_img.c **** 
 636:lvgl/src/lv_widgets/lv_img.c ****         lv_area_t bg_coords;
 637:lvgl/src/lv_widgets/lv_img.c ****         _lv_img_buf_get_transformed_area(&bg_coords, obj_w, obj_h,
 638:lvgl/src/lv_widgets/lv_img.c ****                                          angle_final, zoom_final, &ext->pivot);
 639:lvgl/src/lv_widgets/lv_img.c ****         bg_coords.x1 += img->coords.x1;
 640:lvgl/src/lv_widgets/lv_img.c ****         bg_coords.y1 += img->coords.y1;
 641:lvgl/src/lv_widgets/lv_img.c ****         bg_coords.x2 += img->coords.x1;
 642:lvgl/src/lv_widgets/lv_img.c ****         bg_coords.y2 += img->coords.y1;
 643:lvgl/src/lv_widgets/lv_img.c ****         bg_coords.x1 -= lv_obj_get_style_pad_left(img, LV_IMG_PART_MAIN);
 644:lvgl/src/lv_widgets/lv_img.c ****         bg_coords.x2 += lv_obj_get_style_pad_right(img, LV_IMG_PART_MAIN);
 645:lvgl/src/lv_widgets/lv_img.c ****         bg_coords.y1 -= lv_obj_get_style_pad_top(img, LV_IMG_PART_MAIN);
 646:lvgl/src/lv_widgets/lv_img.c ****         bg_coords.y2 += lv_obj_get_style_pad_bottom(img, LV_IMG_PART_MAIN);
 647:lvgl/src/lv_widgets/lv_img.c **** 
 648:lvgl/src/lv_widgets/lv_img.c ****         lv_draw_rect(&bg_coords, clip_area, &bg_dsc);
 649:lvgl/src/lv_widgets/lv_img.c **** 
 650:lvgl/src/lv_widgets/lv_img.c ****         if(zoom_final == 0) return LV_DESIGN_RES_OK;
 651:lvgl/src/lv_widgets/lv_img.c **** 
 652:lvgl/src/lv_widgets/lv_img.c ****         if(lv_obj_get_style_clip_corner(img, LV_OBJ_PART_MAIN)) {
 653:lvgl/src/lv_widgets/lv_img.c ****             lv_draw_mask_radius_param_t * mp = _lv_mem_buf_get(sizeof(lv_draw_mask_radius_param_t))
 654:lvgl/src/lv_widgets/lv_img.c **** 
 655:lvgl/src/lv_widgets/lv_img.c ****             lv_coord_t r = lv_obj_get_style_radius(img, LV_OBJ_PART_MAIN);
 656:lvgl/src/lv_widgets/lv_img.c **** 
 657:lvgl/src/lv_widgets/lv_img.c ****             lv_draw_mask_radius_init(mp, &bg_coords, r, false);
ARM GAS  D:\Temp\ccdlqfAs.s 			page 13


 658:lvgl/src/lv_widgets/lv_img.c ****             /*Add the mask and use `img+8` as custom id. Don't use `obj` directly because it might 
 659:lvgl/src/lv_widgets/lv_img.c ****             lv_draw_mask_add(mp, img + 8);
 660:lvgl/src/lv_widgets/lv_img.c ****         }
 661:lvgl/src/lv_widgets/lv_img.c **** 
 662:lvgl/src/lv_widgets/lv_img.c ****         if(ext->src_type == LV_IMG_SRC_FILE || ext->src_type == LV_IMG_SRC_VARIABLE) {
 663:lvgl/src/lv_widgets/lv_img.c ****             LV_LOG_TRACE("lv_img_design: start to draw image");
 664:lvgl/src/lv_widgets/lv_img.c **** 
 665:lvgl/src/lv_widgets/lv_img.c ****             lv_draw_img_dsc_t img_dsc;
 666:lvgl/src/lv_widgets/lv_img.c ****             lv_draw_img_dsc_init(&img_dsc);
 667:lvgl/src/lv_widgets/lv_img.c ****             lv_obj_init_draw_img_dsc(img, LV_IMG_PART_MAIN, &img_dsc);
 668:lvgl/src/lv_widgets/lv_img.c **** 
 669:lvgl/src/lv_widgets/lv_img.c ****             img_dsc.zoom = zoom_final;
 670:lvgl/src/lv_widgets/lv_img.c **** 
 671:lvgl/src/lv_widgets/lv_img.c ****             if(img_dsc.zoom == 0) return LV_DESIGN_RES_OK;
 672:lvgl/src/lv_widgets/lv_img.c **** 
 673:lvgl/src/lv_widgets/lv_img.c ****             img_dsc.angle = angle_final;
 674:lvgl/src/lv_widgets/lv_img.c **** 
 675:lvgl/src/lv_widgets/lv_img.c ****             img_dsc.pivot.x = ext->pivot.x;
 676:lvgl/src/lv_widgets/lv_img.c ****             img_dsc.pivot.y = ext->pivot.y;
 677:lvgl/src/lv_widgets/lv_img.c ****             img_dsc.antialias = ext->antialias;
 678:lvgl/src/lv_widgets/lv_img.c **** 
 679:lvgl/src/lv_widgets/lv_img.c ****             lv_coord_t zoomed_src_w = (int32_t)((int32_t)ext->w * zoom_final) >> 8;
 680:lvgl/src/lv_widgets/lv_img.c ****             if(zoomed_src_w <= 0) return LV_DESIGN_RES_OK;
 681:lvgl/src/lv_widgets/lv_img.c ****             lv_coord_t zoomed_src_h = (int32_t)((int32_t)ext->h * zoom_final) >> 8;
 682:lvgl/src/lv_widgets/lv_img.c ****             if(zoomed_src_h <= 0) return LV_DESIGN_RES_OK;
 683:lvgl/src/lv_widgets/lv_img.c ****             lv_area_t zoomed_coords;
 684:lvgl/src/lv_widgets/lv_img.c ****             lv_obj_get_coords(img, &zoomed_coords);
 685:lvgl/src/lv_widgets/lv_img.c **** 
 686:lvgl/src/lv_widgets/lv_img.c ****             zoomed_coords.x1 += (int32_t)((int32_t)ext->offset.x * zoom_final) >> 8;
 687:lvgl/src/lv_widgets/lv_img.c ****             zoomed_coords.y1 += (int32_t)((int32_t)ext->offset.y * zoom_final) >> 8;
 688:lvgl/src/lv_widgets/lv_img.c ****             zoomed_coords.x2 = zoomed_coords.x1 + ((int32_t)((int32_t)(obj_w - 1) * zoom_final) >> 
 689:lvgl/src/lv_widgets/lv_img.c ****             zoomed_coords.y2 = zoomed_coords.y1 + ((int32_t)((int32_t)(obj_h - 1) * zoom_final) >> 
 690:lvgl/src/lv_widgets/lv_img.c **** 
 691:lvgl/src/lv_widgets/lv_img.c ****             if(zoomed_coords.x1 > img->coords.x1) zoomed_coords.x1 -= ext->w;
 692:lvgl/src/lv_widgets/lv_img.c ****             if(zoomed_coords.y1 > img->coords.y1) zoomed_coords.y1 -= ext->h;
 693:lvgl/src/lv_widgets/lv_img.c **** 
 694:lvgl/src/lv_widgets/lv_img.c ****             lv_area_t clip_real;
 695:lvgl/src/lv_widgets/lv_img.c ****             _lv_img_buf_get_transformed_area(&clip_real, lv_obj_get_width(img), lv_obj_get_height(i
 696:lvgl/src/lv_widgets/lv_img.c ****                                              &ext->pivot);
 697:lvgl/src/lv_widgets/lv_img.c ****             clip_real.x1 += img->coords.x1;
 698:lvgl/src/lv_widgets/lv_img.c ****             clip_real.x2 += img->coords.x1;
 699:lvgl/src/lv_widgets/lv_img.c ****             clip_real.y1 += img->coords.y1;
 700:lvgl/src/lv_widgets/lv_img.c ****             clip_real.y2 += img->coords.y1;
 701:lvgl/src/lv_widgets/lv_img.c **** 
 702:lvgl/src/lv_widgets/lv_img.c ****             if(_lv_area_intersect(&clip_real, &clip_real, clip_area) == false) return LV_DESIGN_RES
 703:lvgl/src/lv_widgets/lv_img.c **** 
 704:lvgl/src/lv_widgets/lv_img.c ****             lv_area_t coords_tmp;
 705:lvgl/src/lv_widgets/lv_img.c ****             coords_tmp.y1 = zoomed_coords.y1;
 706:lvgl/src/lv_widgets/lv_img.c ****             coords_tmp.y2 = zoomed_coords.y1 + ext->h - 1;
 707:lvgl/src/lv_widgets/lv_img.c **** 
 708:lvgl/src/lv_widgets/lv_img.c ****             for(; coords_tmp.y1 < zoomed_coords.y2; coords_tmp.y1 += zoomed_src_h, coords_tmp.y2 +=
 709:lvgl/src/lv_widgets/lv_img.c ****                 coords_tmp.x1 = zoomed_coords.x1;
 710:lvgl/src/lv_widgets/lv_img.c ****                 coords_tmp.x2 = zoomed_coords.x1 + ext->w - 1;
 711:lvgl/src/lv_widgets/lv_img.c ****                 for(; coords_tmp.x1 < zoomed_coords.x2; coords_tmp.x1 += zoomed_src_w, coords_tmp.x
 712:lvgl/src/lv_widgets/lv_img.c ****                     lv_draw_img(&coords_tmp, &clip_real, ext->src, &img_dsc);
 713:lvgl/src/lv_widgets/lv_img.c ****                 }
 714:lvgl/src/lv_widgets/lv_img.c ****             }
ARM GAS  D:\Temp\ccdlqfAs.s 			page 14


 715:lvgl/src/lv_widgets/lv_img.c ****         }
 716:lvgl/src/lv_widgets/lv_img.c ****         else if(ext->src_type == LV_IMG_SRC_SYMBOL) {
 717:lvgl/src/lv_widgets/lv_img.c ****             LV_LOG_TRACE("lv_img_design: start to draw symbol");
 718:lvgl/src/lv_widgets/lv_img.c ****             lv_draw_label_dsc_t label_dsc;
 719:lvgl/src/lv_widgets/lv_img.c ****             lv_draw_label_dsc_init(&label_dsc);
 720:lvgl/src/lv_widgets/lv_img.c ****             lv_obj_init_draw_label_dsc(img, LV_IMG_PART_MAIN, &label_dsc);
 721:lvgl/src/lv_widgets/lv_img.c **** 
 722:lvgl/src/lv_widgets/lv_img.c ****             label_dsc.color = lv_obj_get_style_image_recolor(img, LV_IMG_PART_MAIN);
 723:lvgl/src/lv_widgets/lv_img.c ****             lv_draw_label(&img->coords, clip_area, &label_dsc, ext->src, NULL);
 724:lvgl/src/lv_widgets/lv_img.c ****         }
 725:lvgl/src/lv_widgets/lv_img.c ****         else {
 726:lvgl/src/lv_widgets/lv_img.c ****             /*Trigger the error handler of image drawer*/
 727:lvgl/src/lv_widgets/lv_img.c ****             LV_LOG_WARN("lv_img_design: image source type is unknown");
 728:lvgl/src/lv_widgets/lv_img.c ****             lv_draw_img(&img->coords, clip_area, NULL, NULL);
 729:lvgl/src/lv_widgets/lv_img.c ****         }
 730:lvgl/src/lv_widgets/lv_img.c ****     }
 731:lvgl/src/lv_widgets/lv_img.c ****     else if(mode == LV_DESIGN_DRAW_POST) {
 732:lvgl/src/lv_widgets/lv_img.c ****         if(lv_obj_get_style_clip_corner(img, LV_OBJ_PART_MAIN)) {
 733:lvgl/src/lv_widgets/lv_img.c ****             lv_draw_mask_radius_param_t * param = lv_draw_mask_remove_custom(img + 8);
 734:lvgl/src/lv_widgets/lv_img.c ****             _lv_mem_buf_release(param);
 735:lvgl/src/lv_widgets/lv_img.c ****         }
 736:lvgl/src/lv_widgets/lv_img.c **** 
 737:lvgl/src/lv_widgets/lv_img.c ****         /*If the border is drawn later disable loading other properties*/
 738:lvgl/src/lv_widgets/lv_img.c ****         if(lv_obj_get_style_border_post(img, LV_OBJ_PART_MAIN)) {
 739:lvgl/src/lv_widgets/lv_img.c ****             lv_draw_rect_dsc_t draw_dsc;
 740:lvgl/src/lv_widgets/lv_img.c ****             lv_draw_rect_dsc_init(&draw_dsc);
 741:lvgl/src/lv_widgets/lv_img.c ****             draw_dsc.bg_opa = LV_OPA_TRANSP;
 742:lvgl/src/lv_widgets/lv_img.c ****             draw_dsc.pattern_opa = LV_OPA_TRANSP;
 743:lvgl/src/lv_widgets/lv_img.c ****             draw_dsc.shadow_opa = LV_OPA_TRANSP;
 744:lvgl/src/lv_widgets/lv_img.c ****             lv_obj_init_draw_rect_dsc(img, LV_OBJ_PART_MAIN, &draw_dsc);
 745:lvgl/src/lv_widgets/lv_img.c **** 
 746:lvgl/src/lv_widgets/lv_img.c ****             int32_t zoom_final = lv_obj_get_style_transform_zoom(img, LV_IMG_PART_MAIN);
 747:lvgl/src/lv_widgets/lv_img.c ****             zoom_final = (zoom_final * ext->zoom) >> 8;
 748:lvgl/src/lv_widgets/lv_img.c **** 
 749:lvgl/src/lv_widgets/lv_img.c ****             int32_t angle_final = lv_obj_get_style_transform_angle(img, LV_IMG_PART_MAIN);
 750:lvgl/src/lv_widgets/lv_img.c ****             angle_final += ext->angle;
 751:lvgl/src/lv_widgets/lv_img.c **** 
 752:lvgl/src/lv_widgets/lv_img.c ****             lv_area_t bg_coords;
 753:lvgl/src/lv_widgets/lv_img.c ****             _lv_img_buf_get_transformed_area(&bg_coords, lv_area_get_width(&img->coords), lv_area_g
 754:lvgl/src/lv_widgets/lv_img.c ****                                              angle_final, zoom_final, &ext->pivot);
 755:lvgl/src/lv_widgets/lv_img.c ****             bg_coords.x1 += img->coords.x1;
 756:lvgl/src/lv_widgets/lv_img.c ****             bg_coords.y1 += img->coords.y1;
 757:lvgl/src/lv_widgets/lv_img.c ****             bg_coords.x2 += img->coords.x1;
 758:lvgl/src/lv_widgets/lv_img.c ****             bg_coords.y2 += img->coords.y1;
 759:lvgl/src/lv_widgets/lv_img.c ****             bg_coords.x1 -= lv_obj_get_style_pad_left(img, LV_IMG_PART_MAIN);
 760:lvgl/src/lv_widgets/lv_img.c ****             bg_coords.x2 += lv_obj_get_style_pad_right(img, LV_IMG_PART_MAIN);
 761:lvgl/src/lv_widgets/lv_img.c ****             bg_coords.y1 -= lv_obj_get_style_pad_top(img, LV_IMG_PART_MAIN);
 762:lvgl/src/lv_widgets/lv_img.c ****             bg_coords.y2 += lv_obj_get_style_pad_bottom(img, LV_IMG_PART_MAIN);
 763:lvgl/src/lv_widgets/lv_img.c **** 
 764:lvgl/src/lv_widgets/lv_img.c ****             lv_draw_rect(&img->coords, clip_area, &draw_dsc);
 765:lvgl/src/lv_widgets/lv_img.c ****         }
 766:lvgl/src/lv_widgets/lv_img.c ****     }
 767:lvgl/src/lv_widgets/lv_img.c **** 
 768:lvgl/src/lv_widgets/lv_img.c ****     return LV_DESIGN_RES_OK;
 769:lvgl/src/lv_widgets/lv_img.c **** }
 770:lvgl/src/lv_widgets/lv_img.c **** 
 771:lvgl/src/lv_widgets/lv_img.c **** /**
ARM GAS  D:\Temp\ccdlqfAs.s 			page 15


 772:lvgl/src/lv_widgets/lv_img.c ****  * Signal function of the image
 773:lvgl/src/lv_widgets/lv_img.c ****  * @param img pointer to an image object
 774:lvgl/src/lv_widgets/lv_img.c ****  * @param sign a signal type from lv_signal_t enum
 775:lvgl/src/lv_widgets/lv_img.c ****  * @param param pointer to a signal specific variable
 776:lvgl/src/lv_widgets/lv_img.c ****  * @return LV_RES_OK: the object is not deleted in the function; LV_RES_INV: the object is deleted
 777:lvgl/src/lv_widgets/lv_img.c ****  */
 778:lvgl/src/lv_widgets/lv_img.c **** static lv_res_t lv_img_signal(lv_obj_t * img, lv_signal_t sign, void * param)
 779:lvgl/src/lv_widgets/lv_img.c **** {
 780:lvgl/src/lv_widgets/lv_img.c ****     lv_res_t res;
 781:lvgl/src/lv_widgets/lv_img.c ****     if(sign == LV_SIGNAL_GET_STYLE) {
 782:lvgl/src/lv_widgets/lv_img.c **** 
 783:lvgl/src/lv_widgets/lv_img.c ****         lv_get_style_info_t * info = param;
 784:lvgl/src/lv_widgets/lv_img.c ****         info->result = lv_img_get_style(img, info->part);
 785:lvgl/src/lv_widgets/lv_img.c ****         if(info->result != NULL) return LV_RES_OK;
 786:lvgl/src/lv_widgets/lv_img.c ****         else return ancestor_signal(img, sign, param);
 787:lvgl/src/lv_widgets/lv_img.c ****     }
 788:lvgl/src/lv_widgets/lv_img.c **** 
 789:lvgl/src/lv_widgets/lv_img.c ****     /* Include the ancient signal function */
 790:lvgl/src/lv_widgets/lv_img.c ****     res = ancestor_signal(img, sign, param);
 791:lvgl/src/lv_widgets/lv_img.c ****     if(res != LV_RES_OK) return res;
 792:lvgl/src/lv_widgets/lv_img.c **** 
 793:lvgl/src/lv_widgets/lv_img.c ****     if(sign == LV_SIGNAL_GET_TYPE) return lv_obj_handle_get_type_signal(param, LV_OBJX_NAME);
 794:lvgl/src/lv_widgets/lv_img.c **** 
 795:lvgl/src/lv_widgets/lv_img.c ****     lv_img_ext_t * ext = lv_obj_get_ext_attr(img);
 796:lvgl/src/lv_widgets/lv_img.c ****     if(sign == LV_SIGNAL_CLEANUP) {
 797:lvgl/src/lv_widgets/lv_img.c ****         if(ext->src_type == LV_IMG_SRC_FILE || ext->src_type == LV_IMG_SRC_SYMBOL) {
 798:lvgl/src/lv_widgets/lv_img.c ****             lv_mem_free(ext->src);
 799:lvgl/src/lv_widgets/lv_img.c ****             ext->src      = NULL;
 800:lvgl/src/lv_widgets/lv_img.c ****             ext->src_type = LV_IMG_SRC_UNKNOWN;
 801:lvgl/src/lv_widgets/lv_img.c ****         }
 802:lvgl/src/lv_widgets/lv_img.c ****     }
 803:lvgl/src/lv_widgets/lv_img.c ****     else if(sign == LV_SIGNAL_STYLE_CHG) {
 804:lvgl/src/lv_widgets/lv_img.c ****         /*Refresh the file name to refresh the symbol text size*/
 805:lvgl/src/lv_widgets/lv_img.c ****         if(ext->src_type == LV_IMG_SRC_SYMBOL) {
 806:lvgl/src/lv_widgets/lv_img.c ****             lv_img_set_src(img, ext->src);
 807:lvgl/src/lv_widgets/lv_img.c ****         }
 808:lvgl/src/lv_widgets/lv_img.c ****     }
 809:lvgl/src/lv_widgets/lv_img.c ****     else if(sign == LV_SIGNAL_REFR_EXT_DRAW_PAD) {
 810:lvgl/src/lv_widgets/lv_img.c **** 
 811:lvgl/src/lv_widgets/lv_img.c ****         lv_style_int_t transf_zoom = lv_obj_get_style_transform_zoom(img, LV_IMG_PART_MAIN);
 812:lvgl/src/lv_widgets/lv_img.c ****         transf_zoom = (transf_zoom * ext->zoom) >> 8;
 813:lvgl/src/lv_widgets/lv_img.c **** 
 814:lvgl/src/lv_widgets/lv_img.c ****         lv_style_int_t transf_angle = lv_obj_get_style_transform_angle(img, LV_IMG_PART_MAIN);
 815:lvgl/src/lv_widgets/lv_img.c ****         transf_angle += ext->angle;
 816:lvgl/src/lv_widgets/lv_img.c **** 
 817:lvgl/src/lv_widgets/lv_img.c ****         /*If the image has angle provide enough room for the rotated corners */
 818:lvgl/src/lv_widgets/lv_img.c ****         if(transf_angle || transf_zoom != LV_IMG_ZOOM_NONE) {
 819:lvgl/src/lv_widgets/lv_img.c ****             lv_area_t a;
 820:lvgl/src/lv_widgets/lv_img.c ****             lv_coord_t w = lv_obj_get_width(img);
 821:lvgl/src/lv_widgets/lv_img.c ****             lv_coord_t h = lv_obj_get_height(img);
 822:lvgl/src/lv_widgets/lv_img.c ****             _lv_img_buf_get_transformed_area(&a, w, h, transf_angle, transf_zoom, &ext->pivot);
 823:lvgl/src/lv_widgets/lv_img.c ****             lv_coord_t pad_ori = img->ext_draw_pad;
 824:lvgl/src/lv_widgets/lv_img.c ****             img->ext_draw_pad = LV_MATH_MAX(img->ext_draw_pad, pad_ori - a.x1);
 825:lvgl/src/lv_widgets/lv_img.c ****             img->ext_draw_pad = LV_MATH_MAX(img->ext_draw_pad, pad_ori - a.y1);
 826:lvgl/src/lv_widgets/lv_img.c ****             img->ext_draw_pad = LV_MATH_MAX(img->ext_draw_pad, pad_ori + a.x2 - w);
 827:lvgl/src/lv_widgets/lv_img.c ****             img->ext_draw_pad = LV_MATH_MAX(img->ext_draw_pad, pad_ori + a.y2 - h);
 828:lvgl/src/lv_widgets/lv_img.c ****         }
ARM GAS  D:\Temp\ccdlqfAs.s 			page 16


 829:lvgl/src/lv_widgets/lv_img.c **** 
 830:lvgl/src/lv_widgets/lv_img.c ****         /*Handle the padding of the background*/
 831:lvgl/src/lv_widgets/lv_img.c ****         lv_style_int_t left = lv_obj_get_style_pad_left(img, LV_IMG_PART_MAIN);
 832:lvgl/src/lv_widgets/lv_img.c ****         lv_style_int_t right = lv_obj_get_style_pad_right(img, LV_IMG_PART_MAIN);
 833:lvgl/src/lv_widgets/lv_img.c ****         lv_style_int_t top = lv_obj_get_style_pad_top(img, LV_IMG_PART_MAIN);
 834:lvgl/src/lv_widgets/lv_img.c ****         lv_style_int_t bottom = lv_obj_get_style_pad_bottom(img, LV_IMG_PART_MAIN);
 835:lvgl/src/lv_widgets/lv_img.c **** 
 836:lvgl/src/lv_widgets/lv_img.c ****         img->ext_draw_pad = LV_MATH_MAX(img->ext_draw_pad, left);
 837:lvgl/src/lv_widgets/lv_img.c ****         img->ext_draw_pad = LV_MATH_MAX(img->ext_draw_pad, right);
 838:lvgl/src/lv_widgets/lv_img.c ****         img->ext_draw_pad = LV_MATH_MAX(img->ext_draw_pad, top);
 839:lvgl/src/lv_widgets/lv_img.c ****         img->ext_draw_pad = LV_MATH_MAX(img->ext_draw_pad, bottom);
 840:lvgl/src/lv_widgets/lv_img.c **** 
 841:lvgl/src/lv_widgets/lv_img.c ****     }
 842:lvgl/src/lv_widgets/lv_img.c ****     else if(sign == LV_SIGNAL_HIT_TEST) {
 843:lvgl/src/lv_widgets/lv_img.c ****         lv_hit_test_info_t * info = param;
 844:lvgl/src/lv_widgets/lv_img.c ****         lv_style_int_t zoom = lv_obj_get_style_transform_zoom(img, LV_IMG_PART_MAIN);
 845:lvgl/src/lv_widgets/lv_img.c ****         zoom = (zoom * ext->zoom) >> 8;
 846:lvgl/src/lv_widgets/lv_img.c **** 
 847:lvgl/src/lv_widgets/lv_img.c ****         lv_style_int_t angle = lv_obj_get_style_transform_angle(img, LV_IMG_PART_MAIN);
 848:lvgl/src/lv_widgets/lv_img.c ****         angle += ext->angle;
 849:lvgl/src/lv_widgets/lv_img.c **** 
 850:lvgl/src/lv_widgets/lv_img.c ****         /* If the object is exactly image sized (not cropped, not mosaic) and transformed
 851:lvgl/src/lv_widgets/lv_img.c ****          * perform hit test on it's transformed area */
 852:lvgl/src/lv_widgets/lv_img.c ****         if(ext->w == lv_obj_get_width(img) && ext->h == lv_obj_get_height(img) &&
 853:lvgl/src/lv_widgets/lv_img.c ****            (zoom != LV_IMG_ZOOM_NONE || angle != 0 || ext->pivot.x != ext->w / 2 || ext->pivot.y !=
 854:lvgl/src/lv_widgets/lv_img.c **** 
 855:lvgl/src/lv_widgets/lv_img.c ****             lv_coord_t w = lv_obj_get_width(img);
 856:lvgl/src/lv_widgets/lv_img.c ****             lv_coord_t h = lv_obj_get_height(img);
 857:lvgl/src/lv_widgets/lv_img.c ****             lv_area_t coords;
 858:lvgl/src/lv_widgets/lv_img.c ****             _lv_img_buf_get_transformed_area(&coords, w, h, angle, zoom, &ext->pivot);
 859:lvgl/src/lv_widgets/lv_img.c ****             coords.x1 += img->coords.x1;
 860:lvgl/src/lv_widgets/lv_img.c ****             coords.y1 += img->coords.y1;
 861:lvgl/src/lv_widgets/lv_img.c ****             coords.x2 += img->coords.x1;
 862:lvgl/src/lv_widgets/lv_img.c ****             coords.y2 += img->coords.y1;
 863:lvgl/src/lv_widgets/lv_img.c **** 
 864:lvgl/src/lv_widgets/lv_img.c ****             info->result = _lv_area_is_point_on(&coords, info->point, 0);
 865:lvgl/src/lv_widgets/lv_img.c ****         }
 866:lvgl/src/lv_widgets/lv_img.c ****         else
 867:lvgl/src/lv_widgets/lv_img.c ****             info->result = lv_obj_is_point_on_coords(img, info->point);
 868:lvgl/src/lv_widgets/lv_img.c ****     }
 869:lvgl/src/lv_widgets/lv_img.c **** 
 870:lvgl/src/lv_widgets/lv_img.c ****     return res;
 871:lvgl/src/lv_widgets/lv_img.c **** }
 872:lvgl/src/lv_widgets/lv_img.c **** 
 873:lvgl/src/lv_widgets/lv_img.c **** static lv_style_list_t * lv_img_get_style(lv_obj_t * img, uint8_t type)
 874:lvgl/src/lv_widgets/lv_img.c **** {
  29              		.loc 1 874 1 view -0
  30              		.cfi_startproc
  31              		@ args = 0, pretend = 0, frame = 0
  32              		@ frame_needed = 0, uses_anonymous_args = 0
  33              		@ link register save eliminated.
 875:lvgl/src/lv_widgets/lv_img.c ****     lv_style_list_t * style_dsc_p;
  34              		.loc 1 875 5 view .LVU1
 876:lvgl/src/lv_widgets/lv_img.c ****     switch(type) {
  35              		.loc 1 876 5 view .LVU2
  36 0000 09B9     		cbnz	r1, .L3
 877:lvgl/src/lv_widgets/lv_img.c ****         case LV_IMG_PART_MAIN:
ARM GAS  D:\Temp\ccdlqfAs.s 			page 17


 878:lvgl/src/lv_widgets/lv_img.c ****             style_dsc_p = &img->style_list;
  37              		.loc 1 878 13 view .LVU3
  38              		.loc 1 878 25 is_stmt 0 view .LVU4
  39 0002 2830     		adds	r0, r0, #40
  40              	.LVL1:
 879:lvgl/src/lv_widgets/lv_img.c ****             break;
  41              		.loc 1 879 13 is_stmt 1 view .LVU5
  42 0004 7047     		bx	lr
  43              	.LVL2:
  44              	.L3:
 880:lvgl/src/lv_widgets/lv_img.c ****         default:
 881:lvgl/src/lv_widgets/lv_img.c ****             style_dsc_p = NULL;
  45              		.loc 1 881 25 is_stmt 0 view .LVU6
  46 0006 0020     		movs	r0, #0
  47              	.LVL3:
 882:lvgl/src/lv_widgets/lv_img.c ****     }
 883:lvgl/src/lv_widgets/lv_img.c **** 
 884:lvgl/src/lv_widgets/lv_img.c ****     return style_dsc_p;
  48              		.loc 1 884 5 is_stmt 1 view .LVU7
 885:lvgl/src/lv_widgets/lv_img.c **** }
  49              		.loc 1 885 1 is_stmt 0 view .LVU8
  50 0008 7047     		bx	lr
  51              		.cfi_endproc
  52              	.LFE478:
  54              		.section	.text.lv_img_design,"ax",%progbits
  55              		.align	1
  56              		.syntax unified
  57              		.thumb
  58              		.thumb_func
  59              		.fpu fpv4-sp-d16
  61              	lv_img_design:
  62              	.LVL4:
  63              	.LFB476:
 572:lvgl/src/lv_widgets/lv_img.c ****     lv_img_ext_t * ext       = lv_obj_get_ext_attr(img);
  64              		.loc 1 572 1 is_stmt 1 view -0
  65              		.cfi_startproc
  66              		@ args = 0, pretend = 0, frame = 168
  67              		@ frame_needed = 0, uses_anonymous_args = 0
 572:lvgl/src/lv_widgets/lv_img.c ****     lv_img_ext_t * ext       = lv_obj_get_ext_attr(img);
  68              		.loc 1 572 1 is_stmt 0 view .LVU10
  69 0000 2DE9F04F 		push	{r4, r5, r6, r7, r8, r9, r10, fp, lr}
  70              	.LCFI0:
  71              		.cfi_def_cfa_offset 36
  72              		.cfi_offset 4, -36
  73              		.cfi_offset 5, -32
  74              		.cfi_offset 6, -28
  75              		.cfi_offset 7, -24
  76              		.cfi_offset 8, -20
  77              		.cfi_offset 9, -16
  78              		.cfi_offset 10, -12
  79              		.cfi_offset 11, -8
  80              		.cfi_offset 14, -4
  81 0004 ADB0     		sub	sp, sp, #180
  82              	.LCFI1:
  83              		.cfi_def_cfa_offset 216
  84 0006 0446     		mov	r4, r0
  85 0008 0E46     		mov	r6, r1
ARM GAS  D:\Temp\ccdlqfAs.s 			page 18


  86 000a 1746     		mov	r7, r2
 573:lvgl/src/lv_widgets/lv_img.c **** 
  87              		.loc 1 573 5 is_stmt 1 view .LVU11
 573:lvgl/src/lv_widgets/lv_img.c **** 
  88              		.loc 1 573 32 is_stmt 0 view .LVU12
  89 000c FFF7FEFF 		bl	lv_obj_get_ext_attr
  90              	.LVL5:
 573:lvgl/src/lv_widgets/lv_img.c **** 
  91              		.loc 1 573 32 view .LVU13
  92 0010 0546     		mov	r5, r0
  93              	.LVL6:
 575:lvgl/src/lv_widgets/lv_img.c ****         if(lv_obj_get_style_clip_corner(img, LV_IMG_PART_MAIN)) return LV_DESIGN_RES_MASKED;
  94              		.loc 1 575 5 is_stmt 1 view .LVU14
 575:lvgl/src/lv_widgets/lv_img.c ****         if(lv_obj_get_style_clip_corner(img, LV_IMG_PART_MAIN)) return LV_DESIGN_RES_MASKED;
  95              		.loc 1 575 7 is_stmt 0 view .LVU15
  96 0012 022F     		cmp	r7, #2
  97 0014 0ED0     		beq	.L39
 615:lvgl/src/lv_widgets/lv_img.c ****         if(ext->h == 0 || ext->w == 0) return true;
  98              		.loc 1 615 10 is_stmt 1 view .LVU16
 615:lvgl/src/lv_widgets/lv_img.c ****         if(ext->h == 0 || ext->w == 0) return true;
  99              		.loc 1 615 12 is_stmt 0 view .LVU17
 100 0016 002F     		cmp	r7, #0
 101 0018 40F03E82 		bne	.L11
 102              	.LBB103:
 616:lvgl/src/lv_widgets/lv_img.c **** 
 103              		.loc 1 616 9 is_stmt 1 view .LVU18
 616:lvgl/src/lv_widgets/lv_img.c **** 
 104              		.loc 1 616 15 is_stmt 0 view .LVU19
 105 001c B0F90A30 		ldrsh	r3, [r0, #10]
 616:lvgl/src/lv_widgets/lv_img.c **** 
 106              		.loc 1 616 11 view .LVU20
 107 0020 002B     		cmp	r3, #0
 108 0022 00F03782 		beq	.L33
 616:lvgl/src/lv_widgets/lv_img.c **** 
 109              		.loc 1 616 30 discriminator 2 view .LVU21
 110 0026 B0F90830 		ldrsh	r3, [r0, #8]
 616:lvgl/src/lv_widgets/lv_img.c **** 
 111              		.loc 1 616 24 discriminator 2 view .LVU22
 112 002a 002B     		cmp	r3, #0
 113 002c 40F08380 		bne	.L40
 616:lvgl/src/lv_widgets/lv_img.c **** 
 114              		.loc 1 616 47 view .LVU23
 115 0030 0120     		movs	r0, #1
 116              	.LVL7:
 616:lvgl/src/lv_widgets/lv_img.c **** 
 117              		.loc 1 616 47 view .LVU24
 118 0032 34E2     		b	.L6
 119              	.LVL8:
 120              	.L39:
 616:lvgl/src/lv_widgets/lv_img.c **** 
 121              		.loc 1 616 47 view .LVU25
 122              	.LBE103:
 123              	.LBB127:
 576:lvgl/src/lv_widgets/lv_img.c **** 
 124              		.loc 1 576 9 is_stmt 1 view .LVU26
 125              	.LBB128:
 126              	.LBI128:
ARM GAS  D:\Temp\ccdlqfAs.s 			page 19


 127              		.file 2 "lvgl/src/lv_widgets/../lv_core/lv_obj_style_dec.h"
   1:lvgl/src/lv_widgets/../lv_core/lv_obj_style_dec.h **** 
   2:lvgl/src/lv_widgets/../lv_core/lv_obj_style_dec.h **** /**
   3:lvgl/src/lv_widgets/../lv_core/lv_obj_style_dec.h ****  * @file lv_obj_style_dec.h
   4:lvgl/src/lv_widgets/../lv_core/lv_obj_style_dec.h ****  *
   5:lvgl/src/lv_widgets/../lv_core/lv_obj_style_dec.h ****  */
   6:lvgl/src/lv_widgets/../lv_core/lv_obj_style_dec.h **** 
   7:lvgl/src/lv_widgets/../lv_core/lv_obj_style_dec.h **** #ifndef LV_OBJ_STYLE_DEC_H
   8:lvgl/src/lv_widgets/../lv_core/lv_obj_style_dec.h **** #define LV_OBJ_STYLE_DEC_H
   9:lvgl/src/lv_widgets/../lv_core/lv_obj_style_dec.h **** 
  10:lvgl/src/lv_widgets/../lv_core/lv_obj_style_dec.h **** #ifdef __cplusplus
  11:lvgl/src/lv_widgets/../lv_core/lv_obj_style_dec.h **** extern "C" {
  12:lvgl/src/lv_widgets/../lv_core/lv_obj_style_dec.h **** #endif
  13:lvgl/src/lv_widgets/../lv_core/lv_obj_style_dec.h **** 
  14:lvgl/src/lv_widgets/../lv_core/lv_obj_style_dec.h **** /*********************
  15:lvgl/src/lv_widgets/../lv_core/lv_obj_style_dec.h ****  *      DEFINES
  16:lvgl/src/lv_widgets/../lv_core/lv_obj_style_dec.h ****  *********************/
  17:lvgl/src/lv_widgets/../lv_core/lv_obj_style_dec.h **** 
  18:lvgl/src/lv_widgets/../lv_core/lv_obj_style_dec.h **** /**
  19:lvgl/src/lv_widgets/../lv_core/lv_obj_style_dec.h ****  * Macro to declare the most important style set/get API functions.
  20:lvgl/src/lv_widgets/../lv_core/lv_obj_style_dec.h ****  *
  21:lvgl/src/lv_widgets/../lv_core/lv_obj_style_dec.h ****  * Get the value of a style property from an object in the object's current state
  22:lvgl/src/lv_widgets/../lv_core/lv_obj_style_dec.h ****  * -----------------------------------------------------------------------------
  23:lvgl/src/lv_widgets/../lv_core/lv_obj_style_dec.h ****  *  - Get the value of a style property from an object in the object's current state.
  24:lvgl/src/lv_widgets/../lv_core/lv_obj_style_dec.h ****  *  - Transition animation is taken into account.
  25:lvgl/src/lv_widgets/../lv_core/lv_obj_style_dec.h ****  *  - If the property is not set in the object's styles check the parent(s) if the property can be 
  26:lvgl/src/lv_widgets/../lv_core/lv_obj_style_dec.h ****  *  - If still not found return a default value.
  27:lvgl/src/lv_widgets/../lv_core/lv_obj_style_dec.h ****  *  - For example:
  28:lvgl/src/lv_widgets/../lv_core/lv_obj_style_dec.h ****  *      `lv_style_int_t w = lv_obj_get_style_border_width(btn1, LV_BTN_PART_MAIN);`
  29:lvgl/src/lv_widgets/../lv_core/lv_obj_style_dec.h ****  *
  30:lvgl/src/lv_widgets/../lv_core/lv_obj_style_dec.h ****  * Set a local style property for an object in a given state
  31:lvgl/src/lv_widgets/../lv_core/lv_obj_style_dec.h ****  * ---------------------------------------------------------
  32:lvgl/src/lv_widgets/../lv_core/lv_obj_style_dec.h ****  *  - For example:
  33:lvgl/src/lv_widgets/../lv_core/lv_obj_style_dec.h ****  *      `lv_obj_set_style_local_border_width(btn1, LV_BTN_PART_MAIN, LV_STATE_PRESSED, 2);`
  34:lvgl/src/lv_widgets/../lv_core/lv_obj_style_dec.h ****  *
  35:lvgl/src/lv_widgets/../lv_core/lv_obj_style_dec.h ****  * Get a local style property's value of an object in a given state
  36:lvgl/src/lv_widgets/../lv_core/lv_obj_style_dec.h ****  * ----------------------------------------------------------------
  37:lvgl/src/lv_widgets/../lv_core/lv_obj_style_dec.h ****  *  - Return the best matching property in the given state.
  38:lvgl/src/lv_widgets/../lv_core/lv_obj_style_dec.h ****  *  - E.g. if `state` parameter is LV_STATE_PRESSED | LV_STATE_CHECKED` but the property defined on
  39:lvgl/src/lv_widgets/../lv_core/lv_obj_style_dec.h ****  *    `LV_STATE_PRESSED` and `LV_STATE_DEFAULT` the best matching state is `LV_STATE_PRESSED`
  40:lvgl/src/lv_widgets/../lv_core/lv_obj_style_dec.h ****  *    (because it has higher precedence) and it will be returned.
  41:lvgl/src/lv_widgets/../lv_core/lv_obj_style_dec.h ****  *  - If the property is not found even in `LV_STATE_DEFAULT` `-1` is returned.
  42:lvgl/src/lv_widgets/../lv_core/lv_obj_style_dec.h ****  *  - For example:
  43:lvgl/src/lv_widgets/../lv_core/lv_obj_style_dec.h ****  *      `//Type of result should be lv_style_int_t/lv_opa_t/lv_color_t/const void * according to th
  44:lvgl/src/lv_widgets/../lv_core/lv_obj_style_dec.h ****  *      `lv_style_int_t result;`
  45:lvgl/src/lv_widgets/../lv_core/lv_obj_style_dec.h ****  *      `lv_obj_get_style_local_border_width(btn1, LV_BTN_PART_MAIN, LV_STATE_PRESSED, &result);`
  46:lvgl/src/lv_widgets/../lv_core/lv_obj_style_dec.h ****  *      `if(weight > 0) ...the property is found and loaded into result...`
  47:lvgl/src/lv_widgets/../lv_core/lv_obj_style_dec.h ****  *
  48:lvgl/src/lv_widgets/../lv_core/lv_obj_style_dec.h ****  * Get the value from a style in a given state
  49:lvgl/src/lv_widgets/../lv_core/lv_obj_style_dec.h ****  * -------------------------------------------
  50:lvgl/src/lv_widgets/../lv_core/lv_obj_style_dec.h ****  * - The same rules applies to the return value then for "lv_obj_get_style_local_...()" above
  51:lvgl/src/lv_widgets/../lv_core/lv_obj_style_dec.h ****  * - For example
  52:lvgl/src/lv_widgets/../lv_core/lv_obj_style_dec.h ****  *      `int16_t weight = lv_style_get_border_width(&style1, LV_STATE_PRESSED, &result);`
  53:lvgl/src/lv_widgets/../lv_core/lv_obj_style_dec.h ****  *      `if(weight > 0) ...the property is found and loaded into result...`
  54:lvgl/src/lv_widgets/../lv_core/lv_obj_style_dec.h **** 
  55:lvgl/src/lv_widgets/../lv_core/lv_obj_style_dec.h ****  * Set a value in a style in a given state
  56:lvgl/src/lv_widgets/../lv_core/lv_obj_style_dec.h ****  * ---------------------------------------
ARM GAS  D:\Temp\ccdlqfAs.s 			page 20


  57:lvgl/src/lv_widgets/../lv_core/lv_obj_style_dec.h ****  * - For example
  58:lvgl/src/lv_widgets/../lv_core/lv_obj_style_dec.h ****  *      `lv_style_set_border_width(&style1, LV_STATE_PRESSED, 2);`
  59:lvgl/src/lv_widgets/../lv_core/lv_obj_style_dec.h ****  */
  60:lvgl/src/lv_widgets/../lv_core/lv_obj_style_dec.h **** 
  61:lvgl/src/lv_widgets/../lv_core/lv_obj_style_dec.h **** #define _OBJ_GET_STYLE_scalar(prop_name, func_name, value_type, style_type)                        
  62:lvgl/src/lv_widgets/../lv_core/lv_obj_style_dec.h ****     static inline value_type lv_obj_get_style_##func_name (const lv_obj_t * obj, uint8_t part)     
  63:lvgl/src/lv_widgets/../lv_core/lv_obj_style_dec.h ****     {                                                                                              
  64:lvgl/src/lv_widgets/../lv_core/lv_obj_style_dec.h ****         return (value_type) _lv_obj_get_style##style_type (obj, part, LV_STYLE_##prop_name);       
  65:lvgl/src/lv_widgets/../lv_core/lv_obj_style_dec.h ****     }
  66:lvgl/src/lv_widgets/../lv_core/lv_obj_style_dec.h **** 
  67:lvgl/src/lv_widgets/../lv_core/lv_obj_style_dec.h **** #define _OBJ_GET_STYLE_nonscalar(prop_name, func_name, value_type, style_type)                     
  68:lvgl/src/lv_widgets/../lv_core/lv_obj_style_dec.h ****     static inline value_type lv_obj_get_style_##func_name (const lv_obj_t * obj, uint8_t part)     
  69:lvgl/src/lv_widgets/../lv_core/lv_obj_style_dec.h ****     {                                                                                              
  70:lvgl/src/lv_widgets/../lv_core/lv_obj_style_dec.h ****         return _lv_obj_get_style##style_type (obj, part, LV_STYLE_##prop_name);                    
  71:lvgl/src/lv_widgets/../lv_core/lv_obj_style_dec.h ****     }
  72:lvgl/src/lv_widgets/../lv_core/lv_obj_style_dec.h **** 
  73:lvgl/src/lv_widgets/../lv_core/lv_obj_style_dec.h **** #define _OBJ_SET_STYLE_LOCAL_scalar(prop_name, func_name, value_type, style_type)                  
  74:lvgl/src/lv_widgets/../lv_core/lv_obj_style_dec.h ****     static inline void lv_obj_set_style_local_##func_name (lv_obj_t * obj, uint8_t part, lv_state_t
  75:lvgl/src/lv_widgets/../lv_core/lv_obj_style_dec.h ****     {                                                                                              
  76:lvgl/src/lv_widgets/../lv_core/lv_obj_style_dec.h ****         _lv_obj_set_style_local##style_type (obj, part, LV_STYLE_##prop_name | (state << LV_STYLE_S
  77:lvgl/src/lv_widgets/../lv_core/lv_obj_style_dec.h ****     }
  78:lvgl/src/lv_widgets/../lv_core/lv_obj_style_dec.h **** 
  79:lvgl/src/lv_widgets/../lv_core/lv_obj_style_dec.h **** #define _OBJ_SET_STYLE_LOCAL_nonscalar(prop_name, func_name, value_type, style_type)               
  80:lvgl/src/lv_widgets/../lv_core/lv_obj_style_dec.h ****     static inline void lv_obj_set_style_local_##func_name (lv_obj_t * obj, uint8_t part, lv_state_t
  81:lvgl/src/lv_widgets/../lv_core/lv_obj_style_dec.h ****     {                                                                                              
  82:lvgl/src/lv_widgets/../lv_core/lv_obj_style_dec.h ****         _lv_obj_set_style_local##style_type (obj, part, LV_STYLE_##prop_name | (state << LV_STYLE_S
  83:lvgl/src/lv_widgets/../lv_core/lv_obj_style_dec.h ****     }
  84:lvgl/src/lv_widgets/../lv_core/lv_obj_style_dec.h **** 
  85:lvgl/src/lv_widgets/../lv_core/lv_obj_style_dec.h **** #define _OBJ_SET_STYLE_scalar(prop_name, func_name, value_type, style_type)                        
  86:lvgl/src/lv_widgets/../lv_core/lv_obj_style_dec.h ****     static inline void lv_style_set_##func_name (lv_style_t * style, lv_state_t state, value_type v
  87:lvgl/src/lv_widgets/../lv_core/lv_obj_style_dec.h ****     {                                                                                              
  88:lvgl/src/lv_widgets/../lv_core/lv_obj_style_dec.h ****         _lv_style_set##style_type (style, LV_STYLE_##prop_name | (state << LV_STYLE_STATE_POS), val
  89:lvgl/src/lv_widgets/../lv_core/lv_obj_style_dec.h ****     }
  90:lvgl/src/lv_widgets/../lv_core/lv_obj_style_dec.h **** 
  91:lvgl/src/lv_widgets/../lv_core/lv_obj_style_dec.h **** #define _OBJ_SET_STYLE_nonscalar(prop_name, func_name, value_type, style_type)                     
  92:lvgl/src/lv_widgets/../lv_core/lv_obj_style_dec.h ****     static inline void lv_style_set_##func_name (lv_style_t * style, lv_state_t state, value_type v
  93:lvgl/src/lv_widgets/../lv_core/lv_obj_style_dec.h ****     {                                                                                              
  94:lvgl/src/lv_widgets/../lv_core/lv_obj_style_dec.h ****         _lv_style_set##style_type (style, LV_STYLE_##prop_name | (state << LV_STYLE_STATE_POS), val
  95:lvgl/src/lv_widgets/../lv_core/lv_obj_style_dec.h ****     }
  96:lvgl/src/lv_widgets/../lv_core/lv_obj_style_dec.h **** 
  97:lvgl/src/lv_widgets/../lv_core/lv_obj_style_dec.h **** #define _LV_OBJ_STYLE_SET_GET_DECLARE(prop_name, func_name, value_type, style_type, scalar)        
  98:lvgl/src/lv_widgets/../lv_core/lv_obj_style_dec.h ****     _OBJ_GET_STYLE_##scalar(prop_name, func_name, value_type, style_type)                          
  99:lvgl/src/lv_widgets/../lv_core/lv_obj_style_dec.h ****     _OBJ_SET_STYLE_LOCAL_##scalar(prop_name, func_name, value_type, style_type)                    
 100:lvgl/src/lv_widgets/../lv_core/lv_obj_style_dec.h ****     _OBJ_SET_STYLE_##scalar(prop_name, func_name, value_type, style_type)
 101:lvgl/src/lv_widgets/../lv_core/lv_obj_style_dec.h **** 
 102:lvgl/src/lv_widgets/../lv_core/lv_obj_style_dec.h **** _LV_OBJ_STYLE_SET_GET_DECLARE(RADIUS, radius, lv_style_int_t, _int, scalar)
 103:lvgl/src/lv_widgets/../lv_core/lv_obj_style_dec.h **** _LV_OBJ_STYLE_SET_GET_DECLARE(CLIP_CORNER, clip_corner, bool, _int, scalar)
 128              		.loc 2 103 1 view .LVU27
 129              	.LBB129:
 130              		.loc 2 103 1 view .LVU28
 131 0034 0222     		movs	r2, #2
 132 0036 0021     		movs	r1, #0
 133 0038 2046     		mov	r0, r4
 134              	.LVL9:
 135              		.loc 2 103 1 is_stmt 0 view .LVU29
 136 003a FFF7FEFF 		bl	_lv_obj_get_style_int
 137              	.LVL10:
ARM GAS  D:\Temp\ccdlqfAs.s 			page 21


 138              		.loc 2 103 1 view .LVU30
 139              	.LBE129:
 140              	.LBE128:
 576:lvgl/src/lv_widgets/lv_img.c **** 
 141              		.loc 1 576 11 view .LVU31
 142 003e 0028     		cmp	r0, #0
 143 0040 40F0C582 		bne	.L26
 578:lvgl/src/lv_widgets/lv_img.c **** 
 144              		.loc 1 578 9 is_stmt 1 view .LVU32
 578:lvgl/src/lv_widgets/lv_img.c **** 
 145              		.loc 1 578 26 is_stmt 0 view .LVU33
 146 0044 2B7D     		ldrb	r3, [r5, #20]	@ zero_extendqisi2
 578:lvgl/src/lv_widgets/lv_img.c **** 
 147              		.loc 1 578 11 view .LVU34
 148 0046 13F0020F 		tst	r3, #2
 149 004a 40F0C282 		bne	.L27
 581:lvgl/src/lv_widgets/lv_img.c **** 
 150              		.loc 1 581 9 is_stmt 1 view .LVU35
 581:lvgl/src/lv_widgets/lv_img.c **** 
 151              		.loc 1 581 20 is_stmt 0 view .LVU36
 152 004e 03F0F803 		and	r3, r3, #248
 581:lvgl/src/lv_widgets/lv_img.c **** 
 153              		.loc 1 581 11 view .LVU37
 154 0052 202B     		cmp	r3, #32
 155 0054 02D0     		beq	.L7
 581:lvgl/src/lv_widgets/lv_img.c **** 
 156              		.loc 1 581 44 discriminator 1 view .LVU38
 157 0056 082B     		cmp	r3, #8
 158 0058 40F0BD82 		bne	.L28
 159              	.L7:
 584:lvgl/src/lv_widgets/lv_img.c **** 
 160              		.loc 1 584 9 is_stmt 1 view .LVU39
 161              	.LVL11:
 162              	.LBB130:
 163              	.LBI130:
 104:lvgl/src/lv_widgets/../lv_core/lv_obj_style_dec.h **** _LV_OBJ_STYLE_SET_GET_DECLARE(SIZE, size, lv_style_int_t, _int, scalar)
 105:lvgl/src/lv_widgets/../lv_core/lv_obj_style_dec.h **** _LV_OBJ_STYLE_SET_GET_DECLARE(TRANSFORM_WIDTH, transform_width, lv_style_int_t, _int, scalar)
 106:lvgl/src/lv_widgets/../lv_core/lv_obj_style_dec.h **** _LV_OBJ_STYLE_SET_GET_DECLARE(TRANSFORM_HEIGHT, transform_height, lv_style_int_t, _int, scalar)
 107:lvgl/src/lv_widgets/../lv_core/lv_obj_style_dec.h **** _LV_OBJ_STYLE_SET_GET_DECLARE(TRANSFORM_ANGLE, transform_angle, lv_style_int_t, _int, scalar)
 108:lvgl/src/lv_widgets/../lv_core/lv_obj_style_dec.h **** _LV_OBJ_STYLE_SET_GET_DECLARE(TRANSFORM_ZOOM, transform_zoom, lv_style_int_t, _int, scalar)
 109:lvgl/src/lv_widgets/../lv_core/lv_obj_style_dec.h **** _LV_OBJ_STYLE_SET_GET_DECLARE(OPA_SCALE, opa_scale, lv_opa_t, _opa, scalar)
 110:lvgl/src/lv_widgets/../lv_core/lv_obj_style_dec.h **** _LV_OBJ_STYLE_SET_GET_DECLARE(PAD_TOP, pad_top, lv_style_int_t, _int, scalar)
 111:lvgl/src/lv_widgets/../lv_core/lv_obj_style_dec.h **** _LV_OBJ_STYLE_SET_GET_DECLARE(PAD_BOTTOM, pad_bottom, lv_style_int_t, _int, scalar)
 112:lvgl/src/lv_widgets/../lv_core/lv_obj_style_dec.h **** _LV_OBJ_STYLE_SET_GET_DECLARE(PAD_LEFT, pad_left, lv_style_int_t, _int, scalar)
 113:lvgl/src/lv_widgets/../lv_core/lv_obj_style_dec.h **** _LV_OBJ_STYLE_SET_GET_DECLARE(PAD_RIGHT, pad_right, lv_style_int_t, _int, scalar)
 114:lvgl/src/lv_widgets/../lv_core/lv_obj_style_dec.h **** _LV_OBJ_STYLE_SET_GET_DECLARE(PAD_INNER, pad_inner, lv_style_int_t, _int, scalar)
 115:lvgl/src/lv_widgets/../lv_core/lv_obj_style_dec.h **** _LV_OBJ_STYLE_SET_GET_DECLARE(MARGIN_TOP, margin_top, lv_style_int_t, _int, scalar)
 116:lvgl/src/lv_widgets/../lv_core/lv_obj_style_dec.h **** _LV_OBJ_STYLE_SET_GET_DECLARE(MARGIN_BOTTOM, margin_bottom, lv_style_int_t, _int, scalar)
 117:lvgl/src/lv_widgets/../lv_core/lv_obj_style_dec.h **** _LV_OBJ_STYLE_SET_GET_DECLARE(MARGIN_LEFT, margin_left, lv_style_int_t, _int, scalar)
 118:lvgl/src/lv_widgets/../lv_core/lv_obj_style_dec.h **** _LV_OBJ_STYLE_SET_GET_DECLARE(MARGIN_RIGHT, margin_right, lv_style_int_t, _int, scalar)
 119:lvgl/src/lv_widgets/../lv_core/lv_obj_style_dec.h **** _LV_OBJ_STYLE_SET_GET_DECLARE(BG_BLEND_MODE, bg_blend_mode, lv_blend_mode_t, _int, scalar)
 120:lvgl/src/lv_widgets/../lv_core/lv_obj_style_dec.h **** _LV_OBJ_STYLE_SET_GET_DECLARE(BG_MAIN_STOP, bg_main_stop, lv_style_int_t, _int, scalar)
 121:lvgl/src/lv_widgets/../lv_core/lv_obj_style_dec.h **** _LV_OBJ_STYLE_SET_GET_DECLARE(BG_GRAD_STOP, bg_grad_stop, lv_style_int_t, _int, scalar)
 122:lvgl/src/lv_widgets/../lv_core/lv_obj_style_dec.h **** _LV_OBJ_STYLE_SET_GET_DECLARE(BG_GRAD_DIR, bg_grad_dir, lv_grad_dir_t, _int, scalar)
 123:lvgl/src/lv_widgets/../lv_core/lv_obj_style_dec.h **** _LV_OBJ_STYLE_SET_GET_DECLARE(BG_COLOR, bg_color, lv_color_t, _color, nonscalar)
 124:lvgl/src/lv_widgets/../lv_core/lv_obj_style_dec.h **** _LV_OBJ_STYLE_SET_GET_DECLARE(BG_GRAD_COLOR, bg_grad_color, lv_color_t, _color, nonscalar)
 125:lvgl/src/lv_widgets/../lv_core/lv_obj_style_dec.h **** _LV_OBJ_STYLE_SET_GET_DECLARE(BG_OPA, bg_opa, lv_opa_t, _opa, scalar)
ARM GAS  D:\Temp\ccdlqfAs.s 			page 22


 126:lvgl/src/lv_widgets/../lv_core/lv_obj_style_dec.h **** _LV_OBJ_STYLE_SET_GET_DECLARE(BORDER_WIDTH, border_width, lv_style_int_t, _int, scalar)
 127:lvgl/src/lv_widgets/../lv_core/lv_obj_style_dec.h **** _LV_OBJ_STYLE_SET_GET_DECLARE(BORDER_SIDE, border_side, lv_border_side_t, _int, scalar)
 128:lvgl/src/lv_widgets/../lv_core/lv_obj_style_dec.h **** _LV_OBJ_STYLE_SET_GET_DECLARE(BORDER_BLEND_MODE, border_blend_mode, lv_blend_mode_t, _int, scalar)
 129:lvgl/src/lv_widgets/../lv_core/lv_obj_style_dec.h **** _LV_OBJ_STYLE_SET_GET_DECLARE(BORDER_POST, border_post, bool, _int, scalar)
 130:lvgl/src/lv_widgets/../lv_core/lv_obj_style_dec.h **** _LV_OBJ_STYLE_SET_GET_DECLARE(BORDER_COLOR, border_color, lv_color_t, _color, nonscalar)
 131:lvgl/src/lv_widgets/../lv_core/lv_obj_style_dec.h **** _LV_OBJ_STYLE_SET_GET_DECLARE(BORDER_OPA, border_opa, lv_opa_t, _opa, scalar)
 132:lvgl/src/lv_widgets/../lv_core/lv_obj_style_dec.h **** _LV_OBJ_STYLE_SET_GET_DECLARE(OUTLINE_WIDTH, outline_width, lv_style_int_t, _int, scalar)
 133:lvgl/src/lv_widgets/../lv_core/lv_obj_style_dec.h **** _LV_OBJ_STYLE_SET_GET_DECLARE(OUTLINE_PAD, outline_pad, lv_style_int_t, _int, scalar)
 134:lvgl/src/lv_widgets/../lv_core/lv_obj_style_dec.h **** _LV_OBJ_STYLE_SET_GET_DECLARE(OUTLINE_BLEND_MODE, outline_blend_mode, lv_blend_mode_t, _int, scalar
 135:lvgl/src/lv_widgets/../lv_core/lv_obj_style_dec.h **** _LV_OBJ_STYLE_SET_GET_DECLARE(OUTLINE_COLOR, outline_color, lv_color_t, _color, nonscalar)
 136:lvgl/src/lv_widgets/../lv_core/lv_obj_style_dec.h **** _LV_OBJ_STYLE_SET_GET_DECLARE(OUTLINE_OPA, outline_opa, lv_opa_t, _opa, scalar)
 137:lvgl/src/lv_widgets/../lv_core/lv_obj_style_dec.h **** _LV_OBJ_STYLE_SET_GET_DECLARE(SHADOW_WIDTH, shadow_width, lv_style_int_t, _int, scalar)
 138:lvgl/src/lv_widgets/../lv_core/lv_obj_style_dec.h **** _LV_OBJ_STYLE_SET_GET_DECLARE(SHADOW_OFS_X, shadow_ofs_x, lv_style_int_t, _int, scalar)
 139:lvgl/src/lv_widgets/../lv_core/lv_obj_style_dec.h **** _LV_OBJ_STYLE_SET_GET_DECLARE(SHADOW_OFS_Y, shadow_ofs_y, lv_style_int_t, _int, scalar)
 140:lvgl/src/lv_widgets/../lv_core/lv_obj_style_dec.h **** _LV_OBJ_STYLE_SET_GET_DECLARE(SHADOW_SPREAD, shadow_spread, lv_style_int_t, _int, scalar)
 141:lvgl/src/lv_widgets/../lv_core/lv_obj_style_dec.h **** _LV_OBJ_STYLE_SET_GET_DECLARE(SHADOW_BLEND_MODE, shadow_blend_mode, lv_blend_mode_t, _int, scalar)
 142:lvgl/src/lv_widgets/../lv_core/lv_obj_style_dec.h **** _LV_OBJ_STYLE_SET_GET_DECLARE(SHADOW_COLOR, shadow_color, lv_color_t, _color, nonscalar)
 143:lvgl/src/lv_widgets/../lv_core/lv_obj_style_dec.h **** _LV_OBJ_STYLE_SET_GET_DECLARE(SHADOW_OPA, shadow_opa, lv_opa_t, _opa, scalar)
 144:lvgl/src/lv_widgets/../lv_core/lv_obj_style_dec.h **** _LV_OBJ_STYLE_SET_GET_DECLARE(PATTERN_REPEAT, pattern_repeat, bool, _int, scalar)
 145:lvgl/src/lv_widgets/../lv_core/lv_obj_style_dec.h **** _LV_OBJ_STYLE_SET_GET_DECLARE(PATTERN_BLEND_MODE, pattern_blend_mode, lv_blend_mode_t, _int, scalar
 146:lvgl/src/lv_widgets/../lv_core/lv_obj_style_dec.h **** _LV_OBJ_STYLE_SET_GET_DECLARE(PATTERN_RECOLOR, pattern_recolor, lv_color_t, _color, nonscalar)
 147:lvgl/src/lv_widgets/../lv_core/lv_obj_style_dec.h **** _LV_OBJ_STYLE_SET_GET_DECLARE(PATTERN_OPA, pattern_opa, lv_opa_t, _opa, scalar)
 148:lvgl/src/lv_widgets/../lv_core/lv_obj_style_dec.h **** _LV_OBJ_STYLE_SET_GET_DECLARE(PATTERN_RECOLOR_OPA, pattern_recolor_opa, lv_opa_t, _opa, scalar)
 149:lvgl/src/lv_widgets/../lv_core/lv_obj_style_dec.h **** _LV_OBJ_STYLE_SET_GET_DECLARE(PATTERN_IMAGE, pattern_image, const void *, _ptr, scalar)
 150:lvgl/src/lv_widgets/../lv_core/lv_obj_style_dec.h **** _LV_OBJ_STYLE_SET_GET_DECLARE(VALUE_LETTER_SPACE, value_letter_space, lv_style_int_t, _int, scalar)
 151:lvgl/src/lv_widgets/../lv_core/lv_obj_style_dec.h **** _LV_OBJ_STYLE_SET_GET_DECLARE(VALUE_LINE_SPACE, value_line_space, lv_style_int_t, _int, scalar)
 152:lvgl/src/lv_widgets/../lv_core/lv_obj_style_dec.h **** _LV_OBJ_STYLE_SET_GET_DECLARE(VALUE_BLEND_MODE, value_blend_mode, lv_blend_mode_t, _int, scalar)
 153:lvgl/src/lv_widgets/../lv_core/lv_obj_style_dec.h **** _LV_OBJ_STYLE_SET_GET_DECLARE(VALUE_OFS_X, value_ofs_x, lv_style_int_t, _int, scalar)
 154:lvgl/src/lv_widgets/../lv_core/lv_obj_style_dec.h **** _LV_OBJ_STYLE_SET_GET_DECLARE(VALUE_OFS_Y, value_ofs_y, lv_style_int_t, _int, scalar)
 155:lvgl/src/lv_widgets/../lv_core/lv_obj_style_dec.h **** _LV_OBJ_STYLE_SET_GET_DECLARE(VALUE_ALIGN, value_align, lv_align_t, _int, scalar)
 156:lvgl/src/lv_widgets/../lv_core/lv_obj_style_dec.h **** _LV_OBJ_STYLE_SET_GET_DECLARE(VALUE_COLOR, value_color, lv_color_t, _color, nonscalar)
 157:lvgl/src/lv_widgets/../lv_core/lv_obj_style_dec.h **** _LV_OBJ_STYLE_SET_GET_DECLARE(VALUE_OPA, value_opa, lv_opa_t, _opa, scalar)
 158:lvgl/src/lv_widgets/../lv_core/lv_obj_style_dec.h **** _LV_OBJ_STYLE_SET_GET_DECLARE(VALUE_FONT, value_font, const lv_font_t *, _ptr, scalar)
 159:lvgl/src/lv_widgets/../lv_core/lv_obj_style_dec.h **** _LV_OBJ_STYLE_SET_GET_DECLARE(VALUE_STR, value_str, const char *, _ptr, scalar)
 160:lvgl/src/lv_widgets/../lv_core/lv_obj_style_dec.h **** _LV_OBJ_STYLE_SET_GET_DECLARE(TEXT_LETTER_SPACE, text_letter_space, lv_style_int_t, _int, scalar)
 161:lvgl/src/lv_widgets/../lv_core/lv_obj_style_dec.h **** _LV_OBJ_STYLE_SET_GET_DECLARE(TEXT_LINE_SPACE, text_line_space, lv_style_int_t, _int, scalar)
 162:lvgl/src/lv_widgets/../lv_core/lv_obj_style_dec.h **** _LV_OBJ_STYLE_SET_GET_DECLARE(TEXT_DECOR, text_decor, lv_text_decor_t, _int, scalar)
 163:lvgl/src/lv_widgets/../lv_core/lv_obj_style_dec.h **** _LV_OBJ_STYLE_SET_GET_DECLARE(TEXT_BLEND_MODE, text_blend_mode, lv_blend_mode_t, _int, scalar)
 164:lvgl/src/lv_widgets/../lv_core/lv_obj_style_dec.h **** _LV_OBJ_STYLE_SET_GET_DECLARE(TEXT_COLOR, text_color, lv_color_t, _color, nonscalar)
 165:lvgl/src/lv_widgets/../lv_core/lv_obj_style_dec.h **** _LV_OBJ_STYLE_SET_GET_DECLARE(TEXT_SEL_COLOR, text_sel_color, lv_color_t, _color, nonscalar)
 166:lvgl/src/lv_widgets/../lv_core/lv_obj_style_dec.h **** _LV_OBJ_STYLE_SET_GET_DECLARE(TEXT_SEL_BG_COLOR, text_sel_bg_color, lv_color_t, _color, nonscalar)
 167:lvgl/src/lv_widgets/../lv_core/lv_obj_style_dec.h **** _LV_OBJ_STYLE_SET_GET_DECLARE(TEXT_OPA, text_opa, lv_opa_t, _opa, scalar)
 168:lvgl/src/lv_widgets/../lv_core/lv_obj_style_dec.h **** _LV_OBJ_STYLE_SET_GET_DECLARE(TEXT_FONT, text_font, const lv_font_t *, _ptr, scalar)
 169:lvgl/src/lv_widgets/../lv_core/lv_obj_style_dec.h **** _LV_OBJ_STYLE_SET_GET_DECLARE(LINE_WIDTH, line_width, lv_style_int_t, _int, scalar)
 170:lvgl/src/lv_widgets/../lv_core/lv_obj_style_dec.h **** _LV_OBJ_STYLE_SET_GET_DECLARE(LINE_BLEND_MODE, line_blend_mode, lv_blend_mode_t, _int, scalar)
 171:lvgl/src/lv_widgets/../lv_core/lv_obj_style_dec.h **** _LV_OBJ_STYLE_SET_GET_DECLARE(LINE_DASH_WIDTH, line_dash_width, lv_style_int_t, _int, scalar)
 172:lvgl/src/lv_widgets/../lv_core/lv_obj_style_dec.h **** _LV_OBJ_STYLE_SET_GET_DECLARE(LINE_DASH_GAP, line_dash_gap, lv_style_int_t, _int, scalar)
 173:lvgl/src/lv_widgets/../lv_core/lv_obj_style_dec.h **** _LV_OBJ_STYLE_SET_GET_DECLARE(LINE_ROUNDED, line_rounded, bool, _int, scalar)
 174:lvgl/src/lv_widgets/../lv_core/lv_obj_style_dec.h **** _LV_OBJ_STYLE_SET_GET_DECLARE(LINE_COLOR, line_color, lv_color_t, _color, nonscalar)
 175:lvgl/src/lv_widgets/../lv_core/lv_obj_style_dec.h **** _LV_OBJ_STYLE_SET_GET_DECLARE(LINE_OPA, line_opa, lv_opa_t, _opa, scalar)
 176:lvgl/src/lv_widgets/../lv_core/lv_obj_style_dec.h **** _LV_OBJ_STYLE_SET_GET_DECLARE(IMAGE_BLEND_MODE, image_blend_mode, lv_blend_mode_t, _int, scalar)
 177:lvgl/src/lv_widgets/../lv_core/lv_obj_style_dec.h **** _LV_OBJ_STYLE_SET_GET_DECLARE(IMAGE_RECOLOR, image_recolor, lv_color_t, _color, nonscalar)
 178:lvgl/src/lv_widgets/../lv_core/lv_obj_style_dec.h **** _LV_OBJ_STYLE_SET_GET_DECLARE(IMAGE_OPA, image_opa, lv_opa_t, _opa, scalar)
 164              		.loc 2 178 1 view .LVU40
 165              	.LBB131:
 166              		.loc 2 178 1 view .LVU41
 167 005c 48F2AC02 		movw	r2, #32940
ARM GAS  D:\Temp\ccdlqfAs.s 			page 23


 168 0060 0021     		movs	r1, #0
 169 0062 2046     		mov	r0, r4
 170 0064 FFF7FEFF 		bl	_lv_obj_get_style_opa
 171              	.LVL12:
 172              		.loc 2 178 1 is_stmt 0 view .LVU42
 173              	.LBE131:
 174              	.LBE130:
 584:lvgl/src/lv_widgets/lv_img.c **** 
 175              		.loc 1 584 11 view .LVU43
 176 0068 FF28     		cmp	r0, #255
 177 006a 01D0     		beq	.L41
 584:lvgl/src/lv_widgets/lv_img.c **** 
 178              		.loc 1 584 86 view .LVU44
 179 006c 0220     		movs	r0, #2
 180 006e 16E2     		b	.L6
 181              	.L41:
 586:lvgl/src/lv_widgets/lv_img.c ****         angle_final += ext->angle;
 182              		.loc 1 586 9 is_stmt 1 view .LVU45
 183              	.LVL13:
 184              	.LBB132:
 185              	.LBI132:
 107:lvgl/src/lv_widgets/../lv_core/lv_obj_style_dec.h **** _LV_OBJ_STYLE_SET_GET_DECLARE(TRANSFORM_ZOOM, transform_zoom, lv_style_int_t, _int, scalar)
 186              		.loc 2 107 1 view .LVU46
 187              	.LBB133:
 107:lvgl/src/lv_widgets/../lv_core/lv_obj_style_dec.h **** _LV_OBJ_STYLE_SET_GET_DECLARE(TRANSFORM_ZOOM, transform_zoom, lv_style_int_t, _int, scalar)
 188              		.loc 2 107 1 view .LVU47
 189 0070 0622     		movs	r2, #6
 190 0072 0021     		movs	r1, #0
 191 0074 2046     		mov	r0, r4
 192 0076 FFF7FEFF 		bl	_lv_obj_get_style_int
 193              	.LVL14:
 107:lvgl/src/lv_widgets/../lv_core/lv_obj_style_dec.h **** _LV_OBJ_STYLE_SET_GET_DECLARE(TRANSFORM_ZOOM, transform_zoom, lv_style_int_t, _int, scalar)
 194              		.loc 2 107 1 is_stmt 0 view .LVU48
 195              	.LBE133:
 196              	.LBE132:
 587:lvgl/src/lv_widgets/lv_img.c **** 
 197              		.loc 1 587 9 is_stmt 1 view .LVU49
 587:lvgl/src/lv_widgets/lv_img.c **** 
 198              		.loc 1 587 27 is_stmt 0 view .LVU50
 199 007a AB89     		ldrh	r3, [r5, #12]
 200              	.LVL15:
 589:lvgl/src/lv_widgets/lv_img.c **** 
 201              		.loc 1 589 9 is_stmt 1 view .LVU51
 589:lvgl/src/lv_widgets/lv_img.c **** 
 202              		.loc 1 589 11 is_stmt 0 view .LVU52
 203 007c C342     		cmn	r3, r0
 204 007e 40F0AC82 		bne	.L30
 591:lvgl/src/lv_widgets/lv_img.c ****         zoom_final = (zoom_final * ext->zoom) >> 8;
 205              		.loc 1 591 9 is_stmt 1 view .LVU53
 206              	.LVL16:
 207              	.LBB134:
 208              	.LBI134:
 108:lvgl/src/lv_widgets/../lv_core/lv_obj_style_dec.h **** _LV_OBJ_STYLE_SET_GET_DECLARE(OPA_SCALE, opa_scale, lv_opa_t, _opa, scalar)
 209              		.loc 2 108 1 view .LVU54
 210              	.LBB135:
 108:lvgl/src/lv_widgets/../lv_core/lv_obj_style_dec.h **** _LV_OBJ_STYLE_SET_GET_DECLARE(OPA_SCALE, opa_scale, lv_opa_t, _opa, scalar)
 211              		.loc 2 108 1 view .LVU55
ARM GAS  D:\Temp\ccdlqfAs.s 			page 24


 212 0082 0722     		movs	r2, #7
 213 0084 0021     		movs	r1, #0
 214 0086 2046     		mov	r0, r4
 215              	.LVL17:
 108:lvgl/src/lv_widgets/../lv_core/lv_obj_style_dec.h **** _LV_OBJ_STYLE_SET_GET_DECLARE(OPA_SCALE, opa_scale, lv_opa_t, _opa, scalar)
 216              		.loc 2 108 1 is_stmt 0 view .LVU56
 217 0088 FFF7FEFF 		bl	_lv_obj_get_style_int
 218              	.LVL18:
 108:lvgl/src/lv_widgets/../lv_core/lv_obj_style_dec.h **** _LV_OBJ_STYLE_SET_GET_DECLARE(OPA_SCALE, opa_scale, lv_opa_t, _opa, scalar)
 219              		.loc 2 108 1 view .LVU57
 220              	.LBE135:
 221              	.LBE134:
 592:lvgl/src/lv_widgets/lv_img.c **** 
 222              		.loc 1 592 9 is_stmt 1 view .LVU58
 592:lvgl/src/lv_widgets/lv_img.c **** 
 223              		.loc 1 592 39 is_stmt 0 view .LVU59
 224 008c 6F8A     		ldrh	r7, [r5, #18]
 592:lvgl/src/lv_widgets/lv_img.c **** 
 225              		.loc 1 592 34 view .LVU60
 226 008e 00FB07F7 		mul	r7, r0, r7
 592:lvgl/src/lv_widgets/lv_img.c **** 
 227              		.loc 1 592 20 view .LVU61
 228 0092 3F12     		asrs	r7, r7, #8
 229              	.LVL19:
 594:lvgl/src/lv_widgets/lv_img.c ****             if(_lv_area_is_in(clip_area, &img->coords, 0) == false) return LV_DESIGN_RES_NOT_COVER;
 230              		.loc 1 594 9 is_stmt 1 view .LVU62
 594:lvgl/src/lv_widgets/lv_img.c ****             if(_lv_area_is_in(clip_area, &img->coords, 0) == false) return LV_DESIGN_RES_NOT_COVER;
 231              		.loc 1 594 11 is_stmt 0 view .LVU63
 232 0094 B7F5807F 		cmp	r7, #256
 233 0098 3FD0     		beq	.L42
 234              	.LBB136:
 598:lvgl/src/lv_widgets/lv_img.c ****             _lv_img_buf_get_transformed_area(&a, lv_obj_get_width(img), lv_obj_get_height(img), 0, 
 235              		.loc 1 598 13 is_stmt 1 view .LVU64
 599:lvgl/src/lv_widgets/lv_img.c ****             a.x1 += img->coords.x1;
 236              		.loc 1 599 13 view .LVU65
 237 009a 2046     		mov	r0, r4
 238 009c FFF7FEFF 		bl	lv_obj_get_width
 239              	.LVL20:
 240 00a0 8046     		mov	r8, r0
 241 00a2 2046     		mov	r0, r4
 242 00a4 FFF7FEFF 		bl	lv_obj_get_height
 243              	.LVL21:
 599:lvgl/src/lv_widgets/lv_img.c ****             a.x1 += img->coords.x1;
 244              		.loc 1 599 112 is_stmt 0 view .LVU66
 245 00a8 0E35     		adds	r5, r5, #14
 246              	.LVL22:
 599:lvgl/src/lv_widgets/lv_img.c ****             a.x1 += img->coords.x1;
 247              		.loc 1 599 13 view .LVU67
 248 00aa 0195     		str	r5, [sp, #4]
 249 00ac BFB2     		uxth	r7, r7
 250              	.LVL23:
 599:lvgl/src/lv_widgets/lv_img.c ****             a.x1 += img->coords.x1;
 251              		.loc 1 599 13 view .LVU68
 252 00ae 0097     		str	r7, [sp]
 253 00b0 0023     		movs	r3, #0
 254 00b2 0246     		mov	r2, r0
 255 00b4 4146     		mov	r1, r8
ARM GAS  D:\Temp\ccdlqfAs.s 			page 25


 256 00b6 17A8     		add	r0, sp, #92
 257 00b8 FFF7FEFF 		bl	_lv_img_buf_get_transformed_area
 258              	.LVL24:
 600:lvgl/src/lv_widgets/lv_img.c ****             a.y1 += img->coords.y1;
 259              		.loc 1 600 13 is_stmt 1 view .LVU69
 600:lvgl/src/lv_widgets/lv_img.c ****             a.y1 += img->coords.y1;
 260              		.loc 1 600 32 is_stmt 0 view .LVU70
 261 00bc 228A     		ldrh	r2, [r4, #16]
 600:lvgl/src/lv_widgets/lv_img.c ****             a.y1 += img->coords.y1;
 262              		.loc 1 600 18 view .LVU71
 263 00be BDF85C30 		ldrh	r3, [sp, #92]
 264 00c2 1344     		add	r3, r3, r2
 265 00c4 ADF85C30 		strh	r3, [sp, #92]	@ movhi
 601:lvgl/src/lv_widgets/lv_img.c ****             a.x2 += img->coords.x1;
 266              		.loc 1 601 13 is_stmt 1 view .LVU72
 601:lvgl/src/lv_widgets/lv_img.c ****             a.x2 += img->coords.x1;
 267              		.loc 1 601 32 is_stmt 0 view .LVU73
 268 00c8 638A     		ldrh	r3, [r4, #18]
 601:lvgl/src/lv_widgets/lv_img.c ****             a.x2 += img->coords.x1;
 269              		.loc 1 601 18 view .LVU74
 270 00ca BDF85E10 		ldrh	r1, [sp, #94]
 271 00ce 1944     		add	r1, r1, r3
 272 00d0 ADF85E10 		strh	r1, [sp, #94]	@ movhi
 602:lvgl/src/lv_widgets/lv_img.c ****             a.y2 += img->coords.y1;
 273              		.loc 1 602 13 is_stmt 1 view .LVU75
 602:lvgl/src/lv_widgets/lv_img.c ****             a.y2 += img->coords.y1;
 274              		.loc 1 602 18 is_stmt 0 view .LVU76
 275 00d4 BDF86010 		ldrh	r1, [sp, #96]
 276 00d8 0A44     		add	r2, r2, r1
 277 00da ADF86020 		strh	r2, [sp, #96]	@ movhi
 603:lvgl/src/lv_widgets/lv_img.c **** 
 278              		.loc 1 603 13 is_stmt 1 view .LVU77
 603:lvgl/src/lv_widgets/lv_img.c **** 
 279              		.loc 1 603 18 is_stmt 0 view .LVU78
 280 00de BDF86220 		ldrh	r2, [sp, #98]
 281 00e2 1344     		add	r3, r3, r2
 282 00e4 ADF86230 		strh	r3, [sp, #98]	@ movhi
 605:lvgl/src/lv_widgets/lv_img.c ****         }
 283              		.loc 1 605 13 is_stmt 1 view .LVU79
 605:lvgl/src/lv_widgets/lv_img.c ****         }
 284              		.loc 1 605 16 is_stmt 0 view .LVU80
 285 00e8 0022     		movs	r2, #0
 286 00ea 17A9     		add	r1, sp, #92
 287 00ec 3046     		mov	r0, r6
 288 00ee FFF7FEFF 		bl	_lv_area_is_in
 289              	.LVL25:
 605:lvgl/src/lv_widgets/lv_img.c ****         }
 290              		.loc 1 605 15 view .LVU81
 291 00f2 E0B1     		cbz	r0, .L43
 292              	.LVL26:
 293              	.L9:
 605:lvgl/src/lv_widgets/lv_img.c ****         }
 294              		.loc 1 605 15 view .LVU82
 295              	.LBE136:
 609:lvgl/src/lv_widgets/lv_img.c ****         if(lv_obj_get_style_image_blend_mode(img, LV_IMG_PART_MAIN) != LV_BLEND_MODE_NORMAL) return
 296              		.loc 1 609 9 is_stmt 1 view .LVU83
 297              	.LBB137:
ARM GAS  D:\Temp\ccdlqfAs.s 			page 26


 298              	.LBI137:
 119:lvgl/src/lv_widgets/../lv_core/lv_obj_style_dec.h **** _LV_OBJ_STYLE_SET_GET_DECLARE(BG_MAIN_STOP, bg_main_stop, lv_style_int_t, _int, scalar)
 299              		.loc 2 119 1 view .LVU84
 300              	.LBB138:
 119:lvgl/src/lv_widgets/../lv_core/lv_obj_style_dec.h **** _LV_OBJ_STYLE_SET_GET_DECLARE(BG_MAIN_STOP, bg_main_stop, lv_style_int_t, _int, scalar)
 301              		.loc 2 119 1 view .LVU85
 302 00f4 2022     		movs	r2, #32
 303 00f6 0021     		movs	r1, #0
 304 00f8 2046     		mov	r0, r4
 305 00fa FFF7FEFF 		bl	_lv_obj_get_style_int
 306              	.LVL27:
 307 00fe C0B2     		uxtb	r0, r0
 308              	.LVL28:
 119:lvgl/src/lv_widgets/../lv_core/lv_obj_style_dec.h **** _LV_OBJ_STYLE_SET_GET_DECLARE(BG_MAIN_STOP, bg_main_stop, lv_style_int_t, _int, scalar)
 309              		.loc 2 119 1 is_stmt 0 view .LVU86
 310              	.LBE138:
 311              	.LBE137:
 609:lvgl/src/lv_widgets/lv_img.c ****         if(lv_obj_get_style_image_blend_mode(img, LV_IMG_PART_MAIN) != LV_BLEND_MODE_NORMAL) return
 312              		.loc 1 609 11 view .LVU87
 313 0100 0028     		cmp	r0, #0
 314 0102 40F06C82 		bne	.L31
 610:lvgl/src/lv_widgets/lv_img.c **** #endif
 315              		.loc 1 610 9 is_stmt 1 view .LVU88
 316              	.LVL29:
 317              	.LBB139:
 318              	.LBI139:
 176:lvgl/src/lv_widgets/../lv_core/lv_obj_style_dec.h **** _LV_OBJ_STYLE_SET_GET_DECLARE(IMAGE_RECOLOR, image_recolor, lv_color_t, _color, nonscalar)
 319              		.loc 2 176 1 view .LVU89
 320              	.LBB140:
 176:lvgl/src/lv_widgets/../lv_core/lv_obj_style_dec.h **** _LV_OBJ_STYLE_SET_GET_DECLARE(IMAGE_RECOLOR, image_recolor, lv_color_t, _color, nonscalar)
 321              		.loc 2 176 1 view .LVU90
 322 0106 48F2A002 		movw	r2, #32928
 323 010a 0021     		movs	r1, #0
 324 010c 2046     		mov	r0, r4
 325 010e FFF7FEFF 		bl	_lv_obj_get_style_int
 326              	.LVL30:
 327 0112 C0B2     		uxtb	r0, r0
 328              	.LVL31:
 176:lvgl/src/lv_widgets/../lv_core/lv_obj_style_dec.h **** _LV_OBJ_STYLE_SET_GET_DECLARE(IMAGE_RECOLOR, image_recolor, lv_color_t, _color, nonscalar)
 329              		.loc 2 176 1 is_stmt 0 view .LVU91
 330              	.LBE140:
 331              	.LBE139:
 610:lvgl/src/lv_widgets/lv_img.c **** #endif
 332              		.loc 1 610 11 view .LVU92
 333 0114 68B9     		cbnz	r0, .L44
 613:lvgl/src/lv_widgets/lv_img.c ****     }
 334              		.loc 1 613 16 view .LVU93
 335 0116 0120     		movs	r0, #1
 336 0118 C1E1     		b	.L6
 337              	.LVL32:
 338              	.L42:
 595:lvgl/src/lv_widgets/lv_img.c ****         }
 339              		.loc 1 595 13 is_stmt 1 view .LVU94
 595:lvgl/src/lv_widgets/lv_img.c ****         }
 340              		.loc 1 595 16 is_stmt 0 view .LVU95
 341 011a 0022     		movs	r2, #0
 342 011c 04F11001 		add	r1, r4, #16
ARM GAS  D:\Temp\ccdlqfAs.s 			page 27


 343 0120 3046     		mov	r0, r6
 344 0122 FFF7FEFF 		bl	_lv_area_is_in
 345              	.LVL33:
 595:lvgl/src/lv_widgets/lv_img.c ****         }
 346              		.loc 1 595 15 view .LVU96
 347 0126 0028     		cmp	r0, #0
 348 0128 E4D1     		bne	.L9
 595:lvgl/src/lv_widgets/lv_img.c ****         }
 349              		.loc 1 595 76 view .LVU97
 350 012a 0220     		movs	r0, #2
 351 012c B7E1     		b	.L6
 352              	.LVL34:
 353              	.L43:
 354              	.LBB141:
 605:lvgl/src/lv_widgets/lv_img.c ****         }
 355              		.loc 1 605 59 is_stmt 1 discriminator 1 view .LVU98
 605:lvgl/src/lv_widgets/lv_img.c ****         }
 356              		.loc 1 605 66 is_stmt 0 discriminator 1 view .LVU99
 357 012e 0220     		movs	r0, #2
 358 0130 B5E1     		b	.L6
 359              	.LVL35:
 360              	.L44:
 605:lvgl/src/lv_widgets/lv_img.c ****         }
 361              		.loc 1 605 66 discriminator 1 view .LVU100
 362              	.LBE141:
 610:lvgl/src/lv_widgets/lv_img.c **** #endif
 363              		.loc 1 610 101 view .LVU101
 364 0132 0220     		movs	r0, #2
 365 0134 B3E1     		b	.L6
 366              	.LVL36:
 367              	.L40:
 610:lvgl/src/lv_widgets/lv_img.c **** #endif
 368              		.loc 1 610 101 view .LVU102
 369              	.LBE127:
 370              	.LBB142:
 618:lvgl/src/lv_widgets/lv_img.c ****         lv_draw_rect_dsc_init(&bg_dsc);
 371              		.loc 1 618 9 is_stmt 1 view .LVU103
 619:lvgl/src/lv_widgets/lv_img.c ****         lv_obj_init_draw_rect_dsc(img, LV_IMG_PART_MAIN, &bg_dsc);
 372              		.loc 1 619 9 view .LVU104
 373 0136 17A8     		add	r0, sp, #92
 374              	.LVL37:
 619:lvgl/src/lv_widgets/lv_img.c ****         lv_obj_init_draw_rect_dsc(img, LV_IMG_PART_MAIN, &bg_dsc);
 375              		.loc 1 619 9 is_stmt 0 view .LVU105
 376 0138 FFF7FEFF 		bl	lv_draw_rect_dsc_init
 377              	.LVL38:
 620:lvgl/src/lv_widgets/lv_img.c **** 
 378              		.loc 1 620 9 is_stmt 1 view .LVU106
 379 013c 17AA     		add	r2, sp, #92
 380 013e 0021     		movs	r1, #0
 381 0140 2046     		mov	r0, r4
 382 0142 FFF7FEFF 		bl	lv_obj_init_draw_rect_dsc
 383              	.LVL39:
 623:lvgl/src/lv_widgets/lv_img.c ****             bg_dsc.border_opa = LV_OPA_TRANSP;
 384              		.loc 1 623 9 view .LVU107
 385              	.LBB104:
 386              	.LBI104:
 129:lvgl/src/lv_widgets/../lv_core/lv_obj_style_dec.h **** _LV_OBJ_STYLE_SET_GET_DECLARE(BORDER_COLOR, border_color, lv_color_t, _color, nonscalar)
ARM GAS  D:\Temp\ccdlqfAs.s 			page 28


 387              		.loc 2 129 1 view .LVU108
 388              	.LBB105:
 129:lvgl/src/lv_widgets/../lv_core/lv_obj_style_dec.h **** _LV_OBJ_STYLE_SET_GET_DECLARE(BORDER_COLOR, border_color, lv_color_t, _color, nonscalar)
 389              		.loc 2 129 1 view .LVU109
 390 0146 3322     		movs	r2, #51
 391 0148 0021     		movs	r1, #0
 392 014a 2046     		mov	r0, r4
 393 014c FFF7FEFF 		bl	_lv_obj_get_style_int
 394              	.LVL40:
 129:lvgl/src/lv_widgets/../lv_core/lv_obj_style_dec.h **** _LV_OBJ_STYLE_SET_GET_DECLARE(BORDER_COLOR, border_color, lv_color_t, _color, nonscalar)
 395              		.loc 2 129 1 is_stmt 0 view .LVU110
 396              	.LBE105:
 397              	.LBE104:
 623:lvgl/src/lv_widgets/lv_img.c ****             bg_dsc.border_opa = LV_OPA_TRANSP;
 398              		.loc 1 623 11 view .LVU111
 399 0150 10B1     		cbz	r0, .L13
 624:lvgl/src/lv_widgets/lv_img.c ****         }
 400              		.loc 1 624 13 is_stmt 1 view .LVU112
 624:lvgl/src/lv_widgets/lv_img.c ****         }
 401              		.loc 1 624 31 is_stmt 0 view .LVU113
 402 0152 0023     		movs	r3, #0
 403 0154 8DF87030 		strb	r3, [sp, #112]
 404              	.L13:
 627:lvgl/src/lv_widgets/lv_img.c ****         zoom_final = (zoom_final * ext->zoom) >> 8;
 405              		.loc 1 627 9 is_stmt 1 view .LVU114
 406              	.LVL41:
 407              	.LBB106:
 408              	.LBI106:
 108:lvgl/src/lv_widgets/../lv_core/lv_obj_style_dec.h **** _LV_OBJ_STYLE_SET_GET_DECLARE(OPA_SCALE, opa_scale, lv_opa_t, _opa, scalar)
 409              		.loc 2 108 1 view .LVU115
 410              	.LBB107:
 108:lvgl/src/lv_widgets/../lv_core/lv_obj_style_dec.h **** _LV_OBJ_STYLE_SET_GET_DECLARE(OPA_SCALE, opa_scale, lv_opa_t, _opa, scalar)
 411              		.loc 2 108 1 view .LVU116
 412 0158 0722     		movs	r2, #7
 413 015a 0021     		movs	r1, #0
 414 015c 2046     		mov	r0, r4
 415 015e FFF7FEFF 		bl	_lv_obj_get_style_int
 416              	.LVL42:
 108:lvgl/src/lv_widgets/../lv_core/lv_obj_style_dec.h **** _LV_OBJ_STYLE_SET_GET_DECLARE(OPA_SCALE, opa_scale, lv_opa_t, _opa, scalar)
 417              		.loc 2 108 1 is_stmt 0 view .LVU117
 418              	.LBE107:
 419              	.LBE106:
 628:lvgl/src/lv_widgets/lv_img.c **** 
 420              		.loc 1 628 9 is_stmt 1 view .LVU118
 628:lvgl/src/lv_widgets/lv_img.c **** 
 421              		.loc 1 628 39 is_stmt 0 view .LVU119
 422 0162 6F8A     		ldrh	r7, [r5, #18]
 628:lvgl/src/lv_widgets/lv_img.c **** 
 423              		.loc 1 628 34 view .LVU120
 424 0164 00FB07F7 		mul	r7, r0, r7
 628:lvgl/src/lv_widgets/lv_img.c **** 
 425              		.loc 1 628 20 view .LVU121
 426 0168 3F12     		asrs	r7, r7, #8
 427              	.LVL43:
 630:lvgl/src/lv_widgets/lv_img.c ****         angle_final += ext->angle;
 428              		.loc 1 630 9 is_stmt 1 view .LVU122
 429              	.LBB108:
ARM GAS  D:\Temp\ccdlqfAs.s 			page 29


 430              	.LBI108:
 107:lvgl/src/lv_widgets/../lv_core/lv_obj_style_dec.h **** _LV_OBJ_STYLE_SET_GET_DECLARE(TRANSFORM_ZOOM, transform_zoom, lv_style_int_t, _int, scalar)
 431              		.loc 2 107 1 view .LVU123
 432              	.LBB109:
 107:lvgl/src/lv_widgets/../lv_core/lv_obj_style_dec.h **** _LV_OBJ_STYLE_SET_GET_DECLARE(TRANSFORM_ZOOM, transform_zoom, lv_style_int_t, _int, scalar)
 433              		.loc 2 107 1 view .LVU124
 434 016a 0622     		movs	r2, #6
 435 016c 0021     		movs	r1, #0
 436 016e 2046     		mov	r0, r4
 437 0170 FFF7FEFF 		bl	_lv_obj_get_style_int
 438              	.LVL44:
 107:lvgl/src/lv_widgets/../lv_core/lv_obj_style_dec.h **** _LV_OBJ_STYLE_SET_GET_DECLARE(TRANSFORM_ZOOM, transform_zoom, lv_style_int_t, _int, scalar)
 439              		.loc 2 107 1 is_stmt 0 view .LVU125
 440              	.LBE109:
 441              	.LBE108:
 631:lvgl/src/lv_widgets/lv_img.c **** 
 442              		.loc 1 631 9 is_stmt 1 view .LVU126
 631:lvgl/src/lv_widgets/lv_img.c **** 
 443              		.loc 1 631 27 is_stmt 0 view .LVU127
 444 0174 B5F80C80 		ldrh	r8, [r5, #12]
 631:lvgl/src/lv_widgets/lv_img.c **** 
 445              		.loc 1 631 21 view .LVU128
 446 0178 8044     		add	r8, r8, r0
 447              	.LVL45:
 633:lvgl/src/lv_widgets/lv_img.c ****         lv_coord_t obj_h = lv_obj_get_height(img);
 448              		.loc 1 633 9 is_stmt 1 view .LVU129
 633:lvgl/src/lv_widgets/lv_img.c ****         lv_coord_t obj_h = lv_obj_get_height(img);
 449              		.loc 1 633 28 is_stmt 0 view .LVU130
 450 017a 2046     		mov	r0, r4
 451 017c FFF7FEFF 		bl	lv_obj_get_width
 452              	.LVL46:
 453 0180 0390     		str	r0, [sp, #12]
 454              	.LVL47:
 634:lvgl/src/lv_widgets/lv_img.c **** 
 455              		.loc 1 634 9 is_stmt 1 view .LVU131
 634:lvgl/src/lv_widgets/lv_img.c **** 
 456              		.loc 1 634 28 is_stmt 0 view .LVU132
 457 0182 2046     		mov	r0, r4
 458 0184 FFF7FEFF 		bl	lv_obj_get_height
 459              	.LVL48:
 460 0188 0246     		mov	r2, r0
 461 018a 0490     		str	r0, [sp, #16]
 462              	.LVL49:
 636:lvgl/src/lv_widgets/lv_img.c ****         _lv_img_buf_get_transformed_area(&bg_coords, obj_w, obj_h,
 463              		.loc 1 636 9 is_stmt 1 view .LVU133
 637:lvgl/src/lv_widgets/lv_img.c ****                                          angle_final, zoom_final, &ext->pivot);
 464              		.loc 1 637 9 view .LVU134
 465 018c 0FFA88FA 		sxth	r10, r8
 466 0190 1FFA87F9 		uxth	r9, r7
 638:lvgl/src/lv_widgets/lv_img.c ****         bg_coords.x1 += img->coords.x1;
 467              		.loc 1 638 67 is_stmt 0 view .LVU135
 468 0194 05F10E0B 		add	fp, r5, #14
 637:lvgl/src/lv_widgets/lv_img.c ****                                          angle_final, zoom_final, &ext->pivot);
 469              		.loc 1 637 9 view .LVU136
 470 0198 CDF804B0 		str	fp, [sp, #4]
 471 019c CDF80090 		str	r9, [sp]
 472 01a0 5346     		mov	r3, r10
ARM GAS  D:\Temp\ccdlqfAs.s 			page 30


 473 01a2 0399     		ldr	r1, [sp, #12]
 474 01a4 06A8     		add	r0, sp, #24
 475 01a6 FFF7FEFF 		bl	_lv_img_buf_get_transformed_area
 476              	.LVL50:
 639:lvgl/src/lv_widgets/lv_img.c ****         bg_coords.y1 += img->coords.y1;
 477              		.loc 1 639 9 is_stmt 1 view .LVU137
 639:lvgl/src/lv_widgets/lv_img.c ****         bg_coords.y1 += img->coords.y1;
 478              		.loc 1 639 36 is_stmt 0 view .LVU138
 479 01aa 228A     		ldrh	r2, [r4, #16]
 639:lvgl/src/lv_widgets/lv_img.c ****         bg_coords.y1 += img->coords.y1;
 480              		.loc 1 639 22 view .LVU139
 481 01ac BDF81830 		ldrh	r3, [sp, #24]
 482 01b0 1344     		add	r3, r3, r2
 483 01b2 ADF81830 		strh	r3, [sp, #24]	@ movhi
 640:lvgl/src/lv_widgets/lv_img.c ****         bg_coords.x2 += img->coords.x1;
 484              		.loc 1 640 9 is_stmt 1 view .LVU140
 640:lvgl/src/lv_widgets/lv_img.c ****         bg_coords.x2 += img->coords.x1;
 485              		.loc 1 640 36 is_stmt 0 view .LVU141
 486 01b6 638A     		ldrh	r3, [r4, #18]
 640:lvgl/src/lv_widgets/lv_img.c ****         bg_coords.x2 += img->coords.x1;
 487              		.loc 1 640 22 view .LVU142
 488 01b8 BDF81A10 		ldrh	r1, [sp, #26]
 489 01bc 1944     		add	r1, r1, r3
 490 01be ADF81A10 		strh	r1, [sp, #26]	@ movhi
 641:lvgl/src/lv_widgets/lv_img.c ****         bg_coords.y2 += img->coords.y1;
 491              		.loc 1 641 9 is_stmt 1 view .LVU143
 641:lvgl/src/lv_widgets/lv_img.c ****         bg_coords.y2 += img->coords.y1;
 492              		.loc 1 641 22 is_stmt 0 view .LVU144
 493 01c2 BDF81C10 		ldrh	r1, [sp, #28]
 494 01c6 0A44     		add	r2, r2, r1
 495 01c8 ADF81C20 		strh	r2, [sp, #28]	@ movhi
 642:lvgl/src/lv_widgets/lv_img.c ****         bg_coords.x1 -= lv_obj_get_style_pad_left(img, LV_IMG_PART_MAIN);
 496              		.loc 1 642 9 is_stmt 1 view .LVU145
 642:lvgl/src/lv_widgets/lv_img.c ****         bg_coords.x1 -= lv_obj_get_style_pad_left(img, LV_IMG_PART_MAIN);
 497              		.loc 1 642 22 is_stmt 0 view .LVU146
 498 01cc BDF81E20 		ldrh	r2, [sp, #30]
 499 01d0 1344     		add	r3, r3, r2
 500 01d2 ADF81E30 		strh	r3, [sp, #30]	@ movhi
 643:lvgl/src/lv_widgets/lv_img.c ****         bg_coords.x2 += lv_obj_get_style_pad_right(img, LV_IMG_PART_MAIN);
 501              		.loc 1 643 9 is_stmt 1 view .LVU147
 502              	.LVL51:
 503              	.LBB110:
 504              	.LBI110:
 112:lvgl/src/lv_widgets/../lv_core/lv_obj_style_dec.h **** _LV_OBJ_STYLE_SET_GET_DECLARE(PAD_RIGHT, pad_right, lv_style_int_t, _int, scalar)
 505              		.loc 2 112 1 view .LVU148
 506              	.LBB111:
 112:lvgl/src/lv_widgets/../lv_core/lv_obj_style_dec.h **** _LV_OBJ_STYLE_SET_GET_DECLARE(PAD_RIGHT, pad_right, lv_style_int_t, _int, scalar)
 507              		.loc 2 112 1 view .LVU149
 508 01d6 1222     		movs	r2, #18
 509 01d8 0021     		movs	r1, #0
 510 01da 2046     		mov	r0, r4
 511 01dc FFF7FEFF 		bl	_lv_obj_get_style_int
 512              	.LVL52:
 112:lvgl/src/lv_widgets/../lv_core/lv_obj_style_dec.h **** _LV_OBJ_STYLE_SET_GET_DECLARE(PAD_RIGHT, pad_right, lv_style_int_t, _int, scalar)
 513              		.loc 2 112 1 is_stmt 0 view .LVU150
 514              	.LBE111:
 515              	.LBE110:
ARM GAS  D:\Temp\ccdlqfAs.s 			page 31


 643:lvgl/src/lv_widgets/lv_img.c ****         bg_coords.x2 += lv_obj_get_style_pad_right(img, LV_IMG_PART_MAIN);
 516              		.loc 1 643 25 view .LVU151
 517 01e0 80B2     		uxth	r0, r0
 643:lvgl/src/lv_widgets/lv_img.c ****         bg_coords.x2 += lv_obj_get_style_pad_right(img, LV_IMG_PART_MAIN);
 518              		.loc 1 643 22 view .LVU152
 519 01e2 BDF81830 		ldrh	r3, [sp, #24]
 520 01e6 1B1A     		subs	r3, r3, r0
 521 01e8 ADF81830 		strh	r3, [sp, #24]	@ movhi
 644:lvgl/src/lv_widgets/lv_img.c ****         bg_coords.y1 -= lv_obj_get_style_pad_top(img, LV_IMG_PART_MAIN);
 522              		.loc 1 644 9 is_stmt 1 view .LVU153
 523              	.LVL53:
 524              	.LBB112:
 525              	.LBI112:
 113:lvgl/src/lv_widgets/../lv_core/lv_obj_style_dec.h **** _LV_OBJ_STYLE_SET_GET_DECLARE(PAD_INNER, pad_inner, lv_style_int_t, _int, scalar)
 526              		.loc 2 113 1 view .LVU154
 527              	.LBB113:
 113:lvgl/src/lv_widgets/../lv_core/lv_obj_style_dec.h **** _LV_OBJ_STYLE_SET_GET_DECLARE(PAD_INNER, pad_inner, lv_style_int_t, _int, scalar)
 528              		.loc 2 113 1 view .LVU155
 529 01ec 1322     		movs	r2, #19
 530 01ee 0021     		movs	r1, #0
 531 01f0 2046     		mov	r0, r4
 532 01f2 FFF7FEFF 		bl	_lv_obj_get_style_int
 533              	.LVL54:
 113:lvgl/src/lv_widgets/../lv_core/lv_obj_style_dec.h **** _LV_OBJ_STYLE_SET_GET_DECLARE(PAD_INNER, pad_inner, lv_style_int_t, _int, scalar)
 534              		.loc 2 113 1 is_stmt 0 view .LVU156
 535              	.LBE113:
 536              	.LBE112:
 644:lvgl/src/lv_widgets/lv_img.c ****         bg_coords.y1 -= lv_obj_get_style_pad_top(img, LV_IMG_PART_MAIN);
 537              		.loc 1 644 22 view .LVU157
 538 01f6 BDF81C30 		ldrh	r3, [sp, #28]
 539 01fa 13FA80F0 		uxtah	r0, r3, r0
 540 01fe ADF81C00 		strh	r0, [sp, #28]	@ movhi
 645:lvgl/src/lv_widgets/lv_img.c ****         bg_coords.y2 += lv_obj_get_style_pad_bottom(img, LV_IMG_PART_MAIN);
 541              		.loc 1 645 9 is_stmt 1 view .LVU158
 542              	.LVL55:
 543              	.LBB114:
 544              	.LBI114:
 110:lvgl/src/lv_widgets/../lv_core/lv_obj_style_dec.h **** _LV_OBJ_STYLE_SET_GET_DECLARE(PAD_BOTTOM, pad_bottom, lv_style_int_t, _int, scalar)
 545              		.loc 2 110 1 view .LVU159
 546              	.LBB115:
 110:lvgl/src/lv_widgets/../lv_core/lv_obj_style_dec.h **** _LV_OBJ_STYLE_SET_GET_DECLARE(PAD_BOTTOM, pad_bottom, lv_style_int_t, _int, scalar)
 547              		.loc 2 110 1 view .LVU160
 548 0202 1022     		movs	r2, #16
 549 0204 0021     		movs	r1, #0
 550 0206 2046     		mov	r0, r4
 551 0208 FFF7FEFF 		bl	_lv_obj_get_style_int
 552              	.LVL56:
 110:lvgl/src/lv_widgets/../lv_core/lv_obj_style_dec.h **** _LV_OBJ_STYLE_SET_GET_DECLARE(PAD_BOTTOM, pad_bottom, lv_style_int_t, _int, scalar)
 553              		.loc 2 110 1 is_stmt 0 view .LVU161
 554              	.LBE115:
 555              	.LBE114:
 645:lvgl/src/lv_widgets/lv_img.c ****         bg_coords.y2 += lv_obj_get_style_pad_bottom(img, LV_IMG_PART_MAIN);
 556              		.loc 1 645 25 view .LVU162
 557 020c 80B2     		uxth	r0, r0
 645:lvgl/src/lv_widgets/lv_img.c ****         bg_coords.y2 += lv_obj_get_style_pad_bottom(img, LV_IMG_PART_MAIN);
 558              		.loc 1 645 22 view .LVU163
 559 020e BDF81A30 		ldrh	r3, [sp, #26]
ARM GAS  D:\Temp\ccdlqfAs.s 			page 32


 560 0212 1B1A     		subs	r3, r3, r0
 561 0214 ADF81A30 		strh	r3, [sp, #26]	@ movhi
 646:lvgl/src/lv_widgets/lv_img.c **** 
 562              		.loc 1 646 9 is_stmt 1 view .LVU164
 563              	.LVL57:
 564              	.LBB116:
 565              	.LBI116:
 111:lvgl/src/lv_widgets/../lv_core/lv_obj_style_dec.h **** _LV_OBJ_STYLE_SET_GET_DECLARE(PAD_LEFT, pad_left, lv_style_int_t, _int, scalar)
 566              		.loc 2 111 1 view .LVU165
 567              	.LBB117:
 111:lvgl/src/lv_widgets/../lv_core/lv_obj_style_dec.h **** _LV_OBJ_STYLE_SET_GET_DECLARE(PAD_LEFT, pad_left, lv_style_int_t, _int, scalar)
 568              		.loc 2 111 1 view .LVU166
 569 0218 1122     		movs	r2, #17
 570 021a 0021     		movs	r1, #0
 571 021c 2046     		mov	r0, r4
 572 021e FFF7FEFF 		bl	_lv_obj_get_style_int
 573              	.LVL58:
 111:lvgl/src/lv_widgets/../lv_core/lv_obj_style_dec.h **** _LV_OBJ_STYLE_SET_GET_DECLARE(PAD_LEFT, pad_left, lv_style_int_t, _int, scalar)
 574              		.loc 2 111 1 is_stmt 0 view .LVU167
 575              	.LBE117:
 576              	.LBE116:
 646:lvgl/src/lv_widgets/lv_img.c **** 
 577              		.loc 1 646 22 view .LVU168
 578 0222 BDF81E30 		ldrh	r3, [sp, #30]
 579 0226 13FA80F0 		uxtah	r0, r3, r0
 580 022a ADF81E00 		strh	r0, [sp, #30]	@ movhi
 648:lvgl/src/lv_widgets/lv_img.c **** 
 581              		.loc 1 648 9 is_stmt 1 view .LVU169
 582 022e 17AA     		add	r2, sp, #92
 583 0230 3146     		mov	r1, r6
 584 0232 06A8     		add	r0, sp, #24
 585 0234 FFF7FEFF 		bl	lv_draw_rect
 586              	.LVL59:
 650:lvgl/src/lv_widgets/lv_img.c **** 
 587              		.loc 1 650 9 view .LVU170
 650:lvgl/src/lv_widgets/lv_img.c **** 
 588              		.loc 1 650 11 is_stmt 0 view .LVU171
 589 0238 0FB9     		cbnz	r7, .L45
 650:lvgl/src/lv_widgets/lv_img.c **** 
 590              		.loc 1 650 36 view .LVU172
 591 023a 0020     		movs	r0, #0
 592 023c 2FE1     		b	.L6
 593              	.L45:
 652:lvgl/src/lv_widgets/lv_img.c ****             lv_draw_mask_radius_param_t * mp = _lv_mem_buf_get(sizeof(lv_draw_mask_radius_param_t))
 594              		.loc 1 652 9 is_stmt 1 view .LVU173
 595              	.LVL60:
 596              	.LBB118:
 597              	.LBI118:
 103:lvgl/src/lv_widgets/../lv_core/lv_obj_style_dec.h **** _LV_OBJ_STYLE_SET_GET_DECLARE(SIZE, size, lv_style_int_t, _int, scalar)
 598              		.loc 2 103 1 view .LVU174
 599              	.LBB119:
 103:lvgl/src/lv_widgets/../lv_core/lv_obj_style_dec.h **** _LV_OBJ_STYLE_SET_GET_DECLARE(SIZE, size, lv_style_int_t, _int, scalar)
 600              		.loc 2 103 1 view .LVU175
 601 023e 0222     		movs	r2, #2
 602 0240 0021     		movs	r1, #0
 603 0242 2046     		mov	r0, r4
 604 0244 FFF7FEFF 		bl	_lv_obj_get_style_int
ARM GAS  D:\Temp\ccdlqfAs.s 			page 33


 605              	.LVL61:
 103:lvgl/src/lv_widgets/../lv_core/lv_obj_style_dec.h **** _LV_OBJ_STYLE_SET_GET_DECLARE(SIZE, size, lv_style_int_t, _int, scalar)
 606              		.loc 2 103 1 is_stmt 0 view .LVU176
 607              	.LBE119:
 608              	.LBE118:
 652:lvgl/src/lv_widgets/lv_img.c ****             lv_draw_mask_radius_param_t * mp = _lv_mem_buf_get(sizeof(lv_draw_mask_radius_param_t))
 609              		.loc 1 652 11 view .LVU177
 610 0248 88B9     		cbnz	r0, .L46
 611              	.L14:
 662:lvgl/src/lv_widgets/lv_img.c ****             LV_LOG_TRACE("lv_img_design: start to draw image");
 612              		.loc 1 662 9 is_stmt 1 view .LVU178
 662:lvgl/src/lv_widgets/lv_img.c ****             LV_LOG_TRACE("lv_img_design: start to draw image");
 613              		.loc 1 662 26 is_stmt 0 view .LVU179
 614 024a 2B7D     		ldrb	r3, [r5, #20]	@ zero_extendqisi2
 662:lvgl/src/lv_widgets/lv_img.c ****             LV_LOG_TRACE("lv_img_design: start to draw image");
 615              		.loc 1 662 11 view .LVU180
 616 024c 13F0020F 		tst	r3, #2
 617 0250 22D0     		beq	.L47
 716:lvgl/src/lv_widgets/lv_img.c ****             LV_LOG_TRACE("lv_img_design: start to draw symbol");
 618              		.loc 1 716 14 is_stmt 1 view .LVU181
 716:lvgl/src/lv_widgets/lv_img.c ****             LV_LOG_TRACE("lv_img_design: start to draw symbol");
 619              		.loc 1 716 31 is_stmt 0 view .LVU182
 620 0252 03F00303 		and	r3, r3, #3
 716:lvgl/src/lv_widgets/lv_img.c ****             LV_LOG_TRACE("lv_img_design: start to draw symbol");
 621              		.loc 1 716 16 view .LVU183
 622 0256 022B     		cmp	r3, #2
 623 0258 00F00281 		beq	.L48
 727:lvgl/src/lv_widgets/lv_img.c ****             lv_draw_img(&img->coords, clip_area, NULL, NULL);
 624              		.loc 1 727 71 is_stmt 1 view .LVU184
 728:lvgl/src/lv_widgets/lv_img.c ****         }
 625              		.loc 1 728 13 view .LVU185
 626 025c 0023     		movs	r3, #0
 627 025e 1A46     		mov	r2, r3
 628 0260 3146     		mov	r1, r6
 629 0262 04F11000 		add	r0, r4, #16
 630 0266 FFF7FEFF 		bl	lv_draw_img
 631              	.LVL62:
 632              	.L23:
 728:lvgl/src/lv_widgets/lv_img.c ****         }
 633              		.loc 1 728 13 is_stmt 0 view .LVU186
 634              	.LBE142:
 768:lvgl/src/lv_widgets/lv_img.c **** }
 635              		.loc 1 768 12 discriminator 2 view .LVU187
 636 026a 0020     		movs	r0, #0
 637 026c 17E1     		b	.L6
 638              	.LVL63:
 639              	.L46:
 640              	.LBB143:
 641              	.LBB120:
 653:lvgl/src/lv_widgets/lv_img.c **** 
 642              		.loc 1 653 13 is_stmt 1 view .LVU188
 653:lvgl/src/lv_widgets/lv_img.c **** 
 643              		.loc 1 653 48 is_stmt 0 view .LVU189
 644 026e 1C20     		movs	r0, #28
 645 0270 FFF7FEFF 		bl	_lv_mem_buf_get
 646              	.LVL64:
 647 0274 0590     		str	r0, [sp, #20]
ARM GAS  D:\Temp\ccdlqfAs.s 			page 34


 648              	.LVL65:
 655:lvgl/src/lv_widgets/lv_img.c **** 
 649              		.loc 1 655 13 is_stmt 1 view .LVU190
 650              	.LBB121:
 651              	.LBI121:
 102:lvgl/src/lv_widgets/../lv_core/lv_obj_style_dec.h **** _LV_OBJ_STYLE_SET_GET_DECLARE(CLIP_CORNER, clip_corner, bool, _int, scalar)
 652              		.loc 2 102 1 view .LVU191
 653              	.LBB122:
 102:lvgl/src/lv_widgets/../lv_core/lv_obj_style_dec.h **** _LV_OBJ_STYLE_SET_GET_DECLARE(CLIP_CORNER, clip_corner, bool, _int, scalar)
 654              		.loc 2 102 1 view .LVU192
 655 0276 0122     		movs	r2, #1
 656 0278 0021     		movs	r1, #0
 657 027a 2046     		mov	r0, r4
 658              	.LVL66:
 102:lvgl/src/lv_widgets/../lv_core/lv_obj_style_dec.h **** _LV_OBJ_STYLE_SET_GET_DECLARE(CLIP_CORNER, clip_corner, bool, _int, scalar)
 659              		.loc 2 102 1 is_stmt 0 view .LVU193
 660 027c FFF7FEFF 		bl	_lv_obj_get_style_int
 661              	.LVL67:
 102:lvgl/src/lv_widgets/../lv_core/lv_obj_style_dec.h **** _LV_OBJ_STYLE_SET_GET_DECLARE(CLIP_CORNER, clip_corner, bool, _int, scalar)
 662              		.loc 2 102 1 view .LVU194
 663              	.LBE122:
 664              	.LBE121:
 657:lvgl/src/lv_widgets/lv_img.c ****             /*Add the mask and use `img+8` as custom id. Don't use `obj` directly because it might 
 665              		.loc 1 657 13 is_stmt 1 view .LVU195
 666 0280 0023     		movs	r3, #0
 667 0282 0246     		mov	r2, r0
 668 0284 06A9     		add	r1, sp, #24
 669 0286 0598     		ldr	r0, [sp, #20]
 670              	.LVL68:
 657:lvgl/src/lv_widgets/lv_img.c ****             /*Add the mask and use `img+8` as custom id. Don't use `obj` directly because it might 
 671              		.loc 1 657 13 is_stmt 0 view .LVU196
 672 0288 FFF7FEFF 		bl	lv_draw_mask_radius_init
 673              	.LVL69:
 659:lvgl/src/lv_widgets/lv_img.c ****         }
 674              		.loc 1 659 13 is_stmt 1 view .LVU197
 675 028c 04F51871 		add	r1, r4, #608
 676 0290 0598     		ldr	r0, [sp, #20]
 677 0292 FFF7FEFF 		bl	lv_draw_mask_add
 678              	.LVL70:
 679 0296 D8E7     		b	.L14
 680              	.LVL71:
 681              	.L47:
 659:lvgl/src/lv_widgets/lv_img.c ****         }
 682              		.loc 1 659 13 is_stmt 0 view .LVU198
 683              	.LBE120:
 684              	.LBB123:
 663:lvgl/src/lv_widgets/lv_img.c **** 
 685              		.loc 1 663 63 is_stmt 1 view .LVU199
 665:lvgl/src/lv_widgets/lv_img.c ****             lv_draw_img_dsc_init(&img_dsc);
 686              		.loc 1 665 13 view .LVU200
 666:lvgl/src/lv_widgets/lv_img.c ****             lv_obj_init_draw_img_dsc(img, LV_IMG_PART_MAIN, &img_dsc);
 687              		.loc 1 666 13 view .LVU201
 688 0298 0EA8     		add	r0, sp, #56
 689 029a FFF7FEFF 		bl	lv_draw_img_dsc_init
 690              	.LVL72:
 667:lvgl/src/lv_widgets/lv_img.c **** 
 691              		.loc 1 667 13 view .LVU202
ARM GAS  D:\Temp\ccdlqfAs.s 			page 35


 692 029e 0EAA     		add	r2, sp, #56
 693 02a0 0021     		movs	r1, #0
 694 02a2 2046     		mov	r0, r4
 695 02a4 FFF7FEFF 		bl	lv_obj_init_draw_img_dsc
 696              	.LVL73:
 669:lvgl/src/lv_widgets/lv_img.c **** 
 697              		.loc 1 669 13 view .LVU203
 669:lvgl/src/lv_widgets/lv_img.c **** 
 698              		.loc 1 669 26 is_stmt 0 view .LVU204
 699 02a8 ADF84090 		strh	r9, [sp, #64]	@ movhi
 671:lvgl/src/lv_widgets/lv_img.c **** 
 700              		.loc 1 671 13 is_stmt 1 view .LVU205
 671:lvgl/src/lv_widgets/lv_img.c **** 
 701              		.loc 1 671 15 is_stmt 0 view .LVU206
 702 02ac B9F1000F 		cmp	r9, #0
 703 02b0 00F0D480 		beq	.L16
 673:lvgl/src/lv_widgets/lv_img.c **** 
 704              		.loc 1 673 13 is_stmt 1 view .LVU207
 673:lvgl/src/lv_widgets/lv_img.c **** 
 705              		.loc 1 673 27 is_stmt 0 view .LVU208
 706 02b4 ADF83A80 		strh	r8, [sp, #58]	@ movhi
 675:lvgl/src/lv_widgets/lv_img.c ****             img_dsc.pivot.y = ext->pivot.y;
 707              		.loc 1 675 13 is_stmt 1 view .LVU209
 675:lvgl/src/lv_widgets/lv_img.c ****             img_dsc.pivot.y = ext->pivot.y;
 708              		.loc 1 675 41 is_stmt 0 view .LVU210
 709 02b8 B5F90E30 		ldrsh	r3, [r5, #14]
 675:lvgl/src/lv_widgets/lv_img.c ****             img_dsc.pivot.y = ext->pivot.y;
 710              		.loc 1 675 29 view .LVU211
 711 02bc ADF83C30 		strh	r3, [sp, #60]	@ movhi
 676:lvgl/src/lv_widgets/lv_img.c ****             img_dsc.antialias = ext->antialias;
 712              		.loc 1 676 13 is_stmt 1 view .LVU212
 676:lvgl/src/lv_widgets/lv_img.c ****             img_dsc.antialias = ext->antialias;
 713              		.loc 1 676 41 is_stmt 0 view .LVU213
 714 02c0 B5F91030 		ldrsh	r3, [r5, #16]
 676:lvgl/src/lv_widgets/lv_img.c ****             img_dsc.antialias = ext->antialias;
 715              		.loc 1 676 29 view .LVU214
 716 02c4 ADF83E30 		strh	r3, [sp, #62]	@ movhi
 677:lvgl/src/lv_widgets/lv_img.c **** 
 717              		.loc 1 677 13 is_stmt 1 view .LVU215
 677:lvgl/src/lv_widgets/lv_img.c **** 
 718              		.loc 1 677 36 is_stmt 0 view .LVU216
 719 02c8 6A7D     		ldrb	r2, [r5, #21]	@ zero_extendqisi2
 677:lvgl/src/lv_widgets/lv_img.c **** 
 720              		.loc 1 677 31 view .LVU217
 721 02ca 9DF84730 		ldrb	r3, [sp, #71]	@ zero_extendqisi2
 722 02ce 62F30003 		bfi	r3, r2, #0, #1
 723 02d2 8DF84730 		strb	r3, [sp, #71]
 679:lvgl/src/lv_widgets/lv_img.c ****             if(zoomed_src_w <= 0) return LV_DESIGN_RES_OK;
 724              		.loc 1 679 13 is_stmt 1 view .LVU218
 679:lvgl/src/lv_widgets/lv_img.c ****             if(zoomed_src_w <= 0) return LV_DESIGN_RES_OK;
 725              		.loc 1 679 61 is_stmt 0 view .LVU219
 726 02d6 B5F90880 		ldrsh	r8, [r5, #8]
 727              	.LVL74:
 679:lvgl/src/lv_widgets/lv_img.c ****             if(zoomed_src_w <= 0) return LV_DESIGN_RES_OK;
 728              		.loc 1 679 39 view .LVU220
 729 02da 07FB08F8 		mul	r8, r7, r8
 679:lvgl/src/lv_widgets/lv_img.c ****             if(zoomed_src_w <= 0) return LV_DESIGN_RES_OK;
ARM GAS  D:\Temp\ccdlqfAs.s 			page 36


 730              		.loc 1 679 79 view .LVU221
 731 02de 4FEA2828 		asr	r8, r8, #8
 679:lvgl/src/lv_widgets/lv_img.c ****             if(zoomed_src_w <= 0) return LV_DESIGN_RES_OK;
 732              		.loc 1 679 24 view .LVU222
 733 02e2 0FFA88F3 		sxth	r3, r8
 734              	.LVL75:
 680:lvgl/src/lv_widgets/lv_img.c ****             lv_coord_t zoomed_src_h = (int32_t)((int32_t)ext->h * zoom_final) >> 8;
 735              		.loc 1 680 13 is_stmt 1 view .LVU223
 680:lvgl/src/lv_widgets/lv_img.c ****             lv_coord_t zoomed_src_h = (int32_t)((int32_t)ext->h * zoom_final) >> 8;
 736              		.loc 1 680 15 is_stmt 0 view .LVU224
 737 02e6 002B     		cmp	r3, #0
 738 02e8 40F3B880 		ble	.L16
 681:lvgl/src/lv_widgets/lv_img.c ****             if(zoomed_src_h <= 0) return LV_DESIGN_RES_OK;
 739              		.loc 1 681 13 is_stmt 1 view .LVU225
 681:lvgl/src/lv_widgets/lv_img.c ****             if(zoomed_src_h <= 0) return LV_DESIGN_RES_OK;
 740              		.loc 1 681 61 is_stmt 0 view .LVU226
 741 02ec B5F90A30 		ldrsh	r3, [r5, #10]
 742              	.LVL76:
 681:lvgl/src/lv_widgets/lv_img.c ****             if(zoomed_src_h <= 0) return LV_DESIGN_RES_OK;
 743              		.loc 1 681 39 view .LVU227
 744 02f0 07FB03F3 		mul	r3, r7, r3
 681:lvgl/src/lv_widgets/lv_img.c ****             if(zoomed_src_h <= 0) return LV_DESIGN_RES_OK;
 745              		.loc 1 681 79 view .LVU228
 746 02f4 1B12     		asrs	r3, r3, #8
 747 02f6 0593     		str	r3, [sp, #20]
 681:lvgl/src/lv_widgets/lv_img.c ****             if(zoomed_src_h <= 0) return LV_DESIGN_RES_OK;
 748              		.loc 1 681 24 view .LVU229
 749 02f8 1BB2     		sxth	r3, r3
 750              	.LVL77:
 682:lvgl/src/lv_widgets/lv_img.c ****             lv_area_t zoomed_coords;
 751              		.loc 1 682 13 is_stmt 1 view .LVU230
 682:lvgl/src/lv_widgets/lv_img.c ****             lv_area_t zoomed_coords;
 752              		.loc 1 682 15 is_stmt 0 view .LVU231
 753 02fa 002B     		cmp	r3, #0
 754 02fc 40F3AE80 		ble	.L16
 683:lvgl/src/lv_widgets/lv_img.c ****             lv_obj_get_coords(img, &zoomed_coords);
 755              		.loc 1 683 13 is_stmt 1 view .LVU232
 684:lvgl/src/lv_widgets/lv_img.c **** 
 756              		.loc 1 684 13 view .LVU233
 757 0300 08A9     		add	r1, sp, #32
 758 0302 2046     		mov	r0, r4
 759 0304 FFF7FEFF 		bl	lv_obj_get_coords
 760              	.LVL78:
 686:lvgl/src/lv_widgets/lv_img.c ****             zoomed_coords.y1 += (int32_t)((int32_t)ext->offset.y * zoom_final) >> 8;
 761              		.loc 1 686 13 view .LVU234
 686:lvgl/src/lv_widgets/lv_img.c ****             zoomed_coords.y1 += (int32_t)((int32_t)ext->offset.y * zoom_final) >> 8;
 762              		.loc 1 686 63 is_stmt 0 view .LVU235
 763 0308 B5F90430 		ldrsh	r3, [r5, #4]
 686:lvgl/src/lv_widgets/lv_img.c ****             zoomed_coords.y1 += (int32_t)((int32_t)ext->offset.y * zoom_final) >> 8;
 764              		.loc 1 686 33 view .LVU236
 765 030c 07FB03F3 		mul	r3, r7, r3
 686:lvgl/src/lv_widgets/lv_img.c ****             zoomed_coords.y1 += (int32_t)((int32_t)ext->offset.y * zoom_final) >> 8;
 766              		.loc 1 686 30 view .LVU237
 767 0310 BDF82010 		ldrh	r1, [sp, #32]
 768 0314 01EB2321 		add	r1, r1, r3, asr #8
 769 0318 89B2     		uxth	r1, r1
 770 031a 0FFA81FC 		sxth	ip, r1
ARM GAS  D:\Temp\ccdlqfAs.s 			page 37


 771 031e ADF820C0 		strh	ip, [sp, #32]	@ movhi
 687:lvgl/src/lv_widgets/lv_img.c ****             zoomed_coords.x2 = zoomed_coords.x1 + ((int32_t)((int32_t)(obj_w - 1) * zoom_final) >> 
 772              		.loc 1 687 13 is_stmt 1 view .LVU238
 687:lvgl/src/lv_widgets/lv_img.c ****             zoomed_coords.x2 = zoomed_coords.x1 + ((int32_t)((int32_t)(obj_w - 1) * zoom_final) >> 
 773              		.loc 1 687 63 is_stmt 0 view .LVU239
 774 0322 B5F90630 		ldrsh	r3, [r5, #6]
 687:lvgl/src/lv_widgets/lv_img.c ****             zoomed_coords.x2 = zoomed_coords.x1 + ((int32_t)((int32_t)(obj_w - 1) * zoom_final) >> 
 775              		.loc 1 687 33 view .LVU240
 776 0326 07FB03F3 		mul	r3, r7, r3
 687:lvgl/src/lv_widgets/lv_img.c ****             zoomed_coords.x2 = zoomed_coords.x1 + ((int32_t)((int32_t)(obj_w - 1) * zoom_final) >> 
 777              		.loc 1 687 30 view .LVU241
 778 032a BDF82220 		ldrh	r2, [sp, #34]
 779 032e 02EB2322 		add	r2, r2, r3, asr #8
 780 0332 92B2     		uxth	r2, r2
 781 0334 10B2     		sxth	r0, r2
 782 0336 ADF82200 		strh	r0, [sp, #34]	@ movhi
 688:lvgl/src/lv_widgets/lv_img.c ****             zoomed_coords.y2 = zoomed_coords.y1 + ((int32_t)((int32_t)(obj_h - 1) * zoom_final) >> 
 783              		.loc 1 688 13 is_stmt 1 view .LVU242
 688:lvgl/src/lv_widgets/lv_img.c ****             zoomed_coords.y2 = zoomed_coords.y1 + ((int32_t)((int32_t)(obj_h - 1) * zoom_final) >> 
 784              		.loc 1 688 78 is_stmt 0 view .LVU243
 785 033a 039B     		ldr	r3, [sp, #12]
 786 033c 013B     		subs	r3, r3, #1
 688:lvgl/src/lv_widgets/lv_img.c ****             zoomed_coords.y2 = zoomed_coords.y1 + ((int32_t)((int32_t)(obj_h - 1) * zoom_final) >> 
 787              		.loc 1 688 52 view .LVU244
 788 033e 07FB03F3 		mul	r3, r7, r3
 688:lvgl/src/lv_widgets/lv_img.c ****             zoomed_coords.y2 = zoomed_coords.y1 + ((int32_t)((int32_t)(obj_h - 1) * zoom_final) >> 
 789              		.loc 1 688 49 view .LVU245
 790 0342 01EB2323 		add	r3, r1, r3, asr #8
 688:lvgl/src/lv_widgets/lv_img.c ****             zoomed_coords.y2 = zoomed_coords.y1 + ((int32_t)((int32_t)(obj_h - 1) * zoom_final) >> 
 791              		.loc 1 688 30 view .LVU246
 792 0346 ADF82430 		strh	r3, [sp, #36]	@ movhi
 689:lvgl/src/lv_widgets/lv_img.c **** 
 793              		.loc 1 689 13 is_stmt 1 view .LVU247
 689:lvgl/src/lv_widgets/lv_img.c **** 
 794              		.loc 1 689 78 is_stmt 0 view .LVU248
 795 034a 049B     		ldr	r3, [sp, #16]
 796 034c 013B     		subs	r3, r3, #1
 689:lvgl/src/lv_widgets/lv_img.c **** 
 797              		.loc 1 689 52 view .LVU249
 798 034e 07FB03F3 		mul	r3, r7, r3
 689:lvgl/src/lv_widgets/lv_img.c **** 
 799              		.loc 1 689 49 view .LVU250
 800 0352 02EB2323 		add	r3, r2, r3, asr #8
 689:lvgl/src/lv_widgets/lv_img.c **** 
 801              		.loc 1 689 30 view .LVU251
 802 0356 ADF82630 		strh	r3, [sp, #38]	@ movhi
 691:lvgl/src/lv_widgets/lv_img.c ****             if(zoomed_coords.y1 > img->coords.y1) zoomed_coords.y1 -= ext->h;
 803              		.loc 1 691 13 is_stmt 1 view .LVU252
 691:lvgl/src/lv_widgets/lv_img.c ****             if(zoomed_coords.y1 > img->coords.y1) zoomed_coords.y1 -= ext->h;
 804              		.loc 1 691 46 is_stmt 0 view .LVU253
 805 035a B4F91030 		ldrsh	r3, [r4, #16]
 691:lvgl/src/lv_widgets/lv_img.c ****             if(zoomed_coords.y1 > img->coords.y1) zoomed_coords.y1 -= ext->h;
 806              		.loc 1 691 15 view .LVU254
 807 035e 9C45     		cmp	ip, r3
 808 0360 03DD     		ble	.L17
 691:lvgl/src/lv_widgets/lv_img.c ****             if(zoomed_coords.y1 > img->coords.y1) zoomed_coords.y1 -= ext->h;
 809              		.loc 1 691 51 is_stmt 1 discriminator 1 view .LVU255
ARM GAS  D:\Temp\ccdlqfAs.s 			page 38


 691:lvgl/src/lv_widgets/lv_img.c ****             if(zoomed_coords.y1 > img->coords.y1) zoomed_coords.y1 -= ext->h;
 810              		.loc 1 691 74 is_stmt 0 discriminator 1 view .LVU256
 811 0362 2B89     		ldrh	r3, [r5, #8]
 691:lvgl/src/lv_widgets/lv_img.c ****             if(zoomed_coords.y1 > img->coords.y1) zoomed_coords.y1 -= ext->h;
 812              		.loc 1 691 68 discriminator 1 view .LVU257
 813 0364 C91A     		subs	r1, r1, r3
 814 0366 ADF82010 		strh	r1, [sp, #32]	@ movhi
 815              	.L17:
 692:lvgl/src/lv_widgets/lv_img.c **** 
 816              		.loc 1 692 13 is_stmt 1 view .LVU258
 692:lvgl/src/lv_widgets/lv_img.c **** 
 817              		.loc 1 692 46 is_stmt 0 view .LVU259
 818 036a B4F91230 		ldrsh	r3, [r4, #18]
 692:lvgl/src/lv_widgets/lv_img.c **** 
 819              		.loc 1 692 15 view .LVU260
 820 036e 9842     		cmp	r0, r3
 821 0370 03DD     		ble	.L18
 692:lvgl/src/lv_widgets/lv_img.c **** 
 822              		.loc 1 692 51 is_stmt 1 discriminator 1 view .LVU261
 692:lvgl/src/lv_widgets/lv_img.c **** 
 823              		.loc 1 692 74 is_stmt 0 discriminator 1 view .LVU262
 824 0372 6B89     		ldrh	r3, [r5, #10]
 692:lvgl/src/lv_widgets/lv_img.c **** 
 825              		.loc 1 692 68 discriminator 1 view .LVU263
 826 0374 D21A     		subs	r2, r2, r3
 827 0376 ADF82220 		strh	r2, [sp, #34]	@ movhi
 828              	.L18:
 694:lvgl/src/lv_widgets/lv_img.c ****             _lv_img_buf_get_transformed_area(&clip_real, lv_obj_get_width(img), lv_obj_get_height(i
 829              		.loc 1 694 13 is_stmt 1 view .LVU264
 695:lvgl/src/lv_widgets/lv_img.c ****                                              &ext->pivot);
 830              		.loc 1 695 13 view .LVU265
 831 037a 2046     		mov	r0, r4
 832 037c FFF7FEFF 		bl	lv_obj_get_width
 833              	.LVL79:
 834 0380 0746     		mov	r7, r0
 835              	.LVL80:
 695:lvgl/src/lv_widgets/lv_img.c ****                                              &ext->pivot);
 836              		.loc 1 695 13 is_stmt 0 view .LVU266
 837 0382 2046     		mov	r0, r4
 838 0384 FFF7FEFF 		bl	lv_obj_get_height
 839              	.LVL81:
 840 0388 CDF804B0 		str	fp, [sp, #4]
 841 038c CDF80090 		str	r9, [sp]
 842 0390 5346     		mov	r3, r10
 843 0392 0246     		mov	r2, r0
 844 0394 3946     		mov	r1, r7
 845 0396 0AA8     		add	r0, sp, #40
 846 0398 FFF7FEFF 		bl	_lv_img_buf_get_transformed_area
 847              	.LVL82:
 697:lvgl/src/lv_widgets/lv_img.c ****             clip_real.x2 += img->coords.x1;
 848              		.loc 1 697 13 is_stmt 1 view .LVU267
 697:lvgl/src/lv_widgets/lv_img.c ****             clip_real.x2 += img->coords.x1;
 849              		.loc 1 697 40 is_stmt 0 view .LVU268
 850 039c 238A     		ldrh	r3, [r4, #16]
 697:lvgl/src/lv_widgets/lv_img.c ****             clip_real.x2 += img->coords.x1;
 851              		.loc 1 697 26 view .LVU269
 852 039e BDF82820 		ldrh	r2, [sp, #40]
ARM GAS  D:\Temp\ccdlqfAs.s 			page 39


 853 03a2 1A44     		add	r2, r2, r3
 854 03a4 ADF82820 		strh	r2, [sp, #40]	@ movhi
 698:lvgl/src/lv_widgets/lv_img.c ****             clip_real.y1 += img->coords.y1;
 855              		.loc 1 698 13 is_stmt 1 view .LVU270
 698:lvgl/src/lv_widgets/lv_img.c ****             clip_real.y1 += img->coords.y1;
 856              		.loc 1 698 26 is_stmt 0 view .LVU271
 857 03a8 BDF82C20 		ldrh	r2, [sp, #44]
 858 03ac 1344     		add	r3, r3, r2
 859 03ae ADF82C30 		strh	r3, [sp, #44]	@ movhi
 699:lvgl/src/lv_widgets/lv_img.c ****             clip_real.y2 += img->coords.y1;
 860              		.loc 1 699 13 is_stmt 1 view .LVU272
 699:lvgl/src/lv_widgets/lv_img.c ****             clip_real.y2 += img->coords.y1;
 861              		.loc 1 699 40 is_stmt 0 view .LVU273
 862 03b2 638A     		ldrh	r3, [r4, #18]
 699:lvgl/src/lv_widgets/lv_img.c ****             clip_real.y2 += img->coords.y1;
 863              		.loc 1 699 26 view .LVU274
 864 03b4 BDF82A20 		ldrh	r2, [sp, #42]
 865 03b8 1A44     		add	r2, r2, r3
 866 03ba ADF82A20 		strh	r2, [sp, #42]	@ movhi
 700:lvgl/src/lv_widgets/lv_img.c **** 
 867              		.loc 1 700 13 is_stmt 1 view .LVU275
 700:lvgl/src/lv_widgets/lv_img.c **** 
 868              		.loc 1 700 26 is_stmt 0 view .LVU276
 869 03be BDF82E20 		ldrh	r2, [sp, #46]
 870 03c2 1344     		add	r3, r3, r2
 871 03c4 ADF82E30 		strh	r3, [sp, #46]	@ movhi
 702:lvgl/src/lv_widgets/lv_img.c **** 
 872              		.loc 1 702 13 is_stmt 1 view .LVU277
 702:lvgl/src/lv_widgets/lv_img.c **** 
 873              		.loc 1 702 16 is_stmt 0 view .LVU278
 874 03c8 3246     		mov	r2, r6
 875 03ca 0AA9     		add	r1, sp, #40
 876 03cc 0846     		mov	r0, r1
 877 03ce FFF7FEFF 		bl	_lv_area_intersect
 878              	.LVL83:
 702:lvgl/src/lv_widgets/lv_img.c **** 
 879              		.loc 1 702 15 view .LVU279
 880 03d2 0028     		cmp	r0, #0
 881 03d4 42D0     		beq	.L16
 704:lvgl/src/lv_widgets/lv_img.c ****             coords_tmp.y1 = zoomed_coords.y1;
 882              		.loc 1 704 13 is_stmt 1 view .LVU280
 705:lvgl/src/lv_widgets/lv_img.c ****             coords_tmp.y2 = zoomed_coords.y1 + ext->h - 1;
 883              		.loc 1 705 13 view .LVU281
 705:lvgl/src/lv_widgets/lv_img.c ****             coords_tmp.y2 = zoomed_coords.y1 + ext->h - 1;
 884              		.loc 1 705 42 is_stmt 0 view .LVU282
 885 03d6 BDF92230 		ldrsh	r3, [sp, #34]
 705:lvgl/src/lv_widgets/lv_img.c ****             coords_tmp.y2 = zoomed_coords.y1 + ext->h - 1;
 886              		.loc 1 705 27 view .LVU283
 887 03da ADF83230 		strh	r3, [sp, #50]	@ movhi
 706:lvgl/src/lv_widgets/lv_img.c **** 
 888              		.loc 1 706 13 is_stmt 1 view .LVU284
 706:lvgl/src/lv_widgets/lv_img.c **** 
 889              		.loc 1 706 51 is_stmt 0 view .LVU285
 890 03de 6A89     		ldrh	r2, [r5, #10]
 706:lvgl/src/lv_widgets/lv_img.c **** 
 891              		.loc 1 706 46 view .LVU286
 892 03e0 12FA83F3 		uxtah	r3, r2, r3
ARM GAS  D:\Temp\ccdlqfAs.s 			page 40


 893 03e4 9BB2     		uxth	r3, r3
 706:lvgl/src/lv_widgets/lv_img.c **** 
 894              		.loc 1 706 55 view .LVU287
 895 03e6 013B     		subs	r3, r3, #1
 706:lvgl/src/lv_widgets/lv_img.c **** 
 896              		.loc 1 706 27 view .LVU288
 897 03e8 ADF83630 		strh	r3, [sp, #54]	@ movhi
 708:lvgl/src/lv_widgets/lv_img.c ****                 coords_tmp.x1 = zoomed_coords.x1;
 898              		.loc 1 708 13 is_stmt 1 view .LVU289
 899 03ec 0BE0     		b	.L19
 900              	.L49:
 708:lvgl/src/lv_widgets/lv_img.c ****                 coords_tmp.x1 = zoomed_coords.x1;
 901              		.loc 1 708 67 is_stmt 0 view .LVU290
 902 03ee BDF81430 		ldrh	r3, [sp, #20]
 903 03f2 BDF83220 		ldrh	r2, [sp, #50]
 904 03f6 1A44     		add	r2, r2, r3
 905 03f8 ADF83220 		strh	r2, [sp, #50]	@ movhi
 708:lvgl/src/lv_widgets/lv_img.c ****                 coords_tmp.x1 = zoomed_coords.x1;
 906              		.loc 1 708 98 view .LVU291
 907 03fc BDF83620 		ldrh	r2, [sp, #54]
 908 0400 1344     		add	r3, r3, r2
 909 0402 ADF83630 		strh	r3, [sp, #54]	@ movhi
 910              	.L19:
 708:lvgl/src/lv_widgets/lv_img.c ****                 coords_tmp.x1 = zoomed_coords.x1;
 911              		.loc 1 708 29 discriminator 1 view .LVU292
 912 0406 BDF93220 		ldrsh	r2, [sp, #50]
 708:lvgl/src/lv_widgets/lv_img.c ****                 coords_tmp.x1 = zoomed_coords.x1;
 913              		.loc 1 708 48 discriminator 1 view .LVU293
 914 040a BDF92630 		ldrsh	r3, [sp, #38]
 708:lvgl/src/lv_widgets/lv_img.c ****                 coords_tmp.x1 = zoomed_coords.x1;
 915              		.loc 1 708 13 discriminator 1 view .LVU294
 916 040e 9A42     		cmp	r2, r3
 917 0410 BFF62BAF 		bge	.L23
 709:lvgl/src/lv_widgets/lv_img.c ****                 coords_tmp.x2 = zoomed_coords.x1 + ext->w - 1;
 918              		.loc 1 709 17 is_stmt 1 view .LVU295
 709:lvgl/src/lv_widgets/lv_img.c ****                 coords_tmp.x2 = zoomed_coords.x1 + ext->w - 1;
 919              		.loc 1 709 46 is_stmt 0 view .LVU296
 920 0414 BDF92030 		ldrsh	r3, [sp, #32]
 709:lvgl/src/lv_widgets/lv_img.c ****                 coords_tmp.x2 = zoomed_coords.x1 + ext->w - 1;
 921              		.loc 1 709 31 view .LVU297
 922 0418 ADF83030 		strh	r3, [sp, #48]	@ movhi
 710:lvgl/src/lv_widgets/lv_img.c ****                 for(; coords_tmp.x1 < zoomed_coords.x2; coords_tmp.x1 += zoomed_src_w, coords_tmp.x
 923              		.loc 1 710 17 is_stmt 1 view .LVU298
 710:lvgl/src/lv_widgets/lv_img.c ****                 for(; coords_tmp.x1 < zoomed_coords.x2; coords_tmp.x1 += zoomed_src_w, coords_tmp.x
 924              		.loc 1 710 55 is_stmt 0 view .LVU299
 925 041c 2A89     		ldrh	r2, [r5, #8]
 710:lvgl/src/lv_widgets/lv_img.c ****                 for(; coords_tmp.x1 < zoomed_coords.x2; coords_tmp.x1 += zoomed_src_w, coords_tmp.x
 926              		.loc 1 710 50 view .LVU300
 927 041e 12FA83F3 		uxtah	r3, r2, r3
 928 0422 9BB2     		uxth	r3, r3
 710:lvgl/src/lv_widgets/lv_img.c ****                 for(; coords_tmp.x1 < zoomed_coords.x2; coords_tmp.x1 += zoomed_src_w, coords_tmp.x
 929              		.loc 1 710 59 view .LVU301
 930 0424 013B     		subs	r3, r3, #1
 710:lvgl/src/lv_widgets/lv_img.c ****                 for(; coords_tmp.x1 < zoomed_coords.x2; coords_tmp.x1 += zoomed_src_w, coords_tmp.x
 931              		.loc 1 710 31 view .LVU302
 932 0426 ADF83430 		strh	r3, [sp, #52]	@ movhi
 711:lvgl/src/lv_widgets/lv_img.c ****                     lv_draw_img(&coords_tmp, &clip_real, ext->src, &img_dsc);
ARM GAS  D:\Temp\ccdlqfAs.s 			page 41


 933              		.loc 1 711 17 is_stmt 1 view .LVU303
 934              	.L20:
 711:lvgl/src/lv_widgets/lv_img.c ****                     lv_draw_img(&coords_tmp, &clip_real, ext->src, &img_dsc);
 935              		.loc 1 711 33 is_stmt 0 discriminator 1 view .LVU304
 936 042a BDF93020 		ldrsh	r2, [sp, #48]
 711:lvgl/src/lv_widgets/lv_img.c ****                     lv_draw_img(&coords_tmp, &clip_real, ext->src, &img_dsc);
 937              		.loc 1 711 52 discriminator 1 view .LVU305
 938 042e BDF92430 		ldrsh	r3, [sp, #36]
 711:lvgl/src/lv_widgets/lv_img.c ****                     lv_draw_img(&coords_tmp, &clip_real, ext->src, &img_dsc);
 939              		.loc 1 711 17 discriminator 1 view .LVU306
 940 0432 9A42     		cmp	r2, r3
 941 0434 DBDA     		bge	.L49
 712:lvgl/src/lv_widgets/lv_img.c ****                 }
 942              		.loc 1 712 21 is_stmt 1 discriminator 2 view .LVU307
 943 0436 0EAB     		add	r3, sp, #56
 944 0438 2A68     		ldr	r2, [r5]
 945 043a 0AA9     		add	r1, sp, #40
 946 043c 0CA8     		add	r0, sp, #48
 947 043e FFF7FEFF 		bl	lv_draw_img
 948              	.LVL84:
 711:lvgl/src/lv_widgets/lv_img.c ****                     lv_draw_img(&coords_tmp, &clip_real, ext->src, &img_dsc);
 949              		.loc 1 711 71 is_stmt 0 discriminator 2 view .LVU308
 950 0442 1FFA88F3 		uxth	r3, r8
 951 0446 BDF83020 		ldrh	r2, [sp, #48]
 952 044a 1A44     		add	r2, r2, r3
 953 044c ADF83020 		strh	r2, [sp, #48]	@ movhi
 711:lvgl/src/lv_widgets/lv_img.c ****                     lv_draw_img(&coords_tmp, &clip_real, ext->src, &img_dsc);
 954              		.loc 1 711 102 discriminator 2 view .LVU309
 955 0450 BDF83420 		ldrh	r2, [sp, #52]
 956 0454 1344     		add	r3, r3, r2
 957 0456 ADF83430 		strh	r3, [sp, #52]	@ movhi
 958 045a E6E7     		b	.L20
 959              	.LVL85:
 960              	.L16:
 671:lvgl/src/lv_widgets/lv_img.c **** 
 961              		.loc 1 671 42 discriminator 2 view .LVU310
 962 045c 0020     		movs	r0, #0
 963 045e 1EE0     		b	.L6
 964              	.LVL86:
 965              	.L48:
 671:lvgl/src/lv_widgets/lv_img.c **** 
 966              		.loc 1 671 42 discriminator 2 view .LVU311
 967              	.LBE123:
 968              	.LBB124:
 717:lvgl/src/lv_widgets/lv_img.c ****             lv_draw_label_dsc_t label_dsc;
 969              		.loc 1 717 64 is_stmt 1 view .LVU312
 718:lvgl/src/lv_widgets/lv_img.c ****             lv_draw_label_dsc_init(&label_dsc);
 970              		.loc 1 718 13 view .LVU313
 719:lvgl/src/lv_widgets/lv_img.c ****             lv_obj_init_draw_label_dsc(img, LV_IMG_PART_MAIN, &label_dsc);
 971              		.loc 1 719 13 view .LVU314
 972 0460 0EA8     		add	r0, sp, #56
 973 0462 FFF7FEFF 		bl	lv_draw_label_dsc_init
 974              	.LVL87:
 720:lvgl/src/lv_widgets/lv_img.c **** 
 975              		.loc 1 720 13 view .LVU315
 976 0466 0EAA     		add	r2, sp, #56
 977 0468 0021     		movs	r1, #0
ARM GAS  D:\Temp\ccdlqfAs.s 			page 42


 978 046a 2046     		mov	r0, r4
 979 046c FFF7FEFF 		bl	lv_obj_init_draw_label_dsc
 980              	.LVL88:
 722:lvgl/src/lv_widgets/lv_img.c ****             lv_draw_label(&img->coords, clip_area, &label_dsc, ext->src, NULL);
 981              		.loc 1 722 13 view .LVU316
 982              	.LBB125:
 983              	.LBI125:
 177:lvgl/src/lv_widgets/../lv_core/lv_obj_style_dec.h **** _LV_OBJ_STYLE_SET_GET_DECLARE(IMAGE_OPA, image_opa, lv_opa_t, _opa, scalar)
 984              		.loc 2 177 1 view .LVU317
 985              	.LBB126:
 177:lvgl/src/lv_widgets/../lv_core/lv_obj_style_dec.h **** _LV_OBJ_STYLE_SET_GET_DECLARE(IMAGE_OPA, image_opa, lv_opa_t, _opa, scalar)
 986              		.loc 2 177 1 view .LVU318
 987 0470 48F2A902 		movw	r2, #32937
 988 0474 0021     		movs	r1, #0
 989 0476 2046     		mov	r0, r4
 990 0478 FFF7FEFF 		bl	_lv_obj_get_style_color
 991              	.LVL89:
 177:lvgl/src/lv_widgets/../lv_core/lv_obj_style_dec.h **** _LV_OBJ_STYLE_SET_GET_DECLARE(IMAGE_OPA, image_opa, lv_opa_t, _opa, scalar)
 992              		.loc 2 177 1 is_stmt 0 view .LVU319
 993              	.LBE126:
 994              	.LBE125:
 722:lvgl/src/lv_widgets/lv_img.c ****             lv_draw_label(&img->coords, clip_area, &label_dsc, ext->src, NULL);
 995              		.loc 1 722 31 view .LVU320
 996 047c ADF83800 		strh	r0, [sp, #56]	@ movhi
 723:lvgl/src/lv_widgets/lv_img.c ****         }
 997              		.loc 1 723 13 is_stmt 1 view .LVU321
 723:lvgl/src/lv_widgets/lv_img.c ****         }
 998              		.loc 1 723 67 is_stmt 0 view .LVU322
 999 0480 2B68     		ldr	r3, [r5]
 723:lvgl/src/lv_widgets/lv_img.c ****         }
 1000              		.loc 1 723 13 view .LVU323
 1001 0482 0022     		movs	r2, #0
 1002 0484 0092     		str	r2, [sp]
 1003 0486 0EAA     		add	r2, sp, #56
 1004 0488 3146     		mov	r1, r6
 1005 048a 04F11000 		add	r0, r4, #16
 1006 048e FFF7FEFF 		bl	lv_draw_label
 1007              	.LVL90:
 1008              	.LBE124:
 1009 0492 EAE6     		b	.L23
 1010              	.LVL91:
 1011              	.L33:
 616:lvgl/src/lv_widgets/lv_img.c **** 
 1012              		.loc 1 616 47 view .LVU324
 1013 0494 0120     		movs	r0, #1
 1014              	.LVL92:
 616:lvgl/src/lv_widgets/lv_img.c **** 
 1015              		.loc 1 616 47 view .LVU325
 1016 0496 02E0     		b	.L6
 1017              	.LVL93:
 1018              	.L11:
 616:lvgl/src/lv_widgets/lv_img.c **** 
 1019              		.loc 1 616 47 view .LVU326
 1020              	.LBE143:
 731:lvgl/src/lv_widgets/lv_img.c ****         if(lv_obj_get_style_clip_corner(img, LV_OBJ_PART_MAIN)) {
 1021              		.loc 1 731 10 is_stmt 1 view .LVU327
 731:lvgl/src/lv_widgets/lv_img.c ****         if(lv_obj_get_style_clip_corner(img, LV_OBJ_PART_MAIN)) {
ARM GAS  D:\Temp\ccdlqfAs.s 			page 43


 1022              		.loc 1 731 12 is_stmt 0 view .LVU328
 1023 0498 012F     		cmp	r7, #1
 1024 049a 03D0     		beq	.L50
 768:lvgl/src/lv_widgets/lv_img.c **** }
 1025              		.loc 1 768 12 view .LVU329
 1026 049c 0020     		movs	r0, #0
 1027              	.LVL94:
 1028              	.L6:
 769:lvgl/src/lv_widgets/lv_img.c **** 
 1029              		.loc 1 769 1 view .LVU330
 1030 049e 2DB0     		add	sp, sp, #180
 1031              	.LCFI2:
 1032              		.cfi_remember_state
 1033              		.cfi_def_cfa_offset 36
 1034              		@ sp needed
 1035 04a0 BDE8F08F 		pop	{r4, r5, r6, r7, r8, r9, r10, fp, pc}
 1036              	.LVL95:
 1037              	.L50:
 1038              	.LCFI3:
 1039              		.cfi_restore_state
 732:lvgl/src/lv_widgets/lv_img.c ****             lv_draw_mask_radius_param_t * param = lv_draw_mask_remove_custom(img + 8);
 1040              		.loc 1 732 9 is_stmt 1 view .LVU331
 1041              	.LBB144:
 1042              	.LBI144:
 103:lvgl/src/lv_widgets/../lv_core/lv_obj_style_dec.h **** _LV_OBJ_STYLE_SET_GET_DECLARE(SIZE, size, lv_style_int_t, _int, scalar)
 1043              		.loc 2 103 1 view .LVU332
 1044              	.LBB145:
 103:lvgl/src/lv_widgets/../lv_core/lv_obj_style_dec.h **** _LV_OBJ_STYLE_SET_GET_DECLARE(SIZE, size, lv_style_int_t, _int, scalar)
 1045              		.loc 2 103 1 view .LVU333
 1046 04a4 0222     		movs	r2, #2
 1047 04a6 0021     		movs	r1, #0
 1048 04a8 2046     		mov	r0, r4
 1049              	.LVL96:
 103:lvgl/src/lv_widgets/../lv_core/lv_obj_style_dec.h **** _LV_OBJ_STYLE_SET_GET_DECLARE(SIZE, size, lv_style_int_t, _int, scalar)
 1050              		.loc 2 103 1 is_stmt 0 view .LVU334
 1051 04aa FFF7FEFF 		bl	_lv_obj_get_style_int
 1052              	.LVL97:
 103:lvgl/src/lv_widgets/../lv_core/lv_obj_style_dec.h **** _LV_OBJ_STYLE_SET_GET_DECLARE(SIZE, size, lv_style_int_t, _int, scalar)
 1053              		.loc 2 103 1 view .LVU335
 1054              	.LBE145:
 1055              	.LBE144:
 732:lvgl/src/lv_widgets/lv_img.c ****             lv_draw_mask_radius_param_t * param = lv_draw_mask_remove_custom(img + 8);
 1056              		.loc 1 732 11 view .LVU336
 1057 04ae 38B9     		cbnz	r0, .L51
 1058              	.L25:
 738:lvgl/src/lv_widgets/lv_img.c ****             lv_draw_rect_dsc_t draw_dsc;
 1059              		.loc 1 738 9 is_stmt 1 view .LVU337
 1060              	.LVL98:
 1061              	.LBB146:
 1062              	.LBI146:
 129:lvgl/src/lv_widgets/../lv_core/lv_obj_style_dec.h **** _LV_OBJ_STYLE_SET_GET_DECLARE(BORDER_COLOR, border_color, lv_color_t, _color, nonscalar)
 1063              		.loc 2 129 1 view .LVU338
 1064              	.LBB147:
 129:lvgl/src/lv_widgets/../lv_core/lv_obj_style_dec.h **** _LV_OBJ_STYLE_SET_GET_DECLARE(BORDER_COLOR, border_color, lv_color_t, _color, nonscalar)
 1065              		.loc 2 129 1 view .LVU339
 1066 04b0 3322     		movs	r2, #51
 1067 04b2 0021     		movs	r1, #0
ARM GAS  D:\Temp\ccdlqfAs.s 			page 44


 1068 04b4 2046     		mov	r0, r4
 1069 04b6 FFF7FEFF 		bl	_lv_obj_get_style_int
 1070              	.LVL99:
 129:lvgl/src/lv_widgets/../lv_core/lv_obj_style_dec.h **** _LV_OBJ_STYLE_SET_GET_DECLARE(BORDER_COLOR, border_color, lv_color_t, _color, nonscalar)
 1071              		.loc 2 129 1 is_stmt 0 view .LVU340
 1072              	.LBE147:
 1073              	.LBE146:
 738:lvgl/src/lv_widgets/lv_img.c ****             lv_draw_rect_dsc_t draw_dsc;
 1074              		.loc 1 738 11 view .LVU341
 1075 04ba 40B9     		cbnz	r0, .L52
 768:lvgl/src/lv_widgets/lv_img.c **** }
 1076              		.loc 1 768 12 view .LVU342
 1077 04bc 0020     		movs	r0, #0
 1078 04be EEE7     		b	.L6
 1079              	.L51:
 1080              	.LBB148:
 733:lvgl/src/lv_widgets/lv_img.c ****             _lv_mem_buf_release(param);
 1081              		.loc 1 733 13 is_stmt 1 view .LVU343
 733:lvgl/src/lv_widgets/lv_img.c ****             _lv_mem_buf_release(param);
 1082              		.loc 1 733 51 is_stmt 0 view .LVU344
 1083 04c0 04F51870 		add	r0, r4, #608
 1084 04c4 FFF7FEFF 		bl	lv_draw_mask_remove_custom
 1085              	.LVL100:
 734:lvgl/src/lv_widgets/lv_img.c ****         }
 1086              		.loc 1 734 13 is_stmt 1 view .LVU345
 1087 04c8 FFF7FEFF 		bl	_lv_mem_buf_release
 1088              	.LVL101:
 734:lvgl/src/lv_widgets/lv_img.c ****         }
 1089              		.loc 1 734 13 is_stmt 0 view .LVU346
 1090 04cc F0E7     		b	.L25
 1091              	.L52:
 734:lvgl/src/lv_widgets/lv_img.c ****         }
 1092              		.loc 1 734 13 view .LVU347
 1093              	.LBE148:
 1094              	.LBB149:
 739:lvgl/src/lv_widgets/lv_img.c ****             lv_draw_rect_dsc_init(&draw_dsc);
 1095              		.loc 1 739 13 is_stmt 1 view .LVU348
 740:lvgl/src/lv_widgets/lv_img.c ****             draw_dsc.bg_opa = LV_OPA_TRANSP;
 1096              		.loc 1 740 13 view .LVU349
 1097 04ce 17A8     		add	r0, sp, #92
 1098 04d0 FFF7FEFF 		bl	lv_draw_rect_dsc_init
 1099              	.LVL102:
 741:lvgl/src/lv_widgets/lv_img.c ****             draw_dsc.pattern_opa = LV_OPA_TRANSP;
 1100              		.loc 1 741 13 view .LVU350
 741:lvgl/src/lv_widgets/lv_img.c ****             draw_dsc.pattern_opa = LV_OPA_TRANSP;
 1101              		.loc 1 741 29 is_stmt 0 view .LVU351
 1102 04d4 0027     		movs	r7, #0
 1103 04d6 8DF86870 		strb	r7, [sp, #104]
 742:lvgl/src/lv_widgets/lv_img.c ****             draw_dsc.shadow_opa = LV_OPA_TRANSP;
 1104              		.loc 1 742 13 is_stmt 1 view .LVU352
 742:lvgl/src/lv_widgets/lv_img.c ****             draw_dsc.shadow_opa = LV_OPA_TRANSP;
 1105              		.loc 1 742 34 is_stmt 0 view .LVU353
 1106 04da 8DF89270 		strb	r7, [sp, #146]
 743:lvgl/src/lv_widgets/lv_img.c ****             lv_obj_init_draw_rect_dsc(img, LV_OBJ_PART_MAIN, &draw_dsc);
 1107              		.loc 1 743 13 is_stmt 1 view .LVU354
 743:lvgl/src/lv_widgets/lv_img.c ****             lv_obj_init_draw_rect_dsc(img, LV_OBJ_PART_MAIN, &draw_dsc);
 1108              		.loc 1 743 33 is_stmt 0 view .LVU355
ARM GAS  D:\Temp\ccdlqfAs.s 			page 45


 1109 04de 8DF88670 		strb	r7, [sp, #134]
 744:lvgl/src/lv_widgets/lv_img.c **** 
 1110              		.loc 1 744 13 is_stmt 1 view .LVU356
 1111 04e2 17AA     		add	r2, sp, #92
 1112 04e4 3946     		mov	r1, r7
 1113 04e6 2046     		mov	r0, r4
 1114 04e8 FFF7FEFF 		bl	lv_obj_init_draw_rect_dsc
 1115              	.LVL103:
 746:lvgl/src/lv_widgets/lv_img.c ****             zoom_final = (zoom_final * ext->zoom) >> 8;
 1116              		.loc 1 746 13 view .LVU357
 1117              	.LBB150:
 1118              	.LBI150:
 108:lvgl/src/lv_widgets/../lv_core/lv_obj_style_dec.h **** _LV_OBJ_STYLE_SET_GET_DECLARE(OPA_SCALE, opa_scale, lv_opa_t, _opa, scalar)
 1119              		.loc 2 108 1 view .LVU358
 1120              	.LBB151:
 108:lvgl/src/lv_widgets/../lv_core/lv_obj_style_dec.h **** _LV_OBJ_STYLE_SET_GET_DECLARE(OPA_SCALE, opa_scale, lv_opa_t, _opa, scalar)
 1121              		.loc 2 108 1 view .LVU359
 1122 04ec 0722     		movs	r2, #7
 1123 04ee 3946     		mov	r1, r7
 1124 04f0 2046     		mov	r0, r4
 1125 04f2 FFF7FEFF 		bl	_lv_obj_get_style_int
 1126              	.LVL104:
 108:lvgl/src/lv_widgets/../lv_core/lv_obj_style_dec.h **** _LV_OBJ_STYLE_SET_GET_DECLARE(OPA_SCALE, opa_scale, lv_opa_t, _opa, scalar)
 1127              		.loc 2 108 1 is_stmt 0 view .LVU360
 1128              	.LBE151:
 1129              	.LBE150:
 747:lvgl/src/lv_widgets/lv_img.c **** 
 1130              		.loc 1 747 13 is_stmt 1 view .LVU361
 747:lvgl/src/lv_widgets/lv_img.c **** 
 1131              		.loc 1 747 43 is_stmt 0 view .LVU362
 1132 04f6 B5F81280 		ldrh	r8, [r5, #18]
 747:lvgl/src/lv_widgets/lv_img.c **** 
 1133              		.loc 1 747 38 view .LVU363
 1134 04fa 00FB08F8 		mul	r8, r0, r8
 747:lvgl/src/lv_widgets/lv_img.c **** 
 1135              		.loc 1 747 24 view .LVU364
 1136 04fe 4FEA2828 		asr	r8, r8, #8
 1137              	.LVL105:
 749:lvgl/src/lv_widgets/lv_img.c ****             angle_final += ext->angle;
 1138              		.loc 1 749 13 is_stmt 1 view .LVU365
 1139              	.LBB152:
 1140              	.LBI152:
 107:lvgl/src/lv_widgets/../lv_core/lv_obj_style_dec.h **** _LV_OBJ_STYLE_SET_GET_DECLARE(TRANSFORM_ZOOM, transform_zoom, lv_style_int_t, _int, scalar)
 1141              		.loc 2 107 1 view .LVU366
 1142              	.LBB153:
 107:lvgl/src/lv_widgets/../lv_core/lv_obj_style_dec.h **** _LV_OBJ_STYLE_SET_GET_DECLARE(TRANSFORM_ZOOM, transform_zoom, lv_style_int_t, _int, scalar)
 1143              		.loc 2 107 1 view .LVU367
 1144 0502 0622     		movs	r2, #6
 1145 0504 3946     		mov	r1, r7
 1146 0506 2046     		mov	r0, r4
 1147 0508 FFF7FEFF 		bl	_lv_obj_get_style_int
 1148              	.LVL106:
 107:lvgl/src/lv_widgets/../lv_core/lv_obj_style_dec.h **** _LV_OBJ_STYLE_SET_GET_DECLARE(TRANSFORM_ZOOM, transform_zoom, lv_style_int_t, _int, scalar)
 1149              		.loc 2 107 1 is_stmt 0 view .LVU368
 1150              	.LBE153:
 1151              	.LBE152:
 750:lvgl/src/lv_widgets/lv_img.c **** 
ARM GAS  D:\Temp\ccdlqfAs.s 			page 46


 1152              		.loc 1 750 13 is_stmt 1 view .LVU369
 750:lvgl/src/lv_widgets/lv_img.c **** 
 1153              		.loc 1 750 31 is_stmt 0 view .LVU370
 1154 050c AB89     		ldrh	r3, [r5, #12]
 750:lvgl/src/lv_widgets/lv_img.c **** 
 1155              		.loc 1 750 25 view .LVU371
 1156 050e 0344     		add	r3, r3, r0
 1157              	.LVL107:
 752:lvgl/src/lv_widgets/lv_img.c ****             _lv_img_buf_get_transformed_area(&bg_coords, lv_area_get_width(&img->coords), lv_area_g
 1158              		.loc 1 752 13 is_stmt 1 view .LVU372
 753:lvgl/src/lv_widgets/lv_img.c ****                                              angle_final, zoom_final, &ext->pivot);
 1159              		.loc 1 753 13 view .LVU373
 1160              	.LBB154:
 1161              	.LBI154:
 1162              		.file 3 "d:\\_project\\stm32\\f407\\hack_rf_new\\lvgl\\src\\lv_misc\\lv_area.h"
   1:d:\_project\stm32\f407\hack_rf_new\lvgl\src\lv_misc\lv_area.h **** /**
   2:d:\_project\stm32\f407\hack_rf_new\lvgl\src\lv_misc\lv_area.h ****  * @file lv_area.h
   3:d:\_project\stm32\f407\hack_rf_new\lvgl\src\lv_misc\lv_area.h ****  *
   4:d:\_project\stm32\f407\hack_rf_new\lvgl\src\lv_misc\lv_area.h ****  */
   5:d:\_project\stm32\f407\hack_rf_new\lvgl\src\lv_misc\lv_area.h **** 
   6:d:\_project\stm32\f407\hack_rf_new\lvgl\src\lv_misc\lv_area.h **** #ifndef LV_AREA_H
   7:d:\_project\stm32\f407\hack_rf_new\lvgl\src\lv_misc\lv_area.h **** #define LV_AREA_H
   8:d:\_project\stm32\f407\hack_rf_new\lvgl\src\lv_misc\lv_area.h **** 
   9:d:\_project\stm32\f407\hack_rf_new\lvgl\src\lv_misc\lv_area.h **** #ifdef __cplusplus
  10:d:\_project\stm32\f407\hack_rf_new\lvgl\src\lv_misc\lv_area.h **** extern "C" {
  11:d:\_project\stm32\f407\hack_rf_new\lvgl\src\lv_misc\lv_area.h **** #endif
  12:d:\_project\stm32\f407\hack_rf_new\lvgl\src\lv_misc\lv_area.h **** 
  13:d:\_project\stm32\f407\hack_rf_new\lvgl\src\lv_misc\lv_area.h **** /*********************
  14:d:\_project\stm32\f407\hack_rf_new\lvgl\src\lv_misc\lv_area.h ****  *      INCLUDES
  15:d:\_project\stm32\f407\hack_rf_new\lvgl\src\lv_misc\lv_area.h ****  *********************/
  16:d:\_project\stm32\f407\hack_rf_new\lvgl\src\lv_misc\lv_area.h **** #include "../lv_conf_internal.h"
  17:d:\_project\stm32\f407\hack_rf_new\lvgl\src\lv_misc\lv_area.h **** #include <string.h>
  18:d:\_project\stm32\f407\hack_rf_new\lvgl\src\lv_misc\lv_area.h **** #include <stdbool.h>
  19:d:\_project\stm32\f407\hack_rf_new\lvgl\src\lv_misc\lv_area.h **** #include <stdint.h>
  20:d:\_project\stm32\f407\hack_rf_new\lvgl\src\lv_misc\lv_area.h **** #include "lv_mem.h"
  21:d:\_project\stm32\f407\hack_rf_new\lvgl\src\lv_misc\lv_area.h **** 
  22:d:\_project\stm32\f407\hack_rf_new\lvgl\src\lv_misc\lv_area.h **** /*********************
  23:d:\_project\stm32\f407\hack_rf_new\lvgl\src\lv_misc\lv_area.h ****  *      DEFINES
  24:d:\_project\stm32\f407\hack_rf_new\lvgl\src\lv_misc\lv_area.h ****  *********************/
  25:d:\_project\stm32\f407\hack_rf_new\lvgl\src\lv_misc\lv_area.h **** /*To avoid overflow don't let the max ranges (reduce with 1000) */
  26:d:\_project\stm32\f407\hack_rf_new\lvgl\src\lv_misc\lv_area.h **** #define LV_COORD_MAX ((lv_coord_t)((uint32_t)((uint32_t)1 << (8 * sizeof(lv_coord_t) - 1)) - 1000))
  27:d:\_project\stm32\f407\hack_rf_new\lvgl\src\lv_misc\lv_area.h **** #define LV_COORD_MIN (-LV_COORD_MAX)
  28:d:\_project\stm32\f407\hack_rf_new\lvgl\src\lv_misc\lv_area.h **** 
  29:d:\_project\stm32\f407\hack_rf_new\lvgl\src\lv_misc\lv_area.h **** LV_EXPORT_CONST_INT(LV_COORD_MAX);
  30:d:\_project\stm32\f407\hack_rf_new\lvgl\src\lv_misc\lv_area.h **** LV_EXPORT_CONST_INT(LV_COORD_MIN);
  31:d:\_project\stm32\f407\hack_rf_new\lvgl\src\lv_misc\lv_area.h **** 
  32:d:\_project\stm32\f407\hack_rf_new\lvgl\src\lv_misc\lv_area.h **** /**********************
  33:d:\_project\stm32\f407\hack_rf_new\lvgl\src\lv_misc\lv_area.h ****  *      TYPEDEFS
  34:d:\_project\stm32\f407\hack_rf_new\lvgl\src\lv_misc\lv_area.h ****  **********************/
  35:d:\_project\stm32\f407\hack_rf_new\lvgl\src\lv_misc\lv_area.h **** 
  36:d:\_project\stm32\f407\hack_rf_new\lvgl\src\lv_misc\lv_area.h **** /**
  37:d:\_project\stm32\f407\hack_rf_new\lvgl\src\lv_misc\lv_area.h ****  * Represents a point on the screen.
  38:d:\_project\stm32\f407\hack_rf_new\lvgl\src\lv_misc\lv_area.h ****  */
  39:d:\_project\stm32\f407\hack_rf_new\lvgl\src\lv_misc\lv_area.h **** typedef struct {
  40:d:\_project\stm32\f407\hack_rf_new\lvgl\src\lv_misc\lv_area.h ****     lv_coord_t x;
  41:d:\_project\stm32\f407\hack_rf_new\lvgl\src\lv_misc\lv_area.h ****     lv_coord_t y;
  42:d:\_project\stm32\f407\hack_rf_new\lvgl\src\lv_misc\lv_area.h **** } lv_point_t;
ARM GAS  D:\Temp\ccdlqfAs.s 			page 47


  43:d:\_project\stm32\f407\hack_rf_new\lvgl\src\lv_misc\lv_area.h **** 
  44:d:\_project\stm32\f407\hack_rf_new\lvgl\src\lv_misc\lv_area.h **** /** Represents an area of the screen. */
  45:d:\_project\stm32\f407\hack_rf_new\lvgl\src\lv_misc\lv_area.h **** typedef struct {
  46:d:\_project\stm32\f407\hack_rf_new\lvgl\src\lv_misc\lv_area.h ****     lv_coord_t x1;
  47:d:\_project\stm32\f407\hack_rf_new\lvgl\src\lv_misc\lv_area.h ****     lv_coord_t y1;
  48:d:\_project\stm32\f407\hack_rf_new\lvgl\src\lv_misc\lv_area.h ****     lv_coord_t x2;
  49:d:\_project\stm32\f407\hack_rf_new\lvgl\src\lv_misc\lv_area.h ****     lv_coord_t y2;
  50:d:\_project\stm32\f407\hack_rf_new\lvgl\src\lv_misc\lv_area.h **** } lv_area_t;
  51:d:\_project\stm32\f407\hack_rf_new\lvgl\src\lv_misc\lv_area.h **** 
  52:d:\_project\stm32\f407\hack_rf_new\lvgl\src\lv_misc\lv_area.h **** /** Alignments */
  53:d:\_project\stm32\f407\hack_rf_new\lvgl\src\lv_misc\lv_area.h **** enum {
  54:d:\_project\stm32\f407\hack_rf_new\lvgl\src\lv_misc\lv_area.h ****     LV_ALIGN_CENTER = 0,
  55:d:\_project\stm32\f407\hack_rf_new\lvgl\src\lv_misc\lv_area.h ****     LV_ALIGN_IN_TOP_LEFT,
  56:d:\_project\stm32\f407\hack_rf_new\lvgl\src\lv_misc\lv_area.h ****     LV_ALIGN_IN_TOP_MID,
  57:d:\_project\stm32\f407\hack_rf_new\lvgl\src\lv_misc\lv_area.h ****     LV_ALIGN_IN_TOP_RIGHT,
  58:d:\_project\stm32\f407\hack_rf_new\lvgl\src\lv_misc\lv_area.h ****     LV_ALIGN_IN_BOTTOM_LEFT,
  59:d:\_project\stm32\f407\hack_rf_new\lvgl\src\lv_misc\lv_area.h ****     LV_ALIGN_IN_BOTTOM_MID,
  60:d:\_project\stm32\f407\hack_rf_new\lvgl\src\lv_misc\lv_area.h ****     LV_ALIGN_IN_BOTTOM_RIGHT,
  61:d:\_project\stm32\f407\hack_rf_new\lvgl\src\lv_misc\lv_area.h ****     LV_ALIGN_IN_LEFT_MID,
  62:d:\_project\stm32\f407\hack_rf_new\lvgl\src\lv_misc\lv_area.h ****     LV_ALIGN_IN_RIGHT_MID,
  63:d:\_project\stm32\f407\hack_rf_new\lvgl\src\lv_misc\lv_area.h ****     LV_ALIGN_OUT_TOP_LEFT,
  64:d:\_project\stm32\f407\hack_rf_new\lvgl\src\lv_misc\lv_area.h ****     LV_ALIGN_OUT_TOP_MID,
  65:d:\_project\stm32\f407\hack_rf_new\lvgl\src\lv_misc\lv_area.h ****     LV_ALIGN_OUT_TOP_RIGHT,
  66:d:\_project\stm32\f407\hack_rf_new\lvgl\src\lv_misc\lv_area.h ****     LV_ALIGN_OUT_BOTTOM_LEFT,
  67:d:\_project\stm32\f407\hack_rf_new\lvgl\src\lv_misc\lv_area.h ****     LV_ALIGN_OUT_BOTTOM_MID,
  68:d:\_project\stm32\f407\hack_rf_new\lvgl\src\lv_misc\lv_area.h ****     LV_ALIGN_OUT_BOTTOM_RIGHT,
  69:d:\_project\stm32\f407\hack_rf_new\lvgl\src\lv_misc\lv_area.h ****     LV_ALIGN_OUT_LEFT_TOP,
  70:d:\_project\stm32\f407\hack_rf_new\lvgl\src\lv_misc\lv_area.h ****     LV_ALIGN_OUT_LEFT_MID,
  71:d:\_project\stm32\f407\hack_rf_new\lvgl\src\lv_misc\lv_area.h ****     LV_ALIGN_OUT_LEFT_BOTTOM,
  72:d:\_project\stm32\f407\hack_rf_new\lvgl\src\lv_misc\lv_area.h ****     LV_ALIGN_OUT_RIGHT_TOP,
  73:d:\_project\stm32\f407\hack_rf_new\lvgl\src\lv_misc\lv_area.h ****     LV_ALIGN_OUT_RIGHT_MID,
  74:d:\_project\stm32\f407\hack_rf_new\lvgl\src\lv_misc\lv_area.h ****     LV_ALIGN_OUT_RIGHT_BOTTOM,
  75:d:\_project\stm32\f407\hack_rf_new\lvgl\src\lv_misc\lv_area.h **** };
  76:d:\_project\stm32\f407\hack_rf_new\lvgl\src\lv_misc\lv_area.h **** typedef uint8_t lv_align_t;
  77:d:\_project\stm32\f407\hack_rf_new\lvgl\src\lv_misc\lv_area.h **** 
  78:d:\_project\stm32\f407\hack_rf_new\lvgl\src\lv_misc\lv_area.h **** /**********************
  79:d:\_project\stm32\f407\hack_rf_new\lvgl\src\lv_misc\lv_area.h ****  * GLOBAL PROTOTYPES
  80:d:\_project\stm32\f407\hack_rf_new\lvgl\src\lv_misc\lv_area.h ****  **********************/
  81:d:\_project\stm32\f407\hack_rf_new\lvgl\src\lv_misc\lv_area.h **** 
  82:d:\_project\stm32\f407\hack_rf_new\lvgl\src\lv_misc\lv_area.h **** /**
  83:d:\_project\stm32\f407\hack_rf_new\lvgl\src\lv_misc\lv_area.h ****  * Initialize an area
  84:d:\_project\stm32\f407\hack_rf_new\lvgl\src\lv_misc\lv_area.h ****  * @param area_p pointer to an area
  85:d:\_project\stm32\f407\hack_rf_new\lvgl\src\lv_misc\lv_area.h ****  * @param x1 left coordinate of the area
  86:d:\_project\stm32\f407\hack_rf_new\lvgl\src\lv_misc\lv_area.h ****  * @param y1 top coordinate of the area
  87:d:\_project\stm32\f407\hack_rf_new\lvgl\src\lv_misc\lv_area.h ****  * @param x2 right coordinate of the area
  88:d:\_project\stm32\f407\hack_rf_new\lvgl\src\lv_misc\lv_area.h ****  * @param y2 bottom coordinate of the area
  89:d:\_project\stm32\f407\hack_rf_new\lvgl\src\lv_misc\lv_area.h ****  */
  90:d:\_project\stm32\f407\hack_rf_new\lvgl\src\lv_misc\lv_area.h **** void lv_area_set(lv_area_t * area_p, lv_coord_t x1, lv_coord_t y1, lv_coord_t x2, lv_coord_t y2);
  91:d:\_project\stm32\f407\hack_rf_new\lvgl\src\lv_misc\lv_area.h **** 
  92:d:\_project\stm32\f407\hack_rf_new\lvgl\src\lv_misc\lv_area.h **** /**
  93:d:\_project\stm32\f407\hack_rf_new\lvgl\src\lv_misc\lv_area.h ****  * Copy an area
  94:d:\_project\stm32\f407\hack_rf_new\lvgl\src\lv_misc\lv_area.h ****  * @param dest pointer to the destination area
  95:d:\_project\stm32\f407\hack_rf_new\lvgl\src\lv_misc\lv_area.h ****  * @param src pointer to the source area
  96:d:\_project\stm32\f407\hack_rf_new\lvgl\src\lv_misc\lv_area.h ****  */
  97:d:\_project\stm32\f407\hack_rf_new\lvgl\src\lv_misc\lv_area.h **** inline static void lv_area_copy(lv_area_t * dest, const lv_area_t * src)
  98:d:\_project\stm32\f407\hack_rf_new\lvgl\src\lv_misc\lv_area.h **** {
  99:d:\_project\stm32\f407\hack_rf_new\lvgl\src\lv_misc\lv_area.h ****     _lv_memcpy_small(dest, src, sizeof(lv_area_t));
ARM GAS  D:\Temp\ccdlqfAs.s 			page 48


 100:d:\_project\stm32\f407\hack_rf_new\lvgl\src\lv_misc\lv_area.h **** }
 101:d:\_project\stm32\f407\hack_rf_new\lvgl\src\lv_misc\lv_area.h **** 
 102:d:\_project\stm32\f407\hack_rf_new\lvgl\src\lv_misc\lv_area.h **** /**
 103:d:\_project\stm32\f407\hack_rf_new\lvgl\src\lv_misc\lv_area.h ****  * Get the width of an area
 104:d:\_project\stm32\f407\hack_rf_new\lvgl\src\lv_misc\lv_area.h ****  * @param area_p pointer to an area
 105:d:\_project\stm32\f407\hack_rf_new\lvgl\src\lv_misc\lv_area.h ****  * @return the width of the area (if x1 == x2 -> width = 1)
 106:d:\_project\stm32\f407\hack_rf_new\lvgl\src\lv_misc\lv_area.h ****  */
 107:d:\_project\stm32\f407\hack_rf_new\lvgl\src\lv_misc\lv_area.h **** static inline lv_coord_t lv_area_get_width(const lv_area_t * area_p)
 1163              		.loc 3 107 26 view .LVU374
 1164              	.LBB155:
 108:d:\_project\stm32\f407\hack_rf_new\lvgl\src\lv_misc\lv_area.h **** {
 109:d:\_project\stm32\f407\hack_rf_new\lvgl\src\lv_misc\lv_area.h ****     return (lv_coord_t)(area_p->x2 - area_p->x1 + 1);
 1165              		.loc 3 109 5 view .LVU375
 1166              		.loc 3 109 31 is_stmt 0 view .LVU376
 1167 0510 A18A     		ldrh	r1, [r4, #20]
 1168              		.loc 3 109 44 view .LVU377
 1169 0512 228A     		ldrh	r2, [r4, #16]
 1170              		.loc 3 109 36 view .LVU378
 1171 0514 891A     		subs	r1, r1, r2
 1172 0516 89B2     		uxth	r1, r1
 1173              		.loc 3 109 49 view .LVU379
 1174 0518 0131     		adds	r1, r1, #1
 1175              	.LVL108:
 1176              		.loc 3 109 49 view .LVU380
 1177              	.LBE155:
 1178              	.LBE154:
 1179              	.LBB156:
 1180              	.LBI156:
 110:d:\_project\stm32\f407\hack_rf_new\lvgl\src\lv_misc\lv_area.h **** }
 111:d:\_project\stm32\f407\hack_rf_new\lvgl\src\lv_misc\lv_area.h **** 
 112:d:\_project\stm32\f407\hack_rf_new\lvgl\src\lv_misc\lv_area.h **** /**
 113:d:\_project\stm32\f407\hack_rf_new\lvgl\src\lv_misc\lv_area.h ****  * Get the height of an area
 114:d:\_project\stm32\f407\hack_rf_new\lvgl\src\lv_misc\lv_area.h ****  * @param area_p pointer to an area
 115:d:\_project\stm32\f407\hack_rf_new\lvgl\src\lv_misc\lv_area.h ****  * @return the height of the area (if y1 == y2 -> height = 1)
 116:d:\_project\stm32\f407\hack_rf_new\lvgl\src\lv_misc\lv_area.h ****  */
 117:d:\_project\stm32\f407\hack_rf_new\lvgl\src\lv_misc\lv_area.h **** static inline lv_coord_t lv_area_get_height(const lv_area_t * area_p)
 1181              		.loc 3 117 26 is_stmt 1 view .LVU381
 1182              	.LBB157:
 118:d:\_project\stm32\f407\hack_rf_new\lvgl\src\lv_misc\lv_area.h **** {
 119:d:\_project\stm32\f407\hack_rf_new\lvgl\src\lv_misc\lv_area.h ****     return (lv_coord_t)(area_p->y2 - area_p->y1 + 1);
 1183              		.loc 3 119 5 view .LVU382
 1184              		.loc 3 119 31 is_stmt 0 view .LVU383
 1185 051a E28A     		ldrh	r2, [r4, #22]
 1186              		.loc 3 119 44 view .LVU384
 1187 051c 608A     		ldrh	r0, [r4, #18]
 1188              		.loc 3 119 36 view .LVU385
 1189 051e 121A     		subs	r2, r2, r0
 1190 0520 92B2     		uxth	r2, r2
 1191              		.loc 3 119 49 view .LVU386
 1192 0522 0132     		adds	r2, r2, #1
 1193              	.LVL109:
 1194              		.loc 3 119 49 view .LVU387
 1195              	.LBE157:
 1196              	.LBE156:
 754:lvgl/src/lv_widgets/lv_img.c ****             bg_coords.x1 += img->coords.x1;
 1197              		.loc 1 754 71 view .LVU388
 1198 0524 0E35     		adds	r5, r5, #14
ARM GAS  D:\Temp\ccdlqfAs.s 			page 49


 1199              	.LVL110:
 753:lvgl/src/lv_widgets/lv_img.c ****                                              angle_final, zoom_final, &ext->pivot);
 1200              		.loc 1 753 13 view .LVU389
 1201 0526 0195     		str	r5, [sp, #4]
 1202 0528 1FFA88F0 		uxth	r0, r8
 1203 052c 0090     		str	r0, [sp]
 1204 052e 1BB2     		sxth	r3, r3
 1205              	.LVL111:
 753:lvgl/src/lv_widgets/lv_img.c ****                                              angle_final, zoom_final, &ext->pivot);
 1206              		.loc 1 753 13 view .LVU390
 1207 0530 12B2     		sxth	r2, r2
 1208 0532 09B2     		sxth	r1, r1
 1209 0534 0EA8     		add	r0, sp, #56
 1210 0536 FFF7FEFF 		bl	_lv_img_buf_get_transformed_area
 1211              	.LVL112:
 755:lvgl/src/lv_widgets/lv_img.c ****             bg_coords.y1 += img->coords.y1;
 1212              		.loc 1 755 13 is_stmt 1 view .LVU391
 755:lvgl/src/lv_widgets/lv_img.c ****             bg_coords.y1 += img->coords.y1;
 1213              		.loc 1 755 40 is_stmt 0 view .LVU392
 1214 053a 228A     		ldrh	r2, [r4, #16]
 755:lvgl/src/lv_widgets/lv_img.c ****             bg_coords.y1 += img->coords.y1;
 1215              		.loc 1 755 26 view .LVU393
 1216 053c BDF83830 		ldrh	r3, [sp, #56]
 1217 0540 1344     		add	r3, r3, r2
 1218 0542 ADF83830 		strh	r3, [sp, #56]	@ movhi
 756:lvgl/src/lv_widgets/lv_img.c ****             bg_coords.x2 += img->coords.x1;
 1219              		.loc 1 756 13 is_stmt 1 view .LVU394
 756:lvgl/src/lv_widgets/lv_img.c ****             bg_coords.x2 += img->coords.x1;
 1220              		.loc 1 756 40 is_stmt 0 view .LVU395
 1221 0546 638A     		ldrh	r3, [r4, #18]
 756:lvgl/src/lv_widgets/lv_img.c ****             bg_coords.x2 += img->coords.x1;
 1222              		.loc 1 756 26 view .LVU396
 1223 0548 BDF83A10 		ldrh	r1, [sp, #58]
 1224 054c 1944     		add	r1, r1, r3
 1225 054e ADF83A10 		strh	r1, [sp, #58]	@ movhi
 757:lvgl/src/lv_widgets/lv_img.c ****             bg_coords.y2 += img->coords.y1;
 1226              		.loc 1 757 13 is_stmt 1 view .LVU397
 757:lvgl/src/lv_widgets/lv_img.c ****             bg_coords.y2 += img->coords.y1;
 1227              		.loc 1 757 26 is_stmt 0 view .LVU398
 1228 0552 BDF83C10 		ldrh	r1, [sp, #60]
 1229 0556 0A44     		add	r2, r2, r1
 1230 0558 ADF83C20 		strh	r2, [sp, #60]	@ movhi
 758:lvgl/src/lv_widgets/lv_img.c ****             bg_coords.x1 -= lv_obj_get_style_pad_left(img, LV_IMG_PART_MAIN);
 1231              		.loc 1 758 13 is_stmt 1 view .LVU399
 758:lvgl/src/lv_widgets/lv_img.c ****             bg_coords.x1 -= lv_obj_get_style_pad_left(img, LV_IMG_PART_MAIN);
 1232              		.loc 1 758 26 is_stmt 0 view .LVU400
 1233 055c BDF83E20 		ldrh	r2, [sp, #62]
 1234 0560 1344     		add	r3, r3, r2
 1235 0562 ADF83E30 		strh	r3, [sp, #62]	@ movhi
 759:lvgl/src/lv_widgets/lv_img.c ****             bg_coords.x2 += lv_obj_get_style_pad_right(img, LV_IMG_PART_MAIN);
 1236              		.loc 1 759 13 is_stmt 1 view .LVU401
 1237              	.LVL113:
 1238              	.LBB158:
 1239              	.LBI158:
 112:lvgl/src/lv_widgets/../lv_core/lv_obj_style_dec.h **** _LV_OBJ_STYLE_SET_GET_DECLARE(PAD_RIGHT, pad_right, lv_style_int_t, _int, scalar)
 1240              		.loc 2 112 1 view .LVU402
 1241              	.LBB159:
ARM GAS  D:\Temp\ccdlqfAs.s 			page 50


 112:lvgl/src/lv_widgets/../lv_core/lv_obj_style_dec.h **** _LV_OBJ_STYLE_SET_GET_DECLARE(PAD_RIGHT, pad_right, lv_style_int_t, _int, scalar)
 1242              		.loc 2 112 1 view .LVU403
 1243 0566 1222     		movs	r2, #18
 1244 0568 3946     		mov	r1, r7
 1245 056a 2046     		mov	r0, r4
 1246 056c FFF7FEFF 		bl	_lv_obj_get_style_int
 1247              	.LVL114:
 112:lvgl/src/lv_widgets/../lv_core/lv_obj_style_dec.h **** _LV_OBJ_STYLE_SET_GET_DECLARE(PAD_RIGHT, pad_right, lv_style_int_t, _int, scalar)
 1248              		.loc 2 112 1 is_stmt 0 view .LVU404
 1249              	.LBE159:
 1250              	.LBE158:
 759:lvgl/src/lv_widgets/lv_img.c ****             bg_coords.x2 += lv_obj_get_style_pad_right(img, LV_IMG_PART_MAIN);
 1251              		.loc 1 759 29 view .LVU405
 1252 0570 80B2     		uxth	r0, r0
 759:lvgl/src/lv_widgets/lv_img.c ****             bg_coords.x2 += lv_obj_get_style_pad_right(img, LV_IMG_PART_MAIN);
 1253              		.loc 1 759 26 view .LVU406
 1254 0572 BDF83830 		ldrh	r3, [sp, #56]
 1255 0576 1B1A     		subs	r3, r3, r0
 1256 0578 ADF83830 		strh	r3, [sp, #56]	@ movhi
 760:lvgl/src/lv_widgets/lv_img.c ****             bg_coords.y1 -= lv_obj_get_style_pad_top(img, LV_IMG_PART_MAIN);
 1257              		.loc 1 760 13 is_stmt 1 view .LVU407
 1258              	.LVL115:
 1259              	.LBB160:
 1260              	.LBI160:
 113:lvgl/src/lv_widgets/../lv_core/lv_obj_style_dec.h **** _LV_OBJ_STYLE_SET_GET_DECLARE(PAD_INNER, pad_inner, lv_style_int_t, _int, scalar)
 1261              		.loc 2 113 1 view .LVU408
 1262              	.LBB161:
 113:lvgl/src/lv_widgets/../lv_core/lv_obj_style_dec.h **** _LV_OBJ_STYLE_SET_GET_DECLARE(PAD_INNER, pad_inner, lv_style_int_t, _int, scalar)
 1263              		.loc 2 113 1 view .LVU409
 1264 057c 1322     		movs	r2, #19
 1265 057e 3946     		mov	r1, r7
 1266 0580 2046     		mov	r0, r4
 1267 0582 FFF7FEFF 		bl	_lv_obj_get_style_int
 1268              	.LVL116:
 113:lvgl/src/lv_widgets/../lv_core/lv_obj_style_dec.h **** _LV_OBJ_STYLE_SET_GET_DECLARE(PAD_INNER, pad_inner, lv_style_int_t, _int, scalar)
 1269              		.loc 2 113 1 is_stmt 0 view .LVU410
 1270              	.LBE161:
 1271              	.LBE160:
 760:lvgl/src/lv_widgets/lv_img.c ****             bg_coords.y1 -= lv_obj_get_style_pad_top(img, LV_IMG_PART_MAIN);
 1272              		.loc 1 760 26 view .LVU411
 1273 0586 BDF83C30 		ldrh	r3, [sp, #60]
 1274 058a 13FA80F0 		uxtah	r0, r3, r0
 1275 058e ADF83C00 		strh	r0, [sp, #60]	@ movhi
 761:lvgl/src/lv_widgets/lv_img.c ****             bg_coords.y2 += lv_obj_get_style_pad_bottom(img, LV_IMG_PART_MAIN);
 1276              		.loc 1 761 13 is_stmt 1 view .LVU412
 1277              	.LVL117:
 1278              	.LBB162:
 1279              	.LBI162:
 110:lvgl/src/lv_widgets/../lv_core/lv_obj_style_dec.h **** _LV_OBJ_STYLE_SET_GET_DECLARE(PAD_BOTTOM, pad_bottom, lv_style_int_t, _int, scalar)
 1280              		.loc 2 110 1 view .LVU413
 1281              	.LBB163:
 110:lvgl/src/lv_widgets/../lv_core/lv_obj_style_dec.h **** _LV_OBJ_STYLE_SET_GET_DECLARE(PAD_BOTTOM, pad_bottom, lv_style_int_t, _int, scalar)
 1282              		.loc 2 110 1 view .LVU414
 1283 0592 1022     		movs	r2, #16
 1284 0594 3946     		mov	r1, r7
 1285 0596 2046     		mov	r0, r4
 1286 0598 FFF7FEFF 		bl	_lv_obj_get_style_int
ARM GAS  D:\Temp\ccdlqfAs.s 			page 51


 1287              	.LVL118:
 110:lvgl/src/lv_widgets/../lv_core/lv_obj_style_dec.h **** _LV_OBJ_STYLE_SET_GET_DECLARE(PAD_BOTTOM, pad_bottom, lv_style_int_t, _int, scalar)
 1288              		.loc 2 110 1 is_stmt 0 view .LVU415
 1289              	.LBE163:
 1290              	.LBE162:
 761:lvgl/src/lv_widgets/lv_img.c ****             bg_coords.y2 += lv_obj_get_style_pad_bottom(img, LV_IMG_PART_MAIN);
 1291              		.loc 1 761 29 view .LVU416
 1292 059c 80B2     		uxth	r0, r0
 761:lvgl/src/lv_widgets/lv_img.c ****             bg_coords.y2 += lv_obj_get_style_pad_bottom(img, LV_IMG_PART_MAIN);
 1293              		.loc 1 761 26 view .LVU417
 1294 059e BDF83A30 		ldrh	r3, [sp, #58]
 1295 05a2 1B1A     		subs	r3, r3, r0
 1296 05a4 ADF83A30 		strh	r3, [sp, #58]	@ movhi
 762:lvgl/src/lv_widgets/lv_img.c **** 
 1297              		.loc 1 762 13 is_stmt 1 view .LVU418
 1298              	.LVL119:
 1299              	.LBB164:
 1300              	.LBI164:
 111:lvgl/src/lv_widgets/../lv_core/lv_obj_style_dec.h **** _LV_OBJ_STYLE_SET_GET_DECLARE(PAD_LEFT, pad_left, lv_style_int_t, _int, scalar)
 1301              		.loc 2 111 1 view .LVU419
 1302              	.LBB165:
 111:lvgl/src/lv_widgets/../lv_core/lv_obj_style_dec.h **** _LV_OBJ_STYLE_SET_GET_DECLARE(PAD_LEFT, pad_left, lv_style_int_t, _int, scalar)
 1303              		.loc 2 111 1 view .LVU420
 1304 05a8 1122     		movs	r2, #17
 1305 05aa 3946     		mov	r1, r7
 1306 05ac 2046     		mov	r0, r4
 1307 05ae FFF7FEFF 		bl	_lv_obj_get_style_int
 1308              	.LVL120:
 111:lvgl/src/lv_widgets/../lv_core/lv_obj_style_dec.h **** _LV_OBJ_STYLE_SET_GET_DECLARE(PAD_LEFT, pad_left, lv_style_int_t, _int, scalar)
 1309              		.loc 2 111 1 is_stmt 0 view .LVU421
 1310              	.LBE165:
 1311              	.LBE164:
 762:lvgl/src/lv_widgets/lv_img.c **** 
 1312              		.loc 1 762 26 view .LVU422
 1313 05b2 BDF83E30 		ldrh	r3, [sp, #62]
 1314 05b6 13FA80F0 		uxtah	r0, r3, r0
 1315 05ba ADF83E00 		strh	r0, [sp, #62]	@ movhi
 764:lvgl/src/lv_widgets/lv_img.c ****         }
 1316              		.loc 1 764 13 is_stmt 1 view .LVU423
 1317 05be 17AA     		add	r2, sp, #92
 1318 05c0 3146     		mov	r1, r6
 1319 05c2 04F11000 		add	r0, r4, #16
 1320 05c6 FFF7FEFF 		bl	lv_draw_rect
 1321              	.LVL121:
 1322              	.LBE149:
 768:lvgl/src/lv_widgets/lv_img.c **** }
 1323              		.loc 1 768 12 is_stmt 0 view .LVU424
 1324 05ca 3846     		mov	r0, r7
 1325 05cc 67E7     		b	.L6
 1326              	.LVL122:
 1327              	.L26:
 1328              	.LBB166:
 576:lvgl/src/lv_widgets/lv_img.c **** 
 1329              		.loc 1 576 72 view .LVU425
 1330 05ce 0320     		movs	r0, #3
 1331 05d0 65E7     		b	.L6
 1332              	.L27:
ARM GAS  D:\Temp\ccdlqfAs.s 			page 52


 578:lvgl/src/lv_widgets/lv_img.c **** 
 1333              		.loc 1 578 94 view .LVU426
 1334 05d2 0220     		movs	r0, #2
 1335 05d4 63E7     		b	.L6
 1336              	.L28:
 581:lvgl/src/lv_widgets/lv_img.c **** 
 1337              		.loc 1 581 80 view .LVU427
 1338 05d6 0220     		movs	r0, #2
 1339 05d8 61E7     		b	.L6
 1340              	.LVL123:
 1341              	.L30:
 589:lvgl/src/lv_widgets/lv_img.c **** 
 1342              		.loc 1 589 37 view .LVU428
 1343 05da 0220     		movs	r0, #2
 1344              	.LVL124:
 589:lvgl/src/lv_widgets/lv_img.c **** 
 1345              		.loc 1 589 37 view .LVU429
 1346 05dc 5FE7     		b	.L6
 1347              	.LVL125:
 1348              	.L31:
 609:lvgl/src/lv_widgets/lv_img.c ****         if(lv_obj_get_style_image_blend_mode(img, LV_IMG_PART_MAIN) != LV_BLEND_MODE_NORMAL) return
 1349              		.loc 1 609 98 view .LVU430
 1350 05de 0220     		movs	r0, #2
 1351 05e0 5DE7     		b	.L6
 1352              	.LBE166:
 1353              		.cfi_endproc
 1354              	.LFE476:
 1356              		.section	.text.lv_img_set_auto_size,"ax",%progbits
 1357              		.align	1
 1358              		.global	lv_img_set_auto_size
 1359              		.syntax unified
 1360              		.thumb
 1361              		.thumb_func
 1362              		.fpu fpv4-sp-d16
 1364              	lv_img_set_auto_size:
 1365              	.LVL126:
 1366              	.LFB460:
 244:lvgl/src/lv_widgets/lv_img.c ****     LV_ASSERT_OBJ(img, LV_OBJX_NAME);
 1367              		.loc 1 244 1 is_stmt 1 view -0
 1368              		.cfi_startproc
 1369              		@ args = 0, pretend = 0, frame = 0
 1370              		@ frame_needed = 0, uses_anonymous_args = 0
 244:lvgl/src/lv_widgets/lv_img.c ****     LV_ASSERT_OBJ(img, LV_OBJX_NAME);
 1371              		.loc 1 244 1 is_stmt 0 view .LVU432
 1372 0000 38B5     		push	{r3, r4, r5, lr}
 1373              	.LCFI4:
 1374              		.cfi_def_cfa_offset 16
 1375              		.cfi_offset 3, -16
 1376              		.cfi_offset 4, -12
 1377              		.cfi_offset 5, -8
 1378              		.cfi_offset 14, -4
 1379 0002 0446     		mov	r4, r0
 1380 0004 0D46     		mov	r5, r1
 245:lvgl/src/lv_widgets/lv_img.c **** 
 1381              		.loc 1 245 5 is_stmt 1 view .LVU433
 245:lvgl/src/lv_widgets/lv_img.c **** 
 1382              		.loc 1 245 5 view .LVU434
ARM GAS  D:\Temp\ccdlqfAs.s 			page 53


 1383 0006 FFF7FEFF 		bl	lv_debug_check_null
 1384              	.LVL127:
 245:lvgl/src/lv_widgets/lv_img.c **** 
 1385              		.loc 1 245 5 is_stmt 0 view .LVU435
 1386 000a 28B9     		cbnz	r0, .L54
 245:lvgl/src/lv_widgets/lv_img.c **** 
 1387              		.loc 1 245 5 is_stmt 1 discriminator 1 view .LVU436
 245:lvgl/src/lv_widgets/lv_img.c **** 
 1388              		.loc 1 245 5 discriminator 1 view .LVU437
 1389 000c 2246     		mov	r2, r4
 1390 000e 0023     		movs	r3, #0
 1391 0010 0748     		ldr	r0, .L59
 1392 0012 FFF7FEFF 		bl	lv_debug_log_error
 1393              	.LVL128:
 1394              	.L55:
 245:lvgl/src/lv_widgets/lv_img.c **** 
 1395              		.loc 1 245 5 discriminator 1 view .LVU438
 245:lvgl/src/lv_widgets/lv_img.c **** 
 1396              		.loc 1 245 5 discriminator 1 view .LVU439
 1397 0016 FEE7     		b	.L55
 1398              	.L54:
 245:lvgl/src/lv_widgets/lv_img.c **** 
 1399              		.loc 1 245 37 discriminator 2 view .LVU440
 247:lvgl/src/lv_widgets/lv_img.c **** 
 1400              		.loc 1 247 5 discriminator 2 view .LVU441
 247:lvgl/src/lv_widgets/lv_img.c **** 
 1401              		.loc 1 247 26 is_stmt 0 discriminator 2 view .LVU442
 1402 0018 2046     		mov	r0, r4
 1403 001a FFF7FEFF 		bl	lv_obj_get_ext_attr
 1404              	.LVL129:
 249:lvgl/src/lv_widgets/lv_img.c **** }
 1405              		.loc 1 249 5 is_stmt 1 discriminator 2 view .LVU443
 249:lvgl/src/lv_widgets/lv_img.c **** }
 1406              		.loc 1 249 39 is_stmt 0 discriminator 2 view .LVU444
 1407 001e 2DB9     		cbnz	r5, .L57
 249:lvgl/src/lv_widgets/lv_img.c **** }
 1408              		.loc 1 249 39 view .LVU445
 1409 0020 0022     		movs	r2, #0
 1410              	.L56:
 249:lvgl/src/lv_widgets/lv_img.c **** }
 1411              		.loc 1 249 20 discriminator 4 view .LVU446
 1412 0022 037D     		ldrb	r3, [r0, #20]	@ zero_extendqisi2
 1413 0024 62F38203 		bfi	r3, r2, #2, #1
 1414 0028 0375     		strb	r3, [r0, #20]
 250:lvgl/src/lv_widgets/lv_img.c **** 
 1415              		.loc 1 250 1 discriminator 4 view .LVU447
 1416 002a 38BD     		pop	{r3, r4, r5, pc}
 1417              	.LVL130:
 1418              	.L57:
 249:lvgl/src/lv_widgets/lv_img.c **** }
 1419              		.loc 1 249 39 view .LVU448
 1420 002c 0122     		movs	r2, #1
 1421 002e F8E7     		b	.L56
 1422              	.L60:
 1423              		.align	2
 1424              	.L59:
 1425 0030 00000000 		.word	.LC0
ARM GAS  D:\Temp\ccdlqfAs.s 			page 54


 1426              		.cfi_endproc
 1427              	.LFE460:
 1429              		.section	.text.lv_img_set_offset_x,"ax",%progbits
 1430              		.align	1
 1431              		.global	lv_img_set_offset_x
 1432              		.syntax unified
 1433              		.thumb
 1434              		.thumb_func
 1435              		.fpu fpv4-sp-d16
 1437              	lv_img_set_offset_x:
 1438              	.LVL131:
 1439              	.LFB461:
 259:lvgl/src/lv_widgets/lv_img.c ****     LV_ASSERT_OBJ(img, LV_OBJX_NAME);
 1440              		.loc 1 259 1 is_stmt 1 view -0
 1441              		.cfi_startproc
 1442              		@ args = 0, pretend = 0, frame = 0
 1443              		@ frame_needed = 0, uses_anonymous_args = 0
 259:lvgl/src/lv_widgets/lv_img.c ****     LV_ASSERT_OBJ(img, LV_OBJX_NAME);
 1444              		.loc 1 259 1 is_stmt 0 view .LVU450
 1445 0000 38B5     		push	{r3, r4, r5, lr}
 1446              	.LCFI5:
 1447              		.cfi_def_cfa_offset 16
 1448              		.cfi_offset 3, -16
 1449              		.cfi_offset 4, -12
 1450              		.cfi_offset 5, -8
 1451              		.cfi_offset 14, -4
 1452 0002 0446     		mov	r4, r0
 1453 0004 0D46     		mov	r5, r1
 260:lvgl/src/lv_widgets/lv_img.c **** 
 1454              		.loc 1 260 5 is_stmt 1 view .LVU451
 260:lvgl/src/lv_widgets/lv_img.c **** 
 1455              		.loc 1 260 5 view .LVU452
 1456 0006 FFF7FEFF 		bl	lv_debug_check_null
 1457              	.LVL132:
 260:lvgl/src/lv_widgets/lv_img.c **** 
 1458              		.loc 1 260 5 is_stmt 0 view .LVU453
 1459 000a 28B9     		cbnz	r0, .L62
 260:lvgl/src/lv_widgets/lv_img.c **** 
 1460              		.loc 1 260 5 is_stmt 1 discriminator 1 view .LVU454
 260:lvgl/src/lv_widgets/lv_img.c **** 
 1461              		.loc 1 260 5 discriminator 1 view .LVU455
 1462 000c 2246     		mov	r2, r4
 1463 000e 0023     		movs	r3, #0
 1464 0010 0848     		ldr	r0, .L65
 1465 0012 FFF7FEFF 		bl	lv_debug_log_error
 1466              	.LVL133:
 1467              	.L63:
 260:lvgl/src/lv_widgets/lv_img.c **** 
 1468              		.loc 1 260 5 discriminator 1 view .LVU456
 260:lvgl/src/lv_widgets/lv_img.c **** 
 1469              		.loc 1 260 5 discriminator 1 view .LVU457
 1470 0016 FEE7     		b	.L63
 1471              	.L62:
 260:lvgl/src/lv_widgets/lv_img.c **** 
 1472              		.loc 1 260 37 discriminator 2 view .LVU458
 262:lvgl/src/lv_widgets/lv_img.c **** 
 1473              		.loc 1 262 5 discriminator 2 view .LVU459
ARM GAS  D:\Temp\ccdlqfAs.s 			page 55


 262:lvgl/src/lv_widgets/lv_img.c **** 
 1474              		.loc 1 262 26 is_stmt 0 discriminator 2 view .LVU460
 1475 0018 2046     		mov	r0, r4
 1476 001a FFF7FEFF 		bl	lv_obj_get_ext_attr
 1477              	.LVL134:
 264:lvgl/src/lv_widgets/lv_img.c **** 
 1478              		.loc 1 264 5 is_stmt 1 discriminator 2 view .LVU461
 264:lvgl/src/lv_widgets/lv_img.c **** 
 1479              		.loc 1 264 16 is_stmt 0 discriminator 2 view .LVU462
 1480 001e B0F90820 		ldrsh	r2, [r0, #8]
 264:lvgl/src/lv_widgets/lv_img.c **** 
 1481              		.loc 1 264 11 discriminator 2 view .LVU463
 1482 0022 95FBF2F3 		sdiv	r3, r5, r2
 1483 0026 02FB1353 		mls	r3, r2, r3, r5
 1484              	.LVL135:
 266:lvgl/src/lv_widgets/lv_img.c ****     lv_obj_invalidate(img);
 1485              		.loc 1 266 5 is_stmt 1 discriminator 2 view .LVU464
 266:lvgl/src/lv_widgets/lv_img.c ****     lv_obj_invalidate(img);
 1486              		.loc 1 266 19 is_stmt 0 discriminator 2 view .LVU465
 1487 002a 8380     		strh	r3, [r0, #4]	@ movhi
 267:lvgl/src/lv_widgets/lv_img.c **** }
 1488              		.loc 1 267 5 is_stmt 1 discriminator 2 view .LVU466
 1489 002c 2046     		mov	r0, r4
 1490              	.LVL136:
 267:lvgl/src/lv_widgets/lv_img.c **** }
 1491              		.loc 1 267 5 is_stmt 0 discriminator 2 view .LVU467
 1492 002e FFF7FEFF 		bl	lv_obj_invalidate
 1493              	.LVL137:
 268:lvgl/src/lv_widgets/lv_img.c **** 
 1494              		.loc 1 268 1 discriminator 2 view .LVU468
 1495 0032 38BD     		pop	{r3, r4, r5, pc}
 1496              	.LVL138:
 1497              	.L66:
 268:lvgl/src/lv_widgets/lv_img.c **** 
 1498              		.loc 1 268 1 discriminator 2 view .LVU469
 1499              		.align	2
 1500              	.L65:
 1501 0034 00000000 		.word	.LC0
 1502              		.cfi_endproc
 1503              	.LFE461:
 1505              		.section	.text.lv_img_set_offset_y,"ax",%progbits
 1506              		.align	1
 1507              		.global	lv_img_set_offset_y
 1508              		.syntax unified
 1509              		.thumb
 1510              		.thumb_func
 1511              		.fpu fpv4-sp-d16
 1513              	lv_img_set_offset_y:
 1514              	.LVL139:
 1515              	.LFB462:
 277:lvgl/src/lv_widgets/lv_img.c ****     LV_ASSERT_OBJ(img, LV_OBJX_NAME);
 1516              		.loc 1 277 1 is_stmt 1 view -0
 1517              		.cfi_startproc
 1518              		@ args = 0, pretend = 0, frame = 0
 1519              		@ frame_needed = 0, uses_anonymous_args = 0
 277:lvgl/src/lv_widgets/lv_img.c ****     LV_ASSERT_OBJ(img, LV_OBJX_NAME);
 1520              		.loc 1 277 1 is_stmt 0 view .LVU471
ARM GAS  D:\Temp\ccdlqfAs.s 			page 56


 1521 0000 38B5     		push	{r3, r4, r5, lr}
 1522              	.LCFI6:
 1523              		.cfi_def_cfa_offset 16
 1524              		.cfi_offset 3, -16
 1525              		.cfi_offset 4, -12
 1526              		.cfi_offset 5, -8
 1527              		.cfi_offset 14, -4
 1528 0002 0446     		mov	r4, r0
 1529 0004 0D46     		mov	r5, r1
 278:lvgl/src/lv_widgets/lv_img.c **** 
 1530              		.loc 1 278 5 is_stmt 1 view .LVU472
 278:lvgl/src/lv_widgets/lv_img.c **** 
 1531              		.loc 1 278 5 view .LVU473
 1532 0006 FFF7FEFF 		bl	lv_debug_check_null
 1533              	.LVL140:
 278:lvgl/src/lv_widgets/lv_img.c **** 
 1534              		.loc 1 278 5 is_stmt 0 view .LVU474
 1535 000a 28B9     		cbnz	r0, .L68
 278:lvgl/src/lv_widgets/lv_img.c **** 
 1536              		.loc 1 278 5 is_stmt 1 discriminator 1 view .LVU475
 278:lvgl/src/lv_widgets/lv_img.c **** 
 1537              		.loc 1 278 5 discriminator 1 view .LVU476
 1538 000c 2246     		mov	r2, r4
 1539 000e 0023     		movs	r3, #0
 1540 0010 0848     		ldr	r0, .L71
 1541 0012 FFF7FEFF 		bl	lv_debug_log_error
 1542              	.LVL141:
 1543              	.L69:
 278:lvgl/src/lv_widgets/lv_img.c **** 
 1544              		.loc 1 278 5 discriminator 1 view .LVU477
 278:lvgl/src/lv_widgets/lv_img.c **** 
 1545              		.loc 1 278 5 discriminator 1 view .LVU478
 1546 0016 FEE7     		b	.L69
 1547              	.L68:
 278:lvgl/src/lv_widgets/lv_img.c **** 
 1548              		.loc 1 278 37 discriminator 2 view .LVU479
 280:lvgl/src/lv_widgets/lv_img.c **** 
 1549              		.loc 1 280 5 discriminator 2 view .LVU480
 280:lvgl/src/lv_widgets/lv_img.c **** 
 1550              		.loc 1 280 26 is_stmt 0 discriminator 2 view .LVU481
 1551 0018 2046     		mov	r0, r4
 1552 001a FFF7FEFF 		bl	lv_obj_get_ext_attr
 1553              	.LVL142:
 282:lvgl/src/lv_widgets/lv_img.c **** 
 1554              		.loc 1 282 5 is_stmt 1 discriminator 2 view .LVU482
 282:lvgl/src/lv_widgets/lv_img.c **** 
 1555              		.loc 1 282 16 is_stmt 0 discriminator 2 view .LVU483
 1556 001e B0F90A20 		ldrsh	r2, [r0, #10]
 282:lvgl/src/lv_widgets/lv_img.c **** 
 1557              		.loc 1 282 11 discriminator 2 view .LVU484
 1558 0022 95FBF2F3 		sdiv	r3, r5, r2
 1559 0026 02FB1353 		mls	r3, r2, r3, r5
 1560              	.LVL143:
 284:lvgl/src/lv_widgets/lv_img.c ****     lv_obj_invalidate(img);
 1561              		.loc 1 284 5 is_stmt 1 discriminator 2 view .LVU485
 284:lvgl/src/lv_widgets/lv_img.c ****     lv_obj_invalidate(img);
 1562              		.loc 1 284 19 is_stmt 0 discriminator 2 view .LVU486
ARM GAS  D:\Temp\ccdlqfAs.s 			page 57


 1563 002a C380     		strh	r3, [r0, #6]	@ movhi
 285:lvgl/src/lv_widgets/lv_img.c **** }
 1564              		.loc 1 285 5 is_stmt 1 discriminator 2 view .LVU487
 1565 002c 2046     		mov	r0, r4
 1566              	.LVL144:
 285:lvgl/src/lv_widgets/lv_img.c **** }
 1567              		.loc 1 285 5 is_stmt 0 discriminator 2 view .LVU488
 1568 002e FFF7FEFF 		bl	lv_obj_invalidate
 1569              	.LVL145:
 286:lvgl/src/lv_widgets/lv_img.c **** 
 1570              		.loc 1 286 1 discriminator 2 view .LVU489
 1571 0032 38BD     		pop	{r3, r4, r5, pc}
 1572              	.LVL146:
 1573              	.L72:
 286:lvgl/src/lv_widgets/lv_img.c **** 
 1574              		.loc 1 286 1 discriminator 2 view .LVU490
 1575              		.align	2
 1576              	.L71:
 1577 0034 00000000 		.word	.LC0
 1578              		.cfi_endproc
 1579              	.LFE462:
 1581              		.section	.text.lv_img_set_pivot,"ax",%progbits
 1582              		.align	1
 1583              		.global	lv_img_set_pivot
 1584              		.syntax unified
 1585              		.thumb
 1586              		.thumb_func
 1587              		.fpu fpv4-sp-d16
 1589              	lv_img_set_pivot:
 1590              	.LVL147:
 1591              	.LFB463:
 296:lvgl/src/lv_widgets/lv_img.c ****     lv_img_ext_t * ext = lv_obj_get_ext_attr(img);
 1592              		.loc 1 296 1 is_stmt 1 view -0
 1593              		.cfi_startproc
 1594              		@ args = 0, pretend = 0, frame = 16
 1595              		@ frame_needed = 0, uses_anonymous_args = 0
 296:lvgl/src/lv_widgets/lv_img.c ****     lv_img_ext_t * ext = lv_obj_get_ext_attr(img);
 1596              		.loc 1 296 1 is_stmt 0 view .LVU492
 1597 0000 2DE9F04F 		push	{r4, r5, r6, r7, r8, r9, r10, fp, lr}
 1598              	.LCFI7:
 1599              		.cfi_def_cfa_offset 36
 1600              		.cfi_offset 4, -36
 1601              		.cfi_offset 5, -32
 1602              		.cfi_offset 6, -28
 1603              		.cfi_offset 7, -24
 1604              		.cfi_offset 8, -20
 1605              		.cfi_offset 9, -16
 1606              		.cfi_offset 10, -12
 1607              		.cfi_offset 11, -8
 1608              		.cfi_offset 14, -4
 1609 0004 87B0     		sub	sp, sp, #28
 1610              	.LCFI8:
 1611              		.cfi_def_cfa_offset 64
 1612 0006 0446     		mov	r4, r0
 1613 0008 8846     		mov	r8, r1
 1614 000a 9346     		mov	fp, r2
 297:lvgl/src/lv_widgets/lv_img.c ****     if(ext->pivot.x == pivot_x && ext->pivot.y == pivot_y) return;
ARM GAS  D:\Temp\ccdlqfAs.s 			page 58


 1615              		.loc 1 297 5 is_stmt 1 view .LVU493
 297:lvgl/src/lv_widgets/lv_img.c ****     if(ext->pivot.x == pivot_x && ext->pivot.y == pivot_y) return;
 1616              		.loc 1 297 26 is_stmt 0 view .LVU494
 1617 000c FFF7FEFF 		bl	lv_obj_get_ext_attr
 1618              	.LVL148:
 297:lvgl/src/lv_widgets/lv_img.c ****     if(ext->pivot.x == pivot_x && ext->pivot.y == pivot_y) return;
 1619              		.loc 1 297 26 view .LVU495
 1620 0010 0646     		mov	r6, r0
 1621              	.LVL149:
 298:lvgl/src/lv_widgets/lv_img.c **** 
 1622              		.loc 1 298 5 is_stmt 1 view .LVU496
 298:lvgl/src/lv_widgets/lv_img.c **** 
 1623              		.loc 1 298 18 is_stmt 0 view .LVU497
 1624 0012 B0F90E30 		ldrsh	r3, [r0, #14]
 298:lvgl/src/lv_widgets/lv_img.c **** 
 1625              		.loc 1 298 7 view .LVU498
 1626 0016 4345     		cmp	r3, r8
 1627 0018 03D1     		bne	.L74
 298:lvgl/src/lv_widgets/lv_img.c **** 
 1628              		.loc 1 298 45 discriminator 1 view .LVU499
 1629 001a B0F91030 		ldrsh	r3, [r0, #16]
 298:lvgl/src/lv_widgets/lv_img.c **** 
 1630              		.loc 1 298 32 discriminator 1 view .LVU500
 1631 001e 5B45     		cmp	r3, fp
 1632 0020 69D0     		beq	.L73
 1633              	.L74:
 300:lvgl/src/lv_widgets/lv_img.c ****     transf_zoom = (transf_zoom * ext->zoom) >> 8;
 1634              		.loc 1 300 5 is_stmt 1 view .LVU501
 1635              	.LVL150:
 1636              	.LBB167:
 1637              	.LBI167:
 108:lvgl/src/lv_widgets/../lv_core/lv_obj_style_dec.h **** _LV_OBJ_STYLE_SET_GET_DECLARE(OPA_SCALE, opa_scale, lv_opa_t, _opa, scalar)
 1638              		.loc 2 108 1 view .LVU502
 1639              	.LBB168:
 108:lvgl/src/lv_widgets/../lv_core/lv_obj_style_dec.h **** _LV_OBJ_STYLE_SET_GET_DECLARE(OPA_SCALE, opa_scale, lv_opa_t, _opa, scalar)
 1640              		.loc 2 108 1 view .LVU503
 1641 0022 0722     		movs	r2, #7
 1642 0024 0021     		movs	r1, #0
 1643 0026 2046     		mov	r0, r4
 1644              	.LVL151:
 108:lvgl/src/lv_widgets/../lv_core/lv_obj_style_dec.h **** _LV_OBJ_STYLE_SET_GET_DECLARE(OPA_SCALE, opa_scale, lv_opa_t, _opa, scalar)
 1645              		.loc 2 108 1 is_stmt 0 view .LVU504
 1646 0028 FFF7FEFF 		bl	_lv_obj_get_style_int
 1647              	.LVL152:
 108:lvgl/src/lv_widgets/../lv_core/lv_obj_style_dec.h **** _LV_OBJ_STYLE_SET_GET_DECLARE(OPA_SCALE, opa_scale, lv_opa_t, _opa, scalar)
 1648              		.loc 2 108 1 view .LVU505
 1649              	.LBE168:
 1650              	.LBE167:
 301:lvgl/src/lv_widgets/lv_img.c **** 
 1651              		.loc 1 301 5 is_stmt 1 view .LVU506
 301:lvgl/src/lv_widgets/lv_img.c **** 
 1652              		.loc 1 301 37 is_stmt 0 view .LVU507
 1653 002c 758A     		ldrh	r5, [r6, #18]
 301:lvgl/src/lv_widgets/lv_img.c **** 
 1654              		.loc 1 301 32 view .LVU508
 1655 002e 05FB00F5 		mul	r5, r5, r0
 301:lvgl/src/lv_widgets/lv_img.c **** 
ARM GAS  D:\Temp\ccdlqfAs.s 			page 59


 1656              		.loc 1 301 45 view .LVU509
 1657 0032 2D12     		asrs	r5, r5, #8
 1658              	.LVL153:
 303:lvgl/src/lv_widgets/lv_img.c ****     transf_angle += ext->angle;
 1659              		.loc 1 303 5 is_stmt 1 view .LVU510
 1660              	.LBB169:
 1661              	.LBI169:
 107:lvgl/src/lv_widgets/../lv_core/lv_obj_style_dec.h **** _LV_OBJ_STYLE_SET_GET_DECLARE(TRANSFORM_ZOOM, transform_zoom, lv_style_int_t, _int, scalar)
 1662              		.loc 2 107 1 view .LVU511
 1663              	.LBB170:
 107:lvgl/src/lv_widgets/../lv_core/lv_obj_style_dec.h **** _LV_OBJ_STYLE_SET_GET_DECLARE(TRANSFORM_ZOOM, transform_zoom, lv_style_int_t, _int, scalar)
 1664              		.loc 2 107 1 view .LVU512
 1665 0034 0622     		movs	r2, #6
 1666 0036 0021     		movs	r1, #0
 1667 0038 2046     		mov	r0, r4
 1668 003a FFF7FEFF 		bl	_lv_obj_get_style_int
 1669              	.LVL154:
 107:lvgl/src/lv_widgets/../lv_core/lv_obj_style_dec.h **** _LV_OBJ_STYLE_SET_GET_DECLARE(TRANSFORM_ZOOM, transform_zoom, lv_style_int_t, _int, scalar)
 1670              		.loc 2 107 1 is_stmt 0 view .LVU513
 1671              	.LBE170:
 1672              	.LBE169:
 304:lvgl/src/lv_widgets/lv_img.c **** 
 1673              		.loc 1 304 5 is_stmt 1 view .LVU514
 304:lvgl/src/lv_widgets/lv_img.c **** 
 1674              		.loc 1 304 24 is_stmt 0 view .LVU515
 1675 003e B789     		ldrh	r7, [r6, #12]
 304:lvgl/src/lv_widgets/lv_img.c **** 
 1676              		.loc 1 304 18 view .LVU516
 1677 0040 0744     		add	r7, r7, r0
 1678 0042 3FB2     		sxth	r7, r7
 1679              	.LVL155:
 306:lvgl/src/lv_widgets/lv_img.c ****     lv_coord_t h = lv_obj_get_height(img);
 1680              		.loc 1 306 5 is_stmt 1 view .LVU517
 306:lvgl/src/lv_widgets/lv_img.c ****     lv_coord_t h = lv_obj_get_height(img);
 1681              		.loc 1 306 20 is_stmt 0 view .LVU518
 1682 0044 2046     		mov	r0, r4
 1683 0046 FFF7FEFF 		bl	lv_obj_get_width
 1684              	.LVL156:
 1685 004a 0390     		str	r0, [sp, #12]
 1686              	.LVL157:
 307:lvgl/src/lv_widgets/lv_img.c ****     lv_area_t a;
 1687              		.loc 1 307 5 is_stmt 1 view .LVU519
 307:lvgl/src/lv_widgets/lv_img.c ****     lv_area_t a;
 1688              		.loc 1 307 20 is_stmt 0 view .LVU520
 1689 004c 2046     		mov	r0, r4
 1690 004e FFF7FEFF 		bl	lv_obj_get_height
 1691              	.LVL158:
 1692 0052 8146     		mov	r9, r0
 1693              	.LVL159:
 308:lvgl/src/lv_widgets/lv_img.c ****     _lv_img_buf_get_transformed_area(&a, w, h, transf_angle, transf_zoom, &ext->pivot);
 1694              		.loc 1 308 5 is_stmt 1 view .LVU521
 309:lvgl/src/lv_widgets/lv_img.c ****     a.x1 += img->coords.x1;
 1695              		.loc 1 309 5 view .LVU522
 1696 0054 ADB2     		uxth	r5, r5
 309:lvgl/src/lv_widgets/lv_img.c ****     a.x1 += img->coords.x1;
 1697              		.loc 1 309 75 is_stmt 0 view .LVU523
 1698 0056 06F10E0A 		add	r10, r6, #14
ARM GAS  D:\Temp\ccdlqfAs.s 			page 60


 309:lvgl/src/lv_widgets/lv_img.c ****     a.x1 += img->coords.x1;
 1699              		.loc 1 309 5 view .LVU524
 1700 005a CDF804A0 		str	r10, [sp, #4]
 1701 005e 0095     		str	r5, [sp]
 1702 0060 3B46     		mov	r3, r7
 1703 0062 0246     		mov	r2, r0
 1704 0064 0399     		ldr	r1, [sp, #12]
 1705 0066 04A8     		add	r0, sp, #16
 1706              	.LVL160:
 309:lvgl/src/lv_widgets/lv_img.c ****     a.x1 += img->coords.x1;
 1707              		.loc 1 309 5 view .LVU525
 1708 0068 FFF7FEFF 		bl	_lv_img_buf_get_transformed_area
 1709              	.LVL161:
 310:lvgl/src/lv_widgets/lv_img.c ****     a.y1 += img->coords.y1;
 1710              		.loc 1 310 5 is_stmt 1 view .LVU526
 310:lvgl/src/lv_widgets/lv_img.c ****     a.y1 += img->coords.y1;
 1711              		.loc 1 310 24 is_stmt 0 view .LVU527
 1712 006c 228A     		ldrh	r2, [r4, #16]
 310:lvgl/src/lv_widgets/lv_img.c ****     a.y1 += img->coords.y1;
 1713              		.loc 1 310 10 view .LVU528
 1714 006e BDF81030 		ldrh	r3, [sp, #16]
 1715 0072 1344     		add	r3, r3, r2
 1716 0074 ADF81030 		strh	r3, [sp, #16]	@ movhi
 311:lvgl/src/lv_widgets/lv_img.c ****     a.x2 += img->coords.x1;
 1717              		.loc 1 311 5 is_stmt 1 view .LVU529
 311:lvgl/src/lv_widgets/lv_img.c ****     a.x2 += img->coords.x1;
 1718              		.loc 1 311 24 is_stmt 0 view .LVU530
 1719 0078 638A     		ldrh	r3, [r4, #18]
 311:lvgl/src/lv_widgets/lv_img.c ****     a.x2 += img->coords.x1;
 1720              		.loc 1 311 10 view .LVU531
 1721 007a BDF81210 		ldrh	r1, [sp, #18]
 1722 007e 1944     		add	r1, r1, r3
 1723 0080 ADF81210 		strh	r1, [sp, #18]	@ movhi
 312:lvgl/src/lv_widgets/lv_img.c ****     a.y2 += img->coords.y1;
 1724              		.loc 1 312 5 is_stmt 1 view .LVU532
 312:lvgl/src/lv_widgets/lv_img.c ****     a.y2 += img->coords.y1;
 1725              		.loc 1 312 10 is_stmt 0 view .LVU533
 1726 0084 BDF81410 		ldrh	r1, [sp, #20]
 1727 0088 0A44     		add	r2, r2, r1
 1728 008a ADF81420 		strh	r2, [sp, #20]	@ movhi
 313:lvgl/src/lv_widgets/lv_img.c ****     lv_obj_invalidate_area(img, &a);
 1729              		.loc 1 313 5 is_stmt 1 view .LVU534
 313:lvgl/src/lv_widgets/lv_img.c ****     lv_obj_invalidate_area(img, &a);
 1730              		.loc 1 313 10 is_stmt 0 view .LVU535
 1731 008e BDF81620 		ldrh	r2, [sp, #22]
 1732 0092 1344     		add	r3, r3, r2
 1733 0094 ADF81630 		strh	r3, [sp, #22]	@ movhi
 314:lvgl/src/lv_widgets/lv_img.c **** 
 1734              		.loc 1 314 5 is_stmt 1 view .LVU536
 1735 0098 04AB     		add	r3, sp, #16
 1736 009a 1946     		mov	r1, r3
 1737 009c 2046     		mov	r0, r4
 1738 009e FFF7FEFF 		bl	lv_obj_invalidate_area
 1739              	.LVL162:
 316:lvgl/src/lv_widgets/lv_img.c ****     ext->pivot.y = pivot_y;
 1740              		.loc 1 316 5 view .LVU537
 316:lvgl/src/lv_widgets/lv_img.c ****     ext->pivot.y = pivot_y;
ARM GAS  D:\Temp\ccdlqfAs.s 			page 61


 1741              		.loc 1 316 18 is_stmt 0 view .LVU538
 1742 00a2 A6F80E80 		strh	r8, [r6, #14]	@ movhi
 317:lvgl/src/lv_widgets/lv_img.c ****     lv_obj_refresh_ext_draw_pad(img);
 1743              		.loc 1 317 5 is_stmt 1 view .LVU539
 317:lvgl/src/lv_widgets/lv_img.c ****     lv_obj_refresh_ext_draw_pad(img);
 1744              		.loc 1 317 18 is_stmt 0 view .LVU540
 1745 00a6 A6F810B0 		strh	fp, [r6, #16]	@ movhi
 318:lvgl/src/lv_widgets/lv_img.c **** 
 1746              		.loc 1 318 5 is_stmt 1 view .LVU541
 1747 00aa 2046     		mov	r0, r4
 1748 00ac FFF7FEFF 		bl	lv_obj_refresh_ext_draw_pad
 1749              	.LVL163:
 320:lvgl/src/lv_widgets/lv_img.c ****     a.x1 += img->coords.x1;
 1750              		.loc 1 320 5 view .LVU542
 1751 00b0 CDF804A0 		str	r10, [sp, #4]
 1752 00b4 0095     		str	r5, [sp]
 1753 00b6 3B46     		mov	r3, r7
 1754 00b8 4A46     		mov	r2, r9
 1755 00ba 0399     		ldr	r1, [sp, #12]
 1756 00bc 04A8     		add	r0, sp, #16
 1757 00be FFF7FEFF 		bl	_lv_img_buf_get_transformed_area
 1758              	.LVL164:
 321:lvgl/src/lv_widgets/lv_img.c ****     a.y1 += img->coords.y1;
 1759              		.loc 1 321 5 view .LVU543
 321:lvgl/src/lv_widgets/lv_img.c ****     a.y1 += img->coords.y1;
 1760              		.loc 1 321 24 is_stmt 0 view .LVU544
 1761 00c2 228A     		ldrh	r2, [r4, #16]
 321:lvgl/src/lv_widgets/lv_img.c ****     a.y1 += img->coords.y1;
 1762              		.loc 1 321 10 view .LVU545
 1763 00c4 BDF81030 		ldrh	r3, [sp, #16]
 1764 00c8 1344     		add	r3, r3, r2
 1765 00ca ADF81030 		strh	r3, [sp, #16]	@ movhi
 322:lvgl/src/lv_widgets/lv_img.c ****     a.x2 += img->coords.x1;
 1766              		.loc 1 322 5 is_stmt 1 view .LVU546
 322:lvgl/src/lv_widgets/lv_img.c ****     a.x2 += img->coords.x1;
 1767              		.loc 1 322 24 is_stmt 0 view .LVU547
 1768 00ce 638A     		ldrh	r3, [r4, #18]
 322:lvgl/src/lv_widgets/lv_img.c ****     a.x2 += img->coords.x1;
 1769              		.loc 1 322 10 view .LVU548
 1770 00d0 BDF81210 		ldrh	r1, [sp, #18]
 1771 00d4 1944     		add	r1, r1, r3
 1772 00d6 ADF81210 		strh	r1, [sp, #18]	@ movhi
 323:lvgl/src/lv_widgets/lv_img.c ****     a.y2 += img->coords.y1;
 1773              		.loc 1 323 5 is_stmt 1 view .LVU549
 323:lvgl/src/lv_widgets/lv_img.c ****     a.y2 += img->coords.y1;
 1774              		.loc 1 323 10 is_stmt 0 view .LVU550
 1775 00da BDF81410 		ldrh	r1, [sp, #20]
 1776 00de 0A44     		add	r2, r2, r1
 1777 00e0 ADF81420 		strh	r2, [sp, #20]	@ movhi
 324:lvgl/src/lv_widgets/lv_img.c ****     lv_obj_invalidate_area(img, &a);
 1778              		.loc 1 324 5 is_stmt 1 view .LVU551
 324:lvgl/src/lv_widgets/lv_img.c ****     lv_obj_invalidate_area(img, &a);
 1779              		.loc 1 324 10 is_stmt 0 view .LVU552
 1780 00e4 BDF81620 		ldrh	r2, [sp, #22]
 1781 00e8 1344     		add	r3, r3, r2
 1782 00ea ADF81630 		strh	r3, [sp, #22]	@ movhi
 325:lvgl/src/lv_widgets/lv_img.c **** }
ARM GAS  D:\Temp\ccdlqfAs.s 			page 62


 1783              		.loc 1 325 5 is_stmt 1 view .LVU553
 1784 00ee 04A9     		add	r1, sp, #16
 1785 00f0 2046     		mov	r0, r4
 1786 00f2 FFF7FEFF 		bl	lv_obj_invalidate_area
 1787              	.LVL165:
 1788              	.L73:
 326:lvgl/src/lv_widgets/lv_img.c **** 
 1789              		.loc 1 326 1 is_stmt 0 view .LVU554
 1790 00f6 07B0     		add	sp, sp, #28
 1791              	.LCFI9:
 1792              		.cfi_def_cfa_offset 36
 1793              		@ sp needed
 1794 00f8 BDE8F08F 		pop	{r4, r5, r6, r7, r8, r9, r10, fp, pc}
 326:lvgl/src/lv_widgets/lv_img.c **** 
 1795              		.loc 1 326 1 view .LVU555
 1796              		.cfi_endproc
 1797              	.LFE463:
 1799              		.section	.text.lv_img_set_angle,"ax",%progbits
 1800              		.align	1
 1801              		.global	lv_img_set_angle
 1802              		.syntax unified
 1803              		.thumb
 1804              		.thumb_func
 1805              		.fpu fpv4-sp-d16
 1807              	lv_img_set_angle:
 1808              	.LVL166:
 1809              	.LFB464:
 335:lvgl/src/lv_widgets/lv_img.c ****     if(angle < 0 || angle >= 3600) angle = angle % 3600;
 1810              		.loc 1 335 1 is_stmt 1 view -0
 1811              		.cfi_startproc
 1812              		@ args = 0, pretend = 0, frame = 8
 1813              		@ frame_needed = 0, uses_anonymous_args = 0
 335:lvgl/src/lv_widgets/lv_img.c ****     if(angle < 0 || angle >= 3600) angle = angle % 3600;
 1814              		.loc 1 335 1 is_stmt 0 view .LVU557
 1815 0000 2DE9F04F 		push	{r4, r5, r6, r7, r8, r9, r10, fp, lr}
 1816              	.LCFI10:
 1817              		.cfi_def_cfa_offset 36
 1818              		.cfi_offset 4, -36
 1819              		.cfi_offset 5, -32
 1820              		.cfi_offset 6, -28
 1821              		.cfi_offset 7, -24
 1822              		.cfi_offset 8, -20
 1823              		.cfi_offset 9, -16
 1824              		.cfi_offset 10, -12
 1825              		.cfi_offset 11, -8
 1826              		.cfi_offset 14, -4
 1827 0004 85B0     		sub	sp, sp, #20
 1828              	.LCFI11:
 1829              		.cfi_def_cfa_offset 56
 1830 0006 0446     		mov	r4, r0
 1831 0008 0D46     		mov	r5, r1
 336:lvgl/src/lv_widgets/lv_img.c **** 
 1832              		.loc 1 336 5 is_stmt 1 view .LVU558
 336:lvgl/src/lv_widgets/lv_img.c **** 
 1833              		.loc 1 336 18 is_stmt 0 view .LVU559
 1834 000a 8BB2     		uxth	r3, r1
 336:lvgl/src/lv_widgets/lv_img.c **** 
ARM GAS  D:\Temp\ccdlqfAs.s 			page 63


 1835              		.loc 1 336 7 view .LVU560
 1836 000c B3F5616F 		cmp	r3, #3600
 1837 0010 0BD3     		bcc	.L78
 336:lvgl/src/lv_widgets/lv_img.c **** 
 1838              		.loc 1 336 36 is_stmt 1 discriminator 1 view .LVU561
 336:lvgl/src/lv_widgets/lv_img.c **** 
 1839              		.loc 1 336 42 is_stmt 0 discriminator 1 view .LVU562
 1840 0012 404B     		ldr	r3, .L82
 1841 0014 83FB0123 		smull	r2, r3, r3, r1
 1842 0018 5A18     		adds	r2, r3, r1
 1843 001a CB17     		asrs	r3, r1, #31
 1844 001c C3EBE223 		rsb	r3, r3, r2, asr #11
 1845 0020 4FF46162 		mov	r2, #3600
 1846 0024 02FB1315 		mls	r5, r2, r3, r1
 1847 0028 2DB2     		sxth	r5, r5
 1848              	.LVL167:
 1849              	.L78:
 338:lvgl/src/lv_widgets/lv_img.c ****     if(angle == ext->angle) return;
 1850              		.loc 1 338 5 is_stmt 1 view .LVU563
 338:lvgl/src/lv_widgets/lv_img.c ****     if(angle == ext->angle) return;
 1851              		.loc 1 338 26 is_stmt 0 view .LVU564
 1852 002a 2046     		mov	r0, r4
 1853              	.LVL168:
 338:lvgl/src/lv_widgets/lv_img.c ****     if(angle == ext->angle) return;
 1854              		.loc 1 338 26 view .LVU565
 1855 002c FFF7FEFF 		bl	lv_obj_get_ext_attr
 1856              	.LVL169:
 1857 0030 0746     		mov	r7, r0
 1858              	.LVL170:
 339:lvgl/src/lv_widgets/lv_img.c **** 
 1859              		.loc 1 339 5 is_stmt 1 view .LVU566
 339:lvgl/src/lv_widgets/lv_img.c **** 
 1860              		.loc 1 339 20 is_stmt 0 view .LVU567
 1861 0032 8389     		ldrh	r3, [r0, #12]
 339:lvgl/src/lv_widgets/lv_img.c **** 
 1862              		.loc 1 339 7 view .LVU568
 1863 0034 9D42     		cmp	r5, r3
 1864 0036 69D0     		beq	.L77
 341:lvgl/src/lv_widgets/lv_img.c ****     transf_zoom = (transf_zoom * ext->zoom) >> 8;
 1865              		.loc 1 341 5 is_stmt 1 view .LVU569
 1866              	.LVL171:
 1867              	.LBB171:
 1868              	.LBI171:
 108:lvgl/src/lv_widgets/../lv_core/lv_obj_style_dec.h **** _LV_OBJ_STYLE_SET_GET_DECLARE(OPA_SCALE, opa_scale, lv_opa_t, _opa, scalar)
 1869              		.loc 2 108 1 view .LVU570
 1870              	.LBB172:
 108:lvgl/src/lv_widgets/../lv_core/lv_obj_style_dec.h **** _LV_OBJ_STYLE_SET_GET_DECLARE(OPA_SCALE, opa_scale, lv_opa_t, _opa, scalar)
 1871              		.loc 2 108 1 view .LVU571
 1872 0038 0722     		movs	r2, #7
 1873 003a 0021     		movs	r1, #0
 1874 003c 2046     		mov	r0, r4
 1875              	.LVL172:
 108:lvgl/src/lv_widgets/../lv_core/lv_obj_style_dec.h **** _LV_OBJ_STYLE_SET_GET_DECLARE(OPA_SCALE, opa_scale, lv_opa_t, _opa, scalar)
 1876              		.loc 2 108 1 is_stmt 0 view .LVU572
 1877 003e FFF7FEFF 		bl	_lv_obj_get_style_int
 1878              	.LVL173:
 108:lvgl/src/lv_widgets/../lv_core/lv_obj_style_dec.h **** _LV_OBJ_STYLE_SET_GET_DECLARE(OPA_SCALE, opa_scale, lv_opa_t, _opa, scalar)
ARM GAS  D:\Temp\ccdlqfAs.s 			page 64


 1879              		.loc 2 108 1 view .LVU573
 1880              	.LBE172:
 1881              	.LBE171:
 342:lvgl/src/lv_widgets/lv_img.c **** 
 1882              		.loc 1 342 5 is_stmt 1 view .LVU574
 342:lvgl/src/lv_widgets/lv_img.c **** 
 1883              		.loc 1 342 37 is_stmt 0 view .LVU575
 1884 0042 7E8A     		ldrh	r6, [r7, #18]
 342:lvgl/src/lv_widgets/lv_img.c **** 
 1885              		.loc 1 342 32 view .LVU576
 1886 0044 06FB00F6 		mul	r6, r6, r0
 342:lvgl/src/lv_widgets/lv_img.c **** 
 1887              		.loc 1 342 45 view .LVU577
 1888 0048 3612     		asrs	r6, r6, #8
 1889              	.LVL174:
 344:lvgl/src/lv_widgets/lv_img.c **** 
 1890              		.loc 1 344 5 is_stmt 1 view .LVU578
 1891              	.LBB173:
 1892              	.LBI173:
 107:lvgl/src/lv_widgets/../lv_core/lv_obj_style_dec.h **** _LV_OBJ_STYLE_SET_GET_DECLARE(TRANSFORM_ZOOM, transform_zoom, lv_style_int_t, _int, scalar)
 1893              		.loc 2 107 1 view .LVU579
 1894              	.LBB174:
 107:lvgl/src/lv_widgets/../lv_core/lv_obj_style_dec.h **** _LV_OBJ_STYLE_SET_GET_DECLARE(TRANSFORM_ZOOM, transform_zoom, lv_style_int_t, _int, scalar)
 1895              		.loc 2 107 1 view .LVU580
 1896 004a 0622     		movs	r2, #6
 1897 004c 0021     		movs	r1, #0
 1898 004e 2046     		mov	r0, r4
 1899 0050 FFF7FEFF 		bl	_lv_obj_get_style_int
 1900              	.LVL175:
 1901 0054 8046     		mov	r8, r0
 1902              	.LVL176:
 107:lvgl/src/lv_widgets/../lv_core/lv_obj_style_dec.h **** _LV_OBJ_STYLE_SET_GET_DECLARE(TRANSFORM_ZOOM, transform_zoom, lv_style_int_t, _int, scalar)
 1903              		.loc 2 107 1 is_stmt 0 view .LVU581
 1904              	.LBE174:
 1905              	.LBE173:
 346:lvgl/src/lv_widgets/lv_img.c ****     lv_coord_t h = lv_obj_get_height(img);
 1906              		.loc 1 346 5 is_stmt 1 view .LVU582
 346:lvgl/src/lv_widgets/lv_img.c ****     lv_coord_t h = lv_obj_get_height(img);
 1907              		.loc 1 346 20 is_stmt 0 view .LVU583
 1908 0056 2046     		mov	r0, r4
 1909 0058 FFF7FEFF 		bl	lv_obj_get_width
 1910              	.LVL177:
 1911 005c 8146     		mov	r9, r0
 1912              	.LVL178:
 347:lvgl/src/lv_widgets/lv_img.c ****     lv_area_t a;
 1913              		.loc 1 347 5 is_stmt 1 view .LVU584
 347:lvgl/src/lv_widgets/lv_img.c ****     lv_area_t a;
 1914              		.loc 1 347 20 is_stmt 0 view .LVU585
 1915 005e 2046     		mov	r0, r4
 1916 0060 FFF7FEFF 		bl	lv_obj_get_height
 1917              	.LVL179:
 1918 0064 8246     		mov	r10, r0
 1919              	.LVL180:
 348:lvgl/src/lv_widgets/lv_img.c ****     _lv_img_buf_get_transformed_area(&a, w, h, transf_angle + ext->angle, transf_zoom, &ext->pivot)
 1920              		.loc 1 348 5 is_stmt 1 view .LVU586
 349:lvgl/src/lv_widgets/lv_img.c ****     a.x1 += img->coords.x1;
 1921              		.loc 1 349 5 view .LVU587
ARM GAS  D:\Temp\ccdlqfAs.s 			page 65


 349:lvgl/src/lv_widgets/lv_img.c ****     a.x1 += img->coords.x1;
 1922              		.loc 1 349 66 is_stmt 0 view .LVU588
 1923 0066 BB89     		ldrh	r3, [r7, #12]
 349:lvgl/src/lv_widgets/lv_img.c ****     a.x1 += img->coords.x1;
 1924              		.loc 1 349 61 view .LVU589
 1925 0068 1FFA88F8 		uxth	r8, r8
 349:lvgl/src/lv_widgets/lv_img.c ****     a.x1 += img->coords.x1;
 1926              		.loc 1 349 61 view .LVU590
 1927 006c 4344     		add	r3, r3, r8
 349:lvgl/src/lv_widgets/lv_img.c ****     a.x1 += img->coords.x1;
 1928              		.loc 1 349 5 view .LVU591
 1929 006e B6B2     		uxth	r6, r6
 349:lvgl/src/lv_widgets/lv_img.c ****     a.x1 += img->coords.x1;
 1930              		.loc 1 349 88 view .LVU592
 1931 0070 07F10E0B 		add	fp, r7, #14
 349:lvgl/src/lv_widgets/lv_img.c ****     a.x1 += img->coords.x1;
 1932              		.loc 1 349 5 view .LVU593
 1933 0074 CDF804B0 		str	fp, [sp, #4]
 1934 0078 0096     		str	r6, [sp]
 1935 007a 1BB2     		sxth	r3, r3
 1936 007c 0246     		mov	r2, r0
 1937 007e 4946     		mov	r1, r9
 1938 0080 02A8     		add	r0, sp, #8
 1939              	.LVL181:
 349:lvgl/src/lv_widgets/lv_img.c ****     a.x1 += img->coords.x1;
 1940              		.loc 1 349 5 view .LVU594
 1941 0082 FFF7FEFF 		bl	_lv_img_buf_get_transformed_area
 1942              	.LVL182:
 350:lvgl/src/lv_widgets/lv_img.c ****     a.y1 += img->coords.y1;
 1943              		.loc 1 350 5 is_stmt 1 view .LVU595
 350:lvgl/src/lv_widgets/lv_img.c ****     a.y1 += img->coords.y1;
 1944              		.loc 1 350 24 is_stmt 0 view .LVU596
 1945 0086 228A     		ldrh	r2, [r4, #16]
 350:lvgl/src/lv_widgets/lv_img.c ****     a.y1 += img->coords.y1;
 1946              		.loc 1 350 10 view .LVU597
 1947 0088 BDF80830 		ldrh	r3, [sp, #8]
 1948 008c 1344     		add	r3, r3, r2
 1949 008e ADF80830 		strh	r3, [sp, #8]	@ movhi
 351:lvgl/src/lv_widgets/lv_img.c ****     a.x2 += img->coords.x1;
 1950              		.loc 1 351 5 is_stmt 1 view .LVU598
 351:lvgl/src/lv_widgets/lv_img.c ****     a.x2 += img->coords.x1;
 1951              		.loc 1 351 24 is_stmt 0 view .LVU599
 1952 0092 638A     		ldrh	r3, [r4, #18]
 351:lvgl/src/lv_widgets/lv_img.c ****     a.x2 += img->coords.x1;
 1953              		.loc 1 351 10 view .LVU600
 1954 0094 BDF80A10 		ldrh	r1, [sp, #10]
 1955 0098 1944     		add	r1, r1, r3
 1956 009a ADF80A10 		strh	r1, [sp, #10]	@ movhi
 352:lvgl/src/lv_widgets/lv_img.c ****     a.y2 += img->coords.y1;
 1957              		.loc 1 352 5 is_stmt 1 view .LVU601
 352:lvgl/src/lv_widgets/lv_img.c ****     a.y2 += img->coords.y1;
 1958              		.loc 1 352 10 is_stmt 0 view .LVU602
 1959 009e BDF80C10 		ldrh	r1, [sp, #12]
 1960 00a2 0A44     		add	r2, r2, r1
 1961 00a4 ADF80C20 		strh	r2, [sp, #12]	@ movhi
 353:lvgl/src/lv_widgets/lv_img.c ****     lv_obj_invalidate_area(img, &a);
 1962              		.loc 1 353 5 is_stmt 1 view .LVU603
ARM GAS  D:\Temp\ccdlqfAs.s 			page 66


 353:lvgl/src/lv_widgets/lv_img.c ****     lv_obj_invalidate_area(img, &a);
 1963              		.loc 1 353 10 is_stmt 0 view .LVU604
 1964 00a8 BDF80E20 		ldrh	r2, [sp, #14]
 1965 00ac 1344     		add	r3, r3, r2
 1966 00ae ADF80E30 		strh	r3, [sp, #14]	@ movhi
 354:lvgl/src/lv_widgets/lv_img.c **** 
 1967              		.loc 1 354 5 is_stmt 1 view .LVU605
 1968 00b2 02A9     		add	r1, sp, #8
 1969 00b4 2046     		mov	r0, r4
 1970 00b6 FFF7FEFF 		bl	lv_obj_invalidate_area
 1971              	.LVL183:
 356:lvgl/src/lv_widgets/lv_img.c ****     lv_obj_refresh_ext_draw_pad(img);
 1972              		.loc 1 356 5 view .LVU606
 356:lvgl/src/lv_widgets/lv_img.c ****     lv_obj_refresh_ext_draw_pad(img);
 1973              		.loc 1 356 16 is_stmt 0 view .LVU607
 1974 00ba BD81     		strh	r5, [r7, #12]	@ movhi
 357:lvgl/src/lv_widgets/lv_img.c **** 
 1975              		.loc 1 357 5 is_stmt 1 view .LVU608
 1976 00bc 2046     		mov	r0, r4
 1977 00be FFF7FEFF 		bl	lv_obj_refresh_ext_draw_pad
 1978              	.LVL184:
 359:lvgl/src/lv_widgets/lv_img.c ****     a.x1 += img->coords.x1;
 1979              		.loc 1 359 5 view .LVU609
 359:lvgl/src/lv_widgets/lv_img.c ****     a.x1 += img->coords.x1;
 1980              		.loc 1 359 66 is_stmt 0 view .LVU610
 1981 00c2 BB89     		ldrh	r3, [r7, #12]
 359:lvgl/src/lv_widgets/lv_img.c ****     a.x1 += img->coords.x1;
 1982              		.loc 1 359 61 view .LVU611
 1983 00c4 4344     		add	r3, r3, r8
 359:lvgl/src/lv_widgets/lv_img.c ****     a.x1 += img->coords.x1;
 1984              		.loc 1 359 5 view .LVU612
 1985 00c6 CDF804B0 		str	fp, [sp, #4]
 1986 00ca 0096     		str	r6, [sp]
 1987 00cc 1BB2     		sxth	r3, r3
 1988 00ce 5246     		mov	r2, r10
 1989 00d0 4946     		mov	r1, r9
 1990 00d2 02A8     		add	r0, sp, #8
 1991 00d4 FFF7FEFF 		bl	_lv_img_buf_get_transformed_area
 1992              	.LVL185:
 360:lvgl/src/lv_widgets/lv_img.c ****     a.y1 += img->coords.y1;
 1993              		.loc 1 360 5 is_stmt 1 view .LVU613
 360:lvgl/src/lv_widgets/lv_img.c ****     a.y1 += img->coords.y1;
 1994              		.loc 1 360 24 is_stmt 0 view .LVU614
 1995 00d8 228A     		ldrh	r2, [r4, #16]
 360:lvgl/src/lv_widgets/lv_img.c ****     a.y1 += img->coords.y1;
 1996              		.loc 1 360 10 view .LVU615
 1997 00da BDF80830 		ldrh	r3, [sp, #8]
 1998 00de 1344     		add	r3, r3, r2
 1999 00e0 ADF80830 		strh	r3, [sp, #8]	@ movhi
 361:lvgl/src/lv_widgets/lv_img.c ****     a.x2 += img->coords.x1;
 2000              		.loc 1 361 5 is_stmt 1 view .LVU616
 361:lvgl/src/lv_widgets/lv_img.c ****     a.x2 += img->coords.x1;
 2001              		.loc 1 361 24 is_stmt 0 view .LVU617
 2002 00e4 638A     		ldrh	r3, [r4, #18]
 361:lvgl/src/lv_widgets/lv_img.c ****     a.x2 += img->coords.x1;
 2003              		.loc 1 361 10 view .LVU618
 2004 00e6 BDF80A10 		ldrh	r1, [sp, #10]
ARM GAS  D:\Temp\ccdlqfAs.s 			page 67


 2005 00ea 1944     		add	r1, r1, r3
 2006 00ec ADF80A10 		strh	r1, [sp, #10]	@ movhi
 362:lvgl/src/lv_widgets/lv_img.c ****     a.y2 += img->coords.y1;
 2007              		.loc 1 362 5 is_stmt 1 view .LVU619
 362:lvgl/src/lv_widgets/lv_img.c ****     a.y2 += img->coords.y1;
 2008              		.loc 1 362 10 is_stmt 0 view .LVU620
 2009 00f0 BDF80C10 		ldrh	r1, [sp, #12]
 2010 00f4 0A44     		add	r2, r2, r1
 2011 00f6 ADF80C20 		strh	r2, [sp, #12]	@ movhi
 363:lvgl/src/lv_widgets/lv_img.c ****     lv_obj_invalidate_area(img, &a);
 2012              		.loc 1 363 5 is_stmt 1 view .LVU621
 363:lvgl/src/lv_widgets/lv_img.c ****     lv_obj_invalidate_area(img, &a);
 2013              		.loc 1 363 10 is_stmt 0 view .LVU622
 2014 00fa BDF80E20 		ldrh	r2, [sp, #14]
 2015 00fe 1344     		add	r3, r3, r2
 2016 0100 ADF80E30 		strh	r3, [sp, #14]	@ movhi
 364:lvgl/src/lv_widgets/lv_img.c **** }
 2017              		.loc 1 364 5 is_stmt 1 view .LVU623
 2018 0104 02A9     		add	r1, sp, #8
 2019 0106 2046     		mov	r0, r4
 2020 0108 FFF7FEFF 		bl	lv_obj_invalidate_area
 2021              	.LVL186:
 2022              	.L77:
 365:lvgl/src/lv_widgets/lv_img.c **** 
 2023              		.loc 1 365 1 is_stmt 0 view .LVU624
 2024 010c 05B0     		add	sp, sp, #20
 2025              	.LCFI12:
 2026              		.cfi_def_cfa_offset 36
 2027              		@ sp needed
 2028 010e BDE8F08F 		pop	{r4, r5, r6, r7, r8, r9, r10, fp, pc}
 2029              	.LVL187:
 2030              	.L83:
 365:lvgl/src/lv_widgets/lv_img.c **** 
 2031              		.loc 1 365 1 view .LVU625
 2032 0112 00BF     		.align	2
 2033              	.L82:
 2034 0114 C5B3A291 		.word	-1851608123
 2035              		.cfi_endproc
 2036              	.LFE464:
 2038              		.section	.text.lv_img_set_zoom,"ax",%progbits
 2039              		.align	1
 2040              		.global	lv_img_set_zoom
 2041              		.syntax unified
 2042              		.thumb
 2043              		.thumb_func
 2044              		.fpu fpv4-sp-d16
 2046              	lv_img_set_zoom:
 2047              	.LVL188:
 2048              	.LFB465:
 378:lvgl/src/lv_widgets/lv_img.c ****     lv_img_ext_t * ext = lv_obj_get_ext_attr(img);
 2049              		.loc 1 378 1 is_stmt 1 view -0
 2050              		.cfi_startproc
 2051              		@ args = 0, pretend = 0, frame = 8
 2052              		@ frame_needed = 0, uses_anonymous_args = 0
 378:lvgl/src/lv_widgets/lv_img.c ****     lv_img_ext_t * ext = lv_obj_get_ext_attr(img);
 2053              		.loc 1 378 1 is_stmt 0 view .LVU627
 2054 0000 2DE9F04F 		push	{r4, r5, r6, r7, r8, r9, r10, fp, lr}
ARM GAS  D:\Temp\ccdlqfAs.s 			page 68


 2055              	.LCFI13:
 2056              		.cfi_def_cfa_offset 36
 2057              		.cfi_offset 4, -36
 2058              		.cfi_offset 5, -32
 2059              		.cfi_offset 6, -28
 2060              		.cfi_offset 7, -24
 2061              		.cfi_offset 8, -20
 2062              		.cfi_offset 9, -16
 2063              		.cfi_offset 10, -12
 2064              		.cfi_offset 11, -8
 2065              		.cfi_offset 14, -4
 2066 0004 85B0     		sub	sp, sp, #20
 2067              	.LCFI14:
 2068              		.cfi_def_cfa_offset 56
 2069 0006 0446     		mov	r4, r0
 2070 0008 0F46     		mov	r7, r1
 379:lvgl/src/lv_widgets/lv_img.c ****     if(zoom == ext->zoom) return;
 2071              		.loc 1 379 5 is_stmt 1 view .LVU628
 379:lvgl/src/lv_widgets/lv_img.c ****     if(zoom == ext->zoom) return;
 2072              		.loc 1 379 26 is_stmt 0 view .LVU629
 2073 000a FFF7FEFF 		bl	lv_obj_get_ext_attr
 2074              	.LVL189:
 380:lvgl/src/lv_widgets/lv_img.c **** 
 2075              		.loc 1 380 5 is_stmt 1 view .LVU630
 380:lvgl/src/lv_widgets/lv_img.c **** 
 2076              		.loc 1 380 19 is_stmt 0 view .LVU631
 2077 000e 438A     		ldrh	r3, [r0, #18]
 380:lvgl/src/lv_widgets/lv_img.c **** 
 2078              		.loc 1 380 7 view .LVU632
 2079 0010 BB42     		cmp	r3, r7
 2080 0012 76D0     		beq	.L84
 2081 0014 0546     		mov	r5, r0
 382:lvgl/src/lv_widgets/lv_img.c **** 
 2082              		.loc 1 382 5 is_stmt 1 view .LVU633
 382:lvgl/src/lv_widgets/lv_img.c **** 
 2083              		.loc 1 382 7 is_stmt 0 view .LVU634
 2084 0016 07B9     		cbnz	r7, .L87
 382:lvgl/src/lv_widgets/lv_img.c **** 
 2085              		.loc 1 382 24 view .LVU635
 2086 0018 0127     		movs	r7, #1
 2087              	.L87:
 2088              	.LVL190:
 384:lvgl/src/lv_widgets/lv_img.c **** 
 2089              		.loc 1 384 5 is_stmt 1 view .LVU636
 2090              	.LBB175:
 2091              	.LBI175:
 108:lvgl/src/lv_widgets/../lv_core/lv_obj_style_dec.h **** _LV_OBJ_STYLE_SET_GET_DECLARE(OPA_SCALE, opa_scale, lv_opa_t, _opa, scalar)
 2092              		.loc 2 108 1 view .LVU637
 2093              	.LBB176:
 108:lvgl/src/lv_widgets/../lv_core/lv_obj_style_dec.h **** _LV_OBJ_STYLE_SET_GET_DECLARE(OPA_SCALE, opa_scale, lv_opa_t, _opa, scalar)
 2094              		.loc 2 108 1 view .LVU638
 2095 001a 0722     		movs	r2, #7
 2096 001c 0021     		movs	r1, #0
 2097 001e 2046     		mov	r0, r4
 2098              	.LVL191:
 108:lvgl/src/lv_widgets/../lv_core/lv_obj_style_dec.h **** _LV_OBJ_STYLE_SET_GET_DECLARE(OPA_SCALE, opa_scale, lv_opa_t, _opa, scalar)
 2099              		.loc 2 108 1 is_stmt 0 view .LVU639
ARM GAS  D:\Temp\ccdlqfAs.s 			page 69


 2100 0020 FFF7FEFF 		bl	_lv_obj_get_style_int
 2101              	.LVL192:
 2102 0024 8346     		mov	fp, r0
 2103              	.LVL193:
 108:lvgl/src/lv_widgets/../lv_core/lv_obj_style_dec.h **** _LV_OBJ_STYLE_SET_GET_DECLARE(OPA_SCALE, opa_scale, lv_opa_t, _opa, scalar)
 2104              		.loc 2 108 1 view .LVU640
 2105              	.LBE176:
 2106              	.LBE175:
 386:lvgl/src/lv_widgets/lv_img.c ****     transf_angle += ext->angle;
 2107              		.loc 1 386 5 is_stmt 1 view .LVU641
 2108              	.LBB177:
 2109              	.LBI177:
 107:lvgl/src/lv_widgets/../lv_core/lv_obj_style_dec.h **** _LV_OBJ_STYLE_SET_GET_DECLARE(TRANSFORM_ZOOM, transform_zoom, lv_style_int_t, _int, scalar)
 2110              		.loc 2 107 1 view .LVU642
 2111              	.LBB178:
 107:lvgl/src/lv_widgets/../lv_core/lv_obj_style_dec.h **** _LV_OBJ_STYLE_SET_GET_DECLARE(TRANSFORM_ZOOM, transform_zoom, lv_style_int_t, _int, scalar)
 2112              		.loc 2 107 1 view .LVU643
 2113 0026 0622     		movs	r2, #6
 2114 0028 0021     		movs	r1, #0
 2115 002a 2046     		mov	r0, r4
 2116 002c FFF7FEFF 		bl	_lv_obj_get_style_int
 2117              	.LVL194:
 107:lvgl/src/lv_widgets/../lv_core/lv_obj_style_dec.h **** _LV_OBJ_STYLE_SET_GET_DECLARE(TRANSFORM_ZOOM, transform_zoom, lv_style_int_t, _int, scalar)
 2118              		.loc 2 107 1 is_stmt 0 view .LVU644
 2119              	.LBE178:
 2120              	.LBE177:
 387:lvgl/src/lv_widgets/lv_img.c **** 
 2121              		.loc 1 387 5 is_stmt 1 view .LVU645
 387:lvgl/src/lv_widgets/lv_img.c **** 
 2122              		.loc 1 387 24 is_stmt 0 view .LVU646
 2123 0030 AE89     		ldrh	r6, [r5, #12]
 387:lvgl/src/lv_widgets/lv_img.c **** 
 2124              		.loc 1 387 18 view .LVU647
 2125 0032 0644     		add	r6, r6, r0
 2126 0034 36B2     		sxth	r6, r6
 2127              	.LVL195:
 389:lvgl/src/lv_widgets/lv_img.c ****     lv_coord_t h = lv_obj_get_height(img);
 2128              		.loc 1 389 5 is_stmt 1 view .LVU648
 389:lvgl/src/lv_widgets/lv_img.c ****     lv_coord_t h = lv_obj_get_height(img);
 2129              		.loc 1 389 20 is_stmt 0 view .LVU649
 2130 0036 2046     		mov	r0, r4
 2131 0038 FFF7FEFF 		bl	lv_obj_get_width
 2132              	.LVL196:
 2133 003c 8046     		mov	r8, r0
 2134              	.LVL197:
 390:lvgl/src/lv_widgets/lv_img.c ****     lv_area_t a;
 2135              		.loc 1 390 5 is_stmt 1 view .LVU650
 390:lvgl/src/lv_widgets/lv_img.c ****     lv_area_t a;
 2136              		.loc 1 390 20 is_stmt 0 view .LVU651
 2137 003e 2046     		mov	r0, r4
 2138 0040 FFF7FEFF 		bl	lv_obj_get_height
 2139              	.LVL198:
 2140 0044 8146     		mov	r9, r0
 2141              	.LVL199:
 391:lvgl/src/lv_widgets/lv_img.c ****     _lv_img_buf_get_transformed_area(&a, w, h, transf_angle, (transf_zoom * ext->zoom) >> 8, &ext->
 2142              		.loc 1 391 5 is_stmt 1 view .LVU652
 392:lvgl/src/lv_widgets/lv_img.c ****     a.x1 += img->coords.x1 - 1;
ARM GAS  D:\Temp\ccdlqfAs.s 			page 70


 2143              		.loc 1 392 5 view .LVU653
 392:lvgl/src/lv_widgets/lv_img.c ****     a.x1 += img->coords.x1 - 1;
 2144              		.loc 1 392 80 is_stmt 0 view .LVU654
 2145 0046 6B8A     		ldrh	r3, [r5, #18]
 392:lvgl/src/lv_widgets/lv_img.c ****     a.x1 += img->coords.x1 - 1;
 2146              		.loc 1 392 75 view .LVU655
 2147 0048 03FB0BF3 		mul	r3, r3, fp
 392:lvgl/src/lv_widgets/lv_img.c ****     a.x1 += img->coords.x1 - 1;
 2148              		.loc 1 392 94 view .LVU656
 2149 004c 05F10E0A 		add	r10, r5, #14
 392:lvgl/src/lv_widgets/lv_img.c ****     a.x1 += img->coords.x1 - 1;
 2150              		.loc 1 392 5 view .LVU657
 2151 0050 CDF804A0 		str	r10, [sp, #4]
 2152 0054 C3F30F23 		ubfx	r3, r3, #8, #16
 2153 0058 0093     		str	r3, [sp]
 2154 005a 3346     		mov	r3, r6
 2155 005c 0246     		mov	r2, r0
 2156 005e 4146     		mov	r1, r8
 2157 0060 02A8     		add	r0, sp, #8
 2158              	.LVL200:
 392:lvgl/src/lv_widgets/lv_img.c ****     a.x1 += img->coords.x1 - 1;
 2159              		.loc 1 392 5 view .LVU658
 2160 0062 FFF7FEFF 		bl	_lv_img_buf_get_transformed_area
 2161              	.LVL201:
 393:lvgl/src/lv_widgets/lv_img.c ****     a.y1 += img->coords.y1 - 1;
 2162              		.loc 1 393 5 is_stmt 1 view .LVU659
 393:lvgl/src/lv_widgets/lv_img.c ****     a.y1 += img->coords.y1 - 1;
 2163              		.loc 1 393 24 is_stmt 0 view .LVU660
 2164 0066 228A     		ldrh	r2, [r4, #16]
 393:lvgl/src/lv_widgets/lv_img.c ****     a.y1 += img->coords.y1 - 1;
 2165              		.loc 1 393 10 view .LVU661
 2166 0068 BDF80830 		ldrh	r3, [sp, #8]
 2167 006c 1344     		add	r3, r3, r2
 2168 006e 013B     		subs	r3, r3, #1
 2169 0070 ADF80830 		strh	r3, [sp, #8]	@ movhi
 394:lvgl/src/lv_widgets/lv_img.c ****     a.x2 += img->coords.x1 + 1;
 2170              		.loc 1 394 5 is_stmt 1 view .LVU662
 394:lvgl/src/lv_widgets/lv_img.c ****     a.x2 += img->coords.x1 + 1;
 2171              		.loc 1 394 24 is_stmt 0 view .LVU663
 2172 0074 638A     		ldrh	r3, [r4, #18]
 394:lvgl/src/lv_widgets/lv_img.c ****     a.x2 += img->coords.x1 + 1;
 2173              		.loc 1 394 10 view .LVU664
 2174 0076 BDF80A10 		ldrh	r1, [sp, #10]
 2175 007a 1944     		add	r1, r1, r3
 2176 007c 0139     		subs	r1, r1, #1
 2177 007e ADF80A10 		strh	r1, [sp, #10]	@ movhi
 395:lvgl/src/lv_widgets/lv_img.c ****     a.y2 += img->coords.y1 + 1;
 2178              		.loc 1 395 5 is_stmt 1 view .LVU665
 395:lvgl/src/lv_widgets/lv_img.c ****     a.y2 += img->coords.y1 + 1;
 2179              		.loc 1 395 10 is_stmt 0 view .LVU666
 2180 0082 BDF80C10 		ldrh	r1, [sp, #12]
 2181 0086 0A44     		add	r2, r2, r1
 2182 0088 0132     		adds	r2, r2, #1
 2183 008a ADF80C20 		strh	r2, [sp, #12]	@ movhi
 396:lvgl/src/lv_widgets/lv_img.c ****     lv_obj_invalidate_area(img, &a);
 2184              		.loc 1 396 5 is_stmt 1 view .LVU667
 396:lvgl/src/lv_widgets/lv_img.c ****     lv_obj_invalidate_area(img, &a);
ARM GAS  D:\Temp\ccdlqfAs.s 			page 71


 2185              		.loc 1 396 10 is_stmt 0 view .LVU668
 2186 008e BDF80E20 		ldrh	r2, [sp, #14]
 2187 0092 1344     		add	r3, r3, r2
 2188 0094 0133     		adds	r3, r3, #1
 2189 0096 ADF80E30 		strh	r3, [sp, #14]	@ movhi
 397:lvgl/src/lv_widgets/lv_img.c **** 
 2190              		.loc 1 397 5 is_stmt 1 view .LVU669
 2191 009a 02A9     		add	r1, sp, #8
 2192 009c 2046     		mov	r0, r4
 2193 009e FFF7FEFF 		bl	lv_obj_invalidate_area
 2194              	.LVL202:
 399:lvgl/src/lv_widgets/lv_img.c ****     lv_obj_refresh_ext_draw_pad(img);
 2195              		.loc 1 399 5 view .LVU670
 399:lvgl/src/lv_widgets/lv_img.c ****     lv_obj_refresh_ext_draw_pad(img);
 2196              		.loc 1 399 15 is_stmt 0 view .LVU671
 2197 00a2 6F82     		strh	r7, [r5, #18]	@ movhi
 400:lvgl/src/lv_widgets/lv_img.c **** 
 2198              		.loc 1 400 5 is_stmt 1 view .LVU672
 2199 00a4 2046     		mov	r0, r4
 2200 00a6 FFF7FEFF 		bl	lv_obj_refresh_ext_draw_pad
 2201              	.LVL203:
 402:lvgl/src/lv_widgets/lv_img.c ****     a.x1 += img->coords.x1 - 1;
 2202              		.loc 1 402 5 view .LVU673
 402:lvgl/src/lv_widgets/lv_img.c ****     a.x1 += img->coords.x1 - 1;
 2203              		.loc 1 402 80 is_stmt 0 view .LVU674
 2204 00aa 6B8A     		ldrh	r3, [r5, #18]
 402:lvgl/src/lv_widgets/lv_img.c ****     a.x1 += img->coords.x1 - 1;
 2205              		.loc 1 402 75 view .LVU675
 2206 00ac 03FB0BFB 		mul	fp, r3, fp
 2207              	.LVL204:
 402:lvgl/src/lv_widgets/lv_img.c ****     a.x1 += img->coords.x1 - 1;
 2208              		.loc 1 402 5 view .LVU676
 2209 00b0 CDF804A0 		str	r10, [sp, #4]
 2210 00b4 CBF30F23 		ubfx	r3, fp, #8, #16
 2211 00b8 0093     		str	r3, [sp]
 2212 00ba 3346     		mov	r3, r6
 2213 00bc 4A46     		mov	r2, r9
 2214 00be 4146     		mov	r1, r8
 2215 00c0 02A8     		add	r0, sp, #8
 2216 00c2 FFF7FEFF 		bl	_lv_img_buf_get_transformed_area
 2217              	.LVL205:
 403:lvgl/src/lv_widgets/lv_img.c ****     a.y1 += img->coords.y1 - 1;
 2218              		.loc 1 403 5 is_stmt 1 view .LVU677
 403:lvgl/src/lv_widgets/lv_img.c ****     a.y1 += img->coords.y1 - 1;
 2219              		.loc 1 403 24 is_stmt 0 view .LVU678
 2220 00c6 228A     		ldrh	r2, [r4, #16]
 403:lvgl/src/lv_widgets/lv_img.c ****     a.y1 += img->coords.y1 - 1;
 2221              		.loc 1 403 10 view .LVU679
 2222 00c8 BDF80830 		ldrh	r3, [sp, #8]
 2223 00cc 1344     		add	r3, r3, r2
 2224 00ce 013B     		subs	r3, r3, #1
 2225 00d0 ADF80830 		strh	r3, [sp, #8]	@ movhi
 404:lvgl/src/lv_widgets/lv_img.c ****     a.x2 += img->coords.x1 + 1;
 2226              		.loc 1 404 5 is_stmt 1 view .LVU680
 404:lvgl/src/lv_widgets/lv_img.c ****     a.x2 += img->coords.x1 + 1;
 2227              		.loc 1 404 24 is_stmt 0 view .LVU681
 2228 00d4 638A     		ldrh	r3, [r4, #18]
ARM GAS  D:\Temp\ccdlqfAs.s 			page 72


 404:lvgl/src/lv_widgets/lv_img.c ****     a.x2 += img->coords.x1 + 1;
 2229              		.loc 1 404 10 view .LVU682
 2230 00d6 BDF80A10 		ldrh	r1, [sp, #10]
 2231 00da 1944     		add	r1, r1, r3
 2232 00dc 0139     		subs	r1, r1, #1
 2233 00de ADF80A10 		strh	r1, [sp, #10]	@ movhi
 405:lvgl/src/lv_widgets/lv_img.c ****     a.y2 += img->coords.y1 + 1;
 2234              		.loc 1 405 5 is_stmt 1 view .LVU683
 405:lvgl/src/lv_widgets/lv_img.c ****     a.y2 += img->coords.y1 + 1;
 2235              		.loc 1 405 10 is_stmt 0 view .LVU684
 2236 00e2 BDF80C10 		ldrh	r1, [sp, #12]
 2237 00e6 0A44     		add	r2, r2, r1
 2238 00e8 0132     		adds	r2, r2, #1
 2239 00ea ADF80C20 		strh	r2, [sp, #12]	@ movhi
 406:lvgl/src/lv_widgets/lv_img.c ****     lv_obj_invalidate_area(img, &a);
 2240              		.loc 1 406 5 is_stmt 1 view .LVU685
 406:lvgl/src/lv_widgets/lv_img.c ****     lv_obj_invalidate_area(img, &a);
 2241              		.loc 1 406 10 is_stmt 0 view .LVU686
 2242 00ee BDF80E20 		ldrh	r2, [sp, #14]
 2243 00f2 1344     		add	r3, r3, r2
 2244 00f4 0133     		adds	r3, r3, #1
 2245 00f6 ADF80E30 		strh	r3, [sp, #14]	@ movhi
 407:lvgl/src/lv_widgets/lv_img.c **** }
 2246              		.loc 1 407 5 is_stmt 1 view .LVU687
 2247 00fa 02A9     		add	r1, sp, #8
 2248 00fc 2046     		mov	r0, r4
 2249 00fe FFF7FEFF 		bl	lv_obj_invalidate_area
 2250              	.LVL206:
 2251              	.L84:
 408:lvgl/src/lv_widgets/lv_img.c **** 
 2252              		.loc 1 408 1 is_stmt 0 view .LVU688
 2253 0102 05B0     		add	sp, sp, #20
 2254              	.LCFI15:
 2255              		.cfi_def_cfa_offset 36
 2256              		@ sp needed
 2257 0104 BDE8F08F 		pop	{r4, r5, r6, r7, r8, r9, r10, fp, pc}
 408:lvgl/src/lv_widgets/lv_img.c **** 
 2258              		.loc 1 408 1 view .LVU689
 2259              		.cfi_endproc
 2260              	.LFE465:
 2262              		.section	.text.lv_img_set_antialias,"ax",%progbits
 2263              		.align	1
 2264              		.global	lv_img_set_antialias
 2265              		.syntax unified
 2266              		.thumb
 2267              		.thumb_func
 2268              		.fpu fpv4-sp-d16
 2270              	lv_img_set_antialias:
 2271              	.LVL207:
 2272              	.LFB466:
 416:lvgl/src/lv_widgets/lv_img.c ****     lv_img_ext_t * ext = lv_obj_get_ext_attr(img);
 2273              		.loc 1 416 1 is_stmt 1 view -0
 2274              		.cfi_startproc
 2275              		@ args = 0, pretend = 0, frame = 0
 2276              		@ frame_needed = 0, uses_anonymous_args = 0
 416:lvgl/src/lv_widgets/lv_img.c ****     lv_img_ext_t * ext = lv_obj_get_ext_attr(img);
 2277              		.loc 1 416 1 is_stmt 0 view .LVU691
ARM GAS  D:\Temp\ccdlqfAs.s 			page 73


 2278 0000 38B5     		push	{r3, r4, r5, lr}
 2279              	.LCFI16:
 2280              		.cfi_def_cfa_offset 16
 2281              		.cfi_offset 3, -16
 2282              		.cfi_offset 4, -12
 2283              		.cfi_offset 5, -8
 2284              		.cfi_offset 14, -4
 2285 0002 0546     		mov	r5, r0
 2286 0004 0C46     		mov	r4, r1
 417:lvgl/src/lv_widgets/lv_img.c ****     if(antialias == ext->antialias) return;
 2287              		.loc 1 417 5 is_stmt 1 view .LVU692
 417:lvgl/src/lv_widgets/lv_img.c ****     if(antialias == ext->antialias) return;
 2288              		.loc 1 417 26 is_stmt 0 view .LVU693
 2289 0006 FFF7FEFF 		bl	lv_obj_get_ext_attr
 2290              	.LVL208:
 418:lvgl/src/lv_widgets/lv_img.c **** 
 2291              		.loc 1 418 5 is_stmt 1 view .LVU694
 418:lvgl/src/lv_widgets/lv_img.c **** 
 2292              		.loc 1 418 24 is_stmt 0 view .LVU695
 2293 000a 437D     		ldrb	r3, [r0, #21]	@ zero_extendqisi2
 2294 000c 03F00103 		and	r3, r3, #1
 418:lvgl/src/lv_widgets/lv_img.c **** 
 2295              		.loc 1 418 7 view .LVU696
 2296 0010 A342     		cmp	r3, r4
 2297 0012 06D0     		beq	.L90
 420:lvgl/src/lv_widgets/lv_img.c ****     lv_obj_invalidate(img);
 2298              		.loc 1 420 5 is_stmt 1 view .LVU697
 420:lvgl/src/lv_widgets/lv_img.c ****     lv_obj_invalidate(img);
 2299              		.loc 1 420 20 is_stmt 0 view .LVU698
 2300 0014 437D     		ldrb	r3, [r0, #21]	@ zero_extendqisi2
 2301 0016 64F30003 		bfi	r3, r4, #0, #1
 2302              	.LVL209:
 420:lvgl/src/lv_widgets/lv_img.c ****     lv_obj_invalidate(img);
 2303              		.loc 1 420 20 view .LVU699
 2304 001a 4375     		strb	r3, [r0, #21]
 421:lvgl/src/lv_widgets/lv_img.c **** }
 2305              		.loc 1 421 5 is_stmt 1 view .LVU700
 2306 001c 2846     		mov	r0, r5
 2307              	.LVL210:
 421:lvgl/src/lv_widgets/lv_img.c **** }
 2308              		.loc 1 421 5 is_stmt 0 view .LVU701
 2309 001e FFF7FEFF 		bl	lv_obj_invalidate
 2310              	.LVL211:
 2311              	.L90:
 422:lvgl/src/lv_widgets/lv_img.c **** 
 2312              		.loc 1 422 1 view .LVU702
 2313 0022 38BD     		pop	{r3, r4, r5, pc}
 422:lvgl/src/lv_widgets/lv_img.c **** 
 2314              		.loc 1 422 1 view .LVU703
 2315              		.cfi_endproc
 2316              	.LFE466:
 2318              		.section	.text.lv_img_get_src,"ax",%progbits
 2319              		.align	1
 2320              		.global	lv_img_get_src
 2321              		.syntax unified
 2322              		.thumb
 2323              		.thumb_func
ARM GAS  D:\Temp\ccdlqfAs.s 			page 74


 2324              		.fpu fpv4-sp-d16
 2326              	lv_img_get_src:
 2327              	.LVL212:
 2328              	.LFB467:
 434:lvgl/src/lv_widgets/lv_img.c ****     LV_ASSERT_OBJ(img, LV_OBJX_NAME);
 2329              		.loc 1 434 1 is_stmt 1 view -0
 2330              		.cfi_startproc
 2331              		@ args = 0, pretend = 0, frame = 0
 2332              		@ frame_needed = 0, uses_anonymous_args = 0
 434:lvgl/src/lv_widgets/lv_img.c ****     LV_ASSERT_OBJ(img, LV_OBJX_NAME);
 2333              		.loc 1 434 1 is_stmt 0 view .LVU705
 2334 0000 10B5     		push	{r4, lr}
 2335              	.LCFI17:
 2336              		.cfi_def_cfa_offset 8
 2337              		.cfi_offset 4, -8
 2338              		.cfi_offset 14, -4
 2339 0002 0446     		mov	r4, r0
 435:lvgl/src/lv_widgets/lv_img.c **** 
 2340              		.loc 1 435 5 is_stmt 1 view .LVU706
 435:lvgl/src/lv_widgets/lv_img.c **** 
 2341              		.loc 1 435 5 view .LVU707
 2342 0004 FFF7FEFF 		bl	lv_debug_check_null
 2343              	.LVL213:
 435:lvgl/src/lv_widgets/lv_img.c **** 
 2344              		.loc 1 435 5 is_stmt 0 view .LVU708
 2345 0008 28B9     		cbnz	r0, .L94
 435:lvgl/src/lv_widgets/lv_img.c **** 
 2346              		.loc 1 435 5 is_stmt 1 discriminator 1 view .LVU709
 435:lvgl/src/lv_widgets/lv_img.c **** 
 2347              		.loc 1 435 5 discriminator 1 view .LVU710
 2348 000a 2246     		mov	r2, r4
 2349 000c 0023     		movs	r3, #0
 2350 000e 0448     		ldr	r0, .L97
 2351 0010 FFF7FEFF 		bl	lv_debug_log_error
 2352              	.LVL214:
 2353              	.L95:
 435:lvgl/src/lv_widgets/lv_img.c **** 
 2354              		.loc 1 435 5 discriminator 1 view .LVU711
 435:lvgl/src/lv_widgets/lv_img.c **** 
 2355              		.loc 1 435 5 discriminator 1 view .LVU712
 2356 0014 FEE7     		b	.L95
 2357              	.L94:
 435:lvgl/src/lv_widgets/lv_img.c **** 
 2358              		.loc 1 435 37 discriminator 2 view .LVU713
 437:lvgl/src/lv_widgets/lv_img.c **** 
 2359              		.loc 1 437 5 discriminator 2 view .LVU714
 437:lvgl/src/lv_widgets/lv_img.c **** 
 2360              		.loc 1 437 26 is_stmt 0 discriminator 2 view .LVU715
 2361 0016 2046     		mov	r0, r4
 2362 0018 FFF7FEFF 		bl	lv_obj_get_ext_attr
 2363              	.LVL215:
 439:lvgl/src/lv_widgets/lv_img.c **** }
 2364              		.loc 1 439 5 is_stmt 1 discriminator 2 view .LVU716
 440:lvgl/src/lv_widgets/lv_img.c **** 
 2365              		.loc 1 440 1 is_stmt 0 discriminator 2 view .LVU717
 2366 001c 0068     		ldr	r0, [r0]
 2367              	.LVL216:
ARM GAS  D:\Temp\ccdlqfAs.s 			page 75


 440:lvgl/src/lv_widgets/lv_img.c **** 
 2368              		.loc 1 440 1 discriminator 2 view .LVU718
 2369 001e 10BD     		pop	{r4, pc}
 2370              	.LVL217:
 2371              	.L98:
 440:lvgl/src/lv_widgets/lv_img.c **** 
 2372              		.loc 1 440 1 discriminator 2 view .LVU719
 2373              		.align	2
 2374              	.L97:
 2375 0020 00000000 		.word	.LC0
 2376              		.cfi_endproc
 2377              	.LFE467:
 2379              		.section	.text.lv_img_get_file_name,"ax",%progbits
 2380              		.align	1
 2381              		.global	lv_img_get_file_name
 2382              		.syntax unified
 2383              		.thumb
 2384              		.thumb_func
 2385              		.fpu fpv4-sp-d16
 2387              	lv_img_get_file_name:
 2388              	.LVL218:
 2389              	.LFB468:
 448:lvgl/src/lv_widgets/lv_img.c ****     LV_ASSERT_OBJ(img, LV_OBJX_NAME);
 2390              		.loc 1 448 1 is_stmt 1 view -0
 2391              		.cfi_startproc
 2392              		@ args = 0, pretend = 0, frame = 0
 2393              		@ frame_needed = 0, uses_anonymous_args = 0
 448:lvgl/src/lv_widgets/lv_img.c ****     LV_ASSERT_OBJ(img, LV_OBJX_NAME);
 2394              		.loc 1 448 1 is_stmt 0 view .LVU721
 2395 0000 10B5     		push	{r4, lr}
 2396              	.LCFI18:
 2397              		.cfi_def_cfa_offset 8
 2398              		.cfi_offset 4, -8
 2399              		.cfi_offset 14, -4
 2400 0002 0446     		mov	r4, r0
 449:lvgl/src/lv_widgets/lv_img.c **** 
 2401              		.loc 1 449 5 is_stmt 1 view .LVU722
 449:lvgl/src/lv_widgets/lv_img.c **** 
 2402              		.loc 1 449 5 view .LVU723
 2403 0004 FFF7FEFF 		bl	lv_debug_check_null
 2404              	.LVL219:
 449:lvgl/src/lv_widgets/lv_img.c **** 
 2405              		.loc 1 449 5 is_stmt 0 view .LVU724
 2406 0008 28B9     		cbnz	r0, .L100
 449:lvgl/src/lv_widgets/lv_img.c **** 
 2407              		.loc 1 449 5 is_stmt 1 discriminator 1 view .LVU725
 449:lvgl/src/lv_widgets/lv_img.c **** 
 2408              		.loc 1 449 5 discriminator 1 view .LVU726
 2409 000a 2246     		mov	r2, r4
 2410 000c 0023     		movs	r3, #0
 2411 000e 0848     		ldr	r0, .L106
 2412 0010 FFF7FEFF 		bl	lv_debug_log_error
 2413              	.LVL220:
 2414              	.L101:
 449:lvgl/src/lv_widgets/lv_img.c **** 
 2415              		.loc 1 449 5 discriminator 1 view .LVU727
 449:lvgl/src/lv_widgets/lv_img.c **** 
ARM GAS  D:\Temp\ccdlqfAs.s 			page 76


 2416              		.loc 1 449 5 discriminator 1 view .LVU728
 2417 0014 FEE7     		b	.L101
 2418              	.L100:
 449:lvgl/src/lv_widgets/lv_img.c **** 
 2419              		.loc 1 449 37 discriminator 2 view .LVU729
 451:lvgl/src/lv_widgets/lv_img.c **** 
 2420              		.loc 1 451 5 discriminator 2 view .LVU730
 451:lvgl/src/lv_widgets/lv_img.c **** 
 2421              		.loc 1 451 26 is_stmt 0 discriminator 2 view .LVU731
 2422 0016 2046     		mov	r0, r4
 2423 0018 FFF7FEFF 		bl	lv_obj_get_ext_attr
 2424              	.LVL221:
 453:lvgl/src/lv_widgets/lv_img.c ****         return ext->src;
 2425              		.loc 1 453 5 is_stmt 1 discriminator 2 view .LVU732
 453:lvgl/src/lv_widgets/lv_img.c ****         return ext->src;
 2426              		.loc 1 453 22 is_stmt 0 discriminator 2 view .LVU733
 2427 001c 037D     		ldrb	r3, [r0, #20]	@ zero_extendqisi2
 2428 001e 03F00303 		and	r3, r3, #3
 453:lvgl/src/lv_widgets/lv_img.c ****         return ext->src;
 2429              		.loc 1 453 7 discriminator 2 view .LVU734
 2430 0022 012B     		cmp	r3, #1
 2431 0024 01D0     		beq	.L105
 456:lvgl/src/lv_widgets/lv_img.c **** }
 2432              		.loc 1 456 16 view .LVU735
 2433 0026 0348     		ldr	r0, .L106+4
 2434              	.LVL222:
 2435              	.L99:
 457:lvgl/src/lv_widgets/lv_img.c **** 
 2436              		.loc 1 457 1 view .LVU736
 2437 0028 10BD     		pop	{r4, pc}
 2438              	.LVL223:
 2439              	.L105:
 454:lvgl/src/lv_widgets/lv_img.c ****     else
 2440              		.loc 1 454 9 is_stmt 1 view .LVU737
 454:lvgl/src/lv_widgets/lv_img.c ****     else
 2441              		.loc 1 454 19 is_stmt 0 view .LVU738
 2442 002a 0068     		ldr	r0, [r0]
 2443              	.LVL224:
 454:lvgl/src/lv_widgets/lv_img.c ****     else
 2444              		.loc 1 454 19 view .LVU739
 2445 002c FCE7     		b	.L99
 2446              	.L107:
 2447 002e 00BF     		.align	2
 2448              	.L106:
 2449 0030 00000000 		.word	.LC0
 2450 0034 00000000 		.word	.LC1
 2451              		.cfi_endproc
 2452              	.LFE468:
 2454              		.section	.text.lv_img_get_auto_size,"ax",%progbits
 2455              		.align	1
 2456              		.global	lv_img_get_auto_size
 2457              		.syntax unified
 2458              		.thumb
 2459              		.thumb_func
 2460              		.fpu fpv4-sp-d16
 2462              	lv_img_get_auto_size:
 2463              	.LVL225:
ARM GAS  D:\Temp\ccdlqfAs.s 			page 77


 2464              	.LFB469:
 465:lvgl/src/lv_widgets/lv_img.c ****     LV_ASSERT_OBJ(img, LV_OBJX_NAME);
 2465              		.loc 1 465 1 is_stmt 1 view -0
 2466              		.cfi_startproc
 2467              		@ args = 0, pretend = 0, frame = 0
 2468              		@ frame_needed = 0, uses_anonymous_args = 0
 465:lvgl/src/lv_widgets/lv_img.c ****     LV_ASSERT_OBJ(img, LV_OBJX_NAME);
 2469              		.loc 1 465 1 is_stmt 0 view .LVU741
 2470 0000 10B5     		push	{r4, lr}
 2471              	.LCFI19:
 2472              		.cfi_def_cfa_offset 8
 2473              		.cfi_offset 4, -8
 2474              		.cfi_offset 14, -4
 2475 0002 0446     		mov	r4, r0
 466:lvgl/src/lv_widgets/lv_img.c **** 
 2476              		.loc 1 466 5 is_stmt 1 view .LVU742
 466:lvgl/src/lv_widgets/lv_img.c **** 
 2477              		.loc 1 466 5 view .LVU743
 2478 0004 FFF7FEFF 		bl	lv_debug_check_null
 2479              	.LVL226:
 466:lvgl/src/lv_widgets/lv_img.c **** 
 2480              		.loc 1 466 5 is_stmt 0 view .LVU744
 2481 0008 28B9     		cbnz	r0, .L109
 466:lvgl/src/lv_widgets/lv_img.c **** 
 2482              		.loc 1 466 5 is_stmt 1 discriminator 1 view .LVU745
 466:lvgl/src/lv_widgets/lv_img.c **** 
 2483              		.loc 1 466 5 discriminator 1 view .LVU746
 2484 000a 2246     		mov	r2, r4
 2485 000c 0023     		movs	r3, #0
 2486 000e 0548     		ldr	r0, .L112
 2487 0010 FFF7FEFF 		bl	lv_debug_log_error
 2488              	.LVL227:
 2489              	.L110:
 466:lvgl/src/lv_widgets/lv_img.c **** 
 2490              		.loc 1 466 5 discriminator 1 view .LVU747
 466:lvgl/src/lv_widgets/lv_img.c **** 
 2491              		.loc 1 466 5 discriminator 1 view .LVU748
 2492 0014 FEE7     		b	.L110
 2493              	.L109:
 466:lvgl/src/lv_widgets/lv_img.c **** 
 2494              		.loc 1 466 37 discriminator 2 view .LVU749
 468:lvgl/src/lv_widgets/lv_img.c **** 
 2495              		.loc 1 468 5 discriminator 2 view .LVU750
 468:lvgl/src/lv_widgets/lv_img.c **** 
 2496              		.loc 1 468 26 is_stmt 0 discriminator 2 view .LVU751
 2497 0016 2046     		mov	r0, r4
 2498 0018 FFF7FEFF 		bl	lv_obj_get_ext_attr
 2499              	.LVL228:
 470:lvgl/src/lv_widgets/lv_img.c **** }
 2500              		.loc 1 470 5 is_stmt 1 discriminator 2 view .LVU752
 470:lvgl/src/lv_widgets/lv_img.c **** }
 2501              		.loc 1 470 27 is_stmt 0 discriminator 2 view .LVU753
 2502 001c 007D     		ldrb	r0, [r0, #20]	@ zero_extendqisi2
 2503              	.LVL229:
 471:lvgl/src/lv_widgets/lv_img.c **** 
 2504              		.loc 1 471 1 discriminator 2 view .LVU754
 2505 001e C0F38000 		ubfx	r0, r0, #2, #1
ARM GAS  D:\Temp\ccdlqfAs.s 			page 78


 2506 0022 10BD     		pop	{r4, pc}
 2507              	.LVL230:
 2508              	.L113:
 471:lvgl/src/lv_widgets/lv_img.c **** 
 2509              		.loc 1 471 1 discriminator 2 view .LVU755
 2510              		.align	2
 2511              	.L112:
 2512 0024 00000000 		.word	.LC0
 2513              		.cfi_endproc
 2514              	.LFE469:
 2516              		.section	.text.lv_img_set_src,"ax",%progbits
 2517              		.align	1
 2518              		.global	lv_img_set_src
 2519              		.syntax unified
 2520              		.thumb
 2521              		.thumb_func
 2522              		.fpu fpv4-sp-d16
 2524              	lv_img_set_src:
 2525              	.LVL231:
 2526              	.LFB459:
 142:lvgl/src/lv_widgets/lv_img.c ****     LV_ASSERT_OBJ(img, LV_OBJX_NAME);
 2527              		.loc 1 142 1 is_stmt 1 view -0
 2528              		.cfi_startproc
 2529              		@ args = 0, pretend = 0, frame = 8
 2530              		@ frame_needed = 0, uses_anonymous_args = 0
 142:lvgl/src/lv_widgets/lv_img.c ****     LV_ASSERT_OBJ(img, LV_OBJX_NAME);
 2531              		.loc 1 142 1 is_stmt 0 view .LVU757
 2532 0000 2DE9F043 		push	{r4, r5, r6, r7, r8, r9, lr}
 2533              	.LCFI20:
 2534              		.cfi_def_cfa_offset 28
 2535              		.cfi_offset 4, -28
 2536              		.cfi_offset 5, -24
 2537              		.cfi_offset 6, -20
 2538              		.cfi_offset 7, -16
 2539              		.cfi_offset 8, -12
 2540              		.cfi_offset 9, -8
 2541              		.cfi_offset 14, -4
 2542 0004 87B0     		sub	sp, sp, #28
 2543              	.LCFI21:
 2544              		.cfi_def_cfa_offset 56
 2545 0006 0546     		mov	r5, r0
 2546 0008 0E46     		mov	r6, r1
 143:lvgl/src/lv_widgets/lv_img.c **** 
 2547              		.loc 1 143 5 is_stmt 1 view .LVU758
 143:lvgl/src/lv_widgets/lv_img.c **** 
 2548              		.loc 1 143 5 view .LVU759
 2549 000a FFF7FEFF 		bl	lv_debug_check_null
 2550              	.LVL232:
 143:lvgl/src/lv_widgets/lv_img.c **** 
 2551              		.loc 1 143 5 is_stmt 0 view .LVU760
 2552 000e 28B9     		cbnz	r0, .L115
 143:lvgl/src/lv_widgets/lv_img.c **** 
 2553              		.loc 1 143 5 is_stmt 1 discriminator 1 view .LVU761
 143:lvgl/src/lv_widgets/lv_img.c **** 
 2554              		.loc 1 143 5 discriminator 1 view .LVU762
 2555 0010 2A46     		mov	r2, r5
 2556 0012 0023     		movs	r3, #0
ARM GAS  D:\Temp\ccdlqfAs.s 			page 79


 2557 0014 6248     		ldr	r0, .L138
 2558 0016 FFF7FEFF 		bl	lv_debug_log_error
 2559              	.LVL233:
 2560              	.L116:
 143:lvgl/src/lv_widgets/lv_img.c **** 
 2561              		.loc 1 143 5 discriminator 1 view .LVU763
 143:lvgl/src/lv_widgets/lv_img.c **** 
 2562              		.loc 1 143 5 discriminator 1 view .LVU764
 2563 001a FEE7     		b	.L116
 2564              	.L115:
 143:lvgl/src/lv_widgets/lv_img.c **** 
 2565              		.loc 1 143 37 discriminator 2 view .LVU765
 145:lvgl/src/lv_widgets/lv_img.c ****     lv_img_ext_t * ext    = lv_obj_get_ext_attr(img);
 2566              		.loc 1 145 5 discriminator 2 view .LVU766
 145:lvgl/src/lv_widgets/lv_img.c ****     lv_img_ext_t * ext    = lv_obj_get_ext_attr(img);
 2567              		.loc 1 145 29 is_stmt 0 discriminator 2 view .LVU767
 2568 001c 3046     		mov	r0, r6
 2569 001e FFF7FEFF 		bl	lv_img_src_get_type
 2570              	.LVL234:
 2571 0022 0746     		mov	r7, r0
 2572              	.LVL235:
 146:lvgl/src/lv_widgets/lv_img.c **** 
 2573              		.loc 1 146 5 is_stmt 1 discriminator 2 view .LVU768
 146:lvgl/src/lv_widgets/lv_img.c **** 
 2574              		.loc 1 146 29 is_stmt 0 discriminator 2 view .LVU769
 2575 0024 2846     		mov	r0, r5
 2576 0026 FFF7FEFF 		bl	lv_obj_get_ext_attr
 2577              	.LVL236:
 2578 002a 0446     		mov	r4, r0
 2579              	.LVL237:
 165:lvgl/src/lv_widgets/lv_img.c ****         LV_LOG_WARN("lv_img_set_src: unknown image type");
 2580              		.loc 1 165 5 is_stmt 1 discriminator 2 view .LVU770
 165:lvgl/src/lv_widgets/lv_img.c ****         LV_LOG_WARN("lv_img_set_src: unknown image type");
 2581              		.loc 1 165 7 is_stmt 0 discriminator 2 view .LVU771
 2582 002c 032F     		cmp	r7, #3
 2583 002e 39D0     		beq	.L132
 175:lvgl/src/lv_widgets/lv_img.c ****     lv_img_decoder_get_info(src_img, &header);
 2584              		.loc 1 175 5 is_stmt 1 view .LVU772
 176:lvgl/src/lv_widgets/lv_img.c **** 
 2585              		.loc 1 176 5 view .LVU773
 2586 0030 05A9     		add	r1, sp, #20
 2587 0032 3046     		mov	r0, r6
 2588              	.LVL238:
 176:lvgl/src/lv_widgets/lv_img.c **** 
 2589              		.loc 1 176 5 is_stmt 0 view .LVU774
 2590 0034 FFF7FEFF 		bl	lv_img_decoder_get_info
 2591              	.LVL239:
 179:lvgl/src/lv_widgets/lv_img.c ****         LV_LOG_INFO("lv_img_set_src:  `LV_IMG_SRC_VARIABLE` type found");
 2592              		.loc 1 179 5 is_stmt 1 view .LVU775
 179:lvgl/src/lv_widgets/lv_img.c ****         LV_LOG_INFO("lv_img_set_src:  `LV_IMG_SRC_VARIABLE` type found");
 2593              		.loc 1 179 7 is_stmt 0 view .LVU776
 2594 0038 002F     		cmp	r7, #0
 2595 003a 49D1     		bne	.L120
 180:lvgl/src/lv_widgets/lv_img.c **** 
 2596              		.loc 1 180 73 is_stmt 1 view .LVU777
 183:lvgl/src/lv_widgets/lv_img.c ****             lv_mem_free(ext->src);
 2597              		.loc 1 183 9 view .LVU778
ARM GAS  D:\Temp\ccdlqfAs.s 			page 80


 183:lvgl/src/lv_widgets/lv_img.c ****             lv_mem_free(ext->src);
 2598              		.loc 1 183 26 is_stmt 0 view .LVU779
 2599 003c 237D     		ldrb	r3, [r4, #20]	@ zero_extendqisi2
 183:lvgl/src/lv_widgets/lv_img.c ****             lv_mem_free(ext->src);
 2600              		.loc 1 183 45 view .LVU780
 2601 003e 03F00303 		and	r3, r3, #3
 2602 0042 013B     		subs	r3, r3, #1
 2603 0044 DBB2     		uxtb	r3, r3
 183:lvgl/src/lv_widgets/lv_img.c ****             lv_mem_free(ext->src);
 2604              		.loc 1 183 11 view .LVU781
 2605 0046 012B     		cmp	r3, #1
 2606 0048 3ED9     		bls	.L133
 2607              	.L121:
 186:lvgl/src/lv_widgets/lv_img.c ****     }
 2608              		.loc 1 186 9 is_stmt 1 view .LVU782
 186:lvgl/src/lv_widgets/lv_img.c ****     }
 2609              		.loc 1 186 18 is_stmt 0 view .LVU783
 2610 004a 2660     		str	r6, [r4]
 2611              	.L122:
 208:lvgl/src/lv_widgets/lv_img.c ****         /*`lv_img_dsc_get_info` couldn't set the with and height of a font so set it here*/
 2612              		.loc 1 208 5 is_stmt 1 view .LVU784
 208:lvgl/src/lv_widgets/lv_img.c ****         /*`lv_img_dsc_get_info` couldn't set the with and height of a font so set it here*/
 2613              		.loc 1 208 7 is_stmt 0 view .LVU785
 2614 004c 022F     		cmp	r7, #2
 2615 004e 70D0     		beq	.L134
 2616              	.L126:
 220:lvgl/src/lv_widgets/lv_img.c ****     ext->w        = header.w;
 2617              		.loc 1 220 5 is_stmt 1 view .LVU786
 220:lvgl/src/lv_widgets/lv_img.c ****     ext->w        = header.w;
 2618              		.loc 1 220 19 is_stmt 0 view .LVU787
 2619 0050 217D     		ldrb	r1, [r4, #20]	@ zero_extendqisi2
 2620 0052 67F30101 		bfi	r1, r7, #0, #2
 221:lvgl/src/lv_widgets/lv_img.c ****     ext->h        = header.h;
 2621              		.loc 1 221 5 is_stmt 1 view .LVU788
 221:lvgl/src/lv_widgets/lv_img.c ****     ext->h        = header.h;
 2622              		.loc 1 221 27 is_stmt 0 view .LVU789
 2623 0056 059A     		ldr	r2, [sp, #20]
 2624 0058 C2F38A22 		ubfx	r2, r2, #10, #11
 221:lvgl/src/lv_widgets/lv_img.c ****     ext->h        = header.h;
 2625              		.loc 1 221 19 view .LVU790
 2626 005c 2281     		strh	r2, [r4, #8]	@ movhi
 222:lvgl/src/lv_widgets/lv_img.c ****     ext->cf       = header.cf;
 2627              		.loc 1 222 5 is_stmt 1 view .LVU791
 222:lvgl/src/lv_widgets/lv_img.c ****     ext->cf       = header.cf;
 2628              		.loc 1 222 27 is_stmt 0 view .LVU792
 2629 005e BDF81630 		ldrh	r3, [sp, #22]
 2630 0062 C3F34A13 		ubfx	r3, r3, #5, #11
 222:lvgl/src/lv_widgets/lv_img.c ****     ext->cf       = header.cf;
 2631              		.loc 1 222 19 view .LVU793
 2632 0066 6381     		strh	r3, [r4, #10]	@ movhi
 223:lvgl/src/lv_widgets/lv_img.c ****     ext->pivot.x = header.w / 2;
 2633              		.loc 1 223 5 is_stmt 1 view .LVU794
 223:lvgl/src/lv_widgets/lv_img.c ****     ext->pivot.x = header.w / 2;
 2634              		.loc 1 223 27 is_stmt 0 view .LVU795
 2635 0068 9DF81400 		ldrb	r0, [sp, #20]	@ zero_extendqisi2
 223:lvgl/src/lv_widgets/lv_img.c ****     ext->pivot.x = header.w / 2;
 2636              		.loc 1 223 19 view .LVU796
ARM GAS  D:\Temp\ccdlqfAs.s 			page 81


 2637 006c 60F3C701 		bfi	r1, r0, #3, #5
 2638 0070 2175     		strb	r1, [r4, #20]
 224:lvgl/src/lv_widgets/lv_img.c ****     ext->pivot.y = header.h / 2;
 2639              		.loc 1 224 5 is_stmt 1 view .LVU797
 224:lvgl/src/lv_widgets/lv_img.c ****     ext->pivot.y = header.h / 2;
 2640              		.loc 1 224 29 is_stmt 0 view .LVU798
 2641 0072 5208     		lsrs	r2, r2, #1
 224:lvgl/src/lv_widgets/lv_img.c ****     ext->pivot.y = header.h / 2;
 2642              		.loc 1 224 18 view .LVU799
 2643 0074 E281     		strh	r2, [r4, #14]	@ movhi
 225:lvgl/src/lv_widgets/lv_img.c **** 
 2644              		.loc 1 225 5 is_stmt 1 view .LVU800
 225:lvgl/src/lv_widgets/lv_img.c **** 
 2645              		.loc 1 225 29 is_stmt 0 view .LVU801
 2646 0076 5B08     		lsrs	r3, r3, #1
 225:lvgl/src/lv_widgets/lv_img.c **** 
 2647              		.loc 1 225 18 view .LVU802
 2648 0078 2382     		strh	r3, [r4, #16]	@ movhi
 227:lvgl/src/lv_widgets/lv_img.c ****         lv_obj_set_size(img, ext->w, ext->h);
 2649              		.loc 1 227 5 is_stmt 1 view .LVU803
 227:lvgl/src/lv_widgets/lv_img.c ****         lv_obj_set_size(img, ext->w, ext->h);
 2650              		.loc 1 227 8 is_stmt 0 view .LVU804
 2651 007a 2846     		mov	r0, r5
 2652 007c FFF7FEFF 		bl	lv_img_get_auto_size
 2653              	.LVL240:
 227:lvgl/src/lv_widgets/lv_img.c ****         lv_obj_set_size(img, ext->w, ext->h);
 2654              		.loc 1 227 7 view .LVU805
 2655 0080 0028     		cmp	r0, #0
 2656 0082 40F08580 		bne	.L135
 2657              	.L127:
 232:lvgl/src/lv_widgets/lv_img.c **** 
 2658              		.loc 1 232 5 is_stmt 1 view .LVU806
 232:lvgl/src/lv_widgets/lv_img.c **** 
 2659              		.loc 1 232 11 is_stmt 0 view .LVU807
 2660 0086 A389     		ldrh	r3, [r4, #12]
 232:lvgl/src/lv_widgets/lv_img.c **** 
 2661              		.loc 1 232 7 view .LVU808
 2662 0088 1BB9     		cbnz	r3, .L128
 232:lvgl/src/lv_widgets/lv_img.c **** 
 2663              		.loc 1 232 25 discriminator 2 view .LVU809
 2664 008a 638A     		ldrh	r3, [r4, #18]
 232:lvgl/src/lv_widgets/lv_img.c **** 
 2665              		.loc 1 232 19 discriminator 2 view .LVU810
 2666 008c B3F5807F 		cmp	r3, #256
 2667 0090 02D0     		beq	.L129
 2668              	.L128:
 232:lvgl/src/lv_widgets/lv_img.c **** 
 2669              		.loc 1 232 53 is_stmt 1 discriminator 3 view .LVU811
 2670 0092 2846     		mov	r0, r5
 2671 0094 FFF7FEFF 		bl	lv_obj_refresh_ext_draw_pad
 2672              	.LVL241:
 2673              	.L129:
 234:lvgl/src/lv_widgets/lv_img.c **** }
 2674              		.loc 1 234 5 view .LVU812
 2675 0098 2846     		mov	r0, r5
 2676 009a FFF7FEFF 		bl	lv_obj_invalidate
 2677              	.LVL242:
ARM GAS  D:\Temp\ccdlqfAs.s 			page 82


 2678              	.L114:
 235:lvgl/src/lv_widgets/lv_img.c **** 
 2679              		.loc 1 235 1 is_stmt 0 view .LVU813
 2680 009e 07B0     		add	sp, sp, #28
 2681              	.LCFI22:
 2682              		.cfi_remember_state
 2683              		.cfi_def_cfa_offset 28
 2684              		@ sp needed
 2685 00a0 BDE8F083 		pop	{r4, r5, r6, r7, r8, r9, pc}
 2686              	.LVL243:
 2687              	.L132:
 2688              	.LCFI23:
 2689              		.cfi_restore_state
 166:lvgl/src/lv_widgets/lv_img.c ****         if(ext->src_type == LV_IMG_SRC_SYMBOL || ext->src_type == LV_IMG_SRC_FILE) {
 2690              		.loc 1 166 58 is_stmt 1 view .LVU814
 167:lvgl/src/lv_widgets/lv_img.c ****             lv_mem_free(ext->src);
 2691              		.loc 1 167 9 view .LVU815
 167:lvgl/src/lv_widgets/lv_img.c ****             lv_mem_free(ext->src);
 2692              		.loc 1 167 26 is_stmt 0 view .LVU816
 2693 00a4 037D     		ldrb	r3, [r0, #20]	@ zero_extendqisi2
 167:lvgl/src/lv_widgets/lv_img.c ****             lv_mem_free(ext->src);
 2694              		.loc 1 167 47 view .LVU817
 2695 00a6 03F00303 		and	r3, r3, #3
 2696 00aa 013B     		subs	r3, r3, #1
 2697 00ac DBB2     		uxtb	r3, r3
 167:lvgl/src/lv_widgets/lv_img.c ****             lv_mem_free(ext->src);
 2698              		.loc 1 167 11 view .LVU818
 2699 00ae 012B     		cmp	r3, #1
 2700 00b0 06D9     		bls	.L136
 2701              	.LVL244:
 2702              	.L118:
 170:lvgl/src/lv_widgets/lv_img.c ****         ext->src_type = LV_IMG_SRC_UNKNOWN;
 2703              		.loc 1 170 9 is_stmt 1 view .LVU819
 170:lvgl/src/lv_widgets/lv_img.c ****         ext->src_type = LV_IMG_SRC_UNKNOWN;
 2704              		.loc 1 170 23 is_stmt 0 view .LVU820
 2705 00b2 0023     		movs	r3, #0
 2706 00b4 2360     		str	r3, [r4]
 171:lvgl/src/lv_widgets/lv_img.c ****         return;
 2707              		.loc 1 171 9 is_stmt 1 view .LVU821
 171:lvgl/src/lv_widgets/lv_img.c ****         return;
 2708              		.loc 1 171 23 is_stmt 0 view .LVU822
 2709 00b6 237D     		ldrb	r3, [r4, #20]	@ zero_extendqisi2
 2710 00b8 43F00303 		orr	r3, r3, #3
 2711 00bc 2375     		strb	r3, [r4, #20]
 172:lvgl/src/lv_widgets/lv_img.c ****     }
 2712              		.loc 1 172 9 is_stmt 1 view .LVU823
 2713 00be EEE7     		b	.L114
 2714              	.LVL245:
 2715              	.L136:
 168:lvgl/src/lv_widgets/lv_img.c ****         }
 2716              		.loc 1 168 13 view .LVU824
 2717 00c0 0068     		ldr	r0, [r0]
 2718              	.LVL246:
 168:lvgl/src/lv_widgets/lv_img.c ****         }
 2719              		.loc 1 168 13 is_stmt 0 view .LVU825
 2720 00c2 FFF7FEFF 		bl	lv_mem_free
 2721              	.LVL247:
ARM GAS  D:\Temp\ccdlqfAs.s 			page 83


 2722 00c6 F4E7     		b	.L118
 2723              	.L133:
 184:lvgl/src/lv_widgets/lv_img.c ****         }
 2724              		.loc 1 184 13 is_stmt 1 view .LVU826
 2725 00c8 2068     		ldr	r0, [r4]
 2726 00ca FFF7FEFF 		bl	lv_mem_free
 2727              	.LVL248:
 2728 00ce BCE7     		b	.L121
 2729              	.L120:
 188:lvgl/src/lv_widgets/lv_img.c ****         /* If the new and the old src are the same then it was only a refresh.*/
 2730              		.loc 1 188 10 view .LVU827
 188:lvgl/src/lv_widgets/lv_img.c ****         /* If the new and the old src are the same then it was only a refresh.*/
 2731              		.loc 1 188 41 is_stmt 0 view .LVU828
 2732 00d0 7B1E     		subs	r3, r7, #1
 2733 00d2 DBB2     		uxtb	r3, r3
 188:lvgl/src/lv_widgets/lv_img.c ****         /* If the new and the old src are the same then it was only a refresh.*/
 2734              		.loc 1 188 12 view .LVU829
 2735 00d4 012B     		cmp	r3, #1
 2736 00d6 B9D8     		bhi	.L122
 190:lvgl/src/lv_widgets/lv_img.c ****             const void * old_src = NULL;
 2737              		.loc 1 190 9 is_stmt 1 view .LVU830
 190:lvgl/src/lv_widgets/lv_img.c ****             const void * old_src = NULL;
 2738              		.loc 1 190 15 is_stmt 0 view .LVU831
 2739 00d8 D4F80080 		ldr	r8, [r4]
 190:lvgl/src/lv_widgets/lv_img.c ****             const void * old_src = NULL;
 2740              		.loc 1 190 11 view .LVU832
 2741 00dc B045     		cmp	r8, r6
 2742 00de B5D0     		beq	.L122
 2743              	.LBB179:
 191:lvgl/src/lv_widgets/lv_img.c ****             /* If memory was allocated because of the previous `src_type` then save its pointer and
 2744              		.loc 1 191 13 is_stmt 1 view .LVU833
 2745              	.LVL249:
 195:lvgl/src/lv_widgets/lv_img.c ****                 old_src = ext->src;
 2746              		.loc 1 195 13 view .LVU834
 195:lvgl/src/lv_widgets/lv_img.c ****                 old_src = ext->src;
 2747              		.loc 1 195 30 is_stmt 0 view .LVU835
 2748 00e0 237D     		ldrb	r3, [r4, #20]	@ zero_extendqisi2
 195:lvgl/src/lv_widgets/lv_img.c ****                 old_src = ext->src;
 2749              		.loc 1 195 49 view .LVU836
 2750 00e2 03F00303 		and	r3, r3, #3
 2751 00e6 013B     		subs	r3, r3, #1
 2752 00e8 DBB2     		uxtb	r3, r3
 195:lvgl/src/lv_widgets/lv_img.c ****                 old_src = ext->src;
 2753              		.loc 1 195 15 view .LVU837
 2754 00ea 012B     		cmp	r3, #1
 2755 00ec 01D9     		bls	.L123
 191:lvgl/src/lv_widgets/lv_img.c ****             /* If memory was allocated because of the previous `src_type` then save its pointer and
 2756              		.loc 1 191 26 view .LVU838
 2757 00ee 4FF00008 		mov	r8, #0
 2758              	.L123:
 2759              	.LVL250:
 198:lvgl/src/lv_widgets/lv_img.c ****             LV_ASSERT_MEM(new_str);
 2760              		.loc 1 198 13 is_stmt 1 view .LVU839
 198:lvgl/src/lv_widgets/lv_img.c ****             LV_ASSERT_MEM(new_str);
 2761              		.loc 1 198 43 is_stmt 0 view .LVU840
 2762 00f2 3046     		mov	r0, r6
 2763 00f4 FFF7FEFF 		bl	strlen
ARM GAS  D:\Temp\ccdlqfAs.s 			page 84


 2764              	.LVL251:
 198:lvgl/src/lv_widgets/lv_img.c ****             LV_ASSERT_MEM(new_str);
 2765              		.loc 1 198 30 view .LVU841
 2766 00f8 0130     		adds	r0, r0, #1
 2767 00fa FFF7FEFF 		bl	lv_mem_alloc
 2768              	.LVL252:
 2769 00fe 8146     		mov	r9, r0
 2770              	.LVL253:
 199:lvgl/src/lv_widgets/lv_img.c ****             if(new_str == NULL) return;
 2771              		.loc 1 199 13 is_stmt 1 view .LVU842
 199:lvgl/src/lv_widgets/lv_img.c ****             if(new_str == NULL) return;
 2772              		.loc 1 199 13 view .LVU843
 2773 0100 FFF7FEFF 		bl	lv_debug_check_null
 2774              	.LVL254:
 199:lvgl/src/lv_widgets/lv_img.c ****             if(new_str == NULL) return;
 2775              		.loc 1 199 13 is_stmt 0 view .LVU844
 2776 0104 78B1     		cbz	r0, .L137
 199:lvgl/src/lv_widgets/lv_img.c ****             if(new_str == NULL) return;
 2777              		.loc 1 199 35 is_stmt 1 discriminator 2 view .LVU845
 200:lvgl/src/lv_widgets/lv_img.c ****             strcpy(new_str, src_img);
 2778              		.loc 1 200 13 discriminator 2 view .LVU846
 200:lvgl/src/lv_widgets/lv_img.c ****             strcpy(new_str, src_img);
 2779              		.loc 1 200 15 is_stmt 0 discriminator 2 view .LVU847
 2780 0106 B9F1000F 		cmp	r9, #0
 2781 010a C8D0     		beq	.L114
 201:lvgl/src/lv_widgets/lv_img.c ****             ext->src = new_str;
 2782              		.loc 1 201 13 is_stmt 1 view .LVU848
 2783 010c 3146     		mov	r1, r6
 2784 010e 4846     		mov	r0, r9
 2785 0110 FFF7FEFF 		bl	strcpy
 2786              	.LVL255:
 202:lvgl/src/lv_widgets/lv_img.c **** 
 2787              		.loc 1 202 13 view .LVU849
 202:lvgl/src/lv_widgets/lv_img.c **** 
 2788              		.loc 1 202 22 is_stmt 0 view .LVU850
 2789 0114 C4F80090 		str	r9, [r4]
 204:lvgl/src/lv_widgets/lv_img.c ****         }
 2790              		.loc 1 204 13 is_stmt 1 view .LVU851
 204:lvgl/src/lv_widgets/lv_img.c ****         }
 2791              		.loc 1 204 15 is_stmt 0 view .LVU852
 2792 0118 B8F1000F 		cmp	r8, #0
 2793 011c 96D0     		beq	.L122
 204:lvgl/src/lv_widgets/lv_img.c ****         }
 2794              		.loc 1 204 25 is_stmt 1 discriminator 1 view .LVU853
 2795 011e 4046     		mov	r0, r8
 2796 0120 FFF7FEFF 		bl	lv_mem_free
 2797              	.LVL256:
 2798 0124 92E7     		b	.L122
 2799              	.L137:
 199:lvgl/src/lv_widgets/lv_img.c ****             if(new_str == NULL) return;
 2800              		.loc 1 199 13 discriminator 1 view .LVU854
 199:lvgl/src/lv_widgets/lv_img.c ****             if(new_str == NULL) return;
 2801              		.loc 1 199 13 discriminator 1 view .LVU855
 2802 0126 4A46     		mov	r2, r9
 2803 0128 0023     		movs	r3, #0
 2804 012a 1E48     		ldr	r0, .L138+4
 2805 012c FFF7FEFF 		bl	lv_debug_log_error
ARM GAS  D:\Temp\ccdlqfAs.s 			page 85


 2806              	.LVL257:
 2807              	.L125:
 199:lvgl/src/lv_widgets/lv_img.c ****             if(new_str == NULL) return;
 2808              		.loc 1 199 13 discriminator 2 view .LVU856
 199:lvgl/src/lv_widgets/lv_img.c ****             if(new_str == NULL) return;
 2809              		.loc 1 199 13 discriminator 2 view .LVU857
 2810 0130 FEE7     		b	.L125
 2811              	.LVL258:
 2812              	.L134:
 199:lvgl/src/lv_widgets/lv_img.c ****             if(new_str == NULL) return;
 2813              		.loc 1 199 13 is_stmt 0 discriminator 2 view .LVU858
 2814              	.LBE179:
 2815              	.LBB180:
 210:lvgl/src/lv_widgets/lv_img.c ****         lv_style_int_t letter_space = lv_obj_get_style_text_letter_space(img, LV_IMG_PART_MAIN);
 2816              		.loc 1 210 9 is_stmt 1 view .LVU859
 2817              	.LBB181:
 2818              	.LBI181:
 168:lvgl/src/lv_widgets/../lv_core/lv_obj_style_dec.h **** _LV_OBJ_STYLE_SET_GET_DECLARE(LINE_WIDTH, line_width, lv_style_int_t, _int, scalar)
 2819              		.loc 2 168 1 view .LVU860
 2820              	.LBB182:
 168:lvgl/src/lv_widgets/../lv_core/lv_obj_style_dec.h **** _LV_OBJ_STYLE_SET_GET_DECLARE(LINE_WIDTH, line_width, lv_style_int_t, _int, scalar)
 2821              		.loc 2 168 1 view .LVU861
 2822 0132 48F28E02 		movw	r2, #32910
 2823 0136 0021     		movs	r1, #0
 2824 0138 2846     		mov	r0, r5
 2825 013a FFF7FEFF 		bl	_lv_obj_get_style_ptr
 2826              	.LVL259:
 2827 013e 8046     		mov	r8, r0
 2828              	.LVL260:
 168:lvgl/src/lv_widgets/../lv_core/lv_obj_style_dec.h **** _LV_OBJ_STYLE_SET_GET_DECLARE(LINE_WIDTH, line_width, lv_style_int_t, _int, scalar)
 2829              		.loc 2 168 1 is_stmt 0 view .LVU862
 2830              	.LBE182:
 2831              	.LBE181:
 211:lvgl/src/lv_widgets/lv_img.c ****         lv_style_int_t line_space = lv_obj_get_style_text_line_space(img, LV_IMG_PART_MAIN);
 2832              		.loc 1 211 9 is_stmt 1 view .LVU863
 2833              	.LBB183:
 2834              	.LBI183:
 160:lvgl/src/lv_widgets/../lv_core/lv_obj_style_dec.h **** _LV_OBJ_STYLE_SET_GET_DECLARE(TEXT_LINE_SPACE, text_line_space, lv_style_int_t, _int, scalar)
 2835              		.loc 2 160 1 view .LVU864
 2836              	.LBB184:
 160:lvgl/src/lv_widgets/../lv_core/lv_obj_style_dec.h **** _LV_OBJ_STYLE_SET_GET_DECLARE(TEXT_LINE_SPACE, text_line_space, lv_style_int_t, _int, scalar)
 2837              		.loc 2 160 1 view .LVU865
 2838 0140 48F28002 		movw	r2, #32896
 2839 0144 0021     		movs	r1, #0
 2840 0146 2846     		mov	r0, r5
 2841              	.LVL261:
 160:lvgl/src/lv_widgets/../lv_core/lv_obj_style_dec.h **** _LV_OBJ_STYLE_SET_GET_DECLARE(TEXT_LINE_SPACE, text_line_space, lv_style_int_t, _int, scalar)
 2842              		.loc 2 160 1 is_stmt 0 view .LVU866
 2843 0148 FFF7FEFF 		bl	_lv_obj_get_style_int
 2844              	.LVL262:
 2845 014c 8146     		mov	r9, r0
 2846              	.LVL263:
 160:lvgl/src/lv_widgets/../lv_core/lv_obj_style_dec.h **** _LV_OBJ_STYLE_SET_GET_DECLARE(TEXT_LINE_SPACE, text_line_space, lv_style_int_t, _int, scalar)
 2847              		.loc 2 160 1 view .LVU867
 2848              	.LBE184:
 2849              	.LBE183:
 212:lvgl/src/lv_widgets/lv_img.c ****         lv_point_t size;
ARM GAS  D:\Temp\ccdlqfAs.s 			page 86


 2850              		.loc 1 212 9 is_stmt 1 view .LVU868
 2851              	.LBB185:
 2852              	.LBI185:
 161:lvgl/src/lv_widgets/../lv_core/lv_obj_style_dec.h **** _LV_OBJ_STYLE_SET_GET_DECLARE(TEXT_DECOR, text_decor, lv_text_decor_t, _int, scalar)
 2853              		.loc 2 161 1 view .LVU869
 2854              	.LBB186:
 161:lvgl/src/lv_widgets/../lv_core/lv_obj_style_dec.h **** _LV_OBJ_STYLE_SET_GET_DECLARE(TEXT_DECOR, text_decor, lv_text_decor_t, _int, scalar)
 2855              		.loc 2 161 1 view .LVU870
 2856 014e 48F28102 		movw	r2, #32897
 2857 0152 0021     		movs	r1, #0
 2858 0154 2846     		mov	r0, r5
 2859 0156 FFF7FEFF 		bl	_lv_obj_get_style_int
 2860              	.LVL264:
 161:lvgl/src/lv_widgets/../lv_core/lv_obj_style_dec.h **** _LV_OBJ_STYLE_SET_GET_DECLARE(TEXT_DECOR, text_decor, lv_text_decor_t, _int, scalar)
 2861              		.loc 2 161 1 is_stmt 0 view .LVU871
 2862              	.LBE186:
 2863              	.LBE185:
 213:lvgl/src/lv_widgets/lv_img.c ****         _lv_txt_get_size(&size, src_img, font, letter_space, line_space,
 2864              		.loc 1 213 9 is_stmt 1 view .LVU872
 214:lvgl/src/lv_widgets/lv_img.c ****                          LV_COORD_MAX, LV_TXT_FLAG_NONE);
 2865              		.loc 1 214 9 view .LVU873
 2866 015a 0023     		movs	r3, #0
 2867 015c 0293     		str	r3, [sp, #8]
 2868 015e 47F61843 		movw	r3, #31768
 2869 0162 0193     		str	r3, [sp, #4]
 2870 0164 0090     		str	r0, [sp]
 2871 0166 4B46     		mov	r3, r9
 2872 0168 4246     		mov	r2, r8
 2873 016a 3146     		mov	r1, r6
 2874 016c 04A8     		add	r0, sp, #16
 2875              	.LVL265:
 214:lvgl/src/lv_widgets/lv_img.c ****                          LV_COORD_MAX, LV_TXT_FLAG_NONE);
 2876              		.loc 1 214 9 is_stmt 0 view .LVU874
 2877 016e FFF7FEFF 		bl	_lv_txt_get_size
 2878              	.LVL266:
 216:lvgl/src/lv_widgets/lv_img.c ****         header.h = size.y;
 2879              		.loc 1 216 9 is_stmt 1 view .LVU875
 216:lvgl/src/lv_widgets/lv_img.c ****         header.h = size.y;
 2880              		.loc 1 216 24 is_stmt 0 view .LVU876
 2881 0172 BDF81020 		ldrh	r2, [sp, #16]
 216:lvgl/src/lv_widgets/lv_img.c ****         header.h = size.y;
 2882              		.loc 1 216 18 view .LVU877
 2883 0176 059B     		ldr	r3, [sp, #20]
 2884 0178 62F39423 		bfi	r3, r2, #10, #11
 2885 017c 0593     		str	r3, [sp, #20]
 217:lvgl/src/lv_widgets/lv_img.c ****     }
 2886              		.loc 1 217 9 is_stmt 1 view .LVU878
 217:lvgl/src/lv_widgets/lv_img.c ****     }
 2887              		.loc 1 217 24 is_stmt 0 view .LVU879
 2888 017e BDF81220 		ldrh	r2, [sp, #18]
 217:lvgl/src/lv_widgets/lv_img.c ****     }
 2889              		.loc 1 217 18 view .LVU880
 2890 0182 C3F30F43 		ubfx	r3, r3, #16, #16
 2891 0186 62F34F13 		bfi	r3, r2, #5, #11
 2892 018a ADF81630 		strh	r3, [sp, #22]	@ movhi
 2893 018e 5FE7     		b	.L126
 2894              	.LVL267:
ARM GAS  D:\Temp\ccdlqfAs.s 			page 87


 2895              	.L135:
 217:lvgl/src/lv_widgets/lv_img.c ****     }
 2896              		.loc 1 217 18 view .LVU881
 2897              	.LBE180:
 228:lvgl/src/lv_widgets/lv_img.c ****     }
 2898              		.loc 1 228 9 is_stmt 1 view .LVU882
 2899 0190 B4F90A20 		ldrsh	r2, [r4, #10]
 2900 0194 B4F90810 		ldrsh	r1, [r4, #8]
 2901 0198 2846     		mov	r0, r5
 2902 019a FFF7FEFF 		bl	lv_obj_set_size
 2903              	.LVL268:
 2904 019e 72E7     		b	.L127
 2905              	.L139:
 2906              		.align	2
 2907              	.L138:
 2908 01a0 00000000 		.word	.LC0
 2909 01a4 00000000 		.word	.LC2
 2910              		.cfi_endproc
 2911              	.LFE459:
 2913              		.section	.text.lv_img_create,"ax",%progbits
 2914              		.align	1
 2915              		.global	lv_img_create
 2916              		.syntax unified
 2917              		.thumb
 2918              		.thumb_func
 2919              		.fpu fpv4-sp-d16
 2921              	lv_img_create:
 2922              	.LVL269:
 2923              	.LFB458:
  61:lvgl/src/lv_widgets/lv_img.c ****     LV_LOG_TRACE("image create started");
 2924              		.loc 1 61 1 view -0
 2925              		.cfi_startproc
 2926              		@ args = 0, pretend = 0, frame = 0
 2927              		@ frame_needed = 0, uses_anonymous_args = 0
  61:lvgl/src/lv_widgets/lv_img.c ****     LV_LOG_TRACE("image create started");
 2928              		.loc 1 61 1 is_stmt 0 view .LVU884
 2929 0000 2DE9F041 		push	{r4, r5, r6, r7, r8, lr}
 2930              	.LCFI24:
 2931              		.cfi_def_cfa_offset 24
 2932              		.cfi_offset 4, -24
 2933              		.cfi_offset 5, -20
 2934              		.cfi_offset 6, -16
 2935              		.cfi_offset 7, -12
 2936              		.cfi_offset 8, -8
 2937              		.cfi_offset 14, -4
 2938 0004 8046     		mov	r8, r0
 2939 0006 0F46     		mov	r7, r1
  62:lvgl/src/lv_widgets/lv_img.c **** 
 2940              		.loc 1 62 41 is_stmt 1 view .LVU885
  65:lvgl/src/lv_widgets/lv_img.c ****     LV_ASSERT_MEM(img);
 2941              		.loc 1 65 5 view .LVU886
  65:lvgl/src/lv_widgets/lv_img.c ****     LV_ASSERT_MEM(img);
 2942              		.loc 1 65 22 is_stmt 0 view .LVU887
 2943 0008 FFF7FEFF 		bl	lv_obj_create
 2944              	.LVL270:
  65:lvgl/src/lv_widgets/lv_img.c ****     LV_ASSERT_MEM(img);
 2945              		.loc 1 65 22 view .LVU888
ARM GAS  D:\Temp\ccdlqfAs.s 			page 88


 2946 000c 0546     		mov	r5, r0
 2947              	.LVL271:
  66:lvgl/src/lv_widgets/lv_img.c ****     if(img == NULL) return NULL;
 2948              		.loc 1 66 5 is_stmt 1 view .LVU889
  66:lvgl/src/lv_widgets/lv_img.c ****     if(img == NULL) return NULL;
 2949              		.loc 1 66 5 view .LVU890
 2950 000e FFF7FEFF 		bl	lv_debug_check_null
 2951              	.LVL272:
  66:lvgl/src/lv_widgets/lv_img.c ****     if(img == NULL) return NULL;
 2952              		.loc 1 66 5 is_stmt 0 view .LVU891
 2953 0012 0028     		cmp	r0, #0
 2954 0014 65D0     		beq	.L151
  66:lvgl/src/lv_widgets/lv_img.c ****     if(img == NULL) return NULL;
 2955              		.loc 1 66 23 is_stmt 1 discriminator 2 view .LVU892
  67:lvgl/src/lv_widgets/lv_img.c **** 
 2956              		.loc 1 67 5 discriminator 2 view .LVU893
  67:lvgl/src/lv_widgets/lv_img.c **** 
 2957              		.loc 1 67 7 is_stmt 0 discriminator 2 view .LVU894
 2958 0016 002D     		cmp	r5, #0
 2959 0018 60D0     		beq	.L140
  69:lvgl/src/lv_widgets/lv_img.c **** 
 2960              		.loc 1 69 5 is_stmt 1 view .LVU895
  69:lvgl/src/lv_widgets/lv_img.c **** 
 2961              		.loc 1 69 24 is_stmt 0 view .LVU896
 2962 001a 4A4B     		ldr	r3, .L156
 2963 001c 1B68     		ldr	r3, [r3]
  69:lvgl/src/lv_widgets/lv_img.c **** 
 2964              		.loc 1 69 7 view .LVU897
 2965 001e 002B     		cmp	r3, #0
 2966 0020 65D0     		beq	.L152
 2967              	.L144:
  72:lvgl/src/lv_widgets/lv_img.c ****     LV_ASSERT_MEM(ext);
 2968              		.loc 1 72 5 is_stmt 1 view .LVU898
  72:lvgl/src/lv_widgets/lv_img.c ****     LV_ASSERT_MEM(ext);
 2969              		.loc 1 72 26 is_stmt 0 view .LVU899
 2970 0022 1821     		movs	r1, #24
 2971 0024 2846     		mov	r0, r5
 2972 0026 FFF7FEFF 		bl	lv_obj_allocate_ext_attr
 2973              	.LVL273:
 2974 002a 0446     		mov	r4, r0
 2975              	.LVL274:
  73:lvgl/src/lv_widgets/lv_img.c ****     if(ext == NULL) {
 2976              		.loc 1 73 5 is_stmt 1 view .LVU900
  73:lvgl/src/lv_widgets/lv_img.c ****     if(ext == NULL) {
 2977              		.loc 1 73 5 view .LVU901
 2978 002c FFF7FEFF 		bl	lv_debug_check_null
 2979              	.LVL275:
  73:lvgl/src/lv_widgets/lv_img.c ****     if(ext == NULL) {
 2980              		.loc 1 73 5 is_stmt 0 view .LVU902
 2981 0030 0028     		cmp	r0, #0
 2982 0032 62D0     		beq	.L153
  73:lvgl/src/lv_widgets/lv_img.c ****     if(ext == NULL) {
 2983              		.loc 1 73 23 is_stmt 1 discriminator 2 view .LVU903
  74:lvgl/src/lv_widgets/lv_img.c ****         lv_obj_del(img);
 2984              		.loc 1 74 5 discriminator 2 view .LVU904
  74:lvgl/src/lv_widgets/lv_img.c ****         lv_obj_del(img);
 2985              		.loc 1 74 7 is_stmt 0 discriminator 2 view .LVU905
ARM GAS  D:\Temp\ccdlqfAs.s 			page 89


 2986 0034 002C     		cmp	r4, #0
 2987 0036 66D0     		beq	.L154
  79:lvgl/src/lv_widgets/lv_img.c ****     ext->src_type  = LV_IMG_SRC_UNKNOWN;
 2988              		.loc 1 79 5 is_stmt 1 view .LVU906
  79:lvgl/src/lv_widgets/lv_img.c ****     ext->src_type  = LV_IMG_SRC_UNKNOWN;
 2989              		.loc 1 79 20 is_stmt 0 view .LVU907
 2990 0038 0026     		movs	r6, #0
 2991 003a 2660     		str	r6, [r4]
  80:lvgl/src/lv_widgets/lv_img.c ****     ext->cf        = LV_IMG_CF_UNKNOWN;
 2992              		.loc 1 80 5 is_stmt 1 view .LVU908
  80:lvgl/src/lv_widgets/lv_img.c ****     ext->cf        = LV_IMG_CF_UNKNOWN;
 2993              		.loc 1 80 20 is_stmt 0 view .LVU909
 2994 003c 237D     		ldrb	r3, [r4, #20]	@ zero_extendqisi2
  81:lvgl/src/lv_widgets/lv_img.c ****     ext->w         = lv_obj_get_width(img);
 2995              		.loc 1 81 5 is_stmt 1 view .LVU910
  81:lvgl/src/lv_widgets/lv_img.c ****     ext->w         = lv_obj_get_width(img);
 2996              		.loc 1 81 20 is_stmt 0 view .LVU911
 2997 003e 43F00303 		orr	r3, r3, #3
 2998 0042 66F3C703 		bfi	r3, r6, #3, #5
 2999 0046 2375     		strb	r3, [r4, #20]
  82:lvgl/src/lv_widgets/lv_img.c ****     ext->h         = lv_obj_get_height(img);
 3000              		.loc 1 82 5 is_stmt 1 view .LVU912
  82:lvgl/src/lv_widgets/lv_img.c ****     ext->h         = lv_obj_get_height(img);
 3001              		.loc 1 82 22 is_stmt 0 view .LVU913
 3002 0048 2846     		mov	r0, r5
 3003 004a FFF7FEFF 		bl	lv_obj_get_width
 3004              	.LVL276:
  82:lvgl/src/lv_widgets/lv_img.c ****     ext->h         = lv_obj_get_height(img);
 3005              		.loc 1 82 20 view .LVU914
 3006 004e 2081     		strh	r0, [r4, #8]	@ movhi
  83:lvgl/src/lv_widgets/lv_img.c ****     ext->angle = 0;
 3007              		.loc 1 83 5 is_stmt 1 view .LVU915
  83:lvgl/src/lv_widgets/lv_img.c ****     ext->angle = 0;
 3008              		.loc 1 83 22 is_stmt 0 view .LVU916
 3009 0050 2846     		mov	r0, r5
 3010 0052 FFF7FEFF 		bl	lv_obj_get_height
 3011              	.LVL277:
  83:lvgl/src/lv_widgets/lv_img.c ****     ext->angle = 0;
 3012              		.loc 1 83 20 view .LVU917
 3013 0056 6081     		strh	r0, [r4, #10]	@ movhi
  84:lvgl/src/lv_widgets/lv_img.c ****     ext->zoom = LV_IMG_ZOOM_NONE;
 3014              		.loc 1 84 5 is_stmt 1 view .LVU918
  84:lvgl/src/lv_widgets/lv_img.c ****     ext->zoom = LV_IMG_ZOOM_NONE;
 3015              		.loc 1 84 16 is_stmt 0 view .LVU919
 3016 0058 A681     		strh	r6, [r4, #12]	@ movhi
  85:lvgl/src/lv_widgets/lv_img.c ****     ext->antialias = LV_ANTIALIAS ? 1 : 0;
 3017              		.loc 1 85 5 is_stmt 1 view .LVU920
  85:lvgl/src/lv_widgets/lv_img.c ****     ext->antialias = LV_ANTIALIAS ? 1 : 0;
 3018              		.loc 1 85 15 is_stmt 0 view .LVU921
 3019 005a 4FF48073 		mov	r3, #256
 3020 005e 6382     		strh	r3, [r4, #18]	@ movhi
  86:lvgl/src/lv_widgets/lv_img.c ****     ext->auto_size = 1;
 3021              		.loc 1 86 5 is_stmt 1 view .LVU922
  86:lvgl/src/lv_widgets/lv_img.c ****     ext->auto_size = 1;
 3022              		.loc 1 86 20 is_stmt 0 view .LVU923
 3023 0060 637D     		ldrb	r3, [r4, #21]	@ zero_extendqisi2
 3024 0062 43F00103 		orr	r3, r3, #1
ARM GAS  D:\Temp\ccdlqfAs.s 			page 90


 3025 0066 6375     		strb	r3, [r4, #21]
  87:lvgl/src/lv_widgets/lv_img.c ****     ext->offset.x  = 0;
 3026              		.loc 1 87 5 is_stmt 1 view .LVU924
  87:lvgl/src/lv_widgets/lv_img.c ****     ext->offset.x  = 0;
 3027              		.loc 1 87 20 is_stmt 0 view .LVU925
 3028 0068 237D     		ldrb	r3, [r4, #20]	@ zero_extendqisi2
 3029 006a 43F00403 		orr	r3, r3, #4
 3030 006e 2375     		strb	r3, [r4, #20]
  88:lvgl/src/lv_widgets/lv_img.c ****     ext->offset.y  = 0;
 3031              		.loc 1 88 5 is_stmt 1 view .LVU926
  88:lvgl/src/lv_widgets/lv_img.c ****     ext->offset.y  = 0;
 3032              		.loc 1 88 20 is_stmt 0 view .LVU927
 3033 0070 A680     		strh	r6, [r4, #4]	@ movhi
  89:lvgl/src/lv_widgets/lv_img.c ****     ext->pivot.x = 0;
 3034              		.loc 1 89 5 is_stmt 1 view .LVU928
  89:lvgl/src/lv_widgets/lv_img.c ****     ext->pivot.x = 0;
 3035              		.loc 1 89 20 is_stmt 0 view .LVU929
 3036 0072 E680     		strh	r6, [r4, #6]	@ movhi
  90:lvgl/src/lv_widgets/lv_img.c ****     ext->pivot.y = 0;
 3037              		.loc 1 90 5 is_stmt 1 view .LVU930
  90:lvgl/src/lv_widgets/lv_img.c ****     ext->pivot.y = 0;
 3038              		.loc 1 90 18 is_stmt 0 view .LVU931
 3039 0074 E681     		strh	r6, [r4, #14]	@ movhi
  91:lvgl/src/lv_widgets/lv_img.c **** 
 3040              		.loc 1 91 5 is_stmt 1 view .LVU932
  91:lvgl/src/lv_widgets/lv_img.c **** 
 3041              		.loc 1 91 18 is_stmt 0 view .LVU933
 3042 0076 2682     		strh	r6, [r4, #16]	@ movhi
  94:lvgl/src/lv_widgets/lv_img.c ****     lv_obj_set_design_cb(img, lv_img_design);
 3043              		.loc 1 94 5 is_stmt 1 view .LVU934
 3044 0078 3349     		ldr	r1, .L156+4
 3045 007a 2846     		mov	r0, r5
 3046 007c FFF7FEFF 		bl	lv_obj_set_signal_cb
 3047              	.LVL278:
  95:lvgl/src/lv_widgets/lv_img.c **** 
 3048              		.loc 1 95 5 view .LVU935
 3049 0080 3249     		ldr	r1, .L156+8
 3050 0082 2846     		mov	r0, r5
 3051 0084 FFF7FEFF 		bl	lv_obj_set_design_cb
 3052              	.LVL279:
  97:lvgl/src/lv_widgets/lv_img.c ****         lv_theme_apply(img, LV_THEME_IMAGE);
 3053              		.loc 1 97 5 view .LVU936
  97:lvgl/src/lv_widgets/lv_img.c ****         lv_theme_apply(img, LV_THEME_IMAGE);
 3054              		.loc 1 97 7 is_stmt 0 view .LVU937
 3055 0088 002F     		cmp	r7, #0
 3056 008a 41D0     		beq	.L155
 3057              	.LBB187:
 112:lvgl/src/lv_widgets/lv_img.c ****         ext->auto_size     = copy_ext->auto_size;
 3058              		.loc 1 112 9 is_stmt 1 view .LVU938
 112:lvgl/src/lv_widgets/lv_img.c ****         ext->auto_size     = copy_ext->auto_size;
 3059              		.loc 1 112 35 is_stmt 0 view .LVU939
 3060 008c 3846     		mov	r0, r7
 3061 008e FFF7FEFF 		bl	lv_obj_get_ext_attr
 3062              	.LVL280:
 113:lvgl/src/lv_widgets/lv_img.c ****         ext->zoom          = copy_ext->zoom;
 3063              		.loc 1 113 9 is_stmt 1 view .LVU940
 113:lvgl/src/lv_widgets/lv_img.c ****         ext->zoom          = copy_ext->zoom;
ARM GAS  D:\Temp\ccdlqfAs.s 			page 91


 3064              		.loc 1 113 38 is_stmt 0 view .LVU941
 3065 0092 037D     		ldrb	r3, [r0, #20]	@ zero_extendqisi2
 3066 0094 C3F38003 		ubfx	r3, r3, #2, #1
 113:lvgl/src/lv_widgets/lv_img.c ****         ext->zoom          = copy_ext->zoom;
 3067              		.loc 1 113 28 view .LVU942
 3068 0098 227D     		ldrb	r2, [r4, #20]	@ zero_extendqisi2
 3069 009a 63F38202 		bfi	r2, r3, #2, #1
 3070 009e 2275     		strb	r2, [r4, #20]
 114:lvgl/src/lv_widgets/lv_img.c ****         ext->angle         = copy_ext->angle;
 3071              		.loc 1 114 9 is_stmt 1 view .LVU943
 114:lvgl/src/lv_widgets/lv_img.c ****         ext->angle         = copy_ext->angle;
 3072              		.loc 1 114 38 is_stmt 0 view .LVU944
 3073 00a0 438A     		ldrh	r3, [r0, #18]
 114:lvgl/src/lv_widgets/lv_img.c ****         ext->angle         = copy_ext->angle;
 3074              		.loc 1 114 28 view .LVU945
 3075 00a2 6382     		strh	r3, [r4, #18]	@ movhi
 115:lvgl/src/lv_widgets/lv_img.c ****         ext->antialias     = copy_ext->antialias;
 3076              		.loc 1 115 9 is_stmt 1 view .LVU946
 115:lvgl/src/lv_widgets/lv_img.c ****         ext->antialias     = copy_ext->antialias;
 3077              		.loc 1 115 38 is_stmt 0 view .LVU947
 3078 00a4 8389     		ldrh	r3, [r0, #12]
 115:lvgl/src/lv_widgets/lv_img.c ****         ext->antialias     = copy_ext->antialias;
 3079              		.loc 1 115 28 view .LVU948
 3080 00a6 A381     		strh	r3, [r4, #12]	@ movhi
 116:lvgl/src/lv_widgets/lv_img.c ****         ext->offset.x     = copy_ext->offset.x;
 3081              		.loc 1 116 9 is_stmt 1 view .LVU949
 116:lvgl/src/lv_widgets/lv_img.c ****         ext->offset.x     = copy_ext->offset.x;
 3082              		.loc 1 116 38 is_stmt 0 view .LVU950
 3083 00a8 427D     		ldrb	r2, [r0, #21]	@ zero_extendqisi2
 116:lvgl/src/lv_widgets/lv_img.c ****         ext->offset.x     = copy_ext->offset.x;
 3084              		.loc 1 116 28 view .LVU951
 3085 00aa 637D     		ldrb	r3, [r4, #21]	@ zero_extendqisi2
 3086 00ac 62F30003 		bfi	r3, r2, #0, #1
 3087 00b0 6375     		strb	r3, [r4, #21]
 117:lvgl/src/lv_widgets/lv_img.c ****         ext->offset.y     = copy_ext->offset.y;
 3088              		.loc 1 117 9 is_stmt 1 view .LVU952
 117:lvgl/src/lv_widgets/lv_img.c ****         ext->offset.y     = copy_ext->offset.y;
 3089              		.loc 1 117 45 is_stmt 0 view .LVU953
 3090 00b2 B0F90430 		ldrsh	r3, [r0, #4]
 117:lvgl/src/lv_widgets/lv_img.c ****         ext->offset.y     = copy_ext->offset.y;
 3091              		.loc 1 117 27 view .LVU954
 3092 00b6 A380     		strh	r3, [r4, #4]	@ movhi
 118:lvgl/src/lv_widgets/lv_img.c ****         ext->pivot.x     = copy_ext->pivot.x;
 3093              		.loc 1 118 9 is_stmt 1 view .LVU955
 118:lvgl/src/lv_widgets/lv_img.c ****         ext->pivot.x     = copy_ext->pivot.x;
 3094              		.loc 1 118 45 is_stmt 0 view .LVU956
 3095 00b8 B0F90630 		ldrsh	r3, [r0, #6]
 118:lvgl/src/lv_widgets/lv_img.c ****         ext->pivot.x     = copy_ext->pivot.x;
 3096              		.loc 1 118 27 view .LVU957
 3097 00bc E380     		strh	r3, [r4, #6]	@ movhi
 119:lvgl/src/lv_widgets/lv_img.c ****         ext->pivot.y     = copy_ext->pivot.y;
 3098              		.loc 1 119 9 is_stmt 1 view .LVU958
 119:lvgl/src/lv_widgets/lv_img.c ****         ext->pivot.y     = copy_ext->pivot.y;
 3099              		.loc 1 119 43 is_stmt 0 view .LVU959
 3100 00be B0F90E30 		ldrsh	r3, [r0, #14]
 119:lvgl/src/lv_widgets/lv_img.c ****         ext->pivot.y     = copy_ext->pivot.y;
 3101              		.loc 1 119 26 view .LVU960
ARM GAS  D:\Temp\ccdlqfAs.s 			page 92


 3102 00c2 E381     		strh	r3, [r4, #14]	@ movhi
 120:lvgl/src/lv_widgets/lv_img.c ****         lv_img_set_src(img, copy_ext->src);
 3103              		.loc 1 120 9 is_stmt 1 view .LVU961
 120:lvgl/src/lv_widgets/lv_img.c ****         lv_img_set_src(img, copy_ext->src);
 3104              		.loc 1 120 43 is_stmt 0 view .LVU962
 3105 00c4 B0F91030 		ldrsh	r3, [r0, #16]
 120:lvgl/src/lv_widgets/lv_img.c ****         lv_img_set_src(img, copy_ext->src);
 3106              		.loc 1 120 26 view .LVU963
 3107 00c8 2382     		strh	r3, [r4, #16]	@ movhi
 121:lvgl/src/lv_widgets/lv_img.c **** 
 3108              		.loc 1 121 9 is_stmt 1 view .LVU964
 3109 00ca 0168     		ldr	r1, [r0]
 3110 00cc 2846     		mov	r0, r5
 3111              	.LVL281:
 121:lvgl/src/lv_widgets/lv_img.c **** 
 3112              		.loc 1 121 9 is_stmt 0 view .LVU965
 3113 00ce FFF7FEFF 		bl	lv_img_set_src
 3114              	.LVL282:
 124:lvgl/src/lv_widgets/lv_img.c ****     }
 3115              		.loc 1 124 9 is_stmt 1 view .LVU966
 3116 00d2 FF22     		movs	r2, #255
 3117 00d4 1146     		mov	r1, r2
 3118 00d6 2846     		mov	r0, r5
 3119 00d8 FFF7FEFF 		bl	lv_obj_refresh_style
 3120              	.LVL283:
 3121              	.L140:
 124:lvgl/src/lv_widgets/lv_img.c ****     }
 3122              		.loc 1 124 9 is_stmt 0 view .LVU967
 3123              	.LBE187:
 130:lvgl/src/lv_widgets/lv_img.c **** 
 3124              		.loc 1 130 1 view .LVU968
 3125 00dc 2846     		mov	r0, r5
 3126 00de BDE8F081 		pop	{r4, r5, r6, r7, r8, pc}
 3127              	.LVL284:
 3128              	.L151:
  66:lvgl/src/lv_widgets/lv_img.c ****     if(img == NULL) return NULL;
 3129              		.loc 1 66 5 is_stmt 1 discriminator 1 view .LVU969
  66:lvgl/src/lv_widgets/lv_img.c ****     if(img == NULL) return NULL;
 3130              		.loc 1 66 5 discriminator 1 view .LVU970
 3131 00e2 2A46     		mov	r2, r5
 3132 00e4 0023     		movs	r3, #0
 3133 00e6 1A48     		ldr	r0, .L156+12
 3134 00e8 FFF7FEFF 		bl	lv_debug_log_error
 3135              	.LVL285:
 3136              	.L142:
  66:lvgl/src/lv_widgets/lv_img.c ****     if(img == NULL) return NULL;
 3137              		.loc 1 66 5 discriminator 1 view .LVU971
  66:lvgl/src/lv_widgets/lv_img.c ****     if(img == NULL) return NULL;
 3138              		.loc 1 66 5 discriminator 1 view .LVU972
 3139 00ec FEE7     		b	.L142
 3140              	.L152:
  69:lvgl/src/lv_widgets/lv_img.c **** 
 3141              		.loc 1 69 33 discriminator 1 view .LVU973
  69:lvgl/src/lv_widgets/lv_img.c **** 
 3142              		.loc 1 69 51 is_stmt 0 discriminator 1 view .LVU974
 3143 00ee 2846     		mov	r0, r5
 3144 00f0 FFF7FEFF 		bl	lv_obj_get_signal_cb
ARM GAS  D:\Temp\ccdlqfAs.s 			page 93


 3145              	.LVL286:
  69:lvgl/src/lv_widgets/lv_img.c **** 
 3146              		.loc 1 69 49 discriminator 1 view .LVU975
 3147 00f4 134B     		ldr	r3, .L156
 3148 00f6 1860     		str	r0, [r3]
 3149 00f8 93E7     		b	.L144
 3150              	.LVL287:
 3151              	.L153:
  73:lvgl/src/lv_widgets/lv_img.c ****     if(ext == NULL) {
 3152              		.loc 1 73 5 is_stmt 1 discriminator 1 view .LVU976
  73:lvgl/src/lv_widgets/lv_img.c ****     if(ext == NULL) {
 3153              		.loc 1 73 5 discriminator 1 view .LVU977
 3154 00fa 2246     		mov	r2, r4
 3155 00fc 0023     		movs	r3, #0
 3156 00fe 1448     		ldr	r0, .L156+12
 3157 0100 FFF7FEFF 		bl	lv_debug_log_error
 3158              	.LVL288:
 3159              	.L146:
  73:lvgl/src/lv_widgets/lv_img.c ****     if(ext == NULL) {
 3160              		.loc 1 73 5 discriminator 2 view .LVU978
  73:lvgl/src/lv_widgets/lv_img.c ****     if(ext == NULL) {
 3161              		.loc 1 73 5 discriminator 2 view .LVU979
 3162 0104 FEE7     		b	.L146
 3163              	.L154:
  75:lvgl/src/lv_widgets/lv_img.c ****         return NULL;
 3164              		.loc 1 75 9 view .LVU980
 3165 0106 2846     		mov	r0, r5
 3166 0108 FFF7FEFF 		bl	lv_obj_del
 3167              	.LVL289:
  76:lvgl/src/lv_widgets/lv_img.c ****     }
 3168              		.loc 1 76 9 view .LVU981
  76:lvgl/src/lv_widgets/lv_img.c ****     }
 3169              		.loc 1 76 16 is_stmt 0 view .LVU982
 3170 010c 0025     		movs	r5, #0
 3171              	.LVL290:
  76:lvgl/src/lv_widgets/lv_img.c ****     }
 3172              		.loc 1 76 16 view .LVU983
 3173 010e E5E7     		b	.L140
 3174              	.LVL291:
 3175              	.L155:
  98:lvgl/src/lv_widgets/lv_img.c ****         lv_obj_set_click(img, false);
 3176              		.loc 1 98 9 is_stmt 1 view .LVU984
 3177 0110 0F21     		movs	r1, #15
 3178 0112 2846     		mov	r0, r5
 3179 0114 FFF7FEFF 		bl	lv_theme_apply
 3180              	.LVL292:
  99:lvgl/src/lv_widgets/lv_img.c ****         lv_obj_set_adv_hittest(img, true); /*Images have fast hit-testing*/
 3181              		.loc 1 99 9 view .LVU985
 3182 0118 3146     		mov	r1, r6
 3183 011a 2846     		mov	r0, r5
 3184 011c FFF7FEFF 		bl	lv_obj_set_click
 3185              	.LVL293:
 100:lvgl/src/lv_widgets/lv_img.c ****         /* Enable auto size for non screens
 3186              		.loc 1 100 9 view .LVU986
 3187 0120 0121     		movs	r1, #1
 3188 0122 2846     		mov	r0, r5
 3189 0124 FFF7FEFF 		bl	lv_obj_set_adv_hittest
ARM GAS  D:\Temp\ccdlqfAs.s 			page 94


 3190              	.LVL294:
 104:lvgl/src/lv_widgets/lv_img.c ****             ext->auto_size = 1;
 3191              		.loc 1 104 9 view .LVU987
 104:lvgl/src/lv_widgets/lv_img.c ****             ext->auto_size = 1;
 3192              		.loc 1 104 11 is_stmt 0 view .LVU988
 3193 0128 B8F1000F 		cmp	r8, #0
 3194 012c 04D0     		beq	.L149
 105:lvgl/src/lv_widgets/lv_img.c ****         }
 3195              		.loc 1 105 13 is_stmt 1 view .LVU989
 105:lvgl/src/lv_widgets/lv_img.c ****         }
 3196              		.loc 1 105 28 is_stmt 0 view .LVU990
 3197 012e 237D     		ldrb	r3, [r4, #20]	@ zero_extendqisi2
 3198 0130 43F00403 		orr	r3, r3, #4
 3199 0134 2375     		strb	r3, [r4, #20]
 3200 0136 D1E7     		b	.L140
 3201              	.L149:
 108:lvgl/src/lv_widgets/lv_img.c ****         }
 3202              		.loc 1 108 13 is_stmt 1 view .LVU991
 108:lvgl/src/lv_widgets/lv_img.c ****         }
 3203              		.loc 1 108 28 is_stmt 0 view .LVU992
 3204 0138 237D     		ldrb	r3, [r4, #20]	@ zero_extendqisi2
 3205 013a 6FF38203 		bfc	r3, #2, #1
 3206 013e 2375     		strb	r3, [r4, #20]
 3207 0140 CCE7     		b	.L140
 3208              	.L157:
 3209 0142 00BF     		.align	2
 3210              	.L156:
 3211 0144 00000000 		.word	.LANCHOR0
 3212 0148 00000000 		.word	lv_img_signal
 3213 014c 00000000 		.word	lv_img_design
 3214 0150 00000000 		.word	.LC2
 3215              		.cfi_endproc
 3216              	.LFE458:
 3218              		.section	.text.lv_img_signal,"ax",%progbits
 3219              		.align	1
 3220              		.syntax unified
 3221              		.thumb
 3222              		.thumb_func
 3223              		.fpu fpv4-sp-d16
 3225              	lv_img_signal:
 3226              	.LVL295:
 3227              	.LFB477:
 779:lvgl/src/lv_widgets/lv_img.c ****     lv_res_t res;
 3228              		.loc 1 779 1 is_stmt 1 view -0
 3229              		.cfi_startproc
 3230              		@ args = 0, pretend = 0, frame = 8
 3231              		@ frame_needed = 0, uses_anonymous_args = 0
 779:lvgl/src/lv_widgets/lv_img.c ****     lv_res_t res;
 3232              		.loc 1 779 1 is_stmt 0 view .LVU994
 3233 0000 2DE9F04F 		push	{r4, r5, r6, r7, r8, r9, r10, fp, lr}
 3234              	.LCFI25:
 3235              		.cfi_def_cfa_offset 36
 3236              		.cfi_offset 4, -36
 3237              		.cfi_offset 5, -32
 3238              		.cfi_offset 6, -28
 3239              		.cfi_offset 7, -24
 3240              		.cfi_offset 8, -20
ARM GAS  D:\Temp\ccdlqfAs.s 			page 95


 3241              		.cfi_offset 9, -16
 3242              		.cfi_offset 10, -12
 3243              		.cfi_offset 11, -8
 3244              		.cfi_offset 14, -4
 3245 0004 85B0     		sub	sp, sp, #20
 3246              	.LCFI26:
 3247              		.cfi_def_cfa_offset 56
 3248 0006 0646     		mov	r6, r0
 3249 0008 0C46     		mov	r4, r1
 3250 000a 1746     		mov	r7, r2
 780:lvgl/src/lv_widgets/lv_img.c ****     if(sign == LV_SIGNAL_GET_STYLE) {
 3251              		.loc 1 780 5 is_stmt 1 view .LVU995
 781:lvgl/src/lv_widgets/lv_img.c **** 
 3252              		.loc 1 781 5 view .LVU996
 781:lvgl/src/lv_widgets/lv_img.c **** 
 3253              		.loc 1 781 7 is_stmt 0 view .LVU997
 3254 000c 0829     		cmp	r1, #8
 3255 000e 20D0     		beq	.L171
 790:lvgl/src/lv_widgets/lv_img.c ****     if(res != LV_RES_OK) return res;
 3256              		.loc 1 790 5 is_stmt 1 view .LVU998
 790:lvgl/src/lv_widgets/lv_img.c ****     if(res != LV_RES_OK) return res;
 3257              		.loc 1 790 11 is_stmt 0 view .LVU999
 3258 0010 9A4B     		ldr	r3, .L178
 3259 0012 1B68     		ldr	r3, [r3]
 3260 0014 9847     		blx	r3
 3261              	.LVL296:
 790:lvgl/src/lv_widgets/lv_img.c ****     if(res != LV_RES_OK) return res;
 3262              		.loc 1 790 11 view .LVU1000
 3263 0016 0546     		mov	r5, r0
 3264              	.LVL297:
 791:lvgl/src/lv_widgets/lv_img.c **** 
 3265              		.loc 1 791 5 is_stmt 1 view .LVU1001
 791:lvgl/src/lv_widgets/lv_img.c **** 
 3266              		.loc 1 791 7 is_stmt 0 view .LVU1002
 3267 0018 0128     		cmp	r0, #1
 3268 001a 20D1     		bne	.L160
 793:lvgl/src/lv_widgets/lv_img.c **** 
 3269              		.loc 1 793 5 is_stmt 1 view .LVU1003
 793:lvgl/src/lv_widgets/lv_img.c **** 
 3270              		.loc 1 793 7 is_stmt 0 view .LVU1004
 3271 001c 072C     		cmp	r4, #7
 3272 001e 2AD0     		beq	.L172
 795:lvgl/src/lv_widgets/lv_img.c ****     if(sign == LV_SIGNAL_CLEANUP) {
 3273              		.loc 1 795 5 is_stmt 1 view .LVU1005
 795:lvgl/src/lv_widgets/lv_img.c ****     if(sign == LV_SIGNAL_CLEANUP) {
 3274              		.loc 1 795 26 is_stmt 0 view .LVU1006
 3275 0020 3046     		mov	r0, r6
 3276              	.LVL298:
 795:lvgl/src/lv_widgets/lv_img.c ****     if(sign == LV_SIGNAL_CLEANUP) {
 3277              		.loc 1 795 26 view .LVU1007
 3278 0022 FFF7FEFF 		bl	lv_obj_get_ext_attr
 3279              	.LVL299:
 3280 0026 8046     		mov	r8, r0
 3281              	.LVL300:
 796:lvgl/src/lv_widgets/lv_img.c ****         if(ext->src_type == LV_IMG_SRC_FILE || ext->src_type == LV_IMG_SRC_SYMBOL) {
 3282              		.loc 1 796 5 is_stmt 1 view .LVU1008
 796:lvgl/src/lv_widgets/lv_img.c ****         if(ext->src_type == LV_IMG_SRC_FILE || ext->src_type == LV_IMG_SRC_SYMBOL) {
ARM GAS  D:\Temp\ccdlqfAs.s 			page 96


 3283              		.loc 1 796 7 is_stmt 0 view .LVU1009
 3284 0028 5CBB     		cbnz	r4, .L162
 797:lvgl/src/lv_widgets/lv_img.c ****             lv_mem_free(ext->src);
 3285              		.loc 1 797 9 is_stmt 1 view .LVU1010
 797:lvgl/src/lv_widgets/lv_img.c ****             lv_mem_free(ext->src);
 3286              		.loc 1 797 26 is_stmt 0 view .LVU1011
 3287 002a 037D     		ldrb	r3, [r0, #20]	@ zero_extendqisi2
 797:lvgl/src/lv_widgets/lv_img.c ****             lv_mem_free(ext->src);
 3288              		.loc 1 797 45 view .LVU1012
 3289 002c 03F00303 		and	r3, r3, #3
 3290 0030 013B     		subs	r3, r3, #1
 3291 0032 DBB2     		uxtb	r3, r3
 797:lvgl/src/lv_widgets/lv_img.c ****             lv_mem_free(ext->src);
 3292              		.loc 1 797 11 view .LVU1013
 3293 0034 012B     		cmp	r3, #1
 3294 0036 12D8     		bhi	.L160
 798:lvgl/src/lv_widgets/lv_img.c ****             ext->src      = NULL;
 3295              		.loc 1 798 13 is_stmt 1 view .LVU1014
 3296 0038 0068     		ldr	r0, [r0]
 3297              	.LVL301:
 798:lvgl/src/lv_widgets/lv_img.c ****             ext->src      = NULL;
 3298              		.loc 1 798 13 is_stmt 0 view .LVU1015
 3299 003a FFF7FEFF 		bl	lv_mem_free
 3300              	.LVL302:
 799:lvgl/src/lv_widgets/lv_img.c ****             ext->src_type = LV_IMG_SRC_UNKNOWN;
 3301              		.loc 1 799 13 is_stmt 1 view .LVU1016
 799:lvgl/src/lv_widgets/lv_img.c ****             ext->src_type = LV_IMG_SRC_UNKNOWN;
 3302              		.loc 1 799 27 is_stmt 0 view .LVU1017
 3303 003e 0023     		movs	r3, #0
 3304 0040 C8F80030 		str	r3, [r8]
 800:lvgl/src/lv_widgets/lv_img.c ****         }
 3305              		.loc 1 800 13 is_stmt 1 view .LVU1018
 800:lvgl/src/lv_widgets/lv_img.c ****         }
 3306              		.loc 1 800 27 is_stmt 0 view .LVU1019
 3307 0044 98F81430 		ldrb	r3, [r8, #20]	@ zero_extendqisi2
 3308 0048 43F00303 		orr	r3, r3, #3
 3309 004c 88F81430 		strb	r3, [r8, #20]
 3310 0050 05E0     		b	.L160
 3311              	.LVL303:
 3312              	.L171:
 3313              	.LBB188:
 783:lvgl/src/lv_widgets/lv_img.c ****         info->result = lv_img_get_style(img, info->part);
 3314              		.loc 1 783 9 is_stmt 1 view .LVU1020
 784:lvgl/src/lv_widgets/lv_img.c ****         if(info->result != NULL) return LV_RES_OK;
 3315              		.loc 1 784 9 view .LVU1021
 784:lvgl/src/lv_widgets/lv_img.c ****         if(info->result != NULL) return LV_RES_OK;
 3316              		.loc 1 784 24 is_stmt 0 view .LVU1022
 3317 0052 1178     		ldrb	r1, [r2]	@ zero_extendqisi2
 3318              	.LVL304:
 784:lvgl/src/lv_widgets/lv_img.c ****         if(info->result != NULL) return LV_RES_OK;
 3319              		.loc 1 784 24 view .LVU1023
 3320 0054 FFF7FEFF 		bl	lv_img_get_style
 3321              	.LVL305:
 784:lvgl/src/lv_widgets/lv_img.c ****         if(info->result != NULL) return LV_RES_OK;
 3322              		.loc 1 784 22 view .LVU1024
 3323 0058 7860     		str	r0, [r7, #4]
 785:lvgl/src/lv_widgets/lv_img.c ****         else return ancestor_signal(img, sign, param);
ARM GAS  D:\Temp\ccdlqfAs.s 			page 97


 3324              		.loc 1 785 9 is_stmt 1 view .LVU1025
 785:lvgl/src/lv_widgets/lv_img.c ****         else return ancestor_signal(img, sign, param);
 3325              		.loc 1 785 11 is_stmt 0 view .LVU1026
 3326 005a 20B1     		cbz	r0, .L173
 785:lvgl/src/lv_widgets/lv_img.c ****         else return ancestor_signal(img, sign, param);
 3327              		.loc 1 785 41 view .LVU1027
 3328 005c 0125     		movs	r5, #1
 3329              	.LVL306:
 3330              	.L160:
 785:lvgl/src/lv_widgets/lv_img.c ****         else return ancestor_signal(img, sign, param);
 3331              		.loc 1 785 41 view .LVU1028
 3332              	.LBE188:
 871:lvgl/src/lv_widgets/lv_img.c **** 
 3333              		.loc 1 871 1 view .LVU1029
 3334 005e 2846     		mov	r0, r5
 3335 0060 05B0     		add	sp, sp, #20
 3336              	.LCFI27:
 3337              		.cfi_remember_state
 3338              		.cfi_def_cfa_offset 36
 3339              		@ sp needed
 3340 0062 BDE8F08F 		pop	{r4, r5, r6, r7, r8, r9, r10, fp, pc}
 3341              	.LVL307:
 3342              	.L173:
 3343              	.LCFI28:
 3344              		.cfi_restore_state
 3345              	.LBB189:
 786:lvgl/src/lv_widgets/lv_img.c ****     }
 3346              		.loc 1 786 14 is_stmt 1 view .LVU1030
 786:lvgl/src/lv_widgets/lv_img.c ****     }
 3347              		.loc 1 786 21 is_stmt 0 view .LVU1031
 3348 0066 854B     		ldr	r3, .L178
 3349 0068 1B68     		ldr	r3, [r3]
 3350 006a 3A46     		mov	r2, r7
 3351 006c 2146     		mov	r1, r4
 3352 006e 3046     		mov	r0, r6
 3353 0070 9847     		blx	r3
 3354              	.LVL308:
 3355 0072 0546     		mov	r5, r0
 3356 0074 F3E7     		b	.L160
 3357              	.LVL309:
 3358              	.L172:
 786:lvgl/src/lv_widgets/lv_img.c ****     }
 3359              		.loc 1 786 21 view .LVU1032
 3360              	.LBE189:
 793:lvgl/src/lv_widgets/lv_img.c **** 
 3361              		.loc 1 793 36 is_stmt 1 discriminator 1 view .LVU1033
 793:lvgl/src/lv_widgets/lv_img.c **** 
 3362              		.loc 1 793 43 is_stmt 0 discriminator 1 view .LVU1034
 3363 0076 8249     		ldr	r1, .L178+4
 3364 0078 3846     		mov	r0, r7
 3365              	.LVL310:
 793:lvgl/src/lv_widgets/lv_img.c **** 
 3366              		.loc 1 793 43 discriminator 1 view .LVU1035
 3367 007a FFF7FEFF 		bl	lv_obj_handle_get_type_signal
 3368              	.LVL311:
 3369 007e 0546     		mov	r5, r0
 3370 0080 EDE7     		b	.L160
ARM GAS  D:\Temp\ccdlqfAs.s 			page 98


 3371              	.LVL312:
 3372              	.L162:
 803:lvgl/src/lv_widgets/lv_img.c ****         /*Refresh the file name to refresh the symbol text size*/
 3373              		.loc 1 803 10 is_stmt 1 view .LVU1036
 803:lvgl/src/lv_widgets/lv_img.c ****         /*Refresh the file name to refresh the symbol text size*/
 3374              		.loc 1 803 12 is_stmt 0 view .LVU1037
 3375 0082 042C     		cmp	r4, #4
 3376 0084 27D0     		beq	.L174
 809:lvgl/src/lv_widgets/lv_img.c **** 
 3377              		.loc 1 809 10 is_stmt 1 view .LVU1038
 809:lvgl/src/lv_widgets/lv_img.c **** 
 3378              		.loc 1 809 12 is_stmt 0 view .LVU1039
 3379 0086 062C     		cmp	r4, #6
 3380 0088 2FD0     		beq	.L175
 842:lvgl/src/lv_widgets/lv_img.c ****         lv_hit_test_info_t * info = param;
 3381              		.loc 1 842 10 is_stmt 1 view .LVU1040
 842:lvgl/src/lv_widgets/lv_img.c ****         lv_hit_test_info_t * info = param;
 3382              		.loc 1 842 12 is_stmt 0 view .LVU1041
 3383 008a 0A2C     		cmp	r4, #10
 3384 008c E7D1     		bne	.L160
 3385              	.LBB190:
 843:lvgl/src/lv_widgets/lv_img.c ****         lv_style_int_t zoom = lv_obj_get_style_transform_zoom(img, LV_IMG_PART_MAIN);
 3386              		.loc 1 843 9 is_stmt 1 view .LVU1042
 3387              	.LVL313:
 844:lvgl/src/lv_widgets/lv_img.c ****         zoom = (zoom * ext->zoom) >> 8;
 3388              		.loc 1 844 9 view .LVU1043
 3389              	.LBB191:
 3390              	.LBI191:
 108:lvgl/src/lv_widgets/../lv_core/lv_obj_style_dec.h **** _LV_OBJ_STYLE_SET_GET_DECLARE(OPA_SCALE, opa_scale, lv_opa_t, _opa, scalar)
 3391              		.loc 2 108 1 view .LVU1044
 3392              	.LBB192:
 108:lvgl/src/lv_widgets/../lv_core/lv_obj_style_dec.h **** _LV_OBJ_STYLE_SET_GET_DECLARE(OPA_SCALE, opa_scale, lv_opa_t, _opa, scalar)
 3393              		.loc 2 108 1 view .LVU1045
 3394 008e 0722     		movs	r2, #7
 3395 0090 0021     		movs	r1, #0
 3396 0092 3046     		mov	r0, r6
 3397              	.LVL314:
 108:lvgl/src/lv_widgets/../lv_core/lv_obj_style_dec.h **** _LV_OBJ_STYLE_SET_GET_DECLARE(OPA_SCALE, opa_scale, lv_opa_t, _opa, scalar)
 3398              		.loc 2 108 1 is_stmt 0 view .LVU1046
 3399 0094 FFF7FEFF 		bl	_lv_obj_get_style_int
 3400              	.LVL315:
 108:lvgl/src/lv_widgets/../lv_core/lv_obj_style_dec.h **** _LV_OBJ_STYLE_SET_GET_DECLARE(OPA_SCALE, opa_scale, lv_opa_t, _opa, scalar)
 3401              		.loc 2 108 1 view .LVU1047
 3402              	.LBE192:
 3403              	.LBE191:
 845:lvgl/src/lv_widgets/lv_img.c **** 
 3404              		.loc 1 845 9 is_stmt 1 view .LVU1048
 845:lvgl/src/lv_widgets/lv_img.c **** 
 3405              		.loc 1 845 27 is_stmt 0 view .LVU1049
 3406 0098 B8F81230 		ldrh	r3, [r8, #18]
 845:lvgl/src/lv_widgets/lv_img.c **** 
 3407              		.loc 1 845 22 view .LVU1050
 3408 009c 03FB00F3 		mul	r3, r3, r0
 845:lvgl/src/lv_widgets/lv_img.c **** 
 3409              		.loc 1 845 35 view .LVU1051
 3410 00a0 1C12     		asrs	r4, r3, #8
 845:lvgl/src/lv_widgets/lv_img.c **** 
ARM GAS  D:\Temp\ccdlqfAs.s 			page 99


 3411              		.loc 1 845 14 view .LVU1052
 3412 00a2 0FFA84F9 		sxth	r9, r4
 3413              	.LVL316:
 847:lvgl/src/lv_widgets/lv_img.c ****         angle += ext->angle;
 3414              		.loc 1 847 9 is_stmt 1 view .LVU1053
 3415              	.LBB193:
 3416              	.LBI193:
 107:lvgl/src/lv_widgets/../lv_core/lv_obj_style_dec.h **** _LV_OBJ_STYLE_SET_GET_DECLARE(TRANSFORM_ZOOM, transform_zoom, lv_style_int_t, _int, scalar)
 3417              		.loc 2 107 1 view .LVU1054
 3418              	.LBB194:
 107:lvgl/src/lv_widgets/../lv_core/lv_obj_style_dec.h **** _LV_OBJ_STYLE_SET_GET_DECLARE(TRANSFORM_ZOOM, transform_zoom, lv_style_int_t, _int, scalar)
 3419              		.loc 2 107 1 view .LVU1055
 3420 00a6 0622     		movs	r2, #6
 3421 00a8 0021     		movs	r1, #0
 3422 00aa 3046     		mov	r0, r6
 3423 00ac FFF7FEFF 		bl	_lv_obj_get_style_int
 3424              	.LVL317:
 107:lvgl/src/lv_widgets/../lv_core/lv_obj_style_dec.h **** _LV_OBJ_STYLE_SET_GET_DECLARE(TRANSFORM_ZOOM, transform_zoom, lv_style_int_t, _int, scalar)
 3425              		.loc 2 107 1 is_stmt 0 view .LVU1056
 3426              	.LBE194:
 3427              	.LBE193:
 848:lvgl/src/lv_widgets/lv_img.c **** 
 3428              		.loc 1 848 9 is_stmt 1 view .LVU1057
 848:lvgl/src/lv_widgets/lv_img.c **** 
 3429              		.loc 1 848 21 is_stmt 0 view .LVU1058
 3430 00b0 B8F80C30 		ldrh	r3, [r8, #12]
 848:lvgl/src/lv_widgets/lv_img.c **** 
 3431              		.loc 1 848 15 view .LVU1059
 3432 00b4 0344     		add	r3, r3, r0
 3433 00b6 0FFA83FA 		sxth	r10, r3
 3434              	.LVL318:
 852:lvgl/src/lv_widgets/lv_img.c ****            (zoom != LV_IMG_ZOOM_NONE || angle != 0 || ext->pivot.x != ext->w / 2 || ext->pivot.y !=
 3435              		.loc 1 852 9 is_stmt 1 view .LVU1060
 852:lvgl/src/lv_widgets/lv_img.c ****            (zoom != LV_IMG_ZOOM_NONE || angle != 0 || ext->pivot.x != ext->w / 2 || ext->pivot.y !=
 3436              		.loc 1 852 15 is_stmt 0 view .LVU1061
 3437 00ba B8F908B0 		ldrsh	fp, [r8, #8]
 852:lvgl/src/lv_widgets/lv_img.c ****            (zoom != LV_IMG_ZOOM_NONE || angle != 0 || ext->pivot.x != ext->w / 2 || ext->pivot.y !=
 3438              		.loc 1 852 22 view .LVU1062
 3439 00be 3046     		mov	r0, r6
 3440 00c0 FFF7FEFF 		bl	lv_obj_get_width
 3441              	.LVL319:
 852:lvgl/src/lv_widgets/lv_img.c ****            (zoom != LV_IMG_ZOOM_NONE || angle != 0 || ext->pivot.x != ext->w / 2 || ext->pivot.y !=
 3442              		.loc 1 852 11 view .LVU1063
 3443 00c4 8345     		cmp	fp, r0
 3444 00c6 00F08980 		beq	.L176
 3445              	.L167:
 867:lvgl/src/lv_widgets/lv_img.c ****     }
 3446              		.loc 1 867 13 is_stmt 1 view .LVU1064
 867:lvgl/src/lv_widgets/lv_img.c ****     }
 3447              		.loc 1 867 28 is_stmt 0 view .LVU1065
 3448 00ca 3968     		ldr	r1, [r7]
 3449 00cc 3046     		mov	r0, r6
 3450 00ce FFF7FEFF 		bl	lv_obj_is_point_on_coords
 3451              	.LVL320:
 867:lvgl/src/lv_widgets/lv_img.c ****     }
 3452              		.loc 1 867 26 view .LVU1066
 3453 00d2 3871     		strb	r0, [r7, #4]
ARM GAS  D:\Temp\ccdlqfAs.s 			page 100


 3454 00d4 C3E7     		b	.L160
 3455              	.LVL321:
 3456              	.L174:
 867:lvgl/src/lv_widgets/lv_img.c ****     }
 3457              		.loc 1 867 26 view .LVU1067
 3458              	.LBE190:
 805:lvgl/src/lv_widgets/lv_img.c ****             lv_img_set_src(img, ext->src);
 3459              		.loc 1 805 9 is_stmt 1 view .LVU1068
 805:lvgl/src/lv_widgets/lv_img.c ****             lv_img_set_src(img, ext->src);
 3460              		.loc 1 805 26 is_stmt 0 view .LVU1069
 3461 00d6 037D     		ldrb	r3, [r0, #20]	@ zero_extendqisi2
 3462 00d8 03F00303 		and	r3, r3, #3
 805:lvgl/src/lv_widgets/lv_img.c ****             lv_img_set_src(img, ext->src);
 3463              		.loc 1 805 11 view .LVU1070
 3464 00dc 022B     		cmp	r3, #2
 3465 00de BED1     		bne	.L160
 806:lvgl/src/lv_widgets/lv_img.c ****         }
 3466              		.loc 1 806 13 is_stmt 1 view .LVU1071
 3467 00e0 0168     		ldr	r1, [r0]
 3468 00e2 3046     		mov	r0, r6
 3469              	.LVL322:
 806:lvgl/src/lv_widgets/lv_img.c ****         }
 3470              		.loc 1 806 13 is_stmt 0 view .LVU1072
 3471 00e4 FFF7FEFF 		bl	lv_img_set_src
 3472              	.LVL323:
 3473 00e8 B9E7     		b	.L160
 3474              	.LVL324:
 3475              	.L175:
 3476              	.LBB196:
 811:lvgl/src/lv_widgets/lv_img.c ****         transf_zoom = (transf_zoom * ext->zoom) >> 8;
 3477              		.loc 1 811 9 is_stmt 1 view .LVU1073
 3478              	.LBB197:
 3479              	.LBI197:
 108:lvgl/src/lv_widgets/../lv_core/lv_obj_style_dec.h **** _LV_OBJ_STYLE_SET_GET_DECLARE(OPA_SCALE, opa_scale, lv_opa_t, _opa, scalar)
 3480              		.loc 2 108 1 view .LVU1074
 3481              	.LBB198:
 108:lvgl/src/lv_widgets/../lv_core/lv_obj_style_dec.h **** _LV_OBJ_STYLE_SET_GET_DECLARE(OPA_SCALE, opa_scale, lv_opa_t, _opa, scalar)
 3482              		.loc 2 108 1 view .LVU1075
 3483 00ea 0722     		movs	r2, #7
 3484 00ec 0021     		movs	r1, #0
 3485 00ee 3046     		mov	r0, r6
 3486              	.LVL325:
 108:lvgl/src/lv_widgets/../lv_core/lv_obj_style_dec.h **** _LV_OBJ_STYLE_SET_GET_DECLARE(OPA_SCALE, opa_scale, lv_opa_t, _opa, scalar)
 3487              		.loc 2 108 1 is_stmt 0 view .LVU1076
 3488 00f0 FFF7FEFF 		bl	_lv_obj_get_style_int
 3489              	.LVL326:
 108:lvgl/src/lv_widgets/../lv_core/lv_obj_style_dec.h **** _LV_OBJ_STYLE_SET_GET_DECLARE(OPA_SCALE, opa_scale, lv_opa_t, _opa, scalar)
 3490              		.loc 2 108 1 view .LVU1077
 3491              	.LBE198:
 3492              	.LBE197:
 812:lvgl/src/lv_widgets/lv_img.c **** 
 3493              		.loc 1 812 9 is_stmt 1 view .LVU1078
 812:lvgl/src/lv_widgets/lv_img.c **** 
 3494              		.loc 1 812 41 is_stmt 0 view .LVU1079
 3495 00f4 B8F81240 		ldrh	r4, [r8, #18]
 812:lvgl/src/lv_widgets/lv_img.c **** 
 3496              		.loc 1 812 36 view .LVU1080
ARM GAS  D:\Temp\ccdlqfAs.s 			page 101


 3497 00f8 04FB00F4 		mul	r4, r4, r0
 812:lvgl/src/lv_widgets/lv_img.c **** 
 3498              		.loc 1 812 49 view .LVU1081
 3499 00fc 2412     		asrs	r4, r4, #8
 812:lvgl/src/lv_widgets/lv_img.c **** 
 3500              		.loc 1 812 21 view .LVU1082
 3501 00fe 27B2     		sxth	r7, r4
 3502              	.LVL327:
 814:lvgl/src/lv_widgets/lv_img.c ****         transf_angle += ext->angle;
 3503              		.loc 1 814 9 is_stmt 1 view .LVU1083
 3504              	.LBB199:
 3505              	.LBI199:
 107:lvgl/src/lv_widgets/../lv_core/lv_obj_style_dec.h **** _LV_OBJ_STYLE_SET_GET_DECLARE(TRANSFORM_ZOOM, transform_zoom, lv_style_int_t, _int, scalar)
 3506              		.loc 2 107 1 view .LVU1084
 3507              	.LBB200:
 107:lvgl/src/lv_widgets/../lv_core/lv_obj_style_dec.h **** _LV_OBJ_STYLE_SET_GET_DECLARE(TRANSFORM_ZOOM, transform_zoom, lv_style_int_t, _int, scalar)
 3508              		.loc 2 107 1 view .LVU1085
 3509 0100 0622     		movs	r2, #6
 3510 0102 0021     		movs	r1, #0
 3511 0104 3046     		mov	r0, r6
 3512 0106 FFF7FEFF 		bl	_lv_obj_get_style_int
 3513              	.LVL328:
 107:lvgl/src/lv_widgets/../lv_core/lv_obj_style_dec.h **** _LV_OBJ_STYLE_SET_GET_DECLARE(TRANSFORM_ZOOM, transform_zoom, lv_style_int_t, _int, scalar)
 3514              		.loc 2 107 1 is_stmt 0 view .LVU1086
 3515              	.LBE200:
 3516              	.LBE199:
 815:lvgl/src/lv_widgets/lv_img.c **** 
 3517              		.loc 1 815 9 is_stmt 1 view .LVU1087
 815:lvgl/src/lv_widgets/lv_img.c **** 
 3518              		.loc 1 815 28 is_stmt 0 view .LVU1088
 3519 010a B8F80CA0 		ldrh	r10, [r8, #12]
 815:lvgl/src/lv_widgets/lv_img.c **** 
 3520              		.loc 1 815 22 view .LVU1089
 3521 010e 8244     		add	r10, r10, r0
 3522 0110 0FFA8AFA 		sxth	r10, r10
 3523              	.LVL329:
 818:lvgl/src/lv_widgets/lv_img.c ****             lv_area_t a;
 3524              		.loc 1 818 9 is_stmt 1 view .LVU1090
 818:lvgl/src/lv_widgets/lv_img.c ****             lv_area_t a;
 3525              		.loc 1 818 11 is_stmt 0 view .LVU1091
 3526 0114 BAF1000F 		cmp	r10, #0
 3527 0118 02D1     		bne	.L165
 818:lvgl/src/lv_widgets/lv_img.c ****             lv_area_t a;
 3528              		.loc 1 818 25 discriminator 1 view .LVU1092
 3529 011a B7F5807F 		cmp	r7, #256
 3530 011e 33D0     		beq	.L166
 3531              	.L165:
 3532              	.LBB201:
 819:lvgl/src/lv_widgets/lv_img.c ****             lv_coord_t w = lv_obj_get_width(img);
 3533              		.loc 1 819 13 is_stmt 1 view .LVU1093
 820:lvgl/src/lv_widgets/lv_img.c ****             lv_coord_t h = lv_obj_get_height(img);
 3534              		.loc 1 820 13 view .LVU1094
 820:lvgl/src/lv_widgets/lv_img.c ****             lv_coord_t h = lv_obj_get_height(img);
 3535              		.loc 1 820 28 is_stmt 0 view .LVU1095
 3536 0120 3046     		mov	r0, r6
 3537 0122 FFF7FEFF 		bl	lv_obj_get_width
 3538              	.LVL330:
ARM GAS  D:\Temp\ccdlqfAs.s 			page 102


 3539 0126 8146     		mov	r9, r0
 3540              	.LVL331:
 821:lvgl/src/lv_widgets/lv_img.c ****             _lv_img_buf_get_transformed_area(&a, w, h, transf_angle, transf_zoom, &ext->pivot);
 3541              		.loc 1 821 13 is_stmt 1 view .LVU1096
 821:lvgl/src/lv_widgets/lv_img.c ****             _lv_img_buf_get_transformed_area(&a, w, h, transf_angle, transf_zoom, &ext->pivot);
 3542              		.loc 1 821 28 is_stmt 0 view .LVU1097
 3543 0128 3046     		mov	r0, r6
 3544 012a FFF7FEFF 		bl	lv_obj_get_height
 3545              	.LVL332:
 3546 012e 0746     		mov	r7, r0
 3547              	.LVL333:
 822:lvgl/src/lv_widgets/lv_img.c ****             lv_coord_t pad_ori = img->ext_draw_pad;
 3548              		.loc 1 822 13 is_stmt 1 view .LVU1098
 822:lvgl/src/lv_widgets/lv_img.c ****             lv_coord_t pad_ori = img->ext_draw_pad;
 3549              		.loc 1 822 83 is_stmt 0 view .LVU1099
 3550 0130 08F10E03 		add	r3, r8, #14
 822:lvgl/src/lv_widgets/lv_img.c ****             lv_coord_t pad_ori = img->ext_draw_pad;
 3551              		.loc 1 822 13 view .LVU1100
 3552 0134 0193     		str	r3, [sp, #4]
 3553 0136 A4B2     		uxth	r4, r4
 822:lvgl/src/lv_widgets/lv_img.c ****             lv_coord_t pad_ori = img->ext_draw_pad;
 3554              		.loc 1 822 13 view .LVU1101
 3555 0138 0094     		str	r4, [sp]
 3556 013a 5346     		mov	r3, r10
 3557 013c 0246     		mov	r2, r0
 3558 013e 4946     		mov	r1, r9
 3559 0140 02A8     		add	r0, sp, #8
 3560              	.LVL334:
 822:lvgl/src/lv_widgets/lv_img.c ****             lv_coord_t pad_ori = img->ext_draw_pad;
 3561              		.loc 1 822 13 view .LVU1102
 3562 0142 FFF7FEFF 		bl	_lv_img_buf_get_transformed_area
 3563              	.LVL335:
 823:lvgl/src/lv_widgets/lv_img.c ****             img->ext_draw_pad = LV_MATH_MAX(img->ext_draw_pad, pad_ori - a.x1);
 3564              		.loc 1 823 13 is_stmt 1 view .LVU1103
 823:lvgl/src/lv_widgets/lv_img.c ****             img->ext_draw_pad = LV_MATH_MAX(img->ext_draw_pad, pad_ori - a.x1);
 3565              		.loc 1 823 24 is_stmt 0 view .LVU1104
 3566 0146 B6F93230 		ldrsh	r3, [r6, #50]
 3567              	.LVL336:
 824:lvgl/src/lv_widgets/lv_img.c ****             img->ext_draw_pad = LV_MATH_MAX(img->ext_draw_pad, pad_ori - a.y1);
 3568              		.loc 1 824 13 is_stmt 1 view .LVU1105
 824:lvgl/src/lv_widgets/lv_img.c ****             img->ext_draw_pad = LV_MATH_MAX(img->ext_draw_pad, pad_ori - a.y1);
 3569              		.loc 1 824 33 is_stmt 0 view .LVU1106
 3570 014a BDF90820 		ldrsh	r2, [sp, #8]
 3571 014e 9A1A     		subs	r2, r3, r2
 3572 0150 9A42     		cmp	r2, r3
 3573 0152 B8BF     		it	lt
 3574 0154 1A46     		movlt	r2, r3
 824:lvgl/src/lv_widgets/lv_img.c ****             img->ext_draw_pad = LV_MATH_MAX(img->ext_draw_pad, pad_ori - a.y1);
 3575              		.loc 1 824 31 view .LVU1107
 3576 0156 10B2     		sxth	r0, r2
 825:lvgl/src/lv_widgets/lv_img.c ****             img->ext_draw_pad = LV_MATH_MAX(img->ext_draw_pad, pad_ori + a.x2 - w);
 3577              		.loc 1 825 13 is_stmt 1 view .LVU1108
 825:lvgl/src/lv_widgets/lv_img.c ****             img->ext_draw_pad = LV_MATH_MAX(img->ext_draw_pad, pad_ori + a.x2 - w);
 3578              		.loc 1 825 33 is_stmt 0 view .LVU1109
 3579 0158 BDF90A10 		ldrsh	r1, [sp, #10]
 3580 015c 5A1A     		subs	r2, r3, r1
 3581 015e 8242     		cmp	r2, r0
ARM GAS  D:\Temp\ccdlqfAs.s 			page 103


 3582 0160 B8BF     		it	lt
 3583 0162 0246     		movlt	r2, r0
 825:lvgl/src/lv_widgets/lv_img.c ****             img->ext_draw_pad = LV_MATH_MAX(img->ext_draw_pad, pad_ori + a.x2 - w);
 3584              		.loc 1 825 31 view .LVU1110
 3585 0164 10B2     		sxth	r0, r2
 826:lvgl/src/lv_widgets/lv_img.c ****             img->ext_draw_pad = LV_MATH_MAX(img->ext_draw_pad, pad_ori + a.y2 - h);
 3586              		.loc 1 826 13 is_stmt 1 view .LVU1111
 826:lvgl/src/lv_widgets/lv_img.c ****             img->ext_draw_pad = LV_MATH_MAX(img->ext_draw_pad, pad_ori + a.y2 - h);
 3587              		.loc 1 826 33 is_stmt 0 view .LVU1112
 3588 0166 BDF90C10 		ldrsh	r1, [sp, #12]
 3589 016a 1944     		add	r1, r1, r3
 3590 016c A1EB0902 		sub	r2, r1, r9
 3591 0170 8242     		cmp	r2, r0
 3592 0172 B8BF     		it	lt
 3593 0174 0246     		movlt	r2, r0
 826:lvgl/src/lv_widgets/lv_img.c ****             img->ext_draw_pad = LV_MATH_MAX(img->ext_draw_pad, pad_ori + a.y2 - h);
 3594              		.loc 1 826 31 view .LVU1113
 3595 0176 12B2     		sxth	r2, r2
 827:lvgl/src/lv_widgets/lv_img.c ****         }
 3596              		.loc 1 827 13 is_stmt 1 view .LVU1114
 827:lvgl/src/lv_widgets/lv_img.c ****         }
 3597              		.loc 1 827 33 is_stmt 0 view .LVU1115
 3598 0178 BDF90E10 		ldrsh	r1, [sp, #14]
 3599 017c 0B44     		add	r3, r3, r1
 3600              	.LVL337:
 827:lvgl/src/lv_widgets/lv_img.c ****         }
 3601              		.loc 1 827 33 view .LVU1116
 3602 017e DB1B     		subs	r3, r3, r7
 3603 0180 9342     		cmp	r3, r2
 3604 0182 B8BF     		it	lt
 3605 0184 1346     		movlt	r3, r2
 827:lvgl/src/lv_widgets/lv_img.c ****         }
 3606              		.loc 1 827 31 view .LVU1117
 3607 0186 7386     		strh	r3, [r6, #50]	@ movhi
 3608              	.LVL338:
 3609              	.L166:
 827:lvgl/src/lv_widgets/lv_img.c ****         }
 3610              		.loc 1 827 31 view .LVU1118
 3611              	.LBE201:
 831:lvgl/src/lv_widgets/lv_img.c ****         lv_style_int_t right = lv_obj_get_style_pad_right(img, LV_IMG_PART_MAIN);
 3612              		.loc 1 831 9 is_stmt 1 view .LVU1119
 3613              	.LBB202:
 3614              	.LBI202:
 112:lvgl/src/lv_widgets/../lv_core/lv_obj_style_dec.h **** _LV_OBJ_STYLE_SET_GET_DECLARE(PAD_RIGHT, pad_right, lv_style_int_t, _int, scalar)
 3615              		.loc 2 112 1 view .LVU1120
 3616              	.LBB203:
 112:lvgl/src/lv_widgets/../lv_core/lv_obj_style_dec.h **** _LV_OBJ_STYLE_SET_GET_DECLARE(PAD_RIGHT, pad_right, lv_style_int_t, _int, scalar)
 3617              		.loc 2 112 1 view .LVU1121
 3618 0188 1222     		movs	r2, #18
 3619 018a 0021     		movs	r1, #0
 3620 018c 3046     		mov	r0, r6
 3621 018e FFF7FEFF 		bl	_lv_obj_get_style_int
 3622              	.LVL339:
 3623 0192 8046     		mov	r8, r0
 3624              	.LVL340:
 112:lvgl/src/lv_widgets/../lv_core/lv_obj_style_dec.h **** _LV_OBJ_STYLE_SET_GET_DECLARE(PAD_RIGHT, pad_right, lv_style_int_t, _int, scalar)
 3625              		.loc 2 112 1 is_stmt 0 view .LVU1122
ARM GAS  D:\Temp\ccdlqfAs.s 			page 104


 3626              	.LBE203:
 3627              	.LBE202:
 832:lvgl/src/lv_widgets/lv_img.c ****         lv_style_int_t top = lv_obj_get_style_pad_top(img, LV_IMG_PART_MAIN);
 3628              		.loc 1 832 9 is_stmt 1 view .LVU1123
 3629              	.LBB204:
 3630              	.LBI204:
 113:lvgl/src/lv_widgets/../lv_core/lv_obj_style_dec.h **** _LV_OBJ_STYLE_SET_GET_DECLARE(PAD_INNER, pad_inner, lv_style_int_t, _int, scalar)
 3631              		.loc 2 113 1 view .LVU1124
 3632              	.LBB205:
 113:lvgl/src/lv_widgets/../lv_core/lv_obj_style_dec.h **** _LV_OBJ_STYLE_SET_GET_DECLARE(PAD_INNER, pad_inner, lv_style_int_t, _int, scalar)
 3633              		.loc 2 113 1 view .LVU1125
 3634 0194 1322     		movs	r2, #19
 3635 0196 0021     		movs	r1, #0
 3636 0198 3046     		mov	r0, r6
 3637 019a FFF7FEFF 		bl	_lv_obj_get_style_int
 3638              	.LVL341:
 3639 019e 0746     		mov	r7, r0
 3640              	.LVL342:
 113:lvgl/src/lv_widgets/../lv_core/lv_obj_style_dec.h **** _LV_OBJ_STYLE_SET_GET_DECLARE(PAD_INNER, pad_inner, lv_style_int_t, _int, scalar)
 3641              		.loc 2 113 1 is_stmt 0 view .LVU1126
 3642              	.LBE205:
 3643              	.LBE204:
 833:lvgl/src/lv_widgets/lv_img.c ****         lv_style_int_t bottom = lv_obj_get_style_pad_bottom(img, LV_IMG_PART_MAIN);
 3644              		.loc 1 833 9 is_stmt 1 view .LVU1127
 3645              	.LBB206:
 3646              	.LBI206:
 110:lvgl/src/lv_widgets/../lv_core/lv_obj_style_dec.h **** _LV_OBJ_STYLE_SET_GET_DECLARE(PAD_BOTTOM, pad_bottom, lv_style_int_t, _int, scalar)
 3647              		.loc 2 110 1 view .LVU1128
 3648              	.LBB207:
 110:lvgl/src/lv_widgets/../lv_core/lv_obj_style_dec.h **** _LV_OBJ_STYLE_SET_GET_DECLARE(PAD_BOTTOM, pad_bottom, lv_style_int_t, _int, scalar)
 3649              		.loc 2 110 1 view .LVU1129
 3650 01a0 1022     		movs	r2, #16
 3651 01a2 0021     		movs	r1, #0
 3652 01a4 3046     		mov	r0, r6
 3653 01a6 FFF7FEFF 		bl	_lv_obj_get_style_int
 3654              	.LVL343:
 3655 01aa 0446     		mov	r4, r0
 3656              	.LVL344:
 110:lvgl/src/lv_widgets/../lv_core/lv_obj_style_dec.h **** _LV_OBJ_STYLE_SET_GET_DECLARE(PAD_BOTTOM, pad_bottom, lv_style_int_t, _int, scalar)
 3657              		.loc 2 110 1 is_stmt 0 view .LVU1130
 3658              	.LBE207:
 3659              	.LBE206:
 834:lvgl/src/lv_widgets/lv_img.c **** 
 3660              		.loc 1 834 9 is_stmt 1 view .LVU1131
 3661              	.LBB208:
 3662              	.LBI208:
 111:lvgl/src/lv_widgets/../lv_core/lv_obj_style_dec.h **** _LV_OBJ_STYLE_SET_GET_DECLARE(PAD_LEFT, pad_left, lv_style_int_t, _int, scalar)
 3663              		.loc 2 111 1 view .LVU1132
 3664              	.LBB209:
 111:lvgl/src/lv_widgets/../lv_core/lv_obj_style_dec.h **** _LV_OBJ_STYLE_SET_GET_DECLARE(PAD_LEFT, pad_left, lv_style_int_t, _int, scalar)
 3665              		.loc 2 111 1 view .LVU1133
 3666 01ac 1122     		movs	r2, #17
 3667 01ae 0021     		movs	r1, #0
 3668 01b0 3046     		mov	r0, r6
 3669 01b2 FFF7FEFF 		bl	_lv_obj_get_style_int
 3670              	.LVL345:
 111:lvgl/src/lv_widgets/../lv_core/lv_obj_style_dec.h **** _LV_OBJ_STYLE_SET_GET_DECLARE(PAD_LEFT, pad_left, lv_style_int_t, _int, scalar)
ARM GAS  D:\Temp\ccdlqfAs.s 			page 105


 3671              		.loc 2 111 1 is_stmt 0 view .LVU1134
 3672              	.LBE209:
 3673              	.LBE208:
 836:lvgl/src/lv_widgets/lv_img.c ****         img->ext_draw_pad = LV_MATH_MAX(img->ext_draw_pad, right);
 3674              		.loc 1 836 9 is_stmt 1 view .LVU1135
 836:lvgl/src/lv_widgets/lv_img.c ****         img->ext_draw_pad = LV_MATH_MAX(img->ext_draw_pad, right);
 3675              		.loc 1 836 29 is_stmt 0 view .LVU1136
 3676 01b6 B6F93230 		ldrsh	r3, [r6, #50]
 3677 01ba 4345     		cmp	r3, r8
 3678 01bc B8BF     		it	lt
 3679 01be 4346     		movlt	r3, r8
 3680 01c0 1BB2     		sxth	r3, r3
 837:lvgl/src/lv_widgets/lv_img.c ****         img->ext_draw_pad = LV_MATH_MAX(img->ext_draw_pad, top);
 3681              		.loc 1 837 9 is_stmt 1 view .LVU1137
 837:lvgl/src/lv_widgets/lv_img.c ****         img->ext_draw_pad = LV_MATH_MAX(img->ext_draw_pad, top);
 3682              		.loc 1 837 29 is_stmt 0 view .LVU1138
 3683 01c2 BB42     		cmp	r3, r7
 3684 01c4 B8BF     		it	lt
 3685 01c6 3B46     		movlt	r3, r7
 3686 01c8 1BB2     		sxth	r3, r3
 838:lvgl/src/lv_widgets/lv_img.c ****         img->ext_draw_pad = LV_MATH_MAX(img->ext_draw_pad, bottom);
 3687              		.loc 1 838 9 is_stmt 1 view .LVU1139
 838:lvgl/src/lv_widgets/lv_img.c ****         img->ext_draw_pad = LV_MATH_MAX(img->ext_draw_pad, bottom);
 3688              		.loc 1 838 29 is_stmt 0 view .LVU1140
 3689 01ca A342     		cmp	r3, r4
 3690 01cc B8BF     		it	lt
 3691 01ce 2346     		movlt	r3, r4
 3692 01d0 1BB2     		sxth	r3, r3
 839:lvgl/src/lv_widgets/lv_img.c **** 
 3693              		.loc 1 839 9 is_stmt 1 view .LVU1141
 839:lvgl/src/lv_widgets/lv_img.c **** 
 3694              		.loc 1 839 29 is_stmt 0 view .LVU1142
 3695 01d2 9842     		cmp	r0, r3
 3696 01d4 B8BF     		it	lt
 3697 01d6 1846     		movlt	r0, r3
 3698              	.LVL346:
 839:lvgl/src/lv_widgets/lv_img.c **** 
 3699              		.loc 1 839 27 view .LVU1143
 3700 01d8 7086     		strh	r0, [r6, #50]	@ movhi
 3701              	.LBE196:
 3702 01da 40E7     		b	.L160
 3703              	.LVL347:
 3704              	.L176:
 3705              	.LBB210:
 852:lvgl/src/lv_widgets/lv_img.c ****            (zoom != LV_IMG_ZOOM_NONE || angle != 0 || ext->pivot.x != ext->w / 2 || ext->pivot.y !=
 3706              		.loc 1 852 50 discriminator 1 view .LVU1144
 3707 01dc B8F90AB0 		ldrsh	fp, [r8, #10]
 852:lvgl/src/lv_widgets/lv_img.c ****            (zoom != LV_IMG_ZOOM_NONE || angle != 0 || ext->pivot.x != ext->w / 2 || ext->pivot.y !=
 3708              		.loc 1 852 57 discriminator 1 view .LVU1145
 3709 01e0 3046     		mov	r0, r6
 3710 01e2 FFF7FEFF 		bl	lv_obj_get_height
 3711              	.LVL348:
 852:lvgl/src/lv_widgets/lv_img.c ****            (zoom != LV_IMG_ZOOM_NONE || angle != 0 || ext->pivot.x != ext->w / 2 || ext->pivot.y !=
 3712              		.loc 1 852 44 discriminator 1 view .LVU1146
 3713 01e6 8345     		cmp	fp, r0
 3714 01e8 7FF46FAF 		bne	.L167
 852:lvgl/src/lv_widgets/lv_img.c ****            (zoom != LV_IMG_ZOOM_NONE || angle != 0 || ext->pivot.x != ext->w / 2 || ext->pivot.y !=
ARM GAS  D:\Temp\ccdlqfAs.s 			page 106


 3715              		.loc 1 852 80 discriminator 2 view .LVU1147
 3716 01ec B9F5807F 		cmp	r9, #256
 3717 01f0 0BD1     		bne	.L168
 853:lvgl/src/lv_widgets/lv_img.c **** 
 3718              		.loc 1 853 38 view .LVU1148
 3719 01f2 BAF1000F 		cmp	r10, #0
 3720 01f6 08D1     		bne	.L168
 853:lvgl/src/lv_widgets/lv_img.c **** 
 3721              		.loc 1 853 65 discriminator 1 view .LVU1149
 3722 01f8 B8F90E20 		ldrsh	r2, [r8, #14]
 853:lvgl/src/lv_widgets/lv_img.c **** 
 3723              		.loc 1 853 74 discriminator 1 view .LVU1150
 3724 01fc B8F90830 		ldrsh	r3, [r8, #8]
 853:lvgl/src/lv_widgets/lv_img.c **** 
 3725              		.loc 1 853 68 discriminator 1 view .LVU1151
 3726 0200 03EBD373 		add	r3, r3, r3, lsr #31
 853:lvgl/src/lv_widgets/lv_img.c **** 
 3727              		.loc 1 853 52 discriminator 1 view .LVU1152
 3728 0204 B2EB630F 		cmp	r2, r3, asr #1
 3729 0208 2ED0     		beq	.L177
 3730              	.L168:
 3731              	.LBB195:
 855:lvgl/src/lv_widgets/lv_img.c ****             lv_coord_t h = lv_obj_get_height(img);
 3732              		.loc 1 855 13 is_stmt 1 view .LVU1153
 855:lvgl/src/lv_widgets/lv_img.c ****             lv_coord_t h = lv_obj_get_height(img);
 3733              		.loc 1 855 28 is_stmt 0 view .LVU1154
 3734 020a 3046     		mov	r0, r6
 3735 020c FFF7FEFF 		bl	lv_obj_get_width
 3736              	.LVL349:
 3737 0210 8146     		mov	r9, r0
 3738              	.LVL350:
 856:lvgl/src/lv_widgets/lv_img.c ****             lv_area_t coords;
 3739              		.loc 1 856 13 is_stmt 1 view .LVU1155
 856:lvgl/src/lv_widgets/lv_img.c ****             lv_area_t coords;
 3740              		.loc 1 856 28 is_stmt 0 view .LVU1156
 3741 0212 3046     		mov	r0, r6
 3742 0214 FFF7FEFF 		bl	lv_obj_get_height
 3743              	.LVL351:
 857:lvgl/src/lv_widgets/lv_img.c ****             _lv_img_buf_get_transformed_area(&coords, w, h, angle, zoom, &ext->pivot);
 3744              		.loc 1 857 13 is_stmt 1 view .LVU1157
 858:lvgl/src/lv_widgets/lv_img.c ****             coords.x1 += img->coords.x1;
 3745              		.loc 1 858 13 view .LVU1158
 858:lvgl/src/lv_widgets/lv_img.c ****             coords.x1 += img->coords.x1;
 3746              		.loc 1 858 74 is_stmt 0 view .LVU1159
 3747 0218 08F10E03 		add	r3, r8, #14
 858:lvgl/src/lv_widgets/lv_img.c ****             coords.x1 += img->coords.x1;
 3748              		.loc 1 858 13 view .LVU1160
 3749 021c 0193     		str	r3, [sp, #4]
 3750 021e A4B2     		uxth	r4, r4
 858:lvgl/src/lv_widgets/lv_img.c ****             coords.x1 += img->coords.x1;
 3751              		.loc 1 858 13 view .LVU1161
 3752 0220 0094     		str	r4, [sp]
 3753 0222 5346     		mov	r3, r10
 3754 0224 0246     		mov	r2, r0
 3755 0226 4946     		mov	r1, r9
 3756 0228 02A8     		add	r0, sp, #8
 3757              	.LVL352:
ARM GAS  D:\Temp\ccdlqfAs.s 			page 107


 858:lvgl/src/lv_widgets/lv_img.c ****             coords.x1 += img->coords.x1;
 3758              		.loc 1 858 13 view .LVU1162
 3759 022a FFF7FEFF 		bl	_lv_img_buf_get_transformed_area
 3760              	.LVL353:
 859:lvgl/src/lv_widgets/lv_img.c ****             coords.y1 += img->coords.y1;
 3761              		.loc 1 859 13 is_stmt 1 view .LVU1163
 859:lvgl/src/lv_widgets/lv_img.c ****             coords.y1 += img->coords.y1;
 3762              		.loc 1 859 37 is_stmt 0 view .LVU1164
 3763 022e 328A     		ldrh	r2, [r6, #16]
 859:lvgl/src/lv_widgets/lv_img.c ****             coords.y1 += img->coords.y1;
 3764              		.loc 1 859 23 view .LVU1165
 3765 0230 BDF80830 		ldrh	r3, [sp, #8]
 3766 0234 1344     		add	r3, r3, r2
 3767 0236 ADF80830 		strh	r3, [sp, #8]	@ movhi
 860:lvgl/src/lv_widgets/lv_img.c ****             coords.x2 += img->coords.x1;
 3768              		.loc 1 860 13 is_stmt 1 view .LVU1166
 860:lvgl/src/lv_widgets/lv_img.c ****             coords.x2 += img->coords.x1;
 3769              		.loc 1 860 37 is_stmt 0 view .LVU1167
 3770 023a 738A     		ldrh	r3, [r6, #18]
 860:lvgl/src/lv_widgets/lv_img.c ****             coords.x2 += img->coords.x1;
 3771              		.loc 1 860 23 view .LVU1168
 3772 023c BDF80A10 		ldrh	r1, [sp, #10]
 3773 0240 1944     		add	r1, r1, r3
 3774 0242 ADF80A10 		strh	r1, [sp, #10]	@ movhi
 861:lvgl/src/lv_widgets/lv_img.c ****             coords.y2 += img->coords.y1;
 3775              		.loc 1 861 13 is_stmt 1 view .LVU1169
 861:lvgl/src/lv_widgets/lv_img.c ****             coords.y2 += img->coords.y1;
 3776              		.loc 1 861 23 is_stmt 0 view .LVU1170
 3777 0246 BDF80C10 		ldrh	r1, [sp, #12]
 3778 024a 0A44     		add	r2, r2, r1
 3779 024c ADF80C20 		strh	r2, [sp, #12]	@ movhi
 862:lvgl/src/lv_widgets/lv_img.c **** 
 3780              		.loc 1 862 13 is_stmt 1 view .LVU1171
 862:lvgl/src/lv_widgets/lv_img.c **** 
 3781              		.loc 1 862 23 is_stmt 0 view .LVU1172
 3782 0250 BDF80E20 		ldrh	r2, [sp, #14]
 3783 0254 1344     		add	r3, r3, r2
 3784 0256 ADF80E30 		strh	r3, [sp, #14]	@ movhi
 864:lvgl/src/lv_widgets/lv_img.c ****         }
 3785              		.loc 1 864 13 is_stmt 1 view .LVU1173
 864:lvgl/src/lv_widgets/lv_img.c ****         }
 3786              		.loc 1 864 28 is_stmt 0 view .LVU1174
 3787 025a 0022     		movs	r2, #0
 3788 025c 3968     		ldr	r1, [r7]
 3789 025e 02A8     		add	r0, sp, #8
 3790 0260 FFF7FEFF 		bl	_lv_area_is_point_on
 3791              	.LVL354:
 864:lvgl/src/lv_widgets/lv_img.c ****         }
 3792              		.loc 1 864 26 view .LVU1175
 3793 0264 3871     		strb	r0, [r7, #4]
 3794              	.LBE195:
 853:lvgl/src/lv_widgets/lv_img.c **** 
 3795              		.loc 1 853 114 view .LVU1176
 3796 0266 FAE6     		b	.L160
 3797              	.LVL355:
 3798              	.L177:
 853:lvgl/src/lv_widgets/lv_img.c **** 
ARM GAS  D:\Temp\ccdlqfAs.s 			page 108


 3799              		.loc 1 853 95 discriminator 2 view .LVU1177
 3800 0268 B8F91020 		ldrsh	r2, [r8, #16]
 853:lvgl/src/lv_widgets/lv_img.c **** 
 3801              		.loc 1 853 104 discriminator 2 view .LVU1178
 3802 026c B8F90A30 		ldrsh	r3, [r8, #10]
 853:lvgl/src/lv_widgets/lv_img.c **** 
 3803              		.loc 1 853 98 discriminator 2 view .LVU1179
 3804 0270 03EBD373 		add	r3, r3, r3, lsr #31
 853:lvgl/src/lv_widgets/lv_img.c **** 
 3805              		.loc 1 853 82 discriminator 2 view .LVU1180
 3806 0274 B2EB630F 		cmp	r2, r3, asr #1
 3807 0278 C7D1     		bne	.L168
 3808 027a 26E7     		b	.L167
 3809              	.L179:
 3810              		.align	2
 3811              	.L178:
 3812 027c 00000000 		.word	.LANCHOR0
 3813 0280 00000000 		.word	.LC3
 3814              	.LBE210:
 3815              		.cfi_endproc
 3816              	.LFE477:
 3818              		.section	.text.lv_img_get_offset_x,"ax",%progbits
 3819              		.align	1
 3820              		.global	lv_img_get_offset_x
 3821              		.syntax unified
 3822              		.thumb
 3823              		.thumb_func
 3824              		.fpu fpv4-sp-d16
 3826              	lv_img_get_offset_x:
 3827              	.LVL356:
 3828              	.LFB470:
 479:lvgl/src/lv_widgets/lv_img.c ****     LV_ASSERT_OBJ(img, LV_OBJX_NAME);
 3829              		.loc 1 479 1 is_stmt 1 view -0
 3830              		.cfi_startproc
 3831              		@ args = 0, pretend = 0, frame = 0
 3832              		@ frame_needed = 0, uses_anonymous_args = 0
 479:lvgl/src/lv_widgets/lv_img.c ****     LV_ASSERT_OBJ(img, LV_OBJX_NAME);
 3833              		.loc 1 479 1 is_stmt 0 view .LVU1182
 3834 0000 10B5     		push	{r4, lr}
 3835              	.LCFI29:
 3836              		.cfi_def_cfa_offset 8
 3837              		.cfi_offset 4, -8
 3838              		.cfi_offset 14, -4
 3839 0002 0446     		mov	r4, r0
 480:lvgl/src/lv_widgets/lv_img.c **** 
 3840              		.loc 1 480 5 is_stmt 1 view .LVU1183
 480:lvgl/src/lv_widgets/lv_img.c **** 
 3841              		.loc 1 480 5 view .LVU1184
 3842 0004 FFF7FEFF 		bl	lv_debug_check_null
 3843              	.LVL357:
 480:lvgl/src/lv_widgets/lv_img.c **** 
 3844              		.loc 1 480 5 is_stmt 0 view .LVU1185
 3845 0008 28B9     		cbnz	r0, .L181
 480:lvgl/src/lv_widgets/lv_img.c **** 
 3846              		.loc 1 480 5 is_stmt 1 discriminator 1 view .LVU1186
 480:lvgl/src/lv_widgets/lv_img.c **** 
 3847              		.loc 1 480 5 discriminator 1 view .LVU1187
ARM GAS  D:\Temp\ccdlqfAs.s 			page 109


 3848 000a 2246     		mov	r2, r4
 3849 000c 0023     		movs	r3, #0
 3850 000e 0548     		ldr	r0, .L184
 3851 0010 FFF7FEFF 		bl	lv_debug_log_error
 3852              	.LVL358:
 3853              	.L182:
 480:lvgl/src/lv_widgets/lv_img.c **** 
 3854              		.loc 1 480 5 discriminator 1 view .LVU1188
 480:lvgl/src/lv_widgets/lv_img.c **** 
 3855              		.loc 1 480 5 discriminator 1 view .LVU1189
 3856 0014 FEE7     		b	.L182
 3857              	.L181:
 480:lvgl/src/lv_widgets/lv_img.c **** 
 3858              		.loc 1 480 37 discriminator 2 view .LVU1190
 482:lvgl/src/lv_widgets/lv_img.c **** 
 3859              		.loc 1 482 5 discriminator 2 view .LVU1191
 482:lvgl/src/lv_widgets/lv_img.c **** 
 3860              		.loc 1 482 26 is_stmt 0 discriminator 2 view .LVU1192
 3861 0016 2046     		mov	r0, r4
 3862 0018 FFF7FEFF 		bl	lv_obj_get_ext_attr
 3863              	.LVL359:
 484:lvgl/src/lv_widgets/lv_img.c **** }
 3864              		.loc 1 484 5 is_stmt 1 discriminator 2 view .LVU1193
 485:lvgl/src/lv_widgets/lv_img.c **** 
 3865              		.loc 1 485 1 is_stmt 0 discriminator 2 view .LVU1194
 3866 001c B0F90400 		ldrsh	r0, [r0, #4]
 3867              	.LVL360:
 485:lvgl/src/lv_widgets/lv_img.c **** 
 3868              		.loc 1 485 1 discriminator 2 view .LVU1195
 3869 0020 10BD     		pop	{r4, pc}
 3870              	.LVL361:
 3871              	.L185:
 485:lvgl/src/lv_widgets/lv_img.c **** 
 3872              		.loc 1 485 1 discriminator 2 view .LVU1196
 3873 0022 00BF     		.align	2
 3874              	.L184:
 3875 0024 00000000 		.word	.LC0
 3876              		.cfi_endproc
 3877              	.LFE470:
 3879              		.section	.text.lv_img_get_offset_y,"ax",%progbits
 3880              		.align	1
 3881              		.global	lv_img_get_offset_y
 3882              		.syntax unified
 3883              		.thumb
 3884              		.thumb_func
 3885              		.fpu fpv4-sp-d16
 3887              	lv_img_get_offset_y:
 3888              	.LVL362:
 3889              	.LFB471:
 493:lvgl/src/lv_widgets/lv_img.c ****     LV_ASSERT_OBJ(img, LV_OBJX_NAME);
 3890              		.loc 1 493 1 is_stmt 1 view -0
 3891              		.cfi_startproc
 3892              		@ args = 0, pretend = 0, frame = 0
 3893              		@ frame_needed = 0, uses_anonymous_args = 0
 493:lvgl/src/lv_widgets/lv_img.c ****     LV_ASSERT_OBJ(img, LV_OBJX_NAME);
 3894              		.loc 1 493 1 is_stmt 0 view .LVU1198
 3895 0000 10B5     		push	{r4, lr}
ARM GAS  D:\Temp\ccdlqfAs.s 			page 110


 3896              	.LCFI30:
 3897              		.cfi_def_cfa_offset 8
 3898              		.cfi_offset 4, -8
 3899              		.cfi_offset 14, -4
 3900 0002 0446     		mov	r4, r0
 494:lvgl/src/lv_widgets/lv_img.c **** 
 3901              		.loc 1 494 5 is_stmt 1 view .LVU1199
 494:lvgl/src/lv_widgets/lv_img.c **** 
 3902              		.loc 1 494 5 view .LVU1200
 3903 0004 FFF7FEFF 		bl	lv_debug_check_null
 3904              	.LVL363:
 494:lvgl/src/lv_widgets/lv_img.c **** 
 3905              		.loc 1 494 5 is_stmt 0 view .LVU1201
 3906 0008 28B9     		cbnz	r0, .L187
 494:lvgl/src/lv_widgets/lv_img.c **** 
 3907              		.loc 1 494 5 is_stmt 1 discriminator 1 view .LVU1202
 494:lvgl/src/lv_widgets/lv_img.c **** 
 3908              		.loc 1 494 5 discriminator 1 view .LVU1203
 3909 000a 2246     		mov	r2, r4
 3910 000c 0023     		movs	r3, #0
 3911 000e 0548     		ldr	r0, .L190
 3912 0010 FFF7FEFF 		bl	lv_debug_log_error
 3913              	.LVL364:
 3914              	.L188:
 494:lvgl/src/lv_widgets/lv_img.c **** 
 3915              		.loc 1 494 5 discriminator 1 view .LVU1204
 494:lvgl/src/lv_widgets/lv_img.c **** 
 3916              		.loc 1 494 5 discriminator 1 view .LVU1205
 3917 0014 FEE7     		b	.L188
 3918              	.L187:
 494:lvgl/src/lv_widgets/lv_img.c **** 
 3919              		.loc 1 494 37 discriminator 2 view .LVU1206
 496:lvgl/src/lv_widgets/lv_img.c **** 
 3920              		.loc 1 496 5 discriminator 2 view .LVU1207
 496:lvgl/src/lv_widgets/lv_img.c **** 
 3921              		.loc 1 496 26 is_stmt 0 discriminator 2 view .LVU1208
 3922 0016 2046     		mov	r0, r4
 3923 0018 FFF7FEFF 		bl	lv_obj_get_ext_attr
 3924              	.LVL365:
 498:lvgl/src/lv_widgets/lv_img.c **** }
 3925              		.loc 1 498 5 is_stmt 1 discriminator 2 view .LVU1209
 499:lvgl/src/lv_widgets/lv_img.c **** 
 3926              		.loc 1 499 1 is_stmt 0 discriminator 2 view .LVU1210
 3927 001c B0F90600 		ldrsh	r0, [r0, #6]
 3928              	.LVL366:
 499:lvgl/src/lv_widgets/lv_img.c **** 
 3929              		.loc 1 499 1 discriminator 2 view .LVU1211
 3930 0020 10BD     		pop	{r4, pc}
 3931              	.LVL367:
 3932              	.L191:
 499:lvgl/src/lv_widgets/lv_img.c **** 
 3933              		.loc 1 499 1 discriminator 2 view .LVU1212
 3934 0022 00BF     		.align	2
 3935              	.L190:
 3936 0024 00000000 		.word	.LC0
 3937              		.cfi_endproc
 3938              	.LFE471:
ARM GAS  D:\Temp\ccdlqfAs.s 			page 111


 3940              		.section	.text.lv_img_get_pivot,"ax",%progbits
 3941              		.align	1
 3942              		.global	lv_img_get_pivot
 3943              		.syntax unified
 3944              		.thumb
 3945              		.thumb_func
 3946              		.fpu fpv4-sp-d16
 3948              	lv_img_get_pivot:
 3949              	.LVL368:
 3950              	.LFB472:
 507:lvgl/src/lv_widgets/lv_img.c ****     LV_ASSERT_OBJ(img, LV_OBJX_NAME);
 3951              		.loc 1 507 1 is_stmt 1 view -0
 3952              		.cfi_startproc
 3953              		@ args = 0, pretend = 0, frame = 0
 3954              		@ frame_needed = 0, uses_anonymous_args = 0
 507:lvgl/src/lv_widgets/lv_img.c ****     LV_ASSERT_OBJ(img, LV_OBJX_NAME);
 3955              		.loc 1 507 1 is_stmt 0 view .LVU1214
 3956 0000 38B5     		push	{r3, r4, r5, lr}
 3957              	.LCFI31:
 3958              		.cfi_def_cfa_offset 16
 3959              		.cfi_offset 3, -16
 3960              		.cfi_offset 4, -12
 3961              		.cfi_offset 5, -8
 3962              		.cfi_offset 14, -4
 3963 0002 0446     		mov	r4, r0
 3964 0004 0D46     		mov	r5, r1
 508:lvgl/src/lv_widgets/lv_img.c **** 
 3965              		.loc 1 508 5 is_stmt 1 view .LVU1215
 508:lvgl/src/lv_widgets/lv_img.c **** 
 3966              		.loc 1 508 5 view .LVU1216
 3967 0006 FFF7FEFF 		bl	lv_debug_check_null
 3968              	.LVL369:
 508:lvgl/src/lv_widgets/lv_img.c **** 
 3969              		.loc 1 508 5 is_stmt 0 view .LVU1217
 3970 000a 28B9     		cbnz	r0, .L193
 508:lvgl/src/lv_widgets/lv_img.c **** 
 3971              		.loc 1 508 5 is_stmt 1 discriminator 1 view .LVU1218
 508:lvgl/src/lv_widgets/lv_img.c **** 
 3972              		.loc 1 508 5 discriminator 1 view .LVU1219
 3973 000c 2246     		mov	r2, r4
 3974 000e 0023     		movs	r3, #0
 3975 0010 0548     		ldr	r0, .L196
 3976 0012 FFF7FEFF 		bl	lv_debug_log_error
 3977              	.LVL370:
 3978              	.L194:
 508:lvgl/src/lv_widgets/lv_img.c **** 
 3979              		.loc 1 508 5 discriminator 1 view .LVU1220
 508:lvgl/src/lv_widgets/lv_img.c **** 
 3980              		.loc 1 508 5 discriminator 1 view .LVU1221
 3981 0016 FEE7     		b	.L194
 3982              	.L193:
 508:lvgl/src/lv_widgets/lv_img.c **** 
 3983              		.loc 1 508 37 discriminator 2 view .LVU1222
 510:lvgl/src/lv_widgets/lv_img.c **** 
 3984              		.loc 1 510 5 discriminator 2 view .LVU1223
 510:lvgl/src/lv_widgets/lv_img.c **** 
 3985              		.loc 1 510 26 is_stmt 0 discriminator 2 view .LVU1224
ARM GAS  D:\Temp\ccdlqfAs.s 			page 112


 3986 0018 2046     		mov	r0, r4
 3987 001a FFF7FEFF 		bl	lv_obj_get_ext_attr
 3988              	.LVL371:
 512:lvgl/src/lv_widgets/lv_img.c **** }
 3989              		.loc 1 512 5 is_stmt 1 discriminator 2 view .LVU1225
 512:lvgl/src/lv_widgets/lv_img.c **** }
 3990              		.loc 1 512 12 is_stmt 0 discriminator 2 view .LVU1226
 3991 001e D0F80E30 		ldr	r3, [r0, #14]	@ unaligned
 3992 0022 2B60     		str	r3, [r5]	@ unaligned
 513:lvgl/src/lv_widgets/lv_img.c **** 
 3993              		.loc 1 513 1 discriminator 2 view .LVU1227
 3994 0024 38BD     		pop	{r3, r4, r5, pc}
 3995              	.LVL372:
 3996              	.L197:
 513:lvgl/src/lv_widgets/lv_img.c **** 
 3997              		.loc 1 513 1 discriminator 2 view .LVU1228
 3998 0026 00BF     		.align	2
 3999              	.L196:
 4000 0028 00000000 		.word	.LC0
 4001              		.cfi_endproc
 4002              	.LFE472:
 4004              		.section	.text.lv_img_get_angle,"ax",%progbits
 4005              		.align	1
 4006              		.global	lv_img_get_angle
 4007              		.syntax unified
 4008              		.thumb
 4009              		.thumb_func
 4010              		.fpu fpv4-sp-d16
 4012              	lv_img_get_angle:
 4013              	.LVL373:
 4014              	.LFB473:
 521:lvgl/src/lv_widgets/lv_img.c ****     LV_ASSERT_OBJ(img, LV_OBJX_NAME);
 4015              		.loc 1 521 1 is_stmt 1 view -0
 4016              		.cfi_startproc
 4017              		@ args = 0, pretend = 0, frame = 0
 4018              		@ frame_needed = 0, uses_anonymous_args = 0
 521:lvgl/src/lv_widgets/lv_img.c ****     LV_ASSERT_OBJ(img, LV_OBJX_NAME);
 4019              		.loc 1 521 1 is_stmt 0 view .LVU1230
 4020 0000 10B5     		push	{r4, lr}
 4021              	.LCFI32:
 4022              		.cfi_def_cfa_offset 8
 4023              		.cfi_offset 4, -8
 4024              		.cfi_offset 14, -4
 4025 0002 0446     		mov	r4, r0
 522:lvgl/src/lv_widgets/lv_img.c **** 
 4026              		.loc 1 522 5 is_stmt 1 view .LVU1231
 522:lvgl/src/lv_widgets/lv_img.c **** 
 4027              		.loc 1 522 5 view .LVU1232
 4028 0004 FFF7FEFF 		bl	lv_debug_check_null
 4029              	.LVL374:
 522:lvgl/src/lv_widgets/lv_img.c **** 
 4030              		.loc 1 522 5 is_stmt 0 view .LVU1233
 4031 0008 28B9     		cbnz	r0, .L199
 522:lvgl/src/lv_widgets/lv_img.c **** 
 4032              		.loc 1 522 5 is_stmt 1 discriminator 1 view .LVU1234
 522:lvgl/src/lv_widgets/lv_img.c **** 
 4033              		.loc 1 522 5 discriminator 1 view .LVU1235
ARM GAS  D:\Temp\ccdlqfAs.s 			page 113


 4034 000a 2246     		mov	r2, r4
 4035 000c 0023     		movs	r3, #0
 4036 000e 0448     		ldr	r0, .L202
 4037 0010 FFF7FEFF 		bl	lv_debug_log_error
 4038              	.LVL375:
 4039              	.L200:
 522:lvgl/src/lv_widgets/lv_img.c **** 
 4040              		.loc 1 522 5 discriminator 1 view .LVU1236
 522:lvgl/src/lv_widgets/lv_img.c **** 
 4041              		.loc 1 522 5 discriminator 1 view .LVU1237
 4042 0014 FEE7     		b	.L200
 4043              	.L199:
 522:lvgl/src/lv_widgets/lv_img.c **** 
 4044              		.loc 1 522 37 discriminator 2 view .LVU1238
 524:lvgl/src/lv_widgets/lv_img.c **** 
 4045              		.loc 1 524 5 discriminator 2 view .LVU1239
 524:lvgl/src/lv_widgets/lv_img.c **** 
 4046              		.loc 1 524 26 is_stmt 0 discriminator 2 view .LVU1240
 4047 0016 2046     		mov	r0, r4
 4048 0018 FFF7FEFF 		bl	lv_obj_get_ext_attr
 4049              	.LVL376:
 526:lvgl/src/lv_widgets/lv_img.c **** }
 4050              		.loc 1 526 5 is_stmt 1 discriminator 2 view .LVU1241
 527:lvgl/src/lv_widgets/lv_img.c **** 
 4051              		.loc 1 527 1 is_stmt 0 discriminator 2 view .LVU1242
 4052 001c 8089     		ldrh	r0, [r0, #12]
 4053              	.LVL377:
 527:lvgl/src/lv_widgets/lv_img.c **** 
 4054              		.loc 1 527 1 discriminator 2 view .LVU1243
 4055 001e 10BD     		pop	{r4, pc}
 4056              	.LVL378:
 4057              	.L203:
 527:lvgl/src/lv_widgets/lv_img.c **** 
 4058              		.loc 1 527 1 discriminator 2 view .LVU1244
 4059              		.align	2
 4060              	.L202:
 4061 0020 00000000 		.word	.LC0
 4062              		.cfi_endproc
 4063              	.LFE473:
 4065              		.section	.text.lv_img_get_zoom,"ax",%progbits
 4066              		.align	1
 4067              		.global	lv_img_get_zoom
 4068              		.syntax unified
 4069              		.thumb
 4070              		.thumb_func
 4071              		.fpu fpv4-sp-d16
 4073              	lv_img_get_zoom:
 4074              	.LVL379:
 4075              	.LFB474:
 535:lvgl/src/lv_widgets/lv_img.c ****     LV_ASSERT_OBJ(img, LV_OBJX_NAME);
 4076              		.loc 1 535 1 is_stmt 1 view -0
 4077              		.cfi_startproc
 4078              		@ args = 0, pretend = 0, frame = 0
 4079              		@ frame_needed = 0, uses_anonymous_args = 0
 535:lvgl/src/lv_widgets/lv_img.c ****     LV_ASSERT_OBJ(img, LV_OBJX_NAME);
 4080              		.loc 1 535 1 is_stmt 0 view .LVU1246
 4081 0000 10B5     		push	{r4, lr}
ARM GAS  D:\Temp\ccdlqfAs.s 			page 114


 4082              	.LCFI33:
 4083              		.cfi_def_cfa_offset 8
 4084              		.cfi_offset 4, -8
 4085              		.cfi_offset 14, -4
 4086 0002 0446     		mov	r4, r0
 536:lvgl/src/lv_widgets/lv_img.c **** 
 4087              		.loc 1 536 5 is_stmt 1 view .LVU1247
 536:lvgl/src/lv_widgets/lv_img.c **** 
 4088              		.loc 1 536 5 view .LVU1248
 4089 0004 FFF7FEFF 		bl	lv_debug_check_null
 4090              	.LVL380:
 536:lvgl/src/lv_widgets/lv_img.c **** 
 4091              		.loc 1 536 5 is_stmt 0 view .LVU1249
 4092 0008 28B9     		cbnz	r0, .L205
 536:lvgl/src/lv_widgets/lv_img.c **** 
 4093              		.loc 1 536 5 is_stmt 1 discriminator 1 view .LVU1250
 536:lvgl/src/lv_widgets/lv_img.c **** 
 4094              		.loc 1 536 5 discriminator 1 view .LVU1251
 4095 000a 2246     		mov	r2, r4
 4096 000c 0023     		movs	r3, #0
 4097 000e 0448     		ldr	r0, .L208
 4098 0010 FFF7FEFF 		bl	lv_debug_log_error
 4099              	.LVL381:
 4100              	.L206:
 536:lvgl/src/lv_widgets/lv_img.c **** 
 4101              		.loc 1 536 5 discriminator 1 view .LVU1252
 536:lvgl/src/lv_widgets/lv_img.c **** 
 4102              		.loc 1 536 5 discriminator 1 view .LVU1253
 4103 0014 FEE7     		b	.L206
 4104              	.L205:
 536:lvgl/src/lv_widgets/lv_img.c **** 
 4105              		.loc 1 536 37 discriminator 2 view .LVU1254
 538:lvgl/src/lv_widgets/lv_img.c **** 
 4106              		.loc 1 538 5 discriminator 2 view .LVU1255
 538:lvgl/src/lv_widgets/lv_img.c **** 
 4107              		.loc 1 538 26 is_stmt 0 discriminator 2 view .LVU1256
 4108 0016 2046     		mov	r0, r4
 4109 0018 FFF7FEFF 		bl	lv_obj_get_ext_attr
 4110              	.LVL382:
 540:lvgl/src/lv_widgets/lv_img.c **** }
 4111              		.loc 1 540 5 is_stmt 1 discriminator 2 view .LVU1257
 541:lvgl/src/lv_widgets/lv_img.c **** 
 4112              		.loc 1 541 1 is_stmt 0 discriminator 2 view .LVU1258
 4113 001c 408A     		ldrh	r0, [r0, #18]
 4114              	.LVL383:
 541:lvgl/src/lv_widgets/lv_img.c **** 
 4115              		.loc 1 541 1 discriminator 2 view .LVU1259
 4116 001e 10BD     		pop	{r4, pc}
 4117              	.LVL384:
 4118              	.L209:
 541:lvgl/src/lv_widgets/lv_img.c **** 
 4119              		.loc 1 541 1 discriminator 2 view .LVU1260
 4120              		.align	2
 4121              	.L208:
 4122 0020 00000000 		.word	.LC0
 4123              		.cfi_endproc
 4124              	.LFE474:
ARM GAS  D:\Temp\ccdlqfAs.s 			page 115


 4126              		.section	.text.lv_img_get_antialias,"ax",%progbits
 4127              		.align	1
 4128              		.global	lv_img_get_antialias
 4129              		.syntax unified
 4130              		.thumb
 4131              		.thumb_func
 4132              		.fpu fpv4-sp-d16
 4134              	lv_img_get_antialias:
 4135              	.LVL385:
 4136              	.LFB475:
 549:lvgl/src/lv_widgets/lv_img.c ****     LV_ASSERT_OBJ(img, LV_OBJX_NAME);
 4137              		.loc 1 549 1 is_stmt 1 view -0
 4138              		.cfi_startproc
 4139              		@ args = 0, pretend = 0, frame = 0
 4140              		@ frame_needed = 0, uses_anonymous_args = 0
 549:lvgl/src/lv_widgets/lv_img.c ****     LV_ASSERT_OBJ(img, LV_OBJX_NAME);
 4141              		.loc 1 549 1 is_stmt 0 view .LVU1262
 4142 0000 10B5     		push	{r4, lr}
 4143              	.LCFI34:
 4144              		.cfi_def_cfa_offset 8
 4145              		.cfi_offset 4, -8
 4146              		.cfi_offset 14, -4
 4147 0002 0446     		mov	r4, r0
 550:lvgl/src/lv_widgets/lv_img.c **** 
 4148              		.loc 1 550 5 is_stmt 1 view .LVU1263
 550:lvgl/src/lv_widgets/lv_img.c **** 
 4149              		.loc 1 550 5 view .LVU1264
 4150 0004 FFF7FEFF 		bl	lv_debug_check_null
 4151              	.LVL386:
 550:lvgl/src/lv_widgets/lv_img.c **** 
 4152              		.loc 1 550 5 is_stmt 0 view .LVU1265
 4153 0008 28B9     		cbnz	r0, .L211
 550:lvgl/src/lv_widgets/lv_img.c **** 
 4154              		.loc 1 550 5 is_stmt 1 discriminator 1 view .LVU1266
 550:lvgl/src/lv_widgets/lv_img.c **** 
 4155              		.loc 1 550 5 discriminator 1 view .LVU1267
 4156 000a 2246     		mov	r2, r4
 4157 000c 0023     		movs	r3, #0
 4158 000e 0548     		ldr	r0, .L214
 4159 0010 FFF7FEFF 		bl	lv_debug_log_error
 4160              	.LVL387:
 4161              	.L212:
 550:lvgl/src/lv_widgets/lv_img.c **** 
 4162              		.loc 1 550 5 discriminator 1 view .LVU1268
 550:lvgl/src/lv_widgets/lv_img.c **** 
 4163              		.loc 1 550 5 discriminator 1 view .LVU1269
 4164 0014 FEE7     		b	.L212
 4165              	.L211:
 550:lvgl/src/lv_widgets/lv_img.c **** 
 4166              		.loc 1 550 37 discriminator 2 view .LVU1270
 552:lvgl/src/lv_widgets/lv_img.c **** 
 4167              		.loc 1 552 5 discriminator 2 view .LVU1271
 552:lvgl/src/lv_widgets/lv_img.c **** 
 4168              		.loc 1 552 26 is_stmt 0 discriminator 2 view .LVU1272
 4169 0016 2046     		mov	r0, r4
 4170 0018 FFF7FEFF 		bl	lv_obj_get_ext_attr
 4171              	.LVL388:
ARM GAS  D:\Temp\ccdlqfAs.s 			page 116


 554:lvgl/src/lv_widgets/lv_img.c **** }
 4172              		.loc 1 554 5 is_stmt 1 discriminator 2 view .LVU1273
 554:lvgl/src/lv_widgets/lv_img.c **** }
 4173              		.loc 1 554 27 is_stmt 0 discriminator 2 view .LVU1274
 4174 001c 407D     		ldrb	r0, [r0, #21]	@ zero_extendqisi2
 4175              	.LVL389:
 555:lvgl/src/lv_widgets/lv_img.c **** 
 4176              		.loc 1 555 1 discriminator 2 view .LVU1275
 4177 001e 00F00100 		and	r0, r0, #1
 4178 0022 10BD     		pop	{r4, pc}
 4179              	.LVL390:
 4180              	.L215:
 555:lvgl/src/lv_widgets/lv_img.c **** 
 4181              		.loc 1 555 1 discriminator 2 view .LVU1276
 4182              		.align	2
 4183              	.L214:
 4184 0024 00000000 		.word	.LC0
 4185              		.cfi_endproc
 4186              	.LFE475:
 4188              		.section	.bss.ancestor_signal,"aw",%nobits
 4189              		.align	2
 4190              		.set	.LANCHOR0,. + 0
 4193              	ancestor_signal:
 4194 0000 00000000 		.space	4
 4195              		.section	.rodata.lv_img_get_file_name.str1.4,"aMS",%progbits,1
 4196              		.align	2
 4197              	.LC1:
 4198 0000 00       		.ascii	"\000"
 4199              		.section	.rodata.lv_img_set_auto_size.str1.4,"aMS",%progbits,1
 4200              		.align	2
 4201              	.LC0:
 4202 0000 4E554C4C 		.ascii	"NULL pointer\000"
 4202      20706F69 
 4202      6E746572 
 4202      00
 4203              		.section	.rodata.lv_img_set_src.str1.4,"aMS",%progbits,1
 4204              		.align	2
 4205              	.LC2:
 4206 0000 4F757420 		.ascii	"Out of memory\000"
 4206      6F66206D 
 4206      656D6F72 
 4206      7900
 4207              		.section	.rodata.lv_img_signal.str1.4,"aMS",%progbits,1
 4208              		.align	2
 4209              	.LC3:
 4210 0000 6C765F69 		.ascii	"lv_img\000"
 4210      6D6700
 4211              		.text
 4212              	.Letext0:
 4213              		.file 4 "c:\\stm32\\gnu mcu eclipse\\arm embedded gcc\\8.2.1-1.4-20190214-0604\\arm-none-eabi\\inc
 4214              		.file 5 "c:\\stm32\\gnu mcu eclipse\\arm embedded gcc\\8.2.1-1.4-20190214-0604\\arm-none-eabi\\inc
 4215              		.file 6 "Drivers/CMSIS/Include/core_cm4.h"
 4216              		.file 7 "Drivers/CMSIS/Device/ST/STM32F4xx/Include/system_stm32f4xx.h"
 4217              		.file 8 "Drivers/STM32F4xx_HAL_Driver/Inc/stm32f4xx_hal.h"
 4218              		.file 9 "lvgl/lv_conf.h"
 4219              		.file 10 "c:\\stm32\\gnu mcu eclipse\\arm embedded gcc\\8.2.1-1.4-20190214-0604\\arm-none-eabi\\in
 4220              		.file 11 "c:\\stm32\\gnu mcu eclipse\\arm embedded gcc\\8.2.1-1.4-20190214-0604\\arm-none-eabi\\in
ARM GAS  D:\Temp\ccdlqfAs.s 			page 117


 4221              		.file 12 "c:\\stm32\\gnu mcu eclipse\\arm embedded gcc\\8.2.1-1.4-20190214-0604\\lib\\gcc\\arm-non
 4222              		.file 13 "c:\\stm32\\gnu mcu eclipse\\arm embedded gcc\\8.2.1-1.4-20190214-0604\\arm-none-eabi\\in
 4223              		.file 14 "d:\\_project\\stm32\\f407\\hack_rf_new\\lvgl\\src\\lv_misc\\lv_types.h"
 4224              		.file 15 "d:\\_project\\stm32\\f407\\hack_rf_new\\lvgl\\src\\lv_misc\\lv_mem.h"
 4225              		.file 16 "lvgl/src/lv_widgets/../lv_core/../lv_font/lv_font.h"
 4226              		.file 17 "lvgl/src/lv_widgets/../lv_core/../lv_misc/lv_math.h"
 4227              		.file 18 "lvgl/src/lv_widgets/../lv_core/../lv_misc/lv_color.h"
 4228              		.file 19 "lvgl/src/lv_widgets/../lv_core/../lv_misc/lv_anim.h"
 4229              		.file 20 "lvgl/src/lv_widgets/../lv_core/../lv_draw/lv_draw_mask.h"
 4230              		.file 21 "lvgl/src/lv_widgets/../lv_core/../lv_draw/lv_draw_blend.h"
 4231              		.file 22 "lvgl/src/lv_widgets/../lv_core/lv_style.h"
 4232              		.file 23 "lvgl/src/lv_widgets/../lv_core/../lv_hal/../lv_misc/lv_ll.h"
 4233              		.file 24 "lvgl/src/lv_widgets/../lv_core/lv_obj.h"
 4234              		.file 25 "lvgl/src/lv_widgets/../lv_core/../lv_hal/lv_hal_indev.h"
 4235              		.file 26 "lvgl/src/lv_widgets/../lv_core/../lv_draw/lv_draw_rect.h"
 4236              		.file 27 "d:\\_project\\stm32\\f407\\hack_rf_new\\lvgl\\src\\lv_misc\\lv_bidi.h"
 4237              		.file 28 "d:\\_project\\stm32\\f407\\hack_rf_new\\lvgl\\src\\lv_misc\\lv_txt.h"
 4238              		.file 29 "lvgl/src/lv_widgets/../lv_core/../lv_draw/lv_draw_label.h"
 4239              		.file 30 "lvgl/src/lv_widgets/../lv_core/../lv_draw/lv_img_buf.h"
 4240              		.file 31 "lvgl/src/lv_widgets/../lv_core/../lv_draw/lv_img_decoder.h"
 4241              		.file 32 "lvgl/src/lv_widgets/../lv_core/../lv_draw/lv_draw_img.h"
 4242              		.file 33 "lvgl/src/lv_widgets/lv_img.h"
 4243              		.file 34 "lvgl/src/lv_widgets/../lv_themes/lv_theme.h"
 4244              		.file 35 "lvgl/src/lv_widgets/../lv_core/../lv_misc/lv_debug.h"
 4245              		.file 36 "c:\\stm32\\gnu mcu eclipse\\arm embedded gcc\\8.2.1-1.4-20190214-0604\\arm-none-eabi\\in
ARM GAS  D:\Temp\ccdlqfAs.s 			page 118


DEFINED SYMBOLS
                            *ABS*:0000000000000000 lv_img.c
  D:\Temp\ccdlqfAs.s:18     .text.lv_img_get_style:0000000000000000 $t
  D:\Temp\ccdlqfAs.s:25     .text.lv_img_get_style:0000000000000000 lv_img_get_style
  D:\Temp\ccdlqfAs.s:55     .text.lv_img_design:0000000000000000 $t
  D:\Temp\ccdlqfAs.s:61     .text.lv_img_design:0000000000000000 lv_img_design
  D:\Temp\ccdlqfAs.s:1357   .text.lv_img_set_auto_size:0000000000000000 $t
  D:\Temp\ccdlqfAs.s:1364   .text.lv_img_set_auto_size:0000000000000000 lv_img_set_auto_size
  D:\Temp\ccdlqfAs.s:1425   .text.lv_img_set_auto_size:0000000000000030 $d
  D:\Temp\ccdlqfAs.s:1430   .text.lv_img_set_offset_x:0000000000000000 $t
  D:\Temp\ccdlqfAs.s:1437   .text.lv_img_set_offset_x:0000000000000000 lv_img_set_offset_x
  D:\Temp\ccdlqfAs.s:1501   .text.lv_img_set_offset_x:0000000000000034 $d
  D:\Temp\ccdlqfAs.s:1506   .text.lv_img_set_offset_y:0000000000000000 $t
  D:\Temp\ccdlqfAs.s:1513   .text.lv_img_set_offset_y:0000000000000000 lv_img_set_offset_y
  D:\Temp\ccdlqfAs.s:1577   .text.lv_img_set_offset_y:0000000000000034 $d
  D:\Temp\ccdlqfAs.s:1582   .text.lv_img_set_pivot:0000000000000000 $t
  D:\Temp\ccdlqfAs.s:1589   .text.lv_img_set_pivot:0000000000000000 lv_img_set_pivot
  D:\Temp\ccdlqfAs.s:1800   .text.lv_img_set_angle:0000000000000000 $t
  D:\Temp\ccdlqfAs.s:1807   .text.lv_img_set_angle:0000000000000000 lv_img_set_angle
  D:\Temp\ccdlqfAs.s:2034   .text.lv_img_set_angle:0000000000000114 $d
  D:\Temp\ccdlqfAs.s:2039   .text.lv_img_set_zoom:0000000000000000 $t
  D:\Temp\ccdlqfAs.s:2046   .text.lv_img_set_zoom:0000000000000000 lv_img_set_zoom
  D:\Temp\ccdlqfAs.s:2263   .text.lv_img_set_antialias:0000000000000000 $t
  D:\Temp\ccdlqfAs.s:2270   .text.lv_img_set_antialias:0000000000000000 lv_img_set_antialias
  D:\Temp\ccdlqfAs.s:2319   .text.lv_img_get_src:0000000000000000 $t
  D:\Temp\ccdlqfAs.s:2326   .text.lv_img_get_src:0000000000000000 lv_img_get_src
  D:\Temp\ccdlqfAs.s:2375   .text.lv_img_get_src:0000000000000020 $d
  D:\Temp\ccdlqfAs.s:2380   .text.lv_img_get_file_name:0000000000000000 $t
  D:\Temp\ccdlqfAs.s:2387   .text.lv_img_get_file_name:0000000000000000 lv_img_get_file_name
  D:\Temp\ccdlqfAs.s:2449   .text.lv_img_get_file_name:0000000000000030 $d
  D:\Temp\ccdlqfAs.s:2455   .text.lv_img_get_auto_size:0000000000000000 $t
  D:\Temp\ccdlqfAs.s:2462   .text.lv_img_get_auto_size:0000000000000000 lv_img_get_auto_size
  D:\Temp\ccdlqfAs.s:2512   .text.lv_img_get_auto_size:0000000000000024 $d
  D:\Temp\ccdlqfAs.s:2517   .text.lv_img_set_src:0000000000000000 $t
  D:\Temp\ccdlqfAs.s:2524   .text.lv_img_set_src:0000000000000000 lv_img_set_src
  D:\Temp\ccdlqfAs.s:2908   .text.lv_img_set_src:00000000000001a0 $d
  D:\Temp\ccdlqfAs.s:2914   .text.lv_img_create:0000000000000000 $t
  D:\Temp\ccdlqfAs.s:2921   .text.lv_img_create:0000000000000000 lv_img_create
  D:\Temp\ccdlqfAs.s:3211   .text.lv_img_create:0000000000000144 $d
  D:\Temp\ccdlqfAs.s:3225   .text.lv_img_signal:0000000000000000 lv_img_signal
  D:\Temp\ccdlqfAs.s:3219   .text.lv_img_signal:0000000000000000 $t
  D:\Temp\ccdlqfAs.s:3812   .text.lv_img_signal:000000000000027c $d
  D:\Temp\ccdlqfAs.s:3819   .text.lv_img_get_offset_x:0000000000000000 $t
  D:\Temp\ccdlqfAs.s:3826   .text.lv_img_get_offset_x:0000000000000000 lv_img_get_offset_x
  D:\Temp\ccdlqfAs.s:3875   .text.lv_img_get_offset_x:0000000000000024 $d
  D:\Temp\ccdlqfAs.s:3880   .text.lv_img_get_offset_y:0000000000000000 $t
  D:\Temp\ccdlqfAs.s:3887   .text.lv_img_get_offset_y:0000000000000000 lv_img_get_offset_y
  D:\Temp\ccdlqfAs.s:3936   .text.lv_img_get_offset_y:0000000000000024 $d
  D:\Temp\ccdlqfAs.s:3941   .text.lv_img_get_pivot:0000000000000000 $t
  D:\Temp\ccdlqfAs.s:3948   .text.lv_img_get_pivot:0000000000000000 lv_img_get_pivot
  D:\Temp\ccdlqfAs.s:4000   .text.lv_img_get_pivot:0000000000000028 $d
  D:\Temp\ccdlqfAs.s:4005   .text.lv_img_get_angle:0000000000000000 $t
  D:\Temp\ccdlqfAs.s:4012   .text.lv_img_get_angle:0000000000000000 lv_img_get_angle
  D:\Temp\ccdlqfAs.s:4061   .text.lv_img_get_angle:0000000000000020 $d
  D:\Temp\ccdlqfAs.s:4066   .text.lv_img_get_zoom:0000000000000000 $t
  D:\Temp\ccdlqfAs.s:4073   .text.lv_img_get_zoom:0000000000000000 lv_img_get_zoom
  D:\Temp\ccdlqfAs.s:4122   .text.lv_img_get_zoom:0000000000000020 $d
ARM GAS  D:\Temp\ccdlqfAs.s 			page 119


  D:\Temp\ccdlqfAs.s:4127   .text.lv_img_get_antialias:0000000000000000 $t
  D:\Temp\ccdlqfAs.s:4134   .text.lv_img_get_antialias:0000000000000000 lv_img_get_antialias
  D:\Temp\ccdlqfAs.s:4184   .text.lv_img_get_antialias:0000000000000024 $d
  D:\Temp\ccdlqfAs.s:4189   .bss.ancestor_signal:0000000000000000 $d
  D:\Temp\ccdlqfAs.s:4193   .bss.ancestor_signal:0000000000000000 ancestor_signal
  D:\Temp\ccdlqfAs.s:4196   .rodata.lv_img_get_file_name.str1.4:0000000000000000 $d
  D:\Temp\ccdlqfAs.s:4200   .rodata.lv_img_set_auto_size.str1.4:0000000000000000 $d
  D:\Temp\ccdlqfAs.s:4204   .rodata.lv_img_set_src.str1.4:0000000000000000 $d
  D:\Temp\ccdlqfAs.s:4208   .rodata.lv_img_signal.str1.4:0000000000000000 $d

UNDEFINED SYMBOLS
lv_obj_get_ext_attr
_lv_obj_get_style_int
_lv_obj_get_style_opa
lv_obj_get_width
lv_obj_get_height
_lv_img_buf_get_transformed_area
_lv_area_is_in
lv_draw_rect_dsc_init
lv_obj_init_draw_rect_dsc
lv_draw_rect
lv_draw_img
_lv_mem_buf_get
lv_draw_mask_radius_init
lv_draw_mask_add
lv_draw_img_dsc_init
lv_obj_init_draw_img_dsc
lv_obj_get_coords
_lv_area_intersect
lv_draw_label_dsc_init
lv_obj_init_draw_label_dsc
_lv_obj_get_style_color
lv_draw_label
lv_draw_mask_remove_custom
_lv_mem_buf_release
lv_debug_check_null
lv_debug_log_error
lv_obj_invalidate
lv_obj_invalidate_area
lv_obj_refresh_ext_draw_pad
lv_img_src_get_type
lv_img_decoder_get_info
lv_mem_free
strlen
lv_mem_alloc
strcpy
_lv_obj_get_style_ptr
_lv_txt_get_size
lv_obj_set_size
lv_obj_create
lv_obj_allocate_ext_attr
lv_obj_set_signal_cb
lv_obj_set_design_cb
lv_obj_refresh_style
lv_obj_get_signal_cb
lv_obj_del
lv_theme_apply
ARM GAS  D:\Temp\ccdlqfAs.s 			page 120


lv_obj_set_click
lv_obj_set_adv_hittest
lv_obj_handle_get_type_signal
lv_obj_is_point_on_coords
_lv_area_is_point_on
