ARM GAS  D:\Temp\cc6WWuOg.s 			page 1


   1              		.cpu cortex-m4
   2              		.eabi_attribute 27, 1
   3              		.eabi_attribute 28, 1
   4              		.eabi_attribute 20, 1
   5              		.eabi_attribute 21, 1
   6              		.eabi_attribute 23, 3
   7              		.eabi_attribute 24, 1
   8              		.eabi_attribute 25, 1
   9              		.eabi_attribute 26, 1
  10              		.eabi_attribute 30, 1
  11              		.eabi_attribute 34, 1
  12              		.eabi_attribute 18, 4
  13              		.file	"lv_list.c"
  14              		.text
  15              	.Ltext0:
  16              		.cfi_sections	.debug_frame
  17              		.section	.text.lv_list_get_style,"ax",%progbits
  18              		.align	1
  19              		.arch armv7e-m
  20              		.syntax unified
  21              		.thumb
  22              		.thumb_func
  23              		.fpu fpv4-sp-d16
  25              	lv_list_get_style:
  26              	.LVL0:
  27              	.LFB510:
  28              		.file 1 "lvgl/src/lv_widgets/lv_list.c"
   1:lvgl/src/lv_widgets/lv_list.c **** /**
   2:lvgl/src/lv_widgets/lv_list.c ****  * @file lv_list.c
   3:lvgl/src/lv_widgets/lv_list.c ****  *
   4:lvgl/src/lv_widgets/lv_list.c ****  */
   5:lvgl/src/lv_widgets/lv_list.c **** 
   6:lvgl/src/lv_widgets/lv_list.c **** /*********************
   7:lvgl/src/lv_widgets/lv_list.c ****  *      INCLUDES
   8:lvgl/src/lv_widgets/lv_list.c ****  *********************/
   9:lvgl/src/lv_widgets/lv_list.c **** #include "lv_list.h"
  10:lvgl/src/lv_widgets/lv_list.c **** #if LV_USE_LIST != 0
  11:lvgl/src/lv_widgets/lv_list.c **** 
  12:lvgl/src/lv_widgets/lv_list.c **** #include "../lv_misc/lv_debug.h"
  13:lvgl/src/lv_widgets/lv_list.c **** #include "../lv_core/lv_group.h"
  14:lvgl/src/lv_widgets/lv_list.c **** #include "../lv_themes/lv_theme.h"
  15:lvgl/src/lv_widgets/lv_list.c **** #include "../lv_misc/lv_anim.h"
  16:lvgl/src/lv_widgets/lv_list.c **** #include "../lv_misc/lv_math.h"
  17:lvgl/src/lv_widgets/lv_list.c **** 
  18:lvgl/src/lv_widgets/lv_list.c **** /*********************
  19:lvgl/src/lv_widgets/lv_list.c ****  *      DEFINES
  20:lvgl/src/lv_widgets/lv_list.c ****  *********************/
  21:lvgl/src/lv_widgets/lv_list.c **** #define LV_OBJX_NAME "lv_list"
  22:lvgl/src/lv_widgets/lv_list.c **** 
  23:lvgl/src/lv_widgets/lv_list.c **** #define LV_LIST_LAYOUT_DEF LV_LAYOUT_COLUMN_MID
  24:lvgl/src/lv_widgets/lv_list.c **** 
  25:lvgl/src/lv_widgets/lv_list.c **** #if LV_USE_ANIMATION == 0
  26:lvgl/src/lv_widgets/lv_list.c ****     #undef LV_LIST_DEF_ANIM_TIME
  27:lvgl/src/lv_widgets/lv_list.c ****     #define LV_LIST_DEF_ANIM_TIME 0
  28:lvgl/src/lv_widgets/lv_list.c **** #endif
  29:lvgl/src/lv_widgets/lv_list.c **** 
  30:lvgl/src/lv_widgets/lv_list.c **** /**********************
ARM GAS  D:\Temp\cc6WWuOg.s 			page 2


  31:lvgl/src/lv_widgets/lv_list.c ****  *      TYPEDEFS
  32:lvgl/src/lv_widgets/lv_list.c ****  **********************/
  33:lvgl/src/lv_widgets/lv_list.c **** 
  34:lvgl/src/lv_widgets/lv_list.c **** /**********************
  35:lvgl/src/lv_widgets/lv_list.c ****  *  STATIC PROTOTYPES
  36:lvgl/src/lv_widgets/lv_list.c ****  **********************/
  37:lvgl/src/lv_widgets/lv_list.c **** static lv_res_t lv_list_signal(lv_obj_t * list, lv_signal_t sign, void * param);
  38:lvgl/src/lv_widgets/lv_list.c **** static lv_res_t lv_list_btn_signal(lv_obj_t * btn, lv_signal_t sign, void * param);
  39:lvgl/src/lv_widgets/lv_list.c **** static lv_style_list_t * lv_list_get_style(lv_obj_t * list, uint8_t part);
  40:lvgl/src/lv_widgets/lv_list.c **** static bool lv_list_is_list_btn(lv_obj_t * list_btn);
  41:lvgl/src/lv_widgets/lv_list.c **** static bool lv_list_is_list_img(lv_obj_t * list_btn);
  42:lvgl/src/lv_widgets/lv_list.c **** static bool lv_list_is_list_label(lv_obj_t * list_btn);
  43:lvgl/src/lv_widgets/lv_list.c **** 
  44:lvgl/src/lv_widgets/lv_list.c **** /**********************
  45:lvgl/src/lv_widgets/lv_list.c ****  *  STATIC VARIABLES
  46:lvgl/src/lv_widgets/lv_list.c ****  **********************/
  47:lvgl/src/lv_widgets/lv_list.c **** #if LV_USE_IMG
  48:lvgl/src/lv_widgets/lv_list.c ****     static lv_signal_cb_t img_signal;
  49:lvgl/src/lv_widgets/lv_list.c **** #endif
  50:lvgl/src/lv_widgets/lv_list.c **** static lv_signal_cb_t label_signal;
  51:lvgl/src/lv_widgets/lv_list.c **** static lv_signal_cb_t ancestor_page_signal;
  52:lvgl/src/lv_widgets/lv_list.c **** static lv_signal_cb_t ancestor_btn_signal;
  53:lvgl/src/lv_widgets/lv_list.c **** 
  54:lvgl/src/lv_widgets/lv_list.c **** /**********************
  55:lvgl/src/lv_widgets/lv_list.c ****  *      MACROS
  56:lvgl/src/lv_widgets/lv_list.c ****  **********************/
  57:lvgl/src/lv_widgets/lv_list.c **** 
  58:lvgl/src/lv_widgets/lv_list.c **** /**********************
  59:lvgl/src/lv_widgets/lv_list.c ****  *   GLOBAL FUNCTIONS
  60:lvgl/src/lv_widgets/lv_list.c ****  **********************/
  61:lvgl/src/lv_widgets/lv_list.c **** 
  62:lvgl/src/lv_widgets/lv_list.c **** /**
  63:lvgl/src/lv_widgets/lv_list.c ****  * Create a list objects
  64:lvgl/src/lv_widgets/lv_list.c ****  * @param par pointer to an object, it will be the parent of the new list
  65:lvgl/src/lv_widgets/lv_list.c ****  * @param copy pointer to a list object, if not NULL then the new object will be copied from it
  66:lvgl/src/lv_widgets/lv_list.c ****  * @return pointer to the created list
  67:lvgl/src/lv_widgets/lv_list.c ****  */
  68:lvgl/src/lv_widgets/lv_list.c **** lv_obj_t * lv_list_create(lv_obj_t * par, const lv_obj_t * copy)
  69:lvgl/src/lv_widgets/lv_list.c **** {
  70:lvgl/src/lv_widgets/lv_list.c ****     LV_LOG_TRACE("list create started");
  71:lvgl/src/lv_widgets/lv_list.c **** 
  72:lvgl/src/lv_widgets/lv_list.c ****     /*Create the ancestor basic object*/
  73:lvgl/src/lv_widgets/lv_list.c ****     lv_obj_t * list = lv_page_create(par, copy);
  74:lvgl/src/lv_widgets/lv_list.c ****     LV_ASSERT_MEM(list);
  75:lvgl/src/lv_widgets/lv_list.c ****     if(list == NULL) return NULL;
  76:lvgl/src/lv_widgets/lv_list.c **** 
  77:lvgl/src/lv_widgets/lv_list.c ****     if(ancestor_page_signal == NULL) ancestor_page_signal = lv_obj_get_signal_cb(list);
  78:lvgl/src/lv_widgets/lv_list.c **** 
  79:lvgl/src/lv_widgets/lv_list.c ****     lv_list_ext_t * ext = lv_obj_allocate_ext_attr(list, sizeof(lv_list_ext_t));
  80:lvgl/src/lv_widgets/lv_list.c ****     LV_ASSERT_MEM(ext);
  81:lvgl/src/lv_widgets/lv_list.c ****     if(ext == NULL) {
  82:lvgl/src/lv_widgets/lv_list.c ****         lv_obj_del(list);
  83:lvgl/src/lv_widgets/lv_list.c ****         return NULL;
  84:lvgl/src/lv_widgets/lv_list.c ****     }
  85:lvgl/src/lv_widgets/lv_list.c **** 
  86:lvgl/src/lv_widgets/lv_list.c **** #if LV_USE_GROUP
  87:lvgl/src/lv_widgets/lv_list.c ****     ext->last_sel_btn = NULL;
ARM GAS  D:\Temp\cc6WWuOg.s 			page 3


  88:lvgl/src/lv_widgets/lv_list.c **** #endif
  89:lvgl/src/lv_widgets/lv_list.c ****     ext->act_sel_btn = NULL;
  90:lvgl/src/lv_widgets/lv_list.c **** 
  91:lvgl/src/lv_widgets/lv_list.c ****     lv_obj_set_signal_cb(list, lv_list_signal);
  92:lvgl/src/lv_widgets/lv_list.c **** 
  93:lvgl/src/lv_widgets/lv_list.c ****     /*Init the new list object*/
  94:lvgl/src/lv_widgets/lv_list.c ****     if(copy == NULL) {
  95:lvgl/src/lv_widgets/lv_list.c ****         lv_page_set_anim_time(list, LV_LIST_DEF_ANIM_TIME);
  96:lvgl/src/lv_widgets/lv_list.c ****         lv_page_set_scrollable_fit2(list, LV_FIT_PARENT, LV_FIT_TIGHT);
  97:lvgl/src/lv_widgets/lv_list.c ****         lv_obj_set_size(list, 2 * LV_DPI, 3 * LV_DPI);
  98:lvgl/src/lv_widgets/lv_list.c ****         lv_page_set_scrl_layout(list, LV_LIST_LAYOUT_DEF);
  99:lvgl/src/lv_widgets/lv_list.c ****         lv_list_set_scrollbar_mode(list, LV_SCROLLBAR_MODE_DRAG);
 100:lvgl/src/lv_widgets/lv_list.c **** 
 101:lvgl/src/lv_widgets/lv_list.c ****         lv_theme_apply(list, LV_THEME_LIST);
 102:lvgl/src/lv_widgets/lv_list.c **** 
 103:lvgl/src/lv_widgets/lv_list.c ****     }
 104:lvgl/src/lv_widgets/lv_list.c ****     else {
 105:lvgl/src/lv_widgets/lv_list.c ****         lv_obj_t * copy_btn = lv_list_get_next_btn(copy, NULL);
 106:lvgl/src/lv_widgets/lv_list.c ****         while(copy_btn) {
 107:lvgl/src/lv_widgets/lv_list.c ****             const void * img_src = NULL;
 108:lvgl/src/lv_widgets/lv_list.c **** #if LV_USE_IMG
 109:lvgl/src/lv_widgets/lv_list.c ****             lv_obj_t * copy_img = lv_list_get_btn_img(copy_btn);
 110:lvgl/src/lv_widgets/lv_list.c ****             if(copy_img) img_src = lv_img_get_src(copy_img);
 111:lvgl/src/lv_widgets/lv_list.c **** #endif
 112:lvgl/src/lv_widgets/lv_list.c ****             lv_list_add_btn(list, img_src, lv_list_get_btn_text(copy_btn));
 113:lvgl/src/lv_widgets/lv_list.c ****             copy_btn = lv_list_get_next_btn(copy, copy_btn);
 114:lvgl/src/lv_widgets/lv_list.c ****         }
 115:lvgl/src/lv_widgets/lv_list.c **** 
 116:lvgl/src/lv_widgets/lv_list.c ****         /*Refresh the style with new signal function*/
 117:lvgl/src/lv_widgets/lv_list.c ****         lv_obj_refresh_style(list, LV_OBJ_PART_ALL, LV_STYLE_PROP_ALL);
 118:lvgl/src/lv_widgets/lv_list.c ****     }
 119:lvgl/src/lv_widgets/lv_list.c **** 
 120:lvgl/src/lv_widgets/lv_list.c ****     LV_LOG_INFO("list created");
 121:lvgl/src/lv_widgets/lv_list.c **** 
 122:lvgl/src/lv_widgets/lv_list.c ****     return list;
 123:lvgl/src/lv_widgets/lv_list.c **** }
 124:lvgl/src/lv_widgets/lv_list.c **** 
 125:lvgl/src/lv_widgets/lv_list.c **** /**
 126:lvgl/src/lv_widgets/lv_list.c ****  * Delete all children of the scrl object, without deleting scrl child.
 127:lvgl/src/lv_widgets/lv_list.c ****  * @param list pointer to an object
 128:lvgl/src/lv_widgets/lv_list.c ****  */
 129:lvgl/src/lv_widgets/lv_list.c **** void lv_list_clean(lv_obj_t * list)
 130:lvgl/src/lv_widgets/lv_list.c **** {
 131:lvgl/src/lv_widgets/lv_list.c ****     LV_ASSERT_OBJ(list, LV_OBJX_NAME);
 132:lvgl/src/lv_widgets/lv_list.c **** 
 133:lvgl/src/lv_widgets/lv_list.c ****     lv_obj_t * scrl = lv_page_get_scrollable(list);
 134:lvgl/src/lv_widgets/lv_list.c ****     lv_obj_clean(scrl);
 135:lvgl/src/lv_widgets/lv_list.c **** }
 136:lvgl/src/lv_widgets/lv_list.c **** 
 137:lvgl/src/lv_widgets/lv_list.c **** /*======================
 138:lvgl/src/lv_widgets/lv_list.c ****  * Add/remove functions
 139:lvgl/src/lv_widgets/lv_list.c ****  *=====================*/
 140:lvgl/src/lv_widgets/lv_list.c **** /**
 141:lvgl/src/lv_widgets/lv_list.c ****  * Add a list element to the list
 142:lvgl/src/lv_widgets/lv_list.c ****  * @param list pointer to list object
 143:lvgl/src/lv_widgets/lv_list.c ****  * @param img_fn file name of an image before the text (NULL if unused)
 144:lvgl/src/lv_widgets/lv_list.c ****  * @param txt text of the list element (NULL if unused)
ARM GAS  D:\Temp\cc6WWuOg.s 			page 4


 145:lvgl/src/lv_widgets/lv_list.c ****  * @return pointer to the new list element which can be customized (a button)
 146:lvgl/src/lv_widgets/lv_list.c ****  */
 147:lvgl/src/lv_widgets/lv_list.c **** lv_obj_t * lv_list_add_btn(lv_obj_t * list, const void * img_src, const char * txt)
 148:lvgl/src/lv_widgets/lv_list.c **** {
 149:lvgl/src/lv_widgets/lv_list.c ****     LV_ASSERT_OBJ(list, LV_OBJX_NAME);
 150:lvgl/src/lv_widgets/lv_list.c **** 
 151:lvgl/src/lv_widgets/lv_list.c ****     lv_obj_t * last_btn = lv_list_get_prev_btn(list, NULL);
 152:lvgl/src/lv_widgets/lv_list.c **** 
 153:lvgl/src/lv_widgets/lv_list.c ****     /*The coordinates may changed due to autofit so revert them at the end*/
 154:lvgl/src/lv_widgets/lv_list.c ****     lv_coord_t pos_x_ori = lv_obj_get_x(list);
 155:lvgl/src/lv_widgets/lv_list.c ****     lv_coord_t pos_y_ori = lv_obj_get_y(list);
 156:lvgl/src/lv_widgets/lv_list.c **** 
 157:lvgl/src/lv_widgets/lv_list.c ****     lv_obj_t * scrl =  lv_page_get_scrollable(list);
 158:lvgl/src/lv_widgets/lv_list.c ****     lv_obj_add_protect(scrl, LV_PROTECT_CHILD_CHG);
 159:lvgl/src/lv_widgets/lv_list.c **** 
 160:lvgl/src/lv_widgets/lv_list.c ****     /*Create a list element with the image an the text*/
 161:lvgl/src/lv_widgets/lv_list.c ****     lv_obj_t * btn;
 162:lvgl/src/lv_widgets/lv_list.c ****     btn = lv_btn_create(list, NULL);
 163:lvgl/src/lv_widgets/lv_list.c **** 
 164:lvgl/src/lv_widgets/lv_list.c ****     lv_obj_add_protect(btn, LV_PROTECT_CHILD_CHG);
 165:lvgl/src/lv_widgets/lv_list.c **** 
 166:lvgl/src/lv_widgets/lv_list.c ****     /*Save the original signal function because it will be required in `lv_list_btn_signal`*/
 167:lvgl/src/lv_widgets/lv_list.c ****     if(ancestor_btn_signal == NULL) ancestor_btn_signal = lv_obj_get_signal_cb(btn);
 168:lvgl/src/lv_widgets/lv_list.c **** 
 169:lvgl/src/lv_widgets/lv_list.c ****     /*Set the default styles*/
 170:lvgl/src/lv_widgets/lv_list.c ****     lv_theme_apply(btn, LV_THEME_LIST_BTN);
 171:lvgl/src/lv_widgets/lv_list.c **** 
 172:lvgl/src/lv_widgets/lv_list.c ****     lv_page_glue_obj(btn, true);
 173:lvgl/src/lv_widgets/lv_list.c ****     lv_btn_set_layout(btn, LV_LAYOUT_ROW_MID);
 174:lvgl/src/lv_widgets/lv_list.c **** 
 175:lvgl/src/lv_widgets/lv_list.c ****     lv_layout_t list_layout = lv_list_get_layout(list);
 176:lvgl/src/lv_widgets/lv_list.c ****     bool layout_ver = false;
 177:lvgl/src/lv_widgets/lv_list.c ****     if(list_layout == LV_LAYOUT_COLUMN_MID || list_layout == LV_LAYOUT_COLUMN_LEFT ||
 178:lvgl/src/lv_widgets/lv_list.c ****        list_layout == LV_LAYOUT_COLUMN_RIGHT) {
 179:lvgl/src/lv_widgets/lv_list.c ****         layout_ver = true;
 180:lvgl/src/lv_widgets/lv_list.c ****     }
 181:lvgl/src/lv_widgets/lv_list.c **** 
 182:lvgl/src/lv_widgets/lv_list.c ****     if(layout_ver) {
 183:lvgl/src/lv_widgets/lv_list.c ****         lv_btn_set_fit2(btn, LV_FIT_PARENT, LV_FIT_TIGHT);
 184:lvgl/src/lv_widgets/lv_list.c ****     }
 185:lvgl/src/lv_widgets/lv_list.c ****     else {
 186:lvgl/src/lv_widgets/lv_list.c ****         lv_coord_t w = last_btn ? lv_obj_get_width(last_btn) : (LV_DPI * 3) / 2;
 187:lvgl/src/lv_widgets/lv_list.c ****         lv_btn_set_fit2(btn, LV_FIT_NONE, LV_FIT_TIGHT);
 188:lvgl/src/lv_widgets/lv_list.c ****         lv_obj_set_width(btn, w);
 189:lvgl/src/lv_widgets/lv_list.c ****     }
 190:lvgl/src/lv_widgets/lv_list.c **** 
 191:lvgl/src/lv_widgets/lv_list.c ****     lv_obj_add_protect(btn, LV_PROTECT_PRESS_LOST);
 192:lvgl/src/lv_widgets/lv_list.c ****     lv_obj_set_signal_cb(btn, lv_list_btn_signal);
 193:lvgl/src/lv_widgets/lv_list.c **** 
 194:lvgl/src/lv_widgets/lv_list.c **** #if LV_USE_IMG != 0
 195:lvgl/src/lv_widgets/lv_list.c ****     lv_obj_t * img = NULL;
 196:lvgl/src/lv_widgets/lv_list.c ****     if(img_src) {
 197:lvgl/src/lv_widgets/lv_list.c ****         img = lv_img_create(btn, NULL);
 198:lvgl/src/lv_widgets/lv_list.c ****         lv_img_set_src(img, img_src);
 199:lvgl/src/lv_widgets/lv_list.c ****         lv_obj_set_click(img, false);
 200:lvgl/src/lv_widgets/lv_list.c ****         if(img_signal == NULL) img_signal = lv_obj_get_signal_cb(img);
 201:lvgl/src/lv_widgets/lv_list.c ****     }
ARM GAS  D:\Temp\cc6WWuOg.s 			page 5


 202:lvgl/src/lv_widgets/lv_list.c **** #endif
 203:lvgl/src/lv_widgets/lv_list.c ****     if(txt != NULL) {
 204:lvgl/src/lv_widgets/lv_list.c ****         lv_obj_t * label = lv_label_create(btn, NULL);
 205:lvgl/src/lv_widgets/lv_list.c ****         lv_label_set_text(label, txt);
 206:lvgl/src/lv_widgets/lv_list.c ****         lv_obj_set_click(label, false);
 207:lvgl/src/lv_widgets/lv_list.c ****         lv_label_set_long_mode(label, LV_LABEL_LONG_SROLL_CIRC);
 208:lvgl/src/lv_widgets/lv_list.c ****         if(lv_obj_get_base_dir(btn) == LV_BIDI_DIR_RTL) {
 209:lvgl/src/lv_widgets/lv_list.c ****             lv_coord_t pad = lv_obj_get_style_pad_left(btn, LV_BTN_PART_MAIN);
 210:lvgl/src/lv_widgets/lv_list.c ****             lv_obj_set_width(label, label->coords.x2 - btn->coords.x1 - pad);
 211:lvgl/src/lv_widgets/lv_list.c ****         }
 212:lvgl/src/lv_widgets/lv_list.c ****         else {
 213:lvgl/src/lv_widgets/lv_list.c ****             lv_coord_t pad = lv_obj_get_style_pad_right(btn, LV_BTN_PART_MAIN);
 214:lvgl/src/lv_widgets/lv_list.c ****             lv_obj_set_width(label, btn->coords.x2 - label->coords.x1 - pad);
 215:lvgl/src/lv_widgets/lv_list.c ****         }
 216:lvgl/src/lv_widgets/lv_list.c ****         if(label_signal == NULL) label_signal = lv_obj_get_signal_cb(label);
 217:lvgl/src/lv_widgets/lv_list.c ****     }
 218:lvgl/src/lv_widgets/lv_list.c **** 
 219:lvgl/src/lv_widgets/lv_list.c **** #if LV_USE_GROUP
 220:lvgl/src/lv_widgets/lv_list.c ****     /* If this is the first item to be added to the list and the list is
 221:lvgl/src/lv_widgets/lv_list.c ****      * focused, select it */
 222:lvgl/src/lv_widgets/lv_list.c ****     {
 223:lvgl/src/lv_widgets/lv_list.c ****         lv_group_t * g = lv_obj_get_group(list);
 224:lvgl/src/lv_widgets/lv_list.c ****         if(lv_list_get_next_btn(list, NULL) == btn && lv_group_get_focused(g) == list) {
 225:lvgl/src/lv_widgets/lv_list.c ****             lv_list_focus_btn(list, btn);
 226:lvgl/src/lv_widgets/lv_list.c ****         }
 227:lvgl/src/lv_widgets/lv_list.c ****     }
 228:lvgl/src/lv_widgets/lv_list.c **** #endif
 229:lvgl/src/lv_widgets/lv_list.c **** 
 230:lvgl/src/lv_widgets/lv_list.c ****     lv_obj_clear_protect(scrl, LV_PROTECT_CHILD_CHG);
 231:lvgl/src/lv_widgets/lv_list.c ****     lv_obj_clear_protect(btn, LV_PROTECT_CHILD_CHG);
 232:lvgl/src/lv_widgets/lv_list.c ****     btn->signal_cb(btn, LV_SIGNAL_CHILD_CHG, NULL);
 233:lvgl/src/lv_widgets/lv_list.c **** 
 234:lvgl/src/lv_widgets/lv_list.c ****     lv_obj_set_pos(list, pos_x_ori, pos_y_ori);
 235:lvgl/src/lv_widgets/lv_list.c **** 
 236:lvgl/src/lv_widgets/lv_list.c ****     return btn;
 237:lvgl/src/lv_widgets/lv_list.c **** }
 238:lvgl/src/lv_widgets/lv_list.c **** 
 239:lvgl/src/lv_widgets/lv_list.c **** /**
 240:lvgl/src/lv_widgets/lv_list.c ****  * Remove the index of the button in the list
 241:lvgl/src/lv_widgets/lv_list.c ****  * @param list pointer to a list object
 242:lvgl/src/lv_widgets/lv_list.c ****  * @param index pointer to a the button's index in the list, index must be 0 <= index <
 243:lvgl/src/lv_widgets/lv_list.c ****  * lv_list_ext_t.size
 244:lvgl/src/lv_widgets/lv_list.c ****  * @return true: successfully deleted
 245:lvgl/src/lv_widgets/lv_list.c ****  */
 246:lvgl/src/lv_widgets/lv_list.c **** bool lv_list_remove(const lv_obj_t * list, uint16_t index)
 247:lvgl/src/lv_widgets/lv_list.c **** {
 248:lvgl/src/lv_widgets/lv_list.c ****     LV_ASSERT_OBJ(list, LV_OBJX_NAME);
 249:lvgl/src/lv_widgets/lv_list.c **** 
 250:lvgl/src/lv_widgets/lv_list.c ****     lv_list_ext_t * ext = lv_obj_get_ext_attr(list);
 251:lvgl/src/lv_widgets/lv_list.c ****     uint16_t count = 0;
 252:lvgl/src/lv_widgets/lv_list.c ****     lv_obj_t * e   = lv_list_get_next_btn(list, NULL);
 253:lvgl/src/lv_widgets/lv_list.c ****     while(e != NULL) {
 254:lvgl/src/lv_widgets/lv_list.c ****         if(count == index) {
 255:lvgl/src/lv_widgets/lv_list.c **** #if LV_USE_GROUP
 256:lvgl/src/lv_widgets/lv_list.c ****             if(e == ext->last_sel_btn) ext->last_sel_btn = NULL;
 257:lvgl/src/lv_widgets/lv_list.c **** #endif
 258:lvgl/src/lv_widgets/lv_list.c ****             if(e == ext->act_sel_btn) ext->act_sel_btn = NULL;
ARM GAS  D:\Temp\cc6WWuOg.s 			page 6


 259:lvgl/src/lv_widgets/lv_list.c **** 
 260:lvgl/src/lv_widgets/lv_list.c ****             lv_obj_del(e);
 261:lvgl/src/lv_widgets/lv_list.c ****             return true;
 262:lvgl/src/lv_widgets/lv_list.c ****         }
 263:lvgl/src/lv_widgets/lv_list.c ****         e = lv_list_get_next_btn(list, e);
 264:lvgl/src/lv_widgets/lv_list.c ****         count++;
 265:lvgl/src/lv_widgets/lv_list.c ****     }
 266:lvgl/src/lv_widgets/lv_list.c ****     return false;
 267:lvgl/src/lv_widgets/lv_list.c **** }
 268:lvgl/src/lv_widgets/lv_list.c **** 
 269:lvgl/src/lv_widgets/lv_list.c **** /*=====================
 270:lvgl/src/lv_widgets/lv_list.c ****  * Setter functions
 271:lvgl/src/lv_widgets/lv_list.c ****  *====================*/
 272:lvgl/src/lv_widgets/lv_list.c **** 
 273:lvgl/src/lv_widgets/lv_list.c **** /**
 274:lvgl/src/lv_widgets/lv_list.c ****  * Make a button selected
 275:lvgl/src/lv_widgets/lv_list.c ****  * @param list pointer to a list object
 276:lvgl/src/lv_widgets/lv_list.c ****  * @param btn pointer to a button to select
 277:lvgl/src/lv_widgets/lv_list.c ****  *            NULL to not select any buttons
 278:lvgl/src/lv_widgets/lv_list.c ****  */
 279:lvgl/src/lv_widgets/lv_list.c **** void lv_list_focus_btn(lv_obj_t * list, lv_obj_t * btn)
 280:lvgl/src/lv_widgets/lv_list.c **** {
 281:lvgl/src/lv_widgets/lv_list.c ****     LV_ASSERT_OBJ(list, LV_OBJX_NAME);
 282:lvgl/src/lv_widgets/lv_list.c ****     if(btn) {
 283:lvgl/src/lv_widgets/lv_list.c ****         LV_ASSERT_OBJ(btn, "lv_btn");
 284:lvgl/src/lv_widgets/lv_list.c ****     }
 285:lvgl/src/lv_widgets/lv_list.c **** 
 286:lvgl/src/lv_widgets/lv_list.c ****     lv_list_ext_t * ext = lv_obj_get_ext_attr(list);
 287:lvgl/src/lv_widgets/lv_list.c **** 
 288:lvgl/src/lv_widgets/lv_list.c ****     /*Defocus the current button*/
 289:lvgl/src/lv_widgets/lv_list.c ****     if(ext->act_sel_btn) lv_obj_clear_state(ext->act_sel_btn, LV_STATE_FOCUSED);
 290:lvgl/src/lv_widgets/lv_list.c **** 
 291:lvgl/src/lv_widgets/lv_list.c **** #if LV_USE_GROUP
 292:lvgl/src/lv_widgets/lv_list.c ****     /*Don't forget which button was selected.
 293:lvgl/src/lv_widgets/lv_list.c ****      * It will be restored when the list is focused again.*/
 294:lvgl/src/lv_widgets/lv_list.c ****     if(btn) ext->last_sel_btn = btn;
 295:lvgl/src/lv_widgets/lv_list.c **** #endif
 296:lvgl/src/lv_widgets/lv_list.c **** 
 297:lvgl/src/lv_widgets/lv_list.c ****     /*Focus the new button*/
 298:lvgl/src/lv_widgets/lv_list.c ****     ext->act_sel_btn = btn;
 299:lvgl/src/lv_widgets/lv_list.c **** 
 300:lvgl/src/lv_widgets/lv_list.c ****     if(ext->act_sel_btn) {
 301:lvgl/src/lv_widgets/lv_list.c ****         lv_obj_add_state(ext->act_sel_btn, LV_STATE_FOCUSED);
 302:lvgl/src/lv_widgets/lv_list.c ****         lv_page_focus(list, ext->act_sel_btn, LV_ANIM_ON);
 303:lvgl/src/lv_widgets/lv_list.c ****     }
 304:lvgl/src/lv_widgets/lv_list.c **** }
 305:lvgl/src/lv_widgets/lv_list.c **** 
 306:lvgl/src/lv_widgets/lv_list.c **** /**
 307:lvgl/src/lv_widgets/lv_list.c ****  * Set layout of a list
 308:lvgl/src/lv_widgets/lv_list.c ****  * @param list pointer to a list object
 309:lvgl/src/lv_widgets/lv_list.c ****  * @param layout which layout should be used
 310:lvgl/src/lv_widgets/lv_list.c ****  */
 311:lvgl/src/lv_widgets/lv_list.c **** void lv_list_set_layout(lv_obj_t * list, lv_layout_t layout)
 312:lvgl/src/lv_widgets/lv_list.c **** {
 313:lvgl/src/lv_widgets/lv_list.c ****     LV_ASSERT_OBJ(list, LV_OBJX_NAME);
 314:lvgl/src/lv_widgets/lv_list.c **** 
 315:lvgl/src/lv_widgets/lv_list.c ****     /* Update list layout if necessary */
ARM GAS  D:\Temp\cc6WWuOg.s 			page 7


 316:lvgl/src/lv_widgets/lv_list.c ****     if(layout == lv_list_get_layout(list)) return;
 317:lvgl/src/lv_widgets/lv_list.c **** 
 318:lvgl/src/lv_widgets/lv_list.c ****     /* Get the first button on the list */
 319:lvgl/src/lv_widgets/lv_list.c ****     lv_obj_t * btn = lv_list_get_prev_btn(list, NULL);
 320:lvgl/src/lv_widgets/lv_list.c **** 
 321:lvgl/src/lv_widgets/lv_list.c ****     /* Visit all buttons on the list and update their layout  */
 322:lvgl/src/lv_widgets/lv_list.c ****     while(btn != NULL) {
 323:lvgl/src/lv_widgets/lv_list.c ****         /*If a column layout set the buttons' width to list width*/
 324:lvgl/src/lv_widgets/lv_list.c ****         if(layout == LV_LAYOUT_COLUMN_MID || layout == LV_LAYOUT_COLUMN_LEFT || layout == LV_LAYOUT
 325:lvgl/src/lv_widgets/lv_list.c ****             lv_btn_set_fit2(btn, LV_FIT_PARENT, LV_FIT_TIGHT);
 326:lvgl/src/lv_widgets/lv_list.c ****         }
 327:lvgl/src/lv_widgets/lv_list.c ****         /*If a row layout set the buttons' width according to the content*/
 328:lvgl/src/lv_widgets/lv_list.c ****         else if(layout == LV_LAYOUT_ROW_MID || layout == LV_LAYOUT_ROW_TOP || layout == LV_LAYOUT_R
 329:lvgl/src/lv_widgets/lv_list.c ****             lv_btn_set_fit(btn, LV_FIT_TIGHT);
 330:lvgl/src/lv_widgets/lv_list.c ****         }
 331:lvgl/src/lv_widgets/lv_list.c **** 
 332:lvgl/src/lv_widgets/lv_list.c ****         btn = lv_list_get_prev_btn(list, btn);
 333:lvgl/src/lv_widgets/lv_list.c ****     }
 334:lvgl/src/lv_widgets/lv_list.c **** 
 335:lvgl/src/lv_widgets/lv_list.c ****     if(layout == LV_LAYOUT_COLUMN_MID || layout == LV_LAYOUT_COLUMN_LEFT || layout == LV_LAYOUT_COL
 336:lvgl/src/lv_widgets/lv_list.c ****         lv_page_set_scrollable_fit2(list, LV_FIT_PARENT, LV_FIT_TIGHT);
 337:lvgl/src/lv_widgets/lv_list.c ****     }
 338:lvgl/src/lv_widgets/lv_list.c ****     else if(layout == LV_LAYOUT_ROW_MID || layout == LV_LAYOUT_ROW_TOP || layout == LV_LAYOUT_ROW_B
 339:lvgl/src/lv_widgets/lv_list.c ****         lv_page_set_scrollable_fit2(list, LV_FIT_TIGHT, LV_FIT_TIGHT);
 340:lvgl/src/lv_widgets/lv_list.c ****         lv_cont_set_fit2(list, LV_FIT_NONE, LV_FIT_TIGHT);
 341:lvgl/src/lv_widgets/lv_list.c ****     }
 342:lvgl/src/lv_widgets/lv_list.c **** 
 343:lvgl/src/lv_widgets/lv_list.c ****     lv_page_set_scrl_layout(list, layout);
 344:lvgl/src/lv_widgets/lv_list.c **** }
 345:lvgl/src/lv_widgets/lv_list.c **** 
 346:lvgl/src/lv_widgets/lv_list.c **** /*=====================
 347:lvgl/src/lv_widgets/lv_list.c ****  * Getter functions
 348:lvgl/src/lv_widgets/lv_list.c ****  *====================*/
 349:lvgl/src/lv_widgets/lv_list.c **** 
 350:lvgl/src/lv_widgets/lv_list.c **** /**
 351:lvgl/src/lv_widgets/lv_list.c ****  * Get the text of a list element
 352:lvgl/src/lv_widgets/lv_list.c ****  * @param btn pointer to list element
 353:lvgl/src/lv_widgets/lv_list.c ****  * @return pointer to the text
 354:lvgl/src/lv_widgets/lv_list.c ****  */
 355:lvgl/src/lv_widgets/lv_list.c **** const char * lv_list_get_btn_text(const lv_obj_t * btn)
 356:lvgl/src/lv_widgets/lv_list.c **** {
 357:lvgl/src/lv_widgets/lv_list.c ****     LV_ASSERT_OBJ(btn, "lv_btn");
 358:lvgl/src/lv_widgets/lv_list.c **** 
 359:lvgl/src/lv_widgets/lv_list.c ****     lv_obj_t * label = lv_list_get_btn_label(btn);
 360:lvgl/src/lv_widgets/lv_list.c ****     if(label == NULL) return "";
 361:lvgl/src/lv_widgets/lv_list.c ****     return lv_label_get_text(label);
 362:lvgl/src/lv_widgets/lv_list.c **** }
 363:lvgl/src/lv_widgets/lv_list.c **** 
 364:lvgl/src/lv_widgets/lv_list.c **** /**
 365:lvgl/src/lv_widgets/lv_list.c ****  * Get the label object from a list element
 366:lvgl/src/lv_widgets/lv_list.c ****  * @param btn pointer to a list element (button)
 367:lvgl/src/lv_widgets/lv_list.c ****  * @return pointer to the label from the list element or NULL if not found
 368:lvgl/src/lv_widgets/lv_list.c ****  */
 369:lvgl/src/lv_widgets/lv_list.c **** lv_obj_t * lv_list_get_btn_label(const lv_obj_t * btn)
 370:lvgl/src/lv_widgets/lv_list.c **** {
 371:lvgl/src/lv_widgets/lv_list.c ****     LV_ASSERT_OBJ(btn, "lv_btn");
 372:lvgl/src/lv_widgets/lv_list.c **** 
ARM GAS  D:\Temp\cc6WWuOg.s 			page 8


 373:lvgl/src/lv_widgets/lv_list.c ****     lv_obj_t * label = lv_obj_get_child_back(btn, NULL);
 374:lvgl/src/lv_widgets/lv_list.c ****     if(label == NULL) return NULL;
 375:lvgl/src/lv_widgets/lv_list.c **** 
 376:lvgl/src/lv_widgets/lv_list.c ****     while(lv_list_is_list_label(label) == false) {
 377:lvgl/src/lv_widgets/lv_list.c ****         label = lv_obj_get_child_back(btn, label);
 378:lvgl/src/lv_widgets/lv_list.c ****         if(label == NULL) break;
 379:lvgl/src/lv_widgets/lv_list.c ****     }
 380:lvgl/src/lv_widgets/lv_list.c **** 
 381:lvgl/src/lv_widgets/lv_list.c ****     return label;
 382:lvgl/src/lv_widgets/lv_list.c **** }
 383:lvgl/src/lv_widgets/lv_list.c **** 
 384:lvgl/src/lv_widgets/lv_list.c **** /**
 385:lvgl/src/lv_widgets/lv_list.c ****  * Get the image object from a list element
 386:lvgl/src/lv_widgets/lv_list.c ****  * @param btn pointer to a list element (button)
 387:lvgl/src/lv_widgets/lv_list.c ****  * @return pointer to the image from the list element or NULL if not found
 388:lvgl/src/lv_widgets/lv_list.c ****  */
 389:lvgl/src/lv_widgets/lv_list.c **** lv_obj_t * lv_list_get_btn_img(const lv_obj_t * btn)
 390:lvgl/src/lv_widgets/lv_list.c **** {
 391:lvgl/src/lv_widgets/lv_list.c ****     LV_ASSERT_OBJ(btn, "lv_btn");
 392:lvgl/src/lv_widgets/lv_list.c **** 
 393:lvgl/src/lv_widgets/lv_list.c **** #if LV_USE_IMG != 0
 394:lvgl/src/lv_widgets/lv_list.c ****     lv_obj_t * img = lv_obj_get_child_back(btn, NULL);
 395:lvgl/src/lv_widgets/lv_list.c ****     if(img == NULL) return NULL;
 396:lvgl/src/lv_widgets/lv_list.c **** 
 397:lvgl/src/lv_widgets/lv_list.c ****     while(lv_list_is_list_img(img) == false) {
 398:lvgl/src/lv_widgets/lv_list.c ****         img = lv_obj_get_child_back(btn, img);
 399:lvgl/src/lv_widgets/lv_list.c ****         if(img == NULL) break;
 400:lvgl/src/lv_widgets/lv_list.c ****     }
 401:lvgl/src/lv_widgets/lv_list.c **** 
 402:lvgl/src/lv_widgets/lv_list.c ****     return img;
 403:lvgl/src/lv_widgets/lv_list.c **** #else
 404:lvgl/src/lv_widgets/lv_list.c ****     return NULL;
 405:lvgl/src/lv_widgets/lv_list.c **** #endif
 406:lvgl/src/lv_widgets/lv_list.c **** }
 407:lvgl/src/lv_widgets/lv_list.c **** 
 408:lvgl/src/lv_widgets/lv_list.c **** /**
 409:lvgl/src/lv_widgets/lv_list.c ****  * Get the previous button from list. (Starts from the bottom button)
 410:lvgl/src/lv_widgets/lv_list.c ****  * @param list pointer to a list object
 411:lvgl/src/lv_widgets/lv_list.c ****  * @param prev_btn pointer to button. Search the previous before it.
 412:lvgl/src/lv_widgets/lv_list.c ****  * @return pointer to the previous button or NULL when no more buttons
 413:lvgl/src/lv_widgets/lv_list.c ****  */
 414:lvgl/src/lv_widgets/lv_list.c **** lv_obj_t * lv_list_get_prev_btn(const lv_obj_t * list, lv_obj_t * prev_btn)
 415:lvgl/src/lv_widgets/lv_list.c **** {
 416:lvgl/src/lv_widgets/lv_list.c ****     LV_ASSERT_OBJ(list, LV_OBJX_NAME);
 417:lvgl/src/lv_widgets/lv_list.c **** 
 418:lvgl/src/lv_widgets/lv_list.c ****     /* Not a good practice but user can add/create objects to the lists manually.
 419:lvgl/src/lv_widgets/lv_list.c ****      * When getting the next button try to be sure that it is at least a button */
 420:lvgl/src/lv_widgets/lv_list.c **** 
 421:lvgl/src/lv_widgets/lv_list.c ****     lv_obj_t * btn;
 422:lvgl/src/lv_widgets/lv_list.c ****     lv_obj_t * scrl = lv_page_get_scrollable(list);
 423:lvgl/src/lv_widgets/lv_list.c **** 
 424:lvgl/src/lv_widgets/lv_list.c ****     btn = lv_obj_get_child(scrl, prev_btn);
 425:lvgl/src/lv_widgets/lv_list.c ****     if(btn == NULL) return NULL;
 426:lvgl/src/lv_widgets/lv_list.c **** 
 427:lvgl/src/lv_widgets/lv_list.c ****     while(lv_list_is_list_btn(btn) == false) {
 428:lvgl/src/lv_widgets/lv_list.c ****         btn = lv_obj_get_child(scrl, btn);
 429:lvgl/src/lv_widgets/lv_list.c ****         if(btn == NULL) break;
ARM GAS  D:\Temp\cc6WWuOg.s 			page 9


 430:lvgl/src/lv_widgets/lv_list.c ****     }
 431:lvgl/src/lv_widgets/lv_list.c **** 
 432:lvgl/src/lv_widgets/lv_list.c ****     return btn;
 433:lvgl/src/lv_widgets/lv_list.c **** }
 434:lvgl/src/lv_widgets/lv_list.c **** 
 435:lvgl/src/lv_widgets/lv_list.c **** /**
 436:lvgl/src/lv_widgets/lv_list.c ****  * Get the next button from list. (Starts from the top button)
 437:lvgl/src/lv_widgets/lv_list.c ****  * @param list pointer to a list object
 438:lvgl/src/lv_widgets/lv_list.c ****  * @param prev_btn pointer to button. Search the next after it.
 439:lvgl/src/lv_widgets/lv_list.c ****  * @return pointer to the next button or NULL when no more buttons
 440:lvgl/src/lv_widgets/lv_list.c ****  */
 441:lvgl/src/lv_widgets/lv_list.c **** lv_obj_t * lv_list_get_next_btn(const lv_obj_t * list, lv_obj_t * prev_btn)
 442:lvgl/src/lv_widgets/lv_list.c **** {
 443:lvgl/src/lv_widgets/lv_list.c ****     LV_ASSERT_OBJ(list, LV_OBJX_NAME);
 444:lvgl/src/lv_widgets/lv_list.c **** 
 445:lvgl/src/lv_widgets/lv_list.c ****     /* Not a good practice but user can add/create objects to the lists manually.
 446:lvgl/src/lv_widgets/lv_list.c ****      * When getting the next button try to be sure that it is at least a button */
 447:lvgl/src/lv_widgets/lv_list.c **** 
 448:lvgl/src/lv_widgets/lv_list.c ****     lv_obj_t * btn;
 449:lvgl/src/lv_widgets/lv_list.c ****     lv_obj_t * scrl = lv_page_get_scrollable(list);
 450:lvgl/src/lv_widgets/lv_list.c **** 
 451:lvgl/src/lv_widgets/lv_list.c ****     btn = lv_obj_get_child_back(scrl, prev_btn);
 452:lvgl/src/lv_widgets/lv_list.c ****     if(btn == NULL) return NULL;
 453:lvgl/src/lv_widgets/lv_list.c **** 
 454:lvgl/src/lv_widgets/lv_list.c ****     while(lv_list_is_list_btn(btn) == false) {
 455:lvgl/src/lv_widgets/lv_list.c ****         btn = lv_obj_get_child_back(scrl, btn);
 456:lvgl/src/lv_widgets/lv_list.c ****         if(btn == NULL) break;
 457:lvgl/src/lv_widgets/lv_list.c ****     }
 458:lvgl/src/lv_widgets/lv_list.c **** 
 459:lvgl/src/lv_widgets/lv_list.c ****     return btn;
 460:lvgl/src/lv_widgets/lv_list.c **** }
 461:lvgl/src/lv_widgets/lv_list.c **** 
 462:lvgl/src/lv_widgets/lv_list.c **** /**
 463:lvgl/src/lv_widgets/lv_list.c ****  * Get the index of the button in the list
 464:lvgl/src/lv_widgets/lv_list.c ****  * @param list pointer to a list object. If NULL, assumes btn is part of a list.
 465:lvgl/src/lv_widgets/lv_list.c ****  * @param btn pointer to a list element (button)
 466:lvgl/src/lv_widgets/lv_list.c ****  * @return the index of the button in the list, or -1 of the button not in this list
 467:lvgl/src/lv_widgets/lv_list.c ****  */
 468:lvgl/src/lv_widgets/lv_list.c **** int32_t lv_list_get_btn_index(const lv_obj_t * list, const lv_obj_t * btn)
 469:lvgl/src/lv_widgets/lv_list.c **** {
 470:lvgl/src/lv_widgets/lv_list.c ****     LV_ASSERT_OBJ(btn, "lv_btn");
 471:lvgl/src/lv_widgets/lv_list.c **** 
 472:lvgl/src/lv_widgets/lv_list.c ****     int index = 0;
 473:lvgl/src/lv_widgets/lv_list.c ****     if(list == NULL) {
 474:lvgl/src/lv_widgets/lv_list.c ****         /* no list provided, assuming btn is part of a list */
 475:lvgl/src/lv_widgets/lv_list.c ****         list = lv_obj_get_parent(lv_obj_get_parent(btn));
 476:lvgl/src/lv_widgets/lv_list.c ****     }
 477:lvgl/src/lv_widgets/lv_list.c ****     LV_ASSERT_OBJ(list, LV_OBJX_NAME);
 478:lvgl/src/lv_widgets/lv_list.c **** 
 479:lvgl/src/lv_widgets/lv_list.c ****     lv_obj_t * e = lv_list_get_next_btn(list, NULL);
 480:lvgl/src/lv_widgets/lv_list.c ****     while(e != NULL) {
 481:lvgl/src/lv_widgets/lv_list.c ****         if(e == btn) {
 482:lvgl/src/lv_widgets/lv_list.c ****             return index;
 483:lvgl/src/lv_widgets/lv_list.c ****         }
 484:lvgl/src/lv_widgets/lv_list.c ****         index++;
 485:lvgl/src/lv_widgets/lv_list.c ****         e = lv_list_get_next_btn(list, e);
 486:lvgl/src/lv_widgets/lv_list.c ****     }
ARM GAS  D:\Temp\cc6WWuOg.s 			page 10


 487:lvgl/src/lv_widgets/lv_list.c ****     return -1;
 488:lvgl/src/lv_widgets/lv_list.c **** }
 489:lvgl/src/lv_widgets/lv_list.c **** 
 490:lvgl/src/lv_widgets/lv_list.c **** /**
 491:lvgl/src/lv_widgets/lv_list.c ****  * Get the number of buttons in the list
 492:lvgl/src/lv_widgets/lv_list.c ****  * @param list pointer to a list object
 493:lvgl/src/lv_widgets/lv_list.c ****  * @return the number of buttons in the list
 494:lvgl/src/lv_widgets/lv_list.c ****  */
 495:lvgl/src/lv_widgets/lv_list.c **** uint16_t lv_list_get_size(const lv_obj_t * list)
 496:lvgl/src/lv_widgets/lv_list.c **** {
 497:lvgl/src/lv_widgets/lv_list.c ****     LV_ASSERT_OBJ(list, LV_OBJX_NAME);
 498:lvgl/src/lv_widgets/lv_list.c **** 
 499:lvgl/src/lv_widgets/lv_list.c ****     uint16_t size = 0;
 500:lvgl/src/lv_widgets/lv_list.c ****     lv_obj_t * btn = lv_list_get_next_btn(list, NULL);
 501:lvgl/src/lv_widgets/lv_list.c ****     while(btn) {
 502:lvgl/src/lv_widgets/lv_list.c ****         size++;
 503:lvgl/src/lv_widgets/lv_list.c ****         btn = lv_list_get_next_btn(list, btn);
 504:lvgl/src/lv_widgets/lv_list.c ****     }
 505:lvgl/src/lv_widgets/lv_list.c ****     return size;
 506:lvgl/src/lv_widgets/lv_list.c **** }
 507:lvgl/src/lv_widgets/lv_list.c **** 
 508:lvgl/src/lv_widgets/lv_list.c **** #if LV_USE_GROUP
 509:lvgl/src/lv_widgets/lv_list.c **** /**
 510:lvgl/src/lv_widgets/lv_list.c ****  * Get the currently selected button
 511:lvgl/src/lv_widgets/lv_list.c ****  * @param list pointer to a list object
 512:lvgl/src/lv_widgets/lv_list.c ****  * @return pointer to the selected button
 513:lvgl/src/lv_widgets/lv_list.c ****  */
 514:lvgl/src/lv_widgets/lv_list.c **** lv_obj_t * lv_list_get_btn_selected(const lv_obj_t * list)
 515:lvgl/src/lv_widgets/lv_list.c **** {
 516:lvgl/src/lv_widgets/lv_list.c ****     LV_ASSERT_OBJ(list, LV_OBJX_NAME);
 517:lvgl/src/lv_widgets/lv_list.c **** 
 518:lvgl/src/lv_widgets/lv_list.c ****     lv_list_ext_t * ext = lv_obj_get_ext_attr(list);
 519:lvgl/src/lv_widgets/lv_list.c ****     return ext->act_sel_btn;
 520:lvgl/src/lv_widgets/lv_list.c **** }
 521:lvgl/src/lv_widgets/lv_list.c **** #endif
 522:lvgl/src/lv_widgets/lv_list.c **** 
 523:lvgl/src/lv_widgets/lv_list.c **** /**
 524:lvgl/src/lv_widgets/lv_list.c ****  * Get layout of a list
 525:lvgl/src/lv_widgets/lv_list.c ****  * @param list pointer to a list object
 526:lvgl/src/lv_widgets/lv_list.c ****  * @return layout of the list object
 527:lvgl/src/lv_widgets/lv_list.c ****  */
 528:lvgl/src/lv_widgets/lv_list.c **** lv_layout_t lv_list_get_layout(lv_obj_t * list)
 529:lvgl/src/lv_widgets/lv_list.c **** {
 530:lvgl/src/lv_widgets/lv_list.c ****     LV_ASSERT_OBJ(list, LV_OBJX_NAME);
 531:lvgl/src/lv_widgets/lv_list.c **** 
 532:lvgl/src/lv_widgets/lv_list.c ****     return lv_page_get_scrl_layout(list);
 533:lvgl/src/lv_widgets/lv_list.c **** }
 534:lvgl/src/lv_widgets/lv_list.c **** 
 535:lvgl/src/lv_widgets/lv_list.c **** /*=====================
 536:lvgl/src/lv_widgets/lv_list.c ****  * Other functions
 537:lvgl/src/lv_widgets/lv_list.c ****  *====================*/
 538:lvgl/src/lv_widgets/lv_list.c **** 
 539:lvgl/src/lv_widgets/lv_list.c **** /**
 540:lvgl/src/lv_widgets/lv_list.c ****  * Move the list elements up by one
 541:lvgl/src/lv_widgets/lv_list.c ****  * @param list pointer a to list object
 542:lvgl/src/lv_widgets/lv_list.c ****  */
 543:lvgl/src/lv_widgets/lv_list.c **** void lv_list_up(const lv_obj_t * list)
ARM GAS  D:\Temp\cc6WWuOg.s 			page 11


 544:lvgl/src/lv_widgets/lv_list.c **** {
 545:lvgl/src/lv_widgets/lv_list.c ****     LV_ASSERT_OBJ(list, LV_OBJX_NAME);
 546:lvgl/src/lv_widgets/lv_list.c **** 
 547:lvgl/src/lv_widgets/lv_list.c ****     /*Search the first list element which 'y' coordinate is below the parent
 548:lvgl/src/lv_widgets/lv_list.c ****      * and position the list to show this element on the bottom*/
 549:lvgl/src/lv_widgets/lv_list.c ****     lv_obj_t * scrl = lv_page_get_scrollable(list);
 550:lvgl/src/lv_widgets/lv_list.c ****     lv_obj_t * e;
 551:lvgl/src/lv_widgets/lv_list.c ****     lv_obj_t * e_prev = NULL;
 552:lvgl/src/lv_widgets/lv_list.c **** 
 553:lvgl/src/lv_widgets/lv_list.c ****     e                 = lv_list_get_prev_btn(list, NULL);
 554:lvgl/src/lv_widgets/lv_list.c ****     while(e != NULL) {
 555:lvgl/src/lv_widgets/lv_list.c ****         if(e->coords.y2 <= list->coords.y2) {
 556:lvgl/src/lv_widgets/lv_list.c ****             if(e_prev != NULL) {
 557:lvgl/src/lv_widgets/lv_list.c ****                 lv_coord_t new_y = lv_obj_get_height(list) - (lv_obj_get_y(e_prev) + lv_obj_get_hei
 558:lvgl/src/lv_widgets/lv_list.c ****                 if(lv_list_get_anim_time(list) == 0) {
 559:lvgl/src/lv_widgets/lv_list.c ****                     lv_obj_set_y(scrl, new_y);
 560:lvgl/src/lv_widgets/lv_list.c ****                 }
 561:lvgl/src/lv_widgets/lv_list.c ****                 else {
 562:lvgl/src/lv_widgets/lv_list.c **** #if LV_USE_ANIMATION
 563:lvgl/src/lv_widgets/lv_list.c ****                     lv_anim_t a;
 564:lvgl/src/lv_widgets/lv_list.c ****                     lv_anim_init(&a);
 565:lvgl/src/lv_widgets/lv_list.c ****                     lv_anim_set_var(&a, scrl);
 566:lvgl/src/lv_widgets/lv_list.c ****                     lv_anim_set_exec_cb(&a, (lv_anim_exec_xcb_t)lv_obj_set_y);
 567:lvgl/src/lv_widgets/lv_list.c ****                     lv_anim_set_values(&a, lv_obj_get_y(scrl), new_y);
 568:lvgl/src/lv_widgets/lv_list.c ****                     lv_anim_set_time(&a, LV_LIST_DEF_ANIM_TIME);
 569:lvgl/src/lv_widgets/lv_list.c ****                     lv_anim_start(&a);
 570:lvgl/src/lv_widgets/lv_list.c **** #endif
 571:lvgl/src/lv_widgets/lv_list.c ****                 }
 572:lvgl/src/lv_widgets/lv_list.c ****             }
 573:lvgl/src/lv_widgets/lv_list.c ****             break;
 574:lvgl/src/lv_widgets/lv_list.c ****         }
 575:lvgl/src/lv_widgets/lv_list.c ****         e_prev = e;
 576:lvgl/src/lv_widgets/lv_list.c ****         e      = lv_list_get_prev_btn(list, e);
 577:lvgl/src/lv_widgets/lv_list.c ****     }
 578:lvgl/src/lv_widgets/lv_list.c **** }
 579:lvgl/src/lv_widgets/lv_list.c **** 
 580:lvgl/src/lv_widgets/lv_list.c **** /**
 581:lvgl/src/lv_widgets/lv_list.c ****  * Move the list elements down by one
 582:lvgl/src/lv_widgets/lv_list.c ****  * @param list pointer to a list object
 583:lvgl/src/lv_widgets/lv_list.c ****  */
 584:lvgl/src/lv_widgets/lv_list.c **** void lv_list_down(const lv_obj_t * list)
 585:lvgl/src/lv_widgets/lv_list.c **** {
 586:lvgl/src/lv_widgets/lv_list.c ****     LV_ASSERT_OBJ(list, LV_OBJX_NAME);
 587:lvgl/src/lv_widgets/lv_list.c **** 
 588:lvgl/src/lv_widgets/lv_list.c ****     /*Search the first list element which 'y' coordinate is above the parent
 589:lvgl/src/lv_widgets/lv_list.c ****      * and position the list to show this element on the top*/
 590:lvgl/src/lv_widgets/lv_list.c ****     lv_obj_t * scrl = lv_page_get_scrollable(list);
 591:lvgl/src/lv_widgets/lv_list.c ****     lv_obj_t * e;
 592:lvgl/src/lv_widgets/lv_list.c ****     e = lv_list_get_prev_btn(list, NULL);
 593:lvgl/src/lv_widgets/lv_list.c ****     while(e != NULL) {
 594:lvgl/src/lv_widgets/lv_list.c ****         if(e->coords.y1 < list->coords.y1) {
 595:lvgl/src/lv_widgets/lv_list.c ****             lv_coord_t new_y = -lv_obj_get_y(e);
 596:lvgl/src/lv_widgets/lv_list.c ****             if(lv_list_get_anim_time(list) == 0) {
 597:lvgl/src/lv_widgets/lv_list.c ****                 lv_obj_set_y(scrl, new_y);
 598:lvgl/src/lv_widgets/lv_list.c ****             }
 599:lvgl/src/lv_widgets/lv_list.c ****             else {
 600:lvgl/src/lv_widgets/lv_list.c **** #if LV_USE_ANIMATION
ARM GAS  D:\Temp\cc6WWuOg.s 			page 12


 601:lvgl/src/lv_widgets/lv_list.c ****                 lv_anim_t a;
 602:lvgl/src/lv_widgets/lv_list.c ****                 lv_anim_init(&a);
 603:lvgl/src/lv_widgets/lv_list.c ****                 lv_anim_set_var(&a, scrl);
 604:lvgl/src/lv_widgets/lv_list.c ****                 lv_anim_set_exec_cb(&a, (lv_anim_exec_xcb_t)lv_obj_set_y);
 605:lvgl/src/lv_widgets/lv_list.c ****                 lv_anim_set_values(&a, lv_obj_get_y(scrl), new_y);
 606:lvgl/src/lv_widgets/lv_list.c ****                 lv_anim_set_time(&a, LV_LIST_DEF_ANIM_TIME);
 607:lvgl/src/lv_widgets/lv_list.c ****                 lv_anim_start(&a);
 608:lvgl/src/lv_widgets/lv_list.c **** #endif
 609:lvgl/src/lv_widgets/lv_list.c ****             }
 610:lvgl/src/lv_widgets/lv_list.c ****             break;
 611:lvgl/src/lv_widgets/lv_list.c ****         }
 612:lvgl/src/lv_widgets/lv_list.c ****         e = lv_list_get_prev_btn(list, e);
 613:lvgl/src/lv_widgets/lv_list.c ****     }
 614:lvgl/src/lv_widgets/lv_list.c **** }
 615:lvgl/src/lv_widgets/lv_list.c **** 
 616:lvgl/src/lv_widgets/lv_list.c **** /**
 617:lvgl/src/lv_widgets/lv_list.c ****  * Focus on a list button. It ensures that the button will be visible on the list.
 618:lvgl/src/lv_widgets/lv_list.c ****  * @param btn pointer to a list button to focus
 619:lvgl/src/lv_widgets/lv_list.c ****  * @param anim_en LV_ANIM_ON: scroll with animation, LV_ANOM_OFF: without animation
 620:lvgl/src/lv_widgets/lv_list.c ****  */
 621:lvgl/src/lv_widgets/lv_list.c **** void lv_list_focus(const lv_obj_t * btn, lv_anim_enable_t anim)
 622:lvgl/src/lv_widgets/lv_list.c **** {
 623:lvgl/src/lv_widgets/lv_list.c ****     LV_ASSERT_OBJ(btn, "");
 624:lvgl/src/lv_widgets/lv_list.c **** 
 625:lvgl/src/lv_widgets/lv_list.c **** #if LV_USE_ANIMATION == 0
 626:lvgl/src/lv_widgets/lv_list.c ****     anim = false;
 627:lvgl/src/lv_widgets/lv_list.c **** #endif
 628:lvgl/src/lv_widgets/lv_list.c **** 
 629:lvgl/src/lv_widgets/lv_list.c ****     lv_obj_t * list = lv_obj_get_parent(lv_obj_get_parent(btn));
 630:lvgl/src/lv_widgets/lv_list.c **** 
 631:lvgl/src/lv_widgets/lv_list.c ****     lv_page_focus(list, btn, anim == LV_ANIM_OFF ? 0 : lv_list_get_anim_time(list));
 632:lvgl/src/lv_widgets/lv_list.c **** }
 633:lvgl/src/lv_widgets/lv_list.c **** 
 634:lvgl/src/lv_widgets/lv_list.c **** /**********************
 635:lvgl/src/lv_widgets/lv_list.c ****  *   STATIC FUNCTIONS
 636:lvgl/src/lv_widgets/lv_list.c ****  **********************/
 637:lvgl/src/lv_widgets/lv_list.c **** 
 638:lvgl/src/lv_widgets/lv_list.c **** /**
 639:lvgl/src/lv_widgets/lv_list.c ****  * Signal function of the list
 640:lvgl/src/lv_widgets/lv_list.c ****  * @param list pointer to a list object
 641:lvgl/src/lv_widgets/lv_list.c ****  * @param sign a signal type from lv_signal_t enum
 642:lvgl/src/lv_widgets/lv_list.c ****  * @param param pointer to a signal specific variable
 643:lvgl/src/lv_widgets/lv_list.c ****  * @return LV_RES_OK: the object is not deleted in the function; LV_RES_INV: the object is deleted
 644:lvgl/src/lv_widgets/lv_list.c ****  */
 645:lvgl/src/lv_widgets/lv_list.c **** static lv_res_t lv_list_signal(lv_obj_t * list, lv_signal_t sign, void * param)
 646:lvgl/src/lv_widgets/lv_list.c **** {
 647:lvgl/src/lv_widgets/lv_list.c ****     lv_res_t res;
 648:lvgl/src/lv_widgets/lv_list.c ****     if(sign == LV_SIGNAL_GET_STYLE) {
 649:lvgl/src/lv_widgets/lv_list.c ****         lv_get_style_info_t * info = param;
 650:lvgl/src/lv_widgets/lv_list.c ****         info->result = lv_list_get_style(list, info->part);
 651:lvgl/src/lv_widgets/lv_list.c ****         if(info->result != NULL) return LV_RES_OK;
 652:lvgl/src/lv_widgets/lv_list.c ****         else return ancestor_page_signal(list, sign, param);
 653:lvgl/src/lv_widgets/lv_list.c ****     }
 654:lvgl/src/lv_widgets/lv_list.c **** 
 655:lvgl/src/lv_widgets/lv_list.c ****     /* Include the ancient signal function */
 656:lvgl/src/lv_widgets/lv_list.c ****     res = ancestor_page_signal(list, sign, param);
 657:lvgl/src/lv_widgets/lv_list.c ****     if(res != LV_RES_OK) return res;
ARM GAS  D:\Temp\cc6WWuOg.s 			page 13


 658:lvgl/src/lv_widgets/lv_list.c ****     if(sign == LV_SIGNAL_GET_TYPE) return lv_obj_handle_get_type_signal(param, LV_OBJX_NAME);
 659:lvgl/src/lv_widgets/lv_list.c **** 
 660:lvgl/src/lv_widgets/lv_list.c ****     if(sign == LV_SIGNAL_RELEASED || sign == LV_SIGNAL_PRESSED || sign == LV_SIGNAL_PRESSING ||
 661:lvgl/src/lv_widgets/lv_list.c ****        sign == LV_SIGNAL_LONG_PRESS || sign == LV_SIGNAL_LONG_PRESS_REP) {
 662:lvgl/src/lv_widgets/lv_list.c **** #if LV_USE_GROUP
 663:lvgl/src/lv_widgets/lv_list.c ****         /*If pressed/released etc by a KEYPAD or ENCODER delegate signal and events to the button*/
 664:lvgl/src/lv_widgets/lv_list.c ****         lv_indev_t * indev         = lv_indev_get_act();
 665:lvgl/src/lv_widgets/lv_list.c ****         lv_indev_type_t indev_type = lv_indev_get_type(indev);
 666:lvgl/src/lv_widgets/lv_list.c ****         if(indev_type == LV_INDEV_TYPE_KEYPAD ||
 667:lvgl/src/lv_widgets/lv_list.c ****            (indev_type == LV_INDEV_TYPE_ENCODER && lv_group_get_editing(lv_obj_get_group(list)))) {
 668:lvgl/src/lv_widgets/lv_list.c ****             lv_list_ext_t * ext = lv_obj_get_ext_attr(list);
 669:lvgl/src/lv_widgets/lv_list.c **** 
 670:lvgl/src/lv_widgets/lv_list.c ****             /*The page receives the key presses so the events should be propagated to the selected
 671:lvgl/src/lv_widgets/lv_list.c ****              * button*/
 672:lvgl/src/lv_widgets/lv_list.c ****             if(ext->act_sel_btn) {
 673:lvgl/src/lv_widgets/lv_list.c ****                 res = lv_signal_send(ext->act_sel_btn, sign, param);
 674:lvgl/src/lv_widgets/lv_list.c ****                 if(res != LV_RES_OK) return res;
 675:lvgl/src/lv_widgets/lv_list.c ****                 if(sign == LV_SIGNAL_PRESSED) {
 676:lvgl/src/lv_widgets/lv_list.c ****                     res = lv_event_send(ext->act_sel_btn, LV_EVENT_PRESSED, NULL);
 677:lvgl/src/lv_widgets/lv_list.c ****                     if(res != LV_RES_OK) return res;
 678:lvgl/src/lv_widgets/lv_list.c ****                 }
 679:lvgl/src/lv_widgets/lv_list.c ****                 else if(sign == LV_SIGNAL_PRESSING) {
 680:lvgl/src/lv_widgets/lv_list.c ****                     res = lv_event_send(ext->act_sel_btn, LV_EVENT_PRESSING, NULL);
 681:lvgl/src/lv_widgets/lv_list.c ****                     if(res != LV_RES_OK) return res;
 682:lvgl/src/lv_widgets/lv_list.c ****                 }
 683:lvgl/src/lv_widgets/lv_list.c ****                 else if(sign == LV_SIGNAL_LONG_PRESS) {
 684:lvgl/src/lv_widgets/lv_list.c ****                     res = lv_event_send(ext->act_sel_btn, LV_EVENT_LONG_PRESSED, NULL);
 685:lvgl/src/lv_widgets/lv_list.c ****                     if(res != LV_RES_OK) return res;
 686:lvgl/src/lv_widgets/lv_list.c ****                 }
 687:lvgl/src/lv_widgets/lv_list.c ****                 else if(sign == LV_SIGNAL_LONG_PRESS_REP) {
 688:lvgl/src/lv_widgets/lv_list.c ****                     res = lv_event_send(ext->act_sel_btn, LV_EVENT_LONG_PRESSED_REPEAT, NULL);
 689:lvgl/src/lv_widgets/lv_list.c ****                     if(res != LV_RES_OK) return res;
 690:lvgl/src/lv_widgets/lv_list.c ****                 }
 691:lvgl/src/lv_widgets/lv_list.c ****                 else if(sign == LV_SIGNAL_RELEASED) {
 692:lvgl/src/lv_widgets/lv_list.c ****                     if(indev->proc.long_pr_sent == 0) {
 693:lvgl/src/lv_widgets/lv_list.c ****                         res = lv_event_send(ext->act_sel_btn, LV_EVENT_SHORT_CLICKED, NULL);
 694:lvgl/src/lv_widgets/lv_list.c ****                         if(res != LV_RES_OK) return res;
 695:lvgl/src/lv_widgets/lv_list.c ****                     }
 696:lvgl/src/lv_widgets/lv_list.c ****                     if(lv_indev_is_dragging(indev) == false) {
 697:lvgl/src/lv_widgets/lv_list.c ****                         res = lv_event_send(ext->act_sel_btn, LV_EVENT_CLICKED, NULL);
 698:lvgl/src/lv_widgets/lv_list.c ****                         if(res != LV_RES_OK) return res;
 699:lvgl/src/lv_widgets/lv_list.c ****                     }
 700:lvgl/src/lv_widgets/lv_list.c **** 
 701:lvgl/src/lv_widgets/lv_list.c ****                     res = lv_event_send(ext->act_sel_btn, LV_EVENT_RELEASED, NULL);
 702:lvgl/src/lv_widgets/lv_list.c ****                     if(res != LV_RES_OK) return res;
 703:lvgl/src/lv_widgets/lv_list.c ****                 }
 704:lvgl/src/lv_widgets/lv_list.c ****             }
 705:lvgl/src/lv_widgets/lv_list.c ****         }
 706:lvgl/src/lv_widgets/lv_list.c **** #endif
 707:lvgl/src/lv_widgets/lv_list.c ****     }
 708:lvgl/src/lv_widgets/lv_list.c ****     else if(sign == LV_SIGNAL_FOCUS) {
 709:lvgl/src/lv_widgets/lv_list.c **** 
 710:lvgl/src/lv_widgets/lv_list.c **** #if LV_USE_GROUP
 711:lvgl/src/lv_widgets/lv_list.c ****         lv_indev_type_t indev_type = lv_indev_get_type(lv_indev_get_act());
 712:lvgl/src/lv_widgets/lv_list.c ****         /*With ENCODER focus the button only in edit mode*/
 713:lvgl/src/lv_widgets/lv_list.c ****         lv_group_t * g = lv_obj_get_group(list);
 714:lvgl/src/lv_widgets/lv_list.c ****         if((indev_type == LV_INDEV_TYPE_KEYPAD) ||
ARM GAS  D:\Temp\cc6WWuOg.s 			page 14


 715:lvgl/src/lv_widgets/lv_list.c ****            (indev_type == LV_INDEV_TYPE_ENCODER && lv_group_get_editing(g))) {
 716:lvgl/src/lv_widgets/lv_list.c ****             lv_list_ext_t * ext = lv_obj_get_ext_attr(list);
 717:lvgl/src/lv_widgets/lv_list.c ****             /* Select the last used button, or use the first no last button */
 718:lvgl/src/lv_widgets/lv_list.c ****             if(ext->last_sel_btn) lv_list_focus_btn(list, ext->last_sel_btn);
 719:lvgl/src/lv_widgets/lv_list.c ****             else lv_list_focus_btn(list, lv_list_get_next_btn(list, NULL));
 720:lvgl/src/lv_widgets/lv_list.c ****         }
 721:lvgl/src/lv_widgets/lv_list.c ****         if(indev_type == LV_INDEV_TYPE_ENCODER && lv_group_get_editing(g) == false) {
 722:lvgl/src/lv_widgets/lv_list.c ****             lv_list_ext_t * ext = lv_obj_get_ext_attr(list);
 723:lvgl/src/lv_widgets/lv_list.c ****             if(ext->act_sel_btn) lv_obj_clear_state(ext->act_sel_btn, LV_STATE_PRESSED);
 724:lvgl/src/lv_widgets/lv_list.c ****             if(ext->last_sel_btn) lv_obj_clear_state(ext->last_sel_btn, LV_STATE_PRESSED);
 725:lvgl/src/lv_widgets/lv_list.c ****         }
 726:lvgl/src/lv_widgets/lv_list.c **** #endif
 727:lvgl/src/lv_widgets/lv_list.c ****     }
 728:lvgl/src/lv_widgets/lv_list.c ****     else if(sign == LV_SIGNAL_DEFOCUS) {
 729:lvgl/src/lv_widgets/lv_list.c **** 
 730:lvgl/src/lv_widgets/lv_list.c **** #if LV_USE_GROUP
 731:lvgl/src/lv_widgets/lv_list.c ****         /*De-select the selected btn*/
 732:lvgl/src/lv_widgets/lv_list.c ****         lv_list_focus_btn(list, NULL);
 733:lvgl/src/lv_widgets/lv_list.c ****         lv_list_ext_t * ext = lv_obj_get_ext_attr(list);
 734:lvgl/src/lv_widgets/lv_list.c ****         ext->act_sel_btn   = NULL;
 735:lvgl/src/lv_widgets/lv_list.c **** #endif
 736:lvgl/src/lv_widgets/lv_list.c ****     }
 737:lvgl/src/lv_widgets/lv_list.c ****     else if(sign == LV_SIGNAL_GET_EDITABLE) {
 738:lvgl/src/lv_widgets/lv_list.c **** #if LV_USE_GROUP
 739:lvgl/src/lv_widgets/lv_list.c ****         bool * editable = (bool *)param;
 740:lvgl/src/lv_widgets/lv_list.c ****         *editable       = true;
 741:lvgl/src/lv_widgets/lv_list.c **** #endif
 742:lvgl/src/lv_widgets/lv_list.c ****     }
 743:lvgl/src/lv_widgets/lv_list.c ****     else if(sign == LV_SIGNAL_CONTROL) {
 744:lvgl/src/lv_widgets/lv_list.c **** 
 745:lvgl/src/lv_widgets/lv_list.c **** #if LV_USE_GROUP
 746:lvgl/src/lv_widgets/lv_list.c ****         char c = *((char *)param);
 747:lvgl/src/lv_widgets/lv_list.c ****         if(c == LV_KEY_RIGHT || c == LV_KEY_DOWN) {
 748:lvgl/src/lv_widgets/lv_list.c ****             lv_list_ext_t * ext = lv_obj_get_ext_attr(list);
 749:lvgl/src/lv_widgets/lv_list.c ****             /*If there is a valid selected button the make the previous selected*/
 750:lvgl/src/lv_widgets/lv_list.c ****             if(ext->act_sel_btn) {
 751:lvgl/src/lv_widgets/lv_list.c ****                 lv_obj_t * btn_prev = lv_list_get_next_btn(list, ext->act_sel_btn);
 752:lvgl/src/lv_widgets/lv_list.c ****                 if(btn_prev) lv_list_focus_btn(list, btn_prev);
 753:lvgl/src/lv_widgets/lv_list.c ****             }
 754:lvgl/src/lv_widgets/lv_list.c ****             /*If there is no selected button the make the first selected*/
 755:lvgl/src/lv_widgets/lv_list.c ****             else {
 756:lvgl/src/lv_widgets/lv_list.c ****                 lv_obj_t * btn = lv_list_get_next_btn(list, NULL);
 757:lvgl/src/lv_widgets/lv_list.c ****                 if(btn)
 758:lvgl/src/lv_widgets/lv_list.c ****                     lv_list_focus_btn(list,
 759:lvgl/src/lv_widgets/lv_list.c ****                                       btn); /*If there are no buttons on the list then there is no 
 760:lvgl/src/lv_widgets/lv_list.c ****             }
 761:lvgl/src/lv_widgets/lv_list.c ****         }
 762:lvgl/src/lv_widgets/lv_list.c ****         else if(c == LV_KEY_LEFT || c == LV_KEY_UP) {
 763:lvgl/src/lv_widgets/lv_list.c ****             lv_list_ext_t * ext = lv_obj_get_ext_attr(list);
 764:lvgl/src/lv_widgets/lv_list.c ****             /*If there is a valid selected button the make the next selected*/
 765:lvgl/src/lv_widgets/lv_list.c ****             if(ext->act_sel_btn != NULL) {
 766:lvgl/src/lv_widgets/lv_list.c ****                 lv_obj_t * btn_next = lv_list_get_prev_btn(list, ext->act_sel_btn);
 767:lvgl/src/lv_widgets/lv_list.c ****                 if(btn_next) lv_list_focus_btn(list, btn_next);
 768:lvgl/src/lv_widgets/lv_list.c ****             }
 769:lvgl/src/lv_widgets/lv_list.c ****             /*If there is no selected button the make the first selected*/
 770:lvgl/src/lv_widgets/lv_list.c ****             else {
 771:lvgl/src/lv_widgets/lv_list.c ****                 lv_obj_t * btn = lv_list_get_next_btn(list, NULL);
ARM GAS  D:\Temp\cc6WWuOg.s 			page 15


 772:lvgl/src/lv_widgets/lv_list.c ****                 if(btn) lv_list_focus_btn(list, btn);
 773:lvgl/src/lv_widgets/lv_list.c ****             }
 774:lvgl/src/lv_widgets/lv_list.c ****         }
 775:lvgl/src/lv_widgets/lv_list.c ****         else if(c == LV_KEY_ESC) {
 776:lvgl/src/lv_widgets/lv_list.c ****             lv_list_ext_t * ext = lv_obj_get_ext_attr(list);
 777:lvgl/src/lv_widgets/lv_list.c ****             /* Handle ESC/Cancel event */
 778:lvgl/src/lv_widgets/lv_list.c ****             res = lv_event_send(ext->act_sel_btn, LV_EVENT_CANCEL, NULL);
 779:lvgl/src/lv_widgets/lv_list.c ****         }
 780:lvgl/src/lv_widgets/lv_list.c **** #endif
 781:lvgl/src/lv_widgets/lv_list.c ****     }
 782:lvgl/src/lv_widgets/lv_list.c ****     return res;
 783:lvgl/src/lv_widgets/lv_list.c **** }
 784:lvgl/src/lv_widgets/lv_list.c **** 
 785:lvgl/src/lv_widgets/lv_list.c **** /**
 786:lvgl/src/lv_widgets/lv_list.c ****  * Signal function of the list buttons
 787:lvgl/src/lv_widgets/lv_list.c ****  * @param btn pointer to a button on the list
 788:lvgl/src/lv_widgets/lv_list.c ****  * @param sign a signal type from lv_signal_t enum
 789:lvgl/src/lv_widgets/lv_list.c ****  * @param param pointer to a signal specific variable
 790:lvgl/src/lv_widgets/lv_list.c ****  * @return LV_RES_OK: the object is not deleted in the function; LV_RES_INV: the object is deleted
 791:lvgl/src/lv_widgets/lv_list.c ****  */
 792:lvgl/src/lv_widgets/lv_list.c **** static lv_res_t lv_list_btn_signal(lv_obj_t * btn, lv_signal_t sign, void * param)
 793:lvgl/src/lv_widgets/lv_list.c **** {
 794:lvgl/src/lv_widgets/lv_list.c ****     lv_res_t res;
 795:lvgl/src/lv_widgets/lv_list.c **** 
 796:lvgl/src/lv_widgets/lv_list.c ****     /* Include the ancient signal function */
 797:lvgl/src/lv_widgets/lv_list.c ****     res = ancestor_btn_signal(btn, sign, param);
 798:lvgl/src/lv_widgets/lv_list.c ****     if(res != LV_RES_OK) return res;
 799:lvgl/src/lv_widgets/lv_list.c ****     if(sign == LV_SIGNAL_GET_TYPE) return lv_obj_handle_get_type_signal(param, "");
 800:lvgl/src/lv_widgets/lv_list.c **** 
 801:lvgl/src/lv_widgets/lv_list.c ****     if((sign == LV_SIGNAL_COORD_CHG && (lv_obj_get_width(btn) != lv_area_get_width(param) ||
 802:lvgl/src/lv_widgets/lv_list.c ****                                         lv_obj_get_height(btn) != lv_area_get_height(param))) ||
 803:lvgl/src/lv_widgets/lv_list.c ****        sign == LV_SIGNAL_STYLE_CHG) {
 804:lvgl/src/lv_widgets/lv_list.c ****         lv_obj_t * label = lv_list_get_btn_label(btn);
 805:lvgl/src/lv_widgets/lv_list.c ****         if(label) {
 806:lvgl/src/lv_widgets/lv_list.c ****             const lv_font_t * font = lv_obj_get_style_text_font(label, LV_LABEL_PART_MAIN);
 807:lvgl/src/lv_widgets/lv_list.c ****             lv_coord_t font_h = lv_font_get_line_height(font);
 808:lvgl/src/lv_widgets/lv_list.c ****             if(lv_obj_get_base_dir(btn) == LV_BIDI_DIR_RTL) {
 809:lvgl/src/lv_widgets/lv_list.c ****                 lv_coord_t pad = lv_obj_get_style_pad_left(btn, LV_BTN_PART_MAIN);
 810:lvgl/src/lv_widgets/lv_list.c ****                 lv_obj_set_size(label, label->coords.x2 - btn->coords.x1 - pad, font_h);
 811:lvgl/src/lv_widgets/lv_list.c ****             }
 812:lvgl/src/lv_widgets/lv_list.c ****             else {
 813:lvgl/src/lv_widgets/lv_list.c ****                 lv_coord_t pad = lv_obj_get_style_pad_right(btn, LV_BTN_PART_MAIN);
 814:lvgl/src/lv_widgets/lv_list.c ****                 lv_obj_set_size(label, btn->coords.x2 - label->coords.x1 - pad + 1, font_h);
 815:lvgl/src/lv_widgets/lv_list.c ****             }
 816:lvgl/src/lv_widgets/lv_list.c ****         }
 817:lvgl/src/lv_widgets/lv_list.c ****     }
 818:lvgl/src/lv_widgets/lv_list.c ****     else if(sign == LV_SIGNAL_RELEASED) {
 819:lvgl/src/lv_widgets/lv_list.c ****         if(lv_indev_is_dragging(lv_indev_get_act()) == false) {
 820:lvgl/src/lv_widgets/lv_list.c ****             lv_obj_t * list = lv_obj_get_parent(lv_obj_get_parent(btn));
 821:lvgl/src/lv_widgets/lv_list.c ****             lv_list_focus_btn(list, btn);
 822:lvgl/src/lv_widgets/lv_list.c **** #if LV_USE_GROUP
 823:lvgl/src/lv_widgets/lv_list.c ****             if(lv_obj_get_group(list)) {
 824:lvgl/src/lv_widgets/lv_list.c ****                 lv_group_focus_obj(list);
 825:lvgl/src/lv_widgets/lv_list.c ****             }
 826:lvgl/src/lv_widgets/lv_list.c **** #endif
 827:lvgl/src/lv_widgets/lv_list.c ****         }
 828:lvgl/src/lv_widgets/lv_list.c ****     }
ARM GAS  D:\Temp\cc6WWuOg.s 			page 16


 829:lvgl/src/lv_widgets/lv_list.c ****     else if(sign == LV_SIGNAL_CLEANUP) {
 830:lvgl/src/lv_widgets/lv_list.c **** #if LV_USE_GROUP
 831:lvgl/src/lv_widgets/lv_list.c ****         lv_obj_t * list = lv_obj_get_parent(lv_obj_get_parent(btn));
 832:lvgl/src/lv_widgets/lv_list.c ****         lv_list_ext_t * ext = lv_obj_get_ext_attr(list);
 833:lvgl/src/lv_widgets/lv_list.c ****         lv_obj_t * sel  = lv_list_get_btn_selected(list);
 834:lvgl/src/lv_widgets/lv_list.c ****         if(sel == btn) lv_list_focus_btn(list, lv_list_get_next_btn(list, btn));
 835:lvgl/src/lv_widgets/lv_list.c ****         if(ext->last_sel_btn == btn) ext->last_sel_btn = NULL;
 836:lvgl/src/lv_widgets/lv_list.c **** #endif
 837:lvgl/src/lv_widgets/lv_list.c ****     }
 838:lvgl/src/lv_widgets/lv_list.c **** 
 839:lvgl/src/lv_widgets/lv_list.c ****     return res;
 840:lvgl/src/lv_widgets/lv_list.c **** }
 841:lvgl/src/lv_widgets/lv_list.c **** 
 842:lvgl/src/lv_widgets/lv_list.c **** /**
 843:lvgl/src/lv_widgets/lv_list.c ****  * Get the style descriptor of a part of the object
 844:lvgl/src/lv_widgets/lv_list.c ****  * @param list pointer the object
 845:lvgl/src/lv_widgets/lv_list.c ****  * @param part the part from `lv_page_list_t`. (LV_LIST_PART_...)
 846:lvgl/src/lv_widgets/lv_list.c ****  * @return pointer to the style descriptor of the specified part
 847:lvgl/src/lv_widgets/lv_list.c ****  */
 848:lvgl/src/lv_widgets/lv_list.c **** static lv_style_list_t * lv_list_get_style(lv_obj_t * list, uint8_t part)
 849:lvgl/src/lv_widgets/lv_list.c **** {
  29              		.loc 1 849 1 view -0
  30              		.cfi_startproc
  31              		@ args = 0, pretend = 0, frame = 0
  32              		@ frame_needed = 0, uses_anonymous_args = 0
  33              		.loc 1 849 1 is_stmt 0 view .LVU1
  34 0000 38B5     		push	{r3, r4, r5, lr}
  35              	.LCFI0:
  36              		.cfi_def_cfa_offset 16
  37              		.cfi_offset 3, -16
  38              		.cfi_offset 4, -12
  39              		.cfi_offset 5, -8
  40              		.cfi_offset 14, -4
  41 0002 0546     		mov	r5, r0
  42 0004 0C46     		mov	r4, r1
 850:lvgl/src/lv_widgets/lv_list.c ****     LV_ASSERT_OBJ(list, LV_OBJX_NAME);
  43              		.loc 1 850 5 is_stmt 1 view .LVU2
  44              		.loc 1 850 5 view .LVU3
  45 0006 FFF7FEFF 		bl	lv_debug_check_null
  46              	.LVL1:
  47              		.loc 1 850 5 is_stmt 0 view .LVU4
  48 000a 28B9     		cbnz	r0, .L2
  49              		.loc 1 850 5 is_stmt 1 discriminator 1 view .LVU5
  50              		.loc 1 850 5 discriminator 1 view .LVU6
  51 000c 2A46     		mov	r2, r5
  52 000e 0023     		movs	r3, #0
  53 0010 0D48     		ldr	r0, .L10
  54 0012 FFF7FEFF 		bl	lv_debug_log_error
  55              	.LVL2:
  56              	.L3:
  57              		.loc 1 850 5 discriminator 1 view .LVU7
  58              		.loc 1 850 5 discriminator 1 view .LVU8
  59 0016 FEE7     		b	.L3
  60              	.L2:
  61              		.loc 1 850 38 discriminator 2 view .LVU9
 851:lvgl/src/lv_widgets/lv_list.c **** 
 852:lvgl/src/lv_widgets/lv_list.c ****     lv_list_ext_t * ext = lv_obj_get_ext_attr(list);
ARM GAS  D:\Temp\cc6WWuOg.s 			page 17


  62              		.loc 1 852 5 discriminator 2 view .LVU10
  63              		.loc 1 852 27 is_stmt 0 discriminator 2 view .LVU11
  64 0018 2846     		mov	r0, r5
  65 001a FFF7FEFF 		bl	lv_obj_get_ext_attr
  66              	.LVL3:
 853:lvgl/src/lv_widgets/lv_list.c ****     lv_style_list_t * style_dsc_p;
  67              		.loc 1 853 5 is_stmt 1 discriminator 2 view .LVU12
 854:lvgl/src/lv_widgets/lv_list.c **** 
 855:lvgl/src/lv_widgets/lv_list.c ****     switch(part) {
  68              		.loc 1 855 5 discriminator 2 view .LVU13
  69 001e 012C     		cmp	r4, #1
  70 0020 0DD0     		beq	.L4
  71              		.loc 1 855 5 is_stmt 0 view .LVU14
  72 0022 63B2     		sxtb	r3, r4
  73 0024 2BB1     		cbz	r3, .L5
  74 0026 022C     		cmp	r4, #2
  75 0028 0BD0     		beq	.L6
  76 002a 402C     		cmp	r4, #64
  77 002c 04D0     		beq	.L7
 856:lvgl/src/lv_widgets/lv_list.c ****         case LV_LIST_PART_BG:
 857:lvgl/src/lv_widgets/lv_list.c ****             style_dsc_p = &list->style_list;
 858:lvgl/src/lv_widgets/lv_list.c ****             break;
 859:lvgl/src/lv_widgets/lv_list.c ****         case LV_LIST_PART_SCROLLABLE:
 860:lvgl/src/lv_widgets/lv_list.c ****             style_dsc_p = &ext->page.scrl->style_list;
 861:lvgl/src/lv_widgets/lv_list.c ****             break;
 862:lvgl/src/lv_widgets/lv_list.c ****         case LV_LIST_PART_SCROLLBAR:
 863:lvgl/src/lv_widgets/lv_list.c ****             style_dsc_p = &ext->page.scrlbar.style;
 864:lvgl/src/lv_widgets/lv_list.c ****             break;
 865:lvgl/src/lv_widgets/lv_list.c **** #if LV_USE_ANIMATION
 866:lvgl/src/lv_widgets/lv_list.c ****         case LV_LIST_PART_EDGE_FLASH:
 867:lvgl/src/lv_widgets/lv_list.c ****             style_dsc_p = &ext->page.edge_flash.style;
 868:lvgl/src/lv_widgets/lv_list.c ****             break;
 869:lvgl/src/lv_widgets/lv_list.c **** #endif
 870:lvgl/src/lv_widgets/lv_list.c ****         default:
 871:lvgl/src/lv_widgets/lv_list.c ****             style_dsc_p = NULL;
  78              		.loc 1 871 25 view .LVU15
  79 002e 0020     		movs	r0, #0
  80              	.LVL4:
  81              	.L1:
 872:lvgl/src/lv_widgets/lv_list.c ****     }
 873:lvgl/src/lv_widgets/lv_list.c **** 
 874:lvgl/src/lv_widgets/lv_list.c ****     return style_dsc_p;
 875:lvgl/src/lv_widgets/lv_list.c **** }
  82              		.loc 1 875 1 view .LVU16
  83 0030 38BD     		pop	{r3, r4, r5, pc}
  84              	.LVL5:
  85              	.L5:
 857:lvgl/src/lv_widgets/lv_list.c ****             break;
  86              		.loc 1 857 13 is_stmt 1 view .LVU17
 857:lvgl/src/lv_widgets/lv_list.c ****             break;
  87              		.loc 1 857 25 is_stmt 0 view .LVU18
  88 0032 05F12800 		add	r0, r5, #40
  89              	.LVL6:
 858:lvgl/src/lv_widgets/lv_list.c ****         case LV_LIST_PART_SCROLLABLE:
  90              		.loc 1 858 13 is_stmt 1 view .LVU19
  91 0036 FBE7     		b	.L1
  92              	.LVL7:
ARM GAS  D:\Temp\cc6WWuOg.s 			page 18


  93              	.L7:
 860:lvgl/src/lv_widgets/lv_list.c ****             break;
  94              		.loc 1 860 13 view .LVU20
 860:lvgl/src/lv_widgets/lv_list.c ****             break;
  95              		.loc 1 860 37 is_stmt 0 view .LVU21
  96 0038 4068     		ldr	r0, [r0, #4]
  97              	.LVL8:
 860:lvgl/src/lv_widgets/lv_list.c ****             break;
  98              		.loc 1 860 25 view .LVU22
  99 003a 2830     		adds	r0, r0, #40
 100              	.LVL9:
 861:lvgl/src/lv_widgets/lv_list.c ****         case LV_LIST_PART_SCROLLBAR:
 101              		.loc 1 861 13 is_stmt 1 view .LVU23
 102 003c F8E7     		b	.L1
 103              	.LVL10:
 104              	.L4:
 863:lvgl/src/lv_widgets/lv_list.c ****             break;
 105              		.loc 1 863 13 view .LVU24
 863:lvgl/src/lv_widgets/lv_list.c ****             break;
 106              		.loc 1 863 25 is_stmt 0 view .LVU25
 107 003e 0830     		adds	r0, r0, #8
 108              	.LVL11:
 864:lvgl/src/lv_widgets/lv_list.c **** #if LV_USE_ANIMATION
 109              		.loc 1 864 13 is_stmt 1 view .LVU26
 110 0040 F6E7     		b	.L1
 111              	.LVL12:
 112              	.L6:
 867:lvgl/src/lv_widgets/lv_list.c ****             break;
 113              		.loc 1 867 13 view .LVU27
 867:lvgl/src/lv_widgets/lv_list.c ****             break;
 114              		.loc 1 867 25 is_stmt 0 view .LVU28
 115 0042 2830     		adds	r0, r0, #40
 116              	.LVL13:
 868:lvgl/src/lv_widgets/lv_list.c **** #endif
 117              		.loc 1 868 13 is_stmt 1 view .LVU29
 874:lvgl/src/lv_widgets/lv_list.c **** }
 118              		.loc 1 874 5 view .LVU30
 874:lvgl/src/lv_widgets/lv_list.c **** }
 119              		.loc 1 874 12 is_stmt 0 view .LVU31
 120 0044 F4E7     		b	.L1
 121              	.L11:
 122 0046 00BF     		.align	2
 123              	.L10:
 124 0048 00000000 		.word	.LC0
 125              		.cfi_endproc
 126              	.LFE510:
 128              		.section	.text.lv_list_is_list_label,"ax",%progbits
 129              		.align	1
 130              		.syntax unified
 131              		.thumb
 132              		.thumb_func
 133              		.fpu fpv4-sp-d16
 135              	lv_list_is_list_label:
 136              	.LVL14:
 137              	.LFB512:
 876:lvgl/src/lv_widgets/lv_list.c **** 
 877:lvgl/src/lv_widgets/lv_list.c **** /**
ARM GAS  D:\Temp\cc6WWuOg.s 			page 19


 878:lvgl/src/lv_widgets/lv_list.c ****  * Check if this is really a list button or another object.
 879:lvgl/src/lv_widgets/lv_list.c ****  * @param list_btn List button
 880:lvgl/src/lv_widgets/lv_list.c ****  */
 881:lvgl/src/lv_widgets/lv_list.c **** static bool lv_list_is_list_btn(lv_obj_t * list_btn)
 882:lvgl/src/lv_widgets/lv_list.c **** {
 883:lvgl/src/lv_widgets/lv_list.c ****     lv_obj_type_t type;
 884:lvgl/src/lv_widgets/lv_list.c **** 
 885:lvgl/src/lv_widgets/lv_list.c ****     lv_obj_get_type(list_btn, &type);
 886:lvgl/src/lv_widgets/lv_list.c ****     uint8_t cnt;
 887:lvgl/src/lv_widgets/lv_list.c ****     for(cnt = 0; cnt < LV_MAX_ANCESTOR_NUM; cnt++) {
 888:lvgl/src/lv_widgets/lv_list.c ****         if(type.type[cnt] == NULL) break;
 889:lvgl/src/lv_widgets/lv_list.c ****         if(!strcmp(type.type[cnt], "lv_btn")) return true;
 890:lvgl/src/lv_widgets/lv_list.c ****     }
 891:lvgl/src/lv_widgets/lv_list.c ****     return false;
 892:lvgl/src/lv_widgets/lv_list.c **** }
 893:lvgl/src/lv_widgets/lv_list.c **** 
 894:lvgl/src/lv_widgets/lv_list.c **** /**
 895:lvgl/src/lv_widgets/lv_list.c ****  * Check if this is really a list label or another object.
 896:lvgl/src/lv_widgets/lv_list.c ****  * @param list_label List label
 897:lvgl/src/lv_widgets/lv_list.c ****  */
 898:lvgl/src/lv_widgets/lv_list.c **** static bool lv_list_is_list_label(lv_obj_t * list_label)
 899:lvgl/src/lv_widgets/lv_list.c **** {
 138              		.loc 1 899 1 is_stmt 1 view -0
 139              		.cfi_startproc
 140              		@ args = 0, pretend = 0, frame = 32
 141              		@ frame_needed = 0, uses_anonymous_args = 0
 142              		.loc 1 899 1 is_stmt 0 view .LVU33
 143 0000 10B5     		push	{r4, lr}
 144              	.LCFI1:
 145              		.cfi_def_cfa_offset 8
 146              		.cfi_offset 4, -8
 147              		.cfi_offset 14, -4
 148 0002 88B0     		sub	sp, sp, #32
 149              	.LCFI2:
 150              		.cfi_def_cfa_offset 40
 900:lvgl/src/lv_widgets/lv_list.c ****     lv_obj_type_t type;
 151              		.loc 1 900 5 is_stmt 1 view .LVU34
 901:lvgl/src/lv_widgets/lv_list.c **** 
 902:lvgl/src/lv_widgets/lv_list.c ****     lv_obj_get_type(list_label, &type);
 152              		.loc 1 902 5 view .LVU35
 153 0004 6946     		mov	r1, sp
 154 0006 FFF7FEFF 		bl	lv_obj_get_type
 155              	.LVL15:
 903:lvgl/src/lv_widgets/lv_list.c ****     uint8_t cnt;
 156              		.loc 1 903 5 view .LVU36
 904:lvgl/src/lv_widgets/lv_list.c ****     for(cnt = 0; cnt < LV_MAX_ANCESTOR_NUM; cnt++) {
 157              		.loc 1 904 5 view .LVU37
 158              		.loc 1 904 13 is_stmt 0 view .LVU38
 159 000a 0024     		movs	r4, #0
 160              		.loc 1 904 5 view .LVU39
 161 000c 01E0     		b	.L13
 162              	.LVL16:
 163              	.L20:
 164              		.loc 1 904 48 discriminator 2 view .LVU40
 165 000e 0134     		adds	r4, r4, #1
 166              	.LVL17:
 167              		.loc 1 904 48 discriminator 2 view .LVU41
ARM GAS  D:\Temp\cc6WWuOg.s 			page 20


 168 0010 E4B2     		uxtb	r4, r4
 169              	.LVL18:
 170              	.L13:
 171              		.loc 1 904 5 discriminator 1 view .LVU42
 172 0012 072C     		cmp	r4, #7
 173 0014 0CD8     		bhi	.L19
 905:lvgl/src/lv_widgets/lv_list.c ****         if(type.type[cnt] == NULL) break;
 174              		.loc 1 905 9 is_stmt 1 view .LVU43
 175              		.loc 1 905 21 is_stmt 0 view .LVU44
 176 0016 08AB     		add	r3, sp, #32
 177 0018 03EB8403 		add	r3, r3, r4, lsl #2
 178 001c 53F8200C 		ldr	r0, [r3, #-32]
 179              		.loc 1 905 11 view .LVU45
 180 0020 48B1     		cbz	r0, .L16
 906:lvgl/src/lv_widgets/lv_list.c ****         if(!strcmp(type.type[cnt], "lv_label")) return true;
 181              		.loc 1 906 9 is_stmt 1 view .LVU46
 182              		.loc 1 906 13 is_stmt 0 view .LVU47
 183 0022 0649     		ldr	r1, .L21
 184 0024 FFF7FEFF 		bl	strcmp
 185              	.LVL19:
 186              		.loc 1 906 11 view .LVU48
 187 0028 0028     		cmp	r0, #0
 188 002a F0D1     		bne	.L20
 189              		.loc 1 906 56 view .LVU49
 190 002c 0120     		movs	r0, #1
 191 002e 00E0     		b	.L14
 192              	.L19:
 907:lvgl/src/lv_widgets/lv_list.c ****     }
 908:lvgl/src/lv_widgets/lv_list.c ****     return false;
 193              		.loc 1 908 12 view .LVU50
 194 0030 0020     		movs	r0, #0
 195              	.L14:
 909:lvgl/src/lv_widgets/lv_list.c **** }
 196              		.loc 1 909 1 view .LVU51
 197 0032 08B0     		add	sp, sp, #32
 198              	.LCFI3:
 199              		.cfi_remember_state
 200              		.cfi_def_cfa_offset 8
 201              		@ sp needed
 202 0034 10BD     		pop	{r4, pc}
 203              	.LVL20:
 204              	.L16:
 205              	.LCFI4:
 206              		.cfi_restore_state
 908:lvgl/src/lv_widgets/lv_list.c **** }
 207              		.loc 1 908 12 view .LVU52
 208 0036 0020     		movs	r0, #0
 209 0038 FBE7     		b	.L14
 210              	.L22:
 211 003a 00BF     		.align	2
 212              	.L21:
 213 003c 00000000 		.word	.LC1
 214              		.cfi_endproc
 215              	.LFE512:
 217              		.section	.text.lv_list_is_list_img,"ax",%progbits
 218              		.align	1
 219              		.syntax unified
ARM GAS  D:\Temp\cc6WWuOg.s 			page 21


 220              		.thumb
 221              		.thumb_func
 222              		.fpu fpv4-sp-d16
 224              	lv_list_is_list_img:
 225              	.LVL21:
 226              	.LFB513:
 910:lvgl/src/lv_widgets/lv_list.c **** 
 911:lvgl/src/lv_widgets/lv_list.c **** /**
 912:lvgl/src/lv_widgets/lv_list.c ****  * Check if this is really a list image or another object.
 913:lvgl/src/lv_widgets/lv_list.c ****  * @param list_image List image
 914:lvgl/src/lv_widgets/lv_list.c ****  */
 915:lvgl/src/lv_widgets/lv_list.c **** static bool lv_list_is_list_img(lv_obj_t * list_img)
 916:lvgl/src/lv_widgets/lv_list.c **** {
 227              		.loc 1 916 1 is_stmt 1 view -0
 228              		.cfi_startproc
 229              		@ args = 0, pretend = 0, frame = 32
 230              		@ frame_needed = 0, uses_anonymous_args = 0
 231              		.loc 1 916 1 is_stmt 0 view .LVU54
 232 0000 10B5     		push	{r4, lr}
 233              	.LCFI5:
 234              		.cfi_def_cfa_offset 8
 235              		.cfi_offset 4, -8
 236              		.cfi_offset 14, -4
 237 0002 88B0     		sub	sp, sp, #32
 238              	.LCFI6:
 239              		.cfi_def_cfa_offset 40
 917:lvgl/src/lv_widgets/lv_list.c ****     lv_obj_type_t type;
 240              		.loc 1 917 5 is_stmt 1 view .LVU55
 918:lvgl/src/lv_widgets/lv_list.c **** 
 919:lvgl/src/lv_widgets/lv_list.c ****     lv_obj_get_type(list_img, &type);
 241              		.loc 1 919 5 view .LVU56
 242 0004 6946     		mov	r1, sp
 243 0006 FFF7FEFF 		bl	lv_obj_get_type
 244              	.LVL22:
 920:lvgl/src/lv_widgets/lv_list.c ****     uint8_t cnt;
 245              		.loc 1 920 5 view .LVU57
 921:lvgl/src/lv_widgets/lv_list.c ****     for(cnt = 0; cnt < LV_MAX_ANCESTOR_NUM; cnt++) {
 246              		.loc 1 921 5 view .LVU58
 247              		.loc 1 921 13 is_stmt 0 view .LVU59
 248 000a 0024     		movs	r4, #0
 249              		.loc 1 921 5 view .LVU60
 250 000c 01E0     		b	.L24
 251              	.LVL23:
 252              	.L31:
 253              		.loc 1 921 48 discriminator 2 view .LVU61
 254 000e 0134     		adds	r4, r4, #1
 255              	.LVL24:
 256              		.loc 1 921 48 discriminator 2 view .LVU62
 257 0010 E4B2     		uxtb	r4, r4
 258              	.LVL25:
 259              	.L24:
 260              		.loc 1 921 5 discriminator 1 view .LVU63
 261 0012 072C     		cmp	r4, #7
 262 0014 0CD8     		bhi	.L30
 922:lvgl/src/lv_widgets/lv_list.c ****         if(type.type[cnt] == NULL) break;
 263              		.loc 1 922 9 is_stmt 1 view .LVU64
 264              		.loc 1 922 21 is_stmt 0 view .LVU65
ARM GAS  D:\Temp\cc6WWuOg.s 			page 22


 265 0016 08AB     		add	r3, sp, #32
 266 0018 03EB8403 		add	r3, r3, r4, lsl #2
 267 001c 53F8200C 		ldr	r0, [r3, #-32]
 268              		.loc 1 922 11 view .LVU66
 269 0020 48B1     		cbz	r0, .L27
 923:lvgl/src/lv_widgets/lv_list.c ****         if(!strcmp(type.type[cnt], "lv_img")) return true;
 270              		.loc 1 923 9 is_stmt 1 view .LVU67
 271              		.loc 1 923 13 is_stmt 0 view .LVU68
 272 0022 0649     		ldr	r1, .L32
 273 0024 FFF7FEFF 		bl	strcmp
 274              	.LVL26:
 275              		.loc 1 923 11 view .LVU69
 276 0028 0028     		cmp	r0, #0
 277 002a F0D1     		bne	.L31
 278              		.loc 1 923 54 view .LVU70
 279 002c 0120     		movs	r0, #1
 280 002e 00E0     		b	.L25
 281              	.L30:
 924:lvgl/src/lv_widgets/lv_list.c ****     }
 925:lvgl/src/lv_widgets/lv_list.c ****     return false;
 282              		.loc 1 925 12 view .LVU71
 283 0030 0020     		movs	r0, #0
 284              	.L25:
 926:lvgl/src/lv_widgets/lv_list.c **** }
 285              		.loc 1 926 1 view .LVU72
 286 0032 08B0     		add	sp, sp, #32
 287              	.LCFI7:
 288              		.cfi_remember_state
 289              		.cfi_def_cfa_offset 8
 290              		@ sp needed
 291 0034 10BD     		pop	{r4, pc}
 292              	.LVL27:
 293              	.L27:
 294              	.LCFI8:
 295              		.cfi_restore_state
 925:lvgl/src/lv_widgets/lv_list.c **** }
 296              		.loc 1 925 12 view .LVU73
 297 0036 0020     		movs	r0, #0
 298 0038 FBE7     		b	.L25
 299              	.L33:
 300 003a 00BF     		.align	2
 301              	.L32:
 302 003c 00000000 		.word	.LC2
 303              		.cfi_endproc
 304              	.LFE513:
 306              		.section	.text.lv_list_is_list_btn,"ax",%progbits
 307              		.align	1
 308              		.syntax unified
 309              		.thumb
 310              		.thumb_func
 311              		.fpu fpv4-sp-d16
 313              	lv_list_is_list_btn:
 314              	.LVL28:
 315              	.LFB511:
 882:lvgl/src/lv_widgets/lv_list.c ****     lv_obj_type_t type;
 316              		.loc 1 882 1 is_stmt 1 view -0
 317              		.cfi_startproc
ARM GAS  D:\Temp\cc6WWuOg.s 			page 23


 318              		@ args = 0, pretend = 0, frame = 32
 319              		@ frame_needed = 0, uses_anonymous_args = 0
 882:lvgl/src/lv_widgets/lv_list.c ****     lv_obj_type_t type;
 320              		.loc 1 882 1 is_stmt 0 view .LVU75
 321 0000 10B5     		push	{r4, lr}
 322              	.LCFI9:
 323              		.cfi_def_cfa_offset 8
 324              		.cfi_offset 4, -8
 325              		.cfi_offset 14, -4
 326 0002 88B0     		sub	sp, sp, #32
 327              	.LCFI10:
 328              		.cfi_def_cfa_offset 40
 883:lvgl/src/lv_widgets/lv_list.c **** 
 329              		.loc 1 883 5 is_stmt 1 view .LVU76
 885:lvgl/src/lv_widgets/lv_list.c ****     uint8_t cnt;
 330              		.loc 1 885 5 view .LVU77
 331 0004 6946     		mov	r1, sp
 332 0006 FFF7FEFF 		bl	lv_obj_get_type
 333              	.LVL29:
 886:lvgl/src/lv_widgets/lv_list.c ****     for(cnt = 0; cnt < LV_MAX_ANCESTOR_NUM; cnt++) {
 334              		.loc 1 886 5 view .LVU78
 887:lvgl/src/lv_widgets/lv_list.c ****         if(type.type[cnt] == NULL) break;
 335              		.loc 1 887 5 view .LVU79
 887:lvgl/src/lv_widgets/lv_list.c ****         if(type.type[cnt] == NULL) break;
 336              		.loc 1 887 13 is_stmt 0 view .LVU80
 337 000a 0024     		movs	r4, #0
 887:lvgl/src/lv_widgets/lv_list.c ****         if(type.type[cnt] == NULL) break;
 338              		.loc 1 887 5 view .LVU81
 339 000c 01E0     		b	.L35
 340              	.LVL30:
 341              	.L42:
 887:lvgl/src/lv_widgets/lv_list.c ****         if(type.type[cnt] == NULL) break;
 342              		.loc 1 887 48 discriminator 2 view .LVU82
 343 000e 0134     		adds	r4, r4, #1
 344              	.LVL31:
 887:lvgl/src/lv_widgets/lv_list.c ****         if(type.type[cnt] == NULL) break;
 345              		.loc 1 887 48 discriminator 2 view .LVU83
 346 0010 E4B2     		uxtb	r4, r4
 347              	.LVL32:
 348              	.L35:
 887:lvgl/src/lv_widgets/lv_list.c ****         if(type.type[cnt] == NULL) break;
 349              		.loc 1 887 5 discriminator 1 view .LVU84
 350 0012 072C     		cmp	r4, #7
 351 0014 0CD8     		bhi	.L41
 888:lvgl/src/lv_widgets/lv_list.c ****         if(!strcmp(type.type[cnt], "lv_btn")) return true;
 352              		.loc 1 888 9 is_stmt 1 view .LVU85
 888:lvgl/src/lv_widgets/lv_list.c ****         if(!strcmp(type.type[cnt], "lv_btn")) return true;
 353              		.loc 1 888 21 is_stmt 0 view .LVU86
 354 0016 08AB     		add	r3, sp, #32
 355 0018 03EB8403 		add	r3, r3, r4, lsl #2
 356 001c 53F8200C 		ldr	r0, [r3, #-32]
 888:lvgl/src/lv_widgets/lv_list.c ****         if(!strcmp(type.type[cnt], "lv_btn")) return true;
 357              		.loc 1 888 11 view .LVU87
 358 0020 48B1     		cbz	r0, .L38
 889:lvgl/src/lv_widgets/lv_list.c ****     }
 359              		.loc 1 889 9 is_stmt 1 view .LVU88
 889:lvgl/src/lv_widgets/lv_list.c ****     }
ARM GAS  D:\Temp\cc6WWuOg.s 			page 24


 360              		.loc 1 889 13 is_stmt 0 view .LVU89
 361 0022 0649     		ldr	r1, .L43
 362 0024 FFF7FEFF 		bl	strcmp
 363              	.LVL33:
 889:lvgl/src/lv_widgets/lv_list.c ****     }
 364              		.loc 1 889 11 view .LVU90
 365 0028 0028     		cmp	r0, #0
 366 002a F0D1     		bne	.L42
 889:lvgl/src/lv_widgets/lv_list.c ****     }
 367              		.loc 1 889 54 view .LVU91
 368 002c 0120     		movs	r0, #1
 369 002e 00E0     		b	.L36
 370              	.L41:
 891:lvgl/src/lv_widgets/lv_list.c **** }
 371              		.loc 1 891 12 view .LVU92
 372 0030 0020     		movs	r0, #0
 373              	.L36:
 892:lvgl/src/lv_widgets/lv_list.c **** 
 374              		.loc 1 892 1 view .LVU93
 375 0032 08B0     		add	sp, sp, #32
 376              	.LCFI11:
 377              		.cfi_remember_state
 378              		.cfi_def_cfa_offset 8
 379              		@ sp needed
 380 0034 10BD     		pop	{r4, pc}
 381              	.LVL34:
 382              	.L38:
 383              	.LCFI12:
 384              		.cfi_restore_state
 891:lvgl/src/lv_widgets/lv_list.c **** }
 385              		.loc 1 891 12 view .LVU94
 386 0036 0020     		movs	r0, #0
 387 0038 FBE7     		b	.L36
 388              	.L44:
 389 003a 00BF     		.align	2
 390              	.L43:
 391 003c 00000000 		.word	.LC3
 392              		.cfi_endproc
 393              	.LFE511:
 395              		.section	.text.lv_list_clean,"ax",%progbits
 396              		.align	1
 397              		.global	lv_list_clean
 398              		.syntax unified
 399              		.thumb
 400              		.thumb_func
 401              		.fpu fpv4-sp-d16
 403              	lv_list_clean:
 404              	.LVL35:
 405              	.LFB491:
 130:lvgl/src/lv_widgets/lv_list.c ****     LV_ASSERT_OBJ(list, LV_OBJX_NAME);
 406              		.loc 1 130 1 is_stmt 1 view -0
 407              		.cfi_startproc
 408              		@ args = 0, pretend = 0, frame = 0
 409              		@ frame_needed = 0, uses_anonymous_args = 0
 130:lvgl/src/lv_widgets/lv_list.c ****     LV_ASSERT_OBJ(list, LV_OBJX_NAME);
 410              		.loc 1 130 1 is_stmt 0 view .LVU96
 411 0000 10B5     		push	{r4, lr}
ARM GAS  D:\Temp\cc6WWuOg.s 			page 25


 412              	.LCFI13:
 413              		.cfi_def_cfa_offset 8
 414              		.cfi_offset 4, -8
 415              		.cfi_offset 14, -4
 416 0002 0446     		mov	r4, r0
 131:lvgl/src/lv_widgets/lv_list.c **** 
 417              		.loc 1 131 5 is_stmt 1 view .LVU97
 131:lvgl/src/lv_widgets/lv_list.c **** 
 418              		.loc 1 131 5 view .LVU98
 419 0004 FFF7FEFF 		bl	lv_debug_check_null
 420              	.LVL36:
 131:lvgl/src/lv_widgets/lv_list.c **** 
 421              		.loc 1 131 5 is_stmt 0 view .LVU99
 422 0008 28B9     		cbnz	r0, .L46
 131:lvgl/src/lv_widgets/lv_list.c **** 
 423              		.loc 1 131 5 is_stmt 1 discriminator 1 view .LVU100
 131:lvgl/src/lv_widgets/lv_list.c **** 
 424              		.loc 1 131 5 discriminator 1 view .LVU101
 425 000a 2246     		mov	r2, r4
 426 000c 0023     		movs	r3, #0
 427 000e 0548     		ldr	r0, .L49
 428 0010 FFF7FEFF 		bl	lv_debug_log_error
 429              	.LVL37:
 430              	.L47:
 131:lvgl/src/lv_widgets/lv_list.c **** 
 431              		.loc 1 131 5 discriminator 1 view .LVU102
 131:lvgl/src/lv_widgets/lv_list.c **** 
 432              		.loc 1 131 5 discriminator 1 view .LVU103
 433 0014 FEE7     		b	.L47
 434              	.L46:
 131:lvgl/src/lv_widgets/lv_list.c **** 
 435              		.loc 1 131 38 discriminator 2 view .LVU104
 133:lvgl/src/lv_widgets/lv_list.c ****     lv_obj_clean(scrl);
 436              		.loc 1 133 5 discriminator 2 view .LVU105
 133:lvgl/src/lv_widgets/lv_list.c ****     lv_obj_clean(scrl);
 437              		.loc 1 133 23 is_stmt 0 discriminator 2 view .LVU106
 438 0016 2046     		mov	r0, r4
 439 0018 FFF7FEFF 		bl	lv_page_get_scrollable
 440              	.LVL38:
 134:lvgl/src/lv_widgets/lv_list.c **** }
 441              		.loc 1 134 5 is_stmt 1 discriminator 2 view .LVU107
 442 001c FFF7FEFF 		bl	lv_obj_clean
 443              	.LVL39:
 135:lvgl/src/lv_widgets/lv_list.c **** 
 444              		.loc 1 135 1 is_stmt 0 discriminator 2 view .LVU108
 445 0020 10BD     		pop	{r4, pc}
 446              	.LVL40:
 447              	.L50:
 135:lvgl/src/lv_widgets/lv_list.c **** 
 448              		.loc 1 135 1 discriminator 2 view .LVU109
 449 0022 00BF     		.align	2
 450              	.L49:
 451 0024 00000000 		.word	.LC0
 452              		.cfi_endproc
 453              	.LFE491:
 455              		.section	.text.lv_list_focus_btn,"ax",%progbits
 456              		.align	1
ARM GAS  D:\Temp\cc6WWuOg.s 			page 26


 457              		.global	lv_list_focus_btn
 458              		.syntax unified
 459              		.thumb
 460              		.thumb_func
 461              		.fpu fpv4-sp-d16
 463              	lv_list_focus_btn:
 464              	.LVL41:
 465              	.LFB494:
 280:lvgl/src/lv_widgets/lv_list.c ****     LV_ASSERT_OBJ(list, LV_OBJX_NAME);
 466              		.loc 1 280 1 is_stmt 1 view -0
 467              		.cfi_startproc
 468              		@ args = 0, pretend = 0, frame = 0
 469              		@ frame_needed = 0, uses_anonymous_args = 0
 280:lvgl/src/lv_widgets/lv_list.c ****     LV_ASSERT_OBJ(list, LV_OBJX_NAME);
 470              		.loc 1 280 1 is_stmt 0 view .LVU111
 471 0000 70B5     		push	{r4, r5, r6, lr}
 472              	.LCFI14:
 473              		.cfi_def_cfa_offset 16
 474              		.cfi_offset 4, -16
 475              		.cfi_offset 5, -12
 476              		.cfi_offset 6, -8
 477              		.cfi_offset 14, -4
 478 0002 0646     		mov	r6, r0
 479 0004 0C46     		mov	r4, r1
 281:lvgl/src/lv_widgets/lv_list.c ****     if(btn) {
 480              		.loc 1 281 5 is_stmt 1 view .LVU112
 281:lvgl/src/lv_widgets/lv_list.c ****     if(btn) {
 481              		.loc 1 281 5 view .LVU113
 482 0006 FFF7FEFF 		bl	lv_debug_check_null
 483              	.LVL42:
 281:lvgl/src/lv_widgets/lv_list.c ****     if(btn) {
 484              		.loc 1 281 5 is_stmt 0 view .LVU114
 485 000a D8B1     		cbz	r0, .L60
 281:lvgl/src/lv_widgets/lv_list.c ****     if(btn) {
 486              		.loc 1 281 38 is_stmt 1 discriminator 2 view .LVU115
 282:lvgl/src/lv_widgets/lv_list.c ****         LV_ASSERT_OBJ(btn, "lv_btn");
 487              		.loc 1 282 5 discriminator 2 view .LVU116
 282:lvgl/src/lv_widgets/lv_list.c ****         LV_ASSERT_OBJ(btn, "lv_btn");
 488              		.loc 1 282 7 is_stmt 0 discriminator 2 view .LVU117
 489 000c 1CB1     		cbz	r4, .L54
 283:lvgl/src/lv_widgets/lv_list.c ****     }
 490              		.loc 1 283 9 is_stmt 1 view .LVU118
 283:lvgl/src/lv_widgets/lv_list.c ****     }
 491              		.loc 1 283 9 view .LVU119
 492 000e 2046     		mov	r0, r4
 493 0010 FFF7FEFF 		bl	lv_debug_check_null
 494              	.LVL43:
 495 0014 E0B1     		cbz	r0, .L61
 496              	.L54:
 283:lvgl/src/lv_widgets/lv_list.c ****     }
 497              		.loc 1 283 37 discriminator 2 view .LVU120
 286:lvgl/src/lv_widgets/lv_list.c **** 
 498              		.loc 1 286 5 discriminator 2 view .LVU121
 286:lvgl/src/lv_widgets/lv_list.c **** 
 499              		.loc 1 286 27 is_stmt 0 discriminator 2 view .LVU122
 500 0016 3046     		mov	r0, r6
 501 0018 FFF7FEFF 		bl	lv_obj_get_ext_attr
ARM GAS  D:\Temp\cc6WWuOg.s 			page 27


 502              	.LVL44:
 503 001c 0546     		mov	r5, r0
 504              	.LVL45:
 289:lvgl/src/lv_widgets/lv_list.c **** 
 505              		.loc 1 289 5 is_stmt 1 discriminator 2 view .LVU123
 289:lvgl/src/lv_widgets/lv_list.c **** 
 506              		.loc 1 289 11 is_stmt 0 discriminator 2 view .LVU124
 507 001e 406C     		ldr	r0, [r0, #68]
 508              	.LVL46:
 289:lvgl/src/lv_widgets/lv_list.c **** 
 509              		.loc 1 289 7 discriminator 2 view .LVU125
 510 0020 10B1     		cbz	r0, .L56
 289:lvgl/src/lv_widgets/lv_list.c **** 
 511              		.loc 1 289 26 is_stmt 1 discriminator 1 view .LVU126
 512 0022 0221     		movs	r1, #2
 513 0024 FFF7FEFF 		bl	lv_obj_clear_state
 514              	.LVL47:
 515              	.L56:
 294:lvgl/src/lv_widgets/lv_list.c **** #endif
 516              		.loc 1 294 5 view .LVU127
 294:lvgl/src/lv_widgets/lv_list.c **** #endif
 517              		.loc 1 294 7 is_stmt 0 view .LVU128
 518 0028 04B1     		cbz	r4, .L57
 294:lvgl/src/lv_widgets/lv_list.c **** #endif
 519              		.loc 1 294 13 is_stmt 1 discriminator 1 view .LVU129
 294:lvgl/src/lv_widgets/lv_list.c **** #endif
 520              		.loc 1 294 31 is_stmt 0 discriminator 1 view .LVU130
 521 002a 2C64     		str	r4, [r5, #64]
 522              	.L57:
 298:lvgl/src/lv_widgets/lv_list.c **** 
 523              		.loc 1 298 5 is_stmt 1 view .LVU131
 298:lvgl/src/lv_widgets/lv_list.c **** 
 524              		.loc 1 298 22 is_stmt 0 view .LVU132
 525 002c 6C64     		str	r4, [r5, #68]
 300:lvgl/src/lv_widgets/lv_list.c ****         lv_obj_add_state(ext->act_sel_btn, LV_STATE_FOCUSED);
 526              		.loc 1 300 5 is_stmt 1 view .LVU133
 300:lvgl/src/lv_widgets/lv_list.c ****         lv_obj_add_state(ext->act_sel_btn, LV_STATE_FOCUSED);
 527              		.loc 1 300 7 is_stmt 0 view .LVU134
 528 002e 44B1     		cbz	r4, .L51
 301:lvgl/src/lv_widgets/lv_list.c ****         lv_page_focus(list, ext->act_sel_btn, LV_ANIM_ON);
 529              		.loc 1 301 9 is_stmt 1 view .LVU135
 530 0030 0221     		movs	r1, #2
 531 0032 2046     		mov	r0, r4
 532 0034 FFF7FEFF 		bl	lv_obj_add_state
 533              	.LVL48:
 302:lvgl/src/lv_widgets/lv_list.c ****     }
 534              		.loc 1 302 9 view .LVU136
 535 0038 0122     		movs	r2, #1
 536 003a 696C     		ldr	r1, [r5, #68]
 537 003c 3046     		mov	r0, r6
 538 003e FFF7FEFF 		bl	lv_page_focus
 539              	.LVL49:
 540              	.L51:
 304:lvgl/src/lv_widgets/lv_list.c **** 
 541              		.loc 1 304 1 is_stmt 0 view .LVU137
 542 0042 70BD     		pop	{r4, r5, r6, pc}
 543              	.LVL50:
ARM GAS  D:\Temp\cc6WWuOg.s 			page 28


 544              	.L60:
 281:lvgl/src/lv_widgets/lv_list.c ****     if(btn) {
 545              		.loc 1 281 5 is_stmt 1 discriminator 1 view .LVU138
 281:lvgl/src/lv_widgets/lv_list.c ****     if(btn) {
 546              		.loc 1 281 5 discriminator 1 view .LVU139
 547 0044 3246     		mov	r2, r6
 548 0046 0023     		movs	r3, #0
 549 0048 0448     		ldr	r0, .L62
 550 004a FFF7FEFF 		bl	lv_debug_log_error
 551              	.LVL51:
 552              	.L53:
 281:lvgl/src/lv_widgets/lv_list.c ****     if(btn) {
 553              		.loc 1 281 5 discriminator 1 view .LVU140
 281:lvgl/src/lv_widgets/lv_list.c ****     if(btn) {
 554              		.loc 1 281 5 discriminator 1 view .LVU141
 555 004e FEE7     		b	.L53
 556              	.L61:
 283:lvgl/src/lv_widgets/lv_list.c ****     }
 557              		.loc 1 283 9 discriminator 1 view .LVU142
 283:lvgl/src/lv_widgets/lv_list.c ****     }
 558              		.loc 1 283 9 discriminator 1 view .LVU143
 559 0050 2246     		mov	r2, r4
 560 0052 0023     		movs	r3, #0
 561 0054 0148     		ldr	r0, .L62
 562 0056 FFF7FEFF 		bl	lv_debug_log_error
 563              	.LVL52:
 564              	.L55:
 283:lvgl/src/lv_widgets/lv_list.c ****     }
 565              		.loc 1 283 9 discriminator 2 view .LVU144
 283:lvgl/src/lv_widgets/lv_list.c ****     }
 566              		.loc 1 283 9 discriminator 2 view .LVU145
 567 005a FEE7     		b	.L55
 568              	.L63:
 569              		.align	2
 570              	.L62:
 571 005c 00000000 		.word	.LC0
 572              		.cfi_endproc
 573              	.LFE494:
 575              		.section	.text.lv_list_get_btn_label,"ax",%progbits
 576              		.align	1
 577              		.global	lv_list_get_btn_label
 578              		.syntax unified
 579              		.thumb
 580              		.thumb_func
 581              		.fpu fpv4-sp-d16
 583              	lv_list_get_btn_label:
 584              	.LVL53:
 585              	.LFB497:
 370:lvgl/src/lv_widgets/lv_list.c ****     LV_ASSERT_OBJ(btn, "lv_btn");
 586              		.loc 1 370 1 view -0
 587              		.cfi_startproc
 588              		@ args = 0, pretend = 0, frame = 0
 589              		@ frame_needed = 0, uses_anonymous_args = 0
 370:lvgl/src/lv_widgets/lv_list.c ****     LV_ASSERT_OBJ(btn, "lv_btn");
 590              		.loc 1 370 1 is_stmt 0 view .LVU147
 591 0000 38B5     		push	{r3, r4, r5, lr}
 592              	.LCFI15:
ARM GAS  D:\Temp\cc6WWuOg.s 			page 29


 593              		.cfi_def_cfa_offset 16
 594              		.cfi_offset 3, -16
 595              		.cfi_offset 4, -12
 596              		.cfi_offset 5, -8
 597              		.cfi_offset 14, -4
 598 0002 0546     		mov	r5, r0
 371:lvgl/src/lv_widgets/lv_list.c **** 
 599              		.loc 1 371 5 is_stmt 1 view .LVU148
 371:lvgl/src/lv_widgets/lv_list.c **** 
 600              		.loc 1 371 5 view .LVU149
 601 0004 FFF7FEFF 		bl	lv_debug_check_null
 602              	.LVL54:
 371:lvgl/src/lv_widgets/lv_list.c **** 
 603              		.loc 1 371 5 is_stmt 0 view .LVU150
 604 0008 28B9     		cbnz	r0, .L65
 371:lvgl/src/lv_widgets/lv_list.c **** 
 605              		.loc 1 371 5 is_stmt 1 discriminator 1 view .LVU151
 371:lvgl/src/lv_widgets/lv_list.c **** 
 606              		.loc 1 371 5 discriminator 1 view .LVU152
 607 000a 2A46     		mov	r2, r5
 608 000c 0023     		movs	r3, #0
 609 000e 0B48     		ldr	r0, .L71
 610 0010 FFF7FEFF 		bl	lv_debug_log_error
 611              	.LVL55:
 612              	.L66:
 371:lvgl/src/lv_widgets/lv_list.c **** 
 613              		.loc 1 371 5 discriminator 1 view .LVU153
 371:lvgl/src/lv_widgets/lv_list.c **** 
 614              		.loc 1 371 5 discriminator 1 view .LVU154
 615 0014 FEE7     		b	.L66
 616              	.L65:
 371:lvgl/src/lv_widgets/lv_list.c **** 
 617              		.loc 1 371 33 discriminator 2 view .LVU155
 373:lvgl/src/lv_widgets/lv_list.c ****     if(label == NULL) return NULL;
 618              		.loc 1 373 5 discriminator 2 view .LVU156
 373:lvgl/src/lv_widgets/lv_list.c ****     if(label == NULL) return NULL;
 619              		.loc 1 373 24 is_stmt 0 discriminator 2 view .LVU157
 620 0016 0021     		movs	r1, #0
 621 0018 2846     		mov	r0, r5
 622 001a FFF7FEFF 		bl	lv_obj_get_child_back
 623              	.LVL56:
 374:lvgl/src/lv_widgets/lv_list.c **** 
 624              		.loc 1 374 5 is_stmt 1 discriminator 2 view .LVU158
 374:lvgl/src/lv_widgets/lv_list.c **** 
 625              		.loc 1 374 7 is_stmt 0 discriminator 2 view .LVU159
 626 001e 0446     		mov	r4, r0
 627 0020 50B1     		cbz	r0, .L64
 628              	.L68:
 376:lvgl/src/lv_widgets/lv_list.c ****         label = lv_obj_get_child_back(btn, label);
 629              		.loc 1 376 11 view .LVU160
 630 0022 2046     		mov	r0, r4
 376:lvgl/src/lv_widgets/lv_list.c ****         label = lv_obj_get_child_back(btn, label);
 631              		.loc 1 376 11 view .LVU161
 632 0024 FFF7FEFF 		bl	lv_list_is_list_label
 633              	.LVL57:
 376:lvgl/src/lv_widgets/lv_list.c ****         label = lv_obj_get_child_back(btn, label);
 634              		.loc 1 376 10 view .LVU162
ARM GAS  D:\Temp\cc6WWuOg.s 			page 30


 635 0028 30B9     		cbnz	r0, .L64
 377:lvgl/src/lv_widgets/lv_list.c ****         if(label == NULL) break;
 636              		.loc 1 377 9 is_stmt 1 view .LVU163
 377:lvgl/src/lv_widgets/lv_list.c ****         if(label == NULL) break;
 637              		.loc 1 377 17 is_stmt 0 view .LVU164
 638 002a 2146     		mov	r1, r4
 639 002c 2846     		mov	r0, r5
 640 002e FFF7FEFF 		bl	lv_obj_get_child_back
 641              	.LVL58:
 378:lvgl/src/lv_widgets/lv_list.c ****     }
 642              		.loc 1 378 9 is_stmt 1 view .LVU165
 378:lvgl/src/lv_widgets/lv_list.c ****     }
 643              		.loc 1 378 11 is_stmt 0 view .LVU166
 644 0032 0446     		mov	r4, r0
 645 0034 0028     		cmp	r0, #0
 646 0036 F4D1     		bne	.L68
 647              	.LVL59:
 648              	.L64:
 382:lvgl/src/lv_widgets/lv_list.c **** 
 649              		.loc 1 382 1 view .LVU167
 650 0038 2046     		mov	r0, r4
 651 003a 38BD     		pop	{r3, r4, r5, pc}
 652              	.LVL60:
 653              	.L72:
 382:lvgl/src/lv_widgets/lv_list.c **** 
 654              		.loc 1 382 1 view .LVU168
 655              		.align	2
 656              	.L71:
 657 003c 00000000 		.word	.LC0
 658              		.cfi_endproc
 659              	.LFE497:
 661              		.section	.text.lv_list_get_btn_text,"ax",%progbits
 662              		.align	1
 663              		.global	lv_list_get_btn_text
 664              		.syntax unified
 665              		.thumb
 666              		.thumb_func
 667              		.fpu fpv4-sp-d16
 669              	lv_list_get_btn_text:
 670              	.LVL61:
 671              	.LFB496:
 356:lvgl/src/lv_widgets/lv_list.c ****     LV_ASSERT_OBJ(btn, "lv_btn");
 672              		.loc 1 356 1 is_stmt 1 view -0
 673              		.cfi_startproc
 674              		@ args = 0, pretend = 0, frame = 0
 675              		@ frame_needed = 0, uses_anonymous_args = 0
 356:lvgl/src/lv_widgets/lv_list.c ****     LV_ASSERT_OBJ(btn, "lv_btn");
 676              		.loc 1 356 1 is_stmt 0 view .LVU170
 677 0000 10B5     		push	{r4, lr}
 678              	.LCFI16:
 679              		.cfi_def_cfa_offset 8
 680              		.cfi_offset 4, -8
 681              		.cfi_offset 14, -4
 682 0002 0446     		mov	r4, r0
 357:lvgl/src/lv_widgets/lv_list.c **** 
 683              		.loc 1 357 5 is_stmt 1 view .LVU171
 357:lvgl/src/lv_widgets/lv_list.c **** 
ARM GAS  D:\Temp\cc6WWuOg.s 			page 31


 684              		.loc 1 357 5 view .LVU172
 685 0004 FFF7FEFF 		bl	lv_debug_check_null
 686              	.LVL62:
 357:lvgl/src/lv_widgets/lv_list.c **** 
 687              		.loc 1 357 5 is_stmt 0 view .LVU173
 688 0008 28B9     		cbnz	r0, .L74
 357:lvgl/src/lv_widgets/lv_list.c **** 
 689              		.loc 1 357 5 is_stmt 1 discriminator 1 view .LVU174
 357:lvgl/src/lv_widgets/lv_list.c **** 
 690              		.loc 1 357 5 discriminator 1 view .LVU175
 691 000a 2246     		mov	r2, r4
 692 000c 0023     		movs	r3, #0
 693 000e 0648     		ldr	r0, .L79
 694 0010 FFF7FEFF 		bl	lv_debug_log_error
 695              	.LVL63:
 696              	.L75:
 357:lvgl/src/lv_widgets/lv_list.c **** 
 697              		.loc 1 357 5 discriminator 1 view .LVU176
 357:lvgl/src/lv_widgets/lv_list.c **** 
 698              		.loc 1 357 5 discriminator 1 view .LVU177
 699 0014 FEE7     		b	.L75
 700              	.L74:
 357:lvgl/src/lv_widgets/lv_list.c **** 
 701              		.loc 1 357 33 discriminator 2 view .LVU178
 359:lvgl/src/lv_widgets/lv_list.c ****     if(label == NULL) return "";
 702              		.loc 1 359 5 discriminator 2 view .LVU179
 359:lvgl/src/lv_widgets/lv_list.c ****     if(label == NULL) return "";
 703              		.loc 1 359 24 is_stmt 0 discriminator 2 view .LVU180
 704 0016 2046     		mov	r0, r4
 705 0018 FFF7FEFF 		bl	lv_list_get_btn_label
 706              	.LVL64:
 360:lvgl/src/lv_widgets/lv_list.c ****     return lv_label_get_text(label);
 707              		.loc 1 360 5 is_stmt 1 discriminator 2 view .LVU181
 360:lvgl/src/lv_widgets/lv_list.c ****     return lv_label_get_text(label);
 708              		.loc 1 360 7 is_stmt 0 discriminator 2 view .LVU182
 709 001c 10B1     		cbz	r0, .L77
 361:lvgl/src/lv_widgets/lv_list.c **** }
 710              		.loc 1 361 5 is_stmt 1 view .LVU183
 361:lvgl/src/lv_widgets/lv_list.c **** }
 711              		.loc 1 361 12 is_stmt 0 view .LVU184
 712 001e FFF7FEFF 		bl	lv_label_get_text
 713              	.LVL65:
 714              	.L73:
 362:lvgl/src/lv_widgets/lv_list.c **** 
 715              		.loc 1 362 1 view .LVU185
 716 0022 10BD     		pop	{r4, pc}
 717              	.LVL66:
 718              	.L77:
 360:lvgl/src/lv_widgets/lv_list.c ****     return lv_label_get_text(label);
 719              		.loc 1 360 30 view .LVU186
 720 0024 0148     		ldr	r0, .L79+4
 721              	.LVL67:
 360:lvgl/src/lv_widgets/lv_list.c ****     return lv_label_get_text(label);
 722              		.loc 1 360 30 view .LVU187
 723 0026 FCE7     		b	.L73
 724              	.L80:
 725              		.align	2
ARM GAS  D:\Temp\cc6WWuOg.s 			page 32


 726              	.L79:
 727 0028 00000000 		.word	.LC0
 728 002c 00000000 		.word	.LC4
 729              		.cfi_endproc
 730              	.LFE496:
 732              		.section	.text.lv_list_get_btn_img,"ax",%progbits
 733              		.align	1
 734              		.global	lv_list_get_btn_img
 735              		.syntax unified
 736              		.thumb
 737              		.thumb_func
 738              		.fpu fpv4-sp-d16
 740              	lv_list_get_btn_img:
 741              	.LVL68:
 742              	.LFB498:
 390:lvgl/src/lv_widgets/lv_list.c ****     LV_ASSERT_OBJ(btn, "lv_btn");
 743              		.loc 1 390 1 is_stmt 1 view -0
 744              		.cfi_startproc
 745              		@ args = 0, pretend = 0, frame = 0
 746              		@ frame_needed = 0, uses_anonymous_args = 0
 390:lvgl/src/lv_widgets/lv_list.c ****     LV_ASSERT_OBJ(btn, "lv_btn");
 747              		.loc 1 390 1 is_stmt 0 view .LVU189
 748 0000 38B5     		push	{r3, r4, r5, lr}
 749              	.LCFI17:
 750              		.cfi_def_cfa_offset 16
 751              		.cfi_offset 3, -16
 752              		.cfi_offset 4, -12
 753              		.cfi_offset 5, -8
 754              		.cfi_offset 14, -4
 755 0002 0546     		mov	r5, r0
 391:lvgl/src/lv_widgets/lv_list.c **** 
 756              		.loc 1 391 5 is_stmt 1 view .LVU190
 391:lvgl/src/lv_widgets/lv_list.c **** 
 757              		.loc 1 391 5 view .LVU191
 758 0004 FFF7FEFF 		bl	lv_debug_check_null
 759              	.LVL69:
 391:lvgl/src/lv_widgets/lv_list.c **** 
 760              		.loc 1 391 5 is_stmt 0 view .LVU192
 761 0008 28B9     		cbnz	r0, .L82
 391:lvgl/src/lv_widgets/lv_list.c **** 
 762              		.loc 1 391 5 is_stmt 1 discriminator 1 view .LVU193
 391:lvgl/src/lv_widgets/lv_list.c **** 
 763              		.loc 1 391 5 discriminator 1 view .LVU194
 764 000a 2A46     		mov	r2, r5
 765 000c 0023     		movs	r3, #0
 766 000e 0B48     		ldr	r0, .L88
 767 0010 FFF7FEFF 		bl	lv_debug_log_error
 768              	.LVL70:
 769              	.L83:
 391:lvgl/src/lv_widgets/lv_list.c **** 
 770              		.loc 1 391 5 discriminator 1 view .LVU195
 391:lvgl/src/lv_widgets/lv_list.c **** 
 771              		.loc 1 391 5 discriminator 1 view .LVU196
 772 0014 FEE7     		b	.L83
 773              	.L82:
 391:lvgl/src/lv_widgets/lv_list.c **** 
 774              		.loc 1 391 33 discriminator 2 view .LVU197
ARM GAS  D:\Temp\cc6WWuOg.s 			page 33


 394:lvgl/src/lv_widgets/lv_list.c ****     if(img == NULL) return NULL;
 775              		.loc 1 394 5 discriminator 2 view .LVU198
 394:lvgl/src/lv_widgets/lv_list.c ****     if(img == NULL) return NULL;
 776              		.loc 1 394 22 is_stmt 0 discriminator 2 view .LVU199
 777 0016 0021     		movs	r1, #0
 778 0018 2846     		mov	r0, r5
 779 001a FFF7FEFF 		bl	lv_obj_get_child_back
 780              	.LVL71:
 395:lvgl/src/lv_widgets/lv_list.c **** 
 781              		.loc 1 395 5 is_stmt 1 discriminator 2 view .LVU200
 395:lvgl/src/lv_widgets/lv_list.c **** 
 782              		.loc 1 395 7 is_stmt 0 discriminator 2 view .LVU201
 783 001e 0446     		mov	r4, r0
 784 0020 50B1     		cbz	r0, .L81
 785              	.L85:
 397:lvgl/src/lv_widgets/lv_list.c ****         img = lv_obj_get_child_back(btn, img);
 786              		.loc 1 397 11 view .LVU202
 787 0022 2046     		mov	r0, r4
 397:lvgl/src/lv_widgets/lv_list.c ****         img = lv_obj_get_child_back(btn, img);
 788              		.loc 1 397 11 view .LVU203
 789 0024 FFF7FEFF 		bl	lv_list_is_list_img
 790              	.LVL72:
 397:lvgl/src/lv_widgets/lv_list.c ****         img = lv_obj_get_child_back(btn, img);
 791              		.loc 1 397 10 view .LVU204
 792 0028 30B9     		cbnz	r0, .L81
 398:lvgl/src/lv_widgets/lv_list.c ****         if(img == NULL) break;
 793              		.loc 1 398 9 is_stmt 1 view .LVU205
 398:lvgl/src/lv_widgets/lv_list.c ****         if(img == NULL) break;
 794              		.loc 1 398 15 is_stmt 0 view .LVU206
 795 002a 2146     		mov	r1, r4
 796 002c 2846     		mov	r0, r5
 797 002e FFF7FEFF 		bl	lv_obj_get_child_back
 798              	.LVL73:
 399:lvgl/src/lv_widgets/lv_list.c ****     }
 799              		.loc 1 399 9 is_stmt 1 view .LVU207
 399:lvgl/src/lv_widgets/lv_list.c ****     }
 800              		.loc 1 399 11 is_stmt 0 view .LVU208
 801 0032 0446     		mov	r4, r0
 802 0034 0028     		cmp	r0, #0
 803 0036 F4D1     		bne	.L85
 804              	.LVL74:
 805              	.L81:
 406:lvgl/src/lv_widgets/lv_list.c **** 
 806              		.loc 1 406 1 view .LVU209
 807 0038 2046     		mov	r0, r4
 808 003a 38BD     		pop	{r3, r4, r5, pc}
 809              	.LVL75:
 810              	.L89:
 406:lvgl/src/lv_widgets/lv_list.c **** 
 811              		.loc 1 406 1 view .LVU210
 812              		.align	2
 813              	.L88:
 814 003c 00000000 		.word	.LC0
 815              		.cfi_endproc
 816              	.LFE498:
 818              		.section	.text.lv_list_get_prev_btn,"ax",%progbits
 819              		.align	1
ARM GAS  D:\Temp\cc6WWuOg.s 			page 34


 820              		.global	lv_list_get_prev_btn
 821              		.syntax unified
 822              		.thumb
 823              		.thumb_func
 824              		.fpu fpv4-sp-d16
 826              	lv_list_get_prev_btn:
 827              	.LVL76:
 828              	.LFB499:
 415:lvgl/src/lv_widgets/lv_list.c ****     LV_ASSERT_OBJ(list, LV_OBJX_NAME);
 829              		.loc 1 415 1 is_stmt 1 view -0
 830              		.cfi_startproc
 831              		@ args = 0, pretend = 0, frame = 0
 832              		@ frame_needed = 0, uses_anonymous_args = 0
 415:lvgl/src/lv_widgets/lv_list.c ****     LV_ASSERT_OBJ(list, LV_OBJX_NAME);
 833              		.loc 1 415 1 is_stmt 0 view .LVU212
 834 0000 70B5     		push	{r4, r5, r6, lr}
 835              	.LCFI18:
 836              		.cfi_def_cfa_offset 16
 837              		.cfi_offset 4, -16
 838              		.cfi_offset 5, -12
 839              		.cfi_offset 6, -8
 840              		.cfi_offset 14, -4
 841 0002 0446     		mov	r4, r0
 842 0004 0D46     		mov	r5, r1
 416:lvgl/src/lv_widgets/lv_list.c **** 
 843              		.loc 1 416 5 is_stmt 1 view .LVU213
 416:lvgl/src/lv_widgets/lv_list.c **** 
 844              		.loc 1 416 5 view .LVU214
 845 0006 FFF7FEFF 		bl	lv_debug_check_null
 846              	.LVL77:
 416:lvgl/src/lv_widgets/lv_list.c **** 
 847              		.loc 1 416 5 is_stmt 0 view .LVU215
 848 000a 28B9     		cbnz	r0, .L91
 416:lvgl/src/lv_widgets/lv_list.c **** 
 849              		.loc 1 416 5 is_stmt 1 discriminator 1 view .LVU216
 416:lvgl/src/lv_widgets/lv_list.c **** 
 850              		.loc 1 416 5 discriminator 1 view .LVU217
 851 000c 2246     		mov	r2, r4
 852 000e 0023     		movs	r3, #0
 853 0010 0C48     		ldr	r0, .L97
 854 0012 FFF7FEFF 		bl	lv_debug_log_error
 855              	.LVL78:
 856              	.L92:
 416:lvgl/src/lv_widgets/lv_list.c **** 
 857              		.loc 1 416 5 discriminator 1 view .LVU218
 416:lvgl/src/lv_widgets/lv_list.c **** 
 858              		.loc 1 416 5 discriminator 1 view .LVU219
 859 0016 FEE7     		b	.L92
 860              	.L91:
 416:lvgl/src/lv_widgets/lv_list.c **** 
 861              		.loc 1 416 38 discriminator 2 view .LVU220
 421:lvgl/src/lv_widgets/lv_list.c ****     lv_obj_t * scrl = lv_page_get_scrollable(list);
 862              		.loc 1 421 5 discriminator 2 view .LVU221
 422:lvgl/src/lv_widgets/lv_list.c **** 
 863              		.loc 1 422 5 discriminator 2 view .LVU222
 422:lvgl/src/lv_widgets/lv_list.c **** 
 864              		.loc 1 422 23 is_stmt 0 discriminator 2 view .LVU223
ARM GAS  D:\Temp\cc6WWuOg.s 			page 35


 865 0018 2046     		mov	r0, r4
 866 001a FFF7FEFF 		bl	lv_page_get_scrollable
 867              	.LVL79:
 868 001e 0646     		mov	r6, r0
 869              	.LVL80:
 424:lvgl/src/lv_widgets/lv_list.c ****     if(btn == NULL) return NULL;
 870              		.loc 1 424 5 is_stmt 1 discriminator 2 view .LVU224
 424:lvgl/src/lv_widgets/lv_list.c ****     if(btn == NULL) return NULL;
 871              		.loc 1 424 11 is_stmt 0 discriminator 2 view .LVU225
 872 0020 2946     		mov	r1, r5
 873 0022 FFF7FEFF 		bl	lv_obj_get_child
 874              	.LVL81:
 425:lvgl/src/lv_widgets/lv_list.c **** 
 875              		.loc 1 425 5 is_stmt 1 discriminator 2 view .LVU226
 425:lvgl/src/lv_widgets/lv_list.c **** 
 876              		.loc 1 425 7 is_stmt 0 discriminator 2 view .LVU227
 877 0026 0446     		mov	r4, r0
 878              	.LVL82:
 425:lvgl/src/lv_widgets/lv_list.c **** 
 879              		.loc 1 425 7 discriminator 2 view .LVU228
 880 0028 50B1     		cbz	r0, .L90
 881              	.L94:
 427:lvgl/src/lv_widgets/lv_list.c ****         btn = lv_obj_get_child(scrl, btn);
 882              		.loc 1 427 11 view .LVU229
 883 002a 2046     		mov	r0, r4
 427:lvgl/src/lv_widgets/lv_list.c ****         btn = lv_obj_get_child(scrl, btn);
 884              		.loc 1 427 11 view .LVU230
 885 002c FFF7FEFF 		bl	lv_list_is_list_btn
 886              	.LVL83:
 427:lvgl/src/lv_widgets/lv_list.c ****         btn = lv_obj_get_child(scrl, btn);
 887              		.loc 1 427 10 view .LVU231
 888 0030 30B9     		cbnz	r0, .L90
 428:lvgl/src/lv_widgets/lv_list.c ****         if(btn == NULL) break;
 889              		.loc 1 428 9 is_stmt 1 view .LVU232
 428:lvgl/src/lv_widgets/lv_list.c ****         if(btn == NULL) break;
 890              		.loc 1 428 15 is_stmt 0 view .LVU233
 891 0032 2146     		mov	r1, r4
 892 0034 3046     		mov	r0, r6
 893 0036 FFF7FEFF 		bl	lv_obj_get_child
 894              	.LVL84:
 429:lvgl/src/lv_widgets/lv_list.c ****     }
 895              		.loc 1 429 9 is_stmt 1 view .LVU234
 429:lvgl/src/lv_widgets/lv_list.c ****     }
 896              		.loc 1 429 11 is_stmt 0 view .LVU235
 897 003a 0446     		mov	r4, r0
 898 003c 0028     		cmp	r0, #0
 899 003e F4D1     		bne	.L94
 900              	.LVL85:
 901              	.L90:
 433:lvgl/src/lv_widgets/lv_list.c **** 
 902              		.loc 1 433 1 view .LVU236
 903 0040 2046     		mov	r0, r4
 904 0042 70BD     		pop	{r4, r5, r6, pc}
 905              	.LVL86:
 906              	.L98:
 433:lvgl/src/lv_widgets/lv_list.c **** 
 907              		.loc 1 433 1 view .LVU237
ARM GAS  D:\Temp\cc6WWuOg.s 			page 36


 908              		.align	2
 909              	.L97:
 910 0044 00000000 		.word	.LC0
 911              		.cfi_endproc
 912              	.LFE499:
 914              		.section	.text.lv_list_get_next_btn,"ax",%progbits
 915              		.align	1
 916              		.global	lv_list_get_next_btn
 917              		.syntax unified
 918              		.thumb
 919              		.thumb_func
 920              		.fpu fpv4-sp-d16
 922              	lv_list_get_next_btn:
 923              	.LVL87:
 924              	.LFB500:
 442:lvgl/src/lv_widgets/lv_list.c ****     LV_ASSERT_OBJ(list, LV_OBJX_NAME);
 925              		.loc 1 442 1 is_stmt 1 view -0
 926              		.cfi_startproc
 927              		@ args = 0, pretend = 0, frame = 0
 928              		@ frame_needed = 0, uses_anonymous_args = 0
 442:lvgl/src/lv_widgets/lv_list.c ****     LV_ASSERT_OBJ(list, LV_OBJX_NAME);
 929              		.loc 1 442 1 is_stmt 0 view .LVU239
 930 0000 70B5     		push	{r4, r5, r6, lr}
 931              	.LCFI19:
 932              		.cfi_def_cfa_offset 16
 933              		.cfi_offset 4, -16
 934              		.cfi_offset 5, -12
 935              		.cfi_offset 6, -8
 936              		.cfi_offset 14, -4
 937 0002 0446     		mov	r4, r0
 938 0004 0D46     		mov	r5, r1
 443:lvgl/src/lv_widgets/lv_list.c **** 
 939              		.loc 1 443 5 is_stmt 1 view .LVU240
 443:lvgl/src/lv_widgets/lv_list.c **** 
 940              		.loc 1 443 5 view .LVU241
 941 0006 FFF7FEFF 		bl	lv_debug_check_null
 942              	.LVL88:
 443:lvgl/src/lv_widgets/lv_list.c **** 
 943              		.loc 1 443 5 is_stmt 0 view .LVU242
 944 000a 28B9     		cbnz	r0, .L100
 443:lvgl/src/lv_widgets/lv_list.c **** 
 945              		.loc 1 443 5 is_stmt 1 discriminator 1 view .LVU243
 443:lvgl/src/lv_widgets/lv_list.c **** 
 946              		.loc 1 443 5 discriminator 1 view .LVU244
 947 000c 2246     		mov	r2, r4
 948 000e 0023     		movs	r3, #0
 949 0010 0C48     		ldr	r0, .L106
 950 0012 FFF7FEFF 		bl	lv_debug_log_error
 951              	.LVL89:
 952              	.L101:
 443:lvgl/src/lv_widgets/lv_list.c **** 
 953              		.loc 1 443 5 discriminator 1 view .LVU245
 443:lvgl/src/lv_widgets/lv_list.c **** 
 954              		.loc 1 443 5 discriminator 1 view .LVU246
 955 0016 FEE7     		b	.L101
 956              	.L100:
 443:lvgl/src/lv_widgets/lv_list.c **** 
ARM GAS  D:\Temp\cc6WWuOg.s 			page 37


 957              		.loc 1 443 38 discriminator 2 view .LVU247
 448:lvgl/src/lv_widgets/lv_list.c ****     lv_obj_t * scrl = lv_page_get_scrollable(list);
 958              		.loc 1 448 5 discriminator 2 view .LVU248
 449:lvgl/src/lv_widgets/lv_list.c **** 
 959              		.loc 1 449 5 discriminator 2 view .LVU249
 449:lvgl/src/lv_widgets/lv_list.c **** 
 960              		.loc 1 449 23 is_stmt 0 discriminator 2 view .LVU250
 961 0018 2046     		mov	r0, r4
 962 001a FFF7FEFF 		bl	lv_page_get_scrollable
 963              	.LVL90:
 964 001e 0646     		mov	r6, r0
 965              	.LVL91:
 451:lvgl/src/lv_widgets/lv_list.c ****     if(btn == NULL) return NULL;
 966              		.loc 1 451 5 is_stmt 1 discriminator 2 view .LVU251
 451:lvgl/src/lv_widgets/lv_list.c ****     if(btn == NULL) return NULL;
 967              		.loc 1 451 11 is_stmt 0 discriminator 2 view .LVU252
 968 0020 2946     		mov	r1, r5
 969 0022 FFF7FEFF 		bl	lv_obj_get_child_back
 970              	.LVL92:
 452:lvgl/src/lv_widgets/lv_list.c **** 
 971              		.loc 1 452 5 is_stmt 1 discriminator 2 view .LVU253
 452:lvgl/src/lv_widgets/lv_list.c **** 
 972              		.loc 1 452 7 is_stmt 0 discriminator 2 view .LVU254
 973 0026 0446     		mov	r4, r0
 974              	.LVL93:
 452:lvgl/src/lv_widgets/lv_list.c **** 
 975              		.loc 1 452 7 discriminator 2 view .LVU255
 976 0028 50B1     		cbz	r0, .L99
 977              	.L103:
 454:lvgl/src/lv_widgets/lv_list.c ****         btn = lv_obj_get_child_back(scrl, btn);
 978              		.loc 1 454 11 view .LVU256
 979 002a 2046     		mov	r0, r4
 454:lvgl/src/lv_widgets/lv_list.c ****         btn = lv_obj_get_child_back(scrl, btn);
 980              		.loc 1 454 11 view .LVU257
 981 002c FFF7FEFF 		bl	lv_list_is_list_btn
 982              	.LVL94:
 454:lvgl/src/lv_widgets/lv_list.c ****         btn = lv_obj_get_child_back(scrl, btn);
 983              		.loc 1 454 10 view .LVU258
 984 0030 30B9     		cbnz	r0, .L99
 455:lvgl/src/lv_widgets/lv_list.c ****         if(btn == NULL) break;
 985              		.loc 1 455 9 is_stmt 1 view .LVU259
 455:lvgl/src/lv_widgets/lv_list.c ****         if(btn == NULL) break;
 986              		.loc 1 455 15 is_stmt 0 view .LVU260
 987 0032 2146     		mov	r1, r4
 988 0034 3046     		mov	r0, r6
 989 0036 FFF7FEFF 		bl	lv_obj_get_child_back
 990              	.LVL95:
 456:lvgl/src/lv_widgets/lv_list.c ****     }
 991              		.loc 1 456 9 is_stmt 1 view .LVU261
 456:lvgl/src/lv_widgets/lv_list.c ****     }
 992              		.loc 1 456 11 is_stmt 0 view .LVU262
 993 003a 0446     		mov	r4, r0
 994 003c 0028     		cmp	r0, #0
 995 003e F4D1     		bne	.L103
 996              	.LVL96:
 997              	.L99:
 460:lvgl/src/lv_widgets/lv_list.c **** 
ARM GAS  D:\Temp\cc6WWuOg.s 			page 38


 998              		.loc 1 460 1 view .LVU263
 999 0040 2046     		mov	r0, r4
 1000 0042 70BD     		pop	{r4, r5, r6, pc}
 1001              	.LVL97:
 1002              	.L107:
 460:lvgl/src/lv_widgets/lv_list.c **** 
 1003              		.loc 1 460 1 view .LVU264
 1004              		.align	2
 1005              	.L106:
 1006 0044 00000000 		.word	.LC0
 1007              		.cfi_endproc
 1008              	.LFE500:
 1010              		.section	.text.lv_list_signal,"ax",%progbits
 1011              		.align	1
 1012              		.syntax unified
 1013              		.thumb
 1014              		.thumb_func
 1015              		.fpu fpv4-sp-d16
 1017              	lv_list_signal:
 1018              	.LVL98:
 1019              	.LFB508:
 646:lvgl/src/lv_widgets/lv_list.c ****     lv_res_t res;
 1020              		.loc 1 646 1 is_stmt 1 view -0
 1021              		.cfi_startproc
 1022              		@ args = 0, pretend = 0, frame = 0
 1023              		@ frame_needed = 0, uses_anonymous_args = 0
 646:lvgl/src/lv_widgets/lv_list.c ****     lv_res_t res;
 1024              		.loc 1 646 1 is_stmt 0 view .LVU266
 1025 0000 2DE9F041 		push	{r4, r5, r6, r7, r8, lr}
 1026              	.LCFI20:
 1027              		.cfi_def_cfa_offset 24
 1028              		.cfi_offset 4, -24
 1029              		.cfi_offset 5, -20
 1030              		.cfi_offset 6, -16
 1031              		.cfi_offset 7, -12
 1032              		.cfi_offset 8, -8
 1033              		.cfi_offset 14, -4
 1034 0004 0746     		mov	r7, r0
 1035 0006 0C46     		mov	r4, r1
 1036 0008 1646     		mov	r6, r2
 647:lvgl/src/lv_widgets/lv_list.c ****     if(sign == LV_SIGNAL_GET_STYLE) {
 1037              		.loc 1 647 5 is_stmt 1 view .LVU267
 648:lvgl/src/lv_widgets/lv_list.c ****         lv_get_style_info_t * info = param;
 1038              		.loc 1 648 5 view .LVU268
 648:lvgl/src/lv_widgets/lv_list.c ****         lv_get_style_info_t * info = param;
 1039              		.loc 1 648 7 is_stmt 0 view .LVU269
 1040 000a 0829     		cmp	r1, #8
 1041 000c 35D0     		beq	.L135
 656:lvgl/src/lv_widgets/lv_list.c ****     if(res != LV_RES_OK) return res;
 1042              		.loc 1 656 5 is_stmt 1 view .LVU270
 656:lvgl/src/lv_widgets/lv_list.c ****     if(res != LV_RES_OK) return res;
 1043              		.loc 1 656 11 is_stmt 0 view .LVU271
 1044 000e 984B     		ldr	r3, .L148
 1045 0010 1B68     		ldr	r3, [r3]
 1046 0012 9847     		blx	r3
 1047              	.LVL99:
 656:lvgl/src/lv_widgets/lv_list.c ****     if(res != LV_RES_OK) return res;
ARM GAS  D:\Temp\cc6WWuOg.s 			page 39


 1048              		.loc 1 656 11 view .LVU272
 1049 0014 0546     		mov	r5, r0
 1050              	.LVL100:
 657:lvgl/src/lv_widgets/lv_list.c ****     if(sign == LV_SIGNAL_GET_TYPE) return lv_obj_handle_get_type_signal(param, LV_OBJX_NAME);
 1051              		.loc 1 657 5 is_stmt 1 view .LVU273
 657:lvgl/src/lv_widgets/lv_list.c ****     if(sign == LV_SIGNAL_GET_TYPE) return lv_obj_handle_get_type_signal(param, LV_OBJX_NAME);
 1052              		.loc 1 657 7 is_stmt 0 view .LVU274
 1053 0016 0128     		cmp	r0, #1
 1054 0018 4DD1     		bne	.L110
 658:lvgl/src/lv_widgets/lv_list.c **** 
 1055              		.loc 1 658 5 is_stmt 1 view .LVU275
 658:lvgl/src/lv_widgets/lv_list.c **** 
 1056              		.loc 1 658 7 is_stmt 0 view .LVU276
 1057 001a 072C     		cmp	r4, #7
 1058 001c 3CD0     		beq	.L136
 660:lvgl/src/lv_widgets/lv_list.c ****        sign == LV_SIGNAL_LONG_PRESS || sign == LV_SIGNAL_LONG_PRESS_REP) {
 1059              		.loc 1 660 5 is_stmt 1 view .LVU277
 660:lvgl/src/lv_widgets/lv_list.c ****        sign == LV_SIGNAL_LONG_PRESS || sign == LV_SIGNAL_LONG_PRESS_REP) {
 1060              		.loc 1 660 7 is_stmt 0 view .LVU278
 1061 001e 0E2C     		cmp	r4, #14
 1062 0020 40D0     		beq	.L112
 660:lvgl/src/lv_widgets/lv_list.c ****        sign == LV_SIGNAL_LONG_PRESS || sign == LV_SIGNAL_LONG_PRESS_REP) {
 1063              		.loc 1 660 35 discriminator 1 view .LVU279
 1064 0022 0B2C     		cmp	r4, #11
 1065 0024 3ED0     		beq	.L112
 660:lvgl/src/lv_widgets/lv_list.c ****        sign == LV_SIGNAL_LONG_PRESS || sign == LV_SIGNAL_LONG_PRESS_REP) {
 1066              		.loc 1 660 64 discriminator 2 view .LVU280
 1067 0026 0C2C     		cmp	r4, #12
 1068 0028 3CD0     		beq	.L112
 660:lvgl/src/lv_widgets/lv_list.c ****        sign == LV_SIGNAL_LONG_PRESS || sign == LV_SIGNAL_LONG_PRESS_REP) {
 1069              		.loc 1 660 94 discriminator 3 view .LVU281
 1070 002a 0F2C     		cmp	r4, #15
 1071 002c 3AD0     		beq	.L112
 661:lvgl/src/lv_widgets/lv_list.c **** #if LV_USE_GROUP
 1072              		.loc 1 661 37 view .LVU282
 1073 002e 102C     		cmp	r4, #16
 1074 0030 38D0     		beq	.L112
 708:lvgl/src/lv_widgets/lv_list.c **** 
 1075              		.loc 1 708 10 is_stmt 1 view .LVU283
 708:lvgl/src/lv_widgets/lv_list.c **** 
 1076              		.loc 1 708 12 is_stmt 0 view .LVU284
 1077 0032 162C     		cmp	r4, #22
 1078 0034 00F09D80 		beq	.L137
 728:lvgl/src/lv_widgets/lv_list.c **** 
 1079              		.loc 1 728 10 is_stmt 1 view .LVU285
 728:lvgl/src/lv_widgets/lv_list.c **** 
 1080              		.loc 1 728 12 is_stmt 0 view .LVU286
 1081 0038 172C     		cmp	r4, #23
 1082 003a 00F0D480 		beq	.L138
 737:lvgl/src/lv_widgets/lv_list.c **** #if LV_USE_GROUP
 1083              		.loc 1 737 10 is_stmt 1 view .LVU287
 737:lvgl/src/lv_widgets/lv_list.c **** #if LV_USE_GROUP
 1084              		.loc 1 737 12 is_stmt 0 view .LVU288
 1085 003e 192C     		cmp	r4, #25
 1086 0040 00F0DB80 		beq	.L139
 743:lvgl/src/lv_widgets/lv_list.c **** 
 1087              		.loc 1 743 10 is_stmt 1 view .LVU289
ARM GAS  D:\Temp\cc6WWuOg.s 			page 40


 743:lvgl/src/lv_widgets/lv_list.c **** 
 1088              		.loc 1 743 12 is_stmt 0 view .LVU290
 1089 0044 182C     		cmp	r4, #24
 1090 0046 36D1     		bne	.L110
 1091              	.LBB91:
 746:lvgl/src/lv_widgets/lv_list.c ****         if(c == LV_KEY_RIGHT || c == LV_KEY_DOWN) {
 1092              		.loc 1 746 9 is_stmt 1 view .LVU291
 746:lvgl/src/lv_widgets/lv_list.c ****         if(c == LV_KEY_RIGHT || c == LV_KEY_DOWN) {
 1093              		.loc 1 746 14 is_stmt 0 view .LVU292
 1094 0048 3278     		ldrb	r2, [r6]	@ zero_extendqisi2
 1095              	.LVL101:
 747:lvgl/src/lv_widgets/lv_list.c ****             lv_list_ext_t * ext = lv_obj_get_ext_attr(list);
 1096              		.loc 1 747 9 is_stmt 1 view .LVU293
 747:lvgl/src/lv_widgets/lv_list.c ****             lv_list_ext_t * ext = lv_obj_get_ext_attr(list);
 1097              		.loc 1 747 30 is_stmt 0 view .LVU294
 1098 004a A2F11203 		sub	r3, r2, #18
 1099 004e DBB2     		uxtb	r3, r3
 747:lvgl/src/lv_widgets/lv_list.c ****             lv_list_ext_t * ext = lv_obj_get_ext_attr(list);
 1100              		.loc 1 747 11 view .LVU295
 1101 0050 012B     		cmp	r3, #1
 1102 0052 40F2D580 		bls	.L140
 762:lvgl/src/lv_widgets/lv_list.c ****             lv_list_ext_t * ext = lv_obj_get_ext_attr(list);
 1103              		.loc 1 762 14 is_stmt 1 view .LVU296
 762:lvgl/src/lv_widgets/lv_list.c ****             lv_list_ext_t * ext = lv_obj_get_ext_attr(list);
 1104              		.loc 1 762 16 is_stmt 0 view .LVU297
 1105 0056 142A     		cmp	r2, #20
 1106 0058 00F0EE80 		beq	.L130
 762:lvgl/src/lv_widgets/lv_list.c ****             lv_list_ext_t * ext = lv_obj_get_ext_attr(list);
 1107              		.loc 1 762 34 discriminator 1 view .LVU298
 1108 005c 112A     		cmp	r2, #17
 1109 005e 00F0EB80 		beq	.L130
 775:lvgl/src/lv_widgets/lv_list.c ****             lv_list_ext_t * ext = lv_obj_get_ext_attr(list);
 1110              		.loc 1 775 14 is_stmt 1 view .LVU299
 775:lvgl/src/lv_widgets/lv_list.c ****             lv_list_ext_t * ext = lv_obj_get_ext_attr(list);
 1111              		.loc 1 775 16 is_stmt 0 view .LVU300
 1112 0062 1B2A     		cmp	r2, #27
 1113 0064 27D1     		bne	.L110
 1114              	.LBB92:
 776:lvgl/src/lv_widgets/lv_list.c ****             /* Handle ESC/Cancel event */
 1115              		.loc 1 776 13 is_stmt 1 view .LVU301
 776:lvgl/src/lv_widgets/lv_list.c ****             /* Handle ESC/Cancel event */
 1116              		.loc 1 776 35 is_stmt 0 view .LVU302
 1117 0066 3846     		mov	r0, r7
 1118              	.LVL102:
 776:lvgl/src/lv_widgets/lv_list.c ****             /* Handle ESC/Cancel event */
 1119              		.loc 1 776 35 view .LVU303
 1120 0068 FFF7FEFF 		bl	lv_obj_get_ext_attr
 1121              	.LVL103:
 778:lvgl/src/lv_widgets/lv_list.c ****         }
 1122              		.loc 1 778 13 is_stmt 1 view .LVU304
 778:lvgl/src/lv_widgets/lv_list.c ****         }
 1123              		.loc 1 778 19 is_stmt 0 view .LVU305
 1124 006c 0022     		movs	r2, #0
 1125 006e 1421     		movs	r1, #20
 1126 0070 406C     		ldr	r0, [r0, #68]
 1127              	.LVL104:
 778:lvgl/src/lv_widgets/lv_list.c ****         }
ARM GAS  D:\Temp\cc6WWuOg.s 			page 41


 1128              		.loc 1 778 19 view .LVU306
 1129 0072 FFF7FEFF 		bl	lv_event_send
 1130              	.LVL105:
 1131 0076 0546     		mov	r5, r0
 1132              	.LVL106:
 778:lvgl/src/lv_widgets/lv_list.c ****         }
 1133              		.loc 1 778 19 view .LVU307
 1134 0078 1DE0     		b	.L110
 1135              	.LVL107:
 1136              	.L135:
 778:lvgl/src/lv_widgets/lv_list.c ****         }
 1137              		.loc 1 778 19 view .LVU308
 1138              	.LBE92:
 1139              	.LBE91:
 1140              	.LBB99:
 649:lvgl/src/lv_widgets/lv_list.c ****         info->result = lv_list_get_style(list, info->part);
 1141              		.loc 1 649 9 is_stmt 1 view .LVU309
 650:lvgl/src/lv_widgets/lv_list.c ****         if(info->result != NULL) return LV_RES_OK;
 1142              		.loc 1 650 9 view .LVU310
 650:lvgl/src/lv_widgets/lv_list.c ****         if(info->result != NULL) return LV_RES_OK;
 1143              		.loc 1 650 24 is_stmt 0 view .LVU311
 1144 007a 1178     		ldrb	r1, [r2]	@ zero_extendqisi2
 1145              	.LVL108:
 650:lvgl/src/lv_widgets/lv_list.c ****         if(info->result != NULL) return LV_RES_OK;
 1146              		.loc 1 650 24 view .LVU312
 1147 007c FFF7FEFF 		bl	lv_list_get_style
 1148              	.LVL109:
 650:lvgl/src/lv_widgets/lv_list.c ****         if(info->result != NULL) return LV_RES_OK;
 1149              		.loc 1 650 22 view .LVU313
 1150 0080 7060     		str	r0, [r6, #4]
 651:lvgl/src/lv_widgets/lv_list.c ****         else return ancestor_page_signal(list, sign, param);
 1151              		.loc 1 651 9 is_stmt 1 view .LVU314
 651:lvgl/src/lv_widgets/lv_list.c ****         else return ancestor_page_signal(list, sign, param);
 1152              		.loc 1 651 11 is_stmt 0 view .LVU315
 1153 0082 08B1     		cbz	r0, .L141
 651:lvgl/src/lv_widgets/lv_list.c ****         else return ancestor_page_signal(list, sign, param);
 1154              		.loc 1 651 41 view .LVU316
 1155 0084 0125     		movs	r5, #1
 1156 0086 16E0     		b	.L110
 1157              	.L141:
 652:lvgl/src/lv_widgets/lv_list.c ****     }
 1158              		.loc 1 652 14 is_stmt 1 view .LVU317
 652:lvgl/src/lv_widgets/lv_list.c ****     }
 1159              		.loc 1 652 21 is_stmt 0 view .LVU318
 1160 0088 794B     		ldr	r3, .L148
 1161 008a 1B68     		ldr	r3, [r3]
 1162 008c 3246     		mov	r2, r6
 1163 008e 2146     		mov	r1, r4
 1164 0090 3846     		mov	r0, r7
 1165 0092 9847     		blx	r3
 1166              	.LVL110:
 1167 0094 0546     		mov	r5, r0
 1168 0096 0EE0     		b	.L110
 1169              	.LVL111:
 1170              	.L136:
 652:lvgl/src/lv_widgets/lv_list.c ****     }
 1171              		.loc 1 652 21 view .LVU319
ARM GAS  D:\Temp\cc6WWuOg.s 			page 42


 1172              	.LBE99:
 658:lvgl/src/lv_widgets/lv_list.c **** 
 1173              		.loc 1 658 36 is_stmt 1 discriminator 1 view .LVU320
 658:lvgl/src/lv_widgets/lv_list.c **** 
 1174              		.loc 1 658 43 is_stmt 0 discriminator 1 view .LVU321
 1175 0098 7649     		ldr	r1, .L148+4
 1176 009a 3046     		mov	r0, r6
 1177              	.LVL112:
 658:lvgl/src/lv_widgets/lv_list.c **** 
 1178              		.loc 1 658 43 discriminator 1 view .LVU322
 1179 009c FFF7FEFF 		bl	lv_obj_handle_get_type_signal
 1180              	.LVL113:
 1181 00a0 0546     		mov	r5, r0
 1182 00a2 08E0     		b	.L110
 1183              	.LVL114:
 1184              	.L112:
 1185              	.LBB100:
 664:lvgl/src/lv_widgets/lv_list.c ****         lv_indev_type_t indev_type = lv_indev_get_type(indev);
 1186              		.loc 1 664 9 is_stmt 1 view .LVU323
 664:lvgl/src/lv_widgets/lv_list.c ****         lv_indev_type_t indev_type = lv_indev_get_type(indev);
 1187              		.loc 1 664 38 is_stmt 0 view .LVU324
 1188 00a4 FFF7FEFF 		bl	lv_indev_get_act
 1189              	.LVL115:
 664:lvgl/src/lv_widgets/lv_list.c ****         lv_indev_type_t indev_type = lv_indev_get_type(indev);
 1190              		.loc 1 664 38 view .LVU325
 1191 00a8 8046     		mov	r8, r0
 1192              	.LVL116:
 665:lvgl/src/lv_widgets/lv_list.c ****         if(indev_type == LV_INDEV_TYPE_KEYPAD ||
 1193              		.loc 1 665 9 is_stmt 1 view .LVU326
 665:lvgl/src/lv_widgets/lv_list.c ****         if(indev_type == LV_INDEV_TYPE_KEYPAD ||
 1194              		.loc 1 665 38 is_stmt 0 view .LVU327
 1195 00aa FFF7FEFF 		bl	lv_indev_get_type
 1196              	.LVL117:
 666:lvgl/src/lv_widgets/lv_list.c ****            (indev_type == LV_INDEV_TYPE_ENCODER && lv_group_get_editing(lv_obj_get_group(list)))) {
 1197              		.loc 1 666 9 is_stmt 1 view .LVU328
 666:lvgl/src/lv_widgets/lv_list.c ****            (indev_type == LV_INDEV_TYPE_ENCODER && lv_group_get_editing(lv_obj_get_group(list)))) {
 1198              		.loc 1 666 11 is_stmt 0 view .LVU329
 1199 00ae 0228     		cmp	r0, #2
 1200 00b0 0BD0     		beq	.L114
 666:lvgl/src/lv_widgets/lv_list.c ****            (indev_type == LV_INDEV_TYPE_ENCODER && lv_group_get_editing(lv_obj_get_group(list)))) {
 1201              		.loc 1 666 47 discriminator 1 view .LVU330
 1202 00b2 0428     		cmp	r0, #4
 1203 00b4 02D0     		beq	.L142
 1204              	.LVL118:
 1205              	.L110:
 666:lvgl/src/lv_widgets/lv_list.c ****            (indev_type == LV_INDEV_TYPE_ENCODER && lv_group_get_editing(lv_obj_get_group(list)))) {
 1206              		.loc 1 666 47 discriminator 1 view .LVU331
 1207              	.LBE100:
 783:lvgl/src/lv_widgets/lv_list.c **** 
 1208              		.loc 1 783 1 view .LVU332
 1209 00b6 2846     		mov	r0, r5
 1210 00b8 BDE8F081 		pop	{r4, r5, r6, r7, r8, pc}
 1211              	.LVL119:
 1212              	.L142:
 1213              	.LBB102:
 667:lvgl/src/lv_widgets/lv_list.c ****             lv_list_ext_t * ext = lv_obj_get_ext_attr(list);
 1214              		.loc 1 667 73 view .LVU333
ARM GAS  D:\Temp\cc6WWuOg.s 			page 43


 1215 00bc 3846     		mov	r0, r7
 1216              	.LVL120:
 667:lvgl/src/lv_widgets/lv_list.c ****             lv_list_ext_t * ext = lv_obj_get_ext_attr(list);
 1217              		.loc 1 667 73 view .LVU334
 1218 00be FFF7FEFF 		bl	lv_obj_get_group
 1219              	.LVL121:
 667:lvgl/src/lv_widgets/lv_list.c ****             lv_list_ext_t * ext = lv_obj_get_ext_attr(list);
 1220              		.loc 1 667 52 view .LVU335
 1221 00c2 FFF7FEFF 		bl	lv_group_get_editing
 1222              	.LVL122:
 667:lvgl/src/lv_widgets/lv_list.c ****             lv_list_ext_t * ext = lv_obj_get_ext_attr(list);
 1223              		.loc 1 667 49 view .LVU336
 1224 00c6 0028     		cmp	r0, #0
 1225 00c8 F5D0     		beq	.L110
 1226              	.L114:
 1227              	.LBB101:
 668:lvgl/src/lv_widgets/lv_list.c **** 
 1228              		.loc 1 668 13 is_stmt 1 view .LVU337
 668:lvgl/src/lv_widgets/lv_list.c **** 
 1229              		.loc 1 668 35 is_stmt 0 view .LVU338
 1230 00ca 3846     		mov	r0, r7
 1231 00cc FFF7FEFF 		bl	lv_obj_get_ext_attr
 1232              	.LVL123:
 1233 00d0 0746     		mov	r7, r0
 1234              	.LVL124:
 672:lvgl/src/lv_widgets/lv_list.c ****                 res = lv_signal_send(ext->act_sel_btn, sign, param);
 1235              		.loc 1 672 13 is_stmt 1 view .LVU339
 672:lvgl/src/lv_widgets/lv_list.c ****                 res = lv_signal_send(ext->act_sel_btn, sign, param);
 1236              		.loc 1 672 19 is_stmt 0 view .LVU340
 1237 00d2 406C     		ldr	r0, [r0, #68]
 1238              	.LVL125:
 672:lvgl/src/lv_widgets/lv_list.c ****                 res = lv_signal_send(ext->act_sel_btn, sign, param);
 1239              		.loc 1 672 15 view .LVU341
 1240 00d4 0028     		cmp	r0, #0
 1241 00d6 EED0     		beq	.L110
 673:lvgl/src/lv_widgets/lv_list.c ****                 if(res != LV_RES_OK) return res;
 1242              		.loc 1 673 17 is_stmt 1 view .LVU342
 673:lvgl/src/lv_widgets/lv_list.c ****                 if(res != LV_RES_OK) return res;
 1243              		.loc 1 673 23 is_stmt 0 view .LVU343
 1244 00d8 3246     		mov	r2, r6
 1245 00da 2146     		mov	r1, r4
 1246 00dc FFF7FEFF 		bl	lv_signal_send
 1247              	.LVL126:
 1248 00e0 0546     		mov	r5, r0
 1249              	.LVL127:
 674:lvgl/src/lv_widgets/lv_list.c ****                 if(sign == LV_SIGNAL_PRESSED) {
 1250              		.loc 1 674 17 is_stmt 1 view .LVU344
 674:lvgl/src/lv_widgets/lv_list.c ****                 if(sign == LV_SIGNAL_PRESSED) {
 1251              		.loc 1 674 19 is_stmt 0 view .LVU345
 1252 00e2 0128     		cmp	r0, #1
 1253 00e4 E7D1     		bne	.L110
 675:lvgl/src/lv_widgets/lv_list.c ****                     res = lv_event_send(ext->act_sel_btn, LV_EVENT_PRESSED, NULL);
 1254              		.loc 1 675 17 is_stmt 1 view .LVU346
 675:lvgl/src/lv_widgets/lv_list.c ****                     res = lv_event_send(ext->act_sel_btn, LV_EVENT_PRESSED, NULL);
 1255              		.loc 1 675 19 is_stmt 0 view .LVU347
 1256 00e6 0B2C     		cmp	r4, #11
 1257 00e8 27D0     		beq	.L143
ARM GAS  D:\Temp\cc6WWuOg.s 			page 44


 679:lvgl/src/lv_widgets/lv_list.c ****                     res = lv_event_send(ext->act_sel_btn, LV_EVENT_PRESSING, NULL);
 1258              		.loc 1 679 22 is_stmt 1 view .LVU348
 679:lvgl/src/lv_widgets/lv_list.c ****                     res = lv_event_send(ext->act_sel_btn, LV_EVENT_PRESSING, NULL);
 1259              		.loc 1 679 24 is_stmt 0 view .LVU349
 1260 00ea 0C2C     		cmp	r4, #12
 1261 00ec 2CD0     		beq	.L144
 683:lvgl/src/lv_widgets/lv_list.c ****                     res = lv_event_send(ext->act_sel_btn, LV_EVENT_LONG_PRESSED, NULL);
 1262              		.loc 1 683 22 is_stmt 1 view .LVU350
 683:lvgl/src/lv_widgets/lv_list.c ****                     res = lv_event_send(ext->act_sel_btn, LV_EVENT_LONG_PRESSED, NULL);
 1263              		.loc 1 683 24 is_stmt 0 view .LVU351
 1264 00ee 0F2C     		cmp	r4, #15
 1265 00f0 31D0     		beq	.L145
 687:lvgl/src/lv_widgets/lv_list.c ****                     res = lv_event_send(ext->act_sel_btn, LV_EVENT_LONG_PRESSED_REPEAT, NULL);
 1266              		.loc 1 687 22 is_stmt 1 view .LVU352
 687:lvgl/src/lv_widgets/lv_list.c ****                     res = lv_event_send(ext->act_sel_btn, LV_EVENT_LONG_PRESSED_REPEAT, NULL);
 1267              		.loc 1 687 24 is_stmt 0 view .LVU353
 1268 00f2 102C     		cmp	r4, #16
 1269 00f4 36D0     		beq	.L146
 691:lvgl/src/lv_widgets/lv_list.c ****                     if(indev->proc.long_pr_sent == 0) {
 1270              		.loc 1 691 22 is_stmt 1 view .LVU354
 691:lvgl/src/lv_widgets/lv_list.c ****                     if(indev->proc.long_pr_sent == 0) {
 1271              		.loc 1 691 24 is_stmt 0 view .LVU355
 1272 00f6 0E2C     		cmp	r4, #14
 1273 00f8 DDD1     		bne	.L110
 692:lvgl/src/lv_widgets/lv_list.c ****                         res = lv_event_send(ext->act_sel_btn, LV_EVENT_SHORT_CLICKED, NULL);
 1274              		.loc 1 692 21 is_stmt 1 view .LVU356
 692:lvgl/src/lv_widgets/lv_list.c ****                         res = lv_event_send(ext->act_sel_btn, LV_EVENT_SHORT_CLICKED, NULL);
 1275              		.loc 1 692 49 is_stmt 0 view .LVU357
 1276 00fa 98F85030 		ldrb	r3, [r8, #80]	@ zero_extendqisi2
 692:lvgl/src/lv_widgets/lv_list.c ****                         res = lv_event_send(ext->act_sel_btn, LV_EVENT_SHORT_CLICKED, NULL);
 1277              		.loc 1 692 23 view .LVU358
 1278 00fe 13F0010F 		tst	r3, #1
 1279 0102 07D1     		bne	.L119
 693:lvgl/src/lv_widgets/lv_list.c ****                         if(res != LV_RES_OK) return res;
 1280              		.loc 1 693 25 is_stmt 1 view .LVU359
 693:lvgl/src/lv_widgets/lv_list.c ****                         if(res != LV_RES_OK) return res;
 1281              		.loc 1 693 31 is_stmt 0 view .LVU360
 1282 0104 0022     		movs	r2, #0
 1283 0106 0321     		movs	r1, #3
 1284 0108 786C     		ldr	r0, [r7, #68]
 1285              	.LVL128:
 693:lvgl/src/lv_widgets/lv_list.c ****                         if(res != LV_RES_OK) return res;
 1286              		.loc 1 693 31 view .LVU361
 1287 010a FFF7FEFF 		bl	lv_event_send
 1288              	.LVL129:
 1289 010e 0546     		mov	r5, r0
 1290              	.LVL130:
 694:lvgl/src/lv_widgets/lv_list.c ****                     }
 1291              		.loc 1 694 25 is_stmt 1 view .LVU362
 694:lvgl/src/lv_widgets/lv_list.c ****                     }
 1292              		.loc 1 694 27 is_stmt 0 view .LVU363
 1293 0110 0128     		cmp	r0, #1
 1294 0112 D0D1     		bne	.L110
 1295              	.L119:
 696:lvgl/src/lv_widgets/lv_list.c ****                         res = lv_event_send(ext->act_sel_btn, LV_EVENT_CLICKED, NULL);
 1296              		.loc 1 696 21 is_stmt 1 view .LVU364
 696:lvgl/src/lv_widgets/lv_list.c ****                         res = lv_event_send(ext->act_sel_btn, LV_EVENT_CLICKED, NULL);
ARM GAS  D:\Temp\cc6WWuOg.s 			page 45


 1297              		.loc 1 696 24 is_stmt 0 view .LVU365
 1298 0114 4046     		mov	r0, r8
 1299              	.LVL131:
 696:lvgl/src/lv_widgets/lv_list.c ****                         res = lv_event_send(ext->act_sel_btn, LV_EVENT_CLICKED, NULL);
 1300              		.loc 1 696 24 view .LVU366
 1301 0116 FFF7FEFF 		bl	lv_indev_is_dragging
 1302              	.LVL132:
 696:lvgl/src/lv_widgets/lv_list.c ****                         res = lv_event_send(ext->act_sel_btn, LV_EVENT_CLICKED, NULL);
 1303              		.loc 1 696 23 view .LVU367
 1304 011a 38B9     		cbnz	r0, .L120
 697:lvgl/src/lv_widgets/lv_list.c ****                         if(res != LV_RES_OK) return res;
 1305              		.loc 1 697 25 is_stmt 1 view .LVU368
 697:lvgl/src/lv_widgets/lv_list.c ****                         if(res != LV_RES_OK) return res;
 1306              		.loc 1 697 31 is_stmt 0 view .LVU369
 1307 011c 0022     		movs	r2, #0
 1308 011e 0621     		movs	r1, #6
 1309 0120 786C     		ldr	r0, [r7, #68]
 1310 0122 FFF7FEFF 		bl	lv_event_send
 1311              	.LVL133:
 1312 0126 0546     		mov	r5, r0
 1313              	.LVL134:
 698:lvgl/src/lv_widgets/lv_list.c ****                     }
 1314              		.loc 1 698 25 is_stmt 1 view .LVU370
 698:lvgl/src/lv_widgets/lv_list.c ****                     }
 1315              		.loc 1 698 27 is_stmt 0 view .LVU371
 1316 0128 0128     		cmp	r0, #1
 1317 012a C4D1     		bne	.L110
 1318              	.LVL135:
 1319              	.L120:
 701:lvgl/src/lv_widgets/lv_list.c ****                     if(res != LV_RES_OK) return res;
 1320              		.loc 1 701 21 is_stmt 1 view .LVU372
 701:lvgl/src/lv_widgets/lv_list.c ****                     if(res != LV_RES_OK) return res;
 1321              		.loc 1 701 27 is_stmt 0 view .LVU373
 1322 012c 0022     		movs	r2, #0
 1323 012e 0721     		movs	r1, #7
 1324 0130 786C     		ldr	r0, [r7, #68]
 1325 0132 FFF7FEFF 		bl	lv_event_send
 1326              	.LVL136:
 1327 0136 0546     		mov	r5, r0
 1328              	.LVL137:
 702:lvgl/src/lv_widgets/lv_list.c ****                 }
 1329              		.loc 1 702 21 is_stmt 1 view .LVU374
 1330 0138 BDE7     		b	.L110
 1331              	.LVL138:
 1332              	.L143:
 676:lvgl/src/lv_widgets/lv_list.c ****                     if(res != LV_RES_OK) return res;
 1333              		.loc 1 676 21 view .LVU375
 676:lvgl/src/lv_widgets/lv_list.c ****                     if(res != LV_RES_OK) return res;
 1334              		.loc 1 676 27 is_stmt 0 view .LVU376
 1335 013a 0022     		movs	r2, #0
 1336 013c 1146     		mov	r1, r2
 1337 013e 786C     		ldr	r0, [r7, #68]
 1338              	.LVL139:
 676:lvgl/src/lv_widgets/lv_list.c ****                     if(res != LV_RES_OK) return res;
 1339              		.loc 1 676 27 view .LVU377
 1340 0140 FFF7FEFF 		bl	lv_event_send
 1341              	.LVL140:
ARM GAS  D:\Temp\cc6WWuOg.s 			page 46


 1342 0144 0546     		mov	r5, r0
 1343              	.LVL141:
 677:lvgl/src/lv_widgets/lv_list.c ****                 }
 1344              		.loc 1 677 21 is_stmt 1 view .LVU378
 1345 0146 B6E7     		b	.L110
 1346              	.LVL142:
 1347              	.L144:
 680:lvgl/src/lv_widgets/lv_list.c ****                     if(res != LV_RES_OK) return res;
 1348              		.loc 1 680 21 view .LVU379
 680:lvgl/src/lv_widgets/lv_list.c ****                     if(res != LV_RES_OK) return res;
 1349              		.loc 1 680 27 is_stmt 0 view .LVU380
 1350 0148 0022     		movs	r2, #0
 1351 014a 0121     		movs	r1, #1
 1352 014c 786C     		ldr	r0, [r7, #68]
 1353              	.LVL143:
 680:lvgl/src/lv_widgets/lv_list.c ****                     if(res != LV_RES_OK) return res;
 1354              		.loc 1 680 27 view .LVU381
 1355 014e FFF7FEFF 		bl	lv_event_send
 1356              	.LVL144:
 1357 0152 0546     		mov	r5, r0
 1358              	.LVL145:
 681:lvgl/src/lv_widgets/lv_list.c ****                 }
 1359              		.loc 1 681 21 is_stmt 1 view .LVU382
 1360 0154 AFE7     		b	.L110
 1361              	.LVL146:
 1362              	.L145:
 684:lvgl/src/lv_widgets/lv_list.c ****                     if(res != LV_RES_OK) return res;
 1363              		.loc 1 684 21 view .LVU383
 684:lvgl/src/lv_widgets/lv_list.c ****                     if(res != LV_RES_OK) return res;
 1364              		.loc 1 684 27 is_stmt 0 view .LVU384
 1365 0156 0022     		movs	r2, #0
 1366 0158 0421     		movs	r1, #4
 1367 015a 786C     		ldr	r0, [r7, #68]
 1368              	.LVL147:
 684:lvgl/src/lv_widgets/lv_list.c ****                     if(res != LV_RES_OK) return res;
 1369              		.loc 1 684 27 view .LVU385
 1370 015c FFF7FEFF 		bl	lv_event_send
 1371              	.LVL148:
 1372 0160 0546     		mov	r5, r0
 1373              	.LVL149:
 685:lvgl/src/lv_widgets/lv_list.c ****                 }
 1374              		.loc 1 685 21 is_stmt 1 view .LVU386
 1375 0162 A8E7     		b	.L110
 1376              	.LVL150:
 1377              	.L146:
 688:lvgl/src/lv_widgets/lv_list.c ****                     if(res != LV_RES_OK) return res;
 1378              		.loc 1 688 21 view .LVU387
 688:lvgl/src/lv_widgets/lv_list.c ****                     if(res != LV_RES_OK) return res;
 1379              		.loc 1 688 27 is_stmt 0 view .LVU388
 1380 0164 0022     		movs	r2, #0
 1381 0166 0521     		movs	r1, #5
 1382 0168 786C     		ldr	r0, [r7, #68]
 1383              	.LVL151:
 688:lvgl/src/lv_widgets/lv_list.c ****                     if(res != LV_RES_OK) return res;
 1384              		.loc 1 688 27 view .LVU389
 1385 016a FFF7FEFF 		bl	lv_event_send
 1386              	.LVL152:
ARM GAS  D:\Temp\cc6WWuOg.s 			page 47


 1387 016e 0546     		mov	r5, r0
 1388              	.LVL153:
 689:lvgl/src/lv_widgets/lv_list.c ****                 }
 1389              		.loc 1 689 21 is_stmt 1 view .LVU390
 1390 0170 A1E7     		b	.L110
 1391              	.LVL154:
 1392              	.L137:
 689:lvgl/src/lv_widgets/lv_list.c ****                 }
 1393              		.loc 1 689 21 is_stmt 0 view .LVU391
 1394              	.LBE101:
 1395              	.LBE102:
 1396              	.LBB103:
 711:lvgl/src/lv_widgets/lv_list.c ****         /*With ENCODER focus the button only in edit mode*/
 1397              		.loc 1 711 9 is_stmt 1 view .LVU392
 711:lvgl/src/lv_widgets/lv_list.c ****         /*With ENCODER focus the button only in edit mode*/
 1398              		.loc 1 711 56 is_stmt 0 view .LVU393
 1399 0172 FFF7FEFF 		bl	lv_indev_get_act
 1400              	.LVL155:
 711:lvgl/src/lv_widgets/lv_list.c ****         /*With ENCODER focus the button only in edit mode*/
 1401              		.loc 1 711 38 view .LVU394
 1402 0176 FFF7FEFF 		bl	lv_indev_get_type
 1403              	.LVL156:
 1404 017a 0446     		mov	r4, r0
 1405              	.LVL157:
 713:lvgl/src/lv_widgets/lv_list.c ****         if((indev_type == LV_INDEV_TYPE_KEYPAD) ||
 1406              		.loc 1 713 9 is_stmt 1 view .LVU395
 713:lvgl/src/lv_widgets/lv_list.c ****         if((indev_type == LV_INDEV_TYPE_KEYPAD) ||
 1407              		.loc 1 713 26 is_stmt 0 view .LVU396
 1408 017c 3846     		mov	r0, r7
 1409 017e FFF7FEFF 		bl	lv_obj_get_group
 1410              	.LVL158:
 1411 0182 0646     		mov	r6, r0
 1412              	.LVL159:
 714:lvgl/src/lv_widgets/lv_list.c ****            (indev_type == LV_INDEV_TYPE_ENCODER && lv_group_get_editing(g))) {
 1413              		.loc 1 714 9 is_stmt 1 view .LVU397
 714:lvgl/src/lv_widgets/lv_list.c ****            (indev_type == LV_INDEV_TYPE_ENCODER && lv_group_get_editing(g))) {
 1414              		.loc 1 714 11 is_stmt 0 view .LVU398
 1415 0184 022C     		cmp	r4, #2
 1416 0186 1CD0     		beq	.L122
 714:lvgl/src/lv_widgets/lv_list.c ****            (indev_type == LV_INDEV_TYPE_ENCODER && lv_group_get_editing(g))) {
 1417              		.loc 1 714 49 discriminator 1 view .LVU399
 1418 0188 042C     		cmp	r4, #4
 1419 018a 16D0     		beq	.L147
 1420              	.LVL160:
 1421              	.L123:
 721:lvgl/src/lv_widgets/lv_list.c ****             lv_list_ext_t * ext = lv_obj_get_ext_attr(list);
 1422              		.loc 1 721 9 is_stmt 1 view .LVU400
 721:lvgl/src/lv_widgets/lv_list.c ****             lv_list_ext_t * ext = lv_obj_get_ext_attr(list);
 1423              		.loc 1 721 11 is_stmt 0 view .LVU401
 1424 018c 042C     		cmp	r4, #4
 1425 018e 92D1     		bne	.L110
 721:lvgl/src/lv_widgets/lv_list.c ****             lv_list_ext_t * ext = lv_obj_get_ext_attr(list);
 1426              		.loc 1 721 51 discriminator 1 view .LVU402
 1427 0190 3046     		mov	r0, r6
 1428 0192 FFF7FEFF 		bl	lv_group_get_editing
 1429              	.LVL161:
 721:lvgl/src/lv_widgets/lv_list.c ****             lv_list_ext_t * ext = lv_obj_get_ext_attr(list);
ARM GAS  D:\Temp\cc6WWuOg.s 			page 48


 1430              		.loc 1 721 48 discriminator 1 view .LVU403
 1431 0196 0028     		cmp	r0, #0
 1432 0198 8DD1     		bne	.L110
 1433              	.LBB104:
 722:lvgl/src/lv_widgets/lv_list.c ****             if(ext->act_sel_btn) lv_obj_clear_state(ext->act_sel_btn, LV_STATE_PRESSED);
 1434              		.loc 1 722 13 is_stmt 1 view .LVU404
 722:lvgl/src/lv_widgets/lv_list.c ****             if(ext->act_sel_btn) lv_obj_clear_state(ext->act_sel_btn, LV_STATE_PRESSED);
 1435              		.loc 1 722 35 is_stmt 0 view .LVU405
 1436 019a 3846     		mov	r0, r7
 1437 019c FFF7FEFF 		bl	lv_obj_get_ext_attr
 1438              	.LVL162:
 1439 01a0 0446     		mov	r4, r0
 1440              	.LVL163:
 723:lvgl/src/lv_widgets/lv_list.c ****             if(ext->last_sel_btn) lv_obj_clear_state(ext->last_sel_btn, LV_STATE_PRESSED);
 1441              		.loc 1 723 13 is_stmt 1 view .LVU406
 723:lvgl/src/lv_widgets/lv_list.c ****             if(ext->last_sel_btn) lv_obj_clear_state(ext->last_sel_btn, LV_STATE_PRESSED);
 1442              		.loc 1 723 19 is_stmt 0 view .LVU407
 1443 01a2 406C     		ldr	r0, [r0, #68]
 1444              	.LVL164:
 723:lvgl/src/lv_widgets/lv_list.c ****             if(ext->last_sel_btn) lv_obj_clear_state(ext->last_sel_btn, LV_STATE_PRESSED);
 1445              		.loc 1 723 15 view .LVU408
 1446 01a4 10B1     		cbz	r0, .L125
 723:lvgl/src/lv_widgets/lv_list.c ****             if(ext->last_sel_btn) lv_obj_clear_state(ext->last_sel_btn, LV_STATE_PRESSED);
 1447              		.loc 1 723 34 is_stmt 1 discriminator 1 view .LVU409
 1448 01a6 1021     		movs	r1, #16
 1449 01a8 FFF7FEFF 		bl	lv_obj_clear_state
 1450              	.LVL165:
 1451              	.L125:
 724:lvgl/src/lv_widgets/lv_list.c ****         }
 1452              		.loc 1 724 13 view .LVU410
 724:lvgl/src/lv_widgets/lv_list.c ****         }
 1453              		.loc 1 724 19 is_stmt 0 view .LVU411
 1454 01ac 206C     		ldr	r0, [r4, #64]
 724:lvgl/src/lv_widgets/lv_list.c ****         }
 1455              		.loc 1 724 15 view .LVU412
 1456 01ae 0028     		cmp	r0, #0
 1457 01b0 81D0     		beq	.L110
 724:lvgl/src/lv_widgets/lv_list.c ****         }
 1458              		.loc 1 724 35 is_stmt 1 discriminator 1 view .LVU413
 1459 01b2 1021     		movs	r1, #16
 1460 01b4 FFF7FEFF 		bl	lv_obj_clear_state
 1461              	.LVL166:
 1462 01b8 7DE7     		b	.L110
 1463              	.LVL167:
 1464              	.L147:
 724:lvgl/src/lv_widgets/lv_list.c ****         }
 1465              		.loc 1 724 35 is_stmt 0 discriminator 1 view .LVU414
 1466              	.LBE104:
 715:lvgl/src/lv_widgets/lv_list.c ****             lv_list_ext_t * ext = lv_obj_get_ext_attr(list);
 1467              		.loc 1 715 52 view .LVU415
 1468 01ba FFF7FEFF 		bl	lv_group_get_editing
 1469              	.LVL168:
 715:lvgl/src/lv_widgets/lv_list.c ****             lv_list_ext_t * ext = lv_obj_get_ext_attr(list);
 1470              		.loc 1 715 49 view .LVU416
 1471 01be 0028     		cmp	r0, #0
 1472 01c0 E4D0     		beq	.L123
 1473              	.L122:
ARM GAS  D:\Temp\cc6WWuOg.s 			page 49


 1474              	.LBB105:
 716:lvgl/src/lv_widgets/lv_list.c ****             /* Select the last used button, or use the first no last button */
 1475              		.loc 1 716 13 is_stmt 1 view .LVU417
 716:lvgl/src/lv_widgets/lv_list.c ****             /* Select the last used button, or use the first no last button */
 1476              		.loc 1 716 35 is_stmt 0 view .LVU418
 1477 01c2 3846     		mov	r0, r7
 1478 01c4 FFF7FEFF 		bl	lv_obj_get_ext_attr
 1479              	.LVL169:
 718:lvgl/src/lv_widgets/lv_list.c ****             else lv_list_focus_btn(list, lv_list_get_next_btn(list, NULL));
 1480              		.loc 1 718 13 is_stmt 1 view .LVU419
 718:lvgl/src/lv_widgets/lv_list.c ****             else lv_list_focus_btn(list, lv_list_get_next_btn(list, NULL));
 1481              		.loc 1 718 19 is_stmt 0 view .LVU420
 1482 01c8 016C     		ldr	r1, [r0, #64]
 718:lvgl/src/lv_widgets/lv_list.c ****             else lv_list_focus_btn(list, lv_list_get_next_btn(list, NULL));
 1483              		.loc 1 718 15 view .LVU421
 1484 01ca 19B1     		cbz	r1, .L124
 718:lvgl/src/lv_widgets/lv_list.c ****             else lv_list_focus_btn(list, lv_list_get_next_btn(list, NULL));
 1485              		.loc 1 718 35 is_stmt 1 discriminator 1 view .LVU422
 1486 01cc 3846     		mov	r0, r7
 1487              	.LVL170:
 718:lvgl/src/lv_widgets/lv_list.c ****             else lv_list_focus_btn(list, lv_list_get_next_btn(list, NULL));
 1488              		.loc 1 718 35 is_stmt 0 discriminator 1 view .LVU423
 1489 01ce FFF7FEFF 		bl	lv_list_focus_btn
 1490              	.LVL171:
 1491 01d2 DBE7     		b	.L123
 1492              	.LVL172:
 1493              	.L124:
 719:lvgl/src/lv_widgets/lv_list.c ****         }
 1494              		.loc 1 719 18 is_stmt 1 view .LVU424
 1495 01d4 0021     		movs	r1, #0
 1496 01d6 3846     		mov	r0, r7
 1497              	.LVL173:
 719:lvgl/src/lv_widgets/lv_list.c ****         }
 1498              		.loc 1 719 18 is_stmt 0 view .LVU425
 1499 01d8 FFF7FEFF 		bl	lv_list_get_next_btn
 1500              	.LVL174:
 1501 01dc 0146     		mov	r1, r0
 1502 01de 3846     		mov	r0, r7
 1503 01e0 FFF7FEFF 		bl	lv_list_focus_btn
 1504              	.LVL175:
 1505 01e4 D2E7     		b	.L123
 1506              	.LVL176:
 1507              	.L138:
 719:lvgl/src/lv_widgets/lv_list.c ****         }
 1508              		.loc 1 719 18 view .LVU426
 1509              	.LBE105:
 1510              	.LBE103:
 1511              	.LBB106:
 732:lvgl/src/lv_widgets/lv_list.c ****         lv_list_ext_t * ext = lv_obj_get_ext_attr(list);
 1512              		.loc 1 732 9 is_stmt 1 view .LVU427
 1513 01e6 0021     		movs	r1, #0
 1514 01e8 3846     		mov	r0, r7
 1515              	.LVL177:
 732:lvgl/src/lv_widgets/lv_list.c ****         lv_list_ext_t * ext = lv_obj_get_ext_attr(list);
 1516              		.loc 1 732 9 is_stmt 0 view .LVU428
 1517 01ea FFF7FEFF 		bl	lv_list_focus_btn
 1518              	.LVL178:
ARM GAS  D:\Temp\cc6WWuOg.s 			page 50


 733:lvgl/src/lv_widgets/lv_list.c ****         ext->act_sel_btn   = NULL;
 1519              		.loc 1 733 9 is_stmt 1 view .LVU429
 733:lvgl/src/lv_widgets/lv_list.c ****         ext->act_sel_btn   = NULL;
 1520              		.loc 1 733 31 is_stmt 0 view .LVU430
 1521 01ee 3846     		mov	r0, r7
 1522 01f0 FFF7FEFF 		bl	lv_obj_get_ext_attr
 1523              	.LVL179:
 734:lvgl/src/lv_widgets/lv_list.c **** #endif
 1524              		.loc 1 734 9 is_stmt 1 view .LVU431
 734:lvgl/src/lv_widgets/lv_list.c **** #endif
 1525              		.loc 1 734 28 is_stmt 0 view .LVU432
 1526 01f4 0023     		movs	r3, #0
 1527 01f6 4364     		str	r3, [r0, #68]
 1528              	.LBE106:
 1529 01f8 5DE7     		b	.L110
 1530              	.LVL180:
 1531              	.L139:
 1532              	.LBB107:
 739:lvgl/src/lv_widgets/lv_list.c ****         *editable       = true;
 1533              		.loc 1 739 9 is_stmt 1 view .LVU433
 740:lvgl/src/lv_widgets/lv_list.c **** #endif
 1534              		.loc 1 740 9 view .LVU434
 740:lvgl/src/lv_widgets/lv_list.c **** #endif
 1535              		.loc 1 740 25 is_stmt 0 view .LVU435
 1536 01fa 0123     		movs	r3, #1
 1537 01fc 3370     		strb	r3, [r6]
 1538              	.LBE107:
 1539 01fe 5AE7     		b	.L110
 1540              	.LVL181:
 1541              	.L140:
 1542              	.LBB108:
 1543              	.LBB93:
 748:lvgl/src/lv_widgets/lv_list.c ****             /*If there is a valid selected button the make the previous selected*/
 1544              		.loc 1 748 13 is_stmt 1 view .LVU436
 748:lvgl/src/lv_widgets/lv_list.c ****             /*If there is a valid selected button the make the previous selected*/
 1545              		.loc 1 748 35 is_stmt 0 view .LVU437
 1546 0200 3846     		mov	r0, r7
 1547              	.LVL182:
 748:lvgl/src/lv_widgets/lv_list.c ****             /*If there is a valid selected button the make the previous selected*/
 1548              		.loc 1 748 35 view .LVU438
 1549 0202 FFF7FEFF 		bl	lv_obj_get_ext_attr
 1550              	.LVL183:
 750:lvgl/src/lv_widgets/lv_list.c ****                 lv_obj_t * btn_prev = lv_list_get_next_btn(list, ext->act_sel_btn);
 1551              		.loc 1 750 13 is_stmt 1 view .LVU439
 750:lvgl/src/lv_widgets/lv_list.c ****                 lv_obj_t * btn_prev = lv_list_get_next_btn(list, ext->act_sel_btn);
 1552              		.loc 1 750 19 is_stmt 0 view .LVU440
 1553 0206 416C     		ldr	r1, [r0, #68]
 750:lvgl/src/lv_widgets/lv_list.c ****                 lv_obj_t * btn_prev = lv_list_get_next_btn(list, ext->act_sel_btn);
 1554              		.loc 1 750 15 view .LVU441
 1555 0208 51B1     		cbz	r1, .L129
 1556              	.LBB94:
 751:lvgl/src/lv_widgets/lv_list.c ****                 if(btn_prev) lv_list_focus_btn(list, btn_prev);
 1557              		.loc 1 751 17 is_stmt 1 view .LVU442
 751:lvgl/src/lv_widgets/lv_list.c ****                 if(btn_prev) lv_list_focus_btn(list, btn_prev);
 1558              		.loc 1 751 39 is_stmt 0 view .LVU443
 1559 020a 3846     		mov	r0, r7
 1560              	.LVL184:
ARM GAS  D:\Temp\cc6WWuOg.s 			page 51


 751:lvgl/src/lv_widgets/lv_list.c ****                 if(btn_prev) lv_list_focus_btn(list, btn_prev);
 1561              		.loc 1 751 39 view .LVU444
 1562 020c FFF7FEFF 		bl	lv_list_get_next_btn
 1563              	.LVL185:
 752:lvgl/src/lv_widgets/lv_list.c ****             }
 1564              		.loc 1 752 17 is_stmt 1 view .LVU445
 752:lvgl/src/lv_widgets/lv_list.c ****             }
 1565              		.loc 1 752 19 is_stmt 0 view .LVU446
 1566 0210 0146     		mov	r1, r0
 1567 0212 0028     		cmp	r0, #0
 1568 0214 3FF44FAF 		beq	.L110
 752:lvgl/src/lv_widgets/lv_list.c ****             }
 1569              		.loc 1 752 30 is_stmt 1 discriminator 1 view .LVU447
 1570 0218 3846     		mov	r0, r7
 1571              	.LVL186:
 752:lvgl/src/lv_widgets/lv_list.c ****             }
 1572              		.loc 1 752 30 is_stmt 0 discriminator 1 view .LVU448
 1573 021a FFF7FEFF 		bl	lv_list_focus_btn
 1574              	.LVL187:
 752:lvgl/src/lv_widgets/lv_list.c ****             }
 1575              		.loc 1 752 30 discriminator 1 view .LVU449
 1576 021e 4AE7     		b	.L110
 1577              	.LVL188:
 1578              	.L129:
 752:lvgl/src/lv_widgets/lv_list.c ****             }
 1579              		.loc 1 752 30 discriminator 1 view .LVU450
 1580              	.LBE94:
 1581              	.LBB95:
 756:lvgl/src/lv_widgets/lv_list.c ****                 if(btn)
 1582              		.loc 1 756 17 is_stmt 1 view .LVU451
 756:lvgl/src/lv_widgets/lv_list.c ****                 if(btn)
 1583              		.loc 1 756 34 is_stmt 0 view .LVU452
 1584 0220 0021     		movs	r1, #0
 1585 0222 3846     		mov	r0, r7
 1586              	.LVL189:
 756:lvgl/src/lv_widgets/lv_list.c ****                 if(btn)
 1587              		.loc 1 756 34 view .LVU453
 1588 0224 FFF7FEFF 		bl	lv_list_get_next_btn
 1589              	.LVL190:
 757:lvgl/src/lv_widgets/lv_list.c ****                     lv_list_focus_btn(list,
 1590              		.loc 1 757 17 is_stmt 1 view .LVU454
 757:lvgl/src/lv_widgets/lv_list.c ****                     lv_list_focus_btn(list,
 1591              		.loc 1 757 19 is_stmt 0 view .LVU455
 1592 0228 0146     		mov	r1, r0
 1593 022a 0028     		cmp	r0, #0
 1594 022c 3FF443AF 		beq	.L110
 758:lvgl/src/lv_widgets/lv_list.c ****                                       btn); /*If there are no buttons on the list then there is no 
 1595              		.loc 1 758 21 is_stmt 1 view .LVU456
 1596 0230 3846     		mov	r0, r7
 1597              	.LVL191:
 758:lvgl/src/lv_widgets/lv_list.c ****                                       btn); /*If there are no buttons on the list then there is no 
 1598              		.loc 1 758 21 is_stmt 0 view .LVU457
 1599 0232 FFF7FEFF 		bl	lv_list_focus_btn
 1600              	.LVL192:
 758:lvgl/src/lv_widgets/lv_list.c ****                                       btn); /*If there are no buttons on the list then there is no 
 1601              		.loc 1 758 21 view .LVU458
 1602 0236 3EE7     		b	.L110
ARM GAS  D:\Temp\cc6WWuOg.s 			page 52


 1603              	.LVL193:
 1604              	.L130:
 758:lvgl/src/lv_widgets/lv_list.c ****                                       btn); /*If there are no buttons on the list then there is no 
 1605              		.loc 1 758 21 view .LVU459
 1606              	.LBE95:
 1607              	.LBE93:
 1608              	.LBB96:
 763:lvgl/src/lv_widgets/lv_list.c ****             /*If there is a valid selected button the make the next selected*/
 1609              		.loc 1 763 13 is_stmt 1 view .LVU460
 763:lvgl/src/lv_widgets/lv_list.c ****             /*If there is a valid selected button the make the next selected*/
 1610              		.loc 1 763 35 is_stmt 0 view .LVU461
 1611 0238 3846     		mov	r0, r7
 1612              	.LVL194:
 763:lvgl/src/lv_widgets/lv_list.c ****             /*If there is a valid selected button the make the next selected*/
 1613              		.loc 1 763 35 view .LVU462
 1614 023a FFF7FEFF 		bl	lv_obj_get_ext_attr
 1615              	.LVL195:
 765:lvgl/src/lv_widgets/lv_list.c ****                 lv_obj_t * btn_next = lv_list_get_prev_btn(list, ext->act_sel_btn);
 1616              		.loc 1 765 13 is_stmt 1 view .LVU463
 765:lvgl/src/lv_widgets/lv_list.c ****                 lv_obj_t * btn_next = lv_list_get_prev_btn(list, ext->act_sel_btn);
 1617              		.loc 1 765 19 is_stmt 0 view .LVU464
 1618 023e 416C     		ldr	r1, [r0, #68]
 765:lvgl/src/lv_widgets/lv_list.c ****                 lv_obj_t * btn_next = lv_list_get_prev_btn(list, ext->act_sel_btn);
 1619              		.loc 1 765 15 view .LVU465
 1620 0240 51B1     		cbz	r1, .L132
 1621              	.LBB97:
 766:lvgl/src/lv_widgets/lv_list.c ****                 if(btn_next) lv_list_focus_btn(list, btn_next);
 1622              		.loc 1 766 17 is_stmt 1 view .LVU466
 766:lvgl/src/lv_widgets/lv_list.c ****                 if(btn_next) lv_list_focus_btn(list, btn_next);
 1623              		.loc 1 766 39 is_stmt 0 view .LVU467
 1624 0242 3846     		mov	r0, r7
 1625              	.LVL196:
 766:lvgl/src/lv_widgets/lv_list.c ****                 if(btn_next) lv_list_focus_btn(list, btn_next);
 1626              		.loc 1 766 39 view .LVU468
 1627 0244 FFF7FEFF 		bl	lv_list_get_prev_btn
 1628              	.LVL197:
 767:lvgl/src/lv_widgets/lv_list.c ****             }
 1629              		.loc 1 767 17 is_stmt 1 view .LVU469
 767:lvgl/src/lv_widgets/lv_list.c ****             }
 1630              		.loc 1 767 19 is_stmt 0 view .LVU470
 1631 0248 0146     		mov	r1, r0
 1632 024a 0028     		cmp	r0, #0
 1633 024c 3FF433AF 		beq	.L110
 767:lvgl/src/lv_widgets/lv_list.c ****             }
 1634              		.loc 1 767 30 is_stmt 1 discriminator 1 view .LVU471
 1635 0250 3846     		mov	r0, r7
 1636              	.LVL198:
 767:lvgl/src/lv_widgets/lv_list.c ****             }
 1637              		.loc 1 767 30 is_stmt 0 discriminator 1 view .LVU472
 1638 0252 FFF7FEFF 		bl	lv_list_focus_btn
 1639              	.LVL199:
 767:lvgl/src/lv_widgets/lv_list.c ****             }
 1640              		.loc 1 767 30 discriminator 1 view .LVU473
 1641 0256 2EE7     		b	.L110
 1642              	.LVL200:
 1643              	.L132:
 767:lvgl/src/lv_widgets/lv_list.c ****             }
ARM GAS  D:\Temp\cc6WWuOg.s 			page 53


 1644              		.loc 1 767 30 discriminator 1 view .LVU474
 1645              	.LBE97:
 1646              	.LBB98:
 771:lvgl/src/lv_widgets/lv_list.c ****                 if(btn) lv_list_focus_btn(list, btn);
 1647              		.loc 1 771 17 is_stmt 1 view .LVU475
 771:lvgl/src/lv_widgets/lv_list.c ****                 if(btn) lv_list_focus_btn(list, btn);
 1648              		.loc 1 771 34 is_stmt 0 view .LVU476
 1649 0258 0021     		movs	r1, #0
 1650 025a 3846     		mov	r0, r7
 1651              	.LVL201:
 771:lvgl/src/lv_widgets/lv_list.c ****                 if(btn) lv_list_focus_btn(list, btn);
 1652              		.loc 1 771 34 view .LVU477
 1653 025c FFF7FEFF 		bl	lv_list_get_next_btn
 1654              	.LVL202:
 772:lvgl/src/lv_widgets/lv_list.c ****             }
 1655              		.loc 1 772 17 is_stmt 1 view .LVU478
 772:lvgl/src/lv_widgets/lv_list.c ****             }
 1656              		.loc 1 772 19 is_stmt 0 view .LVU479
 1657 0260 0146     		mov	r1, r0
 1658 0262 0028     		cmp	r0, #0
 1659 0264 3FF427AF 		beq	.L110
 772:lvgl/src/lv_widgets/lv_list.c ****             }
 1660              		.loc 1 772 25 is_stmt 1 discriminator 1 view .LVU480
 1661 0268 3846     		mov	r0, r7
 1662              	.LVL203:
 772:lvgl/src/lv_widgets/lv_list.c ****             }
 1663              		.loc 1 772 25 is_stmt 0 discriminator 1 view .LVU481
 1664 026a FFF7FEFF 		bl	lv_list_focus_btn
 1665              	.LVL204:
 772:lvgl/src/lv_widgets/lv_list.c ****             }
 1666              		.loc 1 772 25 discriminator 1 view .LVU482
 1667 026e 22E7     		b	.L110
 1668              	.L149:
 1669              		.align	2
 1670              	.L148:
 1671 0270 00000000 		.word	.LANCHOR0
 1672 0274 00000000 		.word	.LC5
 1673              	.LBE98:
 1674              	.LBE96:
 1675              	.LBE108:
 1676              		.cfi_endproc
 1677              	.LFE508:
 1679              		.section	.text.lv_list_remove,"ax",%progbits
 1680              		.align	1
 1681              		.global	lv_list_remove
 1682              		.syntax unified
 1683              		.thumb
 1684              		.thumb_func
 1685              		.fpu fpv4-sp-d16
 1687              	lv_list_remove:
 1688              	.LVL205:
 1689              	.LFB493:
 247:lvgl/src/lv_widgets/lv_list.c ****     LV_ASSERT_OBJ(list, LV_OBJX_NAME);
 1690              		.loc 1 247 1 is_stmt 1 view -0
 1691              		.cfi_startproc
 1692              		@ args = 0, pretend = 0, frame = 0
 1693              		@ frame_needed = 0, uses_anonymous_args = 0
ARM GAS  D:\Temp\cc6WWuOg.s 			page 54


 247:lvgl/src/lv_widgets/lv_list.c ****     LV_ASSERT_OBJ(list, LV_OBJX_NAME);
 1694              		.loc 1 247 1 is_stmt 0 view .LVU484
 1695 0000 2DE9F041 		push	{r4, r5, r6, r7, r8, lr}
 1696              	.LCFI21:
 1697              		.cfi_def_cfa_offset 24
 1698              		.cfi_offset 4, -24
 1699              		.cfi_offset 5, -20
 1700              		.cfi_offset 6, -16
 1701              		.cfi_offset 7, -12
 1702              		.cfi_offset 8, -8
 1703              		.cfi_offset 14, -4
 1704 0004 0646     		mov	r6, r0
 1705 0006 8846     		mov	r8, r1
 248:lvgl/src/lv_widgets/lv_list.c **** 
 1706              		.loc 1 248 5 is_stmt 1 view .LVU485
 248:lvgl/src/lv_widgets/lv_list.c **** 
 1707              		.loc 1 248 5 view .LVU486
 1708 0008 FFF7FEFF 		bl	lv_debug_check_null
 1709              	.LVL206:
 248:lvgl/src/lv_widgets/lv_list.c **** 
 1710              		.loc 1 248 5 is_stmt 0 view .LVU487
 1711 000c 28B9     		cbnz	r0, .L151
 248:lvgl/src/lv_widgets/lv_list.c **** 
 1712              		.loc 1 248 5 is_stmt 1 discriminator 1 view .LVU488
 248:lvgl/src/lv_widgets/lv_list.c **** 
 1713              		.loc 1 248 5 discriminator 1 view .LVU489
 1714 000e 3246     		mov	r2, r6
 1715 0010 0023     		movs	r3, #0
 1716 0012 1548     		ldr	r0, .L164
 1717 0014 FFF7FEFF 		bl	lv_debug_log_error
 1718              	.LVL207:
 1719              	.L152:
 248:lvgl/src/lv_widgets/lv_list.c **** 
 1720              		.loc 1 248 5 discriminator 1 view .LVU490
 248:lvgl/src/lv_widgets/lv_list.c **** 
 1721              		.loc 1 248 5 discriminator 1 view .LVU491
 1722 0018 FEE7     		b	.L152
 1723              	.L151:
 1724 001a 0746     		mov	r7, r0
 248:lvgl/src/lv_widgets/lv_list.c **** 
 1725              		.loc 1 248 38 discriminator 2 view .LVU492
 250:lvgl/src/lv_widgets/lv_list.c ****     uint16_t count = 0;
 1726              		.loc 1 250 5 discriminator 2 view .LVU493
 250:lvgl/src/lv_widgets/lv_list.c ****     uint16_t count = 0;
 1727              		.loc 1 250 27 is_stmt 0 discriminator 2 view .LVU494
 1728 001c 3046     		mov	r0, r6
 1729 001e FFF7FEFF 		bl	lv_obj_get_ext_attr
 1730              	.LVL208:
 1731 0022 0546     		mov	r5, r0
 1732              	.LVL209:
 251:lvgl/src/lv_widgets/lv_list.c ****     lv_obj_t * e   = lv_list_get_next_btn(list, NULL);
 1733              		.loc 1 251 5 is_stmt 1 discriminator 2 view .LVU495
 252:lvgl/src/lv_widgets/lv_list.c ****     while(e != NULL) {
 1734              		.loc 1 252 5 discriminator 2 view .LVU496
 252:lvgl/src/lv_widgets/lv_list.c ****     while(e != NULL) {
 1735              		.loc 1 252 22 is_stmt 0 discriminator 2 view .LVU497
 1736 0024 0021     		movs	r1, #0
ARM GAS  D:\Temp\cc6WWuOg.s 			page 55


 1737 0026 3046     		mov	r0, r6
 1738              	.LVL210:
 252:lvgl/src/lv_widgets/lv_list.c ****     while(e != NULL) {
 1739              		.loc 1 252 22 discriminator 2 view .LVU498
 1740 0028 FFF7FEFF 		bl	lv_list_get_next_btn
 1741              	.LVL211:
 253:lvgl/src/lv_widgets/lv_list.c ****         if(count == index) {
 1742              		.loc 1 253 5 is_stmt 1 discriminator 2 view .LVU499
 251:lvgl/src/lv_widgets/lv_list.c ****     lv_obj_t * e   = lv_list_get_next_btn(list, NULL);
 1743              		.loc 1 251 14 is_stmt 0 discriminator 2 view .LVU500
 1744 002c 0024     		movs	r4, #0
 1745              	.LVL212:
 1746              	.L153:
 253:lvgl/src/lv_widgets/lv_list.c ****         if(count == index) {
 1747              		.loc 1 253 10 view .LVU501
 1748 002e B8B1     		cbz	r0, .L160
 254:lvgl/src/lv_widgets/lv_list.c **** #if LV_USE_GROUP
 1749              		.loc 1 254 9 is_stmt 1 view .LVU502
 254:lvgl/src/lv_widgets/lv_list.c **** #if LV_USE_GROUP
 1750              		.loc 1 254 11 is_stmt 0 view .LVU503
 1751 0030 4445     		cmp	r4, r8
 1752 0032 06D0     		beq	.L161
 263:lvgl/src/lv_widgets/lv_list.c ****         count++;
 1753              		.loc 1 263 9 is_stmt 1 view .LVU504
 263:lvgl/src/lv_widgets/lv_list.c ****         count++;
 1754              		.loc 1 263 13 is_stmt 0 view .LVU505
 1755 0034 0146     		mov	r1, r0
 1756 0036 3046     		mov	r0, r6
 1757              	.LVL213:
 263:lvgl/src/lv_widgets/lv_list.c ****         count++;
 1758              		.loc 1 263 13 view .LVU506
 1759 0038 FFF7FEFF 		bl	lv_list_get_next_btn
 1760              	.LVL214:
 264:lvgl/src/lv_widgets/lv_list.c ****     }
 1761              		.loc 1 264 9 is_stmt 1 view .LVU507
 264:lvgl/src/lv_widgets/lv_list.c ****     }
 1762              		.loc 1 264 14 is_stmt 0 view .LVU508
 1763 003c 0134     		adds	r4, r4, #1
 1764              	.LVL215:
 264:lvgl/src/lv_widgets/lv_list.c ****     }
 1765              		.loc 1 264 14 view .LVU509
 1766 003e A4B2     		uxth	r4, r4
 1767              	.LVL216:
 264:lvgl/src/lv_widgets/lv_list.c ****     }
 1768              		.loc 1 264 14 view .LVU510
 1769 0040 F5E7     		b	.L153
 1770              	.L161:
 256:lvgl/src/lv_widgets/lv_list.c **** #endif
 1771              		.loc 1 256 13 is_stmt 1 view .LVU511
 256:lvgl/src/lv_widgets/lv_list.c **** #endif
 1772              		.loc 1 256 24 is_stmt 0 view .LVU512
 1773 0042 2B6C     		ldr	r3, [r5, #64]
 256:lvgl/src/lv_widgets/lv_list.c **** #endif
 1774              		.loc 1 256 15 view .LVU513
 1775 0044 8342     		cmp	r3, r0
 1776 0046 05D0     		beq	.L162
 1777              	.L155:
ARM GAS  D:\Temp\cc6WWuOg.s 			page 56


 258:lvgl/src/lv_widgets/lv_list.c **** 
 1778              		.loc 1 258 13 is_stmt 1 view .LVU514
 258:lvgl/src/lv_widgets/lv_list.c **** 
 1779              		.loc 1 258 24 is_stmt 0 view .LVU515
 1780 0048 6B6C     		ldr	r3, [r5, #68]
 258:lvgl/src/lv_widgets/lv_list.c **** 
 1781              		.loc 1 258 15 view .LVU516
 1782 004a 8342     		cmp	r3, r0
 1783 004c 05D0     		beq	.L163
 1784              	.L156:
 260:lvgl/src/lv_widgets/lv_list.c ****             return true;
 1785              		.loc 1 260 13 is_stmt 1 view .LVU517
 1786 004e FFF7FEFF 		bl	lv_obj_del
 1787              	.LVL217:
 261:lvgl/src/lv_widgets/lv_list.c ****         }
 1788              		.loc 1 261 13 view .LVU518
 261:lvgl/src/lv_widgets/lv_list.c ****         }
 1789              		.loc 1 261 20 is_stmt 0 view .LVU519
 1790 0052 06E0     		b	.L157
 1791              	.LVL218:
 1792              	.L162:
 256:lvgl/src/lv_widgets/lv_list.c **** #endif
 1793              		.loc 1 256 40 is_stmt 1 discriminator 1 view .LVU520
 256:lvgl/src/lv_widgets/lv_list.c **** #endif
 1794              		.loc 1 256 58 is_stmt 0 discriminator 1 view .LVU521
 1795 0054 0023     		movs	r3, #0
 1796 0056 2B64     		str	r3, [r5, #64]
 1797 0058 F6E7     		b	.L155
 1798              	.L163:
 258:lvgl/src/lv_widgets/lv_list.c **** 
 1799              		.loc 1 258 39 is_stmt 1 discriminator 1 view .LVU522
 258:lvgl/src/lv_widgets/lv_list.c **** 
 1800              		.loc 1 258 56 is_stmt 0 discriminator 1 view .LVU523
 1801 005a 0023     		movs	r3, #0
 1802 005c 6B64     		str	r3, [r5, #68]
 1803 005e F6E7     		b	.L156
 1804              	.L160:
 266:lvgl/src/lv_widgets/lv_list.c **** }
 1805              		.loc 1 266 12 view .LVU524
 1806 0060 0027     		movs	r7, #0
 1807              	.LVL219:
 1808              	.L157:
 267:lvgl/src/lv_widgets/lv_list.c **** 
 1809              		.loc 1 267 1 view .LVU525
 1810 0062 3846     		mov	r0, r7
 1811 0064 BDE8F081 		pop	{r4, r5, r6, r7, r8, pc}
 1812              	.LVL220:
 1813              	.L165:
 267:lvgl/src/lv_widgets/lv_list.c **** 
 1814              		.loc 1 267 1 view .LVU526
 1815              		.align	2
 1816              	.L164:
 1817 0068 00000000 		.word	.LC0
 1818              		.cfi_endproc
 1819              	.LFE493:
 1821              		.section	.text.lv_list_get_btn_index,"ax",%progbits
 1822              		.align	1
ARM GAS  D:\Temp\cc6WWuOg.s 			page 57


 1823              		.global	lv_list_get_btn_index
 1824              		.syntax unified
 1825              		.thumb
 1826              		.thumb_func
 1827              		.fpu fpv4-sp-d16
 1829              	lv_list_get_btn_index:
 1830              	.LVL221:
 1831              	.LFB501:
 469:lvgl/src/lv_widgets/lv_list.c ****     LV_ASSERT_OBJ(btn, "lv_btn");
 1832              		.loc 1 469 1 is_stmt 1 view -0
 1833              		.cfi_startproc
 1834              		@ args = 0, pretend = 0, frame = 0
 1835              		@ frame_needed = 0, uses_anonymous_args = 0
 469:lvgl/src/lv_widgets/lv_list.c ****     LV_ASSERT_OBJ(btn, "lv_btn");
 1836              		.loc 1 469 1 is_stmt 0 view .LVU528
 1837 0000 70B5     		push	{r4, r5, r6, lr}
 1838              	.LCFI22:
 1839              		.cfi_def_cfa_offset 16
 1840              		.cfi_offset 4, -16
 1841              		.cfi_offset 5, -12
 1842              		.cfi_offset 6, -8
 1843              		.cfi_offset 14, -4
 1844 0002 0446     		mov	r4, r0
 1845 0004 0E46     		mov	r6, r1
 470:lvgl/src/lv_widgets/lv_list.c **** 
 1846              		.loc 1 470 5 is_stmt 1 view .LVU529
 470:lvgl/src/lv_widgets/lv_list.c **** 
 1847              		.loc 1 470 5 view .LVU530
 1848 0006 0846     		mov	r0, r1
 1849              	.LVL222:
 470:lvgl/src/lv_widgets/lv_list.c **** 
 1850              		.loc 1 470 5 is_stmt 0 view .LVU531
 1851 0008 FFF7FEFF 		bl	lv_debug_check_null
 1852              	.LVL223:
 470:lvgl/src/lv_widgets/lv_list.c **** 
 1853              		.loc 1 470 5 view .LVU532
 1854 000c 50B1     		cbz	r0, .L176
 470:lvgl/src/lv_widgets/lv_list.c **** 
 1855              		.loc 1 470 33 is_stmt 1 discriminator 2 view .LVU533
 472:lvgl/src/lv_widgets/lv_list.c ****     if(list == NULL) {
 1856              		.loc 1 472 5 discriminator 2 view .LVU534
 1857              	.LVL224:
 473:lvgl/src/lv_widgets/lv_list.c ****         /* no list provided, assuming btn is part of a list */
 1858              		.loc 1 473 5 discriminator 2 view .LVU535
 473:lvgl/src/lv_widgets/lv_list.c ****         /* no list provided, assuming btn is part of a list */
 1859              		.loc 1 473 7 is_stmt 0 discriminator 2 view .LVU536
 1860 000e 7CB1     		cbz	r4, .L177
 1861              	.L169:
 477:lvgl/src/lv_widgets/lv_list.c **** 
 1862              		.loc 1 477 5 is_stmt 1 view .LVU537
 477:lvgl/src/lv_widgets/lv_list.c **** 
 1863              		.loc 1 477 5 view .LVU538
 1864 0010 2046     		mov	r0, r4
 1865 0012 FFF7FEFF 		bl	lv_debug_check_null
 1866              	.LVL225:
 1867 0016 90B9     		cbnz	r0, .L170
 477:lvgl/src/lv_widgets/lv_list.c **** 
ARM GAS  D:\Temp\cc6WWuOg.s 			page 58


 1868              		.loc 1 477 5 discriminator 1 view .LVU539
 477:lvgl/src/lv_widgets/lv_list.c **** 
 1869              		.loc 1 477 5 discriminator 1 view .LVU540
 1870 0018 2246     		mov	r2, r4
 1871 001a 0023     		movs	r3, #0
 1872 001c 1148     		ldr	r0, .L179
 1873 001e FFF7FEFF 		bl	lv_debug_log_error
 1874              	.LVL226:
 1875              	.L171:
 477:lvgl/src/lv_widgets/lv_list.c **** 
 1876              		.loc 1 477 5 discriminator 2 view .LVU541
 477:lvgl/src/lv_widgets/lv_list.c **** 
 1877              		.loc 1 477 5 discriminator 2 view .LVU542
 1878 0022 FEE7     		b	.L171
 1879              	.LVL227:
 1880              	.L176:
 470:lvgl/src/lv_widgets/lv_list.c **** 
 1881              		.loc 1 470 5 discriminator 1 view .LVU543
 470:lvgl/src/lv_widgets/lv_list.c **** 
 1882              		.loc 1 470 5 discriminator 1 view .LVU544
 1883 0024 3246     		mov	r2, r6
 1884 0026 0023     		movs	r3, #0
 1885 0028 0E48     		ldr	r0, .L179
 1886 002a FFF7FEFF 		bl	lv_debug_log_error
 1887              	.LVL228:
 1888              	.L168:
 470:lvgl/src/lv_widgets/lv_list.c **** 
 1889              		.loc 1 470 5 discriminator 1 view .LVU545
 470:lvgl/src/lv_widgets/lv_list.c **** 
 1890              		.loc 1 470 5 discriminator 1 view .LVU546
 1891 002e FEE7     		b	.L168
 1892              	.LVL229:
 1893              	.L177:
 475:lvgl/src/lv_widgets/lv_list.c ****     }
 1894              		.loc 1 475 9 view .LVU547
 475:lvgl/src/lv_widgets/lv_list.c ****     }
 1895              		.loc 1 475 34 is_stmt 0 view .LVU548
 1896 0030 3046     		mov	r0, r6
 1897 0032 FFF7FEFF 		bl	lv_obj_get_parent
 1898              	.LVL230:
 475:lvgl/src/lv_widgets/lv_list.c ****     }
 1899              		.loc 1 475 16 view .LVU549
 1900 0036 FFF7FEFF 		bl	lv_obj_get_parent
 1901              	.LVL231:
 1902 003a 0446     		mov	r4, r0
 1903              	.LVL232:
 475:lvgl/src/lv_widgets/lv_list.c ****     }
 1904              		.loc 1 475 16 view .LVU550
 1905 003c E8E7     		b	.L169
 1906              	.LVL233:
 1907              	.L170:
 477:lvgl/src/lv_widgets/lv_list.c **** 
 1908              		.loc 1 477 38 is_stmt 1 discriminator 2 view .LVU551
 479:lvgl/src/lv_widgets/lv_list.c ****     while(e != NULL) {
 1909              		.loc 1 479 5 discriminator 2 view .LVU552
 479:lvgl/src/lv_widgets/lv_list.c ****     while(e != NULL) {
 1910              		.loc 1 479 20 is_stmt 0 discriminator 2 view .LVU553
ARM GAS  D:\Temp\cc6WWuOg.s 			page 59


 1911 003e 0021     		movs	r1, #0
 1912 0040 2046     		mov	r0, r4
 1913 0042 FFF7FEFF 		bl	lv_list_get_next_btn
 1914              	.LVL234:
 480:lvgl/src/lv_widgets/lv_list.c ****         if(e == btn) {
 1915              		.loc 1 480 5 is_stmt 1 discriminator 2 view .LVU554
 472:lvgl/src/lv_widgets/lv_list.c ****     if(list == NULL) {
 1916              		.loc 1 472 9 is_stmt 0 discriminator 2 view .LVU555
 1917 0046 0025     		movs	r5, #0
 1918              	.LVL235:
 1919              	.L172:
 480:lvgl/src/lv_widgets/lv_list.c ****         if(e == btn) {
 1920              		.loc 1 480 10 view .LVU556
 1921 0048 38B1     		cbz	r0, .L178
 481:lvgl/src/lv_widgets/lv_list.c ****             return index;
 1922              		.loc 1 481 9 is_stmt 1 view .LVU557
 481:lvgl/src/lv_widgets/lv_list.c ****             return index;
 1923              		.loc 1 481 11 is_stmt 0 view .LVU558
 1924 004a B042     		cmp	r0, r6
 1925 004c 07D0     		beq	.L166
 484:lvgl/src/lv_widgets/lv_list.c ****         e = lv_list_get_next_btn(list, e);
 1926              		.loc 1 484 9 is_stmt 1 view .LVU559
 484:lvgl/src/lv_widgets/lv_list.c ****         e = lv_list_get_next_btn(list, e);
 1927              		.loc 1 484 14 is_stmt 0 view .LVU560
 1928 004e 0135     		adds	r5, r5, #1
 1929              	.LVL236:
 485:lvgl/src/lv_widgets/lv_list.c ****     }
 1930              		.loc 1 485 9 is_stmt 1 view .LVU561
 485:lvgl/src/lv_widgets/lv_list.c ****     }
 1931              		.loc 1 485 13 is_stmt 0 view .LVU562
 1932 0050 0146     		mov	r1, r0
 1933 0052 2046     		mov	r0, r4
 1934              	.LVL237:
 485:lvgl/src/lv_widgets/lv_list.c ****     }
 1935              		.loc 1 485 13 view .LVU563
 1936 0054 FFF7FEFF 		bl	lv_list_get_next_btn
 1937              	.LVL238:
 485:lvgl/src/lv_widgets/lv_list.c ****     }
 1938              		.loc 1 485 13 view .LVU564
 1939 0058 F6E7     		b	.L172
 1940              	.L178:
 487:lvgl/src/lv_widgets/lv_list.c **** }
 1941              		.loc 1 487 12 view .LVU565
 1942 005a 4FF0FF35 		mov	r5, #-1
 1943              	.LVL239:
 1944              	.L166:
 488:lvgl/src/lv_widgets/lv_list.c **** 
 1945              		.loc 1 488 1 view .LVU566
 1946 005e 2846     		mov	r0, r5
 1947              	.LVL240:
 488:lvgl/src/lv_widgets/lv_list.c **** 
 1948              		.loc 1 488 1 view .LVU567
 1949 0060 70BD     		pop	{r4, r5, r6, pc}
 1950              	.LVL241:
 1951              	.L180:
 488:lvgl/src/lv_widgets/lv_list.c **** 
 1952              		.loc 1 488 1 view .LVU568
ARM GAS  D:\Temp\cc6WWuOg.s 			page 60


 1953 0062 00BF     		.align	2
 1954              	.L179:
 1955 0064 00000000 		.word	.LC0
 1956              		.cfi_endproc
 1957              	.LFE501:
 1959              		.section	.text.lv_list_get_size,"ax",%progbits
 1960              		.align	1
 1961              		.global	lv_list_get_size
 1962              		.syntax unified
 1963              		.thumb
 1964              		.thumb_func
 1965              		.fpu fpv4-sp-d16
 1967              	lv_list_get_size:
 1968              	.LVL242:
 1969              	.LFB502:
 496:lvgl/src/lv_widgets/lv_list.c ****     LV_ASSERT_OBJ(list, LV_OBJX_NAME);
 1970              		.loc 1 496 1 is_stmt 1 view -0
 1971              		.cfi_startproc
 1972              		@ args = 0, pretend = 0, frame = 0
 1973              		@ frame_needed = 0, uses_anonymous_args = 0
 496:lvgl/src/lv_widgets/lv_list.c ****     LV_ASSERT_OBJ(list, LV_OBJX_NAME);
 1974              		.loc 1 496 1 is_stmt 0 view .LVU570
 1975 0000 38B5     		push	{r3, r4, r5, lr}
 1976              	.LCFI23:
 1977              		.cfi_def_cfa_offset 16
 1978              		.cfi_offset 3, -16
 1979              		.cfi_offset 4, -12
 1980              		.cfi_offset 5, -8
 1981              		.cfi_offset 14, -4
 1982 0002 0546     		mov	r5, r0
 497:lvgl/src/lv_widgets/lv_list.c **** 
 1983              		.loc 1 497 5 is_stmt 1 view .LVU571
 497:lvgl/src/lv_widgets/lv_list.c **** 
 1984              		.loc 1 497 5 view .LVU572
 1985 0004 FFF7FEFF 		bl	lv_debug_check_null
 1986              	.LVL243:
 497:lvgl/src/lv_widgets/lv_list.c **** 
 1987              		.loc 1 497 5 is_stmt 0 view .LVU573
 1988 0008 28B9     		cbnz	r0, .L182
 497:lvgl/src/lv_widgets/lv_list.c **** 
 1989              		.loc 1 497 5 is_stmt 1 discriminator 1 view .LVU574
 497:lvgl/src/lv_widgets/lv_list.c **** 
 1990              		.loc 1 497 5 discriminator 1 view .LVU575
 1991 000a 2A46     		mov	r2, r5
 1992 000c 0023     		movs	r3, #0
 1993 000e 0A48     		ldr	r0, .L187
 1994 0010 FFF7FEFF 		bl	lv_debug_log_error
 1995              	.LVL244:
 1996              	.L183:
 497:lvgl/src/lv_widgets/lv_list.c **** 
 1997              		.loc 1 497 5 discriminator 1 view .LVU576
 497:lvgl/src/lv_widgets/lv_list.c **** 
 1998              		.loc 1 497 5 discriminator 1 view .LVU577
 1999 0014 FEE7     		b	.L183
 2000              	.L182:
 497:lvgl/src/lv_widgets/lv_list.c **** 
 2001              		.loc 1 497 38 discriminator 2 view .LVU578
ARM GAS  D:\Temp\cc6WWuOg.s 			page 61


 499:lvgl/src/lv_widgets/lv_list.c ****     lv_obj_t * btn = lv_list_get_next_btn(list, NULL);
 2002              		.loc 1 499 5 discriminator 2 view .LVU579
 2003              	.LVL245:
 500:lvgl/src/lv_widgets/lv_list.c ****     while(btn) {
 2004              		.loc 1 500 5 discriminator 2 view .LVU580
 500:lvgl/src/lv_widgets/lv_list.c ****     while(btn) {
 2005              		.loc 1 500 22 is_stmt 0 discriminator 2 view .LVU581
 2006 0016 0021     		movs	r1, #0
 2007 0018 2846     		mov	r0, r5
 2008 001a FFF7FEFF 		bl	lv_list_get_next_btn
 2009              	.LVL246:
 501:lvgl/src/lv_widgets/lv_list.c ****         size++;
 2010              		.loc 1 501 5 is_stmt 1 discriminator 2 view .LVU582
 499:lvgl/src/lv_widgets/lv_list.c ****     lv_obj_t * btn = lv_list_get_next_btn(list, NULL);
 2011              		.loc 1 499 14 is_stmt 0 discriminator 2 view .LVU583
 2012 001e 0024     		movs	r4, #0
 501:lvgl/src/lv_widgets/lv_list.c ****         size++;
 2013              		.loc 1 501 10 discriminator 2 view .LVU584
 2014 0020 05E0     		b	.L184
 2015              	.LVL247:
 2016              	.L185:
 502:lvgl/src/lv_widgets/lv_list.c ****         btn = lv_list_get_next_btn(list, btn);
 2017              		.loc 1 502 9 is_stmt 1 view .LVU585
 502:lvgl/src/lv_widgets/lv_list.c ****         btn = lv_list_get_next_btn(list, btn);
 2018              		.loc 1 502 13 is_stmt 0 view .LVU586
 2019 0022 0134     		adds	r4, r4, #1
 2020              	.LVL248:
 502:lvgl/src/lv_widgets/lv_list.c ****         btn = lv_list_get_next_btn(list, btn);
 2021              		.loc 1 502 13 view .LVU587
 2022 0024 A4B2     		uxth	r4, r4
 2023              	.LVL249:
 503:lvgl/src/lv_widgets/lv_list.c ****     }
 2024              		.loc 1 503 9 is_stmt 1 view .LVU588
 503:lvgl/src/lv_widgets/lv_list.c ****     }
 2025              		.loc 1 503 15 is_stmt 0 view .LVU589
 2026 0026 0146     		mov	r1, r0
 2027 0028 2846     		mov	r0, r5
 2028              	.LVL250:
 503:lvgl/src/lv_widgets/lv_list.c ****     }
 2029              		.loc 1 503 15 view .LVU590
 2030 002a FFF7FEFF 		bl	lv_list_get_next_btn
 2031              	.LVL251:
 2032              	.L184:
 501:lvgl/src/lv_widgets/lv_list.c ****         size++;
 2033              		.loc 1 501 10 view .LVU591
 2034 002e 0028     		cmp	r0, #0
 2035 0030 F7D1     		bne	.L185
 505:lvgl/src/lv_widgets/lv_list.c **** }
 2036              		.loc 1 505 5 is_stmt 1 view .LVU592
 506:lvgl/src/lv_widgets/lv_list.c **** 
 2037              		.loc 1 506 1 is_stmt 0 view .LVU593
 2038 0032 2046     		mov	r0, r4
 2039              	.LVL252:
 506:lvgl/src/lv_widgets/lv_list.c **** 
 2040              		.loc 1 506 1 view .LVU594
 2041 0034 38BD     		pop	{r3, r4, r5, pc}
 2042              	.LVL253:
ARM GAS  D:\Temp\cc6WWuOg.s 			page 62


 2043              	.L188:
 506:lvgl/src/lv_widgets/lv_list.c **** 
 2044              		.loc 1 506 1 view .LVU595
 2045 0036 00BF     		.align	2
 2046              	.L187:
 2047 0038 00000000 		.word	.LC0
 2048              		.cfi_endproc
 2049              	.LFE502:
 2051              		.section	.text.lv_list_get_btn_selected,"ax",%progbits
 2052              		.align	1
 2053              		.global	lv_list_get_btn_selected
 2054              		.syntax unified
 2055              		.thumb
 2056              		.thumb_func
 2057              		.fpu fpv4-sp-d16
 2059              	lv_list_get_btn_selected:
 2060              	.LVL254:
 2061              	.LFB503:
 515:lvgl/src/lv_widgets/lv_list.c ****     LV_ASSERT_OBJ(list, LV_OBJX_NAME);
 2062              		.loc 1 515 1 is_stmt 1 view -0
 2063              		.cfi_startproc
 2064              		@ args = 0, pretend = 0, frame = 0
 2065              		@ frame_needed = 0, uses_anonymous_args = 0
 515:lvgl/src/lv_widgets/lv_list.c ****     LV_ASSERT_OBJ(list, LV_OBJX_NAME);
 2066              		.loc 1 515 1 is_stmt 0 view .LVU597
 2067 0000 10B5     		push	{r4, lr}
 2068              	.LCFI24:
 2069              		.cfi_def_cfa_offset 8
 2070              		.cfi_offset 4, -8
 2071              		.cfi_offset 14, -4
 2072 0002 0446     		mov	r4, r0
 516:lvgl/src/lv_widgets/lv_list.c **** 
 2073              		.loc 1 516 5 is_stmt 1 view .LVU598
 516:lvgl/src/lv_widgets/lv_list.c **** 
 2074              		.loc 1 516 5 view .LVU599
 2075 0004 FFF7FEFF 		bl	lv_debug_check_null
 2076              	.LVL255:
 516:lvgl/src/lv_widgets/lv_list.c **** 
 2077              		.loc 1 516 5 is_stmt 0 view .LVU600
 2078 0008 28B9     		cbnz	r0, .L190
 516:lvgl/src/lv_widgets/lv_list.c **** 
 2079              		.loc 1 516 5 is_stmt 1 discriminator 1 view .LVU601
 516:lvgl/src/lv_widgets/lv_list.c **** 
 2080              		.loc 1 516 5 discriminator 1 view .LVU602
 2081 000a 2246     		mov	r2, r4
 2082 000c 0023     		movs	r3, #0
 2083 000e 0448     		ldr	r0, .L193
 2084 0010 FFF7FEFF 		bl	lv_debug_log_error
 2085              	.LVL256:
 2086              	.L191:
 516:lvgl/src/lv_widgets/lv_list.c **** 
 2087              		.loc 1 516 5 discriminator 1 view .LVU603
 516:lvgl/src/lv_widgets/lv_list.c **** 
 2088              		.loc 1 516 5 discriminator 1 view .LVU604
 2089 0014 FEE7     		b	.L191
 2090              	.L190:
 516:lvgl/src/lv_widgets/lv_list.c **** 
ARM GAS  D:\Temp\cc6WWuOg.s 			page 63


 2091              		.loc 1 516 38 discriminator 2 view .LVU605
 518:lvgl/src/lv_widgets/lv_list.c ****     return ext->act_sel_btn;
 2092              		.loc 1 518 5 discriminator 2 view .LVU606
 518:lvgl/src/lv_widgets/lv_list.c ****     return ext->act_sel_btn;
 2093              		.loc 1 518 27 is_stmt 0 discriminator 2 view .LVU607
 2094 0016 2046     		mov	r0, r4
 2095 0018 FFF7FEFF 		bl	lv_obj_get_ext_attr
 2096              	.LVL257:
 519:lvgl/src/lv_widgets/lv_list.c **** }
 2097              		.loc 1 519 5 is_stmt 1 discriminator 2 view .LVU608
 520:lvgl/src/lv_widgets/lv_list.c **** #endif
 2098              		.loc 1 520 1 is_stmt 0 discriminator 2 view .LVU609
 2099 001c 406C     		ldr	r0, [r0, #68]
 2100              	.LVL258:
 520:lvgl/src/lv_widgets/lv_list.c **** #endif
 2101              		.loc 1 520 1 discriminator 2 view .LVU610
 2102 001e 10BD     		pop	{r4, pc}
 2103              	.LVL259:
 2104              	.L194:
 520:lvgl/src/lv_widgets/lv_list.c **** #endif
 2105              		.loc 1 520 1 discriminator 2 view .LVU611
 2106              		.align	2
 2107              	.L193:
 2108 0020 00000000 		.word	.LC0
 2109              		.cfi_endproc
 2110              	.LFE503:
 2112              		.section	.text.lv_list_btn_signal,"ax",%progbits
 2113              		.align	1
 2114              		.syntax unified
 2115              		.thumb
 2116              		.thumb_func
 2117              		.fpu fpv4-sp-d16
 2119              	lv_list_btn_signal:
 2120              	.LVL260:
 2121              	.LFB509:
 793:lvgl/src/lv_widgets/lv_list.c ****     lv_res_t res;
 2122              		.loc 1 793 1 is_stmt 1 view -0
 2123              		.cfi_startproc
 2124              		@ args = 0, pretend = 0, frame = 0
 2125              		@ frame_needed = 0, uses_anonymous_args = 0
 793:lvgl/src/lv_widgets/lv_list.c ****     lv_res_t res;
 2126              		.loc 1 793 1 is_stmt 0 view .LVU613
 2127 0000 F8B5     		push	{r3, r4, r5, r6, r7, lr}
 2128              	.LCFI25:
 2129              		.cfi_def_cfa_offset 24
 2130              		.cfi_offset 3, -24
 2131              		.cfi_offset 4, -20
 2132              		.cfi_offset 5, -16
 2133              		.cfi_offset 6, -12
 2134              		.cfi_offset 7, -8
 2135              		.cfi_offset 14, -4
 2136 0002 0646     		mov	r6, r0
 2137 0004 0D46     		mov	r5, r1
 2138 0006 1746     		mov	r7, r2
 794:lvgl/src/lv_widgets/lv_list.c **** 
 2139              		.loc 1 794 5 is_stmt 1 view .LVU614
 797:lvgl/src/lv_widgets/lv_list.c ****     if(res != LV_RES_OK) return res;
ARM GAS  D:\Temp\cc6WWuOg.s 			page 64


 2140              		.loc 1 797 5 view .LVU615
 797:lvgl/src/lv_widgets/lv_list.c ****     if(res != LV_RES_OK) return res;
 2141              		.loc 1 797 11 is_stmt 0 view .LVU616
 2142 0008 4B4B     		ldr	r3, .L212
 2143 000a 1B68     		ldr	r3, [r3]
 2144 000c 9847     		blx	r3
 2145              	.LVL261:
 797:lvgl/src/lv_widgets/lv_list.c ****     if(res != LV_RES_OK) return res;
 2146              		.loc 1 797 11 view .LVU617
 2147 000e 0446     		mov	r4, r0
 2148              	.LVL262:
 798:lvgl/src/lv_widgets/lv_list.c ****     if(sign == LV_SIGNAL_GET_TYPE) return lv_obj_handle_get_type_signal(param, "");
 2149              		.loc 1 798 5 is_stmt 1 view .LVU618
 798:lvgl/src/lv_widgets/lv_list.c ****     if(sign == LV_SIGNAL_GET_TYPE) return lv_obj_handle_get_type_signal(param, "");
 2150              		.loc 1 798 7 is_stmt 0 view .LVU619
 2151 0010 0128     		cmp	r0, #1
 2152 0012 09D1     		bne	.L196
 799:lvgl/src/lv_widgets/lv_list.c **** 
 2153              		.loc 1 799 5 is_stmt 1 view .LVU620
 799:lvgl/src/lv_widgets/lv_list.c **** 
 2154              		.loc 1 799 7 is_stmt 0 view .LVU621
 2155 0014 072D     		cmp	r5, #7
 2156 0016 09D0     		beq	.L205
 801:lvgl/src/lv_widgets/lv_list.c ****                                         lv_obj_get_height(btn) != lv_area_get_height(param))) ||
 2157              		.loc 1 801 5 is_stmt 1 view .LVU622
 801:lvgl/src/lv_widgets/lv_list.c ****                                         lv_obj_get_height(btn) != lv_area_get_height(param))) ||
 2158              		.loc 1 801 7 is_stmt 0 view .LVU623
 2159 0018 022D     		cmp	r5, #2
 2160 001a 0DD0     		beq	.L206
 2161              	.LVL263:
 2162              	.L198:
 802:lvgl/src/lv_widgets/lv_list.c ****        sign == LV_SIGNAL_STYLE_CHG) {
 2163              		.loc 1 802 95 view .LVU624
 2164 001c 042D     		cmp	r5, #4
 2165 001e 16D0     		beq	.L199
 818:lvgl/src/lv_widgets/lv_list.c ****         if(lv_indev_is_dragging(lv_indev_get_act()) == false) {
 2166              		.loc 1 818 10 is_stmt 1 view .LVU625
 818:lvgl/src/lv_widgets/lv_list.c ****         if(lv_indev_is_dragging(lv_indev_get_act()) == false) {
 2167              		.loc 1 818 12 is_stmt 0 view .LVU626
 2168 0020 0E2D     		cmp	r5, #14
 2169 0022 54D0     		beq	.L207
 829:lvgl/src/lv_widgets/lv_list.c **** #if LV_USE_GROUP
 2170              		.loc 1 829 10 is_stmt 1 view .LVU627
 829:lvgl/src/lv_widgets/lv_list.c **** #if LV_USE_GROUP
 2171              		.loc 1 829 12 is_stmt 0 view .LVU628
 2172 0024 002D     		cmp	r5, #0
 2173 0026 6AD0     		beq	.L208
 2174              	.LVL264:
 2175              	.L196:
 840:lvgl/src/lv_widgets/lv_list.c **** 
 2176              		.loc 1 840 1 view .LVU629
 2177 0028 2046     		mov	r0, r4
 2178 002a F8BD     		pop	{r3, r4, r5, r6, r7, pc}
 2179              	.LVL265:
 2180              	.L205:
 799:lvgl/src/lv_widgets/lv_list.c **** 
 2181              		.loc 1 799 36 is_stmt 1 discriminator 1 view .LVU630
ARM GAS  D:\Temp\cc6WWuOg.s 			page 65


 799:lvgl/src/lv_widgets/lv_list.c **** 
 2182              		.loc 1 799 43 is_stmt 0 discriminator 1 view .LVU631
 2183 002c 4349     		ldr	r1, .L212+4
 2184 002e 3846     		mov	r0, r7
 2185              	.LVL266:
 799:lvgl/src/lv_widgets/lv_list.c **** 
 2186              		.loc 1 799 43 discriminator 1 view .LVU632
 2187 0030 FFF7FEFF 		bl	lv_obj_handle_get_type_signal
 2188              	.LVL267:
 2189 0034 0446     		mov	r4, r0
 2190 0036 F7E7     		b	.L196
 2191              	.LVL268:
 2192              	.L206:
 801:lvgl/src/lv_widgets/lv_list.c ****                                         lv_obj_get_height(btn) != lv_area_get_height(param))) ||
 2193              		.loc 1 801 41 discriminator 1 view .LVU633
 2194 0038 3046     		mov	r0, r6
 2195              	.LVL269:
 801:lvgl/src/lv_widgets/lv_list.c ****                                         lv_obj_get_height(btn) != lv_area_get_height(param))) ||
 2196              		.loc 1 801 41 discriminator 1 view .LVU634
 2197 003a FFF7FEFF 		bl	lv_obj_get_width
 2198              	.LVL270:
 2199              	.LBB109:
 2200              	.LBI109:
 2201              		.file 2 "d:\\_project\\stm32\\f407\\hack_rf_new\\lvgl\\src\\lv_misc\\lv_area.h"
   1:d:\_project\stm32\f407\hack_rf_new\lvgl\src\lv_misc\lv_area.h **** /**
   2:d:\_project\stm32\f407\hack_rf_new\lvgl\src\lv_misc\lv_area.h ****  * @file lv_area.h
   3:d:\_project\stm32\f407\hack_rf_new\lvgl\src\lv_misc\lv_area.h ****  *
   4:d:\_project\stm32\f407\hack_rf_new\lvgl\src\lv_misc\lv_area.h ****  */
   5:d:\_project\stm32\f407\hack_rf_new\lvgl\src\lv_misc\lv_area.h **** 
   6:d:\_project\stm32\f407\hack_rf_new\lvgl\src\lv_misc\lv_area.h **** #ifndef LV_AREA_H
   7:d:\_project\stm32\f407\hack_rf_new\lvgl\src\lv_misc\lv_area.h **** #define LV_AREA_H
   8:d:\_project\stm32\f407\hack_rf_new\lvgl\src\lv_misc\lv_area.h **** 
   9:d:\_project\stm32\f407\hack_rf_new\lvgl\src\lv_misc\lv_area.h **** #ifdef __cplusplus
  10:d:\_project\stm32\f407\hack_rf_new\lvgl\src\lv_misc\lv_area.h **** extern "C" {
  11:d:\_project\stm32\f407\hack_rf_new\lvgl\src\lv_misc\lv_area.h **** #endif
  12:d:\_project\stm32\f407\hack_rf_new\lvgl\src\lv_misc\lv_area.h **** 
  13:d:\_project\stm32\f407\hack_rf_new\lvgl\src\lv_misc\lv_area.h **** /*********************
  14:d:\_project\stm32\f407\hack_rf_new\lvgl\src\lv_misc\lv_area.h ****  *      INCLUDES
  15:d:\_project\stm32\f407\hack_rf_new\lvgl\src\lv_misc\lv_area.h ****  *********************/
  16:d:\_project\stm32\f407\hack_rf_new\lvgl\src\lv_misc\lv_area.h **** #include "../lv_conf_internal.h"
  17:d:\_project\stm32\f407\hack_rf_new\lvgl\src\lv_misc\lv_area.h **** #include <string.h>
  18:d:\_project\stm32\f407\hack_rf_new\lvgl\src\lv_misc\lv_area.h **** #include <stdbool.h>
  19:d:\_project\stm32\f407\hack_rf_new\lvgl\src\lv_misc\lv_area.h **** #include <stdint.h>
  20:d:\_project\stm32\f407\hack_rf_new\lvgl\src\lv_misc\lv_area.h **** #include "lv_mem.h"
  21:d:\_project\stm32\f407\hack_rf_new\lvgl\src\lv_misc\lv_area.h **** 
  22:d:\_project\stm32\f407\hack_rf_new\lvgl\src\lv_misc\lv_area.h **** /*********************
  23:d:\_project\stm32\f407\hack_rf_new\lvgl\src\lv_misc\lv_area.h ****  *      DEFINES
  24:d:\_project\stm32\f407\hack_rf_new\lvgl\src\lv_misc\lv_area.h ****  *********************/
  25:d:\_project\stm32\f407\hack_rf_new\lvgl\src\lv_misc\lv_area.h **** /*To avoid overflow don't let the max ranges (reduce with 1000) */
  26:d:\_project\stm32\f407\hack_rf_new\lvgl\src\lv_misc\lv_area.h **** #define LV_COORD_MAX ((lv_coord_t)((uint32_t)((uint32_t)1 << (8 * sizeof(lv_coord_t) - 1)) - 1000))
  27:d:\_project\stm32\f407\hack_rf_new\lvgl\src\lv_misc\lv_area.h **** #define LV_COORD_MIN (-LV_COORD_MAX)
  28:d:\_project\stm32\f407\hack_rf_new\lvgl\src\lv_misc\lv_area.h **** 
  29:d:\_project\stm32\f407\hack_rf_new\lvgl\src\lv_misc\lv_area.h **** LV_EXPORT_CONST_INT(LV_COORD_MAX);
  30:d:\_project\stm32\f407\hack_rf_new\lvgl\src\lv_misc\lv_area.h **** LV_EXPORT_CONST_INT(LV_COORD_MIN);
  31:d:\_project\stm32\f407\hack_rf_new\lvgl\src\lv_misc\lv_area.h **** 
  32:d:\_project\stm32\f407\hack_rf_new\lvgl\src\lv_misc\lv_area.h **** /**********************
  33:d:\_project\stm32\f407\hack_rf_new\lvgl\src\lv_misc\lv_area.h ****  *      TYPEDEFS
ARM GAS  D:\Temp\cc6WWuOg.s 			page 66


  34:d:\_project\stm32\f407\hack_rf_new\lvgl\src\lv_misc\lv_area.h ****  **********************/
  35:d:\_project\stm32\f407\hack_rf_new\lvgl\src\lv_misc\lv_area.h **** 
  36:d:\_project\stm32\f407\hack_rf_new\lvgl\src\lv_misc\lv_area.h **** /**
  37:d:\_project\stm32\f407\hack_rf_new\lvgl\src\lv_misc\lv_area.h ****  * Represents a point on the screen.
  38:d:\_project\stm32\f407\hack_rf_new\lvgl\src\lv_misc\lv_area.h ****  */
  39:d:\_project\stm32\f407\hack_rf_new\lvgl\src\lv_misc\lv_area.h **** typedef struct {
  40:d:\_project\stm32\f407\hack_rf_new\lvgl\src\lv_misc\lv_area.h ****     lv_coord_t x;
  41:d:\_project\stm32\f407\hack_rf_new\lvgl\src\lv_misc\lv_area.h ****     lv_coord_t y;
  42:d:\_project\stm32\f407\hack_rf_new\lvgl\src\lv_misc\lv_area.h **** } lv_point_t;
  43:d:\_project\stm32\f407\hack_rf_new\lvgl\src\lv_misc\lv_area.h **** 
  44:d:\_project\stm32\f407\hack_rf_new\lvgl\src\lv_misc\lv_area.h **** /** Represents an area of the screen. */
  45:d:\_project\stm32\f407\hack_rf_new\lvgl\src\lv_misc\lv_area.h **** typedef struct {
  46:d:\_project\stm32\f407\hack_rf_new\lvgl\src\lv_misc\lv_area.h ****     lv_coord_t x1;
  47:d:\_project\stm32\f407\hack_rf_new\lvgl\src\lv_misc\lv_area.h ****     lv_coord_t y1;
  48:d:\_project\stm32\f407\hack_rf_new\lvgl\src\lv_misc\lv_area.h ****     lv_coord_t x2;
  49:d:\_project\stm32\f407\hack_rf_new\lvgl\src\lv_misc\lv_area.h ****     lv_coord_t y2;
  50:d:\_project\stm32\f407\hack_rf_new\lvgl\src\lv_misc\lv_area.h **** } lv_area_t;
  51:d:\_project\stm32\f407\hack_rf_new\lvgl\src\lv_misc\lv_area.h **** 
  52:d:\_project\stm32\f407\hack_rf_new\lvgl\src\lv_misc\lv_area.h **** /** Alignments */
  53:d:\_project\stm32\f407\hack_rf_new\lvgl\src\lv_misc\lv_area.h **** enum {
  54:d:\_project\stm32\f407\hack_rf_new\lvgl\src\lv_misc\lv_area.h ****     LV_ALIGN_CENTER = 0,
  55:d:\_project\stm32\f407\hack_rf_new\lvgl\src\lv_misc\lv_area.h ****     LV_ALIGN_IN_TOP_LEFT,
  56:d:\_project\stm32\f407\hack_rf_new\lvgl\src\lv_misc\lv_area.h ****     LV_ALIGN_IN_TOP_MID,
  57:d:\_project\stm32\f407\hack_rf_new\lvgl\src\lv_misc\lv_area.h ****     LV_ALIGN_IN_TOP_RIGHT,
  58:d:\_project\stm32\f407\hack_rf_new\lvgl\src\lv_misc\lv_area.h ****     LV_ALIGN_IN_BOTTOM_LEFT,
  59:d:\_project\stm32\f407\hack_rf_new\lvgl\src\lv_misc\lv_area.h ****     LV_ALIGN_IN_BOTTOM_MID,
  60:d:\_project\stm32\f407\hack_rf_new\lvgl\src\lv_misc\lv_area.h ****     LV_ALIGN_IN_BOTTOM_RIGHT,
  61:d:\_project\stm32\f407\hack_rf_new\lvgl\src\lv_misc\lv_area.h ****     LV_ALIGN_IN_LEFT_MID,
  62:d:\_project\stm32\f407\hack_rf_new\lvgl\src\lv_misc\lv_area.h ****     LV_ALIGN_IN_RIGHT_MID,
  63:d:\_project\stm32\f407\hack_rf_new\lvgl\src\lv_misc\lv_area.h ****     LV_ALIGN_OUT_TOP_LEFT,
  64:d:\_project\stm32\f407\hack_rf_new\lvgl\src\lv_misc\lv_area.h ****     LV_ALIGN_OUT_TOP_MID,
  65:d:\_project\stm32\f407\hack_rf_new\lvgl\src\lv_misc\lv_area.h ****     LV_ALIGN_OUT_TOP_RIGHT,
  66:d:\_project\stm32\f407\hack_rf_new\lvgl\src\lv_misc\lv_area.h ****     LV_ALIGN_OUT_BOTTOM_LEFT,
  67:d:\_project\stm32\f407\hack_rf_new\lvgl\src\lv_misc\lv_area.h ****     LV_ALIGN_OUT_BOTTOM_MID,
  68:d:\_project\stm32\f407\hack_rf_new\lvgl\src\lv_misc\lv_area.h ****     LV_ALIGN_OUT_BOTTOM_RIGHT,
  69:d:\_project\stm32\f407\hack_rf_new\lvgl\src\lv_misc\lv_area.h ****     LV_ALIGN_OUT_LEFT_TOP,
  70:d:\_project\stm32\f407\hack_rf_new\lvgl\src\lv_misc\lv_area.h ****     LV_ALIGN_OUT_LEFT_MID,
  71:d:\_project\stm32\f407\hack_rf_new\lvgl\src\lv_misc\lv_area.h ****     LV_ALIGN_OUT_LEFT_BOTTOM,
  72:d:\_project\stm32\f407\hack_rf_new\lvgl\src\lv_misc\lv_area.h ****     LV_ALIGN_OUT_RIGHT_TOP,
  73:d:\_project\stm32\f407\hack_rf_new\lvgl\src\lv_misc\lv_area.h ****     LV_ALIGN_OUT_RIGHT_MID,
  74:d:\_project\stm32\f407\hack_rf_new\lvgl\src\lv_misc\lv_area.h ****     LV_ALIGN_OUT_RIGHT_BOTTOM,
  75:d:\_project\stm32\f407\hack_rf_new\lvgl\src\lv_misc\lv_area.h **** };
  76:d:\_project\stm32\f407\hack_rf_new\lvgl\src\lv_misc\lv_area.h **** typedef uint8_t lv_align_t;
  77:d:\_project\stm32\f407\hack_rf_new\lvgl\src\lv_misc\lv_area.h **** 
  78:d:\_project\stm32\f407\hack_rf_new\lvgl\src\lv_misc\lv_area.h **** /**********************
  79:d:\_project\stm32\f407\hack_rf_new\lvgl\src\lv_misc\lv_area.h ****  * GLOBAL PROTOTYPES
  80:d:\_project\stm32\f407\hack_rf_new\lvgl\src\lv_misc\lv_area.h ****  **********************/
  81:d:\_project\stm32\f407\hack_rf_new\lvgl\src\lv_misc\lv_area.h **** 
  82:d:\_project\stm32\f407\hack_rf_new\lvgl\src\lv_misc\lv_area.h **** /**
  83:d:\_project\stm32\f407\hack_rf_new\lvgl\src\lv_misc\lv_area.h ****  * Initialize an area
  84:d:\_project\stm32\f407\hack_rf_new\lvgl\src\lv_misc\lv_area.h ****  * @param area_p pointer to an area
  85:d:\_project\stm32\f407\hack_rf_new\lvgl\src\lv_misc\lv_area.h ****  * @param x1 left coordinate of the area
  86:d:\_project\stm32\f407\hack_rf_new\lvgl\src\lv_misc\lv_area.h ****  * @param y1 top coordinate of the area
  87:d:\_project\stm32\f407\hack_rf_new\lvgl\src\lv_misc\lv_area.h ****  * @param x2 right coordinate of the area
  88:d:\_project\stm32\f407\hack_rf_new\lvgl\src\lv_misc\lv_area.h ****  * @param y2 bottom coordinate of the area
  89:d:\_project\stm32\f407\hack_rf_new\lvgl\src\lv_misc\lv_area.h ****  */
  90:d:\_project\stm32\f407\hack_rf_new\lvgl\src\lv_misc\lv_area.h **** void lv_area_set(lv_area_t * area_p, lv_coord_t x1, lv_coord_t y1, lv_coord_t x2, lv_coord_t y2);
ARM GAS  D:\Temp\cc6WWuOg.s 			page 67


  91:d:\_project\stm32\f407\hack_rf_new\lvgl\src\lv_misc\lv_area.h **** 
  92:d:\_project\stm32\f407\hack_rf_new\lvgl\src\lv_misc\lv_area.h **** /**
  93:d:\_project\stm32\f407\hack_rf_new\lvgl\src\lv_misc\lv_area.h ****  * Copy an area
  94:d:\_project\stm32\f407\hack_rf_new\lvgl\src\lv_misc\lv_area.h ****  * @param dest pointer to the destination area
  95:d:\_project\stm32\f407\hack_rf_new\lvgl\src\lv_misc\lv_area.h ****  * @param src pointer to the source area
  96:d:\_project\stm32\f407\hack_rf_new\lvgl\src\lv_misc\lv_area.h ****  */
  97:d:\_project\stm32\f407\hack_rf_new\lvgl\src\lv_misc\lv_area.h **** inline static void lv_area_copy(lv_area_t * dest, const lv_area_t * src)
  98:d:\_project\stm32\f407\hack_rf_new\lvgl\src\lv_misc\lv_area.h **** {
  99:d:\_project\stm32\f407\hack_rf_new\lvgl\src\lv_misc\lv_area.h ****     _lv_memcpy_small(dest, src, sizeof(lv_area_t));
 100:d:\_project\stm32\f407\hack_rf_new\lvgl\src\lv_misc\lv_area.h **** }
 101:d:\_project\stm32\f407\hack_rf_new\lvgl\src\lv_misc\lv_area.h **** 
 102:d:\_project\stm32\f407\hack_rf_new\lvgl\src\lv_misc\lv_area.h **** /**
 103:d:\_project\stm32\f407\hack_rf_new\lvgl\src\lv_misc\lv_area.h ****  * Get the width of an area
 104:d:\_project\stm32\f407\hack_rf_new\lvgl\src\lv_misc\lv_area.h ****  * @param area_p pointer to an area
 105:d:\_project\stm32\f407\hack_rf_new\lvgl\src\lv_misc\lv_area.h ****  * @return the width of the area (if x1 == x2 -> width = 1)
 106:d:\_project\stm32\f407\hack_rf_new\lvgl\src\lv_misc\lv_area.h ****  */
 107:d:\_project\stm32\f407\hack_rf_new\lvgl\src\lv_misc\lv_area.h **** static inline lv_coord_t lv_area_get_width(const lv_area_t * area_p)
 2202              		.loc 2 107 26 is_stmt 1 discriminator 1 view .LVU635
 2203              	.LBB110:
 108:d:\_project\stm32\f407\hack_rf_new\lvgl\src\lv_misc\lv_area.h **** {
 109:d:\_project\stm32\f407\hack_rf_new\lvgl\src\lv_misc\lv_area.h ****     return (lv_coord_t)(area_p->x2 - area_p->x1 + 1);
 2204              		.loc 2 109 5 discriminator 1 view .LVU636
 2205              		.loc 2 109 31 is_stmt 0 discriminator 1 view .LVU637
 2206 003e BB88     		ldrh	r3, [r7, #4]
 2207              		.loc 2 109 44 discriminator 1 view .LVU638
 2208 0040 3A88     		ldrh	r2, [r7]
 2209              		.loc 2 109 36 discriminator 1 view .LVU639
 2210 0042 9B1A     		subs	r3, r3, r2
 2211 0044 9BB2     		uxth	r3, r3
 2212              		.loc 2 109 49 discriminator 1 view .LVU640
 2213 0046 0133     		adds	r3, r3, #1
 2214              		.loc 2 109 12 discriminator 1 view .LVU641
 2215 0048 1BB2     		sxth	r3, r3
 2216              	.LVL271:
 2217              		.loc 2 109 12 discriminator 1 view .LVU642
 2218              	.LBE110:
 2219              	.LBE109:
 801:lvgl/src/lv_widgets/lv_list.c ****                                         lv_obj_get_height(btn) != lv_area_get_height(param))) ||
 2220              		.loc 1 801 37 discriminator 1 view .LVU643
 2221 004a 9842     		cmp	r0, r3
 2222 004c 23D0     		beq	.L209
 2223              	.L199:
 2224              	.LBB111:
 804:lvgl/src/lv_widgets/lv_list.c ****         if(label) {
 2225              		.loc 1 804 9 is_stmt 1 view .LVU644
 804:lvgl/src/lv_widgets/lv_list.c ****         if(label) {
 2226              		.loc 1 804 28 is_stmt 0 view .LVU645
 2227 004e 3046     		mov	r0, r6
 2228 0050 FFF7FEFF 		bl	lv_list_get_btn_label
 2229              	.LVL272:
 805:lvgl/src/lv_widgets/lv_list.c ****             const lv_font_t * font = lv_obj_get_style_text_font(label, LV_LABEL_PART_MAIN);
 2230              		.loc 1 805 9 is_stmt 1 view .LVU646
 805:lvgl/src/lv_widgets/lv_list.c ****             const lv_font_t * font = lv_obj_get_style_text_font(label, LV_LABEL_PART_MAIN);
 2231              		.loc 1 805 11 is_stmt 0 view .LVU647
 2232 0054 0546     		mov	r5, r0
 2233 0056 0028     		cmp	r0, #0
 2234 0058 E6D0     		beq	.L196
ARM GAS  D:\Temp\cc6WWuOg.s 			page 68


 2235              	.LBB112:
 806:lvgl/src/lv_widgets/lv_list.c ****             lv_coord_t font_h = lv_font_get_line_height(font);
 2236              		.loc 1 806 13 is_stmt 1 view .LVU648
 2237              	.LVL273:
 2238              	.LBB113:
 2239              	.LBI113:
 2240              		.file 3 "lvgl/src/lv_widgets/../lv_core/lv_obj_style_dec.h"
   1:lvgl/src/lv_widgets/../lv_core/lv_obj_style_dec.h **** 
   2:lvgl/src/lv_widgets/../lv_core/lv_obj_style_dec.h **** /**
   3:lvgl/src/lv_widgets/../lv_core/lv_obj_style_dec.h ****  * @file lv_obj_style_dec.h
   4:lvgl/src/lv_widgets/../lv_core/lv_obj_style_dec.h ****  *
   5:lvgl/src/lv_widgets/../lv_core/lv_obj_style_dec.h ****  */
   6:lvgl/src/lv_widgets/../lv_core/lv_obj_style_dec.h **** 
   7:lvgl/src/lv_widgets/../lv_core/lv_obj_style_dec.h **** #ifndef LV_OBJ_STYLE_DEC_H
   8:lvgl/src/lv_widgets/../lv_core/lv_obj_style_dec.h **** #define LV_OBJ_STYLE_DEC_H
   9:lvgl/src/lv_widgets/../lv_core/lv_obj_style_dec.h **** 
  10:lvgl/src/lv_widgets/../lv_core/lv_obj_style_dec.h **** #ifdef __cplusplus
  11:lvgl/src/lv_widgets/../lv_core/lv_obj_style_dec.h **** extern "C" {
  12:lvgl/src/lv_widgets/../lv_core/lv_obj_style_dec.h **** #endif
  13:lvgl/src/lv_widgets/../lv_core/lv_obj_style_dec.h **** 
  14:lvgl/src/lv_widgets/../lv_core/lv_obj_style_dec.h **** /*********************
  15:lvgl/src/lv_widgets/../lv_core/lv_obj_style_dec.h ****  *      DEFINES
  16:lvgl/src/lv_widgets/../lv_core/lv_obj_style_dec.h ****  *********************/
  17:lvgl/src/lv_widgets/../lv_core/lv_obj_style_dec.h **** 
  18:lvgl/src/lv_widgets/../lv_core/lv_obj_style_dec.h **** /**
  19:lvgl/src/lv_widgets/../lv_core/lv_obj_style_dec.h ****  * Macro to declare the most important style set/get API functions.
  20:lvgl/src/lv_widgets/../lv_core/lv_obj_style_dec.h ****  *
  21:lvgl/src/lv_widgets/../lv_core/lv_obj_style_dec.h ****  * Get the value of a style property from an object in the object's current state
  22:lvgl/src/lv_widgets/../lv_core/lv_obj_style_dec.h ****  * -----------------------------------------------------------------------------
  23:lvgl/src/lv_widgets/../lv_core/lv_obj_style_dec.h ****  *  - Get the value of a style property from an object in the object's current state.
  24:lvgl/src/lv_widgets/../lv_core/lv_obj_style_dec.h ****  *  - Transition animation is taken into account.
  25:lvgl/src/lv_widgets/../lv_core/lv_obj_style_dec.h ****  *  - If the property is not set in the object's styles check the parent(s) if the property can be 
  26:lvgl/src/lv_widgets/../lv_core/lv_obj_style_dec.h ****  *  - If still not found return a default value.
  27:lvgl/src/lv_widgets/../lv_core/lv_obj_style_dec.h ****  *  - For example:
  28:lvgl/src/lv_widgets/../lv_core/lv_obj_style_dec.h ****  *      `lv_style_int_t w = lv_obj_get_style_border_width(btn1, LV_BTN_PART_MAIN);`
  29:lvgl/src/lv_widgets/../lv_core/lv_obj_style_dec.h ****  *
  30:lvgl/src/lv_widgets/../lv_core/lv_obj_style_dec.h ****  * Set a local style property for an object in a given state
  31:lvgl/src/lv_widgets/../lv_core/lv_obj_style_dec.h ****  * ---------------------------------------------------------
  32:lvgl/src/lv_widgets/../lv_core/lv_obj_style_dec.h ****  *  - For example:
  33:lvgl/src/lv_widgets/../lv_core/lv_obj_style_dec.h ****  *      `lv_obj_set_style_local_border_width(btn1, LV_BTN_PART_MAIN, LV_STATE_PRESSED, 2);`
  34:lvgl/src/lv_widgets/../lv_core/lv_obj_style_dec.h ****  *
  35:lvgl/src/lv_widgets/../lv_core/lv_obj_style_dec.h ****  * Get a local style property's value of an object in a given state
  36:lvgl/src/lv_widgets/../lv_core/lv_obj_style_dec.h ****  * ----------------------------------------------------------------
  37:lvgl/src/lv_widgets/../lv_core/lv_obj_style_dec.h ****  *  - Return the best matching property in the given state.
  38:lvgl/src/lv_widgets/../lv_core/lv_obj_style_dec.h ****  *  - E.g. if `state` parameter is LV_STATE_PRESSED | LV_STATE_CHECKED` but the property defined on
  39:lvgl/src/lv_widgets/../lv_core/lv_obj_style_dec.h ****  *    `LV_STATE_PRESSED` and `LV_STATE_DEFAULT` the best matching state is `LV_STATE_PRESSED`
  40:lvgl/src/lv_widgets/../lv_core/lv_obj_style_dec.h ****  *    (because it has higher precedence) and it will be returned.
  41:lvgl/src/lv_widgets/../lv_core/lv_obj_style_dec.h ****  *  - If the property is not found even in `LV_STATE_DEFAULT` `-1` is returned.
  42:lvgl/src/lv_widgets/../lv_core/lv_obj_style_dec.h ****  *  - For example:
  43:lvgl/src/lv_widgets/../lv_core/lv_obj_style_dec.h ****  *      `//Type of result should be lv_style_int_t/lv_opa_t/lv_color_t/const void * according to th
  44:lvgl/src/lv_widgets/../lv_core/lv_obj_style_dec.h ****  *      `lv_style_int_t result;`
  45:lvgl/src/lv_widgets/../lv_core/lv_obj_style_dec.h ****  *      `lv_obj_get_style_local_border_width(btn1, LV_BTN_PART_MAIN, LV_STATE_PRESSED, &result);`
  46:lvgl/src/lv_widgets/../lv_core/lv_obj_style_dec.h ****  *      `if(weight > 0) ...the property is found and loaded into result...`
  47:lvgl/src/lv_widgets/../lv_core/lv_obj_style_dec.h ****  *
  48:lvgl/src/lv_widgets/../lv_core/lv_obj_style_dec.h ****  * Get the value from a style in a given state
  49:lvgl/src/lv_widgets/../lv_core/lv_obj_style_dec.h ****  * -------------------------------------------
  50:lvgl/src/lv_widgets/../lv_core/lv_obj_style_dec.h ****  * - The same rules applies to the return value then for "lv_obj_get_style_local_...()" above
ARM GAS  D:\Temp\cc6WWuOg.s 			page 69


  51:lvgl/src/lv_widgets/../lv_core/lv_obj_style_dec.h ****  * - For example
  52:lvgl/src/lv_widgets/../lv_core/lv_obj_style_dec.h ****  *      `int16_t weight = lv_style_get_border_width(&style1, LV_STATE_PRESSED, &result);`
  53:lvgl/src/lv_widgets/../lv_core/lv_obj_style_dec.h ****  *      `if(weight > 0) ...the property is found and loaded into result...`
  54:lvgl/src/lv_widgets/../lv_core/lv_obj_style_dec.h **** 
  55:lvgl/src/lv_widgets/../lv_core/lv_obj_style_dec.h ****  * Set a value in a style in a given state
  56:lvgl/src/lv_widgets/../lv_core/lv_obj_style_dec.h ****  * ---------------------------------------
  57:lvgl/src/lv_widgets/../lv_core/lv_obj_style_dec.h ****  * - For example
  58:lvgl/src/lv_widgets/../lv_core/lv_obj_style_dec.h ****  *      `lv_style_set_border_width(&style1, LV_STATE_PRESSED, 2);`
  59:lvgl/src/lv_widgets/../lv_core/lv_obj_style_dec.h ****  */
  60:lvgl/src/lv_widgets/../lv_core/lv_obj_style_dec.h **** 
  61:lvgl/src/lv_widgets/../lv_core/lv_obj_style_dec.h **** #define _OBJ_GET_STYLE_scalar(prop_name, func_name, value_type, style_type)                        
  62:lvgl/src/lv_widgets/../lv_core/lv_obj_style_dec.h ****     static inline value_type lv_obj_get_style_##func_name (const lv_obj_t * obj, uint8_t part)     
  63:lvgl/src/lv_widgets/../lv_core/lv_obj_style_dec.h ****     {                                                                                              
  64:lvgl/src/lv_widgets/../lv_core/lv_obj_style_dec.h ****         return (value_type) _lv_obj_get_style##style_type (obj, part, LV_STYLE_##prop_name);       
  65:lvgl/src/lv_widgets/../lv_core/lv_obj_style_dec.h ****     }
  66:lvgl/src/lv_widgets/../lv_core/lv_obj_style_dec.h **** 
  67:lvgl/src/lv_widgets/../lv_core/lv_obj_style_dec.h **** #define _OBJ_GET_STYLE_nonscalar(prop_name, func_name, value_type, style_type)                     
  68:lvgl/src/lv_widgets/../lv_core/lv_obj_style_dec.h ****     static inline value_type lv_obj_get_style_##func_name (const lv_obj_t * obj, uint8_t part)     
  69:lvgl/src/lv_widgets/../lv_core/lv_obj_style_dec.h ****     {                                                                                              
  70:lvgl/src/lv_widgets/../lv_core/lv_obj_style_dec.h ****         return _lv_obj_get_style##style_type (obj, part, LV_STYLE_##prop_name);                    
  71:lvgl/src/lv_widgets/../lv_core/lv_obj_style_dec.h ****     }
  72:lvgl/src/lv_widgets/../lv_core/lv_obj_style_dec.h **** 
  73:lvgl/src/lv_widgets/../lv_core/lv_obj_style_dec.h **** #define _OBJ_SET_STYLE_LOCAL_scalar(prop_name, func_name, value_type, style_type)                  
  74:lvgl/src/lv_widgets/../lv_core/lv_obj_style_dec.h ****     static inline void lv_obj_set_style_local_##func_name (lv_obj_t * obj, uint8_t part, lv_state_t
  75:lvgl/src/lv_widgets/../lv_core/lv_obj_style_dec.h ****     {                                                                                              
  76:lvgl/src/lv_widgets/../lv_core/lv_obj_style_dec.h ****         _lv_obj_set_style_local##style_type (obj, part, LV_STYLE_##prop_name | (state << LV_STYLE_S
  77:lvgl/src/lv_widgets/../lv_core/lv_obj_style_dec.h ****     }
  78:lvgl/src/lv_widgets/../lv_core/lv_obj_style_dec.h **** 
  79:lvgl/src/lv_widgets/../lv_core/lv_obj_style_dec.h **** #define _OBJ_SET_STYLE_LOCAL_nonscalar(prop_name, func_name, value_type, style_type)               
  80:lvgl/src/lv_widgets/../lv_core/lv_obj_style_dec.h ****     static inline void lv_obj_set_style_local_##func_name (lv_obj_t * obj, uint8_t part, lv_state_t
  81:lvgl/src/lv_widgets/../lv_core/lv_obj_style_dec.h ****     {                                                                                              
  82:lvgl/src/lv_widgets/../lv_core/lv_obj_style_dec.h ****         _lv_obj_set_style_local##style_type (obj, part, LV_STYLE_##prop_name | (state << LV_STYLE_S
  83:lvgl/src/lv_widgets/../lv_core/lv_obj_style_dec.h ****     }
  84:lvgl/src/lv_widgets/../lv_core/lv_obj_style_dec.h **** 
  85:lvgl/src/lv_widgets/../lv_core/lv_obj_style_dec.h **** #define _OBJ_SET_STYLE_scalar(prop_name, func_name, value_type, style_type)                        
  86:lvgl/src/lv_widgets/../lv_core/lv_obj_style_dec.h ****     static inline void lv_style_set_##func_name (lv_style_t * style, lv_state_t state, value_type v
  87:lvgl/src/lv_widgets/../lv_core/lv_obj_style_dec.h ****     {                                                                                              
  88:lvgl/src/lv_widgets/../lv_core/lv_obj_style_dec.h ****         _lv_style_set##style_type (style, LV_STYLE_##prop_name | (state << LV_STYLE_STATE_POS), val
  89:lvgl/src/lv_widgets/../lv_core/lv_obj_style_dec.h ****     }
  90:lvgl/src/lv_widgets/../lv_core/lv_obj_style_dec.h **** 
  91:lvgl/src/lv_widgets/../lv_core/lv_obj_style_dec.h **** #define _OBJ_SET_STYLE_nonscalar(prop_name, func_name, value_type, style_type)                     
  92:lvgl/src/lv_widgets/../lv_core/lv_obj_style_dec.h ****     static inline void lv_style_set_##func_name (lv_style_t * style, lv_state_t state, value_type v
  93:lvgl/src/lv_widgets/../lv_core/lv_obj_style_dec.h ****     {                                                                                              
  94:lvgl/src/lv_widgets/../lv_core/lv_obj_style_dec.h ****         _lv_style_set##style_type (style, LV_STYLE_##prop_name | (state << LV_STYLE_STATE_POS), val
  95:lvgl/src/lv_widgets/../lv_core/lv_obj_style_dec.h ****     }
  96:lvgl/src/lv_widgets/../lv_core/lv_obj_style_dec.h **** 
  97:lvgl/src/lv_widgets/../lv_core/lv_obj_style_dec.h **** #define _LV_OBJ_STYLE_SET_GET_DECLARE(prop_name, func_name, value_type, style_type, scalar)        
  98:lvgl/src/lv_widgets/../lv_core/lv_obj_style_dec.h ****     _OBJ_GET_STYLE_##scalar(prop_name, func_name, value_type, style_type)                          
  99:lvgl/src/lv_widgets/../lv_core/lv_obj_style_dec.h ****     _OBJ_SET_STYLE_LOCAL_##scalar(prop_name, func_name, value_type, style_type)                    
 100:lvgl/src/lv_widgets/../lv_core/lv_obj_style_dec.h ****     _OBJ_SET_STYLE_##scalar(prop_name, func_name, value_type, style_type)
 101:lvgl/src/lv_widgets/../lv_core/lv_obj_style_dec.h **** 
 102:lvgl/src/lv_widgets/../lv_core/lv_obj_style_dec.h **** _LV_OBJ_STYLE_SET_GET_DECLARE(RADIUS, radius, lv_style_int_t, _int, scalar)
 103:lvgl/src/lv_widgets/../lv_core/lv_obj_style_dec.h **** _LV_OBJ_STYLE_SET_GET_DECLARE(CLIP_CORNER, clip_corner, bool, _int, scalar)
 104:lvgl/src/lv_widgets/../lv_core/lv_obj_style_dec.h **** _LV_OBJ_STYLE_SET_GET_DECLARE(SIZE, size, lv_style_int_t, _int, scalar)
 105:lvgl/src/lv_widgets/../lv_core/lv_obj_style_dec.h **** _LV_OBJ_STYLE_SET_GET_DECLARE(TRANSFORM_WIDTH, transform_width, lv_style_int_t, _int, scalar)
 106:lvgl/src/lv_widgets/../lv_core/lv_obj_style_dec.h **** _LV_OBJ_STYLE_SET_GET_DECLARE(TRANSFORM_HEIGHT, transform_height, lv_style_int_t, _int, scalar)
 107:lvgl/src/lv_widgets/../lv_core/lv_obj_style_dec.h **** _LV_OBJ_STYLE_SET_GET_DECLARE(TRANSFORM_ANGLE, transform_angle, lv_style_int_t, _int, scalar)
ARM GAS  D:\Temp\cc6WWuOg.s 			page 70


 108:lvgl/src/lv_widgets/../lv_core/lv_obj_style_dec.h **** _LV_OBJ_STYLE_SET_GET_DECLARE(TRANSFORM_ZOOM, transform_zoom, lv_style_int_t, _int, scalar)
 109:lvgl/src/lv_widgets/../lv_core/lv_obj_style_dec.h **** _LV_OBJ_STYLE_SET_GET_DECLARE(OPA_SCALE, opa_scale, lv_opa_t, _opa, scalar)
 110:lvgl/src/lv_widgets/../lv_core/lv_obj_style_dec.h **** _LV_OBJ_STYLE_SET_GET_DECLARE(PAD_TOP, pad_top, lv_style_int_t, _int, scalar)
 111:lvgl/src/lv_widgets/../lv_core/lv_obj_style_dec.h **** _LV_OBJ_STYLE_SET_GET_DECLARE(PAD_BOTTOM, pad_bottom, lv_style_int_t, _int, scalar)
 112:lvgl/src/lv_widgets/../lv_core/lv_obj_style_dec.h **** _LV_OBJ_STYLE_SET_GET_DECLARE(PAD_LEFT, pad_left, lv_style_int_t, _int, scalar)
 113:lvgl/src/lv_widgets/../lv_core/lv_obj_style_dec.h **** _LV_OBJ_STYLE_SET_GET_DECLARE(PAD_RIGHT, pad_right, lv_style_int_t, _int, scalar)
 114:lvgl/src/lv_widgets/../lv_core/lv_obj_style_dec.h **** _LV_OBJ_STYLE_SET_GET_DECLARE(PAD_INNER, pad_inner, lv_style_int_t, _int, scalar)
 115:lvgl/src/lv_widgets/../lv_core/lv_obj_style_dec.h **** _LV_OBJ_STYLE_SET_GET_DECLARE(MARGIN_TOP, margin_top, lv_style_int_t, _int, scalar)
 116:lvgl/src/lv_widgets/../lv_core/lv_obj_style_dec.h **** _LV_OBJ_STYLE_SET_GET_DECLARE(MARGIN_BOTTOM, margin_bottom, lv_style_int_t, _int, scalar)
 117:lvgl/src/lv_widgets/../lv_core/lv_obj_style_dec.h **** _LV_OBJ_STYLE_SET_GET_DECLARE(MARGIN_LEFT, margin_left, lv_style_int_t, _int, scalar)
 118:lvgl/src/lv_widgets/../lv_core/lv_obj_style_dec.h **** _LV_OBJ_STYLE_SET_GET_DECLARE(MARGIN_RIGHT, margin_right, lv_style_int_t, _int, scalar)
 119:lvgl/src/lv_widgets/../lv_core/lv_obj_style_dec.h **** _LV_OBJ_STYLE_SET_GET_DECLARE(BG_BLEND_MODE, bg_blend_mode, lv_blend_mode_t, _int, scalar)
 120:lvgl/src/lv_widgets/../lv_core/lv_obj_style_dec.h **** _LV_OBJ_STYLE_SET_GET_DECLARE(BG_MAIN_STOP, bg_main_stop, lv_style_int_t, _int, scalar)
 121:lvgl/src/lv_widgets/../lv_core/lv_obj_style_dec.h **** _LV_OBJ_STYLE_SET_GET_DECLARE(BG_GRAD_STOP, bg_grad_stop, lv_style_int_t, _int, scalar)
 122:lvgl/src/lv_widgets/../lv_core/lv_obj_style_dec.h **** _LV_OBJ_STYLE_SET_GET_DECLARE(BG_GRAD_DIR, bg_grad_dir, lv_grad_dir_t, _int, scalar)
 123:lvgl/src/lv_widgets/../lv_core/lv_obj_style_dec.h **** _LV_OBJ_STYLE_SET_GET_DECLARE(BG_COLOR, bg_color, lv_color_t, _color, nonscalar)
 124:lvgl/src/lv_widgets/../lv_core/lv_obj_style_dec.h **** _LV_OBJ_STYLE_SET_GET_DECLARE(BG_GRAD_COLOR, bg_grad_color, lv_color_t, _color, nonscalar)
 125:lvgl/src/lv_widgets/../lv_core/lv_obj_style_dec.h **** _LV_OBJ_STYLE_SET_GET_DECLARE(BG_OPA, bg_opa, lv_opa_t, _opa, scalar)
 126:lvgl/src/lv_widgets/../lv_core/lv_obj_style_dec.h **** _LV_OBJ_STYLE_SET_GET_DECLARE(BORDER_WIDTH, border_width, lv_style_int_t, _int, scalar)
 127:lvgl/src/lv_widgets/../lv_core/lv_obj_style_dec.h **** _LV_OBJ_STYLE_SET_GET_DECLARE(BORDER_SIDE, border_side, lv_border_side_t, _int, scalar)
 128:lvgl/src/lv_widgets/../lv_core/lv_obj_style_dec.h **** _LV_OBJ_STYLE_SET_GET_DECLARE(BORDER_BLEND_MODE, border_blend_mode, lv_blend_mode_t, _int, scalar)
 129:lvgl/src/lv_widgets/../lv_core/lv_obj_style_dec.h **** _LV_OBJ_STYLE_SET_GET_DECLARE(BORDER_POST, border_post, bool, _int, scalar)
 130:lvgl/src/lv_widgets/../lv_core/lv_obj_style_dec.h **** _LV_OBJ_STYLE_SET_GET_DECLARE(BORDER_COLOR, border_color, lv_color_t, _color, nonscalar)
 131:lvgl/src/lv_widgets/../lv_core/lv_obj_style_dec.h **** _LV_OBJ_STYLE_SET_GET_DECLARE(BORDER_OPA, border_opa, lv_opa_t, _opa, scalar)
 132:lvgl/src/lv_widgets/../lv_core/lv_obj_style_dec.h **** _LV_OBJ_STYLE_SET_GET_DECLARE(OUTLINE_WIDTH, outline_width, lv_style_int_t, _int, scalar)
 133:lvgl/src/lv_widgets/../lv_core/lv_obj_style_dec.h **** _LV_OBJ_STYLE_SET_GET_DECLARE(OUTLINE_PAD, outline_pad, lv_style_int_t, _int, scalar)
 134:lvgl/src/lv_widgets/../lv_core/lv_obj_style_dec.h **** _LV_OBJ_STYLE_SET_GET_DECLARE(OUTLINE_BLEND_MODE, outline_blend_mode, lv_blend_mode_t, _int, scalar
 135:lvgl/src/lv_widgets/../lv_core/lv_obj_style_dec.h **** _LV_OBJ_STYLE_SET_GET_DECLARE(OUTLINE_COLOR, outline_color, lv_color_t, _color, nonscalar)
 136:lvgl/src/lv_widgets/../lv_core/lv_obj_style_dec.h **** _LV_OBJ_STYLE_SET_GET_DECLARE(OUTLINE_OPA, outline_opa, lv_opa_t, _opa, scalar)
 137:lvgl/src/lv_widgets/../lv_core/lv_obj_style_dec.h **** _LV_OBJ_STYLE_SET_GET_DECLARE(SHADOW_WIDTH, shadow_width, lv_style_int_t, _int, scalar)
 138:lvgl/src/lv_widgets/../lv_core/lv_obj_style_dec.h **** _LV_OBJ_STYLE_SET_GET_DECLARE(SHADOW_OFS_X, shadow_ofs_x, lv_style_int_t, _int, scalar)
 139:lvgl/src/lv_widgets/../lv_core/lv_obj_style_dec.h **** _LV_OBJ_STYLE_SET_GET_DECLARE(SHADOW_OFS_Y, shadow_ofs_y, lv_style_int_t, _int, scalar)
 140:lvgl/src/lv_widgets/../lv_core/lv_obj_style_dec.h **** _LV_OBJ_STYLE_SET_GET_DECLARE(SHADOW_SPREAD, shadow_spread, lv_style_int_t, _int, scalar)
 141:lvgl/src/lv_widgets/../lv_core/lv_obj_style_dec.h **** _LV_OBJ_STYLE_SET_GET_DECLARE(SHADOW_BLEND_MODE, shadow_blend_mode, lv_blend_mode_t, _int, scalar)
 142:lvgl/src/lv_widgets/../lv_core/lv_obj_style_dec.h **** _LV_OBJ_STYLE_SET_GET_DECLARE(SHADOW_COLOR, shadow_color, lv_color_t, _color, nonscalar)
 143:lvgl/src/lv_widgets/../lv_core/lv_obj_style_dec.h **** _LV_OBJ_STYLE_SET_GET_DECLARE(SHADOW_OPA, shadow_opa, lv_opa_t, _opa, scalar)
 144:lvgl/src/lv_widgets/../lv_core/lv_obj_style_dec.h **** _LV_OBJ_STYLE_SET_GET_DECLARE(PATTERN_REPEAT, pattern_repeat, bool, _int, scalar)
 145:lvgl/src/lv_widgets/../lv_core/lv_obj_style_dec.h **** _LV_OBJ_STYLE_SET_GET_DECLARE(PATTERN_BLEND_MODE, pattern_blend_mode, lv_blend_mode_t, _int, scalar
 146:lvgl/src/lv_widgets/../lv_core/lv_obj_style_dec.h **** _LV_OBJ_STYLE_SET_GET_DECLARE(PATTERN_RECOLOR, pattern_recolor, lv_color_t, _color, nonscalar)
 147:lvgl/src/lv_widgets/../lv_core/lv_obj_style_dec.h **** _LV_OBJ_STYLE_SET_GET_DECLARE(PATTERN_OPA, pattern_opa, lv_opa_t, _opa, scalar)
 148:lvgl/src/lv_widgets/../lv_core/lv_obj_style_dec.h **** _LV_OBJ_STYLE_SET_GET_DECLARE(PATTERN_RECOLOR_OPA, pattern_recolor_opa, lv_opa_t, _opa, scalar)
 149:lvgl/src/lv_widgets/../lv_core/lv_obj_style_dec.h **** _LV_OBJ_STYLE_SET_GET_DECLARE(PATTERN_IMAGE, pattern_image, const void *, _ptr, scalar)
 150:lvgl/src/lv_widgets/../lv_core/lv_obj_style_dec.h **** _LV_OBJ_STYLE_SET_GET_DECLARE(VALUE_LETTER_SPACE, value_letter_space, lv_style_int_t, _int, scalar)
 151:lvgl/src/lv_widgets/../lv_core/lv_obj_style_dec.h **** _LV_OBJ_STYLE_SET_GET_DECLARE(VALUE_LINE_SPACE, value_line_space, lv_style_int_t, _int, scalar)
 152:lvgl/src/lv_widgets/../lv_core/lv_obj_style_dec.h **** _LV_OBJ_STYLE_SET_GET_DECLARE(VALUE_BLEND_MODE, value_blend_mode, lv_blend_mode_t, _int, scalar)
 153:lvgl/src/lv_widgets/../lv_core/lv_obj_style_dec.h **** _LV_OBJ_STYLE_SET_GET_DECLARE(VALUE_OFS_X, value_ofs_x, lv_style_int_t, _int, scalar)
 154:lvgl/src/lv_widgets/../lv_core/lv_obj_style_dec.h **** _LV_OBJ_STYLE_SET_GET_DECLARE(VALUE_OFS_Y, value_ofs_y, lv_style_int_t, _int, scalar)
 155:lvgl/src/lv_widgets/../lv_core/lv_obj_style_dec.h **** _LV_OBJ_STYLE_SET_GET_DECLARE(VALUE_ALIGN, value_align, lv_align_t, _int, scalar)
 156:lvgl/src/lv_widgets/../lv_core/lv_obj_style_dec.h **** _LV_OBJ_STYLE_SET_GET_DECLARE(VALUE_COLOR, value_color, lv_color_t, _color, nonscalar)
 157:lvgl/src/lv_widgets/../lv_core/lv_obj_style_dec.h **** _LV_OBJ_STYLE_SET_GET_DECLARE(VALUE_OPA, value_opa, lv_opa_t, _opa, scalar)
 158:lvgl/src/lv_widgets/../lv_core/lv_obj_style_dec.h **** _LV_OBJ_STYLE_SET_GET_DECLARE(VALUE_FONT, value_font, const lv_font_t *, _ptr, scalar)
 159:lvgl/src/lv_widgets/../lv_core/lv_obj_style_dec.h **** _LV_OBJ_STYLE_SET_GET_DECLARE(VALUE_STR, value_str, const char *, _ptr, scalar)
 160:lvgl/src/lv_widgets/../lv_core/lv_obj_style_dec.h **** _LV_OBJ_STYLE_SET_GET_DECLARE(TEXT_LETTER_SPACE, text_letter_space, lv_style_int_t, _int, scalar)
 161:lvgl/src/lv_widgets/../lv_core/lv_obj_style_dec.h **** _LV_OBJ_STYLE_SET_GET_DECLARE(TEXT_LINE_SPACE, text_line_space, lv_style_int_t, _int, scalar)
 162:lvgl/src/lv_widgets/../lv_core/lv_obj_style_dec.h **** _LV_OBJ_STYLE_SET_GET_DECLARE(TEXT_DECOR, text_decor, lv_text_decor_t, _int, scalar)
 163:lvgl/src/lv_widgets/../lv_core/lv_obj_style_dec.h **** _LV_OBJ_STYLE_SET_GET_DECLARE(TEXT_BLEND_MODE, text_blend_mode, lv_blend_mode_t, _int, scalar)
 164:lvgl/src/lv_widgets/../lv_core/lv_obj_style_dec.h **** _LV_OBJ_STYLE_SET_GET_DECLARE(TEXT_COLOR, text_color, lv_color_t, _color, nonscalar)
ARM GAS  D:\Temp\cc6WWuOg.s 			page 71


 165:lvgl/src/lv_widgets/../lv_core/lv_obj_style_dec.h **** _LV_OBJ_STYLE_SET_GET_DECLARE(TEXT_SEL_COLOR, text_sel_color, lv_color_t, _color, nonscalar)
 166:lvgl/src/lv_widgets/../lv_core/lv_obj_style_dec.h **** _LV_OBJ_STYLE_SET_GET_DECLARE(TEXT_SEL_BG_COLOR, text_sel_bg_color, lv_color_t, _color, nonscalar)
 167:lvgl/src/lv_widgets/../lv_core/lv_obj_style_dec.h **** _LV_OBJ_STYLE_SET_GET_DECLARE(TEXT_OPA, text_opa, lv_opa_t, _opa, scalar)
 168:lvgl/src/lv_widgets/../lv_core/lv_obj_style_dec.h **** _LV_OBJ_STYLE_SET_GET_DECLARE(TEXT_FONT, text_font, const lv_font_t *, _ptr, scalar)
 2241              		.loc 3 168 1 view .LVU649
 2242              	.LBB114:
 2243              		.loc 3 168 1 view .LVU650
 2244 005a 48F28E02 		movw	r2, #32910
 2245 005e 0021     		movs	r1, #0
 2246 0060 FFF7FEFF 		bl	_lv_obj_get_style_ptr
 2247              	.LVL274:
 2248              		.loc 3 168 1 is_stmt 0 view .LVU651
 2249              	.LBE114:
 2250              	.LBE113:
 807:lvgl/src/lv_widgets/lv_list.c ****             if(lv_obj_get_base_dir(btn) == LV_BIDI_DIR_RTL) {
 2251              		.loc 1 807 13 is_stmt 1 view .LVU652
 2252              	.LBB115:
 2253              	.LBI115:
 2254              		.file 4 "lvgl/src/lv_widgets/../lv_core/../lv_font/lv_font.h"
   1:lvgl/src/lv_widgets/../lv_core/../lv_font/lv_font.h **** /**
   2:lvgl/src/lv_widgets/../lv_core/../lv_font/lv_font.h ****  * @file lv_font.h
   3:lvgl/src/lv_widgets/../lv_core/../lv_font/lv_font.h ****  *
   4:lvgl/src/lv_widgets/../lv_core/../lv_font/lv_font.h ****  */
   5:lvgl/src/lv_widgets/../lv_core/../lv_font/lv_font.h **** 
   6:lvgl/src/lv_widgets/../lv_core/../lv_font/lv_font.h **** #ifndef LV_FONT_H
   7:lvgl/src/lv_widgets/../lv_core/../lv_font/lv_font.h **** #define LV_FONT_H
   8:lvgl/src/lv_widgets/../lv_core/../lv_font/lv_font.h **** 
   9:lvgl/src/lv_widgets/../lv_core/../lv_font/lv_font.h **** #ifdef __cplusplus
  10:lvgl/src/lv_widgets/../lv_core/../lv_font/lv_font.h **** extern "C" {
  11:lvgl/src/lv_widgets/../lv_core/../lv_font/lv_font.h **** #endif
  12:lvgl/src/lv_widgets/../lv_core/../lv_font/lv_font.h **** 
  13:lvgl/src/lv_widgets/../lv_core/../lv_font/lv_font.h **** /*********************
  14:lvgl/src/lv_widgets/../lv_core/../lv_font/lv_font.h ****  *      INCLUDES
  15:lvgl/src/lv_widgets/../lv_core/../lv_font/lv_font.h ****  *********************/
  16:lvgl/src/lv_widgets/../lv_core/../lv_font/lv_font.h **** #include "../lv_conf_internal.h"
  17:lvgl/src/lv_widgets/../lv_core/../lv_font/lv_font.h **** #include <stdint.h>
  18:lvgl/src/lv_widgets/../lv_core/../lv_font/lv_font.h **** #include <stddef.h>
  19:lvgl/src/lv_widgets/../lv_core/../lv_font/lv_font.h **** #include <stdbool.h>
  20:lvgl/src/lv_widgets/../lv_core/../lv_font/lv_font.h **** 
  21:lvgl/src/lv_widgets/../lv_core/../lv_font/lv_font.h **** #include "lv_symbol_def.h"
  22:lvgl/src/lv_widgets/../lv_core/../lv_font/lv_font.h **** #include "../lv_misc/lv_area.h"
  23:lvgl/src/lv_widgets/../lv_core/../lv_font/lv_font.h **** 
  24:lvgl/src/lv_widgets/../lv_core/../lv_font/lv_font.h **** /*********************
  25:lvgl/src/lv_widgets/../lv_core/../lv_font/lv_font.h ****  *      DEFINES
  26:lvgl/src/lv_widgets/../lv_core/../lv_font/lv_font.h ****  *********************/
  27:lvgl/src/lv_widgets/../lv_core/../lv_font/lv_font.h **** 
  28:lvgl/src/lv_widgets/../lv_core/../lv_font/lv_font.h **** /**********************
  29:lvgl/src/lv_widgets/../lv_core/../lv_font/lv_font.h ****  *      TYPEDEFS
  30:lvgl/src/lv_widgets/../lv_core/../lv_font/lv_font.h ****  **********************/
  31:lvgl/src/lv_widgets/../lv_core/../lv_font/lv_font.h **** 
  32:lvgl/src/lv_widgets/../lv_core/../lv_font/lv_font.h **** /*------------------
  33:lvgl/src/lv_widgets/../lv_core/../lv_font/lv_font.h ****  * General types
  34:lvgl/src/lv_widgets/../lv_core/../lv_font/lv_font.h ****  *-----------------*/
  35:lvgl/src/lv_widgets/../lv_core/../lv_font/lv_font.h **** 
  36:lvgl/src/lv_widgets/../lv_core/../lv_font/lv_font.h **** /** Describes the properties of a glyph. */
  37:lvgl/src/lv_widgets/../lv_core/../lv_font/lv_font.h **** typedef struct {
  38:lvgl/src/lv_widgets/../lv_core/../lv_font/lv_font.h ****     uint16_t adv_w; /**< The glyph needs this space. Draw the next glyph after this width. 8 bit in
ARM GAS  D:\Temp\cc6WWuOg.s 			page 72


  39:lvgl/src/lv_widgets/../lv_core/../lv_font/lv_font.h ****     uint16_t box_w;  /**< Width of the glyph's bounding box*/
  40:lvgl/src/lv_widgets/../lv_core/../lv_font/lv_font.h ****     uint16_t box_h;  /**< Height of the glyph's bounding box*/
  41:lvgl/src/lv_widgets/../lv_core/../lv_font/lv_font.h ****     int16_t ofs_x;   /**< x offset of the bounding box*/
  42:lvgl/src/lv_widgets/../lv_core/../lv_font/lv_font.h ****     int16_t ofs_y;  /**< y offset of the bounding box*/
  43:lvgl/src/lv_widgets/../lv_core/../lv_font/lv_font.h ****     uint8_t bpp;   /**< Bit-per-pixel: 1, 2, 4, 8*/
  44:lvgl/src/lv_widgets/../lv_core/../lv_font/lv_font.h **** } lv_font_glyph_dsc_t;
  45:lvgl/src/lv_widgets/../lv_core/../lv_font/lv_font.h **** 
  46:lvgl/src/lv_widgets/../lv_core/../lv_font/lv_font.h **** /** The bitmaps might be upscaled by 3 to achieve subpixel rendering. */
  47:lvgl/src/lv_widgets/../lv_core/../lv_font/lv_font.h **** enum {
  48:lvgl/src/lv_widgets/../lv_core/../lv_font/lv_font.h ****     LV_FONT_SUBPX_NONE,
  49:lvgl/src/lv_widgets/../lv_core/../lv_font/lv_font.h ****     LV_FONT_SUBPX_HOR,
  50:lvgl/src/lv_widgets/../lv_core/../lv_font/lv_font.h ****     LV_FONT_SUBPX_VER,
  51:lvgl/src/lv_widgets/../lv_core/../lv_font/lv_font.h ****     LV_FONT_SUBPX_BOTH,
  52:lvgl/src/lv_widgets/../lv_core/../lv_font/lv_font.h **** };
  53:lvgl/src/lv_widgets/../lv_core/../lv_font/lv_font.h **** 
  54:lvgl/src/lv_widgets/../lv_core/../lv_font/lv_font.h **** typedef uint8_t lv_font_subpx_t;
  55:lvgl/src/lv_widgets/../lv_core/../lv_font/lv_font.h **** 
  56:lvgl/src/lv_widgets/../lv_core/../lv_font/lv_font.h **** /** Describe the properties of a font*/
  57:lvgl/src/lv_widgets/../lv_core/../lv_font/lv_font.h **** typedef struct _lv_font_struct {
  58:lvgl/src/lv_widgets/../lv_core/../lv_font/lv_font.h ****     /** Get a glyph's descriptor from a font*/
  59:lvgl/src/lv_widgets/../lv_core/../lv_font/lv_font.h ****     bool (*get_glyph_dsc)(const struct _lv_font_struct *, lv_font_glyph_dsc_t *, uint32_t letter, u
  60:lvgl/src/lv_widgets/../lv_core/../lv_font/lv_font.h **** 
  61:lvgl/src/lv_widgets/../lv_core/../lv_font/lv_font.h ****     /** Get a glyph's bitmap from a font*/
  62:lvgl/src/lv_widgets/../lv_core/../lv_font/lv_font.h ****     const uint8_t * (*get_glyph_bitmap)(const struct _lv_font_struct *, uint32_t);
  63:lvgl/src/lv_widgets/../lv_core/../lv_font/lv_font.h **** 
  64:lvgl/src/lv_widgets/../lv_core/../lv_font/lv_font.h ****     /*Pointer to the font in a font pack (must have the same line height)*/
  65:lvgl/src/lv_widgets/../lv_core/../lv_font/lv_font.h ****     lv_coord_t line_height;         /**< The real line height where any text fits*/
  66:lvgl/src/lv_widgets/../lv_core/../lv_font/lv_font.h ****     lv_coord_t base_line;           /**< Base line measured from the top of the line_height*/
  67:lvgl/src/lv_widgets/../lv_core/../lv_font/lv_font.h ****     uint8_t subpx  : 2;             /**< An element of `lv_font_subpx_t`*/
  68:lvgl/src/lv_widgets/../lv_core/../lv_font/lv_font.h **** 
  69:lvgl/src/lv_widgets/../lv_core/../lv_font/lv_font.h ****     int8_t underline_position;      /**< Distance between the top of the underline and base line (<
  70:lvgl/src/lv_widgets/../lv_core/../lv_font/lv_font.h ****     int8_t underline_thickness;     /**< Thickness of the underline*/
  71:lvgl/src/lv_widgets/../lv_core/../lv_font/lv_font.h **** 
  72:lvgl/src/lv_widgets/../lv_core/../lv_font/lv_font.h ****     void * dsc;                     /**< Store implementation specific or run_time data or caching 
  73:lvgl/src/lv_widgets/../lv_core/../lv_font/lv_font.h **** #if LV_USE_USER_DATA
  74:lvgl/src/lv_widgets/../lv_core/../lv_font/lv_font.h ****     lv_font_user_data_t user_data;  /**< Custom user data for font. */
  75:lvgl/src/lv_widgets/../lv_core/../lv_font/lv_font.h **** #endif
  76:lvgl/src/lv_widgets/../lv_core/../lv_font/lv_font.h **** 
  77:lvgl/src/lv_widgets/../lv_core/../lv_font/lv_font.h **** } lv_font_t;
  78:lvgl/src/lv_widgets/../lv_core/../lv_font/lv_font.h **** 
  79:lvgl/src/lv_widgets/../lv_core/../lv_font/lv_font.h **** /**********************
  80:lvgl/src/lv_widgets/../lv_core/../lv_font/lv_font.h ****  * GLOBAL PROTOTYPES
  81:lvgl/src/lv_widgets/../lv_core/../lv_font/lv_font.h ****  **********************/
  82:lvgl/src/lv_widgets/../lv_core/../lv_font/lv_font.h **** 
  83:lvgl/src/lv_widgets/../lv_core/../lv_font/lv_font.h **** /**
  84:lvgl/src/lv_widgets/../lv_core/../lv_font/lv_font.h ****  * Return with the bitmap of a font.
  85:lvgl/src/lv_widgets/../lv_core/../lv_font/lv_font.h ****  * @param font_p pointer to a font
  86:lvgl/src/lv_widgets/../lv_core/../lv_font/lv_font.h ****  * @param letter an UNICODE character code
  87:lvgl/src/lv_widgets/../lv_core/../lv_font/lv_font.h ****  * @return pointer to the bitmap of the letter
  88:lvgl/src/lv_widgets/../lv_core/../lv_font/lv_font.h ****  */
  89:lvgl/src/lv_widgets/../lv_core/../lv_font/lv_font.h **** const uint8_t * lv_font_get_glyph_bitmap(const lv_font_t * font_p, uint32_t letter);
  90:lvgl/src/lv_widgets/../lv_core/../lv_font/lv_font.h **** 
  91:lvgl/src/lv_widgets/../lv_core/../lv_font/lv_font.h **** /**
  92:lvgl/src/lv_widgets/../lv_core/../lv_font/lv_font.h ****  * Get the descriptor of a glyph
  93:lvgl/src/lv_widgets/../lv_core/../lv_font/lv_font.h ****  * @param font_p pointer to font
  94:lvgl/src/lv_widgets/../lv_core/../lv_font/lv_font.h ****  * @param dsc_out store the result descriptor here
  95:lvgl/src/lv_widgets/../lv_core/../lv_font/lv_font.h ****  * @param letter an UNICODE letter code
ARM GAS  D:\Temp\cc6WWuOg.s 			page 73


  96:lvgl/src/lv_widgets/../lv_core/../lv_font/lv_font.h ****  * @return true: descriptor is successfully loaded into `dsc_out`.
  97:lvgl/src/lv_widgets/../lv_core/../lv_font/lv_font.h ****  *         false: the letter was not found, no data is loaded to `dsc_out`
  98:lvgl/src/lv_widgets/../lv_core/../lv_font/lv_font.h ****  */
  99:lvgl/src/lv_widgets/../lv_core/../lv_font/lv_font.h **** bool lv_font_get_glyph_dsc(const lv_font_t * font_p, lv_font_glyph_dsc_t * dsc_out, uint32_t letter
 100:lvgl/src/lv_widgets/../lv_core/../lv_font/lv_font.h ****                            uint32_t letter_next);
 101:lvgl/src/lv_widgets/../lv_core/../lv_font/lv_font.h **** 
 102:lvgl/src/lv_widgets/../lv_core/../lv_font/lv_font.h **** /**
 103:lvgl/src/lv_widgets/../lv_core/../lv_font/lv_font.h ****  * Get the width of a glyph with kerning
 104:lvgl/src/lv_widgets/../lv_core/../lv_font/lv_font.h ****  * @param font pointer to a font
 105:lvgl/src/lv_widgets/../lv_core/../lv_font/lv_font.h ****  * @param letter an UNICODE letter
 106:lvgl/src/lv_widgets/../lv_core/../lv_font/lv_font.h ****  * @param letter_next the next letter after `letter`. Used for kerning
 107:lvgl/src/lv_widgets/../lv_core/../lv_font/lv_font.h ****  * @return the width of the glyph
 108:lvgl/src/lv_widgets/../lv_core/../lv_font/lv_font.h ****  */
 109:lvgl/src/lv_widgets/../lv_core/../lv_font/lv_font.h **** uint16_t lv_font_get_glyph_width(const lv_font_t * font, uint32_t letter, uint32_t letter_next);
 110:lvgl/src/lv_widgets/../lv_core/../lv_font/lv_font.h **** 
 111:lvgl/src/lv_widgets/../lv_core/../lv_font/lv_font.h **** /**
 112:lvgl/src/lv_widgets/../lv_core/../lv_font/lv_font.h ****  * Get the line height of a font. All characters fit into this height
 113:lvgl/src/lv_widgets/../lv_core/../lv_font/lv_font.h ****  * @param font_p pointer to a font
 114:lvgl/src/lv_widgets/../lv_core/../lv_font/lv_font.h ****  * @return the height of a font
 115:lvgl/src/lv_widgets/../lv_core/../lv_font/lv_font.h ****  */
 116:lvgl/src/lv_widgets/../lv_core/../lv_font/lv_font.h **** static inline lv_coord_t lv_font_get_line_height(const lv_font_t * font_p)
 2255              		.loc 4 116 26 view .LVU653
 2256              	.LBB116:
 117:lvgl/src/lv_widgets/../lv_core/../lv_font/lv_font.h **** {
 118:lvgl/src/lv_widgets/../lv_core/../lv_font/lv_font.h ****     return font_p->line_height;
 2257              		.loc 4 118 5 view .LVU654
 2258              		.loc 4 118 18 is_stmt 0 view .LVU655
 2259 0064 B0F90870 		ldrsh	r7, [r0, #8]
 2260              	.LVL275:
 2261              		.loc 4 118 18 view .LVU656
 2262              	.LBE116:
 2263              	.LBE115:
 808:lvgl/src/lv_widgets/lv_list.c ****                 lv_coord_t pad = lv_obj_get_style_pad_left(btn, LV_BTN_PART_MAIN);
 2264              		.loc 1 808 13 is_stmt 1 view .LVU657
 808:lvgl/src/lv_widgets/lv_list.c ****                 lv_coord_t pad = lv_obj_get_style_pad_left(btn, LV_BTN_PART_MAIN);
 2265              		.loc 1 808 16 is_stmt 0 view .LVU658
 2266 0068 3046     		mov	r0, r6
 2267              	.LVL276:
 808:lvgl/src/lv_widgets/lv_list.c ****                 lv_coord_t pad = lv_obj_get_style_pad_left(btn, LV_BTN_PART_MAIN);
 2268              		.loc 1 808 16 view .LVU659
 2269 006a FFF7FEFF 		bl	lv_obj_get_base_dir
 2270              	.LVL277:
 808:lvgl/src/lv_widgets/lv_list.c ****                 lv_coord_t pad = lv_obj_get_style_pad_left(btn, LV_BTN_PART_MAIN);
 2271              		.loc 1 808 15 view .LVU660
 2272 006e 0128     		cmp	r0, #1
 2273 0070 1DD0     		beq	.L210
 2274              	.LBB117:
 813:lvgl/src/lv_widgets/lv_list.c ****                 lv_obj_set_size(label, btn->coords.x2 - label->coords.x1 - pad + 1, font_h);
 2275              		.loc 1 813 17 is_stmt 1 view .LVU661
 2276              	.LVL278:
 2277              	.LBB118:
 2278              	.LBI118:
 113:lvgl/src/lv_widgets/../lv_core/lv_obj_style_dec.h **** _LV_OBJ_STYLE_SET_GET_DECLARE(PAD_INNER, pad_inner, lv_style_int_t, _int, scalar)
 2279              		.loc 3 113 1 view .LVU662
 2280              	.LBB119:
 113:lvgl/src/lv_widgets/../lv_core/lv_obj_style_dec.h **** _LV_OBJ_STYLE_SET_GET_DECLARE(PAD_INNER, pad_inner, lv_style_int_t, _int, scalar)
 2281              		.loc 3 113 1 view .LVU663
ARM GAS  D:\Temp\cc6WWuOg.s 			page 74


 2282 0072 1322     		movs	r2, #19
 2283 0074 0021     		movs	r1, #0
 2284 0076 3046     		mov	r0, r6
 2285 0078 FFF7FEFF 		bl	_lv_obj_get_style_int
 2286              	.LVL279:
 113:lvgl/src/lv_widgets/../lv_core/lv_obj_style_dec.h **** _LV_OBJ_STYLE_SET_GET_DECLARE(PAD_INNER, pad_inner, lv_style_int_t, _int, scalar)
 2287              		.loc 3 113 1 is_stmt 0 view .LVU664
 2288              	.LBE119:
 2289              	.LBE118:
 814:lvgl/src/lv_widgets/lv_list.c ****             }
 2290              		.loc 1 814 17 is_stmt 1 view .LVU665
 814:lvgl/src/lv_widgets/lv_list.c ****             }
 2291              		.loc 1 814 51 is_stmt 0 view .LVU666
 2292 007c B18A     		ldrh	r1, [r6, #20]
 814:lvgl/src/lv_widgets/lv_list.c ****             }
 2293              		.loc 1 814 70 view .LVU667
 2294 007e 2B8A     		ldrh	r3, [r5, #16]
 814:lvgl/src/lv_widgets/lv_list.c ****             }
 2295              		.loc 1 814 55 view .LVU668
 2296 0080 C91A     		subs	r1, r1, r3
 2297 0082 89B2     		uxth	r1, r1
 814:lvgl/src/lv_widgets/lv_list.c ****             }
 2298              		.loc 1 814 74 view .LVU669
 2299 0084 091A     		subs	r1, r1, r0
 2300 0086 89B2     		uxth	r1, r1
 814:lvgl/src/lv_widgets/lv_list.c ****             }
 2301              		.loc 1 814 80 view .LVU670
 2302 0088 0131     		adds	r1, r1, #1
 814:lvgl/src/lv_widgets/lv_list.c ****             }
 2303              		.loc 1 814 17 view .LVU671
 2304 008a 3A46     		mov	r2, r7
 2305 008c 09B2     		sxth	r1, r1
 2306 008e 2846     		mov	r0, r5
 2307              	.LVL280:
 814:lvgl/src/lv_widgets/lv_list.c ****             }
 2308              		.loc 1 814 17 view .LVU672
 2309 0090 FFF7FEFF 		bl	lv_obj_set_size
 2310              	.LVL281:
 2311 0094 C8E7     		b	.L196
 2312              	.LVL282:
 2313              	.L209:
 814:lvgl/src/lv_widgets/lv_list.c ****             }
 2314              		.loc 1 814 17 view .LVU673
 2315              	.LBE117:
 2316              	.LBE112:
 2317              	.LBE111:
 802:lvgl/src/lv_widgets/lv_list.c ****        sign == LV_SIGNAL_STYLE_CHG) {
 2318              		.loc 1 802 41 discriminator 2 view .LVU674
 2319 0096 3046     		mov	r0, r6
 2320 0098 FFF7FEFF 		bl	lv_obj_get_height
 2321              	.LVL283:
 2322              	.LBB124:
 2323              	.LBI124:
 110:d:\_project\stm32\f407\hack_rf_new\lvgl\src\lv_misc\lv_area.h **** }
 111:d:\_project\stm32\f407\hack_rf_new\lvgl\src\lv_misc\lv_area.h **** 
 112:d:\_project\stm32\f407\hack_rf_new\lvgl\src\lv_misc\lv_area.h **** /**
 113:d:\_project\stm32\f407\hack_rf_new\lvgl\src\lv_misc\lv_area.h ****  * Get the height of an area
ARM GAS  D:\Temp\cc6WWuOg.s 			page 75


 114:d:\_project\stm32\f407\hack_rf_new\lvgl\src\lv_misc\lv_area.h ****  * @param area_p pointer to an area
 115:d:\_project\stm32\f407\hack_rf_new\lvgl\src\lv_misc\lv_area.h ****  * @return the height of the area (if y1 == y2 -> height = 1)
 116:d:\_project\stm32\f407\hack_rf_new\lvgl\src\lv_misc\lv_area.h ****  */
 117:d:\_project\stm32\f407\hack_rf_new\lvgl\src\lv_misc\lv_area.h **** static inline lv_coord_t lv_area_get_height(const lv_area_t * area_p)
 2324              		.loc 2 117 26 is_stmt 1 discriminator 2 view .LVU675
 2325              	.LBB125:
 118:d:\_project\stm32\f407\hack_rf_new\lvgl\src\lv_misc\lv_area.h **** {
 119:d:\_project\stm32\f407\hack_rf_new\lvgl\src\lv_misc\lv_area.h ****     return (lv_coord_t)(area_p->y2 - area_p->y1 + 1);
 2326              		.loc 2 119 5 discriminator 2 view .LVU676
 2327              		.loc 2 119 31 is_stmt 0 discriminator 2 view .LVU677
 2328 009c FB88     		ldrh	r3, [r7, #6]
 2329              		.loc 2 119 44 discriminator 2 view .LVU678
 2330 009e 7A88     		ldrh	r2, [r7, #2]
 2331              		.loc 2 119 36 discriminator 2 view .LVU679
 2332 00a0 9B1A     		subs	r3, r3, r2
 2333 00a2 9BB2     		uxth	r3, r3
 2334              		.loc 2 119 49 discriminator 2 view .LVU680
 2335 00a4 0133     		adds	r3, r3, #1
 2336              		.loc 2 119 12 discriminator 2 view .LVU681
 2337 00a6 1BB2     		sxth	r3, r3
 2338              	.LVL284:
 2339              		.loc 2 119 12 discriminator 2 view .LVU682
 2340              	.LBE125:
 2341              	.LBE124:
