ARM GAS  D:\Temp\ccIs2YtX.s 			page 1


   1              		.cpu cortex-m4
   2              		.eabi_attribute 27, 1
   3              		.eabi_attribute 28, 1
   4              		.eabi_attribute 20, 1
   5              		.eabi_attribute 21, 1
   6              		.eabi_attribute 23, 3
   7              		.eabi_attribute 24, 1
   8              		.eabi_attribute 25, 1
   9              		.eabi_attribute 26, 1
  10              		.eabi_attribute 30, 1
  11              		.eabi_attribute 34, 1
  12              		.eabi_attribute 18, 4
  13              		.file	"lv_linemeter.c"
  14              		.text
  15              	.Ltext0:
  16              		.cfi_sections	.debug_frame
  17              		.section	.text.lv_linemeter_signal,"ax",%progbits
  18              		.align	1
  19              		.arch armv7e-m
  20              		.syntax unified
  21              		.thumb
  22              		.thumb_func
  23              		.fpu fpv4-sp-d16
  25              	lv_linemeter_signal:
  26              	.LVL0:
  27              	.LFB473:
  28              		.file 1 "lvgl/src/lv_widgets/lv_linemeter.c"
   1:lvgl/src/lv_widgets/lv_linemeter.c **** /**
   2:lvgl/src/lv_widgets/lv_linemeter.c ****  * @file lv_linemeter.c
   3:lvgl/src/lv_widgets/lv_linemeter.c ****  *
   4:lvgl/src/lv_widgets/lv_linemeter.c ****  */
   5:lvgl/src/lv_widgets/lv_linemeter.c **** 
   6:lvgl/src/lv_widgets/lv_linemeter.c **** /*********************
   7:lvgl/src/lv_widgets/lv_linemeter.c ****  *      INCLUDES
   8:lvgl/src/lv_widgets/lv_linemeter.c ****  *********************/
   9:lvgl/src/lv_widgets/lv_linemeter.c **** #include "lv_linemeter.h"
  10:lvgl/src/lv_widgets/lv_linemeter.c **** #if LV_USE_LINEMETER != 0
  11:lvgl/src/lv_widgets/lv_linemeter.c **** 
  12:lvgl/src/lv_widgets/lv_linemeter.c **** #include "../lv_misc/lv_debug.h"
  13:lvgl/src/lv_widgets/lv_linemeter.c **** #include "../lv_draw/lv_draw.h"
  14:lvgl/src/lv_widgets/lv_linemeter.c **** #include "../lv_themes/lv_theme.h"
  15:lvgl/src/lv_widgets/lv_linemeter.c **** #include "../lv_core/lv_group.h"
  16:lvgl/src/lv_widgets/lv_linemeter.c **** #include "../lv_misc/lv_math.h"
  17:lvgl/src/lv_widgets/lv_linemeter.c **** 
  18:lvgl/src/lv_widgets/lv_linemeter.c **** /*********************
  19:lvgl/src/lv_widgets/lv_linemeter.c ****  *      DEFINES
  20:lvgl/src/lv_widgets/lv_linemeter.c ****  *********************/
  21:lvgl/src/lv_widgets/lv_linemeter.c **** #define LV_OBJX_NAME "lv_linemeter"
  22:lvgl/src/lv_widgets/lv_linemeter.c **** 
  23:lvgl/src/lv_widgets/lv_linemeter.c **** /**********************
  24:lvgl/src/lv_widgets/lv_linemeter.c ****  *      TYPEDEFS
  25:lvgl/src/lv_widgets/lv_linemeter.c ****  **********************/
  26:lvgl/src/lv_widgets/lv_linemeter.c **** 
  27:lvgl/src/lv_widgets/lv_linemeter.c **** /**********************
  28:lvgl/src/lv_widgets/lv_linemeter.c ****  *  STATIC PROTOTYPES
  29:lvgl/src/lv_widgets/lv_linemeter.c ****  **********************/
  30:lvgl/src/lv_widgets/lv_linemeter.c **** static lv_design_res_t lv_linemeter_design(lv_obj_t * lmeter, const lv_area_t * clip_area, lv_desig
ARM GAS  D:\Temp\ccIs2YtX.s 			page 2


  31:lvgl/src/lv_widgets/lv_linemeter.c **** static lv_res_t lv_linemeter_signal(lv_obj_t * lmeter, lv_signal_t sign, void * param);
  32:lvgl/src/lv_widgets/lv_linemeter.c **** 
  33:lvgl/src/lv_widgets/lv_linemeter.c **** /**********************
  34:lvgl/src/lv_widgets/lv_linemeter.c ****  *  STATIC VARIABLES
  35:lvgl/src/lv_widgets/lv_linemeter.c ****  **********************/
  36:lvgl/src/lv_widgets/lv_linemeter.c **** static lv_signal_cb_t ancestor_signal;
  37:lvgl/src/lv_widgets/lv_linemeter.c **** 
  38:lvgl/src/lv_widgets/lv_linemeter.c **** /**********************
  39:lvgl/src/lv_widgets/lv_linemeter.c ****  *      MACROS
  40:lvgl/src/lv_widgets/lv_linemeter.c ****  **********************/
  41:lvgl/src/lv_widgets/lv_linemeter.c **** 
  42:lvgl/src/lv_widgets/lv_linemeter.c **** /**********************
  43:lvgl/src/lv_widgets/lv_linemeter.c ****  *   GLOBAL FUNCTIONS
  44:lvgl/src/lv_widgets/lv_linemeter.c ****  **********************/
  45:lvgl/src/lv_widgets/lv_linemeter.c **** 
  46:lvgl/src/lv_widgets/lv_linemeter.c **** /**
  47:lvgl/src/lv_widgets/lv_linemeter.c ****  * Create a line meter objects
  48:lvgl/src/lv_widgets/lv_linemeter.c ****  * @param par pointer to an object, it will be the parent of the new line meter
  49:lvgl/src/lv_widgets/lv_linemeter.c ****  * @param copy pointer to a line meter object, if not NULL then the new object will be copied from
  50:lvgl/src/lv_widgets/lv_linemeter.c ****  * it
  51:lvgl/src/lv_widgets/lv_linemeter.c ****  * @return pointer to the created line meter
  52:lvgl/src/lv_widgets/lv_linemeter.c ****  */
  53:lvgl/src/lv_widgets/lv_linemeter.c **** lv_obj_t * lv_linemeter_create(lv_obj_t * par, const lv_obj_t * copy)
  54:lvgl/src/lv_widgets/lv_linemeter.c **** {
  55:lvgl/src/lv_widgets/lv_linemeter.c ****     LV_LOG_TRACE("line meter create started");
  56:lvgl/src/lv_widgets/lv_linemeter.c **** 
  57:lvgl/src/lv_widgets/lv_linemeter.c ****     /*Create the ancestor of line meter*/
  58:lvgl/src/lv_widgets/lv_linemeter.c ****     lv_obj_t * linemeter = lv_obj_create(par, copy);
  59:lvgl/src/lv_widgets/lv_linemeter.c ****     LV_ASSERT_MEM(linemeter);
  60:lvgl/src/lv_widgets/lv_linemeter.c ****     if(linemeter == NULL) return NULL;
  61:lvgl/src/lv_widgets/lv_linemeter.c **** 
  62:lvgl/src/lv_widgets/lv_linemeter.c ****     if(ancestor_signal == NULL) ancestor_signal = lv_obj_get_signal_cb(linemeter);
  63:lvgl/src/lv_widgets/lv_linemeter.c **** 
  64:lvgl/src/lv_widgets/lv_linemeter.c ****     /*Allocate the line meter type specific extended data*/
  65:lvgl/src/lv_widgets/lv_linemeter.c ****     lv_linemeter_ext_t * ext = lv_obj_allocate_ext_attr(linemeter, sizeof(lv_linemeter_ext_t));
  66:lvgl/src/lv_widgets/lv_linemeter.c ****     LV_ASSERT_MEM(ext);
  67:lvgl/src/lv_widgets/lv_linemeter.c ****     if(ext == NULL) {
  68:lvgl/src/lv_widgets/lv_linemeter.c ****         lv_obj_del(linemeter);
  69:lvgl/src/lv_widgets/lv_linemeter.c ****         return NULL;
  70:lvgl/src/lv_widgets/lv_linemeter.c ****     }
  71:lvgl/src/lv_widgets/lv_linemeter.c **** 
  72:lvgl/src/lv_widgets/lv_linemeter.c ****     /*Initialize the allocated 'ext' */
  73:lvgl/src/lv_widgets/lv_linemeter.c ****     ext->min_value   = 0;
  74:lvgl/src/lv_widgets/lv_linemeter.c ****     ext->max_value   = 100;
  75:lvgl/src/lv_widgets/lv_linemeter.c ****     ext->cur_value   = 0;
  76:lvgl/src/lv_widgets/lv_linemeter.c ****     ext->line_cnt    = 18;
  77:lvgl/src/lv_widgets/lv_linemeter.c ****     ext->scale_angle = 240;
  78:lvgl/src/lv_widgets/lv_linemeter.c ****     ext->angle_ofs = 0;
  79:lvgl/src/lv_widgets/lv_linemeter.c ****     ext->mirrored = 0;
  80:lvgl/src/lv_widgets/lv_linemeter.c **** 
  81:lvgl/src/lv_widgets/lv_linemeter.c ****     /*The signal and design functions are not copied so set them here*/
  82:lvgl/src/lv_widgets/lv_linemeter.c ****     lv_obj_set_signal_cb(linemeter, lv_linemeter_signal);
  83:lvgl/src/lv_widgets/lv_linemeter.c ****     lv_obj_set_design_cb(linemeter, lv_linemeter_design);
  84:lvgl/src/lv_widgets/lv_linemeter.c **** 
  85:lvgl/src/lv_widgets/lv_linemeter.c ****     /*Init the new line meter line meter*/
  86:lvgl/src/lv_widgets/lv_linemeter.c ****     if(copy == NULL) {
  87:lvgl/src/lv_widgets/lv_linemeter.c ****         lv_obj_set_size(linemeter, 3 * LV_DPI / 2, 3 * LV_DPI / 2);
ARM GAS  D:\Temp\ccIs2YtX.s 			page 3


  88:lvgl/src/lv_widgets/lv_linemeter.c ****         lv_theme_apply(linemeter, LV_THEME_LINEMETER);
  89:lvgl/src/lv_widgets/lv_linemeter.c ****     }
  90:lvgl/src/lv_widgets/lv_linemeter.c ****     /*Copy an existing line meter*/
  91:lvgl/src/lv_widgets/lv_linemeter.c ****     else {
  92:lvgl/src/lv_widgets/lv_linemeter.c ****         lv_linemeter_ext_t * copy_ext = lv_obj_get_ext_attr(copy);
  93:lvgl/src/lv_widgets/lv_linemeter.c ****         ext->scale_angle           = copy_ext->scale_angle;
  94:lvgl/src/lv_widgets/lv_linemeter.c ****         ext->line_cnt              = copy_ext->line_cnt;
  95:lvgl/src/lv_widgets/lv_linemeter.c ****         ext->min_value             = copy_ext->min_value;
  96:lvgl/src/lv_widgets/lv_linemeter.c ****         ext->max_value             = copy_ext->max_value;
  97:lvgl/src/lv_widgets/lv_linemeter.c ****         ext->cur_value             = copy_ext->cur_value;
  98:lvgl/src/lv_widgets/lv_linemeter.c **** 
  99:lvgl/src/lv_widgets/lv_linemeter.c ****         /*Refresh the style with new signal function*/
 100:lvgl/src/lv_widgets/lv_linemeter.c ****         lv_obj_refresh_style(linemeter, LV_OBJ_PART_ALL, LV_STYLE_PROP_ALL);
 101:lvgl/src/lv_widgets/lv_linemeter.c ****     }
 102:lvgl/src/lv_widgets/lv_linemeter.c **** 
 103:lvgl/src/lv_widgets/lv_linemeter.c ****     LV_LOG_INFO("line meter created");
 104:lvgl/src/lv_widgets/lv_linemeter.c **** 
 105:lvgl/src/lv_widgets/lv_linemeter.c ****     return linemeter;
 106:lvgl/src/lv_widgets/lv_linemeter.c **** }
 107:lvgl/src/lv_widgets/lv_linemeter.c **** 
 108:lvgl/src/lv_widgets/lv_linemeter.c **** /*=====================
 109:lvgl/src/lv_widgets/lv_linemeter.c ****  * Setter functions
 110:lvgl/src/lv_widgets/lv_linemeter.c ****  *====================*/
 111:lvgl/src/lv_widgets/lv_linemeter.c **** 
 112:lvgl/src/lv_widgets/lv_linemeter.c **** /**
 113:lvgl/src/lv_widgets/lv_linemeter.c ****  * Set a new value on the line meter
 114:lvgl/src/lv_widgets/lv_linemeter.c ****  * @param lmeter pointer to a line meter object
 115:lvgl/src/lv_widgets/lv_linemeter.c ****  * @param value new value
 116:lvgl/src/lv_widgets/lv_linemeter.c ****  */
 117:lvgl/src/lv_widgets/lv_linemeter.c **** void lv_linemeter_set_value(lv_obj_t * lmeter, int32_t value)
 118:lvgl/src/lv_widgets/lv_linemeter.c **** {
 119:lvgl/src/lv_widgets/lv_linemeter.c ****     LV_ASSERT_OBJ(lmeter, LV_OBJX_NAME);
 120:lvgl/src/lv_widgets/lv_linemeter.c **** 
 121:lvgl/src/lv_widgets/lv_linemeter.c ****     lv_linemeter_ext_t * ext = lv_obj_get_ext_attr(lmeter);
 122:lvgl/src/lv_widgets/lv_linemeter.c ****     if(ext->cur_value == value) return;
 123:lvgl/src/lv_widgets/lv_linemeter.c **** 
 124:lvgl/src/lv_widgets/lv_linemeter.c ****     int32_t old_value = ext->cur_value;
 125:lvgl/src/lv_widgets/lv_linemeter.c **** 
 126:lvgl/src/lv_widgets/lv_linemeter.c ****     ext->cur_value = value > ext->max_value ? ext->max_value : value;
 127:lvgl/src/lv_widgets/lv_linemeter.c ****     ext->cur_value = ext->cur_value < ext->min_value ? ext->min_value : ext->cur_value;
 128:lvgl/src/lv_widgets/lv_linemeter.c **** 
 129:lvgl/src/lv_widgets/lv_linemeter.c ****     int16_t level_old =
 130:lvgl/src/lv_widgets/lv_linemeter.c ****         (int32_t)((int32_t)(old_value - ext->min_value) * (ext->line_cnt - 1)) / (ext->max_value - 
 131:lvgl/src/lv_widgets/lv_linemeter.c ****     int16_t level_new =
 132:lvgl/src/lv_widgets/lv_linemeter.c ****         (int32_t)((int32_t)(ext->cur_value - ext->min_value) * (ext->line_cnt - 1)) / (ext->max_val
 133:lvgl/src/lv_widgets/lv_linemeter.c **** 
 134:lvgl/src/lv_widgets/lv_linemeter.c ****     if(level_new == level_old) return;
 135:lvgl/src/lv_widgets/lv_linemeter.c **** 
 136:lvgl/src/lv_widgets/lv_linemeter.c ****     lv_obj_invalidate(lmeter);
 137:lvgl/src/lv_widgets/lv_linemeter.c **** }
 138:lvgl/src/lv_widgets/lv_linemeter.c **** 
 139:lvgl/src/lv_widgets/lv_linemeter.c **** /**
 140:lvgl/src/lv_widgets/lv_linemeter.c ****  * Set minimum and the maximum values of a line meter
 141:lvgl/src/lv_widgets/lv_linemeter.c ****  * @param lmeter pointer to he line meter object
 142:lvgl/src/lv_widgets/lv_linemeter.c ****  * @param min minimum value
 143:lvgl/src/lv_widgets/lv_linemeter.c ****  * @param max maximum value
 144:lvgl/src/lv_widgets/lv_linemeter.c ****  */
ARM GAS  D:\Temp\ccIs2YtX.s 			page 4


 145:lvgl/src/lv_widgets/lv_linemeter.c **** void lv_linemeter_set_range(lv_obj_t * lmeter, int32_t min, int32_t max)
 146:lvgl/src/lv_widgets/lv_linemeter.c **** {
 147:lvgl/src/lv_widgets/lv_linemeter.c ****     LV_ASSERT_OBJ(lmeter, LV_OBJX_NAME);
 148:lvgl/src/lv_widgets/lv_linemeter.c **** 
 149:lvgl/src/lv_widgets/lv_linemeter.c ****     lv_linemeter_ext_t * ext = lv_obj_get_ext_attr(lmeter);
 150:lvgl/src/lv_widgets/lv_linemeter.c ****     if(ext->min_value == min && ext->max_value == max) return;
 151:lvgl/src/lv_widgets/lv_linemeter.c **** 
 152:lvgl/src/lv_widgets/lv_linemeter.c ****     ext->max_value = max;
 153:lvgl/src/lv_widgets/lv_linemeter.c ****     ext->min_value = min;
 154:lvgl/src/lv_widgets/lv_linemeter.c ****     if(ext->cur_value > max) {
 155:lvgl/src/lv_widgets/lv_linemeter.c ****         ext->cur_value = max;
 156:lvgl/src/lv_widgets/lv_linemeter.c ****         lv_linemeter_set_value(lmeter, ext->cur_value);
 157:lvgl/src/lv_widgets/lv_linemeter.c ****     }
 158:lvgl/src/lv_widgets/lv_linemeter.c ****     if(ext->cur_value < min) {
 159:lvgl/src/lv_widgets/lv_linemeter.c ****         ext->cur_value = min;
 160:lvgl/src/lv_widgets/lv_linemeter.c ****         lv_linemeter_set_value(lmeter, ext->cur_value);
 161:lvgl/src/lv_widgets/lv_linemeter.c ****     }
 162:lvgl/src/lv_widgets/lv_linemeter.c ****     lv_obj_invalidate(lmeter);
 163:lvgl/src/lv_widgets/lv_linemeter.c **** }
 164:lvgl/src/lv_widgets/lv_linemeter.c **** 
 165:lvgl/src/lv_widgets/lv_linemeter.c **** /**
 166:lvgl/src/lv_widgets/lv_linemeter.c ****  * Set the scale settings of a line meter
 167:lvgl/src/lv_widgets/lv_linemeter.c ****  * @param lmeter pointer to a line meter object
 168:lvgl/src/lv_widgets/lv_linemeter.c ****  * @param angle angle of the scale (0..360)
 169:lvgl/src/lv_widgets/lv_linemeter.c ****  * @param line_cnt number of lines
 170:lvgl/src/lv_widgets/lv_linemeter.c ****  */
 171:lvgl/src/lv_widgets/lv_linemeter.c **** void lv_linemeter_set_scale(lv_obj_t * lmeter, uint16_t angle, uint16_t line_cnt)
 172:lvgl/src/lv_widgets/lv_linemeter.c **** {
 173:lvgl/src/lv_widgets/lv_linemeter.c ****     LV_ASSERT_OBJ(lmeter, LV_OBJX_NAME);
 174:lvgl/src/lv_widgets/lv_linemeter.c **** 
 175:lvgl/src/lv_widgets/lv_linemeter.c ****     lv_linemeter_ext_t * ext = lv_obj_get_ext_attr(lmeter);
 176:lvgl/src/lv_widgets/lv_linemeter.c ****     if(ext->scale_angle == angle && ext->line_cnt == line_cnt) return;
 177:lvgl/src/lv_widgets/lv_linemeter.c **** 
 178:lvgl/src/lv_widgets/lv_linemeter.c ****     ext->scale_angle = angle;
 179:lvgl/src/lv_widgets/lv_linemeter.c ****     ext->line_cnt    = line_cnt;
 180:lvgl/src/lv_widgets/lv_linemeter.c **** 
 181:lvgl/src/lv_widgets/lv_linemeter.c ****     lv_obj_invalidate(lmeter);
 182:lvgl/src/lv_widgets/lv_linemeter.c **** }
 183:lvgl/src/lv_widgets/lv_linemeter.c **** 
 184:lvgl/src/lv_widgets/lv_linemeter.c **** /**
 185:lvgl/src/lv_widgets/lv_linemeter.c ****  * Set the set an offset for the line meter's angles to rotate it.
 186:lvgl/src/lv_widgets/lv_linemeter.c ****  * @param lmeter pointer to a line meter object
 187:lvgl/src/lv_widgets/lv_linemeter.c ****  * @param angle angle where the meter will be facing (with its center)
 188:lvgl/src/lv_widgets/lv_linemeter.c ****  */
 189:lvgl/src/lv_widgets/lv_linemeter.c **** void lv_linemeter_set_angle_offset(lv_obj_t * lmeter, uint16_t angle)
 190:lvgl/src/lv_widgets/lv_linemeter.c **** {
 191:lvgl/src/lv_widgets/lv_linemeter.c ****     lv_linemeter_ext_t * ext = lv_obj_get_ext_attr(lmeter);
 192:lvgl/src/lv_widgets/lv_linemeter.c ****     if(ext->angle_ofs == angle) return;
 193:lvgl/src/lv_widgets/lv_linemeter.c **** 
 194:lvgl/src/lv_widgets/lv_linemeter.c ****     ext->angle_ofs = angle;
 195:lvgl/src/lv_widgets/lv_linemeter.c **** 
 196:lvgl/src/lv_widgets/lv_linemeter.c ****     lv_obj_invalidate(lmeter);
 197:lvgl/src/lv_widgets/lv_linemeter.c **** }
 198:lvgl/src/lv_widgets/lv_linemeter.c **** 
 199:lvgl/src/lv_widgets/lv_linemeter.c **** /**
 200:lvgl/src/lv_widgets/lv_linemeter.c ****  * Set the orientation of the meter growth, clockwise or counterclockwise (mirrored)
 201:lvgl/src/lv_widgets/lv_linemeter.c ****  * @param lmeter pointer to a line meter object
ARM GAS  D:\Temp\ccIs2YtX.s 			page 5


 202:lvgl/src/lv_widgets/lv_linemeter.c ****  * @param mirror mirror setting
 203:lvgl/src/lv_widgets/lv_linemeter.c ****  */
 204:lvgl/src/lv_widgets/lv_linemeter.c **** void lv_linemeter_set_mirror(lv_obj_t * lmeter, bool mirror)
 205:lvgl/src/lv_widgets/lv_linemeter.c **** {
 206:lvgl/src/lv_widgets/lv_linemeter.c ****     lv_linemeter_ext_t * ext = lv_obj_get_ext_attr(lmeter);
 207:lvgl/src/lv_widgets/lv_linemeter.c ****     if(ext->mirrored == mirror) return;
 208:lvgl/src/lv_widgets/lv_linemeter.c **** 
 209:lvgl/src/lv_widgets/lv_linemeter.c ****     ext->mirrored = mirror;
 210:lvgl/src/lv_widgets/lv_linemeter.c **** 
 211:lvgl/src/lv_widgets/lv_linemeter.c ****     lv_obj_invalidate(lmeter);
 212:lvgl/src/lv_widgets/lv_linemeter.c **** }
 213:lvgl/src/lv_widgets/lv_linemeter.c **** 
 214:lvgl/src/lv_widgets/lv_linemeter.c **** /*=====================
 215:lvgl/src/lv_widgets/lv_linemeter.c ****  * Getter functions
 216:lvgl/src/lv_widgets/lv_linemeter.c ****  *====================*/
 217:lvgl/src/lv_widgets/lv_linemeter.c **** 
 218:lvgl/src/lv_widgets/lv_linemeter.c **** /**
 219:lvgl/src/lv_widgets/lv_linemeter.c ****  * Get the value of a line meter
 220:lvgl/src/lv_widgets/lv_linemeter.c ****  * @param lmeter pointer to a line meter object
 221:lvgl/src/lv_widgets/lv_linemeter.c ****  * @return the value of the line meter
 222:lvgl/src/lv_widgets/lv_linemeter.c ****  */
 223:lvgl/src/lv_widgets/lv_linemeter.c **** int32_t lv_linemeter_get_value(const lv_obj_t * lmeter)
 224:lvgl/src/lv_widgets/lv_linemeter.c **** {
 225:lvgl/src/lv_widgets/lv_linemeter.c ****     LV_ASSERT_OBJ(lmeter, LV_OBJX_NAME);
 226:lvgl/src/lv_widgets/lv_linemeter.c **** 
 227:lvgl/src/lv_widgets/lv_linemeter.c ****     lv_linemeter_ext_t * ext = lv_obj_get_ext_attr(lmeter);
 228:lvgl/src/lv_widgets/lv_linemeter.c ****     return ext->cur_value;
 229:lvgl/src/lv_widgets/lv_linemeter.c **** }
 230:lvgl/src/lv_widgets/lv_linemeter.c **** 
 231:lvgl/src/lv_widgets/lv_linemeter.c **** /**
 232:lvgl/src/lv_widgets/lv_linemeter.c ****  * Get the minimum value of a line meter
 233:lvgl/src/lv_widgets/lv_linemeter.c ****  * @param lmeter pointer to a line meter object
 234:lvgl/src/lv_widgets/lv_linemeter.c ****  * @return the minimum value of the line meter
 235:lvgl/src/lv_widgets/lv_linemeter.c ****  */
 236:lvgl/src/lv_widgets/lv_linemeter.c **** int32_t lv_linemeter_get_min_value(const lv_obj_t * lmeter)
 237:lvgl/src/lv_widgets/lv_linemeter.c **** {
 238:lvgl/src/lv_widgets/lv_linemeter.c ****     LV_ASSERT_OBJ(lmeter, LV_OBJX_NAME);
 239:lvgl/src/lv_widgets/lv_linemeter.c **** 
 240:lvgl/src/lv_widgets/lv_linemeter.c ****     lv_linemeter_ext_t * ext = lv_obj_get_ext_attr(lmeter);
 241:lvgl/src/lv_widgets/lv_linemeter.c ****     return ext->min_value;
 242:lvgl/src/lv_widgets/lv_linemeter.c **** }
 243:lvgl/src/lv_widgets/lv_linemeter.c **** 
 244:lvgl/src/lv_widgets/lv_linemeter.c **** /**
 245:lvgl/src/lv_widgets/lv_linemeter.c ****  * Get the maximum value of a line meter
 246:lvgl/src/lv_widgets/lv_linemeter.c ****  * @param lmeter pointer to a line meter object
 247:lvgl/src/lv_widgets/lv_linemeter.c ****  * @return the maximum value of the line meter
 248:lvgl/src/lv_widgets/lv_linemeter.c ****  */
 249:lvgl/src/lv_widgets/lv_linemeter.c **** int32_t lv_linemeter_get_max_value(const lv_obj_t * lmeter)
 250:lvgl/src/lv_widgets/lv_linemeter.c **** {
 251:lvgl/src/lv_widgets/lv_linemeter.c ****     LV_ASSERT_OBJ(lmeter, LV_OBJX_NAME);
 252:lvgl/src/lv_widgets/lv_linemeter.c **** 
 253:lvgl/src/lv_widgets/lv_linemeter.c ****     lv_linemeter_ext_t * ext = lv_obj_get_ext_attr(lmeter);
 254:lvgl/src/lv_widgets/lv_linemeter.c ****     return ext->max_value;
 255:lvgl/src/lv_widgets/lv_linemeter.c **** }
 256:lvgl/src/lv_widgets/lv_linemeter.c **** 
 257:lvgl/src/lv_widgets/lv_linemeter.c **** /**
 258:lvgl/src/lv_widgets/lv_linemeter.c ****  * Get the scale number of a line meter
ARM GAS  D:\Temp\ccIs2YtX.s 			page 6


 259:lvgl/src/lv_widgets/lv_linemeter.c ****  * @param lmeter pointer to a line meter object
 260:lvgl/src/lv_widgets/lv_linemeter.c ****  * @return number of the scale units
 261:lvgl/src/lv_widgets/lv_linemeter.c ****  */
 262:lvgl/src/lv_widgets/lv_linemeter.c **** uint16_t lv_linemeter_get_line_count(const lv_obj_t * lmeter)
 263:lvgl/src/lv_widgets/lv_linemeter.c **** {
 264:lvgl/src/lv_widgets/lv_linemeter.c ****     LV_ASSERT_OBJ(lmeter, LV_OBJX_NAME);
 265:lvgl/src/lv_widgets/lv_linemeter.c **** 
 266:lvgl/src/lv_widgets/lv_linemeter.c ****     lv_linemeter_ext_t * ext = lv_obj_get_ext_attr(lmeter);
 267:lvgl/src/lv_widgets/lv_linemeter.c ****     return ext->line_cnt;
 268:lvgl/src/lv_widgets/lv_linemeter.c **** }
 269:lvgl/src/lv_widgets/lv_linemeter.c **** 
 270:lvgl/src/lv_widgets/lv_linemeter.c **** /**
 271:lvgl/src/lv_widgets/lv_linemeter.c ****  * Get the scale angle of a line meter
 272:lvgl/src/lv_widgets/lv_linemeter.c ****  * @param lmeter pointer to a line meter object
 273:lvgl/src/lv_widgets/lv_linemeter.c ****  * @return angle_ofs of the scale
 274:lvgl/src/lv_widgets/lv_linemeter.c ****  */
 275:lvgl/src/lv_widgets/lv_linemeter.c **** uint16_t lv_linemeter_get_scale_angle(const lv_obj_t * lmeter)
 276:lvgl/src/lv_widgets/lv_linemeter.c **** {
 277:lvgl/src/lv_widgets/lv_linemeter.c ****     LV_ASSERT_OBJ(lmeter, LV_OBJX_NAME);
 278:lvgl/src/lv_widgets/lv_linemeter.c **** 
 279:lvgl/src/lv_widgets/lv_linemeter.c ****     lv_linemeter_ext_t * ext = lv_obj_get_ext_attr(lmeter);
 280:lvgl/src/lv_widgets/lv_linemeter.c ****     return ext->scale_angle;
 281:lvgl/src/lv_widgets/lv_linemeter.c **** }
 282:lvgl/src/lv_widgets/lv_linemeter.c **** 
 283:lvgl/src/lv_widgets/lv_linemeter.c **** /**
 284:lvgl/src/lv_widgets/lv_linemeter.c ****  * Get the offset for the line meter.
 285:lvgl/src/lv_widgets/lv_linemeter.c ****  * @param lmeter pointer to a line meter object
 286:lvgl/src/lv_widgets/lv_linemeter.c ****  * @return angle offset (0..360)
 287:lvgl/src/lv_widgets/lv_linemeter.c ****  */
 288:lvgl/src/lv_widgets/lv_linemeter.c **** uint16_t lv_linemeter_get_angle_offset(lv_obj_t * lmeter)
 289:lvgl/src/lv_widgets/lv_linemeter.c **** {
 290:lvgl/src/lv_widgets/lv_linemeter.c ****     lv_linemeter_ext_t * ext = lv_obj_get_ext_attr(lmeter);
 291:lvgl/src/lv_widgets/lv_linemeter.c **** 
 292:lvgl/src/lv_widgets/lv_linemeter.c ****     return ext->angle_ofs;
 293:lvgl/src/lv_widgets/lv_linemeter.c **** }
 294:lvgl/src/lv_widgets/lv_linemeter.c **** 
 295:lvgl/src/lv_widgets/lv_linemeter.c **** /**
 296:lvgl/src/lv_widgets/lv_linemeter.c ****  * get the mirror setting for the line meter
 297:lvgl/src/lv_widgets/lv_linemeter.c ****  * @param lmeter pointer to a line meter object
 298:lvgl/src/lv_widgets/lv_linemeter.c ****  * @return mirror (true or false)
 299:lvgl/src/lv_widgets/lv_linemeter.c ****  */
 300:lvgl/src/lv_widgets/lv_linemeter.c **** bool lv_linemeter_get_mirror(lv_obj_t * lmeter)
 301:lvgl/src/lv_widgets/lv_linemeter.c **** {
 302:lvgl/src/lv_widgets/lv_linemeter.c ****     lv_linemeter_ext_t * ext = lv_obj_get_ext_attr(lmeter);
 303:lvgl/src/lv_widgets/lv_linemeter.c **** 
 304:lvgl/src/lv_widgets/lv_linemeter.c ****     return ext->mirrored;
 305:lvgl/src/lv_widgets/lv_linemeter.c **** }
 306:lvgl/src/lv_widgets/lv_linemeter.c **** 
 307:lvgl/src/lv_widgets/lv_linemeter.c **** void lv_linemeter_draw_scale(lv_obj_t * lmeter, const lv_area_t * clip_area, uint8_t part)
 308:lvgl/src/lv_widgets/lv_linemeter.c **** {
 309:lvgl/src/lv_widgets/lv_linemeter.c ****     lv_linemeter_ext_t * ext    = lv_obj_get_ext_attr(lmeter);
 310:lvgl/src/lv_widgets/lv_linemeter.c **** 
 311:lvgl/src/lv_widgets/lv_linemeter.c ****     lv_style_int_t left = lv_obj_get_style_pad_left(lmeter, LV_LINEMETER_PART_MAIN);
 312:lvgl/src/lv_widgets/lv_linemeter.c ****     lv_style_int_t right = lv_obj_get_style_pad_right(lmeter, LV_LINEMETER_PART_MAIN);
 313:lvgl/src/lv_widgets/lv_linemeter.c ****     lv_style_int_t top = lv_obj_get_style_pad_top(lmeter, LV_LINEMETER_PART_MAIN);
 314:lvgl/src/lv_widgets/lv_linemeter.c **** 
 315:lvgl/src/lv_widgets/lv_linemeter.c ****     lv_coord_t r_out = (lv_obj_get_width(lmeter) - left - right) / 2 ;
ARM GAS  D:\Temp\ccIs2YtX.s 			page 7


 316:lvgl/src/lv_widgets/lv_linemeter.c ****     lv_coord_t r_in  = r_out - lv_obj_get_style_scale_width(lmeter, part);
 317:lvgl/src/lv_widgets/lv_linemeter.c ****     if(r_in < 1) r_in = 1;
 318:lvgl/src/lv_widgets/lv_linemeter.c **** 
 319:lvgl/src/lv_widgets/lv_linemeter.c ****     lv_coord_t x_ofs  = lmeter->coords.x1 + r_out + left;
 320:lvgl/src/lv_widgets/lv_linemeter.c ****     lv_coord_t y_ofs  = lmeter->coords.y1 + r_out + top;
 321:lvgl/src/lv_widgets/lv_linemeter.c ****     int16_t angle_ofs = ext->angle_ofs + 90 + (360 - ext->scale_angle) / 2;
 322:lvgl/src/lv_widgets/lv_linemeter.c ****     int16_t level = ext->mirrored ?
 323:lvgl/src/lv_widgets/lv_linemeter.c ****                     (int32_t)((int32_t)(ext->max_value - ext->cur_value) * (ext->line_cnt - 1)) / (
 324:lvgl/src/lv_widgets/lv_linemeter.c ****                     (int32_t)((int32_t)(ext->cur_value - ext->min_value) * (ext->line_cnt - 1)) / (
 325:lvgl/src/lv_widgets/lv_linemeter.c ****     uint8_t i;
 326:lvgl/src/lv_widgets/lv_linemeter.c **** 
 327:lvgl/src/lv_widgets/lv_linemeter.c ****     lv_color_t main_color = lv_obj_get_style_line_color(lmeter, part);
 328:lvgl/src/lv_widgets/lv_linemeter.c ****     lv_color_t grad_color = lv_obj_get_style_scale_grad_color(lmeter, part);
 329:lvgl/src/lv_widgets/lv_linemeter.c ****     lv_color_t end_color = lv_obj_get_style_scale_end_color(lmeter, part);
 330:lvgl/src/lv_widgets/lv_linemeter.c **** 
 331:lvgl/src/lv_widgets/lv_linemeter.c ****     lv_draw_line_dsc_t line_dsc;
 332:lvgl/src/lv_widgets/lv_linemeter.c ****     lv_draw_line_dsc_init(&line_dsc);
 333:lvgl/src/lv_widgets/lv_linemeter.c ****     lv_obj_init_draw_line_dsc(lmeter, part, &line_dsc);
 334:lvgl/src/lv_widgets/lv_linemeter.c **** #if LV_LINEMETER_PRECISE == 2
 335:lvgl/src/lv_widgets/lv_linemeter.c ****     line_dsc.raw_end = 1;
 336:lvgl/src/lv_widgets/lv_linemeter.c **** #endif
 337:lvgl/src/lv_widgets/lv_linemeter.c **** 
 338:lvgl/src/lv_widgets/lv_linemeter.c ****     lv_style_int_t end_line_width = lv_obj_get_style_scale_end_line_width(lmeter, part);
 339:lvgl/src/lv_widgets/lv_linemeter.c **** 
 340:lvgl/src/lv_widgets/lv_linemeter.c **** #if LV_LINEMETER_PRECISE > 0
 341:lvgl/src/lv_widgets/lv_linemeter.c ****     lv_area_t mask_area;
 342:lvgl/src/lv_widgets/lv_linemeter.c ****     mask_area.x1 = x_ofs - r_in;
 343:lvgl/src/lv_widgets/lv_linemeter.c ****     mask_area.x2 = x_ofs + r_in - 1;
 344:lvgl/src/lv_widgets/lv_linemeter.c ****     mask_area.y1 = y_ofs - r_in;
 345:lvgl/src/lv_widgets/lv_linemeter.c ****     mask_area.y2 = y_ofs + r_in - 1;
 346:lvgl/src/lv_widgets/lv_linemeter.c **** 
 347:lvgl/src/lv_widgets/lv_linemeter.c ****     lv_draw_mask_radius_param_t mask_in_param;
 348:lvgl/src/lv_widgets/lv_linemeter.c ****     lv_draw_mask_radius_init(&mask_in_param, &mask_area, LV_RADIUS_CIRCLE, true);
 349:lvgl/src/lv_widgets/lv_linemeter.c ****     int16_t mask_in_id = lv_draw_mask_add(&mask_in_param, 0);
 350:lvgl/src/lv_widgets/lv_linemeter.c **** #endif
 351:lvgl/src/lv_widgets/lv_linemeter.c **** 
 352:lvgl/src/lv_widgets/lv_linemeter.c **** #if LV_LINEMETER_PRECISE > 1
 353:lvgl/src/lv_widgets/lv_linemeter.c ****     mask_area.x1 = x_ofs - r_out;
 354:lvgl/src/lv_widgets/lv_linemeter.c ****     mask_area.x2 = x_ofs + r_out - 1;
 355:lvgl/src/lv_widgets/lv_linemeter.c ****     mask_area.y1 = y_ofs - r_out;
 356:lvgl/src/lv_widgets/lv_linemeter.c ****     mask_area.y2 = y_ofs + r_out - 1;
 357:lvgl/src/lv_widgets/lv_linemeter.c ****     lv_draw_mask_radius_param_t mask_out_param;
 358:lvgl/src/lv_widgets/lv_linemeter.c ****     lv_draw_mask_radius_init(&mask_out_param, &mask_area, LV_RADIUS_CIRCLE, false);
 359:lvgl/src/lv_widgets/lv_linemeter.c ****     int16_t mask_out_id = lv_draw_mask_add(&mask_out_param, 0);
 360:lvgl/src/lv_widgets/lv_linemeter.c ****     /*In calculation use a larger radius to avoid rounding errors */
 361:lvgl/src/lv_widgets/lv_linemeter.c ****     lv_coord_t r_out_extra = r_out + LV_DPI;
 362:lvgl/src/lv_widgets/lv_linemeter.c **** #else
 363:lvgl/src/lv_widgets/lv_linemeter.c ****     lv_coord_t r_out_extra = r_out;
 364:lvgl/src/lv_widgets/lv_linemeter.c **** #endif
 365:lvgl/src/lv_widgets/lv_linemeter.c **** 
 366:lvgl/src/lv_widgets/lv_linemeter.c ****     for(i = 0; i < ext->line_cnt; i++) {
 367:lvgl/src/lv_widgets/lv_linemeter.c ****         /* `* 256` for extra precision*/
 368:lvgl/src/lv_widgets/lv_linemeter.c ****         int32_t angle_upscale = (i * ext->scale_angle * 256) / (ext->line_cnt - 1);
 369:lvgl/src/lv_widgets/lv_linemeter.c ****         int32_t angle_normal = angle_upscale >> 8;
 370:lvgl/src/lv_widgets/lv_linemeter.c **** 
 371:lvgl/src/lv_widgets/lv_linemeter.c ****         int32_t angle_low = (angle_upscale >> 8);
 372:lvgl/src/lv_widgets/lv_linemeter.c ****         int32_t angle_high = angle_low + 1;
ARM GAS  D:\Temp\ccIs2YtX.s 			page 8


 373:lvgl/src/lv_widgets/lv_linemeter.c ****         int32_t angle_rem = angle_upscale & 0xFF;
 374:lvgl/src/lv_widgets/lv_linemeter.c **** 
 375:lvgl/src/lv_widgets/lv_linemeter.c ****         /*Interpolate sine and cos*/
 376:lvgl/src/lv_widgets/lv_linemeter.c ****         int32_t sin_low = _lv_trigo_sin(angle_low + angle_ofs);
 377:lvgl/src/lv_widgets/lv_linemeter.c ****         int32_t sin_high = _lv_trigo_sin(angle_high + angle_ofs);
 378:lvgl/src/lv_widgets/lv_linemeter.c ****         int32_t sin_mid = (sin_low * (256 - angle_rem) + sin_high * angle_rem) >> 8;
 379:lvgl/src/lv_widgets/lv_linemeter.c **** 
 380:lvgl/src/lv_widgets/lv_linemeter.c ****         int32_t cos_low = _lv_trigo_sin(angle_low + 90 + angle_ofs);
 381:lvgl/src/lv_widgets/lv_linemeter.c ****         int32_t cos_high = _lv_trigo_sin(angle_high + 90 + angle_ofs);
 382:lvgl/src/lv_widgets/lv_linemeter.c ****         int32_t cos_mid = (cos_low * (256 - angle_rem) + cos_high * angle_rem) >> 8;
 383:lvgl/src/lv_widgets/lv_linemeter.c **** 
 384:lvgl/src/lv_widgets/lv_linemeter.c ****         /*Use the interpolated values to get x and y coordinates*/
 385:lvgl/src/lv_widgets/lv_linemeter.c ****         int32_t y_out_extra = (int32_t)((int32_t)sin_mid * r_out_extra) >> (LV_TRIGO_SHIFT - 8);
 386:lvgl/src/lv_widgets/lv_linemeter.c ****         int32_t x_out_extra = (int32_t)((int32_t)cos_mid * r_out_extra) >> (LV_TRIGO_SHIFT - 8);
 387:lvgl/src/lv_widgets/lv_linemeter.c **** 
 388:lvgl/src/lv_widgets/lv_linemeter.c ****         /*Rounding*/
 389:lvgl/src/lv_widgets/lv_linemeter.c ****         if(x_out_extra > 0) x_out_extra = (x_out_extra + 127) >> 8;
 390:lvgl/src/lv_widgets/lv_linemeter.c ****         else x_out_extra = (x_out_extra - 127) >> 8;
 391:lvgl/src/lv_widgets/lv_linemeter.c **** 
 392:lvgl/src/lv_widgets/lv_linemeter.c ****         if(y_out_extra > 0) y_out_extra = (y_out_extra + 127) >> 8;
 393:lvgl/src/lv_widgets/lv_linemeter.c ****         else y_out_extra = (y_out_extra - 127) >> 8;
 394:lvgl/src/lv_widgets/lv_linemeter.c **** 
 395:lvgl/src/lv_widgets/lv_linemeter.c ****         x_out_extra += x_ofs;
 396:lvgl/src/lv_widgets/lv_linemeter.c ****         y_out_extra += y_ofs;
 397:lvgl/src/lv_widgets/lv_linemeter.c **** 
 398:lvgl/src/lv_widgets/lv_linemeter.c ****         /*With no extra precision use the coordinates on the inner radius*/
 399:lvgl/src/lv_widgets/lv_linemeter.c **** #if LV_LINEMETER_PRECISE == 0
 400:lvgl/src/lv_widgets/lv_linemeter.c ****         /*Use the interpolated values to get x and y coordinates*/
 401:lvgl/src/lv_widgets/lv_linemeter.c ****         int32_t y_in_extra = (int32_t)((int32_t)sin_mid * r_in) >> (LV_TRIGO_SHIFT - 8);
 402:lvgl/src/lv_widgets/lv_linemeter.c ****         int32_t x_in_extra = (int32_t)((int32_t)cos_mid * r_in) >> (LV_TRIGO_SHIFT - 8);
 403:lvgl/src/lv_widgets/lv_linemeter.c **** 
 404:lvgl/src/lv_widgets/lv_linemeter.c ****         /*Rounding*/
 405:lvgl/src/lv_widgets/lv_linemeter.c ****         if(x_in_extra > 0) x_in_extra = (x_in_extra + 127) >> 8;
 406:lvgl/src/lv_widgets/lv_linemeter.c ****         else x_in_extra = (x_in_extra - 127) >> 8;
 407:lvgl/src/lv_widgets/lv_linemeter.c **** 
 408:lvgl/src/lv_widgets/lv_linemeter.c ****         if(y_in_extra > 0) y_in_extra = (y_in_extra + 127) >> 8;
 409:lvgl/src/lv_widgets/lv_linemeter.c ****         else y_in_extra = (y_in_extra - 127) >> 8;
 410:lvgl/src/lv_widgets/lv_linemeter.c **** 
 411:lvgl/src/lv_widgets/lv_linemeter.c ****         x_in_extra += x_ofs;
 412:lvgl/src/lv_widgets/lv_linemeter.c ****         y_in_extra += y_ofs;
 413:lvgl/src/lv_widgets/lv_linemeter.c **** #else
 414:lvgl/src/lv_widgets/lv_linemeter.c ****         int32_t x_in_extra = x_ofs;
 415:lvgl/src/lv_widgets/lv_linemeter.c ****         int32_t y_in_extra = y_ofs;
 416:lvgl/src/lv_widgets/lv_linemeter.c **** #endif
 417:lvgl/src/lv_widgets/lv_linemeter.c **** 
 418:lvgl/src/lv_widgets/lv_linemeter.c ****         /*Use smaller clip area only around the visible line*/
 419:lvgl/src/lv_widgets/lv_linemeter.c ****         int32_t y_in  = (int32_t)((int32_t)_lv_trigo_sin(angle_normal + angle_ofs) * r_in) >> LV_TR
 420:lvgl/src/lv_widgets/lv_linemeter.c ****         int32_t x_in  = (int32_t)((int32_t)_lv_trigo_sin(angle_normal + 90 + angle_ofs) * r_in) >> 
 421:lvgl/src/lv_widgets/lv_linemeter.c **** 
 422:lvgl/src/lv_widgets/lv_linemeter.c ****         x_in += x_ofs;
 423:lvgl/src/lv_widgets/lv_linemeter.c ****         y_in += y_ofs;
 424:lvgl/src/lv_widgets/lv_linemeter.c **** 
 425:lvgl/src/lv_widgets/lv_linemeter.c ****         int32_t y_out  = (int32_t)((int32_t)_lv_trigo_sin(angle_normal + angle_ofs) * r_out) >> LV_
 426:lvgl/src/lv_widgets/lv_linemeter.c ****         int32_t x_out  = (int32_t)((int32_t)_lv_trigo_sin(angle_normal + 90 + angle_ofs) * r_out) >
 427:lvgl/src/lv_widgets/lv_linemeter.c **** 
 428:lvgl/src/lv_widgets/lv_linemeter.c ****         x_out += x_ofs;
 429:lvgl/src/lv_widgets/lv_linemeter.c ****         y_out += y_ofs;
ARM GAS  D:\Temp\ccIs2YtX.s 			page 9


 430:lvgl/src/lv_widgets/lv_linemeter.c **** 
 431:lvgl/src/lv_widgets/lv_linemeter.c ****         lv_area_t clip_sub;
 432:lvgl/src/lv_widgets/lv_linemeter.c ****         clip_sub.x1 = LV_MATH_MIN(x_in, x_out) - line_dsc.width;
 433:lvgl/src/lv_widgets/lv_linemeter.c ****         clip_sub.x2 = LV_MATH_MAX(x_in, x_out) + line_dsc.width;
 434:lvgl/src/lv_widgets/lv_linemeter.c ****         clip_sub.y1 = LV_MATH_MIN(y_in, y_out) - line_dsc.width;
 435:lvgl/src/lv_widgets/lv_linemeter.c ****         clip_sub.y2 = LV_MATH_MAX(y_in, y_out) + line_dsc.width;
 436:lvgl/src/lv_widgets/lv_linemeter.c **** 
 437:lvgl/src/lv_widgets/lv_linemeter.c ****         if(_lv_area_intersect(&clip_sub, &clip_sub, clip_area) == false) continue;
 438:lvgl/src/lv_widgets/lv_linemeter.c **** 
 439:lvgl/src/lv_widgets/lv_linemeter.c ****         lv_point_t p1;
 440:lvgl/src/lv_widgets/lv_linemeter.c ****         lv_point_t p2;
 441:lvgl/src/lv_widgets/lv_linemeter.c **** 
 442:lvgl/src/lv_widgets/lv_linemeter.c ****         p2.x = x_in_extra;
 443:lvgl/src/lv_widgets/lv_linemeter.c ****         p2.y = y_in_extra;
 444:lvgl/src/lv_widgets/lv_linemeter.c **** 
 445:lvgl/src/lv_widgets/lv_linemeter.c ****         p1.x = x_out_extra;
 446:lvgl/src/lv_widgets/lv_linemeter.c ****         p1.y = y_out_extra;
 447:lvgl/src/lv_widgets/lv_linemeter.c **** 
 448:lvgl/src/lv_widgets/lv_linemeter.c ****         /* Set the color of the lines */
 449:lvgl/src/lv_widgets/lv_linemeter.c ****         if((!ext->mirrored && i >= level) || (ext->mirrored && i <= level)) {
 450:lvgl/src/lv_widgets/lv_linemeter.c ****             line_dsc.color = end_color;
 451:lvgl/src/lv_widgets/lv_linemeter.c ****             line_dsc.width = end_line_width;
 452:lvgl/src/lv_widgets/lv_linemeter.c ****         }
 453:lvgl/src/lv_widgets/lv_linemeter.c ****         else {
 454:lvgl/src/lv_widgets/lv_linemeter.c ****             line_dsc.color = lv_color_mix(grad_color, main_color, (255 * i) / ext->line_cnt);
 455:lvgl/src/lv_widgets/lv_linemeter.c ****         }
 456:lvgl/src/lv_widgets/lv_linemeter.c **** 
 457:lvgl/src/lv_widgets/lv_linemeter.c ****         lv_draw_line(&p1, &p2, &clip_sub, &line_dsc);
 458:lvgl/src/lv_widgets/lv_linemeter.c ****     }
 459:lvgl/src/lv_widgets/lv_linemeter.c **** 
 460:lvgl/src/lv_widgets/lv_linemeter.c **** #if LV_LINEMETER_PRECISE > 0
 461:lvgl/src/lv_widgets/lv_linemeter.c ****     lv_draw_mask_remove_id(mask_in_id);
 462:lvgl/src/lv_widgets/lv_linemeter.c **** #endif
 463:lvgl/src/lv_widgets/lv_linemeter.c **** 
 464:lvgl/src/lv_widgets/lv_linemeter.c **** #if LV_LINEMETER_PRECISE > 1
 465:lvgl/src/lv_widgets/lv_linemeter.c ****     lv_draw_mask_remove_id(mask_out_id);
 466:lvgl/src/lv_widgets/lv_linemeter.c **** #endif
 467:lvgl/src/lv_widgets/lv_linemeter.c **** 
 468:lvgl/src/lv_widgets/lv_linemeter.c ****     if(part == LV_LINEMETER_PART_MAIN && level < ext->line_cnt - 1) {
 469:lvgl/src/lv_widgets/lv_linemeter.c ****         lv_style_int_t border_width = lv_obj_get_style_scale_border_width(lmeter, part);
 470:lvgl/src/lv_widgets/lv_linemeter.c ****         lv_style_int_t end_border_width = lv_obj_get_style_scale_end_border_width(lmeter, part);
 471:lvgl/src/lv_widgets/lv_linemeter.c **** 
 472:lvgl/src/lv_widgets/lv_linemeter.c ****         if(border_width || end_border_width) {
 473:lvgl/src/lv_widgets/lv_linemeter.c ****             int16_t end_angle = ((level) * ext->scale_angle) / (ext->line_cnt - 1) + angle_ofs;
 474:lvgl/src/lv_widgets/lv_linemeter.c ****             lv_draw_line_dsc_t arc_dsc;
 475:lvgl/src/lv_widgets/lv_linemeter.c ****             lv_draw_line_dsc_init(&arc_dsc);
 476:lvgl/src/lv_widgets/lv_linemeter.c ****             lv_obj_init_draw_line_dsc(lmeter, part, &arc_dsc);
 477:lvgl/src/lv_widgets/lv_linemeter.c **** 
 478:lvgl/src/lv_widgets/lv_linemeter.c ****             if(border_width) {
 479:lvgl/src/lv_widgets/lv_linemeter.c ****                 arc_dsc.width = border_width;
 480:lvgl/src/lv_widgets/lv_linemeter.c ****                 arc_dsc.color = main_color;
 481:lvgl/src/lv_widgets/lv_linemeter.c ****                 lv_draw_arc(x_ofs, y_ofs, r_out, angle_ofs, end_angle, clip_area, &arc_dsc);
 482:lvgl/src/lv_widgets/lv_linemeter.c ****             }
 483:lvgl/src/lv_widgets/lv_linemeter.c **** 
 484:lvgl/src/lv_widgets/lv_linemeter.c ****             if(end_border_width) {
 485:lvgl/src/lv_widgets/lv_linemeter.c ****                 arc_dsc.width = end_border_width;
 486:lvgl/src/lv_widgets/lv_linemeter.c ****                 arc_dsc.color = end_color;
ARM GAS  D:\Temp\ccIs2YtX.s 			page 10


 487:lvgl/src/lv_widgets/lv_linemeter.c ****                 lv_draw_arc(x_ofs, y_ofs, r_out, end_angle, (angle_ofs + ext->scale_angle) % 360, c
 488:lvgl/src/lv_widgets/lv_linemeter.c ****             }
 489:lvgl/src/lv_widgets/lv_linemeter.c ****         }
 490:lvgl/src/lv_widgets/lv_linemeter.c ****     }
 491:lvgl/src/lv_widgets/lv_linemeter.c **** 
 492:lvgl/src/lv_widgets/lv_linemeter.c **** }
 493:lvgl/src/lv_widgets/lv_linemeter.c **** 
 494:lvgl/src/lv_widgets/lv_linemeter.c **** /**********************
 495:lvgl/src/lv_widgets/lv_linemeter.c ****  *   STATIC FUNCTIONS
 496:lvgl/src/lv_widgets/lv_linemeter.c ****  **********************/
 497:lvgl/src/lv_widgets/lv_linemeter.c **** 
 498:lvgl/src/lv_widgets/lv_linemeter.c **** /**
 499:lvgl/src/lv_widgets/lv_linemeter.c ****  * Handle the drawing related tasks of the line meters
 500:lvgl/src/lv_widgets/lv_linemeter.c ****  * @param lmeter pointer to an object
 501:lvgl/src/lv_widgets/lv_linemeter.c ****  * @param clip_area the object will be drawn only in this area
 502:lvgl/src/lv_widgets/lv_linemeter.c ****  * @param mode LV_DESIGN_COVER_CHK: only check if the object fully covers the 'mask_p' area
 503:lvgl/src/lv_widgets/lv_linemeter.c ****  *                                  (return 'true' if yes)
 504:lvgl/src/lv_widgets/lv_linemeter.c ****  *             LV_DESIGN_DRAW: draw the object (always return 'true')
 505:lvgl/src/lv_widgets/lv_linemeter.c ****  *             LV_DESIGN_DRAW_POST: drawing after every children are drawn
 506:lvgl/src/lv_widgets/lv_linemeter.c ****  * @param return an element of `lv_design_res_t`
 507:lvgl/src/lv_widgets/lv_linemeter.c ****  */
 508:lvgl/src/lv_widgets/lv_linemeter.c **** static lv_design_res_t lv_linemeter_design(lv_obj_t * lmeter, const lv_area_t * clip_area, lv_desig
 509:lvgl/src/lv_widgets/lv_linemeter.c **** {
 510:lvgl/src/lv_widgets/lv_linemeter.c ****     /*Return false if the object is not covers the mask_p area*/
 511:lvgl/src/lv_widgets/lv_linemeter.c ****     if(mode == LV_DESIGN_COVER_CHK) {
 512:lvgl/src/lv_widgets/lv_linemeter.c ****         return LV_DESIGN_RES_NOT_COVER;
 513:lvgl/src/lv_widgets/lv_linemeter.c ****     }
 514:lvgl/src/lv_widgets/lv_linemeter.c ****     /*Draw the object*/
 515:lvgl/src/lv_widgets/lv_linemeter.c ****     else if(mode == LV_DESIGN_DRAW_MAIN) {
 516:lvgl/src/lv_widgets/lv_linemeter.c ****         lv_draw_rect_dsc_t bg_dsc;
 517:lvgl/src/lv_widgets/lv_linemeter.c ****         lv_draw_rect_dsc_init(&bg_dsc);
 518:lvgl/src/lv_widgets/lv_linemeter.c ****         lv_obj_init_draw_rect_dsc(lmeter, LV_LINEMETER_PART_MAIN, &bg_dsc);
 519:lvgl/src/lv_widgets/lv_linemeter.c ****         lv_draw_rect(&lmeter->coords, clip_area, &bg_dsc);
 520:lvgl/src/lv_widgets/lv_linemeter.c ****         lv_linemeter_draw_scale(lmeter, clip_area, LV_LINEMETER_PART_MAIN);
 521:lvgl/src/lv_widgets/lv_linemeter.c ****     }
 522:lvgl/src/lv_widgets/lv_linemeter.c ****     /*Post draw when the children are drawn*/
 523:lvgl/src/lv_widgets/lv_linemeter.c ****     else if(mode == LV_DESIGN_DRAW_POST) {
 524:lvgl/src/lv_widgets/lv_linemeter.c ****     }
 525:lvgl/src/lv_widgets/lv_linemeter.c **** 
 526:lvgl/src/lv_widgets/lv_linemeter.c ****     return LV_DESIGN_RES_OK;
 527:lvgl/src/lv_widgets/lv_linemeter.c **** }
 528:lvgl/src/lv_widgets/lv_linemeter.c **** 
 529:lvgl/src/lv_widgets/lv_linemeter.c **** /**
 530:lvgl/src/lv_widgets/lv_linemeter.c ****  * Signal function of the line meter
 531:lvgl/src/lv_widgets/lv_linemeter.c ****  * @param lmeter pointer to a line meter object
 532:lvgl/src/lv_widgets/lv_linemeter.c ****  * @param sign a signal type from lv_signal_t enum
 533:lvgl/src/lv_widgets/lv_linemeter.c ****  * @param param pointer to a signal specific variable
 534:lvgl/src/lv_widgets/lv_linemeter.c ****  * @return LV_RES_OK: the object is not deleted in the function; LV_RES_INV: the object is deleted
 535:lvgl/src/lv_widgets/lv_linemeter.c ****  */
 536:lvgl/src/lv_widgets/lv_linemeter.c **** static lv_res_t lv_linemeter_signal(lv_obj_t * lmeter, lv_signal_t sign, void * param)
 537:lvgl/src/lv_widgets/lv_linemeter.c **** {
  29              		.loc 1 537 1 view -0
  30              		.cfi_startproc
  31              		@ args = 0, pretend = 0, frame = 0
  32              		@ frame_needed = 0, uses_anonymous_args = 0
  33              		.loc 1 537 1 is_stmt 0 view .LVU1
  34 0000 F8B5     		push	{r3, r4, r5, r6, r7, lr}
ARM GAS  D:\Temp\ccIs2YtX.s 			page 11


  35              	.LCFI0:
  36              		.cfi_def_cfa_offset 24
  37              		.cfi_offset 3, -24
  38              		.cfi_offset 4, -20
  39              		.cfi_offset 5, -16
  40              		.cfi_offset 6, -12
  41              		.cfi_offset 7, -8
  42              		.cfi_offset 14, -4
  43 0002 0646     		mov	r6, r0
  44 0004 0D46     		mov	r5, r1
  45 0006 1746     		mov	r7, r2
 538:lvgl/src/lv_widgets/lv_linemeter.c ****     lv_res_t res;
  46              		.loc 1 538 5 is_stmt 1 view .LVU2
 539:lvgl/src/lv_widgets/lv_linemeter.c **** 
 540:lvgl/src/lv_widgets/lv_linemeter.c ****     /* Include the ancient signal function */
 541:lvgl/src/lv_widgets/lv_linemeter.c ****     res = ancestor_signal(lmeter, sign, param);
  47              		.loc 1 541 5 view .LVU3
  48              		.loc 1 541 11 is_stmt 0 view .LVU4
  49 0008 0C4B     		ldr	r3, .L7
  50 000a 1B68     		ldr	r3, [r3]
  51 000c 9847     		blx	r3
  52              	.LVL1:
  53              		.loc 1 541 11 view .LVU5
  54 000e 0446     		mov	r4, r0
  55              	.LVL2:
 542:lvgl/src/lv_widgets/lv_linemeter.c ****     if(res != LV_RES_OK) return res;
  56              		.loc 1 542 5 is_stmt 1 view .LVU6
  57              		.loc 1 542 7 is_stmt 0 view .LVU7
  58 0010 0128     		cmp	r0, #1
  59 0012 04D1     		bne	.L2
 543:lvgl/src/lv_widgets/lv_linemeter.c ****     if(sign == LV_SIGNAL_GET_TYPE) return lv_obj_handle_get_type_signal(param, LV_OBJX_NAME);
  60              		.loc 1 543 5 is_stmt 1 view .LVU8
  61              		.loc 1 543 7 is_stmt 0 view .LVU9
  62 0014 072D     		cmp	r5, #7
  63 0016 04D0     		beq	.L5
 544:lvgl/src/lv_widgets/lv_linemeter.c **** 
 545:lvgl/src/lv_widgets/lv_linemeter.c ****     if(sign == LV_SIGNAL_CLEANUP) {
  64              		.loc 1 545 5 is_stmt 1 view .LVU10
  65              		.loc 1 545 7 is_stmt 0 view .LVU11
  66 0018 0DB1     		cbz	r5, .L2
 546:lvgl/src/lv_widgets/lv_linemeter.c ****         /*Nothing to cleanup. (No dynamically allocated memory in 'ext')*/
 547:lvgl/src/lv_widgets/lv_linemeter.c ****     }
 548:lvgl/src/lv_widgets/lv_linemeter.c ****     else if(sign == LV_SIGNAL_STYLE_CHG) {
  67              		.loc 1 548 10 is_stmt 1 view .LVU12
  68              		.loc 1 548 12 is_stmt 0 view .LVU13
  69 001a 042D     		cmp	r5, #4
  70 001c 07D0     		beq	.L6
  71              	.LVL3:
  72              	.L2:
 549:lvgl/src/lv_widgets/lv_linemeter.c ****         lv_obj_refresh_ext_draw_pad(lmeter);
 550:lvgl/src/lv_widgets/lv_linemeter.c ****         lv_obj_invalidate(lmeter);
 551:lvgl/src/lv_widgets/lv_linemeter.c ****     }
 552:lvgl/src/lv_widgets/lv_linemeter.c **** 
 553:lvgl/src/lv_widgets/lv_linemeter.c ****     return res;
 554:lvgl/src/lv_widgets/lv_linemeter.c **** }
  73              		.loc 1 554 1 view .LVU14
  74 001e 2046     		mov	r0, r4
ARM GAS  D:\Temp\ccIs2YtX.s 			page 12


  75 0020 F8BD     		pop	{r3, r4, r5, r6, r7, pc}
  76              	.LVL4:
  77              	.L5:
 543:lvgl/src/lv_widgets/lv_linemeter.c **** 
  78              		.loc 1 543 36 is_stmt 1 discriminator 1 view .LVU15
 543:lvgl/src/lv_widgets/lv_linemeter.c **** 
  79              		.loc 1 543 43 is_stmt 0 discriminator 1 view .LVU16
  80 0022 0749     		ldr	r1, .L7+4
  81 0024 3846     		mov	r0, r7
  82              	.LVL5:
 543:lvgl/src/lv_widgets/lv_linemeter.c **** 
  83              		.loc 1 543 43 discriminator 1 view .LVU17
  84 0026 FFF7FEFF 		bl	lv_obj_handle_get_type_signal
  85              	.LVL6:
  86 002a 0446     		mov	r4, r0
  87 002c F7E7     		b	.L2
  88              	.LVL7:
  89              	.L6:
 549:lvgl/src/lv_widgets/lv_linemeter.c ****         lv_obj_refresh_ext_draw_pad(lmeter);
  90              		.loc 1 549 9 is_stmt 1 view .LVU18
  91 002e 3046     		mov	r0, r6
  92              	.LVL8:
 549:lvgl/src/lv_widgets/lv_linemeter.c ****         lv_obj_refresh_ext_draw_pad(lmeter);
  93              		.loc 1 549 9 is_stmt 0 view .LVU19
  94 0030 FFF7FEFF 		bl	lv_obj_refresh_ext_draw_pad
  95              	.LVL9:
 550:lvgl/src/lv_widgets/lv_linemeter.c ****     }
  96              		.loc 1 550 9 is_stmt 1 view .LVU20
  97 0034 3046     		mov	r0, r6
  98 0036 FFF7FEFF 		bl	lv_obj_invalidate
  99              	.LVL10:
 100 003a F0E7     		b	.L2
 101              	.L8:
 102              		.align	2
 103              	.L7:
 104 003c 00000000 		.word	.LANCHOR0
 105 0040 00000000 		.word	.LC0
 106              		.cfi_endproc
 107              	.LFE473:
 109              		.section	.text.lv_linemeter_create,"ax",%progbits
 110              		.align	1
 111              		.global	lv_linemeter_create
 112              		.syntax unified
 113              		.thumb
 114              		.thumb_func
 115              		.fpu fpv4-sp-d16
 117              	lv_linemeter_create:
 118              	.LVL11:
 119              	.LFB458:
  54:lvgl/src/lv_widgets/lv_linemeter.c ****     LV_LOG_TRACE("line meter create started");
 120              		.loc 1 54 1 view -0
 121              		.cfi_startproc
 122              		@ args = 0, pretend = 0, frame = 0
 123              		@ frame_needed = 0, uses_anonymous_args = 0
  54:lvgl/src/lv_widgets/lv_linemeter.c ****     LV_LOG_TRACE("line meter create started");
 124              		.loc 1 54 1 is_stmt 0 view .LVU22
 125 0000 70B5     		push	{r4, r5, r6, lr}
ARM GAS  D:\Temp\ccIs2YtX.s 			page 13


 126              	.LCFI1:
 127              		.cfi_def_cfa_offset 16
 128              		.cfi_offset 4, -16
 129              		.cfi_offset 5, -12
 130              		.cfi_offset 6, -8
 131              		.cfi_offset 14, -4
 132 0002 0E46     		mov	r6, r1
  55:lvgl/src/lv_widgets/lv_linemeter.c **** 
 133              		.loc 1 55 46 is_stmt 1 view .LVU23
  58:lvgl/src/lv_widgets/lv_linemeter.c ****     LV_ASSERT_MEM(linemeter);
 134              		.loc 1 58 5 view .LVU24
  58:lvgl/src/lv_widgets/lv_linemeter.c ****     LV_ASSERT_MEM(linemeter);
 135              		.loc 1 58 28 is_stmt 0 view .LVU25
 136 0004 FFF7FEFF 		bl	lv_obj_create
 137              	.LVL12:
  58:lvgl/src/lv_widgets/lv_linemeter.c ****     LV_ASSERT_MEM(linemeter);
 138              		.loc 1 58 28 view .LVU26
 139 0008 0546     		mov	r5, r0
 140              	.LVL13:
  59:lvgl/src/lv_widgets/lv_linemeter.c ****     if(linemeter == NULL) return NULL;
 141              		.loc 1 59 5 is_stmt 1 view .LVU27
  59:lvgl/src/lv_widgets/lv_linemeter.c ****     if(linemeter == NULL) return NULL;
 142              		.loc 1 59 5 view .LVU28
 143 000a FFF7FEFF 		bl	lv_debug_check_null
 144              	.LVL14:
  59:lvgl/src/lv_widgets/lv_linemeter.c ****     if(linemeter == NULL) return NULL;
 145              		.loc 1 59 5 is_stmt 0 view .LVU29
 146 000e 0028     		cmp	r0, #0
 147 0010 3BD0     		beq	.L19
  59:lvgl/src/lv_widgets/lv_linemeter.c ****     if(linemeter == NULL) return NULL;
 148              		.loc 1 59 29 is_stmt 1 discriminator 2 view .LVU30
  60:lvgl/src/lv_widgets/lv_linemeter.c **** 
 149              		.loc 1 60 5 discriminator 2 view .LVU31
  60:lvgl/src/lv_widgets/lv_linemeter.c **** 
 150              		.loc 1 60 7 is_stmt 0 discriminator 2 view .LVU32
 151 0012 002D     		cmp	r5, #0
 152 0014 37D0     		beq	.L9
  62:lvgl/src/lv_widgets/lv_linemeter.c **** 
 153              		.loc 1 62 5 is_stmt 1 view .LVU33
  62:lvgl/src/lv_widgets/lv_linemeter.c **** 
 154              		.loc 1 62 24 is_stmt 0 view .LVU34
 155 0016 2D4B     		ldr	r3, .L24
 156 0018 1B68     		ldr	r3, [r3]
  62:lvgl/src/lv_widgets/lv_linemeter.c **** 
 157              		.loc 1 62 7 view .LVU35
 158 001a 002B     		cmp	r3, #0
 159 001c 3BD0     		beq	.L20
 160              	.L13:
  65:lvgl/src/lv_widgets/lv_linemeter.c ****     LV_ASSERT_MEM(ext);
 161              		.loc 1 65 5 is_stmt 1 view .LVU36
  65:lvgl/src/lv_widgets/lv_linemeter.c ****     LV_ASSERT_MEM(ext);
 162              		.loc 1 65 32 is_stmt 0 view .LVU37
 163 001e 1821     		movs	r1, #24
 164 0020 2846     		mov	r0, r5
 165 0022 FFF7FEFF 		bl	lv_obj_allocate_ext_attr
 166              	.LVL15:
 167 0026 0446     		mov	r4, r0
ARM GAS  D:\Temp\ccIs2YtX.s 			page 14


 168              	.LVL16:
  66:lvgl/src/lv_widgets/lv_linemeter.c ****     if(ext == NULL) {
 169              		.loc 1 66 5 is_stmt 1 view .LVU38
  66:lvgl/src/lv_widgets/lv_linemeter.c ****     if(ext == NULL) {
 170              		.loc 1 66 5 view .LVU39
 171 0028 FFF7FEFF 		bl	lv_debug_check_null
 172              	.LVL17:
  66:lvgl/src/lv_widgets/lv_linemeter.c ****     if(ext == NULL) {
 173              		.loc 1 66 5 is_stmt 0 view .LVU40
 174 002c 0028     		cmp	r0, #0
 175 002e 38D0     		beq	.L21
  66:lvgl/src/lv_widgets/lv_linemeter.c ****     if(ext == NULL) {
 176              		.loc 1 66 23 is_stmt 1 discriminator 2 view .LVU41
  67:lvgl/src/lv_widgets/lv_linemeter.c ****         lv_obj_del(linemeter);
 177              		.loc 1 67 5 discriminator 2 view .LVU42
  67:lvgl/src/lv_widgets/lv_linemeter.c ****         lv_obj_del(linemeter);
 178              		.loc 1 67 7 is_stmt 0 discriminator 2 view .LVU43
 179 0030 002C     		cmp	r4, #0
 180 0032 3CD0     		beq	.L22
  73:lvgl/src/lv_widgets/lv_linemeter.c ****     ext->max_value   = 100;
 181              		.loc 1 73 5 is_stmt 1 view .LVU44
  73:lvgl/src/lv_widgets/lv_linemeter.c ****     ext->max_value   = 100;
 182              		.loc 1 73 22 is_stmt 0 view .LVU45
 183 0034 0023     		movs	r3, #0
 184 0036 E360     		str	r3, [r4, #12]
  74:lvgl/src/lv_widgets/lv_linemeter.c ****     ext->cur_value   = 0;
 185              		.loc 1 74 5 is_stmt 1 view .LVU46
  74:lvgl/src/lv_widgets/lv_linemeter.c ****     ext->cur_value   = 0;
 186              		.loc 1 74 22 is_stmt 0 view .LVU47
 187 0038 6422     		movs	r2, #100
 188 003a 2261     		str	r2, [r4, #16]
  75:lvgl/src/lv_widgets/lv_linemeter.c ****     ext->line_cnt    = 18;
 189              		.loc 1 75 5 is_stmt 1 view .LVU48
  75:lvgl/src/lv_widgets/lv_linemeter.c ****     ext->line_cnt    = 18;
 190              		.loc 1 75 22 is_stmt 0 view .LVU49
 191 003c A360     		str	r3, [r4, #8]
  76:lvgl/src/lv_widgets/lv_linemeter.c ****     ext->scale_angle = 240;
 192              		.loc 1 76 5 is_stmt 1 view .LVU50
  76:lvgl/src/lv_widgets/lv_linemeter.c ****     ext->scale_angle = 240;
 193              		.loc 1 76 22 is_stmt 0 view .LVU51
 194 003e 1222     		movs	r2, #18
 195 0040 A280     		strh	r2, [r4, #4]	@ movhi
  77:lvgl/src/lv_widgets/lv_linemeter.c ****     ext->angle_ofs = 0;
 196              		.loc 1 77 5 is_stmt 1 view .LVU52
  77:lvgl/src/lv_widgets/lv_linemeter.c ****     ext->angle_ofs = 0;
 197              		.loc 1 77 22 is_stmt 0 view .LVU53
 198 0042 F022     		movs	r2, #240
 199 0044 2280     		strh	r2, [r4]	@ movhi
  78:lvgl/src/lv_widgets/lv_linemeter.c ****     ext->mirrored = 0;
 200              		.loc 1 78 5 is_stmt 1 view .LVU54
  78:lvgl/src/lv_widgets/lv_linemeter.c ****     ext->mirrored = 0;
 201              		.loc 1 78 20 is_stmt 0 view .LVU55
 202 0046 6380     		strh	r3, [r4, #2]	@ movhi
  79:lvgl/src/lv_widgets/lv_linemeter.c **** 
 203              		.loc 1 79 5 is_stmt 1 view .LVU56
  79:lvgl/src/lv_widgets/lv_linemeter.c **** 
 204              		.loc 1 79 19 is_stmt 0 view .LVU57
ARM GAS  D:\Temp\ccIs2YtX.s 			page 15


 205 0048 227D     		ldrb	r2, [r4, #20]	@ zero_extendqisi2
 206 004a 63F30002 		bfi	r2, r3, #0, #1
 207 004e 2275     		strb	r2, [r4, #20]
  82:lvgl/src/lv_widgets/lv_linemeter.c ****     lv_obj_set_design_cb(linemeter, lv_linemeter_design);
 208              		.loc 1 82 5 is_stmt 1 view .LVU58
 209 0050 1F49     		ldr	r1, .L24+4
 210 0052 2846     		mov	r0, r5
 211 0054 FFF7FEFF 		bl	lv_obj_set_signal_cb
 212              	.LVL18:
  83:lvgl/src/lv_widgets/lv_linemeter.c **** 
 213              		.loc 1 83 5 view .LVU59
 214 0058 1E49     		ldr	r1, .L24+8
 215 005a 2846     		mov	r0, r5
 216 005c FFF7FEFF 		bl	lv_obj_set_design_cb
 217              	.LVL19:
  86:lvgl/src/lv_widgets/lv_linemeter.c ****         lv_obj_set_size(linemeter, 3 * LV_DPI / 2, 3 * LV_DPI / 2);
 218              		.loc 1 86 5 view .LVU60
  86:lvgl/src/lv_widgets/lv_linemeter.c ****         lv_obj_set_size(linemeter, 3 * LV_DPI / 2, 3 * LV_DPI / 2);
 219              		.loc 1 86 7 is_stmt 0 view .LVU61
 220 0060 56B3     		cbz	r6, .L23
 221              	.LBB25:
  92:lvgl/src/lv_widgets/lv_linemeter.c ****         ext->scale_angle           = copy_ext->scale_angle;
 222              		.loc 1 92 9 is_stmt 1 view .LVU62
  92:lvgl/src/lv_widgets/lv_linemeter.c ****         ext->scale_angle           = copy_ext->scale_angle;
 223              		.loc 1 92 41 is_stmt 0 view .LVU63
 224 0062 3046     		mov	r0, r6
 225 0064 FFF7FEFF 		bl	lv_obj_get_ext_attr
 226              	.LVL20:
  93:lvgl/src/lv_widgets/lv_linemeter.c ****         ext->line_cnt              = copy_ext->line_cnt;
 227              		.loc 1 93 9 is_stmt 1 view .LVU64
  93:lvgl/src/lv_widgets/lv_linemeter.c ****         ext->line_cnt              = copy_ext->line_cnt;
 228              		.loc 1 93 46 is_stmt 0 view .LVU65
 229 0068 0388     		ldrh	r3, [r0]
  93:lvgl/src/lv_widgets/lv_linemeter.c ****         ext->line_cnt              = copy_ext->line_cnt;
 230              		.loc 1 93 36 view .LVU66
 231 006a 2380     		strh	r3, [r4]	@ movhi
  94:lvgl/src/lv_widgets/lv_linemeter.c ****         ext->min_value             = copy_ext->min_value;
 232              		.loc 1 94 9 is_stmt 1 view .LVU67
  94:lvgl/src/lv_widgets/lv_linemeter.c ****         ext->min_value             = copy_ext->min_value;
 233              		.loc 1 94 46 is_stmt 0 view .LVU68
 234 006c 8388     		ldrh	r3, [r0, #4]
  94:lvgl/src/lv_widgets/lv_linemeter.c ****         ext->min_value             = copy_ext->min_value;
 235              		.loc 1 94 36 view .LVU69
 236 006e A380     		strh	r3, [r4, #4]	@ movhi
  95:lvgl/src/lv_widgets/lv_linemeter.c ****         ext->max_value             = copy_ext->max_value;
 237              		.loc 1 95 9 is_stmt 1 view .LVU70
  95:lvgl/src/lv_widgets/lv_linemeter.c ****         ext->max_value             = copy_ext->max_value;
 238              		.loc 1 95 46 is_stmt 0 view .LVU71
 239 0070 C368     		ldr	r3, [r0, #12]
  95:lvgl/src/lv_widgets/lv_linemeter.c ****         ext->max_value             = copy_ext->max_value;
 240              		.loc 1 95 36 view .LVU72
 241 0072 E360     		str	r3, [r4, #12]
  96:lvgl/src/lv_widgets/lv_linemeter.c ****         ext->cur_value             = copy_ext->cur_value;
 242              		.loc 1 96 9 is_stmt 1 view .LVU73
  96:lvgl/src/lv_widgets/lv_linemeter.c ****         ext->cur_value             = copy_ext->cur_value;
 243              		.loc 1 96 46 is_stmt 0 view .LVU74
 244 0074 0369     		ldr	r3, [r0, #16]
ARM GAS  D:\Temp\ccIs2YtX.s 			page 16


  96:lvgl/src/lv_widgets/lv_linemeter.c ****         ext->cur_value             = copy_ext->cur_value;
 245              		.loc 1 96 36 view .LVU75
 246 0076 2361     		str	r3, [r4, #16]
  97:lvgl/src/lv_widgets/lv_linemeter.c **** 
 247              		.loc 1 97 9 is_stmt 1 view .LVU76
  97:lvgl/src/lv_widgets/lv_linemeter.c **** 
 248              		.loc 1 97 46 is_stmt 0 view .LVU77
 249 0078 8368     		ldr	r3, [r0, #8]
  97:lvgl/src/lv_widgets/lv_linemeter.c **** 
 250              		.loc 1 97 36 view .LVU78
 251 007a A360     		str	r3, [r4, #8]
 100:lvgl/src/lv_widgets/lv_linemeter.c ****     }
 252              		.loc 1 100 9 is_stmt 1 view .LVU79
 253 007c FF22     		movs	r2, #255
 254 007e 1146     		mov	r1, r2
 255 0080 2846     		mov	r0, r5
 256              	.LVL21:
 100:lvgl/src/lv_widgets/lv_linemeter.c ****     }
 257              		.loc 1 100 9 is_stmt 0 view .LVU80
 258 0082 FFF7FEFF 		bl	lv_obj_refresh_style
 259              	.LVL22:
 260              	.L9:
 100:lvgl/src/lv_widgets/lv_linemeter.c ****     }
 261              		.loc 1 100 9 view .LVU81
 262              	.LBE25:
 106:lvgl/src/lv_widgets/lv_linemeter.c **** 
 263              		.loc 1 106 1 view .LVU82
 264 0086 2846     		mov	r0, r5
 265 0088 70BD     		pop	{r4, r5, r6, pc}
 266              	.LVL23:
 267              	.L19:
  59:lvgl/src/lv_widgets/lv_linemeter.c ****     if(linemeter == NULL) return NULL;
 268              		.loc 1 59 5 is_stmt 1 discriminator 1 view .LVU83
  59:lvgl/src/lv_widgets/lv_linemeter.c ****     if(linemeter == NULL) return NULL;
 269              		.loc 1 59 5 discriminator 1 view .LVU84
 270 008a 2A46     		mov	r2, r5
 271 008c 0023     		movs	r3, #0
 272 008e 1248     		ldr	r0, .L24+12
 273 0090 FFF7FEFF 		bl	lv_debug_log_error
 274              	.LVL24:
 275              	.L11:
  59:lvgl/src/lv_widgets/lv_linemeter.c ****     if(linemeter == NULL) return NULL;
 276              		.loc 1 59 5 discriminator 1 view .LVU85
  59:lvgl/src/lv_widgets/lv_linemeter.c ****     if(linemeter == NULL) return NULL;
 277              		.loc 1 59 5 discriminator 1 view .LVU86
 278 0094 FEE7     		b	.L11
 279              	.L20:
  62:lvgl/src/lv_widgets/lv_linemeter.c **** 
 280              		.loc 1 62 33 discriminator 1 view .LVU87
  62:lvgl/src/lv_widgets/lv_linemeter.c **** 
 281              		.loc 1 62 51 is_stmt 0 discriminator 1 view .LVU88
 282 0096 2846     		mov	r0, r5
 283 0098 FFF7FEFF 		bl	lv_obj_get_signal_cb
 284              	.LVL25:
  62:lvgl/src/lv_widgets/lv_linemeter.c **** 
 285              		.loc 1 62 49 discriminator 1 view .LVU89
 286 009c 0B4B     		ldr	r3, .L24
ARM GAS  D:\Temp\ccIs2YtX.s 			page 17


 287 009e 1860     		str	r0, [r3]
 288 00a0 BDE7     		b	.L13
 289              	.LVL26:
 290              	.L21:
  66:lvgl/src/lv_widgets/lv_linemeter.c ****     if(ext == NULL) {
 291              		.loc 1 66 5 is_stmt 1 discriminator 1 view .LVU90
  66:lvgl/src/lv_widgets/lv_linemeter.c ****     if(ext == NULL) {
 292              		.loc 1 66 5 discriminator 1 view .LVU91
 293 00a2 2246     		mov	r2, r4
 294 00a4 0023     		movs	r3, #0
 295 00a6 0C48     		ldr	r0, .L24+12
 296 00a8 FFF7FEFF 		bl	lv_debug_log_error
 297              	.LVL27:
 298              	.L15:
  66:lvgl/src/lv_widgets/lv_linemeter.c ****     if(ext == NULL) {
 299              		.loc 1 66 5 discriminator 2 view .LVU92
  66:lvgl/src/lv_widgets/lv_linemeter.c ****     if(ext == NULL) {
 300              		.loc 1 66 5 discriminator 2 view .LVU93
 301 00ac FEE7     		b	.L15
 302              	.L22:
  68:lvgl/src/lv_widgets/lv_linemeter.c ****         return NULL;
 303              		.loc 1 68 9 view .LVU94
 304 00ae 2846     		mov	r0, r5
 305 00b0 FFF7FEFF 		bl	lv_obj_del
 306              	.LVL28:
  69:lvgl/src/lv_widgets/lv_linemeter.c ****     }
 307              		.loc 1 69 9 view .LVU95
  69:lvgl/src/lv_widgets/lv_linemeter.c ****     }
 308              		.loc 1 69 16 is_stmt 0 view .LVU96
 309 00b4 0025     		movs	r5, #0
 310              	.LVL29:
  69:lvgl/src/lv_widgets/lv_linemeter.c ****     }
 311              		.loc 1 69 16 view .LVU97
 312 00b6 E6E7     		b	.L9
 313              	.LVL30:
 314              	.L23:
  87:lvgl/src/lv_widgets/lv_linemeter.c ****         lv_theme_apply(linemeter, LV_THEME_LINEMETER);
 315              		.loc 1 87 9 is_stmt 1 view .LVU98
 316 00b8 7822     		movs	r2, #120
 317 00ba 1146     		mov	r1, r2
 318 00bc 2846     		mov	r0, r5
 319 00be FFF7FEFF 		bl	lv_obj_set_size
 320              	.LVL31:
  88:lvgl/src/lv_widgets/lv_linemeter.c ****     }
 321              		.loc 1 88 9 view .LVU99
 322 00c2 1721     		movs	r1, #23
 323 00c4 2846     		mov	r0, r5
 324 00c6 FFF7FEFF 		bl	lv_theme_apply
 325              	.LVL32:
 326 00ca DCE7     		b	.L9
 327              	.L25:
 328              		.align	2
 329              	.L24:
 330 00cc 00000000 		.word	.LANCHOR0
 331 00d0 00000000 		.word	lv_linemeter_signal
 332 00d4 00000000 		.word	lv_linemeter_design
 333 00d8 00000000 		.word	.LC1
ARM GAS  D:\Temp\ccIs2YtX.s 			page 18


 334              		.cfi_endproc
 335              	.LFE458:
 337              		.section	.text.lv_linemeter_set_value,"ax",%progbits
 338              		.align	1
 339              		.global	lv_linemeter_set_value
 340              		.syntax unified
 341              		.thumb
 342              		.thumb_func
 343              		.fpu fpv4-sp-d16
 345              	lv_linemeter_set_value:
 346              	.LVL33:
 347              	.LFB459:
 118:lvgl/src/lv_widgets/lv_linemeter.c ****     LV_ASSERT_OBJ(lmeter, LV_OBJX_NAME);
 348              		.loc 1 118 1 view -0
 349              		.cfi_startproc
 350              		@ args = 0, pretend = 0, frame = 0
 351              		@ frame_needed = 0, uses_anonymous_args = 0
 118:lvgl/src/lv_widgets/lv_linemeter.c ****     LV_ASSERT_OBJ(lmeter, LV_OBJX_NAME);
 352              		.loc 1 118 1 is_stmt 0 view .LVU101
 353 0000 38B5     		push	{r3, r4, r5, lr}
 354              	.LCFI2:
 355              		.cfi_def_cfa_offset 16
 356              		.cfi_offset 3, -16
 357              		.cfi_offset 4, -12
 358              		.cfi_offset 5, -8
 359              		.cfi_offset 14, -4
 360 0002 0546     		mov	r5, r0
 361 0004 0C46     		mov	r4, r1
 119:lvgl/src/lv_widgets/lv_linemeter.c **** 
 362              		.loc 1 119 5 is_stmt 1 view .LVU102
 119:lvgl/src/lv_widgets/lv_linemeter.c **** 
 363              		.loc 1 119 5 view .LVU103
 364 0006 FFF7FEFF 		bl	lv_debug_check_null
 365              	.LVL34:
 119:lvgl/src/lv_widgets/lv_linemeter.c **** 
 366              		.loc 1 119 5 is_stmt 0 view .LVU104
 367 000a 28B9     		cbnz	r0, .L27
 119:lvgl/src/lv_widgets/lv_linemeter.c **** 
 368              		.loc 1 119 5 is_stmt 1 discriminator 1 view .LVU105
 119:lvgl/src/lv_widgets/lv_linemeter.c **** 
 369              		.loc 1 119 5 discriminator 1 view .LVU106
 370 000c 2A46     		mov	r2, r5
 371 000e 0023     		movs	r3, #0
 372 0010 1448     		ldr	r0, .L31
 373 0012 FFF7FEFF 		bl	lv_debug_log_error
 374              	.LVL35:
 375              	.L28:
 119:lvgl/src/lv_widgets/lv_linemeter.c **** 
 376              		.loc 1 119 5 discriminator 1 view .LVU107
 119:lvgl/src/lv_widgets/lv_linemeter.c **** 
 377              		.loc 1 119 5 discriminator 1 view .LVU108
 378 0016 FEE7     		b	.L28
 379              	.L27:
 119:lvgl/src/lv_widgets/lv_linemeter.c **** 
 380              		.loc 1 119 40 discriminator 2 view .LVU109
 121:lvgl/src/lv_widgets/lv_linemeter.c ****     if(ext->cur_value == value) return;
 381              		.loc 1 121 5 discriminator 2 view .LVU110
ARM GAS  D:\Temp\ccIs2YtX.s 			page 19


 121:lvgl/src/lv_widgets/lv_linemeter.c ****     if(ext->cur_value == value) return;
 382              		.loc 1 121 32 is_stmt 0 discriminator 2 view .LVU111
 383 0018 2846     		mov	r0, r5
 384 001a FFF7FEFF 		bl	lv_obj_get_ext_attr
 385              	.LVL36:
 122:lvgl/src/lv_widgets/lv_linemeter.c **** 
 386              		.loc 1 122 5 is_stmt 1 discriminator 2 view .LVU112
 122:lvgl/src/lv_widgets/lv_linemeter.c **** 
 387              		.loc 1 122 11 is_stmt 0 discriminator 2 view .LVU113
 388 001e 8268     		ldr	r2, [r0, #8]
 122:lvgl/src/lv_widgets/lv_linemeter.c **** 
 389              		.loc 1 122 7 discriminator 2 view .LVU114
 390 0020 A242     		cmp	r2, r4
 391 0022 1DD0     		beq	.L26
 124:lvgl/src/lv_widgets/lv_linemeter.c **** 
 392              		.loc 1 124 5 is_stmt 1 view .LVU115
 393              	.LVL37:
 126:lvgl/src/lv_widgets/lv_linemeter.c ****     ext->cur_value = ext->cur_value < ext->min_value ? ext->min_value : ext->cur_value;
 394              		.loc 1 126 5 view .LVU116
 126:lvgl/src/lv_widgets/lv_linemeter.c ****     ext->cur_value = ext->cur_value < ext->min_value ? ext->min_value : ext->cur_value;
 395              		.loc 1 126 33 is_stmt 0 view .LVU117
 396 0024 0169     		ldr	r1, [r0, #16]
 126:lvgl/src/lv_widgets/lv_linemeter.c ****     ext->cur_value = ext->cur_value < ext->min_value ? ext->min_value : ext->cur_value;
 397              		.loc 1 126 62 view .LVU118
 398 0026 2346     		mov	r3, r4
 399 0028 8C42     		cmp	r4, r1
 400 002a A8BF     		it	ge
 401 002c 0B46     		movge	r3, r1
 127:lvgl/src/lv_widgets/lv_linemeter.c **** 
 402              		.loc 1 127 5 is_stmt 1 view .LVU119
 127:lvgl/src/lv_widgets/lv_linemeter.c **** 
 403              		.loc 1 127 42 is_stmt 0 view .LVU120
 404 002e C468     		ldr	r4, [r0, #12]
 405              	.LVL38:
 127:lvgl/src/lv_widgets/lv_linemeter.c **** 
 406              		.loc 1 127 71 view .LVU121
 407 0030 A342     		cmp	r3, r4
 408 0032 B8BF     		it	lt
 409 0034 2346     		movlt	r3, r4
 127:lvgl/src/lv_widgets/lv_linemeter.c **** 
 410              		.loc 1 127 20 view .LVU122
 411 0036 8360     		str	r3, [r0, #8]
 129:lvgl/src/lv_widgets/lv_linemeter.c ****         (int32_t)((int32_t)(old_value - ext->min_value) * (ext->line_cnt - 1)) / (ext->max_value - 
 412              		.loc 1 129 5 is_stmt 1 view .LVU123
 130:lvgl/src/lv_widgets/lv_linemeter.c ****     int16_t level_new =
 413              		.loc 1 130 39 is_stmt 0 view .LVU124
 414 0038 121B     		subs	r2, r2, r4
 415              	.LVL39:
 130:lvgl/src/lv_widgets/lv_linemeter.c ****     int16_t level_new =
 416              		.loc 1 130 63 view .LVU125
 417 003a 8088     		ldrh	r0, [r0, #4]
 418              	.LVL40:
 130:lvgl/src/lv_widgets/lv_linemeter.c ****     int16_t level_new =
 419              		.loc 1 130 74 view .LVU126
 420 003c 0138     		subs	r0, r0, #1
 130:lvgl/src/lv_widgets/lv_linemeter.c ****     int16_t level_new =
 421              		.loc 1 130 9 view .LVU127
ARM GAS  D:\Temp\ccIs2YtX.s 			page 20


 422 003e 00FB02F2 		mul	r2, r0, r2
 130:lvgl/src/lv_widgets/lv_linemeter.c ****     int16_t level_new =
 423              		.loc 1 130 98 view .LVU128
 424 0042 091B     		subs	r1, r1, r4
 130:lvgl/src/lv_widgets/lv_linemeter.c ****     int16_t level_new =
 425              		.loc 1 130 80 view .LVU129
 426 0044 92FBF1F2 		sdiv	r2, r2, r1
 129:lvgl/src/lv_widgets/lv_linemeter.c ****         (int32_t)((int32_t)(old_value - ext->min_value) * (ext->line_cnt - 1)) / (ext->max_value - 
 427              		.loc 1 129 13 view .LVU130
 428 0048 12B2     		sxth	r2, r2
 429              	.LVL41:
 131:lvgl/src/lv_widgets/lv_linemeter.c ****         (int32_t)((int32_t)(ext->cur_value - ext->min_value) * (ext->line_cnt - 1)) / (ext->max_val
 430              		.loc 1 131 5 is_stmt 1 view .LVU131
 132:lvgl/src/lv_widgets/lv_linemeter.c **** 
 431              		.loc 1 132 44 is_stmt 0 view .LVU132
 432 004a 1B1B     		subs	r3, r3, r4
 132:lvgl/src/lv_widgets/lv_linemeter.c **** 
 433              		.loc 1 132 9 view .LVU133
 434 004c 03FB00F3 		mul	r3, r3, r0
 132:lvgl/src/lv_widgets/lv_linemeter.c **** 
 435              		.loc 1 132 85 view .LVU134
 436 0050 93FBF1F3 		sdiv	r3, r3, r1
 131:lvgl/src/lv_widgets/lv_linemeter.c ****         (int32_t)((int32_t)(ext->cur_value - ext->min_value) * (ext->line_cnt - 1)) / (ext->max_val
 437              		.loc 1 131 13 view .LVU135
 438 0054 1BB2     		sxth	r3, r3
 439              	.LVL42:
 134:lvgl/src/lv_widgets/lv_linemeter.c **** 
 440              		.loc 1 134 5 is_stmt 1 view .LVU136
 134:lvgl/src/lv_widgets/lv_linemeter.c **** 
 441              		.loc 1 134 7 is_stmt 0 view .LVU137
 442 0056 9A42     		cmp	r2, r3
 443 0058 02D0     		beq	.L26
 136:lvgl/src/lv_widgets/lv_linemeter.c **** }
 444              		.loc 1 136 5 is_stmt 1 view .LVU138
 445 005a 2846     		mov	r0, r5
 446 005c FFF7FEFF 		bl	lv_obj_invalidate
 447              	.LVL43:
 448              	.L26:
 137:lvgl/src/lv_widgets/lv_linemeter.c **** 
 449              		.loc 1 137 1 is_stmt 0 view .LVU139
 450 0060 38BD     		pop	{r3, r4, r5, pc}
 451              	.LVL44:
 452              	.L32:
 137:lvgl/src/lv_widgets/lv_linemeter.c **** 
 453              		.loc 1 137 1 view .LVU140
 454 0062 00BF     		.align	2
 455              	.L31:
 456 0064 00000000 		.word	.LC2
 457              		.cfi_endproc
 458              	.LFE459:
 460              		.section	.text.lv_linemeter_set_range,"ax",%progbits
 461              		.align	1
 462              		.global	lv_linemeter_set_range
 463              		.syntax unified
 464              		.thumb
 465              		.thumb_func
 466              		.fpu fpv4-sp-d16
ARM GAS  D:\Temp\ccIs2YtX.s 			page 21


 468              	lv_linemeter_set_range:
 469              	.LVL45:
 470              	.LFB460:
 146:lvgl/src/lv_widgets/lv_linemeter.c ****     LV_ASSERT_OBJ(lmeter, LV_OBJX_NAME);
 471              		.loc 1 146 1 is_stmt 1 view -0
 472              		.cfi_startproc
 473              		@ args = 0, pretend = 0, frame = 0
 474              		@ frame_needed = 0, uses_anonymous_args = 0
 146:lvgl/src/lv_widgets/lv_linemeter.c ****     LV_ASSERT_OBJ(lmeter, LV_OBJX_NAME);
 475              		.loc 1 146 1 is_stmt 0 view .LVU142
 476 0000 F8B5     		push	{r3, r4, r5, r6, r7, lr}
 477              	.LCFI3:
 478              		.cfi_def_cfa_offset 24
 479              		.cfi_offset 3, -24
 480              		.cfi_offset 4, -20
 481              		.cfi_offset 5, -16
 482              		.cfi_offset 6, -12
 483              		.cfi_offset 7, -8
 484              		.cfi_offset 14, -4
 485 0002 0546     		mov	r5, r0
 486 0004 0E46     		mov	r6, r1
 487 0006 1746     		mov	r7, r2
 147:lvgl/src/lv_widgets/lv_linemeter.c **** 
 488              		.loc 1 147 5 is_stmt 1 view .LVU143
 147:lvgl/src/lv_widgets/lv_linemeter.c **** 
 489              		.loc 1 147 5 view .LVU144
 490 0008 FFF7FEFF 		bl	lv_debug_check_null
 491              	.LVL46:
 147:lvgl/src/lv_widgets/lv_linemeter.c **** 
 492              		.loc 1 147 5 is_stmt 0 view .LVU145
 493 000c 28B9     		cbnz	r0, .L34
 147:lvgl/src/lv_widgets/lv_linemeter.c **** 
 494              		.loc 1 147 5 is_stmt 1 discriminator 1 view .LVU146
 147:lvgl/src/lv_widgets/lv_linemeter.c **** 
 495              		.loc 1 147 5 discriminator 1 view .LVU147
 496 000e 2A46     		mov	r2, r5
 497 0010 0023     		movs	r3, #0
 498 0012 1348     		ldr	r0, .L44
 499 0014 FFF7FEFF 		bl	lv_debug_log_error
 500              	.LVL47:
 501              	.L35:
 147:lvgl/src/lv_widgets/lv_linemeter.c **** 
 502              		.loc 1 147 5 discriminator 1 view .LVU148
 147:lvgl/src/lv_widgets/lv_linemeter.c **** 
 503              		.loc 1 147 5 discriminator 1 view .LVU149
 504 0018 FEE7     		b	.L35
 505              	.L34:
 147:lvgl/src/lv_widgets/lv_linemeter.c **** 
 506              		.loc 1 147 40 discriminator 2 view .LVU150
 149:lvgl/src/lv_widgets/lv_linemeter.c ****     if(ext->min_value == min && ext->max_value == max) return;
 507              		.loc 1 149 5 discriminator 2 view .LVU151
 149:lvgl/src/lv_widgets/lv_linemeter.c ****     if(ext->min_value == min && ext->max_value == max) return;
 508              		.loc 1 149 32 is_stmt 0 discriminator 2 view .LVU152
 509 001a 2846     		mov	r0, r5
 510 001c FFF7FEFF 		bl	lv_obj_get_ext_attr
 511              	.LVL48:
 512 0020 0446     		mov	r4, r0
ARM GAS  D:\Temp\ccIs2YtX.s 			page 22


 513              	.LVL49:
 150:lvgl/src/lv_widgets/lv_linemeter.c **** 
 514              		.loc 1 150 5 is_stmt 1 discriminator 2 view .LVU153
 150:lvgl/src/lv_widgets/lv_linemeter.c **** 
 515              		.loc 1 150 11 is_stmt 0 discriminator 2 view .LVU154
 516 0022 C368     		ldr	r3, [r0, #12]
 150:lvgl/src/lv_widgets/lv_linemeter.c **** 
 517              		.loc 1 150 7 discriminator 2 view .LVU155
 518 0024 B342     		cmp	r3, r6
 519 0026 0BD0     		beq	.L41
 520              	.L36:
 152:lvgl/src/lv_widgets/lv_linemeter.c ****     ext->min_value = min;
 521              		.loc 1 152 5 is_stmt 1 view .LVU156
 152:lvgl/src/lv_widgets/lv_linemeter.c ****     ext->min_value = min;
 522              		.loc 1 152 20 is_stmt 0 view .LVU157
 523 0028 2761     		str	r7, [r4, #16]
 153:lvgl/src/lv_widgets/lv_linemeter.c ****     if(ext->cur_value > max) {
 524              		.loc 1 153 5 is_stmt 1 view .LVU158
 153:lvgl/src/lv_widgets/lv_linemeter.c ****     if(ext->cur_value > max) {
 525              		.loc 1 153 20 is_stmt 0 view .LVU159
 526 002a E660     		str	r6, [r4, #12]
 154:lvgl/src/lv_widgets/lv_linemeter.c ****         ext->cur_value = max;
 527              		.loc 1 154 5 is_stmt 1 view .LVU160
 154:lvgl/src/lv_widgets/lv_linemeter.c ****         ext->cur_value = max;
 528              		.loc 1 154 11 is_stmt 0 view .LVU161
 529 002c A368     		ldr	r3, [r4, #8]
 154:lvgl/src/lv_widgets/lv_linemeter.c ****         ext->cur_value = max;
 530              		.loc 1 154 7 view .LVU162
 531 002e BB42     		cmp	r3, r7
 532 0030 0ADC     		bgt	.L42
 533              	.LVL50:
 534              	.L38:
 158:lvgl/src/lv_widgets/lv_linemeter.c ****         ext->cur_value = min;
 535              		.loc 1 158 5 is_stmt 1 view .LVU163
 158:lvgl/src/lv_widgets/lv_linemeter.c ****         ext->cur_value = min;
 536              		.loc 1 158 11 is_stmt 0 view .LVU164
 537 0032 A368     		ldr	r3, [r4, #8]
 158:lvgl/src/lv_widgets/lv_linemeter.c ****         ext->cur_value = min;
 538              		.loc 1 158 7 view .LVU165
 539 0034 B342     		cmp	r3, r6
 540 0036 0DDB     		blt	.L43
 541              	.L39:
 162:lvgl/src/lv_widgets/lv_linemeter.c **** }
 542              		.loc 1 162 5 is_stmt 1 view .LVU166
 543 0038 2846     		mov	r0, r5
 544 003a FFF7FEFF 		bl	lv_obj_invalidate
 545              	.LVL51:
 546              	.L33:
 163:lvgl/src/lv_widgets/lv_linemeter.c **** 
 547              		.loc 1 163 1 is_stmt 0 view .LVU167
 548 003e F8BD     		pop	{r3, r4, r5, r6, r7, pc}
 549              	.LVL52:
 550              	.L41:
 150:lvgl/src/lv_widgets/lv_linemeter.c **** 
 551              		.loc 1 150 36 discriminator 1 view .LVU168
 552 0040 0369     		ldr	r3, [r0, #16]
 150:lvgl/src/lv_widgets/lv_linemeter.c **** 
ARM GAS  D:\Temp\ccIs2YtX.s 			page 23


 553              		.loc 1 150 30 discriminator 1 view .LVU169
 554 0042 BB42     		cmp	r3, r7
 555 0044 F0D1     		bne	.L36
 556 0046 FAE7     		b	.L33
 557              	.L42:
 155:lvgl/src/lv_widgets/lv_linemeter.c ****         lv_linemeter_set_value(lmeter, ext->cur_value);
 558              		.loc 1 155 9 is_stmt 1 view .LVU170
 155:lvgl/src/lv_widgets/lv_linemeter.c ****         lv_linemeter_set_value(lmeter, ext->cur_value);
 559              		.loc 1 155 24 is_stmt 0 view .LVU171
 560 0048 A760     		str	r7, [r4, #8]
 156:lvgl/src/lv_widgets/lv_linemeter.c ****     }
 561              		.loc 1 156 9 is_stmt 1 view .LVU172
 562 004a 3946     		mov	r1, r7
 563 004c 2846     		mov	r0, r5
 564              	.LVL53:
 156:lvgl/src/lv_widgets/lv_linemeter.c ****     }
 565              		.loc 1 156 9 is_stmt 0 view .LVU173
 566 004e FFF7FEFF 		bl	lv_linemeter_set_value
 567              	.LVL54:
 568 0052 EEE7     		b	.L38
 569              	.L43:
 159:lvgl/src/lv_widgets/lv_linemeter.c ****         lv_linemeter_set_value(lmeter, ext->cur_value);
 570              		.loc 1 159 9 is_stmt 1 view .LVU174
 159:lvgl/src/lv_widgets/lv_linemeter.c ****         lv_linemeter_set_value(lmeter, ext->cur_value);
 571              		.loc 1 159 24 is_stmt 0 view .LVU175
 572 0054 A660     		str	r6, [r4, #8]
 160:lvgl/src/lv_widgets/lv_linemeter.c ****     }
 573              		.loc 1 160 9 is_stmt 1 view .LVU176
 574 0056 3146     		mov	r1, r6
 575 0058 2846     		mov	r0, r5
 576 005a FFF7FEFF 		bl	lv_linemeter_set_value
 577              	.LVL55:
 578 005e EBE7     		b	.L39
 579              	.L45:
 580              		.align	2
 581              	.L44:
 582 0060 00000000 		.word	.LC2
 583              		.cfi_endproc
 584              	.LFE460:
 586              		.section	.text.lv_linemeter_set_scale,"ax",%progbits
 587              		.align	1
 588              		.global	lv_linemeter_set_scale
 589              		.syntax unified
 590              		.thumb
 591              		.thumb_func
 592              		.fpu fpv4-sp-d16
 594              	lv_linemeter_set_scale:
 595              	.LVL56:
 596              	.LFB461:
 172:lvgl/src/lv_widgets/lv_linemeter.c ****     LV_ASSERT_OBJ(lmeter, LV_OBJX_NAME);
 597              		.loc 1 172 1 view -0
 598              		.cfi_startproc
 599              		@ args = 0, pretend = 0, frame = 0
 600              		@ frame_needed = 0, uses_anonymous_args = 0
 172:lvgl/src/lv_widgets/lv_linemeter.c ****     LV_ASSERT_OBJ(lmeter, LV_OBJX_NAME);
 601              		.loc 1 172 1 is_stmt 0 view .LVU178
 602 0000 70B5     		push	{r4, r5, r6, lr}
ARM GAS  D:\Temp\ccIs2YtX.s 			page 24


 603              	.LCFI4:
 604              		.cfi_def_cfa_offset 16
 605              		.cfi_offset 4, -16
 606              		.cfi_offset 5, -12
 607              		.cfi_offset 6, -8
 608              		.cfi_offset 14, -4
 609 0002 0446     		mov	r4, r0
 610 0004 0E46     		mov	r6, r1
 611 0006 1546     		mov	r5, r2
 173:lvgl/src/lv_widgets/lv_linemeter.c **** 
 612              		.loc 1 173 5 is_stmt 1 view .LVU179
 173:lvgl/src/lv_widgets/lv_linemeter.c **** 
 613              		.loc 1 173 5 view .LVU180
 614 0008 FFF7FEFF 		bl	lv_debug_check_null
 615              	.LVL57:
 173:lvgl/src/lv_widgets/lv_linemeter.c **** 
 616              		.loc 1 173 5 is_stmt 0 view .LVU181
 617 000c 28B9     		cbnz	r0, .L47
 173:lvgl/src/lv_widgets/lv_linemeter.c **** 
 618              		.loc 1 173 5 is_stmt 1 discriminator 1 view .LVU182
 173:lvgl/src/lv_widgets/lv_linemeter.c **** 
 619              		.loc 1 173 5 discriminator 1 view .LVU183
 620 000e 2246     		mov	r2, r4
 621 0010 0023     		movs	r3, #0
 622 0012 0948     		ldr	r0, .L52
 623 0014 FFF7FEFF 		bl	lv_debug_log_error
 624              	.LVL58:
 625              	.L48:
 173:lvgl/src/lv_widgets/lv_linemeter.c **** 
 626              		.loc 1 173 5 discriminator 1 view .LVU184
 173:lvgl/src/lv_widgets/lv_linemeter.c **** 
 627              		.loc 1 173 5 discriminator 1 view .LVU185
 628 0018 FEE7     		b	.L48
 629              	.L47:
 173:lvgl/src/lv_widgets/lv_linemeter.c **** 
 630              		.loc 1 173 40 discriminator 2 view .LVU186
 175:lvgl/src/lv_widgets/lv_linemeter.c ****     if(ext->scale_angle == angle && ext->line_cnt == line_cnt) return;
 631              		.loc 1 175 5 discriminator 2 view .LVU187
 175:lvgl/src/lv_widgets/lv_linemeter.c ****     if(ext->scale_angle == angle && ext->line_cnt == line_cnt) return;
 632              		.loc 1 175 32 is_stmt 0 discriminator 2 view .LVU188
 633 001a 2046     		mov	r0, r4
 634 001c FFF7FEFF 		bl	lv_obj_get_ext_attr
 635              	.LVL59:
 176:lvgl/src/lv_widgets/lv_linemeter.c **** 
 636              		.loc 1 176 5 is_stmt 1 discriminator 2 view .LVU189
 176:lvgl/src/lv_widgets/lv_linemeter.c **** 
 637              		.loc 1 176 11 is_stmt 0 discriminator 2 view .LVU190
 638 0020 0388     		ldrh	r3, [r0]
 176:lvgl/src/lv_widgets/lv_linemeter.c **** 
 639              		.loc 1 176 7 discriminator 2 view .LVU191
 640 0022 B342     		cmp	r3, r6
 641 0024 02D1     		bne	.L49
 176:lvgl/src/lv_widgets/lv_linemeter.c **** 
 642              		.loc 1 176 40 discriminator 1 view .LVU192
 643 0026 8388     		ldrh	r3, [r0, #4]
 176:lvgl/src/lv_widgets/lv_linemeter.c **** 
 644              		.loc 1 176 34 discriminator 1 view .LVU193
ARM GAS  D:\Temp\ccIs2YtX.s 			page 25


 645 0028 AB42     		cmp	r3, r5
 646 002a 04D0     		beq	.L46
 647              	.L49:
 178:lvgl/src/lv_widgets/lv_linemeter.c ****     ext->line_cnt    = line_cnt;
 648              		.loc 1 178 5 is_stmt 1 view .LVU194
 178:lvgl/src/lv_widgets/lv_linemeter.c ****     ext->line_cnt    = line_cnt;
 649              		.loc 1 178 22 is_stmt 0 view .LVU195
 650 002c 0680     		strh	r6, [r0]	@ movhi
 179:lvgl/src/lv_widgets/lv_linemeter.c **** 
 651              		.loc 1 179 5 is_stmt 1 view .LVU196
 179:lvgl/src/lv_widgets/lv_linemeter.c **** 
 652              		.loc 1 179 22 is_stmt 0 view .LVU197
 653 002e 8580     		strh	r5, [r0, #4]	@ movhi
 181:lvgl/src/lv_widgets/lv_linemeter.c **** }
 654              		.loc 1 181 5 is_stmt 1 view .LVU198
 655 0030 2046     		mov	r0, r4
 656              	.LVL60:
 181:lvgl/src/lv_widgets/lv_linemeter.c **** }
 657              		.loc 1 181 5 is_stmt 0 view .LVU199
 658 0032 FFF7FEFF 		bl	lv_obj_invalidate
 659              	.LVL61:
 660              	.L46:
 182:lvgl/src/lv_widgets/lv_linemeter.c **** 
 661              		.loc 1 182 1 view .LVU200
 662 0036 70BD     		pop	{r4, r5, r6, pc}
 663              	.LVL62:
 664              	.L53:
 182:lvgl/src/lv_widgets/lv_linemeter.c **** 
 665              		.loc 1 182 1 view .LVU201
 666              		.align	2
 667              	.L52:
 668 0038 00000000 		.word	.LC2
 669              		.cfi_endproc
 670              	.LFE461:
 672              		.section	.text.lv_linemeter_set_angle_offset,"ax",%progbits
 673              		.align	1
 674              		.global	lv_linemeter_set_angle_offset
 675              		.syntax unified
 676              		.thumb
 677              		.thumb_func
 678              		.fpu fpv4-sp-d16
 680              	lv_linemeter_set_angle_offset:
 681              	.LVL63:
 682              	.LFB462:
 190:lvgl/src/lv_widgets/lv_linemeter.c ****     lv_linemeter_ext_t * ext = lv_obj_get_ext_attr(lmeter);
 683              		.loc 1 190 1 is_stmt 1 view -0
 684              		.cfi_startproc
 685              		@ args = 0, pretend = 0, frame = 0
 686              		@ frame_needed = 0, uses_anonymous_args = 0
 190:lvgl/src/lv_widgets/lv_linemeter.c ****     lv_linemeter_ext_t * ext = lv_obj_get_ext_attr(lmeter);
 687              		.loc 1 190 1 is_stmt 0 view .LVU203
 688 0000 38B5     		push	{r3, r4, r5, lr}
 689              	.LCFI5:
 690              		.cfi_def_cfa_offset 16
 691              		.cfi_offset 3, -16
 692              		.cfi_offset 4, -12
 693              		.cfi_offset 5, -8
ARM GAS  D:\Temp\ccIs2YtX.s 			page 26


 694              		.cfi_offset 14, -4
 695 0002 0546     		mov	r5, r0
 696 0004 0C46     		mov	r4, r1
 191:lvgl/src/lv_widgets/lv_linemeter.c ****     if(ext->angle_ofs == angle) return;
 697              		.loc 1 191 5 is_stmt 1 view .LVU204
 191:lvgl/src/lv_widgets/lv_linemeter.c ****     if(ext->angle_ofs == angle) return;
 698              		.loc 1 191 32 is_stmt 0 view .LVU205
 699 0006 FFF7FEFF 		bl	lv_obj_get_ext_attr
 700              	.LVL64:
 192:lvgl/src/lv_widgets/lv_linemeter.c **** 
 701              		.loc 1 192 5 is_stmt 1 view .LVU206
 192:lvgl/src/lv_widgets/lv_linemeter.c **** 
 702              		.loc 1 192 11 is_stmt 0 view .LVU207
 703 000a 4388     		ldrh	r3, [r0, #2]
 192:lvgl/src/lv_widgets/lv_linemeter.c **** 
 704              		.loc 1 192 7 view .LVU208
 705 000c A342     		cmp	r3, r4
 706 000e 03D0     		beq	.L54
 194:lvgl/src/lv_widgets/lv_linemeter.c **** 
 707              		.loc 1 194 5 is_stmt 1 view .LVU209
 194:lvgl/src/lv_widgets/lv_linemeter.c **** 
 708              		.loc 1 194 20 is_stmt 0 view .LVU210
 709 0010 4480     		strh	r4, [r0, #2]	@ movhi
 196:lvgl/src/lv_widgets/lv_linemeter.c **** }
 710              		.loc 1 196 5 is_stmt 1 view .LVU211
 711 0012 2846     		mov	r0, r5
 712              	.LVL65:
 196:lvgl/src/lv_widgets/lv_linemeter.c **** }
 713              		.loc 1 196 5 is_stmt 0 view .LVU212
 714 0014 FFF7FEFF 		bl	lv_obj_invalidate
 715              	.LVL66:
 716              	.L54:
 197:lvgl/src/lv_widgets/lv_linemeter.c **** 
 717              		.loc 1 197 1 view .LVU213
 718 0018 38BD     		pop	{r3, r4, r5, pc}
 197:lvgl/src/lv_widgets/lv_linemeter.c **** 
 719              		.loc 1 197 1 view .LVU214
 720              		.cfi_endproc
 721              	.LFE462:
 723              		.section	.text.lv_linemeter_set_mirror,"ax",%progbits
 724              		.align	1
 725              		.global	lv_linemeter_set_mirror
 726              		.syntax unified
 727              		.thumb
 728              		.thumb_func
 729              		.fpu fpv4-sp-d16
 731              	lv_linemeter_set_mirror:
 732              	.LVL67:
 733              	.LFB463:
 205:lvgl/src/lv_widgets/lv_linemeter.c ****     lv_linemeter_ext_t * ext = lv_obj_get_ext_attr(lmeter);
 734              		.loc 1 205 1 is_stmt 1 view -0
 735              		.cfi_startproc
 736              		@ args = 0, pretend = 0, frame = 0
 737              		@ frame_needed = 0, uses_anonymous_args = 0
 205:lvgl/src/lv_widgets/lv_linemeter.c ****     lv_linemeter_ext_t * ext = lv_obj_get_ext_attr(lmeter);
 738              		.loc 1 205 1 is_stmt 0 view .LVU216
 739 0000 38B5     		push	{r3, r4, r5, lr}
ARM GAS  D:\Temp\ccIs2YtX.s 			page 27


 740              	.LCFI6:
 741              		.cfi_def_cfa_offset 16
 742              		.cfi_offset 3, -16
 743              		.cfi_offset 4, -12
 744              		.cfi_offset 5, -8
 745              		.cfi_offset 14, -4
 746 0002 0546     		mov	r5, r0
 747 0004 0C46     		mov	r4, r1
 206:lvgl/src/lv_widgets/lv_linemeter.c ****     if(ext->mirrored == mirror) return;
 748              		.loc 1 206 5 is_stmt 1 view .LVU217
 206:lvgl/src/lv_widgets/lv_linemeter.c ****     if(ext->mirrored == mirror) return;
 749              		.loc 1 206 32 is_stmt 0 view .LVU218
 750 0006 FFF7FEFF 		bl	lv_obj_get_ext_attr
 751              	.LVL68:
 207:lvgl/src/lv_widgets/lv_linemeter.c **** 
 752              		.loc 1 207 5 is_stmt 1 view .LVU219
 207:lvgl/src/lv_widgets/lv_linemeter.c **** 
 753              		.loc 1 207 11 is_stmt 0 view .LVU220
 754 000a 037D     		ldrb	r3, [r0, #20]	@ zero_extendqisi2
 755 000c 03F00103 		and	r3, r3, #1
 207:lvgl/src/lv_widgets/lv_linemeter.c **** 
 756              		.loc 1 207 7 view .LVU221
 757 0010 A342     		cmp	r3, r4
 758 0012 06D0     		beq	.L57
 209:lvgl/src/lv_widgets/lv_linemeter.c **** 
 759              		.loc 1 209 5 is_stmt 1 view .LVU222
 209:lvgl/src/lv_widgets/lv_linemeter.c **** 
 760              		.loc 1 209 19 is_stmt 0 view .LVU223
 761 0014 037D     		ldrb	r3, [r0, #20]	@ zero_extendqisi2
 762 0016 64F30003 		bfi	r3, r4, #0, #1
 763 001a 0375     		strb	r3, [r0, #20]
 211:lvgl/src/lv_widgets/lv_linemeter.c **** }
 764              		.loc 1 211 5 is_stmt 1 view .LVU224
 765 001c 2846     		mov	r0, r5
 766              	.LVL69:
 211:lvgl/src/lv_widgets/lv_linemeter.c **** }
 767              		.loc 1 211 5 is_stmt 0 view .LVU225
 768 001e FFF7FEFF 		bl	lv_obj_invalidate
 769              	.LVL70:
 770              	.L57:
 212:lvgl/src/lv_widgets/lv_linemeter.c **** 
 771              		.loc 1 212 1 view .LVU226
 772 0022 38BD     		pop	{r3, r4, r5, pc}
 212:lvgl/src/lv_widgets/lv_linemeter.c **** 
 773              		.loc 1 212 1 view .LVU227
 774              		.cfi_endproc
 775              	.LFE463:
 777              		.section	.text.lv_linemeter_get_value,"ax",%progbits
 778              		.align	1
 779              		.global	lv_linemeter_get_value
 780              		.syntax unified
 781              		.thumb
 782              		.thumb_func
 783              		.fpu fpv4-sp-d16
 785              	lv_linemeter_get_value:
 786              	.LVL71:
 787              	.LFB464:
ARM GAS  D:\Temp\ccIs2YtX.s 			page 28


 224:lvgl/src/lv_widgets/lv_linemeter.c ****     LV_ASSERT_OBJ(lmeter, LV_OBJX_NAME);
 788              		.loc 1 224 1 is_stmt 1 view -0
 789              		.cfi_startproc
 790              		@ args = 0, pretend = 0, frame = 0
 791              		@ frame_needed = 0, uses_anonymous_args = 0
 224:lvgl/src/lv_widgets/lv_linemeter.c ****     LV_ASSERT_OBJ(lmeter, LV_OBJX_NAME);
 792              		.loc 1 224 1 is_stmt 0 view .LVU229
 793 0000 10B5     		push	{r4, lr}
 794              	.LCFI7:
 795              		.cfi_def_cfa_offset 8
 796              		.cfi_offset 4, -8
 797              		.cfi_offset 14, -4
 798 0002 0446     		mov	r4, r0
 225:lvgl/src/lv_widgets/lv_linemeter.c **** 
 799              		.loc 1 225 5 is_stmt 1 view .LVU230
 225:lvgl/src/lv_widgets/lv_linemeter.c **** 
 800              		.loc 1 225 5 view .LVU231
 801 0004 FFF7FEFF 		bl	lv_debug_check_null
 802              	.LVL72:
 225:lvgl/src/lv_widgets/lv_linemeter.c **** 
 803              		.loc 1 225 5 is_stmt 0 view .LVU232
 804 0008 28B9     		cbnz	r0, .L61
 225:lvgl/src/lv_widgets/lv_linemeter.c **** 
 805              		.loc 1 225 5 is_stmt 1 discriminator 1 view .LVU233
 225:lvgl/src/lv_widgets/lv_linemeter.c **** 
 806              		.loc 1 225 5 discriminator 1 view .LVU234
 807 000a 2246     		mov	r2, r4
 808 000c 0023     		movs	r3, #0
 809 000e 0448     		ldr	r0, .L64
 810 0010 FFF7FEFF 		bl	lv_debug_log_error
 811              	.LVL73:
 812              	.L62:
 225:lvgl/src/lv_widgets/lv_linemeter.c **** 
 813              		.loc 1 225 5 discriminator 1 view .LVU235
 225:lvgl/src/lv_widgets/lv_linemeter.c **** 
 814              		.loc 1 225 5 discriminator 1 view .LVU236
 815 0014 FEE7     		b	.L62
 816              	.L61:
 225:lvgl/src/lv_widgets/lv_linemeter.c **** 
 817              		.loc 1 225 40 discriminator 2 view .LVU237
 227:lvgl/src/lv_widgets/lv_linemeter.c ****     return ext->cur_value;
 818              		.loc 1 227 5 discriminator 2 view .LVU238
 227:lvgl/src/lv_widgets/lv_linemeter.c ****     return ext->cur_value;
 819              		.loc 1 227 32 is_stmt 0 discriminator 2 view .LVU239
 820 0016 2046     		mov	r0, r4
 821 0018 FFF7FEFF 		bl	lv_obj_get_ext_attr
 822              	.LVL74:
 228:lvgl/src/lv_widgets/lv_linemeter.c **** }
 823              		.loc 1 228 5 is_stmt 1 discriminator 2 view .LVU240
 229:lvgl/src/lv_widgets/lv_linemeter.c **** 
 824              		.loc 1 229 1 is_stmt 0 discriminator 2 view .LVU241
 825 001c 8068     		ldr	r0, [r0, #8]
 826              	.LVL75:
 229:lvgl/src/lv_widgets/lv_linemeter.c **** 
 827              		.loc 1 229 1 discriminator 2 view .LVU242
 828 001e 10BD     		pop	{r4, pc}
 829              	.LVL76:
ARM GAS  D:\Temp\ccIs2YtX.s 			page 29


 830              	.L65:
 229:lvgl/src/lv_widgets/lv_linemeter.c **** 
 831              		.loc 1 229 1 discriminator 2 view .LVU243
 832              		.align	2
 833              	.L64:
 834 0020 00000000 		.word	.LC2
 835              		.cfi_endproc
 836              	.LFE464:
 838              		.section	.text.lv_linemeter_get_min_value,"ax",%progbits
 839              		.align	1
 840              		.global	lv_linemeter_get_min_value
 841              		.syntax unified
 842              		.thumb
 843              		.thumb_func
 844              		.fpu fpv4-sp-d16
 846              	lv_linemeter_get_min_value:
 847              	.LVL77:
 848              	.LFB465:
 237:lvgl/src/lv_widgets/lv_linemeter.c ****     LV_ASSERT_OBJ(lmeter, LV_OBJX_NAME);
 849              		.loc 1 237 1 is_stmt 1 view -0
 850              		.cfi_startproc
 851              		@ args = 0, pretend = 0, frame = 0
 852              		@ frame_needed = 0, uses_anonymous_args = 0
 237:lvgl/src/lv_widgets/lv_linemeter.c ****     LV_ASSERT_OBJ(lmeter, LV_OBJX_NAME);
 853              		.loc 1 237 1 is_stmt 0 view .LVU245
 854 0000 10B5     		push	{r4, lr}
 855              	.LCFI8:
 856              		.cfi_def_cfa_offset 8
 857              		.cfi_offset 4, -8
 858              		.cfi_offset 14, -4
 859 0002 0446     		mov	r4, r0
 238:lvgl/src/lv_widgets/lv_linemeter.c **** 
 860              		.loc 1 238 5 is_stmt 1 view .LVU246
 238:lvgl/src/lv_widgets/lv_linemeter.c **** 
 861              		.loc 1 238 5 view .LVU247
 862 0004 FFF7FEFF 		bl	lv_debug_check_null
 863              	.LVL78:
 238:lvgl/src/lv_widgets/lv_linemeter.c **** 
 864              		.loc 1 238 5 is_stmt 0 view .LVU248
 865 0008 28B9     		cbnz	r0, .L67
 238:lvgl/src/lv_widgets/lv_linemeter.c **** 
 866              		.loc 1 238 5 is_stmt 1 discriminator 1 view .LVU249
 238:lvgl/src/lv_widgets/lv_linemeter.c **** 
 867              		.loc 1 238 5 discriminator 1 view .LVU250
 868 000a 2246     		mov	r2, r4
 869 000c 0023     		movs	r3, #0
 870 000e 0448     		ldr	r0, .L70
 871 0010 FFF7FEFF 		bl	lv_debug_log_error
 872              	.LVL79:
 873              	.L68:
 238:lvgl/src/lv_widgets/lv_linemeter.c **** 
 874              		.loc 1 238 5 discriminator 1 view .LVU251
 238:lvgl/src/lv_widgets/lv_linemeter.c **** 
 875              		.loc 1 238 5 discriminator 1 view .LVU252
 876 0014 FEE7     		b	.L68
 877              	.L67:
 238:lvgl/src/lv_widgets/lv_linemeter.c **** 
ARM GAS  D:\Temp\ccIs2YtX.s 			page 30


 878              		.loc 1 238 40 discriminator 2 view .LVU253
 240:lvgl/src/lv_widgets/lv_linemeter.c ****     return ext->min_value;
 879              		.loc 1 240 5 discriminator 2 view .LVU254
 240:lvgl/src/lv_widgets/lv_linemeter.c ****     return ext->min_value;
 880              		.loc 1 240 32 is_stmt 0 discriminator 2 view .LVU255
 881 0016 2046     		mov	r0, r4
 882 0018 FFF7FEFF 		bl	lv_obj_get_ext_attr
 883              	.LVL80:
 241:lvgl/src/lv_widgets/lv_linemeter.c **** }
 884              		.loc 1 241 5 is_stmt 1 discriminator 2 view .LVU256
 242:lvgl/src/lv_widgets/lv_linemeter.c **** 
 885              		.loc 1 242 1 is_stmt 0 discriminator 2 view .LVU257
 886 001c C068     		ldr	r0, [r0, #12]
 887              	.LVL81:
 242:lvgl/src/lv_widgets/lv_linemeter.c **** 
 888              		.loc 1 242 1 discriminator 2 view .LVU258
 889 001e 10BD     		pop	{r4, pc}
 890              	.LVL82:
 891              	.L71:
 242:lvgl/src/lv_widgets/lv_linemeter.c **** 
 892              		.loc 1 242 1 discriminator 2 view .LVU259
 893              		.align	2
 894              	.L70:
 895 0020 00000000 		.word	.LC2
 896              		.cfi_endproc
 897              	.LFE465:
 899              		.section	.text.lv_linemeter_get_max_value,"ax",%progbits
 900              		.align	1
 901              		.global	lv_linemeter_get_max_value
 902              		.syntax unified
 903              		.thumb
 904              		.thumb_func
 905              		.fpu fpv4-sp-d16
 907              	lv_linemeter_get_max_value:
 908              	.LVL83:
 909              	.LFB466:
 250:lvgl/src/lv_widgets/lv_linemeter.c ****     LV_ASSERT_OBJ(lmeter, LV_OBJX_NAME);
 910              		.loc 1 250 1 is_stmt 1 view -0
 911              		.cfi_startproc
 912              		@ args = 0, pretend = 0, frame = 0
 913              		@ frame_needed = 0, uses_anonymous_args = 0
 250:lvgl/src/lv_widgets/lv_linemeter.c ****     LV_ASSERT_OBJ(lmeter, LV_OBJX_NAME);
 914              		.loc 1 250 1 is_stmt 0 view .LVU261
 915 0000 10B5     		push	{r4, lr}
 916              	.LCFI9:
 917              		.cfi_def_cfa_offset 8
 918              		.cfi_offset 4, -8
 919              		.cfi_offset 14, -4
 920 0002 0446     		mov	r4, r0
 251:lvgl/src/lv_widgets/lv_linemeter.c **** 
 921              		.loc 1 251 5 is_stmt 1 view .LVU262
 251:lvgl/src/lv_widgets/lv_linemeter.c **** 
 922              		.loc 1 251 5 view .LVU263
 923 0004 FFF7FEFF 		bl	lv_debug_check_null
 924              	.LVL84:
 251:lvgl/src/lv_widgets/lv_linemeter.c **** 
 925              		.loc 1 251 5 is_stmt 0 view .LVU264
ARM GAS  D:\Temp\ccIs2YtX.s 			page 31


 926 0008 28B9     		cbnz	r0, .L73
 251:lvgl/src/lv_widgets/lv_linemeter.c **** 
 927              		.loc 1 251 5 is_stmt 1 discriminator 1 view .LVU265
 251:lvgl/src/lv_widgets/lv_linemeter.c **** 
 928              		.loc 1 251 5 discriminator 1 view .LVU266
 929 000a 2246     		mov	r2, r4
 930 000c 0023     		movs	r3, #0
 931 000e 0448     		ldr	r0, .L76
 932 0010 FFF7FEFF 		bl	lv_debug_log_error
 933              	.LVL85:
 934              	.L74:
 251:lvgl/src/lv_widgets/lv_linemeter.c **** 
 935              		.loc 1 251 5 discriminator 1 view .LVU267
 251:lvgl/src/lv_widgets/lv_linemeter.c **** 
 936              		.loc 1 251 5 discriminator 1 view .LVU268
 937 0014 FEE7     		b	.L74
 938              	.L73:
 251:lvgl/src/lv_widgets/lv_linemeter.c **** 
 939              		.loc 1 251 40 discriminator 2 view .LVU269
 253:lvgl/src/lv_widgets/lv_linemeter.c ****     return ext->max_value;
 940              		.loc 1 253 5 discriminator 2 view .LVU270
 253:lvgl/src/lv_widgets/lv_linemeter.c ****     return ext->max_value;
 941              		.loc 1 253 32 is_stmt 0 discriminator 2 view .LVU271
 942 0016 2046     		mov	r0, r4
 943 0018 FFF7FEFF 		bl	lv_obj_get_ext_attr
 944              	.LVL86:
 254:lvgl/src/lv_widgets/lv_linemeter.c **** }
 945              		.loc 1 254 5 is_stmt 1 discriminator 2 view .LVU272
 255:lvgl/src/lv_widgets/lv_linemeter.c **** 
 946              		.loc 1 255 1 is_stmt 0 discriminator 2 view .LVU273
 947 001c 0069     		ldr	r0, [r0, #16]
 948              	.LVL87:
 255:lvgl/src/lv_widgets/lv_linemeter.c **** 
 949              		.loc 1 255 1 discriminator 2 view .LVU274
 950 001e 10BD     		pop	{r4, pc}
 951              	.LVL88:
 952              	.L77:
 255:lvgl/src/lv_widgets/lv_linemeter.c **** 
 953              		.loc 1 255 1 discriminator 2 view .LVU275
 954              		.align	2
 955              	.L76:
 956 0020 00000000 		.word	.LC2
 957              		.cfi_endproc
 958              	.LFE466:
 960              		.section	.text.lv_linemeter_get_line_count,"ax",%progbits
 961              		.align	1
 962              		.global	lv_linemeter_get_line_count
 963              		.syntax unified
 964              		.thumb
 965              		.thumb_func
 966              		.fpu fpv4-sp-d16
 968              	lv_linemeter_get_line_count:
 969              	.LVL89:
 970              	.LFB467:
 263:lvgl/src/lv_widgets/lv_linemeter.c ****     LV_ASSERT_OBJ(lmeter, LV_OBJX_NAME);
 971              		.loc 1 263 1 is_stmt 1 view -0
 972              		.cfi_startproc
ARM GAS  D:\Temp\ccIs2YtX.s 			page 32


 973              		@ args = 0, pretend = 0, frame = 0
 974              		@ frame_needed = 0, uses_anonymous_args = 0
 263:lvgl/src/lv_widgets/lv_linemeter.c ****     LV_ASSERT_OBJ(lmeter, LV_OBJX_NAME);
 975              		.loc 1 263 1 is_stmt 0 view .LVU277
 976 0000 10B5     		push	{r4, lr}
 977              	.LCFI10:
 978              		.cfi_def_cfa_offset 8
 979              		.cfi_offset 4, -8
 980              		.cfi_offset 14, -4
 981 0002 0446     		mov	r4, r0
 264:lvgl/src/lv_widgets/lv_linemeter.c **** 
 982              		.loc 1 264 5 is_stmt 1 view .LVU278
 264:lvgl/src/lv_widgets/lv_linemeter.c **** 
 983              		.loc 1 264 5 view .LVU279
 984 0004 FFF7FEFF 		bl	lv_debug_check_null
 985              	.LVL90:
 264:lvgl/src/lv_widgets/lv_linemeter.c **** 
 986              		.loc 1 264 5 is_stmt 0 view .LVU280
 987 0008 28B9     		cbnz	r0, .L79
 264:lvgl/src/lv_widgets/lv_linemeter.c **** 
 988              		.loc 1 264 5 is_stmt 1 discriminator 1 view .LVU281
 264:lvgl/src/lv_widgets/lv_linemeter.c **** 
 989              		.loc 1 264 5 discriminator 1 view .LVU282
 990 000a 2246     		mov	r2, r4
 991 000c 0023     		movs	r3, #0
 992 000e 0448     		ldr	r0, .L82
 993 0010 FFF7FEFF 		bl	lv_debug_log_error
 994              	.LVL91:
 995              	.L80:
 264:lvgl/src/lv_widgets/lv_linemeter.c **** 
 996              		.loc 1 264 5 discriminator 1 view .LVU283
 264:lvgl/src/lv_widgets/lv_linemeter.c **** 
 997              		.loc 1 264 5 discriminator 1 view .LVU284
 998 0014 FEE7     		b	.L80
 999              	.L79:
 264:lvgl/src/lv_widgets/lv_linemeter.c **** 
 1000              		.loc 1 264 40 discriminator 2 view .LVU285
 266:lvgl/src/lv_widgets/lv_linemeter.c ****     return ext->line_cnt;
 1001              		.loc 1 266 5 discriminator 2 view .LVU286
 266:lvgl/src/lv_widgets/lv_linemeter.c ****     return ext->line_cnt;
 1002              		.loc 1 266 32 is_stmt 0 discriminator 2 view .LVU287
 1003 0016 2046     		mov	r0, r4
 1004 0018 FFF7FEFF 		bl	lv_obj_get_ext_attr
 1005              	.LVL92:
 267:lvgl/src/lv_widgets/lv_linemeter.c **** }
 1006              		.loc 1 267 5 is_stmt 1 discriminator 2 view .LVU288
 268:lvgl/src/lv_widgets/lv_linemeter.c **** 
 1007              		.loc 1 268 1 is_stmt 0 discriminator 2 view .LVU289
 1008 001c 8088     		ldrh	r0, [r0, #4]
 1009              	.LVL93:
 268:lvgl/src/lv_widgets/lv_linemeter.c **** 
 1010              		.loc 1 268 1 discriminator 2 view .LVU290
 1011 001e 10BD     		pop	{r4, pc}
 1012              	.LVL94:
 1013              	.L83:
 268:lvgl/src/lv_widgets/lv_linemeter.c **** 
 1014              		.loc 1 268 1 discriminator 2 view .LVU291
ARM GAS  D:\Temp\ccIs2YtX.s 			page 33


 1015              		.align	2
 1016              	.L82:
 1017 0020 00000000 		.word	.LC2
 1018              		.cfi_endproc
 1019              	.LFE467:
 1021              		.section	.text.lv_linemeter_get_scale_angle,"ax",%progbits
 1022              		.align	1
 1023              		.global	lv_linemeter_get_scale_angle
 1024              		.syntax unified
 1025              		.thumb
 1026              		.thumb_func
 1027              		.fpu fpv4-sp-d16
 1029              	lv_linemeter_get_scale_angle:
 1030              	.LVL95:
 1031              	.LFB468:
 276:lvgl/src/lv_widgets/lv_linemeter.c ****     LV_ASSERT_OBJ(lmeter, LV_OBJX_NAME);
 1032              		.loc 1 276 1 is_stmt 1 view -0
 1033              		.cfi_startproc
 1034              		@ args = 0, pretend = 0, frame = 0
 1035              		@ frame_needed = 0, uses_anonymous_args = 0
 276:lvgl/src/lv_widgets/lv_linemeter.c ****     LV_ASSERT_OBJ(lmeter, LV_OBJX_NAME);
 1036              		.loc 1 276 1 is_stmt 0 view .LVU293
 1037 0000 10B5     		push	{r4, lr}
 1038              	.LCFI11:
 1039              		.cfi_def_cfa_offset 8
 1040              		.cfi_offset 4, -8
 1041              		.cfi_offset 14, -4
 1042 0002 0446     		mov	r4, r0
 277:lvgl/src/lv_widgets/lv_linemeter.c **** 
 1043              		.loc 1 277 5 is_stmt 1 view .LVU294
 277:lvgl/src/lv_widgets/lv_linemeter.c **** 
 1044              		.loc 1 277 5 view .LVU295
 1045 0004 FFF7FEFF 		bl	lv_debug_check_null
 1046              	.LVL96:
 277:lvgl/src/lv_widgets/lv_linemeter.c **** 
 1047              		.loc 1 277 5 is_stmt 0 view .LVU296
 1048 0008 28B9     		cbnz	r0, .L85
 277:lvgl/src/lv_widgets/lv_linemeter.c **** 
 1049              		.loc 1 277 5 is_stmt 1 discriminator 1 view .LVU297
 277:lvgl/src/lv_widgets/lv_linemeter.c **** 
 1050              		.loc 1 277 5 discriminator 1 view .LVU298
 1051 000a 2246     		mov	r2, r4
 1052 000c 0023     		movs	r3, #0
 1053 000e 0448     		ldr	r0, .L88
 1054 0010 FFF7FEFF 		bl	lv_debug_log_error
 1055              	.LVL97:
 1056              	.L86:
 277:lvgl/src/lv_widgets/lv_linemeter.c **** 
 1057              		.loc 1 277 5 discriminator 1 view .LVU299
 277:lvgl/src/lv_widgets/lv_linemeter.c **** 
 1058              		.loc 1 277 5 discriminator 1 view .LVU300
 1059 0014 FEE7     		b	.L86
 1060              	.L85:
 277:lvgl/src/lv_widgets/lv_linemeter.c **** 
 1061              		.loc 1 277 40 discriminator 2 view .LVU301
 279:lvgl/src/lv_widgets/lv_linemeter.c ****     return ext->scale_angle;
 1062              		.loc 1 279 5 discriminator 2 view .LVU302
ARM GAS  D:\Temp\ccIs2YtX.s 			page 34


 279:lvgl/src/lv_widgets/lv_linemeter.c ****     return ext->scale_angle;
 1063              		.loc 1 279 32 is_stmt 0 discriminator 2 view .LVU303
 1064 0016 2046     		mov	r0, r4
 1065 0018 FFF7FEFF 		bl	lv_obj_get_ext_attr
 1066              	.LVL98:
 280:lvgl/src/lv_widgets/lv_linemeter.c **** }
 1067              		.loc 1 280 5 is_stmt 1 discriminator 2 view .LVU304
 281:lvgl/src/lv_widgets/lv_linemeter.c **** 
 1068              		.loc 1 281 1 is_stmt 0 discriminator 2 view .LVU305
 1069 001c 0088     		ldrh	r0, [r0]
 1070              	.LVL99:
 281:lvgl/src/lv_widgets/lv_linemeter.c **** 
 1071              		.loc 1 281 1 discriminator 2 view .LVU306
 1072 001e 10BD     		pop	{r4, pc}
 1073              	.LVL100:
 1074              	.L89:
 281:lvgl/src/lv_widgets/lv_linemeter.c **** 
 1075              		.loc 1 281 1 discriminator 2 view .LVU307
 1076              		.align	2
 1077              	.L88:
 1078 0020 00000000 		.word	.LC2
 1079              		.cfi_endproc
 1080              	.LFE468:
 1082              		.section	.text.lv_linemeter_get_angle_offset,"ax",%progbits
 1083              		.align	1
 1084              		.global	lv_linemeter_get_angle_offset
 1085              		.syntax unified
 1086              		.thumb
 1087              		.thumb_func
 1088              		.fpu fpv4-sp-d16
 1090              	lv_linemeter_get_angle_offset:
 1091              	.LVL101:
 1092              	.LFB469:
 289:lvgl/src/lv_widgets/lv_linemeter.c ****     lv_linemeter_ext_t * ext = lv_obj_get_ext_attr(lmeter);
 1093              		.loc 1 289 1 is_stmt 1 view -0
 1094              		.cfi_startproc
 1095              		@ args = 0, pretend = 0, frame = 0
 1096              		@ frame_needed = 0, uses_anonymous_args = 0
 289:lvgl/src/lv_widgets/lv_linemeter.c ****     lv_linemeter_ext_t * ext = lv_obj_get_ext_attr(lmeter);
 1097              		.loc 1 289 1 is_stmt 0 view .LVU309
 1098 0000 08B5     		push	{r3, lr}
 1099              	.LCFI12:
 1100              		.cfi_def_cfa_offset 8
 1101              		.cfi_offset 3, -8
 1102              		.cfi_offset 14, -4
 290:lvgl/src/lv_widgets/lv_linemeter.c **** 
 1103              		.loc 1 290 5 is_stmt 1 view .LVU310
 290:lvgl/src/lv_widgets/lv_linemeter.c **** 
 1104              		.loc 1 290 32 is_stmt 0 view .LVU311
 1105 0002 FFF7FEFF 		bl	lv_obj_get_ext_attr
 1106              	.LVL102:
 292:lvgl/src/lv_widgets/lv_linemeter.c **** }
 1107              		.loc 1 292 5 is_stmt 1 view .LVU312
 293:lvgl/src/lv_widgets/lv_linemeter.c **** 
 1108              		.loc 1 293 1 is_stmt 0 view .LVU313
 1109 0006 4088     		ldrh	r0, [r0, #2]
 1110              	.LVL103:
ARM GAS  D:\Temp\ccIs2YtX.s 			page 35


 293:lvgl/src/lv_widgets/lv_linemeter.c **** 
 1111              		.loc 1 293 1 view .LVU314
 1112 0008 08BD     		pop	{r3, pc}
 1113              		.cfi_endproc
 1114              	.LFE469:
 1116              		.section	.text.lv_linemeter_get_mirror,"ax",%progbits
 1117              		.align	1
 1118              		.global	lv_linemeter_get_mirror
 1119              		.syntax unified
 1120              		.thumb
 1121              		.thumb_func
 1122              		.fpu fpv4-sp-d16
 1124              	lv_linemeter_get_mirror:
 1125              	.LVL104:
 1126              	.LFB470:
 301:lvgl/src/lv_widgets/lv_linemeter.c ****     lv_linemeter_ext_t * ext = lv_obj_get_ext_attr(lmeter);
 1127              		.loc 1 301 1 is_stmt 1 view -0
 1128              		.cfi_startproc
 1129              		@ args = 0, pretend = 0, frame = 0
 1130              		@ frame_needed = 0, uses_anonymous_args = 0
 301:lvgl/src/lv_widgets/lv_linemeter.c ****     lv_linemeter_ext_t * ext = lv_obj_get_ext_attr(lmeter);
 1131              		.loc 1 301 1 is_stmt 0 view .LVU316
 1132 0000 08B5     		push	{r3, lr}
 1133              	.LCFI13:
 1134              		.cfi_def_cfa_offset 8
 1135              		.cfi_offset 3, -8
 1136              		.cfi_offset 14, -4
 302:lvgl/src/lv_widgets/lv_linemeter.c **** 
 1137              		.loc 1 302 5 is_stmt 1 view .LVU317
 302:lvgl/src/lv_widgets/lv_linemeter.c **** 
 1138              		.loc 1 302 32 is_stmt 0 view .LVU318
 1139 0002 FFF7FEFF 		bl	lv_obj_get_ext_attr
 1140              	.LVL105:
 304:lvgl/src/lv_widgets/lv_linemeter.c **** }
 1141              		.loc 1 304 5 is_stmt 1 view .LVU319
 304:lvgl/src/lv_widgets/lv_linemeter.c **** }
 1142              		.loc 1 304 15 is_stmt 0 view .LVU320
 1143 0006 007D     		ldrb	r0, [r0, #20]	@ zero_extendqisi2
 1144              	.LVL106:
 305:lvgl/src/lv_widgets/lv_linemeter.c **** 
 1145              		.loc 1 305 1 view .LVU321
 1146 0008 00F00100 		and	r0, r0, #1
 1147 000c 08BD     		pop	{r3, pc}
 1148              		.cfi_endproc
 1149              	.LFE470:
 1151              		.section	.text.lv_linemeter_draw_scale,"ax",%progbits
 1152              		.align	1
 1153              		.global	lv_linemeter_draw_scale
 1154              		.syntax unified
 1155              		.thumb
 1156              		.thumb_func
 1157              		.fpu fpv4-sp-d16
 1159              	lv_linemeter_draw_scale:
 1160              	.LVL107:
 1161              	.LFB471:
 308:lvgl/src/lv_widgets/lv_linemeter.c ****     lv_linemeter_ext_t * ext    = lv_obj_get_ext_attr(lmeter);
 1162              		.loc 1 308 1 is_stmt 1 view -0
ARM GAS  D:\Temp\ccIs2YtX.s 			page 36


 1163              		.cfi_startproc
 1164              		@ args = 0, pretend = 0, frame = 104
 1165              		@ frame_needed = 0, uses_anonymous_args = 0
 308:lvgl/src/lv_widgets/lv_linemeter.c ****     lv_linemeter_ext_t * ext    = lv_obj_get_ext_attr(lmeter);
 1166              		.loc 1 308 1 is_stmt 0 view .LVU323
 1167 0000 2DE9F04F 		push	{r4, r5, r6, r7, r8, r9, r10, fp, lr}
 1168              	.LCFI14:
 1169              		.cfi_def_cfa_offset 36
 1170              		.cfi_offset 4, -36
 1171              		.cfi_offset 5, -32
 1172              		.cfi_offset 6, -28
 1173              		.cfi_offset 7, -24
 1174              		.cfi_offset 8, -20
 1175              		.cfi_offset 9, -16
 1176              		.cfi_offset 10, -12
 1177              		.cfi_offset 11, -8
 1178              		.cfi_offset 14, -4
 1179 0004 9FB0     		sub	sp, sp, #124
 1180              	.LCFI15:
 1181              		.cfi_def_cfa_offset 160
 1182 0006 0746     		mov	r7, r0
 1183 0008 1290     		str	r0, [sp, #72]
 1184 000a 0C91     		str	r1, [sp, #48]
 1185 000c 9046     		mov	r8, r2
 1186 000e 1392     		str	r2, [sp, #76]
 309:lvgl/src/lv_widgets/lv_linemeter.c **** 
 1187              		.loc 1 309 5 is_stmt 1 view .LVU324
 309:lvgl/src/lv_widgets/lv_linemeter.c **** 
 1188              		.loc 1 309 35 is_stmt 0 view .LVU325
 1189 0010 FFF7FEFF 		bl	lv_obj_get_ext_attr
 1190              	.LVL108:
 309:lvgl/src/lv_widgets/lv_linemeter.c **** 
 1191              		.loc 1 309 35 view .LVU326
 1192 0014 0790     		str	r0, [sp, #28]
 1193              	.LVL109:
 311:lvgl/src/lv_widgets/lv_linemeter.c ****     lv_style_int_t right = lv_obj_get_style_pad_right(lmeter, LV_LINEMETER_PART_MAIN);
 1194              		.loc 1 311 5 is_stmt 1 view .LVU327
 1195              	.LBB51:
 1196              	.LBI51:
 1197              		.file 2 "lvgl/src/lv_widgets/../lv_core/lv_obj_style_dec.h"
   1:lvgl/src/lv_widgets/../lv_core/lv_obj_style_dec.h **** 
   2:lvgl/src/lv_widgets/../lv_core/lv_obj_style_dec.h **** /**
   3:lvgl/src/lv_widgets/../lv_core/lv_obj_style_dec.h ****  * @file lv_obj_style_dec.h
   4:lvgl/src/lv_widgets/../lv_core/lv_obj_style_dec.h ****  *
   5:lvgl/src/lv_widgets/../lv_core/lv_obj_style_dec.h ****  */
   6:lvgl/src/lv_widgets/../lv_core/lv_obj_style_dec.h **** 
   7:lvgl/src/lv_widgets/../lv_core/lv_obj_style_dec.h **** #ifndef LV_OBJ_STYLE_DEC_H
   8:lvgl/src/lv_widgets/../lv_core/lv_obj_style_dec.h **** #define LV_OBJ_STYLE_DEC_H
   9:lvgl/src/lv_widgets/../lv_core/lv_obj_style_dec.h **** 
  10:lvgl/src/lv_widgets/../lv_core/lv_obj_style_dec.h **** #ifdef __cplusplus
  11:lvgl/src/lv_widgets/../lv_core/lv_obj_style_dec.h **** extern "C" {
  12:lvgl/src/lv_widgets/../lv_core/lv_obj_style_dec.h **** #endif
  13:lvgl/src/lv_widgets/../lv_core/lv_obj_style_dec.h **** 
  14:lvgl/src/lv_widgets/../lv_core/lv_obj_style_dec.h **** /*********************
  15:lvgl/src/lv_widgets/../lv_core/lv_obj_style_dec.h ****  *      DEFINES
  16:lvgl/src/lv_widgets/../lv_core/lv_obj_style_dec.h ****  *********************/
  17:lvgl/src/lv_widgets/../lv_core/lv_obj_style_dec.h **** 
ARM GAS  D:\Temp\ccIs2YtX.s 			page 37


  18:lvgl/src/lv_widgets/../lv_core/lv_obj_style_dec.h **** /**
  19:lvgl/src/lv_widgets/../lv_core/lv_obj_style_dec.h ****  * Macro to declare the most important style set/get API functions.
  20:lvgl/src/lv_widgets/../lv_core/lv_obj_style_dec.h ****  *
  21:lvgl/src/lv_widgets/../lv_core/lv_obj_style_dec.h ****  * Get the value of a style property from an object in the object's current state
  22:lvgl/src/lv_widgets/../lv_core/lv_obj_style_dec.h ****  * -----------------------------------------------------------------------------
  23:lvgl/src/lv_widgets/../lv_core/lv_obj_style_dec.h ****  *  - Get the value of a style property from an object in the object's current state.
  24:lvgl/src/lv_widgets/../lv_core/lv_obj_style_dec.h ****  *  - Transition animation is taken into account.
  25:lvgl/src/lv_widgets/../lv_core/lv_obj_style_dec.h ****  *  - If the property is not set in the object's styles check the parent(s) if the property can be 
  26:lvgl/src/lv_widgets/../lv_core/lv_obj_style_dec.h ****  *  - If still not found return a default value.
  27:lvgl/src/lv_widgets/../lv_core/lv_obj_style_dec.h ****  *  - For example:
  28:lvgl/src/lv_widgets/../lv_core/lv_obj_style_dec.h ****  *      `lv_style_int_t w = lv_obj_get_style_border_width(btn1, LV_BTN_PART_MAIN);`
  29:lvgl/src/lv_widgets/../lv_core/lv_obj_style_dec.h ****  *
  30:lvgl/src/lv_widgets/../lv_core/lv_obj_style_dec.h ****  * Set a local style property for an object in a given state
  31:lvgl/src/lv_widgets/../lv_core/lv_obj_style_dec.h ****  * ---------------------------------------------------------
  32:lvgl/src/lv_widgets/../lv_core/lv_obj_style_dec.h ****  *  - For example:
  33:lvgl/src/lv_widgets/../lv_core/lv_obj_style_dec.h ****  *      `lv_obj_set_style_local_border_width(btn1, LV_BTN_PART_MAIN, LV_STATE_PRESSED, 2);`
  34:lvgl/src/lv_widgets/../lv_core/lv_obj_style_dec.h ****  *
  35:lvgl/src/lv_widgets/../lv_core/lv_obj_style_dec.h ****  * Get a local style property's value of an object in a given state
  36:lvgl/src/lv_widgets/../lv_core/lv_obj_style_dec.h ****  * ----------------------------------------------------------------
  37:lvgl/src/lv_widgets/../lv_core/lv_obj_style_dec.h ****  *  - Return the best matching property in the given state.
  38:lvgl/src/lv_widgets/../lv_core/lv_obj_style_dec.h ****  *  - E.g. if `state` parameter is LV_STATE_PRESSED | LV_STATE_CHECKED` but the property defined on
  39:lvgl/src/lv_widgets/../lv_core/lv_obj_style_dec.h ****  *    `LV_STATE_PRESSED` and `LV_STATE_DEFAULT` the best matching state is `LV_STATE_PRESSED`
  40:lvgl/src/lv_widgets/../lv_core/lv_obj_style_dec.h ****  *    (because it has higher precedence) and it will be returned.
  41:lvgl/src/lv_widgets/../lv_core/lv_obj_style_dec.h ****  *  - If the property is not found even in `LV_STATE_DEFAULT` `-1` is returned.
  42:lvgl/src/lv_widgets/../lv_core/lv_obj_style_dec.h ****  *  - For example:
  43:lvgl/src/lv_widgets/../lv_core/lv_obj_style_dec.h ****  *      `//Type of result should be lv_style_int_t/lv_opa_t/lv_color_t/const void * according to th
  44:lvgl/src/lv_widgets/../lv_core/lv_obj_style_dec.h ****  *      `lv_style_int_t result;`
  45:lvgl/src/lv_widgets/../lv_core/lv_obj_style_dec.h ****  *      `lv_obj_get_style_local_border_width(btn1, LV_BTN_PART_MAIN, LV_STATE_PRESSED, &result);`
  46:lvgl/src/lv_widgets/../lv_core/lv_obj_style_dec.h ****  *      `if(weight > 0) ...the property is found and loaded into result...`
  47:lvgl/src/lv_widgets/../lv_core/lv_obj_style_dec.h ****  *
  48:lvgl/src/lv_widgets/../lv_core/lv_obj_style_dec.h ****  * Get the value from a style in a given state
  49:lvgl/src/lv_widgets/../lv_core/lv_obj_style_dec.h ****  * -------------------------------------------
  50:lvgl/src/lv_widgets/../lv_core/lv_obj_style_dec.h ****  * - The same rules applies to the return value then for "lv_obj_get_style_local_...()" above
  51:lvgl/src/lv_widgets/../lv_core/lv_obj_style_dec.h ****  * - For example
  52:lvgl/src/lv_widgets/../lv_core/lv_obj_style_dec.h ****  *      `int16_t weight = lv_style_get_border_width(&style1, LV_STATE_PRESSED, &result);`
  53:lvgl/src/lv_widgets/../lv_core/lv_obj_style_dec.h ****  *      `if(weight > 0) ...the property is found and loaded into result...`
  54:lvgl/src/lv_widgets/../lv_core/lv_obj_style_dec.h **** 
  55:lvgl/src/lv_widgets/../lv_core/lv_obj_style_dec.h ****  * Set a value in a style in a given state
  56:lvgl/src/lv_widgets/../lv_core/lv_obj_style_dec.h ****  * ---------------------------------------
  57:lvgl/src/lv_widgets/../lv_core/lv_obj_style_dec.h ****  * - For example
  58:lvgl/src/lv_widgets/../lv_core/lv_obj_style_dec.h ****  *      `lv_style_set_border_width(&style1, LV_STATE_PRESSED, 2);`
  59:lvgl/src/lv_widgets/../lv_core/lv_obj_style_dec.h ****  */
  60:lvgl/src/lv_widgets/../lv_core/lv_obj_style_dec.h **** 
  61:lvgl/src/lv_widgets/../lv_core/lv_obj_style_dec.h **** #define _OBJ_GET_STYLE_scalar(prop_name, func_name, value_type, style_type)                        
  62:lvgl/src/lv_widgets/../lv_core/lv_obj_style_dec.h ****     static inline value_type lv_obj_get_style_##func_name (const lv_obj_t * obj, uint8_t part)     
  63:lvgl/src/lv_widgets/../lv_core/lv_obj_style_dec.h ****     {                                                                                              
  64:lvgl/src/lv_widgets/../lv_core/lv_obj_style_dec.h ****         return (value_type) _lv_obj_get_style##style_type (obj, part, LV_STYLE_##prop_name);       
  65:lvgl/src/lv_widgets/../lv_core/lv_obj_style_dec.h ****     }
  66:lvgl/src/lv_widgets/../lv_core/lv_obj_style_dec.h **** 
  67:lvgl/src/lv_widgets/../lv_core/lv_obj_style_dec.h **** #define _OBJ_GET_STYLE_nonscalar(prop_name, func_name, value_type, style_type)                     
  68:lvgl/src/lv_widgets/../lv_core/lv_obj_style_dec.h ****     static inline value_type lv_obj_get_style_##func_name (const lv_obj_t * obj, uint8_t part)     
  69:lvgl/src/lv_widgets/../lv_core/lv_obj_style_dec.h ****     {                                                                                              
  70:lvgl/src/lv_widgets/../lv_core/lv_obj_style_dec.h ****         return _lv_obj_get_style##style_type (obj, part, LV_STYLE_##prop_name);                    
  71:lvgl/src/lv_widgets/../lv_core/lv_obj_style_dec.h ****     }
  72:lvgl/src/lv_widgets/../lv_core/lv_obj_style_dec.h **** 
  73:lvgl/src/lv_widgets/../lv_core/lv_obj_style_dec.h **** #define _OBJ_SET_STYLE_LOCAL_scalar(prop_name, func_name, value_type, style_type)                  
  74:lvgl/src/lv_widgets/../lv_core/lv_obj_style_dec.h ****     static inline void lv_obj_set_style_local_##func_name (lv_obj_t * obj, uint8_t part, lv_state_t
ARM GAS  D:\Temp\ccIs2YtX.s 			page 38


  75:lvgl/src/lv_widgets/../lv_core/lv_obj_style_dec.h ****     {                                                                                              
  76:lvgl/src/lv_widgets/../lv_core/lv_obj_style_dec.h ****         _lv_obj_set_style_local##style_type (obj, part, LV_STYLE_##prop_name | (state << LV_STYLE_S
  77:lvgl/src/lv_widgets/../lv_core/lv_obj_style_dec.h ****     }
  78:lvgl/src/lv_widgets/../lv_core/lv_obj_style_dec.h **** 
  79:lvgl/src/lv_widgets/../lv_core/lv_obj_style_dec.h **** #define _OBJ_SET_STYLE_LOCAL_nonscalar(prop_name, func_name, value_type, style_type)               
  80:lvgl/src/lv_widgets/../lv_core/lv_obj_style_dec.h ****     static inline void lv_obj_set_style_local_##func_name (lv_obj_t * obj, uint8_t part, lv_state_t
  81:lvgl/src/lv_widgets/../lv_core/lv_obj_style_dec.h ****     {                                                                                              
  82:lvgl/src/lv_widgets/../lv_core/lv_obj_style_dec.h ****         _lv_obj_set_style_local##style_type (obj, part, LV_STYLE_##prop_name | (state << LV_STYLE_S
  83:lvgl/src/lv_widgets/../lv_core/lv_obj_style_dec.h ****     }
  84:lvgl/src/lv_widgets/../lv_core/lv_obj_style_dec.h **** 
  85:lvgl/src/lv_widgets/../lv_core/lv_obj_style_dec.h **** #define _OBJ_SET_STYLE_scalar(prop_name, func_name, value_type, style_type)                        
  86:lvgl/src/lv_widgets/../lv_core/lv_obj_style_dec.h ****     static inline void lv_style_set_##func_name (lv_style_t * style, lv_state_t state, value_type v
  87:lvgl/src/lv_widgets/../lv_core/lv_obj_style_dec.h ****     {                                                                                              
  88:lvgl/src/lv_widgets/../lv_core/lv_obj_style_dec.h ****         _lv_style_set##style_type (style, LV_STYLE_##prop_name | (state << LV_STYLE_STATE_POS), val
  89:lvgl/src/lv_widgets/../lv_core/lv_obj_style_dec.h ****     }
  90:lvgl/src/lv_widgets/../lv_core/lv_obj_style_dec.h **** 
  91:lvgl/src/lv_widgets/../lv_core/lv_obj_style_dec.h **** #define _OBJ_SET_STYLE_nonscalar(prop_name, func_name, value_type, style_type)                     
  92:lvgl/src/lv_widgets/../lv_core/lv_obj_style_dec.h ****     static inline void lv_style_set_##func_name (lv_style_t * style, lv_state_t state, value_type v
  93:lvgl/src/lv_widgets/../lv_core/lv_obj_style_dec.h ****     {                                                                                              
  94:lvgl/src/lv_widgets/../lv_core/lv_obj_style_dec.h ****         _lv_style_set##style_type (style, LV_STYLE_##prop_name | (state << LV_STYLE_STATE_POS), val
  95:lvgl/src/lv_widgets/../lv_core/lv_obj_style_dec.h ****     }
  96:lvgl/src/lv_widgets/../lv_core/lv_obj_style_dec.h **** 
  97:lvgl/src/lv_widgets/../lv_core/lv_obj_style_dec.h **** #define _LV_OBJ_STYLE_SET_GET_DECLARE(prop_name, func_name, value_type, style_type, scalar)        
  98:lvgl/src/lv_widgets/../lv_core/lv_obj_style_dec.h ****     _OBJ_GET_STYLE_##scalar(prop_name, func_name, value_type, style_type)                          
  99:lvgl/src/lv_widgets/../lv_core/lv_obj_style_dec.h ****     _OBJ_SET_STYLE_LOCAL_##scalar(prop_name, func_name, value_type, style_type)                    
 100:lvgl/src/lv_widgets/../lv_core/lv_obj_style_dec.h ****     _OBJ_SET_STYLE_##scalar(prop_name, func_name, value_type, style_type)
 101:lvgl/src/lv_widgets/../lv_core/lv_obj_style_dec.h **** 
 102:lvgl/src/lv_widgets/../lv_core/lv_obj_style_dec.h **** _LV_OBJ_STYLE_SET_GET_DECLARE(RADIUS, radius, lv_style_int_t, _int, scalar)
 103:lvgl/src/lv_widgets/../lv_core/lv_obj_style_dec.h **** _LV_OBJ_STYLE_SET_GET_DECLARE(CLIP_CORNER, clip_corner, bool, _int, scalar)
 104:lvgl/src/lv_widgets/../lv_core/lv_obj_style_dec.h **** _LV_OBJ_STYLE_SET_GET_DECLARE(SIZE, size, lv_style_int_t, _int, scalar)
 105:lvgl/src/lv_widgets/../lv_core/lv_obj_style_dec.h **** _LV_OBJ_STYLE_SET_GET_DECLARE(TRANSFORM_WIDTH, transform_width, lv_style_int_t, _int, scalar)
 106:lvgl/src/lv_widgets/../lv_core/lv_obj_style_dec.h **** _LV_OBJ_STYLE_SET_GET_DECLARE(TRANSFORM_HEIGHT, transform_height, lv_style_int_t, _int, scalar)
 107:lvgl/src/lv_widgets/../lv_core/lv_obj_style_dec.h **** _LV_OBJ_STYLE_SET_GET_DECLARE(TRANSFORM_ANGLE, transform_angle, lv_style_int_t, _int, scalar)
 108:lvgl/src/lv_widgets/../lv_core/lv_obj_style_dec.h **** _LV_OBJ_STYLE_SET_GET_DECLARE(TRANSFORM_ZOOM, transform_zoom, lv_style_int_t, _int, scalar)
 109:lvgl/src/lv_widgets/../lv_core/lv_obj_style_dec.h **** _LV_OBJ_STYLE_SET_GET_DECLARE(OPA_SCALE, opa_scale, lv_opa_t, _opa, scalar)
 110:lvgl/src/lv_widgets/../lv_core/lv_obj_style_dec.h **** _LV_OBJ_STYLE_SET_GET_DECLARE(PAD_TOP, pad_top, lv_style_int_t, _int, scalar)
 111:lvgl/src/lv_widgets/../lv_core/lv_obj_style_dec.h **** _LV_OBJ_STYLE_SET_GET_DECLARE(PAD_BOTTOM, pad_bottom, lv_style_int_t, _int, scalar)
 112:lvgl/src/lv_widgets/../lv_core/lv_obj_style_dec.h **** _LV_OBJ_STYLE_SET_GET_DECLARE(PAD_LEFT, pad_left, lv_style_int_t, _int, scalar)
 1198              		.loc 2 112 1 view .LVU328
 1199              	.LBB52:
 1200              		.loc 2 112 1 view .LVU329
 1201 0016 1222     		movs	r2, #18
 1202 0018 0021     		movs	r1, #0
 1203 001a 3846     		mov	r0, r7
 1204              	.LVL110:
 1205              		.loc 2 112 1 is_stmt 0 view .LVU330
 1206 001c FFF7FEFF 		bl	_lv_obj_get_style_int
 1207              	.LVL111:
 1208 0020 0546     		mov	r5, r0
 1209              	.LVL112:
 1210              		.loc 2 112 1 view .LVU331
 1211              	.LBE52:
 1212              	.LBE51:
 312:lvgl/src/lv_widgets/lv_linemeter.c ****     lv_style_int_t top = lv_obj_get_style_pad_top(lmeter, LV_LINEMETER_PART_MAIN);
 1213              		.loc 1 312 5 is_stmt 1 view .LVU332
 1214              	.LBB53:
 1215              	.LBI53:
ARM GAS  D:\Temp\ccIs2YtX.s 			page 39


 113:lvgl/src/lv_widgets/../lv_core/lv_obj_style_dec.h **** _LV_OBJ_STYLE_SET_GET_DECLARE(PAD_RIGHT, pad_right, lv_style_int_t, _int, scalar)
 1216              		.loc 2 113 1 view .LVU333
 1217              	.LBB54:
 1218              		.loc 2 113 1 view .LVU334
 1219 0022 1322     		movs	r2, #19
 1220 0024 0021     		movs	r1, #0
 1221 0026 3846     		mov	r0, r7
 1222 0028 FFF7FEFF 		bl	_lv_obj_get_style_int
 1223              	.LVL113:
 1224 002c 0646     		mov	r6, r0
 1225              	.LVL114:
 1226              		.loc 2 113 1 is_stmt 0 view .LVU335
 1227              	.LBE54:
 1228              	.LBE53:
 313:lvgl/src/lv_widgets/lv_linemeter.c **** 
 1229              		.loc 1 313 5 is_stmt 1 view .LVU336
 1230              	.LBB55:
 1231              	.LBI55:
 110:lvgl/src/lv_widgets/../lv_core/lv_obj_style_dec.h **** _LV_OBJ_STYLE_SET_GET_DECLARE(PAD_BOTTOM, pad_bottom, lv_style_int_t, _int, scalar)
 1232              		.loc 2 110 1 view .LVU337
 1233              	.LBB56:
 110:lvgl/src/lv_widgets/../lv_core/lv_obj_style_dec.h **** _LV_OBJ_STYLE_SET_GET_DECLARE(PAD_BOTTOM, pad_bottom, lv_style_int_t, _int, scalar)
 1234              		.loc 2 110 1 view .LVU338
 1235 002e 1022     		movs	r2, #16
 1236 0030 0021     		movs	r1, #0
 1237 0032 3846     		mov	r0, r7
 1238 0034 FFF7FEFF 		bl	_lv_obj_get_style_int
 1239              	.LVL115:
 1240 0038 0446     		mov	r4, r0
 1241              	.LVL116:
 110:lvgl/src/lv_widgets/../lv_core/lv_obj_style_dec.h **** _LV_OBJ_STYLE_SET_GET_DECLARE(PAD_BOTTOM, pad_bottom, lv_style_int_t, _int, scalar)
 1242              		.loc 2 110 1 is_stmt 0 view .LVU339
 1243              	.LBE56:
 1244              	.LBE55:
 315:lvgl/src/lv_widgets/lv_linemeter.c ****     lv_coord_t r_in  = r_out - lv_obj_get_style_scale_width(lmeter, part);
 1245              		.loc 1 315 5 is_stmt 1 view .LVU340
 315:lvgl/src/lv_widgets/lv_linemeter.c ****     lv_coord_t r_in  = r_out - lv_obj_get_style_scale_width(lmeter, part);
 1246              		.loc 1 315 25 is_stmt 0 view .LVU341
 1247 003a 3846     		mov	r0, r7
 1248 003c FFF7FEFF 		bl	lv_obj_get_width
 1249              	.LVL117:
 315:lvgl/src/lv_widgets/lv_linemeter.c ****     lv_coord_t r_in  = r_out - lv_obj_get_style_scale_width(lmeter, part);
 1250              		.loc 1 315 50 view .LVU342
 1251 0040 431B     		subs	r3, r0, r5
 315:lvgl/src/lv_widgets/lv_linemeter.c ****     lv_coord_t r_in  = r_out - lv_obj_get_style_scale_width(lmeter, part);
 1252              		.loc 1 315 57 view .LVU343
 1253 0042 9B1B     		subs	r3, r3, r6
 315:lvgl/src/lv_widgets/lv_linemeter.c ****     lv_coord_t r_in  = r_out - lv_obj_get_style_scale_width(lmeter, part);
 1254              		.loc 1 315 66 view .LVU344
 1255 0044 03EBD373 		add	r3, r3, r3, lsr #31
 1256 0048 5B10     		asrs	r3, r3, #1
 315:lvgl/src/lv_widgets/lv_linemeter.c ****     lv_coord_t r_in  = r_out - lv_obj_get_style_scale_width(lmeter, part);
 1257              		.loc 1 315 16 view .LVU345
 1258 004a 1EB2     		sxth	r6, r3
 1259              	.LVL118:
 315:lvgl/src/lv_widgets/lv_linemeter.c ****     lv_coord_t r_in  = r_out - lv_obj_get_style_scale_width(lmeter, part);
 1260              		.loc 1 315 16 view .LVU346
ARM GAS  D:\Temp\ccIs2YtX.s 			page 40


 1261 004c 0896     		str	r6, [sp, #32]
 1262              	.LVL119:
 316:lvgl/src/lv_widgets/lv_linemeter.c ****     if(r_in < 1) r_in = 1;
 1263              		.loc 1 316 5 is_stmt 1 view .LVU347
 316:lvgl/src/lv_widgets/lv_linemeter.c ****     if(r_in < 1) r_in = 1;
 1264              		.loc 1 316 30 is_stmt 0 view .LVU348
 1265 004e 9EB2     		uxth	r6, r3
 1266 0050 1496     		str	r6, [sp, #80]
 1267              	.LVL120:
 1268              	.LBB57:
 1269              	.LBI57:
 114:lvgl/src/lv_widgets/../lv_core/lv_obj_style_dec.h **** _LV_OBJ_STYLE_SET_GET_DECLARE(PAD_INNER, pad_inner, lv_style_int_t, _int, scalar)
 115:lvgl/src/lv_widgets/../lv_core/lv_obj_style_dec.h **** _LV_OBJ_STYLE_SET_GET_DECLARE(MARGIN_TOP, margin_top, lv_style_int_t, _int, scalar)
 116:lvgl/src/lv_widgets/../lv_core/lv_obj_style_dec.h **** _LV_OBJ_STYLE_SET_GET_DECLARE(MARGIN_BOTTOM, margin_bottom, lv_style_int_t, _int, scalar)
 117:lvgl/src/lv_widgets/../lv_core/lv_obj_style_dec.h **** _LV_OBJ_STYLE_SET_GET_DECLARE(MARGIN_LEFT, margin_left, lv_style_int_t, _int, scalar)
 118:lvgl/src/lv_widgets/../lv_core/lv_obj_style_dec.h **** _LV_OBJ_STYLE_SET_GET_DECLARE(MARGIN_RIGHT, margin_right, lv_style_int_t, _int, scalar)
 119:lvgl/src/lv_widgets/../lv_core/lv_obj_style_dec.h **** _LV_OBJ_STYLE_SET_GET_DECLARE(BG_BLEND_MODE, bg_blend_mode, lv_blend_mode_t, _int, scalar)
 120:lvgl/src/lv_widgets/../lv_core/lv_obj_style_dec.h **** _LV_OBJ_STYLE_SET_GET_DECLARE(BG_MAIN_STOP, bg_main_stop, lv_style_int_t, _int, scalar)
 121:lvgl/src/lv_widgets/../lv_core/lv_obj_style_dec.h **** _LV_OBJ_STYLE_SET_GET_DECLARE(BG_GRAD_STOP, bg_grad_stop, lv_style_int_t, _int, scalar)
 122:lvgl/src/lv_widgets/../lv_core/lv_obj_style_dec.h **** _LV_OBJ_STYLE_SET_GET_DECLARE(BG_GRAD_DIR, bg_grad_dir, lv_grad_dir_t, _int, scalar)
 123:lvgl/src/lv_widgets/../lv_core/lv_obj_style_dec.h **** _LV_OBJ_STYLE_SET_GET_DECLARE(BG_COLOR, bg_color, lv_color_t, _color, nonscalar)
 124:lvgl/src/lv_widgets/../lv_core/lv_obj_style_dec.h **** _LV_OBJ_STYLE_SET_GET_DECLARE(BG_GRAD_COLOR, bg_grad_color, lv_color_t, _color, nonscalar)
 125:lvgl/src/lv_widgets/../lv_core/lv_obj_style_dec.h **** _LV_OBJ_STYLE_SET_GET_DECLARE(BG_OPA, bg_opa, lv_opa_t, _opa, scalar)
 126:lvgl/src/lv_widgets/../lv_core/lv_obj_style_dec.h **** _LV_OBJ_STYLE_SET_GET_DECLARE(BORDER_WIDTH, border_width, lv_style_int_t, _int, scalar)
 127:lvgl/src/lv_widgets/../lv_core/lv_obj_style_dec.h **** _LV_OBJ_STYLE_SET_GET_DECLARE(BORDER_SIDE, border_side, lv_border_side_t, _int, scalar)
 128:lvgl/src/lv_widgets/../lv_core/lv_obj_style_dec.h **** _LV_OBJ_STYLE_SET_GET_DECLARE(BORDER_BLEND_MODE, border_blend_mode, lv_blend_mode_t, _int, scalar)
 129:lvgl/src/lv_widgets/../lv_core/lv_obj_style_dec.h **** _LV_OBJ_STYLE_SET_GET_DECLARE(BORDER_POST, border_post, bool, _int, scalar)
 130:lvgl/src/lv_widgets/../lv_core/lv_obj_style_dec.h **** _LV_OBJ_STYLE_SET_GET_DECLARE(BORDER_COLOR, border_color, lv_color_t, _color, nonscalar)
 131:lvgl/src/lv_widgets/../lv_core/lv_obj_style_dec.h **** _LV_OBJ_STYLE_SET_GET_DECLARE(BORDER_OPA, border_opa, lv_opa_t, _opa, scalar)
 132:lvgl/src/lv_widgets/../lv_core/lv_obj_style_dec.h **** _LV_OBJ_STYLE_SET_GET_DECLARE(OUTLINE_WIDTH, outline_width, lv_style_int_t, _int, scalar)
 133:lvgl/src/lv_widgets/../lv_core/lv_obj_style_dec.h **** _LV_OBJ_STYLE_SET_GET_DECLARE(OUTLINE_PAD, outline_pad, lv_style_int_t, _int, scalar)
 134:lvgl/src/lv_widgets/../lv_core/lv_obj_style_dec.h **** _LV_OBJ_STYLE_SET_GET_DECLARE(OUTLINE_BLEND_MODE, outline_blend_mode, lv_blend_mode_t, _int, scalar
 135:lvgl/src/lv_widgets/../lv_core/lv_obj_style_dec.h **** _LV_OBJ_STYLE_SET_GET_DECLARE(OUTLINE_COLOR, outline_color, lv_color_t, _color, nonscalar)
 136:lvgl/src/lv_widgets/../lv_core/lv_obj_style_dec.h **** _LV_OBJ_STYLE_SET_GET_DECLARE(OUTLINE_OPA, outline_opa, lv_opa_t, _opa, scalar)
 137:lvgl/src/lv_widgets/../lv_core/lv_obj_style_dec.h **** _LV_OBJ_STYLE_SET_GET_DECLARE(SHADOW_WIDTH, shadow_width, lv_style_int_t, _int, scalar)
 138:lvgl/src/lv_widgets/../lv_core/lv_obj_style_dec.h **** _LV_OBJ_STYLE_SET_GET_DECLARE(SHADOW_OFS_X, shadow_ofs_x, lv_style_int_t, _int, scalar)
 139:lvgl/src/lv_widgets/../lv_core/lv_obj_style_dec.h **** _LV_OBJ_STYLE_SET_GET_DECLARE(SHADOW_OFS_Y, shadow_ofs_y, lv_style_int_t, _int, scalar)
 140:lvgl/src/lv_widgets/../lv_core/lv_obj_style_dec.h **** _LV_OBJ_STYLE_SET_GET_DECLARE(SHADOW_SPREAD, shadow_spread, lv_style_int_t, _int, scalar)
 141:lvgl/src/lv_widgets/../lv_core/lv_obj_style_dec.h **** _LV_OBJ_STYLE_SET_GET_DECLARE(SHADOW_BLEND_MODE, shadow_blend_mode, lv_blend_mode_t, _int, scalar)
 142:lvgl/src/lv_widgets/../lv_core/lv_obj_style_dec.h **** _LV_OBJ_STYLE_SET_GET_DECLARE(SHADOW_COLOR, shadow_color, lv_color_t, _color, nonscalar)
 143:lvgl/src/lv_widgets/../lv_core/lv_obj_style_dec.h **** _LV_OBJ_STYLE_SET_GET_DECLARE(SHADOW_OPA, shadow_opa, lv_opa_t, _opa, scalar)
 144:lvgl/src/lv_widgets/../lv_core/lv_obj_style_dec.h **** _LV_OBJ_STYLE_SET_GET_DECLARE(PATTERN_REPEAT, pattern_repeat, bool, _int, scalar)
 145:lvgl/src/lv_widgets/../lv_core/lv_obj_style_dec.h **** _LV_OBJ_STYLE_SET_GET_DECLARE(PATTERN_BLEND_MODE, pattern_blend_mode, lv_blend_mode_t, _int, scalar
 146:lvgl/src/lv_widgets/../lv_core/lv_obj_style_dec.h **** _LV_OBJ_STYLE_SET_GET_DECLARE(PATTERN_RECOLOR, pattern_recolor, lv_color_t, _color, nonscalar)
 147:lvgl/src/lv_widgets/../lv_core/lv_obj_style_dec.h **** _LV_OBJ_STYLE_SET_GET_DECLARE(PATTERN_OPA, pattern_opa, lv_opa_t, _opa, scalar)
 148:lvgl/src/lv_widgets/../lv_core/lv_obj_style_dec.h **** _LV_OBJ_STYLE_SET_GET_DECLARE(PATTERN_RECOLOR_OPA, pattern_recolor_opa, lv_opa_t, _opa, scalar)
 149:lvgl/src/lv_widgets/../lv_core/lv_obj_style_dec.h **** _LV_OBJ_STYLE_SET_GET_DECLARE(PATTERN_IMAGE, pattern_image, const void *, _ptr, scalar)
 150:lvgl/src/lv_widgets/../lv_core/lv_obj_style_dec.h **** _LV_OBJ_STYLE_SET_GET_DECLARE(VALUE_LETTER_SPACE, value_letter_space, lv_style_int_t, _int, scalar)
 151:lvgl/src/lv_widgets/../lv_core/lv_obj_style_dec.h **** _LV_OBJ_STYLE_SET_GET_DECLARE(VALUE_LINE_SPACE, value_line_space, lv_style_int_t, _int, scalar)
 152:lvgl/src/lv_widgets/../lv_core/lv_obj_style_dec.h **** _LV_OBJ_STYLE_SET_GET_DECLARE(VALUE_BLEND_MODE, value_blend_mode, lv_blend_mode_t, _int, scalar)
 153:lvgl/src/lv_widgets/../lv_core/lv_obj_style_dec.h **** _LV_OBJ_STYLE_SET_GET_DECLARE(VALUE_OFS_X, value_ofs_x, lv_style_int_t, _int, scalar)
 154:lvgl/src/lv_widgets/../lv_core/lv_obj_style_dec.h **** _LV_OBJ_STYLE_SET_GET_DECLARE(VALUE_OFS_Y, value_ofs_y, lv_style_int_t, _int, scalar)
 155:lvgl/src/lv_widgets/../lv_core/lv_obj_style_dec.h **** _LV_OBJ_STYLE_SET_GET_DECLARE(VALUE_ALIGN, value_align, lv_align_t, _int, scalar)
 156:lvgl/src/lv_widgets/../lv_core/lv_obj_style_dec.h **** _LV_OBJ_STYLE_SET_GET_DECLARE(VALUE_COLOR, value_color, lv_color_t, _color, nonscalar)
 157:lvgl/src/lv_widgets/../lv_core/lv_obj_style_dec.h **** _LV_OBJ_STYLE_SET_GET_DECLARE(VALUE_OPA, value_opa, lv_opa_t, _opa, scalar)
 158:lvgl/src/lv_widgets/../lv_core/lv_obj_style_dec.h **** _LV_OBJ_STYLE_SET_GET_DECLARE(VALUE_FONT, value_font, const lv_font_t *, _ptr, scalar)
 159:lvgl/src/lv_widgets/../lv_core/lv_obj_style_dec.h **** _LV_OBJ_STYLE_SET_GET_DECLARE(VALUE_STR, value_str, const char *, _ptr, scalar)
ARM GAS  D:\Temp\ccIs2YtX.s 			page 41


 160:lvgl/src/lv_widgets/../lv_core/lv_obj_style_dec.h **** _LV_OBJ_STYLE_SET_GET_DECLARE(TEXT_LETTER_SPACE, text_letter_space, lv_style_int_t, _int, scalar)
 161:lvgl/src/lv_widgets/../lv_core/lv_obj_style_dec.h **** _LV_OBJ_STYLE_SET_GET_DECLARE(TEXT_LINE_SPACE, text_line_space, lv_style_int_t, _int, scalar)
 162:lvgl/src/lv_widgets/../lv_core/lv_obj_style_dec.h **** _LV_OBJ_STYLE_SET_GET_DECLARE(TEXT_DECOR, text_decor, lv_text_decor_t, _int, scalar)
 163:lvgl/src/lv_widgets/../lv_core/lv_obj_style_dec.h **** _LV_OBJ_STYLE_SET_GET_DECLARE(TEXT_BLEND_MODE, text_blend_mode, lv_blend_mode_t, _int, scalar)
 164:lvgl/src/lv_widgets/../lv_core/lv_obj_style_dec.h **** _LV_OBJ_STYLE_SET_GET_DECLARE(TEXT_COLOR, text_color, lv_color_t, _color, nonscalar)
 165:lvgl/src/lv_widgets/../lv_core/lv_obj_style_dec.h **** _LV_OBJ_STYLE_SET_GET_DECLARE(TEXT_SEL_COLOR, text_sel_color, lv_color_t, _color, nonscalar)
 166:lvgl/src/lv_widgets/../lv_core/lv_obj_style_dec.h **** _LV_OBJ_STYLE_SET_GET_DECLARE(TEXT_SEL_BG_COLOR, text_sel_bg_color, lv_color_t, _color, nonscalar)
 167:lvgl/src/lv_widgets/../lv_core/lv_obj_style_dec.h **** _LV_OBJ_STYLE_SET_GET_DECLARE(TEXT_OPA, text_opa, lv_opa_t, _opa, scalar)
 168:lvgl/src/lv_widgets/../lv_core/lv_obj_style_dec.h **** _LV_OBJ_STYLE_SET_GET_DECLARE(TEXT_FONT, text_font, const lv_font_t *, _ptr, scalar)
 169:lvgl/src/lv_widgets/../lv_core/lv_obj_style_dec.h **** _LV_OBJ_STYLE_SET_GET_DECLARE(LINE_WIDTH, line_width, lv_style_int_t, _int, scalar)
 170:lvgl/src/lv_widgets/../lv_core/lv_obj_style_dec.h **** _LV_OBJ_STYLE_SET_GET_DECLARE(LINE_BLEND_MODE, line_blend_mode, lv_blend_mode_t, _int, scalar)
 171:lvgl/src/lv_widgets/../lv_core/lv_obj_style_dec.h **** _LV_OBJ_STYLE_SET_GET_DECLARE(LINE_DASH_WIDTH, line_dash_width, lv_style_int_t, _int, scalar)
 172:lvgl/src/lv_widgets/../lv_core/lv_obj_style_dec.h **** _LV_OBJ_STYLE_SET_GET_DECLARE(LINE_DASH_GAP, line_dash_gap, lv_style_int_t, _int, scalar)
 173:lvgl/src/lv_widgets/../lv_core/lv_obj_style_dec.h **** _LV_OBJ_STYLE_SET_GET_DECLARE(LINE_ROUNDED, line_rounded, bool, _int, scalar)
 174:lvgl/src/lv_widgets/../lv_core/lv_obj_style_dec.h **** _LV_OBJ_STYLE_SET_GET_DECLARE(LINE_COLOR, line_color, lv_color_t, _color, nonscalar)
 175:lvgl/src/lv_widgets/../lv_core/lv_obj_style_dec.h **** _LV_OBJ_STYLE_SET_GET_DECLARE(LINE_OPA, line_opa, lv_opa_t, _opa, scalar)
 176:lvgl/src/lv_widgets/../lv_core/lv_obj_style_dec.h **** _LV_OBJ_STYLE_SET_GET_DECLARE(IMAGE_BLEND_MODE, image_blend_mode, lv_blend_mode_t, _int, scalar)
 177:lvgl/src/lv_widgets/../lv_core/lv_obj_style_dec.h **** _LV_OBJ_STYLE_SET_GET_DECLARE(IMAGE_RECOLOR, image_recolor, lv_color_t, _color, nonscalar)
 178:lvgl/src/lv_widgets/../lv_core/lv_obj_style_dec.h **** _LV_OBJ_STYLE_SET_GET_DECLARE(IMAGE_OPA, image_opa, lv_opa_t, _opa, scalar)
 179:lvgl/src/lv_widgets/../lv_core/lv_obj_style_dec.h **** _LV_OBJ_STYLE_SET_GET_DECLARE(IMAGE_RECOLOR_OPA, image_recolor_opa, lv_opa_t, _opa, scalar)
 180:lvgl/src/lv_widgets/../lv_core/lv_obj_style_dec.h **** _LV_OBJ_STYLE_SET_GET_DECLARE(TRANSITION_TIME, transition_time, lv_style_int_t, _int, scalar)
 181:lvgl/src/lv_widgets/../lv_core/lv_obj_style_dec.h **** _LV_OBJ_STYLE_SET_GET_DECLARE(TRANSITION_DELAY, transition_delay, lv_style_int_t, _int, scalar)
 182:lvgl/src/lv_widgets/../lv_core/lv_obj_style_dec.h **** _LV_OBJ_STYLE_SET_GET_DECLARE(TRANSITION_PROP_1, transition_prop_1, lv_style_int_t, _int, scalar)
 183:lvgl/src/lv_widgets/../lv_core/lv_obj_style_dec.h **** _LV_OBJ_STYLE_SET_GET_DECLARE(TRANSITION_PROP_2, transition_prop_2, lv_style_int_t, _int, scalar)
 184:lvgl/src/lv_widgets/../lv_core/lv_obj_style_dec.h **** _LV_OBJ_STYLE_SET_GET_DECLARE(TRANSITION_PROP_3, transition_prop_3, lv_style_int_t, _int, scalar)
 185:lvgl/src/lv_widgets/../lv_core/lv_obj_style_dec.h **** _LV_OBJ_STYLE_SET_GET_DECLARE(TRANSITION_PROP_4, transition_prop_4, lv_style_int_t, _int, scalar)
 186:lvgl/src/lv_widgets/../lv_core/lv_obj_style_dec.h **** _LV_OBJ_STYLE_SET_GET_DECLARE(TRANSITION_PROP_5, transition_prop_5, lv_style_int_t, _int, scalar)
 187:lvgl/src/lv_widgets/../lv_core/lv_obj_style_dec.h **** _LV_OBJ_STYLE_SET_GET_DECLARE(TRANSITION_PROP_6, transition_prop_6, lv_style_int_t, _int, scalar)
 188:lvgl/src/lv_widgets/../lv_core/lv_obj_style_dec.h **** #if LV_USE_ANIMATION
 189:lvgl/src/lv_widgets/../lv_core/lv_obj_style_dec.h **** _LV_OBJ_STYLE_SET_GET_DECLARE(TRANSITION_PATH, transition_path, lv_anim_path_t *, _ptr, scalar)
 190:lvgl/src/lv_widgets/../lv_core/lv_obj_style_dec.h **** #else
 191:lvgl/src/lv_widgets/../lv_core/lv_obj_style_dec.h **** /*For compatibility*/
 192:lvgl/src/lv_widgets/../lv_core/lv_obj_style_dec.h **** _LV_OBJ_STYLE_SET_GET_DECLARE(TRANSITION_PATH, transition_path, const void *, _ptr, scalar)
 193:lvgl/src/lv_widgets/../lv_core/lv_obj_style_dec.h **** #endif
 194:lvgl/src/lv_widgets/../lv_core/lv_obj_style_dec.h **** _LV_OBJ_STYLE_SET_GET_DECLARE(SCALE_WIDTH, scale_width, lv_style_int_t, _int, scalar)
 1270              		.loc 2 194 1 is_stmt 1 view .LVU349
 1271              	.LBB58:
 1272              		.loc 2 194 1 view .LVU350
 1273 0052 C022     		movs	r2, #192
 1274 0054 4146     		mov	r1, r8
 1275 0056 3846     		mov	r0, r7
 1276 0058 FFF7FEFF 		bl	_lv_obj_get_style_int
 1277              	.LVL121:
 1278              		.loc 2 194 1 is_stmt 0 view .LVU351
 1279              	.LBE58:
 1280              	.LBE57:
 316:lvgl/src/lv_widgets/lv_linemeter.c ****     if(r_in < 1) r_in = 1;
 1281              		.loc 1 316 32 view .LVU352
 1282 005c 80B2     		uxth	r0, r0
 316:lvgl/src/lv_widgets/lv_linemeter.c ****     if(r_in < 1) r_in = 1;
 1283              		.loc 1 316 30 view .LVU353
 1284 005e 301A     		subs	r0, r6, r0
 316:lvgl/src/lv_widgets/lv_linemeter.c ****     if(r_in < 1) r_in = 1;
 1285              		.loc 1 316 16 view .LVU354
 1286 0060 03B2     		sxth	r3, r0
 1287 0062 0A93     		str	r3, [sp, #40]
 1288              	.LVL122:
ARM GAS  D:\Temp\ccIs2YtX.s 			page 42


 317:lvgl/src/lv_widgets/lv_linemeter.c **** 
 1289              		.loc 1 317 5 is_stmt 1 view .LVU355
 317:lvgl/src/lv_widgets/lv_linemeter.c **** 
 1290              		.loc 1 317 7 is_stmt 0 view .LVU356
 1291 0064 002B     		cmp	r3, #0
 1292 0066 55DD     		ble	.L120
 1293              	.LVL123:
 1294              	.L95:
 319:lvgl/src/lv_widgets/lv_linemeter.c ****     lv_coord_t y_ofs  = lmeter->coords.y1 + r_out + top;
 1295              		.loc 1 319 5 is_stmt 1 view .LVU357
 319:lvgl/src/lv_widgets/lv_linemeter.c ****     lv_coord_t y_ofs  = lmeter->coords.y1 + r_out + top;
 1296              		.loc 1 319 39 is_stmt 0 view .LVU358
 1297 0068 129A     		ldr	r2, [sp, #72]
 1298 006a 138A     		ldrh	r3, [r2, #16]
 319:lvgl/src/lv_widgets/lv_linemeter.c ****     lv_coord_t y_ofs  = lmeter->coords.y1 + r_out + top;
 1299              		.loc 1 319 43 view .LVU359
 1300 006c 1499     		ldr	r1, [sp, #80]
 1301 006e 0B44     		add	r3, r3, r1
 319:lvgl/src/lv_widgets/lv_linemeter.c ****     lv_coord_t y_ofs  = lmeter->coords.y1 + r_out + top;
 1302              		.loc 1 319 51 view .LVU360
 1303 0070 15FA83F5 		uxtah	r5, r5, r3
 1304              	.LVL124:
 319:lvgl/src/lv_widgets/lv_linemeter.c ****     lv_coord_t y_ofs  = lmeter->coords.y1 + r_out + top;
 1305              		.loc 1 319 16 view .LVU361
 1306 0074 2BB2     		sxth	r3, r5
 1307 0076 0593     		str	r3, [sp, #20]
 1308              	.LVL125:
 320:lvgl/src/lv_widgets/lv_linemeter.c ****     int16_t angle_ofs = ext->angle_ofs + 90 + (360 - ext->scale_angle) / 2;
 1309              		.loc 1 320 5 is_stmt 1 view .LVU362
 320:lvgl/src/lv_widgets/lv_linemeter.c ****     int16_t angle_ofs = ext->angle_ofs + 90 + (360 - ext->scale_angle) / 2;
 1310              		.loc 1 320 39 is_stmt 0 view .LVU363
 1311 0078 538A     		ldrh	r3, [r2, #18]
 320:lvgl/src/lv_widgets/lv_linemeter.c ****     int16_t angle_ofs = ext->angle_ofs + 90 + (360 - ext->scale_angle) / 2;
 1312              		.loc 1 320 43 view .LVU364
 1313 007a 0B44     		add	r3, r3, r1
 320:lvgl/src/lv_widgets/lv_linemeter.c ****     int16_t angle_ofs = ext->angle_ofs + 90 + (360 - ext->scale_angle) / 2;
 1314              		.loc 1 320 51 view .LVU365
 1315 007c 14FA83F4 		uxtah	r4, r4, r3
 1316              	.LVL126:
 320:lvgl/src/lv_widgets/lv_linemeter.c ****     int16_t angle_ofs = ext->angle_ofs + 90 + (360 - ext->scale_angle) / 2;
 1317              		.loc 1 320 16 view .LVU366
 1318 0080 23B2     		sxth	r3, r4
 1319 0082 0693     		str	r3, [sp, #24]
 1320              	.LVL127:
 321:lvgl/src/lv_widgets/lv_linemeter.c ****     int16_t level = ext->mirrored ?
 1321              		.loc 1 321 5 is_stmt 1 view .LVU367
 321:lvgl/src/lv_widgets/lv_linemeter.c ****     int16_t level = ext->mirrored ?
 1322              		.loc 1 321 28 is_stmt 0 view .LVU368
 1323 0084 0799     		ldr	r1, [sp, #28]
 1324 0086 4A88     		ldrh	r2, [r1, #2]
 321:lvgl/src/lv_widgets/lv_linemeter.c ****     int16_t level = ext->mirrored ?
 1325              		.loc 1 321 57 view .LVU369
 1326 0088 0B88     		ldrh	r3, [r1]
 321:lvgl/src/lv_widgets/lv_linemeter.c ****     int16_t level = ext->mirrored ?
 1327              		.loc 1 321 52 view .LVU370
 1328 008a C3F5B473 		rsb	r3, r3, #360
 321:lvgl/src/lv_widgets/lv_linemeter.c ****     int16_t level = ext->mirrored ?
ARM GAS  D:\Temp\ccIs2YtX.s 			page 43


 1329              		.loc 1 321 72 view .LVU371
 1330 008e 03EBD373 		add	r3, r3, r3, lsr #31
 321:lvgl/src/lv_widgets/lv_linemeter.c ****     int16_t level = ext->mirrored ?
 1331              		.loc 1 321 45 view .LVU372
 1332 0092 02EB6303 		add	r3, r2, r3, asr #1
 1333 0096 5A33     		adds	r3, r3, #90
 1334 0098 9BB2     		uxth	r3, r3
 1335 009a 0B93     		str	r3, [sp, #44]
 321:lvgl/src/lv_widgets/lv_linemeter.c ****     int16_t level = ext->mirrored ?
 1336              		.loc 1 321 13 view .LVU373
 1337 009c 1BB2     		sxth	r3, r3
 1338 009e 1593     		str	r3, [sp, #84]
 1339              	.LVL128:
 322:lvgl/src/lv_widgets/lv_linemeter.c ****                     (int32_t)((int32_t)(ext->max_value - ext->cur_value) * (ext->line_cnt - 1)) / (
 1340              		.loc 1 322 5 is_stmt 1 view .LVU374
 322:lvgl/src/lv_widgets/lv_linemeter.c ****                     (int32_t)((int32_t)(ext->max_value - ext->cur_value) * (ext->line_cnt - 1)) / (
 1341              		.loc 1 322 35 is_stmt 0 view .LVU375
 1342 00a0 0846     		mov	r0, r1
 1343 00a2 0B7D     		ldrb	r3, [r1, #20]	@ zero_extendqisi2
 322:lvgl/src/lv_widgets/lv_linemeter.c ****                     (int32_t)((int32_t)(ext->max_value - ext->cur_value) * (ext->line_cnt - 1)) / (
 1344              		.loc 1 322 13 view .LVU376
 1345 00a4 13F0010F 		tst	r3, #1
 1346 00a8 37D0     		beq	.L96
 323:lvgl/src/lv_widgets/lv_linemeter.c ****                     (int32_t)((int32_t)(ext->cur_value - ext->min_value) * (ext->line_cnt - 1)) / (
 1347              		.loc 1 323 44 discriminator 1 view .LVU377
 1348 00aa 0A69     		ldr	r2, [r1, #16]
 323:lvgl/src/lv_widgets/lv_linemeter.c ****                     (int32_t)((int32_t)(ext->cur_value - ext->min_value) * (ext->line_cnt - 1)) / (
 1349              		.loc 1 323 61 discriminator 1 view .LVU378
 1350 00ac 8B68     		ldr	r3, [r1, #8]
 323:lvgl/src/lv_widgets/lv_linemeter.c ****                     (int32_t)((int32_t)(ext->cur_value - ext->min_value) * (ext->line_cnt - 1)) / (
 1351              		.loc 1 323 56 discriminator 1 view .LVU379
 1352 00ae D11A     		subs	r1, r2, r3
 323:lvgl/src/lv_widgets/lv_linemeter.c ****                     (int32_t)((int32_t)(ext->cur_value - ext->min_value) * (ext->line_cnt - 1)) / (
 1353              		.loc 1 323 80 discriminator 1 view .LVU380
 1354 00b0 8388     		ldrh	r3, [r0, #4]
 323:lvgl/src/lv_widgets/lv_linemeter.c ****                     (int32_t)((int32_t)(ext->cur_value - ext->min_value) * (ext->line_cnt - 1)) / (
 1355              		.loc 1 323 91 discriminator 1 view .LVU381
 1356 00b2 013B     		subs	r3, r3, #1
 323:lvgl/src/lv_widgets/lv_linemeter.c ****                     (int32_t)((int32_t)(ext->cur_value - ext->min_value) * (ext->line_cnt - 1)) / (
 1357              		.loc 1 323 21 discriminator 1 view .LVU382
 1358 00b4 03FB01F3 		mul	r3, r3, r1
 323:lvgl/src/lv_widgets/lv_linemeter.c ****                     (int32_t)((int32_t)(ext->cur_value - ext->min_value) * (ext->line_cnt - 1)) / (
 1359              		.loc 1 323 120 discriminator 1 view .LVU383
 1360 00b8 C168     		ldr	r1, [r0, #12]
 323:lvgl/src/lv_widgets/lv_linemeter.c ****                     (int32_t)((int32_t)(ext->cur_value - ext->min_value) * (ext->line_cnt - 1)) / (
 1361              		.loc 1 323 115 discriminator 1 view .LVU384
 1362 00ba 521A     		subs	r2, r2, r1
 323:lvgl/src/lv_widgets/lv_linemeter.c ****                     (int32_t)((int32_t)(ext->cur_value - ext->min_value) * (ext->line_cnt - 1)) / (
 1363              		.loc 1 323 97 discriminator 1 view .LVU385
 1364 00bc 93FBF2F3 		sdiv	r3, r3, r2
 322:lvgl/src/lv_widgets/lv_linemeter.c ****                     (int32_t)((int32_t)(ext->max_value - ext->cur_value) * (ext->line_cnt - 1)) / (
 1365              		.loc 1 322 13 discriminator 1 view .LVU386
 1366 00c0 1BB2     		sxth	r3, r3
 1367 00c2 0D93     		str	r3, [sp, #52]
 1368              	.L97:
 1369              	.LVL129:
 325:lvgl/src/lv_widgets/lv_linemeter.c **** 
ARM GAS  D:\Temp\ccIs2YtX.s 			page 44


 1370              		.loc 1 325 5 is_stmt 1 discriminator 4 view .LVU387
 327:lvgl/src/lv_widgets/lv_linemeter.c ****     lv_color_t grad_color = lv_obj_get_style_scale_grad_color(lmeter, part);
 1371              		.loc 1 327 5 discriminator 4 view .LVU388
 1372              	.LBB59:
 1373              	.LBI59:
 174:lvgl/src/lv_widgets/../lv_core/lv_obj_style_dec.h **** _LV_OBJ_STYLE_SET_GET_DECLARE(LINE_OPA, line_opa, lv_opa_t, _opa, scalar)
 1374              		.loc 2 174 1 discriminator 4 view .LVU389
 1375              	.LBB60:
 174:lvgl/src/lv_widgets/../lv_core/lv_obj_style_dec.h **** _LV_OBJ_STYLE_SET_GET_DECLARE(LINE_OPA, line_opa, lv_opa_t, _opa, scalar)
 1376              		.loc 2 174 1 discriminator 4 view .LVU390
 1377 00c4 9922     		movs	r2, #153
 1378 00c6 139D     		ldr	r5, [sp, #76]
 1379 00c8 2946     		mov	r1, r5
 1380 00ca 129C     		ldr	r4, [sp, #72]
 1381 00cc 2046     		mov	r0, r4
 1382 00ce FFF7FEFF 		bl	_lv_obj_get_style_color
 1383              	.LVL130:
 1384 00d2 ADF83E00 		strh	r0, [sp, #62]	@ movhi
 1385              	.LVL131:
 174:lvgl/src/lv_widgets/../lv_core/lv_obj_style_dec.h **** _LV_OBJ_STYLE_SET_GET_DECLARE(LINE_OPA, line_opa, lv_opa_t, _opa, scalar)
 1386              		.loc 2 174 1 is_stmt 0 discriminator 4 view .LVU391
 1387              	.LBE60:
 1388              	.LBE59:
 328:lvgl/src/lv_widgets/lv_linemeter.c ****     lv_color_t end_color = lv_obj_get_style_scale_end_color(lmeter, part);
 1389              		.loc 1 328 5 is_stmt 1 discriminator 4 view .LVU392
 1390              	.LBB61:
 1391              	.LBI61:
 195:lvgl/src/lv_widgets/../lv_core/lv_obj_style_dec.h **** _LV_OBJ_STYLE_SET_GET_DECLARE(SCALE_BORDER_WIDTH, scale_border_width, lv_style_int_t, _int, scalar)
 196:lvgl/src/lv_widgets/../lv_core/lv_obj_style_dec.h **** _LV_OBJ_STYLE_SET_GET_DECLARE(SCALE_END_BORDER_WIDTH, scale_end_border_width, lv_style_int_t, _int,
 197:lvgl/src/lv_widgets/../lv_core/lv_obj_style_dec.h **** _LV_OBJ_STYLE_SET_GET_DECLARE(SCALE_END_LINE_WIDTH, scale_end_line_width, lv_style_int_t, _int, sca
 198:lvgl/src/lv_widgets/../lv_core/lv_obj_style_dec.h **** _LV_OBJ_STYLE_SET_GET_DECLARE(SCALE_GRAD_COLOR, scale_grad_color, lv_color_t, _color, nonscalar)
 1392              		.loc 2 198 1 discriminator 4 view .LVU393
 1393              	.LBB62:
 1394              		.loc 2 198 1 discriminator 4 view .LVU394
 1395 00d6 C922     		movs	r2, #201
 1396 00d8 2946     		mov	r1, r5
 1397 00da 2046     		mov	r0, r4
 1398 00dc FFF7FEFF 		bl	_lv_obj_get_style_color
 1399              	.LVL132:
 1400 00e0 ADF84000 		strh	r0, [sp, #64]	@ movhi
 1401              	.LVL133:
 1402              		.loc 2 198 1 is_stmt 0 discriminator 4 view .LVU395
 1403              	.LBE62:
 1404              	.LBE61:
 329:lvgl/src/lv_widgets/lv_linemeter.c **** 
 1405              		.loc 1 329 5 is_stmt 1 discriminator 4 view .LVU396
 1406              	.LBB63:
 1407              	.LBI63:
 199:lvgl/src/lv_widgets/../lv_core/lv_obj_style_dec.h **** _LV_OBJ_STYLE_SET_GET_DECLARE(SCALE_END_COLOR, scale_end_color, lv_color_t, _color, nonscalar)
 1408              		.loc 2 199 1 discriminator 4 view .LVU397
 1409              	.LBB64:
 1410              		.loc 2 199 1 discriminator 4 view .LVU398
 1411 00e4 CA22     		movs	r2, #202
 1412 00e6 2946     		mov	r1, r5
 1413 00e8 2046     		mov	r0, r4
 1414 00ea FFF7FEFF 		bl	_lv_obj_get_style_color
 1415              	.LVL134:
ARM GAS  D:\Temp\ccIs2YtX.s 			page 45


 1416 00ee ADF84200 		strh	r0, [sp, #66]	@ movhi
 1417              	.LVL135:
 1418              		.loc 2 199 1 is_stmt 0 discriminator 4 view .LVU399
 1419              	.LBE64:
 1420              	.LBE63:
 331:lvgl/src/lv_widgets/lv_linemeter.c ****     lv_draw_line_dsc_init(&line_dsc);
 1421              		.loc 1 331 5 is_stmt 1 discriminator 4 view .LVU400
 332:lvgl/src/lv_widgets/lv_linemeter.c ****     lv_obj_init_draw_line_dsc(lmeter, part, &line_dsc);
 1422              		.loc 1 332 5 discriminator 4 view .LVU401
 1423 00f2 1BA8     		add	r0, sp, #108
 1424 00f4 FFF7FEFF 		bl	lv_draw_line_dsc_init
 1425              	.LVL136:
 333:lvgl/src/lv_widgets/lv_linemeter.c **** #if LV_LINEMETER_PRECISE == 2
 1426              		.loc 1 333 5 discriminator 4 view .LVU402
 1427 00f8 1BAA     		add	r2, sp, #108
 1428 00fa 2946     		mov	r1, r5
 1429 00fc 2046     		mov	r0, r4
 1430 00fe FFF7FEFF 		bl	lv_obj_init_draw_line_dsc
 1431              	.LVL137:
 338:lvgl/src/lv_widgets/lv_linemeter.c **** 
 1432              		.loc 1 338 5 discriminator 4 view .LVU403
 1433              	.LBB65:
 1434              	.LBI65:
 197:lvgl/src/lv_widgets/../lv_core/lv_obj_style_dec.h **** _LV_OBJ_STYLE_SET_GET_DECLARE(SCALE_GRAD_COLOR, scale_grad_color, lv_color_t, _color, nonscalar)
 1435              		.loc 2 197 1 discriminator 4 view .LVU404
 1436              	.LBB66:
 197:lvgl/src/lv_widgets/../lv_core/lv_obj_style_dec.h **** _LV_OBJ_STYLE_SET_GET_DECLARE(SCALE_GRAD_COLOR, scale_grad_color, lv_color_t, _color, nonscalar)
 1437              		.loc 2 197 1 discriminator 4 view .LVU405
 1438 0102 C322     		movs	r2, #195
 1439 0104 2946     		mov	r1, r5
 1440 0106 2046     		mov	r0, r4
 1441 0108 FFF7FEFF 		bl	_lv_obj_get_style_int
 1442              	.LVL138:
 1443 010c 1190     		str	r0, [sp, #68]
 1444              	.LVL139:
 197:lvgl/src/lv_widgets/../lv_core/lv_obj_style_dec.h **** _LV_OBJ_STYLE_SET_GET_DECLARE(SCALE_GRAD_COLOR, scale_grad_color, lv_color_t, _color, nonscalar)
 1445              		.loc 2 197 1 is_stmt 0 discriminator 4 view .LVU406
 1446              	.LBE66:
 1447              	.LBE65:
 363:lvgl/src/lv_widgets/lv_linemeter.c **** #endif
 1448              		.loc 1 363 5 is_stmt 1 discriminator 4 view .LVU407
 366:lvgl/src/lv_widgets/lv_linemeter.c ****         /* `* 256` for extra precision*/
 1449              		.loc 1 366 5 discriminator 4 view .LVU408
 366:lvgl/src/lv_widgets/lv_linemeter.c ****         /* `* 256` for extra precision*/
 1450              		.loc 1 366 11 is_stmt 0 discriminator 4 view .LVU409
 1451 010e 0023     		movs	r3, #0
 1452 0110 0493     		str	r3, [sp, #16]
 366:lvgl/src/lv_widgets/lv_linemeter.c ****         /* `* 256` for extra precision*/
 1453              		.loc 1 366 5 discriminator 4 view .LVU410
 1454 0112 74E0     		b	.L98
 1455              	.LVL140:
 1456              	.L120:
 317:lvgl/src/lv_widgets/lv_linemeter.c **** 
 1457              		.loc 1 317 23 view .LVU411
 1458 0114 0123     		movs	r3, #1
 1459              	.LVL141:
 317:lvgl/src/lv_widgets/lv_linemeter.c **** 
ARM GAS  D:\Temp\ccIs2YtX.s 			page 46


 1460              		.loc 1 317 23 view .LVU412
 1461 0116 0A93     		str	r3, [sp, #40]
 1462              	.LVL142:
 317:lvgl/src/lv_widgets/lv_linemeter.c **** 
 1463              		.loc 1 317 23 view .LVU413
 1464 0118 A6E7     		b	.L95
 1465              	.LVL143:
 1466              	.L96:
 324:lvgl/src/lv_widgets/lv_linemeter.c ****     uint8_t i;
 1467              		.loc 1 324 44 discriminator 2 view .LVU414
 1468 011a 0798     		ldr	r0, [sp, #28]
 1469 011c 8368     		ldr	r3, [r0, #8]
 324:lvgl/src/lv_widgets/lv_linemeter.c ****     uint8_t i;
 1470              		.loc 1 324 61 discriminator 2 view .LVU415
 1471 011e C168     		ldr	r1, [r0, #12]
 324:lvgl/src/lv_widgets/lv_linemeter.c ****     uint8_t i;
 1472              		.loc 1 324 56 discriminator 2 view .LVU416
 1473 0120 5A1A     		subs	r2, r3, r1
 324:lvgl/src/lv_widgets/lv_linemeter.c ****     uint8_t i;
 1474              		.loc 1 324 80 discriminator 2 view .LVU417
 1475 0122 8388     		ldrh	r3, [r0, #4]
 324:lvgl/src/lv_widgets/lv_linemeter.c ****     uint8_t i;
 1476              		.loc 1 324 91 discriminator 2 view .LVU418
 1477 0124 013B     		subs	r3, r3, #1
 324:lvgl/src/lv_widgets/lv_linemeter.c ****     uint8_t i;
 1478              		.loc 1 324 21 discriminator 2 view .LVU419
 1479 0126 03FB02F3 		mul	r3, r3, r2
 324:lvgl/src/lv_widgets/lv_linemeter.c ****     uint8_t i;
 1480              		.loc 1 324 103 discriminator 2 view .LVU420
 1481 012a 0269     		ldr	r2, [r0, #16]
 324:lvgl/src/lv_widgets/lv_linemeter.c ****     uint8_t i;
 1482              		.loc 1 324 115 discriminator 2 view .LVU421
 1483 012c 521A     		subs	r2, r2, r1
 324:lvgl/src/lv_widgets/lv_linemeter.c ****     uint8_t i;
 1484              		.loc 1 324 97 discriminator 2 view .LVU422
 1485 012e 93FBF2F3 		sdiv	r3, r3, r2
 322:lvgl/src/lv_widgets/lv_linemeter.c ****                     (int32_t)((int32_t)(ext->max_value - ext->cur_value) * (ext->line_cnt - 1)) / (
 1486              		.loc 1 322 13 discriminator 2 view .LVU423
 1487 0132 1BB2     		sxth	r3, r3
 1488 0134 0D93     		str	r3, [sp, #52]
 1489 0136 C5E7     		b	.L97
 1490              	.LVL144:
 1491              	.L99:
 1492              	.LBB67:
 390:lvgl/src/lv_widgets/lv_linemeter.c **** 
 1493              		.loc 1 390 14 is_stmt 1 view .LVU424
 390:lvgl/src/lv_widgets/lv_linemeter.c **** 
 1494              		.loc 1 390 41 is_stmt 0 view .LVU425
 1495 0138 A8F17F08 		sub	r8, r8, #127
 1496              	.LVL145:
 390:lvgl/src/lv_widgets/lv_linemeter.c **** 
 1497              		.loc 1 390 26 view .LVU426
 1498 013c 4FEA2828 		asr	r8, r8, #8
 1499              	.LVL146:
 390:lvgl/src/lv_widgets/lv_linemeter.c **** 
 1500              		.loc 1 390 26 view .LVU427
 1501 0140 A9E0     		b	.L100
ARM GAS  D:\Temp\ccIs2YtX.s 			page 47


 1502              	.L101:
 393:lvgl/src/lv_widgets/lv_linemeter.c **** 
 1503              		.loc 1 393 14 is_stmt 1 view .LVU428
 393:lvgl/src/lv_widgets/lv_linemeter.c **** 
 1504              		.loc 1 393 41 is_stmt 0 view .LVU429
 1505 0142 7F3F     		subs	r7, r7, #127
 1506              	.LVL147:
 393:lvgl/src/lv_widgets/lv_linemeter.c **** 
 1507              		.loc 1 393 26 view .LVU430
 1508 0144 3F12     		asrs	r7, r7, #8
 1509              	.LVL148:
 393:lvgl/src/lv_widgets/lv_linemeter.c **** 
 1510              		.loc 1 393 26 view .LVU431
 1511 0146 ABE0     		b	.L102
 1512              	.LVL149:
 1513              	.L103:
 406:lvgl/src/lv_widgets/lv_linemeter.c **** 
 1514              		.loc 1 406 14 is_stmt 1 view .LVU432
 406:lvgl/src/lv_widgets/lv_linemeter.c **** 
 1515              		.loc 1 406 39 is_stmt 0 view .LVU433
 1516 0148 7F3C     		subs	r4, r4, #127
 1517              	.LVL150:
 406:lvgl/src/lv_widgets/lv_linemeter.c **** 
 1518              		.loc 1 406 25 view .LVU434
 1519 014a 2412     		asrs	r4, r4, #8
 1520              	.LVL151:
 406:lvgl/src/lv_widgets/lv_linemeter.c **** 
 1521              		.loc 1 406 25 view .LVU435
 1522 014c B9E0     		b	.L104
 1523              	.L105:
 409:lvgl/src/lv_widgets/lv_linemeter.c **** 
 1524              		.loc 1 409 14 is_stmt 1 view .LVU436
 409:lvgl/src/lv_widgets/lv_linemeter.c **** 
 1525              		.loc 1 409 39 is_stmt 0 view .LVU437
 1526 014e 7F3D     		subs	r5, r5, #127
 1527              	.LVL152:
 409:lvgl/src/lv_widgets/lv_linemeter.c **** 
 1528              		.loc 1 409 25 view .LVU438
 1529 0150 2D12     		asrs	r5, r5, #8
 1530              	.LVL153:
 409:lvgl/src/lv_widgets/lv_linemeter.c **** 
 1531              		.loc 1 409 25 view .LVU439
 1532 0152 BBE0     		b	.L106
 1533              	.LVL154:
 1534              	.L111:
 454:lvgl/src/lv_widgets/lv_linemeter.c ****         }
 1535              		.loc 1 454 13 is_stmt 1 view .LVU440
 454:lvgl/src/lv_widgets/lv_linemeter.c ****         }
 1536              		.loc 1 454 72 is_stmt 0 view .LVU441
 1537 0154 099B     		ldr	r3, [sp, #36]
 1538 0156 C3EB0323 		rsb	r3, r3, r3, lsl #8
 454:lvgl/src/lv_widgets/lv_linemeter.c ****         }
 1539              		.loc 1 454 82 view .LVU442
 1540 015a 079A     		ldr	r2, [sp, #28]
 1541 015c 9288     		ldrh	r2, [r2, #4]
 454:lvgl/src/lv_widgets/lv_linemeter.c ****         }
 1542              		.loc 1 454 77 view .LVU443
ARM GAS  D:\Temp\ccIs2YtX.s 			page 48


 1543 015e 93FBF2F3 		sdiv	r3, r3, r2
 454:lvgl/src/lv_widgets/lv_linemeter.c ****         }
 1544              		.loc 1 454 30 view .LVU444
 1545 0162 DBB2     		uxtb	r3, r3
 1546              	.LVL155:
 1547              	.LBB68:
 1548              	.LBI68:
 1549              		.file 3 "lvgl/src/lv_widgets/../lv_core/../lv_misc/lv_color.h"
   1:lvgl/src/lv_widgets/../lv_core/../lv_misc/lv_color.h **** /**
   2:lvgl/src/lv_widgets/../lv_core/../lv_misc/lv_color.h ****  * @file lv_color.h
   3:lvgl/src/lv_widgets/../lv_core/../lv_misc/lv_color.h ****  *
   4:lvgl/src/lv_widgets/../lv_core/../lv_misc/lv_color.h ****  */
   5:lvgl/src/lv_widgets/../lv_core/../lv_misc/lv_color.h **** 
   6:lvgl/src/lv_widgets/../lv_core/../lv_misc/lv_color.h **** #ifndef LV_COLOR_H
   7:lvgl/src/lv_widgets/../lv_core/../lv_misc/lv_color.h **** #define LV_COLOR_H
   8:lvgl/src/lv_widgets/../lv_core/../lv_misc/lv_color.h **** 
   9:lvgl/src/lv_widgets/../lv_core/../lv_misc/lv_color.h **** #ifdef __cplusplus
  10:lvgl/src/lv_widgets/../lv_core/../lv_misc/lv_color.h **** extern "C" {
  11:lvgl/src/lv_widgets/../lv_core/../lv_misc/lv_color.h **** #endif
  12:lvgl/src/lv_widgets/../lv_core/../lv_misc/lv_color.h **** 
  13:lvgl/src/lv_widgets/../lv_core/../lv_misc/lv_color.h **** /*********************
  14:lvgl/src/lv_widgets/../lv_core/../lv_misc/lv_color.h ****  *      INCLUDES
  15:lvgl/src/lv_widgets/../lv_core/../lv_misc/lv_color.h ****  *********************/
  16:lvgl/src/lv_widgets/../lv_core/../lv_misc/lv_color.h **** #include "../lv_conf_internal.h"
  17:lvgl/src/lv_widgets/../lv_core/../lv_misc/lv_color.h **** #include "lv_math.h"
  18:lvgl/src/lv_widgets/../lv_core/../lv_misc/lv_color.h **** 
  19:lvgl/src/lv_widgets/../lv_core/../lv_misc/lv_color.h **** /*Error checking*/
  20:lvgl/src/lv_widgets/../lv_core/../lv_misc/lv_color.h **** #if LV_COLOR_DEPTH == 24
  21:lvgl/src/lv_widgets/../lv_core/../lv_misc/lv_color.h **** #error "LV_COLOR_DEPTH 24 is deprecated. Use LV_COLOR_DEPTH 32 instead (lv_conf.h)"
  22:lvgl/src/lv_widgets/../lv_core/../lv_misc/lv_color.h **** #endif
  23:lvgl/src/lv_widgets/../lv_core/../lv_misc/lv_color.h **** 
  24:lvgl/src/lv_widgets/../lv_core/../lv_misc/lv_color.h **** #if LV_COLOR_DEPTH != 32 && LV_COLOR_SCREEN_TRANSP != 0
  25:lvgl/src/lv_widgets/../lv_core/../lv_misc/lv_color.h **** #error "LV_COLOR_SCREEN_TRANSP requires LV_COLOR_DEPTH == 32. Set it in lv_conf.h"
  26:lvgl/src/lv_widgets/../lv_core/../lv_misc/lv_color.h **** #endif
  27:lvgl/src/lv_widgets/../lv_core/../lv_misc/lv_color.h **** 
  28:lvgl/src/lv_widgets/../lv_core/../lv_misc/lv_color.h **** #if LV_COLOR_DEPTH != 16 && LV_COLOR_16_SWAP != 0
  29:lvgl/src/lv_widgets/../lv_core/../lv_misc/lv_color.h **** #error "LV_COLOR_16_SWAP requires LV_COLOR_DEPTH == 16. Set it in lv_conf.h"
  30:lvgl/src/lv_widgets/../lv_core/../lv_misc/lv_color.h **** #endif
  31:lvgl/src/lv_widgets/../lv_core/../lv_misc/lv_color.h **** 
  32:lvgl/src/lv_widgets/../lv_core/../lv_misc/lv_color.h **** #include <stdint.h>
  33:lvgl/src/lv_widgets/../lv_core/../lv_misc/lv_color.h **** 
  34:lvgl/src/lv_widgets/../lv_core/../lv_misc/lv_color.h **** /*********************
  35:lvgl/src/lv_widgets/../lv_core/../lv_misc/lv_color.h ****  *      DEFINES
  36:lvgl/src/lv_widgets/../lv_core/../lv_misc/lv_color.h ****  *********************/
  37:lvgl/src/lv_widgets/../lv_core/../lv_misc/lv_color.h **** #define LV_COLOR_WHITE   LV_COLOR_MAKE(0xFF, 0xFF, 0xFF)
  38:lvgl/src/lv_widgets/../lv_core/../lv_misc/lv_color.h **** #define LV_COLOR_SILVER  LV_COLOR_MAKE(0xC0, 0xC0, 0xC0)
  39:lvgl/src/lv_widgets/../lv_core/../lv_misc/lv_color.h **** #define LV_COLOR_GRAY    LV_COLOR_MAKE(0x80, 0x80, 0x80)
  40:lvgl/src/lv_widgets/../lv_core/../lv_misc/lv_color.h **** #define LV_COLOR_BLACK   LV_COLOR_MAKE(0x00, 0x00, 0x00)
  41:lvgl/src/lv_widgets/../lv_core/../lv_misc/lv_color.h **** #define LV_COLOR_RED     LV_COLOR_MAKE(0xFF, 0x00, 0x00)
  42:lvgl/src/lv_widgets/../lv_core/../lv_misc/lv_color.h **** #define LV_COLOR_MAROON  LV_COLOR_MAKE(0x80, 0x00, 0x00)
  43:lvgl/src/lv_widgets/../lv_core/../lv_misc/lv_color.h **** #define LV_COLOR_YELLOW  LV_COLOR_MAKE(0xFF, 0xFF, 0x00)
  44:lvgl/src/lv_widgets/../lv_core/../lv_misc/lv_color.h **** #define LV_COLOR_OLIVE   LV_COLOR_MAKE(0x80, 0x80, 0x00)
  45:lvgl/src/lv_widgets/../lv_core/../lv_misc/lv_color.h **** #define LV_COLOR_LIME    LV_COLOR_MAKE(0x00, 0xFF, 0x00)
  46:lvgl/src/lv_widgets/../lv_core/../lv_misc/lv_color.h **** #define LV_COLOR_GREEN   LV_COLOR_MAKE(0x00, 0x80, 0x00)
  47:lvgl/src/lv_widgets/../lv_core/../lv_misc/lv_color.h **** #define LV_COLOR_CYAN    LV_COLOR_MAKE(0x00, 0xFF, 0xFF)
  48:lvgl/src/lv_widgets/../lv_core/../lv_misc/lv_color.h **** #define LV_COLOR_AQUA    LV_COLOR_CYAN
  49:lvgl/src/lv_widgets/../lv_core/../lv_misc/lv_color.h **** #define LV_COLOR_TEAL    LV_COLOR_MAKE(0x00, 0x80, 0x80)
ARM GAS  D:\Temp\ccIs2YtX.s 			page 49


  50:lvgl/src/lv_widgets/../lv_core/../lv_misc/lv_color.h **** #define LV_COLOR_BLUE    LV_COLOR_MAKE(0x00, 0x00, 0xFF)
  51:lvgl/src/lv_widgets/../lv_core/../lv_misc/lv_color.h **** #define LV_COLOR_NAVY    LV_COLOR_MAKE(0x00, 0x00, 0x80)
  52:lvgl/src/lv_widgets/../lv_core/../lv_misc/lv_color.h **** #define LV_COLOR_MAGENTA LV_COLOR_MAKE(0xFF, 0x00, 0xFF)
  53:lvgl/src/lv_widgets/../lv_core/../lv_misc/lv_color.h **** #define LV_COLOR_PURPLE  LV_COLOR_MAKE(0x80, 0x00, 0x80)
  54:lvgl/src/lv_widgets/../lv_core/../lv_misc/lv_color.h **** #define LV_COLOR_ORANGE  LV_COLOR_MAKE(0xFF, 0xA5, 0x00)
  55:lvgl/src/lv_widgets/../lv_core/../lv_misc/lv_color.h **** 
  56:lvgl/src/lv_widgets/../lv_core/../lv_misc/lv_color.h **** /**
  57:lvgl/src/lv_widgets/../lv_core/../lv_misc/lv_color.h ****  * Opacity percentages.
  58:lvgl/src/lv_widgets/../lv_core/../lv_misc/lv_color.h ****  */
  59:lvgl/src/lv_widgets/../lv_core/../lv_misc/lv_color.h **** enum {
  60:lvgl/src/lv_widgets/../lv_core/../lv_misc/lv_color.h ****     LV_OPA_TRANSP = 0,
  61:lvgl/src/lv_widgets/../lv_core/../lv_misc/lv_color.h ****     LV_OPA_0      = 0,
  62:lvgl/src/lv_widgets/../lv_core/../lv_misc/lv_color.h ****     LV_OPA_10     = 25,
  63:lvgl/src/lv_widgets/../lv_core/../lv_misc/lv_color.h ****     LV_OPA_20     = 51,
  64:lvgl/src/lv_widgets/../lv_core/../lv_misc/lv_color.h ****     LV_OPA_30     = 76,
  65:lvgl/src/lv_widgets/../lv_core/../lv_misc/lv_color.h ****     LV_OPA_40     = 102,
  66:lvgl/src/lv_widgets/../lv_core/../lv_misc/lv_color.h ****     LV_OPA_50     = 127,
  67:lvgl/src/lv_widgets/../lv_core/../lv_misc/lv_color.h ****     LV_OPA_60     = 153,
  68:lvgl/src/lv_widgets/../lv_core/../lv_misc/lv_color.h ****     LV_OPA_70     = 178,
  69:lvgl/src/lv_widgets/../lv_core/../lv_misc/lv_color.h ****     LV_OPA_80     = 204,
  70:lvgl/src/lv_widgets/../lv_core/../lv_misc/lv_color.h ****     LV_OPA_90     = 229,
  71:lvgl/src/lv_widgets/../lv_core/../lv_misc/lv_color.h ****     LV_OPA_100    = 255,
  72:lvgl/src/lv_widgets/../lv_core/../lv_misc/lv_color.h ****     LV_OPA_COVER  = 255,
  73:lvgl/src/lv_widgets/../lv_core/../lv_misc/lv_color.h **** };
  74:lvgl/src/lv_widgets/../lv_core/../lv_misc/lv_color.h **** 
  75:lvgl/src/lv_widgets/../lv_core/../lv_misc/lv_color.h **** #define LV_OPA_MIN 2    /*Opacities below this will be transparent*/
  76:lvgl/src/lv_widgets/../lv_core/../lv_misc/lv_color.h **** #define LV_OPA_MAX 253  /*Opacities above this will fully cover*/
  77:lvgl/src/lv_widgets/../lv_core/../lv_misc/lv_color.h **** 
  78:lvgl/src/lv_widgets/../lv_core/../lv_misc/lv_color.h **** #if LV_COLOR_DEPTH == 1
  79:lvgl/src/lv_widgets/../lv_core/../lv_misc/lv_color.h **** #define LV_COLOR_SIZE 8
  80:lvgl/src/lv_widgets/../lv_core/../lv_misc/lv_color.h **** #elif LV_COLOR_DEPTH == 8
  81:lvgl/src/lv_widgets/../lv_core/../lv_misc/lv_color.h **** #define LV_COLOR_SIZE 8
  82:lvgl/src/lv_widgets/../lv_core/../lv_misc/lv_color.h **** #elif LV_COLOR_DEPTH == 16
  83:lvgl/src/lv_widgets/../lv_core/../lv_misc/lv_color.h **** #define LV_COLOR_SIZE 16
  84:lvgl/src/lv_widgets/../lv_core/../lv_misc/lv_color.h **** #elif LV_COLOR_DEPTH == 32
  85:lvgl/src/lv_widgets/../lv_core/../lv_misc/lv_color.h **** #define LV_COLOR_SIZE 32
  86:lvgl/src/lv_widgets/../lv_core/../lv_misc/lv_color.h **** #else
  87:lvgl/src/lv_widgets/../lv_core/../lv_misc/lv_color.h **** #error "Invalid LV_COLOR_DEPTH in lv_conf.h! Set it to 1, 8, 16 or 32!"
  88:lvgl/src/lv_widgets/../lv_core/../lv_misc/lv_color.h **** #endif
  89:lvgl/src/lv_widgets/../lv_core/../lv_misc/lv_color.h **** 
  90:lvgl/src/lv_widgets/../lv_core/../lv_misc/lv_color.h **** /* Adjust color mix functions rounding.
  91:lvgl/src/lv_widgets/../lv_core/../lv_misc/lv_color.h ****  * GPUs might calculate color mix (blending) differently.
  92:lvgl/src/lv_widgets/../lv_core/../lv_misc/lv_color.h ****  * Should be in range of 0..254
  93:lvgl/src/lv_widgets/../lv_core/../lv_misc/lv_color.h ****  * 0: no adjustment, get the integer part of the result (round down)
  94:lvgl/src/lv_widgets/../lv_core/../lv_misc/lv_color.h ****  * 64: round up from x.75
  95:lvgl/src/lv_widgets/../lv_core/../lv_misc/lv_color.h ****  * 128: round up from half
  96:lvgl/src/lv_widgets/../lv_core/../lv_misc/lv_color.h ****  * 192: round up from x.25
  97:lvgl/src/lv_widgets/../lv_core/../lv_misc/lv_color.h ****  * 254: round up */
  98:lvgl/src/lv_widgets/../lv_core/../lv_misc/lv_color.h **** #ifndef LV_COLOR_MIX_ROUND_OFS
  99:lvgl/src/lv_widgets/../lv_core/../lv_misc/lv_color.h **** #if LV_COLOR_DEPTH == 32
 100:lvgl/src/lv_widgets/../lv_core/../lv_misc/lv_color.h **** #define LV_COLOR_MIX_ROUND_OFS 0
 101:lvgl/src/lv_widgets/../lv_core/../lv_misc/lv_color.h **** #else
 102:lvgl/src/lv_widgets/../lv_core/../lv_misc/lv_color.h **** #define LV_COLOR_MIX_ROUND_OFS 128
 103:lvgl/src/lv_widgets/../lv_core/../lv_misc/lv_color.h **** #endif
 104:lvgl/src/lv_widgets/../lv_core/../lv_misc/lv_color.h **** #endif
 105:lvgl/src/lv_widgets/../lv_core/../lv_misc/lv_color.h **** 
 106:lvgl/src/lv_widgets/../lv_core/../lv_misc/lv_color.h **** /*---------------------------------------
ARM GAS  D:\Temp\ccIs2YtX.s 			page 50


 107:lvgl/src/lv_widgets/../lv_core/../lv_misc/lv_color.h ****  * Macros for all existing color depths
 108:lvgl/src/lv_widgets/../lv_core/../lv_misc/lv_color.h ****  * to set/get values of the color channels
 109:lvgl/src/lv_widgets/../lv_core/../lv_misc/lv_color.h ****  *------------------------------------------*/
 110:lvgl/src/lv_widgets/../lv_core/../lv_misc/lv_color.h **** # define LV_COLOR_SET_R1(c, v) (c).ch.red = (uint8_t)((v) & 0x1)
 111:lvgl/src/lv_widgets/../lv_core/../lv_misc/lv_color.h **** # define LV_COLOR_SET_G1(c, v) (c).ch.green = (uint8_t)((v) & 0x1)
 112:lvgl/src/lv_widgets/../lv_core/../lv_misc/lv_color.h **** # define LV_COLOR_SET_B1(c, v) (c).ch.blue = (uint8_t)((v) & 0x1)
 113:lvgl/src/lv_widgets/../lv_core/../lv_misc/lv_color.h **** # define LV_COLOR_SET_A1(c, v) do {} while(0)
 114:lvgl/src/lv_widgets/../lv_core/../lv_misc/lv_color.h **** 
 115:lvgl/src/lv_widgets/../lv_core/../lv_misc/lv_color.h **** # define LV_COLOR_GET_R1(c) (c).ch.red
 116:lvgl/src/lv_widgets/../lv_core/../lv_misc/lv_color.h **** # define LV_COLOR_GET_G1(c) (c).ch.green
 117:lvgl/src/lv_widgets/../lv_core/../lv_misc/lv_color.h **** # define LV_COLOR_GET_B1(c) (c).ch.blue
 118:lvgl/src/lv_widgets/../lv_core/../lv_misc/lv_color.h **** # define LV_COLOR_GET_A1(c) 0xFF
 119:lvgl/src/lv_widgets/../lv_core/../lv_misc/lv_color.h **** 
 120:lvgl/src/lv_widgets/../lv_core/../lv_misc/lv_color.h **** # define LV_COLOR_SET_R8(c, v) (c).ch.red = (uint8_t)((v) & 0x7U)
 121:lvgl/src/lv_widgets/../lv_core/../lv_misc/lv_color.h **** # define LV_COLOR_SET_G8(c, v) (c).ch.green = (uint8_t)((v) & 0x7U)
 122:lvgl/src/lv_widgets/../lv_core/../lv_misc/lv_color.h **** # define LV_COLOR_SET_B8(c, v) (c).ch.blue = (uint8_t)((v) & 0x3U)
 123:lvgl/src/lv_widgets/../lv_core/../lv_misc/lv_color.h **** # define LV_COLOR_SET_A8(c, v) do {} while(0)
 124:lvgl/src/lv_widgets/../lv_core/../lv_misc/lv_color.h **** 
 125:lvgl/src/lv_widgets/../lv_core/../lv_misc/lv_color.h **** # define LV_COLOR_GET_R8(c) (c).ch.red
 126:lvgl/src/lv_widgets/../lv_core/../lv_misc/lv_color.h **** # define LV_COLOR_GET_G8(c) (c).ch.green
 127:lvgl/src/lv_widgets/../lv_core/../lv_misc/lv_color.h **** # define LV_COLOR_GET_B8(c) (c).ch.blue
 128:lvgl/src/lv_widgets/../lv_core/../lv_misc/lv_color.h **** # define LV_COLOR_GET_A8(c) 0xFF
 129:lvgl/src/lv_widgets/../lv_core/../lv_misc/lv_color.h **** 
 130:lvgl/src/lv_widgets/../lv_core/../lv_misc/lv_color.h **** # define LV_COLOR_SET_R16(c, v) (c).ch.red = (uint8_t)((v) & 0x1FU)
 131:lvgl/src/lv_widgets/../lv_core/../lv_misc/lv_color.h **** #if LV_COLOR_16_SWAP == 0
 132:lvgl/src/lv_widgets/../lv_core/../lv_misc/lv_color.h **** # define LV_COLOR_SET_G16(c, v) (c).ch.green = (uint8_t)((v) & 0x3FU)
 133:lvgl/src/lv_widgets/../lv_core/../lv_misc/lv_color.h **** #else
 134:lvgl/src/lv_widgets/../lv_core/../lv_misc/lv_color.h **** # define LV_COLOR_SET_G16(c, v) {(c).ch.green_h = (uint8_t)(((v) >> 3) & 0x7); (c).ch.green_l = (ui
 135:lvgl/src/lv_widgets/../lv_core/../lv_misc/lv_color.h **** #endif
 136:lvgl/src/lv_widgets/../lv_core/../lv_misc/lv_color.h **** # define LV_COLOR_SET_B16(c, v) (c).ch.blue = (uint8_t)((v) & 0x1FU)
 137:lvgl/src/lv_widgets/../lv_core/../lv_misc/lv_color.h **** # define LV_COLOR_SET_A16(c, v) do {} while(0)
 138:lvgl/src/lv_widgets/../lv_core/../lv_misc/lv_color.h **** 
 139:lvgl/src/lv_widgets/../lv_core/../lv_misc/lv_color.h **** # define LV_COLOR_GET_R16(c) (c).ch.red
 140:lvgl/src/lv_widgets/../lv_core/../lv_misc/lv_color.h **** #if LV_COLOR_16_SWAP == 0
 141:lvgl/src/lv_widgets/../lv_core/../lv_misc/lv_color.h **** # define LV_COLOR_GET_G16(c) (c).ch.green
 142:lvgl/src/lv_widgets/../lv_core/../lv_misc/lv_color.h **** #else
 143:lvgl/src/lv_widgets/../lv_core/../lv_misc/lv_color.h **** # define LV_COLOR_GET_G16(c) (((c).ch.green_h << 3) + (c).ch.green_l)
 144:lvgl/src/lv_widgets/../lv_core/../lv_misc/lv_color.h **** #endif
 145:lvgl/src/lv_widgets/../lv_core/../lv_misc/lv_color.h **** # define LV_COLOR_GET_B16(c) (c).ch.blue
 146:lvgl/src/lv_widgets/../lv_core/../lv_misc/lv_color.h **** # define LV_COLOR_GET_A16(c) 0xFF
 147:lvgl/src/lv_widgets/../lv_core/../lv_misc/lv_color.h **** 
 148:lvgl/src/lv_widgets/../lv_core/../lv_misc/lv_color.h **** # define LV_COLOR_SET_R32(c, v) (c).ch.red = (uint8_t)((v) & 0xFF)
 149:lvgl/src/lv_widgets/../lv_core/../lv_misc/lv_color.h **** # define LV_COLOR_SET_G32(c, v) (c).ch.green = (uint8_t)((v) & 0xFF)
 150:lvgl/src/lv_widgets/../lv_core/../lv_misc/lv_color.h **** # define LV_COLOR_SET_B32(c, v) (c).ch.blue = (uint8_t)((v) & 0xFF)
 151:lvgl/src/lv_widgets/../lv_core/../lv_misc/lv_color.h **** # define LV_COLOR_SET_A32(c, v) (c).ch.alpha = (uint8_t)((v) & 0xFF)
 152:lvgl/src/lv_widgets/../lv_core/../lv_misc/lv_color.h **** 
 153:lvgl/src/lv_widgets/../lv_core/../lv_misc/lv_color.h **** # define LV_COLOR_GET_R32(c) (c).ch.red
 154:lvgl/src/lv_widgets/../lv_core/../lv_misc/lv_color.h **** # define LV_COLOR_GET_G32(c) (c).ch.green
 155:lvgl/src/lv_widgets/../lv_core/../lv_misc/lv_color.h **** # define LV_COLOR_GET_B32(c) (c).ch.blue
 156:lvgl/src/lv_widgets/../lv_core/../lv_misc/lv_color.h **** # define LV_COLOR_GET_A32(c) (c).ch.alpha
 157:lvgl/src/lv_widgets/../lv_core/../lv_misc/lv_color.h **** 
 158:lvgl/src/lv_widgets/../lv_core/../lv_misc/lv_color.h **** /*---------------------------------------
 159:lvgl/src/lv_widgets/../lv_core/../lv_misc/lv_color.h ****  * Macros for the current color depth
 160:lvgl/src/lv_widgets/../lv_core/../lv_misc/lv_color.h ****  * to set/get values of the color channels
 161:lvgl/src/lv_widgets/../lv_core/../lv_misc/lv_color.h ****  *------------------------------------------*/
 162:lvgl/src/lv_widgets/../lv_core/../lv_misc/lv_color.h **** #if LV_COLOR_DEPTH == 1
 163:lvgl/src/lv_widgets/../lv_core/../lv_misc/lv_color.h **** # define LV_COLOR_SET_R(c, v) LV_COLOR_SET_R1(c,v)
ARM GAS  D:\Temp\ccIs2YtX.s 			page 51


 164:lvgl/src/lv_widgets/../lv_core/../lv_misc/lv_color.h **** # define LV_COLOR_SET_G(c, v) LV_COLOR_SET_G1(c,v)
 165:lvgl/src/lv_widgets/../lv_core/../lv_misc/lv_color.h **** # define LV_COLOR_SET_B(c, v) LV_COLOR_SET_B1(c,v)
 166:lvgl/src/lv_widgets/../lv_core/../lv_misc/lv_color.h **** # define LV_COLOR_SET_A(c, v) LV_COLOR_SET_A1(c,v)
 167:lvgl/src/lv_widgets/../lv_core/../lv_misc/lv_color.h **** 
 168:lvgl/src/lv_widgets/../lv_core/../lv_misc/lv_color.h **** # define LV_COLOR_GET_R(c) LV_COLOR_GET_R1(c)
 169:lvgl/src/lv_widgets/../lv_core/../lv_misc/lv_color.h **** # define LV_COLOR_GET_G(c) LV_COLOR_GET_G1(c)
 170:lvgl/src/lv_widgets/../lv_core/../lv_misc/lv_color.h **** # define LV_COLOR_GET_B(c) LV_COLOR_GET_B1(c)
 171:lvgl/src/lv_widgets/../lv_core/../lv_misc/lv_color.h **** # define LV_COLOR_GET_A(c) LV_COLOR_GET_A1(c)
 172:lvgl/src/lv_widgets/../lv_core/../lv_misc/lv_color.h **** 
 173:lvgl/src/lv_widgets/../lv_core/../lv_misc/lv_color.h **** #elif LV_COLOR_DEPTH == 8
 174:lvgl/src/lv_widgets/../lv_core/../lv_misc/lv_color.h **** # define LV_COLOR_SET_R(c, v) LV_COLOR_SET_R8(c,v)
 175:lvgl/src/lv_widgets/../lv_core/../lv_misc/lv_color.h **** # define LV_COLOR_SET_G(c, v) LV_COLOR_SET_G8(c,v)
 176:lvgl/src/lv_widgets/../lv_core/../lv_misc/lv_color.h **** # define LV_COLOR_SET_B(c, v) LV_COLOR_SET_B8(c,v)
 177:lvgl/src/lv_widgets/../lv_core/../lv_misc/lv_color.h **** # define LV_COLOR_SET_A(c, v) LV_COLOR_SET_A8(c,v)
 178:lvgl/src/lv_widgets/../lv_core/../lv_misc/lv_color.h **** 
 179:lvgl/src/lv_widgets/../lv_core/../lv_misc/lv_color.h **** # define LV_COLOR_GET_R(c) LV_COLOR_GET_R8(c)
 180:lvgl/src/lv_widgets/../lv_core/../lv_misc/lv_color.h **** # define LV_COLOR_GET_G(c) LV_COLOR_GET_G8(c)
 181:lvgl/src/lv_widgets/../lv_core/../lv_misc/lv_color.h **** # define LV_COLOR_GET_B(c) LV_COLOR_GET_B8(c)
 182:lvgl/src/lv_widgets/../lv_core/../lv_misc/lv_color.h **** # define LV_COLOR_GET_A(c) LV_COLOR_GET_A8(c)
 183:lvgl/src/lv_widgets/../lv_core/../lv_misc/lv_color.h **** 
 184:lvgl/src/lv_widgets/../lv_core/../lv_misc/lv_color.h **** #elif LV_COLOR_DEPTH == 16
 185:lvgl/src/lv_widgets/../lv_core/../lv_misc/lv_color.h **** # define LV_COLOR_SET_R(c, v) LV_COLOR_SET_R16(c,v)
 186:lvgl/src/lv_widgets/../lv_core/../lv_misc/lv_color.h **** # define LV_COLOR_SET_G(c, v) LV_COLOR_SET_G16(c,v)
 187:lvgl/src/lv_widgets/../lv_core/../lv_misc/lv_color.h **** # define LV_COLOR_SET_B(c, v) LV_COLOR_SET_B16(c,v)
 188:lvgl/src/lv_widgets/../lv_core/../lv_misc/lv_color.h **** # define LV_COLOR_SET_A(c, v) LV_COLOR_SET_A16(c,v)
 189:lvgl/src/lv_widgets/../lv_core/../lv_misc/lv_color.h **** 
 190:lvgl/src/lv_widgets/../lv_core/../lv_misc/lv_color.h **** # define LV_COLOR_GET_R(c) LV_COLOR_GET_R16(c)
 191:lvgl/src/lv_widgets/../lv_core/../lv_misc/lv_color.h **** # define LV_COLOR_GET_G(c) LV_COLOR_GET_G16(c)
 192:lvgl/src/lv_widgets/../lv_core/../lv_misc/lv_color.h **** # define LV_COLOR_GET_B(c) LV_COLOR_GET_B16(c)
 193:lvgl/src/lv_widgets/../lv_core/../lv_misc/lv_color.h **** # define LV_COLOR_GET_A(c) LV_COLOR_GET_A16(c)
 194:lvgl/src/lv_widgets/../lv_core/../lv_misc/lv_color.h **** 
 195:lvgl/src/lv_widgets/../lv_core/../lv_misc/lv_color.h **** #elif LV_COLOR_DEPTH == 32
 196:lvgl/src/lv_widgets/../lv_core/../lv_misc/lv_color.h **** # define LV_COLOR_SET_R(c, v) LV_COLOR_SET_R32(c,v)
 197:lvgl/src/lv_widgets/../lv_core/../lv_misc/lv_color.h **** # define LV_COLOR_SET_G(c, v) LV_COLOR_SET_G32(c,v)
 198:lvgl/src/lv_widgets/../lv_core/../lv_misc/lv_color.h **** # define LV_COLOR_SET_B(c, v) LV_COLOR_SET_B32(c,v)
 199:lvgl/src/lv_widgets/../lv_core/../lv_misc/lv_color.h **** # define LV_COLOR_SET_A(c, v) LV_COLOR_SET_A32(c,v)
 200:lvgl/src/lv_widgets/../lv_core/../lv_misc/lv_color.h **** 
 201:lvgl/src/lv_widgets/../lv_core/../lv_misc/lv_color.h **** # define LV_COLOR_GET_R(c) LV_COLOR_GET_R32(c)
 202:lvgl/src/lv_widgets/../lv_core/../lv_misc/lv_color.h **** # define LV_COLOR_GET_G(c) LV_COLOR_GET_G32(c)
 203:lvgl/src/lv_widgets/../lv_core/../lv_misc/lv_color.h **** # define LV_COLOR_GET_B(c) LV_COLOR_GET_B32(c)
 204:lvgl/src/lv_widgets/../lv_core/../lv_misc/lv_color.h **** # define LV_COLOR_GET_A(c) LV_COLOR_GET_A32(c)
 205:lvgl/src/lv_widgets/../lv_core/../lv_misc/lv_color.h **** #endif
 206:lvgl/src/lv_widgets/../lv_core/../lv_misc/lv_color.h **** 
 207:lvgl/src/lv_widgets/../lv_core/../lv_misc/lv_color.h **** /**********************
 208:lvgl/src/lv_widgets/../lv_core/../lv_misc/lv_color.h ****  *      TYPEDEFS
 209:lvgl/src/lv_widgets/../lv_core/../lv_misc/lv_color.h ****  **********************/
 210:lvgl/src/lv_widgets/../lv_core/../lv_misc/lv_color.h **** 
 211:lvgl/src/lv_widgets/../lv_core/../lv_misc/lv_color.h **** typedef union {
 212:lvgl/src/lv_widgets/../lv_core/../lv_misc/lv_color.h ****     uint8_t full; /*must be declared first to set all bits of byte via initializer list */
 213:lvgl/src/lv_widgets/../lv_core/../lv_misc/lv_color.h ****     union {
 214:lvgl/src/lv_widgets/../lv_core/../lv_misc/lv_color.h ****         uint8_t blue : 1;
 215:lvgl/src/lv_widgets/../lv_core/../lv_misc/lv_color.h ****         uint8_t green : 1;
 216:lvgl/src/lv_widgets/../lv_core/../lv_misc/lv_color.h ****         uint8_t red : 1;
 217:lvgl/src/lv_widgets/../lv_core/../lv_misc/lv_color.h ****     } ch;
 218:lvgl/src/lv_widgets/../lv_core/../lv_misc/lv_color.h **** } lv_color1_t;
 219:lvgl/src/lv_widgets/../lv_core/../lv_misc/lv_color.h **** 
 220:lvgl/src/lv_widgets/../lv_core/../lv_misc/lv_color.h **** typedef union {
ARM GAS  D:\Temp\ccIs2YtX.s 			page 52


 221:lvgl/src/lv_widgets/../lv_core/../lv_misc/lv_color.h ****     struct {
 222:lvgl/src/lv_widgets/../lv_core/../lv_misc/lv_color.h ****         uint8_t blue : 2;
 223:lvgl/src/lv_widgets/../lv_core/../lv_misc/lv_color.h ****         uint8_t green : 3;
 224:lvgl/src/lv_widgets/../lv_core/../lv_misc/lv_color.h ****         uint8_t red : 3;
 225:lvgl/src/lv_widgets/../lv_core/../lv_misc/lv_color.h ****     } ch;
 226:lvgl/src/lv_widgets/../lv_core/../lv_misc/lv_color.h ****     uint8_t full;
 227:lvgl/src/lv_widgets/../lv_core/../lv_misc/lv_color.h **** } lv_color8_t;
 228:lvgl/src/lv_widgets/../lv_core/../lv_misc/lv_color.h **** 
 229:lvgl/src/lv_widgets/../lv_core/../lv_misc/lv_color.h **** typedef union {
 230:lvgl/src/lv_widgets/../lv_core/../lv_misc/lv_color.h ****     struct {
 231:lvgl/src/lv_widgets/../lv_core/../lv_misc/lv_color.h **** #if LV_COLOR_16_SWAP == 0
 232:lvgl/src/lv_widgets/../lv_core/../lv_misc/lv_color.h ****         uint16_t blue : 5;
 233:lvgl/src/lv_widgets/../lv_core/../lv_misc/lv_color.h ****         uint16_t green : 6;
 234:lvgl/src/lv_widgets/../lv_core/../lv_misc/lv_color.h ****         uint16_t red : 5;
 235:lvgl/src/lv_widgets/../lv_core/../lv_misc/lv_color.h **** #else
 236:lvgl/src/lv_widgets/../lv_core/../lv_misc/lv_color.h ****         uint16_t green_h : 3;
 237:lvgl/src/lv_widgets/../lv_core/../lv_misc/lv_color.h ****         uint16_t red : 5;
 238:lvgl/src/lv_widgets/../lv_core/../lv_misc/lv_color.h ****         uint16_t blue : 5;
 239:lvgl/src/lv_widgets/../lv_core/../lv_misc/lv_color.h ****         uint16_t green_l : 3;
 240:lvgl/src/lv_widgets/../lv_core/../lv_misc/lv_color.h **** #endif
 241:lvgl/src/lv_widgets/../lv_core/../lv_misc/lv_color.h ****     } ch;
 242:lvgl/src/lv_widgets/../lv_core/../lv_misc/lv_color.h ****     uint16_t full;
 243:lvgl/src/lv_widgets/../lv_core/../lv_misc/lv_color.h **** } lv_color16_t;
 244:lvgl/src/lv_widgets/../lv_core/../lv_misc/lv_color.h **** 
 245:lvgl/src/lv_widgets/../lv_core/../lv_misc/lv_color.h **** typedef union {
 246:lvgl/src/lv_widgets/../lv_core/../lv_misc/lv_color.h ****     struct {
 247:lvgl/src/lv_widgets/../lv_core/../lv_misc/lv_color.h ****         uint8_t blue;
 248:lvgl/src/lv_widgets/../lv_core/../lv_misc/lv_color.h ****         uint8_t green;
 249:lvgl/src/lv_widgets/../lv_core/../lv_misc/lv_color.h ****         uint8_t red;
 250:lvgl/src/lv_widgets/../lv_core/../lv_misc/lv_color.h ****         uint8_t alpha;
 251:lvgl/src/lv_widgets/../lv_core/../lv_misc/lv_color.h ****     } ch;
 252:lvgl/src/lv_widgets/../lv_core/../lv_misc/lv_color.h ****     uint32_t full;
 253:lvgl/src/lv_widgets/../lv_core/../lv_misc/lv_color.h **** } lv_color32_t;
 254:lvgl/src/lv_widgets/../lv_core/../lv_misc/lv_color.h **** 
 255:lvgl/src/lv_widgets/../lv_core/../lv_misc/lv_color.h **** #if LV_COLOR_DEPTH == 1
 256:lvgl/src/lv_widgets/../lv_core/../lv_misc/lv_color.h **** typedef uint8_t lv_color_int_t;
 257:lvgl/src/lv_widgets/../lv_core/../lv_misc/lv_color.h **** typedef lv_color1_t lv_color_t;
 258:lvgl/src/lv_widgets/../lv_core/../lv_misc/lv_color.h **** #define _LV_COLOR_ZERO_INITIALIZER {0x00}
 259:lvgl/src/lv_widgets/../lv_core/../lv_misc/lv_color.h **** #elif LV_COLOR_DEPTH == 8
 260:lvgl/src/lv_widgets/../lv_core/../lv_misc/lv_color.h **** typedef uint8_t lv_color_int_t;
 261:lvgl/src/lv_widgets/../lv_core/../lv_misc/lv_color.h **** typedef lv_color8_t lv_color_t;
 262:lvgl/src/lv_widgets/../lv_core/../lv_misc/lv_color.h **** #define _LV_COLOR_ZERO_INITIALIZER {{0x00, 0x00, 0x00}}
 263:lvgl/src/lv_widgets/../lv_core/../lv_misc/lv_color.h **** #elif LV_COLOR_DEPTH == 16
 264:lvgl/src/lv_widgets/../lv_core/../lv_misc/lv_color.h **** typedef uint16_t lv_color_int_t;
 265:lvgl/src/lv_widgets/../lv_core/../lv_misc/lv_color.h **** typedef lv_color16_t lv_color_t;
 266:lvgl/src/lv_widgets/../lv_core/../lv_misc/lv_color.h **** # if LV_COLOR_16_SWAP == 0
 267:lvgl/src/lv_widgets/../lv_core/../lv_misc/lv_color.h **** #  define _LV_COLOR_ZERO_INITIALIZER {{0x00, 0x00, 0x00}}
 268:lvgl/src/lv_widgets/../lv_core/../lv_misc/lv_color.h **** # else
 269:lvgl/src/lv_widgets/../lv_core/../lv_misc/lv_color.h **** #  define _LV_COLOR_ZERO_INITIALIZER {{0x00, 0x00, 0x00, 0x00}}
 270:lvgl/src/lv_widgets/../lv_core/../lv_misc/lv_color.h **** # endif
 271:lvgl/src/lv_widgets/../lv_core/../lv_misc/lv_color.h **** #elif LV_COLOR_DEPTH == 32
 272:lvgl/src/lv_widgets/../lv_core/../lv_misc/lv_color.h **** typedef uint32_t lv_color_int_t;
 273:lvgl/src/lv_widgets/../lv_core/../lv_misc/lv_color.h **** typedef lv_color32_t lv_color_t;
 274:lvgl/src/lv_widgets/../lv_core/../lv_misc/lv_color.h **** #define _LV_COLOR_ZERO_INITIALIZER {{0x00, 0x00, 0x00, 0x00}}
 275:lvgl/src/lv_widgets/../lv_core/../lv_misc/lv_color.h **** #else
 276:lvgl/src/lv_widgets/../lv_core/../lv_misc/lv_color.h **** #error "Invalid LV_COLOR_DEPTH in lv_conf.h! Set it to 1, 8, 16 or 32!"
 277:lvgl/src/lv_widgets/../lv_core/../lv_misc/lv_color.h **** #endif
ARM GAS  D:\Temp\ccIs2YtX.s 			page 53


 278:lvgl/src/lv_widgets/../lv_core/../lv_misc/lv_color.h **** 
 279:lvgl/src/lv_widgets/../lv_core/../lv_misc/lv_color.h **** typedef struct {
 280:lvgl/src/lv_widgets/../lv_core/../lv_misc/lv_color.h ****     uint16_t h;
 281:lvgl/src/lv_widgets/../lv_core/../lv_misc/lv_color.h ****     uint8_t s;
 282:lvgl/src/lv_widgets/../lv_core/../lv_misc/lv_color.h ****     uint8_t v;
 283:lvgl/src/lv_widgets/../lv_core/../lv_misc/lv_color.h **** } lv_color_hsv_t;
 284:lvgl/src/lv_widgets/../lv_core/../lv_misc/lv_color.h **** 
 285:lvgl/src/lv_widgets/../lv_core/../lv_misc/lv_color.h **** //! @cond Doxygen_Suppress
 286:lvgl/src/lv_widgets/../lv_core/../lv_misc/lv_color.h **** /*No idea where the guard is required but else throws warnings in the docs*/
 287:lvgl/src/lv_widgets/../lv_core/../lv_misc/lv_color.h **** typedef uint8_t lv_opa_t;
 288:lvgl/src/lv_widgets/../lv_core/../lv_misc/lv_color.h **** //! @endcond
 289:lvgl/src/lv_widgets/../lv_core/../lv_misc/lv_color.h **** 
 290:lvgl/src/lv_widgets/../lv_core/../lv_misc/lv_color.h **** /**********************
 291:lvgl/src/lv_widgets/../lv_core/../lv_misc/lv_color.h ****  * GLOBAL PROTOTYPES
 292:lvgl/src/lv_widgets/../lv_core/../lv_misc/lv_color.h ****  **********************/
 293:lvgl/src/lv_widgets/../lv_core/../lv_misc/lv_color.h **** 
 294:lvgl/src/lv_widgets/../lv_core/../lv_misc/lv_color.h **** /*In color conversations:
 295:lvgl/src/lv_widgets/../lv_core/../lv_misc/lv_color.h ****  * - When converting to bigger color type the LSB weight of 1 LSB is calculated
 296:lvgl/src/lv_widgets/../lv_core/../lv_misc/lv_color.h ****  *   E.g. 16 bit Red has 5 bits
 297:lvgl/src/lv_widgets/../lv_core/../lv_misc/lv_color.h ****  *         8 bit Red has 3 bits
 298:lvgl/src/lv_widgets/../lv_core/../lv_misc/lv_color.h ****  *        ----------------------
 299:lvgl/src/lv_widgets/../lv_core/../lv_misc/lv_color.h ****  *        8 bit red LSB = (2^5 - 1) / (2^3 - 1) = 31 / 7 = 4
 300:lvgl/src/lv_widgets/../lv_core/../lv_misc/lv_color.h ****  *
 301:lvgl/src/lv_widgets/../lv_core/../lv_misc/lv_color.h ****  * - When calculating to smaller color type simply shift out the LSBs
 302:lvgl/src/lv_widgets/../lv_core/../lv_misc/lv_color.h ****  *   E.g.  8 bit Red has 3 bits
 303:lvgl/src/lv_widgets/../lv_core/../lv_misc/lv_color.h ****  *        16 bit Red has 5 bits
 304:lvgl/src/lv_widgets/../lv_core/../lv_misc/lv_color.h ****  *        ----------------------
 305:lvgl/src/lv_widgets/../lv_core/../lv_misc/lv_color.h ****  *         Shift right with 5 - 3 = 2
 306:lvgl/src/lv_widgets/../lv_core/../lv_misc/lv_color.h ****  */
 307:lvgl/src/lv_widgets/../lv_core/../lv_misc/lv_color.h **** static inline uint8_t lv_color_to1(lv_color_t color)
 308:lvgl/src/lv_widgets/../lv_core/../lv_misc/lv_color.h **** {
 309:lvgl/src/lv_widgets/../lv_core/../lv_misc/lv_color.h **** #if LV_COLOR_DEPTH == 1
 310:lvgl/src/lv_widgets/../lv_core/../lv_misc/lv_color.h ****     return color.full;
 311:lvgl/src/lv_widgets/../lv_core/../lv_misc/lv_color.h **** #elif LV_COLOR_DEPTH == 8
 312:lvgl/src/lv_widgets/../lv_core/../lv_misc/lv_color.h ****     if((LV_COLOR_GET_R(color) & 0x4) || (LV_COLOR_GET_G(color) & 0x4) || (LV_COLOR_GET_B(color) & 0
 313:lvgl/src/lv_widgets/../lv_core/../lv_misc/lv_color.h ****         return 1;
 314:lvgl/src/lv_widgets/../lv_core/../lv_misc/lv_color.h ****     }
 315:lvgl/src/lv_widgets/../lv_core/../lv_misc/lv_color.h ****     else {
 316:lvgl/src/lv_widgets/../lv_core/../lv_misc/lv_color.h ****         return 0;
 317:lvgl/src/lv_widgets/../lv_core/../lv_misc/lv_color.h ****     }
 318:lvgl/src/lv_widgets/../lv_core/../lv_misc/lv_color.h **** #elif LV_COLOR_DEPTH == 16
 319:lvgl/src/lv_widgets/../lv_core/../lv_misc/lv_color.h ****     if((LV_COLOR_GET_R(color) & 0x10) || (LV_COLOR_GET_G(color) & 0x20) || (LV_COLOR_GET_B(color) &
 320:lvgl/src/lv_widgets/../lv_core/../lv_misc/lv_color.h ****         return 1;
 321:lvgl/src/lv_widgets/../lv_core/../lv_misc/lv_color.h ****     }
 322:lvgl/src/lv_widgets/../lv_core/../lv_misc/lv_color.h ****     else {
 323:lvgl/src/lv_widgets/../lv_core/../lv_misc/lv_color.h ****         return 0;
 324:lvgl/src/lv_widgets/../lv_core/../lv_misc/lv_color.h ****     }
 325:lvgl/src/lv_widgets/../lv_core/../lv_misc/lv_color.h **** #elif LV_COLOR_DEPTH == 32
 326:lvgl/src/lv_widgets/../lv_core/../lv_misc/lv_color.h ****     if((LV_COLOR_GET_R(color) & 0x80) || (LV_COLOR_GET_G(color) & 0x80) || (LV_COLOR_GET_B(color) &
 327:lvgl/src/lv_widgets/../lv_core/../lv_misc/lv_color.h ****         return 1;
 328:lvgl/src/lv_widgets/../lv_core/../lv_misc/lv_color.h ****     }
 329:lvgl/src/lv_widgets/../lv_core/../lv_misc/lv_color.h ****     else {
 330:lvgl/src/lv_widgets/../lv_core/../lv_misc/lv_color.h ****         return 0;
 331:lvgl/src/lv_widgets/../lv_core/../lv_misc/lv_color.h ****     }
 332:lvgl/src/lv_widgets/../lv_core/../lv_misc/lv_color.h **** #endif
 333:lvgl/src/lv_widgets/../lv_core/../lv_misc/lv_color.h **** }
 334:lvgl/src/lv_widgets/../lv_core/../lv_misc/lv_color.h **** 
ARM GAS  D:\Temp\ccIs2YtX.s 			page 54


 335:lvgl/src/lv_widgets/../lv_core/../lv_misc/lv_color.h **** static inline uint8_t lv_color_to8(lv_color_t color)
 336:lvgl/src/lv_widgets/../lv_core/../lv_misc/lv_color.h **** {
 337:lvgl/src/lv_widgets/../lv_core/../lv_misc/lv_color.h **** #if LV_COLOR_DEPTH == 1
 338:lvgl/src/lv_widgets/../lv_core/../lv_misc/lv_color.h ****     if(color.full == 0)
 339:lvgl/src/lv_widgets/../lv_core/../lv_misc/lv_color.h ****         return 0;
 340:lvgl/src/lv_widgets/../lv_core/../lv_misc/lv_color.h ****     else
 341:lvgl/src/lv_widgets/../lv_core/../lv_misc/lv_color.h ****         return 0xFF;
 342:lvgl/src/lv_widgets/../lv_core/../lv_misc/lv_color.h **** #elif LV_COLOR_DEPTH == 8
 343:lvgl/src/lv_widgets/../lv_core/../lv_misc/lv_color.h ****     return color.full;
 344:lvgl/src/lv_widgets/../lv_core/../lv_misc/lv_color.h **** #elif LV_COLOR_DEPTH == 16
 345:lvgl/src/lv_widgets/../lv_core/../lv_misc/lv_color.h ****     lv_color8_t ret;
 346:lvgl/src/lv_widgets/../lv_core/../lv_misc/lv_color.h ****     LV_COLOR_SET_R8(ret, LV_COLOR_GET_R(color) >> 2); /* 5 - 3  = 2*/
 347:lvgl/src/lv_widgets/../lv_core/../lv_misc/lv_color.h ****     LV_COLOR_SET_G8(ret, LV_COLOR_GET_G(color) >> 3); /* 6 - 3  = 3*/
 348:lvgl/src/lv_widgets/../lv_core/../lv_misc/lv_color.h ****     LV_COLOR_SET_B8(ret, LV_COLOR_GET_B(color) >> 3); /* 5 - 2  = 3*/
 349:lvgl/src/lv_widgets/../lv_core/../lv_misc/lv_color.h ****     return ret.full;
 350:lvgl/src/lv_widgets/../lv_core/../lv_misc/lv_color.h **** #elif LV_COLOR_DEPTH == 32
 351:lvgl/src/lv_widgets/../lv_core/../lv_misc/lv_color.h ****     lv_color8_t ret;
 352:lvgl/src/lv_widgets/../lv_core/../lv_misc/lv_color.h ****     LV_COLOR_SET_R8(ret, LV_COLOR_GET_R(color) >> 5); /* 8 - 3  = 5*/
 353:lvgl/src/lv_widgets/../lv_core/../lv_misc/lv_color.h ****     LV_COLOR_SET_G8(ret, LV_COLOR_GET_G(color) >> 5); /* 8 - 3  = 5*/
 354:lvgl/src/lv_widgets/../lv_core/../lv_misc/lv_color.h ****     LV_COLOR_SET_B8(ret, LV_COLOR_GET_B(color) >> 6); /* 8 - 2  = 6*/
 355:lvgl/src/lv_widgets/../lv_core/../lv_misc/lv_color.h ****     return ret.full;
 356:lvgl/src/lv_widgets/../lv_core/../lv_misc/lv_color.h **** #endif
 357:lvgl/src/lv_widgets/../lv_core/../lv_misc/lv_color.h **** }
 358:lvgl/src/lv_widgets/../lv_core/../lv_misc/lv_color.h **** 
 359:lvgl/src/lv_widgets/../lv_core/../lv_misc/lv_color.h **** static inline uint16_t lv_color_to16(lv_color_t color)
 360:lvgl/src/lv_widgets/../lv_core/../lv_misc/lv_color.h **** {
 361:lvgl/src/lv_widgets/../lv_core/../lv_misc/lv_color.h **** #if LV_COLOR_DEPTH == 1
 362:lvgl/src/lv_widgets/../lv_core/../lv_misc/lv_color.h ****     if(color.full == 0)
 363:lvgl/src/lv_widgets/../lv_core/../lv_misc/lv_color.h ****         return 0;
 364:lvgl/src/lv_widgets/../lv_core/../lv_misc/lv_color.h ****     else
 365:lvgl/src/lv_widgets/../lv_core/../lv_misc/lv_color.h ****         return 0xFFFF;
 366:lvgl/src/lv_widgets/../lv_core/../lv_misc/lv_color.h **** #elif LV_COLOR_DEPTH == 8
 367:lvgl/src/lv_widgets/../lv_core/../lv_misc/lv_color.h ****     lv_color16_t ret;
 368:lvgl/src/lv_widgets/../lv_core/../lv_misc/lv_color.h ****     LV_COLOR_SET_R16(ret, LV_COLOR_GET_R(color) * 4);  /*(2^5 - 1)/(2^3 - 1) = 31/7 = 4*/
 369:lvgl/src/lv_widgets/../lv_core/../lv_misc/lv_color.h ****     LV_COLOR_SET_G16(ret, LV_COLOR_GET_G(color) * 9);  /*(2^6 - 1)/(2^3 - 1) = 63/7 = 9*/
 370:lvgl/src/lv_widgets/../lv_core/../lv_misc/lv_color.h ****     LV_COLOR_SET_B16(ret, LV_COLOR_GET_B(color) * 10); /*(2^5 - 1)/(2^2 - 1) = 31/3 = 10*/
 371:lvgl/src/lv_widgets/../lv_core/../lv_misc/lv_color.h ****     return ret.full;
 372:lvgl/src/lv_widgets/../lv_core/../lv_misc/lv_color.h **** #elif LV_COLOR_DEPTH == 16
 373:lvgl/src/lv_widgets/../lv_core/../lv_misc/lv_color.h ****     return color.full;
 374:lvgl/src/lv_widgets/../lv_core/../lv_misc/lv_color.h **** #elif LV_COLOR_DEPTH == 32
 375:lvgl/src/lv_widgets/../lv_core/../lv_misc/lv_color.h ****     lv_color16_t ret;
 376:lvgl/src/lv_widgets/../lv_core/../lv_misc/lv_color.h ****     LV_COLOR_SET_R16(ret, LV_COLOR_GET_R(color) >> 3); /* 8 - 5  = 3*/
 377:lvgl/src/lv_widgets/../lv_core/../lv_misc/lv_color.h ****     LV_COLOR_SET_G16(ret, LV_COLOR_GET_G(color) >> 2); /* 8 - 6  = 2*/
 378:lvgl/src/lv_widgets/../lv_core/../lv_misc/lv_color.h ****     LV_COLOR_SET_B16(ret, LV_COLOR_GET_B(color) >> 3); /* 8 - 5  = 3*/
 379:lvgl/src/lv_widgets/../lv_core/../lv_misc/lv_color.h ****     return ret.full;
 380:lvgl/src/lv_widgets/../lv_core/../lv_misc/lv_color.h **** #endif
 381:lvgl/src/lv_widgets/../lv_core/../lv_misc/lv_color.h **** }
 382:lvgl/src/lv_widgets/../lv_core/../lv_misc/lv_color.h **** 
 383:lvgl/src/lv_widgets/../lv_core/../lv_misc/lv_color.h **** static inline uint32_t lv_color_to32(lv_color_t color)
 384:lvgl/src/lv_widgets/../lv_core/../lv_misc/lv_color.h **** {
 385:lvgl/src/lv_widgets/../lv_core/../lv_misc/lv_color.h **** #if LV_COLOR_DEPTH == 1
 386:lvgl/src/lv_widgets/../lv_core/../lv_misc/lv_color.h ****     if(color.full == 0)
 387:lvgl/src/lv_widgets/../lv_core/../lv_misc/lv_color.h ****         return 0xFF000000;
 388:lvgl/src/lv_widgets/../lv_core/../lv_misc/lv_color.h ****     else
 389:lvgl/src/lv_widgets/../lv_core/../lv_misc/lv_color.h ****         return 0xFFFFFFFF;
 390:lvgl/src/lv_widgets/../lv_core/../lv_misc/lv_color.h **** #elif LV_COLOR_DEPTH == 8
 391:lvgl/src/lv_widgets/../lv_core/../lv_misc/lv_color.h ****     lv_color32_t ret;
ARM GAS  D:\Temp\ccIs2YtX.s 			page 55


 392:lvgl/src/lv_widgets/../lv_core/../lv_misc/lv_color.h ****     LV_COLOR_SET_R32(ret, LV_COLOR_GET_R(color) * 36); /*(2^8 - 1)/(2^3 - 1) = 255/7 = 36*/
 393:lvgl/src/lv_widgets/../lv_core/../lv_misc/lv_color.h ****     LV_COLOR_SET_G32(ret, LV_COLOR_GET_G(color) * 36); /*(2^8 - 1)/(2^3 - 1) = 255/7 = 36*/
 394:lvgl/src/lv_widgets/../lv_core/../lv_misc/lv_color.h ****     LV_COLOR_SET_B32(ret, LV_COLOR_GET_B(color) * 85); /*(2^8 - 1)/(2^2 - 1) = 255/3 = 85*/
 395:lvgl/src/lv_widgets/../lv_core/../lv_misc/lv_color.h ****     LV_COLOR_SET_A32(ret, 0xFF);
 396:lvgl/src/lv_widgets/../lv_core/../lv_misc/lv_color.h ****     return ret.full;
 397:lvgl/src/lv_widgets/../lv_core/../lv_misc/lv_color.h **** #elif LV_COLOR_DEPTH == 16
 398:lvgl/src/lv_widgets/../lv_core/../lv_misc/lv_color.h ****     /**
 399:lvgl/src/lv_widgets/../lv_core/../lv_misc/lv_color.h ****      * The floating point math for conversion is:
 400:lvgl/src/lv_widgets/../lv_core/../lv_misc/lv_color.h ****      *  valueto = valuefrom * ( (2^bitsto - 1) / (float)(2^bitsfrom - 1) )
 401:lvgl/src/lv_widgets/../lv_core/../lv_misc/lv_color.h ****      * The faster integer math for conversion is:
 402:lvgl/src/lv_widgets/../lv_core/../lv_misc/lv_color.h ****      *  valueto = ( valuefrom * multiplier + adder ) >> divisor
 403:lvgl/src/lv_widgets/../lv_core/../lv_misc/lv_color.h ****      *   multiplier = FLOOR( ( (2^bitsto - 1) << divisor ) / (float)(2^bitsfrom - 1) )
 404:lvgl/src/lv_widgets/../lv_core/../lv_misc/lv_color.h ****      *
 405:lvgl/src/lv_widgets/../lv_core/../lv_misc/lv_color.h ****      * Find the first divisor where ( adder >> divisor ) <= 0
 406:lvgl/src/lv_widgets/../lv_core/../lv_misc/lv_color.h ****      *
 407:lvgl/src/lv_widgets/../lv_core/../lv_misc/lv_color.h ****      * 5-bit to 8-bit: ( 31 * multiplier + adder ) >> divisor = 255
 408:lvgl/src/lv_widgets/../lv_core/../lv_misc/lv_color.h ****      * divisor  multiplier  adder  min (0)  max (31)
 409:lvgl/src/lv_widgets/../lv_core/../lv_misc/lv_color.h ****      *       0           8      7        7       255
 410:lvgl/src/lv_widgets/../lv_core/../lv_misc/lv_color.h ****      *       1          16     14        7       255
 411:lvgl/src/lv_widgets/../lv_core/../lv_misc/lv_color.h ****      *       2          32     28        7       255
 412:lvgl/src/lv_widgets/../lv_core/../lv_misc/lv_color.h ****      *       3          65     25        3       255
 413:lvgl/src/lv_widgets/../lv_core/../lv_misc/lv_color.h ****      *       4         131     19        1       255
 414:lvgl/src/lv_widgets/../lv_core/../lv_misc/lv_color.h ****      *       5         263      7        0       255
 415:lvgl/src/lv_widgets/../lv_core/../lv_misc/lv_color.h ****      *
 416:lvgl/src/lv_widgets/../lv_core/../lv_misc/lv_color.h ****      * 6-bit to 8-bit: 255 = ( 63 * multiplier + adder ) >> divisor
 417:lvgl/src/lv_widgets/../lv_core/../lv_misc/lv_color.h ****      * divisor  multiplier  adder  min (0)  max (63)
 418:lvgl/src/lv_widgets/../lv_core/../lv_misc/lv_color.h ****      *       0           4      3        3       255
 419:lvgl/src/lv_widgets/../lv_core/../lv_misc/lv_color.h ****      *       1           8      6        3       255
 420:lvgl/src/lv_widgets/../lv_core/../lv_misc/lv_color.h ****      *       2          16     12        3       255
 421:lvgl/src/lv_widgets/../lv_core/../lv_misc/lv_color.h ****      *       3          32     24        3       255
 422:lvgl/src/lv_widgets/../lv_core/../lv_misc/lv_color.h ****      *       4          64     48        3       255
 423:lvgl/src/lv_widgets/../lv_core/../lv_misc/lv_color.h ****      *       5         129     33        1       255
 424:lvgl/src/lv_widgets/../lv_core/../lv_misc/lv_color.h ****      *       6         259      3        0       255
 425:lvgl/src/lv_widgets/../lv_core/../lv_misc/lv_color.h ****      */
 426:lvgl/src/lv_widgets/../lv_core/../lv_misc/lv_color.h **** 
 427:lvgl/src/lv_widgets/../lv_core/../lv_misc/lv_color.h ****     lv_color32_t ret;
 428:lvgl/src/lv_widgets/../lv_core/../lv_misc/lv_color.h ****     LV_COLOR_SET_R32(ret, (LV_COLOR_GET_R(color) * 263 + 7) >> 5);
 429:lvgl/src/lv_widgets/../lv_core/../lv_misc/lv_color.h ****     LV_COLOR_SET_G32(ret, (LV_COLOR_GET_G(color) * 259 + 3) >> 6);
 430:lvgl/src/lv_widgets/../lv_core/../lv_misc/lv_color.h ****     LV_COLOR_SET_B32(ret, (LV_COLOR_GET_B(color) * 263 + 7) >> 5);
 431:lvgl/src/lv_widgets/../lv_core/../lv_misc/lv_color.h ****     LV_COLOR_SET_A32(ret, 0xFF);
 432:lvgl/src/lv_widgets/../lv_core/../lv_misc/lv_color.h ****     return ret.full;
 433:lvgl/src/lv_widgets/../lv_core/../lv_misc/lv_color.h **** #elif LV_COLOR_DEPTH == 32
 434:lvgl/src/lv_widgets/../lv_core/../lv_misc/lv_color.h ****     return color.full;
 435:lvgl/src/lv_widgets/../lv_core/../lv_misc/lv_color.h **** #endif
 436:lvgl/src/lv_widgets/../lv_core/../lv_misc/lv_color.h **** }
 437:lvgl/src/lv_widgets/../lv_core/../lv_misc/lv_color.h **** 
 438:lvgl/src/lv_widgets/../lv_core/../lv_misc/lv_color.h **** //! @cond Doxygen_Suppress
 439:lvgl/src/lv_widgets/../lv_core/../lv_misc/lv_color.h **** 
 440:lvgl/src/lv_widgets/../lv_core/../lv_misc/lv_color.h **** /**
 441:lvgl/src/lv_widgets/../lv_core/../lv_misc/lv_color.h ****  * Mix two colors with a given ratio.
 442:lvgl/src/lv_widgets/../lv_core/../lv_misc/lv_color.h ****  * @param c1 the first color to mix (usually the foreground)
 443:lvgl/src/lv_widgets/../lv_core/../lv_misc/lv_color.h ****  * @param c2 the second color to mix (usually the background)
 444:lvgl/src/lv_widgets/../lv_core/../lv_misc/lv_color.h ****  * @param mix The ratio of the colors. 0: full `c2`, 255: full `c1`, 127: half `c1` and half`c2`
 445:lvgl/src/lv_widgets/../lv_core/../lv_misc/lv_color.h ****  * @return the mixed color
 446:lvgl/src/lv_widgets/../lv_core/../lv_misc/lv_color.h ****  */
 447:lvgl/src/lv_widgets/../lv_core/../lv_misc/lv_color.h **** LV_ATTRIBUTE_FAST_MEM static inline lv_color_t lv_color_mix(lv_color_t c1, lv_color_t c2, uint8_t m
 1550              		.loc 3 447 48 is_stmt 1 view .LVU445
ARM GAS  D:\Temp\ccIs2YtX.s 			page 56


 1551              	.LBB69:
 448:lvgl/src/lv_widgets/../lv_core/../lv_misc/lv_color.h **** {
 449:lvgl/src/lv_widgets/../lv_core/../lv_misc/lv_color.h ****     lv_color_t ret;
 1552              		.loc 3 449 5 view .LVU446
 450:lvgl/src/lv_widgets/../lv_core/../lv_misc/lv_color.h **** #if LV_COLOR_DEPTH != 1
 451:lvgl/src/lv_widgets/../lv_core/../lv_misc/lv_color.h ****     /*LV_COLOR_DEPTH == 8, 16 or 32*/
 452:lvgl/src/lv_widgets/../lv_core/../lv_misc/lv_color.h ****     LV_COLOR_SET_R(ret, LV_MATH_UDIV255((uint16_t) LV_COLOR_GET_R(c1) * mix + LV_COLOR_GET_R(c2) *
 1553              		.loc 3 452 5 view .LVU447
 1554 0164 BDF84050 		ldrh	r5, [sp, #64]
 1555              	.LVL156:
 1556              		.loc 3 452 5 is_stmt 0 view .LVU448
 1557 0168 C5F3C422 		ubfx	r2, r5, #11, #5
 1558 016c BDF83E40 		ldrh	r4, [sp, #62]
 1559              	.LVL157:
 1560              		.loc 3 452 5 view .LVU449
 1561 0170 C4F3C420 		ubfx	r0, r4, #11, #5
 1562 0174 C3F1FF01 		rsb	r1, r3, #255
 1563 0178 01FB00F0 		mul	r0, r1, r0
 1564 017c 03FB0202 		mla	r2, r3, r2, r0
 1565 0180 8032     		adds	r2, r2, #128
 1566 0182 02EB0220 		add	r0, r2, r2, lsl #8
 1567 0186 02EBC012 		add	r2, r2, r0, lsl #7
 1568 018a C2F3C452 		ubfx	r2, r2, #23, #5
 1569 018e BDF83800 		ldrh	r0, [sp, #56]
 1570 0192 62F3CF20 		bfi	r0, r2, #11, #5
 1571 0196 0646     		mov	r6, r0
 1572              	.LVL158:
 453:lvgl/src/lv_widgets/../lv_core/../lv_misc/lv_color.h ****                                         (255 - mix) + LV_COLOR_MIX_ROUND_OFS));
 454:lvgl/src/lv_widgets/../lv_core/../lv_misc/lv_color.h ****     LV_COLOR_SET_G(ret, LV_MATH_UDIV255((uint16_t) LV_COLOR_GET_G(c1) * mix + LV_COLOR_GET_G(c2) *
 1573              		.loc 3 454 5 is_stmt 1 view .LVU450
 1574 0198 C5F34512 		ubfx	r2, r5, #5, #6
 1575 019c C4F34510 		ubfx	r0, r4, #5, #6
 1576 01a0 00FB01F0 		mul	r0, r0, r1
 1577 01a4 02FB0302 		mla	r2, r2, r3, r0
 1578 01a8 8032     		adds	r2, r2, #128
 1579 01aa 02EB0220 		add	r0, r2, r2, lsl #8
 1580 01ae 02EBC012 		add	r2, r2, r0, lsl #7
 1581 01b2 C2F3C552 		ubfx	r2, r2, #23, #6
 1582              	.LVL159:
 1583              		.loc 3 454 5 is_stmt 0 view .LVU451
 1584 01b6 3046     		mov	r0, r6
 1585 01b8 62F34A10 		bfi	r0, r2, #5, #6
 1586 01bc 0646     		mov	r6, r0
 1587              	.LVL160:
 455:lvgl/src/lv_widgets/../lv_core/../lv_misc/lv_color.h ****                                         (255 - mix) + LV_COLOR_MIX_ROUND_OFS));
 456:lvgl/src/lv_widgets/../lv_core/../lv_misc/lv_color.h ****     LV_COLOR_SET_B(ret, LV_MATH_UDIV255((uint16_t) LV_COLOR_GET_B(c1) * mix + LV_COLOR_GET_B(c2) *
 1588              		.loc 3 456 5 is_stmt 1 view .LVU452
 1589 01be 05F01F00 		and	r0, r5, #31
 1590 01c2 04F01F02 		and	r2, r4, #31
 1591 01c6 02FB01F1 		mul	r1, r2, r1
 1592 01ca 00FB0313 		mla	r3, r0, r3, r1
 1593              	.LVL161:
 1594              		.loc 3 456 5 is_stmt 0 view .LVU453
 1595 01ce 8033     		adds	r3, r3, #128
 1596 01d0 03EB0322 		add	r2, r3, r3, lsl #8
 1597 01d4 03EBC213 		add	r3, r3, r2, lsl #7
 1598 01d8 C3F3C453 		ubfx	r3, r3, #23, #5
ARM GAS  D:\Temp\ccIs2YtX.s 			page 57


 1599              	.LVL162:
 1600              		.loc 3 456 5 view .LVU454
 1601 01dc 3246     		mov	r2, r6
 1602 01de 63F30402 		bfi	r2, r3, #0, #5
 1603 01e2 ADF83820 		strh	r2, [sp, #56]	@ movhi
 457:lvgl/src/lv_widgets/../lv_core/../lv_misc/lv_color.h ****                                         (255 - mix) + LV_COLOR_MIX_ROUND_OFS));
 458:lvgl/src/lv_widgets/../lv_core/../lv_misc/lv_color.h ****     LV_COLOR_SET_A(ret, 0xFF);
 1604              		.loc 3 458 5 is_stmt 1 view .LVU455
 1605              		.loc 3 458 5 view .LVU456
 459:lvgl/src/lv_widgets/../lv_core/../lv_misc/lv_color.h **** #else
 460:lvgl/src/lv_widgets/../lv_core/../lv_misc/lv_color.h ****     /*LV_COLOR_DEPTH == 1*/
 461:lvgl/src/lv_widgets/../lv_core/../lv_misc/lv_color.h ****     ret.full = mix > LV_OPA_50 ? c1.full : c2.full;
 462:lvgl/src/lv_widgets/../lv_core/../lv_misc/lv_color.h **** #endif
 463:lvgl/src/lv_widgets/../lv_core/../lv_misc/lv_color.h **** 
 464:lvgl/src/lv_widgets/../lv_core/../lv_misc/lv_color.h ****     return ret;
 1606              		.loc 3 464 5 view .LVU457
 1607              	.LVL163:
 1608              		.loc 3 464 5 is_stmt 0 view .LVU458
 1609              	.LBE69:
 1610              	.LBE68:
 454:lvgl/src/lv_widgets/lv_linemeter.c ****         }
 1611              		.loc 1 454 30 view .LVU459
 1612 01e6 ADF86C20 		strh	r2, [sp, #108]	@ movhi
 1613              	.L112:
 457:lvgl/src/lv_widgets/lv_linemeter.c ****     }
 1614              		.loc 1 457 9 is_stmt 1 view .LVU460
 1615 01ea 1BAB     		add	r3, sp, #108
 1616 01ec 18AA     		add	r2, sp, #96
 1617 01ee 17A9     		add	r1, sp, #92
 1618 01f0 16A8     		add	r0, sp, #88
 1619 01f2 FFF7FEFF 		bl	lv_draw_line
 1620              	.LVL164:
 1621              	.L108:
 1622              	.LBE67:
 366:lvgl/src/lv_widgets/lv_linemeter.c ****         /* `* 256` for extra precision*/
 1623              		.loc 1 366 36 is_stmt 0 discriminator 2 view .LVU461
 1624 01f6 049B     		ldr	r3, [sp, #16]
 1625 01f8 0133     		adds	r3, r3, #1
 1626 01fa DBB2     		uxtb	r3, r3
 1627 01fc 0493     		str	r3, [sp, #16]
 1628              	.LVL165:
 1629              	.L98:
 366:lvgl/src/lv_widgets/lv_linemeter.c ****         /* `* 256` for extra precision*/
 1630              		.loc 1 366 18 discriminator 1 view .LVU462
 1631 01fe BDF81020 		ldrh	r2, [sp, #16]
 366:lvgl/src/lv_widgets/lv_linemeter.c ****         /* `* 256` for extra precision*/
 1632              		.loc 1 366 23 discriminator 1 view .LVU463
 1633 0202 079B     		ldr	r3, [sp, #28]
 1634 0204 9B88     		ldrh	r3, [r3, #4]
 366:lvgl/src/lv_widgets/lv_linemeter.c ****         /* `* 256` for extra precision*/
 1635              		.loc 1 366 5 discriminator 1 view .LVU464
 1636 0206 9A42     		cmp	r2, r3
 1637 0208 80F0D180 		bcs	.L121
 1638              	.LBB70:
 368:lvgl/src/lv_widgets/lv_linemeter.c ****         int32_t angle_normal = angle_upscale >> 8;
 1639              		.loc 1 368 9 is_stmt 1 view .LVU465
 368:lvgl/src/lv_widgets/lv_linemeter.c ****         int32_t angle_normal = angle_upscale >> 8;
ARM GAS  D:\Temp\ccIs2YtX.s 			page 58


 1640              		.loc 1 368 36 is_stmt 0 view .LVU466
 1641 020c 049A     		ldr	r2, [sp, #16]
 1642 020e 0992     		str	r2, [sp, #36]
 368:lvgl/src/lv_widgets/lv_linemeter.c ****         int32_t angle_normal = angle_upscale >> 8;
 1643              		.loc 1 368 41 view .LVU467
 1644 0210 0799     		ldr	r1, [sp, #28]
 1645 0212 0F88     		ldrh	r7, [r1]
 368:lvgl/src/lv_widgets/lv_linemeter.c ****         int32_t angle_normal = angle_upscale >> 8;
 1646              		.loc 1 368 36 view .LVU468
 1647 0214 07FB02F7 		mul	r7, r7, r2
 368:lvgl/src/lv_widgets/lv_linemeter.c ****         int32_t angle_normal = angle_upscale >> 8;
 1648              		.loc 1 368 55 view .LVU469
 1649 0218 3F02     		lsls	r7, r7, #8
 368:lvgl/src/lv_widgets/lv_linemeter.c ****         int32_t angle_normal = angle_upscale >> 8;
 1650              		.loc 1 368 79 view .LVU470
 1651 021a 013B     		subs	r3, r3, #1
 368:lvgl/src/lv_widgets/lv_linemeter.c ****         int32_t angle_normal = angle_upscale >> 8;
 1652              		.loc 1 368 17 view .LVU471
 1653 021c 97FBF3F7 		sdiv	r7, r7, r3
 1654              	.LVL166:
 369:lvgl/src/lv_widgets/lv_linemeter.c **** 
 1655              		.loc 1 369 9 is_stmt 1 view .LVU472
 369:lvgl/src/lv_widgets/lv_linemeter.c **** 
 1656              		.loc 1 369 17 is_stmt 0 view .LVU473
 1657 0220 3E12     		asrs	r6, r7, #8
 1658              	.LVL167:
 371:lvgl/src/lv_widgets/lv_linemeter.c ****         int32_t angle_high = angle_low + 1;
 1659              		.loc 1 371 9 is_stmt 1 view .LVU474
 372:lvgl/src/lv_widgets/lv_linemeter.c ****         int32_t angle_rem = angle_upscale & 0xFF;
 1660              		.loc 1 372 9 view .LVU475
 372:lvgl/src/lv_widgets/lv_linemeter.c ****         int32_t angle_rem = angle_upscale & 0xFF;
 1661              		.loc 1 372 17 is_stmt 0 view .LVU476
 1662 0222 06F10108 		add	r8, r6, #1
 1663              	.LVL168:
 373:lvgl/src/lv_widgets/lv_linemeter.c **** 
 1664              		.loc 1 373 9 is_stmt 1 view .LVU477
 373:lvgl/src/lv_widgets/lv_linemeter.c **** 
 1665              		.loc 1 373 17 is_stmt 0 view .LVU478
 1666 0226 FFB2     		uxtb	r7, r7
 1667              	.LVL169:
 376:lvgl/src/lv_widgets/lv_linemeter.c ****         int32_t sin_high = _lv_trigo_sin(angle_high + angle_ofs);
 1668              		.loc 1 376 9 is_stmt 1 view .LVU479
 376:lvgl/src/lv_widgets/lv_linemeter.c ****         int32_t sin_high = _lv_trigo_sin(angle_high + angle_ofs);
 1669              		.loc 1 376 51 is_stmt 0 view .LVU480
 1670 0228 0B9C     		ldr	r4, [sp, #44]
 1671 022a 2644     		add	r6, r6, r4
 1672              	.LVL170:
 376:lvgl/src/lv_widgets/lv_linemeter.c ****         int32_t sin_high = _lv_trigo_sin(angle_high + angle_ofs);
 1673              		.loc 1 376 51 view .LVU481
 1674 022c B6B2     		uxth	r6, r6
 376:lvgl/src/lv_widgets/lv_linemeter.c ****         int32_t sin_high = _lv_trigo_sin(angle_high + angle_ofs);
 1675              		.loc 1 376 27 view .LVU482
 1676 022e 0FFA86FA 		sxth	r10, r6
 1677 0232 5046     		mov	r0, r10
 1678 0234 FFF7FEFF 		bl	_lv_trigo_sin
 1679              	.LVL171:
 376:lvgl/src/lv_widgets/lv_linemeter.c ****         int32_t sin_high = _lv_trigo_sin(angle_high + angle_ofs);
ARM GAS  D:\Temp\ccIs2YtX.s 			page 59


 1680              		.loc 1 376 27 view .LVU483
 1681 0238 0546     		mov	r5, r0
 1682              	.LVL172:
 377:lvgl/src/lv_widgets/lv_linemeter.c ****         int32_t sin_mid = (sin_low * (256 - angle_rem) + sin_high * angle_rem) >> 8;
 1683              		.loc 1 377 9 is_stmt 1 view .LVU484
 377:lvgl/src/lv_widgets/lv_linemeter.c ****         int32_t sin_mid = (sin_low * (256 - angle_rem) + sin_high * angle_rem) >> 8;
 1684              		.loc 1 377 53 is_stmt 0 view .LVU485
 1685 023a A044     		add	r8, r8, r4
 1686              	.LVL173:
 377:lvgl/src/lv_widgets/lv_linemeter.c ****         int32_t sin_mid = (sin_low * (256 - angle_rem) + sin_high * angle_rem) >> 8;
 1687              		.loc 1 377 53 view .LVU486
 1688 023c 1FFA88F8 		uxth	r8, r8
 377:lvgl/src/lv_widgets/lv_linemeter.c ****         int32_t sin_mid = (sin_low * (256 - angle_rem) + sin_high * angle_rem) >> 8;
 1689              		.loc 1 377 28 view .LVU487
 1690 0240 0FFA88F0 		sxth	r0, r8
 1691              	.LVL174:
 377:lvgl/src/lv_widgets/lv_linemeter.c ****         int32_t sin_mid = (sin_low * (256 - angle_rem) + sin_high * angle_rem) >> 8;
 1692              		.loc 1 377 28 view .LVU488
 1693 0244 FFF7FEFF 		bl	_lv_trigo_sin
 1694              	.LVL175:
 378:lvgl/src/lv_widgets/lv_linemeter.c **** 
 1695              		.loc 1 378 9 is_stmt 1 view .LVU489
 378:lvgl/src/lv_widgets/lv_linemeter.c **** 
 1696              		.loc 1 378 43 is_stmt 0 view .LVU490
 1697 0248 C7F58074 		rsb	r4, r7, #256
 378:lvgl/src/lv_widgets/lv_linemeter.c **** 
 1698              		.loc 1 378 67 view .LVU491
 1699 024c 00FB07F0 		mul	r0, r0, r7
 1700              	.LVL176:
 378:lvgl/src/lv_widgets/lv_linemeter.c **** 
 1701              		.loc 1 378 56 view .LVU492
 1702 0250 05FB0405 		mla	r5, r5, r4, r0
 1703              	.LVL177:
 378:lvgl/src/lv_widgets/lv_linemeter.c **** 
 1704              		.loc 1 378 17 view .LVU493
 1705 0254 2D12     		asrs	r5, r5, #8
 1706              	.LVL178:
 380:lvgl/src/lv_widgets/lv_linemeter.c ****         int32_t cos_high = _lv_trigo_sin(angle_high + 90 + angle_ofs);
 1707              		.loc 1 380 9 is_stmt 1 view .LVU494
 380:lvgl/src/lv_widgets/lv_linemeter.c ****         int32_t cos_high = _lv_trigo_sin(angle_high + 90 + angle_ofs);
 1708              		.loc 1 380 56 is_stmt 0 view .LVU495
 1709 0256 5A36     		adds	r6, r6, #90
 380:lvgl/src/lv_widgets/lv_linemeter.c ****         int32_t cos_high = _lv_trigo_sin(angle_high + 90 + angle_ofs);
 1710              		.loc 1 380 27 view .LVU496
 1711 0258 36B2     		sxth	r6, r6
 1712 025a 3046     		mov	r0, r6
 1713 025c FFF7FEFF 		bl	_lv_trigo_sin
 1714              	.LVL179:
 1715 0260 8146     		mov	r9, r0
 1716              	.LVL180:
 381:lvgl/src/lv_widgets/lv_linemeter.c ****         int32_t cos_mid = (cos_low * (256 - angle_rem) + cos_high * angle_rem) >> 8;
 1717              		.loc 1 381 9 is_stmt 1 view .LVU497
 381:lvgl/src/lv_widgets/lv_linemeter.c ****         int32_t cos_mid = (cos_low * (256 - angle_rem) + cos_high * angle_rem) >> 8;
 1718              		.loc 1 381 58 is_stmt 0 view .LVU498
 1719 0262 08F15A00 		add	r0, r8, #90
 1720              	.LVL181:
 381:lvgl/src/lv_widgets/lv_linemeter.c ****         int32_t cos_mid = (cos_low * (256 - angle_rem) + cos_high * angle_rem) >> 8;
ARM GAS  D:\Temp\ccIs2YtX.s 			page 60


 1721              		.loc 1 381 28 view .LVU499
 1722 0266 00B2     		sxth	r0, r0
 1723 0268 FFF7FEFF 		bl	_lv_trigo_sin
 1724              	.LVL182:
 382:lvgl/src/lv_widgets/lv_linemeter.c **** 
 1725              		.loc 1 382 9 is_stmt 1 view .LVU500
 382:lvgl/src/lv_widgets/lv_linemeter.c **** 
 1726              		.loc 1 382 67 is_stmt 0 view .LVU501
 1727 026c 00FB07F0 		mul	r0, r0, r7
 1728              	.LVL183:
 382:lvgl/src/lv_widgets/lv_linemeter.c **** 
 1729              		.loc 1 382 56 view .LVU502
 1730 0270 09FB0404 		mla	r4, r9, r4, r0
 382:lvgl/src/lv_widgets/lv_linemeter.c **** 
 1731              		.loc 1 382 17 view .LVU503
 1732 0274 2412     		asrs	r4, r4, #8
 1733              	.LVL184:
 385:lvgl/src/lv_widgets/lv_linemeter.c ****         int32_t x_out_extra = (int32_t)((int32_t)cos_mid * r_out_extra) >> (LV_TRIGO_SHIFT - 8);
 1734              		.loc 1 385 9 is_stmt 1 view .LVU504
 385:lvgl/src/lv_widgets/lv_linemeter.c ****         int32_t x_out_extra = (int32_t)((int32_t)cos_mid * r_out_extra) >> (LV_TRIGO_SHIFT - 8);
 1735              		.loc 1 385 31 is_stmt 0 view .LVU505
 1736 0276 089B     		ldr	r3, [sp, #32]
 1737 0278 05FB03F7 		mul	r7, r5, r3
 1738              	.LVL185:
 385:lvgl/src/lv_widgets/lv_linemeter.c ****         int32_t x_out_extra = (int32_t)((int32_t)cos_mid * r_out_extra) >> (LV_TRIGO_SHIFT - 8);
 1739              		.loc 1 385 17 view .LVU506
 1740 027c FF11     		asrs	r7, r7, #7
 1741              	.LVL186:
 386:lvgl/src/lv_widgets/lv_linemeter.c **** 
 1742              		.loc 1 386 9 is_stmt 1 view .LVU507
 386:lvgl/src/lv_widgets/lv_linemeter.c **** 
 1743              		.loc 1 386 31 is_stmt 0 view .LVU508
 1744 027e 04FB03F8 		mul	r8, r4, r3
 386:lvgl/src/lv_widgets/lv_linemeter.c **** 
 1745              		.loc 1 386 17 view .LVU509
 1746 0282 4FEAE818 		asr	r8, r8, #7
 1747              	.LVL187:
 389:lvgl/src/lv_widgets/lv_linemeter.c ****         else x_out_extra = (x_out_extra - 127) >> 8;
 1748              		.loc 1 389 9 is_stmt 1 view .LVU510
 389:lvgl/src/lv_widgets/lv_linemeter.c ****         else x_out_extra = (x_out_extra - 127) >> 8;
 1749              		.loc 1 389 11 is_stmt 0 view .LVU511
 1750 0286 B8F1000F 		cmp	r8, #0
 1751 028a 7FF755AF 		ble	.L99
 389:lvgl/src/lv_widgets/lv_linemeter.c ****         else x_out_extra = (x_out_extra - 127) >> 8;
 1752              		.loc 1 389 29 is_stmt 1 discriminator 1 view .LVU512
 389:lvgl/src/lv_widgets/lv_linemeter.c ****         else x_out_extra = (x_out_extra - 127) >> 8;
 1753              		.loc 1 389 56 is_stmt 0 discriminator 1 view .LVU513
 1754 028e 08F17F08 		add	r8, r8, #127
 1755              	.LVL188:
 389:lvgl/src/lv_widgets/lv_linemeter.c ****         else x_out_extra = (x_out_extra - 127) >> 8;
 1756              		.loc 1 389 41 discriminator 1 view .LVU514
 1757 0292 4FEA2828 		asr	r8, r8, #8
 1758              	.LVL189:
 1759              	.L100:
 392:lvgl/src/lv_widgets/lv_linemeter.c ****         else y_out_extra = (y_out_extra - 127) >> 8;
 1760              		.loc 1 392 9 is_stmt 1 view .LVU515
 392:lvgl/src/lv_widgets/lv_linemeter.c ****         else y_out_extra = (y_out_extra - 127) >> 8;
ARM GAS  D:\Temp\ccIs2YtX.s 			page 61


 1761              		.loc 1 392 11 is_stmt 0 view .LVU516
 1762 0296 002F     		cmp	r7, #0
 1763 0298 7FF753AF 		ble	.L101
 392:lvgl/src/lv_widgets/lv_linemeter.c ****         else y_out_extra = (y_out_extra - 127) >> 8;
 1764              		.loc 1 392 29 is_stmt 1 discriminator 1 view .LVU517
 392:lvgl/src/lv_widgets/lv_linemeter.c ****         else y_out_extra = (y_out_extra - 127) >> 8;
 1765              		.loc 1 392 56 is_stmt 0 discriminator 1 view .LVU518
 1766 029c 7F37     		adds	r7, r7, #127
 1767              	.LVL190:
 392:lvgl/src/lv_widgets/lv_linemeter.c ****         else y_out_extra = (y_out_extra - 127) >> 8;
 1768              		.loc 1 392 41 discriminator 1 view .LVU519
 1769 029e 3F12     		asrs	r7, r7, #8
 1770              	.LVL191:
 1771              	.L102:
 395:lvgl/src/lv_widgets/lv_linemeter.c ****         y_out_extra += y_ofs;
 1772              		.loc 1 395 9 is_stmt 1 view .LVU520
 395:lvgl/src/lv_widgets/lv_linemeter.c ****         y_out_extra += y_ofs;
 1773              		.loc 1 395 21 is_stmt 0 view .LVU521
 1774 02a0 059B     		ldr	r3, [sp, #20]
 1775 02a2 9844     		add	r8, r8, r3
 1776              	.LVL192:
 396:lvgl/src/lv_widgets/lv_linemeter.c **** 
 1777              		.loc 1 396 9 is_stmt 1 view .LVU522
 396:lvgl/src/lv_widgets/lv_linemeter.c **** 
 1778              		.loc 1 396 21 is_stmt 0 view .LVU523
 1779 02a4 069B     		ldr	r3, [sp, #24]
 1780 02a6 1F44     		add	r7, r7, r3
 1781              	.LVL193:
 401:lvgl/src/lv_widgets/lv_linemeter.c ****         int32_t x_in_extra = (int32_t)((int32_t)cos_mid * r_in) >> (LV_TRIGO_SHIFT - 8);
 1782              		.loc 1 401 9 is_stmt 1 view .LVU524
 401:lvgl/src/lv_widgets/lv_linemeter.c ****         int32_t x_in_extra = (int32_t)((int32_t)cos_mid * r_in) >> (LV_TRIGO_SHIFT - 8);
 1783              		.loc 1 401 30 is_stmt 0 view .LVU525
 1784 02a8 0A9B     		ldr	r3, [sp, #40]
 1785 02aa 9946     		mov	r9, r3
 1786              	.LVL194:
 401:lvgl/src/lv_widgets/lv_linemeter.c ****         int32_t x_in_extra = (int32_t)((int32_t)cos_mid * r_in) >> (LV_TRIGO_SHIFT - 8);
 1787              		.loc 1 401 30 view .LVU526
 1788 02ac 05FB03F5 		mul	r5, r5, r3
 1789              	.LVL195:
 401:lvgl/src/lv_widgets/lv_linemeter.c ****         int32_t x_in_extra = (int32_t)((int32_t)cos_mid * r_in) >> (LV_TRIGO_SHIFT - 8);
 1790              		.loc 1 401 17 view .LVU527
 1791 02b0 ED11     		asrs	r5, r5, #7
 1792              	.LVL196:
 402:lvgl/src/lv_widgets/lv_linemeter.c **** 
 1793              		.loc 1 402 9 is_stmt 1 view .LVU528
 402:lvgl/src/lv_widgets/lv_linemeter.c **** 
 1794              		.loc 1 402 30 is_stmt 0 view .LVU529
 1795 02b2 04FB03F4 		mul	r4, r4, r3
 1796              	.LVL197:
 402:lvgl/src/lv_widgets/lv_linemeter.c **** 
 1797              		.loc 1 402 17 view .LVU530
 1798 02b6 E411     		asrs	r4, r4, #7
 1799              	.LVL198:
 405:lvgl/src/lv_widgets/lv_linemeter.c ****         else x_in_extra = (x_in_extra - 127) >> 8;
 1800              		.loc 1 405 9 is_stmt 1 view .LVU531
 405:lvgl/src/lv_widgets/lv_linemeter.c ****         else x_in_extra = (x_in_extra - 127) >> 8;
 1801              		.loc 1 405 11 is_stmt 0 view .LVU532
ARM GAS  D:\Temp\ccIs2YtX.s 			page 62


 1802 02b8 002C     		cmp	r4, #0
 1803 02ba 7FF745AF 		ble	.L103
 405:lvgl/src/lv_widgets/lv_linemeter.c ****         else x_in_extra = (x_in_extra - 127) >> 8;
 1804              		.loc 1 405 28 is_stmt 1 discriminator 1 view .LVU533
 405:lvgl/src/lv_widgets/lv_linemeter.c ****         else x_in_extra = (x_in_extra - 127) >> 8;
 1805              		.loc 1 405 53 is_stmt 0 discriminator 1 view .LVU534
 1806 02be 7F34     		adds	r4, r4, #127
 1807              	.LVL199:
 405:lvgl/src/lv_widgets/lv_linemeter.c ****         else x_in_extra = (x_in_extra - 127) >> 8;
 1808              		.loc 1 405 39 discriminator 1 view .LVU535
 1809 02c0 2412     		asrs	r4, r4, #8
 1810              	.LVL200:
 1811              	.L104:
 408:lvgl/src/lv_widgets/lv_linemeter.c ****         else y_in_extra = (y_in_extra - 127) >> 8;
 1812              		.loc 1 408 9 is_stmt 1 view .LVU536
 408:lvgl/src/lv_widgets/lv_linemeter.c ****         else y_in_extra = (y_in_extra - 127) >> 8;
 1813              		.loc 1 408 11 is_stmt 0 view .LVU537
 1814 02c2 002D     		cmp	r5, #0
 1815 02c4 7FF743AF 		ble	.L105
 408:lvgl/src/lv_widgets/lv_linemeter.c ****         else y_in_extra = (y_in_extra - 127) >> 8;
 1816              		.loc 1 408 28 is_stmt 1 discriminator 1 view .LVU538
 408:lvgl/src/lv_widgets/lv_linemeter.c ****         else y_in_extra = (y_in_extra - 127) >> 8;
 1817              		.loc 1 408 53 is_stmt 0 discriminator 1 view .LVU539
 1818 02c8 7F35     		adds	r5, r5, #127
 1819              	.LVL201:
 408:lvgl/src/lv_widgets/lv_linemeter.c ****         else y_in_extra = (y_in_extra - 127) >> 8;
 1820              		.loc 1 408 39 discriminator 1 view .LVU540
 1821 02ca 2D12     		asrs	r5, r5, #8
 1822              	.LVL202:
 1823              	.L106:
 411:lvgl/src/lv_widgets/lv_linemeter.c ****         y_in_extra += y_ofs;
 1824              		.loc 1 411 9 is_stmt 1 view .LVU541
 411:lvgl/src/lv_widgets/lv_linemeter.c ****         y_in_extra += y_ofs;
 1825              		.loc 1 411 20 is_stmt 0 view .LVU542
 1826 02cc 059B     		ldr	r3, [sp, #20]
 1827 02ce 1C44     		add	r4, r4, r3
 1828              	.LVL203:
 412:lvgl/src/lv_widgets/lv_linemeter.c **** #else
 1829              		.loc 1 412 9 is_stmt 1 view .LVU543
 412:lvgl/src/lv_widgets/lv_linemeter.c **** #else
 1830              		.loc 1 412 20 is_stmt 0 view .LVU544
 1831 02d0 0699     		ldr	r1, [sp, #24]
 1832 02d2 0D44     		add	r5, r5, r1
 1833              	.LVL204:
 419:lvgl/src/lv_widgets/lv_linemeter.c ****         int32_t x_in  = (int32_t)((int32_t)_lv_trigo_sin(angle_normal + 90 + angle_ofs) * r_in) >> 
 1834              		.loc 1 419 9 is_stmt 1 view .LVU545
 419:lvgl/src/lv_widgets/lv_linemeter.c ****         int32_t x_in  = (int32_t)((int32_t)_lv_trigo_sin(angle_normal + 90 + angle_ofs) * r_in) >> 
 1835              		.loc 1 419 44 is_stmt 0 view .LVU546
 1836 02d4 5046     		mov	r0, r10
 1837 02d6 FFF7FEFF 		bl	_lv_trigo_sin
 1838              	.LVL205:
 419:lvgl/src/lv_widgets/lv_linemeter.c ****         int32_t x_in  = (int32_t)((int32_t)_lv_trigo_sin(angle_normal + 90 + angle_ofs) * r_in) >> 
 1839              		.loc 1 419 25 view .LVU547
 1840 02da 00FB09FB 		mul	fp, r0, r9
 419:lvgl/src/lv_widgets/lv_linemeter.c ****         int32_t x_in  = (int32_t)((int32_t)_lv_trigo_sin(angle_normal + 90 + angle_ofs) * r_in) >> 
 1841              		.loc 1 419 17 view .LVU548
 1842 02de 4FEAEB3B 		asr	fp, fp, #15
ARM GAS  D:\Temp\ccIs2YtX.s 			page 63


 1843              	.LVL206:
 420:lvgl/src/lv_widgets/lv_linemeter.c **** 
 1844              		.loc 1 420 9 is_stmt 1 view .LVU549
 420:lvgl/src/lv_widgets/lv_linemeter.c **** 
 1845              		.loc 1 420 44 is_stmt 0 view .LVU550
 1846 02e2 3046     		mov	r0, r6
 1847 02e4 FFF7FEFF 		bl	_lv_trigo_sin
 1848              	.LVL207:
 420:lvgl/src/lv_widgets/lv_linemeter.c **** 
 1849              		.loc 1 420 25 view .LVU551
 1850 02e8 00FB09F9 		mul	r9, r0, r9
 1851              	.LVL208:
 422:lvgl/src/lv_widgets/lv_linemeter.c ****         y_in += y_ofs;
 1852              		.loc 1 422 9 is_stmt 1 view .LVU552
 422:lvgl/src/lv_widgets/lv_linemeter.c ****         y_in += y_ofs;
 1853              		.loc 1 422 14 is_stmt 0 view .LVU553
 1854 02ec 059A     		ldr	r2, [sp, #20]
 1855 02ee 02EBE939 		add	r9, r2, r9, asr #15
 1856              	.LVL209:
 423:lvgl/src/lv_widgets/lv_linemeter.c **** 
 1857              		.loc 1 423 9 is_stmt 1 view .LVU554
 423:lvgl/src/lv_widgets/lv_linemeter.c **** 
 1858              		.loc 1 423 14 is_stmt 0 view .LVU555
 1859 02f2 0698     		ldr	r0, [sp, #24]
 1860 02f4 8344     		add	fp, fp, r0
 1861              	.LVL210:
 425:lvgl/src/lv_widgets/lv_linemeter.c ****         int32_t x_out  = (int32_t)((int32_t)_lv_trigo_sin(angle_normal + 90 + angle_ofs) * r_out) >
 1862              		.loc 1 425 9 is_stmt 1 view .LVU556
 425:lvgl/src/lv_widgets/lv_linemeter.c ****         int32_t x_out  = (int32_t)((int32_t)_lv_trigo_sin(angle_normal + 90 + angle_ofs) * r_out) >
 1863              		.loc 1 425 45 is_stmt 0 view .LVU557
 1864 02f6 5046     		mov	r0, r10
 1865 02f8 FFF7FEFF 		bl	_lv_trigo_sin
 1866              	.LVL211:
 425:lvgl/src/lv_widgets/lv_linemeter.c ****         int32_t x_out  = (int32_t)((int32_t)_lv_trigo_sin(angle_normal + 90 + angle_ofs) * r_out) >
 1867              		.loc 1 425 26 view .LVU558
 1868 02fc 089B     		ldr	r3, [sp, #32]
 1869 02fe 00FB03F0 		mul	r0, r0, r3
 425:lvgl/src/lv_widgets/lv_linemeter.c ****         int32_t x_out  = (int32_t)((int32_t)_lv_trigo_sin(angle_normal + 90 + angle_ofs) * r_out) >
 1870              		.loc 1 425 17 view .LVU559
 1871 0302 4FEAE03A 		asr	r10, r0, #15
 1872              	.LVL212:
 426:lvgl/src/lv_widgets/lv_linemeter.c **** 
 1873              		.loc 1 426 9 is_stmt 1 view .LVU560
 426:lvgl/src/lv_widgets/lv_linemeter.c **** 
 1874              		.loc 1 426 45 is_stmt 0 view .LVU561
 1875 0306 3046     		mov	r0, r6
 1876 0308 FFF7FEFF 		bl	_lv_trigo_sin
 1877              	.LVL213:
 426:lvgl/src/lv_widgets/lv_linemeter.c **** 
 1878              		.loc 1 426 26 view .LVU562
 1879 030c 089B     		ldr	r3, [sp, #32]
 1880 030e 00FB03F0 		mul	r0, r0, r3
 1881              	.LVL214:
 428:lvgl/src/lv_widgets/lv_linemeter.c ****         y_out += y_ofs;
 1882              		.loc 1 428 9 is_stmt 1 view .LVU563
 428:lvgl/src/lv_widgets/lv_linemeter.c ****         y_out += y_ofs;
 1883              		.loc 1 428 15 is_stmt 0 view .LVU564
ARM GAS  D:\Temp\ccIs2YtX.s 			page 64


 1884 0312 059A     		ldr	r2, [sp, #20]
 1885 0314 02EBE030 		add	r0, r2, r0, asr #15
 1886              	.LVL215:
 429:lvgl/src/lv_widgets/lv_linemeter.c **** 
 1887              		.loc 1 429 9 is_stmt 1 view .LVU565
 429:lvgl/src/lv_widgets/lv_linemeter.c **** 
 1888              		.loc 1 429 15 is_stmt 0 view .LVU566
 1889 0318 0699     		ldr	r1, [sp, #24]
 1890 031a 8A44     		add	r10, r10, r1
 1891              	.LVL216:
 431:lvgl/src/lv_widgets/lv_linemeter.c ****         clip_sub.x1 = LV_MATH_MIN(x_in, x_out) - line_dsc.width;
 1892              		.loc 1 431 9 is_stmt 1 view .LVU567
 432:lvgl/src/lv_widgets/lv_linemeter.c ****         clip_sub.x2 = LV_MATH_MAX(x_in, x_out) + line_dsc.width;
 1893              		.loc 1 432 9 view .LVU568
 432:lvgl/src/lv_widgets/lv_linemeter.c ****         clip_sub.x2 = LV_MATH_MAX(x_in, x_out) + line_dsc.width;
 1894              		.loc 1 432 58 is_stmt 0 view .LVU569
 1895 031c BDF86E30 		ldrh	r3, [sp, #110]
 432:lvgl/src/lv_widgets/lv_linemeter.c ****         clip_sub.x2 = LV_MATH_MAX(x_in, x_out) + line_dsc.width;
 1896              		.loc 1 432 48 view .LVU570
 1897 0320 8145     		cmp	r9, r0
 1898 0322 D4BF     		ite	le
 1899 0324 C3EB0902 		rsble	r2, r3, r9
 1900 0328 C3EB0002 		rsbgt	r2, r3, r0
 432:lvgl/src/lv_widgets/lv_linemeter.c ****         clip_sub.x2 = LV_MATH_MAX(x_in, x_out) + line_dsc.width;
 1901              		.loc 1 432 21 view .LVU571
 1902 032c ADF86020 		strh	r2, [sp, #96]	@ movhi
 433:lvgl/src/lv_widgets/lv_linemeter.c ****         clip_sub.y1 = LV_MATH_MIN(y_in, y_out) - line_dsc.width;
 1903              		.loc 1 433 9 is_stmt 1 view .LVU572
 433:lvgl/src/lv_widgets/lv_linemeter.c ****         clip_sub.y1 = LV_MATH_MIN(y_in, y_out) - line_dsc.width;
 1904              		.loc 1 433 48 is_stmt 0 view .LVU573
 1905 0330 8145     		cmp	r9, r0
 1906 0332 ACBF     		ite	ge
 1907 0334 9944     		addge	r9, r3, r9
 1908 0336 03EB0009 		addlt	r9, r3, r0
 1909              	.LVL217:
 433:lvgl/src/lv_widgets/lv_linemeter.c ****         clip_sub.y1 = LV_MATH_MIN(y_in, y_out) - line_dsc.width;
 1910              		.loc 1 433 21 view .LVU574
 1911 033a ADF86490 		strh	r9, [sp, #100]	@ movhi
 434:lvgl/src/lv_widgets/lv_linemeter.c ****         clip_sub.y2 = LV_MATH_MAX(y_in, y_out) + line_dsc.width;
 1912              		.loc 1 434 9 is_stmt 1 view .LVU575
 434:lvgl/src/lv_widgets/lv_linemeter.c ****         clip_sub.y2 = LV_MATH_MAX(y_in, y_out) + line_dsc.width;
 1913              		.loc 1 434 48 is_stmt 0 view .LVU576
 1914 033e D345     		cmp	fp, r10
 1915 0340 D4BF     		ite	le
 1916 0342 C3EB0B02 		rsble	r2, r3, fp
 1917 0346 C3EB0A02 		rsbgt	r2, r3, r10
 434:lvgl/src/lv_widgets/lv_linemeter.c ****         clip_sub.y2 = LV_MATH_MAX(y_in, y_out) + line_dsc.width;
 1918              		.loc 1 434 21 view .LVU577
 1919 034a ADF86220 		strh	r2, [sp, #98]	@ movhi
 435:lvgl/src/lv_widgets/lv_linemeter.c **** 
 1920              		.loc 1 435 9 is_stmt 1 view .LVU578
 435:lvgl/src/lv_widgets/lv_linemeter.c **** 
 1921              		.loc 1 435 48 is_stmt 0 view .LVU579
 1922 034e D345     		cmp	fp, r10
 1923 0350 ACBF     		ite	ge
 1924 0352 9B44     		addge	fp, r3, fp
 1925 0354 03EB0A0B 		addlt	fp, r3, r10
ARM GAS  D:\Temp\ccIs2YtX.s 			page 65


 1926              	.LVL218:
 435:lvgl/src/lv_widgets/lv_linemeter.c **** 
 1927              		.loc 1 435 21 view .LVU580
 1928 0358 ADF866B0 		strh	fp, [sp, #102]	@ movhi
 437:lvgl/src/lv_widgets/lv_linemeter.c **** 
 1929              		.loc 1 437 9 is_stmt 1 view .LVU581
 437:lvgl/src/lv_widgets/lv_linemeter.c **** 
 1930              		.loc 1 437 12 is_stmt 0 view .LVU582
 1931 035c 0C9A     		ldr	r2, [sp, #48]
 1932 035e 18A9     		add	r1, sp, #96
 1933 0360 0846     		mov	r0, r1
 1934              	.LVL219:
 437:lvgl/src/lv_widgets/lv_linemeter.c **** 
 1935              		.loc 1 437 12 view .LVU583
 1936 0362 FFF7FEFF 		bl	_lv_area_intersect
 1937              	.LVL220:
 437:lvgl/src/lv_widgets/lv_linemeter.c **** 
 1938              		.loc 1 437 11 view .LVU584
 1939 0366 0028     		cmp	r0, #0
 1940 0368 3FF445AF 		beq	.L108
 439:lvgl/src/lv_widgets/lv_linemeter.c ****         lv_point_t p2;
 1941              		.loc 1 439 9 is_stmt 1 view .LVU585
 440:lvgl/src/lv_widgets/lv_linemeter.c **** 
 1942              		.loc 1 440 9 view .LVU586
 442:lvgl/src/lv_widgets/lv_linemeter.c ****         p2.y = y_in_extra;
 1943              		.loc 1 442 9 view .LVU587
 442:lvgl/src/lv_widgets/lv_linemeter.c ****         p2.y = y_in_extra;
 1944              		.loc 1 442 14 is_stmt 0 view .LVU588
 1945 036c ADF85C40 		strh	r4, [sp, #92]	@ movhi
 443:lvgl/src/lv_widgets/lv_linemeter.c **** 
 1946              		.loc 1 443 9 is_stmt 1 view .LVU589
 443:lvgl/src/lv_widgets/lv_linemeter.c **** 
 1947              		.loc 1 443 14 is_stmt 0 view .LVU590
 1948 0370 ADF85E50 		strh	r5, [sp, #94]	@ movhi
 445:lvgl/src/lv_widgets/lv_linemeter.c ****         p1.y = y_out_extra;
 1949              		.loc 1 445 9 is_stmt 1 view .LVU591
 445:lvgl/src/lv_widgets/lv_linemeter.c ****         p1.y = y_out_extra;
 1950              		.loc 1 445 14 is_stmt 0 view .LVU592
 1951 0374 ADF85880 		strh	r8, [sp, #88]	@ movhi
 446:lvgl/src/lv_widgets/lv_linemeter.c **** 
 1952              		.loc 1 446 9 is_stmt 1 view .LVU593
 446:lvgl/src/lv_widgets/lv_linemeter.c **** 
 1953              		.loc 1 446 14 is_stmt 0 view .LVU594
 1954 0378 ADF85A70 		strh	r7, [sp, #90]	@ movhi
 449:lvgl/src/lv_widgets/lv_linemeter.c ****             line_dsc.color = end_color;
 1955              		.loc 1 449 9 is_stmt 1 view .LVU595
 449:lvgl/src/lv_widgets/lv_linemeter.c ****             line_dsc.color = end_color;
 1956              		.loc 1 449 13 is_stmt 0 view .LVU596
 1957 037c 079B     		ldr	r3, [sp, #28]
 1958 037e 1B7D     		ldrb	r3, [r3, #20]	@ zero_extendqisi2
 449:lvgl/src/lv_widgets/lv_linemeter.c ****             line_dsc.color = end_color;
 1959              		.loc 1 449 11 view .LVU597
 1960 0380 13F00103 		ands	r3, r3, #1
 1961 0384 03D1     		bne	.L109
 449:lvgl/src/lv_widgets/lv_linemeter.c ****             line_dsc.color = end_color;
 1962              		.loc 1 449 28 discriminator 1 view .LVU598
 1963 0386 099A     		ldr	r2, [sp, #36]
ARM GAS  D:\Temp\ccIs2YtX.s 			page 66


 1964 0388 0D99     		ldr	r1, [sp, #52]
 1965 038a 8A42     		cmp	r2, r1
 1966 038c 07DA     		bge	.L110
 1967              	.L109:
 449:lvgl/src/lv_widgets/lv_linemeter.c ****             line_dsc.color = end_color;
 1968              		.loc 1 449 43 discriminator 3 view .LVU599
 1969 038e 002B     		cmp	r3, #0
 1970 0390 3FF4E0AE 		beq	.L111
 449:lvgl/src/lv_widgets/lv_linemeter.c ****             line_dsc.color = end_color;
 1971              		.loc 1 449 61 discriminator 4 view .LVU600
 1972 0394 099B     		ldr	r3, [sp, #36]
 1973 0396 0D9A     		ldr	r2, [sp, #52]
 1974 0398 9342     		cmp	r3, r2
 1975 039a 3FF7DBAE 		bgt	.L111
 1976              	.L110:
 450:lvgl/src/lv_widgets/lv_linemeter.c ****             line_dsc.width = end_line_width;
 1977              		.loc 1 450 13 is_stmt 1 view .LVU601
 450:lvgl/src/lv_widgets/lv_linemeter.c ****             line_dsc.width = end_line_width;
 1978              		.loc 1 450 28 is_stmt 0 view .LVU602
 1979 039e BDF84230 		ldrh	r3, [sp, #66]
 1980              	.LVL221:
 450:lvgl/src/lv_widgets/lv_linemeter.c ****             line_dsc.width = end_line_width;
 1981              		.loc 1 450 28 view .LVU603
 1982 03a2 ADF86C30 		strh	r3, [sp, #108]	@ movhi
 451:lvgl/src/lv_widgets/lv_linemeter.c ****         }
 1983              		.loc 1 451 13 is_stmt 1 view .LVU604
 451:lvgl/src/lv_widgets/lv_linemeter.c ****         }
 1984              		.loc 1 451 28 is_stmt 0 view .LVU605
 1985 03a6 119B     		ldr	r3, [sp, #68]
 1986              	.LVL222:
 451:lvgl/src/lv_widgets/lv_linemeter.c ****         }
 1987              		.loc 1 451 28 view .LVU606
 1988 03a8 ADF86E30 		strh	r3, [sp, #110]	@ movhi
 1989 03ac 1DE7     		b	.L112
 1990              	.LVL223:
 1991              	.L121:
 451:lvgl/src/lv_widgets/lv_linemeter.c ****         }
 1992              		.loc 1 451 28 view .LVU607
 1993              	.LBE70:
 468:lvgl/src/lv_widgets/lv_linemeter.c ****         lv_style_int_t border_width = lv_obj_get_style_scale_border_width(lmeter, part);
 1994              		.loc 1 468 5 is_stmt 1 view .LVU608
 468:lvgl/src/lv_widgets/lv_linemeter.c ****         lv_style_int_t border_width = lv_obj_get_style_scale_border_width(lmeter, part);
 1995              		.loc 1 468 7 is_stmt 0 view .LVU609
 1996 03ae 139A     		ldr	r2, [sp, #76]
 1997 03b0 22B9     		cbnz	r2, .L94
 468:lvgl/src/lv_widgets/lv_linemeter.c ****         lv_style_int_t border_width = lv_obj_get_style_scale_border_width(lmeter, part);
 1998              		.loc 1 468 48 discriminator 1 view .LVU610
 1999 03b2 0D9A     		ldr	r2, [sp, #52]
 2000 03b4 1446     		mov	r4, r2
 468:lvgl/src/lv_widgets/lv_linemeter.c ****         lv_style_int_t border_width = lv_obj_get_style_scale_border_width(lmeter, part);
 2001              		.loc 1 468 64 discriminator 1 view .LVU611
 2002 03b6 013B     		subs	r3, r3, #1
 468:lvgl/src/lv_widgets/lv_linemeter.c ****         lv_style_int_t border_width = lv_obj_get_style_scale_border_width(lmeter, part);
 2003              		.loc 1 468 39 discriminator 1 view .LVU612
 2004 03b8 9A42     		cmp	r2, r3
 2005 03ba 02DB     		blt	.L122
 2006              	.L94:
ARM GAS  D:\Temp\ccIs2YtX.s 			page 67


 492:lvgl/src/lv_widgets/lv_linemeter.c **** 
 2007              		.loc 1 492 1 view .LVU613
 2008 03bc 1FB0     		add	sp, sp, #124
 2009              	.LCFI16:
 2010              		.cfi_remember_state
 2011              		.cfi_def_cfa_offset 36
 2012              		@ sp needed
 2013 03be BDE8F08F 		pop	{r4, r5, r6, r7, r8, r9, r10, fp, pc}
 2014              	.LVL224:
 2015              	.L122:
 2016              	.LCFI17:
 2017              		.cfi_restore_state
 2018              	.LBB71:
 469:lvgl/src/lv_widgets/lv_linemeter.c ****         lv_style_int_t end_border_width = lv_obj_get_style_scale_end_border_width(lmeter, part);
 2019              		.loc 1 469 9 is_stmt 1 view .LVU614
 2020              	.LBB72:
 2021              	.LBI72:
 195:lvgl/src/lv_widgets/../lv_core/lv_obj_style_dec.h **** _LV_OBJ_STYLE_SET_GET_DECLARE(SCALE_END_BORDER_WIDTH, scale_end_border_width, lv_style_int_t, _int,
 2022              		.loc 2 195 1 view .LVU615
 2023              	.LBB73:
 195:lvgl/src/lv_widgets/../lv_core/lv_obj_style_dec.h **** _LV_OBJ_STYLE_SET_GET_DECLARE(SCALE_END_BORDER_WIDTH, scale_end_border_width, lv_style_int_t, _int,
 2024              		.loc 2 195 1 view .LVU616
 2025 03c2 C122     		movs	r2, #193
 2026 03c4 139F     		ldr	r7, [sp, #76]
 2027 03c6 3946     		mov	r1, r7
 2028 03c8 129E     		ldr	r6, [sp, #72]
 2029              	.LVL225:
 195:lvgl/src/lv_widgets/../lv_core/lv_obj_style_dec.h **** _LV_OBJ_STYLE_SET_GET_DECLARE(SCALE_END_BORDER_WIDTH, scale_end_border_width, lv_style_int_t, _int,
 2030              		.loc 2 195 1 is_stmt 0 view .LVU617
 2031 03ca 3046     		mov	r0, r6
 2032 03cc FFF7FEFF 		bl	_lv_obj_get_style_int
 2033              	.LVL226:
 2034 03d0 0546     		mov	r5, r0
 2035              	.LVL227:
 195:lvgl/src/lv_widgets/../lv_core/lv_obj_style_dec.h **** _LV_OBJ_STYLE_SET_GET_DECLARE(SCALE_END_BORDER_WIDTH, scale_end_border_width, lv_style_int_t, _int,
 2036              		.loc 2 195 1 view .LVU618
 2037              	.LBE73:
 2038              	.LBE72:
 470:lvgl/src/lv_widgets/lv_linemeter.c **** 
 2039              		.loc 1 470 9 is_stmt 1 view .LVU619
 2040              	.LBB74:
 2041              	.LBI74:
 196:lvgl/src/lv_widgets/../lv_core/lv_obj_style_dec.h **** _LV_OBJ_STYLE_SET_GET_DECLARE(SCALE_END_LINE_WIDTH, scale_end_line_width, lv_style_int_t, _int, sca
 2042              		.loc 2 196 1 view .LVU620
 2043              	.LBB75:
 196:lvgl/src/lv_widgets/../lv_core/lv_obj_style_dec.h **** _LV_OBJ_STYLE_SET_GET_DECLARE(SCALE_END_LINE_WIDTH, scale_end_line_width, lv_style_int_t, _int, sca
 2044              		.loc 2 196 1 view .LVU621
 2045 03d2 C222     		movs	r2, #194
 2046 03d4 3946     		mov	r1, r7
 2047 03d6 3046     		mov	r0, r6
 2048 03d8 FFF7FEFF 		bl	_lv_obj_get_style_int
 2049              	.LVL228:
 2050 03dc 0646     		mov	r6, r0
 2051              	.LVL229:
 196:lvgl/src/lv_widgets/../lv_core/lv_obj_style_dec.h **** _LV_OBJ_STYLE_SET_GET_DECLARE(SCALE_END_LINE_WIDTH, scale_end_line_width, lv_style_int_t, _int, sca
 2052              		.loc 2 196 1 is_stmt 0 view .LVU622
 2053              	.LBE75:
ARM GAS  D:\Temp\ccIs2YtX.s 			page 68


 2054              	.LBE74:
 472:lvgl/src/lv_widgets/lv_linemeter.c ****             int16_t end_angle = ((level) * ext->scale_angle) / (ext->line_cnt - 1) + angle_ofs;
 2055              		.loc 1 472 9 is_stmt 1 view .LVU623
 472:lvgl/src/lv_widgets/lv_linemeter.c ****             int16_t end_angle = ((level) * ext->scale_angle) / (ext->line_cnt - 1) + angle_ofs;
 2056              		.loc 1 472 11 is_stmt 0 view .LVU624
 2057 03de 0DB9     		cbnz	r5, .L115
 472:lvgl/src/lv_widgets/lv_linemeter.c ****             int16_t end_angle = ((level) * ext->scale_angle) / (ext->line_cnt - 1) + angle_ofs;
 2058              		.loc 1 472 25 discriminator 1 view .LVU625
 2059 03e0 0028     		cmp	r0, #0
 2060 03e2 EBD0     		beq	.L94
 2061              	.L115:
 2062              	.LBB76:
 473:lvgl/src/lv_widgets/lv_linemeter.c ****             lv_draw_line_dsc_t arc_dsc;
 2063              		.loc 1 473 13 is_stmt 1 view .LVU626
 473:lvgl/src/lv_widgets/lv_linemeter.c ****             lv_draw_line_dsc_t arc_dsc;
 2064              		.loc 1 473 47 is_stmt 0 view .LVU627
 2065 03e4 079A     		ldr	r2, [sp, #28]
 2066 03e6 1388     		ldrh	r3, [r2]
 473:lvgl/src/lv_widgets/lv_linemeter.c ****             lv_draw_line_dsc_t arc_dsc;
 2067              		.loc 1 473 42 view .LVU628
 2068 03e8 03FB04F4 		mul	r4, r3, r4
 473:lvgl/src/lv_widgets/lv_linemeter.c ****             lv_draw_line_dsc_t arc_dsc;
 2069              		.loc 1 473 68 view .LVU629
 2070 03ec 9388     		ldrh	r3, [r2, #4]
 473:lvgl/src/lv_widgets/lv_linemeter.c ****             lv_draw_line_dsc_t arc_dsc;
 2071              		.loc 1 473 79 view .LVU630
 2072 03ee 013B     		subs	r3, r3, #1
 473:lvgl/src/lv_widgets/lv_linemeter.c ****             lv_draw_line_dsc_t arc_dsc;
 2073              		.loc 1 473 62 view .LVU631
 2074 03f0 94FBF3F4 		sdiv	r4, r4, r3
 473:lvgl/src/lv_widgets/lv_linemeter.c ****             lv_draw_line_dsc_t arc_dsc;
 2075              		.loc 1 473 84 view .LVU632
 2076 03f4 0B9B     		ldr	r3, [sp, #44]
 2077 03f6 1C44     		add	r4, r4, r3
 2078 03f8 A4B2     		uxth	r4, r4
 2079              	.LVL230:
 474:lvgl/src/lv_widgets/lv_linemeter.c ****             lv_draw_line_dsc_init(&arc_dsc);
 2080              		.loc 1 474 13 is_stmt 1 view .LVU633
 475:lvgl/src/lv_widgets/lv_linemeter.c ****             lv_obj_init_draw_line_dsc(lmeter, part, &arc_dsc);
 2081              		.loc 1 475 13 view .LVU634
 2082 03fa 18A8     		add	r0, sp, #96
 2083              	.LVL231:
 475:lvgl/src/lv_widgets/lv_linemeter.c ****             lv_obj_init_draw_line_dsc(lmeter, part, &arc_dsc);
 2084              		.loc 1 475 13 is_stmt 0 view .LVU635
 2085 03fc FFF7FEFF 		bl	lv_draw_line_dsc_init
 2086              	.LVL232:
 476:lvgl/src/lv_widgets/lv_linemeter.c **** 
 2087              		.loc 1 476 13 is_stmt 1 view .LVU636
 2088 0400 18AA     		add	r2, sp, #96
 2089 0402 1399     		ldr	r1, [sp, #76]
 2090 0404 1298     		ldr	r0, [sp, #72]
 2091 0406 FFF7FEFF 		bl	lv_obj_init_draw_line_dsc
 2092              	.LVL233:
 478:lvgl/src/lv_widgets/lv_linemeter.c ****                 arc_dsc.width = border_width;
 2093              		.loc 1 478 13 view .LVU637
 478:lvgl/src/lv_widgets/lv_linemeter.c ****                 arc_dsc.width = border_width;
 2094              		.loc 1 478 15 is_stmt 0 view .LVU638
ARM GAS  D:\Temp\ccIs2YtX.s 			page 69


 2095 040a 25BB     		cbnz	r5, .L123
 2096              	.L116:
 484:lvgl/src/lv_widgets/lv_linemeter.c ****                 arc_dsc.width = end_border_width;
 2097              		.loc 1 484 13 is_stmt 1 view .LVU639
 484:lvgl/src/lv_widgets/lv_linemeter.c ****                 arc_dsc.width = end_border_width;
 2098              		.loc 1 484 15 is_stmt 0 view .LVU640
 2099 040c 002E     		cmp	r6, #0
 2100 040e D5D0     		beq	.L94
 485:lvgl/src/lv_widgets/lv_linemeter.c ****                 arc_dsc.color = end_color;
 2101              		.loc 1 485 17 is_stmt 1 view .LVU641
 485:lvgl/src/lv_widgets/lv_linemeter.c ****                 arc_dsc.color = end_color;
 2102              		.loc 1 485 31 is_stmt 0 view .LVU642
 2103 0410 ADF86260 		strh	r6, [sp, #98]	@ movhi
 486:lvgl/src/lv_widgets/lv_linemeter.c ****                 lv_draw_arc(x_ofs, y_ofs, r_out, end_angle, (angle_ofs + ext->scale_angle) % 360, c
 2104              		.loc 1 486 17 is_stmt 1 view .LVU643
 486:lvgl/src/lv_widgets/lv_linemeter.c ****                 lv_draw_arc(x_ofs, y_ofs, r_out, end_angle, (angle_ofs + ext->scale_angle) % 360, c
 2105              		.loc 1 486 31 is_stmt 0 view .LVU644
 2106 0414 BDF84230 		ldrh	r3, [sp, #66]
 2107              	.LVL234:
 486:lvgl/src/lv_widgets/lv_linemeter.c ****                 lv_draw_arc(x_ofs, y_ofs, r_out, end_angle, (angle_ofs + ext->scale_angle) % 360, c
 2108              		.loc 1 486 31 view .LVU645
 2109 0418 ADF86030 		strh	r3, [sp, #96]	@ movhi
 487:lvgl/src/lv_widgets/lv_linemeter.c ****             }
 2110              		.loc 1 487 17 is_stmt 1 view .LVU646
 487:lvgl/src/lv_widgets/lv_linemeter.c ****             }
 2111              		.loc 1 487 77 is_stmt 0 view .LVU647
 2112 041c 079B     		ldr	r3, [sp, #28]
 2113              	.LVL235:
 487:lvgl/src/lv_widgets/lv_linemeter.c ****             }
 2114              		.loc 1 487 77 view .LVU648
 2115 041e 1B88     		ldrh	r3, [r3]
 487:lvgl/src/lv_widgets/lv_linemeter.c ****             }
 2116              		.loc 1 487 72 view .LVU649
 2117 0420 159A     		ldr	r2, [sp, #84]
 2118 0422 1A44     		add	r2, r2, r3
 2119 0424 1346     		mov	r3, r2
