ARM GAS  D:\Temp\cclLOIfg.s 			page 1


   1              		.cpu cortex-m4
   2              		.eabi_attribute 27, 1
   3              		.eabi_attribute 28, 1
   4              		.eabi_attribute 20, 1
   5              		.eabi_attribute 21, 1
   6              		.eabi_attribute 23, 3
   7              		.eabi_attribute 24, 1
   8              		.eabi_attribute 25, 1
   9              		.eabi_attribute 26, 1
  10              		.eabi_attribute 30, 1
  11              		.eabi_attribute 34, 1
  12              		.eabi_attribute 18, 4
  13              		.file	"lv_label.c"
  14              		.text
  15              	.Ltext0:
  16              		.cfi_sections	.debug_frame
  17              		.section	.text.lv_label_get_dot_tmp,"ax",%progbits
  18              		.align	1
  19              		.arch armv7e-m
  20              		.syntax unified
  21              		.thumb
  22              		.thumb_func
  23              		.fpu fpv4-sp-d16
  25              	lv_label_get_dot_tmp:
  26              	.LVL0:
  27              	.LFB488:
  28              		.file 1 "lvgl/src/lv_widgets/lv_label.c"
   1:lvgl/src/lv_widgets/lv_label.c **** /**
   2:lvgl/src/lv_widgets/lv_label.c ****  * @file lv_label.c
   3:lvgl/src/lv_widgets/lv_label.c ****  *
   4:lvgl/src/lv_widgets/lv_label.c ****  */
   5:lvgl/src/lv_widgets/lv_label.c **** 
   6:lvgl/src/lv_widgets/lv_label.c **** /*********************
   7:lvgl/src/lv_widgets/lv_label.c ****  *      INCLUDES
   8:lvgl/src/lv_widgets/lv_label.c ****  *********************/
   9:lvgl/src/lv_widgets/lv_label.c **** #include "lv_label.h"
  10:lvgl/src/lv_widgets/lv_label.c **** #if LV_USE_LABEL != 0
  11:lvgl/src/lv_widgets/lv_label.c **** #include "../lv_core/lv_obj.h"
  12:lvgl/src/lv_widgets/lv_label.c **** #include "../lv_misc/lv_debug.h"
  13:lvgl/src/lv_widgets/lv_label.c **** #include "../lv_core/lv_group.h"
  14:lvgl/src/lv_widgets/lv_label.c **** #include "../lv_draw/lv_draw.h"
  15:lvgl/src/lv_widgets/lv_label.c **** #include "../lv_misc/lv_color.h"
  16:lvgl/src/lv_widgets/lv_label.c **** #include "../lv_misc/lv_math.h"
  17:lvgl/src/lv_widgets/lv_label.c **** #include "../lv_misc/lv_bidi.h"
  18:lvgl/src/lv_widgets/lv_label.c **** #include "../lv_misc/lv_txt_ap.h"
  19:lvgl/src/lv_widgets/lv_label.c **** #include "../lv_misc/lv_printf.h"
  20:lvgl/src/lv_widgets/lv_label.c **** #include "../lv_themes/lv_theme.h"
  21:lvgl/src/lv_widgets/lv_label.c **** 
  22:lvgl/src/lv_widgets/lv_label.c **** /*********************
  23:lvgl/src/lv_widgets/lv_label.c ****  *      DEFINES
  24:lvgl/src/lv_widgets/lv_label.c ****  *********************/
  25:lvgl/src/lv_widgets/lv_label.c **** #define LV_OBJX_NAME "lv_label"
  26:lvgl/src/lv_widgets/lv_label.c **** 
  27:lvgl/src/lv_widgets/lv_label.c **** /*Test configurations*/
  28:lvgl/src/lv_widgets/lv_label.c **** #ifndef LV_LABEL_DEF_SCROLL_SPEED
  29:lvgl/src/lv_widgets/lv_label.c ****     #define LV_LABEL_DEF_SCROLL_SPEED (25)
  30:lvgl/src/lv_widgets/lv_label.c **** #endif
ARM GAS  D:\Temp\cclLOIfg.s 			page 2


  31:lvgl/src/lv_widgets/lv_label.c **** 
  32:lvgl/src/lv_widgets/lv_label.c **** #define LV_LABEL_DOT_END_INV 0xFFFF
  33:lvgl/src/lv_widgets/lv_label.c **** #define LV_LABEL_HINT_HEIGHT_LIMIT                                                                 
  34:lvgl/src/lv_widgets/lv_label.c ****     1024 /*Enable "hint" to buffer info about labels larger than this. (Speed up their drawing)*/
  35:lvgl/src/lv_widgets/lv_label.c **** 
  36:lvgl/src/lv_widgets/lv_label.c **** /**********************
  37:lvgl/src/lv_widgets/lv_label.c ****  *      TYPEDEFS
  38:lvgl/src/lv_widgets/lv_label.c ****  **********************/
  39:lvgl/src/lv_widgets/lv_label.c **** 
  40:lvgl/src/lv_widgets/lv_label.c **** /**********************
  41:lvgl/src/lv_widgets/lv_label.c ****  *  STATIC PROTOTYPES
  42:lvgl/src/lv_widgets/lv_label.c ****  **********************/
  43:lvgl/src/lv_widgets/lv_label.c **** static lv_res_t lv_label_signal(lv_obj_t * label, lv_signal_t sign, void * param);
  44:lvgl/src/lv_widgets/lv_label.c **** static lv_design_res_t lv_label_design(lv_obj_t * label, const lv_area_t * clip_area, lv_design_mod
  45:lvgl/src/lv_widgets/lv_label.c **** static void lv_label_revert_dots(lv_obj_t * label);
  46:lvgl/src/lv_widgets/lv_label.c **** 
  47:lvgl/src/lv_widgets/lv_label.c **** #if LV_USE_ANIMATION
  48:lvgl/src/lv_widgets/lv_label.c ****     static void lv_label_set_offset_x(lv_obj_t * label, lv_coord_t x);
  49:lvgl/src/lv_widgets/lv_label.c ****     static void lv_label_set_offset_y(lv_obj_t * label, lv_coord_t y);
  50:lvgl/src/lv_widgets/lv_label.c **** #endif
  51:lvgl/src/lv_widgets/lv_label.c **** 
  52:lvgl/src/lv_widgets/lv_label.c **** static bool lv_label_set_dot_tmp(lv_obj_t * label, char * data, uint32_t len);
  53:lvgl/src/lv_widgets/lv_label.c **** static char * lv_label_get_dot_tmp(lv_obj_t * label);
  54:lvgl/src/lv_widgets/lv_label.c **** static void lv_label_dot_tmp_free(lv_obj_t * label);
  55:lvgl/src/lv_widgets/lv_label.c **** static void get_txt_coords(const lv_obj_t * label, lv_area_t * area);
  56:lvgl/src/lv_widgets/lv_label.c **** 
  57:lvgl/src/lv_widgets/lv_label.c **** /**********************
  58:lvgl/src/lv_widgets/lv_label.c ****  *  STATIC VARIABLES
  59:lvgl/src/lv_widgets/lv_label.c ****  **********************/
  60:lvgl/src/lv_widgets/lv_label.c **** static lv_signal_cb_t ancestor_signal;
  61:lvgl/src/lv_widgets/lv_label.c **** 
  62:lvgl/src/lv_widgets/lv_label.c **** /**********************
  63:lvgl/src/lv_widgets/lv_label.c ****  *      MACROS
  64:lvgl/src/lv_widgets/lv_label.c ****  **********************/
  65:lvgl/src/lv_widgets/lv_label.c **** 
  66:lvgl/src/lv_widgets/lv_label.c **** /**********************
  67:lvgl/src/lv_widgets/lv_label.c ****  *   GLOBAL FUNCTIONS
  68:lvgl/src/lv_widgets/lv_label.c ****  **********************/
  69:lvgl/src/lv_widgets/lv_label.c **** 
  70:lvgl/src/lv_widgets/lv_label.c **** /**
  71:lvgl/src/lv_widgets/lv_label.c ****  * Create a label objects
  72:lvgl/src/lv_widgets/lv_label.c ****  * @param par pointer to an object, it will be the parent of the new label
  73:lvgl/src/lv_widgets/lv_label.c ****  * @param copy pointer to a label object, if not NULL then the new object will be copied from it
  74:lvgl/src/lv_widgets/lv_label.c ****  * @return pointer to the created button
  75:lvgl/src/lv_widgets/lv_label.c ****  */
  76:lvgl/src/lv_widgets/lv_label.c **** lv_obj_t * lv_label_create(lv_obj_t * par, const lv_obj_t * copy)
  77:lvgl/src/lv_widgets/lv_label.c **** {
  78:lvgl/src/lv_widgets/lv_label.c ****     LV_LOG_TRACE("label create started");
  79:lvgl/src/lv_widgets/lv_label.c **** 
  80:lvgl/src/lv_widgets/lv_label.c ****     /*Create a basic object*/
  81:lvgl/src/lv_widgets/lv_label.c ****     lv_obj_t * new_label = lv_obj_create(par, copy);
  82:lvgl/src/lv_widgets/lv_label.c ****     LV_ASSERT_MEM(new_label);
  83:lvgl/src/lv_widgets/lv_label.c ****     if(new_label == NULL) return NULL;
  84:lvgl/src/lv_widgets/lv_label.c **** 
  85:lvgl/src/lv_widgets/lv_label.c ****     if(ancestor_signal == NULL) ancestor_signal = lv_obj_get_signal_cb(new_label);
  86:lvgl/src/lv_widgets/lv_label.c **** 
  87:lvgl/src/lv_widgets/lv_label.c ****     /*Extend the basic object to a label object*/
ARM GAS  D:\Temp\cclLOIfg.s 			page 3


  88:lvgl/src/lv_widgets/lv_label.c ****     lv_obj_allocate_ext_attr(new_label, sizeof(lv_label_ext_t));
  89:lvgl/src/lv_widgets/lv_label.c **** 
  90:lvgl/src/lv_widgets/lv_label.c ****     lv_label_ext_t * ext = lv_obj_get_ext_attr(new_label);
  91:lvgl/src/lv_widgets/lv_label.c ****     LV_ASSERT_MEM(ext);
  92:lvgl/src/lv_widgets/lv_label.c ****     if(ext == NULL) {
  93:lvgl/src/lv_widgets/lv_label.c ****         lv_obj_del(new_label);
  94:lvgl/src/lv_widgets/lv_label.c ****         return NULL;
  95:lvgl/src/lv_widgets/lv_label.c ****     }
  96:lvgl/src/lv_widgets/lv_label.c **** 
  97:lvgl/src/lv_widgets/lv_label.c ****     ext->text       = NULL;
  98:lvgl/src/lv_widgets/lv_label.c ****     ext->static_txt = 0;
  99:lvgl/src/lv_widgets/lv_label.c ****     ext->recolor    = 0;
 100:lvgl/src/lv_widgets/lv_label.c ****     ext->align      = LV_LABEL_ALIGN_AUTO;
 101:lvgl/src/lv_widgets/lv_label.c ****     ext->dot_end    = LV_LABEL_DOT_END_INV;
 102:lvgl/src/lv_widgets/lv_label.c ****     ext->long_mode  = LV_LABEL_LONG_EXPAND;
 103:lvgl/src/lv_widgets/lv_label.c **** #if LV_USE_ANIMATION
 104:lvgl/src/lv_widgets/lv_label.c ****     ext->anim_speed = LV_LABEL_DEF_SCROLL_SPEED;
 105:lvgl/src/lv_widgets/lv_label.c **** #endif
 106:lvgl/src/lv_widgets/lv_label.c ****     ext->offset.x = 0;
 107:lvgl/src/lv_widgets/lv_label.c ****     ext->offset.y = 0;
 108:lvgl/src/lv_widgets/lv_label.c **** 
 109:lvgl/src/lv_widgets/lv_label.c **** #if LV_LABEL_LONG_TXT_HINT
 110:lvgl/src/lv_widgets/lv_label.c ****     ext->hint.line_start = -1;
 111:lvgl/src/lv_widgets/lv_label.c ****     ext->hint.coord_y    = 0;
 112:lvgl/src/lv_widgets/lv_label.c ****     ext->hint.y          = 0;
 113:lvgl/src/lv_widgets/lv_label.c **** #endif
 114:lvgl/src/lv_widgets/lv_label.c **** 
 115:lvgl/src/lv_widgets/lv_label.c **** #if LV_LABEL_TEXT_SEL
 116:lvgl/src/lv_widgets/lv_label.c ****     ext->sel_start = LV_DRAW_LABEL_NO_TXT_SEL;
 117:lvgl/src/lv_widgets/lv_label.c ****     ext->sel_end   = LV_DRAW_LABEL_NO_TXT_SEL;
 118:lvgl/src/lv_widgets/lv_label.c **** #endif
 119:lvgl/src/lv_widgets/lv_label.c ****     ext->dot.tmp_ptr   = NULL;
 120:lvgl/src/lv_widgets/lv_label.c ****     ext->dot_tmp_alloc = 0;
 121:lvgl/src/lv_widgets/lv_label.c **** 
 122:lvgl/src/lv_widgets/lv_label.c ****     lv_obj_set_design_cb(new_label, lv_label_design);
 123:lvgl/src/lv_widgets/lv_label.c ****     lv_obj_set_signal_cb(new_label, lv_label_signal);
 124:lvgl/src/lv_widgets/lv_label.c **** 
 125:lvgl/src/lv_widgets/lv_label.c ****     /*Init the new label*/
 126:lvgl/src/lv_widgets/lv_label.c ****     if(copy == NULL) {
 127:lvgl/src/lv_widgets/lv_label.c ****         lv_theme_apply(new_label, LV_THEME_LABEL);
 128:lvgl/src/lv_widgets/lv_label.c ****         lv_obj_set_click(new_label, false);
 129:lvgl/src/lv_widgets/lv_label.c ****         lv_label_set_long_mode(new_label, LV_LABEL_LONG_EXPAND);
 130:lvgl/src/lv_widgets/lv_label.c ****         lv_label_set_text(new_label, "Text");
 131:lvgl/src/lv_widgets/lv_label.c ****     }
 132:lvgl/src/lv_widgets/lv_label.c ****     /*Copy 'copy' if not NULL*/
 133:lvgl/src/lv_widgets/lv_label.c ****     else {
 134:lvgl/src/lv_widgets/lv_label.c ****         lv_label_ext_t * copy_ext = lv_obj_get_ext_attr(copy);
 135:lvgl/src/lv_widgets/lv_label.c ****         lv_label_set_long_mode(new_label, lv_label_get_long_mode(copy));
 136:lvgl/src/lv_widgets/lv_label.c ****         lv_label_set_recolor(new_label, lv_label_get_recolor(copy));
 137:lvgl/src/lv_widgets/lv_label.c ****         lv_label_set_align(new_label, lv_label_get_align(copy));
 138:lvgl/src/lv_widgets/lv_label.c ****         if(copy_ext->static_txt == 0)
 139:lvgl/src/lv_widgets/lv_label.c ****             lv_label_set_text(new_label, lv_label_get_text(copy));
 140:lvgl/src/lv_widgets/lv_label.c ****         else
 141:lvgl/src/lv_widgets/lv_label.c ****             lv_label_set_text_static(new_label, lv_label_get_text(copy));
 142:lvgl/src/lv_widgets/lv_label.c **** 
 143:lvgl/src/lv_widgets/lv_label.c ****         /*In DOT mode save the text byte-to-byte because a '\0' can be in the middle*/
 144:lvgl/src/lv_widgets/lv_label.c ****         if(copy_ext->long_mode == LV_LABEL_LONG_DOT) {
ARM GAS  D:\Temp\cclLOIfg.s 			page 4


 145:lvgl/src/lv_widgets/lv_label.c ****             ext->text = lv_mem_realloc(ext->text, _lv_mem_get_size(copy_ext->text));
 146:lvgl/src/lv_widgets/lv_label.c ****             LV_ASSERT_MEM(ext->text);
 147:lvgl/src/lv_widgets/lv_label.c ****             if(ext->text == NULL) return NULL;
 148:lvgl/src/lv_widgets/lv_label.c ****             _lv_memcpy(ext->text, copy_ext->text, _lv_mem_get_size(copy_ext->text));
 149:lvgl/src/lv_widgets/lv_label.c ****         }
 150:lvgl/src/lv_widgets/lv_label.c **** 
 151:lvgl/src/lv_widgets/lv_label.c ****         if(copy_ext->dot_tmp_alloc && copy_ext->dot.tmp_ptr) {
 152:lvgl/src/lv_widgets/lv_label.c ****             uint32_t len = (uint32_t)strlen(copy_ext->dot.tmp_ptr);
 153:lvgl/src/lv_widgets/lv_label.c ****             lv_label_set_dot_tmp(new_label, ext->dot.tmp_ptr, len);
 154:lvgl/src/lv_widgets/lv_label.c ****         }
 155:lvgl/src/lv_widgets/lv_label.c ****         else {
 156:lvgl/src/lv_widgets/lv_label.c ****             _lv_memcpy(ext->dot.tmp, copy_ext->dot.tmp, sizeof(ext->dot.tmp));
 157:lvgl/src/lv_widgets/lv_label.c ****         }
 158:lvgl/src/lv_widgets/lv_label.c ****         ext->dot_tmp_alloc = copy_ext->dot_tmp_alloc;
 159:lvgl/src/lv_widgets/lv_label.c ****         ext->dot_end       = copy_ext->dot_end;
 160:lvgl/src/lv_widgets/lv_label.c **** 
 161:lvgl/src/lv_widgets/lv_label.c ****         /*Refresh the style with new signal function*/
 162:lvgl/src/lv_widgets/lv_label.c ****         lv_obj_refresh_style(new_label, LV_OBJ_PART_ALL, LV_STYLE_PROP_ALL);
 163:lvgl/src/lv_widgets/lv_label.c ****     }
 164:lvgl/src/lv_widgets/lv_label.c **** 
 165:lvgl/src/lv_widgets/lv_label.c ****     LV_LOG_INFO("label created");
 166:lvgl/src/lv_widgets/lv_label.c **** 
 167:lvgl/src/lv_widgets/lv_label.c ****     return new_label;
 168:lvgl/src/lv_widgets/lv_label.c **** }
 169:lvgl/src/lv_widgets/lv_label.c **** 
 170:lvgl/src/lv_widgets/lv_label.c **** /*=====================
 171:lvgl/src/lv_widgets/lv_label.c ****  * Setter functions
 172:lvgl/src/lv_widgets/lv_label.c ****  *====================*/
 173:lvgl/src/lv_widgets/lv_label.c **** 
 174:lvgl/src/lv_widgets/lv_label.c **** /**
 175:lvgl/src/lv_widgets/lv_label.c ****  * Set a new text for a label. Memory will be allocated to store the text by the label.
 176:lvgl/src/lv_widgets/lv_label.c ****  * @param label pointer to a label object
 177:lvgl/src/lv_widgets/lv_label.c ****  * @param text '\0' terminated character string. NULL to refresh with the current text.
 178:lvgl/src/lv_widgets/lv_label.c ****  */
 179:lvgl/src/lv_widgets/lv_label.c **** void lv_label_set_text(lv_obj_t * label, const char * text)
 180:lvgl/src/lv_widgets/lv_label.c **** {
 181:lvgl/src/lv_widgets/lv_label.c ****     LV_ASSERT_OBJ(label, LV_OBJX_NAME);
 182:lvgl/src/lv_widgets/lv_label.c **** 
 183:lvgl/src/lv_widgets/lv_label.c ****     lv_obj_invalidate(label);
 184:lvgl/src/lv_widgets/lv_label.c **** 
 185:lvgl/src/lv_widgets/lv_label.c ****     lv_label_ext_t * ext = lv_obj_get_ext_attr(label);
 186:lvgl/src/lv_widgets/lv_label.c **** 
 187:lvgl/src/lv_widgets/lv_label.c ****     /*If text is NULL then just refresh with the current text */
 188:lvgl/src/lv_widgets/lv_label.c ****     if(text == NULL) text = ext->text;
 189:lvgl/src/lv_widgets/lv_label.c **** 
 190:lvgl/src/lv_widgets/lv_label.c ****     LV_ASSERT_STR(text);
 191:lvgl/src/lv_widgets/lv_label.c **** 
 192:lvgl/src/lv_widgets/lv_label.c ****     if(ext->text == text && ext->static_txt == 0) {
 193:lvgl/src/lv_widgets/lv_label.c ****         /*If set its own text then reallocate it (maybe its size changed)*/
 194:lvgl/src/lv_widgets/lv_label.c **** #if LV_USE_ARABIC_PERSIAN_CHARS
 195:lvgl/src/lv_widgets/lv_label.c ****         /*Get the size of the text and process it*/
 196:lvgl/src/lv_widgets/lv_label.c ****         size_t len = _lv_txt_ap_calc_bytes_cnt(text);
 197:lvgl/src/lv_widgets/lv_label.c **** 
 198:lvgl/src/lv_widgets/lv_label.c ****         ext->text = lv_mem_realloc(ext->text, len);
 199:lvgl/src/lv_widgets/lv_label.c ****         LV_ASSERT_MEM(ext->text);
 200:lvgl/src/lv_widgets/lv_label.c ****         if(ext->text == NULL) return;
 201:lvgl/src/lv_widgets/lv_label.c **** 
ARM GAS  D:\Temp\cclLOIfg.s 			page 5


 202:lvgl/src/lv_widgets/lv_label.c ****         _lv_txt_ap_proc(ext->text, ext->text);
 203:lvgl/src/lv_widgets/lv_label.c **** #else
 204:lvgl/src/lv_widgets/lv_label.c ****         ext->text = lv_mem_realloc(ext->text, strlen(ext->text) + 1);
 205:lvgl/src/lv_widgets/lv_label.c **** #endif
 206:lvgl/src/lv_widgets/lv_label.c **** 
 207:lvgl/src/lv_widgets/lv_label.c ****         LV_ASSERT_MEM(ext->text);
 208:lvgl/src/lv_widgets/lv_label.c ****         if(ext->text == NULL) return;
 209:lvgl/src/lv_widgets/lv_label.c ****     }
 210:lvgl/src/lv_widgets/lv_label.c ****     else {
 211:lvgl/src/lv_widgets/lv_label.c ****         /*Free the old text*/
 212:lvgl/src/lv_widgets/lv_label.c ****         if(ext->text != NULL && ext->static_txt == 0) {
 213:lvgl/src/lv_widgets/lv_label.c ****             lv_mem_free(ext->text);
 214:lvgl/src/lv_widgets/lv_label.c ****             ext->text = NULL;
 215:lvgl/src/lv_widgets/lv_label.c ****         }
 216:lvgl/src/lv_widgets/lv_label.c **** 
 217:lvgl/src/lv_widgets/lv_label.c **** #if LV_USE_ARABIC_PERSIAN_CHARS
 218:lvgl/src/lv_widgets/lv_label.c ****         /*Get the size of the text and process it*/
 219:lvgl/src/lv_widgets/lv_label.c ****         size_t len = _lv_txt_ap_calc_bytes_cnt(text);
 220:lvgl/src/lv_widgets/lv_label.c **** 
 221:lvgl/src/lv_widgets/lv_label.c ****         ext->text = lv_mem_alloc(len);
 222:lvgl/src/lv_widgets/lv_label.c ****         LV_ASSERT_MEM(ext->text);
 223:lvgl/src/lv_widgets/lv_label.c ****         if(ext->text == NULL) return;
 224:lvgl/src/lv_widgets/lv_label.c **** 
 225:lvgl/src/lv_widgets/lv_label.c ****         _lv_txt_ap_proc(text, ext->text);
 226:lvgl/src/lv_widgets/lv_label.c **** #else
 227:lvgl/src/lv_widgets/lv_label.c ****         /*Get the size of the text*/
 228:lvgl/src/lv_widgets/lv_label.c ****         size_t len = strlen(text) + 1;
 229:lvgl/src/lv_widgets/lv_label.c **** 
 230:lvgl/src/lv_widgets/lv_label.c ****         /*Allocate space for the new text*/
 231:lvgl/src/lv_widgets/lv_label.c ****         ext->text = lv_mem_alloc(len);
 232:lvgl/src/lv_widgets/lv_label.c ****         LV_ASSERT_MEM(ext->text);
 233:lvgl/src/lv_widgets/lv_label.c ****         if(ext->text == NULL) return;
 234:lvgl/src/lv_widgets/lv_label.c ****         strcpy(ext->text, text);
 235:lvgl/src/lv_widgets/lv_label.c **** #endif
 236:lvgl/src/lv_widgets/lv_label.c **** 
 237:lvgl/src/lv_widgets/lv_label.c ****         /*Now the text is dynamically allocated*/
 238:lvgl/src/lv_widgets/lv_label.c ****         ext->static_txt = 0;
 239:lvgl/src/lv_widgets/lv_label.c ****     }
 240:lvgl/src/lv_widgets/lv_label.c **** 
 241:lvgl/src/lv_widgets/lv_label.c ****     lv_label_refr_text(label);
 242:lvgl/src/lv_widgets/lv_label.c **** }
 243:lvgl/src/lv_widgets/lv_label.c **** 
 244:lvgl/src/lv_widgets/lv_label.c **** /**
 245:lvgl/src/lv_widgets/lv_label.c ****  * Set a new formatted text for a label. Memory will be allocated to store the text by the label.
 246:lvgl/src/lv_widgets/lv_label.c ****  * @param label pointer to a label object
 247:lvgl/src/lv_widgets/lv_label.c ****  * @param fmt `printf`-like format
 248:lvgl/src/lv_widgets/lv_label.c ****  */
 249:lvgl/src/lv_widgets/lv_label.c **** void lv_label_set_text_fmt(lv_obj_t * label, const char * fmt, ...)
 250:lvgl/src/lv_widgets/lv_label.c **** {
 251:lvgl/src/lv_widgets/lv_label.c ****     LV_ASSERT_OBJ(label, LV_OBJX_NAME);
 252:lvgl/src/lv_widgets/lv_label.c ****     LV_ASSERT_STR(fmt);
 253:lvgl/src/lv_widgets/lv_label.c **** 
 254:lvgl/src/lv_widgets/lv_label.c ****     lv_obj_invalidate(label);
 255:lvgl/src/lv_widgets/lv_label.c **** 
 256:lvgl/src/lv_widgets/lv_label.c ****     lv_label_ext_t * ext = lv_obj_get_ext_attr(label);
 257:lvgl/src/lv_widgets/lv_label.c **** 
 258:lvgl/src/lv_widgets/lv_label.c ****     /*If text is NULL then refresh */
ARM GAS  D:\Temp\cclLOIfg.s 			page 6


 259:lvgl/src/lv_widgets/lv_label.c ****     if(fmt == NULL) {
 260:lvgl/src/lv_widgets/lv_label.c ****         lv_label_refr_text(label);
 261:lvgl/src/lv_widgets/lv_label.c ****         return;
 262:lvgl/src/lv_widgets/lv_label.c ****     }
 263:lvgl/src/lv_widgets/lv_label.c **** 
 264:lvgl/src/lv_widgets/lv_label.c ****     if(ext->text != NULL && ext->static_txt == 0) {
 265:lvgl/src/lv_widgets/lv_label.c ****         lv_mem_free(ext->text);
 266:lvgl/src/lv_widgets/lv_label.c ****         ext->text = NULL;
 267:lvgl/src/lv_widgets/lv_label.c ****     }
 268:lvgl/src/lv_widgets/lv_label.c **** 
 269:lvgl/src/lv_widgets/lv_label.c ****     va_list args;
 270:lvgl/src/lv_widgets/lv_label.c ****     va_start(args, fmt);
 271:lvgl/src/lv_widgets/lv_label.c ****     ext->text = _lv_txt_set_text_vfmt(fmt, args);
 272:lvgl/src/lv_widgets/lv_label.c ****     va_end(args);
 273:lvgl/src/lv_widgets/lv_label.c ****     ext->static_txt = 0; /*Now the text is dynamically allocated*/
 274:lvgl/src/lv_widgets/lv_label.c **** 
 275:lvgl/src/lv_widgets/lv_label.c ****     lv_label_refr_text(label);
 276:lvgl/src/lv_widgets/lv_label.c **** }
 277:lvgl/src/lv_widgets/lv_label.c **** 
 278:lvgl/src/lv_widgets/lv_label.c **** /**
 279:lvgl/src/lv_widgets/lv_label.c ****  * Set a static text. It will not be saved by the label so the 'text' variable
 280:lvgl/src/lv_widgets/lv_label.c ****  * has to be 'alive' while the label exist.
 281:lvgl/src/lv_widgets/lv_label.c ****  * @param label pointer to a label object
 282:lvgl/src/lv_widgets/lv_label.c ****  * @param text pointer to a text. NULL to refresh with the current text.
 283:lvgl/src/lv_widgets/lv_label.c ****  */
 284:lvgl/src/lv_widgets/lv_label.c **** void lv_label_set_text_static(lv_obj_t * label, const char * text)
 285:lvgl/src/lv_widgets/lv_label.c **** {
 286:lvgl/src/lv_widgets/lv_label.c ****     LV_ASSERT_OBJ(label, LV_OBJX_NAME);
 287:lvgl/src/lv_widgets/lv_label.c **** 
 288:lvgl/src/lv_widgets/lv_label.c ****     lv_label_ext_t * ext = lv_obj_get_ext_attr(label);
 289:lvgl/src/lv_widgets/lv_label.c ****     if(ext->static_txt == 0 && ext->text != NULL) {
 290:lvgl/src/lv_widgets/lv_label.c ****         lv_mem_free(ext->text);
 291:lvgl/src/lv_widgets/lv_label.c ****         ext->text = NULL;
 292:lvgl/src/lv_widgets/lv_label.c ****     }
 293:lvgl/src/lv_widgets/lv_label.c **** 
 294:lvgl/src/lv_widgets/lv_label.c ****     if(text != NULL) {
 295:lvgl/src/lv_widgets/lv_label.c ****         ext->static_txt = 1;
 296:lvgl/src/lv_widgets/lv_label.c ****         ext->text       = (char *)text;
 297:lvgl/src/lv_widgets/lv_label.c ****     }
 298:lvgl/src/lv_widgets/lv_label.c **** 
 299:lvgl/src/lv_widgets/lv_label.c ****     lv_label_refr_text(label);
 300:lvgl/src/lv_widgets/lv_label.c **** }
 301:lvgl/src/lv_widgets/lv_label.c **** 
 302:lvgl/src/lv_widgets/lv_label.c **** /**
 303:lvgl/src/lv_widgets/lv_label.c ****  * Set the behavior of the label with longer text then the object size
 304:lvgl/src/lv_widgets/lv_label.c ****  * @param label pointer to a label object
 305:lvgl/src/lv_widgets/lv_label.c ****  * @param long_mode the new mode from 'lv_label_long_mode' enum.
 306:lvgl/src/lv_widgets/lv_label.c ****  *                  In LV_LONG_BREAK/LONG/ROLL the size of the label should be set AFTER this
 307:lvgl/src/lv_widgets/lv_label.c ****  * function
 308:lvgl/src/lv_widgets/lv_label.c ****  */
 309:lvgl/src/lv_widgets/lv_label.c **** void lv_label_set_long_mode(lv_obj_t * label, lv_label_long_mode_t long_mode)
 310:lvgl/src/lv_widgets/lv_label.c **** {
 311:lvgl/src/lv_widgets/lv_label.c ****     LV_ASSERT_OBJ(label, LV_OBJX_NAME);
 312:lvgl/src/lv_widgets/lv_label.c **** 
 313:lvgl/src/lv_widgets/lv_label.c ****     lv_label_ext_t * ext = lv_obj_get_ext_attr(label);
 314:lvgl/src/lv_widgets/lv_label.c **** 
 315:lvgl/src/lv_widgets/lv_label.c **** #if LV_USE_ANIMATION
ARM GAS  D:\Temp\cclLOIfg.s 			page 7


 316:lvgl/src/lv_widgets/lv_label.c ****     /*Delete the old animation (if exists)*/
 317:lvgl/src/lv_widgets/lv_label.c ****     lv_anim_del(label, (lv_anim_exec_xcb_t)lv_obj_set_x);
 318:lvgl/src/lv_widgets/lv_label.c ****     lv_anim_del(label, (lv_anim_exec_xcb_t)lv_obj_set_y);
 319:lvgl/src/lv_widgets/lv_label.c ****     lv_anim_del(label, (lv_anim_exec_xcb_t)lv_label_set_offset_x);
 320:lvgl/src/lv_widgets/lv_label.c ****     lv_anim_del(label, (lv_anim_exec_xcb_t)lv_label_set_offset_y);
 321:lvgl/src/lv_widgets/lv_label.c **** #endif
 322:lvgl/src/lv_widgets/lv_label.c ****     ext->offset.x = 0;
 323:lvgl/src/lv_widgets/lv_label.c ****     ext->offset.y = 0;
 324:lvgl/src/lv_widgets/lv_label.c **** 
 325:lvgl/src/lv_widgets/lv_label.c ****     if(long_mode == LV_LABEL_LONG_SROLL || long_mode == LV_LABEL_LONG_SROLL_CIRC || long_mode == LV
 326:lvgl/src/lv_widgets/lv_label.c ****         ext->expand = 1;
 327:lvgl/src/lv_widgets/lv_label.c ****     else
 328:lvgl/src/lv_widgets/lv_label.c ****         ext->expand = 0;
 329:lvgl/src/lv_widgets/lv_label.c **** 
 330:lvgl/src/lv_widgets/lv_label.c ****     /*Restore the character under the dots*/
 331:lvgl/src/lv_widgets/lv_label.c ****     if(ext->long_mode == LV_LABEL_LONG_DOT && ext->dot_end != LV_LABEL_DOT_END_INV) {
 332:lvgl/src/lv_widgets/lv_label.c ****         lv_label_revert_dots(label);
 333:lvgl/src/lv_widgets/lv_label.c ****     }
 334:lvgl/src/lv_widgets/lv_label.c **** 
 335:lvgl/src/lv_widgets/lv_label.c ****     ext->long_mode = long_mode;
 336:lvgl/src/lv_widgets/lv_label.c ****     lv_label_refr_text(label);
 337:lvgl/src/lv_widgets/lv_label.c **** }
 338:lvgl/src/lv_widgets/lv_label.c **** 
 339:lvgl/src/lv_widgets/lv_label.c **** /**
 340:lvgl/src/lv_widgets/lv_label.c ****  * Set the align of the label (left or center)
 341:lvgl/src/lv_widgets/lv_label.c ****  * @param label pointer to a label object
 342:lvgl/src/lv_widgets/lv_label.c ****  * @param align 'LV_LABEL_ALIGN_LEFT' or 'LV_LABEL_ALIGN_LEFT'
 343:lvgl/src/lv_widgets/lv_label.c ****  */
 344:lvgl/src/lv_widgets/lv_label.c **** void lv_label_set_align(lv_obj_t * label, lv_label_align_t align)
 345:lvgl/src/lv_widgets/lv_label.c **** {
 346:lvgl/src/lv_widgets/lv_label.c ****     LV_ASSERT_OBJ(label, LV_OBJX_NAME);
 347:lvgl/src/lv_widgets/lv_label.c **** 
 348:lvgl/src/lv_widgets/lv_label.c ****     lv_label_ext_t * ext = lv_obj_get_ext_attr(label);
 349:lvgl/src/lv_widgets/lv_label.c ****     if(ext->align == align) return;
 350:lvgl/src/lv_widgets/lv_label.c **** 
 351:lvgl/src/lv_widgets/lv_label.c ****     ext->align = align;
 352:lvgl/src/lv_widgets/lv_label.c **** 
 353:lvgl/src/lv_widgets/lv_label.c ****     lv_obj_invalidate(label); /*Enough to invalidate because alignment is only drawing related
 354:lvgl/src/lv_widgets/lv_label.c ****                                  (lv_refr_label_text() not required)*/
 355:lvgl/src/lv_widgets/lv_label.c **** }
 356:lvgl/src/lv_widgets/lv_label.c **** 
 357:lvgl/src/lv_widgets/lv_label.c **** /**
 358:lvgl/src/lv_widgets/lv_label.c ****  * Enable the recoloring by in-line commands
 359:lvgl/src/lv_widgets/lv_label.c ****  * @param label pointer to a label object
 360:lvgl/src/lv_widgets/lv_label.c ****  * @param en true: enable recoloring, false: disable
 361:lvgl/src/lv_widgets/lv_label.c ****  */
 362:lvgl/src/lv_widgets/lv_label.c **** void lv_label_set_recolor(lv_obj_t * label, bool en)
 363:lvgl/src/lv_widgets/lv_label.c **** {
 364:lvgl/src/lv_widgets/lv_label.c ****     LV_ASSERT_OBJ(label, LV_OBJX_NAME);
 365:lvgl/src/lv_widgets/lv_label.c **** 
 366:lvgl/src/lv_widgets/lv_label.c ****     lv_label_ext_t * ext = lv_obj_get_ext_attr(label);
 367:lvgl/src/lv_widgets/lv_label.c ****     if(ext->recolor == en) return;
 368:lvgl/src/lv_widgets/lv_label.c **** 
 369:lvgl/src/lv_widgets/lv_label.c ****     ext->recolor = en == false ? 0 : 1;
 370:lvgl/src/lv_widgets/lv_label.c **** 
 371:lvgl/src/lv_widgets/lv_label.c ****     lv_label_refr_text(label); /*Refresh the text because the potential color codes in text needs t
 372:lvgl/src/lv_widgets/lv_label.c ****                                   be hidden or revealed*/
ARM GAS  D:\Temp\cclLOIfg.s 			page 8


 373:lvgl/src/lv_widgets/lv_label.c **** }
 374:lvgl/src/lv_widgets/lv_label.c **** 
 375:lvgl/src/lv_widgets/lv_label.c **** /**
 376:lvgl/src/lv_widgets/lv_label.c ****  * Set the label's animation speed in LV_LABEL_LONG_SROLL/SROLL_CIRC modes
 377:lvgl/src/lv_widgets/lv_label.c ****  * @param label pointer to a label object
 378:lvgl/src/lv_widgets/lv_label.c ****  * @param anim_speed speed of animation in px/sec unit
 379:lvgl/src/lv_widgets/lv_label.c ****  */
 380:lvgl/src/lv_widgets/lv_label.c **** void lv_label_set_anim_speed(lv_obj_t * label, uint16_t anim_speed)
 381:lvgl/src/lv_widgets/lv_label.c **** {
 382:lvgl/src/lv_widgets/lv_label.c ****     LV_ASSERT_OBJ(label, LV_OBJX_NAME);
 383:lvgl/src/lv_widgets/lv_label.c **** 
 384:lvgl/src/lv_widgets/lv_label.c **** #if LV_USE_ANIMATION
 385:lvgl/src/lv_widgets/lv_label.c ****     lv_label_ext_t * ext = lv_obj_get_ext_attr(label);
 386:lvgl/src/lv_widgets/lv_label.c ****     if(ext->anim_speed == anim_speed) return;
 387:lvgl/src/lv_widgets/lv_label.c **** 
 388:lvgl/src/lv_widgets/lv_label.c ****     ext->anim_speed = anim_speed;
 389:lvgl/src/lv_widgets/lv_label.c **** 
 390:lvgl/src/lv_widgets/lv_label.c ****     if(ext->long_mode == LV_LABEL_LONG_SROLL || ext->long_mode == LV_LABEL_LONG_SROLL_CIRC) {
 391:lvgl/src/lv_widgets/lv_label.c ****         lv_label_refr_text(label);
 392:lvgl/src/lv_widgets/lv_label.c ****     }
 393:lvgl/src/lv_widgets/lv_label.c **** #else
 394:lvgl/src/lv_widgets/lv_label.c ****     (void)label;      /*Unused*/
 395:lvgl/src/lv_widgets/lv_label.c ****     (void)anim_speed; /*Unused*/
 396:lvgl/src/lv_widgets/lv_label.c **** #endif
 397:lvgl/src/lv_widgets/lv_label.c **** }
 398:lvgl/src/lv_widgets/lv_label.c **** 
 399:lvgl/src/lv_widgets/lv_label.c **** void lv_label_set_text_sel_start(lv_obj_t * label, uint32_t index)
 400:lvgl/src/lv_widgets/lv_label.c **** {
 401:lvgl/src/lv_widgets/lv_label.c ****     LV_ASSERT_OBJ(label, LV_OBJX_NAME);
 402:lvgl/src/lv_widgets/lv_label.c **** 
 403:lvgl/src/lv_widgets/lv_label.c **** #if LV_LABEL_TEXT_SEL
 404:lvgl/src/lv_widgets/lv_label.c ****     lv_label_ext_t * ext = lv_obj_get_ext_attr(label);
 405:lvgl/src/lv_widgets/lv_label.c ****     ext->sel_start   = index;
 406:lvgl/src/lv_widgets/lv_label.c ****     lv_obj_invalidate(label);
 407:lvgl/src/lv_widgets/lv_label.c **** #else
 408:lvgl/src/lv_widgets/lv_label.c ****     (void)label;    /*Unused*/
 409:lvgl/src/lv_widgets/lv_label.c ****     (void)index;    /*Unused*/
 410:lvgl/src/lv_widgets/lv_label.c **** #endif
 411:lvgl/src/lv_widgets/lv_label.c **** }
 412:lvgl/src/lv_widgets/lv_label.c **** 
 413:lvgl/src/lv_widgets/lv_label.c **** void lv_label_set_text_sel_end(lv_obj_t * label, uint32_t index)
 414:lvgl/src/lv_widgets/lv_label.c **** {
 415:lvgl/src/lv_widgets/lv_label.c ****     LV_ASSERT_OBJ(label, LV_OBJX_NAME);
 416:lvgl/src/lv_widgets/lv_label.c **** 
 417:lvgl/src/lv_widgets/lv_label.c **** #if LV_LABEL_TEXT_SEL
 418:lvgl/src/lv_widgets/lv_label.c ****     lv_label_ext_t * ext = lv_obj_get_ext_attr(label);
 419:lvgl/src/lv_widgets/lv_label.c ****     ext->sel_end     = index;
 420:lvgl/src/lv_widgets/lv_label.c ****     lv_obj_invalidate(label);
 421:lvgl/src/lv_widgets/lv_label.c **** #else
 422:lvgl/src/lv_widgets/lv_label.c ****     (void)label;    /*Unused*/
 423:lvgl/src/lv_widgets/lv_label.c ****     (void)index;    /*Unused*/
 424:lvgl/src/lv_widgets/lv_label.c **** #endif
 425:lvgl/src/lv_widgets/lv_label.c **** }
 426:lvgl/src/lv_widgets/lv_label.c **** 
 427:lvgl/src/lv_widgets/lv_label.c **** /*=====================
 428:lvgl/src/lv_widgets/lv_label.c ****  * Getter functions
 429:lvgl/src/lv_widgets/lv_label.c ****  *====================*/
ARM GAS  D:\Temp\cclLOIfg.s 			page 9


 430:lvgl/src/lv_widgets/lv_label.c **** 
 431:lvgl/src/lv_widgets/lv_label.c **** /**
 432:lvgl/src/lv_widgets/lv_label.c ****  * Get the text of a label
 433:lvgl/src/lv_widgets/lv_label.c ****  * @param label pointer to a label object
 434:lvgl/src/lv_widgets/lv_label.c ****  * @return the text of the label
 435:lvgl/src/lv_widgets/lv_label.c ****  */
 436:lvgl/src/lv_widgets/lv_label.c **** char * lv_label_get_text(const lv_obj_t * label)
 437:lvgl/src/lv_widgets/lv_label.c **** {
 438:lvgl/src/lv_widgets/lv_label.c ****     LV_ASSERT_OBJ(label, LV_OBJX_NAME);
 439:lvgl/src/lv_widgets/lv_label.c **** 
 440:lvgl/src/lv_widgets/lv_label.c ****     lv_label_ext_t * ext = lv_obj_get_ext_attr(label);
 441:lvgl/src/lv_widgets/lv_label.c **** 
 442:lvgl/src/lv_widgets/lv_label.c ****     return ext->text;
 443:lvgl/src/lv_widgets/lv_label.c **** }
 444:lvgl/src/lv_widgets/lv_label.c **** 
 445:lvgl/src/lv_widgets/lv_label.c **** /**
 446:lvgl/src/lv_widgets/lv_label.c ****  * Get the long mode of a label
 447:lvgl/src/lv_widgets/lv_label.c ****  * @param label pointer to a label object
 448:lvgl/src/lv_widgets/lv_label.c ****  * @return the long mode
 449:lvgl/src/lv_widgets/lv_label.c ****  */
 450:lvgl/src/lv_widgets/lv_label.c **** lv_label_long_mode_t lv_label_get_long_mode(const lv_obj_t * label)
 451:lvgl/src/lv_widgets/lv_label.c **** {
 452:lvgl/src/lv_widgets/lv_label.c ****     LV_ASSERT_OBJ(label, LV_OBJX_NAME);
 453:lvgl/src/lv_widgets/lv_label.c **** 
 454:lvgl/src/lv_widgets/lv_label.c ****     lv_label_ext_t * ext = lv_obj_get_ext_attr(label);
 455:lvgl/src/lv_widgets/lv_label.c ****     return ext->long_mode;
 456:lvgl/src/lv_widgets/lv_label.c **** }
 457:lvgl/src/lv_widgets/lv_label.c **** 
 458:lvgl/src/lv_widgets/lv_label.c **** /**
 459:lvgl/src/lv_widgets/lv_label.c ****  * Get the align attribute
 460:lvgl/src/lv_widgets/lv_label.c ****  * @param label pointer to a label object
 461:lvgl/src/lv_widgets/lv_label.c ****  * @return LV_LABEL_ALIGN_LEFT or LV_LABEL_ALIGN_CENTER
 462:lvgl/src/lv_widgets/lv_label.c ****  */
 463:lvgl/src/lv_widgets/lv_label.c **** lv_label_align_t lv_label_get_align(const lv_obj_t * label)
 464:lvgl/src/lv_widgets/lv_label.c **** {
 465:lvgl/src/lv_widgets/lv_label.c ****     LV_ASSERT_OBJ(label, LV_OBJX_NAME);
 466:lvgl/src/lv_widgets/lv_label.c **** 
 467:lvgl/src/lv_widgets/lv_label.c ****     lv_label_ext_t * ext = lv_obj_get_ext_attr(label);
 468:lvgl/src/lv_widgets/lv_label.c **** 
 469:lvgl/src/lv_widgets/lv_label.c ****     lv_label_align_t align = ext->align;
 470:lvgl/src/lv_widgets/lv_label.c **** 
 471:lvgl/src/lv_widgets/lv_label.c ****     if(align == LV_LABEL_ALIGN_AUTO) {
 472:lvgl/src/lv_widgets/lv_label.c **** #if LV_USE_BIDI
 473:lvgl/src/lv_widgets/lv_label.c ****         lv_bidi_dir_t base_dir = lv_obj_get_base_dir(label);
 474:lvgl/src/lv_widgets/lv_label.c ****         if(base_dir == LV_BIDI_DIR_AUTO) base_dir = _lv_bidi_detect_base_dir(ext->text);
 475:lvgl/src/lv_widgets/lv_label.c **** 
 476:lvgl/src/lv_widgets/lv_label.c ****         if(base_dir == LV_BIDI_DIR_LTR) align = LV_LABEL_ALIGN_LEFT;
 477:lvgl/src/lv_widgets/lv_label.c ****         else if(base_dir == LV_BIDI_DIR_RTL) align = LV_LABEL_ALIGN_RIGHT;
 478:lvgl/src/lv_widgets/lv_label.c **** #else
 479:lvgl/src/lv_widgets/lv_label.c ****         align = LV_LABEL_ALIGN_LEFT;
 480:lvgl/src/lv_widgets/lv_label.c **** #endif
 481:lvgl/src/lv_widgets/lv_label.c ****     }
 482:lvgl/src/lv_widgets/lv_label.c **** 
 483:lvgl/src/lv_widgets/lv_label.c ****     return align;
 484:lvgl/src/lv_widgets/lv_label.c **** }
 485:lvgl/src/lv_widgets/lv_label.c **** 
 486:lvgl/src/lv_widgets/lv_label.c **** /**
ARM GAS  D:\Temp\cclLOIfg.s 			page 10


 487:lvgl/src/lv_widgets/lv_label.c ****  * Get the recoloring attribute
 488:lvgl/src/lv_widgets/lv_label.c ****  * @param label pointer to a label object
 489:lvgl/src/lv_widgets/lv_label.c ****  * @return true: recoloring is enabled, false: disable
 490:lvgl/src/lv_widgets/lv_label.c ****  */
 491:lvgl/src/lv_widgets/lv_label.c **** bool lv_label_get_recolor(const lv_obj_t * label)
 492:lvgl/src/lv_widgets/lv_label.c **** {
 493:lvgl/src/lv_widgets/lv_label.c ****     LV_ASSERT_OBJ(label, LV_OBJX_NAME);
 494:lvgl/src/lv_widgets/lv_label.c **** 
 495:lvgl/src/lv_widgets/lv_label.c ****     lv_label_ext_t * ext = lv_obj_get_ext_attr(label);
 496:lvgl/src/lv_widgets/lv_label.c ****     return ext->recolor == 0 ? false : true;
 497:lvgl/src/lv_widgets/lv_label.c **** }
 498:lvgl/src/lv_widgets/lv_label.c **** 
 499:lvgl/src/lv_widgets/lv_label.c **** /**
 500:lvgl/src/lv_widgets/lv_label.c ****  * Get the label's animation speed in LV_LABEL_LONG_ROLL and SCROLL modes
 501:lvgl/src/lv_widgets/lv_label.c ****  * @param label pointer to a label object
 502:lvgl/src/lv_widgets/lv_label.c ****  * @return speed of animation in px/sec unit
 503:lvgl/src/lv_widgets/lv_label.c ****  */
 504:lvgl/src/lv_widgets/lv_label.c **** uint16_t lv_label_get_anim_speed(const lv_obj_t * label)
 505:lvgl/src/lv_widgets/lv_label.c **** {
 506:lvgl/src/lv_widgets/lv_label.c ****     LV_ASSERT_OBJ(label, LV_OBJX_NAME);
 507:lvgl/src/lv_widgets/lv_label.c **** 
 508:lvgl/src/lv_widgets/lv_label.c **** #if LV_USE_ANIMATION
 509:lvgl/src/lv_widgets/lv_label.c ****     lv_label_ext_t * ext = lv_obj_get_ext_attr(label);
 510:lvgl/src/lv_widgets/lv_label.c ****     return ext->anim_speed;
 511:lvgl/src/lv_widgets/lv_label.c **** #else
 512:lvgl/src/lv_widgets/lv_label.c ****     (void)label;      /*Unused*/
 513:lvgl/src/lv_widgets/lv_label.c ****     return 0;
 514:lvgl/src/lv_widgets/lv_label.c **** #endif
 515:lvgl/src/lv_widgets/lv_label.c **** }
 516:lvgl/src/lv_widgets/lv_label.c **** 
 517:lvgl/src/lv_widgets/lv_label.c **** /**
 518:lvgl/src/lv_widgets/lv_label.c ****  * Get the relative x and y coordinates of a letter
 519:lvgl/src/lv_widgets/lv_label.c ****  * @param label pointer to a label object
 520:lvgl/src/lv_widgets/lv_label.c ****  * @param index index of the letter [0 ... text length]. Expressed in character index, not byte
 521:lvgl/src/lv_widgets/lv_label.c ****  * index (different in UTF-8)
 522:lvgl/src/lv_widgets/lv_label.c ****  * @param pos store the result here (E.g. index = 0 gives 0;0 coordinates)
 523:lvgl/src/lv_widgets/lv_label.c ****  */
 524:lvgl/src/lv_widgets/lv_label.c **** void lv_label_get_letter_pos(const lv_obj_t * label, uint32_t char_id, lv_point_t * pos)
 525:lvgl/src/lv_widgets/lv_label.c **** {
 526:lvgl/src/lv_widgets/lv_label.c ****     LV_ASSERT_OBJ(label, LV_OBJX_NAME);
 527:lvgl/src/lv_widgets/lv_label.c ****     LV_ASSERT_NULL(pos);
 528:lvgl/src/lv_widgets/lv_label.c **** 
 529:lvgl/src/lv_widgets/lv_label.c ****     const char * txt         = lv_label_get_text(label);
 530:lvgl/src/lv_widgets/lv_label.c ****     lv_label_align_t align = lv_label_get_align(label);
 531:lvgl/src/lv_widgets/lv_label.c **** 
 532:lvgl/src/lv_widgets/lv_label.c ****     if(txt[0] == '\0') {
 533:lvgl/src/lv_widgets/lv_label.c ****         pos->y = 0;
 534:lvgl/src/lv_widgets/lv_label.c ****         switch(align) {
 535:lvgl/src/lv_widgets/lv_label.c ****             case LV_LABEL_ALIGN_LEFT:
 536:lvgl/src/lv_widgets/lv_label.c ****                 pos->x = 0;
 537:lvgl/src/lv_widgets/lv_label.c ****                 break;
 538:lvgl/src/lv_widgets/lv_label.c ****             case LV_LABEL_ALIGN_RIGHT:
 539:lvgl/src/lv_widgets/lv_label.c ****                 pos->x = lv_obj_get_width(label);
 540:lvgl/src/lv_widgets/lv_label.c ****                 break;
 541:lvgl/src/lv_widgets/lv_label.c ****             case LV_LABEL_ALIGN_CENTER:
 542:lvgl/src/lv_widgets/lv_label.c ****                 pos->x = lv_obj_get_width(label) / 2;
 543:lvgl/src/lv_widgets/lv_label.c ****                 break;
ARM GAS  D:\Temp\cclLOIfg.s 			page 11


 544:lvgl/src/lv_widgets/lv_label.c ****         }
 545:lvgl/src/lv_widgets/lv_label.c ****         return;
 546:lvgl/src/lv_widgets/lv_label.c ****     }
 547:lvgl/src/lv_widgets/lv_label.c **** 
 548:lvgl/src/lv_widgets/lv_label.c ****     lv_area_t txt_coords;
 549:lvgl/src/lv_widgets/lv_label.c ****     get_txt_coords(label, &txt_coords);
 550:lvgl/src/lv_widgets/lv_label.c **** 
 551:lvgl/src/lv_widgets/lv_label.c ****     lv_label_ext_t * ext     = lv_obj_get_ext_attr(label);
 552:lvgl/src/lv_widgets/lv_label.c ****     uint32_t line_start      = 0;
 553:lvgl/src/lv_widgets/lv_label.c ****     uint32_t new_line_start  = 0;
 554:lvgl/src/lv_widgets/lv_label.c ****     lv_coord_t max_w         = lv_area_get_width(&txt_coords);
 555:lvgl/src/lv_widgets/lv_label.c ****     const lv_font_t * font   = lv_obj_get_style_text_font(label, LV_LABEL_PART_MAIN);
 556:lvgl/src/lv_widgets/lv_label.c ****     lv_style_int_t line_space = lv_obj_get_style_text_line_space(label, LV_LABEL_PART_MAIN);
 557:lvgl/src/lv_widgets/lv_label.c ****     lv_style_int_t letter_space = lv_obj_get_style_text_letter_space(label, LV_LABEL_PART_MAIN);
 558:lvgl/src/lv_widgets/lv_label.c ****     lv_coord_t letter_height    = lv_font_get_line_height(font);
 559:lvgl/src/lv_widgets/lv_label.c ****     lv_coord_t y             = 0;
 560:lvgl/src/lv_widgets/lv_label.c ****     lv_txt_flag_t flag       = LV_TXT_FLAG_NONE;
 561:lvgl/src/lv_widgets/lv_label.c **** 
 562:lvgl/src/lv_widgets/lv_label.c ****     if(ext->recolor != 0) flag |= LV_TXT_FLAG_RECOLOR;
 563:lvgl/src/lv_widgets/lv_label.c ****     if(ext->expand != 0) flag |= LV_TXT_FLAG_EXPAND;
 564:lvgl/src/lv_widgets/lv_label.c ****     if(ext->long_mode == LV_LABEL_LONG_EXPAND) flag |= LV_TXT_FLAG_FIT;
 565:lvgl/src/lv_widgets/lv_label.c **** 
 566:lvgl/src/lv_widgets/lv_label.c ****     if(align == LV_LABEL_ALIGN_CENTER) flag |= LV_TXT_FLAG_CENTER;
 567:lvgl/src/lv_widgets/lv_label.c ****     if(align == LV_LABEL_ALIGN_RIGHT) flag |= LV_TXT_FLAG_RIGHT;
 568:lvgl/src/lv_widgets/lv_label.c **** 
 569:lvgl/src/lv_widgets/lv_label.c ****     uint32_t byte_id = _lv_txt_encoded_get_byte_id(txt, char_id);
 570:lvgl/src/lv_widgets/lv_label.c **** 
 571:lvgl/src/lv_widgets/lv_label.c ****     /*Search the line of the index letter */;
 572:lvgl/src/lv_widgets/lv_label.c ****     while(txt[new_line_start] != '\0') {
 573:lvgl/src/lv_widgets/lv_label.c ****         new_line_start += _lv_txt_get_next_line(&txt[line_start], font, letter_space, max_w, flag);
 574:lvgl/src/lv_widgets/lv_label.c ****         if(byte_id < new_line_start || txt[new_line_start] == '\0')
 575:lvgl/src/lv_widgets/lv_label.c ****             break; /*The line of 'index' letter begins at 'line_start'*/
 576:lvgl/src/lv_widgets/lv_label.c **** 
 577:lvgl/src/lv_widgets/lv_label.c ****         y += letter_height + line_space;
 578:lvgl/src/lv_widgets/lv_label.c ****         line_start = new_line_start;
 579:lvgl/src/lv_widgets/lv_label.c ****     }
 580:lvgl/src/lv_widgets/lv_label.c **** 
 581:lvgl/src/lv_widgets/lv_label.c ****     /*If the last character is line break then go to the next line*/
 582:lvgl/src/lv_widgets/lv_label.c ****     if(byte_id > 0) {
 583:lvgl/src/lv_widgets/lv_label.c ****         if((txt[byte_id - 1] == '\n' || txt[byte_id - 1] == '\r') && txt[byte_id] == '\0') {
 584:lvgl/src/lv_widgets/lv_label.c ****             y += letter_height + line_space;
 585:lvgl/src/lv_widgets/lv_label.c ****             line_start = byte_id;
 586:lvgl/src/lv_widgets/lv_label.c ****         }
 587:lvgl/src/lv_widgets/lv_label.c ****     }
 588:lvgl/src/lv_widgets/lv_label.c **** 
 589:lvgl/src/lv_widgets/lv_label.c ****     const char * bidi_txt;
 590:lvgl/src/lv_widgets/lv_label.c ****     uint32_t visual_byte_pos;
 591:lvgl/src/lv_widgets/lv_label.c **** #if LV_USE_BIDI
 592:lvgl/src/lv_widgets/lv_label.c ****     char * mutable_bidi_txt = NULL;
 593:lvgl/src/lv_widgets/lv_label.c ****     /*Handle Bidi*/
 594:lvgl/src/lv_widgets/lv_label.c ****     if(new_line_start == byte_id) {
 595:lvgl/src/lv_widgets/lv_label.c ****         visual_byte_pos = byte_id - line_start;
 596:lvgl/src/lv_widgets/lv_label.c ****         bidi_txt =  &txt[line_start];
 597:lvgl/src/lv_widgets/lv_label.c ****     }
 598:lvgl/src/lv_widgets/lv_label.c ****     else {
 599:lvgl/src/lv_widgets/lv_label.c ****         uint32_t line_char_id = _lv_txt_encoded_get_char_id(&txt[line_start], byte_id - line_start)
 600:lvgl/src/lv_widgets/lv_label.c **** 
ARM GAS  D:\Temp\cclLOIfg.s 			page 12


 601:lvgl/src/lv_widgets/lv_label.c ****         bool is_rtl;
 602:lvgl/src/lv_widgets/lv_label.c ****         uint32_t visual_char_pos = _lv_bidi_get_visual_pos(&txt[line_start], &mutable_bidi_txt, new
 603:lvgl/src/lv_widgets/lv_label.c ****                                                            lv_obj_get_base_dir(label), line_char_id
 604:lvgl/src/lv_widgets/lv_label.c ****         bidi_txt = mutable_bidi_txt;
 605:lvgl/src/lv_widgets/lv_label.c ****         if(is_rtl) visual_char_pos++;
 606:lvgl/src/lv_widgets/lv_label.c **** 
 607:lvgl/src/lv_widgets/lv_label.c ****         visual_byte_pos = _lv_txt_encoded_get_byte_id(bidi_txt, visual_char_pos);
 608:lvgl/src/lv_widgets/lv_label.c ****     }
 609:lvgl/src/lv_widgets/lv_label.c **** #else
 610:lvgl/src/lv_widgets/lv_label.c ****     bidi_txt = &txt[line_start];
 611:lvgl/src/lv_widgets/lv_label.c ****     visual_byte_pos = byte_id - line_start;
 612:lvgl/src/lv_widgets/lv_label.c **** #endif
 613:lvgl/src/lv_widgets/lv_label.c **** 
 614:lvgl/src/lv_widgets/lv_label.c ****     /*Calculate the x coordinate*/
 615:lvgl/src/lv_widgets/lv_label.c ****     lv_coord_t x = _lv_txt_get_width(bidi_txt, visual_byte_pos, font, letter_space, flag);
 616:lvgl/src/lv_widgets/lv_label.c ****     if(char_id != line_start) x += letter_space;
 617:lvgl/src/lv_widgets/lv_label.c **** 
 618:lvgl/src/lv_widgets/lv_label.c ****     if(align == LV_LABEL_ALIGN_CENTER) {
 619:lvgl/src/lv_widgets/lv_label.c ****         lv_coord_t line_w;
 620:lvgl/src/lv_widgets/lv_label.c ****         line_w = _lv_txt_get_width(bidi_txt, new_line_start - line_start, font, letter_space, flag)
 621:lvgl/src/lv_widgets/lv_label.c ****         x += lv_area_get_width(&txt_coords) / 2 - line_w / 2;
 622:lvgl/src/lv_widgets/lv_label.c **** 
 623:lvgl/src/lv_widgets/lv_label.c ****     }
 624:lvgl/src/lv_widgets/lv_label.c ****     else if(align == LV_LABEL_ALIGN_RIGHT) {
 625:lvgl/src/lv_widgets/lv_label.c ****         lv_coord_t line_w;
 626:lvgl/src/lv_widgets/lv_label.c ****         line_w = _lv_txt_get_width(bidi_txt, new_line_start - line_start, font, letter_space, flag)
 627:lvgl/src/lv_widgets/lv_label.c **** 
 628:lvgl/src/lv_widgets/lv_label.c ****         x += lv_area_get_width(&txt_coords) - line_w;
 629:lvgl/src/lv_widgets/lv_label.c ****     }
 630:lvgl/src/lv_widgets/lv_label.c ****     pos->x = x;
 631:lvgl/src/lv_widgets/lv_label.c ****     pos->y = y;
 632:lvgl/src/lv_widgets/lv_label.c **** 
 633:lvgl/src/lv_widgets/lv_label.c **** #if LV_USE_BIDI
 634:lvgl/src/lv_widgets/lv_label.c ****     if(mutable_bidi_txt) _lv_mem_buf_release(mutable_bidi_txt);
 635:lvgl/src/lv_widgets/lv_label.c **** #endif
 636:lvgl/src/lv_widgets/lv_label.c **** }
 637:lvgl/src/lv_widgets/lv_label.c **** 
 638:lvgl/src/lv_widgets/lv_label.c **** /**
 639:lvgl/src/lv_widgets/lv_label.c ****  * Get the index of letter on a relative point of a label
 640:lvgl/src/lv_widgets/lv_label.c ****  * @param label pointer to label object
 641:lvgl/src/lv_widgets/lv_label.c ****  * @param pos pointer to point with coordinates on a the label
 642:lvgl/src/lv_widgets/lv_label.c ****  * @return the index of the letter on the 'pos_p' point (E.g. on 0;0 is the 0. letter)
 643:lvgl/src/lv_widgets/lv_label.c ****  * Expressed in character index and not byte index (different in UTF-8)
 644:lvgl/src/lv_widgets/lv_label.c ****  */
 645:lvgl/src/lv_widgets/lv_label.c **** uint32_t lv_label_get_letter_on(const lv_obj_t * label, lv_point_t * pos_in)
 646:lvgl/src/lv_widgets/lv_label.c **** {
 647:lvgl/src/lv_widgets/lv_label.c ****     LV_ASSERT_OBJ(label, LV_OBJX_NAME);
 648:lvgl/src/lv_widgets/lv_label.c ****     LV_ASSERT_NULL(pos_in);
 649:lvgl/src/lv_widgets/lv_label.c **** 
 650:lvgl/src/lv_widgets/lv_label.c ****     lv_point_t pos;
 651:lvgl/src/lv_widgets/lv_label.c ****     pos.x = pos_in->x - lv_obj_get_style_pad_left(label, LV_LABEL_PART_MAIN);
 652:lvgl/src/lv_widgets/lv_label.c ****     pos.y = pos_in->y - lv_obj_get_style_pad_top(label, LV_LABEL_PART_MAIN);
 653:lvgl/src/lv_widgets/lv_label.c **** 
 654:lvgl/src/lv_widgets/lv_label.c ****     lv_area_t txt_coords;
 655:lvgl/src/lv_widgets/lv_label.c ****     get_txt_coords(label, &txt_coords);
 656:lvgl/src/lv_widgets/lv_label.c ****     const char * txt         = lv_label_get_text(label);
 657:lvgl/src/lv_widgets/lv_label.c ****     lv_label_ext_t * ext     = lv_obj_get_ext_attr(label);
ARM GAS  D:\Temp\cclLOIfg.s 			page 13


 658:lvgl/src/lv_widgets/lv_label.c ****     uint32_t line_start      = 0;
 659:lvgl/src/lv_widgets/lv_label.c ****     uint32_t new_line_start  = 0;
 660:lvgl/src/lv_widgets/lv_label.c ****     lv_coord_t max_w         = lv_area_get_width(&txt_coords);
 661:lvgl/src/lv_widgets/lv_label.c ****     const lv_font_t * font   = lv_obj_get_style_text_font(label, LV_LABEL_PART_MAIN);
 662:lvgl/src/lv_widgets/lv_label.c ****     lv_style_int_t line_space = lv_obj_get_style_text_line_space(label, LV_LABEL_PART_MAIN);
 663:lvgl/src/lv_widgets/lv_label.c ****     lv_style_int_t letter_space = lv_obj_get_style_text_letter_space(label, LV_LABEL_PART_MAIN);
 664:lvgl/src/lv_widgets/lv_label.c ****     lv_coord_t letter_height    = lv_font_get_line_height(font);
 665:lvgl/src/lv_widgets/lv_label.c ****     lv_coord_t y             = 0;
 666:lvgl/src/lv_widgets/lv_label.c ****     lv_txt_flag_t flag       = LV_TXT_FLAG_NONE;
 667:lvgl/src/lv_widgets/lv_label.c ****     uint32_t logical_pos;
 668:lvgl/src/lv_widgets/lv_label.c ****     char * bidi_txt;
 669:lvgl/src/lv_widgets/lv_label.c **** 
 670:lvgl/src/lv_widgets/lv_label.c ****     if(ext->recolor != 0) flag |= LV_TXT_FLAG_RECOLOR;
 671:lvgl/src/lv_widgets/lv_label.c ****     if(ext->expand != 0) flag |= LV_TXT_FLAG_EXPAND;
 672:lvgl/src/lv_widgets/lv_label.c ****     if(ext->long_mode == LV_LABEL_LONG_EXPAND) flag |= LV_TXT_FLAG_FIT;
 673:lvgl/src/lv_widgets/lv_label.c **** 
 674:lvgl/src/lv_widgets/lv_label.c ****     lv_label_align_t align = lv_label_get_align(label);
 675:lvgl/src/lv_widgets/lv_label.c ****     if(align == LV_LABEL_ALIGN_CENTER) flag |= LV_TXT_FLAG_CENTER;
 676:lvgl/src/lv_widgets/lv_label.c ****     if(align == LV_LABEL_ALIGN_RIGHT) flag |= LV_TXT_FLAG_RIGHT;
 677:lvgl/src/lv_widgets/lv_label.c **** 
 678:lvgl/src/lv_widgets/lv_label.c ****     /*Search the line of the index letter */;
 679:lvgl/src/lv_widgets/lv_label.c ****     while(txt[line_start] != '\0') {
 680:lvgl/src/lv_widgets/lv_label.c ****         new_line_start += _lv_txt_get_next_line(&txt[line_start], font, letter_space, max_w, flag);
 681:lvgl/src/lv_widgets/lv_label.c **** 
 682:lvgl/src/lv_widgets/lv_label.c ****         if(pos.y <= y + letter_height) {
 683:lvgl/src/lv_widgets/lv_label.c ****             /*The line is found (stored in 'line_start')*/
 684:lvgl/src/lv_widgets/lv_label.c ****             /* Include the NULL terminator in the last line */
 685:lvgl/src/lv_widgets/lv_label.c ****             uint32_t tmp = new_line_start;
 686:lvgl/src/lv_widgets/lv_label.c ****             uint32_t letter;
 687:lvgl/src/lv_widgets/lv_label.c ****             letter = _lv_txt_encoded_prev(txt, &tmp);
 688:lvgl/src/lv_widgets/lv_label.c ****             if(letter != '\n' && txt[new_line_start] == '\0') new_line_start++;
 689:lvgl/src/lv_widgets/lv_label.c ****             break;
 690:lvgl/src/lv_widgets/lv_label.c ****         }
 691:lvgl/src/lv_widgets/lv_label.c ****         y += letter_height + line_space;
 692:lvgl/src/lv_widgets/lv_label.c **** 
 693:lvgl/src/lv_widgets/lv_label.c ****         line_start = new_line_start;
 694:lvgl/src/lv_widgets/lv_label.c ****     }
 695:lvgl/src/lv_widgets/lv_label.c **** 
 696:lvgl/src/lv_widgets/lv_label.c **** #if LV_USE_BIDI
 697:lvgl/src/lv_widgets/lv_label.c ****     bidi_txt = _lv_mem_buf_get(new_line_start - line_start + 1);
 698:lvgl/src/lv_widgets/lv_label.c ****     uint32_t txt_len = new_line_start - line_start;
 699:lvgl/src/lv_widgets/lv_label.c ****     if(new_line_start > 0 && txt[new_line_start - 1] == '\0' && txt_len > 0) txt_len--;
 700:lvgl/src/lv_widgets/lv_label.c ****     _lv_bidi_process_paragraph(txt + line_start, bidi_txt, txt_len, lv_obj_get_base_dir(label), NUL
 701:lvgl/src/lv_widgets/lv_label.c **** #else
 702:lvgl/src/lv_widgets/lv_label.c ****     bidi_txt = (char *)txt + line_start;
 703:lvgl/src/lv_widgets/lv_label.c **** #endif
 704:lvgl/src/lv_widgets/lv_label.c **** 
 705:lvgl/src/lv_widgets/lv_label.c ****     /*Calculate the x coordinate*/
 706:lvgl/src/lv_widgets/lv_label.c ****     lv_coord_t x = 0;
 707:lvgl/src/lv_widgets/lv_label.c ****     if(align == LV_LABEL_ALIGN_CENTER) {
 708:lvgl/src/lv_widgets/lv_label.c ****         lv_coord_t line_w;
 709:lvgl/src/lv_widgets/lv_label.c ****         line_w = _lv_txt_get_width(bidi_txt, new_line_start - line_start, font, letter_space, flag)
 710:lvgl/src/lv_widgets/lv_label.c ****         x += lv_area_get_width(&txt_coords) / 2 - line_w / 2;
 711:lvgl/src/lv_widgets/lv_label.c ****     }
 712:lvgl/src/lv_widgets/lv_label.c ****     else if(align == LV_LABEL_ALIGN_RIGHT) {
 713:lvgl/src/lv_widgets/lv_label.c ****         lv_coord_t line_w;
 714:lvgl/src/lv_widgets/lv_label.c ****         line_w = _lv_txt_get_width(bidi_txt, new_line_start - line_start, font, letter_space, flag)
ARM GAS  D:\Temp\cclLOIfg.s 			page 14


 715:lvgl/src/lv_widgets/lv_label.c ****         x += lv_area_get_width(&txt_coords) - line_w;
 716:lvgl/src/lv_widgets/lv_label.c ****     }
 717:lvgl/src/lv_widgets/lv_label.c **** 
 718:lvgl/src/lv_widgets/lv_label.c ****     lv_txt_cmd_state_t cmd_state = LV_TXT_CMD_STATE_WAIT;
 719:lvgl/src/lv_widgets/lv_label.c **** 
 720:lvgl/src/lv_widgets/lv_label.c ****     uint32_t i = 0;
 721:lvgl/src/lv_widgets/lv_label.c ****     uint32_t i_act = i;
 722:lvgl/src/lv_widgets/lv_label.c **** 
 723:lvgl/src/lv_widgets/lv_label.c ****     if(new_line_start > 0) {
 724:lvgl/src/lv_widgets/lv_label.c ****         while(i + line_start < new_line_start) {
 725:lvgl/src/lv_widgets/lv_label.c ****             /* Get the current letter.*/
 726:lvgl/src/lv_widgets/lv_label.c ****             uint32_t letter = _lv_txt_encoded_next(bidi_txt, &i);
 727:lvgl/src/lv_widgets/lv_label.c **** 
 728:lvgl/src/lv_widgets/lv_label.c ****             /*Get the next letter too for kerning*/
 729:lvgl/src/lv_widgets/lv_label.c ****             uint32_t letter_next = _lv_txt_encoded_next(&bidi_txt[i], NULL);
 730:lvgl/src/lv_widgets/lv_label.c **** 
 731:lvgl/src/lv_widgets/lv_label.c ****             /*Handle the recolor command*/
 732:lvgl/src/lv_widgets/lv_label.c ****             if((flag & LV_TXT_FLAG_RECOLOR) != 0) {
 733:lvgl/src/lv_widgets/lv_label.c ****                 if(_lv_txt_is_cmd(&cmd_state, bidi_txt[i]) != false) {
 734:lvgl/src/lv_widgets/lv_label.c ****                     continue; /*Skip the letter is it is part of a command*/
 735:lvgl/src/lv_widgets/lv_label.c ****                 }
 736:lvgl/src/lv_widgets/lv_label.c ****             }
 737:lvgl/src/lv_widgets/lv_label.c **** 
 738:lvgl/src/lv_widgets/lv_label.c ****             lv_coord_t gw = lv_font_get_glyph_width(font, letter, letter_next);
 739:lvgl/src/lv_widgets/lv_label.c **** 
 740:lvgl/src/lv_widgets/lv_label.c ****             /*Finish if the x position or the last char of the next line is reached*/
 741:lvgl/src/lv_widgets/lv_label.c ****             if(pos.x < x + gw || i + line_start == new_line_start || txt[i_act + line_start] == '\0
 742:lvgl/src/lv_widgets/lv_label.c ****                 i = i_act;
 743:lvgl/src/lv_widgets/lv_label.c ****                 break;
 744:lvgl/src/lv_widgets/lv_label.c ****             }
 745:lvgl/src/lv_widgets/lv_label.c ****             x += gw;
 746:lvgl/src/lv_widgets/lv_label.c ****             x += letter_space;
 747:lvgl/src/lv_widgets/lv_label.c ****             i_act = i;
 748:lvgl/src/lv_widgets/lv_label.c ****         }
 749:lvgl/src/lv_widgets/lv_label.c ****     }
 750:lvgl/src/lv_widgets/lv_label.c **** 
 751:lvgl/src/lv_widgets/lv_label.c **** #if LV_USE_BIDI
 752:lvgl/src/lv_widgets/lv_label.c ****     /*Handle Bidi*/
 753:lvgl/src/lv_widgets/lv_label.c ****     uint32_t cid = _lv_txt_encoded_get_char_id(bidi_txt, i);
 754:lvgl/src/lv_widgets/lv_label.c ****     if(txt[line_start + cid] == '\0') {
 755:lvgl/src/lv_widgets/lv_label.c ****         logical_pos = i;
 756:lvgl/src/lv_widgets/lv_label.c ****     }
 757:lvgl/src/lv_widgets/lv_label.c ****     else {
 758:lvgl/src/lv_widgets/lv_label.c ****         bool is_rtl;
 759:lvgl/src/lv_widgets/lv_label.c ****         logical_pos = _lv_bidi_get_logical_pos(&txt[line_start], NULL,
 760:lvgl/src/lv_widgets/lv_label.c ****                                                txt_len, lv_obj_get_base_dir(label), cid, &is_rtl);
 761:lvgl/src/lv_widgets/lv_label.c ****         if(is_rtl) logical_pos++;
 762:lvgl/src/lv_widgets/lv_label.c ****         _lv_mem_buf_release(bidi_txt);
 763:lvgl/src/lv_widgets/lv_label.c ****     }
 764:lvgl/src/lv_widgets/lv_label.c **** #else
 765:lvgl/src/lv_widgets/lv_label.c ****     logical_pos = _lv_txt_encoded_get_char_id(bidi_txt, i);
 766:lvgl/src/lv_widgets/lv_label.c **** #endif
 767:lvgl/src/lv_widgets/lv_label.c **** 
 768:lvgl/src/lv_widgets/lv_label.c ****     return logical_pos + _lv_txt_encoded_get_char_id(txt, line_start);
 769:lvgl/src/lv_widgets/lv_label.c **** }
 770:lvgl/src/lv_widgets/lv_label.c **** 
 771:lvgl/src/lv_widgets/lv_label.c **** /**
ARM GAS  D:\Temp\cclLOIfg.s 			page 15


 772:lvgl/src/lv_widgets/lv_label.c ****  * @brief Get the selection start index.
 773:lvgl/src/lv_widgets/lv_label.c ****  * @param label pointer to a label object.
 774:lvgl/src/lv_widgets/lv_label.c ****  * @return selection start index. `LV_LABEL_TXT_SEL_OFF` if nothing is selected.
 775:lvgl/src/lv_widgets/lv_label.c ****  */
 776:lvgl/src/lv_widgets/lv_label.c **** uint32_t lv_label_get_text_sel_start(const lv_obj_t * label)
 777:lvgl/src/lv_widgets/lv_label.c **** {
 778:lvgl/src/lv_widgets/lv_label.c ****     LV_ASSERT_OBJ(label, LV_OBJX_NAME);
 779:lvgl/src/lv_widgets/lv_label.c **** 
 780:lvgl/src/lv_widgets/lv_label.c **** #if LV_LABEL_TEXT_SEL
 781:lvgl/src/lv_widgets/lv_label.c ****     lv_label_ext_t * ext = lv_obj_get_ext_attr(label);
 782:lvgl/src/lv_widgets/lv_label.c ****     return ext->sel_start;
 783:lvgl/src/lv_widgets/lv_label.c **** 
 784:lvgl/src/lv_widgets/lv_label.c **** #else
 785:lvgl/src/lv_widgets/lv_label.c ****     (void)label;    /*Unused*/
 786:lvgl/src/lv_widgets/lv_label.c ****     return LV_LABEL_TEXT_SEL_OFF;
 787:lvgl/src/lv_widgets/lv_label.c **** #endif
 788:lvgl/src/lv_widgets/lv_label.c **** }
 789:lvgl/src/lv_widgets/lv_label.c **** 
 790:lvgl/src/lv_widgets/lv_label.c **** /**
 791:lvgl/src/lv_widgets/lv_label.c ****  * @brief Get the selection end index.
 792:lvgl/src/lv_widgets/lv_label.c ****  * @param label pointer to a label object.
 793:lvgl/src/lv_widgets/lv_label.c ****  * @return selection end index. `LV_LABEL_TXT_SEL_OFF` if nothing is selected.
 794:lvgl/src/lv_widgets/lv_label.c ****  */
 795:lvgl/src/lv_widgets/lv_label.c **** uint32_t lv_label_get_text_sel_end(const lv_obj_t * label)
 796:lvgl/src/lv_widgets/lv_label.c **** {
 797:lvgl/src/lv_widgets/lv_label.c ****     LV_ASSERT_OBJ(label, LV_OBJX_NAME);
 798:lvgl/src/lv_widgets/lv_label.c **** 
 799:lvgl/src/lv_widgets/lv_label.c **** #if LV_LABEL_TEXT_SEL
 800:lvgl/src/lv_widgets/lv_label.c ****     lv_label_ext_t * ext = lv_obj_get_ext_attr(label);
 801:lvgl/src/lv_widgets/lv_label.c ****     return ext->sel_end;
 802:lvgl/src/lv_widgets/lv_label.c **** #else
 803:lvgl/src/lv_widgets/lv_label.c ****     (void)label; /*Unused*/
 804:lvgl/src/lv_widgets/lv_label.c ****     return LV_LABEL_TEXT_SEL_OFF;
 805:lvgl/src/lv_widgets/lv_label.c **** #endif
 806:lvgl/src/lv_widgets/lv_label.c **** }
 807:lvgl/src/lv_widgets/lv_label.c **** 
 808:lvgl/src/lv_widgets/lv_label.c **** /**
 809:lvgl/src/lv_widgets/lv_label.c ****  * Check if a character is drawn under a point.
 810:lvgl/src/lv_widgets/lv_label.c ****  * @param label Label object
 811:lvgl/src/lv_widgets/lv_label.c ****  * @param pos Point to check for character under
 812:lvgl/src/lv_widgets/lv_label.c ****  * @return whether a character is drawn under the point
 813:lvgl/src/lv_widgets/lv_label.c ****  */
 814:lvgl/src/lv_widgets/lv_label.c **** bool lv_label_is_char_under_pos(const lv_obj_t * label, lv_point_t * pos)
 815:lvgl/src/lv_widgets/lv_label.c **** {
 816:lvgl/src/lv_widgets/lv_label.c ****     LV_ASSERT_OBJ(label, LV_OBJX_NAME);
 817:lvgl/src/lv_widgets/lv_label.c ****     LV_ASSERT_NULL(pos);
 818:lvgl/src/lv_widgets/lv_label.c **** 
 819:lvgl/src/lv_widgets/lv_label.c ****     lv_area_t txt_coords;
 820:lvgl/src/lv_widgets/lv_label.c ****     get_txt_coords(label, &txt_coords);
 821:lvgl/src/lv_widgets/lv_label.c ****     const char * txt         = lv_label_get_text(label);
 822:lvgl/src/lv_widgets/lv_label.c ****     lv_label_ext_t * ext     = lv_obj_get_ext_attr(label);
 823:lvgl/src/lv_widgets/lv_label.c ****     uint32_t line_start      = 0;
 824:lvgl/src/lv_widgets/lv_label.c ****     uint32_t new_line_start  = 0;
 825:lvgl/src/lv_widgets/lv_label.c ****     lv_coord_t max_w         = lv_area_get_width(&txt_coords);
 826:lvgl/src/lv_widgets/lv_label.c ****     const lv_font_t * font   = lv_obj_get_style_text_font(label, LV_LABEL_PART_MAIN);
 827:lvgl/src/lv_widgets/lv_label.c ****     lv_style_int_t line_space = lv_obj_get_style_text_line_space(label, LV_LABEL_PART_MAIN);
 828:lvgl/src/lv_widgets/lv_label.c ****     lv_style_int_t letter_space = lv_obj_get_style_text_letter_space(label, LV_LABEL_PART_MAIN);
ARM GAS  D:\Temp\cclLOIfg.s 			page 16


 829:lvgl/src/lv_widgets/lv_label.c ****     lv_coord_t letter_height    = lv_font_get_line_height(font);
 830:lvgl/src/lv_widgets/lv_label.c ****     lv_coord_t y             = 0;
 831:lvgl/src/lv_widgets/lv_label.c ****     lv_txt_flag_t flag       = LV_TXT_FLAG_NONE;
 832:lvgl/src/lv_widgets/lv_label.c ****     lv_label_align_t align = lv_label_get_align(label);
 833:lvgl/src/lv_widgets/lv_label.c **** 
 834:lvgl/src/lv_widgets/lv_label.c ****     if(ext->recolor != 0) flag |= LV_TXT_FLAG_RECOLOR;
 835:lvgl/src/lv_widgets/lv_label.c ****     if(ext->expand != 0) flag |= LV_TXT_FLAG_EXPAND;
 836:lvgl/src/lv_widgets/lv_label.c ****     if(ext->long_mode == LV_LABEL_LONG_EXPAND) flag |= LV_TXT_FLAG_FIT;
 837:lvgl/src/lv_widgets/lv_label.c ****     if(align == LV_LABEL_ALIGN_CENTER) flag |= LV_TXT_FLAG_CENTER;
 838:lvgl/src/lv_widgets/lv_label.c **** 
 839:lvgl/src/lv_widgets/lv_label.c ****     /*Search the line of the index letter */;
 840:lvgl/src/lv_widgets/lv_label.c ****     while(txt[line_start] != '\0') {
 841:lvgl/src/lv_widgets/lv_label.c ****         new_line_start += _lv_txt_get_next_line(&txt[line_start], font, letter_space, max_w, flag);
 842:lvgl/src/lv_widgets/lv_label.c **** 
 843:lvgl/src/lv_widgets/lv_label.c ****         if(pos->y <= y + letter_height) break; /*The line is found (stored in 'line_start')*/
 844:lvgl/src/lv_widgets/lv_label.c ****         y += letter_height + line_space;
 845:lvgl/src/lv_widgets/lv_label.c **** 
 846:lvgl/src/lv_widgets/lv_label.c ****         line_start = new_line_start;
 847:lvgl/src/lv_widgets/lv_label.c ****     }
 848:lvgl/src/lv_widgets/lv_label.c **** 
 849:lvgl/src/lv_widgets/lv_label.c ****     /*Calculate the x coordinate*/
 850:lvgl/src/lv_widgets/lv_label.c ****     lv_coord_t x      = 0;
 851:lvgl/src/lv_widgets/lv_label.c ****     lv_coord_t last_x = 0;
 852:lvgl/src/lv_widgets/lv_label.c ****     if(align == LV_LABEL_ALIGN_CENTER) {
 853:lvgl/src/lv_widgets/lv_label.c ****         lv_coord_t line_w;
 854:lvgl/src/lv_widgets/lv_label.c ****         line_w = _lv_txt_get_width(&txt[line_start], new_line_start - line_start, font, letter_spac
 855:lvgl/src/lv_widgets/lv_label.c ****         x += lv_area_get_width(&txt_coords) / 2 - line_w / 2;
 856:lvgl/src/lv_widgets/lv_label.c ****     }
 857:lvgl/src/lv_widgets/lv_label.c ****     else if(align == LV_LABEL_ALIGN_RIGHT) {
 858:lvgl/src/lv_widgets/lv_label.c ****         lv_coord_t line_w;
 859:lvgl/src/lv_widgets/lv_label.c ****         line_w = _lv_txt_get_width(&txt[line_start], new_line_start - line_start, font, letter_spac
 860:lvgl/src/lv_widgets/lv_label.c ****         x += lv_area_get_width(&txt_coords) - line_w;
 861:lvgl/src/lv_widgets/lv_label.c ****     }
 862:lvgl/src/lv_widgets/lv_label.c **** 
 863:lvgl/src/lv_widgets/lv_label.c ****     lv_txt_cmd_state_t cmd_state = LV_TXT_CMD_STATE_WAIT;
 864:lvgl/src/lv_widgets/lv_label.c **** 
 865:lvgl/src/lv_widgets/lv_label.c ****     uint32_t i           = line_start;
 866:lvgl/src/lv_widgets/lv_label.c ****     uint32_t i_current   = i;
 867:lvgl/src/lv_widgets/lv_label.c ****     uint32_t letter      = '\0';
 868:lvgl/src/lv_widgets/lv_label.c ****     uint32_t letter_next = '\0';
 869:lvgl/src/lv_widgets/lv_label.c **** 
 870:lvgl/src/lv_widgets/lv_label.c ****     if(new_line_start > 0) {
 871:lvgl/src/lv_widgets/lv_label.c ****         while(i <= new_line_start - 1) {
 872:lvgl/src/lv_widgets/lv_label.c ****             /* Get the current letter
 873:lvgl/src/lv_widgets/lv_label.c ****              * Be careful 'i' already points to the next character */
 874:lvgl/src/lv_widgets/lv_label.c ****             letter = _lv_txt_encoded_next(txt, &i);
 875:lvgl/src/lv_widgets/lv_label.c **** 
 876:lvgl/src/lv_widgets/lv_label.c ****             /*Get the next letter for kerning*/
 877:lvgl/src/lv_widgets/lv_label.c ****             letter_next = _lv_txt_encoded_next(&txt[i], NULL);
 878:lvgl/src/lv_widgets/lv_label.c **** 
 879:lvgl/src/lv_widgets/lv_label.c ****             /*Handle the recolor command*/
 880:lvgl/src/lv_widgets/lv_label.c ****             if((flag & LV_TXT_FLAG_RECOLOR) != 0) {
 881:lvgl/src/lv_widgets/lv_label.c ****                 if(_lv_txt_is_cmd(&cmd_state, txt[i]) != false) {
 882:lvgl/src/lv_widgets/lv_label.c ****                     continue; /*Skip the letter is it is part of a command*/
 883:lvgl/src/lv_widgets/lv_label.c ****                 }
 884:lvgl/src/lv_widgets/lv_label.c ****             }
 885:lvgl/src/lv_widgets/lv_label.c ****             last_x = x;
ARM GAS  D:\Temp\cclLOIfg.s 			page 17


 886:lvgl/src/lv_widgets/lv_label.c ****             x += lv_font_get_glyph_width(font, letter, letter_next);
 887:lvgl/src/lv_widgets/lv_label.c ****             if(pos->x < x) {
 888:lvgl/src/lv_widgets/lv_label.c ****                 i = i_current;
 889:lvgl/src/lv_widgets/lv_label.c ****                 break;
 890:lvgl/src/lv_widgets/lv_label.c ****             }
 891:lvgl/src/lv_widgets/lv_label.c ****             x += letter_space;
 892:lvgl/src/lv_widgets/lv_label.c ****             i_current = i;
 893:lvgl/src/lv_widgets/lv_label.c ****         }
 894:lvgl/src/lv_widgets/lv_label.c ****     }
 895:lvgl/src/lv_widgets/lv_label.c **** 
 896:lvgl/src/lv_widgets/lv_label.c ****     int32_t max_diff = lv_font_get_glyph_width(font, letter, letter_next) + letter_space + 1;
 897:lvgl/src/lv_widgets/lv_label.c ****     return (pos->x >= (last_x - letter_space) && pos->x <= (last_x + max_diff));
 898:lvgl/src/lv_widgets/lv_label.c **** }
 899:lvgl/src/lv_widgets/lv_label.c **** 
 900:lvgl/src/lv_widgets/lv_label.c **** lv_style_list_t * lv_label_get_style(lv_obj_t * label, uint8_t type)
 901:lvgl/src/lv_widgets/lv_label.c **** {
 902:lvgl/src/lv_widgets/lv_label.c ****     lv_style_list_t * style_dsc_p;
 903:lvgl/src/lv_widgets/lv_label.c ****     switch(type) {
 904:lvgl/src/lv_widgets/lv_label.c ****         case LV_LABEL_PART_MAIN:
 905:lvgl/src/lv_widgets/lv_label.c ****             style_dsc_p = &label->style_list;
 906:lvgl/src/lv_widgets/lv_label.c ****             break;
 907:lvgl/src/lv_widgets/lv_label.c ****         default:
 908:lvgl/src/lv_widgets/lv_label.c ****             style_dsc_p = NULL;
 909:lvgl/src/lv_widgets/lv_label.c ****     }
 910:lvgl/src/lv_widgets/lv_label.c **** 
 911:lvgl/src/lv_widgets/lv_label.c ****     return style_dsc_p;
 912:lvgl/src/lv_widgets/lv_label.c **** }
 913:lvgl/src/lv_widgets/lv_label.c **** /*=====================
 914:lvgl/src/lv_widgets/lv_label.c ****  * Other functions
 915:lvgl/src/lv_widgets/lv_label.c ****  *====================*/
 916:lvgl/src/lv_widgets/lv_label.c **** 
 917:lvgl/src/lv_widgets/lv_label.c **** /**
 918:lvgl/src/lv_widgets/lv_label.c ****  * Insert a text to the label. The label text can not be static.
 919:lvgl/src/lv_widgets/lv_label.c ****  * @param label pointer to a label object
 920:lvgl/src/lv_widgets/lv_label.c ****  * @param pos character index to insert. Expressed in character index and not byte index (Different
 921:lvgl/src/lv_widgets/lv_label.c ****  * in UTF-8) 0: before first char. LV_LABEL_POS_LAST: after last char.
 922:lvgl/src/lv_widgets/lv_label.c ****  * @param txt pointer to the text to insert
 923:lvgl/src/lv_widgets/lv_label.c ****  */
 924:lvgl/src/lv_widgets/lv_label.c **** void lv_label_ins_text(lv_obj_t * label, uint32_t pos, const char * txt)
 925:lvgl/src/lv_widgets/lv_label.c **** {
 926:lvgl/src/lv_widgets/lv_label.c ****     LV_ASSERT_OBJ(label, LV_OBJX_NAME);
 927:lvgl/src/lv_widgets/lv_label.c ****     LV_ASSERT_STR(txt);
 928:lvgl/src/lv_widgets/lv_label.c **** 
 929:lvgl/src/lv_widgets/lv_label.c ****     lv_label_ext_t * ext = lv_obj_get_ext_attr(label);
 930:lvgl/src/lv_widgets/lv_label.c **** 
 931:lvgl/src/lv_widgets/lv_label.c ****     /*Can not append to static text*/
 932:lvgl/src/lv_widgets/lv_label.c ****     if(ext->static_txt != 0) return;
 933:lvgl/src/lv_widgets/lv_label.c **** 
 934:lvgl/src/lv_widgets/lv_label.c ****     lv_obj_invalidate(label);
 935:lvgl/src/lv_widgets/lv_label.c **** 
 936:lvgl/src/lv_widgets/lv_label.c ****     /*Allocate space for the new text*/
 937:lvgl/src/lv_widgets/lv_label.c ****     size_t old_len = strlen(ext->text);
 938:lvgl/src/lv_widgets/lv_label.c ****     size_t ins_len = strlen(txt);
 939:lvgl/src/lv_widgets/lv_label.c ****     size_t new_len = ins_len + old_len;
 940:lvgl/src/lv_widgets/lv_label.c ****     ext->text        = lv_mem_realloc(ext->text, new_len + 1);
 941:lvgl/src/lv_widgets/lv_label.c ****     LV_ASSERT_MEM(ext->text);
 942:lvgl/src/lv_widgets/lv_label.c ****     if(ext->text == NULL) return;
ARM GAS  D:\Temp\cclLOIfg.s 			page 18


 943:lvgl/src/lv_widgets/lv_label.c **** 
 944:lvgl/src/lv_widgets/lv_label.c ****     if(pos == LV_LABEL_POS_LAST) {
 945:lvgl/src/lv_widgets/lv_label.c ****         pos = _lv_txt_get_encoded_length(ext->text);
 946:lvgl/src/lv_widgets/lv_label.c ****     }
 947:lvgl/src/lv_widgets/lv_label.c **** 
 948:lvgl/src/lv_widgets/lv_label.c **** #if LV_USE_BIDI
 949:lvgl/src/lv_widgets/lv_label.c ****     char * bidi_buf = _lv_mem_buf_get(ins_len + 1);
 950:lvgl/src/lv_widgets/lv_label.c ****     LV_ASSERT_MEM(bidi_buf);
 951:lvgl/src/lv_widgets/lv_label.c ****     if(bidi_buf == NULL) return;
 952:lvgl/src/lv_widgets/lv_label.c **** 
 953:lvgl/src/lv_widgets/lv_label.c ****     _lv_bidi_process(txt, bidi_buf, lv_obj_get_base_dir(label));
 954:lvgl/src/lv_widgets/lv_label.c ****     _lv_txt_ins(ext->text, pos, bidi_buf);
 955:lvgl/src/lv_widgets/lv_label.c **** 
 956:lvgl/src/lv_widgets/lv_label.c ****     _lv_mem_buf_release(bidi_buf);
 957:lvgl/src/lv_widgets/lv_label.c **** #else
 958:lvgl/src/lv_widgets/lv_label.c ****     _lv_txt_ins(ext->text, pos, txt);
 959:lvgl/src/lv_widgets/lv_label.c **** #endif
 960:lvgl/src/lv_widgets/lv_label.c ****     lv_label_set_text(label, NULL);
 961:lvgl/src/lv_widgets/lv_label.c **** }
 962:lvgl/src/lv_widgets/lv_label.c **** 
 963:lvgl/src/lv_widgets/lv_label.c **** /**
 964:lvgl/src/lv_widgets/lv_label.c ****  * Delete characters from a label. The label text can not be static.
 965:lvgl/src/lv_widgets/lv_label.c ****  * @param label pointer to a label object
 966:lvgl/src/lv_widgets/lv_label.c ****  * @param pos character index to insert. Expressed in character index and not byte index (Different
 967:lvgl/src/lv_widgets/lv_label.c ****  * in UTF-8) 0: before first char.
 968:lvgl/src/lv_widgets/lv_label.c ****  * @param cnt number of characters to cut
 969:lvgl/src/lv_widgets/lv_label.c ****  */
 970:lvgl/src/lv_widgets/lv_label.c **** void lv_label_cut_text(lv_obj_t * label, uint32_t pos, uint32_t cnt)
 971:lvgl/src/lv_widgets/lv_label.c **** {
 972:lvgl/src/lv_widgets/lv_label.c ****     LV_ASSERT_OBJ(label, LV_OBJX_NAME);
 973:lvgl/src/lv_widgets/lv_label.c **** 
 974:lvgl/src/lv_widgets/lv_label.c ****     lv_label_ext_t * ext = lv_obj_get_ext_attr(label);
 975:lvgl/src/lv_widgets/lv_label.c **** 
 976:lvgl/src/lv_widgets/lv_label.c ****     /*Can not append to static text*/
 977:lvgl/src/lv_widgets/lv_label.c ****     if(ext->static_txt != 0) return;
 978:lvgl/src/lv_widgets/lv_label.c **** 
 979:lvgl/src/lv_widgets/lv_label.c ****     lv_obj_invalidate(label);
 980:lvgl/src/lv_widgets/lv_label.c **** 
 981:lvgl/src/lv_widgets/lv_label.c ****     char * label_txt = lv_label_get_text(label);
 982:lvgl/src/lv_widgets/lv_label.c ****     /*Delete the characters*/
 983:lvgl/src/lv_widgets/lv_label.c ****     _lv_txt_cut(label_txt, pos, cnt);
 984:lvgl/src/lv_widgets/lv_label.c **** 
 985:lvgl/src/lv_widgets/lv_label.c ****     /*Refresh the label*/
 986:lvgl/src/lv_widgets/lv_label.c ****     lv_label_refr_text(label);
 987:lvgl/src/lv_widgets/lv_label.c **** }
 988:lvgl/src/lv_widgets/lv_label.c **** 
 989:lvgl/src/lv_widgets/lv_label.c **** /**
 990:lvgl/src/lv_widgets/lv_label.c ****  * Refresh the label with its text stored in its extended data
 991:lvgl/src/lv_widgets/lv_label.c ****  * @param label pointer to a label object
 992:lvgl/src/lv_widgets/lv_label.c ****  */
 993:lvgl/src/lv_widgets/lv_label.c **** void lv_label_refr_text(lv_obj_t * label)
 994:lvgl/src/lv_widgets/lv_label.c **** {
 995:lvgl/src/lv_widgets/lv_label.c ****     lv_label_ext_t * ext = lv_obj_get_ext_attr(label);
 996:lvgl/src/lv_widgets/lv_label.c **** 
 997:lvgl/src/lv_widgets/lv_label.c ****     if(ext->text == NULL) return;
 998:lvgl/src/lv_widgets/lv_label.c **** #if LV_LABEL_LONG_TXT_HINT
 999:lvgl/src/lv_widgets/lv_label.c ****     ext->hint.line_start = -1; /*The hint is invalid if the text changes*/
ARM GAS  D:\Temp\cclLOIfg.s 			page 19


1000:lvgl/src/lv_widgets/lv_label.c **** #endif
1001:lvgl/src/lv_widgets/lv_label.c **** 
1002:lvgl/src/lv_widgets/lv_label.c ****     lv_area_t txt_coords;
1003:lvgl/src/lv_widgets/lv_label.c ****     get_txt_coords(label, &txt_coords);
1004:lvgl/src/lv_widgets/lv_label.c ****     lv_coord_t max_w         = lv_area_get_width(&txt_coords);
1005:lvgl/src/lv_widgets/lv_label.c ****     const lv_font_t * font   = lv_obj_get_style_text_font(label, LV_LABEL_PART_MAIN);
1006:lvgl/src/lv_widgets/lv_label.c ****     lv_style_int_t line_space = lv_obj_get_style_text_line_space(label, LV_LABEL_PART_MAIN);
1007:lvgl/src/lv_widgets/lv_label.c ****     lv_style_int_t letter_space = lv_obj_get_style_text_letter_space(label, LV_LABEL_PART_MAIN);
1008:lvgl/src/lv_widgets/lv_label.c **** 
1009:lvgl/src/lv_widgets/lv_label.c ****     /*Calc. the height and longest line*/
1010:lvgl/src/lv_widgets/lv_label.c ****     lv_point_t size;
1011:lvgl/src/lv_widgets/lv_label.c ****     lv_txt_flag_t flag = LV_TXT_FLAG_NONE;
1012:lvgl/src/lv_widgets/lv_label.c ****     if(ext->recolor != 0) flag |= LV_TXT_FLAG_RECOLOR;
1013:lvgl/src/lv_widgets/lv_label.c ****     if(ext->expand != 0) flag |= LV_TXT_FLAG_EXPAND;
1014:lvgl/src/lv_widgets/lv_label.c ****     if(ext->long_mode == LV_LABEL_LONG_EXPAND) flag |= LV_TXT_FLAG_FIT;
1015:lvgl/src/lv_widgets/lv_label.c ****     _lv_txt_get_size(&size, ext->text, font, letter_space, line_space, max_w, flag);
1016:lvgl/src/lv_widgets/lv_label.c **** 
1017:lvgl/src/lv_widgets/lv_label.c ****     /*Set the full size in expand mode*/
1018:lvgl/src/lv_widgets/lv_label.c ****     if(ext->long_mode == LV_LABEL_LONG_EXPAND) {
1019:lvgl/src/lv_widgets/lv_label.c ****         size.x += lv_obj_get_style_pad_left(label, LV_LABEL_PART_MAIN) + lv_obj_get_style_pad_right
1020:lvgl/src/lv_widgets/lv_label.c ****         size.y += lv_obj_get_style_pad_top(label, LV_LABEL_PART_MAIN) + lv_obj_get_style_pad_bottom
1021:lvgl/src/lv_widgets/lv_label.c ****         lv_obj_set_size(label, size.x, size.y);
1022:lvgl/src/lv_widgets/lv_label.c ****     }
1023:lvgl/src/lv_widgets/lv_label.c ****     /*In roll mode keep the size but start offset animations*/
1024:lvgl/src/lv_widgets/lv_label.c ****     else if(ext->long_mode == LV_LABEL_LONG_SROLL) {
1025:lvgl/src/lv_widgets/lv_label.c **** #if LV_USE_ANIMATION
1026:lvgl/src/lv_widgets/lv_label.c ****         lv_anim_t a;
1027:lvgl/src/lv_widgets/lv_label.c ****         lv_anim_init(&a);
1028:lvgl/src/lv_widgets/lv_label.c ****         lv_anim_set_var(&a, label);
1029:lvgl/src/lv_widgets/lv_label.c ****         lv_anim_set_repeat_count(&a, LV_ANIM_REPEAT_INFINITE);
1030:lvgl/src/lv_widgets/lv_label.c ****         lv_anim_set_playback_delay(&a, (((lv_font_get_glyph_width(font, ' ', ' ') + letter_space) *
1031:lvgl/src/lv_widgets/lv_label.c ****                                         ext->anim_speed) *
1032:lvgl/src/lv_widgets/lv_label.c ****                                    LV_LABEL_WAIT_CHAR_COUNT);
1033:lvgl/src/lv_widgets/lv_label.c ****         lv_anim_set_repeat_delay(&a, a.playback_delay);
1034:lvgl/src/lv_widgets/lv_label.c **** 
1035:lvgl/src/lv_widgets/lv_label.c ****         bool hor_anim = false;
1036:lvgl/src/lv_widgets/lv_label.c ****         if(size.x > lv_area_get_width(&txt_coords)) {
1037:lvgl/src/lv_widgets/lv_label.c ****             lv_anim_set_values(&a, 0, lv_area_get_width(&txt_coords) - size.x);
1038:lvgl/src/lv_widgets/lv_label.c ****             lv_anim_set_exec_cb(&a, (lv_anim_exec_xcb_t)lv_label_set_offset_x);
1039:lvgl/src/lv_widgets/lv_label.c ****             lv_anim_set_time(&a, lv_anim_speed_to_time(ext->anim_speed, a.start, a.end));
1040:lvgl/src/lv_widgets/lv_label.c ****             lv_anim_set_playback_time(&a, a.time);
1041:lvgl/src/lv_widgets/lv_label.c **** 
1042:lvgl/src/lv_widgets/lv_label.c ****             lv_anim_t * anim_cur = lv_anim_get(label, (lv_anim_exec_xcb_t)lv_label_set_offset_x);
1043:lvgl/src/lv_widgets/lv_label.c ****             int32_t act_time = 0;
1044:lvgl/src/lv_widgets/lv_label.c ****             bool playback_now = false;
1045:lvgl/src/lv_widgets/lv_label.c ****             if(anim_cur) {
1046:lvgl/src/lv_widgets/lv_label.c ****                 act_time = anim_cur->act_time;
1047:lvgl/src/lv_widgets/lv_label.c ****                 playback_now = anim_cur->playback_now;
1048:lvgl/src/lv_widgets/lv_label.c ****             }
1049:lvgl/src/lv_widgets/lv_label.c ****             if(act_time < a.time) {
1050:lvgl/src/lv_widgets/lv_label.c ****                 a.act_time = act_time;      /*To keep the old position*/
1051:lvgl/src/lv_widgets/lv_label.c ****                 a.early_apply = 0;
1052:lvgl/src/lv_widgets/lv_label.c ****                 if(playback_now) {
1053:lvgl/src/lv_widgets/lv_label.c ****                     a.playback_now = 1;
1054:lvgl/src/lv_widgets/lv_label.c ****                     /*Swap the start and end values*/
1055:lvgl/src/lv_widgets/lv_label.c ****                     int32_t tmp;
1056:lvgl/src/lv_widgets/lv_label.c ****                     tmp      = a.start;
ARM GAS  D:\Temp\cclLOIfg.s 			page 20


1057:lvgl/src/lv_widgets/lv_label.c ****                     a.start = a.end;
1058:lvgl/src/lv_widgets/lv_label.c ****                     a.end   = tmp;
1059:lvgl/src/lv_widgets/lv_label.c ****                 }
1060:lvgl/src/lv_widgets/lv_label.c ****             }
1061:lvgl/src/lv_widgets/lv_label.c **** 
1062:lvgl/src/lv_widgets/lv_label.c ****             lv_anim_start(&a);
1063:lvgl/src/lv_widgets/lv_label.c ****             hor_anim = true;
1064:lvgl/src/lv_widgets/lv_label.c ****         }
1065:lvgl/src/lv_widgets/lv_label.c ****         else {
1066:lvgl/src/lv_widgets/lv_label.c ****             /*Delete the offset animation if not required*/
1067:lvgl/src/lv_widgets/lv_label.c ****             lv_anim_del(label, (lv_anim_exec_xcb_t)lv_label_set_offset_x);
1068:lvgl/src/lv_widgets/lv_label.c ****             ext->offset.x = 0;
1069:lvgl/src/lv_widgets/lv_label.c ****         }
1070:lvgl/src/lv_widgets/lv_label.c **** 
1071:lvgl/src/lv_widgets/lv_label.c ****         if(size.y > lv_area_get_height(&txt_coords) && hor_anim == false) {
1072:lvgl/src/lv_widgets/lv_label.c ****             lv_anim_set_values(&a, 0, lv_area_get_height(&txt_coords) - size.y - (lv_font_get_line_
1073:lvgl/src/lv_widgets/lv_label.c ****             lv_anim_set_exec_cb(&a, (lv_anim_exec_xcb_t)lv_label_set_offset_y);
1074:lvgl/src/lv_widgets/lv_label.c ****             lv_anim_set_time(&a, lv_anim_speed_to_time(ext->anim_speed, a.start, a.end));
1075:lvgl/src/lv_widgets/lv_label.c ****             lv_anim_set_playback_time(&a, a.time);
1076:lvgl/src/lv_widgets/lv_label.c **** 
1077:lvgl/src/lv_widgets/lv_label.c ****             lv_anim_t * anim_cur = lv_anim_get(label, (lv_anim_exec_xcb_t)lv_label_set_offset_y);
1078:lvgl/src/lv_widgets/lv_label.c ****             int32_t act_time = 0;
1079:lvgl/src/lv_widgets/lv_label.c ****             bool playback_now = false;
1080:lvgl/src/lv_widgets/lv_label.c ****             if(anim_cur) {
1081:lvgl/src/lv_widgets/lv_label.c ****                 act_time = anim_cur->act_time;
1082:lvgl/src/lv_widgets/lv_label.c ****                 playback_now = anim_cur->playback_now;
1083:lvgl/src/lv_widgets/lv_label.c ****             }
1084:lvgl/src/lv_widgets/lv_label.c ****             if(act_time < a.time) {
1085:lvgl/src/lv_widgets/lv_label.c ****                 a.act_time = act_time;      /*To keep the old position*/
1086:lvgl/src/lv_widgets/lv_label.c ****                 a.early_apply = 0;
1087:lvgl/src/lv_widgets/lv_label.c ****                 if(playback_now) {
1088:lvgl/src/lv_widgets/lv_label.c ****                     a.playback_now = 1;
1089:lvgl/src/lv_widgets/lv_label.c ****                     /*Swap the start and end values*/
1090:lvgl/src/lv_widgets/lv_label.c ****                     int32_t tmp;
1091:lvgl/src/lv_widgets/lv_label.c ****                     tmp      = a.start;
1092:lvgl/src/lv_widgets/lv_label.c ****                     a.start = a.end;
1093:lvgl/src/lv_widgets/lv_label.c ****                     a.end   = tmp;
1094:lvgl/src/lv_widgets/lv_label.c ****                 }
1095:lvgl/src/lv_widgets/lv_label.c ****             }
1096:lvgl/src/lv_widgets/lv_label.c **** 
1097:lvgl/src/lv_widgets/lv_label.c ****             lv_anim_start(&a);
1098:lvgl/src/lv_widgets/lv_label.c ****         }
1099:lvgl/src/lv_widgets/lv_label.c ****         else {
1100:lvgl/src/lv_widgets/lv_label.c ****             /*Delete the offset animation if not required*/
1101:lvgl/src/lv_widgets/lv_label.c ****             lv_anim_del(label, (lv_anim_exec_xcb_t)lv_label_set_offset_y);
1102:lvgl/src/lv_widgets/lv_label.c ****             ext->offset.y = 0;
1103:lvgl/src/lv_widgets/lv_label.c ****         }
1104:lvgl/src/lv_widgets/lv_label.c **** #endif
1105:lvgl/src/lv_widgets/lv_label.c ****     }
1106:lvgl/src/lv_widgets/lv_label.c ****     /*In roll inf. mode keep the size but start offset animations*/
1107:lvgl/src/lv_widgets/lv_label.c ****     else if(ext->long_mode == LV_LABEL_LONG_SROLL_CIRC) {
1108:lvgl/src/lv_widgets/lv_label.c **** #if LV_USE_ANIMATION
1109:lvgl/src/lv_widgets/lv_label.c ****         lv_anim_t a;
1110:lvgl/src/lv_widgets/lv_label.c ****         lv_anim_init(&a);
1111:lvgl/src/lv_widgets/lv_label.c ****         lv_anim_set_var(&a, label);
1112:lvgl/src/lv_widgets/lv_label.c ****         lv_anim_set_repeat_count(&a, LV_ANIM_REPEAT_INFINITE);
1113:lvgl/src/lv_widgets/lv_label.c **** 
ARM GAS  D:\Temp\cclLOIfg.s 			page 21


1114:lvgl/src/lv_widgets/lv_label.c ****         bool hor_anim = false;
1115:lvgl/src/lv_widgets/lv_label.c ****         if(size.x > lv_area_get_width(&txt_coords)) {
1116:lvgl/src/lv_widgets/lv_label.c ****             lv_anim_set_values(&a, 0, -size.x - lv_font_get_glyph_width(font, ' ', ' ') * LV_LABEL_
1117:lvgl/src/lv_widgets/lv_label.c ****             lv_anim_set_exec_cb(&a, (lv_anim_exec_xcb_t)lv_label_set_offset_x);
1118:lvgl/src/lv_widgets/lv_label.c ****             lv_anim_set_time(&a, lv_anim_speed_to_time(ext->anim_speed, a.start, a.end));
1119:lvgl/src/lv_widgets/lv_label.c **** 
1120:lvgl/src/lv_widgets/lv_label.c ****             lv_anim_t * anim_cur = lv_anim_get(label, (lv_anim_exec_xcb_t)lv_label_set_offset_x);
1121:lvgl/src/lv_widgets/lv_label.c ****             int32_t act_time = anim_cur ? anim_cur->act_time : 0;
1122:lvgl/src/lv_widgets/lv_label.c ****             if(act_time < a.time) {
1123:lvgl/src/lv_widgets/lv_label.c ****                 a.act_time = act_time;      /*To keep the old position*/
1124:lvgl/src/lv_widgets/lv_label.c ****                 a.early_apply = 0;
1125:lvgl/src/lv_widgets/lv_label.c ****             }
1126:lvgl/src/lv_widgets/lv_label.c **** 
1127:lvgl/src/lv_widgets/lv_label.c ****             lv_anim_start(&a);
1128:lvgl/src/lv_widgets/lv_label.c ****             hor_anim = true;
1129:lvgl/src/lv_widgets/lv_label.c ****         }
1130:lvgl/src/lv_widgets/lv_label.c ****         else {
1131:lvgl/src/lv_widgets/lv_label.c ****             /*Delete the offset animation if not required*/
1132:lvgl/src/lv_widgets/lv_label.c ****             lv_anim_del(label, (lv_anim_exec_xcb_t)lv_label_set_offset_x);
1133:lvgl/src/lv_widgets/lv_label.c ****             ext->offset.x = 0;
1134:lvgl/src/lv_widgets/lv_label.c ****         }
1135:lvgl/src/lv_widgets/lv_label.c **** 
1136:lvgl/src/lv_widgets/lv_label.c ****         if(size.y > lv_area_get_height(&txt_coords) && hor_anim == false) {
1137:lvgl/src/lv_widgets/lv_label.c ****             lv_anim_set_values(&a, 0, -size.y - (lv_font_get_line_height(font)));
1138:lvgl/src/lv_widgets/lv_label.c ****             lv_anim_set_exec_cb(&a, (lv_anim_exec_xcb_t)lv_label_set_offset_y);
1139:lvgl/src/lv_widgets/lv_label.c ****             lv_anim_set_time(&a, lv_anim_speed_to_time(ext->anim_speed, a.start, a.end));
1140:lvgl/src/lv_widgets/lv_label.c **** 
1141:lvgl/src/lv_widgets/lv_label.c ****             lv_anim_t * anim_cur = lv_anim_get(label, (lv_anim_exec_xcb_t)lv_label_set_offset_y);
1142:lvgl/src/lv_widgets/lv_label.c ****             int32_t act_time = anim_cur ? anim_cur->act_time : 0;
1143:lvgl/src/lv_widgets/lv_label.c ****             if(act_time < a.time) {
1144:lvgl/src/lv_widgets/lv_label.c ****                 a.act_time = act_time;      /*To keep the old position*/
1145:lvgl/src/lv_widgets/lv_label.c ****                 a.early_apply = 0;
1146:lvgl/src/lv_widgets/lv_label.c ****             }
1147:lvgl/src/lv_widgets/lv_label.c **** 
1148:lvgl/src/lv_widgets/lv_label.c ****             lv_anim_start(&a);
1149:lvgl/src/lv_widgets/lv_label.c ****         }
1150:lvgl/src/lv_widgets/lv_label.c ****         else {
1151:lvgl/src/lv_widgets/lv_label.c ****             /*Delete the offset animation if not required*/
1152:lvgl/src/lv_widgets/lv_label.c ****             lv_anim_del(label, (lv_anim_exec_xcb_t)lv_label_set_offset_y);
1153:lvgl/src/lv_widgets/lv_label.c ****             ext->offset.y = 0;
1154:lvgl/src/lv_widgets/lv_label.c ****         }
1155:lvgl/src/lv_widgets/lv_label.c **** #endif
1156:lvgl/src/lv_widgets/lv_label.c ****     }
1157:lvgl/src/lv_widgets/lv_label.c ****     else if(ext->long_mode == LV_LABEL_LONG_DOT) {
1158:lvgl/src/lv_widgets/lv_label.c ****         if(size.y <= lv_area_get_height(&txt_coords)) { /*No dots are required, the text is short e
1159:lvgl/src/lv_widgets/lv_label.c ****             ext->dot_end = LV_LABEL_DOT_END_INV;
1160:lvgl/src/lv_widgets/lv_label.c ****         }
1161:lvgl/src/lv_widgets/lv_label.c ****         else if(_lv_txt_get_encoded_length(ext->text) <= LV_LABEL_DOT_NUM) {   /*Don't turn to dots
1162:lvgl/src/lv_widgets/lv_label.c ****             ext->dot_end = LV_LABEL_DOT_END_INV;
1163:lvgl/src/lv_widgets/lv_label.c ****         }
1164:lvgl/src/lv_widgets/lv_label.c ****         else {
1165:lvgl/src/lv_widgets/lv_label.c ****             lv_point_t p;
1166:lvgl/src/lv_widgets/lv_label.c ****             lv_coord_t y_overed;
1167:lvgl/src/lv_widgets/lv_label.c ****             p.x = lv_area_get_width(&txt_coords) -
1168:lvgl/src/lv_widgets/lv_label.c ****                   (lv_font_get_glyph_width(font, '.', '.') + letter_space) *
1169:lvgl/src/lv_widgets/lv_label.c ****                   LV_LABEL_DOT_NUM; /*Shrink with dots*/
1170:lvgl/src/lv_widgets/lv_label.c ****             p.y = lv_area_get_height(&txt_coords);
ARM GAS  D:\Temp\cclLOIfg.s 			page 22


1171:lvgl/src/lv_widgets/lv_label.c ****             y_overed = p.y %
1172:lvgl/src/lv_widgets/lv_label.c ****                        (lv_font_get_line_height(font) + line_space); /*Round down to the last line*
1173:lvgl/src/lv_widgets/lv_label.c ****             if(y_overed >= lv_font_get_line_height(font)) {
1174:lvgl/src/lv_widgets/lv_label.c ****                 p.y -= y_overed;
1175:lvgl/src/lv_widgets/lv_label.c ****                 p.y += lv_font_get_line_height(font);
1176:lvgl/src/lv_widgets/lv_label.c ****             }
1177:lvgl/src/lv_widgets/lv_label.c ****             else {
1178:lvgl/src/lv_widgets/lv_label.c ****                 p.y -= y_overed;
1179:lvgl/src/lv_widgets/lv_label.c ****                 p.y -= line_space;
1180:lvgl/src/lv_widgets/lv_label.c ****             }
1181:lvgl/src/lv_widgets/lv_label.c **** 
1182:lvgl/src/lv_widgets/lv_label.c ****             uint32_t letter_id = lv_label_get_letter_on(label, &p);
1183:lvgl/src/lv_widgets/lv_label.c **** 
1184:lvgl/src/lv_widgets/lv_label.c ****             /*Be sure there is space for the dots*/
1185:lvgl/src/lv_widgets/lv_label.c ****             size_t txt_len = strlen(ext->text);
1186:lvgl/src/lv_widgets/lv_label.c ****             uint32_t byte_id     = _lv_txt_encoded_get_byte_id(ext->text, letter_id);
1187:lvgl/src/lv_widgets/lv_label.c ****             while(byte_id + LV_LABEL_DOT_NUM > txt_len) {
1188:lvgl/src/lv_widgets/lv_label.c ****                 _lv_txt_encoded_prev(ext->text, &byte_id);
1189:lvgl/src/lv_widgets/lv_label.c ****                 letter_id--;
1190:lvgl/src/lv_widgets/lv_label.c ****             }
1191:lvgl/src/lv_widgets/lv_label.c **** 
1192:lvgl/src/lv_widgets/lv_label.c ****             /*Save letters under the dots and replace them with dots*/
1193:lvgl/src/lv_widgets/lv_label.c ****             uint32_t byte_id_ori = byte_id;
1194:lvgl/src/lv_widgets/lv_label.c ****             uint32_t i;
1195:lvgl/src/lv_widgets/lv_label.c ****             uint8_t len          = 0;
1196:lvgl/src/lv_widgets/lv_label.c ****             for(i = 0; i <= LV_LABEL_DOT_NUM; i++) {
1197:lvgl/src/lv_widgets/lv_label.c ****                 len += _lv_txt_encoded_size(&ext->text[byte_id]);
1198:lvgl/src/lv_widgets/lv_label.c ****                 _lv_txt_encoded_next(ext->text, &byte_id);
1199:lvgl/src/lv_widgets/lv_label.c ****             }
1200:lvgl/src/lv_widgets/lv_label.c **** 
1201:lvgl/src/lv_widgets/lv_label.c ****             if(lv_label_set_dot_tmp(label, &ext->text[byte_id_ori], len)) {
1202:lvgl/src/lv_widgets/lv_label.c ****                 for(i = 0; i < LV_LABEL_DOT_NUM; i++) {
1203:lvgl/src/lv_widgets/lv_label.c ****                     ext->text[byte_id_ori + i] = '.';
1204:lvgl/src/lv_widgets/lv_label.c ****                 }
1205:lvgl/src/lv_widgets/lv_label.c ****                 ext->text[byte_id_ori + LV_LABEL_DOT_NUM] = '\0';
1206:lvgl/src/lv_widgets/lv_label.c ****                 ext->dot_end                              = letter_id + LV_LABEL_DOT_NUM;
1207:lvgl/src/lv_widgets/lv_label.c ****             }
1208:lvgl/src/lv_widgets/lv_label.c ****         }
1209:lvgl/src/lv_widgets/lv_label.c ****     }
1210:lvgl/src/lv_widgets/lv_label.c ****     /*In break mode only the height can change*/
1211:lvgl/src/lv_widgets/lv_label.c ****     else if(ext->long_mode == LV_LABEL_LONG_BREAK) {
1212:lvgl/src/lv_widgets/lv_label.c ****         size.y += lv_obj_get_style_pad_top(label, LV_LABEL_PART_MAIN) + lv_obj_get_style_pad_bottom
1213:lvgl/src/lv_widgets/lv_label.c ****         lv_obj_set_height(label, size.y);
1214:lvgl/src/lv_widgets/lv_label.c ****     }
1215:lvgl/src/lv_widgets/lv_label.c ****     /*Do not set the size in Clip mode*/
1216:lvgl/src/lv_widgets/lv_label.c ****     else if(ext->long_mode == LV_LABEL_LONG_CROP) {
1217:lvgl/src/lv_widgets/lv_label.c ****         /*Do nothing*/
1218:lvgl/src/lv_widgets/lv_label.c ****     }
1219:lvgl/src/lv_widgets/lv_label.c **** 
1220:lvgl/src/lv_widgets/lv_label.c ****     lv_obj_invalidate(label);
1221:lvgl/src/lv_widgets/lv_label.c **** }
1222:lvgl/src/lv_widgets/lv_label.c **** 
1223:lvgl/src/lv_widgets/lv_label.c **** /**********************
1224:lvgl/src/lv_widgets/lv_label.c ****  *   STATIC FUNCTIONS
1225:lvgl/src/lv_widgets/lv_label.c ****  **********************/
1226:lvgl/src/lv_widgets/lv_label.c **** 
1227:lvgl/src/lv_widgets/lv_label.c **** /**
ARM GAS  D:\Temp\cclLOIfg.s 			page 23


1228:lvgl/src/lv_widgets/lv_label.c ****  * Handle the drawing related tasks of the labels
1229:lvgl/src/lv_widgets/lv_label.c ****  * @param label pointer to a label object
1230:lvgl/src/lv_widgets/lv_label.c ****  * @param clip_area the object will be drawn only in this area
1231:lvgl/src/lv_widgets/lv_label.c ****  * @param mode LV_DESIGN_COVER_CHK: only check if the object fully covers the 'mask_p' area
1232:lvgl/src/lv_widgets/lv_label.c ****  *                                  (return 'true' if yes)
1233:lvgl/src/lv_widgets/lv_label.c ****  *             LV_DESIGN_DRAW: draw the object (always return 'true')
1234:lvgl/src/lv_widgets/lv_label.c ****  *             LV_DESIGN_DRAW_POST: drawing after every children are drawn
1235:lvgl/src/lv_widgets/lv_label.c ****  * @param return an element of `lv_design_res_t`
1236:lvgl/src/lv_widgets/lv_label.c ****  */
1237:lvgl/src/lv_widgets/lv_label.c **** static lv_design_res_t lv_label_design(lv_obj_t * label, const lv_area_t * clip_area, lv_design_mod
1238:lvgl/src/lv_widgets/lv_label.c **** {
1239:lvgl/src/lv_widgets/lv_label.c ****     /* A label never covers an area */
1240:lvgl/src/lv_widgets/lv_label.c ****     if(mode == LV_DESIGN_COVER_CHK)
1241:lvgl/src/lv_widgets/lv_label.c ****         return LV_DESIGN_RES_NOT_COVER;
1242:lvgl/src/lv_widgets/lv_label.c ****     else if(mode == LV_DESIGN_DRAW_MAIN) {
1243:lvgl/src/lv_widgets/lv_label.c ****         lv_label_ext_t * ext = lv_obj_get_ext_attr(label);
1244:lvgl/src/lv_widgets/lv_label.c **** 
1245:lvgl/src/lv_widgets/lv_label.c ****         lv_coord_t w = lv_obj_get_style_transform_width(label, LV_LABEL_PART_MAIN);
1246:lvgl/src/lv_widgets/lv_label.c ****         lv_coord_t h = lv_obj_get_style_transform_height(label, LV_LABEL_PART_MAIN);
1247:lvgl/src/lv_widgets/lv_label.c ****         lv_area_t bg_coords;
1248:lvgl/src/lv_widgets/lv_label.c ****         lv_area_copy(&bg_coords, &label->coords);
1249:lvgl/src/lv_widgets/lv_label.c ****         bg_coords.x1 -= w;
1250:lvgl/src/lv_widgets/lv_label.c ****         bg_coords.x2 += w;
1251:lvgl/src/lv_widgets/lv_label.c ****         bg_coords.y1 -= h;
1252:lvgl/src/lv_widgets/lv_label.c ****         bg_coords.y2 += h;
1253:lvgl/src/lv_widgets/lv_label.c **** 
1254:lvgl/src/lv_widgets/lv_label.c ****         lv_draw_rect_dsc_t draw_rect_dsc;
1255:lvgl/src/lv_widgets/lv_label.c ****         lv_draw_rect_dsc_init(&draw_rect_dsc);
1256:lvgl/src/lv_widgets/lv_label.c ****         lv_obj_init_draw_rect_dsc(label, LV_LABEL_PART_MAIN, &draw_rect_dsc);
1257:lvgl/src/lv_widgets/lv_label.c **** 
1258:lvgl/src/lv_widgets/lv_label.c ****         lv_draw_rect(&bg_coords, clip_area, &draw_rect_dsc);
1259:lvgl/src/lv_widgets/lv_label.c **** 
1260:lvgl/src/lv_widgets/lv_label.c ****         lv_area_t txt_coords;
1261:lvgl/src/lv_widgets/lv_label.c ****         get_txt_coords(label, &txt_coords);
1262:lvgl/src/lv_widgets/lv_label.c **** 
1263:lvgl/src/lv_widgets/lv_label.c ****         lv_area_t txt_clip;
1264:lvgl/src/lv_widgets/lv_label.c ****         bool is_common = _lv_area_intersect(&txt_clip, clip_area, &txt_coords);
1265:lvgl/src/lv_widgets/lv_label.c ****         if(!is_common) return LV_DESIGN_RES_OK;
1266:lvgl/src/lv_widgets/lv_label.c **** 
1267:lvgl/src/lv_widgets/lv_label.c ****         lv_label_align_t align = lv_label_get_align(label);
1268:lvgl/src/lv_widgets/lv_label.c **** 
1269:lvgl/src/lv_widgets/lv_label.c ****         lv_txt_flag_t flag = LV_TXT_FLAG_NONE;
1270:lvgl/src/lv_widgets/lv_label.c ****         if(ext->recolor != 0) flag |= LV_TXT_FLAG_RECOLOR;
1271:lvgl/src/lv_widgets/lv_label.c ****         if(ext->expand != 0) flag |= LV_TXT_FLAG_EXPAND;
1272:lvgl/src/lv_widgets/lv_label.c ****         if(ext->long_mode == LV_LABEL_LONG_EXPAND) flag |= LV_TXT_FLAG_FIT;
1273:lvgl/src/lv_widgets/lv_label.c ****         if(align == LV_LABEL_ALIGN_CENTER) flag |= LV_TXT_FLAG_CENTER;
1274:lvgl/src/lv_widgets/lv_label.c ****         if(align == LV_LABEL_ALIGN_RIGHT) flag |= LV_TXT_FLAG_RIGHT;
1275:lvgl/src/lv_widgets/lv_label.c **** 
1276:lvgl/src/lv_widgets/lv_label.c ****         lv_draw_label_dsc_t label_draw_dsc;
1277:lvgl/src/lv_widgets/lv_label.c ****         lv_draw_label_dsc_init(&label_draw_dsc);
1278:lvgl/src/lv_widgets/lv_label.c **** 
1279:lvgl/src/lv_widgets/lv_label.c ****         label_draw_dsc.sel_start = lv_label_get_text_sel_start(label);
1280:lvgl/src/lv_widgets/lv_label.c ****         label_draw_dsc.sel_end = lv_label_get_text_sel_end(label);
1281:lvgl/src/lv_widgets/lv_label.c ****         label_draw_dsc.ofs_x = ext->offset.x;
1282:lvgl/src/lv_widgets/lv_label.c ****         label_draw_dsc.ofs_y = ext->offset.y;
1283:lvgl/src/lv_widgets/lv_label.c ****         label_draw_dsc.flag = flag;
1284:lvgl/src/lv_widgets/lv_label.c ****         lv_obj_init_draw_label_dsc(label, LV_LABEL_PART_MAIN, &label_draw_dsc);
ARM GAS  D:\Temp\cclLOIfg.s 			page 24


1285:lvgl/src/lv_widgets/lv_label.c **** 
1286:lvgl/src/lv_widgets/lv_label.c ****         /* In SROLL and SROLL_CIRC mode the CENTER and RIGHT are pointless so remove them.
1287:lvgl/src/lv_widgets/lv_label.c ****          * (In addition they will result misalignment is this case)*/
1288:lvgl/src/lv_widgets/lv_label.c ****         if((ext->long_mode == LV_LABEL_LONG_SROLL || ext->long_mode == LV_LABEL_LONG_SROLL_CIRC) &&
1289:lvgl/src/lv_widgets/lv_label.c ****            (ext->align == LV_LABEL_ALIGN_CENTER || ext->align == LV_LABEL_ALIGN_RIGHT)) {
1290:lvgl/src/lv_widgets/lv_label.c ****             lv_point_t size;
1291:lvgl/src/lv_widgets/lv_label.c ****             _lv_txt_get_size(&size, ext->text, label_draw_dsc.font, label_draw_dsc.letter_space, la
1292:lvgl/src/lv_widgets/lv_label.c ****                              LV_COORD_MAX, flag);
1293:lvgl/src/lv_widgets/lv_label.c ****             if(size.x > lv_area_get_width(&txt_coords)) {
1294:lvgl/src/lv_widgets/lv_label.c ****                 label_draw_dsc.flag &= ~LV_TXT_FLAG_RIGHT;
1295:lvgl/src/lv_widgets/lv_label.c ****                 label_draw_dsc.flag &= ~LV_TXT_FLAG_CENTER;
1296:lvgl/src/lv_widgets/lv_label.c ****             }
1297:lvgl/src/lv_widgets/lv_label.c ****         }
1298:lvgl/src/lv_widgets/lv_label.c **** #if LV_LABEL_LONG_TXT_HINT
1299:lvgl/src/lv_widgets/lv_label.c ****         lv_draw_label_hint_t * hint = &ext->hint;
1300:lvgl/src/lv_widgets/lv_label.c ****         if(ext->long_mode == LV_LABEL_LONG_SROLL_CIRC || lv_area_get_height(&txt_coords) < LV_LABEL
1301:lvgl/src/lv_widgets/lv_label.c ****             hint = NULL;
1302:lvgl/src/lv_widgets/lv_label.c **** 
1303:lvgl/src/lv_widgets/lv_label.c **** #else
1304:lvgl/src/lv_widgets/lv_label.c ****         /*Just for compatibility*/
1305:lvgl/src/lv_widgets/lv_label.c ****         lv_draw_label_hint_t * hint = NULL;
1306:lvgl/src/lv_widgets/lv_label.c **** #endif
1307:lvgl/src/lv_widgets/lv_label.c **** 
1308:lvgl/src/lv_widgets/lv_label.c ****         lv_draw_label(&txt_coords, &txt_clip, &label_draw_dsc, ext->text, hint);
1309:lvgl/src/lv_widgets/lv_label.c **** 
1310:lvgl/src/lv_widgets/lv_label.c ****         if(ext->long_mode == LV_LABEL_LONG_SROLL_CIRC) {
1311:lvgl/src/lv_widgets/lv_label.c ****             lv_point_t size;
1312:lvgl/src/lv_widgets/lv_label.c ****             _lv_txt_get_size(&size, ext->text, label_draw_dsc.font, label_draw_dsc.letter_space, la
1313:lvgl/src/lv_widgets/lv_label.c ****                              LV_COORD_MAX, flag);
1314:lvgl/src/lv_widgets/lv_label.c **** 
1315:lvgl/src/lv_widgets/lv_label.c ****             /*Draw the text again next to the original to make an circular effect */
1316:lvgl/src/lv_widgets/lv_label.c ****             if(size.x > lv_area_get_width(&txt_coords)) {
1317:lvgl/src/lv_widgets/lv_label.c ****                 label_draw_dsc.ofs_x = ext->offset.x + size.x +
1318:lvgl/src/lv_widgets/lv_label.c ****                                        lv_font_get_glyph_width(label_draw_dsc.font, ' ', ' ') * LV_
1319:lvgl/src/lv_widgets/lv_label.c ****                 label_draw_dsc.ofs_y = ext->offset.y;
1320:lvgl/src/lv_widgets/lv_label.c **** 
1321:lvgl/src/lv_widgets/lv_label.c ****                 lv_draw_label(&txt_coords, &txt_clip, &label_draw_dsc, ext->text, hint);
1322:lvgl/src/lv_widgets/lv_label.c ****             }
1323:lvgl/src/lv_widgets/lv_label.c **** 
1324:lvgl/src/lv_widgets/lv_label.c ****             /*Draw the text again below the original to make an circular effect */
1325:lvgl/src/lv_widgets/lv_label.c ****             if(size.y > lv_area_get_height(&txt_coords)) {
1326:lvgl/src/lv_widgets/lv_label.c ****                 label_draw_dsc.ofs_x = ext->offset.x;
1327:lvgl/src/lv_widgets/lv_label.c ****                 label_draw_dsc.ofs_y = ext->offset.y + size.y + lv_font_get_line_height(label_draw_
1328:lvgl/src/lv_widgets/lv_label.c **** 
1329:lvgl/src/lv_widgets/lv_label.c ****                 lv_draw_label(&txt_coords, &txt_clip, &label_draw_dsc, ext->text, hint);
1330:lvgl/src/lv_widgets/lv_label.c ****             }
1331:lvgl/src/lv_widgets/lv_label.c ****         }
1332:lvgl/src/lv_widgets/lv_label.c ****     }
1333:lvgl/src/lv_widgets/lv_label.c **** 
1334:lvgl/src/lv_widgets/lv_label.c ****     return LV_DESIGN_RES_OK;
1335:lvgl/src/lv_widgets/lv_label.c **** }
1336:lvgl/src/lv_widgets/lv_label.c **** 
1337:lvgl/src/lv_widgets/lv_label.c **** /**
1338:lvgl/src/lv_widgets/lv_label.c ****  * Signal function of the label
1339:lvgl/src/lv_widgets/lv_label.c ****  * @param label pointer to a label object
1340:lvgl/src/lv_widgets/lv_label.c ****  * @param sign a signal type from lv_signal_t enum
1341:lvgl/src/lv_widgets/lv_label.c ****  * @param param pointer to a signal specific variable
ARM GAS  D:\Temp\cclLOIfg.s 			page 25


1342:lvgl/src/lv_widgets/lv_label.c ****  * @return LV_RES_OK: the object is not deleted in the function; LV_RES_INV: the object is deleted
1343:lvgl/src/lv_widgets/lv_label.c ****  */
1344:lvgl/src/lv_widgets/lv_label.c **** static lv_res_t lv_label_signal(lv_obj_t * label, lv_signal_t sign, void * param)
1345:lvgl/src/lv_widgets/lv_label.c **** {
1346:lvgl/src/lv_widgets/lv_label.c ****     lv_res_t res;
1347:lvgl/src/lv_widgets/lv_label.c **** 
1348:lvgl/src/lv_widgets/lv_label.c ****     if(sign == LV_SIGNAL_GET_STYLE) {
1349:lvgl/src/lv_widgets/lv_label.c ****         lv_get_style_info_t * info = param;
1350:lvgl/src/lv_widgets/lv_label.c ****         info->result = lv_label_get_style(label, info->part);
1351:lvgl/src/lv_widgets/lv_label.c ****         if(info->result != NULL) return LV_RES_OK;
1352:lvgl/src/lv_widgets/lv_label.c ****         else return ancestor_signal(label, sign, param);
1353:lvgl/src/lv_widgets/lv_label.c ****     }
1354:lvgl/src/lv_widgets/lv_label.c **** 
1355:lvgl/src/lv_widgets/lv_label.c ****     /* Include the ancient signal function */
1356:lvgl/src/lv_widgets/lv_label.c ****     res = ancestor_signal(label, sign, param);
1357:lvgl/src/lv_widgets/lv_label.c ****     if(res != LV_RES_OK) return res;
1358:lvgl/src/lv_widgets/lv_label.c ****     if(sign == LV_SIGNAL_GET_TYPE) return lv_obj_handle_get_type_signal(param, LV_OBJX_NAME);
1359:lvgl/src/lv_widgets/lv_label.c **** 
1360:lvgl/src/lv_widgets/lv_label.c ****     lv_label_ext_t * ext = lv_obj_get_ext_attr(label);
1361:lvgl/src/lv_widgets/lv_label.c ****     if(sign == LV_SIGNAL_CLEANUP) {
1362:lvgl/src/lv_widgets/lv_label.c ****         if(ext->static_txt == 0) {
1363:lvgl/src/lv_widgets/lv_label.c ****             lv_mem_free(ext->text);
1364:lvgl/src/lv_widgets/lv_label.c ****             ext->text = NULL;
1365:lvgl/src/lv_widgets/lv_label.c ****         }
1366:lvgl/src/lv_widgets/lv_label.c ****         lv_label_dot_tmp_free(label);
1367:lvgl/src/lv_widgets/lv_label.c ****     }
1368:lvgl/src/lv_widgets/lv_label.c ****     else if(sign == LV_SIGNAL_STYLE_CHG) {
1369:lvgl/src/lv_widgets/lv_label.c ****         /*Revert dots for proper refresh*/
1370:lvgl/src/lv_widgets/lv_label.c ****         lv_label_revert_dots(label);
1371:lvgl/src/lv_widgets/lv_label.c ****         lv_label_refr_text(label);
1372:lvgl/src/lv_widgets/lv_label.c ****     }
1373:lvgl/src/lv_widgets/lv_label.c ****     else if(sign == LV_SIGNAL_COORD_CHG) {
1374:lvgl/src/lv_widgets/lv_label.c ****         if(lv_area_get_width(&label->coords) != lv_area_get_width(param) ||
1375:lvgl/src/lv_widgets/lv_label.c ****            lv_area_get_height(&label->coords) != lv_area_get_height(param)) {
1376:lvgl/src/lv_widgets/lv_label.c ****             lv_label_revert_dots(label);
1377:lvgl/src/lv_widgets/lv_label.c ****             lv_label_refr_text(label);
1378:lvgl/src/lv_widgets/lv_label.c ****         }
1379:lvgl/src/lv_widgets/lv_label.c ****     }
1380:lvgl/src/lv_widgets/lv_label.c ****     else if(sign == LV_SIGNAL_BASE_DIR_CHG) {
1381:lvgl/src/lv_widgets/lv_label.c **** #if LV_USE_BIDI
1382:lvgl/src/lv_widgets/lv_label.c ****         if(ext->static_txt == 0) lv_label_set_text(label, NULL);
1383:lvgl/src/lv_widgets/lv_label.c **** #endif
1384:lvgl/src/lv_widgets/lv_label.c ****     }
1385:lvgl/src/lv_widgets/lv_label.c ****     else if(sign == LV_SIGNAL_GET_TYPE) {
1386:lvgl/src/lv_widgets/lv_label.c ****         lv_obj_type_t * buf = param;
1387:lvgl/src/lv_widgets/lv_label.c ****         uint8_t i;
1388:lvgl/src/lv_widgets/lv_label.c ****         for(i = 0; i < LV_MAX_ANCESTOR_NUM - 1; i++) { /*Find the last set data*/
1389:lvgl/src/lv_widgets/lv_label.c ****             if(buf->type[i] == NULL) break;
1390:lvgl/src/lv_widgets/lv_label.c ****         }
1391:lvgl/src/lv_widgets/lv_label.c ****         buf->type[i] = "lv_label";
1392:lvgl/src/lv_widgets/lv_label.c ****     }
1393:lvgl/src/lv_widgets/lv_label.c **** 
1394:lvgl/src/lv_widgets/lv_label.c ****     return res;
1395:lvgl/src/lv_widgets/lv_label.c **** }
1396:lvgl/src/lv_widgets/lv_label.c **** 
1397:lvgl/src/lv_widgets/lv_label.c **** static void lv_label_revert_dots(lv_obj_t * label)
1398:lvgl/src/lv_widgets/lv_label.c **** {
ARM GAS  D:\Temp\cclLOIfg.s 			page 26


1399:lvgl/src/lv_widgets/lv_label.c ****     lv_label_ext_t * ext = lv_obj_get_ext_attr(label);
1400:lvgl/src/lv_widgets/lv_label.c ****     if(ext->long_mode != LV_LABEL_LONG_DOT) return;
1401:lvgl/src/lv_widgets/lv_label.c ****     if(ext->dot_end == LV_LABEL_DOT_END_INV) return;
1402:lvgl/src/lv_widgets/lv_label.c ****     uint32_t letter_i = ext->dot_end - LV_LABEL_DOT_NUM;
1403:lvgl/src/lv_widgets/lv_label.c ****     uint32_t byte_i   = _lv_txt_encoded_get_byte_id(ext->text, letter_i);
1404:lvgl/src/lv_widgets/lv_label.c **** 
1405:lvgl/src/lv_widgets/lv_label.c ****     /*Restore the characters*/
1406:lvgl/src/lv_widgets/lv_label.c ****     uint8_t i      = 0;
1407:lvgl/src/lv_widgets/lv_label.c ****     char * dot_tmp = lv_label_get_dot_tmp(label);
1408:lvgl/src/lv_widgets/lv_label.c ****     while(ext->text[byte_i + i] != '\0') {
1409:lvgl/src/lv_widgets/lv_label.c ****         ext->text[byte_i + i] = dot_tmp[i];
1410:lvgl/src/lv_widgets/lv_label.c ****         i++;
1411:lvgl/src/lv_widgets/lv_label.c ****     }
1412:lvgl/src/lv_widgets/lv_label.c ****     ext->text[byte_i + i] = dot_tmp[i];
1413:lvgl/src/lv_widgets/lv_label.c ****     lv_label_dot_tmp_free(label);
1414:lvgl/src/lv_widgets/lv_label.c **** 
1415:lvgl/src/lv_widgets/lv_label.c ****     ext->dot_end = LV_LABEL_DOT_END_INV;
1416:lvgl/src/lv_widgets/lv_label.c **** }
1417:lvgl/src/lv_widgets/lv_label.c **** 
1418:lvgl/src/lv_widgets/lv_label.c **** #if LV_USE_ANIMATION
1419:lvgl/src/lv_widgets/lv_label.c **** static void lv_label_set_offset_x(lv_obj_t * label, lv_coord_t x)
1420:lvgl/src/lv_widgets/lv_label.c **** {
1421:lvgl/src/lv_widgets/lv_label.c ****     lv_label_ext_t * ext = lv_obj_get_ext_attr(label);
1422:lvgl/src/lv_widgets/lv_label.c ****     ext->offset.x        = x;
1423:lvgl/src/lv_widgets/lv_label.c ****     lv_obj_invalidate(label);
1424:lvgl/src/lv_widgets/lv_label.c **** }
1425:lvgl/src/lv_widgets/lv_label.c **** 
1426:lvgl/src/lv_widgets/lv_label.c **** static void lv_label_set_offset_y(lv_obj_t * label, lv_coord_t y)
1427:lvgl/src/lv_widgets/lv_label.c **** {
1428:lvgl/src/lv_widgets/lv_label.c ****     lv_label_ext_t * ext = lv_obj_get_ext_attr(label);
1429:lvgl/src/lv_widgets/lv_label.c ****     ext->offset.y        = y;
1430:lvgl/src/lv_widgets/lv_label.c ****     lv_obj_invalidate(label);
1431:lvgl/src/lv_widgets/lv_label.c **** }
1432:lvgl/src/lv_widgets/lv_label.c **** #endif
1433:lvgl/src/lv_widgets/lv_label.c **** 
1434:lvgl/src/lv_widgets/lv_label.c **** /**
1435:lvgl/src/lv_widgets/lv_label.c ****  * Store `len` characters from `data`. Allocates space if necessary.
1436:lvgl/src/lv_widgets/lv_label.c ****  *
1437:lvgl/src/lv_widgets/lv_label.c ****  * @param label pointer to label object
1438:lvgl/src/lv_widgets/lv_label.c ****  * @param len Number of characters to store.
1439:lvgl/src/lv_widgets/lv_label.c ****  * @return true on success.
1440:lvgl/src/lv_widgets/lv_label.c ****  */
1441:lvgl/src/lv_widgets/lv_label.c **** static bool lv_label_set_dot_tmp(lv_obj_t * label, char * data, uint32_t len)
1442:lvgl/src/lv_widgets/lv_label.c **** {
1443:lvgl/src/lv_widgets/lv_label.c ****     lv_label_ext_t * ext = lv_obj_get_ext_attr(label);
1444:lvgl/src/lv_widgets/lv_label.c ****     lv_label_dot_tmp_free(label); /* Deallocate any existing space */
1445:lvgl/src/lv_widgets/lv_label.c ****     if(len > sizeof(char *)) {
1446:lvgl/src/lv_widgets/lv_label.c ****         /* Memory needs to be allocated. Allocates an additional byte
1447:lvgl/src/lv_widgets/lv_label.c ****          * for a NULL-terminator so it can be copied. */
1448:lvgl/src/lv_widgets/lv_label.c ****         ext->dot.tmp_ptr = lv_mem_alloc(len + 1);
1449:lvgl/src/lv_widgets/lv_label.c ****         if(ext->dot.tmp_ptr == NULL) {
1450:lvgl/src/lv_widgets/lv_label.c ****             LV_LOG_ERROR("Failed to allocate memory for dot_tmp_ptr");
1451:lvgl/src/lv_widgets/lv_label.c ****             return false;
1452:lvgl/src/lv_widgets/lv_label.c ****         }
1453:lvgl/src/lv_widgets/lv_label.c ****         _lv_memcpy(ext->dot.tmp_ptr, data, len);
1454:lvgl/src/lv_widgets/lv_label.c ****         ext->dot.tmp_ptr[len] = '\0';
1455:lvgl/src/lv_widgets/lv_label.c ****         ext->dot_tmp_alloc    = true;
ARM GAS  D:\Temp\cclLOIfg.s 			page 27


1456:lvgl/src/lv_widgets/lv_label.c ****     }
1457:lvgl/src/lv_widgets/lv_label.c ****     else {
1458:lvgl/src/lv_widgets/lv_label.c ****         /* Characters can be directly stored in object */
1459:lvgl/src/lv_widgets/lv_label.c ****         ext->dot_tmp_alloc = false;
1460:lvgl/src/lv_widgets/lv_label.c ****         _lv_memcpy(ext->dot.tmp, data, len);
1461:lvgl/src/lv_widgets/lv_label.c ****     }
1462:lvgl/src/lv_widgets/lv_label.c ****     return true;
1463:lvgl/src/lv_widgets/lv_label.c **** }
1464:lvgl/src/lv_widgets/lv_label.c **** 
1465:lvgl/src/lv_widgets/lv_label.c **** /**
1466:lvgl/src/lv_widgets/lv_label.c ****  * Get the stored dot_tmp characters
1467:lvgl/src/lv_widgets/lv_label.c ****  * @param label pointer to label object
1468:lvgl/src/lv_widgets/lv_label.c ****  * @return char pointer to a stored characters. Is *not* necessarily NULL-terminated.
1469:lvgl/src/lv_widgets/lv_label.c ****  */
1470:lvgl/src/lv_widgets/lv_label.c **** static char * lv_label_get_dot_tmp(lv_obj_t * label)
1471:lvgl/src/lv_widgets/lv_label.c **** {
  29              		.loc 1 1471 1 view -0
  30              		.cfi_startproc
  31              		@ args = 0, pretend = 0, frame = 0
  32              		@ frame_needed = 0, uses_anonymous_args = 0
  33              		.loc 1 1471 1 is_stmt 0 view .LVU1
  34 0000 08B5     		push	{r3, lr}
  35              	.LCFI0:
  36              		.cfi_def_cfa_offset 8
  37              		.cfi_offset 3, -8
  38              		.cfi_offset 14, -4
1472:lvgl/src/lv_widgets/lv_label.c ****     lv_label_ext_t * ext = lv_obj_get_ext_attr(label);
  39              		.loc 1 1472 5 is_stmt 1 view .LVU2
  40              		.loc 1 1472 28 is_stmt 0 view .LVU3
  41 0002 FFF7FEFF 		bl	lv_obj_get_ext_attr
  42              	.LVL1:
1473:lvgl/src/lv_widgets/lv_label.c ****     if(ext->dot_tmp_alloc) {
  43              		.loc 1 1473 5 is_stmt 1 view .LVU4
  44              		.loc 1 1473 8 is_stmt 0 view .LVU5
  45 0006 C37C     		ldrb	r3, [r0, #19]	@ zero_extendqisi2
  46              		.loc 1 1473 7 view .LVU6
  47 0008 13F0010F 		tst	r3, #1
  48 000c 01D0     		beq	.L2
1474:lvgl/src/lv_widgets/lv_label.c ****         return ext->dot.tmp_ptr;
  49              		.loc 1 1474 9 is_stmt 1 view .LVU7
  50              		.loc 1 1474 24 is_stmt 0 view .LVU8
  51 000e 4068     		ldr	r0, [r0, #4]
  52              	.LVL2:
  53              	.L1:
1475:lvgl/src/lv_widgets/lv_label.c ****     }
1476:lvgl/src/lv_widgets/lv_label.c ****     else {
1477:lvgl/src/lv_widgets/lv_label.c ****         return ext->dot.tmp;
1478:lvgl/src/lv_widgets/lv_label.c ****     }
1479:lvgl/src/lv_widgets/lv_label.c **** }
  54              		.loc 1 1479 1 view .LVU9
  55 0010 08BD     		pop	{r3, pc}
  56              	.LVL3:
  57              	.L2:
1477:lvgl/src/lv_widgets/lv_label.c ****     }
  58              		.loc 1 1477 9 is_stmt 1 view .LVU10
1477:lvgl/src/lv_widgets/lv_label.c ****     }
  59              		.loc 1 1477 16 is_stmt 0 view .LVU11
ARM GAS  D:\Temp\cclLOIfg.s 			page 28


  60 0012 0430     		adds	r0, r0, #4
  61              	.LVL4:
1477:lvgl/src/lv_widgets/lv_label.c ****     }
  62              		.loc 1 1477 16 view .LVU12
  63 0014 FCE7     		b	.L1
  64              		.cfi_endproc
  65              	.LFE488:
  67              		.section	.text.lv_label_dot_tmp_free,"ax",%progbits
  68              		.align	1
  69              		.syntax unified
  70              		.thumb
  71              		.thumb_func
  72              		.fpu fpv4-sp-d16
  74              	lv_label_dot_tmp_free:
  75              	.LVL5:
  76              	.LFB489:
1480:lvgl/src/lv_widgets/lv_label.c **** 
1481:lvgl/src/lv_widgets/lv_label.c **** /**
1482:lvgl/src/lv_widgets/lv_label.c ****  * Free the dot_tmp_ptr field if it was previously allocated.
1483:lvgl/src/lv_widgets/lv_label.c ****  * Always clears the field
1484:lvgl/src/lv_widgets/lv_label.c ****  * @param label pointer to label object.
1485:lvgl/src/lv_widgets/lv_label.c ****  */
1486:lvgl/src/lv_widgets/lv_label.c **** static void lv_label_dot_tmp_free(lv_obj_t * label)
1487:lvgl/src/lv_widgets/lv_label.c **** {
  77              		.loc 1 1487 1 is_stmt 1 view -0
  78              		.cfi_startproc
  79              		@ args = 0, pretend = 0, frame = 0
  80              		@ frame_needed = 0, uses_anonymous_args = 0
  81              		.loc 1 1487 1 is_stmt 0 view .LVU14
  82 0000 10B5     		push	{r4, lr}
  83              	.LCFI1:
  84              		.cfi_def_cfa_offset 8
  85              		.cfi_offset 4, -8
  86              		.cfi_offset 14, -4
1488:lvgl/src/lv_widgets/lv_label.c ****     lv_label_ext_t * ext = lv_obj_get_ext_attr(label);
  87              		.loc 1 1488 5 is_stmt 1 view .LVU15
  88              		.loc 1 1488 28 is_stmt 0 view .LVU16
  89 0002 FFF7FEFF 		bl	lv_obj_get_ext_attr
  90              	.LVL6:
  91              		.loc 1 1488 28 view .LVU17
  92 0006 0446     		mov	r4, r0
  93              	.LVL7:
1489:lvgl/src/lv_widgets/lv_label.c ****     if(ext->dot_tmp_alloc && ext->dot.tmp_ptr) {
  94              		.loc 1 1489 5 is_stmt 1 view .LVU18
  95              		.loc 1 1489 8 is_stmt 0 view .LVU19
  96 0008 C37C     		ldrb	r3, [r0, #19]	@ zero_extendqisi2
  97              		.loc 1 1489 7 view .LVU20
  98 000a 13F0010F 		tst	r3, #1
  99 000e 03D0     		beq	.L6
 100              		.loc 1 1489 38 discriminator 1 view .LVU21
 101 0010 4068     		ldr	r0, [r0, #4]
 102              	.LVL8:
 103              		.loc 1 1489 27 discriminator 1 view .LVU22
 104 0012 08B1     		cbz	r0, .L6
1490:lvgl/src/lv_widgets/lv_label.c ****         lv_mem_free(ext->dot.tmp_ptr);
 105              		.loc 1 1490 9 is_stmt 1 view .LVU23
 106 0014 FFF7FEFF 		bl	lv_mem_free
ARM GAS  D:\Temp\cclLOIfg.s 			page 29


 107              	.LVL9:
 108              	.L6:
1491:lvgl/src/lv_widgets/lv_label.c ****     }
1492:lvgl/src/lv_widgets/lv_label.c ****     ext->dot_tmp_alloc = false;
 109              		.loc 1 1492 5 view .LVU24
 110              		.loc 1 1492 24 is_stmt 0 view .LVU25
 111 0018 E37C     		ldrb	r3, [r4, #19]	@ zero_extendqisi2
 112 001a 6FF30003 		bfc	r3, #0, #1
 113 001e E374     		strb	r3, [r4, #19]
1493:lvgl/src/lv_widgets/lv_label.c ****     ext->dot.tmp_ptr   = NULL;
 114              		.loc 1 1493 5 is_stmt 1 view .LVU26
 115              		.loc 1 1493 24 is_stmt 0 view .LVU27
 116 0020 0023     		movs	r3, #0
 117 0022 6360     		str	r3, [r4, #4]
1494:lvgl/src/lv_widgets/lv_label.c **** }
 118              		.loc 1 1494 1 view .LVU28
 119 0024 10BD     		pop	{r4, pc}
 120              		.loc 1 1494 1 view .LVU29
 121              		.cfi_endproc
 122              	.LFE489:
 124              		.section	.text.lv_label_revert_dots,"ax",%progbits
 125              		.align	1
 126              		.syntax unified
 127              		.thumb
 128              		.thumb_func
 129              		.fpu fpv4-sp-d16
 131              	lv_label_revert_dots:
 132              	.LVL10:
 133              	.LFB484:
1398:lvgl/src/lv_widgets/lv_label.c ****     lv_label_ext_t * ext = lv_obj_get_ext_attr(label);
 134              		.loc 1 1398 1 is_stmt 1 view -0
 135              		.cfi_startproc
 136              		@ args = 0, pretend = 0, frame = 0
 137              		@ frame_needed = 0, uses_anonymous_args = 0
1398:lvgl/src/lv_widgets/lv_label.c ****     lv_label_ext_t * ext = lv_obj_get_ext_attr(label);
 138              		.loc 1 1398 1 is_stmt 0 view .LVU31
 139 0000 F8B5     		push	{r3, r4, r5, r6, r7, lr}
 140              	.LCFI2:
 141              		.cfi_def_cfa_offset 24
 142              		.cfi_offset 3, -24
 143              		.cfi_offset 4, -20
 144              		.cfi_offset 5, -16
 145              		.cfi_offset 6, -12
 146              		.cfi_offset 7, -8
 147              		.cfi_offset 14, -4
 148 0002 0746     		mov	r7, r0
1399:lvgl/src/lv_widgets/lv_label.c ****     if(ext->long_mode != LV_LABEL_LONG_DOT) return;
 149              		.loc 1 1399 5 is_stmt 1 view .LVU32
1399:lvgl/src/lv_widgets/lv_label.c ****     if(ext->long_mode != LV_LABEL_LONG_DOT) return;
 150              		.loc 1 1399 28 is_stmt 0 view .LVU33
 151 0004 FFF7FEFF 		bl	lv_obj_get_ext_attr
 152              	.LVL11:
1400:lvgl/src/lv_widgets/lv_label.c ****     if(ext->dot_end == LV_LABEL_DOT_END_INV) return;
 153              		.loc 1 1400 5 is_stmt 1 view .LVU34
1400:lvgl/src/lv_widgets/lv_label.c ****     if(ext->dot_end == LV_LABEL_DOT_END_INV) return;
 154              		.loc 1 1400 23 is_stmt 0 view .LVU35
 155 0008 837C     		ldrb	r3, [r0, #18]	@ zero_extendqisi2
ARM GAS  D:\Temp\cclLOIfg.s 			page 30


 156 000a 03F00703 		and	r3, r3, #7
1400:lvgl/src/lv_widgets/lv_label.c ****     if(ext->dot_end == LV_LABEL_DOT_END_INV) return;
 157              		.loc 1 1400 7 view .LVU36
 158 000e 022B     		cmp	r3, #2
 159 0010 23D1     		bne	.L8
 160 0012 0546     		mov	r5, r0
1401:lvgl/src/lv_widgets/lv_label.c ****     uint32_t letter_i = ext->dot_end - LV_LABEL_DOT_NUM;
 161              		.loc 1 1401 5 is_stmt 1 view .LVU37
1401:lvgl/src/lv_widgets/lv_label.c ****     uint32_t letter_i = ext->dot_end - LV_LABEL_DOT_NUM;
 162              		.loc 1 1401 11 is_stmt 0 view .LVU38
 163 0014 8168     		ldr	r1, [r0, #8]
1401:lvgl/src/lv_widgets/lv_label.c ****     uint32_t letter_i = ext->dot_end - LV_LABEL_DOT_NUM;
 164              		.loc 1 1401 7 view .LVU39
 165 0016 4FF6FF73 		movw	r3, #65535
 166 001a 9942     		cmp	r1, r3
 167 001c 1DD0     		beq	.L8
1402:lvgl/src/lv_widgets/lv_label.c ****     uint32_t byte_i   = _lv_txt_encoded_get_byte_id(ext->text, letter_i);
 168              		.loc 1 1402 5 is_stmt 1 view .LVU40
 169              	.LVL12:
1403:lvgl/src/lv_widgets/lv_label.c **** 
 170              		.loc 1 1403 5 view .LVU41
1403:lvgl/src/lv_widgets/lv_label.c **** 
 171              		.loc 1 1403 25 is_stmt 0 view .LVU42
 172 001e 0F4B     		ldr	r3, .L14
 173 0020 1B68     		ldr	r3, [r3]
 174 0022 0339     		subs	r1, r1, #3
 175              	.LVL13:
1403:lvgl/src/lv_widgets/lv_label.c **** 
 176              		.loc 1 1403 25 view .LVU43
 177 0024 0068     		ldr	r0, [r0]
 178              	.LVL14:
1403:lvgl/src/lv_widgets/lv_label.c **** 
 179              		.loc 1 1403 25 view .LVU44
 180 0026 9847     		blx	r3
 181              	.LVL15:
1403:lvgl/src/lv_widgets/lv_label.c **** 
 182              		.loc 1 1403 25 view .LVU45
 183 0028 0646     		mov	r6, r0
 184              	.LVL16:
1406:lvgl/src/lv_widgets/lv_label.c ****     char * dot_tmp = lv_label_get_dot_tmp(label);
 185              		.loc 1 1406 5 is_stmt 1 view .LVU46
1407:lvgl/src/lv_widgets/lv_label.c ****     while(ext->text[byte_i + i] != '\0') {
 186              		.loc 1 1407 5 view .LVU47
1407:lvgl/src/lv_widgets/lv_label.c ****     while(ext->text[byte_i + i] != '\0') {
 187              		.loc 1 1407 22 is_stmt 0 view .LVU48
 188 002a 3846     		mov	r0, r7
 189              	.LVL17:
1407:lvgl/src/lv_widgets/lv_label.c ****     while(ext->text[byte_i + i] != '\0') {
 190              		.loc 1 1407 22 view .LVU49
 191 002c FFF7FEFF 		bl	lv_label_get_dot_tmp
 192              	.LVL18:
1408:lvgl/src/lv_widgets/lv_label.c ****         ext->text[byte_i + i] = dot_tmp[i];
 193              		.loc 1 1408 5 is_stmt 1 view .LVU50
1406:lvgl/src/lv_widgets/lv_label.c ****     char * dot_tmp = lv_label_get_dot_tmp(label);
 194              		.loc 1 1406 13 is_stmt 0 view .LVU51
 195 0030 0023     		movs	r3, #0
 196              	.LVL19:
ARM GAS  D:\Temp\cclLOIfg.s 			page 31


 197              	.L10:
1408:lvgl/src/lv_widgets/lv_label.c ****         ext->text[byte_i + i] = dot_tmp[i];
 198              		.loc 1 1408 14 view .LVU52
 199 0032 2968     		ldr	r1, [r5]
1408:lvgl/src/lv_widgets/lv_label.c ****         ext->text[byte_i + i] = dot_tmp[i];
 200              		.loc 1 1408 28 view .LVU53
 201 0034 9A19     		adds	r2, r3, r6
1408:lvgl/src/lv_widgets/lv_label.c ****         ext->text[byte_i + i] = dot_tmp[i];
 202              		.loc 1 1408 20 view .LVU54
 203 0036 01EB020C 		add	ip, r1, r2
 204 003a 8C5C     		ldrb	r4, [r1, r2]	@ zero_extendqisi2
1408:lvgl/src/lv_widgets/lv_label.c ****         ext->text[byte_i + i] = dot_tmp[i];
 205              		.loc 1 1408 10 view .LVU55
 206 003c 24B1     		cbz	r4, .L13
1409:lvgl/src/lv_widgets/lv_label.c ****         i++;
 207              		.loc 1 1409 9 is_stmt 1 view .LVU56
1409:lvgl/src/lv_widgets/lv_label.c ****         i++;
 208              		.loc 1 1409 40 is_stmt 0 view .LVU57
 209 003e C45C     		ldrb	r4, [r0, r3]	@ zero_extendqisi2
1409:lvgl/src/lv_widgets/lv_label.c ****         i++;
 210              		.loc 1 1409 31 view .LVU58
 211 0040 8C54     		strb	r4, [r1, r2]
1410:lvgl/src/lv_widgets/lv_label.c ****     }
 212              		.loc 1 1410 9 is_stmt 1 view .LVU59
1410:lvgl/src/lv_widgets/lv_label.c ****     }
 213              		.loc 1 1410 10 is_stmt 0 view .LVU60
 214 0042 0133     		adds	r3, r3, #1
 215              	.LVL20:
1410:lvgl/src/lv_widgets/lv_label.c ****     }
 216              		.loc 1 1410 10 view .LVU61
 217 0044 DBB2     		uxtb	r3, r3
 218              	.LVL21:
1410:lvgl/src/lv_widgets/lv_label.c ****     }
 219              		.loc 1 1410 10 view .LVU62
 220 0046 F4E7     		b	.L10
 221              	.L13:
1412:lvgl/src/lv_widgets/lv_label.c ****     lv_label_dot_tmp_free(label);
 222              		.loc 1 1412 5 is_stmt 1 view .LVU63
1412:lvgl/src/lv_widgets/lv_label.c ****     lv_label_dot_tmp_free(label);
 223              		.loc 1 1412 36 is_stmt 0 view .LVU64
 224 0048 C35C     		ldrb	r3, [r0, r3]	@ zero_extendqisi2
 225              	.LVL22:
1412:lvgl/src/lv_widgets/lv_label.c ****     lv_label_dot_tmp_free(label);
 226              		.loc 1 1412 27 view .LVU65
 227 004a 8CF80030 		strb	r3, [ip]
1413:lvgl/src/lv_widgets/lv_label.c **** 
 228              		.loc 1 1413 5 is_stmt 1 view .LVU66
 229 004e 3846     		mov	r0, r7
 230              	.LVL23:
1413:lvgl/src/lv_widgets/lv_label.c **** 
 231              		.loc 1 1413 5 is_stmt 0 view .LVU67
 232 0050 FFF7FEFF 		bl	lv_label_dot_tmp_free
 233              	.LVL24:
1415:lvgl/src/lv_widgets/lv_label.c **** }
 234              		.loc 1 1415 5 is_stmt 1 view .LVU68
1415:lvgl/src/lv_widgets/lv_label.c **** }
 235              		.loc 1 1415 18 is_stmt 0 view .LVU69
ARM GAS  D:\Temp\cclLOIfg.s 			page 32


 236 0054 4FF6FF73 		movw	r3, #65535
 237 0058 AB60     		str	r3, [r5, #8]
 238              	.LVL25:
 239              	.L8:
1416:lvgl/src/lv_widgets/lv_label.c **** 
 240              		.loc 1 1416 1 view .LVU70
 241 005a F8BD     		pop	{r3, r4, r5, r6, r7, pc}
 242              	.LVL26:
 243              	.L15:
1416:lvgl/src/lv_widgets/lv_label.c **** 
 244              		.loc 1 1416 1 view .LVU71
 245              		.align	2
 246              	.L14:
 247 005c 00000000 		.word	_lv_txt_encoded_get_byte_id
 248              		.cfi_endproc
 249              	.LFE484:
 251              		.section	.text.get_txt_coords,"ax",%progbits
 252              		.align	1
 253              		.syntax unified
 254              		.thumb
 255              		.thumb_func
 256              		.fpu fpv4-sp-d16
 258              	get_txt_coords:
 259              	.LVL27:
 260              	.LFB490:
1495:lvgl/src/lv_widgets/lv_label.c **** 
1496:lvgl/src/lv_widgets/lv_label.c **** static void get_txt_coords(const lv_obj_t * label, lv_area_t * area)
1497:lvgl/src/lv_widgets/lv_label.c **** {
 261              		.loc 1 1497 1 is_stmt 1 view -0
 262              		.cfi_startproc
 263              		@ args = 0, pretend = 0, frame = 0
 264              		@ frame_needed = 0, uses_anonymous_args = 0
 265              		.loc 1 1497 1 is_stmt 0 view .LVU73
 266 0000 2DE9F041 		push	{r4, r5, r6, r7, r8, lr}
 267              	.LCFI3:
 268              		.cfi_def_cfa_offset 24
 269              		.cfi_offset 4, -24
 270              		.cfi_offset 5, -20
 271              		.cfi_offset 6, -16
 272              		.cfi_offset 7, -12
 273              		.cfi_offset 8, -8
 274              		.cfi_offset 14, -4
 275 0004 0546     		mov	r5, r0
 276 0006 0C46     		mov	r4, r1
1498:lvgl/src/lv_widgets/lv_label.c ****     lv_obj_get_coords(label, area);
 277              		.loc 1 1498 5 is_stmt 1 view .LVU74
 278 0008 FFF7FEFF 		bl	lv_obj_get_coords
 279              	.LVL28:
1499:lvgl/src/lv_widgets/lv_label.c **** 
1500:lvgl/src/lv_widgets/lv_label.c ****     lv_coord_t left   = lv_obj_get_style_pad_left(label, LV_LABEL_PART_MAIN);
 280              		.loc 1 1500 5 view .LVU75
 281              	.LBB192:
 282              	.LBI192:
 283              		.file 2 "lvgl/src/lv_widgets/../lv_core/lv_obj_style_dec.h"
   1:lvgl/src/lv_widgets/../lv_core/lv_obj_style_dec.h **** 
   2:lvgl/src/lv_widgets/../lv_core/lv_obj_style_dec.h **** /**
   3:lvgl/src/lv_widgets/../lv_core/lv_obj_style_dec.h ****  * @file lv_obj_style_dec.h
ARM GAS  D:\Temp\cclLOIfg.s 			page 33


   4:lvgl/src/lv_widgets/../lv_core/lv_obj_style_dec.h ****  *
   5:lvgl/src/lv_widgets/../lv_core/lv_obj_style_dec.h ****  */
   6:lvgl/src/lv_widgets/../lv_core/lv_obj_style_dec.h **** 
   7:lvgl/src/lv_widgets/../lv_core/lv_obj_style_dec.h **** #ifndef LV_OBJ_STYLE_DEC_H
   8:lvgl/src/lv_widgets/../lv_core/lv_obj_style_dec.h **** #define LV_OBJ_STYLE_DEC_H
   9:lvgl/src/lv_widgets/../lv_core/lv_obj_style_dec.h **** 
  10:lvgl/src/lv_widgets/../lv_core/lv_obj_style_dec.h **** #ifdef __cplusplus
  11:lvgl/src/lv_widgets/../lv_core/lv_obj_style_dec.h **** extern "C" {
  12:lvgl/src/lv_widgets/../lv_core/lv_obj_style_dec.h **** #endif
  13:lvgl/src/lv_widgets/../lv_core/lv_obj_style_dec.h **** 
  14:lvgl/src/lv_widgets/../lv_core/lv_obj_style_dec.h **** /*********************
  15:lvgl/src/lv_widgets/../lv_core/lv_obj_style_dec.h ****  *      DEFINES
  16:lvgl/src/lv_widgets/../lv_core/lv_obj_style_dec.h ****  *********************/
  17:lvgl/src/lv_widgets/../lv_core/lv_obj_style_dec.h **** 
  18:lvgl/src/lv_widgets/../lv_core/lv_obj_style_dec.h **** /**
  19:lvgl/src/lv_widgets/../lv_core/lv_obj_style_dec.h ****  * Macro to declare the most important style set/get API functions.
  20:lvgl/src/lv_widgets/../lv_core/lv_obj_style_dec.h ****  *
  21:lvgl/src/lv_widgets/../lv_core/lv_obj_style_dec.h ****  * Get the value of a style property from an object in the object's current state
  22:lvgl/src/lv_widgets/../lv_core/lv_obj_style_dec.h ****  * -----------------------------------------------------------------------------
  23:lvgl/src/lv_widgets/../lv_core/lv_obj_style_dec.h ****  *  - Get the value of a style property from an object in the object's current state.
  24:lvgl/src/lv_widgets/../lv_core/lv_obj_style_dec.h ****  *  - Transition animation is taken into account.
  25:lvgl/src/lv_widgets/../lv_core/lv_obj_style_dec.h ****  *  - If the property is not set in the object's styles check the parent(s) if the property can be 
  26:lvgl/src/lv_widgets/../lv_core/lv_obj_style_dec.h ****  *  - If still not found return a default value.
  27:lvgl/src/lv_widgets/../lv_core/lv_obj_style_dec.h ****  *  - For example:
  28:lvgl/src/lv_widgets/../lv_core/lv_obj_style_dec.h ****  *      `lv_style_int_t w = lv_obj_get_style_border_width(btn1, LV_BTN_PART_MAIN);`
  29:lvgl/src/lv_widgets/../lv_core/lv_obj_style_dec.h ****  *
  30:lvgl/src/lv_widgets/../lv_core/lv_obj_style_dec.h ****  * Set a local style property for an object in a given state
  31:lvgl/src/lv_widgets/../lv_core/lv_obj_style_dec.h ****  * ---------------------------------------------------------
  32:lvgl/src/lv_widgets/../lv_core/lv_obj_style_dec.h ****  *  - For example:
  33:lvgl/src/lv_widgets/../lv_core/lv_obj_style_dec.h ****  *      `lv_obj_set_style_local_border_width(btn1, LV_BTN_PART_MAIN, LV_STATE_PRESSED, 2);`
  34:lvgl/src/lv_widgets/../lv_core/lv_obj_style_dec.h ****  *
  35:lvgl/src/lv_widgets/../lv_core/lv_obj_style_dec.h ****  * Get a local style property's value of an object in a given state
  36:lvgl/src/lv_widgets/../lv_core/lv_obj_style_dec.h ****  * ----------------------------------------------------------------
  37:lvgl/src/lv_widgets/../lv_core/lv_obj_style_dec.h ****  *  - Return the best matching property in the given state.
  38:lvgl/src/lv_widgets/../lv_core/lv_obj_style_dec.h ****  *  - E.g. if `state` parameter is LV_STATE_PRESSED | LV_STATE_CHECKED` but the property defined on
  39:lvgl/src/lv_widgets/../lv_core/lv_obj_style_dec.h ****  *    `LV_STATE_PRESSED` and `LV_STATE_DEFAULT` the best matching state is `LV_STATE_PRESSED`
  40:lvgl/src/lv_widgets/../lv_core/lv_obj_style_dec.h ****  *    (because it has higher precedence) and it will be returned.
  41:lvgl/src/lv_widgets/../lv_core/lv_obj_style_dec.h ****  *  - If the property is not found even in `LV_STATE_DEFAULT` `-1` is returned.
  42:lvgl/src/lv_widgets/../lv_core/lv_obj_style_dec.h ****  *  - For example:
  43:lvgl/src/lv_widgets/../lv_core/lv_obj_style_dec.h ****  *      `//Type of result should be lv_style_int_t/lv_opa_t/lv_color_t/const void * according to th
  44:lvgl/src/lv_widgets/../lv_core/lv_obj_style_dec.h ****  *      `lv_style_int_t result;`
  45:lvgl/src/lv_widgets/../lv_core/lv_obj_style_dec.h ****  *      `lv_obj_get_style_local_border_width(btn1, LV_BTN_PART_MAIN, LV_STATE_PRESSED, &result);`
  46:lvgl/src/lv_widgets/../lv_core/lv_obj_style_dec.h ****  *      `if(weight > 0) ...the property is found and loaded into result...`
  47:lvgl/src/lv_widgets/../lv_core/lv_obj_style_dec.h ****  *
  48:lvgl/src/lv_widgets/../lv_core/lv_obj_style_dec.h ****  * Get the value from a style in a given state
  49:lvgl/src/lv_widgets/../lv_core/lv_obj_style_dec.h ****  * -------------------------------------------
  50:lvgl/src/lv_widgets/../lv_core/lv_obj_style_dec.h ****  * - The same rules applies to the return value then for "lv_obj_get_style_local_...()" above
  51:lvgl/src/lv_widgets/../lv_core/lv_obj_style_dec.h ****  * - For example
  52:lvgl/src/lv_widgets/../lv_core/lv_obj_style_dec.h ****  *      `int16_t weight = lv_style_get_border_width(&style1, LV_STATE_PRESSED, &result);`
  53:lvgl/src/lv_widgets/../lv_core/lv_obj_style_dec.h ****  *      `if(weight > 0) ...the property is found and loaded into result...`
  54:lvgl/src/lv_widgets/../lv_core/lv_obj_style_dec.h **** 
  55:lvgl/src/lv_widgets/../lv_core/lv_obj_style_dec.h ****  * Set a value in a style in a given state
  56:lvgl/src/lv_widgets/../lv_core/lv_obj_style_dec.h ****  * ---------------------------------------
  57:lvgl/src/lv_widgets/../lv_core/lv_obj_style_dec.h ****  * - For example
  58:lvgl/src/lv_widgets/../lv_core/lv_obj_style_dec.h ****  *      `lv_style_set_border_width(&style1, LV_STATE_PRESSED, 2);`
  59:lvgl/src/lv_widgets/../lv_core/lv_obj_style_dec.h ****  */
  60:lvgl/src/lv_widgets/../lv_core/lv_obj_style_dec.h **** 
ARM GAS  D:\Temp\cclLOIfg.s 			page 34


  61:lvgl/src/lv_widgets/../lv_core/lv_obj_style_dec.h **** #define _OBJ_GET_STYLE_scalar(prop_name, func_name, value_type, style_type)                        
  62:lvgl/src/lv_widgets/../lv_core/lv_obj_style_dec.h ****     static inline value_type lv_obj_get_style_##func_name (const lv_obj_t * obj, uint8_t part)     
  63:lvgl/src/lv_widgets/../lv_core/lv_obj_style_dec.h ****     {                                                                                              
  64:lvgl/src/lv_widgets/../lv_core/lv_obj_style_dec.h ****         return (value_type) _lv_obj_get_style##style_type (obj, part, LV_STYLE_##prop_name);       
  65:lvgl/src/lv_widgets/../lv_core/lv_obj_style_dec.h ****     }
  66:lvgl/src/lv_widgets/../lv_core/lv_obj_style_dec.h **** 
  67:lvgl/src/lv_widgets/../lv_core/lv_obj_style_dec.h **** #define _OBJ_GET_STYLE_nonscalar(prop_name, func_name, value_type, style_type)                     
  68:lvgl/src/lv_widgets/../lv_core/lv_obj_style_dec.h ****     static inline value_type lv_obj_get_style_##func_name (const lv_obj_t * obj, uint8_t part)     
  69:lvgl/src/lv_widgets/../lv_core/lv_obj_style_dec.h ****     {                                                                                              
  70:lvgl/src/lv_widgets/../lv_core/lv_obj_style_dec.h ****         return _lv_obj_get_style##style_type (obj, part, LV_STYLE_##prop_name);                    
  71:lvgl/src/lv_widgets/../lv_core/lv_obj_style_dec.h ****     }
  72:lvgl/src/lv_widgets/../lv_core/lv_obj_style_dec.h **** 
  73:lvgl/src/lv_widgets/../lv_core/lv_obj_style_dec.h **** #define _OBJ_SET_STYLE_LOCAL_scalar(prop_name, func_name, value_type, style_type)                  
  74:lvgl/src/lv_widgets/../lv_core/lv_obj_style_dec.h ****     static inline void lv_obj_set_style_local_##func_name (lv_obj_t * obj, uint8_t part, lv_state_t
  75:lvgl/src/lv_widgets/../lv_core/lv_obj_style_dec.h ****     {                                                                                              
  76:lvgl/src/lv_widgets/../lv_core/lv_obj_style_dec.h ****         _lv_obj_set_style_local##style_type (obj, part, LV_STYLE_##prop_name | (state << LV_STYLE_S
  77:lvgl/src/lv_widgets/../lv_core/lv_obj_style_dec.h ****     }
  78:lvgl/src/lv_widgets/../lv_core/lv_obj_style_dec.h **** 
  79:lvgl/src/lv_widgets/../lv_core/lv_obj_style_dec.h **** #define _OBJ_SET_STYLE_LOCAL_nonscalar(prop_name, func_name, value_type, style_type)               
  80:lvgl/src/lv_widgets/../lv_core/lv_obj_style_dec.h ****     static inline void lv_obj_set_style_local_##func_name (lv_obj_t * obj, uint8_t part, lv_state_t
  81:lvgl/src/lv_widgets/../lv_core/lv_obj_style_dec.h ****     {                                                                                              
  82:lvgl/src/lv_widgets/../lv_core/lv_obj_style_dec.h ****         _lv_obj_set_style_local##style_type (obj, part, LV_STYLE_##prop_name | (state << LV_STYLE_S
  83:lvgl/src/lv_widgets/../lv_core/lv_obj_style_dec.h ****     }
  84:lvgl/src/lv_widgets/../lv_core/lv_obj_style_dec.h **** 
  85:lvgl/src/lv_widgets/../lv_core/lv_obj_style_dec.h **** #define _OBJ_SET_STYLE_scalar(prop_name, func_name, value_type, style_type)                        
  86:lvgl/src/lv_widgets/../lv_core/lv_obj_style_dec.h ****     static inline void lv_style_set_##func_name (lv_style_t * style, lv_state_t state, value_type v
  87:lvgl/src/lv_widgets/../lv_core/lv_obj_style_dec.h ****     {                                                                                              
  88:lvgl/src/lv_widgets/../lv_core/lv_obj_style_dec.h ****         _lv_style_set##style_type (style, LV_STYLE_##prop_name | (state << LV_STYLE_STATE_POS), val
  89:lvgl/src/lv_widgets/../lv_core/lv_obj_style_dec.h ****     }
  90:lvgl/src/lv_widgets/../lv_core/lv_obj_style_dec.h **** 
  91:lvgl/src/lv_widgets/../lv_core/lv_obj_style_dec.h **** #define _OBJ_SET_STYLE_nonscalar(prop_name, func_name, value_type, style_type)                     
  92:lvgl/src/lv_widgets/../lv_core/lv_obj_style_dec.h ****     static inline void lv_style_set_##func_name (lv_style_t * style, lv_state_t state, value_type v
  93:lvgl/src/lv_widgets/../lv_core/lv_obj_style_dec.h ****     {                                                                                              
  94:lvgl/src/lv_widgets/../lv_core/lv_obj_style_dec.h ****         _lv_style_set##style_type (style, LV_STYLE_##prop_name | (state << LV_STYLE_STATE_POS), val
  95:lvgl/src/lv_widgets/../lv_core/lv_obj_style_dec.h ****     }
  96:lvgl/src/lv_widgets/../lv_core/lv_obj_style_dec.h **** 
  97:lvgl/src/lv_widgets/../lv_core/lv_obj_style_dec.h **** #define _LV_OBJ_STYLE_SET_GET_DECLARE(prop_name, func_name, value_type, style_type, scalar)        
  98:lvgl/src/lv_widgets/../lv_core/lv_obj_style_dec.h ****     _OBJ_GET_STYLE_##scalar(prop_name, func_name, value_type, style_type)                          
  99:lvgl/src/lv_widgets/../lv_core/lv_obj_style_dec.h ****     _OBJ_SET_STYLE_LOCAL_##scalar(prop_name, func_name, value_type, style_type)                    
 100:lvgl/src/lv_widgets/../lv_core/lv_obj_style_dec.h ****     _OBJ_SET_STYLE_##scalar(prop_name, func_name, value_type, style_type)
 101:lvgl/src/lv_widgets/../lv_core/lv_obj_style_dec.h **** 
 102:lvgl/src/lv_widgets/../lv_core/lv_obj_style_dec.h **** _LV_OBJ_STYLE_SET_GET_DECLARE(RADIUS, radius, lv_style_int_t, _int, scalar)
 103:lvgl/src/lv_widgets/../lv_core/lv_obj_style_dec.h **** _LV_OBJ_STYLE_SET_GET_DECLARE(CLIP_CORNER, clip_corner, bool, _int, scalar)
 104:lvgl/src/lv_widgets/../lv_core/lv_obj_style_dec.h **** _LV_OBJ_STYLE_SET_GET_DECLARE(SIZE, size, lv_style_int_t, _int, scalar)
 105:lvgl/src/lv_widgets/../lv_core/lv_obj_style_dec.h **** _LV_OBJ_STYLE_SET_GET_DECLARE(TRANSFORM_WIDTH, transform_width, lv_style_int_t, _int, scalar)
 106:lvgl/src/lv_widgets/../lv_core/lv_obj_style_dec.h **** _LV_OBJ_STYLE_SET_GET_DECLARE(TRANSFORM_HEIGHT, transform_height, lv_style_int_t, _int, scalar)
 107:lvgl/src/lv_widgets/../lv_core/lv_obj_style_dec.h **** _LV_OBJ_STYLE_SET_GET_DECLARE(TRANSFORM_ANGLE, transform_angle, lv_style_int_t, _int, scalar)
 108:lvgl/src/lv_widgets/../lv_core/lv_obj_style_dec.h **** _LV_OBJ_STYLE_SET_GET_DECLARE(TRANSFORM_ZOOM, transform_zoom, lv_style_int_t, _int, scalar)
 109:lvgl/src/lv_widgets/../lv_core/lv_obj_style_dec.h **** _LV_OBJ_STYLE_SET_GET_DECLARE(OPA_SCALE, opa_scale, lv_opa_t, _opa, scalar)
 110:lvgl/src/lv_widgets/../lv_core/lv_obj_style_dec.h **** _LV_OBJ_STYLE_SET_GET_DECLARE(PAD_TOP, pad_top, lv_style_int_t, _int, scalar)
 111:lvgl/src/lv_widgets/../lv_core/lv_obj_style_dec.h **** _LV_OBJ_STYLE_SET_GET_DECLARE(PAD_BOTTOM, pad_bottom, lv_style_int_t, _int, scalar)
 112:lvgl/src/lv_widgets/../lv_core/lv_obj_style_dec.h **** _LV_OBJ_STYLE_SET_GET_DECLARE(PAD_LEFT, pad_left, lv_style_int_t, _int, scalar)
 284              		.loc 2 112 1 view .LVU76
 285              	.LBB193:
 286              		.loc 2 112 1 view .LVU77
 287 000c 1222     		movs	r2, #18
 288 000e 0021     		movs	r1, #0
ARM GAS  D:\Temp\cclLOIfg.s 			page 35


 289 0010 2846     		mov	r0, r5
 290 0012 FFF7FEFF 		bl	_lv_obj_get_style_int
 291              	.LVL29:
 292 0016 0746     		mov	r7, r0
 293              	.LVL30:
 294              		.loc 2 112 1 is_stmt 0 view .LVU78
 295              	.LBE193:
 296              	.LBE192:
1501:lvgl/src/lv_widgets/lv_label.c ****     lv_coord_t right  = lv_obj_get_style_pad_right(label, LV_LABEL_PART_MAIN);
 297              		.loc 1 1501 5 is_stmt 1 view .LVU79
 298              	.LBB194:
 299              	.LBI194:
 113:lvgl/src/lv_widgets/../lv_core/lv_obj_style_dec.h **** _LV_OBJ_STYLE_SET_GET_DECLARE(PAD_RIGHT, pad_right, lv_style_int_t, _int, scalar)
 300              		.loc 2 113 1 view .LVU80
 301              	.LBB195:
 302              		.loc 2 113 1 view .LVU81
 303 0018 1322     		movs	r2, #19
 304 001a 0021     		movs	r1, #0
 305 001c 2846     		mov	r0, r5
 306 001e FFF7FEFF 		bl	_lv_obj_get_style_int
 307              	.LVL31:
 308 0022 8046     		mov	r8, r0
 309              	.LVL32:
 310              		.loc 2 113 1 is_stmt 0 view .LVU82
 311              	.LBE195:
 312              	.LBE194:
1502:lvgl/src/lv_widgets/lv_label.c ****     lv_coord_t top    = lv_obj_get_style_pad_top(label, LV_LABEL_PART_MAIN);
 313              		.loc 1 1502 5 is_stmt 1 view .LVU83
 314              	.LBB196:
 315              	.LBI196:
 110:lvgl/src/lv_widgets/../lv_core/lv_obj_style_dec.h **** _LV_OBJ_STYLE_SET_GET_DECLARE(PAD_BOTTOM, pad_bottom, lv_style_int_t, _int, scalar)
 316              		.loc 2 110 1 view .LVU84
 317              	.LBB197:
 110:lvgl/src/lv_widgets/../lv_core/lv_obj_style_dec.h **** _LV_OBJ_STYLE_SET_GET_DECLARE(PAD_BOTTOM, pad_bottom, lv_style_int_t, _int, scalar)
 318              		.loc 2 110 1 view .LVU85
 319 0024 1022     		movs	r2, #16
 320 0026 0021     		movs	r1, #0
 321 0028 2846     		mov	r0, r5
 322 002a FFF7FEFF 		bl	_lv_obj_get_style_int
 323              	.LVL33:
 324 002e 0646     		mov	r6, r0
 325              	.LVL34:
 110:lvgl/src/lv_widgets/../lv_core/lv_obj_style_dec.h **** _LV_OBJ_STYLE_SET_GET_DECLARE(PAD_BOTTOM, pad_bottom, lv_style_int_t, _int, scalar)
 326              		.loc 2 110 1 is_stmt 0 view .LVU86
 327              	.LBE197:
 328              	.LBE196:
1503:lvgl/src/lv_widgets/lv_label.c ****     lv_coord_t bottom = lv_obj_get_style_pad_bottom(label, LV_LABEL_PART_MAIN);
 329              		.loc 1 1503 5 is_stmt 1 view .LVU87
 330              	.LBB198:
 331              	.LBI198:
 111:lvgl/src/lv_widgets/../lv_core/lv_obj_style_dec.h **** _LV_OBJ_STYLE_SET_GET_DECLARE(PAD_LEFT, pad_left, lv_style_int_t, _int, scalar)
 332              		.loc 2 111 1 view .LVU88
 333              	.LBB199:
 111:lvgl/src/lv_widgets/../lv_core/lv_obj_style_dec.h **** _LV_OBJ_STYLE_SET_GET_DECLARE(PAD_LEFT, pad_left, lv_style_int_t, _int, scalar)
 334              		.loc 2 111 1 view .LVU89
 335 0030 1122     		movs	r2, #17
 336 0032 0021     		movs	r1, #0
ARM GAS  D:\Temp\cclLOIfg.s 			page 36


 337 0034 2846     		mov	r0, r5
 338 0036 FFF7FEFF 		bl	_lv_obj_get_style_int
 339              	.LVL35:
 111:lvgl/src/lv_widgets/../lv_core/lv_obj_style_dec.h **** _LV_OBJ_STYLE_SET_GET_DECLARE(PAD_LEFT, pad_left, lv_style_int_t, _int, scalar)
 340              		.loc 2 111 1 is_stmt 0 view .LVU90
 341              	.LBE199:
 342              	.LBE198:
1504:lvgl/src/lv_widgets/lv_label.c ****     area->x1 += left;
 343              		.loc 1 1504 5 is_stmt 1 view .LVU91
 344              		.loc 1 1504 14 is_stmt 0 view .LVU92
 345 003a 2388     		ldrh	r3, [r4]
 346 003c 1F44     		add	r7, r7, r3
 347              	.LVL36:
 348              		.loc 1 1504 14 view .LVU93
 349 003e 2780     		strh	r7, [r4]	@ movhi
1505:lvgl/src/lv_widgets/lv_label.c ****     area->x2 -= right;
 350              		.loc 1 1505 5 is_stmt 1 view .LVU94
 351              		.loc 1 1505 14 is_stmt 0 view .LVU95
 352 0040 A388     		ldrh	r3, [r4, #4]
 353 0042 A3EB0803 		sub	r3, r3, r8
 354 0046 A380     		strh	r3, [r4, #4]	@ movhi
1506:lvgl/src/lv_widgets/lv_label.c ****     area->y1 += top;
 355              		.loc 1 1506 5 is_stmt 1 view .LVU96
 356              		.loc 1 1506 14 is_stmt 0 view .LVU97
 357 0048 6388     		ldrh	r3, [r4, #2]
 358 004a 1E44     		add	r6, r6, r3
 359              	.LVL37:
 360              		.loc 1 1506 14 view .LVU98
 361 004c 6680     		strh	r6, [r4, #2]	@ movhi
1507:lvgl/src/lv_widgets/lv_label.c ****     area->y2 -= bottom;
 362              		.loc 1 1507 5 is_stmt 1 view .LVU99
 363              		.loc 1 1507 14 is_stmt 0 view .LVU100
 364 004e E388     		ldrh	r3, [r4, #6]
 365 0050 181A     		subs	r0, r3, r0
 366              	.LVL38:
 367              		.loc 1 1507 14 view .LVU101
 368 0052 E080     		strh	r0, [r4, #6]	@ movhi
1508:lvgl/src/lv_widgets/lv_label.c **** }
 369              		.loc 1 1508 1 view .LVU102
 370 0054 BDE8F081 		pop	{r4, r5, r6, r7, r8, pc}
 371              		.loc 1 1508 1 view .LVU103
 372              		.cfi_endproc
 373              	.LFE490:
 375              		.section	.text.lv_label_set_dot_tmp,"ax",%progbits
 376              		.align	1
 377              		.syntax unified
 378              		.thumb
 379              		.thumb_func
 380              		.fpu fpv4-sp-d16
 382              	lv_label_set_dot_tmp:
 383              	.LVL39:
 384              	.LFB487:
1442:lvgl/src/lv_widgets/lv_label.c ****     lv_label_ext_t * ext = lv_obj_get_ext_attr(label);
 385              		.loc 1 1442 1 is_stmt 1 view -0
 386              		.cfi_startproc
 387              		@ args = 0, pretend = 0, frame = 0
 388              		@ frame_needed = 0, uses_anonymous_args = 0
ARM GAS  D:\Temp\cclLOIfg.s 			page 37


1442:lvgl/src/lv_widgets/lv_label.c ****     lv_label_ext_t * ext = lv_obj_get_ext_attr(label);
 389              		.loc 1 1442 1 is_stmt 0 view .LVU105
 390 0000 F8B5     		push	{r3, r4, r5, r6, r7, lr}
 391              	.LCFI4:
 392              		.cfi_def_cfa_offset 24
 393              		.cfi_offset 3, -24
 394              		.cfi_offset 4, -20
 395              		.cfi_offset 5, -16
 396              		.cfi_offset 6, -12
 397              		.cfi_offset 7, -8
 398              		.cfi_offset 14, -4
 399 0002 0646     		mov	r6, r0
 400 0004 0F46     		mov	r7, r1
 401 0006 1546     		mov	r5, r2
1443:lvgl/src/lv_widgets/lv_label.c ****     lv_label_dot_tmp_free(label); /* Deallocate any existing space */
 402              		.loc 1 1443 5 is_stmt 1 view .LVU106
1443:lvgl/src/lv_widgets/lv_label.c ****     lv_label_dot_tmp_free(label); /* Deallocate any existing space */
 403              		.loc 1 1443 28 is_stmt 0 view .LVU107
 404 0008 FFF7FEFF 		bl	lv_obj_get_ext_attr
 405              	.LVL40:
1443:lvgl/src/lv_widgets/lv_label.c ****     lv_label_dot_tmp_free(label); /* Deallocate any existing space */
 406              		.loc 1 1443 28 view .LVU108
 407 000c 0446     		mov	r4, r0
 408              	.LVL41:
1444:lvgl/src/lv_widgets/lv_label.c ****     if(len > sizeof(char *)) {
 409              		.loc 1 1444 5 is_stmt 1 view .LVU109
 410 000e 3046     		mov	r0, r6
 411              	.LVL42:
1444:lvgl/src/lv_widgets/lv_label.c ****     if(len > sizeof(char *)) {
 412              		.loc 1 1444 5 is_stmt 0 view .LVU110
 413 0010 FFF7FEFF 		bl	lv_label_dot_tmp_free
 414              	.LVL43:
1445:lvgl/src/lv_widgets/lv_label.c ****         /* Memory needs to be allocated. Allocates an additional byte
 415              		.loc 1 1445 5 is_stmt 1 view .LVU111
1445:lvgl/src/lv_widgets/lv_label.c ****         /* Memory needs to be allocated. Allocates an additional byte
 416              		.loc 1 1445 7 is_stmt 0 view .LVU112
 417 0014 042D     		cmp	r5, #4
 418 0016 11D9     		bls	.L19
1448:lvgl/src/lv_widgets/lv_label.c ****         if(ext->dot.tmp_ptr == NULL) {
 419              		.loc 1 1448 9 is_stmt 1 view .LVU113
1448:lvgl/src/lv_widgets/lv_label.c ****         if(ext->dot.tmp_ptr == NULL) {
 420              		.loc 1 1448 28 is_stmt 0 view .LVU114
 421 0018 681C     		adds	r0, r5, #1
 422 001a FFF7FEFF 		bl	lv_mem_alloc
 423              	.LVL44:
1448:lvgl/src/lv_widgets/lv_label.c ****         if(ext->dot.tmp_ptr == NULL) {
 424              		.loc 1 1448 26 view .LVU115
 425 001e 6060     		str	r0, [r4, #4]
1449:lvgl/src/lv_widgets/lv_label.c ****             LV_LOG_ERROR("Failed to allocate memory for dot_tmp_ptr");
 426              		.loc 1 1449 9 is_stmt 1 view .LVU116
1449:lvgl/src/lv_widgets/lv_label.c ****             LV_LOG_ERROR("Failed to allocate memory for dot_tmp_ptr");
 427              		.loc 1 1449 11 is_stmt 0 view .LVU117
 428 0020 B8B1     		cbz	r0, .L21
1453:lvgl/src/lv_widgets/lv_label.c ****         ext->dot.tmp_ptr[len] = '\0';
 429              		.loc 1 1453 9 is_stmt 1 view .LVU118
 430 0022 2A46     		mov	r2, r5
 431 0024 3946     		mov	r1, r7
ARM GAS  D:\Temp\cclLOIfg.s 			page 38


 432 0026 FFF7FEFF 		bl	_lv_memcpy
 433              	.LVL45:
1454:lvgl/src/lv_widgets/lv_label.c ****         ext->dot_tmp_alloc    = true;
 434              		.loc 1 1454 9 view .LVU119
1454:lvgl/src/lv_widgets/lv_label.c ****         ext->dot_tmp_alloc    = true;
 435              		.loc 1 1454 17 is_stmt 0 view .LVU120
 436 002a 6368     		ldr	r3, [r4, #4]
1454:lvgl/src/lv_widgets/lv_label.c ****         ext->dot_tmp_alloc    = true;
 437              		.loc 1 1454 31 view .LVU121
 438 002c 0022     		movs	r2, #0
 439 002e 5A55     		strb	r2, [r3, r5]
1455:lvgl/src/lv_widgets/lv_label.c ****     }
 440              		.loc 1 1455 9 is_stmt 1 view .LVU122
1455:lvgl/src/lv_widgets/lv_label.c ****     }
 441              		.loc 1 1455 31 is_stmt 0 view .LVU123
 442 0030 E37C     		ldrb	r3, [r4, #19]	@ zero_extendqisi2
 443 0032 43F00103 		orr	r3, r3, #1
 444 0036 E374     		strb	r3, [r4, #19]
1462:lvgl/src/lv_widgets/lv_label.c **** }
 445              		.loc 1 1462 12 view .LVU124
 446 0038 0120     		movs	r0, #1
 447 003a 09E0     		b	.L20
 448              	.L19:
1459:lvgl/src/lv_widgets/lv_label.c ****         _lv_memcpy(ext->dot.tmp, data, len);
 449              		.loc 1 1459 9 is_stmt 1 view .LVU125
1459:lvgl/src/lv_widgets/lv_label.c ****         _lv_memcpy(ext->dot.tmp, data, len);
 450              		.loc 1 1459 28 is_stmt 0 view .LVU126
 451 003c E37C     		ldrb	r3, [r4, #19]	@ zero_extendqisi2
 452 003e 6FF30003 		bfc	r3, #0, #1
 453 0042 E374     		strb	r3, [r4, #19]
1460:lvgl/src/lv_widgets/lv_label.c ****     }
 454              		.loc 1 1460 9 is_stmt 1 view .LVU127
 455 0044 2A46     		mov	r2, r5
 456 0046 3946     		mov	r1, r7
 457 0048 201D     		adds	r0, r4, #4
 458 004a FFF7FEFF 		bl	_lv_memcpy
 459              	.LVL46:
1462:lvgl/src/lv_widgets/lv_label.c **** }
 460              		.loc 1 1462 12 is_stmt 0 view .LVU128
 461 004e 0120     		movs	r0, #1
 462              	.L20:
1463:lvgl/src/lv_widgets/lv_label.c **** 
 463              		.loc 1 1463 1 view .LVU129
 464 0050 F8BD     		pop	{r3, r4, r5, r6, r7, pc}
 465              	.LVL47:
 466              	.L21:
1451:lvgl/src/lv_widgets/lv_label.c ****         }
 467              		.loc 1 1451 20 view .LVU130
 468 0052 0020     		movs	r0, #0
 469 0054 FCE7     		b	.L20
 470              		.cfi_endproc
 471              	.LFE487:
 473              		.section	.text.lv_label_set_offset_y,"ax",%progbits
 474              		.align	1
 475              		.syntax unified
 476              		.thumb
 477              		.thumb_func
ARM GAS  D:\Temp\cclLOIfg.s 			page 39


 478              		.fpu fpv4-sp-d16
 480              	lv_label_set_offset_y:
 481              	.LVL48:
 482              	.LFB486:
1427:lvgl/src/lv_widgets/lv_label.c ****     lv_label_ext_t * ext = lv_obj_get_ext_attr(label);
 483              		.loc 1 1427 1 is_stmt 1 view -0
 484              		.cfi_startproc
 485              		@ args = 0, pretend = 0, frame = 0
 486              		@ frame_needed = 0, uses_anonymous_args = 0
1427:lvgl/src/lv_widgets/lv_label.c ****     lv_label_ext_t * ext = lv_obj_get_ext_attr(label);
 487              		.loc 1 1427 1 is_stmt 0 view .LVU132
 488 0000 38B5     		push	{r3, r4, r5, lr}
 489              	.LCFI5:
 490              		.cfi_def_cfa_offset 16
 491              		.cfi_offset 3, -16
 492              		.cfi_offset 4, -12
 493              		.cfi_offset 5, -8
 494              		.cfi_offset 14, -4
 495 0002 0446     		mov	r4, r0
 496 0004 0D46     		mov	r5, r1
1428:lvgl/src/lv_widgets/lv_label.c ****     ext->offset.y        = y;
 497              		.loc 1 1428 5 is_stmt 1 view .LVU133
1428:lvgl/src/lv_widgets/lv_label.c ****     ext->offset.y        = y;
 498              		.loc 1 1428 28 is_stmt 0 view .LVU134
 499 0006 FFF7FEFF 		bl	lv_obj_get_ext_attr
 500              	.LVL49:
1429:lvgl/src/lv_widgets/lv_label.c ****     lv_obj_invalidate(label);
 501              		.loc 1 1429 5 is_stmt 1 view .LVU135
1429:lvgl/src/lv_widgets/lv_label.c ****     lv_obj_invalidate(label);
 502              		.loc 1 1429 26 is_stmt 0 view .LVU136
 503 000a 0582     		strh	r5, [r0, #16]	@ movhi
1430:lvgl/src/lv_widgets/lv_label.c **** }
 504              		.loc 1 1430 5 is_stmt 1 view .LVU137
 505 000c 2046     		mov	r0, r4
 506              	.LVL50:
1430:lvgl/src/lv_widgets/lv_label.c **** }
 507              		.loc 1 1430 5 is_stmt 0 view .LVU138
 508 000e FFF7FEFF 		bl	lv_obj_invalidate
 509              	.LVL51:
1431:lvgl/src/lv_widgets/lv_label.c **** #endif
 510              		.loc 1 1431 1 view .LVU139
 511 0012 38BD     		pop	{r3, r4, r5, pc}
1431:lvgl/src/lv_widgets/lv_label.c **** #endif
 512              		.loc 1 1431 1 view .LVU140
 513              		.cfi_endproc
 514              	.LFE486:
 516              		.section	.text.lv_label_set_offset_x,"ax",%progbits
 517              		.align	1
 518              		.syntax unified
 519              		.thumb
 520              		.thumb_func
 521              		.fpu fpv4-sp-d16
 523              	lv_label_set_offset_x:
 524              	.LVL52:
 525              	.LFB485:
1420:lvgl/src/lv_widgets/lv_label.c ****     lv_label_ext_t * ext = lv_obj_get_ext_attr(label);
 526              		.loc 1 1420 1 is_stmt 1 view -0
ARM GAS  D:\Temp\cclLOIfg.s 			page 40


 527              		.cfi_startproc
 528              		@ args = 0, pretend = 0, frame = 0
 529              		@ frame_needed = 0, uses_anonymous_args = 0
1420:lvgl/src/lv_widgets/lv_label.c ****     lv_label_ext_t * ext = lv_obj_get_ext_attr(label);
 530              		.loc 1 1420 1 is_stmt 0 view .LVU142
 531 0000 38B5     		push	{r3, r4, r5, lr}
 532              	.LCFI6:
 533              		.cfi_def_cfa_offset 16
 534              		.cfi_offset 3, -16
 535              		.cfi_offset 4, -12
 536              		.cfi_offset 5, -8
 537              		.cfi_offset 14, -4
 538 0002 0446     		mov	r4, r0
 539 0004 0D46     		mov	r5, r1
1421:lvgl/src/lv_widgets/lv_label.c ****     ext->offset.x        = x;
 540              		.loc 1 1421 5 is_stmt 1 view .LVU143
1421:lvgl/src/lv_widgets/lv_label.c ****     ext->offset.x        = x;
 541              		.loc 1 1421 28 is_stmt 0 view .LVU144
 542 0006 FFF7FEFF 		bl	lv_obj_get_ext_attr
 543              	.LVL53:
1422:lvgl/src/lv_widgets/lv_label.c ****     lv_obj_invalidate(label);
 544              		.loc 1 1422 5 is_stmt 1 view .LVU145
1422:lvgl/src/lv_widgets/lv_label.c ****     lv_obj_invalidate(label);
 545              		.loc 1 1422 26 is_stmt 0 view .LVU146
 546 000a C581     		strh	r5, [r0, #14]	@ movhi
1423:lvgl/src/lv_widgets/lv_label.c **** }
 547              		.loc 1 1423 5 is_stmt 1 view .LVU147
 548 000c 2046     		mov	r0, r4
 549              	.LVL54:
1423:lvgl/src/lv_widgets/lv_label.c **** }
 550              		.loc 1 1423 5 is_stmt 0 view .LVU148
 551 000e FFF7FEFF 		bl	lv_obj_invalidate
 552              	.LVL55:
1424:lvgl/src/lv_widgets/lv_label.c **** 
 553              		.loc 1 1424 1 view .LVU149
 554 0012 38BD     		pop	{r3, r4, r5, pc}
1424:lvgl/src/lv_widgets/lv_label.c **** 
 555              		.loc 1 1424 1 view .LVU150
 556              		.cfi_endproc
 557              	.LFE485:
 559              		.section	.text.lv_label_set_align,"ax",%progbits
 560              		.align	1
 561              		.global	lv_label_set_align
 562              		.syntax unified
 563              		.thumb
 564              		.thumb_func
 565              		.fpu fpv4-sp-d16
 567              	lv_label_set_align:
 568              	.LVL56:
 569              	.LFB463:
 345:lvgl/src/lv_widgets/lv_label.c ****     LV_ASSERT_OBJ(label, LV_OBJX_NAME);
 570              		.loc 1 345 1 is_stmt 1 view -0
 571              		.cfi_startproc
 572              		@ args = 0, pretend = 0, frame = 0
 573              		@ frame_needed = 0, uses_anonymous_args = 0
 345:lvgl/src/lv_widgets/lv_label.c ****     LV_ASSERT_OBJ(label, LV_OBJX_NAME);
 574              		.loc 1 345 1 is_stmt 0 view .LVU152
ARM GAS  D:\Temp\cclLOIfg.s 			page 41


 575 0000 38B5     		push	{r3, r4, r5, lr}
 576              	.LCFI7:
 577              		.cfi_def_cfa_offset 16
 578              		.cfi_offset 3, -16
 579              		.cfi_offset 4, -12
 580              		.cfi_offset 5, -8
 581              		.cfi_offset 14, -4
 582 0002 0446     		mov	r4, r0
 583 0004 0D46     		mov	r5, r1
 346:lvgl/src/lv_widgets/lv_label.c **** 
 584              		.loc 1 346 5 is_stmt 1 view .LVU153
 346:lvgl/src/lv_widgets/lv_label.c **** 
 585              		.loc 1 346 5 view .LVU154
 586 0006 FFF7FEFF 		bl	lv_debug_check_null
 587              	.LVL57:
 346:lvgl/src/lv_widgets/lv_label.c **** 
 588              		.loc 1 346 5 is_stmt 0 view .LVU155
 589 000a 28B9     		cbnz	r0, .L28
 346:lvgl/src/lv_widgets/lv_label.c **** 
 590              		.loc 1 346 5 is_stmt 1 discriminator 1 view .LVU156
 346:lvgl/src/lv_widgets/lv_label.c **** 
 591              		.loc 1 346 5 discriminator 1 view .LVU157
 592 000c 2246     		mov	r2, r4
 593 000e 0023     		movs	r3, #0
 594 0010 0948     		ldr	r0, .L32
 595 0012 FFF7FEFF 		bl	lv_debug_log_error
 596              	.LVL58:
 597              	.L29:
 346:lvgl/src/lv_widgets/lv_label.c **** 
 598              		.loc 1 346 5 discriminator 1 view .LVU158
 346:lvgl/src/lv_widgets/lv_label.c **** 
 599              		.loc 1 346 5 discriminator 1 view .LVU159
 600 0016 FEE7     		b	.L29
 601              	.L28:
 346:lvgl/src/lv_widgets/lv_label.c **** 
 602              		.loc 1 346 39 discriminator 2 view .LVU160
 348:lvgl/src/lv_widgets/lv_label.c ****     if(ext->align == align) return;
 603              		.loc 1 348 5 discriminator 2 view .LVU161
 348:lvgl/src/lv_widgets/lv_label.c ****     if(ext->align == align) return;
 604              		.loc 1 348 28 is_stmt 0 discriminator 2 view .LVU162
 605 0018 2046     		mov	r0, r4
 606 001a FFF7FEFF 		bl	lv_obj_get_ext_attr
 607              	.LVL59:
 349:lvgl/src/lv_widgets/lv_label.c **** 
 608              		.loc 1 349 5 is_stmt 1 discriminator 2 view .LVU163
 349:lvgl/src/lv_widgets/lv_label.c **** 
 609              		.loc 1 349 11 is_stmt 0 discriminator 2 view .LVU164
 610 001e 837C     		ldrb	r3, [r0, #18]	@ zero_extendqisi2
 611 0020 C3F30113 		ubfx	r3, r3, #4, #2
 349:lvgl/src/lv_widgets/lv_label.c **** 
 612              		.loc 1 349 7 discriminator 2 view .LVU165
 613 0024 AB42     		cmp	r3, r5
 614 0026 06D0     		beq	.L27
 351:lvgl/src/lv_widgets/lv_label.c **** 
 615              		.loc 1 351 5 is_stmt 1 view .LVU166
 351:lvgl/src/lv_widgets/lv_label.c **** 
 616              		.loc 1 351 16 is_stmt 0 view .LVU167
ARM GAS  D:\Temp\cclLOIfg.s 			page 42


 617 0028 837C     		ldrb	r3, [r0, #18]	@ zero_extendqisi2
 618 002a 65F30513 		bfi	r3, r5, #4, #2
 619 002e 8374     		strb	r3, [r0, #18]
 353:lvgl/src/lv_widgets/lv_label.c ****                                  (lv_refr_label_text() not required)*/
 620              		.loc 1 353 5 is_stmt 1 view .LVU168
 621 0030 2046     		mov	r0, r4
 622              	.LVL60:
 353:lvgl/src/lv_widgets/lv_label.c ****                                  (lv_refr_label_text() not required)*/
 623              		.loc 1 353 5 is_stmt 0 view .LVU169
 624 0032 FFF7FEFF 		bl	lv_obj_invalidate
 625              	.LVL61:
 626              	.L27:
 355:lvgl/src/lv_widgets/lv_label.c **** 
 627              		.loc 1 355 1 view .LVU170
 628 0036 38BD     		pop	{r3, r4, r5, pc}
 629              	.LVL62:
 630              	.L33:
 355:lvgl/src/lv_widgets/lv_label.c **** 
 631              		.loc 1 355 1 view .LVU171
 632              		.align	2
 633              	.L32:
 634 0038 00000000 		.word	.LC0
 635              		.cfi_endproc
 636              	.LFE463:
 638              		.section	.text.lv_label_set_text_sel_start,"ax",%progbits
 639              		.align	1
 640              		.global	lv_label_set_text_sel_start
 641              		.syntax unified
 642              		.thumb
 643              		.thumb_func
 644              		.fpu fpv4-sp-d16
 646              	lv_label_set_text_sel_start:
 647              	.LVL63:
 648              	.LFB466:
 400:lvgl/src/lv_widgets/lv_label.c ****     LV_ASSERT_OBJ(label, LV_OBJX_NAME);
 649              		.loc 1 400 1 is_stmt 1 view -0
 650              		.cfi_startproc
 651              		@ args = 0, pretend = 0, frame = 0
 652              		@ frame_needed = 0, uses_anonymous_args = 0
 400:lvgl/src/lv_widgets/lv_label.c ****     LV_ASSERT_OBJ(label, LV_OBJX_NAME);
 653              		.loc 1 400 1 is_stmt 0 view .LVU173
 654 0000 10B5     		push	{r4, lr}
 655              	.LCFI8:
 656              		.cfi_def_cfa_offset 8
 657              		.cfi_offset 4, -8
 658              		.cfi_offset 14, -4
 659 0002 0446     		mov	r4, r0
 401:lvgl/src/lv_widgets/lv_label.c **** 
 660              		.loc 1 401 5 is_stmt 1 view .LVU174
 401:lvgl/src/lv_widgets/lv_label.c **** 
 661              		.loc 1 401 5 view .LVU175
 662 0004 FFF7FEFF 		bl	lv_debug_check_null
 663              	.LVL64:
 401:lvgl/src/lv_widgets/lv_label.c **** 
 664              		.loc 1 401 5 is_stmt 0 view .LVU176
 665 0008 00B1     		cbz	r0, .L38
 411:lvgl/src/lv_widgets/lv_label.c **** 
ARM GAS  D:\Temp\cclLOIfg.s 			page 43


 666              		.loc 1 411 1 view .LVU177
 667 000a 10BD     		pop	{r4, pc}
 668              	.LVL65:
 669              	.L38:
 401:lvgl/src/lv_widgets/lv_label.c **** 
 670              		.loc 1 401 5 is_stmt 1 discriminator 1 view .LVU178
 401:lvgl/src/lv_widgets/lv_label.c **** 
 671              		.loc 1 401 5 discriminator 1 view .LVU179
 672 000c 2246     		mov	r2, r4
 673 000e 0023     		movs	r3, #0
 674 0010 0148     		ldr	r0, .L39
 675 0012 FFF7FEFF 		bl	lv_debug_log_error
 676              	.LVL66:
 677              	.L36:
 401:lvgl/src/lv_widgets/lv_label.c **** 
 678              		.loc 1 401 5 discriminator 1 view .LVU180
 401:lvgl/src/lv_widgets/lv_label.c **** 
 679              		.loc 1 401 5 discriminator 1 view .LVU181
 680 0016 FEE7     		b	.L36
 681              	.L40:
 682              		.align	2
 683              	.L39:
 684 0018 00000000 		.word	.LC0
 685              		.cfi_endproc
 686              	.LFE466:
 688              		.section	.text.lv_label_set_text_sel_end,"ax",%progbits
 689              		.align	1
 690              		.global	lv_label_set_text_sel_end
 691              		.syntax unified
 692              		.thumb
 693              		.thumb_func
 694              		.fpu fpv4-sp-d16
 696              	lv_label_set_text_sel_end:
 697              	.LVL67:
 698              	.LFB467:
 414:lvgl/src/lv_widgets/lv_label.c ****     LV_ASSERT_OBJ(label, LV_OBJX_NAME);
 699              		.loc 1 414 1 view -0
 700              		.cfi_startproc
 701              		@ args = 0, pretend = 0, frame = 0
 702              		@ frame_needed = 0, uses_anonymous_args = 0
 414:lvgl/src/lv_widgets/lv_label.c ****     LV_ASSERT_OBJ(label, LV_OBJX_NAME);
 703              		.loc 1 414 1 is_stmt 0 view .LVU183
 704 0000 10B5     		push	{r4, lr}
 705              	.LCFI9:
 706              		.cfi_def_cfa_offset 8
 707              		.cfi_offset 4, -8
 708              		.cfi_offset 14, -4
 709 0002 0446     		mov	r4, r0
 415:lvgl/src/lv_widgets/lv_label.c **** 
 710              		.loc 1 415 5 is_stmt 1 view .LVU184
 415:lvgl/src/lv_widgets/lv_label.c **** 
 711              		.loc 1 415 5 view .LVU185
 712 0004 FFF7FEFF 		bl	lv_debug_check_null
 713              	.LVL68:
 415:lvgl/src/lv_widgets/lv_label.c **** 
 714              		.loc 1 415 5 is_stmt 0 view .LVU186
 715 0008 00B1     		cbz	r0, .L45
ARM GAS  D:\Temp\cclLOIfg.s 			page 44


 425:lvgl/src/lv_widgets/lv_label.c **** 
 716              		.loc 1 425 1 view .LVU187
 717 000a 10BD     		pop	{r4, pc}
 718              	.LVL69:
 719              	.L45:
 415:lvgl/src/lv_widgets/lv_label.c **** 
 720              		.loc 1 415 5 is_stmt 1 discriminator 1 view .LVU188
 415:lvgl/src/lv_widgets/lv_label.c **** 
 721              		.loc 1 415 5 discriminator 1 view .LVU189
 722 000c 2246     		mov	r2, r4
 723 000e 0023     		movs	r3, #0
 724 0010 0148     		ldr	r0, .L46
 725 0012 FFF7FEFF 		bl	lv_debug_log_error
 726              	.LVL70:
 727              	.L43:
 415:lvgl/src/lv_widgets/lv_label.c **** 
 728              		.loc 1 415 5 discriminator 1 view .LVU190
 415:lvgl/src/lv_widgets/lv_label.c **** 
 729              		.loc 1 415 5 discriminator 1 view .LVU191
 730 0016 FEE7     		b	.L43
 731              	.L47:
 732              		.align	2
 733              	.L46:
 734 0018 00000000 		.word	.LC0
 735              		.cfi_endproc
 736              	.LFE467:
 738              		.section	.text.lv_label_get_text,"ax",%progbits
 739              		.align	1
 740              		.global	lv_label_get_text
 741              		.syntax unified
 742              		.thumb
 743              		.thumb_func
 744              		.fpu fpv4-sp-d16
 746              	lv_label_get_text:
 747              	.LVL71:
 748              	.LFB468:
 437:lvgl/src/lv_widgets/lv_label.c ****     LV_ASSERT_OBJ(label, LV_OBJX_NAME);
 749              		.loc 1 437 1 view -0
 750              		.cfi_startproc
 751              		@ args = 0, pretend = 0, frame = 0
 752              		@ frame_needed = 0, uses_anonymous_args = 0
 437:lvgl/src/lv_widgets/lv_label.c ****     LV_ASSERT_OBJ(label, LV_OBJX_NAME);
 753              		.loc 1 437 1 is_stmt 0 view .LVU193
 754 0000 10B5     		push	{r4, lr}
 755              	.LCFI10:
 756              		.cfi_def_cfa_offset 8
 757              		.cfi_offset 4, -8
 758              		.cfi_offset 14, -4
 759 0002 0446     		mov	r4, r0
 438:lvgl/src/lv_widgets/lv_label.c **** 
 760              		.loc 1 438 5 is_stmt 1 view .LVU194
 438:lvgl/src/lv_widgets/lv_label.c **** 
 761              		.loc 1 438 5 view .LVU195
 762 0004 FFF7FEFF 		bl	lv_debug_check_null
 763              	.LVL72:
 438:lvgl/src/lv_widgets/lv_label.c **** 
 764              		.loc 1 438 5 is_stmt 0 view .LVU196
ARM GAS  D:\Temp\cclLOIfg.s 			page 45


 765 0008 28B9     		cbnz	r0, .L49
 438:lvgl/src/lv_widgets/lv_label.c **** 
 766              		.loc 1 438 5 is_stmt 1 discriminator 1 view .LVU197
 438:lvgl/src/lv_widgets/lv_label.c **** 
 767              		.loc 1 438 5 discriminator 1 view .LVU198
 768 000a 2246     		mov	r2, r4
 769 000c 0023     		movs	r3, #0
 770 000e 0448     		ldr	r0, .L52
 771 0010 FFF7FEFF 		bl	lv_debug_log_error
 772              	.LVL73:
 773              	.L50:
 438:lvgl/src/lv_widgets/lv_label.c **** 
 774              		.loc 1 438 5 discriminator 1 view .LVU199
 438:lvgl/src/lv_widgets/lv_label.c **** 
 775              		.loc 1 438 5 discriminator 1 view .LVU200
 776 0014 FEE7     		b	.L50
 777              	.L49:
 438:lvgl/src/lv_widgets/lv_label.c **** 
 778              		.loc 1 438 39 discriminator 2 view .LVU201
 440:lvgl/src/lv_widgets/lv_label.c **** 
 779              		.loc 1 440 5 discriminator 2 view .LVU202
 440:lvgl/src/lv_widgets/lv_label.c **** 
 780              		.loc 1 440 28 is_stmt 0 discriminator 2 view .LVU203
 781 0016 2046     		mov	r0, r4
 782 0018 FFF7FEFF 		bl	lv_obj_get_ext_attr
 783              	.LVL74:
 442:lvgl/src/lv_widgets/lv_label.c **** }
 784              		.loc 1 442 5 is_stmt 1 discriminator 2 view .LVU204
 443:lvgl/src/lv_widgets/lv_label.c **** 
 785              		.loc 1 443 1 is_stmt 0 discriminator 2 view .LVU205
 786 001c 0068     		ldr	r0, [r0]
 787              	.LVL75:
 443:lvgl/src/lv_widgets/lv_label.c **** 
 788              		.loc 1 443 1 discriminator 2 view .LVU206
 789 001e 10BD     		pop	{r4, pc}
 790              	.LVL76:
 791              	.L53:
 443:lvgl/src/lv_widgets/lv_label.c **** 
 792              		.loc 1 443 1 discriminator 2 view .LVU207
 793              		.align	2
 794              	.L52:
 795 0020 00000000 		.word	.LC0
 796              		.cfi_endproc
 797              	.LFE468:
 799              		.section	.text.lv_label_get_long_mode,"ax",%progbits
 800              		.align	1
 801              		.global	lv_label_get_long_mode
 802              		.syntax unified
 803              		.thumb
 804              		.thumb_func
 805              		.fpu fpv4-sp-d16
 807              	lv_label_get_long_mode:
 808              	.LVL77:
 809              	.LFB469:
 451:lvgl/src/lv_widgets/lv_label.c ****     LV_ASSERT_OBJ(label, LV_OBJX_NAME);
 810              		.loc 1 451 1 is_stmt 1 view -0
 811              		.cfi_startproc
ARM GAS  D:\Temp\cclLOIfg.s 			page 46


 812              		@ args = 0, pretend = 0, frame = 0
 813              		@ frame_needed = 0, uses_anonymous_args = 0
 451:lvgl/src/lv_widgets/lv_label.c ****     LV_ASSERT_OBJ(label, LV_OBJX_NAME);
 814              		.loc 1 451 1 is_stmt 0 view .LVU209
 815 0000 10B5     		push	{r4, lr}
 816              	.LCFI11:
 817              		.cfi_def_cfa_offset 8
 818              		.cfi_offset 4, -8
 819              		.cfi_offset 14, -4
 820 0002 0446     		mov	r4, r0
 452:lvgl/src/lv_widgets/lv_label.c **** 
 821              		.loc 1 452 5 is_stmt 1 view .LVU210
 452:lvgl/src/lv_widgets/lv_label.c **** 
 822              		.loc 1 452 5 view .LVU211
 823 0004 FFF7FEFF 		bl	lv_debug_check_null
 824              	.LVL78:
 452:lvgl/src/lv_widgets/lv_label.c **** 
 825              		.loc 1 452 5 is_stmt 0 view .LVU212
 826 0008 28B9     		cbnz	r0, .L55
 452:lvgl/src/lv_widgets/lv_label.c **** 
 827              		.loc 1 452 5 is_stmt 1 discriminator 1 view .LVU213
 452:lvgl/src/lv_widgets/lv_label.c **** 
 828              		.loc 1 452 5 discriminator 1 view .LVU214
 829 000a 2246     		mov	r2, r4
 830 000c 0023     		movs	r3, #0
 831 000e 0548     		ldr	r0, .L58
 832 0010 FFF7FEFF 		bl	lv_debug_log_error
 833              	.LVL79:
 834              	.L56:
 452:lvgl/src/lv_widgets/lv_label.c **** 
 835              		.loc 1 452 5 discriminator 1 view .LVU215
 452:lvgl/src/lv_widgets/lv_label.c **** 
 836              		.loc 1 452 5 discriminator 1 view .LVU216
 837 0014 FEE7     		b	.L56
 838              	.L55:
 452:lvgl/src/lv_widgets/lv_label.c **** 
 839              		.loc 1 452 39 discriminator 2 view .LVU217
 454:lvgl/src/lv_widgets/lv_label.c ****     return ext->long_mode;
 840              		.loc 1 454 5 discriminator 2 view .LVU218
 454:lvgl/src/lv_widgets/lv_label.c ****     return ext->long_mode;
 841              		.loc 1 454 28 is_stmt 0 discriminator 2 view .LVU219
 842 0016 2046     		mov	r0, r4
 843 0018 FFF7FEFF 		bl	lv_obj_get_ext_attr
 844              	.LVL80:
 455:lvgl/src/lv_widgets/lv_label.c **** }
 845              		.loc 1 455 5 is_stmt 1 discriminator 2 view .LVU220
 455:lvgl/src/lv_widgets/lv_label.c **** }
 846              		.loc 1 455 15 is_stmt 0 discriminator 2 view .LVU221
 847 001c 807C     		ldrb	r0, [r0, #18]	@ zero_extendqisi2
 848              	.LVL81:
 456:lvgl/src/lv_widgets/lv_label.c **** 
 849              		.loc 1 456 1 discriminator 2 view .LVU222
 850 001e 00F00700 		and	r0, r0, #7
 851 0022 10BD     		pop	{r4, pc}
 852              	.LVL82:
 853              	.L59:
 456:lvgl/src/lv_widgets/lv_label.c **** 
ARM GAS  D:\Temp\cclLOIfg.s 			page 47


 854              		.loc 1 456 1 discriminator 2 view .LVU223
 855              		.align	2
 856              	.L58:
 857 0024 00000000 		.word	.LC0
 858              		.cfi_endproc
 859              	.LFE469:
 861              		.section	.text.lv_label_get_align,"ax",%progbits
 862              		.align	1
 863              		.global	lv_label_get_align
 864              		.syntax unified
 865              		.thumb
 866              		.thumb_func
 867              		.fpu fpv4-sp-d16
 869              	lv_label_get_align:
 870              	.LVL83:
 871              	.LFB470:
 464:lvgl/src/lv_widgets/lv_label.c ****     LV_ASSERT_OBJ(label, LV_OBJX_NAME);
 872              		.loc 1 464 1 is_stmt 1 view -0
 873              		.cfi_startproc
 874              		@ args = 0, pretend = 0, frame = 0
 875              		@ frame_needed = 0, uses_anonymous_args = 0
 464:lvgl/src/lv_widgets/lv_label.c ****     LV_ASSERT_OBJ(label, LV_OBJX_NAME);
 876              		.loc 1 464 1 is_stmt 0 view .LVU225
 877 0000 10B5     		push	{r4, lr}
 878              	.LCFI12:
 879              		.cfi_def_cfa_offset 8
 880              		.cfi_offset 4, -8
 881              		.cfi_offset 14, -4
 882 0002 0446     		mov	r4, r0
 465:lvgl/src/lv_widgets/lv_label.c **** 
 883              		.loc 1 465 5 is_stmt 1 view .LVU226
 465:lvgl/src/lv_widgets/lv_label.c **** 
 884              		.loc 1 465 5 view .LVU227
 885 0004 FFF7FEFF 		bl	lv_debug_check_null
 886              	.LVL84:
 465:lvgl/src/lv_widgets/lv_label.c **** 
 887              		.loc 1 465 5 is_stmt 0 view .LVU228
 888 0008 28B9     		cbnz	r0, .L61
 465:lvgl/src/lv_widgets/lv_label.c **** 
 889              		.loc 1 465 5 is_stmt 1 discriminator 1 view .LVU229
 465:lvgl/src/lv_widgets/lv_label.c **** 
 890              		.loc 1 465 5 discriminator 1 view .LVU230
 891 000a 2246     		mov	r2, r4
 892 000c 0023     		movs	r3, #0
 893 000e 0748     		ldr	r0, .L67
 894 0010 FFF7FEFF 		bl	lv_debug_log_error
 895              	.LVL85:
 896              	.L62:
 465:lvgl/src/lv_widgets/lv_label.c **** 
 897              		.loc 1 465 5 discriminator 1 view .LVU231
 465:lvgl/src/lv_widgets/lv_label.c **** 
 898              		.loc 1 465 5 discriminator 1 view .LVU232
 899 0014 FEE7     		b	.L62
 900              	.L61:
 465:lvgl/src/lv_widgets/lv_label.c **** 
 901              		.loc 1 465 39 discriminator 2 view .LVU233
 467:lvgl/src/lv_widgets/lv_label.c **** 
ARM GAS  D:\Temp\cclLOIfg.s 			page 48


 902              		.loc 1 467 5 discriminator 2 view .LVU234
 467:lvgl/src/lv_widgets/lv_label.c **** 
 903              		.loc 1 467 28 is_stmt 0 discriminator 2 view .LVU235
 904 0016 2046     		mov	r0, r4
 905 0018 FFF7FEFF 		bl	lv_obj_get_ext_attr
 906              	.LVL86:
 469:lvgl/src/lv_widgets/lv_label.c **** 
 907              		.loc 1 469 5 is_stmt 1 discriminator 2 view .LVU236
 469:lvgl/src/lv_widgets/lv_label.c **** 
 908              		.loc 1 469 33 is_stmt 0 discriminator 2 view .LVU237
 909 001c 807C     		ldrb	r0, [r0, #18]	@ zero_extendqisi2
 910              	.LVL87:
 469:lvgl/src/lv_widgets/lv_label.c **** 
 911              		.loc 1 469 33 discriminator 2 view .LVU238
 912 001e C0F30110 		ubfx	r0, r0, #4, #2
 913              	.LVL88:
 471:lvgl/src/lv_widgets/lv_label.c **** #if LV_USE_BIDI
 914              		.loc 1 471 5 is_stmt 1 discriminator 2 view .LVU239
 471:lvgl/src/lv_widgets/lv_label.c **** #if LV_USE_BIDI
 915              		.loc 1 471 7 is_stmt 0 discriminator 2 view .LVU240
 916 0022 0328     		cmp	r0, #3
 917 0024 00D0     		beq	.L66
 918              	.L63:
 919              	.LVL89:
 483:lvgl/src/lv_widgets/lv_label.c **** }
 920              		.loc 1 483 5 is_stmt 1 view .LVU241
 484:lvgl/src/lv_widgets/lv_label.c **** 
 921              		.loc 1 484 1 is_stmt 0 view .LVU242
 922 0026 10BD     		pop	{r4, pc}
 923              	.LVL90:
 924              	.L66:
 479:lvgl/src/lv_widgets/lv_label.c **** #endif
 925              		.loc 1 479 15 view .LVU243
 926 0028 0020     		movs	r0, #0
 927 002a FCE7     		b	.L63
 928              	.L68:
 929              		.align	2
 930              	.L67:
 931 002c 00000000 		.word	.LC0
 932              		.cfi_endproc
 933              	.LFE470:
 935              		.section	.text.lv_label_get_recolor,"ax",%progbits
 936              		.align	1
 937              		.global	lv_label_get_recolor
 938              		.syntax unified
 939              		.thumb
 940              		.thumb_func
 941              		.fpu fpv4-sp-d16
 943              	lv_label_get_recolor:
 944              	.LVL91:
 945              	.LFB471:
 492:lvgl/src/lv_widgets/lv_label.c ****     LV_ASSERT_OBJ(label, LV_OBJX_NAME);
 946              		.loc 1 492 1 is_stmt 1 view -0
 947              		.cfi_startproc
 948              		@ args = 0, pretend = 0, frame = 0
 949              		@ frame_needed = 0, uses_anonymous_args = 0
 492:lvgl/src/lv_widgets/lv_label.c ****     LV_ASSERT_OBJ(label, LV_OBJX_NAME);
ARM GAS  D:\Temp\cclLOIfg.s 			page 49


 950              		.loc 1 492 1 is_stmt 0 view .LVU245
 951 0000 10B5     		push	{r4, lr}
 952              	.LCFI13:
 953              		.cfi_def_cfa_offset 8
 954              		.cfi_offset 4, -8
 955              		.cfi_offset 14, -4
 956 0002 0446     		mov	r4, r0
 493:lvgl/src/lv_widgets/lv_label.c **** 
 957              		.loc 1 493 5 is_stmt 1 view .LVU246
 493:lvgl/src/lv_widgets/lv_label.c **** 
 958              		.loc 1 493 5 view .LVU247
 959 0004 FFF7FEFF 		bl	lv_debug_check_null
 960              	.LVL92:
 493:lvgl/src/lv_widgets/lv_label.c **** 
 961              		.loc 1 493 5 is_stmt 0 view .LVU248
 962 0008 28B9     		cbnz	r0, .L70
 493:lvgl/src/lv_widgets/lv_label.c **** 
 963              		.loc 1 493 5 is_stmt 1 discriminator 1 view .LVU249
 493:lvgl/src/lv_widgets/lv_label.c **** 
 964              		.loc 1 493 5 discriminator 1 view .LVU250
 965 000a 2246     		mov	r2, r4
 966 000c 0023     		movs	r3, #0
 967 000e 0548     		ldr	r0, .L73
 968 0010 FFF7FEFF 		bl	lv_debug_log_error
 969              	.LVL93:
 970              	.L71:
 493:lvgl/src/lv_widgets/lv_label.c **** 
 971              		.loc 1 493 5 discriminator 1 view .LVU251
 493:lvgl/src/lv_widgets/lv_label.c **** 
 972              		.loc 1 493 5 discriminator 1 view .LVU252
 973 0014 FEE7     		b	.L71
 974              	.L70:
 493:lvgl/src/lv_widgets/lv_label.c **** 
 975              		.loc 1 493 39 discriminator 2 view .LVU253
 495:lvgl/src/lv_widgets/lv_label.c ****     return ext->recolor == 0 ? false : true;
 976              		.loc 1 495 5 discriminator 2 view .LVU254
 495:lvgl/src/lv_widgets/lv_label.c ****     return ext->recolor == 0 ? false : true;
 977              		.loc 1 495 28 is_stmt 0 discriminator 2 view .LVU255
 978 0016 2046     		mov	r0, r4
 979 0018 FFF7FEFF 		bl	lv_obj_get_ext_attr
 980              	.LVL94:
 496:lvgl/src/lv_widgets/lv_label.c **** }
 981              		.loc 1 496 5 is_stmt 1 discriminator 2 view .LVU256
 496:lvgl/src/lv_widgets/lv_label.c **** }
 982              		.loc 1 496 25 is_stmt 0 discriminator 2 view .LVU257
 983 001c 807C     		ldrb	r0, [r0, #18]	@ zero_extendqisi2
 984              	.LVL95:
 497:lvgl/src/lv_widgets/lv_label.c **** 
 985              		.loc 1 497 1 discriminator 2 view .LVU258
 986 001e C0F38010 		ubfx	r0, r0, #6, #1
 987 0022 10BD     		pop	{r4, pc}
 988              	.LVL96:
 989              	.L74:
 497:lvgl/src/lv_widgets/lv_label.c **** 
 990              		.loc 1 497 1 discriminator 2 view .LVU259
 991              		.align	2
 992              	.L73:
ARM GAS  D:\Temp\cclLOIfg.s 			page 50


 993 0024 00000000 		.word	.LC0
 994              		.cfi_endproc
 995              	.LFE471:
 997              		.section	.text.lv_label_get_anim_speed,"ax",%progbits
 998              		.align	1
 999              		.global	lv_label_get_anim_speed
 1000              		.syntax unified
 1001              		.thumb
 1002              		.thumb_func
 1003              		.fpu fpv4-sp-d16
 1005              	lv_label_get_anim_speed:
 1006              	.LVL97:
 1007              	.LFB472:
 505:lvgl/src/lv_widgets/lv_label.c ****     LV_ASSERT_OBJ(label, LV_OBJX_NAME);
 1008              		.loc 1 505 1 is_stmt 1 view -0
 1009              		.cfi_startproc
 1010              		@ args = 0, pretend = 0, frame = 0
 1011              		@ frame_needed = 0, uses_anonymous_args = 0
 505:lvgl/src/lv_widgets/lv_label.c ****     LV_ASSERT_OBJ(label, LV_OBJX_NAME);
 1012              		.loc 1 505 1 is_stmt 0 view .LVU261
 1013 0000 10B5     		push	{r4, lr}
 1014              	.LCFI14:
 1015              		.cfi_def_cfa_offset 8
 1016              		.cfi_offset 4, -8
 1017              		.cfi_offset 14, -4
 1018 0002 0446     		mov	r4, r0
 506:lvgl/src/lv_widgets/lv_label.c **** 
 1019              		.loc 1 506 5 is_stmt 1 view .LVU262
 506:lvgl/src/lv_widgets/lv_label.c **** 
 1020              		.loc 1 506 5 view .LVU263
 1021 0004 FFF7FEFF 		bl	lv_debug_check_null
 1022              	.LVL98:
 506:lvgl/src/lv_widgets/lv_label.c **** 
 1023              		.loc 1 506 5 is_stmt 0 view .LVU264
 1024 0008 28B9     		cbnz	r0, .L76
 506:lvgl/src/lv_widgets/lv_label.c **** 
 1025              		.loc 1 506 5 is_stmt 1 discriminator 1 view .LVU265
 506:lvgl/src/lv_widgets/lv_label.c **** 
 1026              		.loc 1 506 5 discriminator 1 view .LVU266
 1027 000a 2246     		mov	r2, r4
 1028 000c 0023     		movs	r3, #0
 1029 000e 0448     		ldr	r0, .L79
 1030 0010 FFF7FEFF 		bl	lv_debug_log_error
 1031              	.LVL99:
 1032              	.L77:
 506:lvgl/src/lv_widgets/lv_label.c **** 
 1033              		.loc 1 506 5 discriminator 1 view .LVU267
 506:lvgl/src/lv_widgets/lv_label.c **** 
 1034              		.loc 1 506 5 discriminator 1 view .LVU268
 1035 0014 FEE7     		b	.L77
 1036              	.L76:
 506:lvgl/src/lv_widgets/lv_label.c **** 
 1037              		.loc 1 506 39 discriminator 2 view .LVU269
 509:lvgl/src/lv_widgets/lv_label.c ****     return ext->anim_speed;
 1038              		.loc 1 509 5 discriminator 2 view .LVU270
 509:lvgl/src/lv_widgets/lv_label.c ****     return ext->anim_speed;
 1039              		.loc 1 509 28 is_stmt 0 discriminator 2 view .LVU271
ARM GAS  D:\Temp\cclLOIfg.s 			page 51


 1040 0016 2046     		mov	r0, r4
 1041 0018 FFF7FEFF 		bl	lv_obj_get_ext_attr
 1042              	.LVL100:
 510:lvgl/src/lv_widgets/lv_label.c **** #else
 1043              		.loc 1 510 5 is_stmt 1 discriminator 2 view .LVU272
 515:lvgl/src/lv_widgets/lv_label.c **** 
 1044              		.loc 1 515 1 is_stmt 0 discriminator 2 view .LVU273
 1045 001c 8089     		ldrh	r0, [r0, #12]
 1046              	.LVL101:
 515:lvgl/src/lv_widgets/lv_label.c **** 
 1047              		.loc 1 515 1 discriminator 2 view .LVU274
 1048 001e 10BD     		pop	{r4, pc}
 1049              	.LVL102:
 1050              	.L80:
 515:lvgl/src/lv_widgets/lv_label.c **** 
 1051              		.loc 1 515 1 discriminator 2 view .LVU275
 1052              		.align	2
 1053              	.L79:
 1054 0020 00000000 		.word	.LC0
 1055              		.cfi_endproc
 1056              	.LFE472:
 1058              		.section	.text.lv_label_get_letter_pos,"ax",%progbits
 1059              		.align	1
 1060              		.global	lv_label_get_letter_pos
 1061              		.syntax unified
 1062              		.thumb
 1063              		.thumb_func
 1064              		.fpu fpv4-sp-d16
 1066              	lv_label_get_letter_pos:
 1067              	.LVL103:
 1068              	.LFB473:
 525:lvgl/src/lv_widgets/lv_label.c ****     LV_ASSERT_OBJ(label, LV_OBJX_NAME);
 1069              		.loc 1 525 1 is_stmt 1 view -0
 1070              		.cfi_startproc
 1071              		@ args = 0, pretend = 0, frame = 32
 1072              		@ frame_needed = 0, uses_anonymous_args = 0
 525:lvgl/src/lv_widgets/lv_label.c ****     LV_ASSERT_OBJ(label, LV_OBJX_NAME);
 1073              		.loc 1 525 1 is_stmt 0 view .LVU277
 1074 0000 2DE9F04F 		push	{r4, r5, r6, r7, r8, r9, r10, fp, lr}
 1075              	.LCFI15:
 1076              		.cfi_def_cfa_offset 36
 1077              		.cfi_offset 4, -36
 1078              		.cfi_offset 5, -32
 1079              		.cfi_offset 6, -28
 1080              		.cfi_offset 7, -24
 1081              		.cfi_offset 8, -20
 1082              		.cfi_offset 9, -16
 1083              		.cfi_offset 10, -12
 1084              		.cfi_offset 11, -8
 1085              		.cfi_offset 14, -4
 1086 0004 8BB0     		sub	sp, sp, #44
 1087              	.LCFI16:
 1088              		.cfi_def_cfa_offset 80
 1089 0006 0646     		mov	r6, r0
 1090 0008 0791     		str	r1, [sp, #28]
 1091 000a 9046     		mov	r8, r2
 526:lvgl/src/lv_widgets/lv_label.c ****     LV_ASSERT_NULL(pos);
ARM GAS  D:\Temp\cclLOIfg.s 			page 52


 1092              		.loc 1 526 5 is_stmt 1 view .LVU278
 526:lvgl/src/lv_widgets/lv_label.c ****     LV_ASSERT_NULL(pos);
 1093              		.loc 1 526 5 view .LVU279
 1094 000c FFF7FEFF 		bl	lv_debug_check_null
 1095              	.LVL104:
 526:lvgl/src/lv_widgets/lv_label.c ****     LV_ASSERT_NULL(pos);
 1096              		.loc 1 526 5 is_stmt 0 view .LVU280
 1097 0010 28B9     		cbnz	r0, .L82
 526:lvgl/src/lv_widgets/lv_label.c ****     LV_ASSERT_NULL(pos);
 1098              		.loc 1 526 5 is_stmt 1 discriminator 1 view .LVU281
 526:lvgl/src/lv_widgets/lv_label.c ****     LV_ASSERT_NULL(pos);
 1099              		.loc 1 526 5 discriminator 1 view .LVU282
 1100 0012 3246     		mov	r2, r6
 1101 0014 0023     		movs	r3, #0
 1102 0016 8348     		ldr	r0, .L115
 1103 0018 FFF7FEFF 		bl	lv_debug_log_error
 1104              	.LVL105:
 1105              	.L83:
 526:lvgl/src/lv_widgets/lv_label.c ****     LV_ASSERT_NULL(pos);
 1106              		.loc 1 526 5 discriminator 1 view .LVU283
 526:lvgl/src/lv_widgets/lv_label.c ****     LV_ASSERT_NULL(pos);
 1107              		.loc 1 526 5 discriminator 1 view .LVU284
 1108 001c FEE7     		b	.L83
 1109              	.L82:
 526:lvgl/src/lv_widgets/lv_label.c ****     LV_ASSERT_NULL(pos);
 1110              		.loc 1 526 39 discriminator 2 view .LVU285
 527:lvgl/src/lv_widgets/lv_label.c **** 
 1111              		.loc 1 527 5 discriminator 2 view .LVU286
 527:lvgl/src/lv_widgets/lv_label.c **** 
 1112              		.loc 1 527 5 discriminator 2 view .LVU287
 1113 001e 4046     		mov	r0, r8
 1114 0020 FFF7FEFF 		bl	lv_debug_check_null
 1115              	.LVL106:
 1116 0024 28B9     		cbnz	r0, .L84
 527:lvgl/src/lv_widgets/lv_label.c **** 
 1117              		.loc 1 527 5 discriminator 1 view .LVU288
 527:lvgl/src/lv_widgets/lv_label.c **** 
 1118              		.loc 1 527 5 discriminator 1 view .LVU289
 1119 0026 4246     		mov	r2, r8
 1120 0028 0023     		movs	r3, #0
 1121 002a 7E48     		ldr	r0, .L115
 1122 002c FFF7FEFF 		bl	lv_debug_log_error
 1123              	.LVL107:
 1124              	.L85:
 527:lvgl/src/lv_widgets/lv_label.c **** 
 1125              		.loc 1 527 5 discriminator 2 view .LVU290
 527:lvgl/src/lv_widgets/lv_label.c **** 
 1126              		.loc 1 527 5 discriminator 2 view .LVU291
 1127 0030 FEE7     		b	.L85
 1128              	.L84:
 527:lvgl/src/lv_widgets/lv_label.c **** 
 1129              		.loc 1 527 24 discriminator 2 view .LVU292
 529:lvgl/src/lv_widgets/lv_label.c ****     lv_label_align_t align = lv_label_get_align(label);
 1130              		.loc 1 529 5 discriminator 2 view .LVU293
 529:lvgl/src/lv_widgets/lv_label.c ****     lv_label_align_t align = lv_label_get_align(label);
 1131              		.loc 1 529 32 is_stmt 0 discriminator 2 view .LVU294
 1132 0032 3046     		mov	r0, r6
ARM GAS  D:\Temp\cclLOIfg.s 			page 53


 1133 0034 FFF7FEFF 		bl	lv_label_get_text
 1134              	.LVL108:
 1135 0038 0546     		mov	r5, r0
 1136              	.LVL109:
 530:lvgl/src/lv_widgets/lv_label.c **** 
 1137              		.loc 1 530 5 is_stmt 1 discriminator 2 view .LVU295
 530:lvgl/src/lv_widgets/lv_label.c **** 
 1138              		.loc 1 530 30 is_stmt 0 discriminator 2 view .LVU296
 1139 003a 3046     		mov	r0, r6
 1140              	.LVL110:
 530:lvgl/src/lv_widgets/lv_label.c **** 
 1141              		.loc 1 530 30 discriminator 2 view .LVU297
 1142 003c FFF7FEFF 		bl	lv_label_get_align
 1143              	.LVL111:
 1144 0040 8146     		mov	r9, r0
 1145              	.LVL112:
 532:lvgl/src/lv_widgets/lv_label.c ****         pos->y = 0;
 1146              		.loc 1 532 5 is_stmt 1 discriminator 2 view .LVU298
 532:lvgl/src/lv_widgets/lv_label.c ****         pos->y = 0;
 1147              		.loc 1 532 11 is_stmt 0 discriminator 2 view .LVU299
 1148 0042 2B78     		ldrb	r3, [r5]	@ zero_extendqisi2
 532:lvgl/src/lv_widgets/lv_label.c ****         pos->y = 0;
 1149              		.loc 1 532 7 discriminator 2 view .LVU300
 1150 0044 DBB9     		cbnz	r3, .L86
 533:lvgl/src/lv_widgets/lv_label.c ****         switch(align) {
 1151              		.loc 1 533 9 is_stmt 1 view .LVU301
 533:lvgl/src/lv_widgets/lv_label.c ****         switch(align) {
 1152              		.loc 1 533 16 is_stmt 0 view .LVU302
 1153 0046 A8F80230 		strh	r3, [r8, #2]	@ movhi
 534:lvgl/src/lv_widgets/lv_label.c ****             case LV_LABEL_ALIGN_LEFT:
 1154              		.loc 1 534 9 is_stmt 1 view .LVU303
 1155 004a 0128     		cmp	r0, #1
 1156 004c 0ED0     		beq	.L87
 1157 004e 43B2     		sxtb	r3, r0
 1158 0050 43B1     		cbz	r3, .L88
 1159 0052 0228     		cmp	r0, #2
 1160 0054 40F0A180 		bne	.L81
 539:lvgl/src/lv_widgets/lv_label.c ****                 break;
 1161              		.loc 1 539 17 view .LVU304
 539:lvgl/src/lv_widgets/lv_label.c ****                 break;
 1162              		.loc 1 539 26 is_stmt 0 view .LVU305
 1163 0058 3046     		mov	r0, r6
 1164              	.LVL113:
 539:lvgl/src/lv_widgets/lv_label.c ****                 break;
 1165              		.loc 1 539 26 view .LVU306
 1166 005a FFF7FEFF 		bl	lv_obj_get_width
 1167              	.LVL114:
 539:lvgl/src/lv_widgets/lv_label.c ****                 break;
 1168              		.loc 1 539 24 view .LVU307
 1169 005e A8F80000 		strh	r0, [r8]	@ movhi
 540:lvgl/src/lv_widgets/lv_label.c ****             case LV_LABEL_ALIGN_CENTER:
 1170              		.loc 1 540 17 is_stmt 1 view .LVU308
 1171 0062 9AE0     		b	.L81
 1172              	.LVL115:
 1173              	.L88:
 536:lvgl/src/lv_widgets/lv_label.c ****                 break;
 1174              		.loc 1 536 17 view .LVU309
ARM GAS  D:\Temp\cclLOIfg.s 			page 54


 536:lvgl/src/lv_widgets/lv_label.c ****                 break;
 1175              		.loc 1 536 24 is_stmt 0 view .LVU310
 1176 0064 0023     		movs	r3, #0
 1177 0066 A8F80030 		strh	r3, [r8]	@ movhi
 537:lvgl/src/lv_widgets/lv_label.c ****             case LV_LABEL_ALIGN_RIGHT:
 1178              		.loc 1 537 17 is_stmt 1 view .LVU311
 1179 006a 96E0     		b	.L81
 1180              	.L87:
 542:lvgl/src/lv_widgets/lv_label.c ****                 break;
 1181              		.loc 1 542 17 view .LVU312
 542:lvgl/src/lv_widgets/lv_label.c ****                 break;
 1182              		.loc 1 542 26 is_stmt 0 view .LVU313
 1183 006c 3046     		mov	r0, r6
 1184              	.LVL116:
 542:lvgl/src/lv_widgets/lv_label.c ****                 break;
 1185              		.loc 1 542 26 view .LVU314
 1186 006e FFF7FEFF 		bl	lv_obj_get_width
 1187              	.LVL117:
 542:lvgl/src/lv_widgets/lv_label.c ****                 break;
 1188              		.loc 1 542 24 view .LVU315
 1189 0072 00EBD070 		add	r0, r0, r0, lsr #31
 1190 0076 4310     		asrs	r3, r0, #1
 1191 0078 A8F80030 		strh	r3, [r8]	@ movhi
 543:lvgl/src/lv_widgets/lv_label.c ****         }
 1192              		.loc 1 543 17 is_stmt 1 view .LVU316
 545:lvgl/src/lv_widgets/lv_label.c ****     }
 1193              		.loc 1 545 9 view .LVU317
 543:lvgl/src/lv_widgets/lv_label.c ****         }
 1194              		.loc 1 543 17 is_stmt 0 view .LVU318
 1195 007c 8DE0     		b	.L81
 1196              	.LVL118:
 1197              	.L86:
 548:lvgl/src/lv_widgets/lv_label.c ****     get_txt_coords(label, &txt_coords);
 1198              		.loc 1 548 5 is_stmt 1 view .LVU319
 549:lvgl/src/lv_widgets/lv_label.c **** 
 1199              		.loc 1 549 5 view .LVU320
 1200 007e 08A9     		add	r1, sp, #32
 1201 0080 3046     		mov	r0, r6
 1202              	.LVL119:
 549:lvgl/src/lv_widgets/lv_label.c **** 
 1203              		.loc 1 549 5 is_stmt 0 view .LVU321
 1204 0082 FFF7FEFF 		bl	get_txt_coords
 1205              	.LVL120:
 551:lvgl/src/lv_widgets/lv_label.c ****     uint32_t line_start      = 0;
 1206              		.loc 1 551 5 is_stmt 1 view .LVU322
 551:lvgl/src/lv_widgets/lv_label.c ****     uint32_t line_start      = 0;
 1207              		.loc 1 551 32 is_stmt 0 view .LVU323
 1208 0086 3046     		mov	r0, r6
 1209 0088 FFF7FEFF 		bl	lv_obj_get_ext_attr
 1210              	.LVL121:
 1211 008c 0446     		mov	r4, r0
 1212              	.LVL122:
 552:lvgl/src/lv_widgets/lv_label.c ****     uint32_t new_line_start  = 0;
 1213              		.loc 1 552 5 is_stmt 1 view .LVU324
 553:lvgl/src/lv_widgets/lv_label.c ****     lv_coord_t max_w         = lv_area_get_width(&txt_coords);
 1214              		.loc 1 553 5 view .LVU325
 554:lvgl/src/lv_widgets/lv_label.c ****     const lv_font_t * font   = lv_obj_get_style_text_font(label, LV_LABEL_PART_MAIN);
ARM GAS  D:\Temp\cclLOIfg.s 			page 55


 1215              		.loc 1 554 5 view .LVU326
 1216              	.LBB200:
 1217              	.LBI200:
 1218              		.file 3 "d:\\_project\\stm32\\f407\\hack_rf_new\\lvgl\\src\\lv_misc\\lv_area.h"
   1:d:\_project\stm32\f407\hack_rf_new\lvgl\src\lv_misc\lv_area.h **** /**
   2:d:\_project\stm32\f407\hack_rf_new\lvgl\src\lv_misc\lv_area.h ****  * @file lv_area.h
   3:d:\_project\stm32\f407\hack_rf_new\lvgl\src\lv_misc\lv_area.h ****  *
   4:d:\_project\stm32\f407\hack_rf_new\lvgl\src\lv_misc\lv_area.h ****  */
   5:d:\_project\stm32\f407\hack_rf_new\lvgl\src\lv_misc\lv_area.h **** 
   6:d:\_project\stm32\f407\hack_rf_new\lvgl\src\lv_misc\lv_area.h **** #ifndef LV_AREA_H
   7:d:\_project\stm32\f407\hack_rf_new\lvgl\src\lv_misc\lv_area.h **** #define LV_AREA_H
   8:d:\_project\stm32\f407\hack_rf_new\lvgl\src\lv_misc\lv_area.h **** 
   9:d:\_project\stm32\f407\hack_rf_new\lvgl\src\lv_misc\lv_area.h **** #ifdef __cplusplus
  10:d:\_project\stm32\f407\hack_rf_new\lvgl\src\lv_misc\lv_area.h **** extern "C" {
  11:d:\_project\stm32\f407\hack_rf_new\lvgl\src\lv_misc\lv_area.h **** #endif
  12:d:\_project\stm32\f407\hack_rf_new\lvgl\src\lv_misc\lv_area.h **** 
  13:d:\_project\stm32\f407\hack_rf_new\lvgl\src\lv_misc\lv_area.h **** /*********************
  14:d:\_project\stm32\f407\hack_rf_new\lvgl\src\lv_misc\lv_area.h ****  *      INCLUDES
  15:d:\_project\stm32\f407\hack_rf_new\lvgl\src\lv_misc\lv_area.h ****  *********************/
  16:d:\_project\stm32\f407\hack_rf_new\lvgl\src\lv_misc\lv_area.h **** #include "../lv_conf_internal.h"
  17:d:\_project\stm32\f407\hack_rf_new\lvgl\src\lv_misc\lv_area.h **** #include <string.h>
  18:d:\_project\stm32\f407\hack_rf_new\lvgl\src\lv_misc\lv_area.h **** #include <stdbool.h>
  19:d:\_project\stm32\f407\hack_rf_new\lvgl\src\lv_misc\lv_area.h **** #include <stdint.h>
  20:d:\_project\stm32\f407\hack_rf_new\lvgl\src\lv_misc\lv_area.h **** #include "lv_mem.h"
  21:d:\_project\stm32\f407\hack_rf_new\lvgl\src\lv_misc\lv_area.h **** 
  22:d:\_project\stm32\f407\hack_rf_new\lvgl\src\lv_misc\lv_area.h **** /*********************
  23:d:\_project\stm32\f407\hack_rf_new\lvgl\src\lv_misc\lv_area.h ****  *      DEFINES
  24:d:\_project\stm32\f407\hack_rf_new\lvgl\src\lv_misc\lv_area.h ****  *********************/
  25:d:\_project\stm32\f407\hack_rf_new\lvgl\src\lv_misc\lv_area.h **** /*To avoid overflow don't let the max ranges (reduce with 1000) */
  26:d:\_project\stm32\f407\hack_rf_new\lvgl\src\lv_misc\lv_area.h **** #define LV_COORD_MAX ((lv_coord_t)((uint32_t)((uint32_t)1 << (8 * sizeof(lv_coord_t) - 1)) - 1000))
  27:d:\_project\stm32\f407\hack_rf_new\lvgl\src\lv_misc\lv_area.h **** #define LV_COORD_MIN (-LV_COORD_MAX)
  28:d:\_project\stm32\f407\hack_rf_new\lvgl\src\lv_misc\lv_area.h **** 
  29:d:\_project\stm32\f407\hack_rf_new\lvgl\src\lv_misc\lv_area.h **** LV_EXPORT_CONST_INT(LV_COORD_MAX);
  30:d:\_project\stm32\f407\hack_rf_new\lvgl\src\lv_misc\lv_area.h **** LV_EXPORT_CONST_INT(LV_COORD_MIN);
  31:d:\_project\stm32\f407\hack_rf_new\lvgl\src\lv_misc\lv_area.h **** 
  32:d:\_project\stm32\f407\hack_rf_new\lvgl\src\lv_misc\lv_area.h **** /**********************
  33:d:\_project\stm32\f407\hack_rf_new\lvgl\src\lv_misc\lv_area.h ****  *      TYPEDEFS
  34:d:\_project\stm32\f407\hack_rf_new\lvgl\src\lv_misc\lv_area.h ****  **********************/
  35:d:\_project\stm32\f407\hack_rf_new\lvgl\src\lv_misc\lv_area.h **** 
  36:d:\_project\stm32\f407\hack_rf_new\lvgl\src\lv_misc\lv_area.h **** /**
  37:d:\_project\stm32\f407\hack_rf_new\lvgl\src\lv_misc\lv_area.h ****  * Represents a point on the screen.
  38:d:\_project\stm32\f407\hack_rf_new\lvgl\src\lv_misc\lv_area.h ****  */
  39:d:\_project\stm32\f407\hack_rf_new\lvgl\src\lv_misc\lv_area.h **** typedef struct {
  40:d:\_project\stm32\f407\hack_rf_new\lvgl\src\lv_misc\lv_area.h ****     lv_coord_t x;
  41:d:\_project\stm32\f407\hack_rf_new\lvgl\src\lv_misc\lv_area.h ****     lv_coord_t y;
  42:d:\_project\stm32\f407\hack_rf_new\lvgl\src\lv_misc\lv_area.h **** } lv_point_t;
  43:d:\_project\stm32\f407\hack_rf_new\lvgl\src\lv_misc\lv_area.h **** 
  44:d:\_project\stm32\f407\hack_rf_new\lvgl\src\lv_misc\lv_area.h **** /** Represents an area of the screen. */
  45:d:\_project\stm32\f407\hack_rf_new\lvgl\src\lv_misc\lv_area.h **** typedef struct {
  46:d:\_project\stm32\f407\hack_rf_new\lvgl\src\lv_misc\lv_area.h ****     lv_coord_t x1;
  47:d:\_project\stm32\f407\hack_rf_new\lvgl\src\lv_misc\lv_area.h ****     lv_coord_t y1;
  48:d:\_project\stm32\f407\hack_rf_new\lvgl\src\lv_misc\lv_area.h ****     lv_coord_t x2;
  49:d:\_project\stm32\f407\hack_rf_new\lvgl\src\lv_misc\lv_area.h ****     lv_coord_t y2;
  50:d:\_project\stm32\f407\hack_rf_new\lvgl\src\lv_misc\lv_area.h **** } lv_area_t;
  51:d:\_project\stm32\f407\hack_rf_new\lvgl\src\lv_misc\lv_area.h **** 
  52:d:\_project\stm32\f407\hack_rf_new\lvgl\src\lv_misc\lv_area.h **** /** Alignments */
  53:d:\_project\stm32\f407\hack_rf_new\lvgl\src\lv_misc\lv_area.h **** enum {
ARM GAS  D:\Temp\cclLOIfg.s 			page 56


  54:d:\_project\stm32\f407\hack_rf_new\lvgl\src\lv_misc\lv_area.h ****     LV_ALIGN_CENTER = 0,
  55:d:\_project\stm32\f407\hack_rf_new\lvgl\src\lv_misc\lv_area.h ****     LV_ALIGN_IN_TOP_LEFT,
  56:d:\_project\stm32\f407\hack_rf_new\lvgl\src\lv_misc\lv_area.h ****     LV_ALIGN_IN_TOP_MID,
  57:d:\_project\stm32\f407\hack_rf_new\lvgl\src\lv_misc\lv_area.h ****     LV_ALIGN_IN_TOP_RIGHT,
  58:d:\_project\stm32\f407\hack_rf_new\lvgl\src\lv_misc\lv_area.h ****     LV_ALIGN_IN_BOTTOM_LEFT,
  59:d:\_project\stm32\f407\hack_rf_new\lvgl\src\lv_misc\lv_area.h ****     LV_ALIGN_IN_BOTTOM_MID,
  60:d:\_project\stm32\f407\hack_rf_new\lvgl\src\lv_misc\lv_area.h ****     LV_ALIGN_IN_BOTTOM_RIGHT,
  61:d:\_project\stm32\f407\hack_rf_new\lvgl\src\lv_misc\lv_area.h ****     LV_ALIGN_IN_LEFT_MID,
  62:d:\_project\stm32\f407\hack_rf_new\lvgl\src\lv_misc\lv_area.h ****     LV_ALIGN_IN_RIGHT_MID,
  63:d:\_project\stm32\f407\hack_rf_new\lvgl\src\lv_misc\lv_area.h ****     LV_ALIGN_OUT_TOP_LEFT,
  64:d:\_project\stm32\f407\hack_rf_new\lvgl\src\lv_misc\lv_area.h ****     LV_ALIGN_OUT_TOP_MID,
  65:d:\_project\stm32\f407\hack_rf_new\lvgl\src\lv_misc\lv_area.h ****     LV_ALIGN_OUT_TOP_RIGHT,
  66:d:\_project\stm32\f407\hack_rf_new\lvgl\src\lv_misc\lv_area.h ****     LV_ALIGN_OUT_BOTTOM_LEFT,
  67:d:\_project\stm32\f407\hack_rf_new\lvgl\src\lv_misc\lv_area.h ****     LV_ALIGN_OUT_BOTTOM_MID,
  68:d:\_project\stm32\f407\hack_rf_new\lvgl\src\lv_misc\lv_area.h ****     LV_ALIGN_OUT_BOTTOM_RIGHT,
  69:d:\_project\stm32\f407\hack_rf_new\lvgl\src\lv_misc\lv_area.h ****     LV_ALIGN_OUT_LEFT_TOP,
  70:d:\_project\stm32\f407\hack_rf_new\lvgl\src\lv_misc\lv_area.h ****     LV_ALIGN_OUT_LEFT_MID,
  71:d:\_project\stm32\f407\hack_rf_new\lvgl\src\lv_misc\lv_area.h ****     LV_ALIGN_OUT_LEFT_BOTTOM,
  72:d:\_project\stm32\f407\hack_rf_new\lvgl\src\lv_misc\lv_area.h ****     LV_ALIGN_OUT_RIGHT_TOP,
  73:d:\_project\stm32\f407\hack_rf_new\lvgl\src\lv_misc\lv_area.h ****     LV_ALIGN_OUT_RIGHT_MID,
  74:d:\_project\stm32\f407\hack_rf_new\lvgl\src\lv_misc\lv_area.h ****     LV_ALIGN_OUT_RIGHT_BOTTOM,
  75:d:\_project\stm32\f407\hack_rf_new\lvgl\src\lv_misc\lv_area.h **** };
  76:d:\_project\stm32\f407\hack_rf_new\lvgl\src\lv_misc\lv_area.h **** typedef uint8_t lv_align_t;
  77:d:\_project\stm32\f407\hack_rf_new\lvgl\src\lv_misc\lv_area.h **** 
  78:d:\_project\stm32\f407\hack_rf_new\lvgl\src\lv_misc\lv_area.h **** /**********************
  79:d:\_project\stm32\f407\hack_rf_new\lvgl\src\lv_misc\lv_area.h ****  * GLOBAL PROTOTYPES
  80:d:\_project\stm32\f407\hack_rf_new\lvgl\src\lv_misc\lv_area.h ****  **********************/
  81:d:\_project\stm32\f407\hack_rf_new\lvgl\src\lv_misc\lv_area.h **** 
  82:d:\_project\stm32\f407\hack_rf_new\lvgl\src\lv_misc\lv_area.h **** /**
  83:d:\_project\stm32\f407\hack_rf_new\lvgl\src\lv_misc\lv_area.h ****  * Initialize an area
  84:d:\_project\stm32\f407\hack_rf_new\lvgl\src\lv_misc\lv_area.h ****  * @param area_p pointer to an area
  85:d:\_project\stm32\f407\hack_rf_new\lvgl\src\lv_misc\lv_area.h ****  * @param x1 left coordinate of the area
  86:d:\_project\stm32\f407\hack_rf_new\lvgl\src\lv_misc\lv_area.h ****  * @param y1 top coordinate of the area
  87:d:\_project\stm32\f407\hack_rf_new\lvgl\src\lv_misc\lv_area.h ****  * @param x2 right coordinate of the area
  88:d:\_project\stm32\f407\hack_rf_new\lvgl\src\lv_misc\lv_area.h ****  * @param y2 bottom coordinate of the area
  89:d:\_project\stm32\f407\hack_rf_new\lvgl\src\lv_misc\lv_area.h ****  */
  90:d:\_project\stm32\f407\hack_rf_new\lvgl\src\lv_misc\lv_area.h **** void lv_area_set(lv_area_t * area_p, lv_coord_t x1, lv_coord_t y1, lv_coord_t x2, lv_coord_t y2);
  91:d:\_project\stm32\f407\hack_rf_new\lvgl\src\lv_misc\lv_area.h **** 
  92:d:\_project\stm32\f407\hack_rf_new\lvgl\src\lv_misc\lv_area.h **** /**
  93:d:\_project\stm32\f407\hack_rf_new\lvgl\src\lv_misc\lv_area.h ****  * Copy an area
  94:d:\_project\stm32\f407\hack_rf_new\lvgl\src\lv_misc\lv_area.h ****  * @param dest pointer to the destination area
  95:d:\_project\stm32\f407\hack_rf_new\lvgl\src\lv_misc\lv_area.h ****  * @param src pointer to the source area
  96:d:\_project\stm32\f407\hack_rf_new\lvgl\src\lv_misc\lv_area.h ****  */
  97:d:\_project\stm32\f407\hack_rf_new\lvgl\src\lv_misc\lv_area.h **** inline static void lv_area_copy(lv_area_t * dest, const lv_area_t * src)
  98:d:\_project\stm32\f407\hack_rf_new\lvgl\src\lv_misc\lv_area.h **** {
  99:d:\_project\stm32\f407\hack_rf_new\lvgl\src\lv_misc\lv_area.h ****     _lv_memcpy_small(dest, src, sizeof(lv_area_t));
 100:d:\_project\stm32\f407\hack_rf_new\lvgl\src\lv_misc\lv_area.h **** }
 101:d:\_project\stm32\f407\hack_rf_new\lvgl\src\lv_misc\lv_area.h **** 
 102:d:\_project\stm32\f407\hack_rf_new\lvgl\src\lv_misc\lv_area.h **** /**
 103:d:\_project\stm32\f407\hack_rf_new\lvgl\src\lv_misc\lv_area.h ****  * Get the width of an area
 104:d:\_project\stm32\f407\hack_rf_new\lvgl\src\lv_misc\lv_area.h ****  * @param area_p pointer to an area
 105:d:\_project\stm32\f407\hack_rf_new\lvgl\src\lv_misc\lv_area.h ****  * @return the width of the area (if x1 == x2 -> width = 1)
 106:d:\_project\stm32\f407\hack_rf_new\lvgl\src\lv_misc\lv_area.h ****  */
 107:d:\_project\stm32\f407\hack_rf_new\lvgl\src\lv_misc\lv_area.h **** static inline lv_coord_t lv_area_get_width(const lv_area_t * area_p)
 1219              		.loc 3 107 26 view .LVU327
 1220              	.LBB201:
 108:d:\_project\stm32\f407\hack_rf_new\lvgl\src\lv_misc\lv_area.h **** {
ARM GAS  D:\Temp\cclLOIfg.s 			page 57


 109:d:\_project\stm32\f407\hack_rf_new\lvgl\src\lv_misc\lv_area.h ****     return (lv_coord_t)(area_p->x2 - area_p->x1 + 1);
 1221              		.loc 3 109 5 view .LVU328
 1222              		.loc 3 109 31 is_stmt 0 view .LVU329
 1223 008e BDF82430 		ldrh	r3, [sp, #36]
 1224              		.loc 3 109 44 view .LVU330
 1225 0092 BDF82020 		ldrh	r2, [sp, #32]
 1226              		.loc 3 109 36 view .LVU331
 1227 0096 9B1A     		subs	r3, r3, r2
 1228 0098 9BB2     		uxth	r3, r3
 1229              		.loc 3 109 49 view .LVU332
 1230 009a 0133     		adds	r3, r3, #1
 1231              		.loc 3 109 12 view .LVU333
 1232 009c 1BB2     		sxth	r3, r3
 1233 009e 9A46     		mov	r10, r3
 1234              	.LVL123:
 1235              		.loc 3 109 12 view .LVU334
 1236              	.LBE201:
 1237              	.LBE200:
 555:lvgl/src/lv_widgets/lv_label.c ****     lv_style_int_t line_space = lv_obj_get_style_text_line_space(label, LV_LABEL_PART_MAIN);
 1238              		.loc 1 555 5 is_stmt 1 view .LVU335
 1239              	.LBB202:
 1240              	.LBI202:
 114:lvgl/src/lv_widgets/../lv_core/lv_obj_style_dec.h **** _LV_OBJ_STYLE_SET_GET_DECLARE(PAD_INNER, pad_inner, lv_style_int_t, _int, scalar)
 115:lvgl/src/lv_widgets/../lv_core/lv_obj_style_dec.h **** _LV_OBJ_STYLE_SET_GET_DECLARE(MARGIN_TOP, margin_top, lv_style_int_t, _int, scalar)
 116:lvgl/src/lv_widgets/../lv_core/lv_obj_style_dec.h **** _LV_OBJ_STYLE_SET_GET_DECLARE(MARGIN_BOTTOM, margin_bottom, lv_style_int_t, _int, scalar)
 117:lvgl/src/lv_widgets/../lv_core/lv_obj_style_dec.h **** _LV_OBJ_STYLE_SET_GET_DECLARE(MARGIN_LEFT, margin_left, lv_style_int_t, _int, scalar)
 118:lvgl/src/lv_widgets/../lv_core/lv_obj_style_dec.h **** _LV_OBJ_STYLE_SET_GET_DECLARE(MARGIN_RIGHT, margin_right, lv_style_int_t, _int, scalar)
 119:lvgl/src/lv_widgets/../lv_core/lv_obj_style_dec.h **** _LV_OBJ_STYLE_SET_GET_DECLARE(BG_BLEND_MODE, bg_blend_mode, lv_blend_mode_t, _int, scalar)
 120:lvgl/src/lv_widgets/../lv_core/lv_obj_style_dec.h **** _LV_OBJ_STYLE_SET_GET_DECLARE(BG_MAIN_STOP, bg_main_stop, lv_style_int_t, _int, scalar)
 121:lvgl/src/lv_widgets/../lv_core/lv_obj_style_dec.h **** _LV_OBJ_STYLE_SET_GET_DECLARE(BG_GRAD_STOP, bg_grad_stop, lv_style_int_t, _int, scalar)
 122:lvgl/src/lv_widgets/../lv_core/lv_obj_style_dec.h **** _LV_OBJ_STYLE_SET_GET_DECLARE(BG_GRAD_DIR, bg_grad_dir, lv_grad_dir_t, _int, scalar)
 123:lvgl/src/lv_widgets/../lv_core/lv_obj_style_dec.h **** _LV_OBJ_STYLE_SET_GET_DECLARE(BG_COLOR, bg_color, lv_color_t, _color, nonscalar)
 124:lvgl/src/lv_widgets/../lv_core/lv_obj_style_dec.h **** _LV_OBJ_STYLE_SET_GET_DECLARE(BG_GRAD_COLOR, bg_grad_color, lv_color_t, _color, nonscalar)
 125:lvgl/src/lv_widgets/../lv_core/lv_obj_style_dec.h **** _LV_OBJ_STYLE_SET_GET_DECLARE(BG_OPA, bg_opa, lv_opa_t, _opa, scalar)
 126:lvgl/src/lv_widgets/../lv_core/lv_obj_style_dec.h **** _LV_OBJ_STYLE_SET_GET_DECLARE(BORDER_WIDTH, border_width, lv_style_int_t, _int, scalar)
 127:lvgl/src/lv_widgets/../lv_core/lv_obj_style_dec.h **** _LV_OBJ_STYLE_SET_GET_DECLARE(BORDER_SIDE, border_side, lv_border_side_t, _int, scalar)
 128:lvgl/src/lv_widgets/../lv_core/lv_obj_style_dec.h **** _LV_OBJ_STYLE_SET_GET_DECLARE(BORDER_BLEND_MODE, border_blend_mode, lv_blend_mode_t, _int, scalar)
 129:lvgl/src/lv_widgets/../lv_core/lv_obj_style_dec.h **** _LV_OBJ_STYLE_SET_GET_DECLARE(BORDER_POST, border_post, bool, _int, scalar)
 130:lvgl/src/lv_widgets/../lv_core/lv_obj_style_dec.h **** _LV_OBJ_STYLE_SET_GET_DECLARE(BORDER_COLOR, border_color, lv_color_t, _color, nonscalar)
 131:lvgl/src/lv_widgets/../lv_core/lv_obj_style_dec.h **** _LV_OBJ_STYLE_SET_GET_DECLARE(BORDER_OPA, border_opa, lv_opa_t, _opa, scalar)
 132:lvgl/src/lv_widgets/../lv_core/lv_obj_style_dec.h **** _LV_OBJ_STYLE_SET_GET_DECLARE(OUTLINE_WIDTH, outline_width, lv_style_int_t, _int, scalar)
 133:lvgl/src/lv_widgets/../lv_core/lv_obj_style_dec.h **** _LV_OBJ_STYLE_SET_GET_DECLARE(OUTLINE_PAD, outline_pad, lv_style_int_t, _int, scalar)
 134:lvgl/src/lv_widgets/../lv_core/lv_obj_style_dec.h **** _LV_OBJ_STYLE_SET_GET_DECLARE(OUTLINE_BLEND_MODE, outline_blend_mode, lv_blend_mode_t, _int, scalar
 135:lvgl/src/lv_widgets/../lv_core/lv_obj_style_dec.h **** _LV_OBJ_STYLE_SET_GET_DECLARE(OUTLINE_COLOR, outline_color, lv_color_t, _color, nonscalar)
 136:lvgl/src/lv_widgets/../lv_core/lv_obj_style_dec.h **** _LV_OBJ_STYLE_SET_GET_DECLARE(OUTLINE_OPA, outline_opa, lv_opa_t, _opa, scalar)
 137:lvgl/src/lv_widgets/../lv_core/lv_obj_style_dec.h **** _LV_OBJ_STYLE_SET_GET_DECLARE(SHADOW_WIDTH, shadow_width, lv_style_int_t, _int, scalar)
 138:lvgl/src/lv_widgets/../lv_core/lv_obj_style_dec.h **** _LV_OBJ_STYLE_SET_GET_DECLARE(SHADOW_OFS_X, shadow_ofs_x, lv_style_int_t, _int, scalar)
 139:lvgl/src/lv_widgets/../lv_core/lv_obj_style_dec.h **** _LV_OBJ_STYLE_SET_GET_DECLARE(SHADOW_OFS_Y, shadow_ofs_y, lv_style_int_t, _int, scalar)
 140:lvgl/src/lv_widgets/../lv_core/lv_obj_style_dec.h **** _LV_OBJ_STYLE_SET_GET_DECLARE(SHADOW_SPREAD, shadow_spread, lv_style_int_t, _int, scalar)
 141:lvgl/src/lv_widgets/../lv_core/lv_obj_style_dec.h **** _LV_OBJ_STYLE_SET_GET_DECLARE(SHADOW_BLEND_MODE, shadow_blend_mode, lv_blend_mode_t, _int, scalar)
 142:lvgl/src/lv_widgets/../lv_core/lv_obj_style_dec.h **** _LV_OBJ_STYLE_SET_GET_DECLARE(SHADOW_COLOR, shadow_color, lv_color_t, _color, nonscalar)
 143:lvgl/src/lv_widgets/../lv_core/lv_obj_style_dec.h **** _LV_OBJ_STYLE_SET_GET_DECLARE(SHADOW_OPA, shadow_opa, lv_opa_t, _opa, scalar)
 144:lvgl/src/lv_widgets/../lv_core/lv_obj_style_dec.h **** _LV_OBJ_STYLE_SET_GET_DECLARE(PATTERN_REPEAT, pattern_repeat, bool, _int, scalar)
 145:lvgl/src/lv_widgets/../lv_core/lv_obj_style_dec.h **** _LV_OBJ_STYLE_SET_GET_DECLARE(PATTERN_BLEND_MODE, pattern_blend_mode, lv_blend_mode_t, _int, scalar
 146:lvgl/src/lv_widgets/../lv_core/lv_obj_style_dec.h **** _LV_OBJ_STYLE_SET_GET_DECLARE(PATTERN_RECOLOR, pattern_recolor, lv_color_t, _color, nonscalar)
 147:lvgl/src/lv_widgets/../lv_core/lv_obj_style_dec.h **** _LV_OBJ_STYLE_SET_GET_DECLARE(PATTERN_OPA, pattern_opa, lv_opa_t, _opa, scalar)
 148:lvgl/src/lv_widgets/../lv_core/lv_obj_style_dec.h **** _LV_OBJ_STYLE_SET_GET_DECLARE(PATTERN_RECOLOR_OPA, pattern_recolor_opa, lv_opa_t, _opa, scalar)
ARM GAS  D:\Temp\cclLOIfg.s 			page 58


 149:lvgl/src/lv_widgets/../lv_core/lv_obj_style_dec.h **** _LV_OBJ_STYLE_SET_GET_DECLARE(PATTERN_IMAGE, pattern_image, const void *, _ptr, scalar)
 150:lvgl/src/lv_widgets/../lv_core/lv_obj_style_dec.h **** _LV_OBJ_STYLE_SET_GET_DECLARE(VALUE_LETTER_SPACE, value_letter_space, lv_style_int_t, _int, scalar)
 151:lvgl/src/lv_widgets/../lv_core/lv_obj_style_dec.h **** _LV_OBJ_STYLE_SET_GET_DECLARE(VALUE_LINE_SPACE, value_line_space, lv_style_int_t, _int, scalar)
 152:lvgl/src/lv_widgets/../lv_core/lv_obj_style_dec.h **** _LV_OBJ_STYLE_SET_GET_DECLARE(VALUE_BLEND_MODE, value_blend_mode, lv_blend_mode_t, _int, scalar)
 153:lvgl/src/lv_widgets/../lv_core/lv_obj_style_dec.h **** _LV_OBJ_STYLE_SET_GET_DECLARE(VALUE_OFS_X, value_ofs_x, lv_style_int_t, _int, scalar)
 154:lvgl/src/lv_widgets/../lv_core/lv_obj_style_dec.h **** _LV_OBJ_STYLE_SET_GET_DECLARE(VALUE_OFS_Y, value_ofs_y, lv_style_int_t, _int, scalar)
 155:lvgl/src/lv_widgets/../lv_core/lv_obj_style_dec.h **** _LV_OBJ_STYLE_SET_GET_DECLARE(VALUE_ALIGN, value_align, lv_align_t, _int, scalar)
 156:lvgl/src/lv_widgets/../lv_core/lv_obj_style_dec.h **** _LV_OBJ_STYLE_SET_GET_DECLARE(VALUE_COLOR, value_color, lv_color_t, _color, nonscalar)
 157:lvgl/src/lv_widgets/../lv_core/lv_obj_style_dec.h **** _LV_OBJ_STYLE_SET_GET_DECLARE(VALUE_OPA, value_opa, lv_opa_t, _opa, scalar)
 158:lvgl/src/lv_widgets/../lv_core/lv_obj_style_dec.h **** _LV_OBJ_STYLE_SET_GET_DECLARE(VALUE_FONT, value_font, const lv_font_t *, _ptr, scalar)
 159:lvgl/src/lv_widgets/../lv_core/lv_obj_style_dec.h **** _LV_OBJ_STYLE_SET_GET_DECLARE(VALUE_STR, value_str, const char *, _ptr, scalar)
 160:lvgl/src/lv_widgets/../lv_core/lv_obj_style_dec.h **** _LV_OBJ_STYLE_SET_GET_DECLARE(TEXT_LETTER_SPACE, text_letter_space, lv_style_int_t, _int, scalar)
 161:lvgl/src/lv_widgets/../lv_core/lv_obj_style_dec.h **** _LV_OBJ_STYLE_SET_GET_DECLARE(TEXT_LINE_SPACE, text_line_space, lv_style_int_t, _int, scalar)
 162:lvgl/src/lv_widgets/../lv_core/lv_obj_style_dec.h **** _LV_OBJ_STYLE_SET_GET_DECLARE(TEXT_DECOR, text_decor, lv_text_decor_t, _int, scalar)
 163:lvgl/src/lv_widgets/../lv_core/lv_obj_style_dec.h **** _LV_OBJ_STYLE_SET_GET_DECLARE(TEXT_BLEND_MODE, text_blend_mode, lv_blend_mode_t, _int, scalar)
 164:lvgl/src/lv_widgets/../lv_core/lv_obj_style_dec.h **** _LV_OBJ_STYLE_SET_GET_DECLARE(TEXT_COLOR, text_color, lv_color_t, _color, nonscalar)
 165:lvgl/src/lv_widgets/../lv_core/lv_obj_style_dec.h **** _LV_OBJ_STYLE_SET_GET_DECLARE(TEXT_SEL_COLOR, text_sel_color, lv_color_t, _color, nonscalar)
 166:lvgl/src/lv_widgets/../lv_core/lv_obj_style_dec.h **** _LV_OBJ_STYLE_SET_GET_DECLARE(TEXT_SEL_BG_COLOR, text_sel_bg_color, lv_color_t, _color, nonscalar)
 167:lvgl/src/lv_widgets/../lv_core/lv_obj_style_dec.h **** _LV_OBJ_STYLE_SET_GET_DECLARE(TEXT_OPA, text_opa, lv_opa_t, _opa, scalar)
 168:lvgl/src/lv_widgets/../lv_core/lv_obj_style_dec.h **** _LV_OBJ_STYLE_SET_GET_DECLARE(TEXT_FONT, text_font, const lv_font_t *, _ptr, scalar)
 1241              		.loc 2 168 1 view .LVU336
 1242              	.LBB203:
 1243              		.loc 2 168 1 view .LVU337
 1244 00a0 48F28E02 		movw	r2, #32910
 1245 00a4 0021     		movs	r1, #0
 1246 00a6 3046     		mov	r0, r6
 1247              	.LVL124:
 1248              		.loc 2 168 1 is_stmt 0 view .LVU338
 1249 00a8 FFF7FEFF 		bl	_lv_obj_get_style_ptr
 1250              	.LVL125:
 1251 00ac 0746     		mov	r7, r0
 1252 00ae 0490     		str	r0, [sp, #16]
 1253              	.LVL126:
 1254              		.loc 2 168 1 view .LVU339
 1255              	.LBE203:
 1256              	.LBE202:
 556:lvgl/src/lv_widgets/lv_label.c ****     lv_style_int_t letter_space = lv_obj_get_style_text_letter_space(label, LV_LABEL_PART_MAIN);
 1257              		.loc 1 556 5 is_stmt 1 view .LVU340
 1258              	.LBB204:
 1259              	.LBI204:
 161:lvgl/src/lv_widgets/../lv_core/lv_obj_style_dec.h **** _LV_OBJ_STYLE_SET_GET_DECLARE(TEXT_DECOR, text_decor, lv_text_decor_t, _int, scalar)
 1260              		.loc 2 161 1 view .LVU341
 1261              	.LBB205:
 161:lvgl/src/lv_widgets/../lv_core/lv_obj_style_dec.h **** _LV_OBJ_STYLE_SET_GET_DECLARE(TEXT_DECOR, text_decor, lv_text_decor_t, _int, scalar)
 1262              		.loc 2 161 1 view .LVU342
 1263 00b0 48F28102 		movw	r2, #32897
 1264 00b4 0021     		movs	r1, #0
 1265 00b6 3046     		mov	r0, r6
 1266              	.LVL127:
 161:lvgl/src/lv_widgets/../lv_core/lv_obj_style_dec.h **** _LV_OBJ_STYLE_SET_GET_DECLARE(TEXT_DECOR, text_decor, lv_text_decor_t, _int, scalar)
 1267              		.loc 2 161 1 is_stmt 0 view .LVU343
 1268 00b8 FFF7FEFF 		bl	_lv_obj_get_style_int
 1269              	.LVL128:
 1270 00bc 0590     		str	r0, [sp, #20]
 1271              	.LVL129:
 161:lvgl/src/lv_widgets/../lv_core/lv_obj_style_dec.h **** _LV_OBJ_STYLE_SET_GET_DECLARE(TEXT_DECOR, text_decor, lv_text_decor_t, _int, scalar)
 1272              		.loc 2 161 1 view .LVU344
ARM GAS  D:\Temp\cclLOIfg.s 			page 59


 1273              	.LBE205:
 1274              	.LBE204:
 557:lvgl/src/lv_widgets/lv_label.c ****     lv_coord_t letter_height    = lv_font_get_line_height(font);
 1275              		.loc 1 557 5 is_stmt 1 view .LVU345
 1276              	.LBB206:
 1277              	.LBI206:
 160:lvgl/src/lv_widgets/../lv_core/lv_obj_style_dec.h **** _LV_OBJ_STYLE_SET_GET_DECLARE(TEXT_LINE_SPACE, text_line_space, lv_style_int_t, _int, scalar)
 1278              		.loc 2 160 1 view .LVU346
 1279              	.LBB207:
 160:lvgl/src/lv_widgets/../lv_core/lv_obj_style_dec.h **** _LV_OBJ_STYLE_SET_GET_DECLARE(TEXT_LINE_SPACE, text_line_space, lv_style_int_t, _int, scalar)
 1280              		.loc 2 160 1 view .LVU347
 1281 00be 48F28002 		movw	r2, #32896
 1282 00c2 0021     		movs	r1, #0
 1283 00c4 3046     		mov	r0, r6
 1284 00c6 FFF7FEFF 		bl	_lv_obj_get_style_int
 1285              	.LVL130:
 1286 00ca 0390     		str	r0, [sp, #12]
 1287              	.LVL131:
 160:lvgl/src/lv_widgets/../lv_core/lv_obj_style_dec.h **** _LV_OBJ_STYLE_SET_GET_DECLARE(TEXT_LINE_SPACE, text_line_space, lv_style_int_t, _int, scalar)
 1288              		.loc 2 160 1 is_stmt 0 view .LVU348
 1289              	.LBE207:
 1290              	.LBE206:
 558:lvgl/src/lv_widgets/lv_label.c ****     lv_coord_t y             = 0;
 1291              		.loc 1 558 5 is_stmt 1 view .LVU349
 1292              	.LBB208:
 1293              	.LBI208:
 1294              		.file 4 "lvgl/src/lv_widgets/../lv_core/../lv_font/lv_font.h"
   1:lvgl/src/lv_widgets/../lv_core/../lv_font/lv_font.h **** /**
   2:lvgl/src/lv_widgets/../lv_core/../lv_font/lv_font.h ****  * @file lv_font.h
   3:lvgl/src/lv_widgets/../lv_core/../lv_font/lv_font.h ****  *
   4:lvgl/src/lv_widgets/../lv_core/../lv_font/lv_font.h ****  */
   5:lvgl/src/lv_widgets/../lv_core/../lv_font/lv_font.h **** 
   6:lvgl/src/lv_widgets/../lv_core/../lv_font/lv_font.h **** #ifndef LV_FONT_H
   7:lvgl/src/lv_widgets/../lv_core/../lv_font/lv_font.h **** #define LV_FONT_H
   8:lvgl/src/lv_widgets/../lv_core/../lv_font/lv_font.h **** 
   9:lvgl/src/lv_widgets/../lv_core/../lv_font/lv_font.h **** #ifdef __cplusplus
  10:lvgl/src/lv_widgets/../lv_core/../lv_font/lv_font.h **** extern "C" {
  11:lvgl/src/lv_widgets/../lv_core/../lv_font/lv_font.h **** #endif
  12:lvgl/src/lv_widgets/../lv_core/../lv_font/lv_font.h **** 
  13:lvgl/src/lv_widgets/../lv_core/../lv_font/lv_font.h **** /*********************
  14:lvgl/src/lv_widgets/../lv_core/../lv_font/lv_font.h ****  *      INCLUDES
  15:lvgl/src/lv_widgets/../lv_core/../lv_font/lv_font.h ****  *********************/
  16:lvgl/src/lv_widgets/../lv_core/../lv_font/lv_font.h **** #include "../lv_conf_internal.h"
  17:lvgl/src/lv_widgets/../lv_core/../lv_font/lv_font.h **** #include <stdint.h>
  18:lvgl/src/lv_widgets/../lv_core/../lv_font/lv_font.h **** #include <stddef.h>
  19:lvgl/src/lv_widgets/../lv_core/../lv_font/lv_font.h **** #include <stdbool.h>
  20:lvgl/src/lv_widgets/../lv_core/../lv_font/lv_font.h **** 
  21:lvgl/src/lv_widgets/../lv_core/../lv_font/lv_font.h **** #include "lv_symbol_def.h"
  22:lvgl/src/lv_widgets/../lv_core/../lv_font/lv_font.h **** #include "../lv_misc/lv_area.h"
  23:lvgl/src/lv_widgets/../lv_core/../lv_font/lv_font.h **** 
  24:lvgl/src/lv_widgets/../lv_core/../lv_font/lv_font.h **** /*********************
  25:lvgl/src/lv_widgets/../lv_core/../lv_font/lv_font.h ****  *      DEFINES
  26:lvgl/src/lv_widgets/../lv_core/../lv_font/lv_font.h ****  *********************/
  27:lvgl/src/lv_widgets/../lv_core/../lv_font/lv_font.h **** 
  28:lvgl/src/lv_widgets/../lv_core/../lv_font/lv_font.h **** /**********************
  29:lvgl/src/lv_widgets/../lv_core/../lv_font/lv_font.h ****  *      TYPEDEFS
  30:lvgl/src/lv_widgets/../lv_core/../lv_font/lv_font.h ****  **********************/
ARM GAS  D:\Temp\cclLOIfg.s 			page 60


  31:lvgl/src/lv_widgets/../lv_core/../lv_font/lv_font.h **** 
  32:lvgl/src/lv_widgets/../lv_core/../lv_font/lv_font.h **** /*------------------
  33:lvgl/src/lv_widgets/../lv_core/../lv_font/lv_font.h ****  * General types
  34:lvgl/src/lv_widgets/../lv_core/../lv_font/lv_font.h ****  *-----------------*/
  35:lvgl/src/lv_widgets/../lv_core/../lv_font/lv_font.h **** 
  36:lvgl/src/lv_widgets/../lv_core/../lv_font/lv_font.h **** /** Describes the properties of a glyph. */
  37:lvgl/src/lv_widgets/../lv_core/../lv_font/lv_font.h **** typedef struct {
  38:lvgl/src/lv_widgets/../lv_core/../lv_font/lv_font.h ****     uint16_t adv_w; /**< The glyph needs this space. Draw the next glyph after this width. 8 bit in
  39:lvgl/src/lv_widgets/../lv_core/../lv_font/lv_font.h ****     uint16_t box_w;  /**< Width of the glyph's bounding box*/
  40:lvgl/src/lv_widgets/../lv_core/../lv_font/lv_font.h ****     uint16_t box_h;  /**< Height of the glyph's bounding box*/
  41:lvgl/src/lv_widgets/../lv_core/../lv_font/lv_font.h ****     int16_t ofs_x;   /**< x offset of the bounding box*/
  42:lvgl/src/lv_widgets/../lv_core/../lv_font/lv_font.h ****     int16_t ofs_y;  /**< y offset of the bounding box*/
  43:lvgl/src/lv_widgets/../lv_core/../lv_font/lv_font.h ****     uint8_t bpp;   /**< Bit-per-pixel: 1, 2, 4, 8*/
  44:lvgl/src/lv_widgets/../lv_core/../lv_font/lv_font.h **** } lv_font_glyph_dsc_t;
  45:lvgl/src/lv_widgets/../lv_core/../lv_font/lv_font.h **** 
  46:lvgl/src/lv_widgets/../lv_core/../lv_font/lv_font.h **** /** The bitmaps might be upscaled by 3 to achieve subpixel rendering. */
  47:lvgl/src/lv_widgets/../lv_core/../lv_font/lv_font.h **** enum {
  48:lvgl/src/lv_widgets/../lv_core/../lv_font/lv_font.h ****     LV_FONT_SUBPX_NONE,
  49:lvgl/src/lv_widgets/../lv_core/../lv_font/lv_font.h ****     LV_FONT_SUBPX_HOR,
  50:lvgl/src/lv_widgets/../lv_core/../lv_font/lv_font.h ****     LV_FONT_SUBPX_VER,
  51:lvgl/src/lv_widgets/../lv_core/../lv_font/lv_font.h ****     LV_FONT_SUBPX_BOTH,
  52:lvgl/src/lv_widgets/../lv_core/../lv_font/lv_font.h **** };
  53:lvgl/src/lv_widgets/../lv_core/../lv_font/lv_font.h **** 
  54:lvgl/src/lv_widgets/../lv_core/../lv_font/lv_font.h **** typedef uint8_t lv_font_subpx_t;
  55:lvgl/src/lv_widgets/../lv_core/../lv_font/lv_font.h **** 
  56:lvgl/src/lv_widgets/../lv_core/../lv_font/lv_font.h **** /** Describe the properties of a font*/
  57:lvgl/src/lv_widgets/../lv_core/../lv_font/lv_font.h **** typedef struct _lv_font_struct {
  58:lvgl/src/lv_widgets/../lv_core/../lv_font/lv_font.h ****     /** Get a glyph's descriptor from a font*/
  59:lvgl/src/lv_widgets/../lv_core/../lv_font/lv_font.h ****     bool (*get_glyph_dsc)(const struct _lv_font_struct *, lv_font_glyph_dsc_t *, uint32_t letter, u
  60:lvgl/src/lv_widgets/../lv_core/../lv_font/lv_font.h **** 
  61:lvgl/src/lv_widgets/../lv_core/../lv_font/lv_font.h ****     /** Get a glyph's bitmap from a font*/
  62:lvgl/src/lv_widgets/../lv_core/../lv_font/lv_font.h ****     const uint8_t * (*get_glyph_bitmap)(const struct _lv_font_struct *, uint32_t);
  63:lvgl/src/lv_widgets/../lv_core/../lv_font/lv_font.h **** 
  64:lvgl/src/lv_widgets/../lv_core/../lv_font/lv_font.h ****     /*Pointer to the font in a font pack (must have the same line height)*/
  65:lvgl/src/lv_widgets/../lv_core/../lv_font/lv_font.h ****     lv_coord_t line_height;         /**< The real line height where any text fits*/
  66:lvgl/src/lv_widgets/../lv_core/../lv_font/lv_font.h ****     lv_coord_t base_line;           /**< Base line measured from the top of the line_height*/
  67:lvgl/src/lv_widgets/../lv_core/../lv_font/lv_font.h ****     uint8_t subpx  : 2;             /**< An element of `lv_font_subpx_t`*/
  68:lvgl/src/lv_widgets/../lv_core/../lv_font/lv_font.h **** 
  69:lvgl/src/lv_widgets/../lv_core/../lv_font/lv_font.h ****     int8_t underline_position;      /**< Distance between the top of the underline and base line (<
  70:lvgl/src/lv_widgets/../lv_core/../lv_font/lv_font.h ****     int8_t underline_thickness;     /**< Thickness of the underline*/
  71:lvgl/src/lv_widgets/../lv_core/../lv_font/lv_font.h **** 
  72:lvgl/src/lv_widgets/../lv_core/../lv_font/lv_font.h ****     void * dsc;                     /**< Store implementation specific or run_time data or caching 
  73:lvgl/src/lv_widgets/../lv_core/../lv_font/lv_font.h **** #if LV_USE_USER_DATA
  74:lvgl/src/lv_widgets/../lv_core/../lv_font/lv_font.h ****     lv_font_user_data_t user_data;  /**< Custom user data for font. */
  75:lvgl/src/lv_widgets/../lv_core/../lv_font/lv_font.h **** #endif
  76:lvgl/src/lv_widgets/../lv_core/../lv_font/lv_font.h **** 
  77:lvgl/src/lv_widgets/../lv_core/../lv_font/lv_font.h **** } lv_font_t;
  78:lvgl/src/lv_widgets/../lv_core/../lv_font/lv_font.h **** 
  79:lvgl/src/lv_widgets/../lv_core/../lv_font/lv_font.h **** /**********************
  80:lvgl/src/lv_widgets/../lv_core/../lv_font/lv_font.h ****  * GLOBAL PROTOTYPES
  81:lvgl/src/lv_widgets/../lv_core/../lv_font/lv_font.h ****  **********************/
  82:lvgl/src/lv_widgets/../lv_core/../lv_font/lv_font.h **** 
  83:lvgl/src/lv_widgets/../lv_core/../lv_font/lv_font.h **** /**
  84:lvgl/src/lv_widgets/../lv_core/../lv_font/lv_font.h ****  * Return with the bitmap of a font.
  85:lvgl/src/lv_widgets/../lv_core/../lv_font/lv_font.h ****  * @param font_p pointer to a font
  86:lvgl/src/lv_widgets/../lv_core/../lv_font/lv_font.h ****  * @param letter an UNICODE character code
  87:lvgl/src/lv_widgets/../lv_core/../lv_font/lv_font.h ****  * @return pointer to the bitmap of the letter
ARM GAS  D:\Temp\cclLOIfg.s 			page 61


  88:lvgl/src/lv_widgets/../lv_core/../lv_font/lv_font.h ****  */
  89:lvgl/src/lv_widgets/../lv_core/../lv_font/lv_font.h **** const uint8_t * lv_font_get_glyph_bitmap(const lv_font_t * font_p, uint32_t letter);
  90:lvgl/src/lv_widgets/../lv_core/../lv_font/lv_font.h **** 
  91:lvgl/src/lv_widgets/../lv_core/../lv_font/lv_font.h **** /**
  92:lvgl/src/lv_widgets/../lv_core/../lv_font/lv_font.h ****  * Get the descriptor of a glyph
  93:lvgl/src/lv_widgets/../lv_core/../lv_font/lv_font.h ****  * @param font_p pointer to font
  94:lvgl/src/lv_widgets/../lv_core/../lv_font/lv_font.h ****  * @param dsc_out store the result descriptor here
  95:lvgl/src/lv_widgets/../lv_core/../lv_font/lv_font.h ****  * @param letter an UNICODE letter code
  96:lvgl/src/lv_widgets/../lv_core/../lv_font/lv_font.h ****  * @return true: descriptor is successfully loaded into `dsc_out`.
  97:lvgl/src/lv_widgets/../lv_core/../lv_font/lv_font.h ****  *         false: the letter was not found, no data is loaded to `dsc_out`
  98:lvgl/src/lv_widgets/../lv_core/../lv_font/lv_font.h ****  */
  99:lvgl/src/lv_widgets/../lv_core/../lv_font/lv_font.h **** bool lv_font_get_glyph_dsc(const lv_font_t * font_p, lv_font_glyph_dsc_t * dsc_out, uint32_t letter
 100:lvgl/src/lv_widgets/../lv_core/../lv_font/lv_font.h ****                            uint32_t letter_next);
 101:lvgl/src/lv_widgets/../lv_core/../lv_font/lv_font.h **** 
 102:lvgl/src/lv_widgets/../lv_core/../lv_font/lv_font.h **** /**
 103:lvgl/src/lv_widgets/../lv_core/../lv_font/lv_font.h ****  * Get the width of a glyph with kerning
 104:lvgl/src/lv_widgets/../lv_core/../lv_font/lv_font.h ****  * @param font pointer to a font
 105:lvgl/src/lv_widgets/../lv_core/../lv_font/lv_font.h ****  * @param letter an UNICODE letter
 106:lvgl/src/lv_widgets/../lv_core/../lv_font/lv_font.h ****  * @param letter_next the next letter after `letter`. Used for kerning
 107:lvgl/src/lv_widgets/../lv_core/../lv_font/lv_font.h ****  * @return the width of the glyph
 108:lvgl/src/lv_widgets/../lv_core/../lv_font/lv_font.h ****  */
 109:lvgl/src/lv_widgets/../lv_core/../lv_font/lv_font.h **** uint16_t lv_font_get_glyph_width(const lv_font_t * font, uint32_t letter, uint32_t letter_next);
 110:lvgl/src/lv_widgets/../lv_core/../lv_font/lv_font.h **** 
 111:lvgl/src/lv_widgets/../lv_core/../lv_font/lv_font.h **** /**
 112:lvgl/src/lv_widgets/../lv_core/../lv_font/lv_font.h ****  * Get the line height of a font. All characters fit into this height
 113:lvgl/src/lv_widgets/../lv_core/../lv_font/lv_font.h ****  * @param font_p pointer to a font
 114:lvgl/src/lv_widgets/../lv_core/../lv_font/lv_font.h ****  * @return the height of a font
 115:lvgl/src/lv_widgets/../lv_core/../lv_font/lv_font.h ****  */
 116:lvgl/src/lv_widgets/../lv_core/../lv_font/lv_font.h **** static inline lv_coord_t lv_font_get_line_height(const lv_font_t * font_p)
 1295              		.loc 4 116 26 view .LVU350
 1296              	.LBB209:
 117:lvgl/src/lv_widgets/../lv_core/../lv_font/lv_font.h **** {
 118:lvgl/src/lv_widgets/../lv_core/../lv_font/lv_font.h ****     return font_p->line_height;
 1297              		.loc 4 118 5 view .LVU351
 1298              		.loc 4 118 18 is_stmt 0 view .LVU352
 1299 00cc B7F90830 		ldrsh	r3, [r7, #8]
 1300 00d0 0693     		str	r3, [sp, #24]
 1301              	.LVL132:
 1302              		.loc 4 118 18 view .LVU353
 1303              	.LBE209:
 1304              	.LBE208:
 559:lvgl/src/lv_widgets/lv_label.c ****     lv_txt_flag_t flag       = LV_TXT_FLAG_NONE;
 1305              		.loc 1 559 5 is_stmt 1 view .LVU354
 560:lvgl/src/lv_widgets/lv_label.c **** 
 1306              		.loc 1 560 5 view .LVU355
 562:lvgl/src/lv_widgets/lv_label.c ****     if(ext->expand != 0) flag |= LV_TXT_FLAG_EXPAND;
 1307              		.loc 1 562 5 view .LVU356
 562:lvgl/src/lv_widgets/lv_label.c ****     if(ext->expand != 0) flag |= LV_TXT_FLAG_EXPAND;
 1308              		.loc 1 562 21 is_stmt 0 view .LVU357
 1309 00d2 A37C     		ldrb	r3, [r4, #18]	@ zero_extendqisi2
 562:lvgl/src/lv_widgets/lv_label.c ****     if(ext->expand != 0) flag |= LV_TXT_FLAG_EXPAND;
 1310              		.loc 1 562 7 view .LVU358
 1311 00d4 13F0400F 		tst	r3, #64
 1312 00d8 2DD1     		bne	.L105
 560:lvgl/src/lv_widgets/lv_label.c **** 
 1313              		.loc 1 560 19 view .LVU359
 1314 00da 0024     		movs	r4, #0
ARM GAS  D:\Temp\cclLOIfg.s 			page 62


 1315              	.LVL133:
 1316              	.L92:
 563:lvgl/src/lv_widgets/lv_label.c ****     if(ext->long_mode == LV_LABEL_LONG_EXPAND) flag |= LV_TXT_FLAG_FIT;
 1317              		.loc 1 563 5 is_stmt 1 view .LVU360
 563:lvgl/src/lv_widgets/lv_label.c ****     if(ext->long_mode == LV_LABEL_LONG_EXPAND) flag |= LV_TXT_FLAG_FIT;
 1318              		.loc 1 563 7 is_stmt 0 view .LVU361
 1319 00dc 13F0800F 		tst	r3, #128
 1320 00e0 2BD1     		bne	.L109
 1321              	.L93:
 564:lvgl/src/lv_widgets/lv_label.c **** 
 1322              		.loc 1 564 5 is_stmt 1 view .LVU362
 564:lvgl/src/lv_widgets/lv_label.c **** 
 1323              		.loc 1 564 7 is_stmt 0 view .LVU363
 1324 00e2 13F0070F 		tst	r3, #7
 1325 00e6 01D1     		bne	.L94
 564:lvgl/src/lv_widgets/lv_label.c **** 
 1326              		.loc 1 564 48 is_stmt 1 discriminator 1 view .LVU364
 564:lvgl/src/lv_widgets/lv_label.c **** 
 1327              		.loc 1 564 53 is_stmt 0 discriminator 1 view .LVU365
 1328 00e8 44F01004 		orr	r4, r4, #16
 1329              	.LVL134:
 1330              	.L94:
 566:lvgl/src/lv_widgets/lv_label.c ****     if(align == LV_LABEL_ALIGN_RIGHT) flag |= LV_TXT_FLAG_RIGHT;
 1331              		.loc 1 566 5 is_stmt 1 view .LVU366
 566:lvgl/src/lv_widgets/lv_label.c ****     if(align == LV_LABEL_ALIGN_RIGHT) flag |= LV_TXT_FLAG_RIGHT;
 1332              		.loc 1 566 7 is_stmt 0 view .LVU367
 1333 00ec B9F1010F 		cmp	r9, #1
 1334 00f0 26D0     		beq	.L110
 1335              	.L95:
 567:lvgl/src/lv_widgets/lv_label.c **** 
 1336              		.loc 1 567 5 is_stmt 1 view .LVU368
 567:lvgl/src/lv_widgets/lv_label.c **** 
 1337              		.loc 1 567 7 is_stmt 0 view .LVU369
 1338 00f2 B9F1020F 		cmp	r9, #2
 1339 00f6 26D0     		beq	.L111
 1340              	.L96:
 569:lvgl/src/lv_widgets/lv_label.c **** 
 1341              		.loc 1 569 5 is_stmt 1 view .LVU370
 569:lvgl/src/lv_widgets/lv_label.c **** 
 1342              		.loc 1 569 24 is_stmt 0 view .LVU371
 1343 00f8 4B4B     		ldr	r3, .L115+4
 1344 00fa 1B68     		ldr	r3, [r3]
 1345 00fc 0799     		ldr	r1, [sp, #28]
 1346 00fe 2846     		mov	r0, r5
 1347 0100 9847     		blx	r3
 1348              	.LVL135:
 1349 0102 8346     		mov	fp, r0
 1350              	.LVL136:
 571:lvgl/src/lv_widgets/lv_label.c ****     while(txt[new_line_start] != '\0') {
 1351              		.loc 1 571 45 is_stmt 1 view .LVU372
 572:lvgl/src/lv_widgets/lv_label.c ****         new_line_start += _lv_txt_get_next_line(&txt[line_start], font, letter_space, max_w, flag);
 1352              		.loc 1 572 5 view .LVU373
 559:lvgl/src/lv_widgets/lv_label.c ****     lv_txt_flag_t flag       = LV_TXT_FLAG_NONE;
 1353              		.loc 1 559 16 is_stmt 0 view .LVU374
 1354 0104 0027     		movs	r7, #0
 1355              	.LVL137:
 552:lvgl/src/lv_widgets/lv_label.c ****     uint32_t new_line_start  = 0;
ARM GAS  D:\Temp\cclLOIfg.s 			page 63


 1356              		.loc 1 552 14 view .LVU375
 1357 0106 3E46     		mov	r6, r7
 1358              	.LVL138:
 1359              	.L97:
 572:lvgl/src/lv_widgets/lv_label.c ****         new_line_start += _lv_txt_get_next_line(&txt[line_start], font, letter_space, max_w, flag);
 1360              		.loc 1 572 14 view .LVU376
 1361 0108 A819     		adds	r0, r5, r6
 1362 010a AB5D     		ldrb	r3, [r5, r6]	@ zero_extendqisi2
 572:lvgl/src/lv_widgets/lv_label.c ****         new_line_start += _lv_txt_get_next_line(&txt[line_start], font, letter_space, max_w, flag);
 1363              		.loc 1 572 10 view .LVU377
 1364 010c F3B1     		cbz	r3, .L112
 573:lvgl/src/lv_widgets/lv_label.c ****         if(byte_id < new_line_start || txt[new_line_start] == '\0')
 1365              		.loc 1 573 9 is_stmt 1 view .LVU378
 573:lvgl/src/lv_widgets/lv_label.c ****         if(byte_id < new_line_start || txt[new_line_start] == '\0')
 1366              		.loc 1 573 27 is_stmt 0 view .LVU379
 1367 010e 0094     		str	r4, [sp]
 1368 0110 5346     		mov	r3, r10
 1369 0112 039A     		ldr	r2, [sp, #12]
 1370 0114 0499     		ldr	r1, [sp, #16]
 1371 0116 FFF7FEFF 		bl	_lv_txt_get_next_line
 1372              	.LVL139:
 573:lvgl/src/lv_widgets/lv_label.c ****         if(byte_id < new_line_start || txt[new_line_start] == '\0')
 1373              		.loc 1 573 24 view .LVU380
 1374 011a 3044     		add	r0, r0, r6
 1375              	.LVL140:
 574:lvgl/src/lv_widgets/lv_label.c ****             break; /*The line of 'index' letter begins at 'line_start'*/
 1376              		.loc 1 574 9 is_stmt 1 view .LVU381
 574:lvgl/src/lv_widgets/lv_label.c ****             break; /*The line of 'index' letter begins at 'line_start'*/
 1377              		.loc 1 574 11 is_stmt 0 view .LVU382
 1378 011c 8345     		cmp	fp, r0
 1379 011e 3FD3     		bcc	.L106
 574:lvgl/src/lv_widgets/lv_label.c ****             break; /*The line of 'index' letter begins at 'line_start'*/
 1380              		.loc 1 574 43 discriminator 1 view .LVU383
 1381 0120 2B5C     		ldrb	r3, [r5, r0]	@ zero_extendqisi2
 574:lvgl/src/lv_widgets/lv_label.c ****             break; /*The line of 'index' letter begins at 'line_start'*/
 1382              		.loc 1 574 37 discriminator 1 view .LVU384
 1383 0122 002B     		cmp	r3, #0
 1384 0124 3ED0     		beq	.L107
 577:lvgl/src/lv_widgets/lv_label.c ****         line_start = new_line_start;
 1385              		.loc 1 577 9 is_stmt 1 view .LVU385
 577:lvgl/src/lv_widgets/lv_label.c ****         line_start = new_line_start;
 1386              		.loc 1 577 28 is_stmt 0 view .LVU386
 1387 0126 069B     		ldr	r3, [sp, #24]
 1388 0128 059A     		ldr	r2, [sp, #20]
 1389 012a 1344     		add	r3, r3, r2
 577:lvgl/src/lv_widgets/lv_label.c ****         line_start = new_line_start;
 1390              		.loc 1 577 11 view .LVU387
 1391 012c 17FA83F7 		uxtah	r7, r7, r3
 1392              	.LVL141:
 577:lvgl/src/lv_widgets/lv_label.c ****         line_start = new_line_start;
 1393              		.loc 1 577 11 view .LVU388
 1394 0130 3FB2     		sxth	r7, r7
 1395              	.LVL142:
 578:lvgl/src/lv_widgets/lv_label.c ****     }
 1396              		.loc 1 578 9 is_stmt 1 view .LVU389
 578:lvgl/src/lv_widgets/lv_label.c ****     }
 1397              		.loc 1 578 20 is_stmt 0 view .LVU390
ARM GAS  D:\Temp\cclLOIfg.s 			page 64


 1398 0132 0646     		mov	r6, r0
 1399 0134 E8E7     		b	.L97
 1400              	.LVL143:
 1401              	.L105:
 562:lvgl/src/lv_widgets/lv_label.c ****     if(ext->expand != 0) flag |= LV_TXT_FLAG_EXPAND;
 1402              		.loc 1 562 32 view .LVU391
 1403 0136 0124     		movs	r4, #1
 1404              	.LVL144:
 562:lvgl/src/lv_widgets/lv_label.c ****     if(ext->expand != 0) flag |= LV_TXT_FLAG_EXPAND;
 1405              		.loc 1 562 32 view .LVU392
 1406 0138 D0E7     		b	.L92
 1407              	.LVL145:
 1408              	.L109:
 563:lvgl/src/lv_widgets/lv_label.c ****     if(ext->long_mode == LV_LABEL_LONG_EXPAND) flag |= LV_TXT_FLAG_FIT;
 1409              		.loc 1 563 26 is_stmt 1 discriminator 1 view .LVU393
 563:lvgl/src/lv_widgets/lv_label.c ****     if(ext->long_mode == LV_LABEL_LONG_EXPAND) flag |= LV_TXT_FLAG_FIT;
 1410              		.loc 1 563 31 is_stmt 0 discriminator 1 view .LVU394
 1411 013a 44F00204 		orr	r4, r4, #2
 1412              	.LVL146:
 563:lvgl/src/lv_widgets/lv_label.c ****     if(ext->long_mode == LV_LABEL_LONG_EXPAND) flag |= LV_TXT_FLAG_FIT;
 1413              		.loc 1 563 31 discriminator 1 view .LVU395
 1414 013e D0E7     		b	.L93
 1415              	.L110:
 566:lvgl/src/lv_widgets/lv_label.c ****     if(align == LV_LABEL_ALIGN_RIGHT) flag |= LV_TXT_FLAG_RIGHT;
 1416              		.loc 1 566 40 is_stmt 1 discriminator 1 view .LVU396
 566:lvgl/src/lv_widgets/lv_label.c ****     if(align == LV_LABEL_ALIGN_RIGHT) flag |= LV_TXT_FLAG_RIGHT;
 1417              		.loc 1 566 45 is_stmt 0 discriminator 1 view .LVU397
 1418 0140 44F00404 		orr	r4, r4, #4
 1419              	.LVL147:
 566:lvgl/src/lv_widgets/lv_label.c ****     if(align == LV_LABEL_ALIGN_RIGHT) flag |= LV_TXT_FLAG_RIGHT;
 1420              		.loc 1 566 45 discriminator 1 view .LVU398
 1421 0144 D5E7     		b	.L95
 1422              	.L111:
 567:lvgl/src/lv_widgets/lv_label.c **** 
 1423              		.loc 1 567 39 is_stmt 1 discriminator 1 view .LVU399
 567:lvgl/src/lv_widgets/lv_label.c **** 
 1424              		.loc 1 567 44 is_stmt 0 discriminator 1 view .LVU400
 1425 0146 44F00804 		orr	r4, r4, #8
 1426              	.LVL148:
 567:lvgl/src/lv_widgets/lv_label.c **** 
 1427              		.loc 1 567 44 discriminator 1 view .LVU401
 1428 014a D5E7     		b	.L96
 1429              	.LVL149:
 1430              	.L112:
 567:lvgl/src/lv_widgets/lv_label.c **** 
 1431              		.loc 1 567 44 discriminator 1 view .LVU402
 1432 014c B246     		mov	r10, r6
 1433              	.LVL150:
 1434              	.L98:
 582:lvgl/src/lv_widgets/lv_label.c ****         if((txt[byte_id - 1] == '\n' || txt[byte_id - 1] == '\r') && txt[byte_id] == '\0') {
 1435              		.loc 1 582 5 is_stmt 1 view .LVU403
 582:lvgl/src/lv_widgets/lv_label.c ****         if((txt[byte_id - 1] == '\n' || txt[byte_id - 1] == '\r') && txt[byte_id] == '\0') {
 1436              		.loc 1 582 7 is_stmt 0 view .LVU404
 1437 014e BBF1000F 		cmp	fp, #0
 1438 0152 07D0     		beq	.L100
 583:lvgl/src/lv_widgets/lv_label.c ****             y += letter_height + line_space;
 1439              		.loc 1 583 9 is_stmt 1 view .LVU405
ARM GAS  D:\Temp\cclLOIfg.s 			page 65


 583:lvgl/src/lv_widgets/lv_label.c ****             y += letter_height + line_space;
 1440              		.loc 1 583 16 is_stmt 0 view .LVU406
 1441 0154 05EB0B03 		add	r3, r5, fp
 1442 0158 13F8013C 		ldrb	r3, [r3, #-1]	@ zero_extendqisi2
 583:lvgl/src/lv_widgets/lv_label.c ****             y += letter_height + line_space;
 1443              		.loc 1 583 11 view .LVU407
 1444 015c 0A2B     		cmp	r3, #10
 1445 015e 23D0     		beq	.L101
 583:lvgl/src/lv_widgets/lv_label.c ****             y += letter_height + line_space;
 1446              		.loc 1 583 38 discriminator 2 view .LVU408
 1447 0160 0D2B     		cmp	r3, #13
 1448 0162 21D0     		beq	.L101
 1449              	.L100:
 589:lvgl/src/lv_widgets/lv_label.c ****     uint32_t visual_byte_pos;
 1450              		.loc 1 589 5 is_stmt 1 view .LVU409
 590:lvgl/src/lv_widgets/lv_label.c **** #if LV_USE_BIDI
 1451              		.loc 1 590 5 view .LVU410
 610:lvgl/src/lv_widgets/lv_label.c ****     visual_byte_pos = byte_id - line_start;
 1452              		.loc 1 610 5 view .LVU411
 610:lvgl/src/lv_widgets/lv_label.c ****     visual_byte_pos = byte_id - line_start;
 1453              		.loc 1 610 14 is_stmt 0 view .LVU412
 1454 0164 3544     		add	r5, r5, r6
 1455              	.LVL151:
 611:lvgl/src/lv_widgets/lv_label.c **** #endif
 1456              		.loc 1 611 5 is_stmt 1 view .LVU413
 615:lvgl/src/lv_widgets/lv_label.c ****     if(char_id != line_start) x += letter_space;
 1457              		.loc 1 615 5 view .LVU414
 615:lvgl/src/lv_widgets/lv_label.c ****     if(char_id != line_start) x += letter_space;
 1458              		.loc 1 615 20 is_stmt 0 view .LVU415
 1459 0166 0094     		str	r4, [sp]
 1460 0168 039B     		ldr	r3, [sp, #12]
 1461 016a 049A     		ldr	r2, [sp, #16]
 1462 016c ABEB0601 		sub	r1, fp, r6
 1463              	.LVL152:
 615:lvgl/src/lv_widgets/lv_label.c ****     if(char_id != line_start) x += letter_space;
 1464              		.loc 1 615 20 view .LVU416
 1465 0170 2846     		mov	r0, r5
 1466 0172 FFF7FEFF 		bl	_lv_txt_get_width
 1467              	.LVL153:
 615:lvgl/src/lv_widgets/lv_label.c ****     if(char_id != line_start) x += letter_space;
 1468              		.loc 1 615 20 view .LVU417
 1469 0176 8346     		mov	fp, r0
 1470              	.LVL154:
 616:lvgl/src/lv_widgets/lv_label.c **** 
 1471              		.loc 1 616 5 is_stmt 1 view .LVU418
 616:lvgl/src/lv_widgets/lv_label.c **** 
 1472              		.loc 1 616 7 is_stmt 0 view .LVU419
 1473 0178 079B     		ldr	r3, [sp, #28]
 1474 017a 9E42     		cmp	r6, r3
 1475 017c 03D0     		beq	.L102
 616:lvgl/src/lv_widgets/lv_label.c **** 
 1476              		.loc 1 616 31 is_stmt 1 discriminator 1 view .LVU420
 616:lvgl/src/lv_widgets/lv_label.c **** 
 1477              		.loc 1 616 33 is_stmt 0 discriminator 1 view .LVU421
 1478 017e 039B     		ldr	r3, [sp, #12]
 1479 0180 9B44     		add	fp, fp, r3
 1480              	.LVL155:
ARM GAS  D:\Temp\cclLOIfg.s 			page 66


 616:lvgl/src/lv_widgets/lv_label.c **** 
 1481              		.loc 1 616 33 discriminator 1 view .LVU422
 1482 0182 0FFA8BFB 		sxth	fp, fp
 1483              	.LVL156:
 1484              	.L102:
 618:lvgl/src/lv_widgets/lv_label.c ****         lv_coord_t line_w;
 1485              		.loc 1 618 5 is_stmt 1 view .LVU423
 618:lvgl/src/lv_widgets/lv_label.c ****         lv_coord_t line_w;
 1486              		.loc 1 618 7 is_stmt 0 view .LVU424
 1487 0186 B9F1010F 		cmp	r9, #1
 1488 018a 19D0     		beq	.L113
 624:lvgl/src/lv_widgets/lv_label.c ****         lv_coord_t line_w;
 1489              		.loc 1 624 10 is_stmt 1 view .LVU425
 624:lvgl/src/lv_widgets/lv_label.c ****         lv_coord_t line_w;
 1490              		.loc 1 624 12 is_stmt 0 view .LVU426
 1491 018c B9F1020F 		cmp	r9, #2
 1492 0190 32D0     		beq	.L114
 1493              	.L104:
 630:lvgl/src/lv_widgets/lv_label.c ****     pos->y = y;
 1494              		.loc 1 630 5 is_stmt 1 view .LVU427
 630:lvgl/src/lv_widgets/lv_label.c ****     pos->y = y;
 1495              		.loc 1 630 12 is_stmt 0 view .LVU428
 1496 0192 A8F800B0 		strh	fp, [r8]	@ movhi
 631:lvgl/src/lv_widgets/lv_label.c **** 
 1497              		.loc 1 631 5 is_stmt 1 view .LVU429
 631:lvgl/src/lv_widgets/lv_label.c **** 
 1498              		.loc 1 631 12 is_stmt 0 view .LVU430
 1499 0196 A8F80270 		strh	r7, [r8, #2]	@ movhi
 1500              	.LVL157:
 1501              	.L81:
 636:lvgl/src/lv_widgets/lv_label.c **** 
 1502              		.loc 1 636 1 view .LVU431
 1503 019a 0BB0     		add	sp, sp, #44
 1504              	.LCFI17:
 1505              		.cfi_remember_state
 1506              		.cfi_def_cfa_offset 36
 1507              		@ sp needed
 1508 019c BDE8F08F 		pop	{r4, r5, r6, r7, r8, r9, r10, fp, pc}
 1509              	.LVL158:
 1510              	.L106:
 1511              	.LCFI18:
 1512              		.cfi_restore_state
 636:lvgl/src/lv_widgets/lv_label.c **** 
 1513              		.loc 1 636 1 view .LVU432
 1514 01a0 8246     		mov	r10, r0
 1515              	.LVL159:
 636:lvgl/src/lv_widgets/lv_label.c **** 
 1516              		.loc 1 636 1 view .LVU433
 1517 01a2 D4E7     		b	.L98
 1518              	.LVL160:
 1519              	.L107:
 636:lvgl/src/lv_widgets/lv_label.c **** 
 1520              		.loc 1 636 1 view .LVU434
 1521 01a4 8246     		mov	r10, r0
 1522              	.LVL161:
 636:lvgl/src/lv_widgets/lv_label.c **** 
 1523              		.loc 1 636 1 view .LVU435
ARM GAS  D:\Temp\cclLOIfg.s 			page 67


 1524 01a6 D2E7     		b	.L98
 1525              	.LVL162:
 1526              	.L101:
 583:lvgl/src/lv_widgets/lv_label.c ****             y += letter_height + line_space;
 1527              		.loc 1 583 73 discriminator 3 view .LVU436
 1528 01a8 15F80B30 		ldrb	r3, [r5, fp]	@ zero_extendqisi2
 583:lvgl/src/lv_widgets/lv_label.c ****             y += letter_height + line_space;
 1529              		.loc 1 583 67 discriminator 3 view .LVU437
 1530 01ac 002B     		cmp	r3, #0
 1531 01ae D9D1     		bne	.L100
 584:lvgl/src/lv_widgets/lv_label.c ****             line_start = byte_id;
 1532              		.loc 1 584 13 is_stmt 1 view .LVU438
 584:lvgl/src/lv_widgets/lv_label.c ****             line_start = byte_id;
 1533              		.loc 1 584 32 is_stmt 0 view .LVU439
 1534 01b0 069B     		ldr	r3, [sp, #24]
 1535 01b2 059A     		ldr	r2, [sp, #20]
 1536 01b4 1344     		add	r3, r3, r2
 584:lvgl/src/lv_widgets/lv_label.c ****             line_start = byte_id;
 1537              		.loc 1 584 15 view .LVU440
 1538 01b6 17FA83F7 		uxtah	r7, r7, r3
 1539              	.LVL163:
 584:lvgl/src/lv_widgets/lv_label.c ****             line_start = byte_id;
 1540              		.loc 1 584 15 view .LVU441
 1541 01ba 3FB2     		sxth	r7, r7
 1542              	.LVL164:
 585:lvgl/src/lv_widgets/lv_label.c ****         }
 1543              		.loc 1 585 13 is_stmt 1 view .LVU442
 585:lvgl/src/lv_widgets/lv_label.c ****         }
 1544              		.loc 1 585 24 is_stmt 0 view .LVU443
 1545 01bc 5E46     		mov	r6, fp
 1546 01be D1E7     		b	.L100
 1547              	.LVL165:
 1548              	.L113:
 1549              	.LBB210:
 619:lvgl/src/lv_widgets/lv_label.c ****         line_w = _lv_txt_get_width(bidi_txt, new_line_start - line_start, font, letter_space, flag)
 1550              		.loc 1 619 9 is_stmt 1 view .LVU444
 620:lvgl/src/lv_widgets/lv_label.c ****         x += lv_area_get_width(&txt_coords) / 2 - line_w / 2;
 1551              		.loc 1 620 9 view .LVU445
 620:lvgl/src/lv_widgets/lv_label.c ****         x += lv_area_get_width(&txt_coords) / 2 - line_w / 2;
 1552              		.loc 1 620 18 is_stmt 0 view .LVU446
 1553 01c0 0094     		str	r4, [sp]
 1554 01c2 039B     		ldr	r3, [sp, #12]
 1555 01c4 049A     		ldr	r2, [sp, #16]
 1556 01c6 AAEB0601 		sub	r1, r10, r6
 1557 01ca 2846     		mov	r0, r5
 1558 01cc FFF7FEFF 		bl	_lv_txt_get_width
 1559              	.LVL166:
 621:lvgl/src/lv_widgets/lv_label.c **** 
 1560              		.loc 1 621 9 is_stmt 1 view .LVU447
 1561              	.LBB211:
 1562              	.LBI211:
 107:d:\_project\stm32\f407\hack_rf_new\lvgl\src\lv_misc\lv_area.h **** {
 1563              		.loc 3 107 26 view .LVU448
 1564              	.LBB212:
 1565              		.loc 3 109 5 view .LVU449
 1566              		.loc 3 109 31 is_stmt 0 view .LVU450
 1567 01d0 BDF82430 		ldrh	r3, [sp, #36]
ARM GAS  D:\Temp\cclLOIfg.s 			page 68


 1568              		.loc 3 109 44 view .LVU451
 1569 01d4 BDF82020 		ldrh	r2, [sp, #32]
 1570              		.loc 3 109 36 view .LVU452
 1571 01d8 9B1A     		subs	r3, r3, r2
 1572 01da 9BB2     		uxth	r3, r3
 1573              		.loc 3 109 49 view .LVU453
 1574 01dc 0133     		adds	r3, r3, #1
 1575              		.loc 3 109 12 view .LVU454
 1576 01de 1BB2     		sxth	r3, r3
 1577              	.LVL167:
 1578              		.loc 3 109 12 view .LVU455
 1579              	.LBE212:
 1580              	.LBE211:
 621:lvgl/src/lv_widgets/lv_label.c **** 
 1581              		.loc 1 621 45 view .LVU456
 1582 01e0 03EBD373 		add	r3, r3, r3, lsr #31
 621:lvgl/src/lv_widgets/lv_label.c **** 
 1583              		.loc 1 621 58 view .LVU457
 1584 01e4 00EBD070 		add	r0, r0, r0, lsr #31
 1585              	.LVL168:
 621:lvgl/src/lv_widgets/lv_label.c **** 
 1586              		.loc 1 621 58 view .LVU458
 1587 01e8 40F34F02 		sbfx	r2, r0, #1, #16
 621:lvgl/src/lv_widgets/lv_label.c **** 
 1588              		.loc 1 621 49 view .LVU459
 1589 01ec C2EB6303 		rsb	r3, r2, r3, asr #1
 621:lvgl/src/lv_widgets/lv_label.c **** 
 1590              		.loc 1 621 11 view .LVU460
 1591 01f0 9B44     		add	fp, fp, r3
 1592              	.LVL169:
 621:lvgl/src/lv_widgets/lv_label.c **** 
 1593              		.loc 1 621 11 view .LVU461
 1594 01f2 0FFA8BFB 		sxth	fp, fp
 1595              	.LVL170:
 621:lvgl/src/lv_widgets/lv_label.c **** 
 1596              		.loc 1 621 11 view .LVU462
 1597              	.LBE210:
 1598 01f6 CCE7     		b	.L104
 1599              	.L114:
 1600              	.LBB213:
 625:lvgl/src/lv_widgets/lv_label.c ****         line_w = _lv_txt_get_width(bidi_txt, new_line_start - line_start, font, letter_space, flag)
 1601              		.loc 1 625 9 is_stmt 1 view .LVU463
 626:lvgl/src/lv_widgets/lv_label.c **** 
 1602              		.loc 1 626 9 view .LVU464
 626:lvgl/src/lv_widgets/lv_label.c **** 
 1603              		.loc 1 626 18 is_stmt 0 view .LVU465
 1604 01f8 0094     		str	r4, [sp]
 1605 01fa 039B     		ldr	r3, [sp, #12]
 1606 01fc 049A     		ldr	r2, [sp, #16]
 1607 01fe AAEB0601 		sub	r1, r10, r6
 1608 0202 2846     		mov	r0, r5
 1609 0204 FFF7FEFF 		bl	_lv_txt_get_width
 1610              	.LVL171:
 628:lvgl/src/lv_widgets/lv_label.c ****     }
 1611              		.loc 1 628 9 is_stmt 1 view .LVU466
 1612              	.LBB214:
 1613              	.LBI214:
ARM GAS  D:\Temp\cclLOIfg.s 			page 69


 107:d:\_project\stm32\f407\hack_rf_new\lvgl\src\lv_misc\lv_area.h **** {
 1614              		.loc 3 107 26 view .LVU467
 1615              	.LBB215:
 1616              		.loc 3 109 5 view .LVU468
 1617              		.loc 3 109 31 is_stmt 0 view .LVU469
 1618 0208 BDF82430 		ldrh	r3, [sp, #36]
 1619              		.loc 3 109 44 view .LVU470
 1620 020c BDF82020 		ldrh	r2, [sp, #32]
 1621              		.loc 3 109 36 view .LVU471
 1622 0210 9B1A     		subs	r3, r3, r2
 1623 0212 9BB2     		uxth	r3, r3
 1624              		.loc 3 109 49 view .LVU472
 1625 0214 0133     		adds	r3, r3, #1
 1626              		.loc 3 109 12 view .LVU473
 1627 0216 1BB2     		sxth	r3, r3
 1628              	.LVL172:
 1629              		.loc 3 109 12 view .LVU474
 1630              	.LBE215:
 1631              	.LBE214:
 628:lvgl/src/lv_widgets/lv_label.c ****     }
 1632              		.loc 1 628 45 view .LVU475
 1633 0218 1B1A     		subs	r3, r3, r0
 628:lvgl/src/lv_widgets/lv_label.c ****     }
 1634              		.loc 1 628 11 view .LVU476
 1635 021a 9B44     		add	fp, fp, r3
 1636              	.LVL173:
 628:lvgl/src/lv_widgets/lv_label.c ****     }
 1637              		.loc 1 628 11 view .LVU477
 1638 021c 0FFA8BFB 		sxth	fp, fp
 1639              	.LVL174:
 628:lvgl/src/lv_widgets/lv_label.c ****     }
 1640              		.loc 1 628 11 view .LVU478
 1641 0220 B7E7     		b	.L104
 1642              	.L116:
 1643 0222 00BF     		.align	2
 1644              	.L115:
 1645 0224 00000000 		.word	.LC0
 1646 0228 00000000 		.word	_lv_txt_encoded_get_byte_id
 1647              	.LBE213:
 1648              		.cfi_endproc
 1649              	.LFE473:
 1651              		.section	.text.lv_label_get_letter_on,"ax",%progbits
 1652              		.align	1
 1653              		.global	lv_label_get_letter_on
 1654              		.syntax unified
 1655              		.thumb
 1656              		.thumb_func
 1657              		.fpu fpv4-sp-d16
 1659              	lv_label_get_letter_on:
 1660              	.LVL175:
 1661              	.LFB474:
 646:lvgl/src/lv_widgets/lv_label.c ****     LV_ASSERT_OBJ(label, LV_OBJX_NAME);
 1662              		.loc 1 646 1 is_stmt 1 view -0
 1663              		.cfi_startproc
 1664              		@ args = 0, pretend = 0, frame = 48
 1665              		@ frame_needed = 0, uses_anonymous_args = 0
 646:lvgl/src/lv_widgets/lv_label.c ****     LV_ASSERT_OBJ(label, LV_OBJX_NAME);
ARM GAS  D:\Temp\cclLOIfg.s 			page 70


 1666              		.loc 1 646 1 is_stmt 0 view .LVU480
 1667 0000 2DE9F04F 		push	{r4, r5, r6, r7, r8, r9, r10, fp, lr}
 1668              	.LCFI19:
 1669              		.cfi_def_cfa_offset 36
 1670              		.cfi_offset 4, -36
 1671              		.cfi_offset 5, -32
 1672              		.cfi_offset 6, -28
 1673              		.cfi_offset 7, -24
 1674              		.cfi_offset 8, -20
 1675              		.cfi_offset 9, -16
 1676              		.cfi_offset 10, -12
 1677              		.cfi_offset 11, -8
 1678              		.cfi_offset 14, -4
 1679 0004 8FB0     		sub	sp, sp, #60
 1680              	.LCFI20:
 1681              		.cfi_def_cfa_offset 96
 1682 0006 0446     		mov	r4, r0
 1683 0008 0D46     		mov	r5, r1
 647:lvgl/src/lv_widgets/lv_label.c ****     LV_ASSERT_NULL(pos_in);
 1684              		.loc 1 647 5 is_stmt 1 view .LVU481
 647:lvgl/src/lv_widgets/lv_label.c ****     LV_ASSERT_NULL(pos_in);
 1685              		.loc 1 647 5 view .LVU482
 1686 000a FFF7FEFF 		bl	lv_debug_check_null
 1687              	.LVL176:
 647:lvgl/src/lv_widgets/lv_label.c ****     LV_ASSERT_NULL(pos_in);
 1688              		.loc 1 647 5 is_stmt 0 view .LVU483
 1689 000e 28B9     		cbnz	r0, .L118
 647:lvgl/src/lv_widgets/lv_label.c ****     LV_ASSERT_NULL(pos_in);
 1690              		.loc 1 647 5 is_stmt 1 discriminator 1 view .LVU484
 647:lvgl/src/lv_widgets/lv_label.c ****     LV_ASSERT_NULL(pos_in);
 1691              		.loc 1 647 5 discriminator 1 view .LVU485
 1692 0010 2246     		mov	r2, r4
 1693 0012 0023     		movs	r3, #0
 1694 0014 8E48     		ldr	r0, .L152
 1695 0016 FFF7FEFF 		bl	lv_debug_log_error
 1696              	.LVL177:
 1697              	.L119:
 647:lvgl/src/lv_widgets/lv_label.c ****     LV_ASSERT_NULL(pos_in);
 1698              		.loc 1 647 5 discriminator 1 view .LVU486
 647:lvgl/src/lv_widgets/lv_label.c ****     LV_ASSERT_NULL(pos_in);
 1699              		.loc 1 647 5 discriminator 1 view .LVU487
 1700 001a FEE7     		b	.L119
 1701              	.L118:
 647:lvgl/src/lv_widgets/lv_label.c ****     LV_ASSERT_NULL(pos_in);
 1702              		.loc 1 647 39 discriminator 2 view .LVU488
 648:lvgl/src/lv_widgets/lv_label.c **** 
 1703              		.loc 1 648 5 discriminator 2 view .LVU489
 648:lvgl/src/lv_widgets/lv_label.c **** 
 1704              		.loc 1 648 5 discriminator 2 view .LVU490
 1705 001c 2846     		mov	r0, r5
 1706 001e FFF7FEFF 		bl	lv_debug_check_null
 1707              	.LVL178:
 1708 0022 28B9     		cbnz	r0, .L120
 648:lvgl/src/lv_widgets/lv_label.c **** 
 1709              		.loc 1 648 5 discriminator 1 view .LVU491
 648:lvgl/src/lv_widgets/lv_label.c **** 
 1710              		.loc 1 648 5 discriminator 1 view .LVU492
ARM GAS  D:\Temp\cclLOIfg.s 			page 71


 1711 0024 2A46     		mov	r2, r5
 1712 0026 0023     		movs	r3, #0
 1713 0028 8948     		ldr	r0, .L152
 1714 002a FFF7FEFF 		bl	lv_debug_log_error
 1715              	.LVL179:
 1716              	.L121:
 648:lvgl/src/lv_widgets/lv_label.c **** 
 1717              		.loc 1 648 5 discriminator 2 view .LVU493
 648:lvgl/src/lv_widgets/lv_label.c **** 
 1718              		.loc 1 648 5 discriminator 2 view .LVU494
 1719 002e FEE7     		b	.L121
 1720              	.L120:
 648:lvgl/src/lv_widgets/lv_label.c **** 
 1721              		.loc 1 648 27 discriminator 2 view .LVU495
 650:lvgl/src/lv_widgets/lv_label.c ****     pos.x = pos_in->x - lv_obj_get_style_pad_left(label, LV_LABEL_PART_MAIN);
 1722              		.loc 1 650 5 discriminator 2 view .LVU496
 651:lvgl/src/lv_widgets/lv_label.c ****     pos.y = pos_in->y - lv_obj_get_style_pad_top(label, LV_LABEL_PART_MAIN);
 1723              		.loc 1 651 5 discriminator 2 view .LVU497
 651:lvgl/src/lv_widgets/lv_label.c ****     pos.y = pos_in->y - lv_obj_get_style_pad_top(label, LV_LABEL_PART_MAIN);
 1724              		.loc 1 651 19 is_stmt 0 discriminator 2 view .LVU498
 1725 0030 2E88     		ldrh	r6, [r5]
 1726              	.LVL180:
 1727              	.LBB216:
 1728              	.LBI216:
 112:lvgl/src/lv_widgets/../lv_core/lv_obj_style_dec.h **** _LV_OBJ_STYLE_SET_GET_DECLARE(PAD_RIGHT, pad_right, lv_style_int_t, _int, scalar)
 1729              		.loc 2 112 1 is_stmt 1 discriminator 2 view .LVU499
 1730              	.LBB217:
 112:lvgl/src/lv_widgets/../lv_core/lv_obj_style_dec.h **** _LV_OBJ_STYLE_SET_GET_DECLARE(PAD_RIGHT, pad_right, lv_style_int_t, _int, scalar)
 1731              		.loc 2 112 1 discriminator 2 view .LVU500
 1732 0032 1222     		movs	r2, #18
 1733 0034 0021     		movs	r1, #0
 1734 0036 2046     		mov	r0, r4
 1735 0038 FFF7FEFF 		bl	_lv_obj_get_style_int
 1736              	.LVL181:
 112:lvgl/src/lv_widgets/../lv_core/lv_obj_style_dec.h **** _LV_OBJ_STYLE_SET_GET_DECLARE(PAD_RIGHT, pad_right, lv_style_int_t, _int, scalar)
 1737              		.loc 2 112 1 is_stmt 0 discriminator 2 view .LVU501
 1738              	.LBE217:
 1739              	.LBE216:
 651:lvgl/src/lv_widgets/lv_label.c ****     pos.y = pos_in->y - lv_obj_get_style_pad_top(label, LV_LABEL_PART_MAIN);
 1740              		.loc 1 651 25 discriminator 2 view .LVU502
 1741 003c 80B2     		uxth	r0, r0
 651:lvgl/src/lv_widgets/lv_label.c ****     pos.y = pos_in->y - lv_obj_get_style_pad_top(label, LV_LABEL_PART_MAIN);
 1742              		.loc 1 651 23 discriminator 2 view .LVU503
 1743 003e 361A     		subs	r6, r6, r0
 1744 0040 33B2     		sxth	r3, r6
 1745 0042 0593     		str	r3, [sp, #20]
 652:lvgl/src/lv_widgets/lv_label.c **** 
 1746              		.loc 1 652 5 is_stmt 1 discriminator 2 view .LVU504
 652:lvgl/src/lv_widgets/lv_label.c **** 
 1747              		.loc 1 652 19 is_stmt 0 discriminator 2 view .LVU505
 1748 0044 6D88     		ldrh	r5, [r5, #2]
 1749              	.LVL182:
 1750              	.LBB218:
 1751              	.LBI218:
 110:lvgl/src/lv_widgets/../lv_core/lv_obj_style_dec.h **** _LV_OBJ_STYLE_SET_GET_DECLARE(PAD_BOTTOM, pad_bottom, lv_style_int_t, _int, scalar)
 1752              		.loc 2 110 1 is_stmt 1 discriminator 2 view .LVU506
 1753              	.LBB219:
ARM GAS  D:\Temp\cclLOIfg.s 			page 72


 110:lvgl/src/lv_widgets/../lv_core/lv_obj_style_dec.h **** _LV_OBJ_STYLE_SET_GET_DECLARE(PAD_BOTTOM, pad_bottom, lv_style_int_t, _int, scalar)
 1754              		.loc 2 110 1 discriminator 2 view .LVU507
 1755 0046 1022     		movs	r2, #16
 1756 0048 0021     		movs	r1, #0
 1757 004a 2046     		mov	r0, r4
 1758 004c FFF7FEFF 		bl	_lv_obj_get_style_int
 1759              	.LVL183:
 110:lvgl/src/lv_widgets/../lv_core/lv_obj_style_dec.h **** _LV_OBJ_STYLE_SET_GET_DECLARE(PAD_BOTTOM, pad_bottom, lv_style_int_t, _int, scalar)
 1760              		.loc 2 110 1 is_stmt 0 discriminator 2 view .LVU508
 1761              	.LBE219:
 1762              	.LBE218:
 652:lvgl/src/lv_widgets/lv_label.c **** 
 1763              		.loc 1 652 25 discriminator 2 view .LVU509
 1764 0050 80B2     		uxth	r0, r0
 652:lvgl/src/lv_widgets/lv_label.c **** 
 1765              		.loc 1 652 23 discriminator 2 view .LVU510
 1766 0052 2D1A     		subs	r5, r5, r0
 1767 0054 2BB2     		sxth	r3, r5
 1768 0056 1F46     		mov	r7, r3
 654:lvgl/src/lv_widgets/lv_label.c ****     get_txt_coords(label, &txt_coords);
 1769              		.loc 1 654 5 is_stmt 1 discriminator 2 view .LVU511
 655:lvgl/src/lv_widgets/lv_label.c ****     const char * txt         = lv_label_get_text(label);
 1770              		.loc 1 655 5 discriminator 2 view .LVU512
 1771 0058 0CA9     		add	r1, sp, #48
 1772 005a 2046     		mov	r0, r4
 1773 005c FFF7FEFF 		bl	get_txt_coords
 1774              	.LVL184:
 656:lvgl/src/lv_widgets/lv_label.c ****     lv_label_ext_t * ext     = lv_obj_get_ext_attr(label);
 1775              		.loc 1 656 5 discriminator 2 view .LVU513
 656:lvgl/src/lv_widgets/lv_label.c ****     lv_label_ext_t * ext     = lv_obj_get_ext_attr(label);
 1776              		.loc 1 656 32 is_stmt 0 discriminator 2 view .LVU514
 1777 0060 2046     		mov	r0, r4
 1778 0062 FFF7FEFF 		bl	lv_label_get_text
 1779              	.LVL185:
 1780 0066 8046     		mov	r8, r0
 1781              	.LVL186:
 657:lvgl/src/lv_widgets/lv_label.c ****     uint32_t line_start      = 0;
 1782              		.loc 1 657 5 is_stmt 1 discriminator 2 view .LVU515
 657:lvgl/src/lv_widgets/lv_label.c ****     uint32_t line_start      = 0;
 1783              		.loc 1 657 32 is_stmt 0 discriminator 2 view .LVU516
 1784 0068 2046     		mov	r0, r4
 1785              	.LVL187:
 657:lvgl/src/lv_widgets/lv_label.c ****     uint32_t line_start      = 0;
 1786              		.loc 1 657 32 discriminator 2 view .LVU517
 1787 006a FFF7FEFF 		bl	lv_obj_get_ext_attr
 1788              	.LVL188:
 1789 006e 0546     		mov	r5, r0
 1790              	.LVL189:
 658:lvgl/src/lv_widgets/lv_label.c ****     uint32_t new_line_start  = 0;
 1791              		.loc 1 658 5 is_stmt 1 discriminator 2 view .LVU518
 659:lvgl/src/lv_widgets/lv_label.c ****     lv_coord_t max_w         = lv_area_get_width(&txt_coords);
 1792              		.loc 1 659 5 discriminator 2 view .LVU519
 660:lvgl/src/lv_widgets/lv_label.c ****     const lv_font_t * font   = lv_obj_get_style_text_font(label, LV_LABEL_PART_MAIN);
 1793              		.loc 1 660 5 discriminator 2 view .LVU520
 1794              	.LBB220:
 1795              	.LBI220:
 107:d:\_project\stm32\f407\hack_rf_new\lvgl\src\lv_misc\lv_area.h **** {
ARM GAS  D:\Temp\cclLOIfg.s 			page 73


 1796              		.loc 3 107 26 discriminator 2 view .LVU521
 1797              	.LBB221:
 1798              		.loc 3 109 5 discriminator 2 view .LVU522
 1799              		.loc 3 109 31 is_stmt 0 discriminator 2 view .LVU523
 1800 0070 BDF83430 		ldrh	r3, [sp, #52]
 1801              		.loc 3 109 44 discriminator 2 view .LVU524
 1802 0074 BDF83020 		ldrh	r2, [sp, #48]
 1803              		.loc 3 109 36 discriminator 2 view .LVU525
 1804 0078 9B1A     		subs	r3, r3, r2
 1805 007a 9BB2     		uxth	r3, r3
 1806              		.loc 3 109 49 discriminator 2 view .LVU526
 1807 007c 0133     		adds	r3, r3, #1
 1808              		.loc 3 109 12 discriminator 2 view .LVU527
 1809 007e 1BB2     		sxth	r3, r3
 1810 0080 0793     		str	r3, [sp, #28]
 1811              	.LVL190:
 1812              		.loc 3 109 12 discriminator 2 view .LVU528
 1813              	.LBE221:
 1814              	.LBE220:
 661:lvgl/src/lv_widgets/lv_label.c ****     lv_style_int_t line_space = lv_obj_get_style_text_line_space(label, LV_LABEL_PART_MAIN);
 1815              		.loc 1 661 5 is_stmt 1 discriminator 2 view .LVU529
 1816              	.LBB222:
 1817              	.LBI222:
 1818              		.loc 2 168 1 discriminator 2 view .LVU530
 1819              	.LBB223:
 1820              		.loc 2 168 1 discriminator 2 view .LVU531
 1821 0082 48F28E02 		movw	r2, #32910
 1822 0086 0021     		movs	r1, #0
 1823 0088 2046     		mov	r0, r4
 1824              	.LVL191:
 1825              		.loc 2 168 1 is_stmt 0 discriminator 2 view .LVU532
 1826 008a FFF7FEFF 		bl	_lv_obj_get_style_ptr
 1827              	.LVL192:
 1828 008e 0646     		mov	r6, r0
 1829 0090 0390     		str	r0, [sp, #12]
 1830              	.LVL193:
 1831              		.loc 2 168 1 discriminator 2 view .LVU533
 1832              	.LBE223:
 1833              	.LBE222:
 662:lvgl/src/lv_widgets/lv_label.c ****     lv_style_int_t letter_space = lv_obj_get_style_text_letter_space(label, LV_LABEL_PART_MAIN);
 1834              		.loc 1 662 5 is_stmt 1 discriminator 2 view .LVU534
 1835              	.LBB224:
 1836              	.LBI224:
 161:lvgl/src/lv_widgets/../lv_core/lv_obj_style_dec.h **** _LV_OBJ_STYLE_SET_GET_DECLARE(TEXT_DECOR, text_decor, lv_text_decor_t, _int, scalar)
 1837              		.loc 2 161 1 discriminator 2 view .LVU535
 1838              	.LBB225:
 161:lvgl/src/lv_widgets/../lv_core/lv_obj_style_dec.h **** _LV_OBJ_STYLE_SET_GET_DECLARE(TEXT_DECOR, text_decor, lv_text_decor_t, _int, scalar)
 1839              		.loc 2 161 1 discriminator 2 view .LVU536
 1840 0092 48F28102 		movw	r2, #32897
 1841 0096 0021     		movs	r1, #0
 1842 0098 2046     		mov	r0, r4
 1843              	.LVL194:
 161:lvgl/src/lv_widgets/../lv_core/lv_obj_style_dec.h **** _LV_OBJ_STYLE_SET_GET_DECLARE(TEXT_DECOR, text_decor, lv_text_decor_t, _int, scalar)
 1844              		.loc 2 161 1 is_stmt 0 discriminator 2 view .LVU537
 1845 009a FFF7FEFF 		bl	_lv_obj_get_style_int
 1846              	.LVL195:
 1847 009e 0690     		str	r0, [sp, #24]
ARM GAS  D:\Temp\cclLOIfg.s 			page 74


 1848              	.LVL196:
 161:lvgl/src/lv_widgets/../lv_core/lv_obj_style_dec.h **** _LV_OBJ_STYLE_SET_GET_DECLARE(TEXT_DECOR, text_decor, lv_text_decor_t, _int, scalar)
 1849              		.loc 2 161 1 discriminator 2 view .LVU538
 1850              	.LBE225:
 1851              	.LBE224:
 663:lvgl/src/lv_widgets/lv_label.c ****     lv_coord_t letter_height    = lv_font_get_line_height(font);
 1852              		.loc 1 663 5 is_stmt 1 discriminator 2 view .LVU539
 1853              	.LBB226:
 1854              	.LBI226:
 160:lvgl/src/lv_widgets/../lv_core/lv_obj_style_dec.h **** _LV_OBJ_STYLE_SET_GET_DECLARE(TEXT_LINE_SPACE, text_line_space, lv_style_int_t, _int, scalar)
 1855              		.loc 2 160 1 discriminator 2 view .LVU540
 1856              	.LBB227:
 160:lvgl/src/lv_widgets/../lv_core/lv_obj_style_dec.h **** _LV_OBJ_STYLE_SET_GET_DECLARE(TEXT_LINE_SPACE, text_line_space, lv_style_int_t, _int, scalar)
 1857              		.loc 2 160 1 discriminator 2 view .LVU541
 1858 00a0 48F28002 		movw	r2, #32896
 1859 00a4 0021     		movs	r1, #0
 1860 00a6 2046     		mov	r0, r4
 1861 00a8 FFF7FEFF 		bl	_lv_obj_get_style_int
 1862              	.LVL197:
 1863 00ac 0490     		str	r0, [sp, #16]
 1864              	.LVL198:
 160:lvgl/src/lv_widgets/../lv_core/lv_obj_style_dec.h **** _LV_OBJ_STYLE_SET_GET_DECLARE(TEXT_LINE_SPACE, text_line_space, lv_style_int_t, _int, scalar)
 1865              		.loc 2 160 1 is_stmt 0 discriminator 2 view .LVU542
 1866              	.LBE227:
 1867              	.LBE226:
 664:lvgl/src/lv_widgets/lv_label.c ****     lv_coord_t y             = 0;
 1868              		.loc 1 664 5 is_stmt 1 discriminator 2 view .LVU543
 1869              	.LBB228:
 1870              	.LBI228:
 116:lvgl/src/lv_widgets/../lv_core/../lv_font/lv_font.h **** {
 1871              		.loc 4 116 26 discriminator 2 view .LVU544
 1872              	.LBB229:
 1873              		.loc 4 118 5 discriminator 2 view .LVU545
 1874              		.loc 4 118 18 is_stmt 0 discriminator 2 view .LVU546
 1875 00ae B6F908A0 		ldrsh	r10, [r6, #8]
 1876              	.LVL199:
 1877              		.loc 4 118 18 discriminator 2 view .LVU547
 1878              	.LBE229:
 1879              	.LBE228:
 665:lvgl/src/lv_widgets/lv_label.c ****     lv_txt_flag_t flag       = LV_TXT_FLAG_NONE;
 1880              		.loc 1 665 5 is_stmt 1 discriminator 2 view .LVU548
 666:lvgl/src/lv_widgets/lv_label.c ****     uint32_t logical_pos;
 1881              		.loc 1 666 5 discriminator 2 view .LVU549
 667:lvgl/src/lv_widgets/lv_label.c ****     char * bidi_txt;
 1882              		.loc 1 667 5 discriminator 2 view .LVU550
 668:lvgl/src/lv_widgets/lv_label.c **** 
 1883              		.loc 1 668 5 discriminator 2 view .LVU551
 670:lvgl/src/lv_widgets/lv_label.c ****     if(ext->expand != 0) flag |= LV_TXT_FLAG_EXPAND;
 1884              		.loc 1 670 5 discriminator 2 view .LVU552
 670:lvgl/src/lv_widgets/lv_label.c ****     if(ext->expand != 0) flag |= LV_TXT_FLAG_EXPAND;
 1885              		.loc 1 670 21 is_stmt 0 discriminator 2 view .LVU553
 1886 00b2 AB7C     		ldrb	r3, [r5, #18]	@ zero_extendqisi2
 670:lvgl/src/lv_widgets/lv_label.c ****     if(ext->expand != 0) flag |= LV_TXT_FLAG_EXPAND;
 1887              		.loc 1 670 7 discriminator 2 view .LVU554
 1888 00b4 13F0400F 		tst	r3, #64
 1889 00b8 2BD1     		bne	.L141
 666:lvgl/src/lv_widgets/lv_label.c ****     uint32_t logical_pos;
ARM GAS  D:\Temp\cclLOIfg.s 			page 75


 1890              		.loc 1 666 19 view .LVU555
 1891 00ba 0025     		movs	r5, #0
 1892              	.LVL200:
 1893              	.L122:
 671:lvgl/src/lv_widgets/lv_label.c ****     if(ext->long_mode == LV_LABEL_LONG_EXPAND) flag |= LV_TXT_FLAG_FIT;
 1894              		.loc 1 671 5 is_stmt 1 view .LVU556
 671:lvgl/src/lv_widgets/lv_label.c ****     if(ext->long_mode == LV_LABEL_LONG_EXPAND) flag |= LV_TXT_FLAG_FIT;
 1895              		.loc 1 671 7 is_stmt 0 view .LVU557
 1896 00bc 13F0800F 		tst	r3, #128
 1897 00c0 29D1     		bne	.L145
 1898              	.L123:
 672:lvgl/src/lv_widgets/lv_label.c **** 
 1899              		.loc 1 672 5 is_stmt 1 view .LVU558
 672:lvgl/src/lv_widgets/lv_label.c **** 
 1900              		.loc 1 672 7 is_stmt 0 view .LVU559
 1901 00c2 13F0070F 		tst	r3, #7
 1902 00c6 01D1     		bne	.L124
 672:lvgl/src/lv_widgets/lv_label.c **** 
 1903              		.loc 1 672 48 is_stmt 1 discriminator 1 view .LVU560
 672:lvgl/src/lv_widgets/lv_label.c **** 
 1904              		.loc 1 672 53 is_stmt 0 discriminator 1 view .LVU561
 1905 00c8 45F01005 		orr	r5, r5, #16
 1906              	.LVL201:
 1907              	.L124:
 674:lvgl/src/lv_widgets/lv_label.c ****     if(align == LV_LABEL_ALIGN_CENTER) flag |= LV_TXT_FLAG_CENTER;
 1908              		.loc 1 674 5 is_stmt 1 view .LVU562
 674:lvgl/src/lv_widgets/lv_label.c ****     if(align == LV_LABEL_ALIGN_CENTER) flag |= LV_TXT_FLAG_CENTER;
 1909              		.loc 1 674 30 is_stmt 0 view .LVU563
 1910 00cc 2046     		mov	r0, r4
 1911 00ce FFF7FEFF 		bl	lv_label_get_align
 1912              	.LVL202:
 1913 00d2 8146     		mov	r9, r0
 1914              	.LVL203:
 675:lvgl/src/lv_widgets/lv_label.c ****     if(align == LV_LABEL_ALIGN_RIGHT) flag |= LV_TXT_FLAG_RIGHT;
 1915              		.loc 1 675 5 is_stmt 1 view .LVU564
 675:lvgl/src/lv_widgets/lv_label.c ****     if(align == LV_LABEL_ALIGN_RIGHT) flag |= LV_TXT_FLAG_RIGHT;
 1916              		.loc 1 675 7 is_stmt 0 view .LVU565
 1917 00d4 0128     		cmp	r0, #1
 1918 00d6 21D0     		beq	.L146
 1919              	.L125:
 676:lvgl/src/lv_widgets/lv_label.c **** 
 1920              		.loc 1 676 5 is_stmt 1 view .LVU566
 676:lvgl/src/lv_widgets/lv_label.c **** 
 1921              		.loc 1 676 7 is_stmt 0 view .LVU567
 1922 00d8 B9F1020F 		cmp	r9, #2
 1923 00dc 21D0     		beq	.L147
 1924              	.L126:
 666:lvgl/src/lv_widgets/lv_label.c ****     uint32_t logical_pos;
 1925              		.loc 1 666 19 view .LVU568
 1926 00de 0024     		movs	r4, #0
 1927              	.LVL204:
 666:lvgl/src/lv_widgets/lv_label.c ****     uint32_t logical_pos;
 1928              		.loc 1 666 19 view .LVU569
 1929 00e0 2646     		mov	r6, r4
 1930              	.LVL205:
 1931              	.L130:
 679:lvgl/src/lv_widgets/lv_label.c ****         new_line_start += _lv_txt_get_next_line(&txt[line_start], font, letter_space, max_w, flag);
ARM GAS  D:\Temp\cclLOIfg.s 			page 76


 1932              		.loc 1 679 14 view .LVU570
 1933 00e2 08EB060B 		add	fp, r8, r6
 1934 00e6 18F80630 		ldrb	r3, [r8, r6]	@ zero_extendqisi2
 679:lvgl/src/lv_widgets/lv_label.c ****         new_line_start += _lv_txt_get_next_line(&txt[line_start], font, letter_space, max_w, flag);
 1935              		.loc 1 679 10 view .LVU571
 1936 00ea 5BB3     		cbz	r3, .L148
 680:lvgl/src/lv_widgets/lv_label.c **** 
 1937              		.loc 1 680 9 is_stmt 1 view .LVU572
 680:lvgl/src/lv_widgets/lv_label.c **** 
 1938              		.loc 1 680 27 is_stmt 0 view .LVU573
 1939 00ec 0095     		str	r5, [sp]
 1940 00ee 079B     		ldr	r3, [sp, #28]
 1941 00f0 049A     		ldr	r2, [sp, #16]
 1942 00f2 0399     		ldr	r1, [sp, #12]
 1943 00f4 5846     		mov	r0, fp
 1944 00f6 FFF7FEFF 		bl	_lv_txt_get_next_line
 1945              	.LVL206:
 680:lvgl/src/lv_widgets/lv_label.c **** 
 1946              		.loc 1 680 24 view .LVU574
 1947 00fa 3044     		add	r0, r0, r6
 1948              	.LVL207:
 682:lvgl/src/lv_widgets/lv_label.c ****             /*The line is found (stored in 'line_start')*/
 1949              		.loc 1 682 9 is_stmt 1 view .LVU575
 682:lvgl/src/lv_widgets/lv_label.c ****             /*The line is found (stored in 'line_start')*/
 1950              		.loc 1 682 23 is_stmt 0 view .LVU576
 1951 00fc 04EB0A03 		add	r3, r4, r10
 682:lvgl/src/lv_widgets/lv_label.c ****             /*The line is found (stored in 'line_start')*/
 1952              		.loc 1 682 11 view .LVU577
 1953 0100 9F42     		cmp	r7, r3
 1954 0102 11DD     		ble	.L149
 691:lvgl/src/lv_widgets/lv_label.c **** 
 1955              		.loc 1 691 9 is_stmt 1 view .LVU578
 691:lvgl/src/lv_widgets/lv_label.c **** 
 1956              		.loc 1 691 28 is_stmt 0 view .LVU579
 1957 0104 069B     		ldr	r3, [sp, #24]
 1958 0106 5344     		add	r3, r10, r3
 691:lvgl/src/lv_widgets/lv_label.c **** 
 1959              		.loc 1 691 11 view .LVU580
 1960 0108 14FA83F3 		uxtah	r3, r4, r3
 1961 010c 1CB2     		sxth	r4, r3
 1962              	.LVL208:
 693:lvgl/src/lv_widgets/lv_label.c ****     }
 1963              		.loc 1 693 9 is_stmt 1 view .LVU581
 693:lvgl/src/lv_widgets/lv_label.c ****     }
 1964              		.loc 1 693 20 is_stmt 0 view .LVU582
 1965 010e 0646     		mov	r6, r0
 1966 0110 E7E7     		b	.L130
 1967              	.LVL209:
 1968              	.L141:
 670:lvgl/src/lv_widgets/lv_label.c ****     if(ext->expand != 0) flag |= LV_TXT_FLAG_EXPAND;
 1969              		.loc 1 670 32 view .LVU583
 1970 0112 0125     		movs	r5, #1
 1971              	.LVL210:
 670:lvgl/src/lv_widgets/lv_label.c ****     if(ext->expand != 0) flag |= LV_TXT_FLAG_EXPAND;
 1972              		.loc 1 670 32 view .LVU584
 1973 0114 D2E7     		b	.L122
 1974              	.LVL211:
ARM GAS  D:\Temp\cclLOIfg.s 			page 77


 1975              	.L145:
 671:lvgl/src/lv_widgets/lv_label.c ****     if(ext->long_mode == LV_LABEL_LONG_EXPAND) flag |= LV_TXT_FLAG_FIT;
 1976              		.loc 1 671 26 is_stmt 1 discriminator 1 view .LVU585
 671:lvgl/src/lv_widgets/lv_label.c ****     if(ext->long_mode == LV_LABEL_LONG_EXPAND) flag |= LV_TXT_FLAG_FIT;
 1977              		.loc 1 671 31 is_stmt 0 discriminator 1 view .LVU586
 1978 0116 45F00205 		orr	r5, r5, #2
 1979              	.LVL212:
 671:lvgl/src/lv_widgets/lv_label.c ****     if(ext->long_mode == LV_LABEL_LONG_EXPAND) flag |= LV_TXT_FLAG_FIT;
 1980              		.loc 1 671 31 discriminator 1 view .LVU587
 1981 011a D2E7     		b	.L123
 1982              	.LVL213:
 1983              	.L146:
 675:lvgl/src/lv_widgets/lv_label.c ****     if(align == LV_LABEL_ALIGN_RIGHT) flag |= LV_TXT_FLAG_RIGHT;
 1984              		.loc 1 675 40 is_stmt 1 discriminator 1 view .LVU588
 675:lvgl/src/lv_widgets/lv_label.c ****     if(align == LV_LABEL_ALIGN_RIGHT) flag |= LV_TXT_FLAG_RIGHT;
 1985              		.loc 1 675 45 is_stmt 0 discriminator 1 view .LVU589
 1986 011c 45F00405 		orr	r5, r5, #4
 1987              	.LVL214:
 675:lvgl/src/lv_widgets/lv_label.c ****     if(align == LV_LABEL_ALIGN_RIGHT) flag |= LV_TXT_FLAG_RIGHT;
 1988              		.loc 1 675 45 discriminator 1 view .LVU590
 1989 0120 DAE7     		b	.L125
 1990              	.L147:
 676:lvgl/src/lv_widgets/lv_label.c **** 
 1991              		.loc 1 676 39 is_stmt 1 discriminator 1 view .LVU591
 676:lvgl/src/lv_widgets/lv_label.c **** 
 1992              		.loc 1 676 44 is_stmt 0 discriminator 1 view .LVU592
 1993 0122 45F00805 		orr	r5, r5, #8
 1994              	.LVL215:
 676:lvgl/src/lv_widgets/lv_label.c **** 
 1995              		.loc 1 676 44 discriminator 1 view .LVU593
 1996 0126 DAE7     		b	.L126
 1997              	.LVL216:
 1998              	.L149:
 676:lvgl/src/lv_widgets/lv_label.c **** 
 1999              		.loc 1 676 44 discriminator 1 view .LVU594
 2000 0128 0746     		mov	r7, r0
 2001              	.LBB230:
 685:lvgl/src/lv_widgets/lv_label.c ****             uint32_t letter;
 2002              		.loc 1 685 13 is_stmt 1 view .LVU595
 685:lvgl/src/lv_widgets/lv_label.c ****             uint32_t letter;
 2003              		.loc 1 685 22 is_stmt 0 view .LVU596
 2004 012a 0990     		str	r0, [sp, #36]
 686:lvgl/src/lv_widgets/lv_label.c ****             letter = _lv_txt_encoded_prev(txt, &tmp);
 2005              		.loc 1 686 13 is_stmt 1 view .LVU597
 687:lvgl/src/lv_widgets/lv_label.c ****             if(letter != '\n' && txt[new_line_start] == '\0') new_line_start++;
 2006              		.loc 1 687 13 view .LVU598
 687:lvgl/src/lv_widgets/lv_label.c ****             if(letter != '\n' && txt[new_line_start] == '\0') new_line_start++;
 2007              		.loc 1 687 22 is_stmt 0 view .LVU599
 2008 012c 494B     		ldr	r3, .L152+4
 2009 012e 1B68     		ldr	r3, [r3]
 2010 0130 09A9     		add	r1, sp, #36
 2011 0132 4046     		mov	r0, r8
 2012              	.LVL217:
 687:lvgl/src/lv_widgets/lv_label.c ****             if(letter != '\n' && txt[new_line_start] == '\0') new_line_start++;
 2013              		.loc 1 687 22 view .LVU600
 2014 0134 9847     		blx	r3
 2015              	.LVL218:
ARM GAS  D:\Temp\cclLOIfg.s 			page 78


 688:lvgl/src/lv_widgets/lv_label.c ****             break;
 2016              		.loc 1 688 13 is_stmt 1 view .LVU601
 688:lvgl/src/lv_widgets/lv_label.c ****             break;
 2017              		.loc 1 688 15 is_stmt 0 view .LVU602
 2018 0136 0A28     		cmp	r0, #10
 2019 0138 05D0     		beq	.L129
 688:lvgl/src/lv_widgets/lv_label.c ****             break;
 2020              		.loc 1 688 37 discriminator 1 view .LVU603
 2021 013a 18F80730 		ldrb	r3, [r8, r7]	@ zero_extendqisi2
 688:lvgl/src/lv_widgets/lv_label.c ****             break;
 2022              		.loc 1 688 31 discriminator 1 view .LVU604
 2023 013e 13B9     		cbnz	r3, .L129
 688:lvgl/src/lv_widgets/lv_label.c ****             break;
 2024              		.loc 1 688 63 is_stmt 1 discriminator 2 view .LVU605
 688:lvgl/src/lv_widgets/lv_label.c ****             break;
 2025              		.loc 1 688 77 is_stmt 0 discriminator 2 view .LVU606
 2026 0140 0137     		adds	r7, r7, #1
 2027              	.LVL219:
 689:lvgl/src/lv_widgets/lv_label.c ****         }
 2028              		.loc 1 689 13 is_stmt 1 discriminator 2 view .LVU607
 2029 0142 00E0     		b	.L129
 2030              	.LVL220:
 2031              	.L148:
 689:lvgl/src/lv_widgets/lv_label.c ****         }
 2032              		.loc 1 689 13 is_stmt 0 discriminator 2 view .LVU608
 2033              	.LBE230:
 2034 0144 3746     		mov	r7, r6
 2035              	.LVL221:
 2036              	.L129:
 702:lvgl/src/lv_widgets/lv_label.c **** #endif
 2037              		.loc 1 702 5 is_stmt 1 view .LVU609
 706:lvgl/src/lv_widgets/lv_label.c ****     if(align == LV_LABEL_ALIGN_CENTER) {
 2038              		.loc 1 706 5 view .LVU610
 707:lvgl/src/lv_widgets/lv_label.c ****         lv_coord_t line_w;
 2039              		.loc 1 707 5 view .LVU611
 707:lvgl/src/lv_widgets/lv_label.c ****         lv_coord_t line_w;
 2040              		.loc 1 707 7 is_stmt 0 view .LVU612
 2041 0146 B9F1010F 		cmp	r9, #1
 2042 014a 17D0     		beq	.L150
 712:lvgl/src/lv_widgets/lv_label.c ****         lv_coord_t line_w;
 2043              		.loc 1 712 10 is_stmt 1 view .LVU613
 712:lvgl/src/lv_widgets/lv_label.c ****         lv_coord_t line_w;
 2044              		.loc 1 712 12 is_stmt 0 view .LVU614
 2045 014c B9F1020F 		cmp	r9, #2
 2046 0150 2DD0     		beq	.L151
 706:lvgl/src/lv_widgets/lv_label.c ****     if(align == LV_LABEL_ALIGN_CENTER) {
 2047              		.loc 1 706 16 view .LVU615
 2048 0152 0024     		movs	r4, #0
 2049              	.LVL222:
 2050              	.L133:
 718:lvgl/src/lv_widgets/lv_label.c **** 
 2051              		.loc 1 718 5 is_stmt 1 view .LVU616
 718:lvgl/src/lv_widgets/lv_label.c **** 
 2052              		.loc 1 718 24 is_stmt 0 view .LVU617
 2053 0154 0023     		movs	r3, #0
 2054 0156 8DF82F30 		strb	r3, [sp, #47]
 720:lvgl/src/lv_widgets/lv_label.c ****     uint32_t i_act = i;
ARM GAS  D:\Temp\cclLOIfg.s 			page 79


 2055              		.loc 1 720 5 is_stmt 1 view .LVU618
 720:lvgl/src/lv_widgets/lv_label.c ****     uint32_t i_act = i;
 2056              		.loc 1 720 14 is_stmt 0 view .LVU619
 2057 015a 0A93     		str	r3, [sp, #40]
 721:lvgl/src/lv_widgets/lv_label.c **** 
 2058              		.loc 1 721 5 is_stmt 1 view .LVU620
 2059              	.LVL223:
 723:lvgl/src/lv_widgets/lv_label.c ****         while(i + line_start < new_line_start) {
 2060              		.loc 1 723 5 view .LVU621
 723:lvgl/src/lv_widgets/lv_label.c ****         while(i + line_start < new_line_start) {
 2061              		.loc 1 723 7 is_stmt 0 view .LVU622
 2062 015c 002F     		cmp	r7, #0
 2063 015e 74D1     		bne	.L143
 2064              	.LVL224:
 2065              	.L135:
 765:lvgl/src/lv_widgets/lv_label.c **** #endif
 2066              		.loc 1 765 5 is_stmt 1 view .LVU623
 765:lvgl/src/lv_widgets/lv_label.c **** #endif
 2067              		.loc 1 765 19 is_stmt 0 view .LVU624
 2068 0160 3D4C     		ldr	r4, .L152+8
 2069              	.LVL225:
 765:lvgl/src/lv_widgets/lv_label.c **** #endif
 2070              		.loc 1 765 19 view .LVU625
 2071 0162 2368     		ldr	r3, [r4]
 2072 0164 0A99     		ldr	r1, [sp, #40]
 2073 0166 5846     		mov	r0, fp
 2074 0168 9847     		blx	r3
 2075              	.LVL226:
 2076 016a 0546     		mov	r5, r0
 2077              	.LVL227:
 768:lvgl/src/lv_widgets/lv_label.c **** }
 2078              		.loc 1 768 5 is_stmt 1 view .LVU626
 768:lvgl/src/lv_widgets/lv_label.c **** }
 2079              		.loc 1 768 26 is_stmt 0 view .LVU627
 2080 016c 2368     		ldr	r3, [r4]
 2081 016e 3146     		mov	r1, r6
 2082 0170 4046     		mov	r0, r8
 2083              	.LVL228:
 768:lvgl/src/lv_widgets/lv_label.c **** }
 2084              		.loc 1 768 26 view .LVU628
 2085 0172 9847     		blx	r3
 2086              	.LVL229:
 769:lvgl/src/lv_widgets/lv_label.c **** 
 2087              		.loc 1 769 1 view .LVU629
 2088 0174 2844     		add	r0, r0, r5
 2089 0176 0FB0     		add	sp, sp, #60
 2090              	.LCFI21:
 2091              		.cfi_remember_state
 2092              		.cfi_def_cfa_offset 36
 2093              		@ sp needed
 2094 0178 BDE8F08F 		pop	{r4, r5, r6, r7, r8, r9, r10, fp, pc}
 2095              	.LVL230:
 2096              	.L150:
 2097              	.LCFI22:
 2098              		.cfi_restore_state
 2099              	.LBB231:
 708:lvgl/src/lv_widgets/lv_label.c ****         line_w = _lv_txt_get_width(bidi_txt, new_line_start - line_start, font, letter_space, flag)
ARM GAS  D:\Temp\cclLOIfg.s 			page 80


 2100              		.loc 1 708 9 is_stmt 1 view .LVU630
 709:lvgl/src/lv_widgets/lv_label.c ****         x += lv_area_get_width(&txt_coords) / 2 - line_w / 2;
 2101              		.loc 1 709 9 view .LVU631
 709:lvgl/src/lv_widgets/lv_label.c ****         x += lv_area_get_width(&txt_coords) / 2 - line_w / 2;
 2102              		.loc 1 709 18 is_stmt 0 view .LVU632
 2103 017c 0095     		str	r5, [sp]
 2104 017e 049B     		ldr	r3, [sp, #16]
 2105 0180 039A     		ldr	r2, [sp, #12]
 2106 0182 B91B     		subs	r1, r7, r6
 2107 0184 5846     		mov	r0, fp
 2108 0186 FFF7FEFF 		bl	_lv_txt_get_width
 2109              	.LVL231:
 710:lvgl/src/lv_widgets/lv_label.c ****     }
 2110              		.loc 1 710 9 is_stmt 1 view .LVU633
 2111              	.LBB232:
 2112              	.LBI232:
 107:d:\_project\stm32\f407\hack_rf_new\lvgl\src\lv_misc\lv_area.h **** {
 2113              		.loc 3 107 26 view .LVU634
 2114              	.LBB233:
 2115              		.loc 3 109 5 view .LVU635
 2116              		.loc 3 109 31 is_stmt 0 view .LVU636
 2117 018a BDF83430 		ldrh	r3, [sp, #52]
 2118              		.loc 3 109 44 view .LVU637
 2119 018e BDF83020 		ldrh	r2, [sp, #48]
 2120              		.loc 3 109 36 view .LVU638
 2121 0192 9B1A     		subs	r3, r3, r2
 2122 0194 9BB2     		uxth	r3, r3
 2123              		.loc 3 109 49 view .LVU639
 2124 0196 0133     		adds	r3, r3, #1
 2125              		.loc 3 109 12 view .LVU640
 2126 0198 1BB2     		sxth	r3, r3
 2127              	.LVL232:
 2128              		.loc 3 109 12 view .LVU641
 2129              	.LBE233:
 2130              	.LBE232:
 710:lvgl/src/lv_widgets/lv_label.c ****     }
 2131              		.loc 1 710 45 view .LVU642
 2132 019a 03EBD373 		add	r3, r3, r3, lsr #31
 710:lvgl/src/lv_widgets/lv_label.c ****     }
 2133              		.loc 1 710 58 view .LVU643
 2134 019e 00EBD070 		add	r0, r0, r0, lsr #31
 2135              	.LVL233:
 710:lvgl/src/lv_widgets/lv_label.c ****     }
 2136              		.loc 1 710 58 view .LVU644
 2137 01a2 40F34F04 		sbfx	r4, r0, #1, #16
 2138              	.LVL234:
 710:lvgl/src/lv_widgets/lv_label.c ****     }
 2139              		.loc 1 710 11 view .LVU645
 2140 01a6 C4EB6303 		rsb	r3, r4, r3, asr #1
 2141 01aa 1CB2     		sxth	r4, r3
 2142              	.LVL235:
 710:lvgl/src/lv_widgets/lv_label.c ****     }
 2143              		.loc 1 710 11 view .LVU646
 2144              	.LBE231:
 2145 01ac D2E7     		b	.L133
 2146              	.LVL236:
 2147              	.L151:
ARM GAS  D:\Temp\cclLOIfg.s 			page 81


 2148              	.LBB234:
 713:lvgl/src/lv_widgets/lv_label.c ****         line_w = _lv_txt_get_width(bidi_txt, new_line_start - line_start, font, letter_space, flag)
 2149              		.loc 1 713 9 is_stmt 1 view .LVU647
 714:lvgl/src/lv_widgets/lv_label.c ****         x += lv_area_get_width(&txt_coords) - line_w;
 2150              		.loc 1 714 9 view .LVU648
 714:lvgl/src/lv_widgets/lv_label.c ****         x += lv_area_get_width(&txt_coords) - line_w;
 2151              		.loc 1 714 18 is_stmt 0 view .LVU649
 2152 01ae 0095     		str	r5, [sp]
 2153 01b0 049B     		ldr	r3, [sp, #16]
 2154 01b2 039A     		ldr	r2, [sp, #12]
 2155 01b4 B91B     		subs	r1, r7, r6
 2156 01b6 5846     		mov	r0, fp
 2157 01b8 FFF7FEFF 		bl	_lv_txt_get_width
 2158              	.LVL237:
 715:lvgl/src/lv_widgets/lv_label.c ****     }
 2159              		.loc 1 715 9 is_stmt 1 view .LVU650
 2160              	.LBB235:
 2161              	.LBI235:
 107:d:\_project\stm32\f407\hack_rf_new\lvgl\src\lv_misc\lv_area.h **** {
 2162              		.loc 3 107 26 view .LVU651
 2163              	.LBB236:
 2164              		.loc 3 109 5 view .LVU652
 2165              		.loc 3 109 31 is_stmt 0 view .LVU653
 2166 01bc BDF83430 		ldrh	r3, [sp, #52]
 2167              		.loc 3 109 44 view .LVU654
 2168 01c0 BDF83020 		ldrh	r2, [sp, #48]
 2169              		.loc 3 109 36 view .LVU655
 2170 01c4 9B1A     		subs	r3, r3, r2
 2171 01c6 9BB2     		uxth	r3, r3
 2172              		.loc 3 109 49 view .LVU656
 2173 01c8 0133     		adds	r3, r3, #1
 2174 01ca 9BB2     		uxth	r3, r3
 2175              	.LVL238:
 2176              		.loc 3 109 49 view .LVU657
 2177              	.LBE236:
 2178              	.LBE235:
 715:lvgl/src/lv_widgets/lv_label.c ****     }
 2179              		.loc 1 715 11 view .LVU658
 2180 01cc 1B1A     		subs	r3, r3, r0
 2181 01ce 1CB2     		sxth	r4, r3
 2182              	.LVL239:
 715:lvgl/src/lv_widgets/lv_label.c ****     }
 2183              		.loc 1 715 11 view .LVU659
 2184 01d0 C0E7     		b	.L133
 2185              	.LVL240:
 2186              	.L136:
 715:lvgl/src/lv_widgets/lv_label.c ****     }
 2187              		.loc 1 715 11 view .LVU660
 2188              	.LBE234:
 2189              	.LBB237:
 738:lvgl/src/lv_widgets/lv_label.c **** 
 2190              		.loc 1 738 13 is_stmt 1 view .LVU661
 738:lvgl/src/lv_widgets/lv_label.c **** 
 2191              		.loc 1 738 29 is_stmt 0 view .LVU662
 2192 01d2 5246     		mov	r2, r10
 2193 01d4 0699     		ldr	r1, [sp, #24]
 2194 01d6 0398     		ldr	r0, [sp, #12]
ARM GAS  D:\Temp\cclLOIfg.s 			page 82


 2195 01d8 FFF7FEFF 		bl	lv_font_get_glyph_width
 2196              	.LVL241:
 741:lvgl/src/lv_widgets/lv_label.c ****                 i = i_act;
 2197              		.loc 1 741 13 is_stmt 1 view .LVU663
 741:lvgl/src/lv_widgets/lv_label.c ****                 i = i_act;
 2198              		.loc 1 741 26 is_stmt 0 view .LVU664
 2199 01dc 04FA80F3 		sxtah	r3, r4, r0
 741:lvgl/src/lv_widgets/lv_label.c ****                 i = i_act;
 2200              		.loc 1 741 15 view .LVU665
 2201 01e0 059A     		ldr	r2, [sp, #20]
 2202 01e2 9A42     		cmp	r2, r3
 2203 01e4 2EDB     		blt	.L138
 741:lvgl/src/lv_widgets/lv_label.c ****                 i = i_act;
 2204              		.loc 1 741 36 discriminator 1 view .LVU666
 2205 01e6 0A9B     		ldr	r3, [sp, #40]
 2206 01e8 9A19     		adds	r2, r3, r6
 741:lvgl/src/lv_widgets/lv_label.c ****                 i = i_act;
 2207              		.loc 1 741 31 discriminator 1 view .LVU667
 2208 01ea BA42     		cmp	r2, r7
 2209 01ec 2AD0     		beq	.L138
 741:lvgl/src/lv_widgets/lv_label.c ****                 i = i_act;
 2210              		.loc 1 741 80 discriminator 2 view .LVU668
 2211 01ee 06EB0902 		add	r2, r6, r9
 741:lvgl/src/lv_widgets/lv_label.c ****                 i = i_act;
 2212              		.loc 1 741 73 discriminator 2 view .LVU669
 2213 01f2 18F80220 		ldrb	r2, [r8, r2]	@ zero_extendqisi2
 741:lvgl/src/lv_widgets/lv_label.c ****                 i = i_act;
 2214              		.loc 1 741 67 discriminator 2 view .LVU670
 2215 01f6 2AB3     		cbz	r2, .L138
 745:lvgl/src/lv_widgets/lv_label.c ****             x += letter_space;
 2216              		.loc 1 745 13 is_stmt 1 view .LVU671
 745:lvgl/src/lv_widgets/lv_label.c ****             x += letter_space;
 2217              		.loc 1 745 15 is_stmt 0 view .LVU672
 2218 01f8 0444     		add	r4, r4, r0
 2219              	.LVL242:
 746:lvgl/src/lv_widgets/lv_label.c ****             i_act = i;
 2220              		.loc 1 746 13 is_stmt 1 view .LVU673
 746:lvgl/src/lv_widgets/lv_label.c ****             i_act = i;
 2221              		.loc 1 746 15 is_stmt 0 view .LVU674
 2222 01fa 049A     		ldr	r2, [sp, #16]
 2223 01fc 12FA84F4 		uxtah	r4, r2, r4
 2224              	.LVL243:
 746:lvgl/src/lv_widgets/lv_label.c ****             i_act = i;
 2225              		.loc 1 746 15 view .LVU675
 2226 0200 24B2     		sxth	r4, r4
 2227              	.LVL244:
 747:lvgl/src/lv_widgets/lv_label.c ****         }
 2228              		.loc 1 747 13 is_stmt 1 view .LVU676
 747:lvgl/src/lv_widgets/lv_label.c ****         }
 2229              		.loc 1 747 19 is_stmt 0 view .LVU677
 2230 0202 9946     		mov	r9, r3
 2231              	.LVL245:
 2232              	.L134:
 747:lvgl/src/lv_widgets/lv_label.c ****         }
 2233              		.loc 1 747 19 view .LVU678
 2234              	.LBE237:
 724:lvgl/src/lv_widgets/lv_label.c ****             /* Get the current letter.*/
ARM GAS  D:\Temp\cclLOIfg.s 			page 83


 2235              		.loc 1 724 17 view .LVU679
 2236 0204 0A9B     		ldr	r3, [sp, #40]
 2237 0206 3344     		add	r3, r3, r6
 724:lvgl/src/lv_widgets/lv_label.c ****             /* Get the current letter.*/
 2238              		.loc 1 724 14 view .LVU680
 2239 0208 BB42     		cmp	r3, r7
 2240 020a A9D2     		bcs	.L135
 2241              	.LBB238:
 726:lvgl/src/lv_widgets/lv_label.c **** 
 2242              		.loc 1 726 13 is_stmt 1 view .LVU681
 726:lvgl/src/lv_widgets/lv_label.c **** 
 2243              		.loc 1 726 31 is_stmt 0 view .LVU682
 2244 020c DFF84CA0 		ldr	r10, .L152+12
 2245 0210 DAF80030 		ldr	r3, [r10]
 2246 0214 0AA9     		add	r1, sp, #40
 2247 0216 5846     		mov	r0, fp
 2248 0218 9847     		blx	r3
 2249              	.LVL246:
 2250 021a 0690     		str	r0, [sp, #24]
 2251              	.LVL247:
 729:lvgl/src/lv_widgets/lv_label.c **** 
 2252              		.loc 1 729 13 is_stmt 1 view .LVU683
 729:lvgl/src/lv_widgets/lv_label.c **** 
 2253              		.loc 1 729 36 is_stmt 0 view .LVU684
 2254 021c DAF80030 		ldr	r3, [r10]
 2255 0220 0021     		movs	r1, #0
 2256 0222 0A98     		ldr	r0, [sp, #40]
 2257              	.LVL248:
 729:lvgl/src/lv_widgets/lv_label.c **** 
 2258              		.loc 1 729 36 view .LVU685
 2259 0224 5844     		add	r0, r0, fp
 2260 0226 9847     		blx	r3
 2261              	.LVL249:
 2262 0228 8246     		mov	r10, r0
 2263              	.LVL250:
 732:lvgl/src/lv_widgets/lv_label.c ****                 if(_lv_txt_is_cmd(&cmd_state, bidi_txt[i]) != false) {
 2264              		.loc 1 732 13 is_stmt 1 view .LVU686
 732:lvgl/src/lv_widgets/lv_label.c ****                 if(_lv_txt_is_cmd(&cmd_state, bidi_txt[i]) != false) {
 2265              		.loc 1 732 15 is_stmt 0 view .LVU687
 2266 022a 15F0010F 		tst	r5, #1
 2267 022e D0D0     		beq	.L136
 733:lvgl/src/lv_widgets/lv_label.c ****                     continue; /*Skip the letter is it is part of a command*/
 2268              		.loc 1 733 17 is_stmt 1 view .LVU688
 733:lvgl/src/lv_widgets/lv_label.c ****                     continue; /*Skip the letter is it is part of a command*/
 2269              		.loc 1 733 20 is_stmt 0 view .LVU689
 2270 0230 0A9B     		ldr	r3, [sp, #40]
 2271 0232 1BF80310 		ldrb	r1, [fp, r3]	@ zero_extendqisi2
 2272 0236 0DF12F00 		add	r0, sp, #47
 2273              	.LVL251:
 733:lvgl/src/lv_widgets/lv_label.c ****                     continue; /*Skip the letter is it is part of a command*/
 2274              		.loc 1 733 20 view .LVU690
 2275 023a FFF7FEFF 		bl	_lv_txt_is_cmd
 2276              	.LVL252:
 733:lvgl/src/lv_widgets/lv_label.c ****                     continue; /*Skip the letter is it is part of a command*/
 2277              		.loc 1 733 19 view .LVU691
 2278 023e 0028     		cmp	r0, #0
 2279 0240 C7D0     		beq	.L136
ARM GAS  D:\Temp\cclLOIfg.s 			page 84


 2280 0242 DFE7     		b	.L134
 2281              	.LVL253:
 2282              	.L138:
 742:lvgl/src/lv_widgets/lv_label.c ****                 break;
 2283              		.loc 1 742 17 is_stmt 1 view .LVU692
 742:lvgl/src/lv_widgets/lv_label.c ****                 break;
 2284              		.loc 1 742 19 is_stmt 0 view .LVU693
 2285 0244 CDF82890 		str	r9, [sp, #40]
 743:lvgl/src/lv_widgets/lv_label.c ****             }
 2286              		.loc 1 743 17 is_stmt 1 view .LVU694
 2287 0248 8AE7     		b	.L135
 2288              	.LVL254:
 2289              	.L143:
 743:lvgl/src/lv_widgets/lv_label.c ****             }
 2290              		.loc 1 743 17 is_stmt 0 view .LVU695
 2291              	.LBE238:
 721:lvgl/src/lv_widgets/lv_label.c **** 
 2292              		.loc 1 721 14 view .LVU696
 2293 024a 4FF00009 		mov	r9, #0
 2294 024e D9E7     		b	.L134
 2295              	.L153:
 2296              		.align	2
 2297              	.L152:
 2298 0250 00000000 		.word	.LC0
 2299 0254 00000000 		.word	_lv_txt_encoded_prev
 2300 0258 00000000 		.word	_lv_txt_encoded_get_char_id
 2301 025c 00000000 		.word	_lv_txt_encoded_next
 2302              		.cfi_endproc
 2303              	.LFE474:
 2305              		.section	.text.lv_label_get_text_sel_start,"ax",%progbits
 2306              		.align	1
 2307              		.global	lv_label_get_text_sel_start
 2308              		.syntax unified
 2309              		.thumb
 2310              		.thumb_func
 2311              		.fpu fpv4-sp-d16
 2313              	lv_label_get_text_sel_start:
 2314              	.LVL255:
 2315              	.LFB475:
 777:lvgl/src/lv_widgets/lv_label.c ****     LV_ASSERT_OBJ(label, LV_OBJX_NAME);
 2316              		.loc 1 777 1 is_stmt 1 view -0
 2317              		.cfi_startproc
 2318              		@ args = 0, pretend = 0, frame = 0
 2319              		@ frame_needed = 0, uses_anonymous_args = 0
 777:lvgl/src/lv_widgets/lv_label.c ****     LV_ASSERT_OBJ(label, LV_OBJX_NAME);
 2320              		.loc 1 777 1 is_stmt 0 view .LVU698
 2321 0000 10B5     		push	{r4, lr}
 2322              	.LCFI23:
 2323              		.cfi_def_cfa_offset 8
 2324              		.cfi_offset 4, -8
 2325              		.cfi_offset 14, -4
 2326 0002 0446     		mov	r4, r0
 778:lvgl/src/lv_widgets/lv_label.c **** 
 2327              		.loc 1 778 5 is_stmt 1 view .LVU699
 778:lvgl/src/lv_widgets/lv_label.c **** 
 2328              		.loc 1 778 5 view .LVU700
 2329 0004 FFF7FEFF 		bl	lv_debug_check_null
ARM GAS  D:\Temp\cclLOIfg.s 			page 85


 2330              	.LVL256:
 778:lvgl/src/lv_widgets/lv_label.c **** 
 2331              		.loc 1 778 5 is_stmt 0 view .LVU701
 2332 0008 10B1     		cbz	r0, .L158
 778:lvgl/src/lv_widgets/lv_label.c **** 
 2333              		.loc 1 778 39 is_stmt 1 discriminator 2 view .LVU702
 785:lvgl/src/lv_widgets/lv_label.c ****     return LV_LABEL_TEXT_SEL_OFF;
 2334              		.loc 1 785 5 discriminator 2 view .LVU703
 786:lvgl/src/lv_widgets/lv_label.c **** #endif
 2335              		.loc 1 786 5 discriminator 2 view .LVU704
 788:lvgl/src/lv_widgets/lv_label.c **** 
 2336              		.loc 1 788 1 is_stmt 0 discriminator 2 view .LVU705
 2337 000a 4FF6FF70 		movw	r0, #65535
 2338 000e 10BD     		pop	{r4, pc}
 2339              	.LVL257:
 2340              	.L158:
 778:lvgl/src/lv_widgets/lv_label.c **** 
 2341              		.loc 1 778 5 is_stmt 1 discriminator 1 view .LVU706
 778:lvgl/src/lv_widgets/lv_label.c **** 
 2342              		.loc 1 778 5 discriminator 1 view .LVU707
 2343 0010 2246     		mov	r2, r4
 2344 0012 0023     		movs	r3, #0
 2345 0014 0148     		ldr	r0, .L159
 2346 0016 FFF7FEFF 		bl	lv_debug_log_error
 2347              	.LVL258:
 2348              	.L156:
 778:lvgl/src/lv_widgets/lv_label.c **** 
 2349              		.loc 1 778 5 discriminator 1 view .LVU708
 778:lvgl/src/lv_widgets/lv_label.c **** 
 2350              		.loc 1 778 5 discriminator 1 view .LVU709
 2351 001a FEE7     		b	.L156
 2352              	.L160:
 2353              		.align	2
 2354              	.L159:
 2355 001c 00000000 		.word	.LC0
 2356              		.cfi_endproc
 2357              	.LFE475:
 2359              		.section	.text.lv_label_get_text_sel_end,"ax",%progbits
 2360              		.align	1
 2361              		.global	lv_label_get_text_sel_end
 2362              		.syntax unified
 2363              		.thumb
 2364              		.thumb_func
 2365              		.fpu fpv4-sp-d16
 2367              	lv_label_get_text_sel_end:
 2368              	.LVL259:
 2369              	.LFB476:
 796:lvgl/src/lv_widgets/lv_label.c ****     LV_ASSERT_OBJ(label, LV_OBJX_NAME);
 2370              		.loc 1 796 1 view -0
 2371              		.cfi_startproc
 2372              		@ args = 0, pretend = 0, frame = 0
 2373              		@ frame_needed = 0, uses_anonymous_args = 0
 796:lvgl/src/lv_widgets/lv_label.c ****     LV_ASSERT_OBJ(label, LV_OBJX_NAME);
 2374              		.loc 1 796 1 is_stmt 0 view .LVU711
 2375 0000 10B5     		push	{r4, lr}
 2376              	.LCFI24:
 2377              		.cfi_def_cfa_offset 8
ARM GAS  D:\Temp\cclLOIfg.s 			page 86


 2378              		.cfi_offset 4, -8
 2379              		.cfi_offset 14, -4
 2380 0002 0446     		mov	r4, r0
 797:lvgl/src/lv_widgets/lv_label.c **** 
 2381              		.loc 1 797 5 is_stmt 1 view .LVU712
 797:lvgl/src/lv_widgets/lv_label.c **** 
 2382              		.loc 1 797 5 view .LVU713
 2383 0004 FFF7FEFF 		bl	lv_debug_check_null
 2384              	.LVL260:
 797:lvgl/src/lv_widgets/lv_label.c **** 
 2385              		.loc 1 797 5 is_stmt 0 view .LVU714
 2386 0008 10B1     		cbz	r0, .L165
 797:lvgl/src/lv_widgets/lv_label.c **** 
 2387              		.loc 1 797 39 is_stmt 1 discriminator 2 view .LVU715
 803:lvgl/src/lv_widgets/lv_label.c ****     return LV_LABEL_TEXT_SEL_OFF;
 2388              		.loc 1 803 5 discriminator 2 view .LVU716
 804:lvgl/src/lv_widgets/lv_label.c **** #endif
 2389              		.loc 1 804 5 discriminator 2 view .LVU717
 806:lvgl/src/lv_widgets/lv_label.c **** 
 2390              		.loc 1 806 1 is_stmt 0 discriminator 2 view .LVU718
 2391 000a 4FF6FF70 		movw	r0, #65535
 2392 000e 10BD     		pop	{r4, pc}
 2393              	.LVL261:
 2394              	.L165:
 797:lvgl/src/lv_widgets/lv_label.c **** 
 2395              		.loc 1 797 5 is_stmt 1 discriminator 1 view .LVU719
 797:lvgl/src/lv_widgets/lv_label.c **** 
 2396              		.loc 1 797 5 discriminator 1 view .LVU720
 2397 0010 2246     		mov	r2, r4
 2398 0012 0023     		movs	r3, #0
 2399 0014 0148     		ldr	r0, .L166
 2400 0016 FFF7FEFF 		bl	lv_debug_log_error
 2401              	.LVL262:
 2402              	.L163:
 797:lvgl/src/lv_widgets/lv_label.c **** 
 2403              		.loc 1 797 5 discriminator 1 view .LVU721
 797:lvgl/src/lv_widgets/lv_label.c **** 
 2404              		.loc 1 797 5 discriminator 1 view .LVU722
 2405 001a FEE7     		b	.L163
 2406              	.L167:
 2407              		.align	2
 2408              	.L166:
 2409 001c 00000000 		.word	.LC0
 2410              		.cfi_endproc
 2411              	.LFE476:
 2413              		.section	.text.lv_label_design,"ax",%progbits
 2414              		.align	1
 2415              		.syntax unified
 2416              		.thumb
 2417              		.thumb_func
 2418              		.fpu fpv4-sp-d16
 2420              	lv_label_design:
 2421              	.LVL263:
 2422              	.LFB482:
1238:lvgl/src/lv_widgets/lv_label.c ****     /* A label never covers an area */
 2423              		.loc 1 1238 1 view -0
 2424              		.cfi_startproc
ARM GAS  D:\Temp\cclLOIfg.s 			page 87


 2425              		@ args = 0, pretend = 0, frame = 152
 2426              		@ frame_needed = 0, uses_anonymous_args = 0
1240:lvgl/src/lv_widgets/lv_label.c ****         return LV_DESIGN_RES_NOT_COVER;
 2427              		.loc 1 1240 5 view .LVU724
1240:lvgl/src/lv_widgets/lv_label.c ****         return LV_DESIGN_RES_NOT_COVER;
 2428              		.loc 1 1240 7 is_stmt 0 view .LVU725
 2429 0000 022A     		cmp	r2, #2
 2430 0002 00F02C81 		beq	.L184
1242:lvgl/src/lv_widgets/lv_label.c ****         lv_label_ext_t * ext = lv_obj_get_ext_attr(label);
 2431              		.loc 1 1242 10 is_stmt 1 view .LVU726
1242:lvgl/src/lv_widgets/lv_label.c ****         lv_label_ext_t * ext = lv_obj_get_ext_attr(label);
 2432              		.loc 1 1242 12 is_stmt 0 view .LVU727
 2433 0006 0AB1     		cbz	r2, .L191
1334:lvgl/src/lv_widgets/lv_label.c **** }
 2434              		.loc 1 1334 12 view .LVU728
 2435 0008 0020     		movs	r0, #0
 2436              	.LVL264:
1335:lvgl/src/lv_widgets/lv_label.c **** 
 2437              		.loc 1 1335 1 view .LVU729
 2438 000a 7047     		bx	lr
 2439              	.LVL265:
 2440              	.L191:
1238:lvgl/src/lv_widgets/lv_label.c ****     /* A label never covers an area */
 2441              		.loc 1 1238 1 view .LVU730
 2442 000c 2DE9F043 		push	{r4, r5, r6, r7, r8, r9, lr}
 2443              	.LCFI25:
 2444              		.cfi_def_cfa_offset 28
 2445              		.cfi_offset 4, -28
 2446              		.cfi_offset 5, -24
 2447              		.cfi_offset 6, -20
 2448              		.cfi_offset 7, -16
 2449              		.cfi_offset 8, -12
 2450              		.cfi_offset 9, -8
 2451              		.cfi_offset 14, -4
 2452 0010 ABB0     		sub	sp, sp, #172
 2453              	.LCFI26:
 2454              		.cfi_def_cfa_offset 200
 2455 0012 0F46     		mov	r7, r1
 2456 0014 0646     		mov	r6, r0
 2457              	.LBB239:
1243:lvgl/src/lv_widgets/lv_label.c **** 
 2458              		.loc 1 1243 9 is_stmt 1 view .LVU731
1243:lvgl/src/lv_widgets/lv_label.c **** 
 2459              		.loc 1 1243 32 is_stmt 0 view .LVU732
 2460 0016 FFF7FEFF 		bl	lv_obj_get_ext_attr
 2461              	.LVL266:
1243:lvgl/src/lv_widgets/lv_label.c **** 
 2462              		.loc 1 1243 32 view .LVU733
 2463 001a 8046     		mov	r8, r0
 2464              	.LVL267:
1245:lvgl/src/lv_widgets/lv_label.c ****         lv_coord_t h = lv_obj_get_style_transform_height(label, LV_LABEL_PART_MAIN);
 2465              		.loc 1 1245 9 is_stmt 1 view .LVU734
 2466              	.LBB240:
 2467              	.LBI240:
 105:lvgl/src/lv_widgets/../lv_core/lv_obj_style_dec.h **** _LV_OBJ_STYLE_SET_GET_DECLARE(TRANSFORM_HEIGHT, transform_height, lv_style_int_t, _int, scalar)
 2468              		.loc 2 105 1 view .LVU735
 2469              	.LBB241:
ARM GAS  D:\Temp\cclLOIfg.s 			page 88


 105:lvgl/src/lv_widgets/../lv_core/lv_obj_style_dec.h **** _LV_OBJ_STYLE_SET_GET_DECLARE(TRANSFORM_HEIGHT, transform_height, lv_style_int_t, _int, scalar)
 2470              		.loc 2 105 1 view .LVU736
 2471 001c 0422     		movs	r2, #4
 2472 001e 0021     		movs	r1, #0
 2473 0020 3046     		mov	r0, r6
 2474              	.LVL268:
 105:lvgl/src/lv_widgets/../lv_core/lv_obj_style_dec.h **** _LV_OBJ_STYLE_SET_GET_DECLARE(TRANSFORM_HEIGHT, transform_height, lv_style_int_t, _int, scalar)
 2475              		.loc 2 105 1 is_stmt 0 view .LVU737
 2476 0022 FFF7FEFF 		bl	_lv_obj_get_style_int
 2477              	.LVL269:
 2478 0026 8146     		mov	r9, r0
 2479              	.LVL270:
 105:lvgl/src/lv_widgets/../lv_core/lv_obj_style_dec.h **** _LV_OBJ_STYLE_SET_GET_DECLARE(TRANSFORM_HEIGHT, transform_height, lv_style_int_t, _int, scalar)
 2480              		.loc 2 105 1 view .LVU738
 2481              	.LBE241:
 2482              	.LBE240:
1246:lvgl/src/lv_widgets/lv_label.c ****         lv_area_t bg_coords;
 2483              		.loc 1 1246 9 is_stmt 1 view .LVU739
 2484              	.LBB242:
 2485              	.LBI242:
 106:lvgl/src/lv_widgets/../lv_core/lv_obj_style_dec.h **** _LV_OBJ_STYLE_SET_GET_DECLARE(TRANSFORM_ANGLE, transform_angle, lv_style_int_t, _int, scalar)
 2486              		.loc 2 106 1 view .LVU740
 2487              	.LBB243:
 106:lvgl/src/lv_widgets/../lv_core/lv_obj_style_dec.h **** _LV_OBJ_STYLE_SET_GET_DECLARE(TRANSFORM_ANGLE, transform_angle, lv_style_int_t, _int, scalar)
 2488              		.loc 2 106 1 view .LVU741
 2489 0028 0522     		movs	r2, #5
 2490 002a 0021     		movs	r1, #0
 2491 002c 3046     		mov	r0, r6
 2492 002e FFF7FEFF 		bl	_lv_obj_get_style_int
 2493              	.LVL271:
 106:lvgl/src/lv_widgets/../lv_core/lv_obj_style_dec.h **** _LV_OBJ_STYLE_SET_GET_DECLARE(TRANSFORM_ANGLE, transform_angle, lv_style_int_t, _int, scalar)
 2494              		.loc 2 106 1 is_stmt 0 view .LVU742
 2495              	.LBE243:
 2496              	.LBE242:
1247:lvgl/src/lv_widgets/lv_label.c ****         lv_area_copy(&bg_coords, &label->coords);
 2497              		.loc 1 1247 9 is_stmt 1 view .LVU743
1248:lvgl/src/lv_widgets/lv_label.c ****         bg_coords.x1 -= w;
 2498              		.loc 1 1248 9 view .LVU744
1248:lvgl/src/lv_widgets/lv_label.c ****         bg_coords.x1 -= w;
 2499              		.loc 1 1248 34 is_stmt 0 view .LVU745
 2500 0032 06F11004 		add	r4, r6, #16
 2501              	.LVL272:
 2502              	.LBB244:
 2503              	.LBI244:
  97:d:\_project\stm32\f407\hack_rf_new\lvgl\src\lv_misc\lv_area.h **** {
 2504              		.loc 3 97 20 is_stmt 1 view .LVU746
 2505              	.LBB245:
 2506              	.LBB246:
 2507              		.file 5 "d:\\_project\\stm32\\f407\\hack_rf_new\\lvgl\\src\\lv_misc\\lv_mem.h"
   1:d:\_project\stm32\f407\hack_rf_new\lvgl\src\lv_misc\lv_mem.h **** /**
   2:d:\_project\stm32\f407\hack_rf_new\lvgl\src\lv_misc\lv_mem.h ****  * @file lv_mem.h
   3:d:\_project\stm32\f407\hack_rf_new\lvgl\src\lv_misc\lv_mem.h ****  *
   4:d:\_project\stm32\f407\hack_rf_new\lvgl\src\lv_misc\lv_mem.h ****  */
   5:d:\_project\stm32\f407\hack_rf_new\lvgl\src\lv_misc\lv_mem.h **** 
   6:d:\_project\stm32\f407\hack_rf_new\lvgl\src\lv_misc\lv_mem.h **** #ifndef LV_MEM_H
   7:d:\_project\stm32\f407\hack_rf_new\lvgl\src\lv_misc\lv_mem.h **** #define LV_MEM_H
   8:d:\_project\stm32\f407\hack_rf_new\lvgl\src\lv_misc\lv_mem.h **** 
ARM GAS  D:\Temp\cclLOIfg.s 			page 89


   9:d:\_project\stm32\f407\hack_rf_new\lvgl\src\lv_misc\lv_mem.h **** #ifdef __cplusplus
  10:d:\_project\stm32\f407\hack_rf_new\lvgl\src\lv_misc\lv_mem.h **** extern "C" {
  11:d:\_project\stm32\f407\hack_rf_new\lvgl\src\lv_misc\lv_mem.h **** #endif
  12:d:\_project\stm32\f407\hack_rf_new\lvgl\src\lv_misc\lv_mem.h **** 
  13:d:\_project\stm32\f407\hack_rf_new\lvgl\src\lv_misc\lv_mem.h **** /*********************
  14:d:\_project\stm32\f407\hack_rf_new\lvgl\src\lv_misc\lv_mem.h ****  *      INCLUDES
  15:d:\_project\stm32\f407\hack_rf_new\lvgl\src\lv_misc\lv_mem.h ****  *********************/
  16:d:\_project\stm32\f407\hack_rf_new\lvgl\src\lv_misc\lv_mem.h **** #include "../lv_conf_internal.h"
  17:d:\_project\stm32\f407\hack_rf_new\lvgl\src\lv_misc\lv_mem.h **** 
  18:d:\_project\stm32\f407\hack_rf_new\lvgl\src\lv_misc\lv_mem.h **** #include <stdint.h>
  19:d:\_project\stm32\f407\hack_rf_new\lvgl\src\lv_misc\lv_mem.h **** #include <stddef.h>
  20:d:\_project\stm32\f407\hack_rf_new\lvgl\src\lv_misc\lv_mem.h **** #include "lv_log.h"
  21:d:\_project\stm32\f407\hack_rf_new\lvgl\src\lv_misc\lv_mem.h **** #include "lv_types.h"
  22:d:\_project\stm32\f407\hack_rf_new\lvgl\src\lv_misc\lv_mem.h **** 
  23:d:\_project\stm32\f407\hack_rf_new\lvgl\src\lv_misc\lv_mem.h **** #if LV_MEMCPY_MEMSET_STD
  24:d:\_project\stm32\f407\hack_rf_new\lvgl\src\lv_misc\lv_mem.h **** #include <string.h>
  25:d:\_project\stm32\f407\hack_rf_new\lvgl\src\lv_misc\lv_mem.h **** #endif
  26:d:\_project\stm32\f407\hack_rf_new\lvgl\src\lv_misc\lv_mem.h **** 
  27:d:\_project\stm32\f407\hack_rf_new\lvgl\src\lv_misc\lv_mem.h **** /*********************
  28:d:\_project\stm32\f407\hack_rf_new\lvgl\src\lv_misc\lv_mem.h ****  *      DEFINES
  29:d:\_project\stm32\f407\hack_rf_new\lvgl\src\lv_misc\lv_mem.h ****  *********************/
  30:d:\_project\stm32\f407\hack_rf_new\lvgl\src\lv_misc\lv_mem.h **** 
  31:d:\_project\stm32\f407\hack_rf_new\lvgl\src\lv_misc\lv_mem.h **** #ifndef LV_MEM_BUF_MAX_NUM
  32:d:\_project\stm32\f407\hack_rf_new\lvgl\src\lv_misc\lv_mem.h **** #define LV_MEM_BUF_MAX_NUM    16
  33:d:\_project\stm32\f407\hack_rf_new\lvgl\src\lv_misc\lv_mem.h **** #endif
  34:d:\_project\stm32\f407\hack_rf_new\lvgl\src\lv_misc\lv_mem.h **** 
  35:d:\_project\stm32\f407\hack_rf_new\lvgl\src\lv_misc\lv_mem.h **** /**********************
  36:d:\_project\stm32\f407\hack_rf_new\lvgl\src\lv_misc\lv_mem.h ****  *      TYPEDEFS
  37:d:\_project\stm32\f407\hack_rf_new\lvgl\src\lv_misc\lv_mem.h ****  **********************/
  38:d:\_project\stm32\f407\hack_rf_new\lvgl\src\lv_misc\lv_mem.h **** 
  39:d:\_project\stm32\f407\hack_rf_new\lvgl\src\lv_misc\lv_mem.h **** /**
  40:d:\_project\stm32\f407\hack_rf_new\lvgl\src\lv_misc\lv_mem.h ****  * Heap information structure.
  41:d:\_project\stm32\f407\hack_rf_new\lvgl\src\lv_misc\lv_mem.h ****  */
  42:d:\_project\stm32\f407\hack_rf_new\lvgl\src\lv_misc\lv_mem.h **** typedef struct {
  43:d:\_project\stm32\f407\hack_rf_new\lvgl\src\lv_misc\lv_mem.h ****     uint32_t total_size; /**< Total heap size */
  44:d:\_project\stm32\f407\hack_rf_new\lvgl\src\lv_misc\lv_mem.h ****     uint32_t free_cnt;
  45:d:\_project\stm32\f407\hack_rf_new\lvgl\src\lv_misc\lv_mem.h ****     uint32_t free_size; /**< Size of available memory */
  46:d:\_project\stm32\f407\hack_rf_new\lvgl\src\lv_misc\lv_mem.h ****     uint32_t free_biggest_size;
  47:d:\_project\stm32\f407\hack_rf_new\lvgl\src\lv_misc\lv_mem.h ****     uint32_t used_cnt;
  48:d:\_project\stm32\f407\hack_rf_new\lvgl\src\lv_misc\lv_mem.h ****     uint32_t max_used; /**< Max size of Heap memory used */
  49:d:\_project\stm32\f407\hack_rf_new\lvgl\src\lv_misc\lv_mem.h ****     uint8_t used_pct; /**< Percentage used */
  50:d:\_project\stm32\f407\hack_rf_new\lvgl\src\lv_misc\lv_mem.h ****     uint8_t frag_pct; /**< Amount of fragmentation */
  51:d:\_project\stm32\f407\hack_rf_new\lvgl\src\lv_misc\lv_mem.h **** } lv_mem_monitor_t;
  52:d:\_project\stm32\f407\hack_rf_new\lvgl\src\lv_misc\lv_mem.h **** 
  53:d:\_project\stm32\f407\hack_rf_new\lvgl\src\lv_misc\lv_mem.h **** typedef struct {
  54:d:\_project\stm32\f407\hack_rf_new\lvgl\src\lv_misc\lv_mem.h ****     void * p;
  55:d:\_project\stm32\f407\hack_rf_new\lvgl\src\lv_misc\lv_mem.h ****     uint16_t size;
  56:d:\_project\stm32\f407\hack_rf_new\lvgl\src\lv_misc\lv_mem.h ****     uint8_t used    : 1;
  57:d:\_project\stm32\f407\hack_rf_new\lvgl\src\lv_misc\lv_mem.h **** } lv_mem_buf_t;
  58:d:\_project\stm32\f407\hack_rf_new\lvgl\src\lv_misc\lv_mem.h **** 
  59:d:\_project\stm32\f407\hack_rf_new\lvgl\src\lv_misc\lv_mem.h **** typedef lv_mem_buf_t lv_mem_buf_arr_t[LV_MEM_BUF_MAX_NUM];
  60:d:\_project\stm32\f407\hack_rf_new\lvgl\src\lv_misc\lv_mem.h **** extern lv_mem_buf_arr_t _lv_mem_buf;
  61:d:\_project\stm32\f407\hack_rf_new\lvgl\src\lv_misc\lv_mem.h **** 
  62:d:\_project\stm32\f407\hack_rf_new\lvgl\src\lv_misc\lv_mem.h **** /**********************
  63:d:\_project\stm32\f407\hack_rf_new\lvgl\src\lv_misc\lv_mem.h ****  * GLOBAL PROTOTYPES
  64:d:\_project\stm32\f407\hack_rf_new\lvgl\src\lv_misc\lv_mem.h ****  **********************/
  65:d:\_project\stm32\f407\hack_rf_new\lvgl\src\lv_misc\lv_mem.h **** 
ARM GAS  D:\Temp\cclLOIfg.s 			page 90


  66:d:\_project\stm32\f407\hack_rf_new\lvgl\src\lv_misc\lv_mem.h **** /**
  67:d:\_project\stm32\f407\hack_rf_new\lvgl\src\lv_misc\lv_mem.h ****  * Initialize the dyn_mem module (work memory and other variables)
  68:d:\_project\stm32\f407\hack_rf_new\lvgl\src\lv_misc\lv_mem.h ****  */
  69:d:\_project\stm32\f407\hack_rf_new\lvgl\src\lv_misc\lv_mem.h **** void _lv_mem_init(void);
  70:d:\_project\stm32\f407\hack_rf_new\lvgl\src\lv_misc\lv_mem.h **** 
  71:d:\_project\stm32\f407\hack_rf_new\lvgl\src\lv_misc\lv_mem.h **** /**
  72:d:\_project\stm32\f407\hack_rf_new\lvgl\src\lv_misc\lv_mem.h ****  * Clean up the memory buffer which frees all the allocated memories.
  73:d:\_project\stm32\f407\hack_rf_new\lvgl\src\lv_misc\lv_mem.h ****  * @note It work only if `LV_MEM_CUSTOM == 0`
  74:d:\_project\stm32\f407\hack_rf_new\lvgl\src\lv_misc\lv_mem.h ****  */
  75:d:\_project\stm32\f407\hack_rf_new\lvgl\src\lv_misc\lv_mem.h **** void _lv_mem_deinit(void);
  76:d:\_project\stm32\f407\hack_rf_new\lvgl\src\lv_misc\lv_mem.h **** 
  77:d:\_project\stm32\f407\hack_rf_new\lvgl\src\lv_misc\lv_mem.h **** /**
  78:d:\_project\stm32\f407\hack_rf_new\lvgl\src\lv_misc\lv_mem.h ****  * Allocate a memory dynamically
  79:d:\_project\stm32\f407\hack_rf_new\lvgl\src\lv_misc\lv_mem.h ****  * @param size size of the memory to allocate in bytes
  80:d:\_project\stm32\f407\hack_rf_new\lvgl\src\lv_misc\lv_mem.h ****  * @return pointer to the allocated memory
  81:d:\_project\stm32\f407\hack_rf_new\lvgl\src\lv_misc\lv_mem.h ****  */
  82:d:\_project\stm32\f407\hack_rf_new\lvgl\src\lv_misc\lv_mem.h **** void * lv_mem_alloc(size_t size);
  83:d:\_project\stm32\f407\hack_rf_new\lvgl\src\lv_misc\lv_mem.h **** 
  84:d:\_project\stm32\f407\hack_rf_new\lvgl\src\lv_misc\lv_mem.h **** /**
  85:d:\_project\stm32\f407\hack_rf_new\lvgl\src\lv_misc\lv_mem.h ****  * Free an allocated data
  86:d:\_project\stm32\f407\hack_rf_new\lvgl\src\lv_misc\lv_mem.h ****  * @param data pointer to an allocated memory
  87:d:\_project\stm32\f407\hack_rf_new\lvgl\src\lv_misc\lv_mem.h ****  */
  88:d:\_project\stm32\f407\hack_rf_new\lvgl\src\lv_misc\lv_mem.h **** void lv_mem_free(const void * data);
  89:d:\_project\stm32\f407\hack_rf_new\lvgl\src\lv_misc\lv_mem.h **** 
  90:d:\_project\stm32\f407\hack_rf_new\lvgl\src\lv_misc\lv_mem.h **** /**
  91:d:\_project\stm32\f407\hack_rf_new\lvgl\src\lv_misc\lv_mem.h ****  * Reallocate a memory with a new size. The old content will be kept.
  92:d:\_project\stm32\f407\hack_rf_new\lvgl\src\lv_misc\lv_mem.h ****  * @param data pointer to an allocated memory.
  93:d:\_project\stm32\f407\hack_rf_new\lvgl\src\lv_misc\lv_mem.h ****  * Its content will be copied to the new memory block and freed
  94:d:\_project\stm32\f407\hack_rf_new\lvgl\src\lv_misc\lv_mem.h ****  * @param new_size the desired new size in byte
  95:d:\_project\stm32\f407\hack_rf_new\lvgl\src\lv_misc\lv_mem.h ****  * @return pointer to the new memory
  96:d:\_project\stm32\f407\hack_rf_new\lvgl\src\lv_misc\lv_mem.h ****  */
  97:d:\_project\stm32\f407\hack_rf_new\lvgl\src\lv_misc\lv_mem.h **** void * lv_mem_realloc(void * data_p, size_t new_size);
  98:d:\_project\stm32\f407\hack_rf_new\lvgl\src\lv_misc\lv_mem.h **** 
  99:d:\_project\stm32\f407\hack_rf_new\lvgl\src\lv_misc\lv_mem.h **** /**
 100:d:\_project\stm32\f407\hack_rf_new\lvgl\src\lv_misc\lv_mem.h ****  * Join the adjacent free memory blocks
 101:d:\_project\stm32\f407\hack_rf_new\lvgl\src\lv_misc\lv_mem.h ****  */
 102:d:\_project\stm32\f407\hack_rf_new\lvgl\src\lv_misc\lv_mem.h **** void lv_mem_defrag(void);
 103:d:\_project\stm32\f407\hack_rf_new\lvgl\src\lv_misc\lv_mem.h **** 
 104:d:\_project\stm32\f407\hack_rf_new\lvgl\src\lv_misc\lv_mem.h **** /**
 105:d:\_project\stm32\f407\hack_rf_new\lvgl\src\lv_misc\lv_mem.h ****  *
 106:d:\_project\stm32\f407\hack_rf_new\lvgl\src\lv_misc\lv_mem.h ****  * @return
 107:d:\_project\stm32\f407\hack_rf_new\lvgl\src\lv_misc\lv_mem.h ****  */
 108:d:\_project\stm32\f407\hack_rf_new\lvgl\src\lv_misc\lv_mem.h **** lv_res_t lv_mem_test(void);
 109:d:\_project\stm32\f407\hack_rf_new\lvgl\src\lv_misc\lv_mem.h **** 
 110:d:\_project\stm32\f407\hack_rf_new\lvgl\src\lv_misc\lv_mem.h **** /**
 111:d:\_project\stm32\f407\hack_rf_new\lvgl\src\lv_misc\lv_mem.h ****  * Give information about the work memory of dynamic allocation
 112:d:\_project\stm32\f407\hack_rf_new\lvgl\src\lv_misc\lv_mem.h ****  * @param mon_p pointer to a dm_mon_p variable,
 113:d:\_project\stm32\f407\hack_rf_new\lvgl\src\lv_misc\lv_mem.h ****  *              the result of the analysis will be stored here
 114:d:\_project\stm32\f407\hack_rf_new\lvgl\src\lv_misc\lv_mem.h ****  */
 115:d:\_project\stm32\f407\hack_rf_new\lvgl\src\lv_misc\lv_mem.h **** void lv_mem_monitor(lv_mem_monitor_t * mon_p);
 116:d:\_project\stm32\f407\hack_rf_new\lvgl\src\lv_misc\lv_mem.h **** 
 117:d:\_project\stm32\f407\hack_rf_new\lvgl\src\lv_misc\lv_mem.h **** /**
 118:d:\_project\stm32\f407\hack_rf_new\lvgl\src\lv_misc\lv_mem.h ****  * Give the size of an allocated memory
 119:d:\_project\stm32\f407\hack_rf_new\lvgl\src\lv_misc\lv_mem.h ****  * @param data pointer to an allocated memory
 120:d:\_project\stm32\f407\hack_rf_new\lvgl\src\lv_misc\lv_mem.h ****  * @return the size of data memory in bytes
 121:d:\_project\stm32\f407\hack_rf_new\lvgl\src\lv_misc\lv_mem.h ****  */
 122:d:\_project\stm32\f407\hack_rf_new\lvgl\src\lv_misc\lv_mem.h **** uint32_t _lv_mem_get_size(const void * data);
ARM GAS  D:\Temp\cclLOIfg.s 			page 91


 123:d:\_project\stm32\f407\hack_rf_new\lvgl\src\lv_misc\lv_mem.h **** 
 124:d:\_project\stm32\f407\hack_rf_new\lvgl\src\lv_misc\lv_mem.h **** /**
 125:d:\_project\stm32\f407\hack_rf_new\lvgl\src\lv_misc\lv_mem.h ****  * Get a temporal buffer with the given size.
 126:d:\_project\stm32\f407\hack_rf_new\lvgl\src\lv_misc\lv_mem.h ****  * @param size the required size
 127:d:\_project\stm32\f407\hack_rf_new\lvgl\src\lv_misc\lv_mem.h ****  */
 128:d:\_project\stm32\f407\hack_rf_new\lvgl\src\lv_misc\lv_mem.h **** void * _lv_mem_buf_get(uint32_t size);
 129:d:\_project\stm32\f407\hack_rf_new\lvgl\src\lv_misc\lv_mem.h **** 
 130:d:\_project\stm32\f407\hack_rf_new\lvgl\src\lv_misc\lv_mem.h **** /**
 131:d:\_project\stm32\f407\hack_rf_new\lvgl\src\lv_misc\lv_mem.h ****  * Release a memory buffer
 132:d:\_project\stm32\f407\hack_rf_new\lvgl\src\lv_misc\lv_mem.h ****  * @param p buffer to release
 133:d:\_project\stm32\f407\hack_rf_new\lvgl\src\lv_misc\lv_mem.h ****  */
 134:d:\_project\stm32\f407\hack_rf_new\lvgl\src\lv_misc\lv_mem.h **** void _lv_mem_buf_release(void * p);
 135:d:\_project\stm32\f407\hack_rf_new\lvgl\src\lv_misc\lv_mem.h **** 
 136:d:\_project\stm32\f407\hack_rf_new\lvgl\src\lv_misc\lv_mem.h **** /**
 137:d:\_project\stm32\f407\hack_rf_new\lvgl\src\lv_misc\lv_mem.h ****  * Free all memory buffers
 138:d:\_project\stm32\f407\hack_rf_new\lvgl\src\lv_misc\lv_mem.h ****  */
 139:d:\_project\stm32\f407\hack_rf_new\lvgl\src\lv_misc\lv_mem.h **** void _lv_mem_buf_free_all(void);
 140:d:\_project\stm32\f407\hack_rf_new\lvgl\src\lv_misc\lv_mem.h **** 
 141:d:\_project\stm32\f407\hack_rf_new\lvgl\src\lv_misc\lv_mem.h **** //! @cond Doxygen_Suppress
 142:d:\_project\stm32\f407\hack_rf_new\lvgl\src\lv_misc\lv_mem.h **** 
 143:d:\_project\stm32\f407\hack_rf_new\lvgl\src\lv_misc\lv_mem.h **** #if LV_MEMCPY_MEMSET_STD
 144:d:\_project\stm32\f407\hack_rf_new\lvgl\src\lv_misc\lv_mem.h **** 
 145:d:\_project\stm32\f407\hack_rf_new\lvgl\src\lv_misc\lv_mem.h **** /**
 146:d:\_project\stm32\f407\hack_rf_new\lvgl\src\lv_misc\lv_mem.h ****  * Wrapper for the standard memcpy
 147:d:\_project\stm32\f407\hack_rf_new\lvgl\src\lv_misc\lv_mem.h ****  * @param dst pointer to the destination buffer
 148:d:\_project\stm32\f407\hack_rf_new\lvgl\src\lv_misc\lv_mem.h ****  * @param src pointer to the source buffer
 149:d:\_project\stm32\f407\hack_rf_new\lvgl\src\lv_misc\lv_mem.h ****  * @param len number of byte to copy
 150:d:\_project\stm32\f407\hack_rf_new\lvgl\src\lv_misc\lv_mem.h ****  */
 151:d:\_project\stm32\f407\hack_rf_new\lvgl\src\lv_misc\lv_mem.h **** static inline void * _lv_memcpy(void * dst, const void * src, size_t len)
 152:d:\_project\stm32\f407\hack_rf_new\lvgl\src\lv_misc\lv_mem.h **** {
 153:d:\_project\stm32\f407\hack_rf_new\lvgl\src\lv_misc\lv_mem.h ****     return memcpy(dst, src, len);
 154:d:\_project\stm32\f407\hack_rf_new\lvgl\src\lv_misc\lv_mem.h **** }
 155:d:\_project\stm32\f407\hack_rf_new\lvgl\src\lv_misc\lv_mem.h **** 
 156:d:\_project\stm32\f407\hack_rf_new\lvgl\src\lv_misc\lv_mem.h **** /**
 157:d:\_project\stm32\f407\hack_rf_new\lvgl\src\lv_misc\lv_mem.h ****  * Wrapper for the standard memcpy
 158:d:\_project\stm32\f407\hack_rf_new\lvgl\src\lv_misc\lv_mem.h ****  * @param dst pointer to the destination buffer
 159:d:\_project\stm32\f407\hack_rf_new\lvgl\src\lv_misc\lv_mem.h ****  * @param src pointer to the source buffer
 160:d:\_project\stm32\f407\hack_rf_new\lvgl\src\lv_misc\lv_mem.h ****  * @param len number of byte to copy
 161:d:\_project\stm32\f407\hack_rf_new\lvgl\src\lv_misc\lv_mem.h ****  */
 162:d:\_project\stm32\f407\hack_rf_new\lvgl\src\lv_misc\lv_mem.h **** static inline void * _lv_memcpy_small(void * dst, const void * src, size_t len)
 163:d:\_project\stm32\f407\hack_rf_new\lvgl\src\lv_misc\lv_mem.h **** {
 164:d:\_project\stm32\f407\hack_rf_new\lvgl\src\lv_misc\lv_mem.h ****     return memcpy(dst, src, len);
 165:d:\_project\stm32\f407\hack_rf_new\lvgl\src\lv_misc\lv_mem.h **** }
 166:d:\_project\stm32\f407\hack_rf_new\lvgl\src\lv_misc\lv_mem.h **** 
 167:d:\_project\stm32\f407\hack_rf_new\lvgl\src\lv_misc\lv_mem.h **** /**
 168:d:\_project\stm32\f407\hack_rf_new\lvgl\src\lv_misc\lv_mem.h ****  * Wrapper for the standard memset
 169:d:\_project\stm32\f407\hack_rf_new\lvgl\src\lv_misc\lv_mem.h ****  * @param dst pointer to the destination buffer
 170:d:\_project\stm32\f407\hack_rf_new\lvgl\src\lv_misc\lv_mem.h ****  * @param v value to set [0..255]
 171:d:\_project\stm32\f407\hack_rf_new\lvgl\src\lv_misc\lv_mem.h ****  * @param len number of byte to set
 172:d:\_project\stm32\f407\hack_rf_new\lvgl\src\lv_misc\lv_mem.h ****  */
 173:d:\_project\stm32\f407\hack_rf_new\lvgl\src\lv_misc\lv_mem.h **** static inline void _lv_memset(void * dst, uint8_t v, size_t len)
 174:d:\_project\stm32\f407\hack_rf_new\lvgl\src\lv_misc\lv_mem.h **** {
 175:d:\_project\stm32\f407\hack_rf_new\lvgl\src\lv_misc\lv_mem.h ****     memset(dst, v, len);
 176:d:\_project\stm32\f407\hack_rf_new\lvgl\src\lv_misc\lv_mem.h **** }
 177:d:\_project\stm32\f407\hack_rf_new\lvgl\src\lv_misc\lv_mem.h **** 
 178:d:\_project\stm32\f407\hack_rf_new\lvgl\src\lv_misc\lv_mem.h **** /**
 179:d:\_project\stm32\f407\hack_rf_new\lvgl\src\lv_misc\lv_mem.h ****  * Wrapper for the standard memset with fixed 0x00 value
ARM GAS  D:\Temp\cclLOIfg.s 			page 92


 180:d:\_project\stm32\f407\hack_rf_new\lvgl\src\lv_misc\lv_mem.h ****  * @param dst pointer to the destination buffer
 181:d:\_project\stm32\f407\hack_rf_new\lvgl\src\lv_misc\lv_mem.h ****  * @param len number of byte to set
 182:d:\_project\stm32\f407\hack_rf_new\lvgl\src\lv_misc\lv_mem.h ****  */
 183:d:\_project\stm32\f407\hack_rf_new\lvgl\src\lv_misc\lv_mem.h **** static inline void _lv_memset_00(void * dst, size_t len)
 184:d:\_project\stm32\f407\hack_rf_new\lvgl\src\lv_misc\lv_mem.h **** {
 185:d:\_project\stm32\f407\hack_rf_new\lvgl\src\lv_misc\lv_mem.h ****     memset(dst, 0x00, len);
 186:d:\_project\stm32\f407\hack_rf_new\lvgl\src\lv_misc\lv_mem.h **** }
 187:d:\_project\stm32\f407\hack_rf_new\lvgl\src\lv_misc\lv_mem.h **** 
 188:d:\_project\stm32\f407\hack_rf_new\lvgl\src\lv_misc\lv_mem.h **** /**
 189:d:\_project\stm32\f407\hack_rf_new\lvgl\src\lv_misc\lv_mem.h ****  * Wrapper for the standard memset with fixed 0xFF value
 190:d:\_project\stm32\f407\hack_rf_new\lvgl\src\lv_misc\lv_mem.h ****  * @param dst pointer to the destination buffer
 191:d:\_project\stm32\f407\hack_rf_new\lvgl\src\lv_misc\lv_mem.h ****  * @param len number of byte to set
 192:d:\_project\stm32\f407\hack_rf_new\lvgl\src\lv_misc\lv_mem.h ****  */
 193:d:\_project\stm32\f407\hack_rf_new\lvgl\src\lv_misc\lv_mem.h **** static inline void _lv_memset_ff(void * dst, size_t len)
 194:d:\_project\stm32\f407\hack_rf_new\lvgl\src\lv_misc\lv_mem.h **** {
 195:d:\_project\stm32\f407\hack_rf_new\lvgl\src\lv_misc\lv_mem.h ****     memset(dst, 0xFF, len);
 196:d:\_project\stm32\f407\hack_rf_new\lvgl\src\lv_misc\lv_mem.h **** }
 197:d:\_project\stm32\f407\hack_rf_new\lvgl\src\lv_misc\lv_mem.h **** 
 198:d:\_project\stm32\f407\hack_rf_new\lvgl\src\lv_misc\lv_mem.h **** #else
 199:d:\_project\stm32\f407\hack_rf_new\lvgl\src\lv_misc\lv_mem.h **** /**
 200:d:\_project\stm32\f407\hack_rf_new\lvgl\src\lv_misc\lv_mem.h ****  * Same as `memcpy` but optimized for 4 byte operation.
 201:d:\_project\stm32\f407\hack_rf_new\lvgl\src\lv_misc\lv_mem.h ****  * @param dst pointer to the destination buffer
 202:d:\_project\stm32\f407\hack_rf_new\lvgl\src\lv_misc\lv_mem.h ****  * @param src pointer to the source buffer
 203:d:\_project\stm32\f407\hack_rf_new\lvgl\src\lv_misc\lv_mem.h ****  * @param len number of byte to copy
 204:d:\_project\stm32\f407\hack_rf_new\lvgl\src\lv_misc\lv_mem.h ****  */
 205:d:\_project\stm32\f407\hack_rf_new\lvgl\src\lv_misc\lv_mem.h **** LV_ATTRIBUTE_FAST_MEM void * _lv_memcpy(void * dst, const void * src, size_t len);
 206:d:\_project\stm32\f407\hack_rf_new\lvgl\src\lv_misc\lv_mem.h **** 
 207:d:\_project\stm32\f407\hack_rf_new\lvgl\src\lv_misc\lv_mem.h **** /**
 208:d:\_project\stm32\f407\hack_rf_new\lvgl\src\lv_misc\lv_mem.h ****  * Same as `memcpy` but optimized to copy only a few bytes.
 209:d:\_project\stm32\f407\hack_rf_new\lvgl\src\lv_misc\lv_mem.h ****  * @param dst pointer to the destination buffer
 210:d:\_project\stm32\f407\hack_rf_new\lvgl\src\lv_misc\lv_mem.h ****  * @param src pointer to the source buffer
 211:d:\_project\stm32\f407\hack_rf_new\lvgl\src\lv_misc\lv_mem.h ****  * @param len number of byte to copy
 212:d:\_project\stm32\f407\hack_rf_new\lvgl\src\lv_misc\lv_mem.h ****  */
 213:d:\_project\stm32\f407\hack_rf_new\lvgl\src\lv_misc\lv_mem.h **** LV_ATTRIBUTE_FAST_MEM static inline void * _lv_memcpy_small(void * dst, const void * src, size_t le
 214:d:\_project\stm32\f407\hack_rf_new\lvgl\src\lv_misc\lv_mem.h **** {
 215:d:\_project\stm32\f407\hack_rf_new\lvgl\src\lv_misc\lv_mem.h ****     uint8_t * d8 = (uint8_t *)dst;
 2508              		.loc 5 215 15 is_stmt 0 view .LVU747
 2509 0036 06AA     		add	r2, sp, #24
 2510              	.LVL273:
 2511              		.loc 5 215 15 view .LVU748
 2512              	.LBE246:
 2513              	.LBE245:
 2514              	.LBE244:
1248:lvgl/src/lv_widgets/lv_label.c ****         bg_coords.x1 -= w;
 2515              		.loc 1 1248 34 view .LVU749
 2516 0038 0823     		movs	r3, #8
 2517              	.LVL274:
 2518              	.L170:
 2519              	.LBB249:
 2520              	.LBB248:
 2521              	.LBB247:
 216:d:\_project\stm32\f407\hack_rf_new\lvgl\src\lv_misc\lv_mem.h ****     const uint8_t * s8 = (const uint8_t *)src;
 217:d:\_project\stm32\f407\hack_rf_new\lvgl\src\lv_misc\lv_mem.h **** 
 218:d:\_project\stm32\f407\hack_rf_new\lvgl\src\lv_misc\lv_mem.h ****     while(len) {
 2522              		.loc 5 218 10 view .LVU750
 2523 003a 2BB1     		cbz	r3, .L192
 219:d:\_project\stm32\f407\hack_rf_new\lvgl\src\lv_misc\lv_mem.h ****         *d8 = *s8;
ARM GAS  D:\Temp\cclLOIfg.s 			page 93


 2524              		.loc 5 219 9 is_stmt 1 view .LVU751
 2525              		.loc 5 219 15 is_stmt 0 view .LVU752
 2526 003c 14F8015B 		ldrb	r5, [r4], #1	@ zero_extendqisi2
 2527              	.LVL275:
 2528              		.loc 5 219 13 view .LVU753
 2529 0040 02F8015B 		strb	r5, [r2], #1
 2530              	.LVL276:
 220:d:\_project\stm32\f407\hack_rf_new\lvgl\src\lv_misc\lv_mem.h ****         d8++;
 2531              		.loc 5 220 9 is_stmt 1 view .LVU754
 221:d:\_project\stm32\f407\hack_rf_new\lvgl\src\lv_misc\lv_mem.h ****         s8++;
 2532              		.loc 5 221 9 view .LVU755
 222:d:\_project\stm32\f407\hack_rf_new\lvgl\src\lv_misc\lv_mem.h ****         len--;
 2533              		.loc 5 222 9 view .LVU756
 2534              		.loc 5 222 12 is_stmt 0 view .LVU757
 2535 0044 013B     		subs	r3, r3, #1
 2536              	.LVL277:
 2537              		.loc 5 222 12 view .LVU758
 2538 0046 F8E7     		b	.L170
 2539              	.L192:
 223:d:\_project\stm32\f407\hack_rf_new\lvgl\src\lv_misc\lv_mem.h ****     }
 224:d:\_project\stm32\f407\hack_rf_new\lvgl\src\lv_misc\lv_mem.h **** 
 225:d:\_project\stm32\f407\hack_rf_new\lvgl\src\lv_misc\lv_mem.h ****     return dst;
 2540              		.loc 5 225 5 is_stmt 1 view .LVU759
 2541              	.LVL278:
 2542              		.loc 5 225 5 is_stmt 0 view .LVU760
 2543              	.LBE247:
 2544              	.LBE248:
 2545              	.LBE249:
1249:lvgl/src/lv_widgets/lv_label.c ****         bg_coords.x2 += w;
 2546              		.loc 1 1249 9 is_stmt 1 view .LVU761
1249:lvgl/src/lv_widgets/lv_label.c ****         bg_coords.x2 += w;
 2547              		.loc 1 1249 22 is_stmt 0 view .LVU762
 2548 0048 1FFA89F9 		uxth	r9, r9
1249:lvgl/src/lv_widgets/lv_label.c ****         bg_coords.x2 += w;
 2549              		.loc 1 1249 22 view .LVU763
 2550 004c BDF81830 		ldrh	r3, [sp, #24]
 2551 0050 A3EB0903 		sub	r3, r3, r9
 2552 0054 ADF81830 		strh	r3, [sp, #24]	@ movhi
1250:lvgl/src/lv_widgets/lv_label.c ****         bg_coords.y1 -= h;
 2553              		.loc 1 1250 9 is_stmt 1 view .LVU764
1250:lvgl/src/lv_widgets/lv_label.c ****         bg_coords.y1 -= h;
 2554              		.loc 1 1250 22 is_stmt 0 view .LVU765
 2555 0058 BDF81C30 		ldrh	r3, [sp, #28]
 2556 005c 9944     		add	r9, r9, r3
 2557              	.LVL279:
1250:lvgl/src/lv_widgets/lv_label.c ****         bg_coords.y1 -= h;
 2558              		.loc 1 1250 22 view .LVU766
 2559 005e ADF81C90 		strh	r9, [sp, #28]	@ movhi
1251:lvgl/src/lv_widgets/lv_label.c ****         bg_coords.y2 += h;
 2560              		.loc 1 1251 9 is_stmt 1 view .LVU767
1251:lvgl/src/lv_widgets/lv_label.c ****         bg_coords.y2 += h;
 2561              		.loc 1 1251 22 is_stmt 0 view .LVU768
 2562 0062 80B2     		uxth	r0, r0
1251:lvgl/src/lv_widgets/lv_label.c ****         bg_coords.y2 += h;
 2563              		.loc 1 1251 22 view .LVU769
 2564 0064 BDF81A30 		ldrh	r3, [sp, #26]
 2565 0068 1B1A     		subs	r3, r3, r0
ARM GAS  D:\Temp\cclLOIfg.s 			page 94


 2566 006a ADF81A30 		strh	r3, [sp, #26]	@ movhi
1252:lvgl/src/lv_widgets/lv_label.c **** 
 2567              		.loc 1 1252 9 is_stmt 1 view .LVU770
1252:lvgl/src/lv_widgets/lv_label.c **** 
 2568              		.loc 1 1252 22 is_stmt 0 view .LVU771
 2569 006e BDF81E30 		ldrh	r3, [sp, #30]
 2570 0072 1844     		add	r0, r0, r3
 2571              	.LVL280:
1252:lvgl/src/lv_widgets/lv_label.c **** 
 2572              		.loc 1 1252 22 view .LVU772
 2573 0074 ADF81E00 		strh	r0, [sp, #30]	@ movhi
1254:lvgl/src/lv_widgets/lv_label.c ****         lv_draw_rect_dsc_init(&draw_rect_dsc);
 2574              		.loc 1 1254 9 is_stmt 1 view .LVU773
1255:lvgl/src/lv_widgets/lv_label.c ****         lv_obj_init_draw_rect_dsc(label, LV_LABEL_PART_MAIN, &draw_rect_dsc);
 2575              		.loc 1 1255 9 view .LVU774
 2576 0078 15A8     		add	r0, sp, #84
 2577 007a FFF7FEFF 		bl	lv_draw_rect_dsc_init
 2578              	.LVL281:
1256:lvgl/src/lv_widgets/lv_label.c **** 
 2579              		.loc 1 1256 9 view .LVU775
 2580 007e 15AA     		add	r2, sp, #84
 2581 0080 0021     		movs	r1, #0
 2582 0082 3046     		mov	r0, r6
 2583 0084 FFF7FEFF 		bl	lv_obj_init_draw_rect_dsc
 2584              	.LVL282:
1258:lvgl/src/lv_widgets/lv_label.c **** 
 2585              		.loc 1 1258 9 view .LVU776
 2586 0088 15AA     		add	r2, sp, #84
 2587 008a 3946     		mov	r1, r7
 2588 008c 06A8     		add	r0, sp, #24
 2589 008e FFF7FEFF 		bl	lv_draw_rect
 2590              	.LVL283:
1260:lvgl/src/lv_widgets/lv_label.c ****         get_txt_coords(label, &txt_coords);
 2591              		.loc 1 1260 9 view .LVU777
1261:lvgl/src/lv_widgets/lv_label.c **** 
 2592              		.loc 1 1261 9 view .LVU778
 2593 0092 08A9     		add	r1, sp, #32
 2594 0094 3046     		mov	r0, r6
 2595 0096 FFF7FEFF 		bl	get_txt_coords
 2596              	.LVL284:
1263:lvgl/src/lv_widgets/lv_label.c ****         bool is_common = _lv_area_intersect(&txt_clip, clip_area, &txt_coords);
 2597              		.loc 1 1263 9 view .LVU779
1264:lvgl/src/lv_widgets/lv_label.c ****         if(!is_common) return LV_DESIGN_RES_OK;
 2598              		.loc 1 1264 9 view .LVU780
1264:lvgl/src/lv_widgets/lv_label.c ****         if(!is_common) return LV_DESIGN_RES_OK;
 2599              		.loc 1 1264 26 is_stmt 0 view .LVU781
 2600 009a 08AA     		add	r2, sp, #32
 2601 009c 3946     		mov	r1, r7
 2602 009e 0AA8     		add	r0, sp, #40
 2603 00a0 FFF7FEFF 		bl	_lv_area_intersect
 2604              	.LVL285:
1265:lvgl/src/lv_widgets/lv_label.c **** 
 2605              		.loc 1 1265 9 is_stmt 1 view .LVU782
1265:lvgl/src/lv_widgets/lv_label.c **** 
 2606              		.loc 1 1265 11 is_stmt 0 view .LVU783
 2607 00a4 10B9     		cbnz	r0, .L193
 2608              	.LVL286:
ARM GAS  D:\Temp\cclLOIfg.s 			page 95


 2609              	.L169:
1265:lvgl/src/lv_widgets/lv_label.c **** 
 2610              		.loc 1 1265 11 view .LVU784
 2611              	.LBE239:
1335:lvgl/src/lv_widgets/lv_label.c **** 
 2612              		.loc 1 1335 1 view .LVU785
 2613 00a6 2BB0     		add	sp, sp, #172
 2614              	.LCFI27:
 2615              		.cfi_remember_state
 2616              		.cfi_def_cfa_offset 28
 2617              		@ sp needed
 2618 00a8 BDE8F083 		pop	{r4, r5, r6, r7, r8, r9, pc}
 2619              	.LVL287:
 2620              	.L193:
 2621              	.LCFI28:
 2622              		.cfi_restore_state
 2623              	.LBB260:
1267:lvgl/src/lv_widgets/lv_label.c **** 
 2624              		.loc 1 1267 9 is_stmt 1 view .LVU786
1267:lvgl/src/lv_widgets/lv_label.c **** 
 2625              		.loc 1 1267 34 is_stmt 0 view .LVU787
 2626 00ac 3046     		mov	r0, r6
 2627              	.LVL288:
1267:lvgl/src/lv_widgets/lv_label.c **** 
 2628              		.loc 1 1267 34 view .LVU788
 2629 00ae FFF7FEFF 		bl	lv_label_get_align
 2630              	.LVL289:
1269:lvgl/src/lv_widgets/lv_label.c ****         if(ext->recolor != 0) flag |= LV_TXT_FLAG_RECOLOR;
 2631              		.loc 1 1269 9 is_stmt 1 view .LVU789
1270:lvgl/src/lv_widgets/lv_label.c ****         if(ext->expand != 0) flag |= LV_TXT_FLAG_EXPAND;
 2632              		.loc 1 1270 9 view .LVU790
1270:lvgl/src/lv_widgets/lv_label.c ****         if(ext->expand != 0) flag |= LV_TXT_FLAG_EXPAND;
 2633              		.loc 1 1270 25 is_stmt 0 view .LVU791
 2634 00b2 98F81230 		ldrb	r3, [r8, #18]	@ zero_extendqisi2
1270:lvgl/src/lv_widgets/lv_label.c ****         if(ext->expand != 0) flag |= LV_TXT_FLAG_EXPAND;
 2635              		.loc 1 1270 11 view .LVU792
 2636 00b6 13F0400F 		tst	r3, #64
 2637 00ba 3FD1     		bne	.L186
1269:lvgl/src/lv_widgets/lv_label.c ****         if(ext->recolor != 0) flag |= LV_TXT_FLAG_RECOLOR;
 2638              		.loc 1 1269 23 view .LVU793
 2639 00bc 0024     		movs	r4, #0
 2640              	.L173:
 2641              	.LVL290:
1271:lvgl/src/lv_widgets/lv_label.c ****         if(ext->long_mode == LV_LABEL_LONG_EXPAND) flag |= LV_TXT_FLAG_FIT;
 2642              		.loc 1 1271 9 is_stmt 1 view .LVU794
1271:lvgl/src/lv_widgets/lv_label.c ****         if(ext->long_mode == LV_LABEL_LONG_EXPAND) flag |= LV_TXT_FLAG_FIT;
 2643              		.loc 1 1271 11 is_stmt 0 view .LVU795
 2644 00be 13F0800F 		tst	r3, #128
 2645 00c2 3DD1     		bne	.L194
 2646              	.L174:
1272:lvgl/src/lv_widgets/lv_label.c ****         if(align == LV_LABEL_ALIGN_CENTER) flag |= LV_TXT_FLAG_CENTER;
 2647              		.loc 1 1272 9 is_stmt 1 view .LVU796
1272:lvgl/src/lv_widgets/lv_label.c ****         if(align == LV_LABEL_ALIGN_CENTER) flag |= LV_TXT_FLAG_CENTER;
 2648              		.loc 1 1272 11 is_stmt 0 view .LVU797
 2649 00c4 13F0070F 		tst	r3, #7
 2650 00c8 01D1     		bne	.L175
1272:lvgl/src/lv_widgets/lv_label.c ****         if(align == LV_LABEL_ALIGN_CENTER) flag |= LV_TXT_FLAG_CENTER;
ARM GAS  D:\Temp\cclLOIfg.s 			page 96


 2651              		.loc 1 1272 52 is_stmt 1 discriminator 1 view .LVU798
1272:lvgl/src/lv_widgets/lv_label.c ****         if(align == LV_LABEL_ALIGN_CENTER) flag |= LV_TXT_FLAG_CENTER;
 2652              		.loc 1 1272 57 is_stmt 0 discriminator 1 view .LVU799
 2653 00ca 44F01004 		orr	r4, r4, #16
 2654              	.LVL291:
 2655              	.L175:
1273:lvgl/src/lv_widgets/lv_label.c ****         if(align == LV_LABEL_ALIGN_RIGHT) flag |= LV_TXT_FLAG_RIGHT;
 2656              		.loc 1 1273 9 is_stmt 1 view .LVU800
1273:lvgl/src/lv_widgets/lv_label.c ****         if(align == LV_LABEL_ALIGN_RIGHT) flag |= LV_TXT_FLAG_RIGHT;
 2657              		.loc 1 1273 11 is_stmt 0 view .LVU801
 2658 00ce 0128     		cmp	r0, #1
 2659 00d0 39D0     		beq	.L195
 2660              	.L176:
1274:lvgl/src/lv_widgets/lv_label.c **** 
 2661              		.loc 1 1274 9 is_stmt 1 view .LVU802
1274:lvgl/src/lv_widgets/lv_label.c **** 
 2662              		.loc 1 1274 11 is_stmt 0 view .LVU803
 2663 00d2 0228     		cmp	r0, #2
 2664 00d4 3AD0     		beq	.L196
 2665              	.L177:
1276:lvgl/src/lv_widgets/lv_label.c ****         lv_draw_label_dsc_init(&label_draw_dsc);
 2666              		.loc 1 1276 9 is_stmt 1 view .LVU804
1277:lvgl/src/lv_widgets/lv_label.c **** 
 2667              		.loc 1 1277 9 view .LVU805
 2668 00d6 0CA8     		add	r0, sp, #48
 2669              	.LVL292:
1277:lvgl/src/lv_widgets/lv_label.c **** 
 2670              		.loc 1 1277 9 is_stmt 0 view .LVU806
 2671 00d8 FFF7FEFF 		bl	lv_draw_label_dsc_init
 2672              	.LVL293:
1279:lvgl/src/lv_widgets/lv_label.c ****         label_draw_dsc.sel_end = lv_label_get_text_sel_end(label);
 2673              		.loc 1 1279 9 is_stmt 1 view .LVU807
1279:lvgl/src/lv_widgets/lv_label.c ****         label_draw_dsc.sel_end = lv_label_get_text_sel_end(label);
 2674              		.loc 1 1279 36 is_stmt 0 view .LVU808
 2675 00dc 3046     		mov	r0, r6
 2676 00de FFF7FEFF 		bl	lv_label_get_text_sel_start
 2677              	.LVL294:
1279:lvgl/src/lv_widgets/lv_label.c ****         label_draw_dsc.sel_end = lv_label_get_text_sel_end(label);
 2678              		.loc 1 1279 34 view .LVU809
 2679 00e2 1190     		str	r0, [sp, #68]
1280:lvgl/src/lv_widgets/lv_label.c ****         label_draw_dsc.ofs_x = ext->offset.x;
 2680              		.loc 1 1280 9 is_stmt 1 view .LVU810
1280:lvgl/src/lv_widgets/lv_label.c ****         label_draw_dsc.ofs_x = ext->offset.x;
 2681              		.loc 1 1280 34 is_stmt 0 view .LVU811
 2682 00e4 3046     		mov	r0, r6
 2683 00e6 FFF7FEFF 		bl	lv_label_get_text_sel_end
 2684              	.LVL295:
1280:lvgl/src/lv_widgets/lv_label.c ****         label_draw_dsc.ofs_x = ext->offset.x;
 2685              		.loc 1 1280 32 view .LVU812
 2686 00ea 1290     		str	r0, [sp, #72]
1281:lvgl/src/lv_widgets/lv_label.c ****         label_draw_dsc.ofs_y = ext->offset.y;
 2687              		.loc 1 1281 9 is_stmt 1 view .LVU813
1281:lvgl/src/lv_widgets/lv_label.c ****         label_draw_dsc.ofs_y = ext->offset.y;
 2688              		.loc 1 1281 43 is_stmt 0 view .LVU814
 2689 00ec B8F90E30 		ldrsh	r3, [r8, #14]
1281:lvgl/src/lv_widgets/lv_label.c ****         label_draw_dsc.ofs_y = ext->offset.y;
 2690              		.loc 1 1281 30 view .LVU815
ARM GAS  D:\Temp\cclLOIfg.s 			page 97


 2691 00f0 ADF84C30 		strh	r3, [sp, #76]	@ movhi
1282:lvgl/src/lv_widgets/lv_label.c ****         label_draw_dsc.flag = flag;
 2692              		.loc 1 1282 9 is_stmt 1 view .LVU816
1282:lvgl/src/lv_widgets/lv_label.c ****         label_draw_dsc.flag = flag;
 2693              		.loc 1 1282 43 is_stmt 0 view .LVU817
 2694 00f4 B8F91030 		ldrsh	r3, [r8, #16]
1282:lvgl/src/lv_widgets/lv_label.c ****         label_draw_dsc.flag = flag;
 2695              		.loc 1 1282 30 view .LVU818
 2696 00f8 ADF84E30 		strh	r3, [sp, #78]	@ movhi
1283:lvgl/src/lv_widgets/lv_label.c ****         lv_obj_init_draw_label_dsc(label, LV_LABEL_PART_MAIN, &label_draw_dsc);
 2697              		.loc 1 1283 9 is_stmt 1 view .LVU819
1283:lvgl/src/lv_widgets/lv_label.c ****         lv_obj_init_draw_label_dsc(label, LV_LABEL_PART_MAIN, &label_draw_dsc);
 2698              		.loc 1 1283 29 is_stmt 0 view .LVU820
 2699 00fc 8DF85140 		strb	r4, [sp, #81]
1284:lvgl/src/lv_widgets/lv_label.c **** 
 2700              		.loc 1 1284 9 is_stmt 1 view .LVU821
 2701 0100 0CAA     		add	r2, sp, #48
 2702 0102 0021     		movs	r1, #0
 2703 0104 3046     		mov	r0, r6
 2704 0106 FFF7FEFF 		bl	lv_obj_init_draw_label_dsc
 2705              	.LVL296:
1288:lvgl/src/lv_widgets/lv_label.c ****            (ext->align == LV_LABEL_ALIGN_CENTER || ext->align == LV_LABEL_ALIGN_RIGHT)) {
 2706              		.loc 1 1288 9 view .LVU822
1288:lvgl/src/lv_widgets/lv_label.c ****            (ext->align == LV_LABEL_ALIGN_CENTER || ext->align == LV_LABEL_ALIGN_RIGHT)) {
 2707              		.loc 1 1288 28 is_stmt 0 view .LVU823
 2708 010a 98F81220 		ldrb	r2, [r8, #18]	@ zero_extendqisi2
1288:lvgl/src/lv_widgets/lv_label.c ****            (ext->align == LV_LABEL_ALIGN_CENTER || ext->align == LV_LABEL_ALIGN_RIGHT)) {
 2709              		.loc 1 1288 51 view .LVU824
 2710 010e 02F00703 		and	r3, r2, #7
 2711 0112 033B     		subs	r3, r3, #3
 2712 0114 DBB2     		uxtb	r3, r3
1288:lvgl/src/lv_widgets/lv_label.c ****            (ext->align == LV_LABEL_ALIGN_CENTER || ext->align == LV_LABEL_ALIGN_RIGHT)) {
 2713              		.loc 1 1288 11 view .LVU825
 2714 0116 012B     		cmp	r3, #1
 2715 0118 1BD9     		bls	.L197
 2716              	.L178:
1305:lvgl/src/lv_widgets/lv_label.c **** #endif
 2717              		.loc 1 1305 9 is_stmt 1 view .LVU826
 2718              	.LVL297:
1308:lvgl/src/lv_widgets/lv_label.c **** 
 2719              		.loc 1 1308 9 view .LVU827
1308:lvgl/src/lv_widgets/lv_label.c **** 
 2720              		.loc 1 1308 67 is_stmt 0 view .LVU828
 2721 011a D8F80030 		ldr	r3, [r8]
1308:lvgl/src/lv_widgets/lv_label.c **** 
 2722              		.loc 1 1308 9 view .LVU829
 2723 011e 0022     		movs	r2, #0
 2724 0120 0092     		str	r2, [sp]
 2725 0122 0CAA     		add	r2, sp, #48
 2726 0124 0AA9     		add	r1, sp, #40
 2727 0126 08A8     		add	r0, sp, #32
 2728 0128 FFF7FEFF 		bl	lv_draw_label
 2729              	.LVL298:
1310:lvgl/src/lv_widgets/lv_label.c ****             lv_point_t size;
 2730              		.loc 1 1310 9 is_stmt 1 view .LVU830
1310:lvgl/src/lv_widgets/lv_label.c ****             lv_point_t size;
 2731              		.loc 1 1310 27 is_stmt 0 view .LVU831
ARM GAS  D:\Temp\cclLOIfg.s 			page 98


 2732 012c 98F81230 		ldrb	r3, [r8, #18]	@ zero_extendqisi2
 2733 0130 03F00703 		and	r3, r3, #7
1310:lvgl/src/lv_widgets/lv_label.c ****             lv_point_t size;
 2734              		.loc 1 1310 11 view .LVU832
 2735 0134 042B     		cmp	r3, #4
 2736 0136 34D0     		beq	.L198
 2737              	.LVL299:
 2738              	.L181:
1310:lvgl/src/lv_widgets/lv_label.c ****             lv_point_t size;
 2739              		.loc 1 1310 11 view .LVU833
 2740              	.LBE260:
1334:lvgl/src/lv_widgets/lv_label.c **** }
 2741              		.loc 1 1334 12 discriminator 1 view .LVU834
 2742 0138 0020     		movs	r0, #0
 2743              	.LBB261:
 2744 013a B4E7     		b	.L169
 2745              	.LVL300:
 2746              	.L186:
1270:lvgl/src/lv_widgets/lv_label.c ****         if(ext->expand != 0) flag |= LV_TXT_FLAG_EXPAND;
 2747              		.loc 1 1270 36 view .LVU835
 2748 013c 0124     		movs	r4, #1
 2749 013e BEE7     		b	.L173
 2750              	.LVL301:
 2751              	.L194:
1271:lvgl/src/lv_widgets/lv_label.c ****         if(ext->long_mode == LV_LABEL_LONG_EXPAND) flag |= LV_TXT_FLAG_FIT;
 2752              		.loc 1 1271 30 is_stmt 1 discriminator 1 view .LVU836
1271:lvgl/src/lv_widgets/lv_label.c ****         if(ext->long_mode == LV_LABEL_LONG_EXPAND) flag |= LV_TXT_FLAG_FIT;
 2753              		.loc 1 1271 35 is_stmt 0 discriminator 1 view .LVU837
 2754 0140 44F00204 		orr	r4, r4, #2
 2755              	.LVL302:
1271:lvgl/src/lv_widgets/lv_label.c ****         if(ext->long_mode == LV_LABEL_LONG_EXPAND) flag |= LV_TXT_FLAG_FIT;
 2756              		.loc 1 1271 35 discriminator 1 view .LVU838
 2757 0144 BEE7     		b	.L174
 2758              	.L195:
1273:lvgl/src/lv_widgets/lv_label.c ****         if(align == LV_LABEL_ALIGN_RIGHT) flag |= LV_TXT_FLAG_RIGHT;
 2759              		.loc 1 1273 44 is_stmt 1 discriminator 1 view .LVU839
1273:lvgl/src/lv_widgets/lv_label.c ****         if(align == LV_LABEL_ALIGN_RIGHT) flag |= LV_TXT_FLAG_RIGHT;
 2760              		.loc 1 1273 49 is_stmt 0 discriminator 1 view .LVU840
 2761 0146 44F00404 		orr	r4, r4, #4
 2762              	.LVL303:
1273:lvgl/src/lv_widgets/lv_label.c ****         if(align == LV_LABEL_ALIGN_RIGHT) flag |= LV_TXT_FLAG_RIGHT;
 2763              		.loc 1 1273 49 discriminator 1 view .LVU841
 2764 014a C2E7     		b	.L176
 2765              	.L196:
1274:lvgl/src/lv_widgets/lv_label.c **** 
 2766              		.loc 1 1274 43 is_stmt 1 discriminator 1 view .LVU842
1274:lvgl/src/lv_widgets/lv_label.c **** 
 2767              		.loc 1 1274 48 is_stmt 0 discriminator 1 view .LVU843
 2768 014c 44F00804 		orr	r4, r4, #8
 2769              	.LVL304:
1274:lvgl/src/lv_widgets/lv_label.c **** 
 2770              		.loc 1 1274 48 discriminator 1 view .LVU844
 2771 0150 C1E7     		b	.L177
 2772              	.LVL305:
 2773              	.L197:
1289:lvgl/src/lv_widgets/lv_label.c ****             lv_point_t size;
 2774              		.loc 1 1289 24 discriminator 1 view .LVU845
ARM GAS  D:\Temp\cclLOIfg.s 			page 99


 2775 0152 02F03002 		and	r2, r2, #48
1288:lvgl/src/lv_widgets/lv_label.c ****            (ext->align == LV_LABEL_ALIGN_CENTER || ext->align == LV_LABEL_ALIGN_RIGHT)) {
 2776              		.loc 1 1288 98 discriminator 1 view .LVU846
 2777 0156 102A     		cmp	r2, #16
 2778 0158 01D0     		beq	.L179
1289:lvgl/src/lv_widgets/lv_label.c ****             lv_point_t size;
 2779              		.loc 1 1289 49 view .LVU847
 2780 015a 202A     		cmp	r2, #32
 2781 015c DDD1     		bne	.L178
 2782              	.L179:
 2783              	.LBB250:
1290:lvgl/src/lv_widgets/lv_label.c ****             _lv_txt_get_size(&size, ext->text, label_draw_dsc.font, label_draw_dsc.letter_space, la
 2784              		.loc 1 1290 13 is_stmt 1 view .LVU848
1291:lvgl/src/lv_widgets/lv_label.c ****                              LV_COORD_MAX, flag);
 2785              		.loc 1 1291 13 view .LVU849
1291:lvgl/src/lv_widgets/lv_label.c ****                              LV_COORD_MAX, flag);
 2786              		.loc 1 1291 40 is_stmt 0 view .LVU850
 2787 015e D8F80010 		ldr	r1, [r8]
1291:lvgl/src/lv_widgets/lv_label.c ****                              LV_COORD_MAX, flag);
 2788              		.loc 1 1291 13 view .LVU851
 2789 0162 0294     		str	r4, [sp, #8]
 2790 0164 47F61843 		movw	r3, #31768
 2791 0168 0193     		str	r3, [sp, #4]
 2792 016a BDF93E30 		ldrsh	r3, [sp, #62]
 2793 016e 0093     		str	r3, [sp]
 2794 0170 BDF94030 		ldrsh	r3, [sp, #64]
 2795 0174 0E9A     		ldr	r2, [sp, #56]
 2796 0176 05A8     		add	r0, sp, #20
 2797 0178 FFF7FEFF 		bl	_lv_txt_get_size
 2798              	.LVL306:
1293:lvgl/src/lv_widgets/lv_label.c ****                 label_draw_dsc.flag &= ~LV_TXT_FLAG_RIGHT;
 2799              		.loc 1 1293 13 is_stmt 1 view .LVU852
1293:lvgl/src/lv_widgets/lv_label.c ****                 label_draw_dsc.flag &= ~LV_TXT_FLAG_RIGHT;
 2800              		.loc 1 1293 20 is_stmt 0 view .LVU853
 2801 017c BDF91420 		ldrsh	r2, [sp, #20]
 2802              	.LVL307:
 2803              	.LBB251:
 2804              	.LBI251:
 107:d:\_project\stm32\f407\hack_rf_new\lvgl\src\lv_misc\lv_area.h **** {
 2805              		.loc 3 107 26 is_stmt 1 view .LVU854
 2806              	.LBB252:
 2807              		.loc 3 109 5 view .LVU855
 2808              		.loc 3 109 31 is_stmt 0 view .LVU856
 2809 0180 BDF82430 		ldrh	r3, [sp, #36]
 2810              		.loc 3 109 44 view .LVU857
 2811 0184 BDF82010 		ldrh	r1, [sp, #32]
 2812              		.loc 3 109 36 view .LVU858
 2813 0188 5B1A     		subs	r3, r3, r1
 2814 018a 9BB2     		uxth	r3, r3
 2815              		.loc 3 109 49 view .LVU859
 2816 018c 0133     		adds	r3, r3, #1
 2817              		.loc 3 109 12 view .LVU860
 2818 018e 1BB2     		sxth	r3, r3
 2819              	.LVL308:
 2820              		.loc 3 109 12 view .LVU861
 2821              	.LBE252:
 2822              	.LBE251:
ARM GAS  D:\Temp\cclLOIfg.s 			page 100


1293:lvgl/src/lv_widgets/lv_label.c ****                 label_draw_dsc.flag &= ~LV_TXT_FLAG_RIGHT;
 2823              		.loc 1 1293 15 view .LVU862
 2824 0190 9A42     		cmp	r2, r3
 2825 0192 C2DD     		ble	.L178
1294:lvgl/src/lv_widgets/lv_label.c ****                 label_draw_dsc.flag &= ~LV_TXT_FLAG_CENTER;
 2826              		.loc 1 1294 17 is_stmt 1 view .LVU863
1294:lvgl/src/lv_widgets/lv_label.c ****                 label_draw_dsc.flag &= ~LV_TXT_FLAG_CENTER;
 2827              		.loc 1 1294 37 is_stmt 0 view .LVU864
 2828 0194 9DF85130 		ldrb	r3, [sp, #81]	@ zero_extendqisi2
1295:lvgl/src/lv_widgets/lv_label.c ****             }
 2829              		.loc 1 1295 17 is_stmt 1 view .LVU865
1295:lvgl/src/lv_widgets/lv_label.c ****             }
 2830              		.loc 1 1295 37 is_stmt 0 view .LVU866
 2831 0198 03F0F303 		and	r3, r3, #243
 2832 019c 8DF85130 		strb	r3, [sp, #81]
 2833 01a0 BBE7     		b	.L178
 2834              	.LVL309:
 2835              	.L198:
1295:lvgl/src/lv_widgets/lv_label.c ****             }
 2836              		.loc 1 1295 37 view .LVU867
 2837              	.LBE250:
 2838              	.LBB253:
1311:lvgl/src/lv_widgets/lv_label.c ****             _lv_txt_get_size(&size, ext->text, label_draw_dsc.font, label_draw_dsc.letter_space, la
 2839              		.loc 1 1311 13 is_stmt 1 view .LVU868
1312:lvgl/src/lv_widgets/lv_label.c ****                              LV_COORD_MAX, flag);
 2840              		.loc 1 1312 13 view .LVU869
1312:lvgl/src/lv_widgets/lv_label.c ****                              LV_COORD_MAX, flag);
 2841              		.loc 1 1312 40 is_stmt 0 view .LVU870
 2842 01a2 D8F80010 		ldr	r1, [r8]
1312:lvgl/src/lv_widgets/lv_label.c ****                              LV_COORD_MAX, flag);
 2843              		.loc 1 1312 13 view .LVU871
 2844 01a6 0294     		str	r4, [sp, #8]
 2845 01a8 47F61843 		movw	r3, #31768
 2846 01ac 0193     		str	r3, [sp, #4]
 2847 01ae BDF93E30 		ldrsh	r3, [sp, #62]
 2848 01b2 0093     		str	r3, [sp]
 2849 01b4 BDF94030 		ldrsh	r3, [sp, #64]
 2850 01b8 0E9A     		ldr	r2, [sp, #56]
 2851 01ba 05A8     		add	r0, sp, #20
 2852 01bc FFF7FEFF 		bl	_lv_txt_get_size
 2853              	.LVL310:
1316:lvgl/src/lv_widgets/lv_label.c ****                 label_draw_dsc.ofs_x = ext->offset.x + size.x +
 2854              		.loc 1 1316 13 is_stmt 1 view .LVU872
1316:lvgl/src/lv_widgets/lv_label.c ****                 label_draw_dsc.ofs_x = ext->offset.x + size.x +
 2855              		.loc 1 1316 20 is_stmt 0 view .LVU873
 2856 01c0 BDF91420 		ldrsh	r2, [sp, #20]
 2857              	.LVL311:
 2858              	.LBB254:
 2859              	.LBI254:
 107:d:\_project\stm32\f407\hack_rf_new\lvgl\src\lv_misc\lv_area.h **** {
 2860              		.loc 3 107 26 is_stmt 1 view .LVU874
 2861              	.LBB255:
 2862              		.loc 3 109 5 view .LVU875
 2863              		.loc 3 109 31 is_stmt 0 view .LVU876
 2864 01c4 BDF82430 		ldrh	r3, [sp, #36]
 2865              		.loc 3 109 44 view .LVU877
 2866 01c8 BDF82010 		ldrh	r1, [sp, #32]
ARM GAS  D:\Temp\cclLOIfg.s 			page 101


 2867              		.loc 3 109 36 view .LVU878
 2868 01cc 5B1A     		subs	r3, r3, r1
 2869 01ce 9BB2     		uxth	r3, r3
 2870              		.loc 3 109 49 view .LVU879
 2871 01d0 0133     		adds	r3, r3, #1
 2872              		.loc 3 109 12 view .LVU880
 2873 01d2 1BB2     		sxth	r3, r3
 2874              	.LVL312:
 2875              		.loc 3 109 12 view .LVU881
 2876              	.LBE255:
 2877              	.LBE254:
1316:lvgl/src/lv_widgets/lv_label.c ****                 label_draw_dsc.ofs_x = ext->offset.x + size.x +
 2878              		.loc 1 1316 15 view .LVU882
 2879 01d4 9A42     		cmp	r2, r3
 2880 01d6 25DC     		bgt	.L199
 2881              	.LVL313:
 2882              	.L182:
1325:lvgl/src/lv_widgets/lv_label.c ****                 label_draw_dsc.ofs_x = ext->offset.x;
 2883              		.loc 1 1325 13 is_stmt 1 view .LVU883
1325:lvgl/src/lv_widgets/lv_label.c ****                 label_draw_dsc.ofs_x = ext->offset.x;
 2884              		.loc 1 1325 20 is_stmt 0 view .LVU884
 2885 01d8 BDF91620 		ldrsh	r2, [sp, #22]
 2886              	.LVL314:
 2887              	.LBB256:
 2888              	.LBI256:
 110:d:\_project\stm32\f407\hack_rf_new\lvgl\src\lv_misc\lv_area.h **** }
 111:d:\_project\stm32\f407\hack_rf_new\lvgl\src\lv_misc\lv_area.h **** 
 112:d:\_project\stm32\f407\hack_rf_new\lvgl\src\lv_misc\lv_area.h **** /**
 113:d:\_project\stm32\f407\hack_rf_new\lvgl\src\lv_misc\lv_area.h ****  * Get the height of an area
 114:d:\_project\stm32\f407\hack_rf_new\lvgl\src\lv_misc\lv_area.h ****  * @param area_p pointer to an area
 115:d:\_project\stm32\f407\hack_rf_new\lvgl\src\lv_misc\lv_area.h ****  * @return the height of the area (if y1 == y2 -> height = 1)
 116:d:\_project\stm32\f407\hack_rf_new\lvgl\src\lv_misc\lv_area.h ****  */
 117:d:\_project\stm32\f407\hack_rf_new\lvgl\src\lv_misc\lv_area.h **** static inline lv_coord_t lv_area_get_height(const lv_area_t * area_p)
 2889              		.loc 3 117 26 is_stmt 1 view .LVU885
 2890              	.LBB257:
 118:d:\_project\stm32\f407\hack_rf_new\lvgl\src\lv_misc\lv_area.h **** {
 119:d:\_project\stm32\f407\hack_rf_new\lvgl\src\lv_misc\lv_area.h ****     return (lv_coord_t)(area_p->y2 - area_p->y1 + 1);
 2891              		.loc 3 119 5 view .LVU886
 2892              		.loc 3 119 31 is_stmt 0 view .LVU887
 2893 01dc BDF82630 		ldrh	r3, [sp, #38]
 2894              		.loc 3 119 44 view .LVU888
 2895 01e0 BDF82210 		ldrh	r1, [sp, #34]
 2896              		.loc 3 119 36 view .LVU889
 2897 01e4 5B1A     		subs	r3, r3, r1
 2898 01e6 9BB2     		uxth	r3, r3
 2899              		.loc 3 119 49 view .LVU890
 2900 01e8 0133     		adds	r3, r3, #1
 2901              		.loc 3 119 12 view .LVU891
 2902 01ea 1BB2     		sxth	r3, r3
 2903              	.LVL315:
 2904              		.loc 3 119 12 view .LVU892
 2905              	.LBE257:
 2906              	.LBE256:
1325:lvgl/src/lv_widgets/lv_label.c ****                 label_draw_dsc.ofs_x = ext->offset.x;
 2907              		.loc 1 1325 15 view .LVU893
 2908 01ec 9A42     		cmp	r2, r3
 2909 01ee A3DD     		ble	.L181
ARM GAS  D:\Temp\cclLOIfg.s 			page 102


1326:lvgl/src/lv_widgets/lv_label.c ****                 label_draw_dsc.ofs_y = ext->offset.y + size.y + lv_font_get_line_height(label_draw_
 2910              		.loc 1 1326 17 is_stmt 1 view .LVU894
1326:lvgl/src/lv_widgets/lv_label.c ****                 label_draw_dsc.ofs_y = ext->offset.y + size.y + lv_font_get_line_height(label_draw_
 2911              		.loc 1 1326 51 is_stmt 0 view .LVU895
 2912 01f0 B8F90E30 		ldrsh	r3, [r8, #14]
1326:lvgl/src/lv_widgets/lv_label.c ****                 label_draw_dsc.ofs_y = ext->offset.y + size.y + lv_font_get_line_height(label_draw_
 2913              		.loc 1 1326 38 view .LVU896
 2914 01f4 ADF84C30 		strh	r3, [sp, #76]	@ movhi
1327:lvgl/src/lv_widgets/lv_label.c **** 
 2915              		.loc 1 1327 17 is_stmt 1 view .LVU897
1327:lvgl/src/lv_widgets/lv_label.c **** 
 2916              		.loc 1 1327 51 is_stmt 0 view .LVU898
 2917 01f8 B8F81030 		ldrh	r3, [r8, #16]
1327:lvgl/src/lv_widgets/lv_label.c **** 
 2918              		.loc 1 1327 54 view .LVU899
 2919 01fc 13FA82F3 		uxtah	r3, r3, r2
1327:lvgl/src/lv_widgets/lv_label.c **** 
 2920              		.loc 1 1327 65 view .LVU900
 2921 0200 0E9A     		ldr	r2, [sp, #56]
 2922              	.LVL316:
 2923              	.LBB258:
 2924              	.LBI258:
 116:lvgl/src/lv_widgets/../lv_core/../lv_font/lv_font.h **** {
 2925              		.loc 4 116 26 is_stmt 1 view .LVU901
 2926              	.LBB259:
 2927              		.loc 4 118 5 view .LVU902
 2928              		.loc 4 118 18 is_stmt 0 view .LVU903
 2929 0202 B2F90820 		ldrsh	r2, [r2, #8]
 2930              	.LVL317:
 2931              		.loc 4 118 18 view .LVU904
 2932              	.LBE259:
 2933              	.LBE258:
1327:lvgl/src/lv_widgets/lv_label.c **** 
 2934              		.loc 1 1327 65 view .LVU905
 2935 0206 92B2     		uxth	r2, r2
1327:lvgl/src/lv_widgets/lv_label.c **** 
 2936              		.loc 1 1327 63 view .LVU906
 2937 0208 12FA83F3 		uxtah	r3, r2, r3
1327:lvgl/src/lv_widgets/lv_label.c **** 
 2938              		.loc 1 1327 38 view .LVU907
 2939 020c ADF84E30 		strh	r3, [sp, #78]	@ movhi
1329:lvgl/src/lv_widgets/lv_label.c ****             }
 2940              		.loc 1 1329 17 is_stmt 1 view .LVU908
1329:lvgl/src/lv_widgets/lv_label.c ****             }
 2941              		.loc 1 1329 75 is_stmt 0 view .LVU909
 2942 0210 D8F80030 		ldr	r3, [r8]
1329:lvgl/src/lv_widgets/lv_label.c ****             }
 2943              		.loc 1 1329 17 view .LVU910
 2944 0214 0022     		movs	r2, #0
 2945 0216 0092     		str	r2, [sp]
 2946 0218 0CAA     		add	r2, sp, #48
 2947 021a 0AA9     		add	r1, sp, #40
 2948 021c 08A8     		add	r0, sp, #32
 2949 021e FFF7FEFF 		bl	lv_draw_label
 2950              	.LVL318:
 2951 0222 89E7     		b	.L181
 2952              	.LVL319:
ARM GAS  D:\Temp\cclLOIfg.s 			page 103


 2953              	.L199:
1317:lvgl/src/lv_widgets/lv_label.c ****                                        lv_font_get_glyph_width(label_draw_dsc.font, ' ', ' ') * LV_
 2954              		.loc 1 1317 17 is_stmt 1 view .LVU911
1317:lvgl/src/lv_widgets/lv_label.c ****                                        lv_font_get_glyph_width(label_draw_dsc.font, ' ', ' ') * LV_
 2955              		.loc 1 1317 51 is_stmt 0 view .LVU912
 2956 0224 B8F80E40 		ldrh	r4, [r8, #14]
 2957              	.LVL320:
1317:lvgl/src/lv_widgets/lv_label.c ****                                        lv_font_get_glyph_width(label_draw_dsc.font, ' ', ' ') * LV_
 2958              		.loc 1 1317 54 view .LVU913
 2959 0228 14FA82F2 		uxtah	r2, r4, r2
 2960 022c 94B2     		uxth	r4, r2
1318:lvgl/src/lv_widgets/lv_label.c ****                 label_draw_dsc.ofs_y = ext->offset.y;
 2961              		.loc 1 1318 40 view .LVU914
 2962 022e 2022     		movs	r2, #32
 2963 0230 1146     		mov	r1, r2
 2964 0232 0E98     		ldr	r0, [sp, #56]
 2965 0234 FFF7FEFF 		bl	lv_font_get_glyph_width
 2966              	.LVL321:
1317:lvgl/src/lv_widgets/lv_label.c ****                                        lv_font_get_glyph_width(label_draw_dsc.font, ' ', ' ') * LV_
 2967              		.loc 1 1317 63 view .LVU915
 2968 0238 00EB4000 		add	r0, r0, r0, lsl #1
 2969 023c 0444     		add	r4, r4, r0
1317:lvgl/src/lv_widgets/lv_label.c ****                                        lv_font_get_glyph_width(label_draw_dsc.font, ' ', ' ') * LV_
 2970              		.loc 1 1317 38 view .LVU916
 2971 023e ADF84C40 		strh	r4, [sp, #76]	@ movhi
1319:lvgl/src/lv_widgets/lv_label.c **** 
 2972              		.loc 1 1319 17 is_stmt 1 view .LVU917
1319:lvgl/src/lv_widgets/lv_label.c **** 
 2973              		.loc 1 1319 51 is_stmt 0 view .LVU918
 2974 0242 B8F91030 		ldrsh	r3, [r8, #16]
1319:lvgl/src/lv_widgets/lv_label.c **** 
 2975              		.loc 1 1319 38 view .LVU919
 2976 0246 ADF84E30 		strh	r3, [sp, #78]	@ movhi
1321:lvgl/src/lv_widgets/lv_label.c ****             }
 2977              		.loc 1 1321 17 is_stmt 1 view .LVU920
1321:lvgl/src/lv_widgets/lv_label.c ****             }
 2978              		.loc 1 1321 75 is_stmt 0 view .LVU921
 2979 024a D8F80030 		ldr	r3, [r8]
1321:lvgl/src/lv_widgets/lv_label.c ****             }
 2980              		.loc 1 1321 17 view .LVU922
 2981 024e 0022     		movs	r2, #0
 2982 0250 0092     		str	r2, [sp]
 2983 0252 0CAA     		add	r2, sp, #48
 2984 0254 0AA9     		add	r1, sp, #40
 2985 0256 08A8     		add	r0, sp, #32
 2986 0258 FFF7FEFF 		bl	lv_draw_label
 2987              	.LVL322:
 2988 025c BCE7     		b	.L182
 2989              	.LVL323:
 2990              	.L184:
 2991              	.LCFI29:
 2992              		.cfi_def_cfa_offset 0
 2993              		.cfi_restore 4
 2994              		.cfi_restore 5
 2995              		.cfi_restore 6
 2996              		.cfi_restore 7
 2997              		.cfi_restore 8
ARM GAS  D:\Temp\cclLOIfg.s 			page 104


 2998              		.cfi_restore 9
 2999              		.cfi_restore 14
1321:lvgl/src/lv_widgets/lv_label.c ****             }
 3000              		.loc 1 1321 17 view .LVU923
 3001              	.LBE253:
 3002              	.LBE261:
1241:lvgl/src/lv_widgets/lv_label.c ****     else if(mode == LV_DESIGN_DRAW_MAIN) {
 3003              		.loc 1 1241 16 view .LVU924
 3004 025e 0220     		movs	r0, #2
 3005              	.LVL324:
1241:lvgl/src/lv_widgets/lv_label.c ****     else if(mode == LV_DESIGN_DRAW_MAIN) {
 3006              		.loc 1 1241 16 view .LVU925
 3007 0260 7047     		bx	lr
 3008              		.cfi_endproc
 3009              	.LFE482:
 3011              		.section	.text.lv_label_is_char_under_pos,"ax",%progbits
 3012              		.align	1
 3013              		.global	lv_label_is_char_under_pos
 3014              		.syntax unified
 3015              		.thumb
 3016              		.thumb_func
 3017              		.fpu fpv4-sp-d16
 3019              	lv_label_is_char_under_pos:
 3020              	.LVL325:
 3021              	.LFB477:
 815:lvgl/src/lv_widgets/lv_label.c ****     LV_ASSERT_OBJ(label, LV_OBJX_NAME);
 3022              		.loc 1 815 1 is_stmt 1 view -0
 3023              		.cfi_startproc
 3024              		@ args = 0, pretend = 0, frame = 40
 3025              		@ frame_needed = 0, uses_anonymous_args = 0
 815:lvgl/src/lv_widgets/lv_label.c ****     LV_ASSERT_OBJ(label, LV_OBJX_NAME);
 3026              		.loc 1 815 1 is_stmt 0 view .LVU927
 3027 0000 2DE9F04F 		push	{r4, r5, r6, r7, r8, r9, r10, fp, lr}
 3028              	.LCFI30:
 3029              		.cfi_def_cfa_offset 36
 3030              		.cfi_offset 4, -36
 3031              		.cfi_offset 5, -32
 3032              		.cfi_offset 6, -28
 3033              		.cfi_offset 7, -24
 3034              		.cfi_offset 8, -20
 3035              		.cfi_offset 9, -16
 3036              		.cfi_offset 10, -12
 3037              		.cfi_offset 11, -8
 3038              		.cfi_offset 14, -4
 3039 0004 8DB0     		sub	sp, sp, #52
 3040              	.LCFI31:
 3041              		.cfi_def_cfa_offset 88
 3042 0006 0546     		mov	r5, r0
 3043 0008 0591     		str	r1, [sp, #20]
 816:lvgl/src/lv_widgets/lv_label.c ****     LV_ASSERT_NULL(pos);
 3044              		.loc 1 816 5 is_stmt 1 view .LVU928
 816:lvgl/src/lv_widgets/lv_label.c ****     LV_ASSERT_NULL(pos);
 3045              		.loc 1 816 5 view .LVU929
 3046 000a FFF7FEFF 		bl	lv_debug_check_null
 3047              	.LVL326:
 816:lvgl/src/lv_widgets/lv_label.c ****     LV_ASSERT_NULL(pos);
 3048              		.loc 1 816 5 is_stmt 0 view .LVU930
ARM GAS  D:\Temp\cclLOIfg.s 			page 105


 3049 000e 28B9     		cbnz	r0, .L201
 816:lvgl/src/lv_widgets/lv_label.c ****     LV_ASSERT_NULL(pos);
 3050              		.loc 1 816 5 is_stmt 1 discriminator 1 view .LVU931
 816:lvgl/src/lv_widgets/lv_label.c ****     LV_ASSERT_NULL(pos);
 3051              		.loc 1 816 5 discriminator 1 view .LVU932
 3052 0010 2A46     		mov	r2, r5
 3053 0012 0023     		movs	r3, #0
 3054 0014 8448     		ldr	r0, .L235
 3055 0016 FFF7FEFF 		bl	lv_debug_log_error
 3056              	.LVL327:
 3057              	.L202:
 816:lvgl/src/lv_widgets/lv_label.c ****     LV_ASSERT_NULL(pos);
 3058              		.loc 1 816 5 discriminator 1 view .LVU933
 816:lvgl/src/lv_widgets/lv_label.c ****     LV_ASSERT_NULL(pos);
 3059              		.loc 1 816 5 discriminator 1 view .LVU934
 3060 001a FEE7     		b	.L202
 3061              	.L201:
 816:lvgl/src/lv_widgets/lv_label.c ****     LV_ASSERT_NULL(pos);
 3062              		.loc 1 816 39 discriminator 2 view .LVU935
 817:lvgl/src/lv_widgets/lv_label.c **** 
 3063              		.loc 1 817 5 discriminator 2 view .LVU936
 817:lvgl/src/lv_widgets/lv_label.c **** 
 3064              		.loc 1 817 5 discriminator 2 view .LVU937
 3065 001c 059C     		ldr	r4, [sp, #20]
 3066 001e 2046     		mov	r0, r4
 3067 0020 FFF7FEFF 		bl	lv_debug_check_null
 3068              	.LVL328:
 3069 0024 28B9     		cbnz	r0, .L203
 817:lvgl/src/lv_widgets/lv_label.c **** 
 3070              		.loc 1 817 5 discriminator 1 view .LVU938
 817:lvgl/src/lv_widgets/lv_label.c **** 
 3071              		.loc 1 817 5 discriminator 1 view .LVU939
 3072 0026 2246     		mov	r2, r4
 3073 0028 0023     		movs	r3, #0
 3074 002a 7F48     		ldr	r0, .L235
 3075 002c FFF7FEFF 		bl	lv_debug_log_error
 3076              	.LVL329:
 3077              	.L204:
 817:lvgl/src/lv_widgets/lv_label.c **** 
 3078              		.loc 1 817 5 discriminator 2 view .LVU940
 817:lvgl/src/lv_widgets/lv_label.c **** 
 3079              		.loc 1 817 5 discriminator 2 view .LVU941
 3080 0030 FEE7     		b	.L204
 3081              	.L203:
 817:lvgl/src/lv_widgets/lv_label.c **** 
 3082              		.loc 1 817 24 discriminator 2 view .LVU942
 819:lvgl/src/lv_widgets/lv_label.c ****     get_txt_coords(label, &txt_coords);
 3083              		.loc 1 819 5 discriminator 2 view .LVU943
 820:lvgl/src/lv_widgets/lv_label.c ****     const char * txt         = lv_label_get_text(label);
 3084              		.loc 1 820 5 discriminator 2 view .LVU944
 3085 0032 0AA9     		add	r1, sp, #40
 3086 0034 2846     		mov	r0, r5
 3087 0036 FFF7FEFF 		bl	get_txt_coords
 3088              	.LVL330:
 821:lvgl/src/lv_widgets/lv_label.c ****     lv_label_ext_t * ext     = lv_obj_get_ext_attr(label);
 3089              		.loc 1 821 5 discriminator 2 view .LVU945
 821:lvgl/src/lv_widgets/lv_label.c ****     lv_label_ext_t * ext     = lv_obj_get_ext_attr(label);
ARM GAS  D:\Temp\cclLOIfg.s 			page 106


 3090              		.loc 1 821 32 is_stmt 0 discriminator 2 view .LVU946
 3091 003a 2846     		mov	r0, r5
 3092 003c FFF7FEFF 		bl	lv_label_get_text
 3093              	.LVL331:
 3094 0040 8246     		mov	r10, r0
 3095              	.LVL332:
 822:lvgl/src/lv_widgets/lv_label.c ****     uint32_t line_start      = 0;
 3096              		.loc 1 822 5 is_stmt 1 discriminator 2 view .LVU947
 822:lvgl/src/lv_widgets/lv_label.c ****     uint32_t line_start      = 0;
 3097              		.loc 1 822 32 is_stmt 0 discriminator 2 view .LVU948
 3098 0042 2846     		mov	r0, r5
 3099              	.LVL333:
 822:lvgl/src/lv_widgets/lv_label.c ****     uint32_t line_start      = 0;
 3100              		.loc 1 822 32 discriminator 2 view .LVU949
 3101 0044 FFF7FEFF 		bl	lv_obj_get_ext_attr
 3102              	.LVL334:
 3103 0048 0446     		mov	r4, r0
 3104              	.LVL335:
 823:lvgl/src/lv_widgets/lv_label.c ****     uint32_t new_line_start  = 0;
 3105              		.loc 1 823 5 is_stmt 1 discriminator 2 view .LVU950
 824:lvgl/src/lv_widgets/lv_label.c ****     lv_coord_t max_w         = lv_area_get_width(&txt_coords);
 3106              		.loc 1 824 5 discriminator 2 view .LVU951
 825:lvgl/src/lv_widgets/lv_label.c ****     const lv_font_t * font   = lv_obj_get_style_text_font(label, LV_LABEL_PART_MAIN);
 3107              		.loc 1 825 5 discriminator 2 view .LVU952
 3108              	.LBB262:
 3109              	.LBI262:
 107:d:\_project\stm32\f407\hack_rf_new\lvgl\src\lv_misc\lv_area.h **** {
 3110              		.loc 3 107 26 discriminator 2 view .LVU953
 3111              	.LBB263:
 109:d:\_project\stm32\f407\hack_rf_new\lvgl\src\lv_misc\lv_area.h **** }
 3112              		.loc 3 109 5 discriminator 2 view .LVU954
 109:d:\_project\stm32\f407\hack_rf_new\lvgl\src\lv_misc\lv_area.h **** }
 3113              		.loc 3 109 31 is_stmt 0 discriminator 2 view .LVU955
 3114 004a BDF82C30 		ldrh	r3, [sp, #44]
 109:d:\_project\stm32\f407\hack_rf_new\lvgl\src\lv_misc\lv_area.h **** }
 3115              		.loc 3 109 44 discriminator 2 view .LVU956
 3116 004e BDF82820 		ldrh	r2, [sp, #40]
 109:d:\_project\stm32\f407\hack_rf_new\lvgl\src\lv_misc\lv_area.h **** }
 3117              		.loc 3 109 36 discriminator 2 view .LVU957
 3118 0052 9B1A     		subs	r3, r3, r2
 3119 0054 9BB2     		uxth	r3, r3
 109:d:\_project\stm32\f407\hack_rf_new\lvgl\src\lv_misc\lv_area.h **** }
 3120              		.loc 3 109 49 discriminator 2 view .LVU958
 3121 0056 0133     		adds	r3, r3, #1
 109:d:\_project\stm32\f407\hack_rf_new\lvgl\src\lv_misc\lv_area.h **** }
 3122              		.loc 3 109 12 discriminator 2 view .LVU959
 3123 0058 1BB2     		sxth	r3, r3
 3124 005a 0793     		str	r3, [sp, #28]
 3125              	.LVL336:
 109:d:\_project\stm32\f407\hack_rf_new\lvgl\src\lv_misc\lv_area.h **** }
 3126              		.loc 3 109 12 discriminator 2 view .LVU960
 3127              	.LBE263:
 3128              	.LBE262:
 826:lvgl/src/lv_widgets/lv_label.c ****     lv_style_int_t line_space = lv_obj_get_style_text_line_space(label, LV_LABEL_PART_MAIN);
 3129              		.loc 1 826 5 is_stmt 1 discriminator 2 view .LVU961
 3130              	.LBB264:
 3131              	.LBI264:
ARM GAS  D:\Temp\cclLOIfg.s 			page 107


 3132              		.loc 2 168 1 discriminator 2 view .LVU962
 3133              	.LBB265:
 3134              		.loc 2 168 1 discriminator 2 view .LVU963
 3135 005c 48F28E02 		movw	r2, #32910
 3136 0060 0021     		movs	r1, #0
 3137 0062 2846     		mov	r0, r5
 3138              	.LVL337:
 3139              		.loc 2 168 1 is_stmt 0 discriminator 2 view .LVU964
 3140 0064 FFF7FEFF 		bl	_lv_obj_get_style_ptr
 3141              	.LVL338:
 3142 0068 0646     		mov	r6, r0
 3143 006a 0390     		str	r0, [sp, #12]
 3144              	.LVL339:
 3145              		.loc 2 168 1 discriminator 2 view .LVU965
 3146              	.LBE265:
 3147              	.LBE264:
 827:lvgl/src/lv_widgets/lv_label.c ****     lv_style_int_t letter_space = lv_obj_get_style_text_letter_space(label, LV_LABEL_PART_MAIN);
 3148              		.loc 1 827 5 is_stmt 1 discriminator 2 view .LVU966
 3149              	.LBB266:
 3150              	.LBI266:
 161:lvgl/src/lv_widgets/../lv_core/lv_obj_style_dec.h **** _LV_OBJ_STYLE_SET_GET_DECLARE(TEXT_DECOR, text_decor, lv_text_decor_t, _int, scalar)
 3151              		.loc 2 161 1 discriminator 2 view .LVU967
 3152              	.LBB267:
 161:lvgl/src/lv_widgets/../lv_core/lv_obj_style_dec.h **** _LV_OBJ_STYLE_SET_GET_DECLARE(TEXT_DECOR, text_decor, lv_text_decor_t, _int, scalar)
 3153              		.loc 2 161 1 discriminator 2 view .LVU968
 3154 006c 48F28102 		movw	r2, #32897
 3155 0070 0021     		movs	r1, #0
 3156 0072 2846     		mov	r0, r5
 3157              	.LVL340:
 161:lvgl/src/lv_widgets/../lv_core/lv_obj_style_dec.h **** _LV_OBJ_STYLE_SET_GET_DECLARE(TEXT_DECOR, text_decor, lv_text_decor_t, _int, scalar)
 3158              		.loc 2 161 1 is_stmt 0 discriminator 2 view .LVU969
 3159 0074 FFF7FEFF 		bl	_lv_obj_get_style_int
 3160              	.LVL341:
 3161 0078 0690     		str	r0, [sp, #24]
 3162              	.LVL342:
 161:lvgl/src/lv_widgets/../lv_core/lv_obj_style_dec.h **** _LV_OBJ_STYLE_SET_GET_DECLARE(TEXT_DECOR, text_decor, lv_text_decor_t, _int, scalar)
 3163              		.loc 2 161 1 discriminator 2 view .LVU970
 3164              	.LBE267:
 3165              	.LBE266:
 828:lvgl/src/lv_widgets/lv_label.c ****     lv_coord_t letter_height    = lv_font_get_line_height(font);
 3166              		.loc 1 828 5 is_stmt 1 discriminator 2 view .LVU971
 3167              	.LBB268:
 3168              	.LBI268:
 160:lvgl/src/lv_widgets/../lv_core/lv_obj_style_dec.h **** _LV_OBJ_STYLE_SET_GET_DECLARE(TEXT_LINE_SPACE, text_line_space, lv_style_int_t, _int, scalar)
 3169              		.loc 2 160 1 discriminator 2 view .LVU972
 3170              	.LBB269:
 160:lvgl/src/lv_widgets/../lv_core/lv_obj_style_dec.h **** _LV_OBJ_STYLE_SET_GET_DECLARE(TEXT_LINE_SPACE, text_line_space, lv_style_int_t, _int, scalar)
 3171              		.loc 2 160 1 discriminator 2 view .LVU973
 3172 007a 48F28002 		movw	r2, #32896
 3173 007e 0021     		movs	r1, #0
 3174 0080 2846     		mov	r0, r5
 3175 0082 FFF7FEFF 		bl	_lv_obj_get_style_int
 3176              	.LVL343:
 3177 0086 8046     		mov	r8, r0
 3178              	.LVL344:
 160:lvgl/src/lv_widgets/../lv_core/lv_obj_style_dec.h **** _LV_OBJ_STYLE_SET_GET_DECLARE(TEXT_LINE_SPACE, text_line_space, lv_style_int_t, _int, scalar)
 3179              		.loc 2 160 1 is_stmt 0 discriminator 2 view .LVU974
ARM GAS  D:\Temp\cclLOIfg.s 			page 108


 3180              	.LBE269:
 3181              	.LBE268:
 829:lvgl/src/lv_widgets/lv_label.c ****     lv_coord_t y             = 0;
 3182              		.loc 1 829 5 is_stmt 1 discriminator 2 view .LVU975
 3183              	.LBB270:
 3184              	.LBI270:
 116:lvgl/src/lv_widgets/../lv_core/../lv_font/lv_font.h **** {
 3185              		.loc 4 116 26 discriminator 2 view .LVU976
 3186              	.LBB271:
 3187              		.loc 4 118 5 discriminator 2 view .LVU977
 3188              		.loc 4 118 18 is_stmt 0 discriminator 2 view .LVU978
 3189 0088 B6F908B0 		ldrsh	fp, [r6, #8]
 3190              	.LVL345:
 3191              		.loc 4 118 18 discriminator 2 view .LVU979
 3192              	.LBE271:
 3193              	.LBE270:
 830:lvgl/src/lv_widgets/lv_label.c ****     lv_txt_flag_t flag       = LV_TXT_FLAG_NONE;
 3194              		.loc 1 830 5 is_stmt 1 discriminator 2 view .LVU980
 831:lvgl/src/lv_widgets/lv_label.c ****     lv_label_align_t align = lv_label_get_align(label);
 3195              		.loc 1 831 5 discriminator 2 view .LVU981
 832:lvgl/src/lv_widgets/lv_label.c **** 
 3196              		.loc 1 832 5 discriminator 2 view .LVU982
 832:lvgl/src/lv_widgets/lv_label.c **** 
 3197              		.loc 1 832 30 is_stmt 0 discriminator 2 view .LVU983
 3198 008c 2846     		mov	r0, r5
 3199 008e FFF7FEFF 		bl	lv_label_get_align
 3200              	.LVL346:
 3201 0092 8146     		mov	r9, r0
 3202              	.LVL347:
 834:lvgl/src/lv_widgets/lv_label.c ****     if(ext->expand != 0) flag |= LV_TXT_FLAG_EXPAND;
 3203              		.loc 1 834 5 is_stmt 1 discriminator 2 view .LVU984
 834:lvgl/src/lv_widgets/lv_label.c ****     if(ext->expand != 0) flag |= LV_TXT_FLAG_EXPAND;
 3204              		.loc 1 834 21 is_stmt 0 discriminator 2 view .LVU985
 3205 0094 A37C     		ldrb	r3, [r4, #18]	@ zero_extendqisi2
 834:lvgl/src/lv_widgets/lv_label.c ****     if(ext->expand != 0) flag |= LV_TXT_FLAG_EXPAND;
 3206              		.loc 1 834 7 discriminator 2 view .LVU986
 3207 0096 13F0400F 		tst	r3, #64
 3208 009a 29D1     		bne	.L221
 831:lvgl/src/lv_widgets/lv_label.c ****     lv_label_align_t align = lv_label_get_align(label);
 3209              		.loc 1 831 19 view .LVU987
 3210 009c 0025     		movs	r5, #0
 3211              	.LVL348:
 3212              	.L205:
 835:lvgl/src/lv_widgets/lv_label.c ****     if(ext->long_mode == LV_LABEL_LONG_EXPAND) flag |= LV_TXT_FLAG_FIT;
 3213              		.loc 1 835 5 is_stmt 1 view .LVU988
 835:lvgl/src/lv_widgets/lv_label.c ****     if(ext->long_mode == LV_LABEL_LONG_EXPAND) flag |= LV_TXT_FLAG_FIT;
 3214              		.loc 1 835 7 is_stmt 0 view .LVU989
 3215 009e 13F0800F 		tst	r3, #128
 3216 00a2 27D1     		bne	.L228
 3217              	.L206:
 836:lvgl/src/lv_widgets/lv_label.c ****     if(align == LV_LABEL_ALIGN_CENTER) flag |= LV_TXT_FLAG_CENTER;
 3218              		.loc 1 836 5 is_stmt 1 view .LVU990
 836:lvgl/src/lv_widgets/lv_label.c ****     if(align == LV_LABEL_ALIGN_CENTER) flag |= LV_TXT_FLAG_CENTER;
 3219              		.loc 1 836 7 is_stmt 0 view .LVU991
 3220 00a4 13F0070F 		tst	r3, #7
 3221 00a8 01D1     		bne	.L207
 836:lvgl/src/lv_widgets/lv_label.c ****     if(align == LV_LABEL_ALIGN_CENTER) flag |= LV_TXT_FLAG_CENTER;
ARM GAS  D:\Temp\cclLOIfg.s 			page 109


 3222              		.loc 1 836 48 is_stmt 1 discriminator 1 view .LVU992
 836:lvgl/src/lv_widgets/lv_label.c ****     if(align == LV_LABEL_ALIGN_CENTER) flag |= LV_TXT_FLAG_CENTER;
 3223              		.loc 1 836 53 is_stmt 0 discriminator 1 view .LVU993
 3224 00aa 45F01005 		orr	r5, r5, #16
 3225              	.LVL349:
 3226              	.L207:
 837:lvgl/src/lv_widgets/lv_label.c **** 
 3227              		.loc 1 837 5 is_stmt 1 view .LVU994
 837:lvgl/src/lv_widgets/lv_label.c **** 
 3228              		.loc 1 837 7 is_stmt 0 view .LVU995
 3229 00ae B9F1010F 		cmp	r9, #1
 3230 00b2 22D0     		beq	.L229
 3231              	.L208:
 831:lvgl/src/lv_widgets/lv_label.c ****     lv_label_align_t align = lv_label_get_align(label);
 3232              		.loc 1 831 19 view .LVU996
 3233 00b4 0024     		movs	r4, #0
 3234              	.LVL350:
 831:lvgl/src/lv_widgets/lv_label.c ****     lv_label_align_t align = lv_label_get_align(label);
 3235              		.loc 1 831 19 view .LVU997
 3236 00b6 2746     		mov	r7, r4
 3237              	.LVL351:
 3238              	.L210:
 840:lvgl/src/lv_widgets/lv_label.c ****         new_line_start += _lv_txt_get_next_line(&txt[line_start], font, letter_space, max_w, flag);
 3239              		.loc 1 840 14 view .LVU998
 3240 00b8 0AEB0703 		add	r3, r10, r7
 3241 00bc 0493     		str	r3, [sp, #16]
 3242 00be 1AF80730 		ldrb	r3, [r10, r7]	@ zero_extendqisi2
 840:lvgl/src/lv_widgets/lv_label.c ****         new_line_start += _lv_txt_get_next_line(&txt[line_start], font, letter_space, max_w, flag);
 3243              		.loc 1 840 10 view .LVU999
 3244 00c2 EBB1     		cbz	r3, .L230
 841:lvgl/src/lv_widgets/lv_label.c **** 
 3245              		.loc 1 841 9 is_stmt 1 view .LVU1000
 841:lvgl/src/lv_widgets/lv_label.c **** 
 3246              		.loc 1 841 27 is_stmt 0 view .LVU1001
 3247 00c4 0095     		str	r5, [sp]
 3248 00c6 079B     		ldr	r3, [sp, #28]
 3249 00c8 4246     		mov	r2, r8
 3250 00ca 0399     		ldr	r1, [sp, #12]
 3251 00cc 0498     		ldr	r0, [sp, #16]
 3252 00ce FFF7FEFF 		bl	_lv_txt_get_next_line
 3253              	.LVL352:
 841:lvgl/src/lv_widgets/lv_label.c **** 
 3254              		.loc 1 841 24 view .LVU1002
 3255 00d2 3844     		add	r0, r0, r7
 3256              	.LVL353:
 843:lvgl/src/lv_widgets/lv_label.c ****         y += letter_height + line_space;
 3257              		.loc 1 843 9 is_stmt 1 view .LVU1003
 843:lvgl/src/lv_widgets/lv_label.c ****         y += letter_height + line_space;
 3258              		.loc 1 843 15 is_stmt 0 view .LVU1004
 3259 00d4 059B     		ldr	r3, [sp, #20]
 3260 00d6 B3F90220 		ldrsh	r2, [r3, #2]
 843:lvgl/src/lv_widgets/lv_label.c ****         y += letter_height + line_space;
 3261              		.loc 1 843 24 view .LVU1005
 3262 00da 04EB0B03 		add	r3, r4, fp
 843:lvgl/src/lv_widgets/lv_label.c ****         y += letter_height + line_space;
 3263              		.loc 1 843 11 view .LVU1006
 3264 00de 9A42     		cmp	r2, r3
ARM GAS  D:\Temp\cclLOIfg.s 			page 110


 3265 00e0 32DD     		ble	.L226
 844:lvgl/src/lv_widgets/lv_label.c **** 
 3266              		.loc 1 844 9 is_stmt 1 view .LVU1007
 844:lvgl/src/lv_widgets/lv_label.c **** 
 3267              		.loc 1 844 28 is_stmt 0 view .LVU1008
 3268 00e2 069B     		ldr	r3, [sp, #24]
 3269 00e4 5B44     		add	r3, fp, r3
 844:lvgl/src/lv_widgets/lv_label.c **** 
 3270              		.loc 1 844 11 view .LVU1009
 3271 00e6 14FA83F3 		uxtah	r3, r4, r3
 3272 00ea 1CB2     		sxth	r4, r3
 3273              	.LVL354:
 846:lvgl/src/lv_widgets/lv_label.c ****     }
 3274              		.loc 1 846 9 is_stmt 1 view .LVU1010
 846:lvgl/src/lv_widgets/lv_label.c ****     }
 3275              		.loc 1 846 20 is_stmt 0 view .LVU1011
 3276 00ec 0746     		mov	r7, r0
 3277 00ee E3E7     		b	.L210
 3278              	.LVL355:
 3279              	.L221:
 834:lvgl/src/lv_widgets/lv_label.c ****     if(ext->expand != 0) flag |= LV_TXT_FLAG_EXPAND;
 3280              		.loc 1 834 32 view .LVU1012
 3281 00f0 0125     		movs	r5, #1
 3282              	.LVL356:
 834:lvgl/src/lv_widgets/lv_label.c ****     if(ext->expand != 0) flag |= LV_TXT_FLAG_EXPAND;
 3283              		.loc 1 834 32 view .LVU1013
 3284 00f2 D4E7     		b	.L205
 3285              	.LVL357:
 3286              	.L228:
 835:lvgl/src/lv_widgets/lv_label.c ****     if(ext->long_mode == LV_LABEL_LONG_EXPAND) flag |= LV_TXT_FLAG_FIT;
 3287              		.loc 1 835 26 is_stmt 1 discriminator 1 view .LVU1014
 835:lvgl/src/lv_widgets/lv_label.c ****     if(ext->long_mode == LV_LABEL_LONG_EXPAND) flag |= LV_TXT_FLAG_FIT;
 3288              		.loc 1 835 31 is_stmt 0 discriminator 1 view .LVU1015
 3289 00f4 45F00205 		orr	r5, r5, #2
 3290              	.LVL358:
 835:lvgl/src/lv_widgets/lv_label.c ****     if(ext->long_mode == LV_LABEL_LONG_EXPAND) flag |= LV_TXT_FLAG_FIT;
 3291              		.loc 1 835 31 discriminator 1 view .LVU1016
 3292 00f8 D4E7     		b	.L206
 3293              	.L229:
 837:lvgl/src/lv_widgets/lv_label.c **** 
 3294              		.loc 1 837 40 is_stmt 1 discriminator 1 view .LVU1017
 837:lvgl/src/lv_widgets/lv_label.c **** 
 3295              		.loc 1 837 45 is_stmt 0 discriminator 1 view .LVU1018
 3296 00fa 45F00405 		orr	r5, r5, #4
 3297              	.LVL359:
 837:lvgl/src/lv_widgets/lv_label.c **** 
 3298              		.loc 1 837 45 discriminator 1 view .LVU1019
 3299 00fe D9E7     		b	.L208
 3300              	.LVL360:
 3301              	.L230:
 837:lvgl/src/lv_widgets/lv_label.c **** 
 3302              		.loc 1 837 45 discriminator 1 view .LVU1020
 3303 0100 3E46     		mov	r6, r7
 3304              	.LVL361:
 3305              	.L209:
 850:lvgl/src/lv_widgets/lv_label.c ****     lv_coord_t last_x = 0;
 3306              		.loc 1 850 5 is_stmt 1 view .LVU1021
ARM GAS  D:\Temp\cclLOIfg.s 			page 111


 851:lvgl/src/lv_widgets/lv_label.c ****     if(align == LV_LABEL_ALIGN_CENTER) {
 3307              		.loc 1 851 5 view .LVU1022
 852:lvgl/src/lv_widgets/lv_label.c ****         lv_coord_t line_w;
 3308              		.loc 1 852 5 view .LVU1023
 852:lvgl/src/lv_widgets/lv_label.c ****         lv_coord_t line_w;
 3309              		.loc 1 852 7 is_stmt 0 view .LVU1024
 3310 0102 B9F1010F 		cmp	r9, #1
 3311 0106 21D0     		beq	.L231
 857:lvgl/src/lv_widgets/lv_label.c ****         lv_coord_t line_w;
 3312              		.loc 1 857 10 is_stmt 1 view .LVU1025
 857:lvgl/src/lv_widgets/lv_label.c ****         lv_coord_t line_w;
 3313              		.loc 1 857 12 is_stmt 0 view .LVU1026
 3314 0108 B9F1020F 		cmp	r9, #2
 3315 010c 37D0     		beq	.L232
 850:lvgl/src/lv_widgets/lv_label.c ****     lv_coord_t last_x = 0;
 3316              		.loc 1 850 16 view .LVU1027
 3317 010e 0024     		movs	r4, #0
 3318              	.LVL362:
 3319              	.L213:
 863:lvgl/src/lv_widgets/lv_label.c **** 
 3320              		.loc 1 863 5 is_stmt 1 view .LVU1028
 863:lvgl/src/lv_widgets/lv_label.c **** 
 3321              		.loc 1 863 24 is_stmt 0 view .LVU1029
 3322 0110 0023     		movs	r3, #0
 3323 0112 8DF82730 		strb	r3, [sp, #39]
 865:lvgl/src/lv_widgets/lv_label.c ****     uint32_t i_current   = i;
 3324              		.loc 1 865 5 is_stmt 1 view .LVU1030
 865:lvgl/src/lv_widgets/lv_label.c ****     uint32_t i_current   = i;
 3325              		.loc 1 865 14 is_stmt 0 view .LVU1031
 3326 0116 0897     		str	r7, [sp, #32]
 866:lvgl/src/lv_widgets/lv_label.c ****     uint32_t letter      = '\0';
 3327              		.loc 1 866 5 is_stmt 1 view .LVU1032
 3328              	.LVL363:
 867:lvgl/src/lv_widgets/lv_label.c ****     uint32_t letter_next = '\0';
 3329              		.loc 1 867 5 view .LVU1033
 868:lvgl/src/lv_widgets/lv_label.c **** 
 3330              		.loc 1 868 5 view .LVU1034
 870:lvgl/src/lv_widgets/lv_label.c ****         while(i <= new_line_start - 1) {
 3331              		.loc 1 870 5 view .LVU1035
 870:lvgl/src/lv_widgets/lv_label.c ****         while(i <= new_line_start - 1) {
 3332              		.loc 1 870 7 is_stmt 0 view .LVU1036
 3333 0118 002E     		cmp	r6, #0
 3334 011a 77D1     		bne	.L223
 3335              	.LVL364:
 868:lvgl/src/lv_widgets/lv_label.c **** 
 3336              		.loc 1 868 14 view .LVU1037
 3337 011c B346     		mov	fp, r6
 3338              	.LVL365:
 851:lvgl/src/lv_widgets/lv_label.c ****     if(align == LV_LABEL_ALIGN_CENTER) {
 3339              		.loc 1 851 16 view .LVU1038
 3340 011e 9946     		mov	r9, r3
 3341              	.LVL366:
 3342              	.L215:
 896:lvgl/src/lv_widgets/lv_label.c ****     return (pos->x >= (last_x - letter_space) && pos->x <= (last_x + max_diff));
 3343              		.loc 1 896 5 is_stmt 1 view .LVU1039
 896:lvgl/src/lv_widgets/lv_label.c ****     return (pos->x >= (last_x - letter_space) && pos->x <= (last_x + max_diff));
 3344              		.loc 1 896 24 is_stmt 0 view .LVU1040
ARM GAS  D:\Temp\cclLOIfg.s 			page 112


 3345 0120 5A46     		mov	r2, fp
 3346 0122 3146     		mov	r1, r6
 3347 0124 0398     		ldr	r0, [sp, #12]
 3348 0126 FFF7FEFF 		bl	lv_font_get_glyph_width
 3349              	.LVL367:
 896:lvgl/src/lv_widgets/lv_label.c ****     return (pos->x >= (last_x - letter_space) && pos->x <= (last_x + max_diff));
 3350              		.loc 1 896 75 view .LVU1041
 3351 012a 00EB0803 		add	r3, r0, r8
 896:lvgl/src/lv_widgets/lv_label.c ****     return (pos->x >= (last_x - letter_space) && pos->x <= (last_x + max_diff));
 3352              		.loc 1 896 13 view .LVU1042
 3353 012e 0133     		adds	r3, r3, #1
 3354              	.LVL368:
 897:lvgl/src/lv_widgets/lv_label.c **** }
 3355              		.loc 1 897 5 is_stmt 1 view .LVU1043
 897:lvgl/src/lv_widgets/lv_label.c **** }
 3356              		.loc 1 897 16 is_stmt 0 view .LVU1044
 3357 0130 059A     		ldr	r2, [sp, #20]
 3358 0132 B2F90020 		ldrsh	r2, [r2]
 897:lvgl/src/lv_widgets/lv_label.c **** }
 3359              		.loc 1 897 31 view .LVU1045
 3360 0136 A9EB0808 		sub	r8, r9, r8
 3361              	.LVL369:
 897:lvgl/src/lv_widgets/lv_label.c **** }
 3362              		.loc 1 897 47 view .LVU1046
 3363 013a 4245     		cmp	r2, r8
 3364 013c 6EDB     		blt	.L224
 897:lvgl/src/lv_widgets/lv_label.c **** }
 3365              		.loc 1 897 68 discriminator 1 view .LVU1047
 3366 013e 9944     		add	r9, r9, r3
 3367              	.LVL370:
 897:lvgl/src/lv_widgets/lv_label.c **** }
 3368              		.loc 1 897 47 discriminator 1 view .LVU1048
 3369 0140 4A45     		cmp	r2, r9
 3370 0142 6FDD     		ble	.L225
 897:lvgl/src/lv_widgets/lv_label.c **** }
 3371              		.loc 1 897 47 view .LVU1049
 3372 0144 0020     		movs	r0, #0
 3373 0146 6AE0     		b	.L220
 3374              	.LVL371:
 3375              	.L226:
 897:lvgl/src/lv_widgets/lv_label.c **** }
 3376              		.loc 1 897 47 view .LVU1050
 3377 0148 0646     		mov	r6, r0
 3378              	.LVL372:
 897:lvgl/src/lv_widgets/lv_label.c **** }
 3379              		.loc 1 897 47 view .LVU1051
 3380 014a DAE7     		b	.L209
 3381              	.LVL373:
 3382              	.L231:
 3383              	.LBB272:
 853:lvgl/src/lv_widgets/lv_label.c ****         line_w = _lv_txt_get_width(&txt[line_start], new_line_start - line_start, font, letter_spac
 3384              		.loc 1 853 9 is_stmt 1 view .LVU1052
 854:lvgl/src/lv_widgets/lv_label.c ****         x += lv_area_get_width(&txt_coords) / 2 - line_w / 2;
 3385              		.loc 1 854 9 view .LVU1053
 854:lvgl/src/lv_widgets/lv_label.c ****         x += lv_area_get_width(&txt_coords) / 2 - line_w / 2;
 3386              		.loc 1 854 18 is_stmt 0 view .LVU1054
 3387 014c 0095     		str	r5, [sp]
ARM GAS  D:\Temp\cclLOIfg.s 			page 113


 3388 014e 4346     		mov	r3, r8
 3389 0150 039A     		ldr	r2, [sp, #12]
 3390 0152 F11B     		subs	r1, r6, r7
 3391 0154 0498     		ldr	r0, [sp, #16]
 3392 0156 FFF7FEFF 		bl	_lv_txt_get_width
 3393              	.LVL374:
 855:lvgl/src/lv_widgets/lv_label.c ****     }
 3394              		.loc 1 855 9 is_stmt 1 view .LVU1055
 3395              	.LBB273:
 3396              	.LBI273:
 107:d:\_project\stm32\f407\hack_rf_new\lvgl\src\lv_misc\lv_area.h **** {
 3397              		.loc 3 107 26 view .LVU1056
 3398              	.LBB274:
 109:d:\_project\stm32\f407\hack_rf_new\lvgl\src\lv_misc\lv_area.h **** }
 3399              		.loc 3 109 5 view .LVU1057
 109:d:\_project\stm32\f407\hack_rf_new\lvgl\src\lv_misc\lv_area.h **** }
 3400              		.loc 3 109 31 is_stmt 0 view .LVU1058
 3401 015a BDF82C30 		ldrh	r3, [sp, #44]
 109:d:\_project\stm32\f407\hack_rf_new\lvgl\src\lv_misc\lv_area.h **** }
 3402              		.loc 3 109 44 view .LVU1059
 3403 015e BDF82820 		ldrh	r2, [sp, #40]
 109:d:\_project\stm32\f407\hack_rf_new\lvgl\src\lv_misc\lv_area.h **** }
 3404              		.loc 3 109 36 view .LVU1060
 3405 0162 9B1A     		subs	r3, r3, r2
 3406 0164 9BB2     		uxth	r3, r3
 109:d:\_project\stm32\f407\hack_rf_new\lvgl\src\lv_misc\lv_area.h **** }
 3407              		.loc 3 109 49 view .LVU1061
 3408 0166 0133     		adds	r3, r3, #1
 109:d:\_project\stm32\f407\hack_rf_new\lvgl\src\lv_misc\lv_area.h **** }
 3409              		.loc 3 109 12 view .LVU1062
 3410 0168 1BB2     		sxth	r3, r3
 3411              	.LVL375:
 109:d:\_project\stm32\f407\hack_rf_new\lvgl\src\lv_misc\lv_area.h **** }
 3412              		.loc 3 109 12 view .LVU1063
 3413              	.LBE274:
 3414              	.LBE273:
 855:lvgl/src/lv_widgets/lv_label.c ****     }
 3415              		.loc 1 855 45 view .LVU1064
 3416 016a 03EBD373 		add	r3, r3, r3, lsr #31
 855:lvgl/src/lv_widgets/lv_label.c ****     }
 3417              		.loc 1 855 58 view .LVU1065
 3418 016e 00EBD070 		add	r0, r0, r0, lsr #31
 3419              	.LVL376:
 855:lvgl/src/lv_widgets/lv_label.c ****     }
 3420              		.loc 1 855 58 view .LVU1066
 3421 0172 40F34F04 		sbfx	r4, r0, #1, #16
 3422              	.LVL377:
 855:lvgl/src/lv_widgets/lv_label.c ****     }
 3423              		.loc 1 855 11 view .LVU1067
 3424 0176 C4EB6303 		rsb	r3, r4, r3, asr #1
 3425 017a 1CB2     		sxth	r4, r3
 3426              	.LVL378:
 855:lvgl/src/lv_widgets/lv_label.c ****     }
 3427              		.loc 1 855 11 view .LVU1068
 3428              	.LBE272:
 3429 017c C8E7     		b	.L213
 3430              	.LVL379:
ARM GAS  D:\Temp\cclLOIfg.s 			page 114


 3431              	.L232:
 3432              	.LBB275:
 858:lvgl/src/lv_widgets/lv_label.c ****         line_w = _lv_txt_get_width(&txt[line_start], new_line_start - line_start, font, letter_spac
 3433              		.loc 1 858 9 is_stmt 1 view .LVU1069
 859:lvgl/src/lv_widgets/lv_label.c ****         x += lv_area_get_width(&txt_coords) - line_w;
 3434              		.loc 1 859 9 view .LVU1070
 859:lvgl/src/lv_widgets/lv_label.c ****         x += lv_area_get_width(&txt_coords) - line_w;
 3435              		.loc 1 859 18 is_stmt 0 view .LVU1071
 3436 017e 0095     		str	r5, [sp]
 3437 0180 4346     		mov	r3, r8
 3438 0182 039A     		ldr	r2, [sp, #12]
 3439 0184 F11B     		subs	r1, r6, r7
 3440 0186 0498     		ldr	r0, [sp, #16]
 3441 0188 FFF7FEFF 		bl	_lv_txt_get_width
 3442              	.LVL380:
 860:lvgl/src/lv_widgets/lv_label.c ****     }
 3443              		.loc 1 860 9 is_stmt 1 view .LVU1072
 3444              	.LBB276:
 3445              	.LBI276:
 107:d:\_project\stm32\f407\hack_rf_new\lvgl\src\lv_misc\lv_area.h **** {
 3446              		.loc 3 107 26 view .LVU1073
 3447              	.LBB277:
 109:d:\_project\stm32\f407\hack_rf_new\lvgl\src\lv_misc\lv_area.h **** }
 3448              		.loc 3 109 5 view .LVU1074
 109:d:\_project\stm32\f407\hack_rf_new\lvgl\src\lv_misc\lv_area.h **** }
 3449              		.loc 3 109 31 is_stmt 0 view .LVU1075
 3450 018c BDF82C30 		ldrh	r3, [sp, #44]
 109:d:\_project\stm32\f407\hack_rf_new\lvgl\src\lv_misc\lv_area.h **** }
 3451              		.loc 3 109 44 view .LVU1076
 3452 0190 BDF82820 		ldrh	r2, [sp, #40]
 109:d:\_project\stm32\f407\hack_rf_new\lvgl\src\lv_misc\lv_area.h **** }
 3453              		.loc 3 109 36 view .LVU1077
 3454 0194 9B1A     		subs	r3, r3, r2
 3455 0196 9BB2     		uxth	r3, r3
 109:d:\_project\stm32\f407\hack_rf_new\lvgl\src\lv_misc\lv_area.h **** }
 3456              		.loc 3 109 49 view .LVU1078
 3457 0198 0133     		adds	r3, r3, #1
 3458 019a 9BB2     		uxth	r3, r3
 3459              	.LVL381:
 109:d:\_project\stm32\f407\hack_rf_new\lvgl\src\lv_misc\lv_area.h **** }
 3460              		.loc 3 109 49 view .LVU1079
 3461              	.LBE277:
 3462              	.LBE276:
 860:lvgl/src/lv_widgets/lv_label.c ****     }
 3463              		.loc 1 860 11 view .LVU1080
 3464 019c 1B1A     		subs	r3, r3, r0
 3465 019e 1CB2     		sxth	r4, r3
 3466              	.LVL382:
 860:lvgl/src/lv_widgets/lv_label.c ****     }
 3467              		.loc 1 860 11 view .LVU1081
 3468 01a0 B6E7     		b	.L213
 3469              	.LVL383:
 3470              	.L216:
 860:lvgl/src/lv_widgets/lv_label.c ****     }
 3471              		.loc 1 860 11 view .LVU1082
 3472              	.LBE275:
 885:lvgl/src/lv_widgets/lv_label.c ****             x += lv_font_get_glyph_width(font, letter, letter_next);
ARM GAS  D:\Temp\cclLOIfg.s 			page 115


 3473              		.loc 1 885 13 is_stmt 1 view .LVU1083
 886:lvgl/src/lv_widgets/lv_label.c ****             if(pos->x < x) {
 3474              		.loc 1 886 13 view .LVU1084
 886:lvgl/src/lv_widgets/lv_label.c ****             if(pos->x < x) {
 3475              		.loc 1 886 18 is_stmt 0 view .LVU1085
 3476 01a2 5A46     		mov	r2, fp
 3477 01a4 0499     		ldr	r1, [sp, #16]
 3478 01a6 0398     		ldr	r0, [sp, #12]
 3479 01a8 FFF7FEFF 		bl	lv_font_get_glyph_width
 3480              	.LVL384:
 886:lvgl/src/lv_widgets/lv_label.c ****             if(pos->x < x) {
 3481              		.loc 1 886 15 view .LVU1086
 3482 01ac 0319     		adds	r3, r0, r4
 3483 01ae 9BB2     		uxth	r3, r3
 3484 01b0 1AB2     		sxth	r2, r3
 3485              	.LVL385:
 887:lvgl/src/lv_widgets/lv_label.c ****                 i = i_current;
 3486              		.loc 1 887 13 is_stmt 1 view .LVU1087
 887:lvgl/src/lv_widgets/lv_label.c ****                 i = i_current;
 3487              		.loc 1 887 19 is_stmt 0 view .LVU1088
 3488 01b2 0599     		ldr	r1, [sp, #20]
 3489 01b4 B1F90010 		ldrsh	r1, [r1]
 887:lvgl/src/lv_widgets/lv_label.c ****                 i = i_current;
 3490              		.loc 1 887 15 view .LVU1089
 3491 01b8 9142     		cmp	r1, r2
 3492 01ba 23DB     		blt	.L233
 891:lvgl/src/lv_widgets/lv_label.c ****             i_current = i;
 3493              		.loc 1 891 13 is_stmt 1 view .LVU1090
 891:lvgl/src/lv_widgets/lv_label.c ****             i_current = i;
 3494              		.loc 1 891 15 is_stmt 0 view .LVU1091
 3495 01bc 4344     		add	r3, r3, r8
 3496              	.LVL386:
 892:lvgl/src/lv_widgets/lv_label.c ****         }
 3497              		.loc 1 892 13 is_stmt 1 view .LVU1092
 892:lvgl/src/lv_widgets/lv_label.c ****         }
 3498              		.loc 1 892 23 is_stmt 0 view .LVU1093
 3499 01be 089F     		ldr	r7, [sp, #32]
 3500              	.LVL387:
 885:lvgl/src/lv_widgets/lv_label.c ****             x += lv_font_get_glyph_width(font, letter, letter_next);
 3501              		.loc 1 885 20 view .LVU1094
 3502 01c0 A146     		mov	r9, r4
 891:lvgl/src/lv_widgets/lv_label.c ****             i_current = i;
 3503              		.loc 1 891 15 view .LVU1095
 3504 01c2 1CB2     		sxth	r4, r3
 3505              	.LVL388:
 3506              	.L214:
 871:lvgl/src/lv_widgets/lv_label.c ****             /* Get the current letter
 3507              		.loc 1 871 35 view .LVU1096
 3508 01c4 731E     		subs	r3, r6, #1
 871:lvgl/src/lv_widgets/lv_label.c ****             /* Get the current letter
 3509              		.loc 1 871 17 view .LVU1097
 3510 01c6 089A     		ldr	r2, [sp, #32]
 871:lvgl/src/lv_widgets/lv_label.c ****             /* Get the current letter
 3511              		.loc 1 871 14 view .LVU1098
 3512 01c8 9342     		cmp	r3, r2
 3513 01ca 25D3     		bcc	.L234
 874:lvgl/src/lv_widgets/lv_label.c **** 
ARM GAS  D:\Temp\cclLOIfg.s 			page 116


 3514              		.loc 1 874 13 is_stmt 1 view .LVU1099
 874:lvgl/src/lv_widgets/lv_label.c **** 
 3515              		.loc 1 874 22 is_stmt 0 view .LVU1100
 3516 01cc DFF85CB0 		ldr	fp, .L235+4
 3517              	.LVL389:
 874:lvgl/src/lv_widgets/lv_label.c **** 
 3518              		.loc 1 874 22 view .LVU1101
 3519 01d0 DBF80030 		ldr	r3, [fp]
 3520 01d4 08A9     		add	r1, sp, #32
 3521 01d6 5046     		mov	r0, r10
 3522 01d8 9847     		blx	r3
 3523              	.LVL390:
 3524 01da 0490     		str	r0, [sp, #16]
 3525              	.LVL391:
 877:lvgl/src/lv_widgets/lv_label.c **** 
 3526              		.loc 1 877 13 is_stmt 1 view .LVU1102
 877:lvgl/src/lv_widgets/lv_label.c **** 
 3527              		.loc 1 877 27 is_stmt 0 view .LVU1103
 3528 01dc DBF80030 		ldr	r3, [fp]
 3529 01e0 0021     		movs	r1, #0
 3530 01e2 0898     		ldr	r0, [sp, #32]
 3531              	.LVL392:
 877:lvgl/src/lv_widgets/lv_label.c **** 
 3532              		.loc 1 877 27 view .LVU1104
 3533 01e4 5044     		add	r0, r0, r10
 3534 01e6 9847     		blx	r3
 3535              	.LVL393:
 3536 01e8 8346     		mov	fp, r0
 3537              	.LVL394:
 880:lvgl/src/lv_widgets/lv_label.c ****                 if(_lv_txt_is_cmd(&cmd_state, txt[i]) != false) {
 3538              		.loc 1 880 13 is_stmt 1 view .LVU1105
 880:lvgl/src/lv_widgets/lv_label.c ****                 if(_lv_txt_is_cmd(&cmd_state, txt[i]) != false) {
 3539              		.loc 1 880 15 is_stmt 0 view .LVU1106
 3540 01ea 15F0010F 		tst	r5, #1
 3541 01ee D8D0     		beq	.L216
 881:lvgl/src/lv_widgets/lv_label.c ****                     continue; /*Skip the letter is it is part of a command*/
 3542              		.loc 1 881 17 is_stmt 1 view .LVU1107
 881:lvgl/src/lv_widgets/lv_label.c ****                     continue; /*Skip the letter is it is part of a command*/
 3543              		.loc 1 881 20 is_stmt 0 view .LVU1108
 3544 01f0 089B     		ldr	r3, [sp, #32]
 3545 01f2 1AF80310 		ldrb	r1, [r10, r3]	@ zero_extendqisi2
 3546 01f6 0DF12700 		add	r0, sp, #39
 3547              	.LVL395:
 881:lvgl/src/lv_widgets/lv_label.c ****                     continue; /*Skip the letter is it is part of a command*/
 3548              		.loc 1 881 20 view .LVU1109
 3549 01fa FFF7FEFF 		bl	_lv_txt_is_cmd
 3550              	.LVL396:
 881:lvgl/src/lv_widgets/lv_label.c ****                     continue; /*Skip the letter is it is part of a command*/
 3551              		.loc 1 881 19 view .LVU1110
 3552 01fe 0028     		cmp	r0, #0
 3553 0200 CFD0     		beq	.L216
 3554 0202 DFE7     		b	.L214
 3555              	.LVL397:
 3556              	.L233:
 888:lvgl/src/lv_widgets/lv_label.c ****                 break;
 3557              		.loc 1 888 17 is_stmt 1 view .LVU1111
 888:lvgl/src/lv_widgets/lv_label.c ****                 break;
ARM GAS  D:\Temp\cclLOIfg.s 			page 117


 3558              		.loc 1 888 19 is_stmt 0 view .LVU1112
 3559 0204 0897     		str	r7, [sp, #32]
 889:lvgl/src/lv_widgets/lv_label.c ****             }
 3560              		.loc 1 889 17 is_stmt 1 view .LVU1113
 874:lvgl/src/lv_widgets/lv_label.c **** 
 3561              		.loc 1 874 22 is_stmt 0 view .LVU1114
 3562 0206 049E     		ldr	r6, [sp, #16]
 3563              	.LVL398:
 885:lvgl/src/lv_widgets/lv_label.c ****             x += lv_font_get_glyph_width(font, letter, letter_next);
 3564              		.loc 1 885 20 view .LVU1115
 3565 0208 A146     		mov	r9, r4
 889:lvgl/src/lv_widgets/lv_label.c ****             }
 3566              		.loc 1 889 17 view .LVU1116
 3567 020a 89E7     		b	.L215
 3568              	.LVL399:
 3569              	.L223:
 868:lvgl/src/lv_widgets/lv_label.c **** 
 3570              		.loc 1 868 14 view .LVU1117
 3571 020c 4FF0000B 		mov	fp, #0
 3572              	.LVL400:
 867:lvgl/src/lv_widgets/lv_label.c ****     uint32_t letter_next = '\0';
 3573              		.loc 1 867 14 view .LVU1118
 3574 0210 CDF810B0 		str	fp, [sp, #16]
 851:lvgl/src/lv_widgets/lv_label.c ****     if(align == LV_LABEL_ALIGN_CENTER) {
 3575              		.loc 1 851 16 view .LVU1119
 3576 0214 D946     		mov	r9, fp
 3577              	.LVL401:
 851:lvgl/src/lv_widgets/lv_label.c ****     if(align == LV_LABEL_ALIGN_CENTER) {
 3578              		.loc 1 851 16 view .LVU1120
 3579 0216 D5E7     		b	.L214
 3580              	.LVL402:
 3581              	.L234:
 851:lvgl/src/lv_widgets/lv_label.c ****     if(align == LV_LABEL_ALIGN_CENTER) {
 3582              		.loc 1 851 16 view .LVU1121
 3583 0218 049E     		ldr	r6, [sp, #16]
 3584              	.LVL403:
 851:lvgl/src/lv_widgets/lv_label.c ****     if(align == LV_LABEL_ALIGN_CENTER) {
 3585              		.loc 1 851 16 view .LVU1122
 3586 021a 81E7     		b	.L215
 3587              	.LVL404:
 3588              	.L224:
 897:lvgl/src/lv_widgets/lv_label.c **** }
 3589              		.loc 1 897 47 view .LVU1123
 3590 021c 0020     		movs	r0, #0
 3591              	.LVL405:
 3592              	.L220:
 898:lvgl/src/lv_widgets/lv_label.c **** 
 3593              		.loc 1 898 1 discriminator 6 view .LVU1124
 3594 021e 0DB0     		add	sp, sp, #52
 3595              	.LCFI32:
 3596              		.cfi_remember_state
 3597              		.cfi_def_cfa_offset 36
 3598              		@ sp needed
 3599 0220 BDE8F08F 		pop	{r4, r5, r6, r7, r8, r9, r10, fp, pc}
 3600              	.LVL406:
 3601              	.L225:
 3602              	.LCFI33:
ARM GAS  D:\Temp\cclLOIfg.s 			page 118


 3603              		.cfi_restore_state
 897:lvgl/src/lv_widgets/lv_label.c **** }
 3604              		.loc 1 897 47 view .LVU1125
 3605 0224 0120     		movs	r0, #1
 3606 0226 FAE7     		b	.L220
 3607              	.L236:
 3608              		.align	2
 3609              	.L235:
 3610 0228 00000000 		.word	.LC0
 3611 022c 00000000 		.word	_lv_txt_encoded_next
 3612              		.cfi_endproc
 3613              	.LFE477:
 3615              		.section	.text.lv_label_get_style,"ax",%progbits
 3616              		.align	1
 3617              		.global	lv_label_get_style
 3618              		.syntax unified
 3619              		.thumb
 3620              		.thumb_func
 3621              		.fpu fpv4-sp-d16
 3623              	lv_label_get_style:
 3624              	.LVL407:
 3625              	.LFB478:
 901:lvgl/src/lv_widgets/lv_label.c ****     lv_style_list_t * style_dsc_p;
 3626              		.loc 1 901 1 is_stmt 1 view -0
 3627              		.cfi_startproc
 3628              		@ args = 0, pretend = 0, frame = 0
 3629              		@ frame_needed = 0, uses_anonymous_args = 0
 3630              		@ link register save eliminated.
 902:lvgl/src/lv_widgets/lv_label.c ****     switch(type) {
 3631              		.loc 1 902 5 view .LVU1127
 903:lvgl/src/lv_widgets/lv_label.c ****         case LV_LABEL_PART_MAIN:
 3632              		.loc 1 903 5 view .LVU1128
 3633 0000 09B9     		cbnz	r1, .L239
 905:lvgl/src/lv_widgets/lv_label.c ****             break;
 3634              		.loc 1 905 13 view .LVU1129
 905:lvgl/src/lv_widgets/lv_label.c ****             break;
 3635              		.loc 1 905 25 is_stmt 0 view .LVU1130
 3636 0002 2830     		adds	r0, r0, #40
 3637              	.LVL408:
 906:lvgl/src/lv_widgets/lv_label.c ****         default:
 3638              		.loc 1 906 13 is_stmt 1 view .LVU1131
 3639 0004 7047     		bx	lr
 3640              	.LVL409:
 3641              	.L239:
 908:lvgl/src/lv_widgets/lv_label.c ****     }
 3642              		.loc 1 908 25 is_stmt 0 view .LVU1132
 3643 0006 0020     		movs	r0, #0
 3644              	.LVL410:
 911:lvgl/src/lv_widgets/lv_label.c **** }
 3645              		.loc 1 911 5 is_stmt 1 view .LVU1133
 912:lvgl/src/lv_widgets/lv_label.c **** /*=====================
 3646              		.loc 1 912 1 is_stmt 0 view .LVU1134
 3647 0008 7047     		bx	lr
 3648              		.cfi_endproc
 3649              	.LFE478:
 3651              		.section	.text.lv_label_refr_text,"ax",%progbits
 3652              		.align	1
ARM GAS  D:\Temp\cclLOIfg.s 			page 119


 3653              		.global	lv_label_refr_text
 3654              		.syntax unified
 3655              		.thumb
 3656              		.thumb_func
 3657              		.fpu fpv4-sp-d16
 3659              	lv_label_refr_text:
 3660              	.LVL411:
 3661              	.LFB481:
 994:lvgl/src/lv_widgets/lv_label.c ****     lv_label_ext_t * ext = lv_obj_get_ext_attr(label);
 3662              		.loc 1 994 1 is_stmt 1 view -0
 3663              		.cfi_startproc
 3664              		@ args = 0, pretend = 0, frame = 88
 3665              		@ frame_needed = 0, uses_anonymous_args = 0
 994:lvgl/src/lv_widgets/lv_label.c ****     lv_label_ext_t * ext = lv_obj_get_ext_attr(label);
 3666              		.loc 1 994 1 is_stmt 0 view .LVU1136
 3667 0000 2DE9F047 		push	{r4, r5, r6, r7, r8, r9, r10, lr}
 3668              	.LCFI34:
 3669              		.cfi_def_cfa_offset 32
 3670              		.cfi_offset 4, -32
 3671              		.cfi_offset 5, -28
 3672              		.cfi_offset 6, -24
 3673              		.cfi_offset 7, -20
 3674              		.cfi_offset 8, -16
 3675              		.cfi_offset 9, -12
 3676              		.cfi_offset 10, -8
 3677              		.cfi_offset 14, -4
 3678 0004 9AB0     		sub	sp, sp, #104
 3679              	.LCFI35:
 3680              		.cfi_def_cfa_offset 136
 3681 0006 0546     		mov	r5, r0
 995:lvgl/src/lv_widgets/lv_label.c **** 
 3682              		.loc 1 995 5 is_stmt 1 view .LVU1137
 995:lvgl/src/lv_widgets/lv_label.c **** 
 3683              		.loc 1 995 28 is_stmt 0 view .LVU1138
 3684 0008 FFF7FEFF 		bl	lv_obj_get_ext_attr
 3685              	.LVL412:
 997:lvgl/src/lv_widgets/lv_label.c **** #if LV_LABEL_LONG_TXT_HINT
 3686              		.loc 1 997 5 is_stmt 1 view .LVU1139
 997:lvgl/src/lv_widgets/lv_label.c **** #if LV_LABEL_LONG_TXT_HINT
 3687              		.loc 1 997 11 is_stmt 0 view .LVU1140
 3688 000c 0368     		ldr	r3, [r0]
 997:lvgl/src/lv_widgets/lv_label.c **** #if LV_LABEL_LONG_TXT_HINT
 3689              		.loc 1 997 7 view .LVU1141
 3690 000e 002B     		cmp	r3, #0
 3691 0010 00F08D80 		beq	.L240
 3692 0014 0646     		mov	r6, r0
1002:lvgl/src/lv_widgets/lv_label.c ****     get_txt_coords(label, &txt_coords);
 3693              		.loc 1 1002 5 is_stmt 1 view .LVU1142
1003:lvgl/src/lv_widgets/lv_label.c ****     lv_coord_t max_w         = lv_area_get_width(&txt_coords);
 3694              		.loc 1 1003 5 view .LVU1143
 3695 0016 18A9     		add	r1, sp, #96
 3696 0018 2846     		mov	r0, r5
 3697              	.LVL413:
1003:lvgl/src/lv_widgets/lv_label.c ****     lv_coord_t max_w         = lv_area_get_width(&txt_coords);
 3698              		.loc 1 1003 5 is_stmt 0 view .LVU1144
 3699 001a FFF7FEFF 		bl	get_txt_coords
 3700              	.LVL414:
ARM GAS  D:\Temp\cclLOIfg.s 			page 120


1004:lvgl/src/lv_widgets/lv_label.c ****     const lv_font_t * font   = lv_obj_get_style_text_font(label, LV_LABEL_PART_MAIN);
 3701              		.loc 1 1004 5 is_stmt 1 view .LVU1145
 3702              	.LBB278:
 3703              	.LBI278:
 107:d:\_project\stm32\f407\hack_rf_new\lvgl\src\lv_misc\lv_area.h **** {
 3704              		.loc 3 107 26 view .LVU1146
 3705              	.LBB279:
 109:d:\_project\stm32\f407\hack_rf_new\lvgl\src\lv_misc\lv_area.h **** }
 3706              		.loc 3 109 5 view .LVU1147
 109:d:\_project\stm32\f407\hack_rf_new\lvgl\src\lv_misc\lv_area.h **** }
 3707              		.loc 3 109 31 is_stmt 0 view .LVU1148
 3708 001e BDF86440 		ldrh	r4, [sp, #100]
 109:d:\_project\stm32\f407\hack_rf_new\lvgl\src\lv_misc\lv_area.h **** }
 3709              		.loc 3 109 44 view .LVU1149
 3710 0022 BDF86030 		ldrh	r3, [sp, #96]
 109:d:\_project\stm32\f407\hack_rf_new\lvgl\src\lv_misc\lv_area.h **** }
 3711              		.loc 3 109 36 view .LVU1150
 3712 0026 E41A     		subs	r4, r4, r3
 3713 0028 A4B2     		uxth	r4, r4
 109:d:\_project\stm32\f407\hack_rf_new\lvgl\src\lv_misc\lv_area.h **** }
 3714              		.loc 3 109 49 view .LVU1151
 3715 002a 0134     		adds	r4, r4, #1
 109:d:\_project\stm32\f407\hack_rf_new\lvgl\src\lv_misc\lv_area.h **** }
 3716              		.loc 3 109 12 view .LVU1152
 3717 002c 24B2     		sxth	r4, r4
 3718              	.LVL415:
 109:d:\_project\stm32\f407\hack_rf_new\lvgl\src\lv_misc\lv_area.h **** }
 3719              		.loc 3 109 12 view .LVU1153
 3720              	.LBE279:
 3721              	.LBE278:
1005:lvgl/src/lv_widgets/lv_label.c ****     lv_style_int_t line_space = lv_obj_get_style_text_line_space(label, LV_LABEL_PART_MAIN);
 3722              		.loc 1 1005 5 is_stmt 1 view .LVU1154
 3723              	.LBB280:
 3724              	.LBI280:
 3725              		.loc 2 168 1 view .LVU1155
 3726              	.LBB281:
 3727              		.loc 2 168 1 view .LVU1156
 3728 002e 48F28E02 		movw	r2, #32910
 3729 0032 0021     		movs	r1, #0
 3730 0034 2846     		mov	r0, r5
 3731 0036 FFF7FEFF 		bl	_lv_obj_get_style_ptr
 3732              	.LVL416:
 3733 003a 8046     		mov	r8, r0
 3734              	.LVL417:
 3735              		.loc 2 168 1 is_stmt 0 view .LVU1157
 3736              	.LBE281:
 3737              	.LBE280:
1006:lvgl/src/lv_widgets/lv_label.c ****     lv_style_int_t letter_space = lv_obj_get_style_text_letter_space(label, LV_LABEL_PART_MAIN);
 3738              		.loc 1 1006 5 is_stmt 1 view .LVU1158
 3739              	.LBB282:
 3740              	.LBI282:
 161:lvgl/src/lv_widgets/../lv_core/lv_obj_style_dec.h **** _LV_OBJ_STYLE_SET_GET_DECLARE(TEXT_DECOR, text_decor, lv_text_decor_t, _int, scalar)
 3741              		.loc 2 161 1 view .LVU1159
 3742              	.LBB283:
 161:lvgl/src/lv_widgets/../lv_core/lv_obj_style_dec.h **** _LV_OBJ_STYLE_SET_GET_DECLARE(TEXT_DECOR, text_decor, lv_text_decor_t, _int, scalar)
 3743              		.loc 2 161 1 view .LVU1160
 3744 003c 48F28102 		movw	r2, #32897
ARM GAS  D:\Temp\cclLOIfg.s 			page 121


 3745 0040 0021     		movs	r1, #0
 3746 0042 2846     		mov	r0, r5
 3747              	.LVL418:
 161:lvgl/src/lv_widgets/../lv_core/lv_obj_style_dec.h **** _LV_OBJ_STYLE_SET_GET_DECLARE(TEXT_DECOR, text_decor, lv_text_decor_t, _int, scalar)
 3748              		.loc 2 161 1 is_stmt 0 view .LVU1161
 3749 0044 FFF7FEFF 		bl	_lv_obj_get_style_int
 3750              	.LVL419:
 3751 0048 8146     		mov	r9, r0
 3752              	.LVL420:
 161:lvgl/src/lv_widgets/../lv_core/lv_obj_style_dec.h **** _LV_OBJ_STYLE_SET_GET_DECLARE(TEXT_DECOR, text_decor, lv_text_decor_t, _int, scalar)
 3753              		.loc 2 161 1 view .LVU1162
 3754              	.LBE283:
 3755              	.LBE282:
1007:lvgl/src/lv_widgets/lv_label.c **** 
 3756              		.loc 1 1007 5 is_stmt 1 view .LVU1163
 3757              	.LBB284:
 3758              	.LBI284:
 160:lvgl/src/lv_widgets/../lv_core/lv_obj_style_dec.h **** _LV_OBJ_STYLE_SET_GET_DECLARE(TEXT_LINE_SPACE, text_line_space, lv_style_int_t, _int, scalar)
 3759              		.loc 2 160 1 view .LVU1164
 3760              	.LBB285:
 160:lvgl/src/lv_widgets/../lv_core/lv_obj_style_dec.h **** _LV_OBJ_STYLE_SET_GET_DECLARE(TEXT_LINE_SPACE, text_line_space, lv_style_int_t, _int, scalar)
 3761              		.loc 2 160 1 view .LVU1165
 3762 004a 48F28002 		movw	r2, #32896
 3763 004e 0021     		movs	r1, #0
 3764 0050 2846     		mov	r0, r5
 3765 0052 FFF7FEFF 		bl	_lv_obj_get_style_int
 3766              	.LVL421:
 3767 0056 0746     		mov	r7, r0
 3768              	.LVL422:
 160:lvgl/src/lv_widgets/../lv_core/lv_obj_style_dec.h **** _LV_OBJ_STYLE_SET_GET_DECLARE(TEXT_LINE_SPACE, text_line_space, lv_style_int_t, _int, scalar)
 3769              		.loc 2 160 1 is_stmt 0 view .LVU1166
 3770              	.LBE285:
 3771              	.LBE284:
1010:lvgl/src/lv_widgets/lv_label.c ****     lv_txt_flag_t flag = LV_TXT_FLAG_NONE;
 3772              		.loc 1 1010 5 is_stmt 1 view .LVU1167
1011:lvgl/src/lv_widgets/lv_label.c ****     if(ext->recolor != 0) flag |= LV_TXT_FLAG_RECOLOR;
 3773              		.loc 1 1011 5 view .LVU1168
1012:lvgl/src/lv_widgets/lv_label.c ****     if(ext->expand != 0) flag |= LV_TXT_FLAG_EXPAND;
 3774              		.loc 1 1012 5 view .LVU1169
1012:lvgl/src/lv_widgets/lv_label.c ****     if(ext->expand != 0) flag |= LV_TXT_FLAG_EXPAND;
 3775              		.loc 1 1012 21 is_stmt 0 view .LVU1170
 3776 0058 B37C     		ldrb	r3, [r6, #18]	@ zero_extendqisi2
1012:lvgl/src/lv_widgets/lv_label.c ****     if(ext->expand != 0) flag |= LV_TXT_FLAG_EXPAND;
 3777              		.loc 1 1012 7 view .LVU1171
 3778 005a 13F0400F 		tst	r3, #64
 3779 005e 36D1     		bne	.L278
1011:lvgl/src/lv_widgets/lv_label.c ****     if(ext->recolor != 0) flag |= LV_TXT_FLAG_RECOLOR;
 3780              		.loc 1 1011 19 view .LVU1172
 3781 0060 0022     		movs	r2, #0
 3782              	.L243:
 3783              	.LVL423:
1013:lvgl/src/lv_widgets/lv_label.c ****     if(ext->long_mode == LV_LABEL_LONG_EXPAND) flag |= LV_TXT_FLAG_FIT;
 3784              		.loc 1 1013 5 is_stmt 1 view .LVU1173
1013:lvgl/src/lv_widgets/lv_label.c ****     if(ext->long_mode == LV_LABEL_LONG_EXPAND) flag |= LV_TXT_FLAG_FIT;
 3785              		.loc 1 1013 7 is_stmt 0 view .LVU1174
 3786 0062 13F0800F 		tst	r3, #128
 3787 0066 34D1     		bne	.L285
ARM GAS  D:\Temp\cclLOIfg.s 			page 122


 3788              	.L244:
1014:lvgl/src/lv_widgets/lv_label.c ****     _lv_txt_get_size(&size, ext->text, font, letter_space, line_space, max_w, flag);
 3789              		.loc 1 1014 5 is_stmt 1 view .LVU1175
1014:lvgl/src/lv_widgets/lv_label.c ****     _lv_txt_get_size(&size, ext->text, font, letter_space, line_space, max_w, flag);
 3790              		.loc 1 1014 7 is_stmt 0 view .LVU1176
 3791 0068 13F0070F 		tst	r3, #7
 3792 006c 01D1     		bne	.L245
1014:lvgl/src/lv_widgets/lv_label.c ****     _lv_txt_get_size(&size, ext->text, font, letter_space, line_space, max_w, flag);
 3793              		.loc 1 1014 48 is_stmt 1 discriminator 1 view .LVU1177
1014:lvgl/src/lv_widgets/lv_label.c ****     _lv_txt_get_size(&size, ext->text, font, letter_space, line_space, max_w, flag);
 3794              		.loc 1 1014 53 is_stmt 0 discriminator 1 view .LVU1178
 3795 006e 42F01002 		orr	r2, r2, #16
 3796              	.LVL424:
 3797              	.L245:
1015:lvgl/src/lv_widgets/lv_label.c **** 
 3798              		.loc 1 1015 5 is_stmt 1 view .LVU1179
1015:lvgl/src/lv_widgets/lv_label.c **** 
 3799              		.loc 1 1015 32 is_stmt 0 view .LVU1180
 3800 0072 3168     		ldr	r1, [r6]
1015:lvgl/src/lv_widgets/lv_label.c **** 
 3801              		.loc 1 1015 5 view .LVU1181
 3802 0074 0292     		str	r2, [sp, #8]
 3803 0076 0194     		str	r4, [sp, #4]
 3804 0078 CDF80090 		str	r9, [sp]
 3805 007c 3B46     		mov	r3, r7
 3806 007e 4246     		mov	r2, r8
 3807              	.LVL425:
1015:lvgl/src/lv_widgets/lv_label.c **** 
 3808              		.loc 1 1015 5 view .LVU1182
 3809 0080 17A8     		add	r0, sp, #92
 3810 0082 FFF7FEFF 		bl	_lv_txt_get_size
 3811              	.LVL426:
1018:lvgl/src/lv_widgets/lv_label.c ****         size.x += lv_obj_get_style_pad_left(label, LV_LABEL_PART_MAIN) + lv_obj_get_style_pad_right
 3812              		.loc 1 1018 5 is_stmt 1 view .LVU1183
1018:lvgl/src/lv_widgets/lv_label.c ****         size.x += lv_obj_get_style_pad_left(label, LV_LABEL_PART_MAIN) + lv_obj_get_style_pad_right
 3813              		.loc 1 1018 23 is_stmt 0 view .LVU1184
 3814 0086 B37C     		ldrb	r3, [r6, #18]	@ zero_extendqisi2
1018:lvgl/src/lv_widgets/lv_label.c ****         size.x += lv_obj_get_style_pad_left(label, LV_LABEL_PART_MAIN) + lv_obj_get_style_pad_right
 3815              		.loc 1 1018 7 view .LVU1185
 3816 0088 13F00703 		ands	r3, r3, #7
 3817 008c 24D0     		beq	.L286
1024:lvgl/src/lv_widgets/lv_label.c **** #if LV_USE_ANIMATION
 3818              		.loc 1 1024 10 is_stmt 1 view .LVU1186
1024:lvgl/src/lv_widgets/lv_label.c **** #if LV_USE_ANIMATION
 3819              		.loc 1 1024 12 is_stmt 0 view .LVU1187
 3820 008e 032B     		cmp	r3, #3
 3821 0090 50D0     		beq	.L287
1107:lvgl/src/lv_widgets/lv_label.c **** #if LV_USE_ANIMATION
 3822              		.loc 1 1107 10 is_stmt 1 view .LVU1188
1107:lvgl/src/lv_widgets/lv_label.c **** #if LV_USE_ANIMATION
 3823              		.loc 1 1107 12 is_stmt 0 view .LVU1189
 3824 0092 042B     		cmp	r3, #4
 3825 0094 00F0FD80 		beq	.L288
1157:lvgl/src/lv_widgets/lv_label.c ****         if(size.y <= lv_area_get_height(&txt_coords)) { /*No dots are required, the text is short e
 3826              		.loc 1 1157 10 is_stmt 1 view .LVU1190
1157:lvgl/src/lv_widgets/lv_label.c ****         if(size.y <= lv_area_get_height(&txt_coords)) { /*No dots are required, the text is short e
 3827              		.loc 1 1157 12 is_stmt 0 view .LVU1191
ARM GAS  D:\Temp\cclLOIfg.s 			page 123


 3828 0098 022B     		cmp	r3, #2
 3829 009a 00F07A81 		beq	.L289
1211:lvgl/src/lv_widgets/lv_label.c ****         size.y += lv_obj_get_style_pad_top(label, LV_LABEL_PART_MAIN) + lv_obj_get_style_pad_bottom
 3830              		.loc 1 1211 10 is_stmt 1 view .LVU1192
1211:lvgl/src/lv_widgets/lv_label.c ****         size.y += lv_obj_get_style_pad_top(label, LV_LABEL_PART_MAIN) + lv_obj_get_style_pad_bottom
 3831              		.loc 1 1211 12 is_stmt 0 view .LVU1193
 3832 009e 012B     		cmp	r3, #1
 3833 00a0 42D1     		bne	.L247
1212:lvgl/src/lv_widgets/lv_label.c ****         lv_obj_set_height(label, size.y);
 3834              		.loc 1 1212 9 is_stmt 1 view .LVU1194
 3835              	.LVL427:
 3836              	.LBB286:
 3837              	.LBI286:
 110:lvgl/src/lv_widgets/../lv_core/lv_obj_style_dec.h **** _LV_OBJ_STYLE_SET_GET_DECLARE(PAD_BOTTOM, pad_bottom, lv_style_int_t, _int, scalar)
 3838              		.loc 2 110 1 view .LVU1195
 3839              	.LBB287:
 110:lvgl/src/lv_widgets/../lv_core/lv_obj_style_dec.h **** _LV_OBJ_STYLE_SET_GET_DECLARE(PAD_BOTTOM, pad_bottom, lv_style_int_t, _int, scalar)
 3840              		.loc 2 110 1 view .LVU1196
 3841 00a2 1022     		movs	r2, #16
 3842 00a4 0021     		movs	r1, #0
 3843 00a6 2846     		mov	r0, r5
 3844 00a8 FFF7FEFF 		bl	_lv_obj_get_style_int
 3845              	.LVL428:
 3846 00ac 0446     		mov	r4, r0
 3847              	.LVL429:
 110:lvgl/src/lv_widgets/../lv_core/lv_obj_style_dec.h **** _LV_OBJ_STYLE_SET_GET_DECLARE(PAD_BOTTOM, pad_bottom, lv_style_int_t, _int, scalar)
 3848              		.loc 2 110 1 is_stmt 0 view .LVU1197
 3849              	.LBE287:
 3850              	.LBE286:
 3851              	.LBB288:
 3852              	.LBI288:
 111:lvgl/src/lv_widgets/../lv_core/lv_obj_style_dec.h **** _LV_OBJ_STYLE_SET_GET_DECLARE(PAD_LEFT, pad_left, lv_style_int_t, _int, scalar)
 3853              		.loc 2 111 1 is_stmt 1 view .LVU1198
 3854              	.LBB289:
 111:lvgl/src/lv_widgets/../lv_core/lv_obj_style_dec.h **** _LV_OBJ_STYLE_SET_GET_DECLARE(PAD_LEFT, pad_left, lv_style_int_t, _int, scalar)
 3855              		.loc 2 111 1 view .LVU1199
 3856 00ae 1122     		movs	r2, #17
 3857 00b0 0021     		movs	r1, #0
 3858 00b2 2846     		mov	r0, r5
 3859 00b4 FFF7FEFF 		bl	_lv_obj_get_style_int
 3860              	.LVL430:
 111:lvgl/src/lv_widgets/../lv_core/lv_obj_style_dec.h **** _LV_OBJ_STYLE_SET_GET_DECLARE(PAD_LEFT, pad_left, lv_style_int_t, _int, scalar)
 3861              		.loc 2 111 1 is_stmt 0 view .LVU1200
 3862              	.LBE289:
 3863              	.LBE288:
1212:lvgl/src/lv_widgets/lv_label.c ****         lv_obj_set_height(label, size.y);
 3864              		.loc 1 1212 71 view .LVU1201
 3865 00b8 2118     		adds	r1, r4, r0
1212:lvgl/src/lv_widgets/lv_label.c ****         lv_obj_set_height(label, size.y);
 3866              		.loc 1 1212 16 view .LVU1202
 3867 00ba BDF85E00 		ldrh	r0, [sp, #94]
 3868 00be 0144     		add	r1, r1, r0
 3869 00c0 09B2     		sxth	r1, r1
 3870 00c2 ADF85E10 		strh	r1, [sp, #94]	@ movhi
1213:lvgl/src/lv_widgets/lv_label.c ****     }
 3871              		.loc 1 1213 9 is_stmt 1 view .LVU1203
 3872 00c6 2846     		mov	r0, r5
ARM GAS  D:\Temp\cclLOIfg.s 			page 124


 3873 00c8 FFF7FEFF 		bl	lv_obj_set_height
 3874              	.LVL431:
 3875 00cc 2CE0     		b	.L247
 3876              	.LVL432:
 3877              	.L278:
1012:lvgl/src/lv_widgets/lv_label.c ****     if(ext->expand != 0) flag |= LV_TXT_FLAG_EXPAND;
 3878              		.loc 1 1012 32 is_stmt 0 view .LVU1204
 3879 00ce 0122     		movs	r2, #1
 3880 00d0 C7E7     		b	.L243
 3881              	.LVL433:
 3882              	.L285:
1013:lvgl/src/lv_widgets/lv_label.c ****     if(ext->long_mode == LV_LABEL_LONG_EXPAND) flag |= LV_TXT_FLAG_FIT;
 3883              		.loc 1 1013 26 is_stmt 1 discriminator 1 view .LVU1205
1013:lvgl/src/lv_widgets/lv_label.c ****     if(ext->long_mode == LV_LABEL_LONG_EXPAND) flag |= LV_TXT_FLAG_FIT;
 3884              		.loc 1 1013 31 is_stmt 0 discriminator 1 view .LVU1206
 3885 00d2 42F00202 		orr	r2, r2, #2
 3886              	.LVL434:
1013:lvgl/src/lv_widgets/lv_label.c ****     if(ext->long_mode == LV_LABEL_LONG_EXPAND) flag |= LV_TXT_FLAG_FIT;
 3887              		.loc 1 1013 31 discriminator 1 view .LVU1207
 3888 00d6 C7E7     		b	.L244
 3889              	.LVL435:
 3890              	.L286:
1019:lvgl/src/lv_widgets/lv_label.c ****         size.y += lv_obj_get_style_pad_top(label, LV_LABEL_PART_MAIN) + lv_obj_get_style_pad_bottom
 3891              		.loc 1 1019 9 is_stmt 1 view .LVU1208
 3892              	.LBB290:
 3893              	.LBI290:
 112:lvgl/src/lv_widgets/../lv_core/lv_obj_style_dec.h **** _LV_OBJ_STYLE_SET_GET_DECLARE(PAD_RIGHT, pad_right, lv_style_int_t, _int, scalar)
 3894              		.loc 2 112 1 view .LVU1209
 3895              	.LBB291:
 112:lvgl/src/lv_widgets/../lv_core/lv_obj_style_dec.h **** _LV_OBJ_STYLE_SET_GET_DECLARE(PAD_RIGHT, pad_right, lv_style_int_t, _int, scalar)
 3896              		.loc 2 112 1 view .LVU1210
 3897 00d8 1222     		movs	r2, #18
 3898 00da 0021     		movs	r1, #0
 3899 00dc 2846     		mov	r0, r5
 3900 00de FFF7FEFF 		bl	_lv_obj_get_style_int
 3901              	.LVL436:
 3902 00e2 0446     		mov	r4, r0
 3903              	.LVL437:
 112:lvgl/src/lv_widgets/../lv_core/lv_obj_style_dec.h **** _LV_OBJ_STYLE_SET_GET_DECLARE(PAD_RIGHT, pad_right, lv_style_int_t, _int, scalar)
 3904              		.loc 2 112 1 is_stmt 0 view .LVU1211
 3905              	.LBE291:
 3906              	.LBE290:
 3907              	.LBB292:
 3908              	.LBI292:
 113:lvgl/src/lv_widgets/../lv_core/lv_obj_style_dec.h **** _LV_OBJ_STYLE_SET_GET_DECLARE(PAD_INNER, pad_inner, lv_style_int_t, _int, scalar)
 3909              		.loc 2 113 1 is_stmt 1 view .LVU1212
 3910              	.LBB293:
 113:lvgl/src/lv_widgets/../lv_core/lv_obj_style_dec.h **** _LV_OBJ_STYLE_SET_GET_DECLARE(PAD_INNER, pad_inner, lv_style_int_t, _int, scalar)
 3911              		.loc 2 113 1 view .LVU1213
 3912 00e4 1322     		movs	r2, #19
 3913 00e6 0021     		movs	r1, #0
 3914 00e8 2846     		mov	r0, r5
 3915 00ea FFF7FEFF 		bl	_lv_obj_get_style_int
 3916              	.LVL438:
 113:lvgl/src/lv_widgets/../lv_core/lv_obj_style_dec.h **** _LV_OBJ_STYLE_SET_GET_DECLARE(PAD_INNER, pad_inner, lv_style_int_t, _int, scalar)
 3917              		.loc 2 113 1 is_stmt 0 view .LVU1214
 3918              	.LBE293:
ARM GAS  D:\Temp\cclLOIfg.s 			page 125


 3919              	.LBE292:
1019:lvgl/src/lv_widgets/lv_label.c ****         size.y += lv_obj_get_style_pad_top(label, LV_LABEL_PART_MAIN) + lv_obj_get_style_pad_bottom
 3920              		.loc 1 1019 72 view .LVU1215
 3921 00ee 2044     		add	r0, r0, r4
1019:lvgl/src/lv_widgets/lv_label.c ****         size.y += lv_obj_get_style_pad_top(label, LV_LABEL_PART_MAIN) + lv_obj_get_style_pad_bottom
 3922              		.loc 1 1019 16 view .LVU1216
 3923 00f0 BDF85C40 		ldrh	r4, [sp, #92]
 3924 00f4 2044     		add	r0, r0, r4
 3925 00f6 ADF85C00 		strh	r0, [sp, #92]	@ movhi
1020:lvgl/src/lv_widgets/lv_label.c ****         lv_obj_set_size(label, size.x, size.y);
 3926              		.loc 1 1020 9 is_stmt 1 view .LVU1217
 3927              	.LVL439:
 3928              	.LBB294:
 3929              	.LBI294:
 110:lvgl/src/lv_widgets/../lv_core/lv_obj_style_dec.h **** _LV_OBJ_STYLE_SET_GET_DECLARE(PAD_BOTTOM, pad_bottom, lv_style_int_t, _int, scalar)
 3930              		.loc 2 110 1 view .LVU1218
 3931              	.LBB295:
 110:lvgl/src/lv_widgets/../lv_core/lv_obj_style_dec.h **** _LV_OBJ_STYLE_SET_GET_DECLARE(PAD_BOTTOM, pad_bottom, lv_style_int_t, _int, scalar)
 3932              		.loc 2 110 1 view .LVU1219
 3933 00fa 1022     		movs	r2, #16
 3934 00fc 0021     		movs	r1, #0
 3935 00fe 2846     		mov	r0, r5
 3936 0100 FFF7FEFF 		bl	_lv_obj_get_style_int
 3937              	.LVL440:
 3938 0104 0446     		mov	r4, r0
 3939              	.LVL441:
 110:lvgl/src/lv_widgets/../lv_core/lv_obj_style_dec.h **** _LV_OBJ_STYLE_SET_GET_DECLARE(PAD_BOTTOM, pad_bottom, lv_style_int_t, _int, scalar)
 3940              		.loc 2 110 1 is_stmt 0 view .LVU1220
 3941              	.LBE295:
 3942              	.LBE294:
 3943              	.LBB296:
 3944              	.LBI296:
 111:lvgl/src/lv_widgets/../lv_core/lv_obj_style_dec.h **** _LV_OBJ_STYLE_SET_GET_DECLARE(PAD_LEFT, pad_left, lv_style_int_t, _int, scalar)
 3945              		.loc 2 111 1 is_stmt 1 view .LVU1221
 3946              	.LBB297:
 111:lvgl/src/lv_widgets/../lv_core/lv_obj_style_dec.h **** _LV_OBJ_STYLE_SET_GET_DECLARE(PAD_LEFT, pad_left, lv_style_int_t, _int, scalar)
 3947              		.loc 2 111 1 view .LVU1222
 3948 0106 1122     		movs	r2, #17
 3949 0108 0021     		movs	r1, #0
 3950 010a 2846     		mov	r0, r5
 3951 010c FFF7FEFF 		bl	_lv_obj_get_style_int
 3952              	.LVL442:
 111:lvgl/src/lv_widgets/../lv_core/lv_obj_style_dec.h **** _LV_OBJ_STYLE_SET_GET_DECLARE(PAD_LEFT, pad_left, lv_style_int_t, _int, scalar)
 3953              		.loc 2 111 1 is_stmt 0 view .LVU1223
 3954              	.LBE297:
 3955              	.LBE296:
1020:lvgl/src/lv_widgets/lv_label.c ****         lv_obj_set_size(label, size.x, size.y);
 3956              		.loc 1 1020 71 view .LVU1224
 3957 0110 2218     		adds	r2, r4, r0
1020:lvgl/src/lv_widgets/lv_label.c ****         lv_obj_set_size(label, size.x, size.y);
 3958              		.loc 1 1020 16 view .LVU1225
 3959 0112 BDF85E00 		ldrh	r0, [sp, #94]
 3960 0116 0244     		add	r2, r2, r0
 3961 0118 12B2     		sxth	r2, r2
 3962 011a ADF85E20 		strh	r2, [sp, #94]	@ movhi
1021:lvgl/src/lv_widgets/lv_label.c ****     }
 3963              		.loc 1 1021 9 is_stmt 1 view .LVU1226
ARM GAS  D:\Temp\cclLOIfg.s 			page 126


 3964 011e BDF95C10 		ldrsh	r1, [sp, #92]
 3965 0122 2846     		mov	r0, r5
 3966 0124 FFF7FEFF 		bl	lv_obj_set_size
 3967              	.LVL443:
 3968              	.L247:
1218:lvgl/src/lv_widgets/lv_label.c **** 
 3969              		.loc 1 1218 5 discriminator 4 view .LVU1227
1220:lvgl/src/lv_widgets/lv_label.c **** }
 3970              		.loc 1 1220 5 discriminator 4 view .LVU1228
 3971 0128 2846     		mov	r0, r5
 3972 012a FFF7FEFF 		bl	lv_obj_invalidate
 3973              	.LVL444:
 3974              	.L240:
1221:lvgl/src/lv_widgets/lv_label.c **** 
 3975              		.loc 1 1221 1 is_stmt 0 view .LVU1229
 3976 012e 1AB0     		add	sp, sp, #104
 3977              	.LCFI36:
 3978              		.cfi_remember_state
 3979              		.cfi_def_cfa_offset 32
 3980              		@ sp needed
 3981 0130 BDE8F087 		pop	{r4, r5, r6, r7, r8, r9, r10, pc}
 3982              	.LVL445:
 3983              	.L287:
 3984              	.LCFI37:
 3985              		.cfi_restore_state
 3986              	.LBB298:
1026:lvgl/src/lv_widgets/lv_label.c ****         lv_anim_init(&a);
 3987              		.loc 1 1026 9 is_stmt 1 view .LVU1230
1027:lvgl/src/lv_widgets/lv_label.c ****         lv_anim_set_var(&a, label);
 3988              		.loc 1 1027 9 view .LVU1231
 3989 0134 06A8     		add	r0, sp, #24
 3990 0136 FFF7FEFF 		bl	lv_anim_init
 3991              	.LVL446:
1028:lvgl/src/lv_widgets/lv_label.c ****         lv_anim_set_repeat_count(&a, LV_ANIM_REPEAT_INFINITE);
 3992              		.loc 1 1028 9 view .LVU1232
 3993              	.LBB299:
 3994              	.LBI299:
 3995              		.file 6 "lvgl/src/lv_widgets/../lv_core/../lv_misc/lv_anim.h"
   1:lvgl/src/lv_widgets/../lv_core/../lv_misc/lv_anim.h **** /**
   2:lvgl/src/lv_widgets/../lv_core/../lv_misc/lv_anim.h ****  * @file anim.h
   3:lvgl/src/lv_widgets/../lv_core/../lv_misc/lv_anim.h ****  *
   4:lvgl/src/lv_widgets/../lv_core/../lv_misc/lv_anim.h ****  */
   5:lvgl/src/lv_widgets/../lv_core/../lv_misc/lv_anim.h **** 
   6:lvgl/src/lv_widgets/../lv_core/../lv_misc/lv_anim.h **** #ifndef ANIM_H
   7:lvgl/src/lv_widgets/../lv_core/../lv_misc/lv_anim.h **** #define ANIM_H
   8:lvgl/src/lv_widgets/../lv_core/../lv_misc/lv_anim.h **** 
   9:lvgl/src/lv_widgets/../lv_core/../lv_misc/lv_anim.h **** #ifdef __cplusplus
  10:lvgl/src/lv_widgets/../lv_core/../lv_misc/lv_anim.h **** extern "C" {
  11:lvgl/src/lv_widgets/../lv_core/../lv_misc/lv_anim.h **** #endif
  12:lvgl/src/lv_widgets/../lv_core/../lv_misc/lv_anim.h **** 
  13:lvgl/src/lv_widgets/../lv_core/../lv_misc/lv_anim.h **** /*********************
  14:lvgl/src/lv_widgets/../lv_core/../lv_misc/lv_anim.h ****  *      INCLUDES
  15:lvgl/src/lv_widgets/../lv_core/../lv_misc/lv_anim.h ****  *********************/
  16:lvgl/src/lv_widgets/../lv_core/../lv_misc/lv_anim.h **** #include "../lv_conf_internal.h"
  17:lvgl/src/lv_widgets/../lv_core/../lv_misc/lv_anim.h **** 
  18:lvgl/src/lv_widgets/../lv_core/../lv_misc/lv_anim.h **** #include <stdint.h>
  19:lvgl/src/lv_widgets/../lv_core/../lv_misc/lv_anim.h **** #include <stdbool.h>
ARM GAS  D:\Temp\cclLOIfg.s 			page 127


  20:lvgl/src/lv_widgets/../lv_core/../lv_misc/lv_anim.h **** #include <string.h>
  21:lvgl/src/lv_widgets/../lv_core/../lv_misc/lv_anim.h **** #include "lv_mem.h"
  22:lvgl/src/lv_widgets/../lv_core/../lv_misc/lv_anim.h **** 
  23:lvgl/src/lv_widgets/../lv_core/../lv_misc/lv_anim.h **** /*********************
  24:lvgl/src/lv_widgets/../lv_core/../lv_misc/lv_anim.h ****  *      DEFINES
  25:lvgl/src/lv_widgets/../lv_core/../lv_misc/lv_anim.h ****  *********************/
  26:lvgl/src/lv_widgets/../lv_core/../lv_misc/lv_anim.h **** 
  27:lvgl/src/lv_widgets/../lv_core/../lv_misc/lv_anim.h **** /**********************
  28:lvgl/src/lv_widgets/../lv_core/../lv_misc/lv_anim.h ****  *      TYPEDEFS
  29:lvgl/src/lv_widgets/../lv_core/../lv_misc/lv_anim.h ****  **********************/
  30:lvgl/src/lv_widgets/../lv_core/../lv_misc/lv_anim.h **** 
  31:lvgl/src/lv_widgets/../lv_core/../lv_misc/lv_anim.h **** /** Can be used to indicate if animations are enabled or disabled in a case*/
  32:lvgl/src/lv_widgets/../lv_core/../lv_misc/lv_anim.h **** enum {
  33:lvgl/src/lv_widgets/../lv_core/../lv_misc/lv_anim.h ****     LV_ANIM_OFF,
  34:lvgl/src/lv_widgets/../lv_core/../lv_misc/lv_anim.h ****     LV_ANIM_ON,
  35:lvgl/src/lv_widgets/../lv_core/../lv_misc/lv_anim.h **** };
  36:lvgl/src/lv_widgets/../lv_core/../lv_misc/lv_anim.h **** 
  37:lvgl/src/lv_widgets/../lv_core/../lv_misc/lv_anim.h **** typedef uint8_t lv_anim_enable_t;
  38:lvgl/src/lv_widgets/../lv_core/../lv_misc/lv_anim.h **** 
  39:lvgl/src/lv_widgets/../lv_core/../lv_misc/lv_anim.h **** /** Type of the animated value*/
  40:lvgl/src/lv_widgets/../lv_core/../lv_misc/lv_anim.h **** typedef lv_coord_t lv_anim_value_t;
  41:lvgl/src/lv_widgets/../lv_core/../lv_misc/lv_anim.h **** 
  42:lvgl/src/lv_widgets/../lv_core/../lv_misc/lv_anim.h **** #if LV_USE_ANIMATION
  43:lvgl/src/lv_widgets/../lv_core/../lv_misc/lv_anim.h **** 
  44:lvgl/src/lv_widgets/../lv_core/../lv_misc/lv_anim.h **** #define LV_ANIM_REPEAT_INFINITE      0xFFFF
  45:lvgl/src/lv_widgets/../lv_core/../lv_misc/lv_anim.h **** 
  46:lvgl/src/lv_widgets/../lv_core/../lv_misc/lv_anim.h **** struct _lv_anim_t;
  47:lvgl/src/lv_widgets/../lv_core/../lv_misc/lv_anim.h **** struct _lv_anim_path_t;
  48:lvgl/src/lv_widgets/../lv_core/../lv_misc/lv_anim.h **** /** Get the current value during an animation*/
  49:lvgl/src/lv_widgets/../lv_core/../lv_misc/lv_anim.h **** typedef lv_anim_value_t (*lv_anim_path_cb_t)(const struct _lv_anim_path_t *, const struct _lv_anim_
  50:lvgl/src/lv_widgets/../lv_core/../lv_misc/lv_anim.h **** 
  51:lvgl/src/lv_widgets/../lv_core/../lv_misc/lv_anim.h **** typedef struct _lv_anim_path_t {
  52:lvgl/src/lv_widgets/../lv_core/../lv_misc/lv_anim.h ****     lv_anim_path_cb_t cb;
  53:lvgl/src/lv_widgets/../lv_core/../lv_misc/lv_anim.h ****     void * user_data;
  54:lvgl/src/lv_widgets/../lv_core/../lv_misc/lv_anim.h **** } lv_anim_path_t;
  55:lvgl/src/lv_widgets/../lv_core/../lv_misc/lv_anim.h **** 
  56:lvgl/src/lv_widgets/../lv_core/../lv_misc/lv_anim.h **** /** Generic prototype of "animator" functions.
  57:lvgl/src/lv_widgets/../lv_core/../lv_misc/lv_anim.h ****  * First parameter is the variable to animate.
  58:lvgl/src/lv_widgets/../lv_core/../lv_misc/lv_anim.h ****  * Second parameter is the value to set.
  59:lvgl/src/lv_widgets/../lv_core/../lv_misc/lv_anim.h ****  * Compatible with `lv_xxx_set_yyy(obj, value)` functions
  60:lvgl/src/lv_widgets/../lv_core/../lv_misc/lv_anim.h ****  * The `x` in `_xcb_t` means its not a fully generic prototype because
  61:lvgl/src/lv_widgets/../lv_core/../lv_misc/lv_anim.h ****  * it doesn't receive `lv_anim_t *` as its first argument*/
  62:lvgl/src/lv_widgets/../lv_core/../lv_misc/lv_anim.h **** typedef void (*lv_anim_exec_xcb_t)(void *, lv_anim_value_t);
  63:lvgl/src/lv_widgets/../lv_core/../lv_misc/lv_anim.h **** 
  64:lvgl/src/lv_widgets/../lv_core/../lv_misc/lv_anim.h **** /** Same as `lv_anim_exec_xcb_t` but receives `lv_anim_t *` as the first parameter.
  65:lvgl/src/lv_widgets/../lv_core/../lv_misc/lv_anim.h ****  * It's more consistent but less convenient. Might be used by binding generator functions.*/
  66:lvgl/src/lv_widgets/../lv_core/../lv_misc/lv_anim.h **** typedef void (*lv_anim_custom_exec_cb_t)(struct _lv_anim_t *, lv_anim_value_t);
  67:lvgl/src/lv_widgets/../lv_core/../lv_misc/lv_anim.h **** 
  68:lvgl/src/lv_widgets/../lv_core/../lv_misc/lv_anim.h **** /** Callback to call when the animation is ready*/
  69:lvgl/src/lv_widgets/../lv_core/../lv_misc/lv_anim.h **** typedef void (*lv_anim_ready_cb_t)(struct _lv_anim_t *);
  70:lvgl/src/lv_widgets/../lv_core/../lv_misc/lv_anim.h **** 
  71:lvgl/src/lv_widgets/../lv_core/../lv_misc/lv_anim.h **** /** Callback to call when the animation really stars (considering `delay`)*/
  72:lvgl/src/lv_widgets/../lv_core/../lv_misc/lv_anim.h **** typedef void (*lv_anim_start_cb_t)(struct _lv_anim_t *);
  73:lvgl/src/lv_widgets/../lv_core/../lv_misc/lv_anim.h **** 
  74:lvgl/src/lv_widgets/../lv_core/../lv_misc/lv_anim.h **** /** Describes an animation*/
  75:lvgl/src/lv_widgets/../lv_core/../lv_misc/lv_anim.h **** typedef struct _lv_anim_t {
  76:lvgl/src/lv_widgets/../lv_core/../lv_misc/lv_anim.h ****     void * var;                  /**<Variable to animate*/
ARM GAS  D:\Temp\cclLOIfg.s 			page 128


  77:lvgl/src/lv_widgets/../lv_core/../lv_misc/lv_anim.h ****     lv_anim_exec_xcb_t exec_cb;   /**< Function to execute to animate*/
  78:lvgl/src/lv_widgets/../lv_core/../lv_misc/lv_anim.h ****     lv_anim_start_cb_t start_cb; /**< Call it when the animation is starts (considering `delay`)*/
  79:lvgl/src/lv_widgets/../lv_core/../lv_misc/lv_anim.h ****     lv_anim_ready_cb_t ready_cb; /**< Call it when the animation is ready*/
  80:lvgl/src/lv_widgets/../lv_core/../lv_misc/lv_anim.h ****     lv_anim_path_t path;         /**< Describe the path (curve) of animations*/
  81:lvgl/src/lv_widgets/../lv_core/../lv_misc/lv_anim.h ****     int32_t start;               /**< Start value*/
  82:lvgl/src/lv_widgets/../lv_core/../lv_misc/lv_anim.h ****     int32_t current;             /**< Current value */
  83:lvgl/src/lv_widgets/../lv_core/../lv_misc/lv_anim.h ****     int32_t end;                 /**< End value*/
  84:lvgl/src/lv_widgets/../lv_core/../lv_misc/lv_anim.h ****     int32_t time;               /**< Animation time in ms*/
  85:lvgl/src/lv_widgets/../lv_core/../lv_misc/lv_anim.h ****     int32_t act_time;            /**< Current time in animation. Set to negative to make delay.*/
  86:lvgl/src/lv_widgets/../lv_core/../lv_misc/lv_anim.h ****     uint32_t playback_delay;     /**< Wait before play back*/
  87:lvgl/src/lv_widgets/../lv_core/../lv_misc/lv_anim.h ****     uint32_t playback_time;      /**< Duration of playback animation*/
  88:lvgl/src/lv_widgets/../lv_core/../lv_misc/lv_anim.h ****     uint32_t repeat_delay;       /**< Wait before repeat*/
  89:lvgl/src/lv_widgets/../lv_core/../lv_misc/lv_anim.h ****     uint16_t repeat_cnt;         /**< Repeat count for the animation*/
  90:lvgl/src/lv_widgets/../lv_core/../lv_misc/lv_anim.h ****     uint8_t early_apply  : 1;    /**< 1: Apply start value immediately even is there is `delay` */
  91:lvgl/src/lv_widgets/../lv_core/../lv_misc/lv_anim.h **** #if LV_USE_USER_DATA
  92:lvgl/src/lv_widgets/../lv_core/../lv_misc/lv_anim.h ****     lv_anim_user_data_t user_data; /**< Custom user data*/
  93:lvgl/src/lv_widgets/../lv_core/../lv_misc/lv_anim.h **** #endif
  94:lvgl/src/lv_widgets/../lv_core/../lv_misc/lv_anim.h **** 
  95:lvgl/src/lv_widgets/../lv_core/../lv_misc/lv_anim.h ****     /*Animation system use these - user shouldn't set*/
  96:lvgl/src/lv_widgets/../lv_core/../lv_misc/lv_anim.h ****     uint32_t time_orig;
  97:lvgl/src/lv_widgets/../lv_core/../lv_misc/lv_anim.h ****     uint8_t playback_now : 1; /**< Play back is in progress*/
  98:lvgl/src/lv_widgets/../lv_core/../lv_misc/lv_anim.h ****     uint32_t has_run : 1;     /**< Indicates the animation has run in this round*/
  99:lvgl/src/lv_widgets/../lv_core/../lv_misc/lv_anim.h **** } lv_anim_t;
 100:lvgl/src/lv_widgets/../lv_core/../lv_misc/lv_anim.h **** 
 101:lvgl/src/lv_widgets/../lv_core/../lv_misc/lv_anim.h **** /**********************
 102:lvgl/src/lv_widgets/../lv_core/../lv_misc/lv_anim.h ****  * GLOBAL PROTOTYPES
 103:lvgl/src/lv_widgets/../lv_core/../lv_misc/lv_anim.h ****  **********************/
 104:lvgl/src/lv_widgets/../lv_core/../lv_misc/lv_anim.h **** 
 105:lvgl/src/lv_widgets/../lv_core/../lv_misc/lv_anim.h **** /**
 106:lvgl/src/lv_widgets/../lv_core/../lv_misc/lv_anim.h ****  * Init. the animation module
 107:lvgl/src/lv_widgets/../lv_core/../lv_misc/lv_anim.h ****  */
 108:lvgl/src/lv_widgets/../lv_core/../lv_misc/lv_anim.h **** void _lv_anim_core_init(void);
 109:lvgl/src/lv_widgets/../lv_core/../lv_misc/lv_anim.h **** 
 110:lvgl/src/lv_widgets/../lv_core/../lv_misc/lv_anim.h **** /**
 111:lvgl/src/lv_widgets/../lv_core/../lv_misc/lv_anim.h ****  * Initialize an animation variable.
 112:lvgl/src/lv_widgets/../lv_core/../lv_misc/lv_anim.h ****  * E.g.:
 113:lvgl/src/lv_widgets/../lv_core/../lv_misc/lv_anim.h ****  * lv_anim_t a;
 114:lvgl/src/lv_widgets/../lv_core/../lv_misc/lv_anim.h ****  * lv_anim_init(&a);
 115:lvgl/src/lv_widgets/../lv_core/../lv_misc/lv_anim.h ****  * lv_anim_set_...(&a);
 116:lvgl/src/lv_widgets/../lv_core/../lv_misc/lv_anim.h ****  * @param a pointer to an `lv_anim_t` variable to initialize
 117:lvgl/src/lv_widgets/../lv_core/../lv_misc/lv_anim.h ****  */
 118:lvgl/src/lv_widgets/../lv_core/../lv_misc/lv_anim.h **** void lv_anim_init(lv_anim_t * a);
 119:lvgl/src/lv_widgets/../lv_core/../lv_misc/lv_anim.h **** 
 120:lvgl/src/lv_widgets/../lv_core/../lv_misc/lv_anim.h **** /**
 121:lvgl/src/lv_widgets/../lv_core/../lv_misc/lv_anim.h ****  * Set a variable to animate
 122:lvgl/src/lv_widgets/../lv_core/../lv_misc/lv_anim.h ****  * @param a pointer to an initialized `lv_anim_t` variable
 123:lvgl/src/lv_widgets/../lv_core/../lv_misc/lv_anim.h ****  * @param var pointer to a variable to animate
 124:lvgl/src/lv_widgets/../lv_core/../lv_misc/lv_anim.h ****  */
 125:lvgl/src/lv_widgets/../lv_core/../lv_misc/lv_anim.h **** static inline void lv_anim_set_var(lv_anim_t * a, void * var)
 3996              		.loc 6 125 20 view .LVU1233
 3997              	.LBB300:
 126:lvgl/src/lv_widgets/../lv_core/../lv_misc/lv_anim.h **** {
 127:lvgl/src/lv_widgets/../lv_core/../lv_misc/lv_anim.h ****     a->var     = var;
 3998              		.loc 6 127 5 view .LVU1234
 3999              		.loc 6 127 16 is_stmt 0 view .LVU1235
 4000 013a 0695     		str	r5, [sp, #24]
 4001              	.LVL447:
ARM GAS  D:\Temp\cclLOIfg.s 			page 129


 4002              		.loc 6 127 16 view .LVU1236
 4003              	.LBE300:
 4004              	.LBE299:
1029:lvgl/src/lv_widgets/lv_label.c ****         lv_anim_set_playback_delay(&a, (((lv_font_get_glyph_width(font, ' ', ' ') + letter_space) *
 4005              		.loc 1 1029 9 is_stmt 1 view .LVU1237
 4006              	.LBB301:
 4007              	.LBI301:
 128:lvgl/src/lv_widgets/../lv_core/../lv_misc/lv_anim.h **** }
 129:lvgl/src/lv_widgets/../lv_core/../lv_misc/lv_anim.h **** 
 130:lvgl/src/lv_widgets/../lv_core/../lv_misc/lv_anim.h **** /**
 131:lvgl/src/lv_widgets/../lv_core/../lv_misc/lv_anim.h ****  * Set a function to animate `var`
 132:lvgl/src/lv_widgets/../lv_core/../lv_misc/lv_anim.h ****  * @param a pointer to an initialized `lv_anim_t` variable
 133:lvgl/src/lv_widgets/../lv_core/../lv_misc/lv_anim.h ****  * @param exec_cb a function to execute during animation
 134:lvgl/src/lv_widgets/../lv_core/../lv_misc/lv_anim.h ****  *                LittelvGL's built-in functions can be used.
 135:lvgl/src/lv_widgets/../lv_core/../lv_misc/lv_anim.h ****  *                E.g. lv_obj_set_x
 136:lvgl/src/lv_widgets/../lv_core/../lv_misc/lv_anim.h ****  */
 137:lvgl/src/lv_widgets/../lv_core/../lv_misc/lv_anim.h **** static inline void lv_anim_set_exec_cb(lv_anim_t * a, lv_anim_exec_xcb_t exec_cb)
 138:lvgl/src/lv_widgets/../lv_core/../lv_misc/lv_anim.h **** {
 139:lvgl/src/lv_widgets/../lv_core/../lv_misc/lv_anim.h ****     a->exec_cb = exec_cb;
 140:lvgl/src/lv_widgets/../lv_core/../lv_misc/lv_anim.h **** }
 141:lvgl/src/lv_widgets/../lv_core/../lv_misc/lv_anim.h **** 
 142:lvgl/src/lv_widgets/../lv_core/../lv_misc/lv_anim.h **** /**
 143:lvgl/src/lv_widgets/../lv_core/../lv_misc/lv_anim.h ****  * Set the duration of an animation
 144:lvgl/src/lv_widgets/../lv_core/../lv_misc/lv_anim.h ****  * @param a pointer to an initialized `lv_anim_t` variable
 145:lvgl/src/lv_widgets/../lv_core/../lv_misc/lv_anim.h ****  * @param duration duration of the animation in milliseconds
 146:lvgl/src/lv_widgets/../lv_core/../lv_misc/lv_anim.h ****  */
 147:lvgl/src/lv_widgets/../lv_core/../lv_misc/lv_anim.h **** static inline void lv_anim_set_time(lv_anim_t * a, uint32_t duration)
 148:lvgl/src/lv_widgets/../lv_core/../lv_misc/lv_anim.h **** {
 149:lvgl/src/lv_widgets/../lv_core/../lv_misc/lv_anim.h ****     a->time     = duration;
 150:lvgl/src/lv_widgets/../lv_core/../lv_misc/lv_anim.h **** }
 151:lvgl/src/lv_widgets/../lv_core/../lv_misc/lv_anim.h **** 
 152:lvgl/src/lv_widgets/../lv_core/../lv_misc/lv_anim.h **** /**
 153:lvgl/src/lv_widgets/../lv_core/../lv_misc/lv_anim.h ****  * Set a delay before starting the animation
 154:lvgl/src/lv_widgets/../lv_core/../lv_misc/lv_anim.h ****  * @param a pointer to an initialized `lv_anim_t` variable
 155:lvgl/src/lv_widgets/../lv_core/../lv_misc/lv_anim.h ****  * @param delay delay before the animation in milliseconds
 156:lvgl/src/lv_widgets/../lv_core/../lv_misc/lv_anim.h ****  */
 157:lvgl/src/lv_widgets/../lv_core/../lv_misc/lv_anim.h **** static inline void lv_anim_set_delay(lv_anim_t * a, uint32_t delay)
 158:lvgl/src/lv_widgets/../lv_core/../lv_misc/lv_anim.h **** {
 159:lvgl/src/lv_widgets/../lv_core/../lv_misc/lv_anim.h ****     a->act_time = -(int32_t)(delay);
 160:lvgl/src/lv_widgets/../lv_core/../lv_misc/lv_anim.h **** }
 161:lvgl/src/lv_widgets/../lv_core/../lv_misc/lv_anim.h **** 
 162:lvgl/src/lv_widgets/../lv_core/../lv_misc/lv_anim.h **** /**
 163:lvgl/src/lv_widgets/../lv_core/../lv_misc/lv_anim.h ****  * Set the start and end values of an animation
 164:lvgl/src/lv_widgets/../lv_core/../lv_misc/lv_anim.h ****  * @param a pointer to an initialized `lv_anim_t` variable
 165:lvgl/src/lv_widgets/../lv_core/../lv_misc/lv_anim.h ****  * @param start the start value
 166:lvgl/src/lv_widgets/../lv_core/../lv_misc/lv_anim.h ****  * @param end the end value
 167:lvgl/src/lv_widgets/../lv_core/../lv_misc/lv_anim.h ****  */
 168:lvgl/src/lv_widgets/../lv_core/../lv_misc/lv_anim.h **** static inline void lv_anim_set_values(lv_anim_t * a, lv_anim_value_t start, lv_anim_value_t end)
 169:lvgl/src/lv_widgets/../lv_core/../lv_misc/lv_anim.h **** {
 170:lvgl/src/lv_widgets/../lv_core/../lv_misc/lv_anim.h ****     a->start = start;
 171:lvgl/src/lv_widgets/../lv_core/../lv_misc/lv_anim.h ****     a->current = start;
 172:lvgl/src/lv_widgets/../lv_core/../lv_misc/lv_anim.h ****     a->end   = end;
 173:lvgl/src/lv_widgets/../lv_core/../lv_misc/lv_anim.h **** }
 174:lvgl/src/lv_widgets/../lv_core/../lv_misc/lv_anim.h **** 
 175:lvgl/src/lv_widgets/../lv_core/../lv_misc/lv_anim.h **** /**
 176:lvgl/src/lv_widgets/../lv_core/../lv_misc/lv_anim.h ****  * Similar to `lv_anim_set_exec_cb` but `lv_anim_custom_exec_cb_t` receives
 177:lvgl/src/lv_widgets/../lv_core/../lv_misc/lv_anim.h ****  * `lv_anim_t * ` as its first parameter instead of `void *`.
ARM GAS  D:\Temp\cclLOIfg.s 			page 130


 178:lvgl/src/lv_widgets/../lv_core/../lv_misc/lv_anim.h ****  * This function might be used when LVGL is binded to other languages because
 179:lvgl/src/lv_widgets/../lv_core/../lv_misc/lv_anim.h ****  * it's more consistent to have `lv_anim_t *` as first parameter.
 180:lvgl/src/lv_widgets/../lv_core/../lv_misc/lv_anim.h ****  * The variable to animate can be stored in the animation's `user_sata`
 181:lvgl/src/lv_widgets/../lv_core/../lv_misc/lv_anim.h ****  * @param a pointer to an initialized `lv_anim_t` variable
 182:lvgl/src/lv_widgets/../lv_core/../lv_misc/lv_anim.h ****  * @param exec_cb a function to execute.
 183:lvgl/src/lv_widgets/../lv_core/../lv_misc/lv_anim.h ****  */
 184:lvgl/src/lv_widgets/../lv_core/../lv_misc/lv_anim.h **** static inline void lv_anim_set_custom_exec_cb(lv_anim_t * a, lv_anim_custom_exec_cb_t exec_cb)
 185:lvgl/src/lv_widgets/../lv_core/../lv_misc/lv_anim.h **** {
 186:lvgl/src/lv_widgets/../lv_core/../lv_misc/lv_anim.h ****     a->var     = a;
 187:lvgl/src/lv_widgets/../lv_core/../lv_misc/lv_anim.h ****     a->exec_cb = (lv_anim_exec_xcb_t)exec_cb;
 188:lvgl/src/lv_widgets/../lv_core/../lv_misc/lv_anim.h **** }
 189:lvgl/src/lv_widgets/../lv_core/../lv_misc/lv_anim.h **** 
 190:lvgl/src/lv_widgets/../lv_core/../lv_misc/lv_anim.h **** /**
 191:lvgl/src/lv_widgets/../lv_core/../lv_misc/lv_anim.h ****  * Set the path (curve) of the animation.
 192:lvgl/src/lv_widgets/../lv_core/../lv_misc/lv_anim.h ****  * @param a pointer to an initialized `lv_anim_t` variable
 193:lvgl/src/lv_widgets/../lv_core/../lv_misc/lv_anim.h ****  * @param path_cb a function the get the current value of the animation.
 194:lvgl/src/lv_widgets/../lv_core/../lv_misc/lv_anim.h ****  *                The built in functions starts with `lv_anim_path_...`
 195:lvgl/src/lv_widgets/../lv_core/../lv_misc/lv_anim.h ****  */
 196:lvgl/src/lv_widgets/../lv_core/../lv_misc/lv_anim.h **** static inline void lv_anim_set_path(lv_anim_t * a, const lv_anim_path_t * path)
 197:lvgl/src/lv_widgets/../lv_core/../lv_misc/lv_anim.h **** {
 198:lvgl/src/lv_widgets/../lv_core/../lv_misc/lv_anim.h ****     _lv_memcpy_small(&a->path, path, sizeof(lv_anim_path_t));
 199:lvgl/src/lv_widgets/../lv_core/../lv_misc/lv_anim.h **** }
 200:lvgl/src/lv_widgets/../lv_core/../lv_misc/lv_anim.h **** 
 201:lvgl/src/lv_widgets/../lv_core/../lv_misc/lv_anim.h **** /**
 202:lvgl/src/lv_widgets/../lv_core/../lv_misc/lv_anim.h ****  * Set a function call when the animation really starts (considering `delay`)
 203:lvgl/src/lv_widgets/../lv_core/../lv_misc/lv_anim.h ****  * @param a pointer to an initialized `lv_anim_t` variable
 204:lvgl/src/lv_widgets/../lv_core/../lv_misc/lv_anim.h ****  * @param start_cb a function call when the animation starts
 205:lvgl/src/lv_widgets/../lv_core/../lv_misc/lv_anim.h ****  */
 206:lvgl/src/lv_widgets/../lv_core/../lv_misc/lv_anim.h **** static inline void lv_anim_set_start_cb(lv_anim_t * a, lv_anim_ready_cb_t start_cb)
 207:lvgl/src/lv_widgets/../lv_core/../lv_misc/lv_anim.h **** {
 208:lvgl/src/lv_widgets/../lv_core/../lv_misc/lv_anim.h ****     a->start_cb = start_cb;
 209:lvgl/src/lv_widgets/../lv_core/../lv_misc/lv_anim.h **** }
 210:lvgl/src/lv_widgets/../lv_core/../lv_misc/lv_anim.h **** 
 211:lvgl/src/lv_widgets/../lv_core/../lv_misc/lv_anim.h **** /**
 212:lvgl/src/lv_widgets/../lv_core/../lv_misc/lv_anim.h ****  * Set a function call when the animation is ready
 213:lvgl/src/lv_widgets/../lv_core/../lv_misc/lv_anim.h ****  * @param a pointer to an initialized `lv_anim_t` variable
 214:lvgl/src/lv_widgets/../lv_core/../lv_misc/lv_anim.h ****  * @param ready_cb a function call when the animation is ready
 215:lvgl/src/lv_widgets/../lv_core/../lv_misc/lv_anim.h ****  */
 216:lvgl/src/lv_widgets/../lv_core/../lv_misc/lv_anim.h **** static inline void lv_anim_set_ready_cb(lv_anim_t * a, lv_anim_ready_cb_t ready_cb)
 217:lvgl/src/lv_widgets/../lv_core/../lv_misc/lv_anim.h **** {
 218:lvgl/src/lv_widgets/../lv_core/../lv_misc/lv_anim.h ****     a->ready_cb = ready_cb;
 219:lvgl/src/lv_widgets/../lv_core/../lv_misc/lv_anim.h **** }
 220:lvgl/src/lv_widgets/../lv_core/../lv_misc/lv_anim.h **** 
 221:lvgl/src/lv_widgets/../lv_core/../lv_misc/lv_anim.h **** /**
 222:lvgl/src/lv_widgets/../lv_core/../lv_misc/lv_anim.h ****  * Make the animation to play back to when the forward direction is ready
 223:lvgl/src/lv_widgets/../lv_core/../lv_misc/lv_anim.h ****  * @param a pointer to an initialized `lv_anim_t` variable
 224:lvgl/src/lv_widgets/../lv_core/../lv_misc/lv_anim.h ****  * @param time the duration of the playback animation in in milliseconds. 0: disable playback
 225:lvgl/src/lv_widgets/../lv_core/../lv_misc/lv_anim.h ****  */
 226:lvgl/src/lv_widgets/../lv_core/../lv_misc/lv_anim.h **** static inline void lv_anim_set_playback_time(lv_anim_t * a, uint16_t time)
 227:lvgl/src/lv_widgets/../lv_core/../lv_misc/lv_anim.h **** {
 228:lvgl/src/lv_widgets/../lv_core/../lv_misc/lv_anim.h ****     a->playback_time = time;
 229:lvgl/src/lv_widgets/../lv_core/../lv_misc/lv_anim.h **** }
 230:lvgl/src/lv_widgets/../lv_core/../lv_misc/lv_anim.h **** 
 231:lvgl/src/lv_widgets/../lv_core/../lv_misc/lv_anim.h **** /**
 232:lvgl/src/lv_widgets/../lv_core/../lv_misc/lv_anim.h ****  * Make the animation to play back to when the forward direction is ready
 233:lvgl/src/lv_widgets/../lv_core/../lv_misc/lv_anim.h ****  * @param a pointer to an initialized `lv_anim_t` variable
 234:lvgl/src/lv_widgets/../lv_core/../lv_misc/lv_anim.h ****  * @param delay delay in milliseconds before starting the playback animation.
ARM GAS  D:\Temp\cclLOIfg.s 			page 131


 235:lvgl/src/lv_widgets/../lv_core/../lv_misc/lv_anim.h ****  */
 236:lvgl/src/lv_widgets/../lv_core/../lv_misc/lv_anim.h **** static inline void lv_anim_set_playback_delay(lv_anim_t * a, uint16_t delay)
 237:lvgl/src/lv_widgets/../lv_core/../lv_misc/lv_anim.h **** {
 238:lvgl/src/lv_widgets/../lv_core/../lv_misc/lv_anim.h ****     a->playback_delay = delay;
 239:lvgl/src/lv_widgets/../lv_core/../lv_misc/lv_anim.h **** }
 240:lvgl/src/lv_widgets/../lv_core/../lv_misc/lv_anim.h **** 
 241:lvgl/src/lv_widgets/../lv_core/../lv_misc/lv_anim.h **** /**
 242:lvgl/src/lv_widgets/../lv_core/../lv_misc/lv_anim.h ****  * Make the animation repeat itself.
 243:lvgl/src/lv_widgets/../lv_core/../lv_misc/lv_anim.h ****  * @param a pointer to an initialized `lv_anim_t` variable
 244:lvgl/src/lv_widgets/../lv_core/../lv_misc/lv_anim.h ****  * @param cnt repeat count or `LV_ANIM_REPEAT_INFINITE` for infinite repetition. 0: to disable repe
 245:lvgl/src/lv_widgets/../lv_core/../lv_misc/lv_anim.h ****  */
 246:lvgl/src/lv_widgets/../lv_core/../lv_misc/lv_anim.h **** static inline void lv_anim_set_repeat_count(lv_anim_t * a, uint16_t cnt)
 4008              		.loc 6 246 20 view .LVU1238
 4009              	.LBB302:
 247:lvgl/src/lv_widgets/../lv_core/../lv_misc/lv_anim.h **** {
 248:lvgl/src/lv_widgets/../lv_core/../lv_misc/lv_anim.h ****     a->repeat_cnt       = cnt;
 4010              		.loc 6 248 5 view .LVU1239
 4011              		.loc 6 248 25 is_stmt 0 view .LVU1240
 4012 013c 4FF6FF73 		movw	r3, #65535
 4013 0140 ADF85030 		strh	r3, [sp, #80]	@ movhi
 4014              	.LVL448:
 4015              		.loc 6 248 25 view .LVU1241
 4016              	.LBE302:
 4017              	.LBE301:
1030:lvgl/src/lv_widgets/lv_label.c ****                                         ext->anim_speed) *
 4018              		.loc 1 1030 9 is_stmt 1 view .LVU1242
1030:lvgl/src/lv_widgets/lv_label.c ****                                         ext->anim_speed) *
 4019              		.loc 1 1030 43 is_stmt 0 view .LVU1243
 4020 0144 2022     		movs	r2, #32
 4021 0146 1146     		mov	r1, r2
 4022 0148 4046     		mov	r0, r8
 4023 014a FFF7FEFF 		bl	lv_font_get_glyph_width
 4024              	.LVL449:
1030:lvgl/src/lv_widgets/lv_label.c ****                                         ext->anim_speed) *
 4025              		.loc 1 1030 83 view .LVU1244
 4026 014e 3844     		add	r0, r0, r7
1030:lvgl/src/lv_widgets/lv_label.c ****                                         ext->anim_speed) *
 4027              		.loc 1 1030 99 view .LVU1245
 4028 0150 4FF47A73 		mov	r3, #1000
 4029 0154 03FB00F3 		mul	r3, r3, r0
1031:lvgl/src/lv_widgets/lv_label.c ****                                    LV_LABEL_WAIT_CHAR_COUNT);
 4030              		.loc 1 1031 44 view .LVU1246
 4031 0158 B089     		ldrh	r0, [r6, #12]
1030:lvgl/src/lv_widgets/lv_label.c ****                                         ext->anim_speed) *
 4032              		.loc 1 1030 107 view .LVU1247
 4033 015a 93FBF0F3 		sdiv	r3, r3, r0
1030:lvgl/src/lv_widgets/lv_label.c ****                                         ext->anim_speed) *
 4034              		.loc 1 1030 9 view .LVU1248
 4035 015e 03EB4303 		add	r3, r3, r3, lsl #1
 4036 0162 9BB2     		uxth	r3, r3
 4037              	.LVL450:
 4038              	.LBB303:
 4039              	.LBI303:
 236:lvgl/src/lv_widgets/../lv_core/../lv_misc/lv_anim.h **** {
 4040              		.loc 6 236 20 is_stmt 1 view .LVU1249
 4041              	.LBB304:
 238:lvgl/src/lv_widgets/../lv_core/../lv_misc/lv_anim.h **** }
ARM GAS  D:\Temp\cclLOIfg.s 			page 132


 4042              		.loc 6 238 5 view .LVU1250
 238:lvgl/src/lv_widgets/../lv_core/../lv_misc/lv_anim.h **** }
 4043              		.loc 6 238 23 is_stmt 0 view .LVU1251
 4044 0164 1193     		str	r3, [sp, #68]
 4045              	.LVL451:
 238:lvgl/src/lv_widgets/../lv_core/../lv_misc/lv_anim.h **** }
 4046              		.loc 6 238 23 view .LVU1252
 4047              	.LBE304:
 4048              	.LBE303:
1033:lvgl/src/lv_widgets/lv_label.c **** 
 4049              		.loc 1 1033 9 is_stmt 1 view .LVU1253
 4050              	.LBB305:
 4051              	.LBI305:
 249:lvgl/src/lv_widgets/../lv_core/../lv_misc/lv_anim.h **** }
 250:lvgl/src/lv_widgets/../lv_core/../lv_misc/lv_anim.h **** 
 251:lvgl/src/lv_widgets/../lv_core/../lv_misc/lv_anim.h **** /**
 252:lvgl/src/lv_widgets/../lv_core/../lv_misc/lv_anim.h ****  * Set a delay before repeating the animation.
 253:lvgl/src/lv_widgets/../lv_core/../lv_misc/lv_anim.h ****  * @param a pointer to an initialized `lv_anim_t` variable
 254:lvgl/src/lv_widgets/../lv_core/../lv_misc/lv_anim.h ****  * @param delay delay in milliseconds before repeating the animation.
 255:lvgl/src/lv_widgets/../lv_core/../lv_misc/lv_anim.h ****  */
 256:lvgl/src/lv_widgets/../lv_core/../lv_misc/lv_anim.h **** static inline void lv_anim_set_repeat_delay(lv_anim_t * a, uint16_t delay)
 4052              		.loc 6 256 20 view .LVU1254
 4053              	.LBB306:
 257:lvgl/src/lv_widgets/../lv_core/../lv_misc/lv_anim.h **** {
 258:lvgl/src/lv_widgets/../lv_core/../lv_misc/lv_anim.h ****     a->repeat_delay = delay;
 4054              		.loc 6 258 5 view .LVU1255
 4055              		.loc 6 258 21 is_stmt 0 view .LVU1256
 4056 0166 1393     		str	r3, [sp, #76]
 4057              	.LVL452:
 4058              		.loc 6 258 21 view .LVU1257
 4059              	.LBE306:
 4060              	.LBE305:
1035:lvgl/src/lv_widgets/lv_label.c ****         if(size.x > lv_area_get_width(&txt_coords)) {
 4061              		.loc 1 1035 9 is_stmt 1 view .LVU1258
1036:lvgl/src/lv_widgets/lv_label.c ****             lv_anim_set_values(&a, 0, lv_area_get_width(&txt_coords) - size.x);
 4062              		.loc 1 1036 9 view .LVU1259
1036:lvgl/src/lv_widgets/lv_label.c ****             lv_anim_set_values(&a, 0, lv_area_get_width(&txt_coords) - size.x);
 4063              		.loc 1 1036 16 is_stmt 0 view .LVU1260
 4064 0168 BDF95C20 		ldrsh	r2, [sp, #92]
 4065              	.LVL453:
 4066              	.LBB307:
 4067              	.LBI307:
 107:d:\_project\stm32\f407\hack_rf_new\lvgl\src\lv_misc\lv_area.h **** {
 4068              		.loc 3 107 26 is_stmt 1 view .LVU1261
 4069              	.LBB308:
 109:d:\_project\stm32\f407\hack_rf_new\lvgl\src\lv_misc\lv_area.h **** }
 4070              		.loc 3 109 5 view .LVU1262
 109:d:\_project\stm32\f407\hack_rf_new\lvgl\src\lv_misc\lv_area.h **** }
 4071              		.loc 3 109 31 is_stmt 0 view .LVU1263
 4072 016c BDF86430 		ldrh	r3, [sp, #100]
 109:d:\_project\stm32\f407\hack_rf_new\lvgl\src\lv_misc\lv_area.h **** }
 4073              		.loc 3 109 44 view .LVU1264
 4074 0170 BDF86010 		ldrh	r1, [sp, #96]
 109:d:\_project\stm32\f407\hack_rf_new\lvgl\src\lv_misc\lv_area.h **** }
 4075              		.loc 3 109 36 view .LVU1265
 4076 0174 5B1A     		subs	r3, r3, r1
 4077 0176 9BB2     		uxth	r3, r3
ARM GAS  D:\Temp\cclLOIfg.s 			page 133


 109:d:\_project\stm32\f407\hack_rf_new\lvgl\src\lv_misc\lv_area.h **** }
 4078              		.loc 3 109 49 view .LVU1266
 4079 0178 0133     		adds	r3, r3, #1
 4080 017a 9BB2     		uxth	r3, r3
 109:d:\_project\stm32\f407\hack_rf_new\lvgl\src\lv_misc\lv_area.h **** }
 4081              		.loc 3 109 12 view .LVU1267
 4082 017c 19B2     		sxth	r1, r3
 4083              	.LVL454:
 109:d:\_project\stm32\f407\hack_rf_new\lvgl\src\lv_misc\lv_area.h **** }
 4084              		.loc 3 109 12 view .LVU1268
 4085              	.LBE308:
 4086              	.LBE307:
1036:lvgl/src/lv_widgets/lv_label.c ****             lv_anim_set_values(&a, 0, lv_area_get_width(&txt_coords) - size.x);
 4087              		.loc 1 1036 11 view .LVU1269
 4088 017e 8A42     		cmp	r2, r1
 4089 0180 48DD     		ble	.L249
 4090              	.LBB309:
1037:lvgl/src/lv_widgets/lv_label.c ****             lv_anim_set_exec_cb(&a, (lv_anim_exec_xcb_t)lv_label_set_offset_x);
 4091              		.loc 1 1037 13 is_stmt 1 view .LVU1270
 4092              	.LVL455:
1037:lvgl/src/lv_widgets/lv_label.c ****             lv_anim_set_exec_cb(&a, (lv_anim_exec_xcb_t)lv_label_set_offset_x);
 4093              		.loc 1 1037 13 is_stmt 0 view .LVU1271
 4094              	.LBE309:
 4095              	.LBE298:
 109:d:\_project\stm32\f407\hack_rf_new\lvgl\src\lv_misc\lv_area.h **** }
 4096              		.loc 3 109 5 is_stmt 1 view .LVU1272
 4097              	.LBB337:
 4098              	.LBB319:
1037:lvgl/src/lv_widgets/lv_label.c ****             lv_anim_set_exec_cb(&a, (lv_anim_exec_xcb_t)lv_label_set_offset_x);
 4099              		.loc 1 1037 76 is_stmt 0 view .LVU1273
 4100 0182 92B2     		uxth	r2, r2
1037:lvgl/src/lv_widgets/lv_label.c ****             lv_anim_set_exec_cb(&a, (lv_anim_exec_xcb_t)lv_label_set_offset_x);
 4101              		.loc 1 1037 70 view .LVU1274
 4102 0184 9B1A     		subs	r3, r3, r2
1037:lvgl/src/lv_widgets/lv_label.c ****             lv_anim_set_exec_cb(&a, (lv_anim_exec_xcb_t)lv_label_set_offset_x);
 4103              		.loc 1 1037 13 view .LVU1275
 4104 0186 1AB2     		sxth	r2, r3
 4105              	.LVL456:
 4106              	.LBB310:
 4107              	.LBI310:
 168:lvgl/src/lv_widgets/../lv_core/../lv_misc/lv_anim.h **** {
 4108              		.loc 6 168 20 is_stmt 1 view .LVU1276
 4109              	.LBB311:
 170:lvgl/src/lv_widgets/../lv_core/../lv_misc/lv_anim.h ****     a->current = start;
 4110              		.loc 6 170 5 view .LVU1277
 170:lvgl/src/lv_widgets/../lv_core/../lv_misc/lv_anim.h ****     a->current = start;
 4111              		.loc 6 170 14 is_stmt 0 view .LVU1278
 4112 0188 0021     		movs	r1, #0
 4113 018a 0C91     		str	r1, [sp, #48]
 171:lvgl/src/lv_widgets/../lv_core/../lv_misc/lv_anim.h ****     a->end   = end;
 4114              		.loc 6 171 5 is_stmt 1 view .LVU1279
 171:lvgl/src/lv_widgets/../lv_core/../lv_misc/lv_anim.h ****     a->end   = end;
 4115              		.loc 6 171 16 is_stmt 0 view .LVU1280
 4116 018c 0D91     		str	r1, [sp, #52]
 172:lvgl/src/lv_widgets/../lv_core/../lv_misc/lv_anim.h **** }
 4117              		.loc 6 172 5 is_stmt 1 view .LVU1281
 172:lvgl/src/lv_widgets/../lv_core/../lv_misc/lv_anim.h **** }
ARM GAS  D:\Temp\cclLOIfg.s 			page 134


 4118              		.loc 6 172 14 is_stmt 0 view .LVU1282
 4119 018e 0E92     		str	r2, [sp, #56]
 4120              	.LVL457:
 172:lvgl/src/lv_widgets/../lv_core/../lv_misc/lv_anim.h **** }
 4121              		.loc 6 172 14 view .LVU1283
 4122              	.LBE311:
 4123              	.LBE310:
1038:lvgl/src/lv_widgets/lv_label.c ****             lv_anim_set_time(&a, lv_anim_speed_to_time(ext->anim_speed, a.start, a.end));
 4124              		.loc 1 1038 13 is_stmt 1 view .LVU1284
 4125              	.LBB312:
 4126              	.LBI312:
 137:lvgl/src/lv_widgets/../lv_core/../lv_misc/lv_anim.h **** {
 4127              		.loc 6 137 20 view .LVU1285
 4128              	.LBB313:
 139:lvgl/src/lv_widgets/../lv_core/../lv_misc/lv_anim.h **** }
 4129              		.loc 6 139 5 view .LVU1286
 139:lvgl/src/lv_widgets/../lv_core/../lv_misc/lv_anim.h **** }
 4130              		.loc 6 139 16 is_stmt 0 view .LVU1287
 4131 0190 8D4C     		ldr	r4, .L293
 4132              	.LVL458:
 139:lvgl/src/lv_widgets/../lv_core/../lv_misc/lv_anim.h **** }
 4133              		.loc 6 139 16 view .LVU1288
 4134 0192 0794     		str	r4, [sp, #28]
 4135              	.LVL459:
 139:lvgl/src/lv_widgets/../lv_core/../lv_misc/lv_anim.h **** }
 4136              		.loc 6 139 16 view .LVU1289
 4137              	.LBE313:
 4138              	.LBE312:
1039:lvgl/src/lv_widgets/lv_label.c ****             lv_anim_set_playback_time(&a, a.time);
 4139              		.loc 1 1039 13 is_stmt 1 view .LVU1290
1039:lvgl/src/lv_widgets/lv_label.c ****             lv_anim_set_playback_time(&a, a.time);
 4140              		.loc 1 1039 34 is_stmt 0 view .LVU1291
 4141 0194 B089     		ldrh	r0, [r6, #12]
 4142 0196 FFF7FEFF 		bl	lv_anim_speed_to_time
 4143              	.LVL460:
 4144              	.LBB314:
 4145              	.LBI314:
 147:lvgl/src/lv_widgets/../lv_core/../lv_misc/lv_anim.h **** {
 4146              		.loc 6 147 20 is_stmt 1 view .LVU1292
 4147              	.LBB315:
 149:lvgl/src/lv_widgets/../lv_core/../lv_misc/lv_anim.h **** }
 4148              		.loc 6 149 5 view .LVU1293
 149:lvgl/src/lv_widgets/../lv_core/../lv_misc/lv_anim.h **** }
 4149              		.loc 6 149 17 is_stmt 0 view .LVU1294
 4150 019a 0F90     		str	r0, [sp, #60]
 4151              	.LVL461:
 149:lvgl/src/lv_widgets/../lv_core/../lv_misc/lv_anim.h **** }
 4152              		.loc 6 149 17 view .LVU1295
 4153              	.LBE315:
 4154              	.LBE314:
1040:lvgl/src/lv_widgets/lv_label.c **** 
 4155              		.loc 1 1040 13 is_stmt 1 view .LVU1296
 4156              	.LBB316:
 4157              	.LBI316:
 226:lvgl/src/lv_widgets/../lv_core/../lv_misc/lv_anim.h **** {
 4158              		.loc 6 226 20 view .LVU1297
 4159              	.LBB317:
ARM GAS  D:\Temp\cclLOIfg.s 			page 135


 228:lvgl/src/lv_widgets/../lv_core/../lv_misc/lv_anim.h **** }
 4160              		.loc 6 228 5 view .LVU1298
 228:lvgl/src/lv_widgets/../lv_core/../lv_misc/lv_anim.h **** }
 4161              		.loc 6 228 22 is_stmt 0 view .LVU1299
 4162 019c 1290     		str	r0, [sp, #72]
 4163              	.LVL462:
 228:lvgl/src/lv_widgets/../lv_core/../lv_misc/lv_anim.h **** }
 4164              		.loc 6 228 22 view .LVU1300
 4165              	.LBE317:
 4166              	.LBE316:
1042:lvgl/src/lv_widgets/lv_label.c ****             int32_t act_time = 0;
 4167              		.loc 1 1042 13 is_stmt 1 view .LVU1301
1042:lvgl/src/lv_widgets/lv_label.c ****             int32_t act_time = 0;
 4168              		.loc 1 1042 36 is_stmt 0 view .LVU1302
 4169 019e 2146     		mov	r1, r4
 4170 01a0 2846     		mov	r0, r5
 4171 01a2 FFF7FEFF 		bl	lv_anim_get
 4172              	.LVL463:
1043:lvgl/src/lv_widgets/lv_label.c ****             bool playback_now = false;
 4173              		.loc 1 1043 13 is_stmt 1 view .LVU1303
1044:lvgl/src/lv_widgets/lv_label.c ****             if(anim_cur) {
 4174              		.loc 1 1044 13 view .LVU1304
1045:lvgl/src/lv_widgets/lv_label.c ****                 act_time = anim_cur->act_time;
 4175              		.loc 1 1045 13 view .LVU1305
1045:lvgl/src/lv_widgets/lv_label.c ****                 act_time = anim_cur->act_time;
 4176              		.loc 1 1045 15 is_stmt 0 view .LVU1306
 4177 01a6 90B3     		cbz	r0, .L279
1046:lvgl/src/lv_widgets/lv_label.c ****                 playback_now = anim_cur->playback_now;
 4178              		.loc 1 1046 17 is_stmt 1 view .LVU1307
1046:lvgl/src/lv_widgets/lv_label.c ****                 playback_now = anim_cur->playback_now;
 4179              		.loc 1 1046 26 is_stmt 0 view .LVU1308
 4180 01a8 826A     		ldr	r2, [r0, #40]
 4181              	.LVL464:
1047:lvgl/src/lv_widgets/lv_label.c ****             }
 4182              		.loc 1 1047 17 is_stmt 1 view .LVU1309
1047:lvgl/src/lv_widgets/lv_label.c ****             }
 4183              		.loc 1 1047 40 is_stmt 0 view .LVU1310
 4184 01aa 90F84030 		ldrb	r3, [r0, #64]	@ zero_extendqisi2
 4185 01ae 03F00103 		and	r3, r3, #1
 4186              	.LVL465:
 4187              	.L250:
1049:lvgl/src/lv_widgets/lv_label.c ****                 a.act_time = act_time;      /*To keep the old position*/
 4188              		.loc 1 1049 13 is_stmt 1 view .LVU1311
1049:lvgl/src/lv_widgets/lv_label.c ****                 a.act_time = act_time;      /*To keep the old position*/
 4189              		.loc 1 1049 28 is_stmt 0 view .LVU1312
 4190 01b2 0F99     		ldr	r1, [sp, #60]
1049:lvgl/src/lv_widgets/lv_label.c ****                 a.act_time = act_time;      /*To keep the old position*/
 4191              		.loc 1 1049 15 view .LVU1313
 4192 01b4 9142     		cmp	r1, r2
 4193 01b6 11DD     		ble	.L251
1050:lvgl/src/lv_widgets/lv_label.c ****                 a.early_apply = 0;
 4194              		.loc 1 1050 17 is_stmt 1 view .LVU1314
1050:lvgl/src/lv_widgets/lv_label.c ****                 a.early_apply = 0;
 4195              		.loc 1 1050 28 is_stmt 0 view .LVU1315
 4196 01b8 1092     		str	r2, [sp, #64]
1051:lvgl/src/lv_widgets/lv_label.c ****                 if(playback_now) {
 4197              		.loc 1 1051 17 is_stmt 1 view .LVU1316
ARM GAS  D:\Temp\cclLOIfg.s 			page 136


1051:lvgl/src/lv_widgets/lv_label.c ****                 if(playback_now) {
 4198              		.loc 1 1051 31 is_stmt 0 view .LVU1317
 4199 01ba 9DF85220 		ldrb	r2, [sp, #82]	@ zero_extendqisi2
 4200              	.LVL466:
1051:lvgl/src/lv_widgets/lv_label.c ****                 if(playback_now) {
 4201              		.loc 1 1051 31 view .LVU1318
 4202 01be 6FF30002 		bfc	r2, #0, #1
 4203 01c2 8DF85220 		strb	r2, [sp, #82]
1052:lvgl/src/lv_widgets/lv_label.c ****                     a.playback_now = 1;
 4204              		.loc 1 1052 17 is_stmt 1 view .LVU1319
1052:lvgl/src/lv_widgets/lv_label.c ****                     a.playback_now = 1;
 4205              		.loc 1 1052 19 is_stmt 0 view .LVU1320
 4206 01c6 4BB1     		cbz	r3, .L251
 4207              	.LBB318:
1053:lvgl/src/lv_widgets/lv_label.c ****                     /*Swap the start and end values*/
 4208              		.loc 1 1053 21 is_stmt 1 view .LVU1321
1053:lvgl/src/lv_widgets/lv_label.c ****                     /*Swap the start and end values*/
 4209              		.loc 1 1053 36 is_stmt 0 view .LVU1322
 4210 01c8 9DF85830 		ldrb	r3, [sp, #88]	@ zero_extendqisi2
 4211              	.LVL467:
1053:lvgl/src/lv_widgets/lv_label.c ****                     /*Swap the start and end values*/
 4212              		.loc 1 1053 36 view .LVU1323
 4213 01cc 43F00103 		orr	r3, r3, #1
 4214 01d0 8DF85830 		strb	r3, [sp, #88]
1055:lvgl/src/lv_widgets/lv_label.c ****                     tmp      = a.start;
 4215              		.loc 1 1055 21 is_stmt 1 view .LVU1324
1056:lvgl/src/lv_widgets/lv_label.c ****                     a.start = a.end;
 4216              		.loc 1 1056 21 view .LVU1325
1056:lvgl/src/lv_widgets/lv_label.c ****                     a.start = a.end;
 4217              		.loc 1 1056 30 is_stmt 0 view .LVU1326
 4218 01d4 0C9B     		ldr	r3, [sp, #48]
 4219              	.LVL468:
1057:lvgl/src/lv_widgets/lv_label.c ****                     a.end   = tmp;
 4220              		.loc 1 1057 21 is_stmt 1 view .LVU1327
1057:lvgl/src/lv_widgets/lv_label.c ****                     a.end   = tmp;
 4221              		.loc 1 1057 32 is_stmt 0 view .LVU1328
 4222 01d6 0E9A     		ldr	r2, [sp, #56]
1057:lvgl/src/lv_widgets/lv_label.c ****                     a.end   = tmp;
 4223              		.loc 1 1057 29 view .LVU1329
 4224 01d8 0C92     		str	r2, [sp, #48]
1058:lvgl/src/lv_widgets/lv_label.c ****                 }
 4225              		.loc 1 1058 21 is_stmt 1 view .LVU1330
1058:lvgl/src/lv_widgets/lv_label.c ****                 }
 4226              		.loc 1 1058 29 is_stmt 0 view .LVU1331
 4227 01da 0E93     		str	r3, [sp, #56]
 4228              	.LVL469:
 4229              	.L251:
1058:lvgl/src/lv_widgets/lv_label.c ****                 }
 4230              		.loc 1 1058 29 view .LVU1332
 4231              	.LBE318:
1062:lvgl/src/lv_widgets/lv_label.c ****             hor_anim = true;
 4232              		.loc 1 1062 13 is_stmt 1 view .LVU1333
 4233 01dc 06A8     		add	r0, sp, #24
 4234              	.LVL470:
1062:lvgl/src/lv_widgets/lv_label.c ****             hor_anim = true;
 4235              		.loc 1 1062 13 is_stmt 0 view .LVU1334
 4236 01de FFF7FEFF 		bl	lv_anim_start
ARM GAS  D:\Temp\cclLOIfg.s 			page 137


 4237              	.LVL471:
1063:lvgl/src/lv_widgets/lv_label.c ****         }
 4238              		.loc 1 1063 13 is_stmt 1 view .LVU1335
1063:lvgl/src/lv_widgets/lv_label.c ****         }
 4239              		.loc 1 1063 22 is_stmt 0 view .LVU1336
 4240 01e2 0124     		movs	r4, #1
 4241              	.LVL472:
 4242              	.L252:
1063:lvgl/src/lv_widgets/lv_label.c ****         }
 4243              		.loc 1 1063 22 view .LVU1337
 4244              	.LBE319:
1071:lvgl/src/lv_widgets/lv_label.c ****             lv_anim_set_values(&a, 0, lv_area_get_height(&txt_coords) - size.y - (lv_font_get_line_
 4245              		.loc 1 1071 9 is_stmt 1 view .LVU1338
1071:lvgl/src/lv_widgets/lv_label.c ****             lv_anim_set_values(&a, 0, lv_area_get_height(&txt_coords) - size.y - (lv_font_get_line_
 4246              		.loc 1 1071 16 is_stmt 0 view .LVU1339
 4247 01e4 BDF95E20 		ldrsh	r2, [sp, #94]
 4248              	.LVL473:
 4249              	.LBB320:
 4250              	.LBI320:
 117:d:\_project\stm32\f407\hack_rf_new\lvgl\src\lv_misc\lv_area.h **** {
 4251              		.loc 3 117 26 is_stmt 1 view .LVU1340
 4252              	.LBB321:
 4253              		.loc 3 119 5 view .LVU1341
 4254              		.loc 3 119 31 is_stmt 0 view .LVU1342
 4255 01e8 BDF86630 		ldrh	r3, [sp, #102]
 4256              		.loc 3 119 44 view .LVU1343
 4257 01ec BDF86210 		ldrh	r1, [sp, #98]
 4258              		.loc 3 119 36 view .LVU1344
 4259 01f0 5B1A     		subs	r3, r3, r1
 4260 01f2 9BB2     		uxth	r3, r3
 4261              		.loc 3 119 49 view .LVU1345
 4262 01f4 0133     		adds	r3, r3, #1
 4263 01f6 9BB2     		uxth	r3, r3
 4264              		.loc 3 119 12 view .LVU1346
 4265 01f8 19B2     		sxth	r1, r3
 4266              	.LVL474:
 4267              		.loc 3 119 12 view .LVU1347
 4268              	.LBE321:
 4269              	.LBE320:
1071:lvgl/src/lv_widgets/lv_label.c ****             lv_anim_set_values(&a, 0, lv_area_get_height(&txt_coords) - size.y - (lv_font_get_line_
 4270              		.loc 1 1071 11 view .LVU1348
 4271 01fa 8A42     		cmp	r2, r1
 4272 01fc 00DD     		ble	.L253
1071:lvgl/src/lv_widgets/lv_label.c ****             lv_anim_set_values(&a, 0, lv_area_get_height(&txt_coords) - size.y - (lv_font_get_line_
 4273              		.loc 1 1071 53 discriminator 1 view .LVU1349
 4274 01fe 84B1     		cbz	r4, .L290
 4275              	.L253:
1101:lvgl/src/lv_widgets/lv_label.c ****             ext->offset.y = 0;
 4276              		.loc 1 1101 13 is_stmt 1 view .LVU1350
 4277 0200 7249     		ldr	r1, .L293+4
 4278 0202 2846     		mov	r0, r5
 4279 0204 FFF7FEFF 		bl	lv_anim_del
 4280              	.LVL475:
1102:lvgl/src/lv_widgets/lv_label.c ****         }
 4281              		.loc 1 1102 13 view .LVU1351
1102:lvgl/src/lv_widgets/lv_label.c ****         }
 4282              		.loc 1 1102 27 is_stmt 0 view .LVU1352
ARM GAS  D:\Temp\cclLOIfg.s 			page 138


 4283 0208 0023     		movs	r3, #0
 4284 020a 3382     		strh	r3, [r6, #16]	@ movhi
 4285 020c 8CE7     		b	.L247
 4286              	.LVL476:
 4287              	.L279:
 4288              	.LBB322:
1044:lvgl/src/lv_widgets/lv_label.c ****             if(anim_cur) {
 4289              		.loc 1 1044 18 view .LVU1353
 4290 020e 0023     		movs	r3, #0
1043:lvgl/src/lv_widgets/lv_label.c ****             bool playback_now = false;
 4291              		.loc 1 1043 21 view .LVU1354
 4292 0210 1A46     		mov	r2, r3
 4293 0212 CEE7     		b	.L250
 4294              	.LVL477:
 4295              	.L249:
1043:lvgl/src/lv_widgets/lv_label.c ****             bool playback_now = false;
 4296              		.loc 1 1043 21 view .LVU1355
 4297              	.LBE322:
1067:lvgl/src/lv_widgets/lv_label.c ****             ext->offset.x = 0;
 4298              		.loc 1 1067 13 is_stmt 1 view .LVU1356
 4299 0214 6C49     		ldr	r1, .L293
 4300 0216 2846     		mov	r0, r5
 4301 0218 FFF7FEFF 		bl	lv_anim_del
 4302              	.LVL478:
1068:lvgl/src/lv_widgets/lv_label.c ****         }
 4303              		.loc 1 1068 13 view .LVU1357
1068:lvgl/src/lv_widgets/lv_label.c ****         }
 4304              		.loc 1 1068 27 is_stmt 0 view .LVU1358
 4305 021c 0024     		movs	r4, #0
 4306              	.LVL479:
1068:lvgl/src/lv_widgets/lv_label.c ****         }
 4307              		.loc 1 1068 27 view .LVU1359
 4308 021e F481     		strh	r4, [r6, #14]	@ movhi
 4309 0220 E0E7     		b	.L252
 4310              	.LVL480:
 4311              	.L290:
 4312              	.LBB323:
1072:lvgl/src/lv_widgets/lv_label.c ****             lv_anim_set_exec_cb(&a, (lv_anim_exec_xcb_t)lv_label_set_offset_y);
 4313              		.loc 1 1072 13 is_stmt 1 view .LVU1360
1072:lvgl/src/lv_widgets/lv_label.c ****             lv_anim_set_exec_cb(&a, (lv_anim_exec_xcb_t)lv_label_set_offset_y);
 4314              		.loc 1 1072 13 is_stmt 0 view .LVU1361
 4315              	.LBE323:
 4316              	.LBE337:
 4317              		.loc 3 119 5 is_stmt 1 view .LVU1362
 4318              	.LBB338:
 4319              	.LBB335:
1072:lvgl/src/lv_widgets/lv_label.c ****             lv_anim_set_exec_cb(&a, (lv_anim_exec_xcb_t)lv_label_set_offset_y);
 4320              		.loc 1 1072 77 is_stmt 0 view .LVU1363
 4321 0222 92B2     		uxth	r2, r2
1072:lvgl/src/lv_widgets/lv_label.c ****             lv_anim_set_exec_cb(&a, (lv_anim_exec_xcb_t)lv_label_set_offset_y);
 4322              		.loc 1 1072 71 view .LVU1364
 4323 0224 9A1A     		subs	r2, r3, r2
 4324 0226 92B2     		uxth	r2, r2
 4325              	.LVL481:
 4326              	.LBB324:
 4327              	.LBI324:
 116:lvgl/src/lv_widgets/../lv_core/../lv_font/lv_font.h **** {
ARM GAS  D:\Temp\cclLOIfg.s 			page 139


 4328              		.loc 4 116 26 is_stmt 1 view .LVU1365
 4329              	.LBB325:
 4330              		.loc 4 118 5 view .LVU1366
 4331              		.loc 4 118 18 is_stmt 0 view .LVU1367
 4332 0228 B8F90830 		ldrsh	r3, [r8, #8]
 4333              	.LVL482:
 4334              		.loc 4 118 18 view .LVU1368
 4335              	.LBE325:
 4336              	.LBE324:
1072:lvgl/src/lv_widgets/lv_label.c ****             lv_anim_set_exec_cb(&a, (lv_anim_exec_xcb_t)lv_label_set_offset_y);
 4337              		.loc 1 1072 83 view .LVU1369
 4338 022c 9BB2     		uxth	r3, r3
1072:lvgl/src/lv_widgets/lv_label.c ****             lv_anim_set_exec_cb(&a, (lv_anim_exec_xcb_t)lv_label_set_offset_y);
 4339              		.loc 1 1072 80 view .LVU1370
 4340 022e D21A     		subs	r2, r2, r3
1072:lvgl/src/lv_widgets/lv_label.c ****             lv_anim_set_exec_cb(&a, (lv_anim_exec_xcb_t)lv_label_set_offset_y);
 4341              		.loc 1 1072 13 view .LVU1371
 4342 0230 12B2     		sxth	r2, r2
 4343              	.LVL483:
 4344              	.LBB326:
 4345              	.LBI326:
 168:lvgl/src/lv_widgets/../lv_core/../lv_misc/lv_anim.h **** {
 4346              		.loc 6 168 20 is_stmt 1 view .LVU1372
 4347              	.LBB327:
 170:lvgl/src/lv_widgets/../lv_core/../lv_misc/lv_anim.h ****     a->current = start;
 4348              		.loc 6 170 5 view .LVU1373
 170:lvgl/src/lv_widgets/../lv_core/../lv_misc/lv_anim.h ****     a->current = start;
 4349              		.loc 6 170 14 is_stmt 0 view .LVU1374
 4350 0232 0021     		movs	r1, #0
 4351 0234 0C91     		str	r1, [sp, #48]
 171:lvgl/src/lv_widgets/../lv_core/../lv_misc/lv_anim.h ****     a->end   = end;
 4352              		.loc 6 171 5 is_stmt 1 view .LVU1375
 171:lvgl/src/lv_widgets/../lv_core/../lv_misc/lv_anim.h ****     a->end   = end;
 4353              		.loc 6 171 16 is_stmt 0 view .LVU1376
 4354 0236 0D91     		str	r1, [sp, #52]
 172:lvgl/src/lv_widgets/../lv_core/../lv_misc/lv_anim.h **** }
 4355              		.loc 6 172 5 is_stmt 1 view .LVU1377
 172:lvgl/src/lv_widgets/../lv_core/../lv_misc/lv_anim.h **** }
 4356              		.loc 6 172 14 is_stmt 0 view .LVU1378
 4357 0238 0E92     		str	r2, [sp, #56]
 4358              	.LVL484:
 172:lvgl/src/lv_widgets/../lv_core/../lv_misc/lv_anim.h **** }
 4359              		.loc 6 172 14 view .LVU1379
 4360              	.LBE327:
 4361              	.LBE326:
1073:lvgl/src/lv_widgets/lv_label.c ****             lv_anim_set_time(&a, lv_anim_speed_to_time(ext->anim_speed, a.start, a.end));
 4362              		.loc 1 1073 13 is_stmt 1 view .LVU1380
 4363              	.LBB328:
 4364              	.LBI328:
 137:lvgl/src/lv_widgets/../lv_core/../lv_misc/lv_anim.h **** {
 4365              		.loc 6 137 20 view .LVU1381
 4366              	.LBB329:
 139:lvgl/src/lv_widgets/../lv_core/../lv_misc/lv_anim.h **** }
 4367              		.loc 6 139 5 view .LVU1382
 139:lvgl/src/lv_widgets/../lv_core/../lv_misc/lv_anim.h **** }
 4368              		.loc 6 139 16 is_stmt 0 view .LVU1383
 4369 023a 644F     		ldr	r7, .L293+4
ARM GAS  D:\Temp\cclLOIfg.s 			page 140


 4370              	.LVL485:
 139:lvgl/src/lv_widgets/../lv_core/../lv_misc/lv_anim.h **** }
 4371              		.loc 6 139 16 view .LVU1384
 4372 023c 0797     		str	r7, [sp, #28]
 4373              	.LVL486:
 139:lvgl/src/lv_widgets/../lv_core/../lv_misc/lv_anim.h **** }
 4374              		.loc 6 139 16 view .LVU1385
 4375              	.LBE329:
 4376              	.LBE328:
1074:lvgl/src/lv_widgets/lv_label.c ****             lv_anim_set_playback_time(&a, a.time);
 4377              		.loc 1 1074 13 is_stmt 1 view .LVU1386
1074:lvgl/src/lv_widgets/lv_label.c ****             lv_anim_set_playback_time(&a, a.time);
 4378              		.loc 1 1074 34 is_stmt 0 view .LVU1387
 4379 023e B089     		ldrh	r0, [r6, #12]
 4380 0240 FFF7FEFF 		bl	lv_anim_speed_to_time
 4381              	.LVL487:
 4382              	.LBB330:
 4383              	.LBI330:
 147:lvgl/src/lv_widgets/../lv_core/../lv_misc/lv_anim.h **** {
 4384              		.loc 6 147 20 is_stmt 1 view .LVU1388
 4385              	.LBB331:
 149:lvgl/src/lv_widgets/../lv_core/../lv_misc/lv_anim.h **** }
 4386              		.loc 6 149 5 view .LVU1389
 149:lvgl/src/lv_widgets/../lv_core/../lv_misc/lv_anim.h **** }
 4387              		.loc 6 149 17 is_stmt 0 view .LVU1390
 4388 0244 0F90     		str	r0, [sp, #60]
 4389              	.LVL488:
 149:lvgl/src/lv_widgets/../lv_core/../lv_misc/lv_anim.h **** }
 4390              		.loc 6 149 17 view .LVU1391
 4391              	.LBE331:
 4392              	.LBE330:
1075:lvgl/src/lv_widgets/lv_label.c **** 
 4393              		.loc 1 1075 13 is_stmt 1 view .LVU1392
 4394              	.LBB332:
 4395              	.LBI332:
 226:lvgl/src/lv_widgets/../lv_core/../lv_misc/lv_anim.h **** {
 4396              		.loc 6 226 20 view .LVU1393
 4397              	.LBB333:
 228:lvgl/src/lv_widgets/../lv_core/../lv_misc/lv_anim.h **** }
 4398              		.loc 6 228 5 view .LVU1394
 228:lvgl/src/lv_widgets/../lv_core/../lv_misc/lv_anim.h **** }
 4399              		.loc 6 228 22 is_stmt 0 view .LVU1395
 4400 0246 1290     		str	r0, [sp, #72]
 4401              	.LVL489:
 228:lvgl/src/lv_widgets/../lv_core/../lv_misc/lv_anim.h **** }
 4402              		.loc 6 228 22 view .LVU1396
 4403              	.LBE333:
 4404              	.LBE332:
1077:lvgl/src/lv_widgets/lv_label.c ****             int32_t act_time = 0;
 4405              		.loc 1 1077 13 is_stmt 1 view .LVU1397
1077:lvgl/src/lv_widgets/lv_label.c ****             int32_t act_time = 0;
 4406              		.loc 1 1077 36 is_stmt 0 view .LVU1398
 4407 0248 3946     		mov	r1, r7
 4408 024a 2846     		mov	r0, r5
 4409 024c FFF7FEFF 		bl	lv_anim_get
 4410              	.LVL490:
1078:lvgl/src/lv_widgets/lv_label.c ****             bool playback_now = false;
ARM GAS  D:\Temp\cclLOIfg.s 			page 141


 4411              		.loc 1 1078 13 is_stmt 1 view .LVU1399
1079:lvgl/src/lv_widgets/lv_label.c ****             if(anim_cur) {
 4412              		.loc 1 1079 13 view .LVU1400
1080:lvgl/src/lv_widgets/lv_label.c ****                 act_time = anim_cur->act_time;
 4413              		.loc 1 1080 13 view .LVU1401
1080:lvgl/src/lv_widgets/lv_label.c ****                 act_time = anim_cur->act_time;
 4414              		.loc 1 1080 15 is_stmt 0 view .LVU1402
 4415 0250 E8B1     		cbz	r0, .L280
1081:lvgl/src/lv_widgets/lv_label.c ****                 playback_now = anim_cur->playback_now;
 4416              		.loc 1 1081 17 is_stmt 1 view .LVU1403
1081:lvgl/src/lv_widgets/lv_label.c ****                 playback_now = anim_cur->playback_now;
 4417              		.loc 1 1081 26 is_stmt 0 view .LVU1404
 4418 0252 836A     		ldr	r3, [r0, #40]
 4419              	.LVL491:
1082:lvgl/src/lv_widgets/lv_label.c ****             }
 4420              		.loc 1 1082 17 is_stmt 1 view .LVU1405
1082:lvgl/src/lv_widgets/lv_label.c ****             }
 4421              		.loc 1 1082 40 is_stmt 0 view .LVU1406
 4422 0254 90F84040 		ldrb	r4, [r0, #64]	@ zero_extendqisi2
 4423              	.LVL492:
1082:lvgl/src/lv_widgets/lv_label.c ****             }
 4424              		.loc 1 1082 40 view .LVU1407
 4425 0258 04F00104 		and	r4, r4, #1
 4426              	.LVL493:
 4427              	.L254:
1084:lvgl/src/lv_widgets/lv_label.c ****                 a.act_time = act_time;      /*To keep the old position*/
 4428              		.loc 1 1084 13 is_stmt 1 view .LVU1408
1084:lvgl/src/lv_widgets/lv_label.c ****                 a.act_time = act_time;      /*To keep the old position*/
 4429              		.loc 1 1084 28 is_stmt 0 view .LVU1409
 4430 025c 0F9A     		ldr	r2, [sp, #60]
1084:lvgl/src/lv_widgets/lv_label.c ****                 a.act_time = act_time;      /*To keep the old position*/
 4431              		.loc 1 1084 15 view .LVU1410
 4432 025e 9A42     		cmp	r2, r3
 4433 0260 11DD     		ble	.L255
1085:lvgl/src/lv_widgets/lv_label.c ****                 a.early_apply = 0;
 4434              		.loc 1 1085 17 is_stmt 1 view .LVU1411
1085:lvgl/src/lv_widgets/lv_label.c ****                 a.early_apply = 0;
 4435              		.loc 1 1085 28 is_stmt 0 view .LVU1412
 4436 0262 1093     		str	r3, [sp, #64]
1086:lvgl/src/lv_widgets/lv_label.c ****                 if(playback_now) {
 4437              		.loc 1 1086 17 is_stmt 1 view .LVU1413
1086:lvgl/src/lv_widgets/lv_label.c ****                 if(playback_now) {
 4438              		.loc 1 1086 31 is_stmt 0 view .LVU1414
 4439 0264 9DF85230 		ldrb	r3, [sp, #82]	@ zero_extendqisi2
 4440              	.LVL494:
1086:lvgl/src/lv_widgets/lv_label.c ****                 if(playback_now) {
 4441              		.loc 1 1086 31 view .LVU1415
 4442 0268 6FF30003 		bfc	r3, #0, #1
 4443 026c 8DF85230 		strb	r3, [sp, #82]
1087:lvgl/src/lv_widgets/lv_label.c ****                     a.playback_now = 1;
 4444              		.loc 1 1087 17 is_stmt 1 view .LVU1416
1087:lvgl/src/lv_widgets/lv_label.c ****                     a.playback_now = 1;
 4445              		.loc 1 1087 19 is_stmt 0 view .LVU1417
 4446 0270 4CB1     		cbz	r4, .L255
 4447              	.LBB334:
1088:lvgl/src/lv_widgets/lv_label.c ****                     /*Swap the start and end values*/
 4448              		.loc 1 1088 21 is_stmt 1 view .LVU1418
ARM GAS  D:\Temp\cclLOIfg.s 			page 142


1088:lvgl/src/lv_widgets/lv_label.c ****                     /*Swap the start and end values*/
 4449              		.loc 1 1088 36 is_stmt 0 view .LVU1419
 4450 0272 9DF85830 		ldrb	r3, [sp, #88]	@ zero_extendqisi2
 4451 0276 43F00103 		orr	r3, r3, #1
 4452 027a 8DF85830 		strb	r3, [sp, #88]
1090:lvgl/src/lv_widgets/lv_label.c ****                     tmp      = a.start;
 4453              		.loc 1 1090 21 is_stmt 1 view .LVU1420
1091:lvgl/src/lv_widgets/lv_label.c ****                     a.start = a.end;
 4454              		.loc 1 1091 21 view .LVU1421
1091:lvgl/src/lv_widgets/lv_label.c ****                     a.start = a.end;
 4455              		.loc 1 1091 30 is_stmt 0 view .LVU1422
 4456 027e 0C9B     		ldr	r3, [sp, #48]
 4457              	.LVL495:
1092:lvgl/src/lv_widgets/lv_label.c ****                     a.end   = tmp;
 4458              		.loc 1 1092 21 is_stmt 1 view .LVU1423
1092:lvgl/src/lv_widgets/lv_label.c ****                     a.end   = tmp;
 4459              		.loc 1 1092 32 is_stmt 0 view .LVU1424
 4460 0280 0E9A     		ldr	r2, [sp, #56]
1092:lvgl/src/lv_widgets/lv_label.c ****                     a.end   = tmp;
 4461              		.loc 1 1092 29 view .LVU1425
 4462 0282 0C92     		str	r2, [sp, #48]
1093:lvgl/src/lv_widgets/lv_label.c ****                 }
 4463              		.loc 1 1093 21 is_stmt 1 view .LVU1426
1093:lvgl/src/lv_widgets/lv_label.c ****                 }
 4464              		.loc 1 1093 29 is_stmt 0 view .LVU1427
 4465 0284 0E93     		str	r3, [sp, #56]
 4466              	.LVL496:
 4467              	.L255:
1093:lvgl/src/lv_widgets/lv_label.c ****                 }
 4468              		.loc 1 1093 29 view .LVU1428
 4469              	.LBE334:
1097:lvgl/src/lv_widgets/lv_label.c ****         }
 4470              		.loc 1 1097 13 is_stmt 1 view .LVU1429
 4471 0286 06A8     		add	r0, sp, #24
 4472              	.LVL497:
1097:lvgl/src/lv_widgets/lv_label.c ****         }
 4473              		.loc 1 1097 13 is_stmt 0 view .LVU1430
 4474 0288 FFF7FEFF 		bl	lv_anim_start
 4475              	.LVL498:
 4476              	.LBE335:
1071:lvgl/src/lv_widgets/lv_label.c ****             lv_anim_set_values(&a, 0, lv_area_get_height(&txt_coords) - size.y - (lv_font_get_line_
 4477              		.loc 1 1071 75 view .LVU1431
 4478 028c 4CE7     		b	.L247
 4479              	.LVL499:
 4480              	.L280:
 4481              	.LBB336:
1078:lvgl/src/lv_widgets/lv_label.c ****             bool playback_now = false;
 4482              		.loc 1 1078 21 view .LVU1432
 4483 028e 0023     		movs	r3, #0
 4484 0290 E4E7     		b	.L254
 4485              	.LVL500:
 4486              	.L288:
1078:lvgl/src/lv_widgets/lv_label.c ****             bool playback_now = false;
 4487              		.loc 1 1078 21 view .LVU1433
 4488              	.LBE336:
 4489              	.LBE338:
 4490              	.LBB339:
ARM GAS  D:\Temp\cclLOIfg.s 			page 143


1109:lvgl/src/lv_widgets/lv_label.c ****         lv_anim_init(&a);
 4491              		.loc 1 1109 9 is_stmt 1 view .LVU1434
1110:lvgl/src/lv_widgets/lv_label.c ****         lv_anim_set_var(&a, label);
 4492              		.loc 1 1110 9 view .LVU1435
 4493 0292 06A8     		add	r0, sp, #24
 4494 0294 FFF7FEFF 		bl	lv_anim_init
 4495              	.LVL501:
1111:lvgl/src/lv_widgets/lv_label.c ****         lv_anim_set_repeat_count(&a, LV_ANIM_REPEAT_INFINITE);
 4496              		.loc 1 1111 9 view .LVU1436
 4497              	.LBB340:
 4498              	.LBI340:
 125:lvgl/src/lv_widgets/../lv_core/../lv_misc/lv_anim.h **** {
 4499              		.loc 6 125 20 view .LVU1437
 4500              	.LBB341:
 127:lvgl/src/lv_widgets/../lv_core/../lv_misc/lv_anim.h **** }
 4501              		.loc 6 127 5 view .LVU1438
 127:lvgl/src/lv_widgets/../lv_core/../lv_misc/lv_anim.h **** }
 4502              		.loc 6 127 16 is_stmt 0 view .LVU1439
 4503 0298 0695     		str	r5, [sp, #24]
 4504              	.LVL502:
 127:lvgl/src/lv_widgets/../lv_core/../lv_misc/lv_anim.h **** }
 4505              		.loc 6 127 16 view .LVU1440
 4506              	.LBE341:
 4507              	.LBE340:
1112:lvgl/src/lv_widgets/lv_label.c **** 
 4508              		.loc 1 1112 9 is_stmt 1 view .LVU1441
 4509              	.LBB342:
 4510              	.LBI342:
 246:lvgl/src/lv_widgets/../lv_core/../lv_misc/lv_anim.h **** {
 4511              		.loc 6 246 20 view .LVU1442
 4512              	.LBB343:
 248:lvgl/src/lv_widgets/../lv_core/../lv_misc/lv_anim.h **** }
 4513              		.loc 6 248 5 view .LVU1443
 248:lvgl/src/lv_widgets/../lv_core/../lv_misc/lv_anim.h **** }
 4514              		.loc 6 248 25 is_stmt 0 view .LVU1444
 4515 029a 4FF6FF73 		movw	r3, #65535
 4516 029e ADF85030 		strh	r3, [sp, #80]	@ movhi
 4517              	.LVL503:
 248:lvgl/src/lv_widgets/../lv_core/../lv_misc/lv_anim.h **** }
 4518              		.loc 6 248 25 view .LVU1445
 4519              	.LBE343:
 4520              	.LBE342:
1114:lvgl/src/lv_widgets/lv_label.c ****         if(size.x > lv_area_get_width(&txt_coords)) {
 4521              		.loc 1 1114 9 is_stmt 1 view .LVU1446
1115:lvgl/src/lv_widgets/lv_label.c ****             lv_anim_set_values(&a, 0, -size.x - lv_font_get_glyph_width(font, ' ', ' ') * LV_LABEL_
 4522              		.loc 1 1115 9 view .LVU1447
1115:lvgl/src/lv_widgets/lv_label.c ****             lv_anim_set_values(&a, 0, -size.x - lv_font_get_glyph_width(font, ' ', ' ') * LV_LABEL_
 4523              		.loc 1 1115 16 is_stmt 0 view .LVU1448
 4524 02a2 BDF95C20 		ldrsh	r2, [sp, #92]
 4525              	.LVL504:
 4526              	.LBB344:
 4527              	.LBI344:
 107:d:\_project\stm32\f407\hack_rf_new\lvgl\src\lv_misc\lv_area.h **** {
 4528              		.loc 3 107 26 is_stmt 1 view .LVU1449
 4529              	.LBB345:
 109:d:\_project\stm32\f407\hack_rf_new\lvgl\src\lv_misc\lv_area.h **** }
 4530              		.loc 3 109 5 view .LVU1450
ARM GAS  D:\Temp\cclLOIfg.s 			page 144


 109:d:\_project\stm32\f407\hack_rf_new\lvgl\src\lv_misc\lv_area.h **** }
 4531              		.loc 3 109 31 is_stmt 0 view .LVU1451
 4532 02a6 BDF86430 		ldrh	r3, [sp, #100]
 109:d:\_project\stm32\f407\hack_rf_new\lvgl\src\lv_misc\lv_area.h **** }
 4533              		.loc 3 109 44 view .LVU1452
 4534 02aa BDF86010 		ldrh	r1, [sp, #96]
 109:d:\_project\stm32\f407\hack_rf_new\lvgl\src\lv_misc\lv_area.h **** }
 4535              		.loc 3 109 36 view .LVU1453
 4536 02ae 5B1A     		subs	r3, r3, r1
 4537 02b0 9BB2     		uxth	r3, r3
 109:d:\_project\stm32\f407\hack_rf_new\lvgl\src\lv_misc\lv_area.h **** }
 4538              		.loc 3 109 49 view .LVU1454
 4539 02b2 0133     		adds	r3, r3, #1
 109:d:\_project\stm32\f407\hack_rf_new\lvgl\src\lv_misc\lv_area.h **** }
 4540              		.loc 3 109 12 view .LVU1455
 4541 02b4 1BB2     		sxth	r3, r3
 4542              	.LVL505:
 109:d:\_project\stm32\f407\hack_rf_new\lvgl\src\lv_misc\lv_area.h **** }
 4543              		.loc 3 109 12 view .LVU1456
 4544              	.LBE345:
 4545              	.LBE344:
1115:lvgl/src/lv_widgets/lv_label.c ****             lv_anim_set_values(&a, 0, -size.x - lv_font_get_glyph_width(font, ' ', ' ') * LV_LABEL_
 4546              		.loc 1 1115 11 view .LVU1457
 4547 02b6 9A42     		cmp	r2, r3
 4548 02b8 3EDD     		ble	.L258
 4549              	.LBB346:
1116:lvgl/src/lv_widgets/lv_label.c ****             lv_anim_set_exec_cb(&a, (lv_anim_exec_xcb_t)lv_label_set_offset_x);
 4550              		.loc 1 1116 13 is_stmt 1 view .LVU1458
1116:lvgl/src/lv_widgets/lv_label.c ****             lv_anim_set_exec_cb(&a, (lv_anim_exec_xcb_t)lv_label_set_offset_x);
 4551              		.loc 1 1116 49 is_stmt 0 view .LVU1459
 4552 02ba 2022     		movs	r2, #32
 4553 02bc 1146     		mov	r1, r2
 4554 02be 4046     		mov	r0, r8
 4555 02c0 FFF7FEFF 		bl	lv_font_get_glyph_width
 4556              	.LVL506:
1116:lvgl/src/lv_widgets/lv_label.c ****             lv_anim_set_exec_cb(&a, (lv_anim_exec_xcb_t)lv_label_set_offset_x);
 4557              		.loc 1 1116 44 view .LVU1460
 4558 02c4 BDF85C20 		ldrh	r2, [sp, #92]
1116:lvgl/src/lv_widgets/lv_label.c ****             lv_anim_set_exec_cb(&a, (lv_anim_exec_xcb_t)lv_label_set_offset_x);
 4559              		.loc 1 1116 47 view .LVU1461
 4560 02c8 A0EB8000 		sub	r0, r0, r0, lsl #2
 4561 02cc 821A     		subs	r2, r0, r2
1116:lvgl/src/lv_widgets/lv_label.c ****             lv_anim_set_exec_cb(&a, (lv_anim_exec_xcb_t)lv_label_set_offset_x);
 4562              		.loc 1 1116 13 view .LVU1462
 4563 02ce 12B2     		sxth	r2, r2
 4564              	.LVL507:
 4565              	.LBB347:
 4566              	.LBI347:
 168:lvgl/src/lv_widgets/../lv_core/../lv_misc/lv_anim.h **** {
 4567              		.loc 6 168 20 is_stmt 1 view .LVU1463
 4568              	.LBB348:
 170:lvgl/src/lv_widgets/../lv_core/../lv_misc/lv_anim.h ****     a->current = start;
 4569              		.loc 6 170 5 view .LVU1464
 170:lvgl/src/lv_widgets/../lv_core/../lv_misc/lv_anim.h ****     a->current = start;
 4570              		.loc 6 170 14 is_stmt 0 view .LVU1465
 4571 02d0 0021     		movs	r1, #0
 4572 02d2 0C91     		str	r1, [sp, #48]
ARM GAS  D:\Temp\cclLOIfg.s 			page 145


 171:lvgl/src/lv_widgets/../lv_core/../lv_misc/lv_anim.h ****     a->end   = end;
 4573              		.loc 6 171 5 is_stmt 1 view .LVU1466
 171:lvgl/src/lv_widgets/../lv_core/../lv_misc/lv_anim.h ****     a->end   = end;
 4574              		.loc 6 171 16 is_stmt 0 view .LVU1467
 4575 02d4 0D91     		str	r1, [sp, #52]
 172:lvgl/src/lv_widgets/../lv_core/../lv_misc/lv_anim.h **** }
 4576              		.loc 6 172 5 is_stmt 1 view .LVU1468
 172:lvgl/src/lv_widgets/../lv_core/../lv_misc/lv_anim.h **** }
 4577              		.loc 6 172 14 is_stmt 0 view .LVU1469
 4578 02d6 0E92     		str	r2, [sp, #56]
 4579              	.LVL508:
 172:lvgl/src/lv_widgets/../lv_core/../lv_misc/lv_anim.h **** }
 4580              		.loc 6 172 14 view .LVU1470
 4581              	.LBE348:
 4582              	.LBE347:
1117:lvgl/src/lv_widgets/lv_label.c ****             lv_anim_set_time(&a, lv_anim_speed_to_time(ext->anim_speed, a.start, a.end));
 4583              		.loc 1 1117 13 is_stmt 1 view .LVU1471
 4584              	.LBB349:
 4585              	.LBI349:
 137:lvgl/src/lv_widgets/../lv_core/../lv_misc/lv_anim.h **** {
 4586              		.loc 6 137 20 view .LVU1472
 4587              	.LBB350:
 139:lvgl/src/lv_widgets/../lv_core/../lv_misc/lv_anim.h **** }
 4588              		.loc 6 139 5 view .LVU1473
 139:lvgl/src/lv_widgets/../lv_core/../lv_misc/lv_anim.h **** }
 4589              		.loc 6 139 16 is_stmt 0 view .LVU1474
 4590 02d8 3B4C     		ldr	r4, .L293
 4591              	.LVL509:
 139:lvgl/src/lv_widgets/../lv_core/../lv_misc/lv_anim.h **** }
 4592              		.loc 6 139 16 view .LVU1475
 4593 02da 0794     		str	r4, [sp, #28]
 4594              	.LVL510:
 139:lvgl/src/lv_widgets/../lv_core/../lv_misc/lv_anim.h **** }
 4595              		.loc 6 139 16 view .LVU1476
 4596              	.LBE350:
 4597              	.LBE349:
1118:lvgl/src/lv_widgets/lv_label.c **** 
 4598              		.loc 1 1118 13 is_stmt 1 view .LVU1477
1118:lvgl/src/lv_widgets/lv_label.c **** 
 4599              		.loc 1 1118 34 is_stmt 0 view .LVU1478
 4600 02dc B089     		ldrh	r0, [r6, #12]
 4601 02de FFF7FEFF 		bl	lv_anim_speed_to_time
 4602              	.LVL511:
 4603              	.LBB351:
 4604              	.LBI351:
 147:lvgl/src/lv_widgets/../lv_core/../lv_misc/lv_anim.h **** {
 4605              		.loc 6 147 20 is_stmt 1 view .LVU1479
 4606              	.LBB352:
 149:lvgl/src/lv_widgets/../lv_core/../lv_misc/lv_anim.h **** }
 4607              		.loc 6 149 5 view .LVU1480
 149:lvgl/src/lv_widgets/../lv_core/../lv_misc/lv_anim.h **** }
 4608              		.loc 6 149 17 is_stmt 0 view .LVU1481
 4609 02e2 0F90     		str	r0, [sp, #60]
 4610              	.LVL512:
 149:lvgl/src/lv_widgets/../lv_core/../lv_misc/lv_anim.h **** }
 4611              		.loc 6 149 17 view .LVU1482
 4612              	.LBE352:
ARM GAS  D:\Temp\cclLOIfg.s 			page 146


 4613              	.LBE351:
1120:lvgl/src/lv_widgets/lv_label.c ****             int32_t act_time = anim_cur ? anim_cur->act_time : 0;
 4614              		.loc 1 1120 13 is_stmt 1 view .LVU1483
1120:lvgl/src/lv_widgets/lv_label.c ****             int32_t act_time = anim_cur ? anim_cur->act_time : 0;
 4615              		.loc 1 1120 36 is_stmt 0 view .LVU1484
 4616 02e4 2146     		mov	r1, r4
 4617 02e6 2846     		mov	r0, r5
 4618 02e8 FFF7FEFF 		bl	lv_anim_get
 4619              	.LVL513:
1121:lvgl/src/lv_widgets/lv_label.c ****             if(act_time < a.time) {
 4620              		.loc 1 1121 13 is_stmt 1 view .LVU1485
1121:lvgl/src/lv_widgets/lv_label.c ****             if(act_time < a.time) {
 4621              		.loc 1 1121 62 is_stmt 0 view .LVU1486
 4622 02ec 10B3     		cbz	r0, .L281
1121:lvgl/src/lv_widgets/lv_label.c ****             if(act_time < a.time) {
 4623              		.loc 1 1121 62 discriminator 1 view .LVU1487
 4624 02ee 836A     		ldr	r3, [r0, #40]
 4625              	.L259:
 4626              	.LVL514:
1122:lvgl/src/lv_widgets/lv_label.c ****                 a.act_time = act_time;      /*To keep the old position*/
 4627              		.loc 1 1122 13 is_stmt 1 discriminator 4 view .LVU1488
1122:lvgl/src/lv_widgets/lv_label.c ****                 a.act_time = act_time;      /*To keep the old position*/
 4628              		.loc 1 1122 28 is_stmt 0 discriminator 4 view .LVU1489
 4629 02f0 0F9A     		ldr	r2, [sp, #60]
1122:lvgl/src/lv_widgets/lv_label.c ****                 a.act_time = act_time;      /*To keep the old position*/
 4630              		.loc 1 1122 15 discriminator 4 view .LVU1490
 4631 02f2 9A42     		cmp	r2, r3
 4632 02f4 06DD     		ble	.L260
1123:lvgl/src/lv_widgets/lv_label.c ****                 a.early_apply = 0;
 4633              		.loc 1 1123 17 is_stmt 1 view .LVU1491
1123:lvgl/src/lv_widgets/lv_label.c ****                 a.early_apply = 0;
 4634              		.loc 1 1123 28 is_stmt 0 view .LVU1492
 4635 02f6 1093     		str	r3, [sp, #64]
1124:lvgl/src/lv_widgets/lv_label.c ****             }
 4636              		.loc 1 1124 17 is_stmt 1 view .LVU1493
1124:lvgl/src/lv_widgets/lv_label.c ****             }
 4637              		.loc 1 1124 31 is_stmt 0 view .LVU1494
 4638 02f8 9DF85230 		ldrb	r3, [sp, #82]	@ zero_extendqisi2
 4639              	.LVL515:
1124:lvgl/src/lv_widgets/lv_label.c ****             }
 4640              		.loc 1 1124 31 view .LVU1495
 4641 02fc 6FF30003 		bfc	r3, #0, #1
 4642 0300 8DF85230 		strb	r3, [sp, #82]
 4643              	.LVL516:
 4644              	.L260:
1127:lvgl/src/lv_widgets/lv_label.c ****             hor_anim = true;
 4645              		.loc 1 1127 13 is_stmt 1 view .LVU1496
 4646 0304 06A8     		add	r0, sp, #24
 4647              	.LVL517:
1127:lvgl/src/lv_widgets/lv_label.c ****             hor_anim = true;
 4648              		.loc 1 1127 13 is_stmt 0 view .LVU1497
 4649 0306 FFF7FEFF 		bl	lv_anim_start
 4650              	.LVL518:
1128:lvgl/src/lv_widgets/lv_label.c ****         }
 4651              		.loc 1 1128 13 is_stmt 1 view .LVU1498
1128:lvgl/src/lv_widgets/lv_label.c ****         }
 4652              		.loc 1 1128 22 is_stmt 0 view .LVU1499
ARM GAS  D:\Temp\cclLOIfg.s 			page 147


 4653 030a 0121     		movs	r1, #1
 4654              	.LVL519:
 4655              	.L261:
1128:lvgl/src/lv_widgets/lv_label.c ****         }
 4656              		.loc 1 1128 22 view .LVU1500
 4657              	.LBE346:
1136:lvgl/src/lv_widgets/lv_label.c ****             lv_anim_set_values(&a, 0, -size.y - (lv_font_get_line_height(font)));
 4658              		.loc 1 1136 9 is_stmt 1 view .LVU1501
1136:lvgl/src/lv_widgets/lv_label.c ****             lv_anim_set_values(&a, 0, -size.y - (lv_font_get_line_height(font)));
 4659              		.loc 1 1136 16 is_stmt 0 view .LVU1502
 4660 030c BDF95E20 		ldrsh	r2, [sp, #94]
 4661              	.LVL520:
 4662              	.LBB353:
 4663              	.LBI353:
 117:d:\_project\stm32\f407\hack_rf_new\lvgl\src\lv_misc\lv_area.h **** {
 4664              		.loc 3 117 26 is_stmt 1 view .LVU1503
 4665              	.LBB354:
 4666              		.loc 3 119 5 view .LVU1504
 4667              		.loc 3 119 31 is_stmt 0 view .LVU1505
 4668 0310 BDF86630 		ldrh	r3, [sp, #102]
 4669              		.loc 3 119 44 view .LVU1506
 4670 0314 BDF86200 		ldrh	r0, [sp, #98]
 4671              		.loc 3 119 36 view .LVU1507
 4672 0318 1B1A     		subs	r3, r3, r0
 4673 031a 9BB2     		uxth	r3, r3
 4674              		.loc 3 119 49 view .LVU1508
 4675 031c 0133     		adds	r3, r3, #1
 4676              		.loc 3 119 12 view .LVU1509
 4677 031e 1BB2     		sxth	r3, r3
 4678              	.LVL521:
 4679              		.loc 3 119 12 view .LVU1510
 4680              	.LBE354:
 4681              	.LBE353:
1136:lvgl/src/lv_widgets/lv_label.c ****             lv_anim_set_values(&a, 0, -size.y - (lv_font_get_line_height(font)));
 4682              		.loc 1 1136 11 view .LVU1511
 4683 0320 9A42     		cmp	r2, r3
 4684 0322 00DD     		ble	.L262
1136:lvgl/src/lv_widgets/lv_label.c ****             lv_anim_set_values(&a, 0, -size.y - (lv_font_get_line_height(font)));
 4685              		.loc 1 1136 53 discriminator 1 view .LVU1512
 4686 0324 79B1     		cbz	r1, .L291
 4687              	.L262:
1152:lvgl/src/lv_widgets/lv_label.c ****             ext->offset.y = 0;
 4688              		.loc 1 1152 13 is_stmt 1 view .LVU1513
 4689 0326 2949     		ldr	r1, .L293+4
 4690              	.LVL522:
1152:lvgl/src/lv_widgets/lv_label.c ****             ext->offset.y = 0;
 4691              		.loc 1 1152 13 is_stmt 0 view .LVU1514
 4692 0328 2846     		mov	r0, r5
 4693 032a FFF7FEFF 		bl	lv_anim_del
 4694              	.LVL523:
1153:lvgl/src/lv_widgets/lv_label.c ****         }
 4695              		.loc 1 1153 13 is_stmt 1 view .LVU1515
1153:lvgl/src/lv_widgets/lv_label.c ****         }
 4696              		.loc 1 1153 27 is_stmt 0 view .LVU1516
 4697 032e 0023     		movs	r3, #0
 4698 0330 3382     		strh	r3, [r6, #16]	@ movhi
 4699 0332 F9E6     		b	.L247
ARM GAS  D:\Temp\cclLOIfg.s 			page 148


 4700              	.LVL524:
 4701              	.L281:
 4702              	.LBB355:
1121:lvgl/src/lv_widgets/lv_label.c ****             if(act_time < a.time) {
 4703              		.loc 1 1121 62 view .LVU1517
 4704 0334 0023     		movs	r3, #0
 4705 0336 DBE7     		b	.L259
 4706              	.LVL525:
 4707              	.L258:
1121:lvgl/src/lv_widgets/lv_label.c ****             if(act_time < a.time) {
 4708              		.loc 1 1121 62 view .LVU1518
 4709              	.LBE355:
1132:lvgl/src/lv_widgets/lv_label.c ****             ext->offset.x = 0;
 4710              		.loc 1 1132 13 is_stmt 1 view .LVU1519
 4711 0338 2349     		ldr	r1, .L293
 4712 033a 2846     		mov	r0, r5
 4713 033c FFF7FEFF 		bl	lv_anim_del
 4714              	.LVL526:
1133:lvgl/src/lv_widgets/lv_label.c ****         }
 4715              		.loc 1 1133 13 view .LVU1520
1133:lvgl/src/lv_widgets/lv_label.c ****         }
 4716              		.loc 1 1133 27 is_stmt 0 view .LVU1521
 4717 0340 0021     		movs	r1, #0
 4718 0342 F181     		strh	r1, [r6, #14]	@ movhi
 4719 0344 E2E7     		b	.L261
 4720              	.LVL527:
 4721              	.L291:
 4722              	.LBB356:
1137:lvgl/src/lv_widgets/lv_label.c ****             lv_anim_set_exec_cb(&a, (lv_anim_exec_xcb_t)lv_label_set_offset_y);
 4723              		.loc 1 1137 13 is_stmt 1 view .LVU1522
1137:lvgl/src/lv_widgets/lv_label.c ****             lv_anim_set_exec_cb(&a, (lv_anim_exec_xcb_t)lv_label_set_offset_y);
 4724              		.loc 1 1137 44 is_stmt 0 view .LVU1523
 4725 0346 92B2     		uxth	r2, r2
 4726              	.LVL528:
 4727              	.LBB357:
 4728              	.LBI357:
 116:lvgl/src/lv_widgets/../lv_core/../lv_font/lv_font.h **** {
 4729              		.loc 4 116 26 is_stmt 1 view .LVU1524
 4730              	.LBB358:
 4731              		.loc 4 118 5 view .LVU1525
 4732              		.loc 4 118 18 is_stmt 0 view .LVU1526
 4733 0348 B8F90830 		ldrsh	r3, [r8, #8]
 4734              	.LVL529:
 4735              		.loc 4 118 18 view .LVU1527
 4736              	.LBE358:
 4737              	.LBE357:
1137:lvgl/src/lv_widgets/lv_label.c ****             lv_anim_set_exec_cb(&a, (lv_anim_exec_xcb_t)lv_label_set_offset_y);
 4738              		.loc 1 1137 50 view .LVU1528
 4739 034c 9BB2     		uxth	r3, r3
1137:lvgl/src/lv_widgets/lv_label.c ****             lv_anim_set_exec_cb(&a, (lv_anim_exec_xcb_t)lv_label_set_offset_y);
 4740              		.loc 1 1137 47 view .LVU1529
 4741 034e 5242     		rsbs	r2, r2, #0
 4742 0350 D21A     		subs	r2, r2, r3
1137:lvgl/src/lv_widgets/lv_label.c ****             lv_anim_set_exec_cb(&a, (lv_anim_exec_xcb_t)lv_label_set_offset_y);
 4743              		.loc 1 1137 13 view .LVU1530
 4744 0352 12B2     		sxth	r2, r2
 4745              	.LVL530:
ARM GAS  D:\Temp\cclLOIfg.s 			page 149


 4746              	.LBB359:
 4747              	.LBI359:
 168:lvgl/src/lv_widgets/../lv_core/../lv_misc/lv_anim.h **** {
 4748              		.loc 6 168 20 is_stmt 1 view .LVU1531
 4749              	.LBB360:
 170:lvgl/src/lv_widgets/../lv_core/../lv_misc/lv_anim.h ****     a->current = start;
 4750              		.loc 6 170 5 view .LVU1532
 170:lvgl/src/lv_widgets/../lv_core/../lv_misc/lv_anim.h ****     a->current = start;
 4751              		.loc 6 170 14 is_stmt 0 view .LVU1533
 4752 0354 0C91     		str	r1, [sp, #48]
 171:lvgl/src/lv_widgets/../lv_core/../lv_misc/lv_anim.h ****     a->end   = end;
 4753              		.loc 6 171 5 is_stmt 1 view .LVU1534
 171:lvgl/src/lv_widgets/../lv_core/../lv_misc/lv_anim.h ****     a->end   = end;
 4754              		.loc 6 171 16 is_stmt 0 view .LVU1535
 4755 0356 0D91     		str	r1, [sp, #52]
 172:lvgl/src/lv_widgets/../lv_core/../lv_misc/lv_anim.h **** }
 4756              		.loc 6 172 5 is_stmt 1 view .LVU1536
 172:lvgl/src/lv_widgets/../lv_core/../lv_misc/lv_anim.h **** }
 4757              		.loc 6 172 14 is_stmt 0 view .LVU1537
 4758 0358 0E92     		str	r2, [sp, #56]
 4759              	.LVL531:
 172:lvgl/src/lv_widgets/../lv_core/../lv_misc/lv_anim.h **** }
 4760              		.loc 6 172 14 view .LVU1538
 4761              	.LBE360:
 4762              	.LBE359:
1138:lvgl/src/lv_widgets/lv_label.c ****             lv_anim_set_time(&a, lv_anim_speed_to_time(ext->anim_speed, a.start, a.end));
 4763              		.loc 1 1138 13 is_stmt 1 view .LVU1539
 4764              	.LBB361:
 4765              	.LBI361:
 137:lvgl/src/lv_widgets/../lv_core/../lv_misc/lv_anim.h **** {
 4766              		.loc 6 137 20 view .LVU1540
 4767              	.LBB362:
 139:lvgl/src/lv_widgets/../lv_core/../lv_misc/lv_anim.h **** }
 4768              		.loc 6 139 5 view .LVU1541
 139:lvgl/src/lv_widgets/../lv_core/../lv_misc/lv_anim.h **** }
 4769              		.loc 6 139 16 is_stmt 0 view .LVU1542
 4770 035a 1C4C     		ldr	r4, .L293+4
 4771 035c 0794     		str	r4, [sp, #28]
 4772              	.LVL532:
 139:lvgl/src/lv_widgets/../lv_core/../lv_misc/lv_anim.h **** }
 4773              		.loc 6 139 16 view .LVU1543
 4774              	.LBE362:
 4775              	.LBE361:
1139:lvgl/src/lv_widgets/lv_label.c **** 
 4776              		.loc 1 1139 13 is_stmt 1 view .LVU1544
1139:lvgl/src/lv_widgets/lv_label.c **** 
 4777              		.loc 1 1139 34 is_stmt 0 view .LVU1545
 4778 035e B089     		ldrh	r0, [r6, #12]
 4779 0360 FFF7FEFF 		bl	lv_anim_speed_to_time
 4780              	.LVL533:
 4781              	.LBB363:
 4782              	.LBI363:
 147:lvgl/src/lv_widgets/../lv_core/../lv_misc/lv_anim.h **** {
 4783              		.loc 6 147 20 is_stmt 1 view .LVU1546
 4784              	.LBB364:
 149:lvgl/src/lv_widgets/../lv_core/../lv_misc/lv_anim.h **** }
 4785              		.loc 6 149 5 view .LVU1547
ARM GAS  D:\Temp\cclLOIfg.s 			page 150


 149:lvgl/src/lv_widgets/../lv_core/../lv_misc/lv_anim.h **** }
 4786              		.loc 6 149 17 is_stmt 0 view .LVU1548
 4787 0364 0F90     		str	r0, [sp, #60]
 4788              	.LVL534:
 149:lvgl/src/lv_widgets/../lv_core/../lv_misc/lv_anim.h **** }
 4789              		.loc 6 149 17 view .LVU1549
 4790              	.LBE364:
 4791              	.LBE363:
1141:lvgl/src/lv_widgets/lv_label.c ****             int32_t act_time = anim_cur ? anim_cur->act_time : 0;
 4792              		.loc 1 1141 13 is_stmt 1 view .LVU1550
1141:lvgl/src/lv_widgets/lv_label.c ****             int32_t act_time = anim_cur ? anim_cur->act_time : 0;
 4793              		.loc 1 1141 36 is_stmt 0 view .LVU1551
 4794 0366 2146     		mov	r1, r4
 4795 0368 2846     		mov	r0, r5
 4796 036a FFF7FEFF 		bl	lv_anim_get
 4797              	.LVL535:
1142:lvgl/src/lv_widgets/lv_label.c ****             if(act_time < a.time) {
 4798              		.loc 1 1142 13 is_stmt 1 view .LVU1552
1142:lvgl/src/lv_widgets/lv_label.c ****             if(act_time < a.time) {
 4799              		.loc 1 1142 62 is_stmt 0 view .LVU1553
 4800 036e 70B1     		cbz	r0, .L282
1142:lvgl/src/lv_widgets/lv_label.c ****             if(act_time < a.time) {
 4801              		.loc 1 1142 62 discriminator 1 view .LVU1554
 4802 0370 836A     		ldr	r3, [r0, #40]
 4803              	.L263:
 4804              	.LVL536:
1143:lvgl/src/lv_widgets/lv_label.c ****                 a.act_time = act_time;      /*To keep the old position*/
 4805              		.loc 1 1143 13 is_stmt 1 discriminator 4 view .LVU1555
1143:lvgl/src/lv_widgets/lv_label.c ****                 a.act_time = act_time;      /*To keep the old position*/
 4806              		.loc 1 1143 28 is_stmt 0 discriminator 4 view .LVU1556
 4807 0372 0F9A     		ldr	r2, [sp, #60]
1143:lvgl/src/lv_widgets/lv_label.c ****                 a.act_time = act_time;      /*To keep the old position*/
 4808              		.loc 1 1143 15 discriminator 4 view .LVU1557
 4809 0374 9A42     		cmp	r2, r3
 4810 0376 06DD     		ble	.L264
1144:lvgl/src/lv_widgets/lv_label.c ****                 a.early_apply = 0;
 4811              		.loc 1 1144 17 is_stmt 1 view .LVU1558
1144:lvgl/src/lv_widgets/lv_label.c ****                 a.early_apply = 0;
 4812              		.loc 1 1144 28 is_stmt 0 view .LVU1559
 4813 0378 1093     		str	r3, [sp, #64]
1145:lvgl/src/lv_widgets/lv_label.c ****             }
 4814              		.loc 1 1145 17 is_stmt 1 view .LVU1560
1145:lvgl/src/lv_widgets/lv_label.c ****             }
 4815              		.loc 1 1145 31 is_stmt 0 view .LVU1561
 4816 037a 9DF85230 		ldrb	r3, [sp, #82]	@ zero_extendqisi2
 4817              	.LVL537:
1145:lvgl/src/lv_widgets/lv_label.c ****             }
 4818              		.loc 1 1145 31 view .LVU1562
 4819 037e 6FF30003 		bfc	r3, #0, #1
 4820 0382 8DF85230 		strb	r3, [sp, #82]
 4821              	.LVL538:
 4822              	.L264:
1148:lvgl/src/lv_widgets/lv_label.c ****         }
 4823              		.loc 1 1148 13 is_stmt 1 view .LVU1563
 4824 0386 06A8     		add	r0, sp, #24
 4825              	.LVL539:
1148:lvgl/src/lv_widgets/lv_label.c ****         }
ARM GAS  D:\Temp\cclLOIfg.s 			page 151


 4826              		.loc 1 1148 13 is_stmt 0 view .LVU1564
 4827 0388 FFF7FEFF 		bl	lv_anim_start
 4828              	.LVL540:
 4829              	.LBE356:
1136:lvgl/src/lv_widgets/lv_label.c ****             lv_anim_set_values(&a, 0, -size.y - (lv_font_get_line_height(font)));
 4830              		.loc 1 1136 75 view .LVU1565
 4831 038c CCE6     		b	.L247
 4832              	.LVL541:
 4833              	.L282:
 4834              	.LBB365:
1142:lvgl/src/lv_widgets/lv_label.c ****             if(act_time < a.time) {
 4835              		.loc 1 1142 62 view .LVU1566
 4836 038e 0023     		movs	r3, #0
 4837 0390 EFE7     		b	.L263
 4838              	.LVL542:
 4839              	.L289:
1142:lvgl/src/lv_widgets/lv_label.c ****             if(act_time < a.time) {
 4840              		.loc 1 1142 62 view .LVU1567
 4841              	.LBE365:
 4842              	.LBE339:
1158:lvgl/src/lv_widgets/lv_label.c ****             ext->dot_end = LV_LABEL_DOT_END_INV;
 4843              		.loc 1 1158 9 is_stmt 1 view .LVU1568
1158:lvgl/src/lv_widgets/lv_label.c ****             ext->dot_end = LV_LABEL_DOT_END_INV;
 4844              		.loc 1 1158 16 is_stmt 0 view .LVU1569
 4845 0392 BDF95E20 		ldrsh	r2, [sp, #94]
 4846              	.LVL543:
 4847              	.LBB366:
 4848              	.LBI366:
 117:d:\_project\stm32\f407\hack_rf_new\lvgl\src\lv_misc\lv_area.h **** {
 4849              		.loc 3 117 26 is_stmt 1 view .LVU1570
 4850              	.LBB367:
 4851              		.loc 3 119 5 view .LVU1571
 4852              		.loc 3 119 31 is_stmt 0 view .LVU1572
 4853 0396 BDF86630 		ldrh	r3, [sp, #102]
 4854              		.loc 3 119 44 view .LVU1573
 4855 039a BDF86210 		ldrh	r1, [sp, #98]
 4856              		.loc 3 119 36 view .LVU1574
 4857 039e 5B1A     		subs	r3, r3, r1
 4858 03a0 9BB2     		uxth	r3, r3
 4859              		.loc 3 119 49 view .LVU1575
 4860 03a2 0133     		adds	r3, r3, #1
 4861              		.loc 3 119 12 view .LVU1576
 4862 03a4 1BB2     		sxth	r3, r3
 4863              	.LVL544:
 4864              		.loc 3 119 12 view .LVU1577
 4865              	.LBE367:
 4866              	.LBE366:
1158:lvgl/src/lv_widgets/lv_label.c ****             ext->dot_end = LV_LABEL_DOT_END_INV;
 4867              		.loc 1 1158 11 view .LVU1578
 4868 03a6 9A42     		cmp	r2, r3
 4869 03a8 03DC     		bgt	.L267
1159:lvgl/src/lv_widgets/lv_label.c ****         }
 4870              		.loc 1 1159 13 is_stmt 1 view .LVU1579
1159:lvgl/src/lv_widgets/lv_label.c ****         }
 4871              		.loc 1 1159 26 is_stmt 0 view .LVU1580
 4872 03aa 4FF6FF73 		movw	r3, #65535
 4873 03ae B360     		str	r3, [r6, #8]
ARM GAS  D:\Temp\cclLOIfg.s 			page 152


 4874 03b0 BAE6     		b	.L247
 4875              	.L267:
1161:lvgl/src/lv_widgets/lv_label.c ****             ext->dot_end = LV_LABEL_DOT_END_INV;
 4876              		.loc 1 1161 14 is_stmt 1 view .LVU1581
1161:lvgl/src/lv_widgets/lv_label.c ****             ext->dot_end = LV_LABEL_DOT_END_INV;
 4877              		.loc 1 1161 17 is_stmt 0 view .LVU1582
 4878 03b2 074B     		ldr	r3, .L293+8
 4879 03b4 1B68     		ldr	r3, [r3]
 4880 03b6 3068     		ldr	r0, [r6]
 4881 03b8 9847     		blx	r3
 4882              	.LVL545:
1161:lvgl/src/lv_widgets/lv_label.c ****             ext->dot_end = LV_LABEL_DOT_END_INV;
 4883              		.loc 1 1161 16 view .LVU1583
 4884 03ba 0328     		cmp	r0, #3
 4885 03bc 0AD8     		bhi	.L268
1162:lvgl/src/lv_widgets/lv_label.c ****         }
 4886              		.loc 1 1162 13 is_stmt 1 view .LVU1584
1162:lvgl/src/lv_widgets/lv_label.c ****         }
 4887              		.loc 1 1162 26 is_stmt 0 view .LVU1585
 4888 03be 4FF6FF73 		movw	r3, #65535
 4889 03c2 B360     		str	r3, [r6, #8]
 4890 03c4 B0E6     		b	.L247
 4891              	.L294:
 4892 03c6 00BF     		.align	2
 4893              	.L293:
 4894 03c8 00000000 		.word	lv_label_set_offset_x
 4895 03cc 00000000 		.word	lv_label_set_offset_y
 4896 03d0 00000000 		.word	_lv_txt_get_encoded_length
 4897              	.L268:
 4898              	.LBB368:
1165:lvgl/src/lv_widgets/lv_label.c ****             lv_coord_t y_overed;
 4899              		.loc 1 1165 13 is_stmt 1 view .LVU1586
1166:lvgl/src/lv_widgets/lv_label.c ****             p.x = lv_area_get_width(&txt_coords) -
 4900              		.loc 1 1166 13 view .LVU1587
1167:lvgl/src/lv_widgets/lv_label.c ****                   (lv_font_get_glyph_width(font, '.', '.') + letter_space) *
 4901              		.loc 1 1167 13 view .LVU1588
 4902              	.LVL546:
 4903              	.LBB369:
 4904              	.LBI369:
 107:d:\_project\stm32\f407\hack_rf_new\lvgl\src\lv_misc\lv_area.h **** {
 4905              		.loc 3 107 26 view .LVU1589
 4906              	.LBB370:
 109:d:\_project\stm32\f407\hack_rf_new\lvgl\src\lv_misc\lv_area.h **** }
 4907              		.loc 3 109 5 view .LVU1590
 109:d:\_project\stm32\f407\hack_rf_new\lvgl\src\lv_misc\lv_area.h **** }
 4908              		.loc 3 109 31 is_stmt 0 view .LVU1591
 4909 03d4 BDF86440 		ldrh	r4, [sp, #100]
 4910              	.LVL547:
 109:d:\_project\stm32\f407\hack_rf_new\lvgl\src\lv_misc\lv_area.h **** }
 4911              		.loc 3 109 44 view .LVU1592
 4912 03d8 BDF86030 		ldrh	r3, [sp, #96]
 109:d:\_project\stm32\f407\hack_rf_new\lvgl\src\lv_misc\lv_area.h **** }
 4913              		.loc 3 109 36 view .LVU1593
 4914 03dc E41A     		subs	r4, r4, r3
 4915 03de A4B2     		uxth	r4, r4
 109:d:\_project\stm32\f407\hack_rf_new\lvgl\src\lv_misc\lv_area.h **** }
 4916              		.loc 3 109 49 view .LVU1594
ARM GAS  D:\Temp\cclLOIfg.s 			page 153


 4917 03e0 0134     		adds	r4, r4, #1
 4918 03e2 A4B2     		uxth	r4, r4
 4919              	.LVL548:
 109:d:\_project\stm32\f407\hack_rf_new\lvgl\src\lv_misc\lv_area.h **** }
 4920              		.loc 3 109 49 view .LVU1595
 4921              	.LBE370:
 4922              	.LBE369:
1168:lvgl/src/lv_widgets/lv_label.c ****                   LV_LABEL_DOT_NUM; /*Shrink with dots*/
 4923              		.loc 1 1168 20 view .LVU1596
 4924 03e4 2E22     		movs	r2, #46
 4925 03e6 1146     		mov	r1, r2
 4926 03e8 4046     		mov	r0, r8
 4927 03ea FFF7FEFF 		bl	lv_font_get_glyph_width
 4928              	.LVL549:
1168:lvgl/src/lv_widgets/lv_label.c ****                   LV_LABEL_DOT_NUM; /*Shrink with dots*/
 4929              		.loc 1 1168 60 view .LVU1597
 4930 03ee 3844     		add	r0, r0, r7
1167:lvgl/src/lv_widgets/lv_label.c ****                   (lv_font_get_glyph_width(font, '.', '.') + letter_space) *
 4931              		.loc 1 1167 50 view .LVU1598
 4932 03f0 A0EB8000 		sub	r0, r0, r0, lsl #2
 4933 03f4 2044     		add	r0, r0, r4
1167:lvgl/src/lv_widgets/lv_label.c ****                   (lv_font_get_glyph_width(font, '.', '.') + letter_space) *
 4934              		.loc 1 1167 17 view .LVU1599
 4935 03f6 ADF81400 		strh	r0, [sp, #20]	@ movhi
1170:lvgl/src/lv_widgets/lv_label.c ****             y_overed = p.y %
 4936              		.loc 1 1170 13 is_stmt 1 view .LVU1600
 4937              	.LVL550:
 4938              	.LBB371:
 4939              	.LBI371:
 117:d:\_project\stm32\f407\hack_rf_new\lvgl\src\lv_misc\lv_area.h **** {
 4940              		.loc 3 117 26 view .LVU1601
 4941              	.LBB372:
 4942              		.loc 3 119 5 view .LVU1602
 4943              		.loc 3 119 31 is_stmt 0 view .LVU1603
 4944 03fa BDF86630 		ldrh	r3, [sp, #102]
 4945              		.loc 3 119 44 view .LVU1604
 4946 03fe BDF86220 		ldrh	r2, [sp, #98]
 4947              		.loc 3 119 36 view .LVU1605
 4948 0402 9B1A     		subs	r3, r3, r2
 4949 0404 9BB2     		uxth	r3, r3
 4950              		.loc 3 119 49 view .LVU1606
 4951 0406 0133     		adds	r3, r3, #1
 4952 0408 9BB2     		uxth	r3, r3
 4953              		.loc 3 119 12 view .LVU1607
 4954 040a 18B2     		sxth	r0, r3
 4955              	.LVL551:
 4956              		.loc 3 119 12 view .LVU1608
 4957              	.LBE372:
 4958              	.LBE371:
1170:lvgl/src/lv_widgets/lv_label.c ****             y_overed = p.y %
 4959              		.loc 1 1170 17 view .LVU1609
 4960 040c ADF81600 		strh	r0, [sp, #22]	@ movhi
1171:lvgl/src/lv_widgets/lv_label.c ****                        (lv_font_get_line_height(font) + line_space); /*Round down to the last line*
 4961              		.loc 1 1171 13 is_stmt 1 view .LVU1610
 4962              	.LVL552:
 4963              	.LBB373:
 4964              	.LBI373:
ARM GAS  D:\Temp\cclLOIfg.s 			page 154


 116:lvgl/src/lv_widgets/../lv_core/../lv_font/lv_font.h **** {
 4965              		.loc 4 116 26 view .LVU1611
 4966              	.LBB374:
 4967              		.loc 4 118 5 view .LVU1612
 4968              		.loc 4 118 18 is_stmt 0 view .LVU1613
 4969 0410 B8F90810 		ldrsh	r1, [r8, #8]
 4970              	.LVL553:
 4971              		.loc 4 118 18 view .LVU1614
 4972              	.LBE374:
 4973              	.LBE373:
1172:lvgl/src/lv_widgets/lv_label.c ****             if(y_overed >= lv_font_get_line_height(font)) {
 4974              		.loc 1 1172 55 view .LVU1615
 4975 0414 09EB0104 		add	r4, r9, r1
1171:lvgl/src/lv_widgets/lv_label.c ****                        (lv_font_get_line_height(font) + line_space); /*Round down to the last line*
 4976              		.loc 1 1171 28 view .LVU1616
 4977 0418 90FBF4F2 		sdiv	r2, r0, r4
 4978 041c 04FB1202 		mls	r2, r4, r2, r0
1171:lvgl/src/lv_widgets/lv_label.c ****                        (lv_font_get_line_height(font) + line_space); /*Round down to the last line*
 4979              		.loc 1 1171 22 view .LVU1617
 4980 0420 10B2     		sxth	r0, r2
 4981              	.LVL554:
1173:lvgl/src/lv_widgets/lv_label.c ****                 p.y -= y_overed;
 4982              		.loc 1 1173 13 is_stmt 1 view .LVU1618
1173:lvgl/src/lv_widgets/lv_label.c ****                 p.y -= y_overed;
 4983              		.loc 1 1173 13 is_stmt 0 view .LVU1619
 4984              	.LBE368:
 4985              		.loc 4 118 5 is_stmt 1 view .LVU1620
 4986              	.LBB375:
1173:lvgl/src/lv_widgets/lv_label.c ****                 p.y -= y_overed;
 4987              		.loc 1 1173 15 is_stmt 0 view .LVU1621
 4988 0422 8842     		cmp	r0, r1
 4989 0424 21DB     		blt	.L269
1174:lvgl/src/lv_widgets/lv_label.c ****                 p.y += lv_font_get_line_height(font);
 4990              		.loc 1 1174 17 is_stmt 1 view .LVU1622
1174:lvgl/src/lv_widgets/lv_label.c ****                 p.y += lv_font_get_line_height(font);
 4991              		.loc 1 1174 21 is_stmt 0 view .LVU1623
 4992 0426 9B1A     		subs	r3, r3, r2
1175:lvgl/src/lv_widgets/lv_label.c ****             }
 4993              		.loc 1 1175 17 is_stmt 1 view .LVU1624
 4994              	.LVL555:
1175:lvgl/src/lv_widgets/lv_label.c ****             }
 4995              		.loc 1 1175 17 is_stmt 0 view .LVU1625
 4996              	.LBE375:
 4997              		.loc 4 118 5 is_stmt 1 view .LVU1626
 4998              	.LBB376:
1175:lvgl/src/lv_widgets/lv_label.c ****             }
 4999              		.loc 1 1175 24 is_stmt 0 view .LVU1627
 5000 0428 89B2     		uxth	r1, r1
1175:lvgl/src/lv_widgets/lv_label.c ****             }
 5001              		.loc 1 1175 21 view .LVU1628
 5002 042a 11FA83F3 		uxtah	r3, r1, r3
 5003 042e ADF81630 		strh	r3, [sp, #22]	@ movhi
 5004              	.LVL556:
 5005              	.L270:
1182:lvgl/src/lv_widgets/lv_label.c **** 
 5006              		.loc 1 1182 13 is_stmt 1 view .LVU1629
1182:lvgl/src/lv_widgets/lv_label.c **** 
ARM GAS  D:\Temp\cclLOIfg.s 			page 155


 5007              		.loc 1 1182 34 is_stmt 0 view .LVU1630
 5008 0432 05A9     		add	r1, sp, #20
 5009 0434 2846     		mov	r0, r5
 5010              	.LVL557:
1182:lvgl/src/lv_widgets/lv_label.c **** 
 5011              		.loc 1 1182 34 view .LVU1631
 5012 0436 FFF7FEFF 		bl	lv_label_get_letter_on
 5013              	.LVL558:
1182:lvgl/src/lv_widgets/lv_label.c **** 
 5014              		.loc 1 1182 34 view .LVU1632
 5015 043a 0746     		mov	r7, r0
 5016              	.LVL559:
1185:lvgl/src/lv_widgets/lv_label.c ****             uint32_t byte_id     = _lv_txt_encoded_get_byte_id(ext->text, letter_id);
 5017              		.loc 1 1185 13 is_stmt 1 view .LVU1633
1185:lvgl/src/lv_widgets/lv_label.c ****             uint32_t byte_id     = _lv_txt_encoded_get_byte_id(ext->text, letter_id);
 5018              		.loc 1 1185 40 is_stmt 0 view .LVU1634
 5019 043c 3468     		ldr	r4, [r6]
1185:lvgl/src/lv_widgets/lv_label.c ****             uint32_t byte_id     = _lv_txt_encoded_get_byte_id(ext->text, letter_id);
 5020              		.loc 1 1185 30 view .LVU1635
 5021 043e 2046     		mov	r0, r4
 5022              	.LVL560:
1185:lvgl/src/lv_widgets/lv_label.c ****             uint32_t byte_id     = _lv_txt_encoded_get_byte_id(ext->text, letter_id);
 5023              		.loc 1 1185 30 view .LVU1636
 5024 0440 FFF7FEFF 		bl	strlen
 5025              	.LVL561:
 5026 0444 8046     		mov	r8, r0
 5027              	.LVL562:
1186:lvgl/src/lv_widgets/lv_label.c ****             while(byte_id + LV_LABEL_DOT_NUM > txt_len) {
 5028              		.loc 1 1186 13 is_stmt 1 view .LVU1637
1186:lvgl/src/lv_widgets/lv_label.c ****             while(byte_id + LV_LABEL_DOT_NUM > txt_len) {
 5029              		.loc 1 1186 36 is_stmt 0 view .LVU1638
 5030 0446 244B     		ldr	r3, .L295
 5031 0448 1B68     		ldr	r3, [r3]
 5032 044a 3946     		mov	r1, r7
 5033 044c 2046     		mov	r0, r4
 5034              	.LVL563:
1186:lvgl/src/lv_widgets/lv_label.c ****             while(byte_id + LV_LABEL_DOT_NUM > txt_len) {
 5035              		.loc 1 1186 36 view .LVU1639
 5036 044e 9847     		blx	r3
 5037              	.LVL564:
1186:lvgl/src/lv_widgets/lv_label.c ****             while(byte_id + LV_LABEL_DOT_NUM > txt_len) {
 5038              		.loc 1 1186 22 view .LVU1640
 5039 0450 0690     		str	r0, [sp, #24]
1187:lvgl/src/lv_widgets/lv_label.c ****                 _lv_txt_encoded_prev(ext->text, &byte_id);
 5040              		.loc 1 1187 13 is_stmt 1 view .LVU1641
 5041              	.L271:
1187:lvgl/src/lv_widgets/lv_label.c ****                 _lv_txt_encoded_prev(ext->text, &byte_id);
 5042              		.loc 1 1187 27 is_stmt 0 view .LVU1642
 5043 0452 069C     		ldr	r4, [sp, #24]
 5044 0454 04F10309 		add	r9, r4, #3
1187:lvgl/src/lv_widgets/lv_label.c ****                 _lv_txt_encoded_prev(ext->text, &byte_id);
 5045              		.loc 1 1187 18 view .LVU1643
 5046 0458 C145     		cmp	r9, r8
 5047 045a 0DD9     		bls	.L292
1188:lvgl/src/lv_widgets/lv_label.c ****                 letter_id--;
 5048              		.loc 1 1188 17 is_stmt 1 view .LVU1644
 5049 045c 1F4B     		ldr	r3, .L295+4
ARM GAS  D:\Temp\cclLOIfg.s 			page 156


 5050 045e 1B68     		ldr	r3, [r3]
 5051 0460 06A9     		add	r1, sp, #24
 5052 0462 3068     		ldr	r0, [r6]
 5053 0464 9847     		blx	r3
 5054              	.LVL565:
1189:lvgl/src/lv_widgets/lv_label.c ****             }
 5055              		.loc 1 1189 17 view .LVU1645
1189:lvgl/src/lv_widgets/lv_label.c ****             }
 5056              		.loc 1 1189 26 is_stmt 0 view .LVU1646
 5057 0466 013F     		subs	r7, r7, #1
 5058              	.LVL566:
1189:lvgl/src/lv_widgets/lv_label.c ****             }
 5059              		.loc 1 1189 26 view .LVU1647
 5060 0468 F3E7     		b	.L271
 5061              	.LVL567:
 5062              	.L269:
1178:lvgl/src/lv_widgets/lv_label.c ****                 p.y -= line_space;
 5063              		.loc 1 1178 17 is_stmt 1 view .LVU1648
1178:lvgl/src/lv_widgets/lv_label.c ****                 p.y -= line_space;
 5064              		.loc 1 1178 21 is_stmt 0 view .LVU1649
 5065 046a 9B1A     		subs	r3, r3, r2
 5066 046c 9BB2     		uxth	r3, r3
1179:lvgl/src/lv_widgets/lv_label.c ****             }
 5067              		.loc 1 1179 17 is_stmt 1 view .LVU1650
1179:lvgl/src/lv_widgets/lv_label.c ****             }
 5068              		.loc 1 1179 21 is_stmt 0 view .LVU1651
 5069 046e A3EB0909 		sub	r9, r3, r9
 5070              	.LVL568:
1179:lvgl/src/lv_widgets/lv_label.c ****             }
 5071              		.loc 1 1179 21 view .LVU1652
 5072 0472 ADF81690 		strh	r9, [sp, #22]	@ movhi
 5073 0476 DCE7     		b	.L270
 5074              	.LVL569:
 5075              	.L292:
1195:lvgl/src/lv_widgets/lv_label.c ****             for(i = 0; i <= LV_LABEL_DOT_NUM; i++) {
 5076              		.loc 1 1195 21 view .LVU1653
 5077 0478 4FF00008 		mov	r8, #0
 5078              	.LVL570:
1196:lvgl/src/lv_widgets/lv_label.c ****                 len += _lv_txt_encoded_size(&ext->text[byte_id]);
 5079              		.loc 1 1196 19 view .LVU1654
 5080 047c C246     		mov	r10, r8
 5081 047e 0FE0     		b	.L273
 5082              	.LVL571:
 5083              	.L274:
1197:lvgl/src/lv_widgets/lv_label.c ****                 _lv_txt_encoded_next(ext->text, &byte_id);
 5084              		.loc 1 1197 17 is_stmt 1 discriminator 3 view .LVU1655
1197:lvgl/src/lv_widgets/lv_label.c ****                 _lv_txt_encoded_next(ext->text, &byte_id);
 5085              		.loc 1 1197 49 is_stmt 0 discriminator 3 view .LVU1656
 5086 0480 3068     		ldr	r0, [r6]
1197:lvgl/src/lv_widgets/lv_label.c ****                 _lv_txt_encoded_next(ext->text, &byte_id);
 5087              		.loc 1 1197 24 discriminator 3 view .LVU1657
 5088 0482 174B     		ldr	r3, .L295+8
 5089 0484 1B68     		ldr	r3, [r3]
 5090 0486 069A     		ldr	r2, [sp, #24]
 5091 0488 1044     		add	r0, r0, r2
 5092 048a 9847     		blx	r3
 5093              	.LVL572:
ARM GAS  D:\Temp\cclLOIfg.s 			page 157


1197:lvgl/src/lv_widgets/lv_label.c ****                 _lv_txt_encoded_next(ext->text, &byte_id);
 5094              		.loc 1 1197 21 discriminator 3 view .LVU1658
 5095 048c 8044     		add	r8, r8, r0
 5096              	.LVL573:
1197:lvgl/src/lv_widgets/lv_label.c ****                 _lv_txt_encoded_next(ext->text, &byte_id);
 5097              		.loc 1 1197 21 discriminator 3 view .LVU1659
 5098 048e 5FFA88F8 		uxtb	r8, r8
 5099              	.LVL574:
1198:lvgl/src/lv_widgets/lv_label.c ****             }
 5100              		.loc 1 1198 17 is_stmt 1 discriminator 3 view .LVU1660
 5101 0492 144B     		ldr	r3, .L295+12
 5102 0494 1B68     		ldr	r3, [r3]
 5103 0496 06A9     		add	r1, sp, #24
 5104 0498 3068     		ldr	r0, [r6]
 5105 049a 9847     		blx	r3
 5106              	.LVL575:
1196:lvgl/src/lv_widgets/lv_label.c ****                 len += _lv_txt_encoded_size(&ext->text[byte_id]);
 5107              		.loc 1 1196 48 is_stmt 0 discriminator 3 view .LVU1661
 5108 049c 0AF1010A 		add	r10, r10, #1
 5109              	.LVL576:
 5110              	.L273:
1196:lvgl/src/lv_widgets/lv_label.c ****                 len += _lv_txt_encoded_size(&ext->text[byte_id]);
 5111              		.loc 1 1196 13 discriminator 1 view .LVU1662
 5112 04a0 BAF1030F 		cmp	r10, #3
 5113 04a4 ECD9     		bls	.L274
1201:lvgl/src/lv_widgets/lv_label.c ****                 for(i = 0; i < LV_LABEL_DOT_NUM; i++) {
 5114              		.loc 1 1201 13 is_stmt 1 view .LVU1663
1201:lvgl/src/lv_widgets/lv_label.c ****                 for(i = 0; i < LV_LABEL_DOT_NUM; i++) {
 5115              		.loc 1 1201 48 is_stmt 0 view .LVU1664
 5116 04a6 3168     		ldr	r1, [r6]
1201:lvgl/src/lv_widgets/lv_label.c ****                 for(i = 0; i < LV_LABEL_DOT_NUM; i++) {
 5117              		.loc 1 1201 16 view .LVU1665
 5118 04a8 4246     		mov	r2, r8
 5119 04aa 2144     		add	r1, r1, r4
 5120 04ac 2846     		mov	r0, r5
 5121 04ae FFF7FEFF 		bl	lv_label_set_dot_tmp
 5122              	.LVL577:
1201:lvgl/src/lv_widgets/lv_label.c ****                 for(i = 0; i < LV_LABEL_DOT_NUM; i++) {
 5123              		.loc 1 1201 15 view .LVU1666
 5124 04b2 0028     		cmp	r0, #0
 5125 04b4 3FF438AE 		beq	.L247
1202:lvgl/src/lv_widgets/lv_label.c ****                     ext->text[byte_id_ori + i] = '.';
 5126              		.loc 1 1202 23 view .LVU1667
 5127 04b8 0023     		movs	r3, #0
 5128 04ba 04E0     		b	.L275
 5129              	.LVL578:
 5130              	.L277:
1203:lvgl/src/lv_widgets/lv_label.c ****                 }
 5131              		.loc 1 1203 21 is_stmt 1 discriminator 3 view .LVU1668
1203:lvgl/src/lv_widgets/lv_label.c ****                 }
 5132              		.loc 1 1203 24 is_stmt 0 discriminator 3 view .LVU1669
 5133 04bc 3168     		ldr	r1, [r6]
1203:lvgl/src/lv_widgets/lv_label.c ****                 }
 5134              		.loc 1 1203 43 discriminator 3 view .LVU1670
 5135 04be E218     		adds	r2, r4, r3
1203:lvgl/src/lv_widgets/lv_label.c ****                 }
 5136              		.loc 1 1203 48 discriminator 3 view .LVU1671
ARM GAS  D:\Temp\cclLOIfg.s 			page 158


 5137 04c0 2E20     		movs	r0, #46
 5138 04c2 8854     		strb	r0, [r1, r2]
1202:lvgl/src/lv_widgets/lv_label.c ****                     ext->text[byte_id_ori + i] = '.';
 5139              		.loc 1 1202 51 discriminator 3 view .LVU1672
 5140 04c4 0133     		adds	r3, r3, #1
 5141              	.LVL579:
 5142              	.L275:
1202:lvgl/src/lv_widgets/lv_label.c ****                     ext->text[byte_id_ori + i] = '.';
 5143              		.loc 1 1202 17 discriminator 1 view .LVU1673
 5144 04c6 022B     		cmp	r3, #2
 5145 04c8 F8D9     		bls	.L277
1205:lvgl/src/lv_widgets/lv_label.c ****                 ext->dot_end                              = letter_id + LV_LABEL_DOT_NUM;
 5146              		.loc 1 1205 17 is_stmt 1 view .LVU1674
1205:lvgl/src/lv_widgets/lv_label.c ****                 ext->dot_end                              = letter_id + LV_LABEL_DOT_NUM;
 5147              		.loc 1 1205 20 is_stmt 0 view .LVU1675
 5148 04ca 3368     		ldr	r3, [r6]
 5149              	.LVL580:
1205:lvgl/src/lv_widgets/lv_label.c ****                 ext->dot_end                              = letter_id + LV_LABEL_DOT_NUM;
 5150              		.loc 1 1205 59 view .LVU1676
 5151 04cc 0022     		movs	r2, #0
 5152 04ce 03F80920 		strb	r2, [r3, r9]
1206:lvgl/src/lv_widgets/lv_label.c ****             }
 5153              		.loc 1 1206 17 is_stmt 1 view .LVU1677
1206:lvgl/src/lv_widgets/lv_label.c ****             }
 5154              		.loc 1 1206 71 is_stmt 0 view .LVU1678
 5155 04d2 0337     		adds	r7, r7, #3
 5156              	.LVL581:
1206:lvgl/src/lv_widgets/lv_label.c ****             }
 5157              		.loc 1 1206 59 view .LVU1679
 5158 04d4 B760     		str	r7, [r6, #8]
 5159 04d6 27E6     		b	.L247
 5160              	.L296:
 5161              		.align	2
 5162              	.L295:
 5163 04d8 00000000 		.word	_lv_txt_encoded_get_byte_id
 5164 04dc 00000000 		.word	_lv_txt_encoded_prev
 5165 04e0 00000000 		.word	_lv_txt_encoded_size
 5166 04e4 00000000 		.word	_lv_txt_encoded_next
 5167              	.LBE376:
 5168              		.cfi_endproc
 5169              	.LFE481:
 5171              		.section	.text.lv_label_signal,"ax",%progbits
 5172              		.align	1
 5173              		.syntax unified
 5174              		.thumb
 5175              		.thumb_func
 5176              		.fpu fpv4-sp-d16
 5178              	lv_label_signal:
 5179              	.LVL582:
 5180              	.LFB483:
1345:lvgl/src/lv_widgets/lv_label.c ****     lv_res_t res;
 5181              		.loc 1 1345 1 is_stmt 1 view -0
 5182              		.cfi_startproc
 5183              		@ args = 0, pretend = 0, frame = 0
 5184              		@ frame_needed = 0, uses_anonymous_args = 0
1345:lvgl/src/lv_widgets/lv_label.c ****     lv_res_t res;
 5185              		.loc 1 1345 1 is_stmt 0 view .LVU1681
ARM GAS  D:\Temp\cclLOIfg.s 			page 159


 5186 0000 2DE9F041 		push	{r4, r5, r6, r7, r8, lr}
 5187              	.LCFI38:
 5188              		.cfi_def_cfa_offset 24
 5189              		.cfi_offset 4, -24
 5190              		.cfi_offset 5, -20
 5191              		.cfi_offset 6, -16
 5192              		.cfi_offset 7, -12
 5193              		.cfi_offset 8, -8
 5194              		.cfi_offset 14, -4
 5195 0004 0646     		mov	r6, r0
 5196 0006 0C46     		mov	r4, r1
 5197 0008 1746     		mov	r7, r2
1346:lvgl/src/lv_widgets/lv_label.c **** 
 5198              		.loc 1 1346 5 is_stmt 1 view .LVU1682
1348:lvgl/src/lv_widgets/lv_label.c ****         lv_get_style_info_t * info = param;
 5199              		.loc 1 1348 5 view .LVU1683
1348:lvgl/src/lv_widgets/lv_label.c ****         lv_get_style_info_t * info = param;
 5200              		.loc 1 1348 7 is_stmt 0 view .LVU1684
 5201 000a 0829     		cmp	r1, #8
 5202 000c 14D0     		beq	.L307
1356:lvgl/src/lv_widgets/lv_label.c ****     if(res != LV_RES_OK) return res;
 5203              		.loc 1 1356 5 is_stmt 1 view .LVU1685
1356:lvgl/src/lv_widgets/lv_label.c ****     if(res != LV_RES_OK) return res;
 5204              		.loc 1 1356 11 is_stmt 0 view .LVU1686
 5205 000e 2C4B     		ldr	r3, .L312
 5206 0010 1B68     		ldr	r3, [r3]
 5207 0012 9847     		blx	r3
 5208              	.LVL583:
1356:lvgl/src/lv_widgets/lv_label.c ****     if(res != LV_RES_OK) return res;
 5209              		.loc 1 1356 11 view .LVU1687
 5210 0014 0546     		mov	r5, r0
 5211              	.LVL584:
1357:lvgl/src/lv_widgets/lv_label.c ****     if(sign == LV_SIGNAL_GET_TYPE) return lv_obj_handle_get_type_signal(param, LV_OBJX_NAME);
 5212              		.loc 1 1357 5 is_stmt 1 view .LVU1688
1357:lvgl/src/lv_widgets/lv_label.c ****     if(sign == LV_SIGNAL_GET_TYPE) return lv_obj_handle_get_type_signal(param, LV_OBJX_NAME);
 5213              		.loc 1 1357 7 is_stmt 0 view .LVU1689
 5214 0016 0128     		cmp	r0, #1
 5215 0018 14D1     		bne	.L299
1358:lvgl/src/lv_widgets/lv_label.c **** 
 5216              		.loc 1 1358 5 is_stmt 1 view .LVU1690
1358:lvgl/src/lv_widgets/lv_label.c **** 
 5217              		.loc 1 1358 7 is_stmt 0 view .LVU1691
 5218 001a 072C     		cmp	r4, #7
 5219 001c 1DD0     		beq	.L308
1360:lvgl/src/lv_widgets/lv_label.c ****     if(sign == LV_SIGNAL_CLEANUP) {
 5220              		.loc 1 1360 5 is_stmt 1 view .LVU1692
1360:lvgl/src/lv_widgets/lv_label.c ****     if(sign == LV_SIGNAL_CLEANUP) {
 5221              		.loc 1 1360 28 is_stmt 0 view .LVU1693
 5222 001e 3046     		mov	r0, r6
 5223              	.LVL585:
1360:lvgl/src/lv_widgets/lv_label.c ****     if(sign == LV_SIGNAL_CLEANUP) {
 5224              		.loc 1 1360 28 view .LVU1694
 5225 0020 FFF7FEFF 		bl	lv_obj_get_ext_attr
 5226              	.LVL586:
 5227 0024 8046     		mov	r8, r0
 5228              	.LVL587:
1361:lvgl/src/lv_widgets/lv_label.c ****         if(ext->static_txt == 0) {
ARM GAS  D:\Temp\cclLOIfg.s 			page 160


 5229              		.loc 1 1361 5 is_stmt 1 view .LVU1695
1361:lvgl/src/lv_widgets/lv_label.c ****         if(ext->static_txt == 0) {
 5230              		.loc 1 1361 7 is_stmt 0 view .LVU1696
 5231 0026 2CBB     		cbnz	r4, .L301
1362:lvgl/src/lv_widgets/lv_label.c ****             lv_mem_free(ext->text);
 5232              		.loc 1 1362 9 is_stmt 1 view .LVU1697
1362:lvgl/src/lv_widgets/lv_label.c ****             lv_mem_free(ext->text);
 5233              		.loc 1 1362 28 is_stmt 0 view .LVU1698
 5234 0028 837C     		ldrb	r3, [r0, #18]	@ zero_extendqisi2
1362:lvgl/src/lv_widgets/lv_label.c ****             lv_mem_free(ext->text);
 5235              		.loc 1 1362 11 view .LVU1699
 5236 002a 13F0080F 		tst	r3, #8
 5237 002e 1AD0     		beq	.L309
 5238              	.LVL588:
 5239              	.L302:
1366:lvgl/src/lv_widgets/lv_label.c ****     }
 5240              		.loc 1 1366 9 is_stmt 1 view .LVU1700
 5241 0030 3046     		mov	r0, r6
 5242 0032 FFF7FEFF 		bl	lv_label_dot_tmp_free
 5243              	.LVL589:
 5244 0036 05E0     		b	.L299
 5245              	.LVL590:
 5246              	.L307:
 5247              	.LBB377:
1349:lvgl/src/lv_widgets/lv_label.c ****         info->result = lv_label_get_style(label, info->part);
 5248              		.loc 1 1349 9 view .LVU1701
1350:lvgl/src/lv_widgets/lv_label.c ****         if(info->result != NULL) return LV_RES_OK;
 5249              		.loc 1 1350 9 view .LVU1702
1350:lvgl/src/lv_widgets/lv_label.c ****         if(info->result != NULL) return LV_RES_OK;
 5250              		.loc 1 1350 24 is_stmt 0 view .LVU1703
 5251 0038 1178     		ldrb	r1, [r2]	@ zero_extendqisi2
 5252              	.LVL591:
1350:lvgl/src/lv_widgets/lv_label.c ****         if(info->result != NULL) return LV_RES_OK;
 5253              		.loc 1 1350 24 view .LVU1704
 5254 003a FFF7FEFF 		bl	lv_label_get_style
 5255              	.LVL592:
1350:lvgl/src/lv_widgets/lv_label.c ****         if(info->result != NULL) return LV_RES_OK;
 5256              		.loc 1 1350 22 view .LVU1705
 5257 003e 7860     		str	r0, [r7, #4]
1351:lvgl/src/lv_widgets/lv_label.c ****         else return ancestor_signal(label, sign, param);
 5258              		.loc 1 1351 9 is_stmt 1 view .LVU1706
1351:lvgl/src/lv_widgets/lv_label.c ****         else return ancestor_signal(label, sign, param);
 5259              		.loc 1 1351 11 is_stmt 0 view .LVU1707
 5260 0040 18B1     		cbz	r0, .L310
1351:lvgl/src/lv_widgets/lv_label.c ****         else return ancestor_signal(label, sign, param);
 5261              		.loc 1 1351 41 view .LVU1708
 5262 0042 0125     		movs	r5, #1
 5263              	.LVL593:
 5264              	.L299:
1351:lvgl/src/lv_widgets/lv_label.c ****         else return ancestor_signal(label, sign, param);
 5265              		.loc 1 1351 41 view .LVU1709
 5266              	.LBE377:
1395:lvgl/src/lv_widgets/lv_label.c **** 
 5267              		.loc 1 1395 1 view .LVU1710
 5268 0044 2846     		mov	r0, r5
 5269 0046 BDE8F081 		pop	{r4, r5, r6, r7, r8, pc}
 5270              	.LVL594:
ARM GAS  D:\Temp\cclLOIfg.s 			page 161


 5271              	.L310:
 5272              	.LBB378:
1352:lvgl/src/lv_widgets/lv_label.c ****     }
 5273              		.loc 1 1352 14 is_stmt 1 view .LVU1711
1352:lvgl/src/lv_widgets/lv_label.c ****     }
 5274              		.loc 1 1352 21 is_stmt 0 view .LVU1712
 5275 004a 1D4B     		ldr	r3, .L312
 5276 004c 1B68     		ldr	r3, [r3]
 5277 004e 3A46     		mov	r2, r7
 5278 0050 2146     		mov	r1, r4
 5279 0052 3046     		mov	r0, r6
 5280 0054 9847     		blx	r3
 5281              	.LVL595:
 5282 0056 0546     		mov	r5, r0
 5283 0058 F4E7     		b	.L299
 5284              	.LVL596:
 5285              	.L308:
1352:lvgl/src/lv_widgets/lv_label.c ****     }
 5286              		.loc 1 1352 21 view .LVU1713
 5287              	.LBE378:
1358:lvgl/src/lv_widgets/lv_label.c **** 
 5288              		.loc 1 1358 36 is_stmt 1 discriminator 1 view .LVU1714
1358:lvgl/src/lv_widgets/lv_label.c **** 
 5289              		.loc 1 1358 43 is_stmt 0 discriminator 1 view .LVU1715
 5290 005a 1A49     		ldr	r1, .L312+4
 5291 005c 3846     		mov	r0, r7
 5292              	.LVL597:
1358:lvgl/src/lv_widgets/lv_label.c **** 
 5293              		.loc 1 1358 43 discriminator 1 view .LVU1716
 5294 005e FFF7FEFF 		bl	lv_obj_handle_get_type_signal
 5295              	.LVL598:
 5296 0062 0546     		mov	r5, r0
 5297 0064 EEE7     		b	.L299
 5298              	.LVL599:
 5299              	.L309:
1363:lvgl/src/lv_widgets/lv_label.c ****             ext->text = NULL;
 5300              		.loc 1 1363 13 is_stmt 1 view .LVU1717
 5301 0066 0068     		ldr	r0, [r0]
 5302              	.LVL600:
1363:lvgl/src/lv_widgets/lv_label.c ****             ext->text = NULL;
 5303              		.loc 1 1363 13 is_stmt 0 view .LVU1718
 5304 0068 FFF7FEFF 		bl	lv_mem_free
 5305              	.LVL601:
1364:lvgl/src/lv_widgets/lv_label.c ****         }
 5306              		.loc 1 1364 13 is_stmt 1 view .LVU1719
1364:lvgl/src/lv_widgets/lv_label.c ****         }
 5307              		.loc 1 1364 23 is_stmt 0 view .LVU1720
 5308 006c 0023     		movs	r3, #0
 5309 006e C8F80030 		str	r3, [r8]
 5310 0072 DDE7     		b	.L302
 5311              	.LVL602:
 5312              	.L301:
1368:lvgl/src/lv_widgets/lv_label.c ****         /*Revert dots for proper refresh*/
 5313              		.loc 1 1368 10 is_stmt 1 view .LVU1721
1368:lvgl/src/lv_widgets/lv_label.c ****         /*Revert dots for proper refresh*/
 5314              		.loc 1 1368 12 is_stmt 0 view .LVU1722
 5315 0074 042C     		cmp	r4, #4
ARM GAS  D:\Temp\cclLOIfg.s 			page 162


 5316 0076 1CD0     		beq	.L311
1373:lvgl/src/lv_widgets/lv_label.c ****         if(lv_area_get_width(&label->coords) != lv_area_get_width(param) ||
 5317              		.loc 1 1373 10 is_stmt 1 view .LVU1723
1373:lvgl/src/lv_widgets/lv_label.c ****         if(lv_area_get_width(&label->coords) != lv_area_get_width(param) ||
 5318              		.loc 1 1373 12 is_stmt 0 view .LVU1724
 5319 0078 022C     		cmp	r4, #2
 5320 007a E3D1     		bne	.L299
1374:lvgl/src/lv_widgets/lv_label.c ****            lv_area_get_height(&label->coords) != lv_area_get_height(param)) {
 5321              		.loc 1 1374 9 is_stmt 1 view .LVU1725
 5322              	.LVL603:
 5323              	.LBB379:
 5324              	.LBI379:
 107:d:\_project\stm32\f407\hack_rf_new\lvgl\src\lv_misc\lv_area.h **** {
 5325              		.loc 3 107 26 view .LVU1726
 5326              	.LBB380:
 109:d:\_project\stm32\f407\hack_rf_new\lvgl\src\lv_misc\lv_area.h **** }
 5327              		.loc 3 109 5 view .LVU1727
 109:d:\_project\stm32\f407\hack_rf_new\lvgl\src\lv_misc\lv_area.h **** }
 5328              		.loc 3 109 31 is_stmt 0 view .LVU1728
 5329 007c B38A     		ldrh	r3, [r6, #20]
 109:d:\_project\stm32\f407\hack_rf_new\lvgl\src\lv_misc\lv_area.h **** }
 5330              		.loc 3 109 44 view .LVU1729
 5331 007e 328A     		ldrh	r2, [r6, #16]
 109:d:\_project\stm32\f407\hack_rf_new\lvgl\src\lv_misc\lv_area.h **** }
 5332              		.loc 3 109 36 view .LVU1730
 5333 0080 9B1A     		subs	r3, r3, r2
 5334 0082 9BB2     		uxth	r3, r3
 5335              	.LVL604:
 109:d:\_project\stm32\f407\hack_rf_new\lvgl\src\lv_misc\lv_area.h **** }
 5336              		.loc 3 109 36 view .LVU1731
 5337              	.LBE380:
 5338              	.LBE379:
 5339              	.LBB381:
 5340              	.LBI381:
 107:d:\_project\stm32\f407\hack_rf_new\lvgl\src\lv_misc\lv_area.h **** {
 5341              		.loc 3 107 26 is_stmt 1 view .LVU1732
 5342              	.LBB382:
 109:d:\_project\stm32\f407\hack_rf_new\lvgl\src\lv_misc\lv_area.h **** }
 5343              		.loc 3 109 5 view .LVU1733
 109:d:\_project\stm32\f407\hack_rf_new\lvgl\src\lv_misc\lv_area.h **** }
 5344              		.loc 3 109 31 is_stmt 0 view .LVU1734
 5345 0084 BA88     		ldrh	r2, [r7, #4]
 109:d:\_project\stm32\f407\hack_rf_new\lvgl\src\lv_misc\lv_area.h **** }
 5346              		.loc 3 109 44 view .LVU1735
 5347 0086 3988     		ldrh	r1, [r7]
 109:d:\_project\stm32\f407\hack_rf_new\lvgl\src\lv_misc\lv_area.h **** }
 5348              		.loc 3 109 36 view .LVU1736
 5349 0088 521A     		subs	r2, r2, r1
 5350 008a 92B2     		uxth	r2, r2
 5351              	.LVL605:
 109:d:\_project\stm32\f407\hack_rf_new\lvgl\src\lv_misc\lv_area.h **** }
 5352              		.loc 3 109 36 view .LVU1737
 5353              	.LBE382:
 5354              	.LBE381:
1374:lvgl/src/lv_widgets/lv_label.c ****            lv_area_get_height(&label->coords) != lv_area_get_height(param)) {
 5355              		.loc 1 1374 11 view .LVU1738
 5356 008c 9A42     		cmp	r2, r3
ARM GAS  D:\Temp\cclLOIfg.s 			page 163


 5357 008e 09D1     		bne	.L304
 5358              	.LVL606:
 5359              	.LBB383:
 5360              	.LBI383:
 117:d:\_project\stm32\f407\hack_rf_new\lvgl\src\lv_misc\lv_area.h **** {
 5361              		.loc 3 117 26 is_stmt 1 discriminator 1 view .LVU1739
 5362              	.LBB384:
 5363              		.loc 3 119 5 discriminator 1 view .LVU1740
 5364              		.loc 3 119 31 is_stmt 0 discriminator 1 view .LVU1741
 5365 0090 F38A     		ldrh	r3, [r6, #22]
 5366              		.loc 3 119 44 discriminator 1 view .LVU1742
 5367 0092 728A     		ldrh	r2, [r6, #18]
 5368              		.loc 3 119 36 discriminator 1 view .LVU1743
 5369 0094 9B1A     		subs	r3, r3, r2
 5370 0096 9BB2     		uxth	r3, r3
 5371              	.LVL607:
 5372              		.loc 3 119 36 discriminator 1 view .LVU1744
 5373              	.LBE384:
 5374              	.LBE383:
 5375              	.LBB385:
 5376              	.LBI385:
 117:d:\_project\stm32\f407\hack_rf_new\lvgl\src\lv_misc\lv_area.h **** {
 5377              		.loc 3 117 26 is_stmt 1 discriminator 1 view .LVU1745
 5378              	.LBB386:
 5379              		.loc 3 119 5 discriminator 1 view .LVU1746
 5380              		.loc 3 119 31 is_stmt 0 discriminator 1 view .LVU1747
 5381 0098 FA88     		ldrh	r2, [r7, #6]
 5382              		.loc 3 119 44 discriminator 1 view .LVU1748
 5383 009a 7988     		ldrh	r1, [r7, #2]
 5384              		.loc 3 119 36 discriminator 1 view .LVU1749
 5385 009c 521A     		subs	r2, r2, r1
 5386 009e 92B2     		uxth	r2, r2
 5387              	.LVL608:
 5388              		.loc 3 119 36 discriminator 1 view .LVU1750
 5389              	.LBE386:
 5390              	.LBE385:
1374:lvgl/src/lv_widgets/lv_label.c ****            lv_area_get_height(&label->coords) != lv_area_get_height(param)) {
 5391              		.loc 1 1374 74 discriminator 1 view .LVU1751
 5392 00a0 9A42     		cmp	r2, r3
 5393 00a2 CFD0     		beq	.L299
 5394              	.L304:
1376:lvgl/src/lv_widgets/lv_label.c ****             lv_label_refr_text(label);
 5395              		.loc 1 1376 13 is_stmt 1 view .LVU1752
 5396 00a4 3046     		mov	r0, r6
 5397              	.LVL609:
1376:lvgl/src/lv_widgets/lv_label.c ****             lv_label_refr_text(label);
 5398              		.loc 1 1376 13 is_stmt 0 view .LVU1753
 5399 00a6 FFF7FEFF 		bl	lv_label_revert_dots
 5400              	.LVL610:
1377:lvgl/src/lv_widgets/lv_label.c ****         }
 5401              		.loc 1 1377 13 is_stmt 1 view .LVU1754
 5402 00aa 3046     		mov	r0, r6
 5403 00ac FFF7FEFF 		bl	lv_label_refr_text
 5404              	.LVL611:
 5405 00b0 C8E7     		b	.L299
 5406              	.LVL612:
 5407              	.L311:
ARM GAS  D:\Temp\cclLOIfg.s 			page 164


1370:lvgl/src/lv_widgets/lv_label.c ****         lv_label_refr_text(label);
 5408              		.loc 1 1370 9 view .LVU1755
 5409 00b2 3046     		mov	r0, r6
 5410              	.LVL613:
1370:lvgl/src/lv_widgets/lv_label.c ****         lv_label_refr_text(label);
 5411              		.loc 1 1370 9 is_stmt 0 view .LVU1756
 5412 00b4 FFF7FEFF 		bl	lv_label_revert_dots
 5413              	.LVL614:
1371:lvgl/src/lv_widgets/lv_label.c ****     }
 5414              		.loc 1 1371 9 is_stmt 1 view .LVU1757
 5415 00b8 3046     		mov	r0, r6
 5416 00ba FFF7FEFF 		bl	lv_label_refr_text
 5417              	.LVL615:
 5418 00be C1E7     		b	.L299
 5419              	.L313:
 5420              		.align	2
 5421              	.L312:
 5422 00c0 00000000 		.word	.LANCHOR0
 5423 00c4 00000000 		.word	.LC1
 5424              		.cfi_endproc
 5425              	.LFE483:
 5427              		.section	.text.lv_label_set_text,"ax",%progbits
 5428              		.align	1
 5429              		.global	lv_label_set_text
 5430              		.syntax unified
 5431              		.thumb
 5432              		.thumb_func
 5433              		.fpu fpv4-sp-d16
 5435              	lv_label_set_text:
 5436              	.LVL616:
 5437              	.LFB459:
 180:lvgl/src/lv_widgets/lv_label.c ****     LV_ASSERT_OBJ(label, LV_OBJX_NAME);
 5438              		.loc 1 180 1 view -0
 5439              		.cfi_startproc
 5440              		@ args = 0, pretend = 0, frame = 0
 5441              		@ frame_needed = 0, uses_anonymous_args = 0
 180:lvgl/src/lv_widgets/lv_label.c ****     LV_ASSERT_OBJ(label, LV_OBJX_NAME);
 5442              		.loc 1 180 1 is_stmt 0 view .LVU1759
 5443 0000 F8B5     		push	{r3, r4, r5, r6, r7, lr}
 5444              	.LCFI39:
 5445              		.cfi_def_cfa_offset 24
 5446              		.cfi_offset 3, -24
 5447              		.cfi_offset 4, -20
 5448              		.cfi_offset 5, -16
 5449              		.cfi_offset 6, -12
 5450              		.cfi_offset 7, -8
 5451              		.cfi_offset 14, -4
 5452 0002 0746     		mov	r7, r0
 5453 0004 0D46     		mov	r5, r1
 181:lvgl/src/lv_widgets/lv_label.c **** 
 5454              		.loc 1 181 5 is_stmt 1 view .LVU1760
 181:lvgl/src/lv_widgets/lv_label.c **** 
 5455              		.loc 1 181 5 view .LVU1761
 5456 0006 FFF7FEFF 		bl	lv_debug_check_null
 5457              	.LVL617:
 181:lvgl/src/lv_widgets/lv_label.c **** 
 5458              		.loc 1 181 5 is_stmt 0 view .LVU1762
ARM GAS  D:\Temp\cclLOIfg.s 			page 165


 5459 000a 28B9     		cbnz	r0, .L315
 181:lvgl/src/lv_widgets/lv_label.c **** 
 5460              		.loc 1 181 5 is_stmt 1 discriminator 1 view .LVU1763
 181:lvgl/src/lv_widgets/lv_label.c **** 
 5461              		.loc 1 181 5 discriminator 1 view .LVU1764
 5462 000c 3A46     		mov	r2, r7
 5463 000e 0023     		movs	r3, #0
 5464 0010 2D48     		ldr	r0, .L335
 5465 0012 FFF7FEFF 		bl	lv_debug_log_error
 5466              	.LVL618:
 5467              	.L316:
 181:lvgl/src/lv_widgets/lv_label.c **** 
 5468              		.loc 1 181 5 discriminator 1 view .LVU1765
 181:lvgl/src/lv_widgets/lv_label.c **** 
 5469              		.loc 1 181 5 discriminator 1 view .LVU1766
 5470 0016 FEE7     		b	.L316
 5471              	.L315:
 181:lvgl/src/lv_widgets/lv_label.c **** 
 5472              		.loc 1 181 39 discriminator 2 view .LVU1767
 183:lvgl/src/lv_widgets/lv_label.c **** 
 5473              		.loc 1 183 5 discriminator 2 view .LVU1768
 5474 0018 3846     		mov	r0, r7
 5475 001a FFF7FEFF 		bl	lv_obj_invalidate
 5476              	.LVL619:
 185:lvgl/src/lv_widgets/lv_label.c **** 
 5477              		.loc 1 185 5 discriminator 2 view .LVU1769
 185:lvgl/src/lv_widgets/lv_label.c **** 
 5478              		.loc 1 185 28 is_stmt 0 discriminator 2 view .LVU1770
 5479 001e 3846     		mov	r0, r7
 5480 0020 FFF7FEFF 		bl	lv_obj_get_ext_attr
 5481              	.LVL620:
 5482 0024 0446     		mov	r4, r0
 5483              	.LVL621:
 188:lvgl/src/lv_widgets/lv_label.c **** 
 5484              		.loc 1 188 5 is_stmt 1 discriminator 2 view .LVU1771
 188:lvgl/src/lv_widgets/lv_label.c **** 
 5485              		.loc 1 188 7 is_stmt 0 discriminator 2 view .LVU1772
 5486 0026 15B3     		cbz	r5, .L329
 5487              	.L317:
 190:lvgl/src/lv_widgets/lv_label.c **** 
 5488              		.loc 1 190 5 is_stmt 1 view .LVU1773
 190:lvgl/src/lv_widgets/lv_label.c **** 
 5489              		.loc 1 190 5 view .LVU1774
 5490 0028 2846     		mov	r0, r5
 5491              	.LVL622:
 190:lvgl/src/lv_widgets/lv_label.c **** 
 5492              		.loc 1 190 5 is_stmt 0 view .LVU1775
 5493 002a FFF7FEFF 		bl	lv_debug_check_null
 5494              	.LVL623:
 5495 002e 00B3     		cbz	r0, .L330
 190:lvgl/src/lv_widgets/lv_label.c **** 
 5496              		.loc 1 190 24 is_stmt 1 discriminator 2 view .LVU1776
 192:lvgl/src/lv_widgets/lv_label.c ****         /*If set its own text then reallocate it (maybe its size changed)*/
 5497              		.loc 1 192 5 discriminator 2 view .LVU1777
 192:lvgl/src/lv_widgets/lv_label.c ****         /*If set its own text then reallocate it (maybe its size changed)*/
 5498              		.loc 1 192 11 is_stmt 0 discriminator 2 view .LVU1778
 5499 0030 2668     		ldr	r6, [r4]
ARM GAS  D:\Temp\cclLOIfg.s 			page 166


 192:lvgl/src/lv_widgets/lv_label.c ****         /*If set its own text then reallocate it (maybe its size changed)*/
 5500              		.loc 1 192 7 discriminator 2 view .LVU1779
 5501 0032 AE42     		cmp	r6, r5
 5502 0034 23D0     		beq	.L331
 5503              	.L320:
 5504              	.LBB387:
 212:lvgl/src/lv_widgets/lv_label.c ****             lv_mem_free(ext->text);
 5505              		.loc 1 212 9 is_stmt 1 view .LVU1780
 212:lvgl/src/lv_widgets/lv_label.c ****             lv_mem_free(ext->text);
 5506              		.loc 1 212 11 is_stmt 0 view .LVU1781
 5507 0036 1EB1     		cbz	r6, .L325
 212:lvgl/src/lv_widgets/lv_label.c ****             lv_mem_free(ext->text);
 5508              		.loc 1 212 49 discriminator 1 view .LVU1782
 5509 0038 A37C     		ldrb	r3, [r4, #18]	@ zero_extendqisi2
 212:lvgl/src/lv_widgets/lv_label.c ****             lv_mem_free(ext->text);
 5510              		.loc 1 212 30 discriminator 1 view .LVU1783
 5511 003a 13F0080F 		tst	r3, #8
 5512 003e 37D0     		beq	.L332
 5513              	.L325:
 228:lvgl/src/lv_widgets/lv_label.c **** 
 5514              		.loc 1 228 9 is_stmt 1 view .LVU1784
 228:lvgl/src/lv_widgets/lv_label.c **** 
 5515              		.loc 1 228 22 is_stmt 0 view .LVU1785
 5516 0040 2846     		mov	r0, r5
 5517 0042 FFF7FEFF 		bl	strlen
 5518              	.LVL624:
 231:lvgl/src/lv_widgets/lv_label.c ****         LV_ASSERT_MEM(ext->text);
 5519              		.loc 1 231 9 is_stmt 1 view .LVU1786
 231:lvgl/src/lv_widgets/lv_label.c ****         LV_ASSERT_MEM(ext->text);
 5520              		.loc 1 231 21 is_stmt 0 view .LVU1787
 5521 0046 0130     		adds	r0, r0, #1
 5522              	.LVL625:
 231:lvgl/src/lv_widgets/lv_label.c ****         LV_ASSERT_MEM(ext->text);
 5523              		.loc 1 231 21 view .LVU1788
 5524 0048 FFF7FEFF 		bl	lv_mem_alloc
 5525              	.LVL626:
 231:lvgl/src/lv_widgets/lv_label.c ****         LV_ASSERT_MEM(ext->text);
 5526              		.loc 1 231 19 view .LVU1789
 5527 004c 2060     		str	r0, [r4]
 232:lvgl/src/lv_widgets/lv_label.c ****         if(ext->text == NULL) return;
 5528              		.loc 1 232 9 is_stmt 1 view .LVU1790
 232:lvgl/src/lv_widgets/lv_label.c ****         if(ext->text == NULL) return;
 5529              		.loc 1 232 9 view .LVU1791
 5530 004e FFF7FEFF 		bl	lv_debug_check_null
 5531              	.LVL627:
 5532 0052 98B3     		cbz	r0, .L333
 232:lvgl/src/lv_widgets/lv_label.c ****         if(ext->text == NULL) return;
 5533              		.loc 1 232 33 discriminator 2 view .LVU1792
 233:lvgl/src/lv_widgets/lv_label.c ****         strcpy(ext->text, text);
 5534              		.loc 1 233 9 discriminator 2 view .LVU1793
 233:lvgl/src/lv_widgets/lv_label.c ****         strcpy(ext->text, text);
 5535              		.loc 1 233 15 is_stmt 0 discriminator 2 view .LVU1794
 5536 0054 2068     		ldr	r0, [r4]
 233:lvgl/src/lv_widgets/lv_label.c ****         strcpy(ext->text, text);
 5537              		.loc 1 233 11 discriminator 2 view .LVU1795
 5538 0056 48B1     		cbz	r0, .L314
 234:lvgl/src/lv_widgets/lv_label.c **** #endif
ARM GAS  D:\Temp\cclLOIfg.s 			page 167


 5539              		.loc 1 234 9 is_stmt 1 view .LVU1796
 5540 0058 2946     		mov	r1, r5
 5541 005a FFF7FEFF 		bl	strcpy
 5542              	.LVL628:
 238:lvgl/src/lv_widgets/lv_label.c ****     }
 5543              		.loc 1 238 9 view .LVU1797
 238:lvgl/src/lv_widgets/lv_label.c ****     }
 5544              		.loc 1 238 25 is_stmt 0 view .LVU1798
 5545 005e A37C     		ldrb	r3, [r4, #18]	@ zero_extendqisi2
 5546 0060 6FF3C303 		bfc	r3, #3, #1
 5547 0064 A374     		strb	r3, [r4, #18]
 5548              	.L324:
 238:lvgl/src/lv_widgets/lv_label.c ****     }
 5549              		.loc 1 238 25 view .LVU1799
 5550              	.LBE387:
 241:lvgl/src/lv_widgets/lv_label.c **** }
 5551              		.loc 1 241 5 is_stmt 1 view .LVU1800
 5552 0066 3846     		mov	r0, r7
 5553 0068 FFF7FEFF 		bl	lv_label_refr_text
 5554              	.LVL629:
 5555              	.L314:
 242:lvgl/src/lv_widgets/lv_label.c **** 
 5556              		.loc 1 242 1 is_stmt 0 view .LVU1801
 5557 006c F8BD     		pop	{r3, r4, r5, r6, r7, pc}
 5558              	.LVL630:
 5559              	.L329:
 188:lvgl/src/lv_widgets/lv_label.c **** 
 5560              		.loc 1 188 22 is_stmt 1 discriminator 1 view .LVU1802
 188:lvgl/src/lv_widgets/lv_label.c **** 
 5561              		.loc 1 188 27 is_stmt 0 discriminator 1 view .LVU1803
 5562 006e 0568     		ldr	r5, [r0]
 5563              	.LVL631:
 188:lvgl/src/lv_widgets/lv_label.c **** 
 5564              		.loc 1 188 27 discriminator 1 view .LVU1804
 5565 0070 DAE7     		b	.L317
 5566              	.LVL632:
 5567              	.L330:
 190:lvgl/src/lv_widgets/lv_label.c **** 
 5568              		.loc 1 190 5 is_stmt 1 discriminator 1 view .LVU1805
 190:lvgl/src/lv_widgets/lv_label.c **** 
 5569              		.loc 1 190 5 discriminator 1 view .LVU1806
 5570 0072 2A46     		mov	r2, r5
 5571 0074 0023     		movs	r3, #0
 5572 0076 1448     		ldr	r0, .L335
 5573 0078 FFF7FEFF 		bl	lv_debug_log_error
 5574              	.LVL633:
 5575              	.L319:
 190:lvgl/src/lv_widgets/lv_label.c **** 
 5576              		.loc 1 190 5 discriminator 2 view .LVU1807
 190:lvgl/src/lv_widgets/lv_label.c **** 
 5577              		.loc 1 190 5 discriminator 2 view .LVU1808
 5578 007c FEE7     		b	.L319
 5579              	.L331:
 192:lvgl/src/lv_widgets/lv_label.c ****         /*If set its own text then reallocate it (maybe its size changed)*/
 5580              		.loc 1 192 45 is_stmt 0 discriminator 1 view .LVU1809
 5581 007e A37C     		ldrb	r3, [r4, #18]	@ zero_extendqisi2
 192:lvgl/src/lv_widgets/lv_label.c ****         /*If set its own text then reallocate it (maybe its size changed)*/
ARM GAS  D:\Temp\cclLOIfg.s 			page 168


 5582              		.loc 1 192 26 discriminator 1 view .LVU1810
 5583 0080 13F0080F 		tst	r3, #8
 5584 0084 D7D1     		bne	.L320
 204:lvgl/src/lv_widgets/lv_label.c **** #endif
 5585              		.loc 1 204 9 is_stmt 1 view .LVU1811
 204:lvgl/src/lv_widgets/lv_label.c **** #endif
 5586              		.loc 1 204 47 is_stmt 0 view .LVU1812
 5587 0086 3046     		mov	r0, r6
 5588 0088 FFF7FEFF 		bl	strlen
 5589              	.LVL634:
 204:lvgl/src/lv_widgets/lv_label.c **** #endif
 5590              		.loc 1 204 21 view .LVU1813
 5591 008c 411C     		adds	r1, r0, #1
 5592 008e 3046     		mov	r0, r6
 5593 0090 FFF7FEFF 		bl	lv_mem_realloc
 5594              	.LVL635:
 204:lvgl/src/lv_widgets/lv_label.c **** #endif
 5595              		.loc 1 204 19 view .LVU1814
 5596 0094 2060     		str	r0, [r4]
 207:lvgl/src/lv_widgets/lv_label.c ****         if(ext->text == NULL) return;
 5597              		.loc 1 207 9 is_stmt 1 view .LVU1815
 207:lvgl/src/lv_widgets/lv_label.c ****         if(ext->text == NULL) return;
 5598              		.loc 1 207 9 view .LVU1816
 5599 0096 FFF7FEFF 		bl	lv_debug_check_null
 5600              	.LVL636:
 5601 009a 18B1     		cbz	r0, .L334
 207:lvgl/src/lv_widgets/lv_label.c ****         if(ext->text == NULL) return;
 5602              		.loc 1 207 33 discriminator 2 view .LVU1817
 208:lvgl/src/lv_widgets/lv_label.c ****     }
 5603              		.loc 1 208 9 discriminator 2 view .LVU1818
 208:lvgl/src/lv_widgets/lv_label.c ****     }
 5604              		.loc 1 208 15 is_stmt 0 discriminator 2 view .LVU1819
 5605 009c 2368     		ldr	r3, [r4]
 208:lvgl/src/lv_widgets/lv_label.c ****     }
 5606              		.loc 1 208 11 discriminator 2 view .LVU1820
 5607 009e 002B     		cmp	r3, #0
 5608 00a0 E1D1     		bne	.L324
 5609 00a2 E3E7     		b	.L314
 5610              	.L334:
 207:lvgl/src/lv_widgets/lv_label.c ****         if(ext->text == NULL) return;
 5611              		.loc 1 207 9 is_stmt 1 discriminator 1 view .LVU1821
 207:lvgl/src/lv_widgets/lv_label.c ****         if(ext->text == NULL) return;
 5612              		.loc 1 207 9 discriminator 1 view .LVU1822
 5613 00a4 2268     		ldr	r2, [r4]
 5614 00a6 0023     		movs	r3, #0
 5615 00a8 0848     		ldr	r0, .L335+4
 5616 00aa FFF7FEFF 		bl	lv_debug_log_error
 5617              	.LVL637:
 5618              	.L322:
 207:lvgl/src/lv_widgets/lv_label.c ****         if(ext->text == NULL) return;
 5619              		.loc 1 207 9 discriminator 3 view .LVU1823
 207:lvgl/src/lv_widgets/lv_label.c ****         if(ext->text == NULL) return;
 5620              		.loc 1 207 9 discriminator 3 view .LVU1824
 5621 00ae FEE7     		b	.L322
 5622              	.L332:
 5623              	.LBB388:
 213:lvgl/src/lv_widgets/lv_label.c ****             ext->text = NULL;
ARM GAS  D:\Temp\cclLOIfg.s 			page 169


 5624              		.loc 1 213 13 view .LVU1825
 5625 00b0 3046     		mov	r0, r6
 5626 00b2 FFF7FEFF 		bl	lv_mem_free
 5627              	.LVL638:
 214:lvgl/src/lv_widgets/lv_label.c ****         }
 5628              		.loc 1 214 13 view .LVU1826
 214:lvgl/src/lv_widgets/lv_label.c ****         }
 5629              		.loc 1 214 23 is_stmt 0 view .LVU1827
 5630 00b6 0023     		movs	r3, #0
 5631 00b8 2360     		str	r3, [r4]
 5632 00ba C1E7     		b	.L325
 5633              	.L333:
 232:lvgl/src/lv_widgets/lv_label.c ****         if(ext->text == NULL) return;
 5634              		.loc 1 232 9 is_stmt 1 discriminator 1 view .LVU1828
 232:lvgl/src/lv_widgets/lv_label.c ****         if(ext->text == NULL) return;
 5635              		.loc 1 232 9 discriminator 1 view .LVU1829
 5636 00bc 2268     		ldr	r2, [r4]
 5637 00be 0023     		movs	r3, #0
 5638 00c0 0248     		ldr	r0, .L335+4
 5639 00c2 FFF7FEFF 		bl	lv_debug_log_error
 5640              	.LVL639:
 5641              	.L327:
 232:lvgl/src/lv_widgets/lv_label.c ****         if(ext->text == NULL) return;
 5642              		.loc 1 232 9 discriminator 4 view .LVU1830
 232:lvgl/src/lv_widgets/lv_label.c ****         if(ext->text == NULL) return;
 5643              		.loc 1 232 9 discriminator 4 view .LVU1831
 5644 00c6 FEE7     		b	.L327
 5645              	.L336:
 5646              		.align	2
 5647              	.L335:
 5648 00c8 00000000 		.word	.LC0
 5649 00cc 00000000 		.word	.LC2
 5650              	.LBE388:
 5651              		.cfi_endproc
 5652              	.LFE459:
 5654              		.section	.text.lv_label_ins_text,"ax",%progbits
 5655              		.align	1
 5656              		.global	lv_label_ins_text
 5657              		.syntax unified
 5658              		.thumb
 5659              		.thumb_func
 5660              		.fpu fpv4-sp-d16
 5662              	lv_label_ins_text:
 5663              	.LVL640:
 5664              	.LFB479:
 925:lvgl/src/lv_widgets/lv_label.c ****     LV_ASSERT_OBJ(label, LV_OBJX_NAME);
 5665              		.loc 1 925 1 view -0
 5666              		.cfi_startproc
 5667              		@ args = 0, pretend = 0, frame = 0
 5668              		@ frame_needed = 0, uses_anonymous_args = 0
 925:lvgl/src/lv_widgets/lv_label.c ****     LV_ASSERT_OBJ(label, LV_OBJX_NAME);
 5669              		.loc 1 925 1 is_stmt 0 view .LVU1833
 5670 0000 2DE9F843 		push	{r3, r4, r5, r6, r7, r8, r9, lr}
 5671              	.LCFI40:
 5672              		.cfi_def_cfa_offset 32
 5673              		.cfi_offset 3, -32
 5674              		.cfi_offset 4, -28
ARM GAS  D:\Temp\cclLOIfg.s 			page 170


 5675              		.cfi_offset 5, -24
 5676              		.cfi_offset 6, -20
 5677              		.cfi_offset 7, -16
 5678              		.cfi_offset 8, -12
 5679              		.cfi_offset 9, -8
 5680              		.cfi_offset 14, -4
 5681 0004 0546     		mov	r5, r0
 5682 0006 0F46     		mov	r7, r1
 5683 0008 1646     		mov	r6, r2
 926:lvgl/src/lv_widgets/lv_label.c ****     LV_ASSERT_STR(txt);
 5684              		.loc 1 926 5 is_stmt 1 view .LVU1834
 926:lvgl/src/lv_widgets/lv_label.c ****     LV_ASSERT_STR(txt);
 5685              		.loc 1 926 5 view .LVU1835
 5686 000a FFF7FEFF 		bl	lv_debug_check_null
 5687              	.LVL641:
 926:lvgl/src/lv_widgets/lv_label.c ****     LV_ASSERT_STR(txt);
 5688              		.loc 1 926 5 is_stmt 0 view .LVU1836
 5689 000e 28B9     		cbnz	r0, .L338
 926:lvgl/src/lv_widgets/lv_label.c ****     LV_ASSERT_STR(txt);
 5690              		.loc 1 926 5 is_stmt 1 discriminator 1 view .LVU1837
 926:lvgl/src/lv_widgets/lv_label.c ****     LV_ASSERT_STR(txt);
 5691              		.loc 1 926 5 discriminator 1 view .LVU1838
 5692 0010 2A46     		mov	r2, r5
 5693 0012 0023     		movs	r3, #0
 5694 0014 2448     		ldr	r0, .L350
 5695 0016 FFF7FEFF 		bl	lv_debug_log_error
 5696              	.LVL642:
 5697              	.L339:
 926:lvgl/src/lv_widgets/lv_label.c ****     LV_ASSERT_STR(txt);
 5698              		.loc 1 926 5 discriminator 1 view .LVU1839
 926:lvgl/src/lv_widgets/lv_label.c ****     LV_ASSERT_STR(txt);
 5699              		.loc 1 926 5 discriminator 1 view .LVU1840
 5700 001a FEE7     		b	.L339
 5701              	.L338:
 926:lvgl/src/lv_widgets/lv_label.c ****     LV_ASSERT_STR(txt);
 5702              		.loc 1 926 39 discriminator 2 view .LVU1841
 927:lvgl/src/lv_widgets/lv_label.c **** 
 5703              		.loc 1 927 5 discriminator 2 view .LVU1842
 927:lvgl/src/lv_widgets/lv_label.c **** 
 5704              		.loc 1 927 5 discriminator 2 view .LVU1843
 5705 001c 3046     		mov	r0, r6
 5706 001e FFF7FEFF 		bl	lv_debug_check_null
 5707              	.LVL643:
 5708 0022 28B9     		cbnz	r0, .L340
 927:lvgl/src/lv_widgets/lv_label.c **** 
 5709              		.loc 1 927 5 discriminator 1 view .LVU1844
 927:lvgl/src/lv_widgets/lv_label.c **** 
 5710              		.loc 1 927 5 discriminator 1 view .LVU1845
 5711 0024 3246     		mov	r2, r6
 5712 0026 0023     		movs	r3, #0
 5713 0028 1F48     		ldr	r0, .L350
 5714 002a FFF7FEFF 		bl	lv_debug_log_error
 5715              	.LVL644:
 5716              	.L341:
 927:lvgl/src/lv_widgets/lv_label.c **** 
 5717              		.loc 1 927 5 discriminator 2 view .LVU1846
 927:lvgl/src/lv_widgets/lv_label.c **** 
ARM GAS  D:\Temp\cclLOIfg.s 			page 171


 5718              		.loc 1 927 5 discriminator 2 view .LVU1847
 5719 002e FEE7     		b	.L341
 5720              	.L340:
 927:lvgl/src/lv_widgets/lv_label.c **** 
 5721              		.loc 1 927 23 discriminator 2 view .LVU1848
 929:lvgl/src/lv_widgets/lv_label.c **** 
 5722              		.loc 1 929 5 discriminator 2 view .LVU1849
 929:lvgl/src/lv_widgets/lv_label.c **** 
 5723              		.loc 1 929 28 is_stmt 0 discriminator 2 view .LVU1850
 5724 0030 2846     		mov	r0, r5
 5725 0032 FFF7FEFF 		bl	lv_obj_get_ext_attr
 5726              	.LVL645:
 5727 0036 0446     		mov	r4, r0
 5728              	.LVL646:
 932:lvgl/src/lv_widgets/lv_label.c **** 
 5729              		.loc 1 932 5 is_stmt 1 discriminator 2 view .LVU1851
 932:lvgl/src/lv_widgets/lv_label.c **** 
 5730              		.loc 1 932 24 is_stmt 0 discriminator 2 view .LVU1852
 5731 0038 837C     		ldrb	r3, [r0, #18]	@ zero_extendqisi2
 932:lvgl/src/lv_widgets/lv_label.c **** 
 5732              		.loc 1 932 7 discriminator 2 view .LVU1853
 5733 003a 13F0080F 		tst	r3, #8
 5734 003e 01D0     		beq	.L347
 5735              	.LVL647:
 5736              	.L337:
 961:lvgl/src/lv_widgets/lv_label.c **** 
 5737              		.loc 1 961 1 view .LVU1854
 5738 0040 BDE8F883 		pop	{r3, r4, r5, r6, r7, r8, r9, pc}
 5739              	.LVL648:
 5740              	.L347:
 934:lvgl/src/lv_widgets/lv_label.c **** 
 5741              		.loc 1 934 5 is_stmt 1 view .LVU1855
 5742 0044 2846     		mov	r0, r5
 5743              	.LVL649:
 934:lvgl/src/lv_widgets/lv_label.c **** 
 5744              		.loc 1 934 5 is_stmt 0 view .LVU1856
 5745 0046 FFF7FEFF 		bl	lv_obj_invalidate
 5746              	.LVL650:
 937:lvgl/src/lv_widgets/lv_label.c ****     size_t ins_len = strlen(txt);
 5747              		.loc 1 937 5 is_stmt 1 view .LVU1857
 937:lvgl/src/lv_widgets/lv_label.c ****     size_t ins_len = strlen(txt);
 5748              		.loc 1 937 32 is_stmt 0 view .LVU1858
 5749 004a D4F80090 		ldr	r9, [r4]
 937:lvgl/src/lv_widgets/lv_label.c ****     size_t ins_len = strlen(txt);
 5750              		.loc 1 937 22 view .LVU1859
 5751 004e 4846     		mov	r0, r9
 5752 0050 FFF7FEFF 		bl	strlen
 5753              	.LVL651:
 5754 0054 8046     		mov	r8, r0
 5755              	.LVL652:
 938:lvgl/src/lv_widgets/lv_label.c ****     size_t new_len = ins_len + old_len;
 5756              		.loc 1 938 5 is_stmt 1 view .LVU1860
 938:lvgl/src/lv_widgets/lv_label.c ****     size_t new_len = ins_len + old_len;
 5757              		.loc 1 938 22 is_stmt 0 view .LVU1861
 5758 0056 3046     		mov	r0, r6
 5759              	.LVL653:
 938:lvgl/src/lv_widgets/lv_label.c ****     size_t new_len = ins_len + old_len;
ARM GAS  D:\Temp\cclLOIfg.s 			page 172


 5760              		.loc 1 938 22 view .LVU1862
 5761 0058 FFF7FEFF 		bl	strlen
 5762              	.LVL654:
 939:lvgl/src/lv_widgets/lv_label.c ****     ext->text        = lv_mem_realloc(ext->text, new_len + 1);
 5763              		.loc 1 939 5 is_stmt 1 view .LVU1863
 939:lvgl/src/lv_widgets/lv_label.c ****     ext->text        = lv_mem_realloc(ext->text, new_len + 1);
 5764              		.loc 1 939 12 is_stmt 0 view .LVU1864
 5765 005c 08EB0001 		add	r1, r8, r0
 5766              	.LVL655:
 940:lvgl/src/lv_widgets/lv_label.c ****     LV_ASSERT_MEM(ext->text);
 5767              		.loc 1 940 5 is_stmt 1 view .LVU1865
 940:lvgl/src/lv_widgets/lv_label.c ****     LV_ASSERT_MEM(ext->text);
 5768              		.loc 1 940 24 is_stmt 0 view .LVU1866
 5769 0060 0131     		adds	r1, r1, #1
 5770              	.LVL656:
 940:lvgl/src/lv_widgets/lv_label.c ****     LV_ASSERT_MEM(ext->text);
 5771              		.loc 1 940 24 view .LVU1867
 5772 0062 4846     		mov	r0, r9
 5773              	.LVL657:
 940:lvgl/src/lv_widgets/lv_label.c ****     LV_ASSERT_MEM(ext->text);
 5774              		.loc 1 940 24 view .LVU1868
 5775 0064 FFF7FEFF 		bl	lv_mem_realloc
 5776              	.LVL658:
 940:lvgl/src/lv_widgets/lv_label.c ****     LV_ASSERT_MEM(ext->text);
 5777              		.loc 1 940 22 view .LVU1869
 5778 0068 2060     		str	r0, [r4]
 941:lvgl/src/lv_widgets/lv_label.c ****     if(ext->text == NULL) return;
 5779              		.loc 1 941 5 is_stmt 1 view .LVU1870
 941:lvgl/src/lv_widgets/lv_label.c ****     if(ext->text == NULL) return;
 5780              		.loc 1 941 5 view .LVU1871
 5781 006a FFF7FEFF 		bl	lv_debug_check_null
 5782              	.LVL659:
 5783 006e 80B1     		cbz	r0, .L348
 941:lvgl/src/lv_widgets/lv_label.c ****     if(ext->text == NULL) return;
 5784              		.loc 1 941 29 discriminator 2 view .LVU1872
 942:lvgl/src/lv_widgets/lv_label.c **** 
 5785              		.loc 1 942 5 discriminator 2 view .LVU1873
 942:lvgl/src/lv_widgets/lv_label.c **** 
 5786              		.loc 1 942 11 is_stmt 0 discriminator 2 view .LVU1874
 5787 0070 2068     		ldr	r0, [r4]
 942:lvgl/src/lv_widgets/lv_label.c **** 
 5788              		.loc 1 942 7 discriminator 2 view .LVU1875
 5789 0072 0028     		cmp	r0, #0
 5790 0074 E4D0     		beq	.L337
 944:lvgl/src/lv_widgets/lv_label.c ****         pos = _lv_txt_get_encoded_length(ext->text);
 5791              		.loc 1 944 5 is_stmt 1 view .LVU1876
 944:lvgl/src/lv_widgets/lv_label.c ****         pos = _lv_txt_get_encoded_length(ext->text);
 5792              		.loc 1 944 7 is_stmt 0 view .LVU1877
 5793 0076 4FF6FF73 		movw	r3, #65535
 5794 007a 9F42     		cmp	r7, r3
 5795 007c 0FD0     		beq	.L349
 5796              	.L345:
 958:lvgl/src/lv_widgets/lv_label.c **** #endif
 5797              		.loc 1 958 5 is_stmt 1 view .LVU1878
 5798 007e 3246     		mov	r2, r6
 5799 0080 3946     		mov	r1, r7
 5800 0082 2068     		ldr	r0, [r4]
ARM GAS  D:\Temp\cclLOIfg.s 			page 173


 5801 0084 FFF7FEFF 		bl	_lv_txt_ins
 5802              	.LVL660:
 960:lvgl/src/lv_widgets/lv_label.c **** }
 5803              		.loc 1 960 5 view .LVU1879
 5804 0088 0021     		movs	r1, #0
 5805 008a 2846     		mov	r0, r5
 5806 008c FFF7FEFF 		bl	lv_label_set_text
 5807              	.LVL661:
 5808 0090 D6E7     		b	.L337
 5809              	.L348:
 941:lvgl/src/lv_widgets/lv_label.c ****     if(ext->text == NULL) return;
 5810              		.loc 1 941 5 discriminator 1 view .LVU1880
 941:lvgl/src/lv_widgets/lv_label.c ****     if(ext->text == NULL) return;
 5811              		.loc 1 941 5 discriminator 1 view .LVU1881
 5812 0092 2268     		ldr	r2, [r4]
 5813 0094 0023     		movs	r3, #0
 5814 0096 0548     		ldr	r0, .L350+4
 5815 0098 FFF7FEFF 		bl	lv_debug_log_error
 5816              	.LVL662:
 5817              	.L344:
 941:lvgl/src/lv_widgets/lv_label.c ****     if(ext->text == NULL) return;
 5818              		.loc 1 941 5 discriminator 3 view .LVU1882
 941:lvgl/src/lv_widgets/lv_label.c ****     if(ext->text == NULL) return;
 5819              		.loc 1 941 5 discriminator 3 view .LVU1883
 5820 009c FEE7     		b	.L344
 5821              	.L349:
 945:lvgl/src/lv_widgets/lv_label.c ****     }
 5822              		.loc 1 945 9 view .LVU1884
 945:lvgl/src/lv_widgets/lv_label.c ****     }
 5823              		.loc 1 945 15 is_stmt 0 view .LVU1885
 5824 009e 044B     		ldr	r3, .L350+8
 5825 00a0 1B68     		ldr	r3, [r3]
 5826 00a2 9847     		blx	r3
 5827              	.LVL663:
 5828 00a4 0746     		mov	r7, r0
 5829              	.LVL664:
 945:lvgl/src/lv_widgets/lv_label.c ****     }
 5830              		.loc 1 945 15 view .LVU1886
 5831 00a6 EAE7     		b	.L345
 5832              	.L351:
 5833              		.align	2
 5834              	.L350:
 5835 00a8 00000000 		.word	.LC0
 5836 00ac 00000000 		.word	.LC2
 5837 00b0 00000000 		.word	_lv_txt_get_encoded_length
 5838              		.cfi_endproc
 5839              	.LFE479:
 5841              		.section	.text.lv_label_set_text_fmt,"ax",%progbits
 5842              		.align	1
 5843              		.global	lv_label_set_text_fmt
 5844              		.syntax unified
 5845              		.thumb
 5846              		.thumb_func
 5847              		.fpu fpv4-sp-d16
 5849              	lv_label_set_text_fmt:
 5850              	.LVL665:
 5851              	.LFB460:
ARM GAS  D:\Temp\cclLOIfg.s 			page 174


 250:lvgl/src/lv_widgets/lv_label.c ****     LV_ASSERT_OBJ(label, LV_OBJX_NAME);
 5852              		.loc 1 250 1 is_stmt 1 view -0
 5853              		.cfi_startproc
 5854              		@ args = 4, pretend = 12, frame = 8
 5855              		@ frame_needed = 0, uses_anonymous_args = 1
 250:lvgl/src/lv_widgets/lv_label.c ****     LV_ASSERT_OBJ(label, LV_OBJX_NAME);
 5856              		.loc 1 250 1 is_stmt 0 view .LVU1888
 5857 0000 0EB4     		push	{r1, r2, r3}
 5858              	.LCFI41:
 5859              		.cfi_def_cfa_offset 12
 5860              		.cfi_offset 1, -12
 5861              		.cfi_offset 2, -8
 5862              		.cfi_offset 3, -4
 5863 0002 70B5     		push	{r4, r5, r6, lr}
 5864              	.LCFI42:
 5865              		.cfi_def_cfa_offset 28
 5866              		.cfi_offset 4, -28
 5867              		.cfi_offset 5, -24
 5868              		.cfi_offset 6, -20
 5869              		.cfi_offset 14, -16
 5870 0004 83B0     		sub	sp, sp, #12
 5871              	.LCFI43:
 5872              		.cfi_def_cfa_offset 40
 5873 0006 0546     		mov	r5, r0
 5874 0008 079E     		ldr	r6, [sp, #28]
 251:lvgl/src/lv_widgets/lv_label.c ****     LV_ASSERT_STR(fmt);
 5875              		.loc 1 251 5 is_stmt 1 view .LVU1889
 251:lvgl/src/lv_widgets/lv_label.c ****     LV_ASSERT_STR(fmt);
 5876              		.loc 1 251 5 view .LVU1890
 5877 000a FFF7FEFF 		bl	lv_debug_check_null
 5878              	.LVL666:
 251:lvgl/src/lv_widgets/lv_label.c ****     LV_ASSERT_STR(fmt);
 5879              		.loc 1 251 5 is_stmt 0 view .LVU1891
 5880 000e 28B9     		cbnz	r0, .L353
 251:lvgl/src/lv_widgets/lv_label.c ****     LV_ASSERT_STR(fmt);
 5881              		.loc 1 251 5 is_stmt 1 discriminator 1 view .LVU1892
 251:lvgl/src/lv_widgets/lv_label.c ****     LV_ASSERT_STR(fmt);
 5882              		.loc 1 251 5 discriminator 1 view .LVU1893
 5883 0010 2A46     		mov	r2, r5
 5884 0012 0023     		movs	r3, #0
 5885 0014 1B48     		ldr	r0, .L363
 5886 0016 FFF7FEFF 		bl	lv_debug_log_error
 5887              	.LVL667:
 5888              	.L354:
 251:lvgl/src/lv_widgets/lv_label.c ****     LV_ASSERT_STR(fmt);
 5889              		.loc 1 251 5 discriminator 1 view .LVU1894
 251:lvgl/src/lv_widgets/lv_label.c ****     LV_ASSERT_STR(fmt);
 5890              		.loc 1 251 5 discriminator 1 view .LVU1895
 5891 001a FEE7     		b	.L354
 5892              	.L353:
 251:lvgl/src/lv_widgets/lv_label.c ****     LV_ASSERT_STR(fmt);
 5893              		.loc 1 251 39 discriminator 2 view .LVU1896
 252:lvgl/src/lv_widgets/lv_label.c **** 
 5894              		.loc 1 252 5 discriminator 2 view .LVU1897
 252:lvgl/src/lv_widgets/lv_label.c **** 
 5895              		.loc 1 252 5 discriminator 2 view .LVU1898
 5896 001c 3046     		mov	r0, r6
ARM GAS  D:\Temp\cclLOIfg.s 			page 175


 5897 001e FFF7FEFF 		bl	lv_debug_check_null
 5898              	.LVL668:
 5899 0022 28B9     		cbnz	r0, .L355
 252:lvgl/src/lv_widgets/lv_label.c **** 
 5900              		.loc 1 252 5 discriminator 1 view .LVU1899
 252:lvgl/src/lv_widgets/lv_label.c **** 
 5901              		.loc 1 252 5 discriminator 1 view .LVU1900
 5902 0024 3246     		mov	r2, r6
 5903 0026 0023     		movs	r3, #0
 5904 0028 1648     		ldr	r0, .L363
 5905 002a FFF7FEFF 		bl	lv_debug_log_error
 5906              	.LVL669:
 5907              	.L356:
 252:lvgl/src/lv_widgets/lv_label.c **** 
 5908              		.loc 1 252 5 discriminator 2 view .LVU1901
 252:lvgl/src/lv_widgets/lv_label.c **** 
 5909              		.loc 1 252 5 discriminator 2 view .LVU1902
 5910 002e FEE7     		b	.L356
 5911              	.L355:
 252:lvgl/src/lv_widgets/lv_label.c **** 
 5912              		.loc 1 252 23 discriminator 2 view .LVU1903
 254:lvgl/src/lv_widgets/lv_label.c **** 
 5913              		.loc 1 254 5 discriminator 2 view .LVU1904
 5914 0030 2846     		mov	r0, r5
 5915 0032 FFF7FEFF 		bl	lv_obj_invalidate
 5916              	.LVL670:
 256:lvgl/src/lv_widgets/lv_label.c **** 
 5917              		.loc 1 256 5 discriminator 2 view .LVU1905
 256:lvgl/src/lv_widgets/lv_label.c **** 
 5918              		.loc 1 256 28 is_stmt 0 discriminator 2 view .LVU1906
 5919 0036 2846     		mov	r0, r5
 5920 0038 FFF7FEFF 		bl	lv_obj_get_ext_attr
 5921              	.LVL671:
 5922 003c 0446     		mov	r4, r0
 5923              	.LVL672:
 259:lvgl/src/lv_widgets/lv_label.c ****         lv_label_refr_text(label);
 5924              		.loc 1 259 5 is_stmt 1 discriminator 2 view .LVU1907
 259:lvgl/src/lv_widgets/lv_label.c ****         lv_label_refr_text(label);
 5925              		.loc 1 259 7 is_stmt 0 discriminator 2 view .LVU1908
 5926 003e BEB1     		cbz	r6, .L361
 264:lvgl/src/lv_widgets/lv_label.c ****         lv_mem_free(ext->text);
 5927              		.loc 1 264 5 is_stmt 1 view .LVU1909
 264:lvgl/src/lv_widgets/lv_label.c ****         lv_mem_free(ext->text);
 5928              		.loc 1 264 11 is_stmt 0 view .LVU1910
 5929 0040 0068     		ldr	r0, [r0]
 5930              	.LVL673:
 264:lvgl/src/lv_widgets/lv_label.c ****         lv_mem_free(ext->text);
 5931              		.loc 1 264 7 view .LVU1911
 5932 0042 18B1     		cbz	r0, .L359
 264:lvgl/src/lv_widgets/lv_label.c ****         lv_mem_free(ext->text);
 5933              		.loc 1 264 45 discriminator 1 view .LVU1912
 5934 0044 A37C     		ldrb	r3, [r4, #18]	@ zero_extendqisi2
 264:lvgl/src/lv_widgets/lv_label.c ****         lv_mem_free(ext->text);
 5935              		.loc 1 264 26 discriminator 1 view .LVU1913
 5936 0046 13F0080F 		tst	r3, #8
 5937 004a 15D0     		beq	.L362
 5938              	.L359:
ARM GAS  D:\Temp\cclLOIfg.s 			page 176


 269:lvgl/src/lv_widgets/lv_label.c ****     va_start(args, fmt);
 5939              		.loc 1 269 5 is_stmt 1 view .LVU1914
 270:lvgl/src/lv_widgets/lv_label.c ****     ext->text = _lv_txt_set_text_vfmt(fmt, args);
 5940              		.loc 1 270 5 view .LVU1915
 5941 004c 08A9     		add	r1, sp, #32
 5942 004e 0191     		str	r1, [sp, #4]
 271:lvgl/src/lv_widgets/lv_label.c ****     va_end(args);
 5943              		.loc 1 271 5 view .LVU1916
 271:lvgl/src/lv_widgets/lv_label.c ****     va_end(args);
 5944              		.loc 1 271 17 is_stmt 0 view .LVU1917
 5945 0050 3046     		mov	r0, r6
 5946 0052 FFF7FEFF 		bl	_lv_txt_set_text_vfmt
 5947              	.LVL674:
 271:lvgl/src/lv_widgets/lv_label.c ****     va_end(args);
 5948              		.loc 1 271 15 view .LVU1918
 5949 0056 2060     		str	r0, [r4]
 272:lvgl/src/lv_widgets/lv_label.c ****     ext->static_txt = 0; /*Now the text is dynamically allocated*/
 5950              		.loc 1 272 5 is_stmt 1 view .LVU1919
 273:lvgl/src/lv_widgets/lv_label.c **** 
 5951              		.loc 1 273 5 view .LVU1920
 273:lvgl/src/lv_widgets/lv_label.c **** 
 5952              		.loc 1 273 21 is_stmt 0 view .LVU1921
 5953 0058 A37C     		ldrb	r3, [r4, #18]	@ zero_extendqisi2
 5954 005a 6FF3C303 		bfc	r3, #3, #1
 5955 005e A374     		strb	r3, [r4, #18]
 275:lvgl/src/lv_widgets/lv_label.c **** }
 5956              		.loc 1 275 5 is_stmt 1 view .LVU1922
 5957 0060 2846     		mov	r0, r5
 5958 0062 FFF7FEFF 		bl	lv_label_refr_text
 5959              	.LVL675:
 5960              	.L352:
 276:lvgl/src/lv_widgets/lv_label.c **** 
 5961              		.loc 1 276 1 is_stmt 0 view .LVU1923
 5962 0066 03B0     		add	sp, sp, #12
 5963              	.LCFI44:
 5964              		.cfi_remember_state
 5965              		.cfi_def_cfa_offset 28
 5966              		@ sp needed
 5967 0068 BDE87040 		pop	{r4, r5, r6, lr}
 5968              	.LCFI45:
 5969              		.cfi_restore 14
 5970              		.cfi_restore 6
 5971              		.cfi_restore 5
 5972              		.cfi_restore 4
 5973              		.cfi_def_cfa_offset 12
 5974              	.LVL676:
 276:lvgl/src/lv_widgets/lv_label.c **** 
 5975              		.loc 1 276 1 view .LVU1924
 5976 006c 03B0     		add	sp, sp, #12
 5977              	.LCFI46:
 5978              		.cfi_restore 3
 5979              		.cfi_restore 2
 5980              		.cfi_restore 1
 5981              		.cfi_def_cfa_offset 0
 5982 006e 7047     		bx	lr
 5983              	.LVL677:
 5984              	.L361:
ARM GAS  D:\Temp\cclLOIfg.s 			page 177


 5985              	.LCFI47:
 5986              		.cfi_restore_state
 260:lvgl/src/lv_widgets/lv_label.c ****         return;
 5987              		.loc 1 260 9 is_stmt 1 view .LVU1925
 5988 0070 2846     		mov	r0, r5
 5989              	.LVL678:
 260:lvgl/src/lv_widgets/lv_label.c ****         return;
 5990              		.loc 1 260 9 is_stmt 0 view .LVU1926
 5991 0072 FFF7FEFF 		bl	lv_label_refr_text
 5992              	.LVL679:
 261:lvgl/src/lv_widgets/lv_label.c ****     }
 5993              		.loc 1 261 9 is_stmt 1 view .LVU1927
 5994 0076 F6E7     		b	.L352
 5995              	.L362:
 265:lvgl/src/lv_widgets/lv_label.c ****         ext->text = NULL;
 5996              		.loc 1 265 9 view .LVU1928
 5997 0078 FFF7FEFF 		bl	lv_mem_free
 5998              	.LVL680:
 266:lvgl/src/lv_widgets/lv_label.c ****     }
 5999              		.loc 1 266 9 view .LVU1929
 266:lvgl/src/lv_widgets/lv_label.c ****     }
 6000              		.loc 1 266 19 is_stmt 0 view .LVU1930
 6001 007c 0023     		movs	r3, #0
 6002 007e 2360     		str	r3, [r4]
 6003 0080 E4E7     		b	.L359
 6004              	.L364:
 6005 0082 00BF     		.align	2
 6006              	.L363:
 6007 0084 00000000 		.word	.LC0
 6008              		.cfi_endproc
 6009              	.LFE460:
 6011              		.section	.text.lv_label_set_text_static,"ax",%progbits
 6012              		.align	1
 6013              		.global	lv_label_set_text_static
 6014              		.syntax unified
 6015              		.thumb
 6016              		.thumb_func
 6017              		.fpu fpv4-sp-d16
 6019              	lv_label_set_text_static:
 6020              	.LVL681:
 6021              	.LFB461:
 285:lvgl/src/lv_widgets/lv_label.c ****     LV_ASSERT_OBJ(label, LV_OBJX_NAME);
 6022              		.loc 1 285 1 is_stmt 1 view -0
 6023              		.cfi_startproc
 6024              		@ args = 0, pretend = 0, frame = 0
 6025              		@ frame_needed = 0, uses_anonymous_args = 0
 285:lvgl/src/lv_widgets/lv_label.c ****     LV_ASSERT_OBJ(label, LV_OBJX_NAME);
 6026              		.loc 1 285 1 is_stmt 0 view .LVU1932
 6027 0000 70B5     		push	{r4, r5, r6, lr}
 6028              	.LCFI48:
 6029              		.cfi_def_cfa_offset 16
 6030              		.cfi_offset 4, -16
 6031              		.cfi_offset 5, -12
 6032              		.cfi_offset 6, -8
 6033              		.cfi_offset 14, -4
 6034 0002 0546     		mov	r5, r0
 6035 0004 0E46     		mov	r6, r1
ARM GAS  D:\Temp\cclLOIfg.s 			page 178


 286:lvgl/src/lv_widgets/lv_label.c **** 
 6036              		.loc 1 286 5 is_stmt 1 view .LVU1933
 286:lvgl/src/lv_widgets/lv_label.c **** 
 6037              		.loc 1 286 5 view .LVU1934
 6038 0006 FFF7FEFF 		bl	lv_debug_check_null
 6039              	.LVL682:
 286:lvgl/src/lv_widgets/lv_label.c **** 
 6040              		.loc 1 286 5 is_stmt 0 view .LVU1935
 6041 000a 28B9     		cbnz	r0, .L366
 286:lvgl/src/lv_widgets/lv_label.c **** 
 6042              		.loc 1 286 5 is_stmt 1 discriminator 1 view .LVU1936
 286:lvgl/src/lv_widgets/lv_label.c **** 
 6043              		.loc 1 286 5 discriminator 1 view .LVU1937
 6044 000c 2A46     		mov	r2, r5
 6045 000e 0023     		movs	r3, #0
 6046 0010 0D48     		ldr	r0, .L371
 6047 0012 FFF7FEFF 		bl	lv_debug_log_error
 6048              	.LVL683:
 6049              	.L367:
 286:lvgl/src/lv_widgets/lv_label.c **** 
 6050              		.loc 1 286 5 discriminator 1 view .LVU1938
 286:lvgl/src/lv_widgets/lv_label.c **** 
 6051              		.loc 1 286 5 discriminator 1 view .LVU1939
 6052 0016 FEE7     		b	.L367
 6053              	.L366:
 286:lvgl/src/lv_widgets/lv_label.c **** 
 6054              		.loc 1 286 39 discriminator 2 view .LVU1940
 288:lvgl/src/lv_widgets/lv_label.c ****     if(ext->static_txt == 0 && ext->text != NULL) {
 6055              		.loc 1 288 5 discriminator 2 view .LVU1941
 288:lvgl/src/lv_widgets/lv_label.c ****     if(ext->static_txt == 0 && ext->text != NULL) {
 6056              		.loc 1 288 28 is_stmt 0 discriminator 2 view .LVU1942
 6057 0018 2846     		mov	r0, r5
 6058 001a FFF7FEFF 		bl	lv_obj_get_ext_attr
 6059              	.LVL684:
 6060 001e 0446     		mov	r4, r0
 6061              	.LVL685:
 289:lvgl/src/lv_widgets/lv_label.c ****         lv_mem_free(ext->text);
 6062              		.loc 1 289 5 is_stmt 1 discriminator 2 view .LVU1943
 289:lvgl/src/lv_widgets/lv_label.c ****         lv_mem_free(ext->text);
 6063              		.loc 1 289 24 is_stmt 0 discriminator 2 view .LVU1944
 6064 0020 837C     		ldrb	r3, [r0, #18]	@ zero_extendqisi2
 289:lvgl/src/lv_widgets/lv_label.c ****         lv_mem_free(ext->text);
 6065              		.loc 1 289 7 discriminator 2 view .LVU1945
 6066 0022 13F0080F 		tst	r3, #8
 6067 0026 05D1     		bne	.L368
 289:lvgl/src/lv_widgets/lv_label.c ****         lv_mem_free(ext->text);
 6068              		.loc 1 289 35 discriminator 1 view .LVU1946
 6069 0028 0068     		ldr	r0, [r0]
 6070              	.LVL686:
 289:lvgl/src/lv_widgets/lv_label.c ****         lv_mem_free(ext->text);
 6071              		.loc 1 289 29 discriminator 1 view .LVU1947
 6072 002a 18B1     		cbz	r0, .L368
 290:lvgl/src/lv_widgets/lv_label.c ****         ext->text = NULL;
 6073              		.loc 1 290 9 is_stmt 1 view .LVU1948
 6074 002c FFF7FEFF 		bl	lv_mem_free
 6075              	.LVL687:
 291:lvgl/src/lv_widgets/lv_label.c ****     }
ARM GAS  D:\Temp\cclLOIfg.s 			page 179


 6076              		.loc 1 291 9 view .LVU1949
 291:lvgl/src/lv_widgets/lv_label.c ****     }
 6077              		.loc 1 291 19 is_stmt 0 view .LVU1950
 6078 0030 0023     		movs	r3, #0
 6079 0032 2360     		str	r3, [r4]
 6080              	.L368:
 294:lvgl/src/lv_widgets/lv_label.c ****         ext->static_txt = 1;
 6081              		.loc 1 294 5 is_stmt 1 view .LVU1951
 294:lvgl/src/lv_widgets/lv_label.c ****         ext->static_txt = 1;
 6082              		.loc 1 294 7 is_stmt 0 view .LVU1952
 6083 0034 26B1     		cbz	r6, .L369
 295:lvgl/src/lv_widgets/lv_label.c ****         ext->text       = (char *)text;
 6084              		.loc 1 295 9 is_stmt 1 view .LVU1953
 295:lvgl/src/lv_widgets/lv_label.c ****         ext->text       = (char *)text;
 6085              		.loc 1 295 25 is_stmt 0 view .LVU1954
 6086 0036 A37C     		ldrb	r3, [r4, #18]	@ zero_extendqisi2
 6087 0038 43F00803 		orr	r3, r3, #8
 6088 003c A374     		strb	r3, [r4, #18]
 296:lvgl/src/lv_widgets/lv_label.c ****     }
 6089              		.loc 1 296 9 is_stmt 1 view .LVU1955
 296:lvgl/src/lv_widgets/lv_label.c ****     }
 6090              		.loc 1 296 25 is_stmt 0 view .LVU1956
 6091 003e 2660     		str	r6, [r4]
 6092              	.L369:
 299:lvgl/src/lv_widgets/lv_label.c **** }
 6093              		.loc 1 299 5 is_stmt 1 view .LVU1957
 6094 0040 2846     		mov	r0, r5
 6095 0042 FFF7FEFF 		bl	lv_label_refr_text
 6096              	.LVL688:
 300:lvgl/src/lv_widgets/lv_label.c **** 
 6097              		.loc 1 300 1 is_stmt 0 view .LVU1958
 6098 0046 70BD     		pop	{r4, r5, r6, pc}
 6099              	.LVL689:
 6100              	.L372:
 300:lvgl/src/lv_widgets/lv_label.c **** 
 6101              		.loc 1 300 1 view .LVU1959
 6102              		.align	2
 6103              	.L371:
 6104 0048 00000000 		.word	.LC0
 6105              		.cfi_endproc
 6106              	.LFE461:
 6108              		.section	.text.lv_label_set_long_mode,"ax",%progbits
 6109              		.align	1
 6110              		.global	lv_label_set_long_mode
 6111              		.syntax unified
 6112              		.thumb
 6113              		.thumb_func
 6114              		.fpu fpv4-sp-d16
 6116              	lv_label_set_long_mode:
 6117              	.LVL690:
 6118              	.LFB462:
 310:lvgl/src/lv_widgets/lv_label.c ****     LV_ASSERT_OBJ(label, LV_OBJX_NAME);
 6119              		.loc 1 310 1 is_stmt 1 view -0
 6120              		.cfi_startproc
 6121              		@ args = 0, pretend = 0, frame = 0
 6122              		@ frame_needed = 0, uses_anonymous_args = 0
 310:lvgl/src/lv_widgets/lv_label.c ****     LV_ASSERT_OBJ(label, LV_OBJX_NAME);
ARM GAS  D:\Temp\cclLOIfg.s 			page 180


 6123              		.loc 1 310 1 is_stmt 0 view .LVU1961
 6124 0000 70B5     		push	{r4, r5, r6, lr}
 6125              	.LCFI49:
 6126              		.cfi_def_cfa_offset 16
 6127              		.cfi_offset 4, -16
 6128              		.cfi_offset 5, -12
 6129              		.cfi_offset 6, -8
 6130              		.cfi_offset 14, -4
 6131 0002 0546     		mov	r5, r0
 6132 0004 0E46     		mov	r6, r1
 311:lvgl/src/lv_widgets/lv_label.c **** 
 6133              		.loc 1 311 5 is_stmt 1 view .LVU1962
 311:lvgl/src/lv_widgets/lv_label.c **** 
 6134              		.loc 1 311 5 view .LVU1963
 6135 0006 FFF7FEFF 		bl	lv_debug_check_null
 6136              	.LVL691:
 311:lvgl/src/lv_widgets/lv_label.c **** 
 6137              		.loc 1 311 5 is_stmt 0 view .LVU1964
 6138 000a 28B9     		cbnz	r0, .L374
 311:lvgl/src/lv_widgets/lv_label.c **** 
 6139              		.loc 1 311 5 is_stmt 1 discriminator 1 view .LVU1965
 311:lvgl/src/lv_widgets/lv_label.c **** 
 6140              		.loc 1 311 5 discriminator 1 view .LVU1966
 6141 000c 2A46     		mov	r2, r5
 6142 000e 0023     		movs	r3, #0
 6143 0010 1E48     		ldr	r0, .L381
 6144 0012 FFF7FEFF 		bl	lv_debug_log_error
 6145              	.LVL692:
 6146              	.L375:
 311:lvgl/src/lv_widgets/lv_label.c **** 
 6147              		.loc 1 311 5 discriminator 1 view .LVU1967
 311:lvgl/src/lv_widgets/lv_label.c **** 
 6148              		.loc 1 311 5 discriminator 1 view .LVU1968
 6149 0016 FEE7     		b	.L375
 6150              	.L374:
 311:lvgl/src/lv_widgets/lv_label.c **** 
 6151              		.loc 1 311 39 discriminator 2 view .LVU1969
 313:lvgl/src/lv_widgets/lv_label.c **** 
 6152              		.loc 1 313 5 discriminator 2 view .LVU1970
 313:lvgl/src/lv_widgets/lv_label.c **** 
 6153              		.loc 1 313 28 is_stmt 0 discriminator 2 view .LVU1971
 6154 0018 2846     		mov	r0, r5
 6155 001a FFF7FEFF 		bl	lv_obj_get_ext_attr
 6156              	.LVL693:
 6157 001e 0446     		mov	r4, r0
 6158              	.LVL694:
 317:lvgl/src/lv_widgets/lv_label.c ****     lv_anim_del(label, (lv_anim_exec_xcb_t)lv_obj_set_y);
 6159              		.loc 1 317 5 is_stmt 1 discriminator 2 view .LVU1972
 6160 0020 1B49     		ldr	r1, .L381+4
 6161 0022 2846     		mov	r0, r5
 6162              	.LVL695:
 317:lvgl/src/lv_widgets/lv_label.c ****     lv_anim_del(label, (lv_anim_exec_xcb_t)lv_obj_set_y);
 6163              		.loc 1 317 5 is_stmt 0 discriminator 2 view .LVU1973
 6164 0024 FFF7FEFF 		bl	lv_anim_del
 6165              	.LVL696:
 318:lvgl/src/lv_widgets/lv_label.c ****     lv_anim_del(label, (lv_anim_exec_xcb_t)lv_label_set_offset_x);
 6166              		.loc 1 318 5 is_stmt 1 discriminator 2 view .LVU1974
ARM GAS  D:\Temp\cclLOIfg.s 			page 181


 6167 0028 1A49     		ldr	r1, .L381+8
 6168 002a 2846     		mov	r0, r5
 6169 002c FFF7FEFF 		bl	lv_anim_del
 6170              	.LVL697:
 319:lvgl/src/lv_widgets/lv_label.c ****     lv_anim_del(label, (lv_anim_exec_xcb_t)lv_label_set_offset_y);
 6171              		.loc 1 319 5 discriminator 2 view .LVU1975
 6172 0030 1949     		ldr	r1, .L381+12
 6173 0032 2846     		mov	r0, r5
 6174 0034 FFF7FEFF 		bl	lv_anim_del
 6175              	.LVL698:
 320:lvgl/src/lv_widgets/lv_label.c **** #endif
 6176              		.loc 1 320 5 discriminator 2 view .LVU1976
 6177 0038 1849     		ldr	r1, .L381+16
 6178 003a 2846     		mov	r0, r5
 6179 003c FFF7FEFF 		bl	lv_anim_del
 6180              	.LVL699:
 322:lvgl/src/lv_widgets/lv_label.c ****     ext->offset.y = 0;
 6181              		.loc 1 322 5 discriminator 2 view .LVU1977
 322:lvgl/src/lv_widgets/lv_label.c ****     ext->offset.y = 0;
 6182              		.loc 1 322 19 is_stmt 0 discriminator 2 view .LVU1978
 6183 0040 0023     		movs	r3, #0
 6184 0042 E381     		strh	r3, [r4, #14]	@ movhi
 323:lvgl/src/lv_widgets/lv_label.c **** 
 6185              		.loc 1 323 5 is_stmt 1 discriminator 2 view .LVU1979
 323:lvgl/src/lv_widgets/lv_label.c **** 
 6186              		.loc 1 323 19 is_stmt 0 discriminator 2 view .LVU1980
 6187 0044 2382     		strh	r3, [r4, #16]	@ movhi
 325:lvgl/src/lv_widgets/lv_label.c ****         ext->expand = 1;
 6188              		.loc 1 325 5 is_stmt 1 discriminator 2 view .LVU1981
 325:lvgl/src/lv_widgets/lv_label.c ****         ext->expand = 1;
 6189              		.loc 1 325 82 is_stmt 0 discriminator 2 view .LVU1982
 6190 0046 F31E     		subs	r3, r6, #3
 6191 0048 DBB2     		uxtb	r3, r3
 325:lvgl/src/lv_widgets/lv_label.c ****         ext->expand = 1;
 6192              		.loc 1 325 7 discriminator 2 view .LVU1983
 6193 004a 022B     		cmp	r3, #2
 6194 004c 10D8     		bhi	.L376
 326:lvgl/src/lv_widgets/lv_label.c ****     else
 6195              		.loc 1 326 9 is_stmt 1 view .LVU1984
 326:lvgl/src/lv_widgets/lv_label.c ****     else
 6196              		.loc 1 326 21 is_stmt 0 view .LVU1985
 6197 004e A37C     		ldrb	r3, [r4, #18]	@ zero_extendqisi2
 6198 0050 43F08003 		orr	r3, r3, #128
 6199 0054 A374     		strb	r3, [r4, #18]
 6200              	.L377:
 331:lvgl/src/lv_widgets/lv_label.c ****         lv_label_revert_dots(label);
 6201              		.loc 1 331 5 is_stmt 1 view .LVU1986
 331:lvgl/src/lv_widgets/lv_label.c ****         lv_label_revert_dots(label);
 6202              		.loc 1 331 23 is_stmt 0 view .LVU1987
 6203 0056 A37C     		ldrb	r3, [r4, #18]	@ zero_extendqisi2
 6204 0058 03F00703 		and	r3, r3, #7
 331:lvgl/src/lv_widgets/lv_label.c ****         lv_label_revert_dots(label);
 6205              		.loc 1 331 7 view .LVU1988
 6206 005c 022B     		cmp	r3, #2
 6207 005e 0CD0     		beq	.L380
 6208              	.L378:
 335:lvgl/src/lv_widgets/lv_label.c ****     lv_label_refr_text(label);
ARM GAS  D:\Temp\cclLOIfg.s 			page 182


 6209              		.loc 1 335 5 is_stmt 1 view .LVU1989
 335:lvgl/src/lv_widgets/lv_label.c ****     lv_label_refr_text(label);
 6210              		.loc 1 335 20 is_stmt 0 view .LVU1990
 6211 0060 A37C     		ldrb	r3, [r4, #18]	@ zero_extendqisi2
 6212 0062 66F30203 		bfi	r3, r6, #0, #3
 6213 0066 A374     		strb	r3, [r4, #18]
 336:lvgl/src/lv_widgets/lv_label.c **** }
 6214              		.loc 1 336 5 is_stmt 1 view .LVU1991
 6215 0068 2846     		mov	r0, r5
 6216 006a FFF7FEFF 		bl	lv_label_refr_text
 6217              	.LVL700:
 337:lvgl/src/lv_widgets/lv_label.c **** 
 6218              		.loc 1 337 1 is_stmt 0 view .LVU1992
 6219 006e 70BD     		pop	{r4, r5, r6, pc}
 6220              	.LVL701:
 6221              	.L376:
 328:lvgl/src/lv_widgets/lv_label.c **** 
 6222              		.loc 1 328 9 is_stmt 1 view .LVU1993
 328:lvgl/src/lv_widgets/lv_label.c **** 
 6223              		.loc 1 328 21 is_stmt 0 view .LVU1994
 6224 0070 A37C     		ldrb	r3, [r4, #18]	@ zero_extendqisi2
 6225 0072 6FF3C713 		bfc	r3, #7, #1
 6226 0076 A374     		strb	r3, [r4, #18]
 6227 0078 EDE7     		b	.L377
 6228              	.L380:
 331:lvgl/src/lv_widgets/lv_label.c ****         lv_label_revert_dots(label);
 6229              		.loc 1 331 50 discriminator 1 view .LVU1995
 6230 007a A268     		ldr	r2, [r4, #8]
 331:lvgl/src/lv_widgets/lv_label.c ****         lv_label_revert_dots(label);
 6231              		.loc 1 331 44 discriminator 1 view .LVU1996
 6232 007c 4FF6FF73 		movw	r3, #65535
 6233 0080 9A42     		cmp	r2, r3
 6234 0082 EDD0     		beq	.L378
 332:lvgl/src/lv_widgets/lv_label.c ****     }
 6235              		.loc 1 332 9 is_stmt 1 view .LVU1997
 6236 0084 2846     		mov	r0, r5
 6237 0086 FFF7FEFF 		bl	lv_label_revert_dots
 6238              	.LVL702:
 6239 008a E9E7     		b	.L378
 6240              	.L382:
 6241              		.align	2
 6242              	.L381:
 6243 008c 00000000 		.word	.LC0
 6244 0090 00000000 		.word	lv_obj_set_x
 6245 0094 00000000 		.word	lv_obj_set_y
 6246 0098 00000000 		.word	lv_label_set_offset_x
 6247 009c 00000000 		.word	lv_label_set_offset_y
 6248              		.cfi_endproc
 6249              	.LFE462:
 6251              		.section	.text.lv_label_set_recolor,"ax",%progbits
 6252              		.align	1
 6253              		.global	lv_label_set_recolor
 6254              		.syntax unified
 6255              		.thumb
 6256              		.thumb_func
 6257              		.fpu fpv4-sp-d16
 6259              	lv_label_set_recolor:
ARM GAS  D:\Temp\cclLOIfg.s 			page 183


 6260              	.LVL703:
 6261              	.LFB464:
 363:lvgl/src/lv_widgets/lv_label.c ****     LV_ASSERT_OBJ(label, LV_OBJX_NAME);
 6262              		.loc 1 363 1 view -0
 6263              		.cfi_startproc
 6264              		@ args = 0, pretend = 0, frame = 0
 6265              		@ frame_needed = 0, uses_anonymous_args = 0
 363:lvgl/src/lv_widgets/lv_label.c ****     LV_ASSERT_OBJ(label, LV_OBJX_NAME);
 6266              		.loc 1 363 1 is_stmt 0 view .LVU1999
 6267 0000 38B5     		push	{r3, r4, r5, lr}
 6268              	.LCFI50:
 6269              		.cfi_def_cfa_offset 16
 6270              		.cfi_offset 3, -16
 6271              		.cfi_offset 4, -12
 6272              		.cfi_offset 5, -8
 6273              		.cfi_offset 14, -4
 6274 0002 0446     		mov	r4, r0
 6275 0004 0D46     		mov	r5, r1
 364:lvgl/src/lv_widgets/lv_label.c **** 
 6276              		.loc 1 364 5 is_stmt 1 view .LVU2000
 364:lvgl/src/lv_widgets/lv_label.c **** 
 6277              		.loc 1 364 5 view .LVU2001
 6278 0006 FFF7FEFF 		bl	lv_debug_check_null
 6279              	.LVL704:
 364:lvgl/src/lv_widgets/lv_label.c **** 
 6280              		.loc 1 364 5 is_stmt 0 view .LVU2002
 6281 000a 28B9     		cbnz	r0, .L384
 364:lvgl/src/lv_widgets/lv_label.c **** 
 6282              		.loc 1 364 5 is_stmt 1 discriminator 1 view .LVU2003
 364:lvgl/src/lv_widgets/lv_label.c **** 
 6283              		.loc 1 364 5 discriminator 1 view .LVU2004
 6284 000c 2246     		mov	r2, r4
 6285 000e 0023     		movs	r3, #0
 6286 0010 0B48     		ldr	r0, .L390
 6287 0012 FFF7FEFF 		bl	lv_debug_log_error
 6288              	.LVL705:
 6289              	.L385:
 364:lvgl/src/lv_widgets/lv_label.c **** 
 6290              		.loc 1 364 5 discriminator 1 view .LVU2005
 364:lvgl/src/lv_widgets/lv_label.c **** 
 6291              		.loc 1 364 5 discriminator 1 view .LVU2006
 6292 0016 FEE7     		b	.L385
 6293              	.L384:
 364:lvgl/src/lv_widgets/lv_label.c **** 
 6294              		.loc 1 364 39 discriminator 2 view .LVU2007
 366:lvgl/src/lv_widgets/lv_label.c ****     if(ext->recolor == en) return;
 6295              		.loc 1 366 5 discriminator 2 view .LVU2008
 366:lvgl/src/lv_widgets/lv_label.c ****     if(ext->recolor == en) return;
 6296              		.loc 1 366 28 is_stmt 0 discriminator 2 view .LVU2009
 6297 0018 2046     		mov	r0, r4
 6298 001a FFF7FEFF 		bl	lv_obj_get_ext_attr
 6299              	.LVL706:
 367:lvgl/src/lv_widgets/lv_label.c **** 
 6300              		.loc 1 367 5 is_stmt 1 discriminator 2 view .LVU2010
 367:lvgl/src/lv_widgets/lv_label.c **** 
 6301              		.loc 1 367 11 is_stmt 0 discriminator 2 view .LVU2011
 6302 001e 837C     		ldrb	r3, [r0, #18]	@ zero_extendqisi2
ARM GAS  D:\Temp\cclLOIfg.s 			page 184


 6303 0020 C3F38013 		ubfx	r3, r3, #6, #1
 367:lvgl/src/lv_widgets/lv_label.c **** 
 6304              		.loc 1 367 7 discriminator 2 view .LVU2012
 6305 0024 AB42     		cmp	r3, r5
 6306 0026 08D0     		beq	.L383
 369:lvgl/src/lv_widgets/lv_label.c **** 
 6307              		.loc 1 369 5 is_stmt 1 view .LVU2013
 369:lvgl/src/lv_widgets/lv_label.c **** 
 6308              		.loc 1 369 36 is_stmt 0 view .LVU2014
 6309 0028 45B9     		cbnz	r5, .L388
 6310 002a 0022     		movs	r2, #0
 6311              	.L387:
 369:lvgl/src/lv_widgets/lv_label.c **** 
 6312              		.loc 1 369 18 discriminator 4 view .LVU2015
 6313 002c 837C     		ldrb	r3, [r0, #18]	@ zero_extendqisi2
 6314 002e 62F38613 		bfi	r3, r2, #6, #1
 6315 0032 8374     		strb	r3, [r0, #18]
 371:lvgl/src/lv_widgets/lv_label.c ****                                   be hidden or revealed*/
 6316              		.loc 1 371 5 is_stmt 1 discriminator 4 view .LVU2016
 6317 0034 2046     		mov	r0, r4
 6318              	.LVL707:
 371:lvgl/src/lv_widgets/lv_label.c ****                                   be hidden or revealed*/
 6319              		.loc 1 371 5 is_stmt 0 discriminator 4 view .LVU2017
 6320 0036 FFF7FEFF 		bl	lv_label_refr_text
 6321              	.LVL708:
 6322              	.L383:
 373:lvgl/src/lv_widgets/lv_label.c **** 
 6323              		.loc 1 373 1 view .LVU2018
 6324 003a 38BD     		pop	{r3, r4, r5, pc}
 6325              	.LVL709:
 6326              	.L388:
 369:lvgl/src/lv_widgets/lv_label.c **** 
 6327              		.loc 1 369 36 view .LVU2019
 6328 003c 0122     		movs	r2, #1
 6329 003e F5E7     		b	.L387
 6330              	.L391:
 6331              		.align	2
 6332              	.L390:
 6333 0040 00000000 		.word	.LC0
 6334              		.cfi_endproc
 6335              	.LFE464:
 6337              		.section	.text.lv_label_create,"ax",%progbits
 6338              		.align	1
 6339              		.global	lv_label_create
 6340              		.syntax unified
 6341              		.thumb
 6342              		.thumb_func
 6343              		.fpu fpv4-sp-d16
 6345              	lv_label_create:
 6346              	.LVL710:
 6347              	.LFB458:
  77:lvgl/src/lv_widgets/lv_label.c ****     LV_LOG_TRACE("label create started");
 6348              		.loc 1 77 1 is_stmt 1 view -0
 6349              		.cfi_startproc
 6350              		@ args = 0, pretend = 0, frame = 0
 6351              		@ frame_needed = 0, uses_anonymous_args = 0
  77:lvgl/src/lv_widgets/lv_label.c ****     LV_LOG_TRACE("label create started");
ARM GAS  D:\Temp\cclLOIfg.s 			page 185


 6352              		.loc 1 77 1 is_stmt 0 view .LVU2021
 6353 0000 2DE9F041 		push	{r4, r5, r6, r7, r8, lr}
 6354              	.LCFI51:
 6355              		.cfi_def_cfa_offset 24
 6356              		.cfi_offset 4, -24
 6357              		.cfi_offset 5, -20
 6358              		.cfi_offset 6, -16
 6359              		.cfi_offset 7, -12
 6360              		.cfi_offset 8, -8
 6361              		.cfi_offset 14, -4
 6362 0004 0F46     		mov	r7, r1
  78:lvgl/src/lv_widgets/lv_label.c **** 
 6363              		.loc 1 78 41 is_stmt 1 view .LVU2022
  81:lvgl/src/lv_widgets/lv_label.c ****     LV_ASSERT_MEM(new_label);
 6364              		.loc 1 81 5 view .LVU2023
  81:lvgl/src/lv_widgets/lv_label.c ****     LV_ASSERT_MEM(new_label);
 6365              		.loc 1 81 28 is_stmt 0 view .LVU2024
 6366 0006 FFF7FEFF 		bl	lv_obj_create
 6367              	.LVL711:
  81:lvgl/src/lv_widgets/lv_label.c ****     LV_ASSERT_MEM(new_label);
 6368              		.loc 1 81 28 view .LVU2025
 6369 000a 0446     		mov	r4, r0
 6370              	.LVL712:
  82:lvgl/src/lv_widgets/lv_label.c ****     if(new_label == NULL) return NULL;
 6371              		.loc 1 82 5 is_stmt 1 view .LVU2026
  82:lvgl/src/lv_widgets/lv_label.c ****     if(new_label == NULL) return NULL;
 6372              		.loc 1 82 5 view .LVU2027
 6373 000c FFF7FEFF 		bl	lv_debug_check_null
 6374              	.LVL713:
  82:lvgl/src/lv_widgets/lv_label.c ****     if(new_label == NULL) return NULL;
 6375              		.loc 1 82 5 is_stmt 0 view .LVU2028
 6376 0010 0028     		cmp	r0, #0
 6377 0012 6CD0     		beq	.L410
  82:lvgl/src/lv_widgets/lv_label.c ****     if(new_label == NULL) return NULL;
 6378              		.loc 1 82 29 is_stmt 1 discriminator 2 view .LVU2029
  83:lvgl/src/lv_widgets/lv_label.c **** 
 6379              		.loc 1 83 5 discriminator 2 view .LVU2030
  83:lvgl/src/lv_widgets/lv_label.c **** 
 6380              		.loc 1 83 7 is_stmt 0 discriminator 2 view .LVU2031
 6381 0014 002C     		cmp	r4, #0
 6382 0016 00F0CA80 		beq	.L392
  85:lvgl/src/lv_widgets/lv_label.c **** 
 6383              		.loc 1 85 5 is_stmt 1 view .LVU2032
  85:lvgl/src/lv_widgets/lv_label.c **** 
 6384              		.loc 1 85 24 is_stmt 0 view .LVU2033
 6385 001a 674B     		ldr	r3, .L417
 6386 001c 1B68     		ldr	r3, [r3]
  85:lvgl/src/lv_widgets/lv_label.c **** 
 6387              		.loc 1 85 7 view .LVU2034
 6388 001e 002B     		cmp	r3, #0
 6389 0020 6BD0     		beq	.L411
 6390              	.L396:
  88:lvgl/src/lv_widgets/lv_label.c **** 
 6391              		.loc 1 88 5 is_stmt 1 view .LVU2035
 6392 0022 1421     		movs	r1, #20
 6393 0024 2046     		mov	r0, r4
 6394 0026 FFF7FEFF 		bl	lv_obj_allocate_ext_attr
ARM GAS  D:\Temp\cclLOIfg.s 			page 186


 6395              	.LVL714:
  90:lvgl/src/lv_widgets/lv_label.c ****     LV_ASSERT_MEM(ext);
 6396              		.loc 1 90 5 view .LVU2036
  90:lvgl/src/lv_widgets/lv_label.c ****     LV_ASSERT_MEM(ext);
 6397              		.loc 1 90 28 is_stmt 0 view .LVU2037
 6398 002a 2046     		mov	r0, r4
 6399 002c FFF7FEFF 		bl	lv_obj_get_ext_attr
 6400              	.LVL715:
 6401 0030 0546     		mov	r5, r0
 6402              	.LVL716:
  91:lvgl/src/lv_widgets/lv_label.c ****     if(ext == NULL) {
 6403              		.loc 1 91 5 is_stmt 1 view .LVU2038
  91:lvgl/src/lv_widgets/lv_label.c ****     if(ext == NULL) {
 6404              		.loc 1 91 5 view .LVU2039
 6405 0032 FFF7FEFF 		bl	lv_debug_check_null
 6406              	.LVL717:
  91:lvgl/src/lv_widgets/lv_label.c ****     if(ext == NULL) {
 6407              		.loc 1 91 5 is_stmt 0 view .LVU2040
 6408 0036 0028     		cmp	r0, #0
 6409 0038 65D0     		beq	.L412
  91:lvgl/src/lv_widgets/lv_label.c ****     if(ext == NULL) {
 6410              		.loc 1 91 23 is_stmt 1 discriminator 2 view .LVU2041
  92:lvgl/src/lv_widgets/lv_label.c ****         lv_obj_del(new_label);
 6411              		.loc 1 92 5 discriminator 2 view .LVU2042
  92:lvgl/src/lv_widgets/lv_label.c ****         lv_obj_del(new_label);
 6412              		.loc 1 92 7 is_stmt 0 discriminator 2 view .LVU2043
 6413 003a 002D     		cmp	r5, #0
 6414 003c 69D0     		beq	.L413
  97:lvgl/src/lv_widgets/lv_label.c ****     ext->static_txt = 0;
 6415              		.loc 1 97 5 is_stmt 1 view .LVU2044
  97:lvgl/src/lv_widgets/lv_label.c ****     ext->static_txt = 0;
 6416              		.loc 1 97 21 is_stmt 0 view .LVU2045
 6417 003e 0023     		movs	r3, #0
 6418 0040 2B60     		str	r3, [r5]
  98:lvgl/src/lv_widgets/lv_label.c ****     ext->recolor    = 0;
 6419              		.loc 1 98 5 is_stmt 1 view .LVU2046
  98:lvgl/src/lv_widgets/lv_label.c ****     ext->recolor    = 0;
 6420              		.loc 1 98 21 is_stmt 0 view .LVU2047
 6421 0042 AA7C     		ldrb	r2, [r5, #18]	@ zero_extendqisi2
  99:lvgl/src/lv_widgets/lv_label.c ****     ext->align      = LV_LABEL_ALIGN_AUTO;
 6422              		.loc 1 99 5 is_stmt 1 view .LVU2048
 100:lvgl/src/lv_widgets/lv_label.c ****     ext->dot_end    = LV_LABEL_DOT_END_INV;
 6423              		.loc 1 100 5 view .LVU2049
 100:lvgl/src/lv_widgets/lv_label.c ****     ext->dot_end    = LV_LABEL_DOT_END_INV;
 6424              		.loc 1 100 21 is_stmt 0 view .LVU2050
 6425 0044 02F0B702 		and	r2, r2, #183
 101:lvgl/src/lv_widgets/lv_label.c ****     ext->long_mode  = LV_LABEL_LONG_EXPAND;
 6426              		.loc 1 101 5 is_stmt 1 view .LVU2051
 101:lvgl/src/lv_widgets/lv_label.c ****     ext->long_mode  = LV_LABEL_LONG_EXPAND;
 6427              		.loc 1 101 21 is_stmt 0 view .LVU2052
 6428 0048 4FF6FF71 		movw	r1, #65535
 6429 004c A960     		str	r1, [r5, #8]
 102:lvgl/src/lv_widgets/lv_label.c **** #if LV_USE_ANIMATION
 6430              		.loc 1 102 5 is_stmt 1 view .LVU2053
 102:lvgl/src/lv_widgets/lv_label.c **** #if LV_USE_ANIMATION
 6431              		.loc 1 102 21 is_stmt 0 view .LVU2054
 6432 004e 42F03002 		orr	r2, r2, #48
ARM GAS  D:\Temp\cclLOIfg.s 			page 187


 6433 0052 63F30202 		bfi	r2, r3, #0, #3
 6434 0056 AA74     		strb	r2, [r5, #18]
 104:lvgl/src/lv_widgets/lv_label.c **** #endif
 6435              		.loc 1 104 5 is_stmt 1 view .LVU2055
 104:lvgl/src/lv_widgets/lv_label.c **** #endif
 6436              		.loc 1 104 21 is_stmt 0 view .LVU2056
 6437 0058 1922     		movs	r2, #25
 6438 005a AA81     		strh	r2, [r5, #12]	@ movhi
 106:lvgl/src/lv_widgets/lv_label.c ****     ext->offset.y = 0;
 6439              		.loc 1 106 5 is_stmt 1 view .LVU2057
 106:lvgl/src/lv_widgets/lv_label.c ****     ext->offset.y = 0;
 6440              		.loc 1 106 19 is_stmt 0 view .LVU2058
 6441 005c EB81     		strh	r3, [r5, #14]	@ movhi
 107:lvgl/src/lv_widgets/lv_label.c **** 
 6442              		.loc 1 107 5 is_stmt 1 view .LVU2059
 107:lvgl/src/lv_widgets/lv_label.c **** 
 6443              		.loc 1 107 19 is_stmt 0 view .LVU2060
 6444 005e 2B82     		strh	r3, [r5, #16]	@ movhi
 119:lvgl/src/lv_widgets/lv_label.c ****     ext->dot_tmp_alloc = 0;
 6445              		.loc 1 119 5 is_stmt 1 view .LVU2061
 119:lvgl/src/lv_widgets/lv_label.c ****     ext->dot_tmp_alloc = 0;
 6446              		.loc 1 119 24 is_stmt 0 view .LVU2062
 6447 0060 6B60     		str	r3, [r5, #4]
 120:lvgl/src/lv_widgets/lv_label.c **** 
 6448              		.loc 1 120 5 is_stmt 1 view .LVU2063
 120:lvgl/src/lv_widgets/lv_label.c **** 
 6449              		.loc 1 120 24 is_stmt 0 view .LVU2064
 6450 0062 EA7C     		ldrb	r2, [r5, #19]	@ zero_extendqisi2
 6451 0064 63F30002 		bfi	r2, r3, #0, #1
 6452 0068 EA74     		strb	r2, [r5, #19]
 122:lvgl/src/lv_widgets/lv_label.c ****     lv_obj_set_signal_cb(new_label, lv_label_signal);
 6453              		.loc 1 122 5 is_stmt 1 view .LVU2065
 6454 006a 5449     		ldr	r1, .L417+4
 6455 006c 2046     		mov	r0, r4
 6456 006e FFF7FEFF 		bl	lv_obj_set_design_cb
 6457              	.LVL718:
 123:lvgl/src/lv_widgets/lv_label.c **** 
 6458              		.loc 1 123 5 view .LVU2066
 6459 0072 5349     		ldr	r1, .L417+8
 6460 0074 2046     		mov	r0, r4
 6461 0076 FFF7FEFF 		bl	lv_obj_set_signal_cb
 6462              	.LVL719:
 126:lvgl/src/lv_widgets/lv_label.c ****         lv_theme_apply(new_label, LV_THEME_LABEL);
 6463              		.loc 1 126 5 view .LVU2067
 126:lvgl/src/lv_widgets/lv_label.c ****         lv_theme_apply(new_label, LV_THEME_LABEL);
 6464              		.loc 1 126 7 is_stmt 0 view .LVU2068
 6465 007a 002F     		cmp	r7, #0
 6466 007c 4ED0     		beq	.L414
 6467              	.LBB389:
 134:lvgl/src/lv_widgets/lv_label.c ****         lv_label_set_long_mode(new_label, lv_label_get_long_mode(copy));
 6468              		.loc 1 134 9 is_stmt 1 view .LVU2069
 134:lvgl/src/lv_widgets/lv_label.c ****         lv_label_set_long_mode(new_label, lv_label_get_long_mode(copy));
 6469              		.loc 1 134 37 is_stmt 0 view .LVU2070
 6470 007e 3846     		mov	r0, r7
 6471 0080 FFF7FEFF 		bl	lv_obj_get_ext_attr
 6472              	.LVL720:
 6473 0084 0646     		mov	r6, r0
ARM GAS  D:\Temp\cclLOIfg.s 			page 188


 6474              	.LVL721:
 135:lvgl/src/lv_widgets/lv_label.c ****         lv_label_set_recolor(new_label, lv_label_get_recolor(copy));
 6475              		.loc 1 135 9 is_stmt 1 view .LVU2071
 6476 0086 3846     		mov	r0, r7
 6477              	.LVL722:
 135:lvgl/src/lv_widgets/lv_label.c ****         lv_label_set_recolor(new_label, lv_label_get_recolor(copy));
 6478              		.loc 1 135 9 is_stmt 0 view .LVU2072
 6479 0088 FFF7FEFF 		bl	lv_label_get_long_mode
 6480              	.LVL723:
 6481 008c 0146     		mov	r1, r0
 6482 008e 2046     		mov	r0, r4
 6483 0090 FFF7FEFF 		bl	lv_label_set_long_mode
 6484              	.LVL724:
 136:lvgl/src/lv_widgets/lv_label.c ****         lv_label_set_align(new_label, lv_label_get_align(copy));
 6485              		.loc 1 136 9 is_stmt 1 view .LVU2073
 6486 0094 3846     		mov	r0, r7
 6487 0096 FFF7FEFF 		bl	lv_label_get_recolor
 6488              	.LVL725:
 6489 009a 0146     		mov	r1, r0
 6490 009c 2046     		mov	r0, r4
 6491 009e FFF7FEFF 		bl	lv_label_set_recolor
 6492              	.LVL726:
 137:lvgl/src/lv_widgets/lv_label.c ****         if(copy_ext->static_txt == 0)
 6493              		.loc 1 137 9 view .LVU2074
 6494 00a2 3846     		mov	r0, r7
 6495 00a4 FFF7FEFF 		bl	lv_label_get_align
 6496              	.LVL727:
 6497 00a8 0146     		mov	r1, r0
 6498 00aa 2046     		mov	r0, r4
 6499 00ac FFF7FEFF 		bl	lv_label_set_align
 6500              	.LVL728:
 138:lvgl/src/lv_widgets/lv_label.c ****             lv_label_set_text(new_label, lv_label_get_text(copy));
 6501              		.loc 1 138 9 view .LVU2075
 138:lvgl/src/lv_widgets/lv_label.c ****             lv_label_set_text(new_label, lv_label_get_text(copy));
 6502              		.loc 1 138 33 is_stmt 0 view .LVU2076
 6503 00b0 B37C     		ldrb	r3, [r6, #18]	@ zero_extendqisi2
 138:lvgl/src/lv_widgets/lv_label.c ****             lv_label_set_text(new_label, lv_label_get_text(copy));
 6504              		.loc 1 138 11 view .LVU2077
 6505 00b2 13F0080F 		tst	r3, #8
 6506 00b6 42D1     		bne	.L401
 139:lvgl/src/lv_widgets/lv_label.c ****         else
 6507              		.loc 1 139 13 is_stmt 1 view .LVU2078
 139:lvgl/src/lv_widgets/lv_label.c ****         else
 6508              		.loc 1 139 42 is_stmt 0 view .LVU2079
 6509 00b8 3846     		mov	r0, r7
 6510 00ba FFF7FEFF 		bl	lv_label_get_text
 6511              	.LVL729:
 139:lvgl/src/lv_widgets/lv_label.c ****         else
 6512              		.loc 1 139 13 view .LVU2080
 6513 00be 0146     		mov	r1, r0
 6514 00c0 2046     		mov	r0, r4
 6515 00c2 FFF7FEFF 		bl	lv_label_set_text
 6516              	.LVL730:
 6517              	.L402:
 144:lvgl/src/lv_widgets/lv_label.c ****             ext->text = lv_mem_realloc(ext->text, _lv_mem_get_size(copy_ext->text));
 6518              		.loc 1 144 9 is_stmt 1 view .LVU2081
 144:lvgl/src/lv_widgets/lv_label.c ****             ext->text = lv_mem_realloc(ext->text, _lv_mem_get_size(copy_ext->text));
ARM GAS  D:\Temp\cclLOIfg.s 			page 189


 6519              		.loc 1 144 32 is_stmt 0 view .LVU2082
 6520 00c6 B37C     		ldrb	r3, [r6, #18]	@ zero_extendqisi2
 6521 00c8 03F00703 		and	r3, r3, #7
 144:lvgl/src/lv_widgets/lv_label.c ****             ext->text = lv_mem_realloc(ext->text, _lv_mem_get_size(copy_ext->text));
 6522              		.loc 1 144 11 view .LVU2083
 6523 00cc 022B     		cmp	r3, #2
 6524 00ce 3ED0     		beq	.L415
 6525              	.LVL731:
 6526              	.L403:
 151:lvgl/src/lv_widgets/lv_label.c ****             uint32_t len = (uint32_t)strlen(copy_ext->dot.tmp_ptr);
 6527              		.loc 1 151 9 is_stmt 1 view .LVU2084
 151:lvgl/src/lv_widgets/lv_label.c ****             uint32_t len = (uint32_t)strlen(copy_ext->dot.tmp_ptr);
 6528              		.loc 1 151 12 is_stmt 0 view .LVU2085
 6529 00d0 F37C     		ldrb	r3, [r6, #19]	@ zero_extendqisi2
 151:lvgl/src/lv_widgets/lv_label.c ****             uint32_t len = (uint32_t)strlen(copy_ext->dot.tmp_ptr);
 6530              		.loc 1 151 11 view .LVU2086
 6531 00d2 13F0010F 		tst	r3, #1
 6532 00d6 59D0     		beq	.L406
 151:lvgl/src/lv_widgets/lv_label.c ****             uint32_t len = (uint32_t)strlen(copy_ext->dot.tmp_ptr);
 6533              		.loc 1 151 52 discriminator 1 view .LVU2087
 6534 00d8 7068     		ldr	r0, [r6, #4]
 151:lvgl/src/lv_widgets/lv_label.c ****             uint32_t len = (uint32_t)strlen(copy_ext->dot.tmp_ptr);
 6535              		.loc 1 151 36 discriminator 1 view .LVU2088
 6536 00da 0028     		cmp	r0, #0
 6537 00dc 56D0     		beq	.L406
 6538              	.LBB390:
 152:lvgl/src/lv_widgets/lv_label.c ****             lv_label_set_dot_tmp(new_label, ext->dot.tmp_ptr, len);
 6539              		.loc 1 152 13 is_stmt 1 view .LVU2089
 152:lvgl/src/lv_widgets/lv_label.c ****             lv_label_set_dot_tmp(new_label, ext->dot.tmp_ptr, len);
 6540              		.loc 1 152 38 is_stmt 0 view .LVU2090
 6541 00de FFF7FEFF 		bl	strlen
 6542              	.LVL732:
 153:lvgl/src/lv_widgets/lv_label.c ****         }
 6543              		.loc 1 153 13 is_stmt 1 view .LVU2091
 6544 00e2 0246     		mov	r2, r0
 6545 00e4 6968     		ldr	r1, [r5, #4]
 6546 00e6 2046     		mov	r0, r4
 6547              	.LVL733:
 153:lvgl/src/lv_widgets/lv_label.c ****         }
 6548              		.loc 1 153 13 is_stmt 0 view .LVU2092
 6549 00e8 FFF7FEFF 		bl	lv_label_set_dot_tmp
 6550              	.LVL734:
 153:lvgl/src/lv_widgets/lv_label.c ****         }
 6551              		.loc 1 153 13 view .LVU2093
 6552              	.LBE390:
 151:lvgl/src/lv_widgets/lv_label.c ****             uint32_t len = (uint32_t)strlen(copy_ext->dot.tmp_ptr);
 6553              		.loc 1 151 62 view .LVU2094
 6554 00ec 53E0     		b	.L407
 6555              	.LVL735:
 6556              	.L410:
 151:lvgl/src/lv_widgets/lv_label.c ****             uint32_t len = (uint32_t)strlen(copy_ext->dot.tmp_ptr);
 6557              		.loc 1 151 62 view .LVU2095
 6558              	.LBE389:
  82:lvgl/src/lv_widgets/lv_label.c ****     if(new_label == NULL) return NULL;
 6559              		.loc 1 82 5 is_stmt 1 discriminator 1 view .LVU2096
  82:lvgl/src/lv_widgets/lv_label.c ****     if(new_label == NULL) return NULL;
 6560              		.loc 1 82 5 discriminator 1 view .LVU2097
ARM GAS  D:\Temp\cclLOIfg.s 			page 190


 6561 00ee 2246     		mov	r2, r4
 6562 00f0 0023     		movs	r3, #0
 6563 00f2 3448     		ldr	r0, .L417+12
 6564 00f4 FFF7FEFF 		bl	lv_debug_log_error
 6565              	.LVL736:
 6566              	.L394:
  82:lvgl/src/lv_widgets/lv_label.c ****     if(new_label == NULL) return NULL;
 6567              		.loc 1 82 5 discriminator 1 view .LVU2098
  82:lvgl/src/lv_widgets/lv_label.c ****     if(new_label == NULL) return NULL;
 6568              		.loc 1 82 5 discriminator 1 view .LVU2099
 6569 00f8 FEE7     		b	.L394
 6570              	.L411:
  85:lvgl/src/lv_widgets/lv_label.c **** 
 6571              		.loc 1 85 33 discriminator 1 view .LVU2100
  85:lvgl/src/lv_widgets/lv_label.c **** 
 6572              		.loc 1 85 51 is_stmt 0 discriminator 1 view .LVU2101
 6573 00fa 2046     		mov	r0, r4
 6574 00fc FFF7FEFF 		bl	lv_obj_get_signal_cb
 6575              	.LVL737:
  85:lvgl/src/lv_widgets/lv_label.c **** 
 6576              		.loc 1 85 49 discriminator 1 view .LVU2102
 6577 0100 2D4B     		ldr	r3, .L417
 6578 0102 1860     		str	r0, [r3]
 6579 0104 8DE7     		b	.L396
 6580              	.LVL738:
 6581              	.L412:
  91:lvgl/src/lv_widgets/lv_label.c ****     if(ext == NULL) {
 6582              		.loc 1 91 5 is_stmt 1 discriminator 1 view .LVU2103
  91:lvgl/src/lv_widgets/lv_label.c ****     if(ext == NULL) {
 6583              		.loc 1 91 5 discriminator 1 view .LVU2104
 6584 0106 2A46     		mov	r2, r5
 6585 0108 0023     		movs	r3, #0
 6586 010a 2E48     		ldr	r0, .L417+12
 6587 010c FFF7FEFF 		bl	lv_debug_log_error
 6588              	.LVL739:
 6589              	.L398:
  91:lvgl/src/lv_widgets/lv_label.c ****     if(ext == NULL) {
 6590              		.loc 1 91 5 discriminator 2 view .LVU2105
  91:lvgl/src/lv_widgets/lv_label.c ****     if(ext == NULL) {
 6591              		.loc 1 91 5 discriminator 2 view .LVU2106
 6592 0110 FEE7     		b	.L398
 6593              	.L413:
  93:lvgl/src/lv_widgets/lv_label.c ****         return NULL;
 6594              		.loc 1 93 9 view .LVU2107
 6595 0112 2046     		mov	r0, r4
 6596 0114 FFF7FEFF 		bl	lv_obj_del
 6597              	.LVL740:
  94:lvgl/src/lv_widgets/lv_label.c ****     }
 6598              		.loc 1 94 9 view .LVU2108
  94:lvgl/src/lv_widgets/lv_label.c ****     }
 6599              		.loc 1 94 16 is_stmt 0 view .LVU2109
 6600 0118 0024     		movs	r4, #0
 6601              	.LVL741:
  94:lvgl/src/lv_widgets/lv_label.c ****     }
 6602              		.loc 1 94 16 view .LVU2110
 6603 011a 48E0     		b	.L392
 6604              	.LVL742:
ARM GAS  D:\Temp\cclLOIfg.s 			page 191


 6605              	.L414:
 127:lvgl/src/lv_widgets/lv_label.c ****         lv_obj_set_click(new_label, false);
 6606              		.loc 1 127 9 is_stmt 1 view .LVU2111
 6607 011c 1221     		movs	r1, #18
 6608 011e 2046     		mov	r0, r4
 6609 0120 FFF7FEFF 		bl	lv_theme_apply
 6610              	.LVL743:
 128:lvgl/src/lv_widgets/lv_label.c ****         lv_label_set_long_mode(new_label, LV_LABEL_LONG_EXPAND);
 6611              		.loc 1 128 9 view .LVU2112
 6612 0124 0021     		movs	r1, #0
 6613 0126 2046     		mov	r0, r4
 6614 0128 FFF7FEFF 		bl	lv_obj_set_click
 6615              	.LVL744:
 129:lvgl/src/lv_widgets/lv_label.c ****         lv_label_set_text(new_label, "Text");
 6616              		.loc 1 129 9 view .LVU2113
 6617 012c 0021     		movs	r1, #0
 6618 012e 2046     		mov	r0, r4
 6619 0130 FFF7FEFF 		bl	lv_label_set_long_mode
 6620              	.LVL745:
 130:lvgl/src/lv_widgets/lv_label.c ****     }
 6621              		.loc 1 130 9 view .LVU2114
 6622 0134 2449     		ldr	r1, .L417+16
 6623 0136 2046     		mov	r0, r4
 6624 0138 FFF7FEFF 		bl	lv_label_set_text
 6625              	.LVL746:
 6626 013c 37E0     		b	.L392
 6627              	.LVL747:
 6628              	.L401:
 6629              	.LBB391:
 141:lvgl/src/lv_widgets/lv_label.c **** 
 6630              		.loc 1 141 13 view .LVU2115
 141:lvgl/src/lv_widgets/lv_label.c **** 
 6631              		.loc 1 141 49 is_stmt 0 view .LVU2116
 6632 013e 3846     		mov	r0, r7
 6633 0140 FFF7FEFF 		bl	lv_label_get_text
 6634              	.LVL748:
 141:lvgl/src/lv_widgets/lv_label.c **** 
 6635              		.loc 1 141 13 view .LVU2117
 6636 0144 0146     		mov	r1, r0
 6637 0146 2046     		mov	r0, r4
 6638 0148 FFF7FEFF 		bl	lv_label_set_text_static
 6639              	.LVL749:
 6640 014c BBE7     		b	.L402
 6641              	.L415:
 145:lvgl/src/lv_widgets/lv_label.c ****             LV_ASSERT_MEM(ext->text);
 6642              		.loc 1 145 13 is_stmt 1 view .LVU2118
 145:lvgl/src/lv_widgets/lv_label.c ****             LV_ASSERT_MEM(ext->text);
 6643              		.loc 1 145 43 is_stmt 0 view .LVU2119
 6644 014e 2F68     		ldr	r7, [r5]
 6645              	.LVL750:
 145:lvgl/src/lv_widgets/lv_label.c ****             LV_ASSERT_MEM(ext->text);
 6646              		.loc 1 145 51 view .LVU2120
 6647 0150 3068     		ldr	r0, [r6]
 6648 0152 FFF7FEFF 		bl	_lv_mem_get_size
 6649              	.LVL751:
 145:lvgl/src/lv_widgets/lv_label.c ****             LV_ASSERT_MEM(ext->text);
 6650              		.loc 1 145 25 view .LVU2121
ARM GAS  D:\Temp\cclLOIfg.s 			page 192


 6651 0156 0146     		mov	r1, r0
 6652 0158 3846     		mov	r0, r7
 6653 015a FFF7FEFF 		bl	lv_mem_realloc
 6654              	.LVL752:
 145:lvgl/src/lv_widgets/lv_label.c ****             LV_ASSERT_MEM(ext->text);
 6655              		.loc 1 145 23 view .LVU2122
 6656 015e 2860     		str	r0, [r5]
 146:lvgl/src/lv_widgets/lv_label.c ****             if(ext->text == NULL) return NULL;
 6657              		.loc 1 146 13 is_stmt 1 view .LVU2123
 146:lvgl/src/lv_widgets/lv_label.c ****             if(ext->text == NULL) return NULL;
 6658              		.loc 1 146 13 view .LVU2124
 6659 0160 FFF7FEFF 		bl	lv_debug_check_null
 6660              	.LVL753:
 6661 0164 60B1     		cbz	r0, .L416
 146:lvgl/src/lv_widgets/lv_label.c ****             if(ext->text == NULL) return NULL;
 6662              		.loc 1 146 37 discriminator 2 view .LVU2125
 147:lvgl/src/lv_widgets/lv_label.c ****             _lv_memcpy(ext->text, copy_ext->text, _lv_mem_get_size(copy_ext->text));
 6663              		.loc 1 147 13 discriminator 2 view .LVU2126
 147:lvgl/src/lv_widgets/lv_label.c ****             _lv_memcpy(ext->text, copy_ext->text, _lv_mem_get_size(copy_ext->text));
 6664              		.loc 1 147 19 is_stmt 0 discriminator 2 view .LVU2127
 6665 0166 2F68     		ldr	r7, [r5]
 147:lvgl/src/lv_widgets/lv_label.c ****             _lv_memcpy(ext->text, copy_ext->text, _lv_mem_get_size(copy_ext->text));
 6666              		.loc 1 147 15 discriminator 2 view .LVU2128
 6667 0168 27B3     		cbz	r7, .L408
 148:lvgl/src/lv_widgets/lv_label.c ****         }
 6668              		.loc 1 148 13 is_stmt 1 view .LVU2129
 148:lvgl/src/lv_widgets/lv_label.c ****         }
 6669              		.loc 1 148 43 is_stmt 0 view .LVU2130
 6670 016a D6F80080 		ldr	r8, [r6]
 148:lvgl/src/lv_widgets/lv_label.c ****         }
 6671              		.loc 1 148 51 view .LVU2131
 6672 016e 4046     		mov	r0, r8
 6673 0170 FFF7FEFF 		bl	_lv_mem_get_size
 6674              	.LVL754:
 148:lvgl/src/lv_widgets/lv_label.c ****         }
 6675              		.loc 1 148 13 view .LVU2132
 6676 0174 0246     		mov	r2, r0
 6677 0176 4146     		mov	r1, r8
 6678 0178 3846     		mov	r0, r7
 6679 017a FFF7FEFF 		bl	_lv_memcpy
 6680              	.LVL755:
 6681 017e A7E7     		b	.L403
 6682              	.L416:
 146:lvgl/src/lv_widgets/lv_label.c ****             if(ext->text == NULL) return NULL;
 6683              		.loc 1 146 13 is_stmt 1 discriminator 1 view .LVU2133
 146:lvgl/src/lv_widgets/lv_label.c ****             if(ext->text == NULL) return NULL;
 6684              		.loc 1 146 13 discriminator 1 view .LVU2134
 6685 0180 2A68     		ldr	r2, [r5]
 6686 0182 0023     		movs	r3, #0
 6687 0184 0F48     		ldr	r0, .L417+12
 6688 0186 FFF7FEFF 		bl	lv_debug_log_error
 6689              	.LVL756:
 6690              	.L405:
 146:lvgl/src/lv_widgets/lv_label.c ****             if(ext->text == NULL) return NULL;
 6691              		.loc 1 146 13 discriminator 3 view .LVU2135
 146:lvgl/src/lv_widgets/lv_label.c ****             if(ext->text == NULL) return NULL;
 6692              		.loc 1 146 13 discriminator 3 view .LVU2136
ARM GAS  D:\Temp\cclLOIfg.s 			page 193


 6693 018a FEE7     		b	.L405
 6694              	.L406:
 156:lvgl/src/lv_widgets/lv_label.c ****         }
 6695              		.loc 1 156 13 view .LVU2137
 6696 018c 0422     		movs	r2, #4
 6697 018e B118     		adds	r1, r6, r2
 6698 0190 A818     		adds	r0, r5, r2
 6699 0192 FFF7FEFF 		bl	_lv_memcpy
 6700              	.LVL757:
 6701              	.L407:
 158:lvgl/src/lv_widgets/lv_label.c ****         ext->dot_end       = copy_ext->dot_end;
 6702              		.loc 1 158 9 view .LVU2138
 158:lvgl/src/lv_widgets/lv_label.c ****         ext->dot_end       = copy_ext->dot_end;
 6703              		.loc 1 158 38 is_stmt 0 view .LVU2139
 6704 0196 F27C     		ldrb	r2, [r6, #19]	@ zero_extendqisi2
 158:lvgl/src/lv_widgets/lv_label.c ****         ext->dot_end       = copy_ext->dot_end;
 6705              		.loc 1 158 28 view .LVU2140
 6706 0198 EB7C     		ldrb	r3, [r5, #19]	@ zero_extendqisi2
 6707 019a 62F30003 		bfi	r3, r2, #0, #1
 6708 019e EB74     		strb	r3, [r5, #19]
 159:lvgl/src/lv_widgets/lv_label.c **** 
 6709              		.loc 1 159 9 is_stmt 1 view .LVU2141
 159:lvgl/src/lv_widgets/lv_label.c **** 
 6710              		.loc 1 159 38 is_stmt 0 view .LVU2142
 6711 01a0 B368     		ldr	r3, [r6, #8]
 159:lvgl/src/lv_widgets/lv_label.c **** 
 6712              		.loc 1 159 28 view .LVU2143
 6713 01a2 AB60     		str	r3, [r5, #8]
 162:lvgl/src/lv_widgets/lv_label.c ****     }
 6714              		.loc 1 162 9 is_stmt 1 view .LVU2144
 6715 01a4 FF22     		movs	r2, #255
 6716 01a6 1146     		mov	r1, r2
 6717 01a8 2046     		mov	r0, r4
 6718 01aa FFF7FEFF 		bl	lv_obj_refresh_style
 6719              	.LVL758:
 6720              	.L392:
 162:lvgl/src/lv_widgets/lv_label.c ****     }
 6721              		.loc 1 162 9 is_stmt 0 view .LVU2145
 6722              	.LBE391:
 168:lvgl/src/lv_widgets/lv_label.c **** 
 6723              		.loc 1 168 1 view .LVU2146
 6724 01ae 2046     		mov	r0, r4
 6725 01b0 BDE8F081 		pop	{r4, r5, r6, r7, r8, pc}
 6726              	.LVL759:
 6727              	.L408:
 6728              	.LBB392:
 147:lvgl/src/lv_widgets/lv_label.c ****             _lv_memcpy(ext->text, copy_ext->text, _lv_mem_get_size(copy_ext->text));
 6729              		.loc 1 147 42 view .LVU2147
 6730 01b4 0024     		movs	r4, #0
 6731              	.LVL760:
 147:lvgl/src/lv_widgets/lv_label.c ****             _lv_memcpy(ext->text, copy_ext->text, _lv_mem_get_size(copy_ext->text));
 6732              		.loc 1 147 42 view .LVU2148
 6733 01b6 FAE7     		b	.L392
 6734              	.L418:
 6735              		.align	2
 6736              	.L417:
 6737 01b8 00000000 		.word	.LANCHOR0
ARM GAS  D:\Temp\cclLOIfg.s 			page 194


 6738 01bc 00000000 		.word	lv_label_design
 6739 01c0 00000000 		.word	lv_label_signal
 6740 01c4 00000000 		.word	.LC2
 6741 01c8 00000000 		.word	.LC3
 6742              	.LBE392:
 6743              		.cfi_endproc
 6744              	.LFE458:
 6746              		.section	.text.lv_label_set_anim_speed,"ax",%progbits
 6747              		.align	1
 6748              		.global	lv_label_set_anim_speed
 6749              		.syntax unified
 6750              		.thumb
 6751              		.thumb_func
 6752              		.fpu fpv4-sp-d16
 6754              	lv_label_set_anim_speed:
 6755              	.LVL761:
 6756              	.LFB465:
 381:lvgl/src/lv_widgets/lv_label.c ****     LV_ASSERT_OBJ(label, LV_OBJX_NAME);
 6757              		.loc 1 381 1 is_stmt 1 view -0
 6758              		.cfi_startproc
 6759              		@ args = 0, pretend = 0, frame = 0
 6760              		@ frame_needed = 0, uses_anonymous_args = 0
 381:lvgl/src/lv_widgets/lv_label.c ****     LV_ASSERT_OBJ(label, LV_OBJX_NAME);
 6761              		.loc 1 381 1 is_stmt 0 view .LVU2150
 6762 0000 38B5     		push	{r3, r4, r5, lr}
 6763              	.LCFI52:
 6764              		.cfi_def_cfa_offset 16
 6765              		.cfi_offset 3, -16
 6766              		.cfi_offset 4, -12
 6767              		.cfi_offset 5, -8
 6768              		.cfi_offset 14, -4
 6769 0002 0446     		mov	r4, r0
 6770 0004 0D46     		mov	r5, r1
 382:lvgl/src/lv_widgets/lv_label.c **** 
 6771              		.loc 1 382 5 is_stmt 1 view .LVU2151
 382:lvgl/src/lv_widgets/lv_label.c **** 
 6772              		.loc 1 382 5 view .LVU2152
 6773 0006 FFF7FEFF 		bl	lv_debug_check_null
 6774              	.LVL762:
 382:lvgl/src/lv_widgets/lv_label.c **** 
 6775              		.loc 1 382 5 is_stmt 0 view .LVU2153
 6776 000a 28B9     		cbnz	r0, .L420
 382:lvgl/src/lv_widgets/lv_label.c **** 
 6777              		.loc 1 382 5 is_stmt 1 discriminator 1 view .LVU2154
 382:lvgl/src/lv_widgets/lv_label.c **** 
 6778              		.loc 1 382 5 discriminator 1 view .LVU2155
 6779 000c 2246     		mov	r2, r4
 6780 000e 0023     		movs	r3, #0
 6781 0010 0B48     		ldr	r0, .L425
 6782 0012 FFF7FEFF 		bl	lv_debug_log_error
 6783              	.LVL763:
 6784              	.L421:
 382:lvgl/src/lv_widgets/lv_label.c **** 
 6785              		.loc 1 382 5 discriminator 1 view .LVU2156
 382:lvgl/src/lv_widgets/lv_label.c **** 
 6786              		.loc 1 382 5 discriminator 1 view .LVU2157
 6787 0016 FEE7     		b	.L421
ARM GAS  D:\Temp\cclLOIfg.s 			page 195


 6788              	.L420:
 382:lvgl/src/lv_widgets/lv_label.c **** 
 6789              		.loc 1 382 39 discriminator 2 view .LVU2158
 385:lvgl/src/lv_widgets/lv_label.c ****     if(ext->anim_speed == anim_speed) return;
 6790              		.loc 1 385 5 discriminator 2 view .LVU2159
 385:lvgl/src/lv_widgets/lv_label.c ****     if(ext->anim_speed == anim_speed) return;
 6791              		.loc 1 385 28 is_stmt 0 discriminator 2 view .LVU2160
 6792 0018 2046     		mov	r0, r4
 6793 001a FFF7FEFF 		bl	lv_obj_get_ext_attr
 6794              	.LVL764:
 386:lvgl/src/lv_widgets/lv_label.c **** 
 6795              		.loc 1 386 5 is_stmt 1 discriminator 2 view .LVU2161
 386:lvgl/src/lv_widgets/lv_label.c **** 
 6796              		.loc 1 386 11 is_stmt 0 discriminator 2 view .LVU2162
 6797 001e 8389     		ldrh	r3, [r0, #12]
 386:lvgl/src/lv_widgets/lv_label.c **** 
 6798              		.loc 1 386 7 discriminator 2 view .LVU2163
 6799 0020 AB42     		cmp	r3, r5
 6800 0022 07D0     		beq	.L419
 388:lvgl/src/lv_widgets/lv_label.c **** 
 6801              		.loc 1 388 5 is_stmt 1 view .LVU2164
 388:lvgl/src/lv_widgets/lv_label.c **** 
 6802              		.loc 1 388 21 is_stmt 0 view .LVU2165
 6803 0024 8581     		strh	r5, [r0, #12]	@ movhi
 390:lvgl/src/lv_widgets/lv_label.c ****         lv_label_refr_text(label);
 6804              		.loc 1 390 5 is_stmt 1 view .LVU2166
 390:lvgl/src/lv_widgets/lv_label.c ****         lv_label_refr_text(label);
 6805              		.loc 1 390 23 is_stmt 0 view .LVU2167
 6806 0026 837C     		ldrb	r3, [r0, #18]	@ zero_extendqisi2
 390:lvgl/src/lv_widgets/lv_label.c ****         lv_label_refr_text(label);
 6807              		.loc 1 390 46 view .LVU2168
 6808 0028 03F00703 		and	r3, r3, #7
 6809 002c 033B     		subs	r3, r3, #3
 6810 002e DBB2     		uxtb	r3, r3
 390:lvgl/src/lv_widgets/lv_label.c ****         lv_label_refr_text(label);
 6811              		.loc 1 390 7 view .LVU2169
 6812 0030 012B     		cmp	r3, #1
 6813 0032 00D9     		bls	.L424
 6814              	.LVL765:
 6815              	.L419:
 397:lvgl/src/lv_widgets/lv_label.c **** 
 6816              		.loc 1 397 1 view .LVU2170
 6817 0034 38BD     		pop	{r3, r4, r5, pc}
 6818              	.LVL766:
 6819              	.L424:
 391:lvgl/src/lv_widgets/lv_label.c ****     }
 6820              		.loc 1 391 9 is_stmt 1 view .LVU2171
 6821 0036 2046     		mov	r0, r4
 6822              	.LVL767:
 391:lvgl/src/lv_widgets/lv_label.c ****     }
 6823              		.loc 1 391 9 is_stmt 0 view .LVU2172
 6824 0038 FFF7FEFF 		bl	lv_label_refr_text
 6825              	.LVL768:
 6826 003c FAE7     		b	.L419
 6827              	.L426:
 6828 003e 00BF     		.align	2
 6829              	.L425:
ARM GAS  D:\Temp\cclLOIfg.s 			page 196


 6830 0040 00000000 		.word	.LC0
 6831              		.cfi_endproc
 6832              	.LFE465:
 6834              		.section	.text.lv_label_cut_text,"ax",%progbits
 6835              		.align	1
 6836              		.global	lv_label_cut_text
 6837              		.syntax unified
 6838              		.thumb
 6839              		.thumb_func
 6840              		.fpu fpv4-sp-d16
 6842              	lv_label_cut_text:
 6843              	.LVL769:
 6844              	.LFB480:
 971:lvgl/src/lv_widgets/lv_label.c ****     LV_ASSERT_OBJ(label, LV_OBJX_NAME);
 6845              		.loc 1 971 1 is_stmt 1 view -0
 6846              		.cfi_startproc
 6847              		@ args = 0, pretend = 0, frame = 0
 6848              		@ frame_needed = 0, uses_anonymous_args = 0
 971:lvgl/src/lv_widgets/lv_label.c ****     LV_ASSERT_OBJ(label, LV_OBJX_NAME);
 6849              		.loc 1 971 1 is_stmt 0 view .LVU2174
 6850 0000 70B5     		push	{r4, r5, r6, lr}
 6851              	.LCFI53:
 6852              		.cfi_def_cfa_offset 16
 6853              		.cfi_offset 4, -16
 6854              		.cfi_offset 5, -12
 6855              		.cfi_offset 6, -8
 6856              		.cfi_offset 14, -4
 6857 0002 0446     		mov	r4, r0
 6858 0004 0D46     		mov	r5, r1
 6859 0006 1646     		mov	r6, r2
 972:lvgl/src/lv_widgets/lv_label.c **** 
 6860              		.loc 1 972 5 is_stmt 1 view .LVU2175
 972:lvgl/src/lv_widgets/lv_label.c **** 
 6861              		.loc 1 972 5 view .LVU2176
 6862 0008 FFF7FEFF 		bl	lv_debug_check_null
 6863              	.LVL770:
 972:lvgl/src/lv_widgets/lv_label.c **** 
 6864              		.loc 1 972 5 is_stmt 0 view .LVU2177
 6865 000c 28B9     		cbnz	r0, .L428
 972:lvgl/src/lv_widgets/lv_label.c **** 
 6866              		.loc 1 972 5 is_stmt 1 discriminator 1 view .LVU2178
 972:lvgl/src/lv_widgets/lv_label.c **** 
 6867              		.loc 1 972 5 discriminator 1 view .LVU2179
 6868 000e 2246     		mov	r2, r4
 6869 0010 0023     		movs	r3, #0
 6870 0012 0D48     		ldr	r0, .L433
 6871 0014 FFF7FEFF 		bl	lv_debug_log_error
 6872              	.LVL771:
 6873              	.L429:
 972:lvgl/src/lv_widgets/lv_label.c **** 
 6874              		.loc 1 972 5 discriminator 1 view .LVU2180
 972:lvgl/src/lv_widgets/lv_label.c **** 
 6875              		.loc 1 972 5 discriminator 1 view .LVU2181
 6876 0018 FEE7     		b	.L429
 6877              	.L428:
 972:lvgl/src/lv_widgets/lv_label.c **** 
 6878              		.loc 1 972 39 discriminator 2 view .LVU2182
ARM GAS  D:\Temp\cclLOIfg.s 			page 197


 974:lvgl/src/lv_widgets/lv_label.c **** 
 6879              		.loc 1 974 5 discriminator 2 view .LVU2183
 974:lvgl/src/lv_widgets/lv_label.c **** 
 6880              		.loc 1 974 28 is_stmt 0 discriminator 2 view .LVU2184
 6881 001a 2046     		mov	r0, r4
 6882 001c FFF7FEFF 		bl	lv_obj_get_ext_attr
 6883              	.LVL772:
 977:lvgl/src/lv_widgets/lv_label.c **** 
 6884              		.loc 1 977 5 is_stmt 1 discriminator 2 view .LVU2185
 977:lvgl/src/lv_widgets/lv_label.c **** 
 6885              		.loc 1 977 24 is_stmt 0 discriminator 2 view .LVU2186
 6886 0020 837C     		ldrb	r3, [r0, #18]	@ zero_extendqisi2
 977:lvgl/src/lv_widgets/lv_label.c **** 
 6887              		.loc 1 977 7 discriminator 2 view .LVU2187
 6888 0022 13F0080F 		tst	r3, #8
 6889 0026 00D0     		beq	.L432
 6890              	.LVL773:
 6891              	.L427:
 987:lvgl/src/lv_widgets/lv_label.c **** 
 6892              		.loc 1 987 1 view .LVU2188
 6893 0028 70BD     		pop	{r4, r5, r6, pc}
 6894              	.LVL774:
 6895              	.L432:
 979:lvgl/src/lv_widgets/lv_label.c **** 
 6896              		.loc 1 979 5 is_stmt 1 view .LVU2189
 6897 002a 2046     		mov	r0, r4
 6898              	.LVL775:
 979:lvgl/src/lv_widgets/lv_label.c **** 
 6899              		.loc 1 979 5 is_stmt 0 view .LVU2190
 6900 002c FFF7FEFF 		bl	lv_obj_invalidate
 6901              	.LVL776:
 981:lvgl/src/lv_widgets/lv_label.c ****     /*Delete the characters*/
 6902              		.loc 1 981 5 is_stmt 1 view .LVU2191
 981:lvgl/src/lv_widgets/lv_label.c ****     /*Delete the characters*/
 6903              		.loc 1 981 24 is_stmt 0 view .LVU2192
 6904 0030 2046     		mov	r0, r4
 6905 0032 FFF7FEFF 		bl	lv_label_get_text
 6906              	.LVL777:
 983:lvgl/src/lv_widgets/lv_label.c **** 
 6907              		.loc 1 983 5 is_stmt 1 view .LVU2193
 6908 0036 3246     		mov	r2, r6
 6909 0038 2946     		mov	r1, r5
 6910 003a FFF7FEFF 		bl	_lv_txt_cut
 6911              	.LVL778:
 986:lvgl/src/lv_widgets/lv_label.c **** }
 6912              		.loc 1 986 5 view .LVU2194
 6913 003e 2046     		mov	r0, r4
 6914 0040 FFF7FEFF 		bl	lv_label_refr_text
 6915              	.LVL779:
 6916 0044 F0E7     		b	.L427
 6917              	.L434:
 6918 0046 00BF     		.align	2
 6919              	.L433:
 6920 0048 00000000 		.word	.LC0
 6921              		.cfi_endproc
 6922              	.LFE480:
 6924              		.section	.bss.ancestor_signal,"aw",%nobits
ARM GAS  D:\Temp\cclLOIfg.s 			page 198


 6925              		.align	2
 6926              		.set	.LANCHOR0,. + 0
 6929              	ancestor_signal:
 6930 0000 00000000 		.space	4
 6931              		.section	.rodata.lv_label_create.str1.4,"aMS",%progbits,1
 6932              		.align	2
 6933              	.LC3:
 6934 0000 54657874 		.ascii	"Text\000"
 6934      00
 6935              		.section	.rodata.lv_label_set_align.str1.4,"aMS",%progbits,1
 6936              		.align	2
 6937              	.LC0:
 6938 0000 4E554C4C 		.ascii	"NULL pointer\000"
 6938      20706F69 
 6938      6E746572 
 6938      00
 6939              		.section	.rodata.lv_label_set_text.str1.4,"aMS",%progbits,1
 6940              		.align	2
 6941              	.LC2:
 6942 0000 4F757420 		.ascii	"Out of memory\000"
 6942      6F66206D 
 6942      656D6F72 
 6942      7900
 6943              		.section	.rodata.lv_label_signal.str1.4,"aMS",%progbits,1
 6944              		.align	2
 6945              	.LC1:
 6946 0000 6C765F6C 		.ascii	"lv_label\000"
 6946      6162656C 
 6946      00
 6947              		.text
 6948              	.Letext0:
 6949              		.file 7 "c:\\stm32\\gnu mcu eclipse\\arm embedded gcc\\8.2.1-1.4-20190214-0604\\arm-none-eabi\\inc
 6950              		.file 8 "c:\\stm32\\gnu mcu eclipse\\arm embedded gcc\\8.2.1-1.4-20190214-0604\\arm-none-eabi\\inc
 6951              		.file 9 "Drivers/CMSIS/Include/core_cm4.h"
 6952              		.file 10 "Drivers/CMSIS/Device/ST/STM32F4xx/Include/system_stm32f4xx.h"
 6953              		.file 11 "c:\\stm32\\gnu mcu eclipse\\arm embedded gcc\\8.2.1-1.4-20190214-0604\\lib\\gcc\\arm-non
 6954              		.file 12 "Drivers/STM32F4xx_HAL_Driver/Inc/stm32f4xx_hal.h"
 6955              		.file 13 "lvgl/lv_conf.h"
 6956              		.file 14 "c:\\stm32\\gnu mcu eclipse\\arm embedded gcc\\8.2.1-1.4-20190214-0604\\lib\\gcc\\arm-non
 6957              		.file 15 "c:\\stm32\\gnu mcu eclipse\\arm embedded gcc\\8.2.1-1.4-20190214-0604\\arm-none-eabi\\in
 6958              		.file 16 "c:\\stm32\\gnu mcu eclipse\\arm embedded gcc\\8.2.1-1.4-20190214-0604\\arm-none-eabi\\in
 6959              		.file 17 "c:\\stm32\\gnu mcu eclipse\\arm embedded gcc\\8.2.1-1.4-20190214-0604\\arm-none-eabi\\in
 6960              		.file 18 "d:\\_project\\stm32\\f407\\hack_rf_new\\lvgl\\src\\lv_misc\\lv_types.h"
 6961              		.file 19 "lvgl/src/lv_widgets/../lv_core/../lv_misc/lv_color.h"
 6962              		.file 20 "lvgl/src/lv_widgets/../lv_core/../lv_draw/lv_draw_blend.h"
 6963              		.file 21 "lvgl/src/lv_widgets/../lv_core/lv_style.h"
 6964              		.file 22 "lvgl/src/lv_widgets/../lv_core/../lv_hal/../lv_misc/lv_ll.h"
 6965              		.file 23 "lvgl/src/lv_widgets/../lv_core/lv_obj.h"
 6966              		.file 24 "lvgl/src/lv_widgets/../lv_core/../lv_hal/lv_hal_indev.h"
 6967              		.file 25 "lvgl/src/lv_widgets/../lv_core/../lv_draw/lv_draw_rect.h"
 6968              		.file 26 "d:\\_project\\stm32\\f407\\hack_rf_new\\lvgl\\src\\lv_misc\\lv_bidi.h"
 6969              		.file 27 "d:\\_project\\stm32\\f407\\hack_rf_new\\lvgl\\src\\lv_misc\\lv_txt.h"
 6970              		.file 28 "lvgl/src/lv_widgets/../lv_core/../lv_draw/lv_draw_label.h"
 6971              		.file 29 "lvgl/src/lv_widgets/lv_label.h"
 6972              		.file 30 "lvgl/src/lv_widgets/../lv_themes/lv_theme.h"
 6973              		.file 31 "c:\\stm32\\gnu mcu eclipse\\arm embedded gcc\\8.2.1-1.4-20190214-0604\\arm-none-eabi\\in
 6974              		.file 32 "lvgl/src/lv_widgets/../lv_core/../lv_misc/lv_debug.h"
ARM GAS  D:\Temp\cclLOIfg.s 			page 199


 6975              		.file 33 "<built-in>"
ARM GAS  D:\Temp\cclLOIfg.s 			page 200


DEFINED SYMBOLS
                            *ABS*:0000000000000000 lv_label.c
  D:\Temp\cclLOIfg.s:18     .text.lv_label_get_dot_tmp:0000000000000000 $t
  D:\Temp\cclLOIfg.s:25     .text.lv_label_get_dot_tmp:0000000000000000 lv_label_get_dot_tmp
  D:\Temp\cclLOIfg.s:68     .text.lv_label_dot_tmp_free:0000000000000000 $t
  D:\Temp\cclLOIfg.s:74     .text.lv_label_dot_tmp_free:0000000000000000 lv_label_dot_tmp_free
  D:\Temp\cclLOIfg.s:125    .text.lv_label_revert_dots:0000000000000000 $t
  D:\Temp\cclLOIfg.s:131    .text.lv_label_revert_dots:0000000000000000 lv_label_revert_dots
  D:\Temp\cclLOIfg.s:247    .text.lv_label_revert_dots:000000000000005c $d
  D:\Temp\cclLOIfg.s:252    .text.get_txt_coords:0000000000000000 $t
  D:\Temp\cclLOIfg.s:258    .text.get_txt_coords:0000000000000000 get_txt_coords
  D:\Temp\cclLOIfg.s:376    .text.lv_label_set_dot_tmp:0000000000000000 $t
  D:\Temp\cclLOIfg.s:382    .text.lv_label_set_dot_tmp:0000000000000000 lv_label_set_dot_tmp
  D:\Temp\cclLOIfg.s:474    .text.lv_label_set_offset_y:0000000000000000 $t
  D:\Temp\cclLOIfg.s:480    .text.lv_label_set_offset_y:0000000000000000 lv_label_set_offset_y
  D:\Temp\cclLOIfg.s:517    .text.lv_label_set_offset_x:0000000000000000 $t
  D:\Temp\cclLOIfg.s:523    .text.lv_label_set_offset_x:0000000000000000 lv_label_set_offset_x
  D:\Temp\cclLOIfg.s:560    .text.lv_label_set_align:0000000000000000 $t
  D:\Temp\cclLOIfg.s:567    .text.lv_label_set_align:0000000000000000 lv_label_set_align
  D:\Temp\cclLOIfg.s:634    .text.lv_label_set_align:0000000000000038 $d
  D:\Temp\cclLOIfg.s:639    .text.lv_label_set_text_sel_start:0000000000000000 $t
  D:\Temp\cclLOIfg.s:646    .text.lv_label_set_text_sel_start:0000000000000000 lv_label_set_text_sel_start
  D:\Temp\cclLOIfg.s:684    .text.lv_label_set_text_sel_start:0000000000000018 $d
  D:\Temp\cclLOIfg.s:689    .text.lv_label_set_text_sel_end:0000000000000000 $t
  D:\Temp\cclLOIfg.s:696    .text.lv_label_set_text_sel_end:0000000000000000 lv_label_set_text_sel_end
  D:\Temp\cclLOIfg.s:734    .text.lv_label_set_text_sel_end:0000000000000018 $d
  D:\Temp\cclLOIfg.s:739    .text.lv_label_get_text:0000000000000000 $t
  D:\Temp\cclLOIfg.s:746    .text.lv_label_get_text:0000000000000000 lv_label_get_text
  D:\Temp\cclLOIfg.s:795    .text.lv_label_get_text:0000000000000020 $d
  D:\Temp\cclLOIfg.s:800    .text.lv_label_get_long_mode:0000000000000000 $t
  D:\Temp\cclLOIfg.s:807    .text.lv_label_get_long_mode:0000000000000000 lv_label_get_long_mode
  D:\Temp\cclLOIfg.s:857    .text.lv_label_get_long_mode:0000000000000024 $d
  D:\Temp\cclLOIfg.s:862    .text.lv_label_get_align:0000000000000000 $t
  D:\Temp\cclLOIfg.s:869    .text.lv_label_get_align:0000000000000000 lv_label_get_align
  D:\Temp\cclLOIfg.s:931    .text.lv_label_get_align:000000000000002c $d
  D:\Temp\cclLOIfg.s:936    .text.lv_label_get_recolor:0000000000000000 $t
  D:\Temp\cclLOIfg.s:943    .text.lv_label_get_recolor:0000000000000000 lv_label_get_recolor
  D:\Temp\cclLOIfg.s:993    .text.lv_label_get_recolor:0000000000000024 $d
  D:\Temp\cclLOIfg.s:998    .text.lv_label_get_anim_speed:0000000000000000 $t
  D:\Temp\cclLOIfg.s:1005   .text.lv_label_get_anim_speed:0000000000000000 lv_label_get_anim_speed
  D:\Temp\cclLOIfg.s:1054   .text.lv_label_get_anim_speed:0000000000000020 $d
  D:\Temp\cclLOIfg.s:1059   .text.lv_label_get_letter_pos:0000000000000000 $t
  D:\Temp\cclLOIfg.s:1066   .text.lv_label_get_letter_pos:0000000000000000 lv_label_get_letter_pos
  D:\Temp\cclLOIfg.s:1645   .text.lv_label_get_letter_pos:0000000000000224 $d
  D:\Temp\cclLOIfg.s:1652   .text.lv_label_get_letter_on:0000000000000000 $t
  D:\Temp\cclLOIfg.s:1659   .text.lv_label_get_letter_on:0000000000000000 lv_label_get_letter_on
  D:\Temp\cclLOIfg.s:2298   .text.lv_label_get_letter_on:0000000000000250 $d
  D:\Temp\cclLOIfg.s:2306   .text.lv_label_get_text_sel_start:0000000000000000 $t
  D:\Temp\cclLOIfg.s:2313   .text.lv_label_get_text_sel_start:0000000000000000 lv_label_get_text_sel_start
  D:\Temp\cclLOIfg.s:2355   .text.lv_label_get_text_sel_start:000000000000001c $d
  D:\Temp\cclLOIfg.s:2360   .text.lv_label_get_text_sel_end:0000000000000000 $t
  D:\Temp\cclLOIfg.s:2367   .text.lv_label_get_text_sel_end:0000000000000000 lv_label_get_text_sel_end
  D:\Temp\cclLOIfg.s:2409   .text.lv_label_get_text_sel_end:000000000000001c $d
  D:\Temp\cclLOIfg.s:2414   .text.lv_label_design:0000000000000000 $t
  D:\Temp\cclLOIfg.s:2420   .text.lv_label_design:0000000000000000 lv_label_design
  D:\Temp\cclLOIfg.s:3012   .text.lv_label_is_char_under_pos:0000000000000000 $t
  D:\Temp\cclLOIfg.s:3019   .text.lv_label_is_char_under_pos:0000000000000000 lv_label_is_char_under_pos
ARM GAS  D:\Temp\cclLOIfg.s 			page 201


  D:\Temp\cclLOIfg.s:3610   .text.lv_label_is_char_under_pos:0000000000000228 $d
  D:\Temp\cclLOIfg.s:3616   .text.lv_label_get_style:0000000000000000 $t
  D:\Temp\cclLOIfg.s:3623   .text.lv_label_get_style:0000000000000000 lv_label_get_style
  D:\Temp\cclLOIfg.s:3652   .text.lv_label_refr_text:0000000000000000 $t
  D:\Temp\cclLOIfg.s:3659   .text.lv_label_refr_text:0000000000000000 lv_label_refr_text
  D:\Temp\cclLOIfg.s:4894   .text.lv_label_refr_text:00000000000003c8 $d
  D:\Temp\cclLOIfg.s:4909   .text.lv_label_refr_text:00000000000003d4 $t
  D:\Temp\cclLOIfg.s:5163   .text.lv_label_refr_text:00000000000004d8 $d
  D:\Temp\cclLOIfg.s:5172   .text.lv_label_signal:0000000000000000 $t
  D:\Temp\cclLOIfg.s:5178   .text.lv_label_signal:0000000000000000 lv_label_signal
  D:\Temp\cclLOIfg.s:5422   .text.lv_label_signal:00000000000000c0 $d
  D:\Temp\cclLOIfg.s:5428   .text.lv_label_set_text:0000000000000000 $t
  D:\Temp\cclLOIfg.s:5435   .text.lv_label_set_text:0000000000000000 lv_label_set_text
  D:\Temp\cclLOIfg.s:5648   .text.lv_label_set_text:00000000000000c8 $d
  D:\Temp\cclLOIfg.s:5655   .text.lv_label_ins_text:0000000000000000 $t
  D:\Temp\cclLOIfg.s:5662   .text.lv_label_ins_text:0000000000000000 lv_label_ins_text
  D:\Temp\cclLOIfg.s:5835   .text.lv_label_ins_text:00000000000000a8 $d
  D:\Temp\cclLOIfg.s:5842   .text.lv_label_set_text_fmt:0000000000000000 $t
  D:\Temp\cclLOIfg.s:5849   .text.lv_label_set_text_fmt:0000000000000000 lv_label_set_text_fmt
  D:\Temp\cclLOIfg.s:6007   .text.lv_label_set_text_fmt:0000000000000084 $d
  D:\Temp\cclLOIfg.s:6012   .text.lv_label_set_text_static:0000000000000000 $t
  D:\Temp\cclLOIfg.s:6019   .text.lv_label_set_text_static:0000000000000000 lv_label_set_text_static
  D:\Temp\cclLOIfg.s:6104   .text.lv_label_set_text_static:0000000000000048 $d
  D:\Temp\cclLOIfg.s:6109   .text.lv_label_set_long_mode:0000000000000000 $t
  D:\Temp\cclLOIfg.s:6116   .text.lv_label_set_long_mode:0000000000000000 lv_label_set_long_mode
  D:\Temp\cclLOIfg.s:6243   .text.lv_label_set_long_mode:000000000000008c $d
  D:\Temp\cclLOIfg.s:6252   .text.lv_label_set_recolor:0000000000000000 $t
  D:\Temp\cclLOIfg.s:6259   .text.lv_label_set_recolor:0000000000000000 lv_label_set_recolor
  D:\Temp\cclLOIfg.s:6333   .text.lv_label_set_recolor:0000000000000040 $d
  D:\Temp\cclLOIfg.s:6338   .text.lv_label_create:0000000000000000 $t
  D:\Temp\cclLOIfg.s:6345   .text.lv_label_create:0000000000000000 lv_label_create
  D:\Temp\cclLOIfg.s:6737   .text.lv_label_create:00000000000001b8 $d
  D:\Temp\cclLOIfg.s:6747   .text.lv_label_set_anim_speed:0000000000000000 $t
  D:\Temp\cclLOIfg.s:6754   .text.lv_label_set_anim_speed:0000000000000000 lv_label_set_anim_speed
  D:\Temp\cclLOIfg.s:6830   .text.lv_label_set_anim_speed:0000000000000040 $d
  D:\Temp\cclLOIfg.s:6835   .text.lv_label_cut_text:0000000000000000 $t
  D:\Temp\cclLOIfg.s:6842   .text.lv_label_cut_text:0000000000000000 lv_label_cut_text
  D:\Temp\cclLOIfg.s:6920   .text.lv_label_cut_text:0000000000000048 $d
  D:\Temp\cclLOIfg.s:6925   .bss.ancestor_signal:0000000000000000 $d
  D:\Temp\cclLOIfg.s:6929   .bss.ancestor_signal:0000000000000000 ancestor_signal
  D:\Temp\cclLOIfg.s:6932   .rodata.lv_label_create.str1.4:0000000000000000 $d
  D:\Temp\cclLOIfg.s:6936   .rodata.lv_label_set_align.str1.4:0000000000000000 $d
  D:\Temp\cclLOIfg.s:6940   .rodata.lv_label_set_text.str1.4:0000000000000000 $d
  D:\Temp\cclLOIfg.s:6944   .rodata.lv_label_signal.str1.4:0000000000000000 $d

UNDEFINED SYMBOLS
lv_obj_get_ext_attr
lv_mem_free
_lv_txt_encoded_get_byte_id
lv_obj_get_coords
_lv_obj_get_style_int
lv_mem_alloc
_lv_memcpy
lv_obj_invalidate
lv_debug_check_null
lv_debug_log_error
lv_obj_get_width
ARM GAS  D:\Temp\cclLOIfg.s 			page 202


_lv_obj_get_style_ptr
_lv_txt_get_next_line
_lv_txt_get_width
lv_font_get_glyph_width
_lv_txt_is_cmd
_lv_txt_encoded_prev
_lv_txt_encoded_get_char_id
_lv_txt_encoded_next
lv_draw_rect_dsc_init
lv_obj_init_draw_rect_dsc
lv_draw_rect
_lv_area_intersect
lv_draw_label_dsc_init
lv_obj_init_draw_label_dsc
lv_draw_label
_lv_txt_get_size
lv_obj_set_height
lv_obj_set_size
lv_anim_init
lv_anim_speed_to_time
lv_anim_get
lv_anim_start
lv_anim_del
_lv_txt_get_encoded_length
strlen
_lv_txt_encoded_size
lv_obj_handle_get_type_signal
strcpy
lv_mem_realloc
_lv_txt_ins
_lv_txt_set_text_vfmt
lv_obj_set_x
lv_obj_set_y
lv_obj_create
lv_obj_allocate_ext_attr
lv_obj_set_design_cb
lv_obj_set_signal_cb
lv_obj_get_signal_cb
lv_obj_del
lv_theme_apply
lv_obj_set_click
_lv_mem_get_size
lv_obj_refresh_style
_lv_txt_cut
