ARM GAS  D:\Temp\ccdOzXIN.s 			page 1


   1              		.cpu cortex-m4
   2              		.eabi_attribute 27, 1
   3              		.eabi_attribute 28, 1
   4              		.eabi_attribute 20, 1
   5              		.eabi_attribute 21, 1
   6              		.eabi_attribute 23, 3
   7              		.eabi_attribute 24, 1
   8              		.eabi_attribute 25, 1
   9              		.eabi_attribute 26, 1
  10              		.eabi_attribute 30, 1
  11              		.eabi_attribute 34, 1
  12              		.eabi_attribute 18, 4
  13              		.file	"lv_objmask.c"
  14              		.text
  15              	.Ltext0:
  16              		.cfi_sections	.debug_frame
  17              		.section	.text.get_param_size,"ax",%progbits
  18              		.align	1
  19              		.arch armv7e-m
  20              		.syntax unified
  21              		.thumb
  22              		.thumb_func
  23              		.fpu fpv4-sp-d16
  25              	get_param_size:
  26              	.LVL0:
  27              	.LFB466:
  28              		.file 1 "lvgl/src/lv_widgets/lv_objmask.c"
   1:lvgl/src/lv_widgets/lv_objmask.c **** /**
   2:lvgl/src/lv_widgets/lv_objmask.c ****  * @file lv_objmask.c
   3:lvgl/src/lv_widgets/lv_objmask.c ****  *
   4:lvgl/src/lv_widgets/lv_objmask.c ****  */
   5:lvgl/src/lv_widgets/lv_objmask.c **** 
   6:lvgl/src/lv_widgets/lv_objmask.c **** /*********************
   7:lvgl/src/lv_widgets/lv_objmask.c ****  *      INCLUDES
   8:lvgl/src/lv_widgets/lv_objmask.c ****  *********************/
   9:lvgl/src/lv_widgets/lv_objmask.c **** #include "lv_objmask.h"
  10:lvgl/src/lv_widgets/lv_objmask.c **** #include "../lv_misc/lv_debug.h"
  11:lvgl/src/lv_widgets/lv_objmask.c **** #include "../lv_draw/lv_draw.h"
  12:lvgl/src/lv_widgets/lv_objmask.c **** #include "../lv_themes/lv_theme.h"
  13:lvgl/src/lv_widgets/lv_objmask.c **** 
  14:lvgl/src/lv_widgets/lv_objmask.c **** #if defined(LV_USE_OBJMASK) && LV_USE_OBJMASK != 0
  15:lvgl/src/lv_widgets/lv_objmask.c **** 
  16:lvgl/src/lv_widgets/lv_objmask.c **** /*********************
  17:lvgl/src/lv_widgets/lv_objmask.c ****  *      DEFINES
  18:lvgl/src/lv_widgets/lv_objmask.c ****  *********************/
  19:lvgl/src/lv_widgets/lv_objmask.c **** #define LV_OBJX_NAME "lv_objmask"
  20:lvgl/src/lv_widgets/lv_objmask.c **** 
  21:lvgl/src/lv_widgets/lv_objmask.c **** /**********************
  22:lvgl/src/lv_widgets/lv_objmask.c ****  *      TYPEDEFS
  23:lvgl/src/lv_widgets/lv_objmask.c ****  **********************/
  24:lvgl/src/lv_widgets/lv_objmask.c **** 
  25:lvgl/src/lv_widgets/lv_objmask.c **** /**********************
  26:lvgl/src/lv_widgets/lv_objmask.c ****  *  STATIC PROTOTYPES
  27:lvgl/src/lv_widgets/lv_objmask.c ****  **********************/
  28:lvgl/src/lv_widgets/lv_objmask.c **** static lv_design_res_t lv_objmask_design(lv_obj_t * objmask, const lv_area_t * clip_area, lv_design
  29:lvgl/src/lv_widgets/lv_objmask.c **** static lv_res_t lv_objmask_signal(lv_obj_t * objmask, lv_signal_t sign, void * param);
  30:lvgl/src/lv_widgets/lv_objmask.c **** static uint16_t get_param_size(lv_draw_mask_type_t type);
ARM GAS  D:\Temp\ccdOzXIN.s 			page 2


  31:lvgl/src/lv_widgets/lv_objmask.c **** 
  32:lvgl/src/lv_widgets/lv_objmask.c **** /**********************
  33:lvgl/src/lv_widgets/lv_objmask.c ****  *  STATIC VARIABLES
  34:lvgl/src/lv_widgets/lv_objmask.c ****  **********************/
  35:lvgl/src/lv_widgets/lv_objmask.c **** static lv_signal_cb_t ancestor_signal;
  36:lvgl/src/lv_widgets/lv_objmask.c **** static lv_design_cb_t ancestor_design;
  37:lvgl/src/lv_widgets/lv_objmask.c **** 
  38:lvgl/src/lv_widgets/lv_objmask.c **** /**********************
  39:lvgl/src/lv_widgets/lv_objmask.c ****  *      MACROS
  40:lvgl/src/lv_widgets/lv_objmask.c ****  **********************/
  41:lvgl/src/lv_widgets/lv_objmask.c **** 
  42:lvgl/src/lv_widgets/lv_objmask.c **** /**********************
  43:lvgl/src/lv_widgets/lv_objmask.c ****  *   GLOBAL FUNCTIONS
  44:lvgl/src/lv_widgets/lv_objmask.c ****  **********************/
  45:lvgl/src/lv_widgets/lv_objmask.c **** 
  46:lvgl/src/lv_widgets/lv_objmask.c **** /**
  47:lvgl/src/lv_widgets/lv_objmask.c ****  * Create a object mask object
  48:lvgl/src/lv_widgets/lv_objmask.c ****  * @param par pointer to an object, it will be the parent of the new object mask
  49:lvgl/src/lv_widgets/lv_objmask.c ****  * @param copy pointer to a object mask object, if not NULL then the new object will be copied from
  50:lvgl/src/lv_widgets/lv_objmask.c ****  * @return pointer to the created object mask
  51:lvgl/src/lv_widgets/lv_objmask.c ****  */
  52:lvgl/src/lv_widgets/lv_objmask.c **** lv_obj_t * lv_objmask_create(lv_obj_t * par, const lv_obj_t * copy)
  53:lvgl/src/lv_widgets/lv_objmask.c **** {
  54:lvgl/src/lv_widgets/lv_objmask.c ****     LV_LOG_TRACE("object mask create started");
  55:lvgl/src/lv_widgets/lv_objmask.c **** 
  56:lvgl/src/lv_widgets/lv_objmask.c ****     /*Create the ancestor of object mask*/
  57:lvgl/src/lv_widgets/lv_objmask.c ****     lv_obj_t * objmask = lv_cont_create(par, copy);
  58:lvgl/src/lv_widgets/lv_objmask.c ****     LV_ASSERT_MEM(objmask);
  59:lvgl/src/lv_widgets/lv_objmask.c ****     if(objmask == NULL) return NULL;
  60:lvgl/src/lv_widgets/lv_objmask.c **** 
  61:lvgl/src/lv_widgets/lv_objmask.c ****     /*Allocate the object mask type specific extended data*/
  62:lvgl/src/lv_widgets/lv_objmask.c ****     lv_objmask_ext_t * ext = lv_obj_allocate_ext_attr(objmask, sizeof(lv_objmask_ext_t));
  63:lvgl/src/lv_widgets/lv_objmask.c ****     LV_ASSERT_MEM(ext);
  64:lvgl/src/lv_widgets/lv_objmask.c ****     if(ext == NULL) {
  65:lvgl/src/lv_widgets/lv_objmask.c ****         lv_obj_del(objmask);
  66:lvgl/src/lv_widgets/lv_objmask.c ****         return NULL;
  67:lvgl/src/lv_widgets/lv_objmask.c ****     }
  68:lvgl/src/lv_widgets/lv_objmask.c **** 
  69:lvgl/src/lv_widgets/lv_objmask.c ****     if(ancestor_signal == NULL) ancestor_signal = lv_obj_get_signal_cb(objmask);
  70:lvgl/src/lv_widgets/lv_objmask.c ****     if(ancestor_design == NULL) ancestor_design = lv_obj_get_design_cb(objmask);
  71:lvgl/src/lv_widgets/lv_objmask.c **** 
  72:lvgl/src/lv_widgets/lv_objmask.c ****     /*Initialize the allocated 'ext' */
  73:lvgl/src/lv_widgets/lv_objmask.c ****     _lv_ll_init(&ext->mask_ll, sizeof(lv_objmask_mask_t));
  74:lvgl/src/lv_widgets/lv_objmask.c **** 
  75:lvgl/src/lv_widgets/lv_objmask.c ****     /*The signal and design functions are not copied so set them here*/
  76:lvgl/src/lv_widgets/lv_objmask.c ****     lv_obj_set_signal_cb(objmask, lv_objmask_signal);
  77:lvgl/src/lv_widgets/lv_objmask.c ****     lv_obj_set_design_cb(objmask, lv_objmask_design);
  78:lvgl/src/lv_widgets/lv_objmask.c **** 
  79:lvgl/src/lv_widgets/lv_objmask.c ****     /*Init the new object mask object mask*/
  80:lvgl/src/lv_widgets/lv_objmask.c ****     if(copy == NULL) {
  81:lvgl/src/lv_widgets/lv_objmask.c ****         lv_theme_apply(objmask, LV_THEME_OBJMASK);
  82:lvgl/src/lv_widgets/lv_objmask.c **** 
  83:lvgl/src/lv_widgets/lv_objmask.c ****     }
  84:lvgl/src/lv_widgets/lv_objmask.c ****     /*TODO: Copy an existing object mask*/
  85:lvgl/src/lv_widgets/lv_objmask.c ****     else {
  86:lvgl/src/lv_widgets/lv_objmask.c ****         /* lv_objmask_ext_t * copy_ext = lv_obj_get_ext_attr(copy); */
  87:lvgl/src/lv_widgets/lv_objmask.c **** 
ARM GAS  D:\Temp\ccdOzXIN.s 			page 3


  88:lvgl/src/lv_widgets/lv_objmask.c ****         /*Refresh the style with new signal function*/
  89:lvgl/src/lv_widgets/lv_objmask.c ****         lv_obj_refresh_style(objmask, LV_OBJ_PART_ALL, LV_STYLE_PROP_ALL);
  90:lvgl/src/lv_widgets/lv_objmask.c ****     }
  91:lvgl/src/lv_widgets/lv_objmask.c **** 
  92:lvgl/src/lv_widgets/lv_objmask.c ****     LV_LOG_INFO("object mask created");
  93:lvgl/src/lv_widgets/lv_objmask.c **** 
  94:lvgl/src/lv_widgets/lv_objmask.c ****     return objmask;
  95:lvgl/src/lv_widgets/lv_objmask.c **** }
  96:lvgl/src/lv_widgets/lv_objmask.c **** 
  97:lvgl/src/lv_widgets/lv_objmask.c **** /*======================
  98:lvgl/src/lv_widgets/lv_objmask.c ****  * Add/remove functions
  99:lvgl/src/lv_widgets/lv_objmask.c ****  *=====================*/
 100:lvgl/src/lv_widgets/lv_objmask.c **** 
 101:lvgl/src/lv_widgets/lv_objmask.c **** /**
 102:lvgl/src/lv_widgets/lv_objmask.c ****  * Add a mask
 103:lvgl/src/lv_widgets/lv_objmask.c ****  * @param objmask pointer to an Object mask object
 104:lvgl/src/lv_widgets/lv_objmask.c ****  * @param param an initialized mask parameter
 105:lvgl/src/lv_widgets/lv_objmask.c ****  * @return pointer to the added mask
 106:lvgl/src/lv_widgets/lv_objmask.c ****  */
 107:lvgl/src/lv_widgets/lv_objmask.c **** lv_objmask_mask_t * lv_objmask_add_mask(lv_obj_t * objmask, void * param)
 108:lvgl/src/lv_widgets/lv_objmask.c **** {
 109:lvgl/src/lv_widgets/lv_objmask.c ****     LV_ASSERT_OBJ(objmask, LV_OBJX_NAME);
 110:lvgl/src/lv_widgets/lv_objmask.c ****     LV_ASSERT_NULL(param);
 111:lvgl/src/lv_widgets/lv_objmask.c **** 
 112:lvgl/src/lv_widgets/lv_objmask.c ****     lv_objmask_ext_t * ext = lv_obj_get_ext_attr(objmask);
 113:lvgl/src/lv_widgets/lv_objmask.c **** 
 114:lvgl/src/lv_widgets/lv_objmask.c ****     lv_draw_mask_common_dsc_t * dsc = param;
 115:lvgl/src/lv_widgets/lv_objmask.c ****     uint16_t param_size = get_param_size(dsc->type);
 116:lvgl/src/lv_widgets/lv_objmask.c **** 
 117:lvgl/src/lv_widgets/lv_objmask.c ****     lv_objmask_mask_t * m = _lv_ll_ins_head(&ext->mask_ll);
 118:lvgl/src/lv_widgets/lv_objmask.c ****     LV_ASSERT_MEM(m);
 119:lvgl/src/lv_widgets/lv_objmask.c ****     if(m == NULL) return NULL;
 120:lvgl/src/lv_widgets/lv_objmask.c ****     m->param = lv_mem_alloc(param_size);
 121:lvgl/src/lv_widgets/lv_objmask.c ****     LV_ASSERT_MEM(m->param);
 122:lvgl/src/lv_widgets/lv_objmask.c ****     if(m->param == NULL) return NULL;
 123:lvgl/src/lv_widgets/lv_objmask.c **** 
 124:lvgl/src/lv_widgets/lv_objmask.c ****     _lv_memcpy(m->param, param, param_size);
 125:lvgl/src/lv_widgets/lv_objmask.c **** 
 126:lvgl/src/lv_widgets/lv_objmask.c ****     lv_obj_invalidate(objmask);
 127:lvgl/src/lv_widgets/lv_objmask.c **** 
 128:lvgl/src/lv_widgets/lv_objmask.c ****     return m;
 129:lvgl/src/lv_widgets/lv_objmask.c **** }
 130:lvgl/src/lv_widgets/lv_objmask.c **** 
 131:lvgl/src/lv_widgets/lv_objmask.c **** /**
 132:lvgl/src/lv_widgets/lv_objmask.c ****  * Update an already created mask
 133:lvgl/src/lv_widgets/lv_objmask.c ****  * @param objmask pointer to an Object mask object
 134:lvgl/src/lv_widgets/lv_objmask.c ****  * @param mask pointer to created mask (returned by `lv_objmask_add_mask`)
 135:lvgl/src/lv_widgets/lv_objmask.c ****  * @param param an initialized mask parameter (initialized by `lv_draw_mask_line/angle/.../_init`)
 136:lvgl/src/lv_widgets/lv_objmask.c ****  */
 137:lvgl/src/lv_widgets/lv_objmask.c **** void lv_objmask_update_mask(lv_obj_t * objmask, lv_objmask_mask_t * mask, void * param)
 138:lvgl/src/lv_widgets/lv_objmask.c **** {
 139:lvgl/src/lv_widgets/lv_objmask.c ****     LV_ASSERT_OBJ(objmask, LV_OBJX_NAME);
 140:lvgl/src/lv_widgets/lv_objmask.c ****     LV_ASSERT_NULL(mask);
 141:lvgl/src/lv_widgets/lv_objmask.c ****     LV_ASSERT_NULL(param);
 142:lvgl/src/lv_widgets/lv_objmask.c ****     lv_draw_mask_common_dsc_t * dsc = param;
 143:lvgl/src/lv_widgets/lv_objmask.c **** 
 144:lvgl/src/lv_widgets/lv_objmask.c ****     memcpy(mask->param, param, get_param_size(dsc->type));
ARM GAS  D:\Temp\ccdOzXIN.s 			page 4


 145:lvgl/src/lv_widgets/lv_objmask.c **** 
 146:lvgl/src/lv_widgets/lv_objmask.c ****     lv_obj_invalidate(objmask);
 147:lvgl/src/lv_widgets/lv_objmask.c **** }
 148:lvgl/src/lv_widgets/lv_objmask.c **** 
 149:lvgl/src/lv_widgets/lv_objmask.c **** /**
 150:lvgl/src/lv_widgets/lv_objmask.c ****  * Remove a mask
 151:lvgl/src/lv_widgets/lv_objmask.c ****  * @param objmask pointer to an Object mask object
 152:lvgl/src/lv_widgets/lv_objmask.c ****  * @param mask pointer to created mask (returned by `lv_objmask_add_mask`)
 153:lvgl/src/lv_widgets/lv_objmask.c ****  * If `NULL` passed all masks will be deleted.
 154:lvgl/src/lv_widgets/lv_objmask.c ****  */
 155:lvgl/src/lv_widgets/lv_objmask.c **** void lv_objmask_remove_mask(lv_obj_t * objmask, lv_objmask_mask_t * mask)
 156:lvgl/src/lv_widgets/lv_objmask.c **** {
 157:lvgl/src/lv_widgets/lv_objmask.c ****     LV_ASSERT_OBJ(objmask, LV_OBJX_NAME);
 158:lvgl/src/lv_widgets/lv_objmask.c **** 
 159:lvgl/src/lv_widgets/lv_objmask.c ****     lv_objmask_ext_t * ext = lv_obj_get_ext_attr(objmask);
 160:lvgl/src/lv_widgets/lv_objmask.c **** 
 161:lvgl/src/lv_widgets/lv_objmask.c ****     /*Remove all masks*/
 162:lvgl/src/lv_widgets/lv_objmask.c ****     if(mask == NULL) {
 163:lvgl/src/lv_widgets/lv_objmask.c ****         lv_objmask_mask_t * m;
 164:lvgl/src/lv_widgets/lv_objmask.c ****         _LV_LL_READ(ext->mask_ll, m) {
 165:lvgl/src/lv_widgets/lv_objmask.c ****             lv_mem_free(m->param);
 166:lvgl/src/lv_widgets/lv_objmask.c ****         }
 167:lvgl/src/lv_widgets/lv_objmask.c **** 
 168:lvgl/src/lv_widgets/lv_objmask.c ****         _lv_ll_clear(&ext->mask_ll);
 169:lvgl/src/lv_widgets/lv_objmask.c ****     }
 170:lvgl/src/lv_widgets/lv_objmask.c ****     /*Remove only the specified mask*/
 171:lvgl/src/lv_widgets/lv_objmask.c ****     else {
 172:lvgl/src/lv_widgets/lv_objmask.c ****         lv_mem_free(mask->param);
 173:lvgl/src/lv_widgets/lv_objmask.c ****         _lv_ll_remove(&ext->mask_ll, mask);
 174:lvgl/src/lv_widgets/lv_objmask.c ****         lv_mem_free(mask);
 175:lvgl/src/lv_widgets/lv_objmask.c ****     }
 176:lvgl/src/lv_widgets/lv_objmask.c **** 
 177:lvgl/src/lv_widgets/lv_objmask.c ****     lv_obj_invalidate(objmask);
 178:lvgl/src/lv_widgets/lv_objmask.c **** }
 179:lvgl/src/lv_widgets/lv_objmask.c **** 
 180:lvgl/src/lv_widgets/lv_objmask.c **** /*=====================
 181:lvgl/src/lv_widgets/lv_objmask.c ****  * Setter functions
 182:lvgl/src/lv_widgets/lv_objmask.c ****  *====================*/
 183:lvgl/src/lv_widgets/lv_objmask.c **** 
 184:lvgl/src/lv_widgets/lv_objmask.c **** /*=====================
 185:lvgl/src/lv_widgets/lv_objmask.c ****  * Getter functions
 186:lvgl/src/lv_widgets/lv_objmask.c ****  *====================*/
 187:lvgl/src/lv_widgets/lv_objmask.c **** 
 188:lvgl/src/lv_widgets/lv_objmask.c **** /*=====================
 189:lvgl/src/lv_widgets/lv_objmask.c ****  * Other functions
 190:lvgl/src/lv_widgets/lv_objmask.c ****  *====================*/
 191:lvgl/src/lv_widgets/lv_objmask.c **** 
 192:lvgl/src/lv_widgets/lv_objmask.c **** /**********************
 193:lvgl/src/lv_widgets/lv_objmask.c ****  *   STATIC FUNCTIONS
 194:lvgl/src/lv_widgets/lv_objmask.c ****  **********************/
 195:lvgl/src/lv_widgets/lv_objmask.c **** 
 196:lvgl/src/lv_widgets/lv_objmask.c **** /**
 197:lvgl/src/lv_widgets/lv_objmask.c ****  * Handle the drawing related tasks of the object masks
 198:lvgl/src/lv_widgets/lv_objmask.c ****  * @param objmask pointer to an object
 199:lvgl/src/lv_widgets/lv_objmask.c ****  * @param clip_area the object will be drawn only in this area
 200:lvgl/src/lv_widgets/lv_objmask.c ****  * @param mode LV_DESIGN_COVER_CHK: only check if the object fully covers the 'mask_p' area
 201:lvgl/src/lv_widgets/lv_objmask.c ****  *                                  (return 'true' if yes)
ARM GAS  D:\Temp\ccdOzXIN.s 			page 5


 202:lvgl/src/lv_widgets/lv_objmask.c ****  *             LV_DESIGN_DRAW: draw the object (always return 'true')
 203:lvgl/src/lv_widgets/lv_objmask.c ****  *             LV_DESIGN_DRAW_POST: drawing after every children are drawn
 204:lvgl/src/lv_widgets/lv_objmask.c ****  * @param return an element of `lv_design_res_t`
 205:lvgl/src/lv_widgets/lv_objmask.c ****  */
 206:lvgl/src/lv_widgets/lv_objmask.c **** static lv_design_res_t lv_objmask_design(lv_obj_t * objmask, const lv_area_t * clip_area, lv_design
 207:lvgl/src/lv_widgets/lv_objmask.c **** {
 208:lvgl/src/lv_widgets/lv_objmask.c ****     /*Return false if the object is not covers the mask_p area*/
 209:lvgl/src/lv_widgets/lv_objmask.c ****     if(mode == LV_DESIGN_COVER_CHK) {
 210:lvgl/src/lv_widgets/lv_objmask.c ****         lv_objmask_ext_t * ext = lv_obj_get_ext_attr(objmask);
 211:lvgl/src/lv_widgets/lv_objmask.c ****         if(_lv_ll_get_len(&ext->mask_ll) > 0) return LV_DESIGN_RES_MASKED;
 212:lvgl/src/lv_widgets/lv_objmask.c ****         else return ancestor_design(objmask, clip_area, mode);
 213:lvgl/src/lv_widgets/lv_objmask.c ****     }
 214:lvgl/src/lv_widgets/lv_objmask.c ****     /*Draw the object*/
 215:lvgl/src/lv_widgets/lv_objmask.c ****     else if(mode == LV_DESIGN_DRAW_MAIN) {
 216:lvgl/src/lv_widgets/lv_objmask.c ****         ancestor_design(objmask, clip_area, mode);
 217:lvgl/src/lv_widgets/lv_objmask.c **** 
 218:lvgl/src/lv_widgets/lv_objmask.c ****         lv_objmask_ext_t * ext = lv_obj_get_ext_attr(objmask);
 219:lvgl/src/lv_widgets/lv_objmask.c **** 
 220:lvgl/src/lv_widgets/lv_objmask.c ****         lv_coord_t xofs = objmask->coords.x1;
 221:lvgl/src/lv_widgets/lv_objmask.c ****         lv_coord_t yofs = objmask->coords.y1;
 222:lvgl/src/lv_widgets/lv_objmask.c **** 
 223:lvgl/src/lv_widgets/lv_objmask.c ****         lv_objmask_mask_t * m;
 224:lvgl/src/lv_widgets/lv_objmask.c **** 
 225:lvgl/src/lv_widgets/lv_objmask.c ****         _LV_LL_READ(ext->mask_ll, m) {
 226:lvgl/src/lv_widgets/lv_objmask.c ****             lv_draw_mask_common_dsc_t * dsc = m->param;
 227:lvgl/src/lv_widgets/lv_objmask.c **** 
 228:lvgl/src/lv_widgets/lv_objmask.c ****             if(dsc->type == LV_DRAW_MASK_TYPE_LINE) {
 229:lvgl/src/lv_widgets/lv_objmask.c ****                 lv_draw_mask_line_param_t * p_ori = m->param;
 230:lvgl/src/lv_widgets/lv_objmask.c ****                 lv_draw_mask_line_param_t * p_new = _lv_mem_buf_get(sizeof(lv_draw_mask_line_param_
 231:lvgl/src/lv_widgets/lv_objmask.c **** 
 232:lvgl/src/lv_widgets/lv_objmask.c ****                 lv_draw_mask_line_points_init(p_new, p_ori->cfg.p1.x + xofs, p_ori->cfg.p1.y + yofs
 233:lvgl/src/lv_widgets/lv_objmask.c ****                                               p_ori->cfg.p2.x + xofs, p_ori->cfg.p2.y + yofs,
 234:lvgl/src/lv_widgets/lv_objmask.c ****                                               p_ori->cfg.side);
 235:lvgl/src/lv_widgets/lv_objmask.c ****                 lv_draw_mask_add(p_new, m->param);
 236:lvgl/src/lv_widgets/lv_objmask.c ****             }
 237:lvgl/src/lv_widgets/lv_objmask.c ****             else if(dsc->type == LV_DRAW_MASK_TYPE_ANGLE) {
 238:lvgl/src/lv_widgets/lv_objmask.c ****                 lv_draw_mask_angle_param_t * p_ori = m->param;
 239:lvgl/src/lv_widgets/lv_objmask.c ****                 lv_draw_mask_angle_param_t * p_new = _lv_mem_buf_get(sizeof(lv_draw_mask_angle_para
 240:lvgl/src/lv_widgets/lv_objmask.c **** 
 241:lvgl/src/lv_widgets/lv_objmask.c ****                 lv_draw_mask_angle_init(p_new, p_ori->cfg.vertex_p.x + xofs, p_ori->cfg.vertex_p.y 
 242:lvgl/src/lv_widgets/lv_objmask.c ****                                         p_ori->cfg.start_angle, p_ori->cfg.end_angle);
 243:lvgl/src/lv_widgets/lv_objmask.c ****                 lv_draw_mask_add(p_new, m->param);
 244:lvgl/src/lv_widgets/lv_objmask.c ****             }
 245:lvgl/src/lv_widgets/lv_objmask.c ****             else if(dsc->type == LV_DRAW_MASK_TYPE_RADIUS) {
 246:lvgl/src/lv_widgets/lv_objmask.c ****                 lv_draw_mask_radius_param_t * p_ori = m->param;
 247:lvgl/src/lv_widgets/lv_objmask.c ****                 lv_draw_mask_radius_param_t * p_new = _lv_mem_buf_get(sizeof(lv_draw_mask_radius_pa
 248:lvgl/src/lv_widgets/lv_objmask.c **** 
 249:lvgl/src/lv_widgets/lv_objmask.c ****                 lv_area_t rect;
 250:lvgl/src/lv_widgets/lv_objmask.c ****                 rect.x1 = p_ori->cfg.rect.x1 + xofs;
 251:lvgl/src/lv_widgets/lv_objmask.c ****                 rect.y1 = p_ori->cfg.rect.y1 + yofs;
 252:lvgl/src/lv_widgets/lv_objmask.c ****                 rect.x2 = p_ori->cfg.rect.x2 + xofs;
 253:lvgl/src/lv_widgets/lv_objmask.c ****                 rect.y2 = p_ori->cfg.rect.y2 + yofs;
 254:lvgl/src/lv_widgets/lv_objmask.c **** 
 255:lvgl/src/lv_widgets/lv_objmask.c ****                 lv_draw_mask_radius_init(p_new, &rect, p_ori->cfg.radius, p_ori->cfg.outer);
 256:lvgl/src/lv_widgets/lv_objmask.c ****                 lv_draw_mask_add(p_new, m->param);
 257:lvgl/src/lv_widgets/lv_objmask.c ****             }
 258:lvgl/src/lv_widgets/lv_objmask.c ****             else if(dsc->type == LV_DRAW_MASK_TYPE_FADE) {
ARM GAS  D:\Temp\ccdOzXIN.s 			page 6


 259:lvgl/src/lv_widgets/lv_objmask.c ****                 lv_draw_mask_fade_param_t * p_ori = m->param;
 260:lvgl/src/lv_widgets/lv_objmask.c ****                 lv_draw_mask_fade_param_t * p_new = _lv_mem_buf_get(sizeof(lv_draw_mask_fade_param_
 261:lvgl/src/lv_widgets/lv_objmask.c **** 
 262:lvgl/src/lv_widgets/lv_objmask.c ****                 lv_area_t rect;
 263:lvgl/src/lv_widgets/lv_objmask.c ****                 rect.x1 = p_ori->cfg.coords.x1 + xofs;
 264:lvgl/src/lv_widgets/lv_objmask.c ****                 rect.y1 = p_ori->cfg.coords.y1 + yofs;
 265:lvgl/src/lv_widgets/lv_objmask.c ****                 rect.x2 = p_ori->cfg.coords.x2 + xofs;
 266:lvgl/src/lv_widgets/lv_objmask.c ****                 rect.y2 = p_ori->cfg.coords.y2 + yofs;
 267:lvgl/src/lv_widgets/lv_objmask.c **** 
 268:lvgl/src/lv_widgets/lv_objmask.c ****                 lv_draw_mask_fade_init(p_new, &rect, p_ori->cfg.opa_top, p_ori->cfg.y_top + yofs,
 269:lvgl/src/lv_widgets/lv_objmask.c ****                                        p_ori->cfg.opa_bottom, p_ori->cfg.y_bottom + yofs);
 270:lvgl/src/lv_widgets/lv_objmask.c ****                 lv_draw_mask_add(p_new, m->param);
 271:lvgl/src/lv_widgets/lv_objmask.c ****             }
 272:lvgl/src/lv_widgets/lv_objmask.c ****             else if(dsc->type == LV_DRAW_MASK_TYPE_MAP) {
 273:lvgl/src/lv_widgets/lv_objmask.c ****                 lv_draw_mask_map_param_t * p_ori = m->param;
 274:lvgl/src/lv_widgets/lv_objmask.c ****                 lv_draw_mask_map_param_t * p_new = _lv_mem_buf_get(sizeof(lv_draw_mask_map_param_t)
 275:lvgl/src/lv_widgets/lv_objmask.c **** 
 276:lvgl/src/lv_widgets/lv_objmask.c ****                 lv_area_t rect;
 277:lvgl/src/lv_widgets/lv_objmask.c ****                 rect.x1 = p_ori->cfg.coords.x1 + xofs;
 278:lvgl/src/lv_widgets/lv_objmask.c ****                 rect.y1 = p_ori->cfg.coords.y1 + yofs;
 279:lvgl/src/lv_widgets/lv_objmask.c ****                 rect.x2 = p_ori->cfg.coords.x2 + xofs;
 280:lvgl/src/lv_widgets/lv_objmask.c ****                 rect.y2 = p_ori->cfg.coords.y2 + yofs;
 281:lvgl/src/lv_widgets/lv_objmask.c **** 
 282:lvgl/src/lv_widgets/lv_objmask.c ****                 lv_draw_mask_map_init(p_new, &rect, p_ori->cfg.map);
 283:lvgl/src/lv_widgets/lv_objmask.c ****                 lv_draw_mask_add(p_new, m->param);
 284:lvgl/src/lv_widgets/lv_objmask.c ****             }
 285:lvgl/src/lv_widgets/lv_objmask.c **** 
 286:lvgl/src/lv_widgets/lv_objmask.c ****         }
 287:lvgl/src/lv_widgets/lv_objmask.c ****     }
 288:lvgl/src/lv_widgets/lv_objmask.c ****     /*Post draw when the children are drawn*/
 289:lvgl/src/lv_widgets/lv_objmask.c ****     else if(mode == LV_DESIGN_DRAW_POST) {
 290:lvgl/src/lv_widgets/lv_objmask.c ****         lv_objmask_ext_t * ext = lv_obj_get_ext_attr(objmask);
 291:lvgl/src/lv_widgets/lv_objmask.c **** 
 292:lvgl/src/lv_widgets/lv_objmask.c ****         lv_objmask_mask_t * m;
 293:lvgl/src/lv_widgets/lv_objmask.c **** 
 294:lvgl/src/lv_widgets/lv_objmask.c ****         _LV_LL_READ(ext->mask_ll, m) {
 295:lvgl/src/lv_widgets/lv_objmask.c ****             void * param;
 296:lvgl/src/lv_widgets/lv_objmask.c ****             param = lv_draw_mask_remove_custom(m->param);
 297:lvgl/src/lv_widgets/lv_objmask.c ****             _lv_mem_buf_release(param);
 298:lvgl/src/lv_widgets/lv_objmask.c ****         }
 299:lvgl/src/lv_widgets/lv_objmask.c **** 
 300:lvgl/src/lv_widgets/lv_objmask.c ****     }
 301:lvgl/src/lv_widgets/lv_objmask.c **** 
 302:lvgl/src/lv_widgets/lv_objmask.c ****     return LV_DESIGN_RES_OK;
 303:lvgl/src/lv_widgets/lv_objmask.c **** }
 304:lvgl/src/lv_widgets/lv_objmask.c **** 
 305:lvgl/src/lv_widgets/lv_objmask.c **** /**
 306:lvgl/src/lv_widgets/lv_objmask.c ****  * Signal function of the object mask
 307:lvgl/src/lv_widgets/lv_objmask.c ****  * @param objmask pointer to a object mask object
 308:lvgl/src/lv_widgets/lv_objmask.c ****  * @param sign a signal type from lv_signal_t enum
 309:lvgl/src/lv_widgets/lv_objmask.c ****  * @param param pointer to a signal specific variable
 310:lvgl/src/lv_widgets/lv_objmask.c ****  * @return LV_RES_OK: the object is not deleted in the function; LV_RES_INV: the object is deleted
 311:lvgl/src/lv_widgets/lv_objmask.c ****  */
 312:lvgl/src/lv_widgets/lv_objmask.c **** static lv_res_t lv_objmask_signal(lv_obj_t * objmask, lv_signal_t sign, void * param)
 313:lvgl/src/lv_widgets/lv_objmask.c **** {
 314:lvgl/src/lv_widgets/lv_objmask.c ****     lv_res_t res;
 315:lvgl/src/lv_widgets/lv_objmask.c **** 
ARM GAS  D:\Temp\ccdOzXIN.s 			page 7


 316:lvgl/src/lv_widgets/lv_objmask.c ****     /* Include the ancient signal function */
 317:lvgl/src/lv_widgets/lv_objmask.c ****     res = ancestor_signal(objmask, sign, param);
 318:lvgl/src/lv_widgets/lv_objmask.c ****     if(res != LV_RES_OK) return res;
 319:lvgl/src/lv_widgets/lv_objmask.c ****     if(sign == LV_SIGNAL_GET_TYPE) return lv_obj_handle_get_type_signal(param, LV_OBJX_NAME);
 320:lvgl/src/lv_widgets/lv_objmask.c **** 
 321:lvgl/src/lv_widgets/lv_objmask.c ****     if(sign == LV_SIGNAL_CLEANUP) {
 322:lvgl/src/lv_widgets/lv_objmask.c ****         lv_objmask_ext_t * ext = lv_obj_get_ext_attr(objmask);
 323:lvgl/src/lv_widgets/lv_objmask.c ****         lv_objmask_mask_t * i;
 324:lvgl/src/lv_widgets/lv_objmask.c ****         _LV_LL_READ(ext->mask_ll, i) {
 325:lvgl/src/lv_widgets/lv_objmask.c ****             if(i->param) {
 326:lvgl/src/lv_widgets/lv_objmask.c ****                 lv_mem_free(i->param);
 327:lvgl/src/lv_widgets/lv_objmask.c ****                 i->param = NULL;
 328:lvgl/src/lv_widgets/lv_objmask.c ****             }
 329:lvgl/src/lv_widgets/lv_objmask.c ****         }
 330:lvgl/src/lv_widgets/lv_objmask.c **** 
 331:lvgl/src/lv_widgets/lv_objmask.c ****         _lv_ll_clear(&ext->mask_ll);
 332:lvgl/src/lv_widgets/lv_objmask.c ****     }
 333:lvgl/src/lv_widgets/lv_objmask.c **** 
 334:lvgl/src/lv_widgets/lv_objmask.c ****     return res;
 335:lvgl/src/lv_widgets/lv_objmask.c **** }
 336:lvgl/src/lv_widgets/lv_objmask.c **** 
 337:lvgl/src/lv_widgets/lv_objmask.c **** static uint16_t get_param_size(lv_draw_mask_type_t type)
 338:lvgl/src/lv_widgets/lv_objmask.c **** {
  29              		.loc 1 338 1 view -0
  30              		.cfi_startproc
  31              		@ args = 0, pretend = 0, frame = 0
  32              		@ frame_needed = 0, uses_anonymous_args = 0
  33              		@ link register save eliminated.
 339:lvgl/src/lv_widgets/lv_objmask.c ****     uint16_t param_size;
  34              		.loc 1 339 5 view .LVU1
 340:lvgl/src/lv_widgets/lv_objmask.c ****     switch(type) {
  35              		.loc 1 340 5 view .LVU2
  36 0000 0428     		cmp	r0, #4
  37 0002 0CD8     		bhi	.L2
  38 0004 DFE800F0 		tbb	[pc, r0]
  39              	.L4:
  40 0008 03       		.byte	(.L8-.L4)/2
  41 0009 0D       		.byte	(.L9-.L4)/2
  42 000a 05       		.byte	(.L6-.L4)/2
  43 000b 07       		.byte	(.L5-.L4)/2
  44 000c 09       		.byte	(.L3-.L4)/2
  45 000d 00       		.p2align 1
  46              	.L8:
 341:lvgl/src/lv_widgets/lv_objmask.c ****         case LV_DRAW_MASK_TYPE_LINE:
 342:lvgl/src/lv_widgets/lv_objmask.c ****             param_size = sizeof(lv_draw_mask_line_param_t);
  47              		.loc 1 342 24 is_stmt 0 view .LVU3
  48 000e 2C20     		movs	r0, #44
  49              	.LVL1:
  50              		.loc 1 342 24 view .LVU4
  51 0010 7047     		bx	lr
  52              	.LVL2:
  53              	.L6:
 343:lvgl/src/lv_widgets/lv_objmask.c ****             break;
 344:lvgl/src/lv_widgets/lv_objmask.c ****         case LV_DRAW_MASK_TYPE_ANGLE:
 345:lvgl/src/lv_widgets/lv_objmask.c ****             param_size = sizeof(lv_draw_mask_angle_param_t);
 346:lvgl/src/lv_widgets/lv_objmask.c ****             break;
 347:lvgl/src/lv_widgets/lv_objmask.c ****         case LV_DRAW_MASK_TYPE_RADIUS:
ARM GAS  D:\Temp\ccdOzXIN.s 			page 8


 348:lvgl/src/lv_widgets/lv_objmask.c ****             param_size = sizeof(lv_draw_mask_radius_param_t);
  54              		.loc 1 348 13 is_stmt 1 view .LVU5
 349:lvgl/src/lv_widgets/lv_objmask.c ****             break;
  55              		.loc 1 349 13 view .LVU6
 348:lvgl/src/lv_widgets/lv_objmask.c ****             break;
  56              		.loc 1 348 24 is_stmt 0 view .LVU7
  57 0012 1C20     		movs	r0, #28
  58              	.LVL3:
  59              		.loc 1 349 13 view .LVU8
  60 0014 7047     		bx	lr
  61              	.LVL4:
  62              	.L5:
 350:lvgl/src/lv_widgets/lv_objmask.c ****         case LV_DRAW_MASK_TYPE_FADE:
 351:lvgl/src/lv_widgets/lv_objmask.c ****             param_size = sizeof(lv_draw_mask_fade_param_t);
  63              		.loc 1 351 13 is_stmt 1 view .LVU9
 352:lvgl/src/lv_widgets/lv_objmask.c ****             break;
  64              		.loc 1 352 13 view .LVU10
 351:lvgl/src/lv_widgets/lv_objmask.c ****             break;
  65              		.loc 1 351 24 is_stmt 0 view .LVU11
  66 0016 1820     		movs	r0, #24
  67              	.LVL5:
  68              		.loc 1 352 13 view .LVU12
  69 0018 7047     		bx	lr
  70              	.LVL6:
  71              	.L3:
 353:lvgl/src/lv_widgets/lv_objmask.c ****         case LV_DRAW_MASK_TYPE_MAP:
 354:lvgl/src/lv_widgets/lv_objmask.c ****             param_size = sizeof(lv_draw_mask_map_param_t);
  72              		.loc 1 354 13 is_stmt 1 view .LVU13
 355:lvgl/src/lv_widgets/lv_objmask.c ****             break;
  73              		.loc 1 355 13 view .LVU14
 354:lvgl/src/lv_widgets/lv_objmask.c ****             break;
  74              		.loc 1 354 24 is_stmt 0 view .LVU15
  75 001a 1420     		movs	r0, #20
  76              	.LVL7:
  77              		.loc 1 355 13 view .LVU16
  78 001c 7047     		bx	lr
  79              	.LVL8:
  80              	.L2:
 356:lvgl/src/lv_widgets/lv_objmask.c ****         default:
 357:lvgl/src/lv_widgets/lv_objmask.c ****             param_size = 0;
  81              		.loc 1 357 13 is_stmt 1 view .LVU17
  82              		.loc 1 357 24 is_stmt 0 view .LVU18
  83 001e 0020     		movs	r0, #0
  84              	.LVL9:
  85              		.loc 1 357 24 view .LVU19
  86 0020 7047     		bx	lr
  87              	.LVL10:
  88              	.L9:
 345:lvgl/src/lv_widgets/lv_objmask.c ****             break;
  89              		.loc 1 345 24 view .LVU20
  90 0022 6C20     		movs	r0, #108
  91              	.LVL11:
 358:lvgl/src/lv_widgets/lv_objmask.c ****     }
 359:lvgl/src/lv_widgets/lv_objmask.c **** 
 360:lvgl/src/lv_widgets/lv_objmask.c ****     return param_size;
  92              		.loc 1 360 5 is_stmt 1 view .LVU21
 361:lvgl/src/lv_widgets/lv_objmask.c **** }
ARM GAS  D:\Temp\ccdOzXIN.s 			page 9


  93              		.loc 1 361 1 is_stmt 0 view .LVU22
  94 0024 7047     		bx	lr
  95              		.cfi_endproc
  96              	.LFE466:
  98              		.section	.text.lv_objmask_design,"ax",%progbits
  99              		.align	1
 100              		.syntax unified
 101              		.thumb
 102              		.thumb_func
 103              		.fpu fpv4-sp-d16
 105              	lv_objmask_design:
 106              	.LVL12:
 107              	.LFB464:
 207:lvgl/src/lv_widgets/lv_objmask.c ****     /*Return false if the object is not covers the mask_p area*/
 108              		.loc 1 207 1 is_stmt 1 view -0
 109              		.cfi_startproc
 110              		@ args = 0, pretend = 0, frame = 8
 111              		@ frame_needed = 0, uses_anonymous_args = 0
 207:lvgl/src/lv_widgets/lv_objmask.c ****     /*Return false if the object is not covers the mask_p area*/
 112              		.loc 1 207 1 is_stmt 0 view .LVU24
 113 0000 2DE9F047 		push	{r4, r5, r6, r7, r8, r9, r10, lr}
 114              	.LCFI0:
 115              		.cfi_def_cfa_offset 32
 116              		.cfi_offset 4, -32
 117              		.cfi_offset 5, -28
 118              		.cfi_offset 6, -24
 119              		.cfi_offset 7, -20
 120              		.cfi_offset 8, -16
 121              		.cfi_offset 9, -12
 122              		.cfi_offset 10, -8
 123              		.cfi_offset 14, -4
 124 0004 84B0     		sub	sp, sp, #16
 125              	.LCFI1:
 126              		.cfi_def_cfa_offset 48
 127 0006 0546     		mov	r5, r0
 128 0008 0E46     		mov	r6, r1
 129 000a 1446     		mov	r4, r2
 209:lvgl/src/lv_widgets/lv_objmask.c ****         lv_objmask_ext_t * ext = lv_obj_get_ext_attr(objmask);
 130              		.loc 1 209 5 is_stmt 1 view .LVU25
 209:lvgl/src/lv_widgets/lv_objmask.c ****         lv_objmask_ext_t * ext = lv_obj_get_ext_attr(objmask);
 131              		.loc 1 209 7 is_stmt 0 view .LVU26
 132 000c 022A     		cmp	r2, #2
 133 000e 12D0     		beq	.L26
 215:lvgl/src/lv_widgets/lv_objmask.c ****         ancestor_design(objmask, clip_area, mode);
 134              		.loc 1 215 10 is_stmt 1 view .LVU27
 215:lvgl/src/lv_widgets/lv_objmask.c ****         ancestor_design(objmask, clip_area, mode);
 135              		.loc 1 215 12 is_stmt 0 view .LVU28
 136 0010 002A     		cmp	r2, #0
 137 0012 40F0DE80 		bne	.L13
 138              	.LBB2:
 216:lvgl/src/lv_widgets/lv_objmask.c **** 
 139              		.loc 1 216 9 is_stmt 1 view .LVU29
 140 0016 7D4B     		ldr	r3, .L33
 141 0018 1B68     		ldr	r3, [r3]
 142 001a 9847     		blx	r3
 143              	.LVL13:
 218:lvgl/src/lv_widgets/lv_objmask.c **** 
ARM GAS  D:\Temp\ccdOzXIN.s 			page 10


 144              		.loc 1 218 9 view .LVU30
 218:lvgl/src/lv_widgets/lv_objmask.c **** 
 145              		.loc 1 218 34 is_stmt 0 view .LVU31
 146 001c 2846     		mov	r0, r5
 147 001e FFF7FEFF 		bl	lv_obj_get_ext_attr
 148              	.LVL14:
 220:lvgl/src/lv_widgets/lv_objmask.c ****         lv_coord_t yofs = objmask->coords.y1;
 149              		.loc 1 220 9 is_stmt 1 view .LVU32
 220:lvgl/src/lv_widgets/lv_objmask.c ****         lv_coord_t yofs = objmask->coords.y1;
 150              		.loc 1 220 20 is_stmt 0 view .LVU33
 151 0022 B5F91090 		ldrsh	r9, [r5, #16]
 152              	.LVL15:
 221:lvgl/src/lv_widgets/lv_objmask.c **** 
 153              		.loc 1 221 9 is_stmt 1 view .LVU34
 221:lvgl/src/lv_widgets/lv_objmask.c **** 
 154              		.loc 1 221 20 is_stmt 0 view .LVU35
 155 0026 B5F91280 		ldrsh	r8, [r5, #18]
 156              	.LVL16:
 223:lvgl/src/lv_widgets/lv_objmask.c **** 
 157              		.loc 1 223 9 is_stmt 1 view .LVU36
 225:lvgl/src/lv_widgets/lv_objmask.c ****             lv_draw_mask_common_dsc_t * dsc = m->param;
 158              		.loc 1 225 9 view .LVU37
 159 002a 071D     		adds	r7, r0, #4
 160 002c 3846     		mov	r0, r7
 161              	.LVL17:
 225:lvgl/src/lv_widgets/lv_objmask.c ****             lv_draw_mask_common_dsc_t * dsc = m->param;
 162              		.loc 1 225 9 is_stmt 0 view .LVU38
 163 002e FFF7FEFF 		bl	_lv_ll_get_head
 164              	.LVL18:
 225:lvgl/src/lv_widgets/lv_objmask.c ****             lv_draw_mask_common_dsc_t * dsc = m->param;
 165              		.loc 1 225 9 view .LVU39
 166 0032 0546     		mov	r5, r0
 167              	.LVL19:
 225:lvgl/src/lv_widgets/lv_objmask.c ****             lv_draw_mask_common_dsc_t * dsc = m->param;
 168              		.loc 1 225 9 view .LVU40
 169 0034 34E0     		b	.L14
 170              	.LVL20:
 171              	.L26:
 225:lvgl/src/lv_widgets/lv_objmask.c ****             lv_draw_mask_common_dsc_t * dsc = m->param;
 172              		.loc 1 225 9 view .LVU41
 173              	.LBE2:
 174              	.LBB10:
 210:lvgl/src/lv_widgets/lv_objmask.c ****         if(_lv_ll_get_len(&ext->mask_ll) > 0) return LV_DESIGN_RES_MASKED;
 175              		.loc 1 210 9 is_stmt 1 view .LVU42
 210:lvgl/src/lv_widgets/lv_objmask.c ****         if(_lv_ll_get_len(&ext->mask_ll) > 0) return LV_DESIGN_RES_MASKED;
 176              		.loc 1 210 34 is_stmt 0 view .LVU43
 177 0036 FFF7FEFF 		bl	lv_obj_get_ext_attr
 178              	.LVL21:
 211:lvgl/src/lv_widgets/lv_objmask.c ****         else return ancestor_design(objmask, clip_area, mode);
 179              		.loc 1 211 9 is_stmt 1 view .LVU44
 211:lvgl/src/lv_widgets/lv_objmask.c ****         else return ancestor_design(objmask, clip_area, mode);
 180              		.loc 1 211 12 is_stmt 0 view .LVU45
 181 003a 0430     		adds	r0, r0, #4
 182              	.LVL22:
 211:lvgl/src/lv_widgets/lv_objmask.c ****         else return ancestor_design(objmask, clip_area, mode);
 183              		.loc 1 211 12 view .LVU46
 184 003c FFF7FEFF 		bl	_lv_ll_get_len
ARM GAS  D:\Temp\ccdOzXIN.s 			page 11


 185              	.LVL23:
 211:lvgl/src/lv_widgets/lv_objmask.c ****         else return ancestor_design(objmask, clip_area, mode);
 186              		.loc 1 211 11 view .LVU47
 187 0040 0028     		cmp	r0, #0
 188 0042 40F0E080 		bne	.L23
 212:lvgl/src/lv_widgets/lv_objmask.c ****     }
 189              		.loc 1 212 14 is_stmt 1 view .LVU48
 212:lvgl/src/lv_widgets/lv_objmask.c ****     }
 190              		.loc 1 212 21 is_stmt 0 view .LVU49
 191 0046 714B     		ldr	r3, .L33
 192 0048 1B68     		ldr	r3, [r3]
 193 004a 2246     		mov	r2, r4
 194 004c 3146     		mov	r1, r6
 195 004e 2846     		mov	r0, r5
 196 0050 9847     		blx	r3
 197              	.LVL24:
 198 0052 BBE0     		b	.L12
 199              	.LVL25:
 200              	.L28:
 212:lvgl/src/lv_widgets/lv_objmask.c ****     }
 201              		.loc 1 212 21 view .LVU50
 202              	.LBE10:
 203              	.LBB11:
 204              	.LBB3:
 205              	.LBB4:
 229:lvgl/src/lv_widgets/lv_objmask.c ****                 lv_draw_mask_line_param_t * p_new = _lv_mem_buf_get(sizeof(lv_draw_mask_line_param_
 206              		.loc 1 229 17 is_stmt 1 view .LVU51
 230:lvgl/src/lv_widgets/lv_objmask.c **** 
 207              		.loc 1 230 17 view .LVU52
 230:lvgl/src/lv_widgets/lv_objmask.c **** 
 208              		.loc 1 230 53 is_stmt 0 view .LVU53
 209 0054 2C20     		movs	r0, #44
 210              	.LVL26:
 230:lvgl/src/lv_widgets/lv_objmask.c **** 
 211              		.loc 1 230 53 view .LVU54
 212 0056 FFF7FEFF 		bl	_lv_mem_buf_get
 213              	.LVL27:
 214 005a 8246     		mov	r10, r0
 215              	.LVL28:
 232:lvgl/src/lv_widgets/lv_objmask.c ****                                               p_ori->cfg.p2.x + xofs, p_ori->cfg.p2.y + yofs,
 216              		.loc 1 232 17 is_stmt 1 view .LVU55
 232:lvgl/src/lv_widgets/lv_objmask.c ****                                               p_ori->cfg.p2.x + xofs, p_ori->cfg.p2.y + yofs,
 217              		.loc 1 232 67 is_stmt 0 view .LVU56
 218 005c 2189     		ldrh	r1, [r4, #8]
 232:lvgl/src/lv_widgets/lv_objmask.c ****                                               p_ori->cfg.p2.x + xofs, p_ori->cfg.p2.y + yofs,
 219              		.loc 1 232 70 view .LVU57
 220 005e 1FFA89F3 		uxth	r3, r9
 221 0062 1944     		add	r1, r1, r3
 232:lvgl/src/lv_widgets/lv_objmask.c ****                                               p_ori->cfg.p2.x + xofs, p_ori->cfg.p2.y + yofs,
 222              		.loc 1 232 91 view .LVU58
 223 0064 6289     		ldrh	r2, [r4, #10]
 232:lvgl/src/lv_widgets/lv_objmask.c ****                                               p_ori->cfg.p2.x + xofs, p_ori->cfg.p2.y + yofs,
 224              		.loc 1 232 94 view .LVU59
 225 0066 1FFA88F6 		uxth	r6, r8
 226 006a 3244     		add	r2, r2, r6
 233:lvgl/src/lv_widgets/lv_objmask.c ****                                               p_ori->cfg.side);
 227              		.loc 1 233 60 view .LVU60
ARM GAS  D:\Temp\ccdOzXIN.s 			page 12


 228 006c B4F80CC0 		ldrh	ip, [r4, #12]
 233:lvgl/src/lv_widgets/lv_objmask.c ****                                               p_ori->cfg.side);
 229              		.loc 1 233 63 view .LVU61
 230 0070 6344     		add	r3, r3, ip
 233:lvgl/src/lv_widgets/lv_objmask.c ****                                               p_ori->cfg.side);
 231              		.loc 1 233 84 view .LVU62
 232 0072 B4F80EC0 		ldrh	ip, [r4, #14]
 233:lvgl/src/lv_widgets/lv_objmask.c ****                                               p_ori->cfg.side);
 233              		.loc 1 233 87 view .LVU63
 234 0076 6644     		add	r6, r6, ip
 234:lvgl/src/lv_widgets/lv_objmask.c ****                 lv_draw_mask_add(p_new, m->param);
 235              		.loc 1 234 57 view .LVU64
 236 0078 247C     		ldrb	r4, [r4, #16]	@ zero_extendqisi2
 237              	.LVL29:
 234:lvgl/src/lv_widgets/lv_objmask.c ****                 lv_draw_mask_add(p_new, m->param);
 238              		.loc 1 234 57 view .LVU65
 239 007a 04F00304 		and	r4, r4, #3
 232:lvgl/src/lv_widgets/lv_objmask.c ****                                               p_ori->cfg.p2.x + xofs, p_ori->cfg.p2.y + yofs,
 240              		.loc 1 232 17 view .LVU66
 241 007e 0194     		str	r4, [sp, #4]
 242 0080 36B2     		sxth	r6, r6
 243 0082 0096     		str	r6, [sp]
 244 0084 1BB2     		sxth	r3, r3
 245 0086 12B2     		sxth	r2, r2
 246 0088 09B2     		sxth	r1, r1
 247 008a FFF7FEFF 		bl	lv_draw_mask_line_points_init
 248              	.LVL30:
 235:lvgl/src/lv_widgets/lv_objmask.c ****             }
 249              		.loc 1 235 17 is_stmt 1 view .LVU67
 250 008e 2968     		ldr	r1, [r5]
 251 0090 5046     		mov	r0, r10
 252 0092 FFF7FEFF 		bl	lv_draw_mask_add
 253              	.LVL31:
 254              	.L16:
 235:lvgl/src/lv_widgets/lv_objmask.c ****             }
 255              		.loc 1 235 17 is_stmt 0 view .LVU68
 256              	.LBE4:
 257              	.LBE3:
 225:lvgl/src/lv_widgets/lv_objmask.c ****             lv_draw_mask_common_dsc_t * dsc = m->param;
 258              		.loc 1 225 9 discriminator 2 view .LVU69
 259 0096 2946     		mov	r1, r5
 260 0098 3846     		mov	r0, r7
 261 009a FFF7FEFF 		bl	_lv_ll_get_next
 262              	.LVL32:
 263 009e 0546     		mov	r5, r0
 264              	.LVL33:
 265              	.L14:
 225:lvgl/src/lv_widgets/lv_objmask.c ****             lv_draw_mask_common_dsc_t * dsc = m->param;
 266              		.loc 1 225 9 discriminator 1 view .LVU70
 267 00a0 002D     		cmp	r5, #0
 268 00a2 00F09280 		beq	.L27
 269              	.LBB9:
 226:lvgl/src/lv_widgets/lv_objmask.c **** 
 270              		.loc 1 226 13 is_stmt 1 view .LVU71
 226:lvgl/src/lv_widgets/lv_objmask.c **** 
 271              		.loc 1 226 41 is_stmt 0 view .LVU72
 272 00a6 2C68     		ldr	r4, [r5]
ARM GAS  D:\Temp\ccdOzXIN.s 			page 13


 273              	.LVL34:
 228:lvgl/src/lv_widgets/lv_objmask.c ****                 lv_draw_mask_line_param_t * p_ori = m->param;
 274              		.loc 1 228 13 is_stmt 1 view .LVU73
 228:lvgl/src/lv_widgets/lv_objmask.c ****                 lv_draw_mask_line_param_t * p_ori = m->param;
 275              		.loc 1 228 19 is_stmt 0 view .LVU74
 276 00a8 2379     		ldrb	r3, [r4, #4]	@ zero_extendqisi2
 228:lvgl/src/lv_widgets/lv_objmask.c ****                 lv_draw_mask_line_param_t * p_ori = m->param;
 277              		.loc 1 228 15 view .LVU75
 278 00aa 002B     		cmp	r3, #0
 279 00ac D2D0     		beq	.L28
 237:lvgl/src/lv_widgets/lv_objmask.c ****                 lv_draw_mask_angle_param_t * p_ori = m->param;
 280              		.loc 1 237 18 is_stmt 1 view .LVU76
 237:lvgl/src/lv_widgets/lv_objmask.c ****                 lv_draw_mask_angle_param_t * p_ori = m->param;
 281              		.loc 1 237 20 is_stmt 0 view .LVU77
 282 00ae 012B     		cmp	r3, #1
 283 00b0 26D0     		beq	.L29
 245:lvgl/src/lv_widgets/lv_objmask.c ****                 lv_draw_mask_radius_param_t * p_ori = m->param;
 284              		.loc 1 245 18 is_stmt 1 view .LVU78
 245:lvgl/src/lv_widgets/lv_objmask.c ****                 lv_draw_mask_radius_param_t * p_ori = m->param;
 285              		.loc 1 245 20 is_stmt 0 view .LVU79
 286 00b2 022B     		cmp	r3, #2
 287 00b4 3AD0     		beq	.L30
 258:lvgl/src/lv_widgets/lv_objmask.c ****                 lv_draw_mask_fade_param_t * p_ori = m->param;
 288              		.loc 1 258 18 is_stmt 1 view .LVU80
 258:lvgl/src/lv_widgets/lv_objmask.c ****                 lv_draw_mask_fade_param_t * p_ori = m->param;
 289              		.loc 1 258 20 is_stmt 0 view .LVU81
 290 00b6 032B     		cmp	r3, #3
 291 00b8 5DD0     		beq	.L31
 272:lvgl/src/lv_widgets/lv_objmask.c ****                 lv_draw_mask_map_param_t * p_ori = m->param;
 292              		.loc 1 272 18 is_stmt 1 view .LVU82
 272:lvgl/src/lv_widgets/lv_objmask.c ****                 lv_draw_mask_map_param_t * p_ori = m->param;
 293              		.loc 1 272 20 is_stmt 0 view .LVU83
 294 00ba 042B     		cmp	r3, #4
 295 00bc EBD1     		bne	.L16
 296              	.LBB5:
 273:lvgl/src/lv_widgets/lv_objmask.c ****                 lv_draw_mask_map_param_t * p_new = _lv_mem_buf_get(sizeof(lv_draw_mask_map_param_t)
 297              		.loc 1 273 17 is_stmt 1 view .LVU84
 298              	.LVL35:
 274:lvgl/src/lv_widgets/lv_objmask.c **** 
 299              		.loc 1 274 17 view .LVU85
 274:lvgl/src/lv_widgets/lv_objmask.c **** 
 300              		.loc 1 274 52 is_stmt 0 view .LVU86
 301 00be 1420     		movs	r0, #20
 302              	.LVL36:
 274:lvgl/src/lv_widgets/lv_objmask.c **** 
 303              		.loc 1 274 52 view .LVU87
 304 00c0 FFF7FEFF 		bl	_lv_mem_buf_get
 305              	.LVL37:
 306 00c4 0646     		mov	r6, r0
 307              	.LVL38:
 276:lvgl/src/lv_widgets/lv_objmask.c ****                 rect.x1 = p_ori->cfg.coords.x1 + xofs;
 308              		.loc 1 276 17 is_stmt 1 view .LVU88
 277:lvgl/src/lv_widgets/lv_objmask.c ****                 rect.y1 = p_ori->cfg.coords.y1 + yofs;
 309              		.loc 1 277 17 view .LVU89
 277:lvgl/src/lv_widgets/lv_objmask.c ****                 rect.y1 = p_ori->cfg.coords.y1 + yofs;
 310              		.loc 1 277 44 is_stmt 0 view .LVU90
 311 00c6 2389     		ldrh	r3, [r4, #8]
ARM GAS  D:\Temp\ccdOzXIN.s 			page 14


 277:lvgl/src/lv_widgets/lv_objmask.c ****                 rect.y1 = p_ori->cfg.coords.y1 + yofs;
 312              		.loc 1 277 48 view .LVU91
 313 00c8 1FFA89F2 		uxth	r2, r9
 314 00cc 1344     		add	r3, r3, r2
 277:lvgl/src/lv_widgets/lv_objmask.c ****                 rect.y1 = p_ori->cfg.coords.y1 + yofs;
 315              		.loc 1 277 25 view .LVU92
 316 00ce ADF80830 		strh	r3, [sp, #8]	@ movhi
 278:lvgl/src/lv_widgets/lv_objmask.c ****                 rect.x2 = p_ori->cfg.coords.x2 + xofs;
 317              		.loc 1 278 17 is_stmt 1 view .LVU93
 278:lvgl/src/lv_widgets/lv_objmask.c ****                 rect.x2 = p_ori->cfg.coords.x2 + xofs;
 318              		.loc 1 278 44 is_stmt 0 view .LVU94
 319 00d2 6189     		ldrh	r1, [r4, #10]
 278:lvgl/src/lv_widgets/lv_objmask.c ****                 rect.x2 = p_ori->cfg.coords.x2 + xofs;
 320              		.loc 1 278 48 view .LVU95
 321 00d4 1FFA88F3 		uxth	r3, r8
 322 00d8 1944     		add	r1, r1, r3
 278:lvgl/src/lv_widgets/lv_objmask.c ****                 rect.x2 = p_ori->cfg.coords.x2 + xofs;
 323              		.loc 1 278 25 view .LVU96
 324 00da ADF80A10 		strh	r1, [sp, #10]	@ movhi
 279:lvgl/src/lv_widgets/lv_objmask.c ****                 rect.y2 = p_ori->cfg.coords.y2 + yofs;
 325              		.loc 1 279 17 is_stmt 1 view .LVU97
 279:lvgl/src/lv_widgets/lv_objmask.c ****                 rect.y2 = p_ori->cfg.coords.y2 + yofs;
 326              		.loc 1 279 44 is_stmt 0 view .LVU98
 327 00de A189     		ldrh	r1, [r4, #12]
 279:lvgl/src/lv_widgets/lv_objmask.c ****                 rect.y2 = p_ori->cfg.coords.y2 + yofs;
 328              		.loc 1 279 48 view .LVU99
 329 00e0 0A44     		add	r2, r2, r1
 279:lvgl/src/lv_widgets/lv_objmask.c ****                 rect.y2 = p_ori->cfg.coords.y2 + yofs;
 330              		.loc 1 279 25 view .LVU100
 331 00e2 ADF80C20 		strh	r2, [sp, #12]	@ movhi
 280:lvgl/src/lv_widgets/lv_objmask.c **** 
 332              		.loc 1 280 17 is_stmt 1 view .LVU101
 280:lvgl/src/lv_widgets/lv_objmask.c **** 
 333              		.loc 1 280 44 is_stmt 0 view .LVU102
 334 00e6 E289     		ldrh	r2, [r4, #14]
 280:lvgl/src/lv_widgets/lv_objmask.c **** 
 335              		.loc 1 280 48 view .LVU103
 336 00e8 1344     		add	r3, r3, r2
 280:lvgl/src/lv_widgets/lv_objmask.c **** 
 337              		.loc 1 280 25 view .LVU104
 338 00ea ADF80E30 		strh	r3, [sp, #14]	@ movhi
 282:lvgl/src/lv_widgets/lv_objmask.c ****                 lv_draw_mask_add(p_new, m->param);
 339              		.loc 1 282 17 is_stmt 1 view .LVU105
 340 00ee 2269     		ldr	r2, [r4, #16]
 341 00f0 02A9     		add	r1, sp, #8
 342 00f2 FFF7FEFF 		bl	lv_draw_mask_map_init
 343              	.LVL39:
 283:lvgl/src/lv_widgets/lv_objmask.c ****             }
 344              		.loc 1 283 17 view .LVU106
 345 00f6 2968     		ldr	r1, [r5]
 346 00f8 3046     		mov	r0, r6
 347 00fa FFF7FEFF 		bl	lv_draw_mask_add
 348              	.LVL40:
 349 00fe CAE7     		b	.L16
 350              	.LVL41:
 351              	.L29:
 283:lvgl/src/lv_widgets/lv_objmask.c ****             }
ARM GAS  D:\Temp\ccdOzXIN.s 			page 15


 352              		.loc 1 283 17 is_stmt 0 view .LVU107
 353              	.LBE5:
 354              	.LBB6:
 238:lvgl/src/lv_widgets/lv_objmask.c ****                 lv_draw_mask_angle_param_t * p_new = _lv_mem_buf_get(sizeof(lv_draw_mask_angle_para
 355              		.loc 1 238 17 is_stmt 1 view .LVU108
 239:lvgl/src/lv_widgets/lv_objmask.c **** 
 356              		.loc 1 239 17 view .LVU109
 239:lvgl/src/lv_widgets/lv_objmask.c **** 
 357              		.loc 1 239 54 is_stmt 0 view .LVU110
 358 0100 6C20     		movs	r0, #108
 359              	.LVL42:
 239:lvgl/src/lv_widgets/lv_objmask.c **** 
 360              		.loc 1 239 54 view .LVU111
 361 0102 FFF7FEFF 		bl	_lv_mem_buf_get
 362              	.LVL43:
 363 0106 0646     		mov	r6, r0
 364              	.LVL44:
 241:lvgl/src/lv_widgets/lv_objmask.c ****                                         p_ori->cfg.start_angle, p_ori->cfg.end_angle);
 365              		.loc 1 241 17 is_stmt 1 view .LVU112
 241:lvgl/src/lv_widgets/lv_objmask.c ****                                         p_ori->cfg.start_angle, p_ori->cfg.end_angle);
 366              		.loc 1 241 67 is_stmt 0 view .LVU113
 367 0108 2189     		ldrh	r1, [r4, #8]
 241:lvgl/src/lv_widgets/lv_objmask.c ****                                         p_ori->cfg.start_angle, p_ori->cfg.end_angle);
 368              		.loc 1 241 70 view .LVU114
 369 010a 4944     		add	r1, r1, r9
 241:lvgl/src/lv_widgets/lv_objmask.c ****                                         p_ori->cfg.start_angle, p_ori->cfg.end_angle);
 370              		.loc 1 241 97 view .LVU115
 371 010c 6289     		ldrh	r2, [r4, #10]
 241:lvgl/src/lv_widgets/lv_objmask.c ****                                         p_ori->cfg.start_angle, p_ori->cfg.end_angle);
 372              		.loc 1 241 100 view .LVU116
 373 010e 4244     		add	r2, r2, r8
 241:lvgl/src/lv_widgets/lv_objmask.c ****                                         p_ori->cfg.start_angle, p_ori->cfg.end_angle);
 374              		.loc 1 241 17 view .LVU117
 375 0110 B4F90C30 		ldrsh	r3, [r4, #12]
 376 0114 B4F90E40 		ldrsh	r4, [r4, #14]
 377              	.LVL45:
 241:lvgl/src/lv_widgets/lv_objmask.c ****                                         p_ori->cfg.start_angle, p_ori->cfg.end_angle);
 378              		.loc 1 241 17 view .LVU118
 379 0118 0094     		str	r4, [sp]
 380 011a 12B2     		sxth	r2, r2
 381 011c 09B2     		sxth	r1, r1
 382 011e FFF7FEFF 		bl	lv_draw_mask_angle_init
 383              	.LVL46:
 243:lvgl/src/lv_widgets/lv_objmask.c ****             }
 384              		.loc 1 243 17 is_stmt 1 view .LVU119
 385 0122 2968     		ldr	r1, [r5]
 386 0124 3046     		mov	r0, r6
 387 0126 FFF7FEFF 		bl	lv_draw_mask_add
 388              	.LVL47:
 389              	.LBE6:
 390 012a B4E7     		b	.L16
 391              	.LVL48:
 392              	.L30:
 393              	.LBB7:
 246:lvgl/src/lv_widgets/lv_objmask.c ****                 lv_draw_mask_radius_param_t * p_new = _lv_mem_buf_get(sizeof(lv_draw_mask_radius_pa
 394              		.loc 1 246 17 view .LVU120
 247:lvgl/src/lv_widgets/lv_objmask.c **** 
ARM GAS  D:\Temp\ccdOzXIN.s 			page 16


 395              		.loc 1 247 17 view .LVU121
 247:lvgl/src/lv_widgets/lv_objmask.c **** 
 396              		.loc 1 247 55 is_stmt 0 view .LVU122
 397 012c 1C20     		movs	r0, #28
 398              	.LVL49:
 247:lvgl/src/lv_widgets/lv_objmask.c **** 
 399              		.loc 1 247 55 view .LVU123
 400 012e FFF7FEFF 		bl	_lv_mem_buf_get
 401              	.LVL50:
 402 0132 0646     		mov	r6, r0
 403              	.LVL51:
 249:lvgl/src/lv_widgets/lv_objmask.c ****                 rect.x1 = p_ori->cfg.rect.x1 + xofs;
 404              		.loc 1 249 17 is_stmt 1 view .LVU124
 250:lvgl/src/lv_widgets/lv_objmask.c ****                 rect.y1 = p_ori->cfg.rect.y1 + yofs;
 405              		.loc 1 250 17 view .LVU125
 250:lvgl/src/lv_widgets/lv_objmask.c ****                 rect.y1 = p_ori->cfg.rect.y1 + yofs;
 406              		.loc 1 250 42 is_stmt 0 view .LVU126
 407 0134 2389     		ldrh	r3, [r4, #8]
 250:lvgl/src/lv_widgets/lv_objmask.c ****                 rect.y1 = p_ori->cfg.rect.y1 + yofs;
 408              		.loc 1 250 46 view .LVU127
 409 0136 1FFA89F2 		uxth	r2, r9
 410 013a 1344     		add	r3, r3, r2
 250:lvgl/src/lv_widgets/lv_objmask.c ****                 rect.y1 = p_ori->cfg.rect.y1 + yofs;
 411              		.loc 1 250 25 view .LVU128
 412 013c ADF80830 		strh	r3, [sp, #8]	@ movhi
 251:lvgl/src/lv_widgets/lv_objmask.c ****                 rect.x2 = p_ori->cfg.rect.x2 + xofs;
 413              		.loc 1 251 17 is_stmt 1 view .LVU129
 251:lvgl/src/lv_widgets/lv_objmask.c ****                 rect.x2 = p_ori->cfg.rect.x2 + xofs;
 414              		.loc 1 251 42 is_stmt 0 view .LVU130
 415 0140 6189     		ldrh	r1, [r4, #10]
 251:lvgl/src/lv_widgets/lv_objmask.c ****                 rect.x2 = p_ori->cfg.rect.x2 + xofs;
 416              		.loc 1 251 46 view .LVU131
 417 0142 1FFA88F3 		uxth	r3, r8
 418 0146 1944     		add	r1, r1, r3
 251:lvgl/src/lv_widgets/lv_objmask.c ****                 rect.x2 = p_ori->cfg.rect.x2 + xofs;
 419              		.loc 1 251 25 view .LVU132
 420 0148 ADF80A10 		strh	r1, [sp, #10]	@ movhi
 252:lvgl/src/lv_widgets/lv_objmask.c ****                 rect.y2 = p_ori->cfg.rect.y2 + yofs;
 421              		.loc 1 252 17 is_stmt 1 view .LVU133
 252:lvgl/src/lv_widgets/lv_objmask.c ****                 rect.y2 = p_ori->cfg.rect.y2 + yofs;
 422              		.loc 1 252 42 is_stmt 0 view .LVU134
 423 014c A189     		ldrh	r1, [r4, #12]
 252:lvgl/src/lv_widgets/lv_objmask.c ****                 rect.y2 = p_ori->cfg.rect.y2 + yofs;
 424              		.loc 1 252 46 view .LVU135
 425 014e 0A44     		add	r2, r2, r1
 252:lvgl/src/lv_widgets/lv_objmask.c ****                 rect.y2 = p_ori->cfg.rect.y2 + yofs;
 426              		.loc 1 252 25 view .LVU136
 427 0150 ADF80C20 		strh	r2, [sp, #12]	@ movhi
 253:lvgl/src/lv_widgets/lv_objmask.c **** 
 428              		.loc 1 253 17 is_stmt 1 view .LVU137
 253:lvgl/src/lv_widgets/lv_objmask.c **** 
 429              		.loc 1 253 42 is_stmt 0 view .LVU138
 430 0154 E289     		ldrh	r2, [r4, #14]
 253:lvgl/src/lv_widgets/lv_objmask.c **** 
 431              		.loc 1 253 46 view .LVU139
 432 0156 1344     		add	r3, r3, r2
 253:lvgl/src/lv_widgets/lv_objmask.c **** 
ARM GAS  D:\Temp\ccdOzXIN.s 			page 17


 433              		.loc 1 253 25 view .LVU140
 434 0158 ADF80E30 		strh	r3, [sp, #14]	@ movhi
 255:lvgl/src/lv_widgets/lv_objmask.c ****                 lv_draw_mask_add(p_new, m->param);
 435              		.loc 1 255 17 is_stmt 1 view .LVU141
 255:lvgl/src/lv_widgets/lv_objmask.c ****                 lv_draw_mask_add(p_new, m->param);
 436              		.loc 1 255 85 is_stmt 0 view .LVU142
 437 015c A37C     		ldrb	r3, [r4, #18]	@ zero_extendqisi2
 255:lvgl/src/lv_widgets/lv_objmask.c ****                 lv_draw_mask_add(p_new, m->param);
 438              		.loc 1 255 17 view .LVU143
 439 015e 03F00103 		and	r3, r3, #1
 440 0162 B4F91020 		ldrsh	r2, [r4, #16]
 441 0166 02A9     		add	r1, sp, #8
 442 0168 FFF7FEFF 		bl	lv_draw_mask_radius_init
 443              	.LVL52:
 256:lvgl/src/lv_widgets/lv_objmask.c ****             }
 444              		.loc 1 256 17 is_stmt 1 view .LVU144
 445 016c 2968     		ldr	r1, [r5]
 446 016e 3046     		mov	r0, r6
 447 0170 FFF7FEFF 		bl	lv_draw_mask_add
 448              	.LVL53:
 449              	.LBE7:
 450 0174 8FE7     		b	.L16
 451              	.LVL54:
 452              	.L31:
 453              	.LBB8:
 259:lvgl/src/lv_widgets/lv_objmask.c ****                 lv_draw_mask_fade_param_t * p_new = _lv_mem_buf_get(sizeof(lv_draw_mask_fade_param_
 454              		.loc 1 259 17 view .LVU145
 260:lvgl/src/lv_widgets/lv_objmask.c **** 
 455              		.loc 1 260 17 view .LVU146
 260:lvgl/src/lv_widgets/lv_objmask.c **** 
 456              		.loc 1 260 53 is_stmt 0 view .LVU147
 457 0176 1820     		movs	r0, #24
 458              	.LVL55:
 260:lvgl/src/lv_widgets/lv_objmask.c **** 
 459              		.loc 1 260 53 view .LVU148
 460 0178 FFF7FEFF 		bl	_lv_mem_buf_get
 461              	.LVL56:
 462 017c 0646     		mov	r6, r0
 463              	.LVL57:
 262:lvgl/src/lv_widgets/lv_objmask.c ****                 rect.x1 = p_ori->cfg.coords.x1 + xofs;
 464              		.loc 1 262 17 is_stmt 1 view .LVU149
 263:lvgl/src/lv_widgets/lv_objmask.c ****                 rect.y1 = p_ori->cfg.coords.y1 + yofs;
 465              		.loc 1 263 17 view .LVU150
 263:lvgl/src/lv_widgets/lv_objmask.c ****                 rect.y1 = p_ori->cfg.coords.y1 + yofs;
 466              		.loc 1 263 44 is_stmt 0 view .LVU151
 467 017e 2289     		ldrh	r2, [r4, #8]
 263:lvgl/src/lv_widgets/lv_objmask.c ****                 rect.y1 = p_ori->cfg.coords.y1 + yofs;
 468              		.loc 1 263 48 view .LVU152
 469 0180 1FFA89F3 		uxth	r3, r9
 470 0184 1A44     		add	r2, r2, r3
 263:lvgl/src/lv_widgets/lv_objmask.c ****                 rect.y1 = p_ori->cfg.coords.y1 + yofs;
 471              		.loc 1 263 25 view .LVU153
 472 0186 ADF80820 		strh	r2, [sp, #8]	@ movhi
 264:lvgl/src/lv_widgets/lv_objmask.c ****                 rect.x2 = p_ori->cfg.coords.x2 + xofs;
 473              		.loc 1 264 17 is_stmt 1 view .LVU154
 264:lvgl/src/lv_widgets/lv_objmask.c ****                 rect.x2 = p_ori->cfg.coords.x2 + xofs;
 474              		.loc 1 264 44 is_stmt 0 view .LVU155
ARM GAS  D:\Temp\ccdOzXIN.s 			page 18


 475 018a 6189     		ldrh	r1, [r4, #10]
 264:lvgl/src/lv_widgets/lv_objmask.c ****                 rect.x2 = p_ori->cfg.coords.x2 + xofs;
 476              		.loc 1 264 48 view .LVU156
 477 018c 1FFA88F2 		uxth	r2, r8
 478 0190 1144     		add	r1, r1, r2
 264:lvgl/src/lv_widgets/lv_objmask.c ****                 rect.x2 = p_ori->cfg.coords.x2 + xofs;
 479              		.loc 1 264 25 view .LVU157
 480 0192 ADF80A10 		strh	r1, [sp, #10]	@ movhi
 265:lvgl/src/lv_widgets/lv_objmask.c ****                 rect.y2 = p_ori->cfg.coords.y2 + yofs;
 481              		.loc 1 265 17 is_stmt 1 view .LVU158
 265:lvgl/src/lv_widgets/lv_objmask.c ****                 rect.y2 = p_ori->cfg.coords.y2 + yofs;
 482              		.loc 1 265 44 is_stmt 0 view .LVU159
 483 0196 A189     		ldrh	r1, [r4, #12]
 265:lvgl/src/lv_widgets/lv_objmask.c ****                 rect.y2 = p_ori->cfg.coords.y2 + yofs;
 484              		.loc 1 265 48 view .LVU160
 485 0198 0B44     		add	r3, r3, r1
 265:lvgl/src/lv_widgets/lv_objmask.c ****                 rect.y2 = p_ori->cfg.coords.y2 + yofs;
 486              		.loc 1 265 25 view .LVU161
 487 019a ADF80C30 		strh	r3, [sp, #12]	@ movhi
 266:lvgl/src/lv_widgets/lv_objmask.c **** 
 488              		.loc 1 266 17 is_stmt 1 view .LVU162
 266:lvgl/src/lv_widgets/lv_objmask.c **** 
 489              		.loc 1 266 44 is_stmt 0 view .LVU163
 490 019e E389     		ldrh	r3, [r4, #14]
 266:lvgl/src/lv_widgets/lv_objmask.c **** 
 491              		.loc 1 266 48 view .LVU164
 492 01a0 1344     		add	r3, r3, r2
 266:lvgl/src/lv_widgets/lv_objmask.c **** 
 493              		.loc 1 266 25 view .LVU165
 494 01a2 ADF80E30 		strh	r3, [sp, #14]	@ movhi
 268:lvgl/src/lv_widgets/lv_objmask.c ****                                        p_ori->cfg.opa_bottom, p_ori->cfg.y_bottom + yofs);
 495              		.loc 1 268 17 is_stmt 1 view .LVU166
 268:lvgl/src/lv_widgets/lv_objmask.c ****                                        p_ori->cfg.opa_bottom, p_ori->cfg.y_bottom + yofs);
 496              		.loc 1 268 84 is_stmt 0 view .LVU167
 497 01a6 238A     		ldrh	r3, [r4, #16]
 268:lvgl/src/lv_widgets/lv_objmask.c ****                                        p_ori->cfg.opa_bottom, p_ori->cfg.y_bottom + yofs);
 498              		.loc 1 268 91 view .LVU168
 499 01a8 1344     		add	r3, r3, r2
 269:lvgl/src/lv_widgets/lv_objmask.c ****                 lv_draw_mask_add(p_new, m->param);
 500              		.loc 1 269 73 view .LVU169
 501 01aa 618A     		ldrh	r1, [r4, #18]
 269:lvgl/src/lv_widgets/lv_objmask.c ****                 lv_draw_mask_add(p_new, m->param);
 502              		.loc 1 269 83 view .LVU170
 503 01ac 1144     		add	r1, r1, r2
 268:lvgl/src/lv_widgets/lv_objmask.c ****                                        p_ori->cfg.opa_bottom, p_ori->cfg.y_bottom + yofs);
 504              		.loc 1 268 17 view .LVU171
 505 01ae 227D     		ldrb	r2, [r4, #20]	@ zero_extendqisi2
 506 01b0 09B2     		sxth	r1, r1
 507 01b2 0191     		str	r1, [sp, #4]
 508 01b4 617D     		ldrb	r1, [r4, #21]	@ zero_extendqisi2
 509 01b6 0091     		str	r1, [sp]
 510 01b8 1BB2     		sxth	r3, r3
 511 01ba 02A9     		add	r1, sp, #8
 512 01bc FFF7FEFF 		bl	lv_draw_mask_fade_init
 513              	.LVL58:
 270:lvgl/src/lv_widgets/lv_objmask.c ****             }
 514              		.loc 1 270 17 is_stmt 1 view .LVU172
ARM GAS  D:\Temp\ccdOzXIN.s 			page 19


 515 01c0 2968     		ldr	r1, [r5]
 516 01c2 3046     		mov	r0, r6
 517 01c4 FFF7FEFF 		bl	lv_draw_mask_add
 518              	.LVL59:
 519              	.LBE8:
 520 01c8 65E7     		b	.L16
 521              	.LVL60:
 522              	.L27:
 270:lvgl/src/lv_widgets/lv_objmask.c ****             }
 523              		.loc 1 270 17 is_stmt 0 view .LVU173
 524              	.LBE9:
 525              	.LBE11:
 302:lvgl/src/lv_widgets/lv_objmask.c **** }
 526              		.loc 1 302 12 view .LVU174
 527 01ca 0020     		movs	r0, #0
 528              	.LVL61:
 529              	.L12:
 303:lvgl/src/lv_widgets/lv_objmask.c **** 
 530              		.loc 1 303 1 view .LVU175
 531 01cc 04B0     		add	sp, sp, #16
 532              	.LCFI2:
 533              		.cfi_remember_state
 534              		.cfi_def_cfa_offset 32
 535              		@ sp needed
 536 01ce BDE8F087 		pop	{r4, r5, r6, r7, r8, r9, r10, pc}
 537              	.LVL62:
 538              	.L13:
 539              	.LCFI3:
 540              		.cfi_restore_state
 289:lvgl/src/lv_widgets/lv_objmask.c ****         lv_objmask_ext_t * ext = lv_obj_get_ext_attr(objmask);
 541              		.loc 1 289 10 is_stmt 1 view .LVU176
 289:lvgl/src/lv_widgets/lv_objmask.c ****         lv_objmask_ext_t * ext = lv_obj_get_ext_attr(objmask);
 542              		.loc 1 289 12 is_stmt 0 view .LVU177
 543 01d2 012A     		cmp	r2, #1
 544 01d4 01D0     		beq	.L32
 302:lvgl/src/lv_widgets/lv_objmask.c **** }
 545              		.loc 1 302 12 view .LVU178
 546 01d6 0020     		movs	r0, #0
 547              	.LVL63:
 302:lvgl/src/lv_widgets/lv_objmask.c **** }
 548              		.loc 1 302 12 view .LVU179
 549 01d8 F8E7     		b	.L12
 550              	.LVL64:
 551              	.L32:
 552              	.LBB12:
 290:lvgl/src/lv_widgets/lv_objmask.c **** 
 553              		.loc 1 290 9 is_stmt 1 view .LVU180
 290:lvgl/src/lv_widgets/lv_objmask.c **** 
 554              		.loc 1 290 34 is_stmt 0 view .LVU181
 555 01da FFF7FEFF 		bl	lv_obj_get_ext_attr
 556              	.LVL65:
 292:lvgl/src/lv_widgets/lv_objmask.c **** 
 557              		.loc 1 292 9 is_stmt 1 view .LVU182
 294:lvgl/src/lv_widgets/lv_objmask.c ****             void * param;
 558              		.loc 1 294 9 view .LVU183
 559 01de 051D     		adds	r5, r0, #4
 560              	.LVL66:
ARM GAS  D:\Temp\ccdOzXIN.s 			page 20


 294:lvgl/src/lv_widgets/lv_objmask.c ****             void * param;
 561              		.loc 1 294 9 is_stmt 0 view .LVU184
 562 01e0 2846     		mov	r0, r5
 563              	.LVL67:
 294:lvgl/src/lv_widgets/lv_objmask.c ****             void * param;
 564              		.loc 1 294 9 view .LVU185
 565 01e2 FFF7FEFF 		bl	_lv_ll_get_head
 566              	.LVL68:
 294:lvgl/src/lv_widgets/lv_objmask.c ****             void * param;
 567              		.loc 1 294 9 view .LVU186
 568 01e6 0446     		mov	r4, r0
 569              	.LVL69:
 294:lvgl/src/lv_widgets/lv_objmask.c ****             void * param;
 570              		.loc 1 294 9 view .LVU187
 571 01e8 09E0     		b	.L21
 572              	.L22:
 573              	.LBB13:
 295:lvgl/src/lv_widgets/lv_objmask.c ****             param = lv_draw_mask_remove_custom(m->param);
 574              		.loc 1 295 13 is_stmt 1 discriminator 3 view .LVU188
 296:lvgl/src/lv_widgets/lv_objmask.c ****             _lv_mem_buf_release(param);
 575              		.loc 1 296 13 discriminator 3 view .LVU189
 296:lvgl/src/lv_widgets/lv_objmask.c ****             _lv_mem_buf_release(param);
 576              		.loc 1 296 21 is_stmt 0 discriminator 3 view .LVU190
 577 01ea 2068     		ldr	r0, [r4]
 578              	.LVL70:
 296:lvgl/src/lv_widgets/lv_objmask.c ****             _lv_mem_buf_release(param);
 579              		.loc 1 296 21 discriminator 3 view .LVU191
 580 01ec FFF7FEFF 		bl	lv_draw_mask_remove_custom
 581              	.LVL71:
 297:lvgl/src/lv_widgets/lv_objmask.c ****         }
 582              		.loc 1 297 13 is_stmt 1 discriminator 3 view .LVU192
 583 01f0 FFF7FEFF 		bl	_lv_mem_buf_release
 584              	.LVL72:
 297:lvgl/src/lv_widgets/lv_objmask.c ****         }
 585              		.loc 1 297 13 is_stmt 0 discriminator 3 view .LVU193
 586              	.LBE13:
 294:lvgl/src/lv_widgets/lv_objmask.c ****             void * param;
 587              		.loc 1 294 9 discriminator 3 view .LVU194
 588 01f4 2146     		mov	r1, r4
 589 01f6 2846     		mov	r0, r5
 590 01f8 FFF7FEFF 		bl	_lv_ll_get_next
 591              	.LVL73:
 592 01fc 0446     		mov	r4, r0
 593              	.LVL74:
 594              	.L21:
 294:lvgl/src/lv_widgets/lv_objmask.c ****             void * param;
 595              		.loc 1 294 9 discriminator 1 view .LVU195
 596 01fe 002C     		cmp	r4, #0
 597 0200 F3D1     		bne	.L22
 294:lvgl/src/lv_widgets/lv_objmask.c ****             void * param;
 598              		.loc 1 294 9 discriminator 1 view .LVU196
 599              	.LBE12:
 302:lvgl/src/lv_widgets/lv_objmask.c **** }
 600              		.loc 1 302 12 view .LVU197
 601 0202 0020     		movs	r0, #0
 602              	.LVL75:
 603              	.LBB14:
ARM GAS  D:\Temp\ccdOzXIN.s 			page 21


 302:lvgl/src/lv_widgets/lv_objmask.c **** }
 604              		.loc 1 302 12 view .LVU198
 605 0204 E2E7     		b	.L12
 606              	.LVL76:
 607              	.L23:
 302:lvgl/src/lv_widgets/lv_objmask.c **** }
 608              		.loc 1 302 12 view .LVU199
 609              	.LBE14:
 610              	.LBB15:
 211:lvgl/src/lv_widgets/lv_objmask.c ****         else return ancestor_design(objmask, clip_area, mode);
 611              		.loc 1 211 54 view .LVU200
 612 0206 0320     		movs	r0, #3
 613 0208 E0E7     		b	.L12
 614              	.L34:
 615 020a 00BF     		.align	2
 616              	.L33:
 617 020c 00000000 		.word	.LANCHOR0
 618              	.LBE15:
 619              		.cfi_endproc
 620              	.LFE464:
 622              		.section	.text.lv_objmask_signal,"ax",%progbits
 623              		.align	1
 624              		.syntax unified
 625              		.thumb
 626              		.thumb_func
 627              		.fpu fpv4-sp-d16
 629              	lv_objmask_signal:
 630              	.LVL77:
 631              	.LFB465:
 313:lvgl/src/lv_widgets/lv_objmask.c ****     lv_res_t res;
 632              		.loc 1 313 1 is_stmt 1 view -0
 633              		.cfi_startproc
 634              		@ args = 0, pretend = 0, frame = 0
 635              		@ frame_needed = 0, uses_anonymous_args = 0
 313:lvgl/src/lv_widgets/lv_objmask.c ****     lv_res_t res;
 636              		.loc 1 313 1 is_stmt 0 view .LVU202
 637 0000 F8B5     		push	{r3, r4, r5, r6, r7, lr}
 638              	.LCFI4:
 639              		.cfi_def_cfa_offset 24
 640              		.cfi_offset 3, -24
 641              		.cfi_offset 4, -20
 642              		.cfi_offset 5, -16
 643              		.cfi_offset 6, -12
 644              		.cfi_offset 7, -8
 645              		.cfi_offset 14, -4
 646 0002 0646     		mov	r6, r0
 647 0004 0C46     		mov	r4, r1
 648 0006 1746     		mov	r7, r2
 314:lvgl/src/lv_widgets/lv_objmask.c **** 
 649              		.loc 1 314 5 is_stmt 1 view .LVU203
 317:lvgl/src/lv_widgets/lv_objmask.c ****     if(res != LV_RES_OK) return res;
 650              		.loc 1 317 5 view .LVU204
 317:lvgl/src/lv_widgets/lv_objmask.c ****     if(res != LV_RES_OK) return res;
 651              		.loc 1 317 11 is_stmt 0 view .LVU205
 652 0008 154B     		ldr	r3, .L46
 653 000a 1B68     		ldr	r3, [r3]
 654 000c 9847     		blx	r3
ARM GAS  D:\Temp\ccdOzXIN.s 			page 22


 655              	.LVL78:
 317:lvgl/src/lv_widgets/lv_objmask.c ****     if(res != LV_RES_OK) return res;
 656              		.loc 1 317 11 view .LVU206
 657 000e 0546     		mov	r5, r0
 658              	.LVL79:
 318:lvgl/src/lv_widgets/lv_objmask.c ****     if(sign == LV_SIGNAL_GET_TYPE) return lv_obj_handle_get_type_signal(param, LV_OBJX_NAME);
 659              		.loc 1 318 5 is_stmt 1 view .LVU207
 318:lvgl/src/lv_widgets/lv_objmask.c ****     if(sign == LV_SIGNAL_GET_TYPE) return lv_obj_handle_get_type_signal(param, LV_OBJX_NAME);
 660              		.loc 1 318 7 is_stmt 0 view .LVU208
 661 0010 0128     		cmp	r0, #1
 662 0012 02D1     		bne	.L36
 319:lvgl/src/lv_widgets/lv_objmask.c **** 
 663              		.loc 1 319 5 is_stmt 1 view .LVU209
 319:lvgl/src/lv_widgets/lv_objmask.c **** 
 664              		.loc 1 319 7 is_stmt 0 view .LVU210
 665 0014 072C     		cmp	r4, #7
 666 0016 02D0     		beq	.L42
 321:lvgl/src/lv_widgets/lv_objmask.c ****         lv_objmask_ext_t * ext = lv_obj_get_ext_attr(objmask);
 667              		.loc 1 321 5 is_stmt 1 view .LVU211
 321:lvgl/src/lv_widgets/lv_objmask.c ****         lv_objmask_ext_t * ext = lv_obj_get_ext_attr(objmask);
 668              		.loc 1 321 7 is_stmt 0 view .LVU212
 669 0018 3CB1     		cbz	r4, .L43
 670              	.LVL80:
 671              	.L36:
 335:lvgl/src/lv_widgets/lv_objmask.c **** 
 672              		.loc 1 335 1 view .LVU213
 673 001a 2846     		mov	r0, r5
 674 001c F8BD     		pop	{r3, r4, r5, r6, r7, pc}
 675              	.LVL81:
 676              	.L42:
 319:lvgl/src/lv_widgets/lv_objmask.c **** 
 677              		.loc 1 319 36 is_stmt 1 discriminator 1 view .LVU214
 319:lvgl/src/lv_widgets/lv_objmask.c **** 
 678              		.loc 1 319 43 is_stmt 0 discriminator 1 view .LVU215
 679 001e 1149     		ldr	r1, .L46+4
 680 0020 3846     		mov	r0, r7
 681              	.LVL82:
 319:lvgl/src/lv_widgets/lv_objmask.c **** 
 682              		.loc 1 319 43 discriminator 1 view .LVU216
 683 0022 FFF7FEFF 		bl	lv_obj_handle_get_type_signal
 684              	.LVL83:
 685 0026 0546     		mov	r5, r0
 686 0028 F7E7     		b	.L36
 687              	.LVL84:
 688              	.L43:
 689              	.LBB16:
 322:lvgl/src/lv_widgets/lv_objmask.c ****         lv_objmask_mask_t * i;
 690              		.loc 1 322 9 is_stmt 1 view .LVU217
 322:lvgl/src/lv_widgets/lv_objmask.c ****         lv_objmask_mask_t * i;
 691              		.loc 1 322 34 is_stmt 0 view .LVU218
 692 002a 3046     		mov	r0, r6
 693              	.LVL85:
 322:lvgl/src/lv_widgets/lv_objmask.c ****         lv_objmask_mask_t * i;
 694              		.loc 1 322 34 view .LVU219
 695 002c FFF7FEFF 		bl	lv_obj_get_ext_attr
 696              	.LVL86:
 323:lvgl/src/lv_widgets/lv_objmask.c ****         _LV_LL_READ(ext->mask_ll, i) {
ARM GAS  D:\Temp\ccdOzXIN.s 			page 23


 697              		.loc 1 323 9 is_stmt 1 view .LVU220
 324:lvgl/src/lv_widgets/lv_objmask.c ****             if(i->param) {
 698              		.loc 1 324 9 view .LVU221
 699 0030 061D     		adds	r6, r0, #4
 700              	.LVL87:
 324:lvgl/src/lv_widgets/lv_objmask.c ****             if(i->param) {
 701              		.loc 1 324 9 is_stmt 0 view .LVU222
 702 0032 3046     		mov	r0, r6
 703              	.LVL88:
 324:lvgl/src/lv_widgets/lv_objmask.c ****             if(i->param) {
 704              		.loc 1 324 9 view .LVU223
 705 0034 FFF7FEFF 		bl	_lv_ll_get_head
 706              	.LVL89:
 324:lvgl/src/lv_widgets/lv_objmask.c ****             if(i->param) {
 707              		.loc 1 324 9 view .LVU224
 708 0038 0446     		mov	r4, r0
 709              	.LVL90:
 324:lvgl/src/lv_widgets/lv_objmask.c ****             if(i->param) {
 710              		.loc 1 324 9 view .LVU225
 711 003a 08E0     		b	.L38
 712              	.LVL91:
 713              	.L45:
 326:lvgl/src/lv_widgets/lv_objmask.c ****                 i->param = NULL;
 714              		.loc 1 326 17 is_stmt 1 view .LVU226
 715 003c FFF7FEFF 		bl	lv_mem_free
 716              	.LVL92:
 327:lvgl/src/lv_widgets/lv_objmask.c ****             }
 717              		.loc 1 327 17 view .LVU227
 327:lvgl/src/lv_widgets/lv_objmask.c ****             }
 718              		.loc 1 327 26 is_stmt 0 view .LVU228
 719 0040 0023     		movs	r3, #0
 720 0042 2360     		str	r3, [r4]
 721              	.L39:
 324:lvgl/src/lv_widgets/lv_objmask.c ****             if(i->param) {
 722              		.loc 1 324 9 discriminator 2 view .LVU229
 723 0044 2146     		mov	r1, r4
 724 0046 3046     		mov	r0, r6
 725 0048 FFF7FEFF 		bl	_lv_ll_get_next
 726              	.LVL93:
 727 004c 0446     		mov	r4, r0
 728              	.LVL94:
 729              	.L38:
 324:lvgl/src/lv_widgets/lv_objmask.c ****             if(i->param) {
 730              		.loc 1 324 9 discriminator 1 view .LVU230
 731 004e 1CB1     		cbz	r4, .L44
 325:lvgl/src/lv_widgets/lv_objmask.c ****                 lv_mem_free(i->param);
 732              		.loc 1 325 13 is_stmt 1 view .LVU231
 325:lvgl/src/lv_widgets/lv_objmask.c ****                 lv_mem_free(i->param);
 733              		.loc 1 325 17 is_stmt 0 view .LVU232
 734 0050 2068     		ldr	r0, [r4]
 735              	.LVL95:
 325:lvgl/src/lv_widgets/lv_objmask.c ****                 lv_mem_free(i->param);
 736              		.loc 1 325 15 view .LVU233
 737 0052 0028     		cmp	r0, #0
 738 0054 F2D1     		bne	.L45
 739 0056 F5E7     		b	.L39
 740              	.LVL96:
ARM GAS  D:\Temp\ccdOzXIN.s 			page 24


 741              	.L44:
 331:lvgl/src/lv_widgets/lv_objmask.c ****     }
 742              		.loc 1 331 9 is_stmt 1 view .LVU234
 743 0058 3046     		mov	r0, r6
 744              	.LVL97:
 331:lvgl/src/lv_widgets/lv_objmask.c ****     }
 745              		.loc 1 331 9 is_stmt 0 view .LVU235
 746 005a FFF7FEFF 		bl	_lv_ll_clear
 747              	.LVL98:
 748 005e DCE7     		b	.L36
 749              	.L47:
 750              		.align	2
 751              	.L46:
 752 0060 00000000 		.word	.LANCHOR1
 753 0064 00000000 		.word	.LC0
 754              	.LBE16:
 755              		.cfi_endproc
 756              	.LFE465:
 758              		.section	.text.lv_objmask_create,"ax",%progbits
 759              		.align	1
 760              		.global	lv_objmask_create
 761              		.syntax unified
 762              		.thumb
 763              		.thumb_func
 764              		.fpu fpv4-sp-d16
 766              	lv_objmask_create:
 767              	.LVL99:
 768              	.LFB460:
  53:lvgl/src/lv_widgets/lv_objmask.c ****     LV_LOG_TRACE("object mask create started");
 769              		.loc 1 53 1 is_stmt 1 view -0
 770              		.cfi_startproc
 771              		@ args = 0, pretend = 0, frame = 0
 772              		@ frame_needed = 0, uses_anonymous_args = 0
  53:lvgl/src/lv_widgets/lv_objmask.c ****     LV_LOG_TRACE("object mask create started");
 773              		.loc 1 53 1 is_stmt 0 view .LVU237
 774 0000 70B5     		push	{r4, r5, r6, lr}
 775              	.LCFI5:
 776              		.cfi_def_cfa_offset 16
 777              		.cfi_offset 4, -16
 778              		.cfi_offset 5, -12
 779              		.cfi_offset 6, -8
 780              		.cfi_offset 14, -4
 781 0002 0E46     		mov	r6, r1
  54:lvgl/src/lv_widgets/lv_objmask.c **** 
 782              		.loc 1 54 47 is_stmt 1 view .LVU238
  57:lvgl/src/lv_widgets/lv_objmask.c ****     LV_ASSERT_MEM(objmask);
 783              		.loc 1 57 5 view .LVU239
  57:lvgl/src/lv_widgets/lv_objmask.c ****     LV_ASSERT_MEM(objmask);
 784              		.loc 1 57 26 is_stmt 0 view .LVU240
 785 0004 FFF7FEFF 		bl	lv_cont_create
 786              	.LVL100:
  57:lvgl/src/lv_widgets/lv_objmask.c ****     LV_ASSERT_MEM(objmask);
 787              		.loc 1 57 26 view .LVU241
 788 0008 0446     		mov	r4, r0
 789              	.LVL101:
  58:lvgl/src/lv_widgets/lv_objmask.c ****     if(objmask == NULL) return NULL;
 790              		.loc 1 58 5 is_stmt 1 view .LVU242
ARM GAS  D:\Temp\ccdOzXIN.s 			page 25


  58:lvgl/src/lv_widgets/lv_objmask.c ****     if(objmask == NULL) return NULL;
 791              		.loc 1 58 5 view .LVU243
 792 000a FFF7FEFF 		bl	lv_debug_check_null
 793              	.LVL102:
  58:lvgl/src/lv_widgets/lv_objmask.c ****     if(objmask == NULL) return NULL;
 794              		.loc 1 58 5 is_stmt 0 view .LVU244
 795 000e 18B3     		cbz	r0, .L59
  58:lvgl/src/lv_widgets/lv_objmask.c ****     if(objmask == NULL) return NULL;
 796              		.loc 1 58 27 is_stmt 1 discriminator 2 view .LVU245
  59:lvgl/src/lv_widgets/lv_objmask.c **** 
 797              		.loc 1 59 5 discriminator 2 view .LVU246
  59:lvgl/src/lv_widgets/lv_objmask.c **** 
 798              		.loc 1 59 7 is_stmt 0 discriminator 2 view .LVU247
 799 0010 04B3     		cbz	r4, .L48
  62:lvgl/src/lv_widgets/lv_objmask.c ****     LV_ASSERT_MEM(ext);
 800              		.loc 1 62 5 is_stmt 1 view .LVU248
  62:lvgl/src/lv_widgets/lv_objmask.c ****     LV_ASSERT_MEM(ext);
 801              		.loc 1 62 30 is_stmt 0 view .LVU249
 802 0012 1021     		movs	r1, #16
 803 0014 2046     		mov	r0, r4
 804 0016 FFF7FEFF 		bl	lv_obj_allocate_ext_attr
 805              	.LVL103:
 806 001a 0546     		mov	r5, r0
 807              	.LVL104:
  63:lvgl/src/lv_widgets/lv_objmask.c ****     if(ext == NULL) {
 808              		.loc 1 63 5 is_stmt 1 view .LVU250
  63:lvgl/src/lv_widgets/lv_objmask.c ****     if(ext == NULL) {
 809              		.loc 1 63 5 view .LVU251
 810 001c FFF7FEFF 		bl	lv_debug_check_null
 811              	.LVL105:
  63:lvgl/src/lv_widgets/lv_objmask.c ****     if(ext == NULL) {
 812              		.loc 1 63 5 is_stmt 0 view .LVU252
 813 0020 00B3     		cbz	r0, .L60
  63:lvgl/src/lv_widgets/lv_objmask.c ****     if(ext == NULL) {
 814              		.loc 1 63 23 is_stmt 1 discriminator 2 view .LVU253
  64:lvgl/src/lv_widgets/lv_objmask.c ****         lv_obj_del(objmask);
 815              		.loc 1 64 5 discriminator 2 view .LVU254
  64:lvgl/src/lv_widgets/lv_objmask.c ****         lv_obj_del(objmask);
 816              		.loc 1 64 7 is_stmt 0 discriminator 2 view .LVU255
 817 0022 2DB3     		cbz	r5, .L61
  69:lvgl/src/lv_widgets/lv_objmask.c ****     if(ancestor_design == NULL) ancestor_design = lv_obj_get_design_cb(objmask);
 818              		.loc 1 69 5 is_stmt 1 view .LVU256
  69:lvgl/src/lv_widgets/lv_objmask.c ****     if(ancestor_design == NULL) ancestor_design = lv_obj_get_design_cb(objmask);
 819              		.loc 1 69 24 is_stmt 0 view .LVU257
 820 0024 1D4B     		ldr	r3, .L65
 821 0026 1B68     		ldr	r3, [r3]
  69:lvgl/src/lv_widgets/lv_objmask.c ****     if(ancestor_design == NULL) ancestor_design = lv_obj_get_design_cb(objmask);
 822              		.loc 1 69 7 view .LVU258
 823 0028 3BB3     		cbz	r3, .L62
 824              	.L55:
  70:lvgl/src/lv_widgets/lv_objmask.c **** 
 825              		.loc 1 70 5 is_stmt 1 view .LVU259
  70:lvgl/src/lv_widgets/lv_objmask.c **** 
 826              		.loc 1 70 24 is_stmt 0 view .LVU260
 827 002a 1D4B     		ldr	r3, .L65+4
 828 002c 1B68     		ldr	r3, [r3]
  70:lvgl/src/lv_widgets/lv_objmask.c **** 
ARM GAS  D:\Temp\ccdOzXIN.s 			page 26


 829              		.loc 1 70 7 view .LVU261
 830 002e 53B3     		cbz	r3, .L63
 831              	.L56:
  73:lvgl/src/lv_widgets/lv_objmask.c **** 
 832              		.loc 1 73 5 is_stmt 1 view .LVU262
 833 0030 0421     		movs	r1, #4
 834 0032 6818     		adds	r0, r5, r1
 835 0034 FFF7FEFF 		bl	_lv_ll_init
 836              	.LVL106:
  76:lvgl/src/lv_widgets/lv_objmask.c ****     lv_obj_set_design_cb(objmask, lv_objmask_design);
 837              		.loc 1 76 5 view .LVU263
 838 0038 1A49     		ldr	r1, .L65+8
 839 003a 2046     		mov	r0, r4
 840 003c FFF7FEFF 		bl	lv_obj_set_signal_cb
 841              	.LVL107:
  77:lvgl/src/lv_widgets/lv_objmask.c **** 
 842              		.loc 1 77 5 view .LVU264
 843 0040 1949     		ldr	r1, .L65+12
 844 0042 2046     		mov	r0, r4
 845 0044 FFF7FEFF 		bl	lv_obj_set_design_cb
 846              	.LVL108:
  80:lvgl/src/lv_widgets/lv_objmask.c ****         lv_theme_apply(objmask, LV_THEME_OBJMASK);
 847              		.loc 1 80 5 view .LVU265
  80:lvgl/src/lv_widgets/lv_objmask.c ****         lv_theme_apply(objmask, LV_THEME_OBJMASK);
 848              		.loc 1 80 7 is_stmt 0 view .LVU266
 849 0048 1EB3     		cbz	r6, .L64
  89:lvgl/src/lv_widgets/lv_objmask.c ****     }
 850              		.loc 1 89 9 is_stmt 1 view .LVU267
 851 004a FF22     		movs	r2, #255
 852 004c 1146     		mov	r1, r2
 853 004e 2046     		mov	r0, r4
 854 0050 FFF7FEFF 		bl	lv_obj_refresh_style
 855              	.LVL109:
 856              	.L48:
  95:lvgl/src/lv_widgets/lv_objmask.c **** 
 857              		.loc 1 95 1 is_stmt 0 view .LVU268
 858 0054 2046     		mov	r0, r4
 859 0056 70BD     		pop	{r4, r5, r6, pc}
 860              	.LVL110:
 861              	.L59:
  58:lvgl/src/lv_widgets/lv_objmask.c ****     if(objmask == NULL) return NULL;
 862              		.loc 1 58 5 is_stmt 1 discriminator 1 view .LVU269
  58:lvgl/src/lv_widgets/lv_objmask.c ****     if(objmask == NULL) return NULL;
 863              		.loc 1 58 5 discriminator 1 view .LVU270
 864 0058 2246     		mov	r2, r4
 865 005a 0023     		movs	r3, #0
 866 005c 1348     		ldr	r0, .L65+16
 867 005e FFF7FEFF 		bl	lv_debug_log_error
 868              	.LVL111:
 869              	.L50:
  58:lvgl/src/lv_widgets/lv_objmask.c ****     if(objmask == NULL) return NULL;
 870              		.loc 1 58 5 discriminator 1 view .LVU271
  58:lvgl/src/lv_widgets/lv_objmask.c ****     if(objmask == NULL) return NULL;
 871              		.loc 1 58 5 discriminator 1 view .LVU272
 872 0062 FEE7     		b	.L50
 873              	.LVL112:
 874              	.L60:
ARM GAS  D:\Temp\ccdOzXIN.s 			page 27


  63:lvgl/src/lv_widgets/lv_objmask.c ****     if(ext == NULL) {
 875              		.loc 1 63 5 discriminator 1 view .LVU273
  63:lvgl/src/lv_widgets/lv_objmask.c ****     if(ext == NULL) {
 876              		.loc 1 63 5 discriminator 1 view .LVU274
 877 0064 2A46     		mov	r2, r5
 878 0066 0023     		movs	r3, #0
 879 0068 1048     		ldr	r0, .L65+16
 880 006a FFF7FEFF 		bl	lv_debug_log_error
 881              	.LVL113:
 882              	.L53:
  63:lvgl/src/lv_widgets/lv_objmask.c ****     if(ext == NULL) {
 883              		.loc 1 63 5 discriminator 2 view .LVU275
  63:lvgl/src/lv_widgets/lv_objmask.c ****     if(ext == NULL) {
 884              		.loc 1 63 5 discriminator 2 view .LVU276
 885 006e FEE7     		b	.L53
 886              	.L61:
  65:lvgl/src/lv_widgets/lv_objmask.c ****         return NULL;
 887              		.loc 1 65 9 view .LVU277
 888 0070 2046     		mov	r0, r4
 889 0072 FFF7FEFF 		bl	lv_obj_del
 890              	.LVL114:
  66:lvgl/src/lv_widgets/lv_objmask.c ****     }
 891              		.loc 1 66 9 view .LVU278
  66:lvgl/src/lv_widgets/lv_objmask.c ****     }
 892              		.loc 1 66 16 is_stmt 0 view .LVU279
 893 0076 0024     		movs	r4, #0
 894              	.LVL115:
  66:lvgl/src/lv_widgets/lv_objmask.c ****     }
 895              		.loc 1 66 16 view .LVU280
 896 0078 ECE7     		b	.L48
 897              	.LVL116:
 898              	.L62:
  69:lvgl/src/lv_widgets/lv_objmask.c ****     if(ancestor_design == NULL) ancestor_design = lv_obj_get_design_cb(objmask);
 899              		.loc 1 69 33 is_stmt 1 discriminator 1 view .LVU281
  69:lvgl/src/lv_widgets/lv_objmask.c ****     if(ancestor_design == NULL) ancestor_design = lv_obj_get_design_cb(objmask);
 900              		.loc 1 69 51 is_stmt 0 discriminator 1 view .LVU282
 901 007a 2046     		mov	r0, r4
 902 007c FFF7FEFF 		bl	lv_obj_get_signal_cb
 903              	.LVL117:
  69:lvgl/src/lv_widgets/lv_objmask.c ****     if(ancestor_design == NULL) ancestor_design = lv_obj_get_design_cb(objmask);
 904              		.loc 1 69 49 discriminator 1 view .LVU283
 905 0080 064B     		ldr	r3, .L65
 906 0082 1860     		str	r0, [r3]
 907 0084 D1E7     		b	.L55
 908              	.L63:
  70:lvgl/src/lv_widgets/lv_objmask.c **** 
 909              		.loc 1 70 33 is_stmt 1 discriminator 1 view .LVU284
  70:lvgl/src/lv_widgets/lv_objmask.c **** 
 910              		.loc 1 70 51 is_stmt 0 discriminator 1 view .LVU285
 911 0086 2046     		mov	r0, r4
 912 0088 FFF7FEFF 		bl	lv_obj_get_design_cb
 913              	.LVL118:
  70:lvgl/src/lv_widgets/lv_objmask.c **** 
 914              		.loc 1 70 49 discriminator 1 view .LVU286
 915 008c 044B     		ldr	r3, .L65+4
 916 008e 1860     		str	r0, [r3]
 917 0090 CEE7     		b	.L56
ARM GAS  D:\Temp\ccdOzXIN.s 			page 28


 918              	.L64:
  81:lvgl/src/lv_widgets/lv_objmask.c **** 
 919              		.loc 1 81 9 is_stmt 1 view .LVU287
 920 0092 1A21     		movs	r1, #26
 921 0094 2046     		mov	r0, r4
 922 0096 FFF7FEFF 		bl	lv_theme_apply
 923              	.LVL119:
 924 009a DBE7     		b	.L48
 925              	.L66:
 926              		.align	2
 927              	.L65:
 928 009c 00000000 		.word	.LANCHOR1
 929 00a0 00000000 		.word	.LANCHOR0
 930 00a4 00000000 		.word	lv_objmask_signal
 931 00a8 00000000 		.word	lv_objmask_design
 932 00ac 00000000 		.word	.LC1
 933              		.cfi_endproc
 934              	.LFE460:
 936              		.section	.text.lv_objmask_add_mask,"ax",%progbits
 937              		.align	1
 938              		.global	lv_objmask_add_mask
 939              		.syntax unified
 940              		.thumb
 941              		.thumb_func
 942              		.fpu fpv4-sp-d16
 944              	lv_objmask_add_mask:
 945              	.LVL120:
 946              	.LFB461:
 108:lvgl/src/lv_widgets/lv_objmask.c ****     LV_ASSERT_OBJ(objmask, LV_OBJX_NAME);
 947              		.loc 1 108 1 view -0
 948              		.cfi_startproc
 949              		@ args = 0, pretend = 0, frame = 0
 950              		@ frame_needed = 0, uses_anonymous_args = 0
 108:lvgl/src/lv_widgets/lv_objmask.c ****     LV_ASSERT_OBJ(objmask, LV_OBJX_NAME);
 951              		.loc 1 108 1 is_stmt 0 view .LVU289
 952 0000 F8B5     		push	{r3, r4, r5, r6, r7, lr}
 953              	.LCFI6:
 954              		.cfi_def_cfa_offset 24
 955              		.cfi_offset 3, -24
 956              		.cfi_offset 4, -20
 957              		.cfi_offset 5, -16
 958              		.cfi_offset 6, -12
 959              		.cfi_offset 7, -8
 960              		.cfi_offset 14, -4
 961 0002 0646     		mov	r6, r0
 962 0004 0D46     		mov	r5, r1
 109:lvgl/src/lv_widgets/lv_objmask.c ****     LV_ASSERT_NULL(param);
 963              		.loc 1 109 5 is_stmt 1 view .LVU290
 109:lvgl/src/lv_widgets/lv_objmask.c ****     LV_ASSERT_NULL(param);
 964              		.loc 1 109 5 view .LVU291
 965 0006 FFF7FEFF 		bl	lv_debug_check_null
 966              	.LVL121:
 109:lvgl/src/lv_widgets/lv_objmask.c ****     LV_ASSERT_NULL(param);
 967              		.loc 1 109 5 is_stmt 0 view .LVU292
 968 000a 28B9     		cbnz	r0, .L68
 109:lvgl/src/lv_widgets/lv_objmask.c ****     LV_ASSERT_NULL(param);
 969              		.loc 1 109 5 is_stmt 1 discriminator 1 view .LVU293
ARM GAS  D:\Temp\ccdOzXIN.s 			page 29


 109:lvgl/src/lv_widgets/lv_objmask.c ****     LV_ASSERT_NULL(param);
 970              		.loc 1 109 5 discriminator 1 view .LVU294
 971 000c 3246     		mov	r2, r6
 972 000e 0023     		movs	r3, #0
 973 0010 1E48     		ldr	r0, .L81
 974 0012 FFF7FEFF 		bl	lv_debug_log_error
 975              	.LVL122:
 976              	.L69:
 109:lvgl/src/lv_widgets/lv_objmask.c ****     LV_ASSERT_NULL(param);
 977              		.loc 1 109 5 discriminator 1 view .LVU295
 109:lvgl/src/lv_widgets/lv_objmask.c ****     LV_ASSERT_NULL(param);
 978              		.loc 1 109 5 discriminator 1 view .LVU296
 979 0016 FEE7     		b	.L69
 980              	.L68:
 109:lvgl/src/lv_widgets/lv_objmask.c ****     LV_ASSERT_NULL(param);
 981              		.loc 1 109 41 discriminator 2 view .LVU297
 110:lvgl/src/lv_widgets/lv_objmask.c **** 
 982              		.loc 1 110 5 discriminator 2 view .LVU298
 110:lvgl/src/lv_widgets/lv_objmask.c **** 
 983              		.loc 1 110 5 discriminator 2 view .LVU299
 984 0018 2846     		mov	r0, r5
 985 001a FFF7FEFF 		bl	lv_debug_check_null
 986              	.LVL123:
 987 001e 28B9     		cbnz	r0, .L70
 110:lvgl/src/lv_widgets/lv_objmask.c **** 
 988              		.loc 1 110 5 discriminator 1 view .LVU300
 110:lvgl/src/lv_widgets/lv_objmask.c **** 
 989              		.loc 1 110 5 discriminator 1 view .LVU301
 990 0020 2A46     		mov	r2, r5
 991 0022 0023     		movs	r3, #0
 992 0024 1948     		ldr	r0, .L81
 993 0026 FFF7FEFF 		bl	lv_debug_log_error
 994              	.LVL124:
 995              	.L71:
 110:lvgl/src/lv_widgets/lv_objmask.c **** 
 996              		.loc 1 110 5 discriminator 2 view .LVU302
 110:lvgl/src/lv_widgets/lv_objmask.c **** 
 997              		.loc 1 110 5 discriminator 2 view .LVU303
 998 002a FEE7     		b	.L71
 999              	.L70:
 110:lvgl/src/lv_widgets/lv_objmask.c **** 
 1000              		.loc 1 110 26 discriminator 2 view .LVU304
 112:lvgl/src/lv_widgets/lv_objmask.c **** 
 1001              		.loc 1 112 5 discriminator 2 view .LVU305
 112:lvgl/src/lv_widgets/lv_objmask.c **** 
 1002              		.loc 1 112 30 is_stmt 0 discriminator 2 view .LVU306
 1003 002c 3046     		mov	r0, r6
 1004 002e FFF7FEFF 		bl	lv_obj_get_ext_attr
 1005              	.LVL125:
 1006 0032 0446     		mov	r4, r0
 1007              	.LVL126:
 114:lvgl/src/lv_widgets/lv_objmask.c ****     uint16_t param_size = get_param_size(dsc->type);
 1008              		.loc 1 114 5 is_stmt 1 discriminator 2 view .LVU307
 115:lvgl/src/lv_widgets/lv_objmask.c **** 
 1009              		.loc 1 115 5 discriminator 2 view .LVU308
 115:lvgl/src/lv_widgets/lv_objmask.c **** 
 1010              		.loc 1 115 27 is_stmt 0 discriminator 2 view .LVU309
ARM GAS  D:\Temp\ccdOzXIN.s 			page 30


 1011 0034 2879     		ldrb	r0, [r5, #4]	@ zero_extendqisi2
 1012              	.LVL127:
 115:lvgl/src/lv_widgets/lv_objmask.c **** 
 1013              		.loc 1 115 27 discriminator 2 view .LVU310
 1014 0036 FFF7FEFF 		bl	get_param_size
 1015              	.LVL128:
 1016 003a 0746     		mov	r7, r0
 1017              	.LVL129:
 117:lvgl/src/lv_widgets/lv_objmask.c ****     LV_ASSERT_MEM(m);
 1018              		.loc 1 117 5 is_stmt 1 discriminator 2 view .LVU311
 117:lvgl/src/lv_widgets/lv_objmask.c ****     LV_ASSERT_MEM(m);
 1019              		.loc 1 117 29 is_stmt 0 discriminator 2 view .LVU312
 1020 003c 201D     		adds	r0, r4, #4
 1021 003e FFF7FEFF 		bl	_lv_ll_ins_head
 1022              	.LVL130:
 1023 0042 0446     		mov	r4, r0
 1024              	.LVL131:
 118:lvgl/src/lv_widgets/lv_objmask.c ****     if(m == NULL) return NULL;
 1025              		.loc 1 118 5 is_stmt 1 discriminator 2 view .LVU313
 118:lvgl/src/lv_widgets/lv_objmask.c ****     if(m == NULL) return NULL;
 1026              		.loc 1 118 5 discriminator 2 view .LVU314
 1027 0044 FFF7FEFF 		bl	lv_debug_check_null
 1028              	.LVL132:
 118:lvgl/src/lv_widgets/lv_objmask.c ****     if(m == NULL) return NULL;
 1029              		.loc 1 118 5 is_stmt 0 discriminator 2 view .LVU315
 1030 0048 90B1     		cbz	r0, .L79
 118:lvgl/src/lv_widgets/lv_objmask.c ****     if(m == NULL) return NULL;
 1031              		.loc 1 118 21 is_stmt 1 discriminator 2 view .LVU316
 119:lvgl/src/lv_widgets/lv_objmask.c ****     m->param = lv_mem_alloc(param_size);
 1032              		.loc 1 119 5 discriminator 2 view .LVU317
 119:lvgl/src/lv_widgets/lv_objmask.c ****     m->param = lv_mem_alloc(param_size);
 1033              		.loc 1 119 7 is_stmt 0 discriminator 2 view .LVU318
 1034 004a 7CB1     		cbz	r4, .L67
 120:lvgl/src/lv_widgets/lv_objmask.c ****     LV_ASSERT_MEM(m->param);
 1035              		.loc 1 120 5 is_stmt 1 view .LVU319
 120:lvgl/src/lv_widgets/lv_objmask.c ****     LV_ASSERT_MEM(m->param);
 1036              		.loc 1 120 16 is_stmt 0 view .LVU320
 1037 004c 3846     		mov	r0, r7
 1038 004e FFF7FEFF 		bl	lv_mem_alloc
 1039              	.LVL133:
 120:lvgl/src/lv_widgets/lv_objmask.c ****     LV_ASSERT_MEM(m->param);
 1040              		.loc 1 120 14 view .LVU321
 1041 0052 2060     		str	r0, [r4]
 121:lvgl/src/lv_widgets/lv_objmask.c ****     if(m->param == NULL) return NULL;
 1042              		.loc 1 121 5 is_stmt 1 view .LVU322
 121:lvgl/src/lv_widgets/lv_objmask.c ****     if(m->param == NULL) return NULL;
 1043              		.loc 1 121 5 view .LVU323
 1044 0054 FFF7FEFF 		bl	lv_debug_check_null
 1045              	.LVL134:
 1046 0058 80B1     		cbz	r0, .L80
 121:lvgl/src/lv_widgets/lv_objmask.c ****     if(m->param == NULL) return NULL;
 1047              		.loc 1 121 28 discriminator 2 view .LVU324
 122:lvgl/src/lv_widgets/lv_objmask.c **** 
 1048              		.loc 1 122 5 discriminator 2 view .LVU325
 122:lvgl/src/lv_widgets/lv_objmask.c **** 
 1049              		.loc 1 122 9 is_stmt 0 discriminator 2 view .LVU326
 1050 005a 2068     		ldr	r0, [r4]
ARM GAS  D:\Temp\ccdOzXIN.s 			page 31


 122:lvgl/src/lv_widgets/lv_objmask.c **** 
 1051              		.loc 1 122 7 discriminator 2 view .LVU327
 1052 005c A0B1     		cbz	r0, .L77
 124:lvgl/src/lv_widgets/lv_objmask.c **** 
 1053              		.loc 1 124 5 is_stmt 1 view .LVU328
 1054 005e 3A46     		mov	r2, r7
 1055 0060 2946     		mov	r1, r5
 1056 0062 FFF7FEFF 		bl	_lv_memcpy
 1057              	.LVL135:
 126:lvgl/src/lv_widgets/lv_objmask.c **** 
 1058              		.loc 1 126 5 view .LVU329
 1059 0066 3046     		mov	r0, r6
 1060 0068 FFF7FEFF 		bl	lv_obj_invalidate
 1061              	.LVL136:
 128:lvgl/src/lv_widgets/lv_objmask.c **** }
 1062              		.loc 1 128 5 view .LVU330
 1063              	.L67:
 129:lvgl/src/lv_widgets/lv_objmask.c **** 
 1064              		.loc 1 129 1 is_stmt 0 view .LVU331
 1065 006c 2046     		mov	r0, r4
 1066 006e F8BD     		pop	{r3, r4, r5, r6, r7, pc}
 1067              	.LVL137:
 1068              	.L79:
 118:lvgl/src/lv_widgets/lv_objmask.c ****     if(m == NULL) return NULL;
 1069              		.loc 1 118 5 is_stmt 1 discriminator 1 view .LVU332
 118:lvgl/src/lv_widgets/lv_objmask.c ****     if(m == NULL) return NULL;
 1070              		.loc 1 118 5 discriminator 1 view .LVU333
 1071 0070 2246     		mov	r2, r4
 1072 0072 0023     		movs	r3, #0
 1073 0074 0648     		ldr	r0, .L81+4
 1074 0076 FFF7FEFF 		bl	lv_debug_log_error
 1075              	.LVL138:
 1076              	.L73:
 118:lvgl/src/lv_widgets/lv_objmask.c ****     if(m == NULL) return NULL;
 1077              		.loc 1 118 5 discriminator 3 view .LVU334
 118:lvgl/src/lv_widgets/lv_objmask.c ****     if(m == NULL) return NULL;
 1078              		.loc 1 118 5 discriminator 3 view .LVU335
 1079 007a FEE7     		b	.L73
 1080              	.L80:
 121:lvgl/src/lv_widgets/lv_objmask.c ****     if(m->param == NULL) return NULL;
 1081              		.loc 1 121 5 discriminator 1 view .LVU336
 121:lvgl/src/lv_widgets/lv_objmask.c ****     if(m->param == NULL) return NULL;
 1082              		.loc 1 121 5 discriminator 1 view .LVU337
 1083 007c 2268     		ldr	r2, [r4]
 1084 007e 0023     		movs	r3, #0
 1085 0080 0348     		ldr	r0, .L81+4
 1086 0082 FFF7FEFF 		bl	lv_debug_log_error
 1087              	.LVL139:
 1088              	.L76:
 121:lvgl/src/lv_widgets/lv_objmask.c ****     if(m->param == NULL) return NULL;
 1089              		.loc 1 121 5 discriminator 4 view .LVU338
 121:lvgl/src/lv_widgets/lv_objmask.c ****     if(m->param == NULL) return NULL;
 1090              		.loc 1 121 5 discriminator 4 view .LVU339
 1091 0086 FEE7     		b	.L76
 1092              	.L77:
 122:lvgl/src/lv_widgets/lv_objmask.c **** 
 1093              		.loc 1 122 33 is_stmt 0 view .LVU340
ARM GAS  D:\Temp\ccdOzXIN.s 			page 32


 1094 0088 0024     		movs	r4, #0
 1095              	.LVL140:
 122:lvgl/src/lv_widgets/lv_objmask.c **** 
 1096              		.loc 1 122 33 view .LVU341
 1097 008a EFE7     		b	.L67
 1098              	.L82:
 1099              		.align	2
 1100              	.L81:
 1101 008c 00000000 		.word	.LC2
 1102 0090 00000000 		.word	.LC1
 1103              		.cfi_endproc
 1104              	.LFE461:
 1106              		.section	.text.lv_objmask_update_mask,"ax",%progbits
 1107              		.align	1
 1108              		.global	lv_objmask_update_mask
 1109              		.syntax unified
 1110              		.thumb
 1111              		.thumb_func
 1112              		.fpu fpv4-sp-d16
 1114              	lv_objmask_update_mask:
 1115              	.LVL141:
 1116              	.LFB462:
 138:lvgl/src/lv_widgets/lv_objmask.c ****     LV_ASSERT_OBJ(objmask, LV_OBJX_NAME);
 1117              		.loc 1 138 1 is_stmt 1 view -0
 1118              		.cfi_startproc
 1119              		@ args = 0, pretend = 0, frame = 0
 1120              		@ frame_needed = 0, uses_anonymous_args = 0
 138:lvgl/src/lv_widgets/lv_objmask.c ****     LV_ASSERT_OBJ(objmask, LV_OBJX_NAME);
 1121              		.loc 1 138 1 is_stmt 0 view .LVU343
 1122 0000 70B5     		push	{r4, r5, r6, lr}
 1123              	.LCFI7:
 1124              		.cfi_def_cfa_offset 16
 1125              		.cfi_offset 4, -16
 1126              		.cfi_offset 5, -12
 1127              		.cfi_offset 6, -8
 1128              		.cfi_offset 14, -4
 1129 0002 0646     		mov	r6, r0
 1130 0004 0D46     		mov	r5, r1
 1131 0006 1446     		mov	r4, r2
 139:lvgl/src/lv_widgets/lv_objmask.c ****     LV_ASSERT_NULL(mask);
 1132              		.loc 1 139 5 is_stmt 1 view .LVU344
 139:lvgl/src/lv_widgets/lv_objmask.c ****     LV_ASSERT_NULL(mask);
 1133              		.loc 1 139 5 view .LVU345
 1134 0008 FFF7FEFF 		bl	lv_debug_check_null
 1135              	.LVL142:
 139:lvgl/src/lv_widgets/lv_objmask.c ****     LV_ASSERT_NULL(mask);
 1136              		.loc 1 139 5 is_stmt 0 view .LVU346
 1137 000c 28B9     		cbnz	r0, .L84
 139:lvgl/src/lv_widgets/lv_objmask.c ****     LV_ASSERT_NULL(mask);
 1138              		.loc 1 139 5 is_stmt 1 discriminator 1 view .LVU347
 139:lvgl/src/lv_widgets/lv_objmask.c ****     LV_ASSERT_NULL(mask);
 1139              		.loc 1 139 5 discriminator 1 view .LVU348
 1140 000e 3246     		mov	r2, r6
 1141 0010 0023     		movs	r3, #0
 1142 0012 1248     		ldr	r0, .L91
 1143 0014 FFF7FEFF 		bl	lv_debug_log_error
 1144              	.LVL143:
ARM GAS  D:\Temp\ccdOzXIN.s 			page 33


 1145              	.L85:
 139:lvgl/src/lv_widgets/lv_objmask.c ****     LV_ASSERT_NULL(mask);
 1146              		.loc 1 139 5 discriminator 1 view .LVU349
 139:lvgl/src/lv_widgets/lv_objmask.c ****     LV_ASSERT_NULL(mask);
 1147              		.loc 1 139 5 discriminator 1 view .LVU350
 1148 0018 FEE7     		b	.L85
 1149              	.L84:
 139:lvgl/src/lv_widgets/lv_objmask.c ****     LV_ASSERT_NULL(mask);
 1150              		.loc 1 139 41 discriminator 2 view .LVU351
 140:lvgl/src/lv_widgets/lv_objmask.c ****     LV_ASSERT_NULL(param);
 1151              		.loc 1 140 5 discriminator 2 view .LVU352
 140:lvgl/src/lv_widgets/lv_objmask.c ****     LV_ASSERT_NULL(param);
 1152              		.loc 1 140 5 discriminator 2 view .LVU353
 1153 001a 2846     		mov	r0, r5
 1154 001c FFF7FEFF 		bl	lv_debug_check_null
 1155              	.LVL144:
 1156 0020 28B9     		cbnz	r0, .L86
 140:lvgl/src/lv_widgets/lv_objmask.c ****     LV_ASSERT_NULL(param);
 1157              		.loc 1 140 5 discriminator 1 view .LVU354
 140:lvgl/src/lv_widgets/lv_objmask.c ****     LV_ASSERT_NULL(param);
 1158              		.loc 1 140 5 discriminator 1 view .LVU355
 1159 0022 2A46     		mov	r2, r5
 1160 0024 0023     		movs	r3, #0
 1161 0026 0D48     		ldr	r0, .L91
 1162 0028 FFF7FEFF 		bl	lv_debug_log_error
 1163              	.LVL145:
 1164              	.L87:
 140:lvgl/src/lv_widgets/lv_objmask.c ****     LV_ASSERT_NULL(param);
 1165              		.loc 1 140 5 discriminator 2 view .LVU356
 140:lvgl/src/lv_widgets/lv_objmask.c ****     LV_ASSERT_NULL(param);
 1166              		.loc 1 140 5 discriminator 2 view .LVU357
 1167 002c FEE7     		b	.L87
 1168              	.L86:
 140:lvgl/src/lv_widgets/lv_objmask.c ****     LV_ASSERT_NULL(param);
 1169              		.loc 1 140 25 discriminator 2 view .LVU358
 141:lvgl/src/lv_widgets/lv_objmask.c ****     lv_draw_mask_common_dsc_t * dsc = param;
 1170              		.loc 1 141 5 discriminator 2 view .LVU359
 141:lvgl/src/lv_widgets/lv_objmask.c ****     lv_draw_mask_common_dsc_t * dsc = param;
 1171              		.loc 1 141 5 discriminator 2 view .LVU360
 1172 002e 2046     		mov	r0, r4
 1173 0030 FFF7FEFF 		bl	lv_debug_check_null
 1174              	.LVL146:
 1175 0034 28B9     		cbnz	r0, .L88
 141:lvgl/src/lv_widgets/lv_objmask.c ****     lv_draw_mask_common_dsc_t * dsc = param;
 1176              		.loc 1 141 5 discriminator 1 view .LVU361
 141:lvgl/src/lv_widgets/lv_objmask.c ****     lv_draw_mask_common_dsc_t * dsc = param;
 1177              		.loc 1 141 5 discriminator 1 view .LVU362
 1178 0036 2246     		mov	r2, r4
 1179 0038 0023     		movs	r3, #0
 1180 003a 0848     		ldr	r0, .L91
 1181 003c FFF7FEFF 		bl	lv_debug_log_error
 1182              	.LVL147:
 1183              	.L89:
 141:lvgl/src/lv_widgets/lv_objmask.c ****     lv_draw_mask_common_dsc_t * dsc = param;
 1184              		.loc 1 141 5 discriminator 3 view .LVU363
 141:lvgl/src/lv_widgets/lv_objmask.c ****     lv_draw_mask_common_dsc_t * dsc = param;
 1185              		.loc 1 141 5 discriminator 3 view .LVU364
ARM GAS  D:\Temp\ccdOzXIN.s 			page 34


 1186 0040 FEE7     		b	.L89
 1187              	.L88:
 141:lvgl/src/lv_widgets/lv_objmask.c ****     lv_draw_mask_common_dsc_t * dsc = param;
 1188              		.loc 1 141 26 discriminator 2 view .LVU365
 142:lvgl/src/lv_widgets/lv_objmask.c **** 
 1189              		.loc 1 142 5 discriminator 2 view .LVU366
 1190              	.LVL148:
 144:lvgl/src/lv_widgets/lv_objmask.c **** 
 1191              		.loc 1 144 5 discriminator 2 view .LVU367
 144:lvgl/src/lv_widgets/lv_objmask.c **** 
 1192              		.loc 1 144 32 is_stmt 0 discriminator 2 view .LVU368
 1193 0042 2079     		ldrb	r0, [r4, #4]	@ zero_extendqisi2
 1194 0044 FFF7FEFF 		bl	get_param_size
 1195              	.LVL149:
 144:lvgl/src/lv_widgets/lv_objmask.c **** 
 1196              		.loc 1 144 5 discriminator 2 view .LVU369
 1197 0048 0246     		mov	r2, r0
 1198 004a 2146     		mov	r1, r4
 1199 004c 2868     		ldr	r0, [r5]
 1200 004e FFF7FEFF 		bl	memcpy
 1201              	.LVL150:
 146:lvgl/src/lv_widgets/lv_objmask.c **** }
 1202              		.loc 1 146 5 is_stmt 1 discriminator 2 view .LVU370
 1203 0052 3046     		mov	r0, r6
 1204 0054 FFF7FEFF 		bl	lv_obj_invalidate
 1205              	.LVL151:
 147:lvgl/src/lv_widgets/lv_objmask.c **** 
 1206              		.loc 1 147 1 is_stmt 0 discriminator 2 view .LVU371
 1207 0058 70BD     		pop	{r4, r5, r6, pc}
 1208              	.LVL152:
 1209              	.L92:
 147:lvgl/src/lv_widgets/lv_objmask.c **** 
 1210              		.loc 1 147 1 discriminator 2 view .LVU372
 1211 005a 00BF     		.align	2
 1212              	.L91:
 1213 005c 00000000 		.word	.LC2
 1214              		.cfi_endproc
 1215              	.LFE462:
 1217              		.section	.text.lv_objmask_remove_mask,"ax",%progbits
 1218              		.align	1
 1219              		.global	lv_objmask_remove_mask
 1220              		.syntax unified
 1221              		.thumb
 1222              		.thumb_func
 1223              		.fpu fpv4-sp-d16
 1225              	lv_objmask_remove_mask:
 1226              	.LVL153:
 1227              	.LFB463:
 156:lvgl/src/lv_widgets/lv_objmask.c ****     LV_ASSERT_OBJ(objmask, LV_OBJX_NAME);
 1228              		.loc 1 156 1 is_stmt 1 view -0
 1229              		.cfi_startproc
 1230              		@ args = 0, pretend = 0, frame = 0
 1231              		@ frame_needed = 0, uses_anonymous_args = 0
 156:lvgl/src/lv_widgets/lv_objmask.c ****     LV_ASSERT_OBJ(objmask, LV_OBJX_NAME);
 1232              		.loc 1 156 1 is_stmt 0 view .LVU374
 1233 0000 70B5     		push	{r4, r5, r6, lr}
 1234              	.LCFI8:
ARM GAS  D:\Temp\ccdOzXIN.s 			page 35


 1235              		.cfi_def_cfa_offset 16
 1236              		.cfi_offset 4, -16
 1237              		.cfi_offset 5, -12
 1238              		.cfi_offset 6, -8
 1239              		.cfi_offset 14, -4
 1240 0002 0646     		mov	r6, r0
 1241 0004 0D46     		mov	r5, r1
 157:lvgl/src/lv_widgets/lv_objmask.c **** 
 1242              		.loc 1 157 5 is_stmt 1 view .LVU375
 157:lvgl/src/lv_widgets/lv_objmask.c **** 
 1243              		.loc 1 157 5 view .LVU376
 1244 0006 FFF7FEFF 		bl	lv_debug_check_null
 1245              	.LVL154:
 157:lvgl/src/lv_widgets/lv_objmask.c **** 
 1246              		.loc 1 157 5 is_stmt 0 view .LVU377
 1247 000a 28B9     		cbnz	r0, .L94
 157:lvgl/src/lv_widgets/lv_objmask.c **** 
 1248              		.loc 1 157 5 is_stmt 1 discriminator 1 view .LVU378
 157:lvgl/src/lv_widgets/lv_objmask.c **** 
 1249              		.loc 1 157 5 discriminator 1 view .LVU379
 1250 000c 3246     		mov	r2, r6
 1251 000e 0023     		movs	r3, #0
 1252 0010 1548     		ldr	r0, .L102
 1253 0012 FFF7FEFF 		bl	lv_debug_log_error
 1254              	.LVL155:
 1255              	.L95:
 157:lvgl/src/lv_widgets/lv_objmask.c **** 
 1256              		.loc 1 157 5 discriminator 1 view .LVU380
 157:lvgl/src/lv_widgets/lv_objmask.c **** 
 1257              		.loc 1 157 5 discriminator 1 view .LVU381
 1258 0016 FEE7     		b	.L95
 1259              	.L94:
 157:lvgl/src/lv_widgets/lv_objmask.c **** 
 1260              		.loc 1 157 41 discriminator 2 view .LVU382
 159:lvgl/src/lv_widgets/lv_objmask.c **** 
 1261              		.loc 1 159 5 discriminator 2 view .LVU383
 159:lvgl/src/lv_widgets/lv_objmask.c **** 
 1262              		.loc 1 159 30 is_stmt 0 discriminator 2 view .LVU384
 1263 0018 3046     		mov	r0, r6
 1264 001a FFF7FEFF 		bl	lv_obj_get_ext_attr
 1265              	.LVL156:
 1266 001e 0446     		mov	r4, r0
 1267              	.LVL157:
 162:lvgl/src/lv_widgets/lv_objmask.c ****         lv_objmask_mask_t * m;
 1268              		.loc 1 162 5 is_stmt 1 discriminator 2 view .LVU385
 162:lvgl/src/lv_widgets/lv_objmask.c ****         lv_objmask_mask_t * m;
 1269              		.loc 1 162 7 is_stmt 0 discriminator 2 view .LVU386
 1270 0020 6DB1     		cbz	r5, .L101
 172:lvgl/src/lv_widgets/lv_objmask.c ****         _lv_ll_remove(&ext->mask_ll, mask);
 1271              		.loc 1 172 9 is_stmt 1 view .LVU387
 1272 0022 2868     		ldr	r0, [r5]
 1273              	.LVL158:
 172:lvgl/src/lv_widgets/lv_objmask.c ****         _lv_ll_remove(&ext->mask_ll, mask);
 1274              		.loc 1 172 9 is_stmt 0 view .LVU388
 1275 0024 FFF7FEFF 		bl	lv_mem_free
 1276              	.LVL159:
 173:lvgl/src/lv_widgets/lv_objmask.c ****         lv_mem_free(mask);
ARM GAS  D:\Temp\ccdOzXIN.s 			page 36


 1277              		.loc 1 173 9 is_stmt 1 view .LVU389
 1278 0028 2946     		mov	r1, r5
 1279 002a 201D     		adds	r0, r4, #4
 1280 002c FFF7FEFF 		bl	_lv_ll_remove
 1281              	.LVL160:
 174:lvgl/src/lv_widgets/lv_objmask.c ****     }
 1282              		.loc 1 174 9 view .LVU390
 1283 0030 2846     		mov	r0, r5
 1284 0032 FFF7FEFF 		bl	lv_mem_free
 1285              	.LVL161:
 1286              	.L99:
 177:lvgl/src/lv_widgets/lv_objmask.c **** }
 1287              		.loc 1 177 5 view .LVU391
 1288 0036 3046     		mov	r0, r6
 1289 0038 FFF7FEFF 		bl	lv_obj_invalidate
 1290              	.LVL162:
 178:lvgl/src/lv_widgets/lv_objmask.c **** 
 1291              		.loc 1 178 1 is_stmt 0 view .LVU392
 1292 003c 70BD     		pop	{r4, r5, r6, pc}
 1293              	.LVL163:
 1294              	.L101:
 1295              	.LBB17:
 163:lvgl/src/lv_widgets/lv_objmask.c ****         _LV_LL_READ(ext->mask_ll, m) {
 1296              		.loc 1 163 9 is_stmt 1 view .LVU393
 164:lvgl/src/lv_widgets/lv_objmask.c ****             lv_mem_free(m->param);
 1297              		.loc 1 164 9 view .LVU394
 1298 003e 0434     		adds	r4, r4, #4
 1299 0040 2046     		mov	r0, r4
 1300              	.LVL164:
 164:lvgl/src/lv_widgets/lv_objmask.c ****             lv_mem_free(m->param);
 1301              		.loc 1 164 9 is_stmt 0 view .LVU395
 1302 0042 FFF7FEFF 		bl	_lv_ll_get_head
 1303              	.LVL165:
 164:lvgl/src/lv_widgets/lv_objmask.c ****             lv_mem_free(m->param);
 1304              		.loc 1 164 9 view .LVU396
 1305 0046 0546     		mov	r5, r0
 1306              	.LVL166:
 164:lvgl/src/lv_widgets/lv_objmask.c ****             lv_mem_free(m->param);
 1307              		.loc 1 164 9 view .LVU397
 1308 0048 07E0     		b	.L97
 1309              	.L98:
 165:lvgl/src/lv_widgets/lv_objmask.c ****         }
 1310              		.loc 1 165 13 is_stmt 1 discriminator 3 view .LVU398
 1311 004a 2868     		ldr	r0, [r5]
 1312              	.LVL167:
 165:lvgl/src/lv_widgets/lv_objmask.c ****         }
 1313              		.loc 1 165 13 is_stmt 0 discriminator 3 view .LVU399
 1314 004c FFF7FEFF 		bl	lv_mem_free
 1315              	.LVL168:
 164:lvgl/src/lv_widgets/lv_objmask.c ****             lv_mem_free(m->param);
 1316              		.loc 1 164 9 discriminator 3 view .LVU400
 1317 0050 2946     		mov	r1, r5
 1318 0052 2046     		mov	r0, r4
 1319 0054 FFF7FEFF 		bl	_lv_ll_get_next
 1320              	.LVL169:
 1321 0058 0546     		mov	r5, r0
 1322              	.LVL170:
ARM GAS  D:\Temp\ccdOzXIN.s 			page 37


 1323              	.L97:
 164:lvgl/src/lv_widgets/lv_objmask.c ****             lv_mem_free(m->param);
 1324              		.loc 1 164 9 discriminator 1 view .LVU401
 1325 005a 002D     		cmp	r5, #0
 1326 005c F5D1     		bne	.L98
 168:lvgl/src/lv_widgets/lv_objmask.c ****     }
 1327              		.loc 1 168 9 is_stmt 1 view .LVU402
 1328 005e 2046     		mov	r0, r4
 1329              	.LVL171:
 168:lvgl/src/lv_widgets/lv_objmask.c ****     }
 1330              		.loc 1 168 9 is_stmt 0 view .LVU403
 1331 0060 FFF7FEFF 		bl	_lv_ll_clear
 1332              	.LVL172:
 1333              	.LBE17:
 1334 0064 E7E7     		b	.L99
 1335              	.L103:
 1336 0066 00BF     		.align	2
 1337              	.L102:
 1338 0068 00000000 		.word	.LC2
 1339              		.cfi_endproc
 1340              	.LFE463:
 1342              		.section	.bss.ancestor_design,"aw",%nobits
 1343              		.align	2
 1344              		.set	.LANCHOR0,. + 0
 1347              	ancestor_design:
 1348 0000 00000000 		.space	4
 1349              		.section	.bss.ancestor_signal,"aw",%nobits
 1350              		.align	2
 1351              		.set	.LANCHOR1,. + 0
 1354              	ancestor_signal:
 1355 0000 00000000 		.space	4
 1356              		.section	.rodata.lv_objmask_add_mask.str1.4,"aMS",%progbits,1
 1357              		.align	2
 1358              	.LC2:
 1359 0000 4E554C4C 		.ascii	"NULL pointer\000"
 1359      20706F69 
 1359      6E746572 
 1359      00
 1360              		.section	.rodata.lv_objmask_create.str1.4,"aMS",%progbits,1
 1361              		.align	2
 1362              	.LC1:
 1363 0000 4F757420 		.ascii	"Out of memory\000"
 1363      6F66206D 
 1363      656D6F72 
 1363      7900
 1364              		.section	.rodata.lv_objmask_signal.str1.4,"aMS",%progbits,1
 1365              		.align	2
 1366              	.LC0:
 1367 0000 6C765F6F 		.ascii	"lv_objmask\000"
 1367      626A6D61 
 1367      736B00
 1368              		.text
 1369              	.Letext0:
 1370              		.file 2 "c:\\stm32\\gnu mcu eclipse\\arm embedded gcc\\8.2.1-1.4-20190214-0604\\arm-none-eabi\\inc
 1371              		.file 3 "c:\\stm32\\gnu mcu eclipse\\arm embedded gcc\\8.2.1-1.4-20190214-0604\\arm-none-eabi\\inc
 1372              		.file 4 "Drivers/CMSIS/Include/core_cm4.h"
 1373              		.file 5 "Drivers/CMSIS/Device/ST/STM32F4xx/Include/system_stm32f4xx.h"
ARM GAS  D:\Temp\ccdOzXIN.s 			page 38


 1374              		.file 6 "Drivers/STM32F4xx_HAL_Driver/Inc/stm32f4xx_hal.h"
 1375              		.file 7 "lvgl/lv_conf.h"
 1376              		.file 8 "c:\\stm32\\gnu mcu eclipse\\arm embedded gcc\\8.2.1-1.4-20190214-0604\\arm-none-eabi\\inc
 1377              		.file 9 "c:\\stm32\\gnu mcu eclipse\\arm embedded gcc\\8.2.1-1.4-20190214-0604\\arm-none-eabi\\inc
 1378              		.file 10 "c:\\stm32\\gnu mcu eclipse\\arm embedded gcc\\8.2.1-1.4-20190214-0604\\lib\\gcc\\arm-non
 1379              		.file 11 "c:\\stm32\\gnu mcu eclipse\\arm embedded gcc\\8.2.1-1.4-20190214-0604\\arm-none-eabi\\in
 1380              		.file 12 "d:\\_project\\stm32\\f407\\hack_rf_new\\lvgl\\src\\lv_misc\\lv_types.h"
 1381              		.file 13 "d:\\_project\\stm32\\f407\\hack_rf_new\\lvgl\\src\\lv_misc\\lv_mem.h"
 1382              		.file 14 "d:\\_project\\stm32\\f407\\hack_rf_new\\lvgl\\src\\lv_misc\\lv_area.h"
 1383              		.file 15 "lvgl/src/lv_widgets/../lv_core/../lv_font/lv_font.h"
 1384              		.file 16 "lvgl/src/lv_widgets/../lv_core/../lv_misc/lv_math.h"
 1385              		.file 17 "lvgl/src/lv_widgets/../lv_core/../lv_misc/lv_color.h"
 1386              		.file 18 "lvgl/src/lv_widgets/../lv_core/../lv_misc/lv_anim.h"
 1387              		.file 19 "lvgl/src/lv_widgets/../lv_core/../lv_draw/lv_draw_mask.h"
 1388              		.file 20 "lvgl/src/lv_widgets/../lv_core/lv_style.h"
 1389              		.file 21 "lvgl/src/lv_widgets/../lv_core/../lv_hal/../lv_misc/lv_ll.h"
 1390              		.file 22 "lvgl/src/lv_widgets/../lv_core/lv_obj.h"
 1391              		.file 23 "lvgl/src/lv_widgets/../lv_core/../lv_hal/lv_hal_indev.h"
 1392              		.file 24 "d:\\_project\\stm32\\f407\\hack_rf_new\\lvgl\\src\\lv_misc\\lv_bidi.h"
 1393              		.file 25 "d:\\_project\\stm32\\f407\\hack_rf_new\\lvgl\\src\\lv_misc\\lv_txt.h"
 1394              		.file 26 "lvgl/src/lv_widgets/../lv_core/../lv_draw/lv_draw_label.h"
 1395              		.file 27 "lvgl/src/lv_widgets/../lv_widgets/lv_cont.h"
 1396              		.file 28 "lvgl/src/lv_widgets/lv_objmask.h"
 1397              		.file 29 "lvgl/src/lv_widgets/../lv_themes/lv_theme.h"
 1398              		.file 30 "lvgl/src/lv_widgets/../lv_core/../lv_misc/lv_debug.h"
 1399              		.file 31 "<built-in>"
ARM GAS  D:\Temp\ccdOzXIN.s 			page 39

