ARM GAS  D:\Temp\ccqwJTgn.s 			page 1


   1              		.cpu cortex-m4
   2              		.eabi_attribute 27, 1
   3              		.eabi_attribute 28, 1
   4              		.eabi_attribute 20, 1
   5              		.eabi_attribute 21, 1
   6              		.eabi_attribute 23, 3
   7              		.eabi_attribute 24, 1
   8              		.eabi_attribute 25, 1
   9              		.eabi_attribute 26, 1
  10              		.eabi_attribute 30, 1
  11              		.eabi_attribute 34, 1
  12              		.eabi_attribute 18, 4
  13              		.file	"lv_roller.c"
  14              		.text
  15              	.Ltext0:
  16              		.cfi_sections	.debug_frame
  17              		.section	.text.lv_roller_get_style,"ax",%progbits
  18              		.align	1
  19              		.arch armv7e-m
  20              		.syntax unified
  21              		.thumb
  22              		.thumb_func
  23              		.fpu fpv4-sp-d16
  25              	lv_roller_get_style:
  26              	.LVL0:
  27              	.LFB490:
  28              		.file 1 "lvgl/src/lv_widgets/lv_roller.c"
   1:lvgl/src/lv_widgets/lv_roller.c **** /**
   2:lvgl/src/lv_widgets/lv_roller.c ****  * @file lv_roller.c
   3:lvgl/src/lv_widgets/lv_roller.c ****  *
   4:lvgl/src/lv_widgets/lv_roller.c ****  */
   5:lvgl/src/lv_widgets/lv_roller.c **** 
   6:lvgl/src/lv_widgets/lv_roller.c **** /*********************
   7:lvgl/src/lv_widgets/lv_roller.c ****  *      INCLUDES
   8:lvgl/src/lv_widgets/lv_roller.c ****  *********************/
   9:lvgl/src/lv_widgets/lv_roller.c **** #include "lv_roller.h"
  10:lvgl/src/lv_widgets/lv_roller.c **** #if LV_USE_ROLLER != 0
  11:lvgl/src/lv_widgets/lv_roller.c **** 
  12:lvgl/src/lv_widgets/lv_roller.c **** #include "../lv_misc/lv_debug.h"
  13:lvgl/src/lv_widgets/lv_roller.c **** #include "../lv_draw/lv_draw.h"
  14:lvgl/src/lv_widgets/lv_roller.c **** #include "../lv_core/lv_group.h"
  15:lvgl/src/lv_widgets/lv_roller.c **** #include "../lv_themes/lv_theme.h"
  16:lvgl/src/lv_widgets/lv_roller.c **** 
  17:lvgl/src/lv_widgets/lv_roller.c **** /*********************
  18:lvgl/src/lv_widgets/lv_roller.c ****  *      DEFINES
  19:lvgl/src/lv_widgets/lv_roller.c ****  *********************/
  20:lvgl/src/lv_widgets/lv_roller.c **** #define LV_OBJX_NAME "lv_roller"
  21:lvgl/src/lv_widgets/lv_roller.c **** 
  22:lvgl/src/lv_widgets/lv_roller.c **** #if LV_USE_ANIMATION == 0
  23:lvgl/src/lv_widgets/lv_roller.c ****     #undef LV_ROLLER_DEF_ANIM_TIME
  24:lvgl/src/lv_widgets/lv_roller.c ****     #define LV_ROLLER_DEF_ANIM_TIME 0 /*No animation*/
  25:lvgl/src/lv_widgets/lv_roller.c **** #endif
  26:lvgl/src/lv_widgets/lv_roller.c **** 
  27:lvgl/src/lv_widgets/lv_roller.c **** /**********************
  28:lvgl/src/lv_widgets/lv_roller.c ****  *      TYPEDEFS
  29:lvgl/src/lv_widgets/lv_roller.c ****  **********************/
  30:lvgl/src/lv_widgets/lv_roller.c **** 
ARM GAS  D:\Temp\ccqwJTgn.s 			page 2


  31:lvgl/src/lv_widgets/lv_roller.c **** /**********************
  32:lvgl/src/lv_widgets/lv_roller.c ****  *  STATIC PROTOTYPES
  33:lvgl/src/lv_widgets/lv_roller.c ****  **********************/
  34:lvgl/src/lv_widgets/lv_roller.c **** static lv_design_res_t lv_roller_design(lv_obj_t * roller, const lv_area_t * clip_area, lv_design_m
  35:lvgl/src/lv_widgets/lv_roller.c **** static lv_design_res_t lv_roller_label_design(lv_obj_t * label, const lv_area_t * clip_area, lv_des
  36:lvgl/src/lv_widgets/lv_roller.c **** static lv_res_t lv_roller_scrl_signal(lv_obj_t * roller_scrl, lv_signal_t sign, void * param);
  37:lvgl/src/lv_widgets/lv_roller.c **** static lv_style_list_t * lv_roller_get_style(lv_obj_t * roller, uint8_t part);
  38:lvgl/src/lv_widgets/lv_roller.c **** static lv_res_t lv_roller_signal(lv_obj_t * roller, lv_signal_t sign, void * param);
  39:lvgl/src/lv_widgets/lv_roller.c **** static void refr_position(lv_obj_t * roller, lv_anim_enable_t animen);
  40:lvgl/src/lv_widgets/lv_roller.c **** static void refr_height(lv_obj_t * roller);
  41:lvgl/src/lv_widgets/lv_roller.c **** static void refr_width(lv_obj_t * roller);
  42:lvgl/src/lv_widgets/lv_roller.c **** static lv_res_t release_handler(lv_obj_t * roller);
  43:lvgl/src/lv_widgets/lv_roller.c **** static void inf_normalize(void * roller_scrl);
  44:lvgl/src/lv_widgets/lv_roller.c **** static lv_obj_t * get_label(const lv_obj_t * roller);
  45:lvgl/src/lv_widgets/lv_roller.c **** #if LV_USE_ANIMATION
  46:lvgl/src/lv_widgets/lv_roller.c ****     static void scroll_anim_ready_cb(lv_anim_t * a);
  47:lvgl/src/lv_widgets/lv_roller.c **** #endif
  48:lvgl/src/lv_widgets/lv_roller.c **** static void draw_bg(lv_obj_t * roller, const lv_area_t * clip_area);
  49:lvgl/src/lv_widgets/lv_roller.c **** 
  50:lvgl/src/lv_widgets/lv_roller.c **** /**********************
  51:lvgl/src/lv_widgets/lv_roller.c ****  *  STATIC VARIABLES
  52:lvgl/src/lv_widgets/lv_roller.c ****  **********************/
  53:lvgl/src/lv_widgets/lv_roller.c **** static lv_signal_cb_t ancestor_signal;
  54:lvgl/src/lv_widgets/lv_roller.c **** static lv_design_cb_t ancestor_label_design;
  55:lvgl/src/lv_widgets/lv_roller.c **** static lv_signal_cb_t ancestor_scrl_signal;
  56:lvgl/src/lv_widgets/lv_roller.c **** 
  57:lvgl/src/lv_widgets/lv_roller.c **** /**********************
  58:lvgl/src/lv_widgets/lv_roller.c ****  *      MACROS
  59:lvgl/src/lv_widgets/lv_roller.c ****  **********************/
  60:lvgl/src/lv_widgets/lv_roller.c **** 
  61:lvgl/src/lv_widgets/lv_roller.c **** /**********************
  62:lvgl/src/lv_widgets/lv_roller.c ****  *   GLOBAL FUNCTIONS
  63:lvgl/src/lv_widgets/lv_roller.c ****  **********************/
  64:lvgl/src/lv_widgets/lv_roller.c **** 
  65:lvgl/src/lv_widgets/lv_roller.c **** /**
  66:lvgl/src/lv_widgets/lv_roller.c ****  * Create a roller object
  67:lvgl/src/lv_widgets/lv_roller.c ****  * @param par pointer to an object, it will be the parent of the new roller
  68:lvgl/src/lv_widgets/lv_roller.c ****  * @param copy pointer to a roller object, if not NULL then the new object will be copied from it
  69:lvgl/src/lv_widgets/lv_roller.c ****  * @return pointer to the created roller
  70:lvgl/src/lv_widgets/lv_roller.c ****  */
  71:lvgl/src/lv_widgets/lv_roller.c **** lv_obj_t * lv_roller_create(lv_obj_t * par, const lv_obj_t * copy)
  72:lvgl/src/lv_widgets/lv_roller.c **** {
  73:lvgl/src/lv_widgets/lv_roller.c ****     LV_LOG_TRACE("roller create started");
  74:lvgl/src/lv_widgets/lv_roller.c **** 
  75:lvgl/src/lv_widgets/lv_roller.c ****     /*Create the ancestor of roller*/
  76:lvgl/src/lv_widgets/lv_roller.c ****     lv_obj_t * roller = lv_page_create(par, copy);
  77:lvgl/src/lv_widgets/lv_roller.c ****     LV_ASSERT_MEM(roller);
  78:lvgl/src/lv_widgets/lv_roller.c ****     if(roller == NULL) return NULL;
  79:lvgl/src/lv_widgets/lv_roller.c **** 
  80:lvgl/src/lv_widgets/lv_roller.c ****     if(ancestor_scrl_signal == NULL) ancestor_scrl_signal = lv_obj_get_signal_cb(lv_page_get_scroll
  81:lvgl/src/lv_widgets/lv_roller.c ****     if(ancestor_signal == NULL) ancestor_signal = lv_obj_get_signal_cb(roller);
  82:lvgl/src/lv_widgets/lv_roller.c **** 
  83:lvgl/src/lv_widgets/lv_roller.c ****     /*Allocate the roller type specific extended data*/
  84:lvgl/src/lv_widgets/lv_roller.c ****     lv_roller_ext_t * ext = lv_obj_allocate_ext_attr(roller, sizeof(lv_roller_ext_t));
  85:lvgl/src/lv_widgets/lv_roller.c ****     LV_ASSERT_MEM(ext);
  86:lvgl/src/lv_widgets/lv_roller.c ****     if(ext == NULL) {
  87:lvgl/src/lv_widgets/lv_roller.c ****         lv_obj_del(roller);
ARM GAS  D:\Temp\ccqwJTgn.s 			page 3


  88:lvgl/src/lv_widgets/lv_roller.c ****         return NULL;
  89:lvgl/src/lv_widgets/lv_roller.c ****     }
  90:lvgl/src/lv_widgets/lv_roller.c **** 
  91:lvgl/src/lv_widgets/lv_roller.c ****     ext->mode = LV_ROLLER_MODE_NORMAL;
  92:lvgl/src/lv_widgets/lv_roller.c ****     ext->option_cnt = 0;
  93:lvgl/src/lv_widgets/lv_roller.c ****     ext->sel_opt_id = 0;
  94:lvgl/src/lv_widgets/lv_roller.c ****     ext->sel_opt_id_ori = 0;
  95:lvgl/src/lv_widgets/lv_roller.c ****     ext->auto_fit = 1;
  96:lvgl/src/lv_widgets/lv_roller.c ****     lv_style_list_init(&ext->style_sel);
  97:lvgl/src/lv_widgets/lv_roller.c **** 
  98:lvgl/src/lv_widgets/lv_roller.c ****     /*The signal and design functions are not copied so set them here*/
  99:lvgl/src/lv_widgets/lv_roller.c ****     lv_obj_set_signal_cb(roller, lv_roller_signal);
 100:lvgl/src/lv_widgets/lv_roller.c ****     lv_obj_set_design_cb(roller, lv_roller_design);
 101:lvgl/src/lv_widgets/lv_roller.c **** 
 102:lvgl/src/lv_widgets/lv_roller.c ****     /*Init the new roller roller*/
 103:lvgl/src/lv_widgets/lv_roller.c ****     if(copy == NULL) {
 104:lvgl/src/lv_widgets/lv_roller.c **** 
 105:lvgl/src/lv_widgets/lv_roller.c ****         lv_obj_t * label = lv_label_create(roller, NULL);
 106:lvgl/src/lv_widgets/lv_roller.c ****         lv_label_set_align(label, LV_LABEL_ALIGN_CENTER);
 107:lvgl/src/lv_widgets/lv_roller.c ****         if(ancestor_label_design == NULL) ancestor_label_design = lv_obj_get_design_cb(label);
 108:lvgl/src/lv_widgets/lv_roller.c ****         lv_obj_set_design_cb(label, lv_roller_label_design);
 109:lvgl/src/lv_widgets/lv_roller.c ****         lv_obj_t * scrl = lv_page_get_scrollable(roller);
 110:lvgl/src/lv_widgets/lv_roller.c ****         lv_obj_set_drag(scrl, true);
 111:lvgl/src/lv_widgets/lv_roller.c ****         lv_page_set_scrollable_fit2(roller, LV_FIT_PARENT, LV_FIT_NONE); /*Height is specified dire
 112:lvgl/src/lv_widgets/lv_roller.c ****         lv_roller_set_anim_time(roller, LV_ROLLER_DEF_ANIM_TIME);
 113:lvgl/src/lv_widgets/lv_roller.c ****         lv_roller_set_options(roller, "Option 1\nOption 2\nOption 3\nOption 4\nOption 5", LV_ROLLER
 114:lvgl/src/lv_widgets/lv_roller.c **** 
 115:lvgl/src/lv_widgets/lv_roller.c ****         lv_obj_set_signal_cb(scrl, lv_roller_scrl_signal);
 116:lvgl/src/lv_widgets/lv_roller.c **** 
 117:lvgl/src/lv_widgets/lv_roller.c ****         lv_obj_clean_style_list(roller, LV_PAGE_PART_SCROLLABLE); /*Use a transparent scrollable*/
 118:lvgl/src/lv_widgets/lv_roller.c ****         lv_theme_apply(roller, LV_THEME_ROLLER);
 119:lvgl/src/lv_widgets/lv_roller.c ****         refr_height(roller);
 120:lvgl/src/lv_widgets/lv_roller.c **** 
 121:lvgl/src/lv_widgets/lv_roller.c ****         lv_roller_set_visible_row_count(roller, 3);
 122:lvgl/src/lv_widgets/lv_roller.c ****     }
 123:lvgl/src/lv_widgets/lv_roller.c ****     /*Copy an existing roller*/
 124:lvgl/src/lv_widgets/lv_roller.c ****     else {
 125:lvgl/src/lv_widgets/lv_roller.c ****         lv_label_create(roller, get_label(copy));
 126:lvgl/src/lv_widgets/lv_roller.c **** 
 127:lvgl/src/lv_widgets/lv_roller.c ****         lv_roller_ext_t * copy_ext = lv_obj_get_ext_attr(copy);
 128:lvgl/src/lv_widgets/lv_roller.c ****         ext->mode = copy_ext->mode;
 129:lvgl/src/lv_widgets/lv_roller.c ****         ext->option_cnt = copy_ext->option_cnt;
 130:lvgl/src/lv_widgets/lv_roller.c ****         ext->sel_opt_id = copy_ext->sel_opt_id;
 131:lvgl/src/lv_widgets/lv_roller.c ****         ext->sel_opt_id_ori = copy_ext->sel_opt_id;
 132:lvgl/src/lv_widgets/lv_roller.c ****         ext->auto_fit = copy_ext->auto_fit;
 133:lvgl/src/lv_widgets/lv_roller.c ****         lv_obj_t * scrl = lv_page_get_scrollable(roller);
 134:lvgl/src/lv_widgets/lv_roller.c ****         lv_obj_set_signal_cb(scrl, lv_roller_scrl_signal);
 135:lvgl/src/lv_widgets/lv_roller.c **** 
 136:lvgl/src/lv_widgets/lv_roller.c ****         lv_style_list_copy(&ext->style_sel, &copy_ext->style_sel);
 137:lvgl/src/lv_widgets/lv_roller.c ****         lv_obj_refresh_style(roller, LV_OBJ_PART_ALL, LV_STYLE_PROP_ALL);
 138:lvgl/src/lv_widgets/lv_roller.c ****     }
 139:lvgl/src/lv_widgets/lv_roller.c **** 
 140:lvgl/src/lv_widgets/lv_roller.c ****     LV_LOG_INFO("roller created");
 141:lvgl/src/lv_widgets/lv_roller.c **** 
 142:lvgl/src/lv_widgets/lv_roller.c ****     return roller;
 143:lvgl/src/lv_widgets/lv_roller.c **** }
 144:lvgl/src/lv_widgets/lv_roller.c **** 
ARM GAS  D:\Temp\ccqwJTgn.s 			page 4


 145:lvgl/src/lv_widgets/lv_roller.c **** /*=====================
 146:lvgl/src/lv_widgets/lv_roller.c ****  * Setter functions
 147:lvgl/src/lv_widgets/lv_roller.c ****  *====================*/
 148:lvgl/src/lv_widgets/lv_roller.c **** 
 149:lvgl/src/lv_widgets/lv_roller.c **** /**
 150:lvgl/src/lv_widgets/lv_roller.c ****  * Set the options on a roller
 151:lvgl/src/lv_widgets/lv_roller.c ****  * @param roller pointer to roller object
 152:lvgl/src/lv_widgets/lv_roller.c ****  * @param options a string with '\n' separated options. E.g. "One\nTwo\nThree"
 153:lvgl/src/lv_widgets/lv_roller.c ****  * @param mode `LV_ROLLER_MODE_NORMAL` or `LV_ROLLER_MODE_INFINITE`
 154:lvgl/src/lv_widgets/lv_roller.c ****  */
 155:lvgl/src/lv_widgets/lv_roller.c **** void lv_roller_set_options(lv_obj_t * roller, const char * options, lv_roller_mode_t mode)
 156:lvgl/src/lv_widgets/lv_roller.c **** {
 157:lvgl/src/lv_widgets/lv_roller.c ****     LV_ASSERT_OBJ(roller, LV_OBJX_NAME);
 158:lvgl/src/lv_widgets/lv_roller.c ****     LV_ASSERT_STR(options);
 159:lvgl/src/lv_widgets/lv_roller.c **** 
 160:lvgl/src/lv_widgets/lv_roller.c ****     lv_roller_ext_t * ext = lv_obj_get_ext_attr(roller);
 161:lvgl/src/lv_widgets/lv_roller.c ****     lv_obj_t * label = get_label(roller);
 162:lvgl/src/lv_widgets/lv_roller.c **** 
 163:lvgl/src/lv_widgets/lv_roller.c ****     ext->sel_opt_id     = 0;
 164:lvgl/src/lv_widgets/lv_roller.c ****     ext->sel_opt_id_ori = 0;
 165:lvgl/src/lv_widgets/lv_roller.c **** 
 166:lvgl/src/lv_widgets/lv_roller.c ****     /*Count the '\n'-s to determine the number of options*/
 167:lvgl/src/lv_widgets/lv_roller.c ****     ext->option_cnt = 0;
 168:lvgl/src/lv_widgets/lv_roller.c ****     uint32_t cnt;
 169:lvgl/src/lv_widgets/lv_roller.c ****     for(cnt = 0; options[cnt] != '\0'; cnt++) {
 170:lvgl/src/lv_widgets/lv_roller.c ****         if(options[cnt] == '\n') ext->option_cnt++;
 171:lvgl/src/lv_widgets/lv_roller.c ****     }
 172:lvgl/src/lv_widgets/lv_roller.c ****     ext->option_cnt++; /*Last option has no `\n`*/
 173:lvgl/src/lv_widgets/lv_roller.c **** 
 174:lvgl/src/lv_widgets/lv_roller.c ****     if(mode == LV_ROLLER_MODE_NORMAL) {
 175:lvgl/src/lv_widgets/lv_roller.c ****         ext->mode = LV_ROLLER_MODE_NORMAL;
 176:lvgl/src/lv_widgets/lv_roller.c ****         lv_label_set_text(label, options);
 177:lvgl/src/lv_widgets/lv_roller.c ****     }
 178:lvgl/src/lv_widgets/lv_roller.c ****     else {
 179:lvgl/src/lv_widgets/lv_roller.c ****         ext->mode = LV_ROLLER_MODE_INFINITE;
 180:lvgl/src/lv_widgets/lv_roller.c **** 
 181:lvgl/src/lv_widgets/lv_roller.c ****         size_t opt_len = strlen(options) + 1; /*+1 to add '\n' after option lists*/
 182:lvgl/src/lv_widgets/lv_roller.c ****         char * opt_extra = _lv_mem_buf_get(opt_len * LV_ROLLER_INF_PAGES);
 183:lvgl/src/lv_widgets/lv_roller.c ****         uint8_t i;
 184:lvgl/src/lv_widgets/lv_roller.c ****         for(i = 0; i < LV_ROLLER_INF_PAGES; i++) {
 185:lvgl/src/lv_widgets/lv_roller.c ****             strcpy(&opt_extra[opt_len * i], options);
 186:lvgl/src/lv_widgets/lv_roller.c ****             opt_extra[opt_len * (i + 1) - 1] = '\n';
 187:lvgl/src/lv_widgets/lv_roller.c ****         }
 188:lvgl/src/lv_widgets/lv_roller.c ****         opt_extra[opt_len * LV_ROLLER_INF_PAGES - 1] = '\0';
 189:lvgl/src/lv_widgets/lv_roller.c ****         lv_label_set_text(label, opt_extra);
 190:lvgl/src/lv_widgets/lv_roller.c ****         _lv_mem_buf_release(opt_extra);
 191:lvgl/src/lv_widgets/lv_roller.c **** 
 192:lvgl/src/lv_widgets/lv_roller.c ****         ext->sel_opt_id     = ((LV_ROLLER_INF_PAGES / 2) + 0) * ext->option_cnt;
 193:lvgl/src/lv_widgets/lv_roller.c **** 
 194:lvgl/src/lv_widgets/lv_roller.c ****         ext->option_cnt = ext->option_cnt * LV_ROLLER_INF_PAGES;
 195:lvgl/src/lv_widgets/lv_roller.c ****     }
 196:lvgl/src/lv_widgets/lv_roller.c **** 
 197:lvgl/src/lv_widgets/lv_roller.c ****     ext->sel_opt_id_ori = ext->sel_opt_id;
 198:lvgl/src/lv_widgets/lv_roller.c **** 
 199:lvgl/src/lv_widgets/lv_roller.c ****     refr_height(roller);
 200:lvgl/src/lv_widgets/lv_roller.c ****     refr_width(roller);
 201:lvgl/src/lv_widgets/lv_roller.c **** }
ARM GAS  D:\Temp\ccqwJTgn.s 			page 5


 202:lvgl/src/lv_widgets/lv_roller.c **** 
 203:lvgl/src/lv_widgets/lv_roller.c **** /**
 204:lvgl/src/lv_widgets/lv_roller.c ****  * Set the align of the roller's options (left or center)
 205:lvgl/src/lv_widgets/lv_roller.c ****  * @param roller - pointer to a roller object
 206:lvgl/src/lv_widgets/lv_roller.c ****  * @param align - one of lv_label_align_t values (left, right, center)
 207:lvgl/src/lv_widgets/lv_roller.c ****  */
 208:lvgl/src/lv_widgets/lv_roller.c **** void lv_roller_set_align(lv_obj_t * roller, lv_label_align_t align)
 209:lvgl/src/lv_widgets/lv_roller.c **** {
 210:lvgl/src/lv_widgets/lv_roller.c ****     LV_ASSERT_OBJ(roller, LV_OBJX_NAME);
 211:lvgl/src/lv_widgets/lv_roller.c **** 
 212:lvgl/src/lv_widgets/lv_roller.c ****     lv_obj_t * label = get_label(roller);
 213:lvgl/src/lv_widgets/lv_roller.c ****     if(label == NULL) return; /*Probably the roller is being deleted if the label is NULL.*/
 214:lvgl/src/lv_widgets/lv_roller.c **** 
 215:lvgl/src/lv_widgets/lv_roller.c ****     lv_label_set_align(label, align);
 216:lvgl/src/lv_widgets/lv_roller.c ****     refr_width(roller); /*To set the correct label position*/
 217:lvgl/src/lv_widgets/lv_roller.c **** }
 218:lvgl/src/lv_widgets/lv_roller.c **** 
 219:lvgl/src/lv_widgets/lv_roller.c **** /**
 220:lvgl/src/lv_widgets/lv_roller.c ****  * Set the selected option
 221:lvgl/src/lv_widgets/lv_roller.c ****  * @param roller pointer to a roller object
 222:lvgl/src/lv_widgets/lv_roller.c ****  * @param sel_opt id of the selected option (0 ... number of option - 1);
 223:lvgl/src/lv_widgets/lv_roller.c ****  * @param anim_en LV_ANIM_ON: set with animation; LV_ANOM_OFF set immediately
 224:lvgl/src/lv_widgets/lv_roller.c ****  */
 225:lvgl/src/lv_widgets/lv_roller.c **** void lv_roller_set_selected(lv_obj_t * roller, uint16_t sel_opt, lv_anim_enable_t anim)
 226:lvgl/src/lv_widgets/lv_roller.c **** {
 227:lvgl/src/lv_widgets/lv_roller.c ****     LV_ASSERT_OBJ(roller, LV_OBJX_NAME);
 228:lvgl/src/lv_widgets/lv_roller.c **** 
 229:lvgl/src/lv_widgets/lv_roller.c **** #if LV_USE_ANIMATION == 0
 230:lvgl/src/lv_widgets/lv_roller.c ****     anim = LV_ANIM_OFF;
 231:lvgl/src/lv_widgets/lv_roller.c **** #endif
 232:lvgl/src/lv_widgets/lv_roller.c **** 
 233:lvgl/src/lv_widgets/lv_roller.c ****     /* Set the value even if it's the same as the current value because
 234:lvgl/src/lv_widgets/lv_roller.c ****      * if moving to the next option with an animation which was just deleted in the PRESS signal
 235:lvgl/src/lv_widgets/lv_roller.c ****      * nothing will continue the animation. */
 236:lvgl/src/lv_widgets/lv_roller.c **** 
 237:lvgl/src/lv_widgets/lv_roller.c ****     lv_roller_ext_t * ext = lv_obj_get_ext_attr(roller);
 238:lvgl/src/lv_widgets/lv_roller.c **** 
 239:lvgl/src/lv_widgets/lv_roller.c ****     /*In infinite mode interpret the new ID relative to the currently visible "page"*/
 240:lvgl/src/lv_widgets/lv_roller.c ****     if(ext->mode == LV_ROLLER_MODE_INFINITE) {
 241:lvgl/src/lv_widgets/lv_roller.c ****         int32_t sel_opt_signed = sel_opt;
 242:lvgl/src/lv_widgets/lv_roller.c ****         uint16_t page = ext->sel_opt_id / LV_ROLLER_INF_PAGES;
 243:lvgl/src/lv_widgets/lv_roller.c **** 
 244:lvgl/src/lv_widgets/lv_roller.c ****         /* `sel_opt` should be less than the number of options set by the user.
 245:lvgl/src/lv_widgets/lv_roller.c ****          * If it's more then probably it's a reference from not the first page
 246:lvgl/src/lv_widgets/lv_roller.c ****          * so normalize `sel_opt` */
 247:lvgl/src/lv_widgets/lv_roller.c ****         if(page != 0) {
 248:lvgl/src/lv_widgets/lv_roller.c ****             sel_opt_signed -= page * LV_ROLLER_INF_PAGES;
 249:lvgl/src/lv_widgets/lv_roller.c ****         }
 250:lvgl/src/lv_widgets/lv_roller.c **** 
 251:lvgl/src/lv_widgets/lv_roller.c ****         sel_opt = page * LV_ROLLER_INF_PAGES + sel_opt_signed;
 252:lvgl/src/lv_widgets/lv_roller.c ****     }
 253:lvgl/src/lv_widgets/lv_roller.c **** 
 254:lvgl/src/lv_widgets/lv_roller.c ****     ext->sel_opt_id     = sel_opt < ext->option_cnt ? sel_opt : ext->option_cnt - 1;
 255:lvgl/src/lv_widgets/lv_roller.c ****     ext->sel_opt_id_ori = ext->sel_opt_id;
 256:lvgl/src/lv_widgets/lv_roller.c **** 
 257:lvgl/src/lv_widgets/lv_roller.c ****     refr_position(roller, anim);
 258:lvgl/src/lv_widgets/lv_roller.c **** }
ARM GAS  D:\Temp\ccqwJTgn.s 			page 6


 259:lvgl/src/lv_widgets/lv_roller.c **** 
 260:lvgl/src/lv_widgets/lv_roller.c **** /**
 261:lvgl/src/lv_widgets/lv_roller.c ****  * Set the height to show the given number of rows (options)
 262:lvgl/src/lv_widgets/lv_roller.c ****  * @param roller pointer to a roller object
 263:lvgl/src/lv_widgets/lv_roller.c ****  * @param row_cnt number of desired visible rows
 264:lvgl/src/lv_widgets/lv_roller.c ****  */
 265:lvgl/src/lv_widgets/lv_roller.c **** void lv_roller_set_visible_row_count(lv_obj_t * roller, uint8_t row_cnt)
 266:lvgl/src/lv_widgets/lv_roller.c **** {
 267:lvgl/src/lv_widgets/lv_roller.c ****     LV_ASSERT_OBJ(roller, LV_OBJX_NAME);
 268:lvgl/src/lv_widgets/lv_roller.c **** 
 269:lvgl/src/lv_widgets/lv_roller.c ****     const lv_font_t * font = lv_obj_get_style_text_font(roller, LV_ROLLER_PART_BG);
 270:lvgl/src/lv_widgets/lv_roller.c ****     lv_style_int_t line_space = lv_obj_get_style_text_line_space(roller, LV_ROLLER_PART_BG);
 271:lvgl/src/lv_widgets/lv_roller.c ****     lv_obj_set_height(roller, (lv_font_get_line_height(font) + line_space) * row_cnt);
 272:lvgl/src/lv_widgets/lv_roller.c **** 
 273:lvgl/src/lv_widgets/lv_roller.c ****     refr_height(roller);
 274:lvgl/src/lv_widgets/lv_roller.c ****     refr_position(roller, LV_ANIM_OFF);
 275:lvgl/src/lv_widgets/lv_roller.c **** }
 276:lvgl/src/lv_widgets/lv_roller.c **** 
 277:lvgl/src/lv_widgets/lv_roller.c **** /**
 278:lvgl/src/lv_widgets/lv_roller.c ****  * Allow automatically setting the width of roller according to it's content.
 279:lvgl/src/lv_widgets/lv_roller.c ****  * @param roller pointer to a roller object
 280:lvgl/src/lv_widgets/lv_roller.c ****  * @param auto_fit true: enable auto fit
 281:lvgl/src/lv_widgets/lv_roller.c ****  */
 282:lvgl/src/lv_widgets/lv_roller.c **** void lv_roller_set_auto_fit(lv_obj_t * roller, bool auto_fit)
 283:lvgl/src/lv_widgets/lv_roller.c **** {
 284:lvgl/src/lv_widgets/lv_roller.c ****     LV_ASSERT_OBJ(roller, LV_OBJX_NAME);
 285:lvgl/src/lv_widgets/lv_roller.c ****     lv_roller_ext_t * ext = lv_obj_get_ext_attr(roller);
 286:lvgl/src/lv_widgets/lv_roller.c ****     ext->auto_fit = auto_fit;
 287:lvgl/src/lv_widgets/lv_roller.c ****     refr_width(roller);
 288:lvgl/src/lv_widgets/lv_roller.c **** }
 289:lvgl/src/lv_widgets/lv_roller.c **** 
 290:lvgl/src/lv_widgets/lv_roller.c **** /*=====================
 291:lvgl/src/lv_widgets/lv_roller.c ****  * Getter functions
 292:lvgl/src/lv_widgets/lv_roller.c ****  *====================*/
 293:lvgl/src/lv_widgets/lv_roller.c **** 
 294:lvgl/src/lv_widgets/lv_roller.c **** /**
 295:lvgl/src/lv_widgets/lv_roller.c ****  * Get the id of the selected option
 296:lvgl/src/lv_widgets/lv_roller.c ****  * @param roller pointer to a roller object
 297:lvgl/src/lv_widgets/lv_roller.c ****  * @return id of the selected option (0 ... number of option - 1);
 298:lvgl/src/lv_widgets/lv_roller.c ****  */
 299:lvgl/src/lv_widgets/lv_roller.c **** uint16_t lv_roller_get_selected(const lv_obj_t * roller)
 300:lvgl/src/lv_widgets/lv_roller.c **** {
 301:lvgl/src/lv_widgets/lv_roller.c ****     LV_ASSERT_OBJ(roller, LV_OBJX_NAME);
 302:lvgl/src/lv_widgets/lv_roller.c **** 
 303:lvgl/src/lv_widgets/lv_roller.c ****     lv_roller_ext_t * ext = lv_obj_get_ext_attr(roller);
 304:lvgl/src/lv_widgets/lv_roller.c ****     if(ext->mode == LV_ROLLER_MODE_INFINITE) {
 305:lvgl/src/lv_widgets/lv_roller.c ****         uint16_t real_id_cnt = ext->option_cnt / LV_ROLLER_INF_PAGES;
 306:lvgl/src/lv_widgets/lv_roller.c ****         return ext->sel_opt_id % real_id_cnt;
 307:lvgl/src/lv_widgets/lv_roller.c ****     }
 308:lvgl/src/lv_widgets/lv_roller.c ****     else {
 309:lvgl/src/lv_widgets/lv_roller.c ****         return ext->sel_opt_id;
 310:lvgl/src/lv_widgets/lv_roller.c ****     }
 311:lvgl/src/lv_widgets/lv_roller.c **** }
 312:lvgl/src/lv_widgets/lv_roller.c **** 
 313:lvgl/src/lv_widgets/lv_roller.c **** /**
 314:lvgl/src/lv_widgets/lv_roller.c ****  * Get the current selected option as a string
 315:lvgl/src/lv_widgets/lv_roller.c ****  * @param ddlist pointer to ddlist object
ARM GAS  D:\Temp\ccqwJTgn.s 			page 7


 316:lvgl/src/lv_widgets/lv_roller.c ****  * @param buf pointer to an array to store the string
 317:lvgl/src/lv_widgets/lv_roller.c ****  * @param buf_size size of `buf` in bytes. 0: to ignore it.
 318:lvgl/src/lv_widgets/lv_roller.c ****  */
 319:lvgl/src/lv_widgets/lv_roller.c **** void lv_roller_get_selected_str(const lv_obj_t * roller, char * buf, uint32_t buf_size)
 320:lvgl/src/lv_widgets/lv_roller.c **** {
 321:lvgl/src/lv_widgets/lv_roller.c ****     LV_ASSERT_OBJ(roller, LV_OBJX_NAME);
 322:lvgl/src/lv_widgets/lv_roller.c **** 
 323:lvgl/src/lv_widgets/lv_roller.c ****     lv_roller_ext_t * ext = lv_obj_get_ext_attr(roller);
 324:lvgl/src/lv_widgets/lv_roller.c ****     lv_obj_t * label = get_label(roller);
 325:lvgl/src/lv_widgets/lv_roller.c ****     uint32_t i;
 326:lvgl/src/lv_widgets/lv_roller.c ****     uint16_t line        = 0;
 327:lvgl/src/lv_widgets/lv_roller.c ****     const char * opt_txt = lv_label_get_text(label);
 328:lvgl/src/lv_widgets/lv_roller.c ****     size_t txt_len     = strlen(opt_txt);
 329:lvgl/src/lv_widgets/lv_roller.c **** 
 330:lvgl/src/lv_widgets/lv_roller.c ****     for(i = 0; i < txt_len && line != ext->sel_opt_id; i++) {
 331:lvgl/src/lv_widgets/lv_roller.c ****         if(opt_txt[i] == '\n') line++;
 332:lvgl/src/lv_widgets/lv_roller.c ****     }
 333:lvgl/src/lv_widgets/lv_roller.c **** 
 334:lvgl/src/lv_widgets/lv_roller.c ****     uint32_t c;
 335:lvgl/src/lv_widgets/lv_roller.c ****     for(c = 0; i < txt_len && opt_txt[i] != '\n'; c++, i++) {
 336:lvgl/src/lv_widgets/lv_roller.c ****         if(buf_size && c >= buf_size - 1) {
 337:lvgl/src/lv_widgets/lv_roller.c ****             LV_LOG_WARN("lv_dropdown_get_selected_str: the buffer was too small")
 338:lvgl/src/lv_widgets/lv_roller.c ****             break;
 339:lvgl/src/lv_widgets/lv_roller.c ****         }
 340:lvgl/src/lv_widgets/lv_roller.c ****         buf[c] = opt_txt[i];
 341:lvgl/src/lv_widgets/lv_roller.c ****     }
 342:lvgl/src/lv_widgets/lv_roller.c **** 
 343:lvgl/src/lv_widgets/lv_roller.c ****     buf[c] = '\0';
 344:lvgl/src/lv_widgets/lv_roller.c **** }
 345:lvgl/src/lv_widgets/lv_roller.c **** 
 346:lvgl/src/lv_widgets/lv_roller.c **** /**
 347:lvgl/src/lv_widgets/lv_roller.c ****  * Get the total number of options
 348:lvgl/src/lv_widgets/lv_roller.c ****  * @param roller pointer to a roller object
 349:lvgl/src/lv_widgets/lv_roller.c ****  * @return the total number of options
 350:lvgl/src/lv_widgets/lv_roller.c ****  */
 351:lvgl/src/lv_widgets/lv_roller.c **** uint16_t lv_roller_get_option_cnt(const lv_obj_t * roller)
 352:lvgl/src/lv_widgets/lv_roller.c **** {
 353:lvgl/src/lv_widgets/lv_roller.c ****     LV_ASSERT_OBJ(roller, LV_OBJX_NAME);
 354:lvgl/src/lv_widgets/lv_roller.c **** 
 355:lvgl/src/lv_widgets/lv_roller.c ****     lv_roller_ext_t * ext = lv_obj_get_ext_attr(roller);
 356:lvgl/src/lv_widgets/lv_roller.c ****     if(ext->mode == LV_ROLLER_MODE_INFINITE) {
 357:lvgl/src/lv_widgets/lv_roller.c ****         return ext->option_cnt / LV_ROLLER_INF_PAGES;
 358:lvgl/src/lv_widgets/lv_roller.c ****     }
 359:lvgl/src/lv_widgets/lv_roller.c ****     else {
 360:lvgl/src/lv_widgets/lv_roller.c ****         return ext->option_cnt;
 361:lvgl/src/lv_widgets/lv_roller.c ****     }
 362:lvgl/src/lv_widgets/lv_roller.c **** }
 363:lvgl/src/lv_widgets/lv_roller.c **** 
 364:lvgl/src/lv_widgets/lv_roller.c **** /**
 365:lvgl/src/lv_widgets/lv_roller.c ****  * Get the align attribute. Default alignment after _create is LV_LABEL_ALIGN_CENTER
 366:lvgl/src/lv_widgets/lv_roller.c ****  * @param roller pointer to a roller object
 367:lvgl/src/lv_widgets/lv_roller.c ****  * @return LV_LABEL_ALIGN_LEFT, LV_LABEL_ALIGN_RIGHT or LV_LABEL_ALIGN_CENTER
 368:lvgl/src/lv_widgets/lv_roller.c ****  */
 369:lvgl/src/lv_widgets/lv_roller.c **** lv_label_align_t lv_roller_get_align(const lv_obj_t * roller)
 370:lvgl/src/lv_widgets/lv_roller.c **** {
 371:lvgl/src/lv_widgets/lv_roller.c ****     LV_ASSERT_OBJ(roller, LV_OBJX_NAME);
 372:lvgl/src/lv_widgets/lv_roller.c **** 
ARM GAS  D:\Temp\ccqwJTgn.s 			page 8


 373:lvgl/src/lv_widgets/lv_roller.c ****     return lv_label_get_align(get_label(roller));
 374:lvgl/src/lv_widgets/lv_roller.c **** }
 375:lvgl/src/lv_widgets/lv_roller.c **** 
 376:lvgl/src/lv_widgets/lv_roller.c **** /**
 377:lvgl/src/lv_widgets/lv_roller.c ****  * Get whether the auto fit option is enabled or not.
 378:lvgl/src/lv_widgets/lv_roller.c ****  * @param roller pointer to a roller object
 379:lvgl/src/lv_widgets/lv_roller.c ****  * @return true: auto fit is enabled
 380:lvgl/src/lv_widgets/lv_roller.c ****  */
 381:lvgl/src/lv_widgets/lv_roller.c **** bool lv_roller_get_auto_fit(lv_obj_t * roller)
 382:lvgl/src/lv_widgets/lv_roller.c **** {
 383:lvgl/src/lv_widgets/lv_roller.c ****     LV_ASSERT_OBJ(roller, LV_OBJX_NAME);
 384:lvgl/src/lv_widgets/lv_roller.c ****     lv_roller_ext_t * ext = lv_obj_get_ext_attr(roller);
 385:lvgl/src/lv_widgets/lv_roller.c ****     return ext->auto_fit ? true : false;
 386:lvgl/src/lv_widgets/lv_roller.c **** }
 387:lvgl/src/lv_widgets/lv_roller.c **** 
 388:lvgl/src/lv_widgets/lv_roller.c **** /**
 389:lvgl/src/lv_widgets/lv_roller.c ****  * Get the options of a roller
 390:lvgl/src/lv_widgets/lv_roller.c ****  * @param roller pointer to roller object
 391:lvgl/src/lv_widgets/lv_roller.c ****  * @return the options separated by '\n'-s (E.g. "Option1\nOption2\nOption3")
 392:lvgl/src/lv_widgets/lv_roller.c ****  */
 393:lvgl/src/lv_widgets/lv_roller.c **** const char * lv_roller_get_options(const lv_obj_t * roller)
 394:lvgl/src/lv_widgets/lv_roller.c **** {
 395:lvgl/src/lv_widgets/lv_roller.c ****     LV_ASSERT_OBJ(roller, LV_OBJX_NAME);
 396:lvgl/src/lv_widgets/lv_roller.c **** 
 397:lvgl/src/lv_widgets/lv_roller.c ****     return lv_label_get_text(get_label(roller));
 398:lvgl/src/lv_widgets/lv_roller.c **** }
 399:lvgl/src/lv_widgets/lv_roller.c **** 
 400:lvgl/src/lv_widgets/lv_roller.c **** /**********************
 401:lvgl/src/lv_widgets/lv_roller.c ****  *   STATIC FUNCTIONS
 402:lvgl/src/lv_widgets/lv_roller.c ****  **********************/
 403:lvgl/src/lv_widgets/lv_roller.c **** 
 404:lvgl/src/lv_widgets/lv_roller.c **** /**
 405:lvgl/src/lv_widgets/lv_roller.c ****  * Handle the drawing related tasks of the rollers
 406:lvgl/src/lv_widgets/lv_roller.c ****  * @param roller pointer to an object
 407:lvgl/src/lv_widgets/lv_roller.c ****  * @param clip_area the object will be drawn only in this area
 408:lvgl/src/lv_widgets/lv_roller.c ****  * @param mode LV_DESIGN_COVER_CHK: only check if the object fully covers the 'mask_p' area
 409:lvgl/src/lv_widgets/lv_roller.c ****  *                                  (return 'true' if yes)
 410:lvgl/src/lv_widgets/lv_roller.c ****  *             LV_DESIGN_DRAW: draw the object (always return 'true')
 411:lvgl/src/lv_widgets/lv_roller.c ****  *             LV_DESIGN_DRAW_POST: drawing after all children are drawn
 412:lvgl/src/lv_widgets/lv_roller.c ****  * @param return an element of `lv_design_res_t`
 413:lvgl/src/lv_widgets/lv_roller.c ****  */
 414:lvgl/src/lv_widgets/lv_roller.c **** static lv_design_res_t lv_roller_design(lv_obj_t * roller, const lv_area_t * clip_area, lv_design_m
 415:lvgl/src/lv_widgets/lv_roller.c **** {
 416:lvgl/src/lv_widgets/lv_roller.c ****     if(mode == LV_DESIGN_COVER_CHK) {
 417:lvgl/src/lv_widgets/lv_roller.c ****         return LV_DESIGN_RES_NOT_COVER;
 418:lvgl/src/lv_widgets/lv_roller.c ****     }
 419:lvgl/src/lv_widgets/lv_roller.c ****     /*Draw the object*/
 420:lvgl/src/lv_widgets/lv_roller.c ****     else if(mode == LV_DESIGN_DRAW_MAIN) {
 421:lvgl/src/lv_widgets/lv_roller.c ****         draw_bg(roller, clip_area);
 422:lvgl/src/lv_widgets/lv_roller.c **** 
 423:lvgl/src/lv_widgets/lv_roller.c ****         const lv_font_t * font = lv_obj_get_style_text_font(roller, LV_ROLLER_PART_BG);
 424:lvgl/src/lv_widgets/lv_roller.c ****         lv_style_int_t line_space = lv_obj_get_style_text_line_space(roller, LV_ROLLER_PART_BG);
 425:lvgl/src/lv_widgets/lv_roller.c ****         lv_coord_t font_h        = lv_font_get_line_height(font);
 426:lvgl/src/lv_widgets/lv_roller.c ****         lv_area_t rect_area;
 427:lvgl/src/lv_widgets/lv_roller.c ****         rect_area.y1 = roller->coords.y1 + lv_obj_get_height(roller) / 2 - font_h / 2 - line_space 
 428:lvgl/src/lv_widgets/lv_roller.c ****         if((font_h & 0x1) && (line_space & 0x1)) rect_area.y1--; /*Compensate the two rounding erro
 429:lvgl/src/lv_widgets/lv_roller.c ****         rect_area.y2 = rect_area.y1 + font_h + line_space - 1;
ARM GAS  D:\Temp\ccqwJTgn.s 			page 9


 430:lvgl/src/lv_widgets/lv_roller.c ****         lv_area_t roller_coords;
 431:lvgl/src/lv_widgets/lv_roller.c ****         lv_obj_get_coords(roller, &roller_coords);
 432:lvgl/src/lv_widgets/lv_roller.c ****         lv_obj_get_inner_coords(roller, &roller_coords);
 433:lvgl/src/lv_widgets/lv_roller.c **** 
 434:lvgl/src/lv_widgets/lv_roller.c ****         rect_area.x1 = roller_coords.x1;
 435:lvgl/src/lv_widgets/lv_roller.c ****         rect_area.x2 = roller_coords.x2;
 436:lvgl/src/lv_widgets/lv_roller.c **** 
 437:lvgl/src/lv_widgets/lv_roller.c ****         lv_draw_rect_dsc_t sel_dsc;
 438:lvgl/src/lv_widgets/lv_roller.c ****         lv_draw_rect_dsc_init(&sel_dsc);
 439:lvgl/src/lv_widgets/lv_roller.c ****         lv_obj_init_draw_rect_dsc(roller, LV_ROLLER_PART_SELECTED, &sel_dsc);
 440:lvgl/src/lv_widgets/lv_roller.c ****         lv_draw_rect(&rect_area, clip_area, &sel_dsc);
 441:lvgl/src/lv_widgets/lv_roller.c ****     }
 442:lvgl/src/lv_widgets/lv_roller.c ****     /*Post draw when the children are drawn*/
 443:lvgl/src/lv_widgets/lv_roller.c ****     else if(mode == LV_DESIGN_DRAW_POST) {
 444:lvgl/src/lv_widgets/lv_roller.c ****         lv_draw_label_dsc_t label_dsc;
 445:lvgl/src/lv_widgets/lv_roller.c ****         lv_draw_label_dsc_init(&label_dsc);
 446:lvgl/src/lv_widgets/lv_roller.c ****         lv_obj_init_draw_label_dsc(roller, LV_ROLLER_PART_SELECTED, &label_dsc);
 447:lvgl/src/lv_widgets/lv_roller.c **** 
 448:lvgl/src/lv_widgets/lv_roller.c ****         lv_coord_t bg_font_h        = lv_font_get_line_height(lv_obj_get_style_text_font(roller, LV
 449:lvgl/src/lv_widgets/lv_roller.c **** 
 450:lvgl/src/lv_widgets/lv_roller.c ****         /*Redraw the text on the selected area*/
 451:lvgl/src/lv_widgets/lv_roller.c ****         lv_area_t rect_area;
 452:lvgl/src/lv_widgets/lv_roller.c ****         rect_area.y1 = roller->coords.y1 + lv_obj_get_height(roller) / 2 - bg_font_h / 2 - label_ds
 453:lvgl/src/lv_widgets/lv_roller.c ****         if((bg_font_h & 0x1) && (label_dsc.line_space & 0x1)) rect_area.y1--; /*Compensate the two 
 454:lvgl/src/lv_widgets/lv_roller.c ****         rect_area.y2 = rect_area.y1 + bg_font_h + label_dsc.line_space - 1;
 455:lvgl/src/lv_widgets/lv_roller.c ****         rect_area.x1 = roller->coords.x1;
 456:lvgl/src/lv_widgets/lv_roller.c ****         rect_area.x2 = roller->coords.x2;
 457:lvgl/src/lv_widgets/lv_roller.c ****         lv_area_t mask_sel;
 458:lvgl/src/lv_widgets/lv_roller.c ****         bool area_ok;
 459:lvgl/src/lv_widgets/lv_roller.c ****         area_ok = _lv_area_intersect(&mask_sel, clip_area, &rect_area);
 460:lvgl/src/lv_widgets/lv_roller.c ****         if(area_ok) {
 461:lvgl/src/lv_widgets/lv_roller.c ****             lv_obj_t * label = get_label(roller);
 462:lvgl/src/lv_widgets/lv_roller.c ****             lv_label_align_t label_align = lv_roller_get_align(roller);
 463:lvgl/src/lv_widgets/lv_roller.c **** 
 464:lvgl/src/lv_widgets/lv_roller.c ****             if(LV_LABEL_ALIGN_CENTER == label_align) {
 465:lvgl/src/lv_widgets/lv_roller.c ****                 label_dsc.flag |= LV_TXT_FLAG_CENTER;
 466:lvgl/src/lv_widgets/lv_roller.c ****             }
 467:lvgl/src/lv_widgets/lv_roller.c ****             else if(LV_LABEL_ALIGN_RIGHT == label_align) {
 468:lvgl/src/lv_widgets/lv_roller.c ****                 label_dsc.flag |= LV_TXT_FLAG_RIGHT;
 469:lvgl/src/lv_widgets/lv_roller.c ****             }
 470:lvgl/src/lv_widgets/lv_roller.c **** 
 471:lvgl/src/lv_widgets/lv_roller.c ****             /*Get the size of the "selected text"*/
 472:lvgl/src/lv_widgets/lv_roller.c ****             lv_point_t res_p;
 473:lvgl/src/lv_widgets/lv_roller.c ****             _lv_txt_get_size(&res_p, lv_label_get_text(label), label_dsc.font, label_dsc.letter_spa
 474:lvgl/src/lv_widgets/lv_roller.c ****                              lv_obj_get_width(roller), LV_TXT_FLAG_EXPAND);
 475:lvgl/src/lv_widgets/lv_roller.c **** 
 476:lvgl/src/lv_widgets/lv_roller.c ****             /*Move the selected label proportionally with the background label*/
 477:lvgl/src/lv_widgets/lv_roller.c ****             lv_coord_t roller_h = lv_obj_get_height(roller);
 478:lvgl/src/lv_widgets/lv_roller.c ****             int32_t label_y_prop = label->coords.y1 - (roller_h / 2 +
 479:lvgl/src/lv_widgets/lv_roller.c ****                                                        roller->coords.y1); /*label offset from the 
 480:lvgl/src/lv_widgets/lv_roller.c ****             label_y_prop = (label_y_prop << 14) / lv_obj_get_height(
 481:lvgl/src/lv_widgets/lv_roller.c ****                                label); /*Proportional position from the middle line (upscaled)*/
 482:lvgl/src/lv_widgets/lv_roller.c **** 
 483:lvgl/src/lv_widgets/lv_roller.c ****             /*Apply a correction with different line heights*/
 484:lvgl/src/lv_widgets/lv_roller.c ****             const lv_font_t * normal_label_font = lv_obj_get_style_text_font(roller, LV_ROLLER_PART
 485:lvgl/src/lv_widgets/lv_roller.c ****             lv_coord_t corr = (label_dsc.font->line_height - normal_label_font->line_height) / 2;
 486:lvgl/src/lv_widgets/lv_roller.c **** 
ARM GAS  D:\Temp\ccqwJTgn.s 			page 10


 487:lvgl/src/lv_widgets/lv_roller.c ****             /*Apply the proportional position to the selected text*/
 488:lvgl/src/lv_widgets/lv_roller.c ****             res_p.y -= corr;
 489:lvgl/src/lv_widgets/lv_roller.c ****             int32_t label_sel_y = roller_h / 2 + roller->coords.y1;
 490:lvgl/src/lv_widgets/lv_roller.c ****             label_sel_y += (label_y_prop * res_p.y) >> 14;
 491:lvgl/src/lv_widgets/lv_roller.c ****             label_sel_y -= corr;
 492:lvgl/src/lv_widgets/lv_roller.c **** 
 493:lvgl/src/lv_widgets/lv_roller.c ****             /*Draw the selected text*/
 494:lvgl/src/lv_widgets/lv_roller.c ****             lv_area_t label_sel_area;
 495:lvgl/src/lv_widgets/lv_roller.c ****             label_sel_area.x1 = label->coords.x1;
 496:lvgl/src/lv_widgets/lv_roller.c ****             label_sel_area.y1 = label_sel_y;
 497:lvgl/src/lv_widgets/lv_roller.c ****             label_sel_area.x2 = label->coords.x2;
 498:lvgl/src/lv_widgets/lv_roller.c ****             label_sel_area.y2 = label_sel_area.y1 + res_p.y;
 499:lvgl/src/lv_widgets/lv_roller.c **** 
 500:lvgl/src/lv_widgets/lv_roller.c ****             label_dsc.flag |= LV_TXT_FLAG_EXPAND;
 501:lvgl/src/lv_widgets/lv_roller.c ****             lv_draw_label(&label_sel_area, &mask_sel, &label_dsc, lv_label_get_text(label), NULL);
 502:lvgl/src/lv_widgets/lv_roller.c ****         }
 503:lvgl/src/lv_widgets/lv_roller.c ****     }
 504:lvgl/src/lv_widgets/lv_roller.c **** 
 505:lvgl/src/lv_widgets/lv_roller.c ****     return LV_DESIGN_RES_OK;
 506:lvgl/src/lv_widgets/lv_roller.c **** }
 507:lvgl/src/lv_widgets/lv_roller.c **** 
 508:lvgl/src/lv_widgets/lv_roller.c **** /**
 509:lvgl/src/lv_widgets/lv_roller.c ****  * Handle the drawing related tasks of the roller's label
 510:lvgl/src/lv_widgets/lv_roller.c ****  * @param roller pointer to an object
 511:lvgl/src/lv_widgets/lv_roller.c ****  * @param clip_area the object will be drawn only in this area
 512:lvgl/src/lv_widgets/lv_roller.c ****  * @param mode LV_DESIGN_COVER_CHK: only check if the object fully covers the 'mask_p' area
 513:lvgl/src/lv_widgets/lv_roller.c ****  *                                  (return 'true' if yes)
 514:lvgl/src/lv_widgets/lv_roller.c ****  *             LV_DESIGN_DRAW: draw the object (always return 'true')
 515:lvgl/src/lv_widgets/lv_roller.c ****  *             LV_DESIGN_DRAW_POST: drawing after all children are drawn
 516:lvgl/src/lv_widgets/lv_roller.c ****  * @param return an element of `lv_design_res_t`
 517:lvgl/src/lv_widgets/lv_roller.c ****  */
 518:lvgl/src/lv_widgets/lv_roller.c **** static lv_design_res_t lv_roller_label_design(lv_obj_t * label, const lv_area_t * clip_area, lv_des
 519:lvgl/src/lv_widgets/lv_roller.c **** {
 520:lvgl/src/lv_widgets/lv_roller.c ****     if(mode == LV_DESIGN_COVER_CHK) {
 521:lvgl/src/lv_widgets/lv_roller.c ****         return ancestor_label_design(label, clip_area, mode);
 522:lvgl/src/lv_widgets/lv_roller.c ****     }
 523:lvgl/src/lv_widgets/lv_roller.c ****     /*Draw the object*/
 524:lvgl/src/lv_widgets/lv_roller.c ****     else if(mode == LV_DESIGN_DRAW_MAIN) {
 525:lvgl/src/lv_widgets/lv_roller.c ****         /* Split the drawing of the label into an upper (above the selected area)
 526:lvgl/src/lv_widgets/lv_roller.c ****          * and a lower (below the selected area)*/
 527:lvgl/src/lv_widgets/lv_roller.c ****         lv_obj_t * roller = lv_obj_get_parent(lv_obj_get_parent(label));
 528:lvgl/src/lv_widgets/lv_roller.c ****         const lv_font_t * font = lv_obj_get_style_text_font(roller, LV_ROLLER_PART_BG);
 529:lvgl/src/lv_widgets/lv_roller.c ****         lv_style_int_t line_space = lv_obj_get_style_text_line_space(roller, LV_ROLLER_PART_BG);
 530:lvgl/src/lv_widgets/lv_roller.c ****         lv_coord_t font_h        = lv_font_get_line_height(font);
 531:lvgl/src/lv_widgets/lv_roller.c **** 
 532:lvgl/src/lv_widgets/lv_roller.c ****         lv_area_t rect_area;
 533:lvgl/src/lv_widgets/lv_roller.c ****         rect_area.y1 = roller->coords.y1 + lv_obj_get_height(roller) / 2 - font_h / 2 - line_space 
 534:lvgl/src/lv_widgets/lv_roller.c ****         if((font_h & 0x1) && (line_space & 0x1)) rect_area.y1--; /*Compensate the two rounding erro
 535:lvgl/src/lv_widgets/lv_roller.c ****         rect_area.y2 = rect_area.y1 + font_h + line_space - 1;
 536:lvgl/src/lv_widgets/lv_roller.c ****         lv_area_t roller_coords;
 537:lvgl/src/lv_widgets/lv_roller.c ****         lv_obj_get_coords(roller, &roller_coords);
 538:lvgl/src/lv_widgets/lv_roller.c ****         lv_obj_get_inner_coords(roller, &roller_coords);
 539:lvgl/src/lv_widgets/lv_roller.c **** 
 540:lvgl/src/lv_widgets/lv_roller.c ****         rect_area.x1 = roller_coords.x1;
 541:lvgl/src/lv_widgets/lv_roller.c ****         rect_area.x2 = roller_coords.x2;
 542:lvgl/src/lv_widgets/lv_roller.c **** 
 543:lvgl/src/lv_widgets/lv_roller.c ****         lv_area_t clip2;
ARM GAS  D:\Temp\ccqwJTgn.s 			page 11


 544:lvgl/src/lv_widgets/lv_roller.c ****         clip2.x1 = label->coords.x1;
 545:lvgl/src/lv_widgets/lv_roller.c ****         clip2.y1 = label->coords.y1;
 546:lvgl/src/lv_widgets/lv_roller.c ****         clip2.x2 = label->coords.x2;
 547:lvgl/src/lv_widgets/lv_roller.c ****         clip2.y2 = rect_area.y1;
 548:lvgl/src/lv_widgets/lv_roller.c ****         if(_lv_area_intersect(&clip2, clip_area, &clip2)) {
 549:lvgl/src/lv_widgets/lv_roller.c ****             ancestor_label_design(label, &clip2, mode);
 550:lvgl/src/lv_widgets/lv_roller.c ****         }
 551:lvgl/src/lv_widgets/lv_roller.c **** 
 552:lvgl/src/lv_widgets/lv_roller.c ****         clip2.x1 = label->coords.x1;
 553:lvgl/src/lv_widgets/lv_roller.c ****         clip2.y1 = rect_area.y2;
 554:lvgl/src/lv_widgets/lv_roller.c ****         clip2.x2 = label->coords.x2;
 555:lvgl/src/lv_widgets/lv_roller.c ****         clip2.y2 = label->coords.y2;
 556:lvgl/src/lv_widgets/lv_roller.c ****         if(_lv_area_intersect(&clip2, clip_area, &clip2)) {
 557:lvgl/src/lv_widgets/lv_roller.c ****             ancestor_label_design(label, &clip2, mode);
 558:lvgl/src/lv_widgets/lv_roller.c ****         }
 559:lvgl/src/lv_widgets/lv_roller.c ****     }
 560:lvgl/src/lv_widgets/lv_roller.c **** 
 561:lvgl/src/lv_widgets/lv_roller.c ****     return LV_DESIGN_RES_OK;
 562:lvgl/src/lv_widgets/lv_roller.c **** }
 563:lvgl/src/lv_widgets/lv_roller.c **** 
 564:lvgl/src/lv_widgets/lv_roller.c **** /**
 565:lvgl/src/lv_widgets/lv_roller.c ****  * Signal function of the roller
 566:lvgl/src/lv_widgets/lv_roller.c ****  * @param roller pointer to a roller object
 567:lvgl/src/lv_widgets/lv_roller.c ****  * @param sign a signal type from lv_signal_t enum
 568:lvgl/src/lv_widgets/lv_roller.c ****  * @param param pointer to a signal specific variable
 569:lvgl/src/lv_widgets/lv_roller.c ****  * @return LV_RES_OK: the object is not deleted in the function; LV_RES_INV: the object is deleted
 570:lvgl/src/lv_widgets/lv_roller.c ****  */
 571:lvgl/src/lv_widgets/lv_roller.c **** static lv_res_t lv_roller_signal(lv_obj_t * roller, lv_signal_t sign, void * param)
 572:lvgl/src/lv_widgets/lv_roller.c **** {
 573:lvgl/src/lv_widgets/lv_roller.c ****     lv_res_t res = LV_RES_OK;
 574:lvgl/src/lv_widgets/lv_roller.c ****     if(sign == LV_SIGNAL_GET_STYLE) {
 575:lvgl/src/lv_widgets/lv_roller.c ****         lv_get_style_info_t * info = param;
 576:lvgl/src/lv_widgets/lv_roller.c ****         info->result = lv_roller_get_style(roller, info->part);
 577:lvgl/src/lv_widgets/lv_roller.c ****         if(info->result != NULL) return LV_RES_OK;
 578:lvgl/src/lv_widgets/lv_roller.c ****         else return ancestor_signal(roller, sign, param);
 579:lvgl/src/lv_widgets/lv_roller.c ****     }
 580:lvgl/src/lv_widgets/lv_roller.c **** 
 581:lvgl/src/lv_widgets/lv_roller.c ****     /* Include the ancient signal function */
 582:lvgl/src/lv_widgets/lv_roller.c ****     if(sign != LV_SIGNAL_CONTROL) { /*Don't let the page to scroll on keys*/
 583:lvgl/src/lv_widgets/lv_roller.c ****         res = ancestor_signal(roller, sign, param);
 584:lvgl/src/lv_widgets/lv_roller.c ****         if(res != LV_RES_OK) return res;
 585:lvgl/src/lv_widgets/lv_roller.c ****     }
 586:lvgl/src/lv_widgets/lv_roller.c **** 
 587:lvgl/src/lv_widgets/lv_roller.c ****     if(sign == LV_SIGNAL_GET_TYPE) return lv_obj_handle_get_type_signal(param, LV_OBJX_NAME);
 588:lvgl/src/lv_widgets/lv_roller.c **** 
 589:lvgl/src/lv_widgets/lv_roller.c ****     lv_roller_ext_t * ext = lv_obj_get_ext_attr(roller);
 590:lvgl/src/lv_widgets/lv_roller.c ****     LV_UNUSED(ext);
 591:lvgl/src/lv_widgets/lv_roller.c **** 
 592:lvgl/src/lv_widgets/lv_roller.c ****     if(sign == LV_SIGNAL_STYLE_CHG) {
 593:lvgl/src/lv_widgets/lv_roller.c ****         lv_obj_t * label = get_label(roller);
 594:lvgl/src/lv_widgets/lv_roller.c ****         /*Be sure the label's style is updated before processing the roller*/
 595:lvgl/src/lv_widgets/lv_roller.c ****         if(label) lv_signal_send(label, LV_SIGNAL_STYLE_CHG, NULL);
 596:lvgl/src/lv_widgets/lv_roller.c ****         refr_height(roller);
 597:lvgl/src/lv_widgets/lv_roller.c ****         refr_width(roller);
 598:lvgl/src/lv_widgets/lv_roller.c ****         refr_position(roller, false);
 599:lvgl/src/lv_widgets/lv_roller.c ****     }
 600:lvgl/src/lv_widgets/lv_roller.c ****     else if(sign == LV_SIGNAL_COORD_CHG) {
ARM GAS  D:\Temp\ccqwJTgn.s 			page 12


 601:lvgl/src/lv_widgets/lv_roller.c **** 
 602:lvgl/src/lv_widgets/lv_roller.c ****         if(lv_obj_get_width(roller) != lv_area_get_width(param) ||
 603:lvgl/src/lv_widgets/lv_roller.c ****            lv_obj_get_height(roller) != lv_area_get_height(param)) {
 604:lvgl/src/lv_widgets/lv_roller.c **** #if LV_USE_ANIMATION
 605:lvgl/src/lv_widgets/lv_roller.c ****             lv_anim_del(lv_page_get_scrollable(roller), (lv_anim_exec_xcb_t)lv_obj_set_y);
 606:lvgl/src/lv_widgets/lv_roller.c **** #endif
 607:lvgl/src/lv_widgets/lv_roller.c ****             refr_position(roller, false);
 608:lvgl/src/lv_widgets/lv_roller.c ****             refr_width(roller);
 609:lvgl/src/lv_widgets/lv_roller.c ****         }
 610:lvgl/src/lv_widgets/lv_roller.c ****     }
 611:lvgl/src/lv_widgets/lv_roller.c ****     else if(sign == LV_SIGNAL_RELEASED) {
 612:lvgl/src/lv_widgets/lv_roller.c ****         release_handler(roller);
 613:lvgl/src/lv_widgets/lv_roller.c ****     }
 614:lvgl/src/lv_widgets/lv_roller.c ****     else if(sign == LV_SIGNAL_FOCUS) {
 615:lvgl/src/lv_widgets/lv_roller.c **** #if LV_USE_GROUP
 616:lvgl/src/lv_widgets/lv_roller.c ****         lv_group_t * g             = lv_obj_get_group(roller);
 617:lvgl/src/lv_widgets/lv_roller.c ****         bool editing               = lv_group_get_editing(g);
 618:lvgl/src/lv_widgets/lv_roller.c ****         lv_indev_type_t indev_type = lv_indev_get_type(lv_indev_get_act());
 619:lvgl/src/lv_widgets/lv_roller.c **** 
 620:lvgl/src/lv_widgets/lv_roller.c ****         /*Encoders need special handling*/
 621:lvgl/src/lv_widgets/lv_roller.c ****         if(indev_type == LV_INDEV_TYPE_ENCODER) {
 622:lvgl/src/lv_widgets/lv_roller.c ****             /*In navigate mode revert the original value*/
 623:lvgl/src/lv_widgets/lv_roller.c ****             if(!editing) {
 624:lvgl/src/lv_widgets/lv_roller.c ****                 if(ext->sel_opt_id != ext->sel_opt_id_ori) {
 625:lvgl/src/lv_widgets/lv_roller.c ****                     ext->sel_opt_id = ext->sel_opt_id_ori;
 626:lvgl/src/lv_widgets/lv_roller.c ****                     refr_position(roller, true);
 627:lvgl/src/lv_widgets/lv_roller.c ****                 }
 628:lvgl/src/lv_widgets/lv_roller.c ****             }
 629:lvgl/src/lv_widgets/lv_roller.c ****             /*Save the current state when entered to edit mode*/
 630:lvgl/src/lv_widgets/lv_roller.c ****             else {
 631:lvgl/src/lv_widgets/lv_roller.c ****                 ext->sel_opt_id_ori = ext->sel_opt_id;
 632:lvgl/src/lv_widgets/lv_roller.c ****             }
 633:lvgl/src/lv_widgets/lv_roller.c ****         }
 634:lvgl/src/lv_widgets/lv_roller.c ****         else {
 635:lvgl/src/lv_widgets/lv_roller.c ****             ext->sel_opt_id_ori = ext->sel_opt_id; /*Save the current value. Used to revert this st
 636:lvgl/src/lv_widgets/lv_roller.c ****                                                                     ENTER won't be pressed*/
 637:lvgl/src/lv_widgets/lv_roller.c ****         }
 638:lvgl/src/lv_widgets/lv_roller.c **** #endif
 639:lvgl/src/lv_widgets/lv_roller.c ****     }
 640:lvgl/src/lv_widgets/lv_roller.c ****     else if(sign == LV_SIGNAL_DEFOCUS) {
 641:lvgl/src/lv_widgets/lv_roller.c **** #if LV_USE_GROUP
 642:lvgl/src/lv_widgets/lv_roller.c ****         /*Revert the original state*/
 643:lvgl/src/lv_widgets/lv_roller.c ****         if(ext->sel_opt_id != ext->sel_opt_id_ori) {
 644:lvgl/src/lv_widgets/lv_roller.c ****             ext->sel_opt_id = ext->sel_opt_id_ori;
 645:lvgl/src/lv_widgets/lv_roller.c ****             refr_position(roller, true);
 646:lvgl/src/lv_widgets/lv_roller.c ****         }
 647:lvgl/src/lv_widgets/lv_roller.c **** #endif
 648:lvgl/src/lv_widgets/lv_roller.c ****     }
 649:lvgl/src/lv_widgets/lv_roller.c ****     else if(sign == LV_SIGNAL_CONTROL) {
 650:lvgl/src/lv_widgets/lv_roller.c **** #if LV_USE_GROUP
 651:lvgl/src/lv_widgets/lv_roller.c ****         char c = *((char *)param);
 652:lvgl/src/lv_widgets/lv_roller.c ****         if(c == LV_KEY_RIGHT || c == LV_KEY_DOWN) {
 653:lvgl/src/lv_widgets/lv_roller.c ****             if(ext->sel_opt_id + 1 < ext->option_cnt) {
 654:lvgl/src/lv_widgets/lv_roller.c ****                 uint16_t ori_id = ext->sel_opt_id_ori; /*lv_roller_set_selected will overwrite this
 655:lvgl/src/lv_widgets/lv_roller.c ****                 lv_roller_set_selected(roller, ext->sel_opt_id + 1, true);
 656:lvgl/src/lv_widgets/lv_roller.c ****                 ext->sel_opt_id_ori = ori_id;
 657:lvgl/src/lv_widgets/lv_roller.c ****             }
ARM GAS  D:\Temp\ccqwJTgn.s 			page 13


 658:lvgl/src/lv_widgets/lv_roller.c ****         }
 659:lvgl/src/lv_widgets/lv_roller.c ****         else if(c == LV_KEY_LEFT || c == LV_KEY_UP) {
 660:lvgl/src/lv_widgets/lv_roller.c ****             if(ext->sel_opt_id > 0) {
 661:lvgl/src/lv_widgets/lv_roller.c ****                 uint16_t ori_id = ext->sel_opt_id_ori; /*lv_roller_set_selected will overwrite this
 662:lvgl/src/lv_widgets/lv_roller.c **** 
 663:lvgl/src/lv_widgets/lv_roller.c ****                 lv_roller_set_selected(roller, ext->sel_opt_id - 1, true);
 664:lvgl/src/lv_widgets/lv_roller.c ****                 ext->sel_opt_id_ori = ori_id;
 665:lvgl/src/lv_widgets/lv_roller.c ****             }
 666:lvgl/src/lv_widgets/lv_roller.c ****         }
 667:lvgl/src/lv_widgets/lv_roller.c **** #endif
 668:lvgl/src/lv_widgets/lv_roller.c ****     }
 669:lvgl/src/lv_widgets/lv_roller.c ****     else if(sign == LV_SIGNAL_CLEANUP) {
 670:lvgl/src/lv_widgets/lv_roller.c ****         lv_obj_clean_style_list(roller, LV_ROLLER_PART_SELECTED);
 671:lvgl/src/lv_widgets/lv_roller.c ****     }
 672:lvgl/src/lv_widgets/lv_roller.c ****     return res;
 673:lvgl/src/lv_widgets/lv_roller.c **** }
 674:lvgl/src/lv_widgets/lv_roller.c **** 
 675:lvgl/src/lv_widgets/lv_roller.c **** /**
 676:lvgl/src/lv_widgets/lv_roller.c ****  * Get the style descriptor of a part of the object
 677:lvgl/src/lv_widgets/lv_roller.c ****  * @param page pointer the object
 678:lvgl/src/lv_widgets/lv_roller.c ****  * @param part the part from `lv_roller_part_t`. (LV_ROLLER_PART_...)
 679:lvgl/src/lv_widgets/lv_roller.c ****  * @return pointer to the style descriptor of the specified part
 680:lvgl/src/lv_widgets/lv_roller.c ****  */
 681:lvgl/src/lv_widgets/lv_roller.c **** static lv_style_list_t * lv_roller_get_style(lv_obj_t * roller, uint8_t part)
 682:lvgl/src/lv_widgets/lv_roller.c **** {
  29              		.loc 1 682 1 view -0
  30              		.cfi_startproc
  31              		@ args = 0, pretend = 0, frame = 0
  32              		@ frame_needed = 0, uses_anonymous_args = 0
  33              		.loc 1 682 1 is_stmt 0 view .LVU1
  34 0000 38B5     		push	{r3, r4, r5, lr}
  35              	.LCFI0:
  36              		.cfi_def_cfa_offset 16
  37              		.cfi_offset 3, -16
  38              		.cfi_offset 4, -12
  39              		.cfi_offset 5, -8
  40              		.cfi_offset 14, -4
  41 0002 0446     		mov	r4, r0
  42 0004 0D46     		mov	r5, r1
 683:lvgl/src/lv_widgets/lv_roller.c ****     LV_ASSERT_OBJ(roller, LV_OBJX_NAME);
  43              		.loc 1 683 5 is_stmt 1 view .LVU2
  44              		.loc 1 683 5 view .LVU3
  45 0006 FFF7FEFF 		bl	lv_debug_check_null
  46              	.LVL1:
  47              		.loc 1 683 5 is_stmt 0 view .LVU4
  48 000a 28B9     		cbnz	r0, .L2
  49              		.loc 1 683 5 is_stmt 1 discriminator 1 view .LVU5
  50              		.loc 1 683 5 discriminator 1 view .LVU6
  51 000c 2246     		mov	r2, r4
  52 000e 0023     		movs	r3, #0
  53 0010 0848     		ldr	r0, .L8
  54 0012 FFF7FEFF 		bl	lv_debug_log_error
  55              	.LVL2:
  56              	.L3:
  57              		.loc 1 683 5 discriminator 1 view .LVU7
  58              		.loc 1 683 5 discriminator 1 view .LVU8
  59 0016 FEE7     		b	.L3
ARM GAS  D:\Temp\ccqwJTgn.s 			page 14


  60              	.L2:
  61              		.loc 1 683 40 discriminator 2 view .LVU9
 684:lvgl/src/lv_widgets/lv_roller.c **** 
 685:lvgl/src/lv_widgets/lv_roller.c ****     lv_roller_ext_t * ext = lv_obj_get_ext_attr(roller);
  62              		.loc 1 685 5 discriminator 2 view .LVU10
  63              		.loc 1 685 29 is_stmt 0 discriminator 2 view .LVU11
  64 0018 2046     		mov	r0, r4
  65 001a FFF7FEFF 		bl	lv_obj_get_ext_attr
  66              	.LVL3:
 686:lvgl/src/lv_widgets/lv_roller.c ****     lv_style_list_t * style_dsc_p;
  67              		.loc 1 686 5 is_stmt 1 discriminator 2 view .LVU12
 687:lvgl/src/lv_widgets/lv_roller.c **** 
 688:lvgl/src/lv_widgets/lv_roller.c ****     switch(part) {
  68              		.loc 1 688 5 discriminator 2 view .LVU13
  69 001e 1DB1     		cbz	r5, .L4
  70              		.loc 1 688 5 is_stmt 0 view .LVU14
  71 0020 032D     		cmp	r5, #3
  72 0022 04D0     		beq	.L5
 689:lvgl/src/lv_widgets/lv_roller.c ****         case LV_ROLLER_PART_BG:
 690:lvgl/src/lv_widgets/lv_roller.c ****             style_dsc_p = &roller->style_list;
 691:lvgl/src/lv_widgets/lv_roller.c ****             break;
 692:lvgl/src/lv_widgets/lv_roller.c ****         case LV_ROLLER_PART_SELECTED:
 693:lvgl/src/lv_widgets/lv_roller.c ****             style_dsc_p = &ext->style_sel;
 694:lvgl/src/lv_widgets/lv_roller.c ****             break;
 695:lvgl/src/lv_widgets/lv_roller.c ****         default:
 696:lvgl/src/lv_widgets/lv_roller.c ****             style_dsc_p = NULL;
  73              		.loc 1 696 25 view .LVU15
  74 0024 0020     		movs	r0, #0
  75              	.LVL4:
  76              	.L1:
 697:lvgl/src/lv_widgets/lv_roller.c ****     }
 698:lvgl/src/lv_widgets/lv_roller.c **** 
 699:lvgl/src/lv_widgets/lv_roller.c ****     return style_dsc_p;
 700:lvgl/src/lv_widgets/lv_roller.c **** }
  77              		.loc 1 700 1 view .LVU16
  78 0026 38BD     		pop	{r3, r4, r5, pc}
  79              	.LVL5:
  80              	.L4:
 690:lvgl/src/lv_widgets/lv_roller.c ****             break;
  81              		.loc 1 690 13 is_stmt 1 view .LVU17
 690:lvgl/src/lv_widgets/lv_roller.c ****             break;
  82              		.loc 1 690 25 is_stmt 0 view .LVU18
  83 0028 04F12800 		add	r0, r4, #40
  84              	.LVL6:
 691:lvgl/src/lv_widgets/lv_roller.c ****         case LV_ROLLER_PART_SELECTED:
  85              		.loc 1 691 13 is_stmt 1 view .LVU19
  86 002c FBE7     		b	.L1
  87              	.LVL7:
  88              	.L5:
 693:lvgl/src/lv_widgets/lv_roller.c ****             break;
  89              		.loc 1 693 13 view .LVU20
 693:lvgl/src/lv_widgets/lv_roller.c ****             break;
  90              		.loc 1 693 25 is_stmt 0 view .LVU21
  91 002e 4030     		adds	r0, r0, #64
  92              	.LVL8:
 694:lvgl/src/lv_widgets/lv_roller.c ****         default:
  93              		.loc 1 694 13 is_stmt 1 view .LVU22
ARM GAS  D:\Temp\ccqwJTgn.s 			page 15


 699:lvgl/src/lv_widgets/lv_roller.c **** }
  94              		.loc 1 699 5 view .LVU23
 699:lvgl/src/lv_widgets/lv_roller.c **** }
  95              		.loc 1 699 12 is_stmt 0 view .LVU24
  96 0030 F9E7     		b	.L1
  97              	.L9:
  98 0032 00BF     		.align	2
  99              	.L8:
 100 0034 00000000 		.word	.LC0
 101              		.cfi_endproc
 102              	.LFE490:
 104              		.section	.text.lv_roller_label_design,"ax",%progbits
 105              		.align	1
 106              		.syntax unified
 107              		.thumb
 108              		.thumb_func
 109              		.fpu fpv4-sp-d16
 111              	lv_roller_label_design:
 112              	.LVL9:
 113              	.LFB488:
 519:lvgl/src/lv_widgets/lv_roller.c ****     if(mode == LV_DESIGN_COVER_CHK) {
 114              		.loc 1 519 1 is_stmt 1 view -0
 115              		.cfi_startproc
 116              		@ args = 0, pretend = 0, frame = 24
 117              		@ frame_needed = 0, uses_anonymous_args = 0
 519:lvgl/src/lv_widgets/lv_roller.c ****     if(mode == LV_DESIGN_COVER_CHK) {
 118              		.loc 1 519 1 is_stmt 0 view .LVU26
 119 0000 2DE9F047 		push	{r4, r5, r6, r7, r8, r9, r10, lr}
 120              	.LCFI1:
 121              		.cfi_def_cfa_offset 32
 122              		.cfi_offset 4, -32
 123              		.cfi_offset 5, -28
 124              		.cfi_offset 6, -24
 125              		.cfi_offset 7, -20
 126              		.cfi_offset 8, -16
 127              		.cfi_offset 9, -12
 128              		.cfi_offset 10, -8
 129              		.cfi_offset 14, -4
 130 0004 86B0     		sub	sp, sp, #24
 131              	.LCFI2:
 132              		.cfi_def_cfa_offset 56
 133 0006 0546     		mov	r5, r0
 134 0008 0F46     		mov	r7, r1
 135 000a 1646     		mov	r6, r2
 520:lvgl/src/lv_widgets/lv_roller.c ****         return ancestor_label_design(label, clip_area, mode);
 136              		.loc 1 520 5 is_stmt 1 view .LVU27
 520:lvgl/src/lv_widgets/lv_roller.c ****         return ancestor_label_design(label, clip_area, mode);
 137              		.loc 1 520 7 is_stmt 0 view .LVU28
 138 000c 022A     		cmp	r2, #2
 139 000e 04D0     		beq	.L18
 524:lvgl/src/lv_widgets/lv_roller.c ****         /* Split the drawing of the label into an upper (above the selected area)
 140              		.loc 1 524 10 is_stmt 1 view .LVU29
 524:lvgl/src/lv_widgets/lv_roller.c ****         /* Split the drawing of the label into an upper (above the selected area)
 141              		.loc 1 524 12 is_stmt 0 view .LVU30
 142 0010 3AB1     		cbz	r2, .L19
 561:lvgl/src/lv_widgets/lv_roller.c **** }
 143              		.loc 1 561 12 view .LVU31
ARM GAS  D:\Temp\ccqwJTgn.s 			page 16


 144 0012 0020     		movs	r0, #0
 145              	.LVL10:
 146              	.L12:
 562:lvgl/src/lv_widgets/lv_roller.c **** 
 147              		.loc 1 562 1 view .LVU32
 148 0014 06B0     		add	sp, sp, #24
 149              	.LCFI3:
 150              		.cfi_remember_state
 151              		.cfi_def_cfa_offset 32
 152              		@ sp needed
 153 0016 BDE8F087 		pop	{r4, r5, r6, r7, r8, r9, r10, pc}
 154              	.LVL11:
 155              	.L18:
 156              	.LCFI4:
 157              		.cfi_restore_state
 521:lvgl/src/lv_widgets/lv_roller.c ****     }
 158              		.loc 1 521 9 is_stmt 1 view .LVU33
 521:lvgl/src/lv_widgets/lv_roller.c ****     }
 159              		.loc 1 521 16 is_stmt 0 view .LVU34
 160 001a 3F4B     		ldr	r3, .L20
 161 001c 1B68     		ldr	r3, [r3]
 162 001e 9847     		blx	r3
 163              	.LVL12:
 521:lvgl/src/lv_widgets/lv_roller.c ****     }
 164              		.loc 1 521 16 view .LVU35
 165 0020 F8E7     		b	.L12
 166              	.LVL13:
 167              	.L19:
 168              	.LBB103:
 527:lvgl/src/lv_widgets/lv_roller.c ****         const lv_font_t * font = lv_obj_get_style_text_font(roller, LV_ROLLER_PART_BG);
 169              		.loc 1 527 9 is_stmt 1 view .LVU36
 527:lvgl/src/lv_widgets/lv_roller.c ****         const lv_font_t * font = lv_obj_get_style_text_font(roller, LV_ROLLER_PART_BG);
 170              		.loc 1 527 47 is_stmt 0 view .LVU37
 171 0022 FFF7FEFF 		bl	lv_obj_get_parent
 172              	.LVL14:
 527:lvgl/src/lv_widgets/lv_roller.c ****         const lv_font_t * font = lv_obj_get_style_text_font(roller, LV_ROLLER_PART_BG);
 173              		.loc 1 527 29 view .LVU38
 174 0026 FFF7FEFF 		bl	lv_obj_get_parent
 175              	.LVL15:
 176 002a 8046     		mov	r8, r0
 177              	.LVL16:
 528:lvgl/src/lv_widgets/lv_roller.c ****         lv_style_int_t line_space = lv_obj_get_style_text_line_space(roller, LV_ROLLER_PART_BG);
 178              		.loc 1 528 9 is_stmt 1 view .LVU39
 179              	.LBB104:
 180              	.LBI104:
 181              		.file 2 "lvgl/src/lv_widgets/../lv_core/lv_obj_style_dec.h"
   1:lvgl/src/lv_widgets/../lv_core/lv_obj_style_dec.h **** 
   2:lvgl/src/lv_widgets/../lv_core/lv_obj_style_dec.h **** /**
   3:lvgl/src/lv_widgets/../lv_core/lv_obj_style_dec.h ****  * @file lv_obj_style_dec.h
   4:lvgl/src/lv_widgets/../lv_core/lv_obj_style_dec.h ****  *
   5:lvgl/src/lv_widgets/../lv_core/lv_obj_style_dec.h ****  */
   6:lvgl/src/lv_widgets/../lv_core/lv_obj_style_dec.h **** 
   7:lvgl/src/lv_widgets/../lv_core/lv_obj_style_dec.h **** #ifndef LV_OBJ_STYLE_DEC_H
   8:lvgl/src/lv_widgets/../lv_core/lv_obj_style_dec.h **** #define LV_OBJ_STYLE_DEC_H
   9:lvgl/src/lv_widgets/../lv_core/lv_obj_style_dec.h **** 
  10:lvgl/src/lv_widgets/../lv_core/lv_obj_style_dec.h **** #ifdef __cplusplus
  11:lvgl/src/lv_widgets/../lv_core/lv_obj_style_dec.h **** extern "C" {
ARM GAS  D:\Temp\ccqwJTgn.s 			page 17


  12:lvgl/src/lv_widgets/../lv_core/lv_obj_style_dec.h **** #endif
  13:lvgl/src/lv_widgets/../lv_core/lv_obj_style_dec.h **** 
  14:lvgl/src/lv_widgets/../lv_core/lv_obj_style_dec.h **** /*********************
  15:lvgl/src/lv_widgets/../lv_core/lv_obj_style_dec.h ****  *      DEFINES
  16:lvgl/src/lv_widgets/../lv_core/lv_obj_style_dec.h ****  *********************/
  17:lvgl/src/lv_widgets/../lv_core/lv_obj_style_dec.h **** 
  18:lvgl/src/lv_widgets/../lv_core/lv_obj_style_dec.h **** /**
  19:lvgl/src/lv_widgets/../lv_core/lv_obj_style_dec.h ****  * Macro to declare the most important style set/get API functions.
  20:lvgl/src/lv_widgets/../lv_core/lv_obj_style_dec.h ****  *
  21:lvgl/src/lv_widgets/../lv_core/lv_obj_style_dec.h ****  * Get the value of a style property from an object in the object's current state
  22:lvgl/src/lv_widgets/../lv_core/lv_obj_style_dec.h ****  * -----------------------------------------------------------------------------
  23:lvgl/src/lv_widgets/../lv_core/lv_obj_style_dec.h ****  *  - Get the value of a style property from an object in the object's current state.
  24:lvgl/src/lv_widgets/../lv_core/lv_obj_style_dec.h ****  *  - Transition animation is taken into account.
  25:lvgl/src/lv_widgets/../lv_core/lv_obj_style_dec.h ****  *  - If the property is not set in the object's styles check the parent(s) if the property can be 
  26:lvgl/src/lv_widgets/../lv_core/lv_obj_style_dec.h ****  *  - If still not found return a default value.
  27:lvgl/src/lv_widgets/../lv_core/lv_obj_style_dec.h ****  *  - For example:
  28:lvgl/src/lv_widgets/../lv_core/lv_obj_style_dec.h ****  *      `lv_style_int_t w = lv_obj_get_style_border_width(btn1, LV_BTN_PART_MAIN);`
  29:lvgl/src/lv_widgets/../lv_core/lv_obj_style_dec.h ****  *
  30:lvgl/src/lv_widgets/../lv_core/lv_obj_style_dec.h ****  * Set a local style property for an object in a given state
  31:lvgl/src/lv_widgets/../lv_core/lv_obj_style_dec.h ****  * ---------------------------------------------------------
  32:lvgl/src/lv_widgets/../lv_core/lv_obj_style_dec.h ****  *  - For example:
  33:lvgl/src/lv_widgets/../lv_core/lv_obj_style_dec.h ****  *      `lv_obj_set_style_local_border_width(btn1, LV_BTN_PART_MAIN, LV_STATE_PRESSED, 2);`
  34:lvgl/src/lv_widgets/../lv_core/lv_obj_style_dec.h ****  *
  35:lvgl/src/lv_widgets/../lv_core/lv_obj_style_dec.h ****  * Get a local style property's value of an object in a given state
  36:lvgl/src/lv_widgets/../lv_core/lv_obj_style_dec.h ****  * ----------------------------------------------------------------
  37:lvgl/src/lv_widgets/../lv_core/lv_obj_style_dec.h ****  *  - Return the best matching property in the given state.
  38:lvgl/src/lv_widgets/../lv_core/lv_obj_style_dec.h ****  *  - E.g. if `state` parameter is LV_STATE_PRESSED | LV_STATE_CHECKED` but the property defined on
  39:lvgl/src/lv_widgets/../lv_core/lv_obj_style_dec.h ****  *    `LV_STATE_PRESSED` and `LV_STATE_DEFAULT` the best matching state is `LV_STATE_PRESSED`
  40:lvgl/src/lv_widgets/../lv_core/lv_obj_style_dec.h ****  *    (because it has higher precedence) and it will be returned.
  41:lvgl/src/lv_widgets/../lv_core/lv_obj_style_dec.h ****  *  - If the property is not found even in `LV_STATE_DEFAULT` `-1` is returned.
  42:lvgl/src/lv_widgets/../lv_core/lv_obj_style_dec.h ****  *  - For example:
  43:lvgl/src/lv_widgets/../lv_core/lv_obj_style_dec.h ****  *      `//Type of result should be lv_style_int_t/lv_opa_t/lv_color_t/const void * according to th
  44:lvgl/src/lv_widgets/../lv_core/lv_obj_style_dec.h ****  *      `lv_style_int_t result;`
  45:lvgl/src/lv_widgets/../lv_core/lv_obj_style_dec.h ****  *      `lv_obj_get_style_local_border_width(btn1, LV_BTN_PART_MAIN, LV_STATE_PRESSED, &result);`
  46:lvgl/src/lv_widgets/../lv_core/lv_obj_style_dec.h ****  *      `if(weight > 0) ...the property is found and loaded into result...`
  47:lvgl/src/lv_widgets/../lv_core/lv_obj_style_dec.h ****  *
  48:lvgl/src/lv_widgets/../lv_core/lv_obj_style_dec.h ****  * Get the value from a style in a given state
  49:lvgl/src/lv_widgets/../lv_core/lv_obj_style_dec.h ****  * -------------------------------------------
  50:lvgl/src/lv_widgets/../lv_core/lv_obj_style_dec.h ****  * - The same rules applies to the return value then for "lv_obj_get_style_local_...()" above
  51:lvgl/src/lv_widgets/../lv_core/lv_obj_style_dec.h ****  * - For example
  52:lvgl/src/lv_widgets/../lv_core/lv_obj_style_dec.h ****  *      `int16_t weight = lv_style_get_border_width(&style1, LV_STATE_PRESSED, &result);`
  53:lvgl/src/lv_widgets/../lv_core/lv_obj_style_dec.h ****  *      `if(weight > 0) ...the property is found and loaded into result...`
  54:lvgl/src/lv_widgets/../lv_core/lv_obj_style_dec.h **** 
  55:lvgl/src/lv_widgets/../lv_core/lv_obj_style_dec.h ****  * Set a value in a style in a given state
  56:lvgl/src/lv_widgets/../lv_core/lv_obj_style_dec.h ****  * ---------------------------------------
  57:lvgl/src/lv_widgets/../lv_core/lv_obj_style_dec.h ****  * - For example
  58:lvgl/src/lv_widgets/../lv_core/lv_obj_style_dec.h ****  *      `lv_style_set_border_width(&style1, LV_STATE_PRESSED, 2);`
  59:lvgl/src/lv_widgets/../lv_core/lv_obj_style_dec.h ****  */
  60:lvgl/src/lv_widgets/../lv_core/lv_obj_style_dec.h **** 
  61:lvgl/src/lv_widgets/../lv_core/lv_obj_style_dec.h **** #define _OBJ_GET_STYLE_scalar(prop_name, func_name, value_type, style_type)                        
  62:lvgl/src/lv_widgets/../lv_core/lv_obj_style_dec.h ****     static inline value_type lv_obj_get_style_##func_name (const lv_obj_t * obj, uint8_t part)     
  63:lvgl/src/lv_widgets/../lv_core/lv_obj_style_dec.h ****     {                                                                                              
  64:lvgl/src/lv_widgets/../lv_core/lv_obj_style_dec.h ****         return (value_type) _lv_obj_get_style##style_type (obj, part, LV_STYLE_##prop_name);       
  65:lvgl/src/lv_widgets/../lv_core/lv_obj_style_dec.h ****     }
  66:lvgl/src/lv_widgets/../lv_core/lv_obj_style_dec.h **** 
  67:lvgl/src/lv_widgets/../lv_core/lv_obj_style_dec.h **** #define _OBJ_GET_STYLE_nonscalar(prop_name, func_name, value_type, style_type)                     
  68:lvgl/src/lv_widgets/../lv_core/lv_obj_style_dec.h ****     static inline value_type lv_obj_get_style_##func_name (const lv_obj_t * obj, uint8_t part)     
ARM GAS  D:\Temp\ccqwJTgn.s 			page 18


  69:lvgl/src/lv_widgets/../lv_core/lv_obj_style_dec.h ****     {                                                                                              
  70:lvgl/src/lv_widgets/../lv_core/lv_obj_style_dec.h ****         return _lv_obj_get_style##style_type (obj, part, LV_STYLE_##prop_name);                    
  71:lvgl/src/lv_widgets/../lv_core/lv_obj_style_dec.h ****     }
  72:lvgl/src/lv_widgets/../lv_core/lv_obj_style_dec.h **** 
  73:lvgl/src/lv_widgets/../lv_core/lv_obj_style_dec.h **** #define _OBJ_SET_STYLE_LOCAL_scalar(prop_name, func_name, value_type, style_type)                  
  74:lvgl/src/lv_widgets/../lv_core/lv_obj_style_dec.h ****     static inline void lv_obj_set_style_local_##func_name (lv_obj_t * obj, uint8_t part, lv_state_t
  75:lvgl/src/lv_widgets/../lv_core/lv_obj_style_dec.h ****     {                                                                                              
  76:lvgl/src/lv_widgets/../lv_core/lv_obj_style_dec.h ****         _lv_obj_set_style_local##style_type (obj, part, LV_STYLE_##prop_name | (state << LV_STYLE_S
  77:lvgl/src/lv_widgets/../lv_core/lv_obj_style_dec.h ****     }
  78:lvgl/src/lv_widgets/../lv_core/lv_obj_style_dec.h **** 
  79:lvgl/src/lv_widgets/../lv_core/lv_obj_style_dec.h **** #define _OBJ_SET_STYLE_LOCAL_nonscalar(prop_name, func_name, value_type, style_type)               
  80:lvgl/src/lv_widgets/../lv_core/lv_obj_style_dec.h ****     static inline void lv_obj_set_style_local_##func_name (lv_obj_t * obj, uint8_t part, lv_state_t
  81:lvgl/src/lv_widgets/../lv_core/lv_obj_style_dec.h ****     {                                                                                              
  82:lvgl/src/lv_widgets/../lv_core/lv_obj_style_dec.h ****         _lv_obj_set_style_local##style_type (obj, part, LV_STYLE_##prop_name | (state << LV_STYLE_S
  83:lvgl/src/lv_widgets/../lv_core/lv_obj_style_dec.h ****     }
  84:lvgl/src/lv_widgets/../lv_core/lv_obj_style_dec.h **** 
  85:lvgl/src/lv_widgets/../lv_core/lv_obj_style_dec.h **** #define _OBJ_SET_STYLE_scalar(prop_name, func_name, value_type, style_type)                        
  86:lvgl/src/lv_widgets/../lv_core/lv_obj_style_dec.h ****     static inline void lv_style_set_##func_name (lv_style_t * style, lv_state_t state, value_type v
  87:lvgl/src/lv_widgets/../lv_core/lv_obj_style_dec.h ****     {                                                                                              
  88:lvgl/src/lv_widgets/../lv_core/lv_obj_style_dec.h ****         _lv_style_set##style_type (style, LV_STYLE_##prop_name | (state << LV_STYLE_STATE_POS), val
  89:lvgl/src/lv_widgets/../lv_core/lv_obj_style_dec.h ****     }
  90:lvgl/src/lv_widgets/../lv_core/lv_obj_style_dec.h **** 
  91:lvgl/src/lv_widgets/../lv_core/lv_obj_style_dec.h **** #define _OBJ_SET_STYLE_nonscalar(prop_name, func_name, value_type, style_type)                     
  92:lvgl/src/lv_widgets/../lv_core/lv_obj_style_dec.h ****     static inline void lv_style_set_##func_name (lv_style_t * style, lv_state_t state, value_type v
  93:lvgl/src/lv_widgets/../lv_core/lv_obj_style_dec.h ****     {                                                                                              
  94:lvgl/src/lv_widgets/../lv_core/lv_obj_style_dec.h ****         _lv_style_set##style_type (style, LV_STYLE_##prop_name | (state << LV_STYLE_STATE_POS), val
  95:lvgl/src/lv_widgets/../lv_core/lv_obj_style_dec.h ****     }
  96:lvgl/src/lv_widgets/../lv_core/lv_obj_style_dec.h **** 
  97:lvgl/src/lv_widgets/../lv_core/lv_obj_style_dec.h **** #define _LV_OBJ_STYLE_SET_GET_DECLARE(prop_name, func_name, value_type, style_type, scalar)        
  98:lvgl/src/lv_widgets/../lv_core/lv_obj_style_dec.h ****     _OBJ_GET_STYLE_##scalar(prop_name, func_name, value_type, style_type)                          
  99:lvgl/src/lv_widgets/../lv_core/lv_obj_style_dec.h ****     _OBJ_SET_STYLE_LOCAL_##scalar(prop_name, func_name, value_type, style_type)                    
 100:lvgl/src/lv_widgets/../lv_core/lv_obj_style_dec.h ****     _OBJ_SET_STYLE_##scalar(prop_name, func_name, value_type, style_type)
 101:lvgl/src/lv_widgets/../lv_core/lv_obj_style_dec.h **** 
 102:lvgl/src/lv_widgets/../lv_core/lv_obj_style_dec.h **** _LV_OBJ_STYLE_SET_GET_DECLARE(RADIUS, radius, lv_style_int_t, _int, scalar)
 103:lvgl/src/lv_widgets/../lv_core/lv_obj_style_dec.h **** _LV_OBJ_STYLE_SET_GET_DECLARE(CLIP_CORNER, clip_corner, bool, _int, scalar)
 104:lvgl/src/lv_widgets/../lv_core/lv_obj_style_dec.h **** _LV_OBJ_STYLE_SET_GET_DECLARE(SIZE, size, lv_style_int_t, _int, scalar)
 105:lvgl/src/lv_widgets/../lv_core/lv_obj_style_dec.h **** _LV_OBJ_STYLE_SET_GET_DECLARE(TRANSFORM_WIDTH, transform_width, lv_style_int_t, _int, scalar)
 106:lvgl/src/lv_widgets/../lv_core/lv_obj_style_dec.h **** _LV_OBJ_STYLE_SET_GET_DECLARE(TRANSFORM_HEIGHT, transform_height, lv_style_int_t, _int, scalar)
 107:lvgl/src/lv_widgets/../lv_core/lv_obj_style_dec.h **** _LV_OBJ_STYLE_SET_GET_DECLARE(TRANSFORM_ANGLE, transform_angle, lv_style_int_t, _int, scalar)
 108:lvgl/src/lv_widgets/../lv_core/lv_obj_style_dec.h **** _LV_OBJ_STYLE_SET_GET_DECLARE(TRANSFORM_ZOOM, transform_zoom, lv_style_int_t, _int, scalar)
 109:lvgl/src/lv_widgets/../lv_core/lv_obj_style_dec.h **** _LV_OBJ_STYLE_SET_GET_DECLARE(OPA_SCALE, opa_scale, lv_opa_t, _opa, scalar)
 110:lvgl/src/lv_widgets/../lv_core/lv_obj_style_dec.h **** _LV_OBJ_STYLE_SET_GET_DECLARE(PAD_TOP, pad_top, lv_style_int_t, _int, scalar)
 111:lvgl/src/lv_widgets/../lv_core/lv_obj_style_dec.h **** _LV_OBJ_STYLE_SET_GET_DECLARE(PAD_BOTTOM, pad_bottom, lv_style_int_t, _int, scalar)
 112:lvgl/src/lv_widgets/../lv_core/lv_obj_style_dec.h **** _LV_OBJ_STYLE_SET_GET_DECLARE(PAD_LEFT, pad_left, lv_style_int_t, _int, scalar)
 113:lvgl/src/lv_widgets/../lv_core/lv_obj_style_dec.h **** _LV_OBJ_STYLE_SET_GET_DECLARE(PAD_RIGHT, pad_right, lv_style_int_t, _int, scalar)
 114:lvgl/src/lv_widgets/../lv_core/lv_obj_style_dec.h **** _LV_OBJ_STYLE_SET_GET_DECLARE(PAD_INNER, pad_inner, lv_style_int_t, _int, scalar)
 115:lvgl/src/lv_widgets/../lv_core/lv_obj_style_dec.h **** _LV_OBJ_STYLE_SET_GET_DECLARE(MARGIN_TOP, margin_top, lv_style_int_t, _int, scalar)
 116:lvgl/src/lv_widgets/../lv_core/lv_obj_style_dec.h **** _LV_OBJ_STYLE_SET_GET_DECLARE(MARGIN_BOTTOM, margin_bottom, lv_style_int_t, _int, scalar)
 117:lvgl/src/lv_widgets/../lv_core/lv_obj_style_dec.h **** _LV_OBJ_STYLE_SET_GET_DECLARE(MARGIN_LEFT, margin_left, lv_style_int_t, _int, scalar)
 118:lvgl/src/lv_widgets/../lv_core/lv_obj_style_dec.h **** _LV_OBJ_STYLE_SET_GET_DECLARE(MARGIN_RIGHT, margin_right, lv_style_int_t, _int, scalar)
 119:lvgl/src/lv_widgets/../lv_core/lv_obj_style_dec.h **** _LV_OBJ_STYLE_SET_GET_DECLARE(BG_BLEND_MODE, bg_blend_mode, lv_blend_mode_t, _int, scalar)
 120:lvgl/src/lv_widgets/../lv_core/lv_obj_style_dec.h **** _LV_OBJ_STYLE_SET_GET_DECLARE(BG_MAIN_STOP, bg_main_stop, lv_style_int_t, _int, scalar)
 121:lvgl/src/lv_widgets/../lv_core/lv_obj_style_dec.h **** _LV_OBJ_STYLE_SET_GET_DECLARE(BG_GRAD_STOP, bg_grad_stop, lv_style_int_t, _int, scalar)
 122:lvgl/src/lv_widgets/../lv_core/lv_obj_style_dec.h **** _LV_OBJ_STYLE_SET_GET_DECLARE(BG_GRAD_DIR, bg_grad_dir, lv_grad_dir_t, _int, scalar)
 123:lvgl/src/lv_widgets/../lv_core/lv_obj_style_dec.h **** _LV_OBJ_STYLE_SET_GET_DECLARE(BG_COLOR, bg_color, lv_color_t, _color, nonscalar)
 124:lvgl/src/lv_widgets/../lv_core/lv_obj_style_dec.h **** _LV_OBJ_STYLE_SET_GET_DECLARE(BG_GRAD_COLOR, bg_grad_color, lv_color_t, _color, nonscalar)
 125:lvgl/src/lv_widgets/../lv_core/lv_obj_style_dec.h **** _LV_OBJ_STYLE_SET_GET_DECLARE(BG_OPA, bg_opa, lv_opa_t, _opa, scalar)
ARM GAS  D:\Temp\ccqwJTgn.s 			page 19


 126:lvgl/src/lv_widgets/../lv_core/lv_obj_style_dec.h **** _LV_OBJ_STYLE_SET_GET_DECLARE(BORDER_WIDTH, border_width, lv_style_int_t, _int, scalar)
 127:lvgl/src/lv_widgets/../lv_core/lv_obj_style_dec.h **** _LV_OBJ_STYLE_SET_GET_DECLARE(BORDER_SIDE, border_side, lv_border_side_t, _int, scalar)
 128:lvgl/src/lv_widgets/../lv_core/lv_obj_style_dec.h **** _LV_OBJ_STYLE_SET_GET_DECLARE(BORDER_BLEND_MODE, border_blend_mode, lv_blend_mode_t, _int, scalar)
 129:lvgl/src/lv_widgets/../lv_core/lv_obj_style_dec.h **** _LV_OBJ_STYLE_SET_GET_DECLARE(BORDER_POST, border_post, bool, _int, scalar)
 130:lvgl/src/lv_widgets/../lv_core/lv_obj_style_dec.h **** _LV_OBJ_STYLE_SET_GET_DECLARE(BORDER_COLOR, border_color, lv_color_t, _color, nonscalar)
 131:lvgl/src/lv_widgets/../lv_core/lv_obj_style_dec.h **** _LV_OBJ_STYLE_SET_GET_DECLARE(BORDER_OPA, border_opa, lv_opa_t, _opa, scalar)
 132:lvgl/src/lv_widgets/../lv_core/lv_obj_style_dec.h **** _LV_OBJ_STYLE_SET_GET_DECLARE(OUTLINE_WIDTH, outline_width, lv_style_int_t, _int, scalar)
 133:lvgl/src/lv_widgets/../lv_core/lv_obj_style_dec.h **** _LV_OBJ_STYLE_SET_GET_DECLARE(OUTLINE_PAD, outline_pad, lv_style_int_t, _int, scalar)
 134:lvgl/src/lv_widgets/../lv_core/lv_obj_style_dec.h **** _LV_OBJ_STYLE_SET_GET_DECLARE(OUTLINE_BLEND_MODE, outline_blend_mode, lv_blend_mode_t, _int, scalar
 135:lvgl/src/lv_widgets/../lv_core/lv_obj_style_dec.h **** _LV_OBJ_STYLE_SET_GET_DECLARE(OUTLINE_COLOR, outline_color, lv_color_t, _color, nonscalar)
 136:lvgl/src/lv_widgets/../lv_core/lv_obj_style_dec.h **** _LV_OBJ_STYLE_SET_GET_DECLARE(OUTLINE_OPA, outline_opa, lv_opa_t, _opa, scalar)
 137:lvgl/src/lv_widgets/../lv_core/lv_obj_style_dec.h **** _LV_OBJ_STYLE_SET_GET_DECLARE(SHADOW_WIDTH, shadow_width, lv_style_int_t, _int, scalar)
 138:lvgl/src/lv_widgets/../lv_core/lv_obj_style_dec.h **** _LV_OBJ_STYLE_SET_GET_DECLARE(SHADOW_OFS_X, shadow_ofs_x, lv_style_int_t, _int, scalar)
 139:lvgl/src/lv_widgets/../lv_core/lv_obj_style_dec.h **** _LV_OBJ_STYLE_SET_GET_DECLARE(SHADOW_OFS_Y, shadow_ofs_y, lv_style_int_t, _int, scalar)
 140:lvgl/src/lv_widgets/../lv_core/lv_obj_style_dec.h **** _LV_OBJ_STYLE_SET_GET_DECLARE(SHADOW_SPREAD, shadow_spread, lv_style_int_t, _int, scalar)
 141:lvgl/src/lv_widgets/../lv_core/lv_obj_style_dec.h **** _LV_OBJ_STYLE_SET_GET_DECLARE(SHADOW_BLEND_MODE, shadow_blend_mode, lv_blend_mode_t, _int, scalar)
 142:lvgl/src/lv_widgets/../lv_core/lv_obj_style_dec.h **** _LV_OBJ_STYLE_SET_GET_DECLARE(SHADOW_COLOR, shadow_color, lv_color_t, _color, nonscalar)
 143:lvgl/src/lv_widgets/../lv_core/lv_obj_style_dec.h **** _LV_OBJ_STYLE_SET_GET_DECLARE(SHADOW_OPA, shadow_opa, lv_opa_t, _opa, scalar)
 144:lvgl/src/lv_widgets/../lv_core/lv_obj_style_dec.h **** _LV_OBJ_STYLE_SET_GET_DECLARE(PATTERN_REPEAT, pattern_repeat, bool, _int, scalar)
 145:lvgl/src/lv_widgets/../lv_core/lv_obj_style_dec.h **** _LV_OBJ_STYLE_SET_GET_DECLARE(PATTERN_BLEND_MODE, pattern_blend_mode, lv_blend_mode_t, _int, scalar
 146:lvgl/src/lv_widgets/../lv_core/lv_obj_style_dec.h **** _LV_OBJ_STYLE_SET_GET_DECLARE(PATTERN_RECOLOR, pattern_recolor, lv_color_t, _color, nonscalar)
 147:lvgl/src/lv_widgets/../lv_core/lv_obj_style_dec.h **** _LV_OBJ_STYLE_SET_GET_DECLARE(PATTERN_OPA, pattern_opa, lv_opa_t, _opa, scalar)
 148:lvgl/src/lv_widgets/../lv_core/lv_obj_style_dec.h **** _LV_OBJ_STYLE_SET_GET_DECLARE(PATTERN_RECOLOR_OPA, pattern_recolor_opa, lv_opa_t, _opa, scalar)
 149:lvgl/src/lv_widgets/../lv_core/lv_obj_style_dec.h **** _LV_OBJ_STYLE_SET_GET_DECLARE(PATTERN_IMAGE, pattern_image, const void *, _ptr, scalar)
 150:lvgl/src/lv_widgets/../lv_core/lv_obj_style_dec.h **** _LV_OBJ_STYLE_SET_GET_DECLARE(VALUE_LETTER_SPACE, value_letter_space, lv_style_int_t, _int, scalar)
 151:lvgl/src/lv_widgets/../lv_core/lv_obj_style_dec.h **** _LV_OBJ_STYLE_SET_GET_DECLARE(VALUE_LINE_SPACE, value_line_space, lv_style_int_t, _int, scalar)
 152:lvgl/src/lv_widgets/../lv_core/lv_obj_style_dec.h **** _LV_OBJ_STYLE_SET_GET_DECLARE(VALUE_BLEND_MODE, value_blend_mode, lv_blend_mode_t, _int, scalar)
 153:lvgl/src/lv_widgets/../lv_core/lv_obj_style_dec.h **** _LV_OBJ_STYLE_SET_GET_DECLARE(VALUE_OFS_X, value_ofs_x, lv_style_int_t, _int, scalar)
 154:lvgl/src/lv_widgets/../lv_core/lv_obj_style_dec.h **** _LV_OBJ_STYLE_SET_GET_DECLARE(VALUE_OFS_Y, value_ofs_y, lv_style_int_t, _int, scalar)
 155:lvgl/src/lv_widgets/../lv_core/lv_obj_style_dec.h **** _LV_OBJ_STYLE_SET_GET_DECLARE(VALUE_ALIGN, value_align, lv_align_t, _int, scalar)
 156:lvgl/src/lv_widgets/../lv_core/lv_obj_style_dec.h **** _LV_OBJ_STYLE_SET_GET_DECLARE(VALUE_COLOR, value_color, lv_color_t, _color, nonscalar)
 157:lvgl/src/lv_widgets/../lv_core/lv_obj_style_dec.h **** _LV_OBJ_STYLE_SET_GET_DECLARE(VALUE_OPA, value_opa, lv_opa_t, _opa, scalar)
 158:lvgl/src/lv_widgets/../lv_core/lv_obj_style_dec.h **** _LV_OBJ_STYLE_SET_GET_DECLARE(VALUE_FONT, value_font, const lv_font_t *, _ptr, scalar)
 159:lvgl/src/lv_widgets/../lv_core/lv_obj_style_dec.h **** _LV_OBJ_STYLE_SET_GET_DECLARE(VALUE_STR, value_str, const char *, _ptr, scalar)
 160:lvgl/src/lv_widgets/../lv_core/lv_obj_style_dec.h **** _LV_OBJ_STYLE_SET_GET_DECLARE(TEXT_LETTER_SPACE, text_letter_space, lv_style_int_t, _int, scalar)
 161:lvgl/src/lv_widgets/../lv_core/lv_obj_style_dec.h **** _LV_OBJ_STYLE_SET_GET_DECLARE(TEXT_LINE_SPACE, text_line_space, lv_style_int_t, _int, scalar)
 162:lvgl/src/lv_widgets/../lv_core/lv_obj_style_dec.h **** _LV_OBJ_STYLE_SET_GET_DECLARE(TEXT_DECOR, text_decor, lv_text_decor_t, _int, scalar)
 163:lvgl/src/lv_widgets/../lv_core/lv_obj_style_dec.h **** _LV_OBJ_STYLE_SET_GET_DECLARE(TEXT_BLEND_MODE, text_blend_mode, lv_blend_mode_t, _int, scalar)
 164:lvgl/src/lv_widgets/../lv_core/lv_obj_style_dec.h **** _LV_OBJ_STYLE_SET_GET_DECLARE(TEXT_COLOR, text_color, lv_color_t, _color, nonscalar)
 165:lvgl/src/lv_widgets/../lv_core/lv_obj_style_dec.h **** _LV_OBJ_STYLE_SET_GET_DECLARE(TEXT_SEL_COLOR, text_sel_color, lv_color_t, _color, nonscalar)
 166:lvgl/src/lv_widgets/../lv_core/lv_obj_style_dec.h **** _LV_OBJ_STYLE_SET_GET_DECLARE(TEXT_SEL_BG_COLOR, text_sel_bg_color, lv_color_t, _color, nonscalar)
 167:lvgl/src/lv_widgets/../lv_core/lv_obj_style_dec.h **** _LV_OBJ_STYLE_SET_GET_DECLARE(TEXT_OPA, text_opa, lv_opa_t, _opa, scalar)
 168:lvgl/src/lv_widgets/../lv_core/lv_obj_style_dec.h **** _LV_OBJ_STYLE_SET_GET_DECLARE(TEXT_FONT, text_font, const lv_font_t *, _ptr, scalar)
 182              		.loc 2 168 1 view .LVU40
 183              	.LBB105:
 184              		.loc 2 168 1 view .LVU41
 185 002c 48F28E02 		movw	r2, #32910
 186 0030 0021     		movs	r1, #0
 187 0032 FFF7FEFF 		bl	_lv_obj_get_style_ptr
 188              	.LVL17:
 189              		.loc 2 168 1 is_stmt 0 view .LVU42
 190 0036 0446     		mov	r4, r0
 191              	.LVL18:
 192              		.loc 2 168 1 view .LVU43
 193              	.LBE105:
 194              	.LBE104:
 529:lvgl/src/lv_widgets/lv_roller.c ****         lv_coord_t font_h        = lv_font_get_line_height(font);
ARM GAS  D:\Temp\ccqwJTgn.s 			page 20


 195              		.loc 1 529 9 is_stmt 1 view .LVU44
 196              	.LBB106:
 197              	.LBI106:
 161:lvgl/src/lv_widgets/../lv_core/lv_obj_style_dec.h **** _LV_OBJ_STYLE_SET_GET_DECLARE(TEXT_DECOR, text_decor, lv_text_decor_t, _int, scalar)
 198              		.loc 2 161 1 view .LVU45
 199              	.LBB107:
 161:lvgl/src/lv_widgets/../lv_core/lv_obj_style_dec.h **** _LV_OBJ_STYLE_SET_GET_DECLARE(TEXT_DECOR, text_decor, lv_text_decor_t, _int, scalar)
 200              		.loc 2 161 1 view .LVU46
 201 0038 48F28102 		movw	r2, #32897
 202 003c 0021     		movs	r1, #0
 203 003e 4046     		mov	r0, r8
 204              	.LVL19:
 161:lvgl/src/lv_widgets/../lv_core/lv_obj_style_dec.h **** _LV_OBJ_STYLE_SET_GET_DECLARE(TEXT_DECOR, text_decor, lv_text_decor_t, _int, scalar)
 205              		.loc 2 161 1 is_stmt 0 view .LVU47
 206 0040 FFF7FEFF 		bl	_lv_obj_get_style_int
 207              	.LVL20:
 208 0044 8246     		mov	r10, r0
 209              	.LVL21:
 161:lvgl/src/lv_widgets/../lv_core/lv_obj_style_dec.h **** _LV_OBJ_STYLE_SET_GET_DECLARE(TEXT_DECOR, text_decor, lv_text_decor_t, _int, scalar)
 210              		.loc 2 161 1 view .LVU48
 211              	.LBE107:
 212              	.LBE106:
 530:lvgl/src/lv_widgets/lv_roller.c **** 
 213              		.loc 1 530 9 is_stmt 1 view .LVU49
 214              	.LBB108:
 215              	.LBI108:
 216              		.file 3 "lvgl/src/lv_widgets/../lv_core/../lv_font/lv_font.h"
   1:lvgl/src/lv_widgets/../lv_core/../lv_font/lv_font.h **** /**
   2:lvgl/src/lv_widgets/../lv_core/../lv_font/lv_font.h ****  * @file lv_font.h
   3:lvgl/src/lv_widgets/../lv_core/../lv_font/lv_font.h ****  *
   4:lvgl/src/lv_widgets/../lv_core/../lv_font/lv_font.h ****  */
   5:lvgl/src/lv_widgets/../lv_core/../lv_font/lv_font.h **** 
   6:lvgl/src/lv_widgets/../lv_core/../lv_font/lv_font.h **** #ifndef LV_FONT_H
   7:lvgl/src/lv_widgets/../lv_core/../lv_font/lv_font.h **** #define LV_FONT_H
   8:lvgl/src/lv_widgets/../lv_core/../lv_font/lv_font.h **** 
   9:lvgl/src/lv_widgets/../lv_core/../lv_font/lv_font.h **** #ifdef __cplusplus
  10:lvgl/src/lv_widgets/../lv_core/../lv_font/lv_font.h **** extern "C" {
  11:lvgl/src/lv_widgets/../lv_core/../lv_font/lv_font.h **** #endif
  12:lvgl/src/lv_widgets/../lv_core/../lv_font/lv_font.h **** 
  13:lvgl/src/lv_widgets/../lv_core/../lv_font/lv_font.h **** /*********************
  14:lvgl/src/lv_widgets/../lv_core/../lv_font/lv_font.h ****  *      INCLUDES
  15:lvgl/src/lv_widgets/../lv_core/../lv_font/lv_font.h ****  *********************/
  16:lvgl/src/lv_widgets/../lv_core/../lv_font/lv_font.h **** #include "../lv_conf_internal.h"
  17:lvgl/src/lv_widgets/../lv_core/../lv_font/lv_font.h **** #include <stdint.h>
  18:lvgl/src/lv_widgets/../lv_core/../lv_font/lv_font.h **** #include <stddef.h>
  19:lvgl/src/lv_widgets/../lv_core/../lv_font/lv_font.h **** #include <stdbool.h>
  20:lvgl/src/lv_widgets/../lv_core/../lv_font/lv_font.h **** 
  21:lvgl/src/lv_widgets/../lv_core/../lv_font/lv_font.h **** #include "lv_symbol_def.h"
  22:lvgl/src/lv_widgets/../lv_core/../lv_font/lv_font.h **** #include "../lv_misc/lv_area.h"
  23:lvgl/src/lv_widgets/../lv_core/../lv_font/lv_font.h **** 
  24:lvgl/src/lv_widgets/../lv_core/../lv_font/lv_font.h **** /*********************
  25:lvgl/src/lv_widgets/../lv_core/../lv_font/lv_font.h ****  *      DEFINES
  26:lvgl/src/lv_widgets/../lv_core/../lv_font/lv_font.h ****  *********************/
  27:lvgl/src/lv_widgets/../lv_core/../lv_font/lv_font.h **** 
  28:lvgl/src/lv_widgets/../lv_core/../lv_font/lv_font.h **** /**********************
  29:lvgl/src/lv_widgets/../lv_core/../lv_font/lv_font.h ****  *      TYPEDEFS
  30:lvgl/src/lv_widgets/../lv_core/../lv_font/lv_font.h ****  **********************/
ARM GAS  D:\Temp\ccqwJTgn.s 			page 21


  31:lvgl/src/lv_widgets/../lv_core/../lv_font/lv_font.h **** 
  32:lvgl/src/lv_widgets/../lv_core/../lv_font/lv_font.h **** /*------------------
  33:lvgl/src/lv_widgets/../lv_core/../lv_font/lv_font.h ****  * General types
  34:lvgl/src/lv_widgets/../lv_core/../lv_font/lv_font.h ****  *-----------------*/
  35:lvgl/src/lv_widgets/../lv_core/../lv_font/lv_font.h **** 
  36:lvgl/src/lv_widgets/../lv_core/../lv_font/lv_font.h **** /** Describes the properties of a glyph. */
  37:lvgl/src/lv_widgets/../lv_core/../lv_font/lv_font.h **** typedef struct {
  38:lvgl/src/lv_widgets/../lv_core/../lv_font/lv_font.h ****     uint16_t adv_w; /**< The glyph needs this space. Draw the next glyph after this width. 8 bit in
  39:lvgl/src/lv_widgets/../lv_core/../lv_font/lv_font.h ****     uint16_t box_w;  /**< Width of the glyph's bounding box*/
  40:lvgl/src/lv_widgets/../lv_core/../lv_font/lv_font.h ****     uint16_t box_h;  /**< Height of the glyph's bounding box*/
  41:lvgl/src/lv_widgets/../lv_core/../lv_font/lv_font.h ****     int16_t ofs_x;   /**< x offset of the bounding box*/
  42:lvgl/src/lv_widgets/../lv_core/../lv_font/lv_font.h ****     int16_t ofs_y;  /**< y offset of the bounding box*/
  43:lvgl/src/lv_widgets/../lv_core/../lv_font/lv_font.h ****     uint8_t bpp;   /**< Bit-per-pixel: 1, 2, 4, 8*/
  44:lvgl/src/lv_widgets/../lv_core/../lv_font/lv_font.h **** } lv_font_glyph_dsc_t;
  45:lvgl/src/lv_widgets/../lv_core/../lv_font/lv_font.h **** 
  46:lvgl/src/lv_widgets/../lv_core/../lv_font/lv_font.h **** /** The bitmaps might be upscaled by 3 to achieve subpixel rendering. */
  47:lvgl/src/lv_widgets/../lv_core/../lv_font/lv_font.h **** enum {
  48:lvgl/src/lv_widgets/../lv_core/../lv_font/lv_font.h ****     LV_FONT_SUBPX_NONE,
  49:lvgl/src/lv_widgets/../lv_core/../lv_font/lv_font.h ****     LV_FONT_SUBPX_HOR,
  50:lvgl/src/lv_widgets/../lv_core/../lv_font/lv_font.h ****     LV_FONT_SUBPX_VER,
  51:lvgl/src/lv_widgets/../lv_core/../lv_font/lv_font.h ****     LV_FONT_SUBPX_BOTH,
  52:lvgl/src/lv_widgets/../lv_core/../lv_font/lv_font.h **** };
  53:lvgl/src/lv_widgets/../lv_core/../lv_font/lv_font.h **** 
  54:lvgl/src/lv_widgets/../lv_core/../lv_font/lv_font.h **** typedef uint8_t lv_font_subpx_t;
  55:lvgl/src/lv_widgets/../lv_core/../lv_font/lv_font.h **** 
  56:lvgl/src/lv_widgets/../lv_core/../lv_font/lv_font.h **** /** Describe the properties of a font*/
  57:lvgl/src/lv_widgets/../lv_core/../lv_font/lv_font.h **** typedef struct _lv_font_struct {
  58:lvgl/src/lv_widgets/../lv_core/../lv_font/lv_font.h ****     /** Get a glyph's descriptor from a font*/
  59:lvgl/src/lv_widgets/../lv_core/../lv_font/lv_font.h ****     bool (*get_glyph_dsc)(const struct _lv_font_struct *, lv_font_glyph_dsc_t *, uint32_t letter, u
  60:lvgl/src/lv_widgets/../lv_core/../lv_font/lv_font.h **** 
  61:lvgl/src/lv_widgets/../lv_core/../lv_font/lv_font.h ****     /** Get a glyph's bitmap from a font*/
  62:lvgl/src/lv_widgets/../lv_core/../lv_font/lv_font.h ****     const uint8_t * (*get_glyph_bitmap)(const struct _lv_font_struct *, uint32_t);
  63:lvgl/src/lv_widgets/../lv_core/../lv_font/lv_font.h **** 
  64:lvgl/src/lv_widgets/../lv_core/../lv_font/lv_font.h ****     /*Pointer to the font in a font pack (must have the same line height)*/
  65:lvgl/src/lv_widgets/../lv_core/../lv_font/lv_font.h ****     lv_coord_t line_height;         /**< The real line height where any text fits*/
  66:lvgl/src/lv_widgets/../lv_core/../lv_font/lv_font.h ****     lv_coord_t base_line;           /**< Base line measured from the top of the line_height*/
  67:lvgl/src/lv_widgets/../lv_core/../lv_font/lv_font.h ****     uint8_t subpx  : 2;             /**< An element of `lv_font_subpx_t`*/
  68:lvgl/src/lv_widgets/../lv_core/../lv_font/lv_font.h **** 
  69:lvgl/src/lv_widgets/../lv_core/../lv_font/lv_font.h ****     int8_t underline_position;      /**< Distance between the top of the underline and base line (<
  70:lvgl/src/lv_widgets/../lv_core/../lv_font/lv_font.h ****     int8_t underline_thickness;     /**< Thickness of the underline*/
  71:lvgl/src/lv_widgets/../lv_core/../lv_font/lv_font.h **** 
  72:lvgl/src/lv_widgets/../lv_core/../lv_font/lv_font.h ****     void * dsc;                     /**< Store implementation specific or run_time data or caching 
  73:lvgl/src/lv_widgets/../lv_core/../lv_font/lv_font.h **** #if LV_USE_USER_DATA
  74:lvgl/src/lv_widgets/../lv_core/../lv_font/lv_font.h ****     lv_font_user_data_t user_data;  /**< Custom user data for font. */
  75:lvgl/src/lv_widgets/../lv_core/../lv_font/lv_font.h **** #endif
  76:lvgl/src/lv_widgets/../lv_core/../lv_font/lv_font.h **** 
  77:lvgl/src/lv_widgets/../lv_core/../lv_font/lv_font.h **** } lv_font_t;
  78:lvgl/src/lv_widgets/../lv_core/../lv_font/lv_font.h **** 
  79:lvgl/src/lv_widgets/../lv_core/../lv_font/lv_font.h **** /**********************
  80:lvgl/src/lv_widgets/../lv_core/../lv_font/lv_font.h ****  * GLOBAL PROTOTYPES
  81:lvgl/src/lv_widgets/../lv_core/../lv_font/lv_font.h ****  **********************/
  82:lvgl/src/lv_widgets/../lv_core/../lv_font/lv_font.h **** 
  83:lvgl/src/lv_widgets/../lv_core/../lv_font/lv_font.h **** /**
  84:lvgl/src/lv_widgets/../lv_core/../lv_font/lv_font.h ****  * Return with the bitmap of a font.
  85:lvgl/src/lv_widgets/../lv_core/../lv_font/lv_font.h ****  * @param font_p pointer to a font
  86:lvgl/src/lv_widgets/../lv_core/../lv_font/lv_font.h ****  * @param letter an UNICODE character code
  87:lvgl/src/lv_widgets/../lv_core/../lv_font/lv_font.h ****  * @return pointer to the bitmap of the letter
ARM GAS  D:\Temp\ccqwJTgn.s 			page 22


  88:lvgl/src/lv_widgets/../lv_core/../lv_font/lv_font.h ****  */
  89:lvgl/src/lv_widgets/../lv_core/../lv_font/lv_font.h **** const uint8_t * lv_font_get_glyph_bitmap(const lv_font_t * font_p, uint32_t letter);
  90:lvgl/src/lv_widgets/../lv_core/../lv_font/lv_font.h **** 
  91:lvgl/src/lv_widgets/../lv_core/../lv_font/lv_font.h **** /**
  92:lvgl/src/lv_widgets/../lv_core/../lv_font/lv_font.h ****  * Get the descriptor of a glyph
  93:lvgl/src/lv_widgets/../lv_core/../lv_font/lv_font.h ****  * @param font_p pointer to font
  94:lvgl/src/lv_widgets/../lv_core/../lv_font/lv_font.h ****  * @param dsc_out store the result descriptor here
  95:lvgl/src/lv_widgets/../lv_core/../lv_font/lv_font.h ****  * @param letter an UNICODE letter code
  96:lvgl/src/lv_widgets/../lv_core/../lv_font/lv_font.h ****  * @return true: descriptor is successfully loaded into `dsc_out`.
  97:lvgl/src/lv_widgets/../lv_core/../lv_font/lv_font.h ****  *         false: the letter was not found, no data is loaded to `dsc_out`
  98:lvgl/src/lv_widgets/../lv_core/../lv_font/lv_font.h ****  */
  99:lvgl/src/lv_widgets/../lv_core/../lv_font/lv_font.h **** bool lv_font_get_glyph_dsc(const lv_font_t * font_p, lv_font_glyph_dsc_t * dsc_out, uint32_t letter
 100:lvgl/src/lv_widgets/../lv_core/../lv_font/lv_font.h ****                            uint32_t letter_next);
 101:lvgl/src/lv_widgets/../lv_core/../lv_font/lv_font.h **** 
 102:lvgl/src/lv_widgets/../lv_core/../lv_font/lv_font.h **** /**
 103:lvgl/src/lv_widgets/../lv_core/../lv_font/lv_font.h ****  * Get the width of a glyph with kerning
 104:lvgl/src/lv_widgets/../lv_core/../lv_font/lv_font.h ****  * @param font pointer to a font
 105:lvgl/src/lv_widgets/../lv_core/../lv_font/lv_font.h ****  * @param letter an UNICODE letter
 106:lvgl/src/lv_widgets/../lv_core/../lv_font/lv_font.h ****  * @param letter_next the next letter after `letter`. Used for kerning
 107:lvgl/src/lv_widgets/../lv_core/../lv_font/lv_font.h ****  * @return the width of the glyph
 108:lvgl/src/lv_widgets/../lv_core/../lv_font/lv_font.h ****  */
 109:lvgl/src/lv_widgets/../lv_core/../lv_font/lv_font.h **** uint16_t lv_font_get_glyph_width(const lv_font_t * font, uint32_t letter, uint32_t letter_next);
 110:lvgl/src/lv_widgets/../lv_core/../lv_font/lv_font.h **** 
 111:lvgl/src/lv_widgets/../lv_core/../lv_font/lv_font.h **** /**
 112:lvgl/src/lv_widgets/../lv_core/../lv_font/lv_font.h ****  * Get the line height of a font. All characters fit into this height
 113:lvgl/src/lv_widgets/../lv_core/../lv_font/lv_font.h ****  * @param font_p pointer to a font
 114:lvgl/src/lv_widgets/../lv_core/../lv_font/lv_font.h ****  * @return the height of a font
 115:lvgl/src/lv_widgets/../lv_core/../lv_font/lv_font.h ****  */
 116:lvgl/src/lv_widgets/../lv_core/../lv_font/lv_font.h **** static inline lv_coord_t lv_font_get_line_height(const lv_font_t * font_p)
 217              		.loc 3 116 26 view .LVU50
 218              	.LBB109:
 117:lvgl/src/lv_widgets/../lv_core/../lv_font/lv_font.h **** {
 118:lvgl/src/lv_widgets/../lv_core/../lv_font/lv_font.h ****     return font_p->line_height;
 219              		.loc 3 118 5 view .LVU51
 220              		.loc 3 118 18 is_stmt 0 view .LVU52
 221 0046 B4F90840 		ldrsh	r4, [r4, #8]
 222              	.LVL22:
 223              		.loc 3 118 18 view .LVU53
 224              	.LBE109:
 225              	.LBE108:
 532:lvgl/src/lv_widgets/lv_roller.c ****         rect_area.y1 = roller->coords.y1 + lv_obj_get_height(roller) / 2 - font_h / 2 - line_space 
 226              		.loc 1 532 9 is_stmt 1 view .LVU54
 533:lvgl/src/lv_widgets/lv_roller.c ****         if((font_h & 0x1) && (line_space & 0x1)) rect_area.y1--; /*Compensate the two rounding erro
 227              		.loc 1 533 9 view .LVU55
 533:lvgl/src/lv_widgets/lv_roller.c ****         if((font_h & 0x1) && (line_space & 0x1)) rect_area.y1--; /*Compensate the two rounding erro
 228              		.loc 1 533 38 is_stmt 0 view .LVU56
 229 004a B8F81290 		ldrh	r9, [r8, #18]
 533:lvgl/src/lv_widgets/lv_roller.c ****         if((font_h & 0x1) && (line_space & 0x1)) rect_area.y1--; /*Compensate the two rounding erro
 230              		.loc 1 533 44 view .LVU57
 231 004e 4046     		mov	r0, r8
 232 0050 FFF7FEFF 		bl	lv_obj_get_height
 233              	.LVL23:
 533:lvgl/src/lv_widgets/lv_roller.c ****         if((font_h & 0x1) && (line_space & 0x1)) rect_area.y1--; /*Compensate the two rounding erro
 234              		.loc 1 533 42 view .LVU58
 235 0054 00EBD070 		add	r0, r0, r0, lsr #31
 236 0058 09EB6003 		add	r3, r9, r0, asr #1
 237 005c 9BB2     		uxth	r3, r3
ARM GAS  D:\Temp\ccqwJTgn.s 			page 23


 533:lvgl/src/lv_widgets/lv_roller.c ****         if((font_h & 0x1) && (line_space & 0x1)) rect_area.y1--; /*Compensate the two rounding erro
 238              		.loc 1 533 74 view .LVU59
 239 005e 04EBD479 		add	r9, r4, r4, lsr #31
 240 0062 A3EB6903 		sub	r3, r3, r9, asr #1
 241 0066 9BB2     		uxth	r3, r3
 533:lvgl/src/lv_widgets/lv_roller.c ****         if((font_h & 0x1) && (line_space & 0x1)) rect_area.y1--; /*Compensate the two rounding erro
 242              		.loc 1 533 87 view .LVU60
 243 0068 0AEBDA72 		add	r2, r10, r10, lsr #31
 244 006c A3EB6203 		sub	r3, r3, r2, asr #1
 245 0070 9BB2     		uxth	r3, r3
 533:lvgl/src/lv_widgets/lv_roller.c ****         if((font_h & 0x1) && (line_space & 0x1)) rect_area.y1--; /*Compensate the two rounding erro
 246              		.loc 1 533 22 view .LVU61
 247 0072 ADF80230 		strh	r3, [sp, #2]	@ movhi
 534:lvgl/src/lv_widgets/lv_roller.c ****         rect_area.y2 = rect_area.y1 + font_h + line_space - 1;
 248              		.loc 1 534 9 is_stmt 1 view .LVU62
 534:lvgl/src/lv_widgets/lv_roller.c ****         rect_area.y2 = rect_area.y1 + font_h + line_space - 1;
 249              		.loc 1 534 20 is_stmt 0 view .LVU63
 250 0076 A4B2     		uxth	r4, r4
 534:lvgl/src/lv_widgets/lv_roller.c ****         rect_area.y2 = rect_area.y1 + font_h + line_space - 1;
 251              		.loc 1 534 11 view .LVU64
 252 0078 14F0010F 		tst	r4, #1
 253 007c 05D0     		beq	.L13
 534:lvgl/src/lv_widgets/lv_roller.c ****         rect_area.y2 = rect_area.y1 + font_h + line_space - 1;
 254              		.loc 1 534 27 discriminator 1 view .LVU65
 255 007e 1AF0010F 		tst	r10, #1
 256 0082 02D0     		beq	.L13
 534:lvgl/src/lv_widgets/lv_roller.c ****         rect_area.y2 = rect_area.y1 + font_h + line_space - 1;
 257              		.loc 1 534 50 is_stmt 1 discriminator 2 view .LVU66
 534:lvgl/src/lv_widgets/lv_roller.c ****         rect_area.y2 = rect_area.y1 + font_h + line_space - 1;
 258              		.loc 1 534 62 is_stmt 0 discriminator 2 view .LVU67
 259 0084 013B     		subs	r3, r3, #1
 260 0086 ADF80230 		strh	r3, [sp, #2]	@ movhi
 261              	.L13:
 535:lvgl/src/lv_widgets/lv_roller.c ****         lv_area_t roller_coords;
 262              		.loc 1 535 9 is_stmt 1 view .LVU68
 535:lvgl/src/lv_widgets/lv_roller.c ****         lv_area_t roller_coords;
 263              		.loc 1 535 33 is_stmt 0 view .LVU69
 264 008a BDF90290 		ldrsh	r9, [sp, #2]
 535:lvgl/src/lv_widgets/lv_roller.c ****         lv_area_t roller_coords;
 265              		.loc 1 535 37 view .LVU70
 266 008e 14FA89F4 		uxtah	r4, r4, r9
 267              	.LVL24:
 535:lvgl/src/lv_widgets/lv_roller.c ****         lv_area_t roller_coords;
 268              		.loc 1 535 46 view .LVU71
 269 0092 1AFA84F4 		uxtah	r4, r10, r4
 270 0096 A4B2     		uxth	r4, r4
 535:lvgl/src/lv_widgets/lv_roller.c ****         lv_area_t roller_coords;
 271              		.loc 1 535 59 view .LVU72
 272 0098 013C     		subs	r4, r4, #1
 273 009a 24B2     		sxth	r4, r4
 536:lvgl/src/lv_widgets/lv_roller.c ****         lv_obj_get_coords(roller, &roller_coords);
 274              		.loc 1 536 9 is_stmt 1 view .LVU73
 537:lvgl/src/lv_widgets/lv_roller.c ****         lv_obj_get_inner_coords(roller, &roller_coords);
 275              		.loc 1 537 9 view .LVU74
 276 009c 02A9     		add	r1, sp, #8
 277 009e 4046     		mov	r0, r8
 278 00a0 FFF7FEFF 		bl	lv_obj_get_coords
ARM GAS  D:\Temp\ccqwJTgn.s 			page 24


 279              	.LVL25:
 538:lvgl/src/lv_widgets/lv_roller.c **** 
 280              		.loc 1 538 9 view .LVU75
 281 00a4 02A9     		add	r1, sp, #8
 282 00a6 4046     		mov	r0, r8
 283 00a8 FFF7FEFF 		bl	lv_obj_get_inner_coords
 284              	.LVL26:
 540:lvgl/src/lv_widgets/lv_roller.c ****         rect_area.x2 = roller_coords.x2;
 285              		.loc 1 540 9 view .LVU76
 541:lvgl/src/lv_widgets/lv_roller.c **** 
 286              		.loc 1 541 9 view .LVU77
 543:lvgl/src/lv_widgets/lv_roller.c ****         clip2.x1 = label->coords.x1;
 287              		.loc 1 543 9 view .LVU78
 544:lvgl/src/lv_widgets/lv_roller.c ****         clip2.y1 = label->coords.y1;
 288              		.loc 1 544 9 view .LVU79
 544:lvgl/src/lv_widgets/lv_roller.c ****         clip2.y1 = label->coords.y1;
 289              		.loc 1 544 33 is_stmt 0 view .LVU80
 290 00ac B5F91030 		ldrsh	r3, [r5, #16]
 544:lvgl/src/lv_widgets/lv_roller.c ****         clip2.y1 = label->coords.y1;
 291              		.loc 1 544 18 view .LVU81
 292 00b0 ADF81030 		strh	r3, [sp, #16]	@ movhi
 545:lvgl/src/lv_widgets/lv_roller.c ****         clip2.x2 = label->coords.x2;
 293              		.loc 1 545 9 is_stmt 1 view .LVU82
 545:lvgl/src/lv_widgets/lv_roller.c ****         clip2.x2 = label->coords.x2;
 294              		.loc 1 545 33 is_stmt 0 view .LVU83
 295 00b4 B5F91230 		ldrsh	r3, [r5, #18]
 545:lvgl/src/lv_widgets/lv_roller.c ****         clip2.x2 = label->coords.x2;
 296              		.loc 1 545 18 view .LVU84
 297 00b8 ADF81230 		strh	r3, [sp, #18]	@ movhi
 546:lvgl/src/lv_widgets/lv_roller.c ****         clip2.y2 = rect_area.y1;
 298              		.loc 1 546 9 is_stmt 1 view .LVU85
 546:lvgl/src/lv_widgets/lv_roller.c ****         clip2.y2 = rect_area.y1;
 299              		.loc 1 546 33 is_stmt 0 view .LVU86
 300 00bc B5F91430 		ldrsh	r3, [r5, #20]
 546:lvgl/src/lv_widgets/lv_roller.c ****         clip2.y2 = rect_area.y1;
 301              		.loc 1 546 18 view .LVU87
 302 00c0 ADF81430 		strh	r3, [sp, #20]	@ movhi
 547:lvgl/src/lv_widgets/lv_roller.c ****         if(_lv_area_intersect(&clip2, clip_area, &clip2)) {
 303              		.loc 1 547 9 is_stmt 1 view .LVU88
 547:lvgl/src/lv_widgets/lv_roller.c ****         if(_lv_area_intersect(&clip2, clip_area, &clip2)) {
 304              		.loc 1 547 18 is_stmt 0 view .LVU89
 305 00c4 ADF81690 		strh	r9, [sp, #22]	@ movhi
 548:lvgl/src/lv_widgets/lv_roller.c ****             ancestor_label_design(label, &clip2, mode);
 306              		.loc 1 548 9 is_stmt 1 view .LVU90
 548:lvgl/src/lv_widgets/lv_roller.c ****             ancestor_label_design(label, &clip2, mode);
 307              		.loc 1 548 12 is_stmt 0 view .LVU91
 308 00c8 04AA     		add	r2, sp, #16
 309 00ca 3946     		mov	r1, r7
 310 00cc 1046     		mov	r0, r2
 311 00ce FFF7FEFF 		bl	_lv_area_intersect
 312              	.LVL27:
 548:lvgl/src/lv_widgets/lv_roller.c ****             ancestor_label_design(label, &clip2, mode);
 313              		.loc 1 548 11 view .LVU92
 314 00d2 28B1     		cbz	r0, .L14
 549:lvgl/src/lv_widgets/lv_roller.c ****         }
 315              		.loc 1 549 13 is_stmt 1 view .LVU93
 316 00d4 104B     		ldr	r3, .L20
ARM GAS  D:\Temp\ccqwJTgn.s 			page 25


 317 00d6 1B68     		ldr	r3, [r3]
 318 00d8 3246     		mov	r2, r6
 319 00da 04A9     		add	r1, sp, #16
 320 00dc 2846     		mov	r0, r5
 321 00de 9847     		blx	r3
 322              	.LVL28:
 323              	.L14:
 552:lvgl/src/lv_widgets/lv_roller.c ****         clip2.y1 = rect_area.y2;
 324              		.loc 1 552 9 view .LVU94
 552:lvgl/src/lv_widgets/lv_roller.c ****         clip2.y1 = rect_area.y2;
 325              		.loc 1 552 33 is_stmt 0 view .LVU95
 326 00e0 B5F91030 		ldrsh	r3, [r5, #16]
 552:lvgl/src/lv_widgets/lv_roller.c ****         clip2.y1 = rect_area.y2;
 327              		.loc 1 552 18 view .LVU96
 328 00e4 ADF81030 		strh	r3, [sp, #16]	@ movhi
 553:lvgl/src/lv_widgets/lv_roller.c ****         clip2.x2 = label->coords.x2;
 329              		.loc 1 553 9 is_stmt 1 view .LVU97
 553:lvgl/src/lv_widgets/lv_roller.c ****         clip2.x2 = label->coords.x2;
 330              		.loc 1 553 18 is_stmt 0 view .LVU98
 331 00e8 ADF81240 		strh	r4, [sp, #18]	@ movhi
 554:lvgl/src/lv_widgets/lv_roller.c ****         clip2.y2 = label->coords.y2;
 332              		.loc 1 554 9 is_stmt 1 view .LVU99
 554:lvgl/src/lv_widgets/lv_roller.c ****         clip2.y2 = label->coords.y2;
 333              		.loc 1 554 33 is_stmt 0 view .LVU100
 334 00ec B5F91430 		ldrsh	r3, [r5, #20]
 554:lvgl/src/lv_widgets/lv_roller.c ****         clip2.y2 = label->coords.y2;
 335              		.loc 1 554 18 view .LVU101
 336 00f0 ADF81430 		strh	r3, [sp, #20]	@ movhi
 555:lvgl/src/lv_widgets/lv_roller.c ****         if(_lv_area_intersect(&clip2, clip_area, &clip2)) {
 337              		.loc 1 555 9 is_stmt 1 view .LVU102
 555:lvgl/src/lv_widgets/lv_roller.c ****         if(_lv_area_intersect(&clip2, clip_area, &clip2)) {
 338              		.loc 1 555 33 is_stmt 0 view .LVU103
 339 00f4 B5F91630 		ldrsh	r3, [r5, #22]
 555:lvgl/src/lv_widgets/lv_roller.c ****         if(_lv_area_intersect(&clip2, clip_area, &clip2)) {
 340              		.loc 1 555 18 view .LVU104
 341 00f8 ADF81630 		strh	r3, [sp, #22]	@ movhi
 556:lvgl/src/lv_widgets/lv_roller.c ****             ancestor_label_design(label, &clip2, mode);
 342              		.loc 1 556 9 is_stmt 1 view .LVU105
 556:lvgl/src/lv_widgets/lv_roller.c ****             ancestor_label_design(label, &clip2, mode);
 343              		.loc 1 556 12 is_stmt 0 view .LVU106
 344 00fc 04AA     		add	r2, sp, #16
 345 00fe 3946     		mov	r1, r7
 346 0100 1046     		mov	r0, r2
 347 0102 FFF7FEFF 		bl	_lv_area_intersect
 348              	.LVL29:
 556:lvgl/src/lv_widgets/lv_roller.c ****             ancestor_label_design(label, &clip2, mode);
 349              		.loc 1 556 11 view .LVU107
 350 0106 28B1     		cbz	r0, .L15
 557:lvgl/src/lv_widgets/lv_roller.c ****         }
 351              		.loc 1 557 13 is_stmt 1 view .LVU108
 352 0108 034B     		ldr	r3, .L20
 353 010a 1B68     		ldr	r3, [r3]
 354 010c 3246     		mov	r2, r6
 355 010e 04A9     		add	r1, sp, #16
 356 0110 2846     		mov	r0, r5
 357 0112 9847     		blx	r3
 358              	.LVL30:
ARM GAS  D:\Temp\ccqwJTgn.s 			page 26


 359              	.L15:
 360              	.LBE103:
 561:lvgl/src/lv_widgets/lv_roller.c **** }
 361              		.loc 1 561 12 is_stmt 0 view .LVU109
 362 0114 0020     		movs	r0, #0
 363 0116 7DE7     		b	.L12
 364              	.L21:
 365              		.align	2
 366              	.L20:
 367 0118 00000000 		.word	.LANCHOR0
 368              		.cfi_endproc
 369              	.LFE488:
 371              		.section	.text.draw_bg,"ax",%progbits
 372              		.align	1
 373              		.syntax unified
 374              		.thumb
 375              		.thumb_func
 376              		.fpu fpv4-sp-d16
 378              	draw_bg:
 379              	.LVL31:
 380              	.LFB492:
 701:lvgl/src/lv_widgets/lv_roller.c **** 
 702:lvgl/src/lv_widgets/lv_roller.c **** /**
 703:lvgl/src/lv_widgets/lv_roller.c ****  * Signal function of the scrollable part of the roller.
 704:lvgl/src/lv_widgets/lv_roller.c ****  * @param roller_scrl pointer to the scrollable part of roller (page)
 705:lvgl/src/lv_widgets/lv_roller.c ****  * @param sign a signal type from lv_signal_t enum
 706:lvgl/src/lv_widgets/lv_roller.c ****  * @param param pointer to a signal specific variable
 707:lvgl/src/lv_widgets/lv_roller.c ****  * @return LV_RES_OK: the object is not deleted in the function; LV_RES_INV: the object is deleted
 708:lvgl/src/lv_widgets/lv_roller.c ****  */
 709:lvgl/src/lv_widgets/lv_roller.c **** static lv_res_t lv_roller_scrl_signal(lv_obj_t * roller_scrl, lv_signal_t sign, void * param)
 710:lvgl/src/lv_widgets/lv_roller.c **** {
 711:lvgl/src/lv_widgets/lv_roller.c ****     lv_res_t res;
 712:lvgl/src/lv_widgets/lv_roller.c **** 
 713:lvgl/src/lv_widgets/lv_roller.c ****     /* Include the ancient signal function */
 714:lvgl/src/lv_widgets/lv_roller.c ****     res = ancestor_scrl_signal(roller_scrl, sign, param);
 715:lvgl/src/lv_widgets/lv_roller.c ****     if(res != LV_RES_OK) return res;
 716:lvgl/src/lv_widgets/lv_roller.c ****     if(sign == LV_SIGNAL_GET_TYPE) return lv_obj_handle_get_type_signal(param, LV_OBJX_NAME);
 717:lvgl/src/lv_widgets/lv_roller.c **** 
 718:lvgl/src/lv_widgets/lv_roller.c ****     lv_obj_t * roller     = lv_obj_get_parent(roller_scrl);
 719:lvgl/src/lv_widgets/lv_roller.c **** 
 720:lvgl/src/lv_widgets/lv_roller.c ****     /*On delete the ddlist signal deletes the label so nothing left to do here*/
 721:lvgl/src/lv_widgets/lv_roller.c ****     lv_obj_t * label = get_label(roller);
 722:lvgl/src/lv_widgets/lv_roller.c ****     if(label == NULL) return LV_RES_INV;
 723:lvgl/src/lv_widgets/lv_roller.c **** 
 724:lvgl/src/lv_widgets/lv_roller.c ****     int32_t id            = -1;
 725:lvgl/src/lv_widgets/lv_roller.c ****     lv_roller_ext_t * ext = lv_obj_get_ext_attr(roller);
 726:lvgl/src/lv_widgets/lv_roller.c **** 
 727:lvgl/src/lv_widgets/lv_roller.c ****     const lv_font_t * font = lv_obj_get_style_text_font(roller, LV_ROLLER_PART_BG);
 728:lvgl/src/lv_widgets/lv_roller.c ****     lv_style_int_t line_space = lv_obj_get_style_text_line_space(roller, LV_ROLLER_PART_BG);
 729:lvgl/src/lv_widgets/lv_roller.c ****     lv_coord_t font_h              = lv_font_get_line_height(font);
 730:lvgl/src/lv_widgets/lv_roller.c **** 
 731:lvgl/src/lv_widgets/lv_roller.c ****     if(sign == LV_SIGNAL_DRAG_END) {
 732:lvgl/src/lv_widgets/lv_roller.c ****         /*If dragged then align the list to have an element in the middle*/
 733:lvgl/src/lv_widgets/lv_roller.c ****         lv_coord_t label_y1   = label->coords.y1 - roller->coords.y1;
 734:lvgl/src/lv_widgets/lv_roller.c ****         lv_coord_t label_unit = font_h + line_space;
 735:lvgl/src/lv_widgets/lv_roller.c ****         lv_coord_t mid        = (roller->coords.y2 - roller->coords.y1) / 2;
 736:lvgl/src/lv_widgets/lv_roller.c **** 
ARM GAS  D:\Temp\ccqwJTgn.s 			page 27


 737:lvgl/src/lv_widgets/lv_roller.c ****         id = (mid - label_y1 + line_space / 2) / label_unit;
 738:lvgl/src/lv_widgets/lv_roller.c **** 
 739:lvgl/src/lv_widgets/lv_roller.c ****         if(id < 0) id = 0;
 740:lvgl/src/lv_widgets/lv_roller.c ****         if(id >= ext->option_cnt) id = ext->option_cnt - 1;
 741:lvgl/src/lv_widgets/lv_roller.c **** 
 742:lvgl/src/lv_widgets/lv_roller.c ****         ext->sel_opt_id     = id;
 743:lvgl/src/lv_widgets/lv_roller.c ****         ext->sel_opt_id_ori = id;
 744:lvgl/src/lv_widgets/lv_roller.c ****         res = lv_event_send(roller, LV_EVENT_VALUE_CHANGED, &id);
 745:lvgl/src/lv_widgets/lv_roller.c ****         if(res != LV_RES_OK) return res;
 746:lvgl/src/lv_widgets/lv_roller.c ****     }
 747:lvgl/src/lv_widgets/lv_roller.c ****     /*If picked an option by clicking then set it*/
 748:lvgl/src/lv_widgets/lv_roller.c ****     else if(sign == LV_SIGNAL_RELEASED) {
 749:lvgl/src/lv_widgets/lv_roller.c ****         release_handler(roller);
 750:lvgl/src/lv_widgets/lv_roller.c ****     }
 751:lvgl/src/lv_widgets/lv_roller.c ****     else if(sign == LV_SIGNAL_PRESSED) {
 752:lvgl/src/lv_widgets/lv_roller.c **** #if LV_USE_ANIMATION
 753:lvgl/src/lv_widgets/lv_roller.c ****         lv_anim_del(roller_scrl, (lv_anim_exec_xcb_t)lv_obj_set_y);
 754:lvgl/src/lv_widgets/lv_roller.c **** #endif
 755:lvgl/src/lv_widgets/lv_roller.c ****     }
 756:lvgl/src/lv_widgets/lv_roller.c ****     else if(sign == LV_SIGNAL_PARENT_SIZE_CHG) {
 757:lvgl/src/lv_widgets/lv_roller.c **** #if LV_USE_ANIMATION
 758:lvgl/src/lv_widgets/lv_roller.c ****         lv_anim_del(lv_page_get_scrollable(roller), (lv_anim_exec_xcb_t)lv_obj_set_y);
 759:lvgl/src/lv_widgets/lv_roller.c **** #endif
 760:lvgl/src/lv_widgets/lv_roller.c ****         refr_position(roller, false);
 761:lvgl/src/lv_widgets/lv_roller.c ****         refr_width(roller);
 762:lvgl/src/lv_widgets/lv_roller.c **** 
 763:lvgl/src/lv_widgets/lv_roller.c ****     }
 764:lvgl/src/lv_widgets/lv_roller.c **** 
 765:lvgl/src/lv_widgets/lv_roller.c ****     /*Position the scrollable according to the new selected option*/
 766:lvgl/src/lv_widgets/lv_roller.c ****     if(id != -1) {
 767:lvgl/src/lv_widgets/lv_roller.c ****         refr_position(roller, LV_ANIM_ON);
 768:lvgl/src/lv_widgets/lv_roller.c ****     }
 769:lvgl/src/lv_widgets/lv_roller.c **** 
 770:lvgl/src/lv_widgets/lv_roller.c ****     return res;
 771:lvgl/src/lv_widgets/lv_roller.c **** }
 772:lvgl/src/lv_widgets/lv_roller.c **** 
 773:lvgl/src/lv_widgets/lv_roller.c **** /**
 774:lvgl/src/lv_widgets/lv_roller.c ****  * Draw a rectangle which has gradient on its top and bottom
 775:lvgl/src/lv_widgets/lv_roller.c ****  * @param roller pointer to a roller object
 776:lvgl/src/lv_widgets/lv_roller.c ****  * @param clip_area pointer to the current mask (from the design function)
 777:lvgl/src/lv_widgets/lv_roller.c ****  */
 778:lvgl/src/lv_widgets/lv_roller.c **** static void draw_bg(lv_obj_t * roller, const lv_area_t * clip_area)
 779:lvgl/src/lv_widgets/lv_roller.c **** {
 381              		.loc 1 779 1 is_stmt 1 view -0
 382              		.cfi_startproc
 383              		@ args = 0, pretend = 0, frame = 96
 384              		@ frame_needed = 0, uses_anonymous_args = 0
 385              		.loc 1 779 1 is_stmt 0 view .LVU111
 386 0000 F0B5     		push	{r4, r5, r6, r7, lr}
 387              	.LCFI5:
 388              		.cfi_def_cfa_offset 20
 389              		.cfi_offset 4, -20
 390              		.cfi_offset 5, -16
 391              		.cfi_offset 6, -12
 392              		.cfi_offset 7, -8
 393              		.cfi_offset 14, -4
 394 0002 99B0     		sub	sp, sp, #100
ARM GAS  D:\Temp\ccqwJTgn.s 			page 28


 395              	.LCFI6:
 396              		.cfi_def_cfa_offset 120
 397 0004 0446     		mov	r4, r0
 398 0006 0D46     		mov	r5, r1
 780:lvgl/src/lv_widgets/lv_roller.c ****     lv_draw_rect_dsc_t bg_dsc;
 399              		.loc 1 780 5 is_stmt 1 view .LVU112
 781:lvgl/src/lv_widgets/lv_roller.c ****     lv_draw_rect_dsc_init(&bg_dsc);
 400              		.loc 1 781 5 view .LVU113
 401 0008 03A8     		add	r0, sp, #12
 402              	.LVL32:
 403              		.loc 1 781 5 is_stmt 0 view .LVU114
 404 000a FFF7FEFF 		bl	lv_draw_rect_dsc_init
 405              	.LVL33:
 782:lvgl/src/lv_widgets/lv_roller.c ****     lv_obj_init_draw_rect_dsc(roller, LV_ROLLER_PART_BG, &bg_dsc);
 406              		.loc 1 782 5 is_stmt 1 view .LVU115
 407 000e 03AA     		add	r2, sp, #12
 408 0010 0021     		movs	r1, #0
 409 0012 2046     		mov	r0, r4
 410 0014 FFF7FEFF 		bl	lv_obj_init_draw_rect_dsc
 411              	.LVL34:
 783:lvgl/src/lv_widgets/lv_roller.c **** 
 784:lvgl/src/lv_widgets/lv_roller.c ****     /*With non-vertical gradient simply draw the background*/
 785:lvgl/src/lv_widgets/lv_roller.c ****     if(bg_dsc.bg_grad_dir == LV_GRAD_DIR_NONE) {
 412              		.loc 1 785 5 view .LVU116
 413              		.loc 1 785 14 is_stmt 0 view .LVU117
 414 0018 9DF81230 		ldrb	r3, [sp, #18]	@ zero_extendqisi2
 415              		.loc 1 785 7 view .LVU118
 416 001c 73B1     		cbz	r3, .L32
 786:lvgl/src/lv_widgets/lv_roller.c ****         lv_draw_rect(&roller->coords, clip_area, &bg_dsc);
 787:lvgl/src/lv_widgets/lv_roller.c ****         return;
 788:lvgl/src/lv_widgets/lv_roller.c ****     }
 789:lvgl/src/lv_widgets/lv_roller.c **** 
 790:lvgl/src/lv_widgets/lv_roller.c ****     /*With vertical gradient mirror it*/
 791:lvgl/src/lv_widgets/lv_roller.c **** 
 792:lvgl/src/lv_widgets/lv_roller.c ****     lv_area_t half_mask;
 417              		.loc 1 792 5 is_stmt 1 view .LVU119
 793:lvgl/src/lv_widgets/lv_roller.c ****     lv_coord_t h = lv_obj_get_height(roller);
 418              		.loc 1 793 5 view .LVU120
 419              		.loc 1 793 20 is_stmt 0 view .LVU121
 420 001e 2046     		mov	r0, r4
 421 0020 FFF7FEFF 		bl	lv_obj_get_height
 422              	.LVL35:
 794:lvgl/src/lv_widgets/lv_roller.c ****     bool union_ok;
 423              		.loc 1 794 5 is_stmt 1 view .LVU122
 795:lvgl/src/lv_widgets/lv_roller.c **** 
 796:lvgl/src/lv_widgets/lv_roller.c ****     lv_area_copy(&half_mask, &roller->coords);
 424              		.loc 1 796 5 view .LVU123
 425              		.loc 1 796 30 is_stmt 0 view .LVU124
 426 0024 04F11006 		add	r6, r4, #16
 427              	.LVL36:
 428              	.LBB110:
 429              	.LBI110:
 430              		.file 4 "d:\\_project\\stm32\\f407\\hack_rf_new\\lvgl\\src\\lv_misc\\lv_area.h"
   1:d:\_project\stm32\f407\hack_rf_new\lvgl\src\lv_misc\lv_area.h **** /**
   2:d:\_project\stm32\f407\hack_rf_new\lvgl\src\lv_misc\lv_area.h ****  * @file lv_area.h
   3:d:\_project\stm32\f407\hack_rf_new\lvgl\src\lv_misc\lv_area.h ****  *
   4:d:\_project\stm32\f407\hack_rf_new\lvgl\src\lv_misc\lv_area.h ****  */
ARM GAS  D:\Temp\ccqwJTgn.s 			page 29


   5:d:\_project\stm32\f407\hack_rf_new\lvgl\src\lv_misc\lv_area.h **** 
   6:d:\_project\stm32\f407\hack_rf_new\lvgl\src\lv_misc\lv_area.h **** #ifndef LV_AREA_H
   7:d:\_project\stm32\f407\hack_rf_new\lvgl\src\lv_misc\lv_area.h **** #define LV_AREA_H
   8:d:\_project\stm32\f407\hack_rf_new\lvgl\src\lv_misc\lv_area.h **** 
   9:d:\_project\stm32\f407\hack_rf_new\lvgl\src\lv_misc\lv_area.h **** #ifdef __cplusplus
  10:d:\_project\stm32\f407\hack_rf_new\lvgl\src\lv_misc\lv_area.h **** extern "C" {
  11:d:\_project\stm32\f407\hack_rf_new\lvgl\src\lv_misc\lv_area.h **** #endif
  12:d:\_project\stm32\f407\hack_rf_new\lvgl\src\lv_misc\lv_area.h **** 
  13:d:\_project\stm32\f407\hack_rf_new\lvgl\src\lv_misc\lv_area.h **** /*********************
  14:d:\_project\stm32\f407\hack_rf_new\lvgl\src\lv_misc\lv_area.h ****  *      INCLUDES
  15:d:\_project\stm32\f407\hack_rf_new\lvgl\src\lv_misc\lv_area.h ****  *********************/
  16:d:\_project\stm32\f407\hack_rf_new\lvgl\src\lv_misc\lv_area.h **** #include "../lv_conf_internal.h"
  17:d:\_project\stm32\f407\hack_rf_new\lvgl\src\lv_misc\lv_area.h **** #include <string.h>
  18:d:\_project\stm32\f407\hack_rf_new\lvgl\src\lv_misc\lv_area.h **** #include <stdbool.h>
  19:d:\_project\stm32\f407\hack_rf_new\lvgl\src\lv_misc\lv_area.h **** #include <stdint.h>
  20:d:\_project\stm32\f407\hack_rf_new\lvgl\src\lv_misc\lv_area.h **** #include "lv_mem.h"
  21:d:\_project\stm32\f407\hack_rf_new\lvgl\src\lv_misc\lv_area.h **** 
  22:d:\_project\stm32\f407\hack_rf_new\lvgl\src\lv_misc\lv_area.h **** /*********************
  23:d:\_project\stm32\f407\hack_rf_new\lvgl\src\lv_misc\lv_area.h ****  *      DEFINES
  24:d:\_project\stm32\f407\hack_rf_new\lvgl\src\lv_misc\lv_area.h ****  *********************/
  25:d:\_project\stm32\f407\hack_rf_new\lvgl\src\lv_misc\lv_area.h **** /*To avoid overflow don't let the max ranges (reduce with 1000) */
  26:d:\_project\stm32\f407\hack_rf_new\lvgl\src\lv_misc\lv_area.h **** #define LV_COORD_MAX ((lv_coord_t)((uint32_t)((uint32_t)1 << (8 * sizeof(lv_coord_t) - 1)) - 1000))
  27:d:\_project\stm32\f407\hack_rf_new\lvgl\src\lv_misc\lv_area.h **** #define LV_COORD_MIN (-LV_COORD_MAX)
  28:d:\_project\stm32\f407\hack_rf_new\lvgl\src\lv_misc\lv_area.h **** 
  29:d:\_project\stm32\f407\hack_rf_new\lvgl\src\lv_misc\lv_area.h **** LV_EXPORT_CONST_INT(LV_COORD_MAX);
  30:d:\_project\stm32\f407\hack_rf_new\lvgl\src\lv_misc\lv_area.h **** LV_EXPORT_CONST_INT(LV_COORD_MIN);
  31:d:\_project\stm32\f407\hack_rf_new\lvgl\src\lv_misc\lv_area.h **** 
  32:d:\_project\stm32\f407\hack_rf_new\lvgl\src\lv_misc\lv_area.h **** /**********************
  33:d:\_project\stm32\f407\hack_rf_new\lvgl\src\lv_misc\lv_area.h ****  *      TYPEDEFS
  34:d:\_project\stm32\f407\hack_rf_new\lvgl\src\lv_misc\lv_area.h ****  **********************/
  35:d:\_project\stm32\f407\hack_rf_new\lvgl\src\lv_misc\lv_area.h **** 
  36:d:\_project\stm32\f407\hack_rf_new\lvgl\src\lv_misc\lv_area.h **** /**
  37:d:\_project\stm32\f407\hack_rf_new\lvgl\src\lv_misc\lv_area.h ****  * Represents a point on the screen.
  38:d:\_project\stm32\f407\hack_rf_new\lvgl\src\lv_misc\lv_area.h ****  */
  39:d:\_project\stm32\f407\hack_rf_new\lvgl\src\lv_misc\lv_area.h **** typedef struct {
  40:d:\_project\stm32\f407\hack_rf_new\lvgl\src\lv_misc\lv_area.h ****     lv_coord_t x;
  41:d:\_project\stm32\f407\hack_rf_new\lvgl\src\lv_misc\lv_area.h ****     lv_coord_t y;
  42:d:\_project\stm32\f407\hack_rf_new\lvgl\src\lv_misc\lv_area.h **** } lv_point_t;
  43:d:\_project\stm32\f407\hack_rf_new\lvgl\src\lv_misc\lv_area.h **** 
  44:d:\_project\stm32\f407\hack_rf_new\lvgl\src\lv_misc\lv_area.h **** /** Represents an area of the screen. */
  45:d:\_project\stm32\f407\hack_rf_new\lvgl\src\lv_misc\lv_area.h **** typedef struct {
  46:d:\_project\stm32\f407\hack_rf_new\lvgl\src\lv_misc\lv_area.h ****     lv_coord_t x1;
  47:d:\_project\stm32\f407\hack_rf_new\lvgl\src\lv_misc\lv_area.h ****     lv_coord_t y1;
  48:d:\_project\stm32\f407\hack_rf_new\lvgl\src\lv_misc\lv_area.h ****     lv_coord_t x2;
  49:d:\_project\stm32\f407\hack_rf_new\lvgl\src\lv_misc\lv_area.h ****     lv_coord_t y2;
  50:d:\_project\stm32\f407\hack_rf_new\lvgl\src\lv_misc\lv_area.h **** } lv_area_t;
  51:d:\_project\stm32\f407\hack_rf_new\lvgl\src\lv_misc\lv_area.h **** 
  52:d:\_project\stm32\f407\hack_rf_new\lvgl\src\lv_misc\lv_area.h **** /** Alignments */
  53:d:\_project\stm32\f407\hack_rf_new\lvgl\src\lv_misc\lv_area.h **** enum {
  54:d:\_project\stm32\f407\hack_rf_new\lvgl\src\lv_misc\lv_area.h ****     LV_ALIGN_CENTER = 0,
  55:d:\_project\stm32\f407\hack_rf_new\lvgl\src\lv_misc\lv_area.h ****     LV_ALIGN_IN_TOP_LEFT,
  56:d:\_project\stm32\f407\hack_rf_new\lvgl\src\lv_misc\lv_area.h ****     LV_ALIGN_IN_TOP_MID,
  57:d:\_project\stm32\f407\hack_rf_new\lvgl\src\lv_misc\lv_area.h ****     LV_ALIGN_IN_TOP_RIGHT,
  58:d:\_project\stm32\f407\hack_rf_new\lvgl\src\lv_misc\lv_area.h ****     LV_ALIGN_IN_BOTTOM_LEFT,
  59:d:\_project\stm32\f407\hack_rf_new\lvgl\src\lv_misc\lv_area.h ****     LV_ALIGN_IN_BOTTOM_MID,
  60:d:\_project\stm32\f407\hack_rf_new\lvgl\src\lv_misc\lv_area.h ****     LV_ALIGN_IN_BOTTOM_RIGHT,
  61:d:\_project\stm32\f407\hack_rf_new\lvgl\src\lv_misc\lv_area.h ****     LV_ALIGN_IN_LEFT_MID,
ARM GAS  D:\Temp\ccqwJTgn.s 			page 30


  62:d:\_project\stm32\f407\hack_rf_new\lvgl\src\lv_misc\lv_area.h ****     LV_ALIGN_IN_RIGHT_MID,
  63:d:\_project\stm32\f407\hack_rf_new\lvgl\src\lv_misc\lv_area.h ****     LV_ALIGN_OUT_TOP_LEFT,
  64:d:\_project\stm32\f407\hack_rf_new\lvgl\src\lv_misc\lv_area.h ****     LV_ALIGN_OUT_TOP_MID,
  65:d:\_project\stm32\f407\hack_rf_new\lvgl\src\lv_misc\lv_area.h ****     LV_ALIGN_OUT_TOP_RIGHT,
  66:d:\_project\stm32\f407\hack_rf_new\lvgl\src\lv_misc\lv_area.h ****     LV_ALIGN_OUT_BOTTOM_LEFT,
  67:d:\_project\stm32\f407\hack_rf_new\lvgl\src\lv_misc\lv_area.h ****     LV_ALIGN_OUT_BOTTOM_MID,
  68:d:\_project\stm32\f407\hack_rf_new\lvgl\src\lv_misc\lv_area.h ****     LV_ALIGN_OUT_BOTTOM_RIGHT,
  69:d:\_project\stm32\f407\hack_rf_new\lvgl\src\lv_misc\lv_area.h ****     LV_ALIGN_OUT_LEFT_TOP,
  70:d:\_project\stm32\f407\hack_rf_new\lvgl\src\lv_misc\lv_area.h ****     LV_ALIGN_OUT_LEFT_MID,
  71:d:\_project\stm32\f407\hack_rf_new\lvgl\src\lv_misc\lv_area.h ****     LV_ALIGN_OUT_LEFT_BOTTOM,
  72:d:\_project\stm32\f407\hack_rf_new\lvgl\src\lv_misc\lv_area.h ****     LV_ALIGN_OUT_RIGHT_TOP,
  73:d:\_project\stm32\f407\hack_rf_new\lvgl\src\lv_misc\lv_area.h ****     LV_ALIGN_OUT_RIGHT_MID,
  74:d:\_project\stm32\f407\hack_rf_new\lvgl\src\lv_misc\lv_area.h ****     LV_ALIGN_OUT_RIGHT_BOTTOM,
  75:d:\_project\stm32\f407\hack_rf_new\lvgl\src\lv_misc\lv_area.h **** };
  76:d:\_project\stm32\f407\hack_rf_new\lvgl\src\lv_misc\lv_area.h **** typedef uint8_t lv_align_t;
  77:d:\_project\stm32\f407\hack_rf_new\lvgl\src\lv_misc\lv_area.h **** 
  78:d:\_project\stm32\f407\hack_rf_new\lvgl\src\lv_misc\lv_area.h **** /**********************
  79:d:\_project\stm32\f407\hack_rf_new\lvgl\src\lv_misc\lv_area.h ****  * GLOBAL PROTOTYPES
  80:d:\_project\stm32\f407\hack_rf_new\lvgl\src\lv_misc\lv_area.h ****  **********************/
  81:d:\_project\stm32\f407\hack_rf_new\lvgl\src\lv_misc\lv_area.h **** 
  82:d:\_project\stm32\f407\hack_rf_new\lvgl\src\lv_misc\lv_area.h **** /**
  83:d:\_project\stm32\f407\hack_rf_new\lvgl\src\lv_misc\lv_area.h ****  * Initialize an area
  84:d:\_project\stm32\f407\hack_rf_new\lvgl\src\lv_misc\lv_area.h ****  * @param area_p pointer to an area
  85:d:\_project\stm32\f407\hack_rf_new\lvgl\src\lv_misc\lv_area.h ****  * @param x1 left coordinate of the area
  86:d:\_project\stm32\f407\hack_rf_new\lvgl\src\lv_misc\lv_area.h ****  * @param y1 top coordinate of the area
  87:d:\_project\stm32\f407\hack_rf_new\lvgl\src\lv_misc\lv_area.h ****  * @param x2 right coordinate of the area
  88:d:\_project\stm32\f407\hack_rf_new\lvgl\src\lv_misc\lv_area.h ****  * @param y2 bottom coordinate of the area
  89:d:\_project\stm32\f407\hack_rf_new\lvgl\src\lv_misc\lv_area.h ****  */
  90:d:\_project\stm32\f407\hack_rf_new\lvgl\src\lv_misc\lv_area.h **** void lv_area_set(lv_area_t * area_p, lv_coord_t x1, lv_coord_t y1, lv_coord_t x2, lv_coord_t y2);
  91:d:\_project\stm32\f407\hack_rf_new\lvgl\src\lv_misc\lv_area.h **** 
  92:d:\_project\stm32\f407\hack_rf_new\lvgl\src\lv_misc\lv_area.h **** /**
  93:d:\_project\stm32\f407\hack_rf_new\lvgl\src\lv_misc\lv_area.h ****  * Copy an area
  94:d:\_project\stm32\f407\hack_rf_new\lvgl\src\lv_misc\lv_area.h ****  * @param dest pointer to the destination area
  95:d:\_project\stm32\f407\hack_rf_new\lvgl\src\lv_misc\lv_area.h ****  * @param src pointer to the source area
  96:d:\_project\stm32\f407\hack_rf_new\lvgl\src\lv_misc\lv_area.h ****  */
  97:d:\_project\stm32\f407\hack_rf_new\lvgl\src\lv_misc\lv_area.h **** inline static void lv_area_copy(lv_area_t * dest, const lv_area_t * src)
 431              		.loc 4 97 20 is_stmt 1 view .LVU125
 432              	.LBE110:
  98:d:\_project\stm32\f407\hack_rf_new\lvgl\src\lv_misc\lv_area.h **** {
  99:d:\_project\stm32\f407\hack_rf_new\lvgl\src\lv_misc\lv_area.h ****     _lv_memcpy_small(dest, src, sizeof(lv_area_t));
 433              		.loc 4 99 5 view .LVU126
 434              	.LBB117:
 435              	.LBB111:
 436              	.LBI111:
 437              		.file 5 "d:\\_project\\stm32\\f407\\hack_rf_new\\lvgl\\src\\lv_misc\\lv_mem.h"
   1:d:\_project\stm32\f407\hack_rf_new\lvgl\src\lv_misc\lv_mem.h **** /**
   2:d:\_project\stm32\f407\hack_rf_new\lvgl\src\lv_misc\lv_mem.h ****  * @file lv_mem.h
   3:d:\_project\stm32\f407\hack_rf_new\lvgl\src\lv_misc\lv_mem.h ****  *
   4:d:\_project\stm32\f407\hack_rf_new\lvgl\src\lv_misc\lv_mem.h ****  */
   5:d:\_project\stm32\f407\hack_rf_new\lvgl\src\lv_misc\lv_mem.h **** 
   6:d:\_project\stm32\f407\hack_rf_new\lvgl\src\lv_misc\lv_mem.h **** #ifndef LV_MEM_H
   7:d:\_project\stm32\f407\hack_rf_new\lvgl\src\lv_misc\lv_mem.h **** #define LV_MEM_H
   8:d:\_project\stm32\f407\hack_rf_new\lvgl\src\lv_misc\lv_mem.h **** 
   9:d:\_project\stm32\f407\hack_rf_new\lvgl\src\lv_misc\lv_mem.h **** #ifdef __cplusplus
  10:d:\_project\stm32\f407\hack_rf_new\lvgl\src\lv_misc\lv_mem.h **** extern "C" {
  11:d:\_project\stm32\f407\hack_rf_new\lvgl\src\lv_misc\lv_mem.h **** #endif
  12:d:\_project\stm32\f407\hack_rf_new\lvgl\src\lv_misc\lv_mem.h **** 
ARM GAS  D:\Temp\ccqwJTgn.s 			page 31


  13:d:\_project\stm32\f407\hack_rf_new\lvgl\src\lv_misc\lv_mem.h **** /*********************
  14:d:\_project\stm32\f407\hack_rf_new\lvgl\src\lv_misc\lv_mem.h ****  *      INCLUDES
  15:d:\_project\stm32\f407\hack_rf_new\lvgl\src\lv_misc\lv_mem.h ****  *********************/
  16:d:\_project\stm32\f407\hack_rf_new\lvgl\src\lv_misc\lv_mem.h **** #include "../lv_conf_internal.h"
  17:d:\_project\stm32\f407\hack_rf_new\lvgl\src\lv_misc\lv_mem.h **** 
  18:d:\_project\stm32\f407\hack_rf_new\lvgl\src\lv_misc\lv_mem.h **** #include <stdint.h>
  19:d:\_project\stm32\f407\hack_rf_new\lvgl\src\lv_misc\lv_mem.h **** #include <stddef.h>
  20:d:\_project\stm32\f407\hack_rf_new\lvgl\src\lv_misc\lv_mem.h **** #include "lv_log.h"
  21:d:\_project\stm32\f407\hack_rf_new\lvgl\src\lv_misc\lv_mem.h **** #include "lv_types.h"
  22:d:\_project\stm32\f407\hack_rf_new\lvgl\src\lv_misc\lv_mem.h **** 
  23:d:\_project\stm32\f407\hack_rf_new\lvgl\src\lv_misc\lv_mem.h **** #if LV_MEMCPY_MEMSET_STD
  24:d:\_project\stm32\f407\hack_rf_new\lvgl\src\lv_misc\lv_mem.h **** #include <string.h>
  25:d:\_project\stm32\f407\hack_rf_new\lvgl\src\lv_misc\lv_mem.h **** #endif
  26:d:\_project\stm32\f407\hack_rf_new\lvgl\src\lv_misc\lv_mem.h **** 
  27:d:\_project\stm32\f407\hack_rf_new\lvgl\src\lv_misc\lv_mem.h **** /*********************
  28:d:\_project\stm32\f407\hack_rf_new\lvgl\src\lv_misc\lv_mem.h ****  *      DEFINES
  29:d:\_project\stm32\f407\hack_rf_new\lvgl\src\lv_misc\lv_mem.h ****  *********************/
  30:d:\_project\stm32\f407\hack_rf_new\lvgl\src\lv_misc\lv_mem.h **** 
  31:d:\_project\stm32\f407\hack_rf_new\lvgl\src\lv_misc\lv_mem.h **** #ifndef LV_MEM_BUF_MAX_NUM
  32:d:\_project\stm32\f407\hack_rf_new\lvgl\src\lv_misc\lv_mem.h **** #define LV_MEM_BUF_MAX_NUM    16
  33:d:\_project\stm32\f407\hack_rf_new\lvgl\src\lv_misc\lv_mem.h **** #endif
  34:d:\_project\stm32\f407\hack_rf_new\lvgl\src\lv_misc\lv_mem.h **** 
  35:d:\_project\stm32\f407\hack_rf_new\lvgl\src\lv_misc\lv_mem.h **** /**********************
  36:d:\_project\stm32\f407\hack_rf_new\lvgl\src\lv_misc\lv_mem.h ****  *      TYPEDEFS
  37:d:\_project\stm32\f407\hack_rf_new\lvgl\src\lv_misc\lv_mem.h ****  **********************/
  38:d:\_project\stm32\f407\hack_rf_new\lvgl\src\lv_misc\lv_mem.h **** 
  39:d:\_project\stm32\f407\hack_rf_new\lvgl\src\lv_misc\lv_mem.h **** /**
  40:d:\_project\stm32\f407\hack_rf_new\lvgl\src\lv_misc\lv_mem.h ****  * Heap information structure.
  41:d:\_project\stm32\f407\hack_rf_new\lvgl\src\lv_misc\lv_mem.h ****  */
  42:d:\_project\stm32\f407\hack_rf_new\lvgl\src\lv_misc\lv_mem.h **** typedef struct {
  43:d:\_project\stm32\f407\hack_rf_new\lvgl\src\lv_misc\lv_mem.h ****     uint32_t total_size; /**< Total heap size */
  44:d:\_project\stm32\f407\hack_rf_new\lvgl\src\lv_misc\lv_mem.h ****     uint32_t free_cnt;
  45:d:\_project\stm32\f407\hack_rf_new\lvgl\src\lv_misc\lv_mem.h ****     uint32_t free_size; /**< Size of available memory */
  46:d:\_project\stm32\f407\hack_rf_new\lvgl\src\lv_misc\lv_mem.h ****     uint32_t free_biggest_size;
  47:d:\_project\stm32\f407\hack_rf_new\lvgl\src\lv_misc\lv_mem.h ****     uint32_t used_cnt;
  48:d:\_project\stm32\f407\hack_rf_new\lvgl\src\lv_misc\lv_mem.h ****     uint32_t max_used; /**< Max size of Heap memory used */
  49:d:\_project\stm32\f407\hack_rf_new\lvgl\src\lv_misc\lv_mem.h ****     uint8_t used_pct; /**< Percentage used */
  50:d:\_project\stm32\f407\hack_rf_new\lvgl\src\lv_misc\lv_mem.h ****     uint8_t frag_pct; /**< Amount of fragmentation */
  51:d:\_project\stm32\f407\hack_rf_new\lvgl\src\lv_misc\lv_mem.h **** } lv_mem_monitor_t;
  52:d:\_project\stm32\f407\hack_rf_new\lvgl\src\lv_misc\lv_mem.h **** 
  53:d:\_project\stm32\f407\hack_rf_new\lvgl\src\lv_misc\lv_mem.h **** typedef struct {
  54:d:\_project\stm32\f407\hack_rf_new\lvgl\src\lv_misc\lv_mem.h ****     void * p;
  55:d:\_project\stm32\f407\hack_rf_new\lvgl\src\lv_misc\lv_mem.h ****     uint16_t size;
  56:d:\_project\stm32\f407\hack_rf_new\lvgl\src\lv_misc\lv_mem.h ****     uint8_t used    : 1;
  57:d:\_project\stm32\f407\hack_rf_new\lvgl\src\lv_misc\lv_mem.h **** } lv_mem_buf_t;
  58:d:\_project\stm32\f407\hack_rf_new\lvgl\src\lv_misc\lv_mem.h **** 
  59:d:\_project\stm32\f407\hack_rf_new\lvgl\src\lv_misc\lv_mem.h **** typedef lv_mem_buf_t lv_mem_buf_arr_t[LV_MEM_BUF_MAX_NUM];
  60:d:\_project\stm32\f407\hack_rf_new\lvgl\src\lv_misc\lv_mem.h **** extern lv_mem_buf_arr_t _lv_mem_buf;
  61:d:\_project\stm32\f407\hack_rf_new\lvgl\src\lv_misc\lv_mem.h **** 
  62:d:\_project\stm32\f407\hack_rf_new\lvgl\src\lv_misc\lv_mem.h **** /**********************
  63:d:\_project\stm32\f407\hack_rf_new\lvgl\src\lv_misc\lv_mem.h ****  * GLOBAL PROTOTYPES
  64:d:\_project\stm32\f407\hack_rf_new\lvgl\src\lv_misc\lv_mem.h ****  **********************/
  65:d:\_project\stm32\f407\hack_rf_new\lvgl\src\lv_misc\lv_mem.h **** 
  66:d:\_project\stm32\f407\hack_rf_new\lvgl\src\lv_misc\lv_mem.h **** /**
  67:d:\_project\stm32\f407\hack_rf_new\lvgl\src\lv_misc\lv_mem.h ****  * Initialize the dyn_mem module (work memory and other variables)
  68:d:\_project\stm32\f407\hack_rf_new\lvgl\src\lv_misc\lv_mem.h ****  */
  69:d:\_project\stm32\f407\hack_rf_new\lvgl\src\lv_misc\lv_mem.h **** void _lv_mem_init(void);
ARM GAS  D:\Temp\ccqwJTgn.s 			page 32


  70:d:\_project\stm32\f407\hack_rf_new\lvgl\src\lv_misc\lv_mem.h **** 
  71:d:\_project\stm32\f407\hack_rf_new\lvgl\src\lv_misc\lv_mem.h **** /**
  72:d:\_project\stm32\f407\hack_rf_new\lvgl\src\lv_misc\lv_mem.h ****  * Clean up the memory buffer which frees all the allocated memories.
  73:d:\_project\stm32\f407\hack_rf_new\lvgl\src\lv_misc\lv_mem.h ****  * @note It work only if `LV_MEM_CUSTOM == 0`
  74:d:\_project\stm32\f407\hack_rf_new\lvgl\src\lv_misc\lv_mem.h ****  */
  75:d:\_project\stm32\f407\hack_rf_new\lvgl\src\lv_misc\lv_mem.h **** void _lv_mem_deinit(void);
  76:d:\_project\stm32\f407\hack_rf_new\lvgl\src\lv_misc\lv_mem.h **** 
  77:d:\_project\stm32\f407\hack_rf_new\lvgl\src\lv_misc\lv_mem.h **** /**
  78:d:\_project\stm32\f407\hack_rf_new\lvgl\src\lv_misc\lv_mem.h ****  * Allocate a memory dynamically
  79:d:\_project\stm32\f407\hack_rf_new\lvgl\src\lv_misc\lv_mem.h ****  * @param size size of the memory to allocate in bytes
  80:d:\_project\stm32\f407\hack_rf_new\lvgl\src\lv_misc\lv_mem.h ****  * @return pointer to the allocated memory
  81:d:\_project\stm32\f407\hack_rf_new\lvgl\src\lv_misc\lv_mem.h ****  */
  82:d:\_project\stm32\f407\hack_rf_new\lvgl\src\lv_misc\lv_mem.h **** void * lv_mem_alloc(size_t size);
  83:d:\_project\stm32\f407\hack_rf_new\lvgl\src\lv_misc\lv_mem.h **** 
  84:d:\_project\stm32\f407\hack_rf_new\lvgl\src\lv_misc\lv_mem.h **** /**
  85:d:\_project\stm32\f407\hack_rf_new\lvgl\src\lv_misc\lv_mem.h ****  * Free an allocated data
  86:d:\_project\stm32\f407\hack_rf_new\lvgl\src\lv_misc\lv_mem.h ****  * @param data pointer to an allocated memory
  87:d:\_project\stm32\f407\hack_rf_new\lvgl\src\lv_misc\lv_mem.h ****  */
  88:d:\_project\stm32\f407\hack_rf_new\lvgl\src\lv_misc\lv_mem.h **** void lv_mem_free(const void * data);
  89:d:\_project\stm32\f407\hack_rf_new\lvgl\src\lv_misc\lv_mem.h **** 
  90:d:\_project\stm32\f407\hack_rf_new\lvgl\src\lv_misc\lv_mem.h **** /**
  91:d:\_project\stm32\f407\hack_rf_new\lvgl\src\lv_misc\lv_mem.h ****  * Reallocate a memory with a new size. The old content will be kept.
  92:d:\_project\stm32\f407\hack_rf_new\lvgl\src\lv_misc\lv_mem.h ****  * @param data pointer to an allocated memory.
  93:d:\_project\stm32\f407\hack_rf_new\lvgl\src\lv_misc\lv_mem.h ****  * Its content will be copied to the new memory block and freed
  94:d:\_project\stm32\f407\hack_rf_new\lvgl\src\lv_misc\lv_mem.h ****  * @param new_size the desired new size in byte
  95:d:\_project\stm32\f407\hack_rf_new\lvgl\src\lv_misc\lv_mem.h ****  * @return pointer to the new memory
  96:d:\_project\stm32\f407\hack_rf_new\lvgl\src\lv_misc\lv_mem.h ****  */
  97:d:\_project\stm32\f407\hack_rf_new\lvgl\src\lv_misc\lv_mem.h **** void * lv_mem_realloc(void * data_p, size_t new_size);
  98:d:\_project\stm32\f407\hack_rf_new\lvgl\src\lv_misc\lv_mem.h **** 
  99:d:\_project\stm32\f407\hack_rf_new\lvgl\src\lv_misc\lv_mem.h **** /**
 100:d:\_project\stm32\f407\hack_rf_new\lvgl\src\lv_misc\lv_mem.h ****  * Join the adjacent free memory blocks
 101:d:\_project\stm32\f407\hack_rf_new\lvgl\src\lv_misc\lv_mem.h ****  */
 102:d:\_project\stm32\f407\hack_rf_new\lvgl\src\lv_misc\lv_mem.h **** void lv_mem_defrag(void);
 103:d:\_project\stm32\f407\hack_rf_new\lvgl\src\lv_misc\lv_mem.h **** 
 104:d:\_project\stm32\f407\hack_rf_new\lvgl\src\lv_misc\lv_mem.h **** /**
 105:d:\_project\stm32\f407\hack_rf_new\lvgl\src\lv_misc\lv_mem.h ****  *
 106:d:\_project\stm32\f407\hack_rf_new\lvgl\src\lv_misc\lv_mem.h ****  * @return
 107:d:\_project\stm32\f407\hack_rf_new\lvgl\src\lv_misc\lv_mem.h ****  */
 108:d:\_project\stm32\f407\hack_rf_new\lvgl\src\lv_misc\lv_mem.h **** lv_res_t lv_mem_test(void);
 109:d:\_project\stm32\f407\hack_rf_new\lvgl\src\lv_misc\lv_mem.h **** 
 110:d:\_project\stm32\f407\hack_rf_new\lvgl\src\lv_misc\lv_mem.h **** /**
 111:d:\_project\stm32\f407\hack_rf_new\lvgl\src\lv_misc\lv_mem.h ****  * Give information about the work memory of dynamic allocation
 112:d:\_project\stm32\f407\hack_rf_new\lvgl\src\lv_misc\lv_mem.h ****  * @param mon_p pointer to a dm_mon_p variable,
 113:d:\_project\stm32\f407\hack_rf_new\lvgl\src\lv_misc\lv_mem.h ****  *              the result of the analysis will be stored here
 114:d:\_project\stm32\f407\hack_rf_new\lvgl\src\lv_misc\lv_mem.h ****  */
 115:d:\_project\stm32\f407\hack_rf_new\lvgl\src\lv_misc\lv_mem.h **** void lv_mem_monitor(lv_mem_monitor_t * mon_p);
 116:d:\_project\stm32\f407\hack_rf_new\lvgl\src\lv_misc\lv_mem.h **** 
 117:d:\_project\stm32\f407\hack_rf_new\lvgl\src\lv_misc\lv_mem.h **** /**
 118:d:\_project\stm32\f407\hack_rf_new\lvgl\src\lv_misc\lv_mem.h ****  * Give the size of an allocated memory
 119:d:\_project\stm32\f407\hack_rf_new\lvgl\src\lv_misc\lv_mem.h ****  * @param data pointer to an allocated memory
 120:d:\_project\stm32\f407\hack_rf_new\lvgl\src\lv_misc\lv_mem.h ****  * @return the size of data memory in bytes
 121:d:\_project\stm32\f407\hack_rf_new\lvgl\src\lv_misc\lv_mem.h ****  */
 122:d:\_project\stm32\f407\hack_rf_new\lvgl\src\lv_misc\lv_mem.h **** uint32_t _lv_mem_get_size(const void * data);
 123:d:\_project\stm32\f407\hack_rf_new\lvgl\src\lv_misc\lv_mem.h **** 
 124:d:\_project\stm32\f407\hack_rf_new\lvgl\src\lv_misc\lv_mem.h **** /**
 125:d:\_project\stm32\f407\hack_rf_new\lvgl\src\lv_misc\lv_mem.h ****  * Get a temporal buffer with the given size.
 126:d:\_project\stm32\f407\hack_rf_new\lvgl\src\lv_misc\lv_mem.h ****  * @param size the required size
ARM GAS  D:\Temp\ccqwJTgn.s 			page 33


 127:d:\_project\stm32\f407\hack_rf_new\lvgl\src\lv_misc\lv_mem.h ****  */
 128:d:\_project\stm32\f407\hack_rf_new\lvgl\src\lv_misc\lv_mem.h **** void * _lv_mem_buf_get(uint32_t size);
 129:d:\_project\stm32\f407\hack_rf_new\lvgl\src\lv_misc\lv_mem.h **** 
 130:d:\_project\stm32\f407\hack_rf_new\lvgl\src\lv_misc\lv_mem.h **** /**
 131:d:\_project\stm32\f407\hack_rf_new\lvgl\src\lv_misc\lv_mem.h ****  * Release a memory buffer
 132:d:\_project\stm32\f407\hack_rf_new\lvgl\src\lv_misc\lv_mem.h ****  * @param p buffer to release
 133:d:\_project\stm32\f407\hack_rf_new\lvgl\src\lv_misc\lv_mem.h ****  */
 134:d:\_project\stm32\f407\hack_rf_new\lvgl\src\lv_misc\lv_mem.h **** void _lv_mem_buf_release(void * p);
 135:d:\_project\stm32\f407\hack_rf_new\lvgl\src\lv_misc\lv_mem.h **** 
 136:d:\_project\stm32\f407\hack_rf_new\lvgl\src\lv_misc\lv_mem.h **** /**
 137:d:\_project\stm32\f407\hack_rf_new\lvgl\src\lv_misc\lv_mem.h ****  * Free all memory buffers
 138:d:\_project\stm32\f407\hack_rf_new\lvgl\src\lv_misc\lv_mem.h ****  */
 139:d:\_project\stm32\f407\hack_rf_new\lvgl\src\lv_misc\lv_mem.h **** void _lv_mem_buf_free_all(void);
 140:d:\_project\stm32\f407\hack_rf_new\lvgl\src\lv_misc\lv_mem.h **** 
 141:d:\_project\stm32\f407\hack_rf_new\lvgl\src\lv_misc\lv_mem.h **** //! @cond Doxygen_Suppress
 142:d:\_project\stm32\f407\hack_rf_new\lvgl\src\lv_misc\lv_mem.h **** 
 143:d:\_project\stm32\f407\hack_rf_new\lvgl\src\lv_misc\lv_mem.h **** #if LV_MEMCPY_MEMSET_STD
 144:d:\_project\stm32\f407\hack_rf_new\lvgl\src\lv_misc\lv_mem.h **** 
 145:d:\_project\stm32\f407\hack_rf_new\lvgl\src\lv_misc\lv_mem.h **** /**
 146:d:\_project\stm32\f407\hack_rf_new\lvgl\src\lv_misc\lv_mem.h ****  * Wrapper for the standard memcpy
 147:d:\_project\stm32\f407\hack_rf_new\lvgl\src\lv_misc\lv_mem.h ****  * @param dst pointer to the destination buffer
 148:d:\_project\stm32\f407\hack_rf_new\lvgl\src\lv_misc\lv_mem.h ****  * @param src pointer to the source buffer
 149:d:\_project\stm32\f407\hack_rf_new\lvgl\src\lv_misc\lv_mem.h ****  * @param len number of byte to copy
 150:d:\_project\stm32\f407\hack_rf_new\lvgl\src\lv_misc\lv_mem.h ****  */
 151:d:\_project\stm32\f407\hack_rf_new\lvgl\src\lv_misc\lv_mem.h **** static inline void * _lv_memcpy(void * dst, const void * src, size_t len)
 152:d:\_project\stm32\f407\hack_rf_new\lvgl\src\lv_misc\lv_mem.h **** {
 153:d:\_project\stm32\f407\hack_rf_new\lvgl\src\lv_misc\lv_mem.h ****     return memcpy(dst, src, len);
 154:d:\_project\stm32\f407\hack_rf_new\lvgl\src\lv_misc\lv_mem.h **** }
 155:d:\_project\stm32\f407\hack_rf_new\lvgl\src\lv_misc\lv_mem.h **** 
 156:d:\_project\stm32\f407\hack_rf_new\lvgl\src\lv_misc\lv_mem.h **** /**
 157:d:\_project\stm32\f407\hack_rf_new\lvgl\src\lv_misc\lv_mem.h ****  * Wrapper for the standard memcpy
 158:d:\_project\stm32\f407\hack_rf_new\lvgl\src\lv_misc\lv_mem.h ****  * @param dst pointer to the destination buffer
 159:d:\_project\stm32\f407\hack_rf_new\lvgl\src\lv_misc\lv_mem.h ****  * @param src pointer to the source buffer
 160:d:\_project\stm32\f407\hack_rf_new\lvgl\src\lv_misc\lv_mem.h ****  * @param len number of byte to copy
 161:d:\_project\stm32\f407\hack_rf_new\lvgl\src\lv_misc\lv_mem.h ****  */
 162:d:\_project\stm32\f407\hack_rf_new\lvgl\src\lv_misc\lv_mem.h **** static inline void * _lv_memcpy_small(void * dst, const void * src, size_t len)
 163:d:\_project\stm32\f407\hack_rf_new\lvgl\src\lv_misc\lv_mem.h **** {
 164:d:\_project\stm32\f407\hack_rf_new\lvgl\src\lv_misc\lv_mem.h ****     return memcpy(dst, src, len);
 165:d:\_project\stm32\f407\hack_rf_new\lvgl\src\lv_misc\lv_mem.h **** }
 166:d:\_project\stm32\f407\hack_rf_new\lvgl\src\lv_misc\lv_mem.h **** 
 167:d:\_project\stm32\f407\hack_rf_new\lvgl\src\lv_misc\lv_mem.h **** /**
 168:d:\_project\stm32\f407\hack_rf_new\lvgl\src\lv_misc\lv_mem.h ****  * Wrapper for the standard memset
 169:d:\_project\stm32\f407\hack_rf_new\lvgl\src\lv_misc\lv_mem.h ****  * @param dst pointer to the destination buffer
 170:d:\_project\stm32\f407\hack_rf_new\lvgl\src\lv_misc\lv_mem.h ****  * @param v value to set [0..255]
 171:d:\_project\stm32\f407\hack_rf_new\lvgl\src\lv_misc\lv_mem.h ****  * @param len number of byte to set
 172:d:\_project\stm32\f407\hack_rf_new\lvgl\src\lv_misc\lv_mem.h ****  */
 173:d:\_project\stm32\f407\hack_rf_new\lvgl\src\lv_misc\lv_mem.h **** static inline void _lv_memset(void * dst, uint8_t v, size_t len)
 174:d:\_project\stm32\f407\hack_rf_new\lvgl\src\lv_misc\lv_mem.h **** {
 175:d:\_project\stm32\f407\hack_rf_new\lvgl\src\lv_misc\lv_mem.h ****     memset(dst, v, len);
 176:d:\_project\stm32\f407\hack_rf_new\lvgl\src\lv_misc\lv_mem.h **** }
 177:d:\_project\stm32\f407\hack_rf_new\lvgl\src\lv_misc\lv_mem.h **** 
 178:d:\_project\stm32\f407\hack_rf_new\lvgl\src\lv_misc\lv_mem.h **** /**
 179:d:\_project\stm32\f407\hack_rf_new\lvgl\src\lv_misc\lv_mem.h ****  * Wrapper for the standard memset with fixed 0x00 value
 180:d:\_project\stm32\f407\hack_rf_new\lvgl\src\lv_misc\lv_mem.h ****  * @param dst pointer to the destination buffer
 181:d:\_project\stm32\f407\hack_rf_new\lvgl\src\lv_misc\lv_mem.h ****  * @param len number of byte to set
 182:d:\_project\stm32\f407\hack_rf_new\lvgl\src\lv_misc\lv_mem.h ****  */
 183:d:\_project\stm32\f407\hack_rf_new\lvgl\src\lv_misc\lv_mem.h **** static inline void _lv_memset_00(void * dst, size_t len)
ARM GAS  D:\Temp\ccqwJTgn.s 			page 34


 184:d:\_project\stm32\f407\hack_rf_new\lvgl\src\lv_misc\lv_mem.h **** {
 185:d:\_project\stm32\f407\hack_rf_new\lvgl\src\lv_misc\lv_mem.h ****     memset(dst, 0x00, len);
 186:d:\_project\stm32\f407\hack_rf_new\lvgl\src\lv_misc\lv_mem.h **** }
 187:d:\_project\stm32\f407\hack_rf_new\lvgl\src\lv_misc\lv_mem.h **** 
 188:d:\_project\stm32\f407\hack_rf_new\lvgl\src\lv_misc\lv_mem.h **** /**
 189:d:\_project\stm32\f407\hack_rf_new\lvgl\src\lv_misc\lv_mem.h ****  * Wrapper for the standard memset with fixed 0xFF value
 190:d:\_project\stm32\f407\hack_rf_new\lvgl\src\lv_misc\lv_mem.h ****  * @param dst pointer to the destination buffer
 191:d:\_project\stm32\f407\hack_rf_new\lvgl\src\lv_misc\lv_mem.h ****  * @param len number of byte to set
 192:d:\_project\stm32\f407\hack_rf_new\lvgl\src\lv_misc\lv_mem.h ****  */
 193:d:\_project\stm32\f407\hack_rf_new\lvgl\src\lv_misc\lv_mem.h **** static inline void _lv_memset_ff(void * dst, size_t len)
 194:d:\_project\stm32\f407\hack_rf_new\lvgl\src\lv_misc\lv_mem.h **** {
 195:d:\_project\stm32\f407\hack_rf_new\lvgl\src\lv_misc\lv_mem.h ****     memset(dst, 0xFF, len);
 196:d:\_project\stm32\f407\hack_rf_new\lvgl\src\lv_misc\lv_mem.h **** }
 197:d:\_project\stm32\f407\hack_rf_new\lvgl\src\lv_misc\lv_mem.h **** 
 198:d:\_project\stm32\f407\hack_rf_new\lvgl\src\lv_misc\lv_mem.h **** #else
 199:d:\_project\stm32\f407\hack_rf_new\lvgl\src\lv_misc\lv_mem.h **** /**
 200:d:\_project\stm32\f407\hack_rf_new\lvgl\src\lv_misc\lv_mem.h ****  * Same as `memcpy` but optimized for 4 byte operation.
 201:d:\_project\stm32\f407\hack_rf_new\lvgl\src\lv_misc\lv_mem.h ****  * @param dst pointer to the destination buffer
 202:d:\_project\stm32\f407\hack_rf_new\lvgl\src\lv_misc\lv_mem.h ****  * @param src pointer to the source buffer
 203:d:\_project\stm32\f407\hack_rf_new\lvgl\src\lv_misc\lv_mem.h ****  * @param len number of byte to copy
 204:d:\_project\stm32\f407\hack_rf_new\lvgl\src\lv_misc\lv_mem.h ****  */
 205:d:\_project\stm32\f407\hack_rf_new\lvgl\src\lv_misc\lv_mem.h **** LV_ATTRIBUTE_FAST_MEM void * _lv_memcpy(void * dst, const void * src, size_t len);
 206:d:\_project\stm32\f407\hack_rf_new\lvgl\src\lv_misc\lv_mem.h **** 
 207:d:\_project\stm32\f407\hack_rf_new\lvgl\src\lv_misc\lv_mem.h **** /**
 208:d:\_project\stm32\f407\hack_rf_new\lvgl\src\lv_misc\lv_mem.h ****  * Same as `memcpy` but optimized to copy only a few bytes.
 209:d:\_project\stm32\f407\hack_rf_new\lvgl\src\lv_misc\lv_mem.h ****  * @param dst pointer to the destination buffer
 210:d:\_project\stm32\f407\hack_rf_new\lvgl\src\lv_misc\lv_mem.h ****  * @param src pointer to the source buffer
 211:d:\_project\stm32\f407\hack_rf_new\lvgl\src\lv_misc\lv_mem.h ****  * @param len number of byte to copy
 212:d:\_project\stm32\f407\hack_rf_new\lvgl\src\lv_misc\lv_mem.h ****  */
 213:d:\_project\stm32\f407\hack_rf_new\lvgl\src\lv_misc\lv_mem.h **** LV_ATTRIBUTE_FAST_MEM static inline void * _lv_memcpy_small(void * dst, const void * src, size_t le
 438              		.loc 5 213 44 view .LVU127
 439              	.LBB112:
 214:d:\_project\stm32\f407\hack_rf_new\lvgl\src\lv_misc\lv_mem.h **** {
 215:d:\_project\stm32\f407\hack_rf_new\lvgl\src\lv_misc\lv_mem.h ****     uint8_t * d8 = (uint8_t *)dst;
 440              		.loc 5 215 5 view .LVU128
 216:d:\_project\stm32\f407\hack_rf_new\lvgl\src\lv_misc\lv_mem.h ****     const uint8_t * s8 = (const uint8_t *)src;
 441              		.loc 5 216 5 view .LVU129
 217:d:\_project\stm32\f407\hack_rf_new\lvgl\src\lv_misc\lv_mem.h **** 
 218:d:\_project\stm32\f407\hack_rf_new\lvgl\src\lv_misc\lv_mem.h ****     while(len) {
 442              		.loc 5 218 5 view .LVU130
 216:d:\_project\stm32\f407\hack_rf_new\lvgl\src\lv_misc\lv_mem.h ****     const uint8_t * s8 = (const uint8_t *)src;
 443              		.loc 5 216 21 is_stmt 0 view .LVU131
 444 0028 3146     		mov	r1, r6
 215:d:\_project\stm32\f407\hack_rf_new\lvgl\src\lv_misc\lv_mem.h ****     const uint8_t * s8 = (const uint8_t *)src;
 445              		.loc 5 215 15 view .LVU132
 446 002a 01AA     		add	r2, sp, #4
 447              	.LVL37:
 215:d:\_project\stm32\f407\hack_rf_new\lvgl\src\lv_misc\lv_mem.h ****     const uint8_t * s8 = (const uint8_t *)src;
 448              		.loc 5 215 15 view .LVU133
 449              	.LBE112:
 450              	.LBE111:
 451              	.LBE117:
 452              		.loc 1 796 30 view .LVU134
 453 002c 0823     		movs	r3, #8
 454              	.LVL38:
 455              	.L25:
 456              	.LBB118:
ARM GAS  D:\Temp\ccqwJTgn.s 			page 35


 457              	.LBB115:
 458              	.LBB113:
 459              		.loc 5 218 10 view .LVU135
 460 002e 63B1     		cbz	r3, .L33
 219:d:\_project\stm32\f407\hack_rf_new\lvgl\src\lv_misc\lv_mem.h ****         *d8 = *s8;
 461              		.loc 5 219 9 is_stmt 1 view .LVU136
 462              		.loc 5 219 15 is_stmt 0 view .LVU137
 463 0030 11F8017B 		ldrb	r7, [r1], #1	@ zero_extendqisi2
 464              	.LVL39:
 465              		.loc 5 219 13 view .LVU138
 466 0034 02F8017B 		strb	r7, [r2], #1
 467              	.LVL40:
 220:d:\_project\stm32\f407\hack_rf_new\lvgl\src\lv_misc\lv_mem.h ****         d8++;
 468              		.loc 5 220 9 is_stmt 1 view .LVU139
 221:d:\_project\stm32\f407\hack_rf_new\lvgl\src\lv_misc\lv_mem.h ****         s8++;
 469              		.loc 5 221 9 view .LVU140
 222:d:\_project\stm32\f407\hack_rf_new\lvgl\src\lv_misc\lv_mem.h ****         len--;
 470              		.loc 5 222 9 view .LVU141
 471              		.loc 5 222 12 is_stmt 0 view .LVU142
 472 0038 013B     		subs	r3, r3, #1
 473              	.LVL41:
 474              		.loc 5 222 12 view .LVU143
 475 003a F8E7     		b	.L25
 476              	.LVL42:
 477              	.L32:
 478              		.loc 5 222 12 view .LVU144
 479              	.LBE113:
 480              	.LBE115:
 481              	.LBE118:
 786:lvgl/src/lv_widgets/lv_roller.c ****         return;
 482              		.loc 1 786 9 is_stmt 1 view .LVU145
 483 003c 03AA     		add	r2, sp, #12
 484 003e 2946     		mov	r1, r5
 485 0040 04F11000 		add	r0, r4, #16
 486 0044 FFF7FEFF 		bl	lv_draw_rect
 487              	.LVL43:
 787:lvgl/src/lv_widgets/lv_roller.c ****     }
 488              		.loc 1 787 9 view .LVU146
 489 0048 5AE0     		b	.L22
 490              	.LVL44:
 491              	.L33:
 492              	.LBB119:
 493              	.LBB116:
 494              	.LBB114:
 223:d:\_project\stm32\f407\hack_rf_new\lvgl\src\lv_misc\lv_mem.h ****     }
 224:d:\_project\stm32\f407\hack_rf_new\lvgl\src\lv_misc\lv_mem.h **** 
 225:d:\_project\stm32\f407\hack_rf_new\lvgl\src\lv_misc\lv_mem.h ****     return dst;
 495              		.loc 5 225 5 view .LVU147
 496              		.loc 5 225 5 is_stmt 0 view .LVU148
 497              	.LBE114:
 498              	.LBE116:
 499              	.LBE119:
 797:lvgl/src/lv_widgets/lv_roller.c ****     half_mask.x1 -= roller->ext_draw_pad; /*Add ext size too (e.g. because of shadow draw) */
 500              		.loc 1 797 5 is_stmt 1 view .LVU149
 501              		.loc 1 797 27 is_stmt 0 view .LVU150
 502 004a 628E     		ldrh	r2, [r4, #50]
 503              		.loc 1 797 18 view .LVU151
ARM GAS  D:\Temp\ccqwJTgn.s 			page 36


 504 004c BDF80430 		ldrh	r3, [sp, #4]
 505 0050 9B1A     		subs	r3, r3, r2
 506 0052 ADF80430 		strh	r3, [sp, #4]	@ movhi
 798:lvgl/src/lv_widgets/lv_roller.c ****     half_mask.x2 += roller->ext_draw_pad;
 507              		.loc 1 798 5 is_stmt 1 view .LVU152
 508              		.loc 1 798 18 is_stmt 0 view .LVU153
 509 0056 BDF80830 		ldrh	r3, [sp, #8]
 510 005a 1344     		add	r3, r3, r2
 511 005c ADF80830 		strh	r3, [sp, #8]	@ movhi
 799:lvgl/src/lv_widgets/lv_roller.c ****     half_mask.y1 -= roller->ext_draw_pad;
 512              		.loc 1 799 5 is_stmt 1 view .LVU154
 513              		.loc 1 799 18 is_stmt 0 view .LVU155
 514 0060 BDF80630 		ldrh	r3, [sp, #6]
 515 0064 9B1A     		subs	r3, r3, r2
 516 0066 ADF80630 		strh	r3, [sp, #6]	@ movhi
 800:lvgl/src/lv_widgets/lv_roller.c ****     half_mask.y2 = roller->coords.y1 + h / 2;
 517              		.loc 1 800 5 is_stmt 1 view .LVU156
 518              		.loc 1 800 34 is_stmt 0 view .LVU157
 519 006a 638A     		ldrh	r3, [r4, #18]
 520              		.loc 1 800 38 view .LVU158
 521 006c 00EBD070 		add	r0, r0, r0, lsr #31
 522              	.LVL45:
 523              		.loc 1 800 38 view .LVU159
 524 0070 C0F34F07 		ubfx	r7, r0, #1, #16
 525 0074 3B44     		add	r3, r3, r7
 526              		.loc 1 800 18 view .LVU160
 527 0076 ADF80A30 		strh	r3, [sp, #10]	@ movhi
 801:lvgl/src/lv_widgets/lv_roller.c **** 
 802:lvgl/src/lv_widgets/lv_roller.c ****     union_ok = _lv_area_intersect(&half_mask, &half_mask, clip_area);
 528              		.loc 1 802 5 is_stmt 1 view .LVU161
 529              		.loc 1 802 16 is_stmt 0 view .LVU162
 530 007a 2A46     		mov	r2, r5
 531 007c 01A9     		add	r1, sp, #4
 532 007e 0846     		mov	r0, r1
 533 0080 FFF7FEFF 		bl	_lv_area_intersect
 534              	.LVL46:
 803:lvgl/src/lv_widgets/lv_roller.c ****     bg_dsc.bg_main_color_stop = bg_dsc.bg_main_color_stop / 2;
 535              		.loc 1 803 5 is_stmt 1 view .LVU163
 536              		.loc 1 803 39 is_stmt 0 view .LVU164
 537 0084 BDF91430 		ldrsh	r3, [sp, #20]
 538              		.loc 1 803 31 view .LVU165
 539 0088 03EBD373 		add	r3, r3, r3, lsr #31
 540 008c 5B10     		asrs	r3, r3, #1
 541 008e ADF81430 		strh	r3, [sp, #20]	@ movhi
 804:lvgl/src/lv_widgets/lv_roller.c ****     bg_dsc.bg_grad_color_stop = 128 - (255 - bg_dsc.bg_grad_color_stop) / 2;
 542              		.loc 1 804 5 is_stmt 1 view .LVU166
 543              		.loc 1 804 52 is_stmt 0 view .LVU167
 544 0092 BDF91630 		ldrsh	r3, [sp, #22]
 545              		.loc 1 804 44 view .LVU168
 546 0096 C3F1FF03 		rsb	r3, r3, #255
 547              		.loc 1 804 73 view .LVU169
 548 009a 03EBD373 		add	r3, r3, r3, lsr #31
 549 009e 5B10     		asrs	r3, r3, #1
 550              		.loc 1 804 37 view .LVU170
 551 00a0 C3F18003 		rsb	r3, r3, #128
 552              		.loc 1 804 31 view .LVU171
 553 00a4 ADF81630 		strh	r3, [sp, #22]	@ movhi
ARM GAS  D:\Temp\ccqwJTgn.s 			page 37


 805:lvgl/src/lv_widgets/lv_roller.c ****     if(union_ok) {
 554              		.loc 1 805 5 is_stmt 1 view .LVU172
 555              		.loc 1 805 7 is_stmt 0 view .LVU173
 556 00a8 18B9     		cbnz	r0, .L34
 557              	.LVL47:
 558              	.L27:
 796:lvgl/src/lv_widgets/lv_roller.c ****     half_mask.x1 -= roller->ext_draw_pad; /*Add ext size too (e.g. because of shadow draw) */
 559              		.loc 1 796 30 view .LVU174
 560 00aa 3146     		mov	r1, r6
 561 00ac 01AA     		add	r2, sp, #4
 562 00ae 0823     		movs	r3, #8
 563 00b0 0AE0     		b	.L28
 564              	.LVL48:
 565              	.L34:
 806:lvgl/src/lv_widgets/lv_roller.c ****         lv_draw_rect(&roller->coords, &half_mask, &bg_dsc);
 566              		.loc 1 806 9 is_stmt 1 view .LVU175
 567 00b2 03AA     		add	r2, sp, #12
 568 00b4 01A9     		add	r1, sp, #4
 569 00b6 3046     		mov	r0, r6
 570              	.LVL49:
 571              		.loc 1 806 9 is_stmt 0 view .LVU176
 572 00b8 FFF7FEFF 		bl	lv_draw_rect
 573              	.LVL50:
 574 00bc F5E7     		b	.L27
 575              	.LVL51:
 576              	.L29:
 577              	.LBB120:
 578              	.LBB121:
 579              	.LBB122:
 219:d:\_project\stm32\f407\hack_rf_new\lvgl\src\lv_misc\lv_mem.h ****         d8++;
 580              		.loc 5 219 9 is_stmt 1 view .LVU177
 219:d:\_project\stm32\f407\hack_rf_new\lvgl\src\lv_misc\lv_mem.h ****         d8++;
 581              		.loc 5 219 15 is_stmt 0 view .LVU178
 582 00be 11F8010B 		ldrb	r0, [r1], #1	@ zero_extendqisi2
 583              	.LVL52:
 219:d:\_project\stm32\f407\hack_rf_new\lvgl\src\lv_misc\lv_mem.h ****         d8++;
 584              		.loc 5 219 13 view .LVU179
 585 00c2 02F8010B 		strb	r0, [r2], #1
 586              	.LVL53:
 220:d:\_project\stm32\f407\hack_rf_new\lvgl\src\lv_misc\lv_mem.h ****         s8++;
 587              		.loc 5 220 9 is_stmt 1 view .LVU180
 221:d:\_project\stm32\f407\hack_rf_new\lvgl\src\lv_misc\lv_mem.h ****         len--;
 588              		.loc 5 221 9 view .LVU181
 222:d:\_project\stm32\f407\hack_rf_new\lvgl\src\lv_misc\lv_mem.h ****     }
 589              		.loc 5 222 9 view .LVU182
 222:d:\_project\stm32\f407\hack_rf_new\lvgl\src\lv_misc\lv_mem.h ****     }
 590              		.loc 5 222 12 is_stmt 0 view .LVU183
 591 00c6 013B     		subs	r3, r3, #1
 592              	.LVL54:
 593              	.L28:
 218:d:\_project\stm32\f407\hack_rf_new\lvgl\src\lv_misc\lv_mem.h ****         *d8 = *s8;
 594              		.loc 5 218 10 view .LVU184
 595 00c8 002B     		cmp	r3, #0
 596 00ca F8D1     		bne	.L29
 597              		.loc 5 225 5 is_stmt 1 view .LVU185
 598              	.LVL55:
 599              		.loc 5 225 5 is_stmt 0 view .LVU186
ARM GAS  D:\Temp\ccqwJTgn.s 			page 38


 600              	.LBE122:
 601              	.LBE121:
 602              	.LBE120:
 807:lvgl/src/lv_widgets/lv_roller.c ****     }
 808:lvgl/src/lv_widgets/lv_roller.c **** 
 809:lvgl/src/lv_widgets/lv_roller.c ****     lv_area_copy(&half_mask, &roller->coords);
 810:lvgl/src/lv_widgets/lv_roller.c ****     half_mask.x1 -= roller->ext_draw_pad; /*Revert ext. size adding*/
 603              		.loc 1 810 5 is_stmt 1 view .LVU187
 604              		.loc 1 810 27 is_stmt 0 view .LVU188
 605 00cc 638E     		ldrh	r3, [r4, #50]
 606              		.loc 1 810 18 view .LVU189
 607 00ce BDF80420 		ldrh	r2, [sp, #4]
 608 00d2 D21A     		subs	r2, r2, r3
 609 00d4 ADF80420 		strh	r2, [sp, #4]	@ movhi
 811:lvgl/src/lv_widgets/lv_roller.c ****     half_mask.x2 += roller->ext_draw_pad;
 610              		.loc 1 811 5 is_stmt 1 view .LVU190
 611              		.loc 1 811 18 is_stmt 0 view .LVU191
 612 00d8 BDF80820 		ldrh	r2, [sp, #8]
 613 00dc 1A44     		add	r2, r2, r3
 614 00de ADF80820 		strh	r2, [sp, #8]	@ movhi
 812:lvgl/src/lv_widgets/lv_roller.c ****     half_mask.y1 = roller->coords.y1 + h / 2;
 615              		.loc 1 812 5 is_stmt 1 view .LVU192
 616              		.loc 1 812 34 is_stmt 0 view .LVU193
 617 00e2 628A     		ldrh	r2, [r4, #18]
 618              		.loc 1 812 38 view .LVU194
 619 00e4 1744     		add	r7, r7, r2
 620              		.loc 1 812 18 view .LVU195
 621 00e6 ADF80670 		strh	r7, [sp, #6]	@ movhi
 813:lvgl/src/lv_widgets/lv_roller.c ****     half_mask.y2 += roller->ext_draw_pad;
 622              		.loc 1 813 5 is_stmt 1 view .LVU196
 623              		.loc 1 813 18 is_stmt 0 view .LVU197
 624 00ea BDF80A20 		ldrh	r2, [sp, #10]
 625 00ee 1344     		add	r3, r3, r2
 626 00f0 ADF80A30 		strh	r3, [sp, #10]	@ movhi
 814:lvgl/src/lv_widgets/lv_roller.c **** 
 815:lvgl/src/lv_widgets/lv_roller.c ****     union_ok = _lv_area_intersect(&half_mask, &half_mask, clip_area);
 627              		.loc 1 815 5 is_stmt 1 view .LVU198
 628              		.loc 1 815 16 is_stmt 0 view .LVU199
 629 00f4 2A46     		mov	r2, r5
 630 00f6 01A9     		add	r1, sp, #4
 631 00f8 0846     		mov	r0, r1
 632 00fa FFF7FEFF 		bl	_lv_area_intersect
 633              	.LVL56:
 816:lvgl/src/lv_widgets/lv_roller.c ****     if(union_ok) {
 634              		.loc 1 816 5 is_stmt 1 view .LVU200
 635              		.loc 1 816 7 is_stmt 0 view .LVU201
 636 00fe 08B9     		cbnz	r0, .L35
 637              	.LVL57:
 638              	.L22:
 817:lvgl/src/lv_widgets/lv_roller.c ****         lv_color_t c = bg_dsc.bg_color;
 818:lvgl/src/lv_widgets/lv_roller.c ****         bg_dsc.bg_color = bg_dsc.bg_grad_color;
 819:lvgl/src/lv_widgets/lv_roller.c ****         bg_dsc.bg_grad_color = c;
 820:lvgl/src/lv_widgets/lv_roller.c **** 
 821:lvgl/src/lv_widgets/lv_roller.c ****         bg_dsc.bg_main_color_stop += 127;
 822:lvgl/src/lv_widgets/lv_roller.c ****         bg_dsc.bg_grad_color_stop += 127;
 823:lvgl/src/lv_widgets/lv_roller.c ****         lv_draw_rect(&roller->coords, &half_mask, &bg_dsc);
 824:lvgl/src/lv_widgets/lv_roller.c ****     }
ARM GAS  D:\Temp\ccqwJTgn.s 			page 39


 825:lvgl/src/lv_widgets/lv_roller.c **** }
 639              		.loc 1 825 1 view .LVU202
 640 0100 19B0     		add	sp, sp, #100
 641              	.LCFI7:
 642              		.cfi_remember_state
 643              		.cfi_def_cfa_offset 20
 644              		@ sp needed
 645 0102 F0BD     		pop	{r4, r5, r6, r7, pc}
 646              	.LVL58:
 647              	.L35:
 648              	.LCFI8:
 649              		.cfi_restore_state
 650              	.LBB123:
 817:lvgl/src/lv_widgets/lv_roller.c ****         lv_color_t c = bg_dsc.bg_color;
 651              		.loc 1 817 9 is_stmt 1 view .LVU203
 817:lvgl/src/lv_widgets/lv_roller.c ****         lv_color_t c = bg_dsc.bg_color;
 652              		.loc 1 817 20 is_stmt 0 view .LVU204
 653 0104 BDF80E30 		ldrh	r3, [sp, #14]
 818:lvgl/src/lv_widgets/lv_roller.c ****         bg_dsc.bg_grad_color = c;
 654              		.loc 1 818 9 is_stmt 1 view .LVU205
 818:lvgl/src/lv_widgets/lv_roller.c ****         bg_dsc.bg_grad_color = c;
 655              		.loc 1 818 25 is_stmt 0 view .LVU206
 656 0108 BDF81020 		ldrh	r2, [sp, #16]
 657 010c ADF80E20 		strh	r2, [sp, #14]	@ movhi
 819:lvgl/src/lv_widgets/lv_roller.c **** 
 658              		.loc 1 819 9 is_stmt 1 view .LVU207
 659              	.LVL59:
 819:lvgl/src/lv_widgets/lv_roller.c **** 
 660              		.loc 1 819 30 is_stmt 0 view .LVU208
 661 0110 ADF81030 		strh	r3, [sp, #16]	@ movhi
 821:lvgl/src/lv_widgets/lv_roller.c ****         bg_dsc.bg_grad_color_stop += 127;
 662              		.loc 1 821 9 is_stmt 1 view .LVU209
 821:lvgl/src/lv_widgets/lv_roller.c ****         bg_dsc.bg_grad_color_stop += 127;
 663              		.loc 1 821 35 is_stmt 0 view .LVU210
 664 0114 BDF81430 		ldrh	r3, [sp, #20]
 665              	.LVL60:
 821:lvgl/src/lv_widgets/lv_roller.c ****         bg_dsc.bg_grad_color_stop += 127;
 666              		.loc 1 821 35 view .LVU211
 667 0118 7F33     		adds	r3, r3, #127
 668 011a ADF81430 		strh	r3, [sp, #20]	@ movhi
 822:lvgl/src/lv_widgets/lv_roller.c ****         lv_draw_rect(&roller->coords, &half_mask, &bg_dsc);
 669              		.loc 1 822 9 is_stmt 1 view .LVU212
 822:lvgl/src/lv_widgets/lv_roller.c ****         lv_draw_rect(&roller->coords, &half_mask, &bg_dsc);
 670              		.loc 1 822 35 is_stmt 0 view .LVU213
 671 011e BDF81630 		ldrh	r3, [sp, #22]
 672 0122 7F33     		adds	r3, r3, #127
 673 0124 ADF81630 		strh	r3, [sp, #22]	@ movhi
 823:lvgl/src/lv_widgets/lv_roller.c ****     }
 674              		.loc 1 823 9 is_stmt 1 view .LVU214
 675 0128 03AA     		add	r2, sp, #12
 676 012a 01A9     		add	r1, sp, #4
 677 012c 3046     		mov	r0, r6
 678              	.LVL61:
 823:lvgl/src/lv_widgets/lv_roller.c ****     }
 679              		.loc 1 823 9 is_stmt 0 view .LVU215
 680 012e FFF7FEFF 		bl	lv_draw_rect
 681              	.LVL62:
ARM GAS  D:\Temp\ccqwJTgn.s 			page 40


 682 0132 E5E7     		b	.L22
 683              	.LBE123:
 684              		.cfi_endproc
 685              	.LFE492:
 687              		.section	.text.get_label,"ax",%progbits
 688              		.align	1
 689              		.syntax unified
 690              		.thumb
 691              		.thumb_func
 692              		.fpu fpv4-sp-d16
 694              	get_label:
 695              	.LVL63:
 696              	.LFB498:
 826:lvgl/src/lv_widgets/lv_roller.c **** 
 827:lvgl/src/lv_widgets/lv_roller.c **** /**
 828:lvgl/src/lv_widgets/lv_roller.c ****  * Refresh the position of the roller. It uses the id stored in: ext->ddlist.selected_option_id
 829:lvgl/src/lv_widgets/lv_roller.c ****  * @param roller pointer to a roller object
 830:lvgl/src/lv_widgets/lv_roller.c ****  * @param anim_en LV_ANIM_ON: refresh with animation; LV_ANOM_OFF: without animation
 831:lvgl/src/lv_widgets/lv_roller.c ****  */
 832:lvgl/src/lv_widgets/lv_roller.c **** static void refr_position(lv_obj_t * roller, lv_anim_enable_t anim_en)
 833:lvgl/src/lv_widgets/lv_roller.c **** {
 834:lvgl/src/lv_widgets/lv_roller.c **** #if LV_USE_ANIMATION == 0
 835:lvgl/src/lv_widgets/lv_roller.c ****     anim_en = LV_ANIM_OFF;
 836:lvgl/src/lv_widgets/lv_roller.c **** #endif
 837:lvgl/src/lv_widgets/lv_roller.c **** 
 838:lvgl/src/lv_widgets/lv_roller.c ****     lv_obj_t * roller_scrl         = lv_page_get_scrollable(roller);
 839:lvgl/src/lv_widgets/lv_roller.c ****     lv_roller_ext_t * ext          = lv_obj_get_ext_attr(roller);
 840:lvgl/src/lv_widgets/lv_roller.c ****     const lv_font_t * font = lv_obj_get_style_text_font(roller, LV_ROLLER_PART_BG);
 841:lvgl/src/lv_widgets/lv_roller.c ****     lv_style_int_t line_space = lv_obj_get_style_text_line_space(roller, LV_ROLLER_PART_BG);
 842:lvgl/src/lv_widgets/lv_roller.c ****     lv_coord_t font_h              = lv_font_get_line_height(font);
 843:lvgl/src/lv_widgets/lv_roller.c ****     lv_coord_t h                   = lv_obj_get_height(roller);
 844:lvgl/src/lv_widgets/lv_roller.c ****     uint16_t anim_time             = lv_roller_get_anim_time(roller);
 845:lvgl/src/lv_widgets/lv_roller.c **** 
 846:lvgl/src/lv_widgets/lv_roller.c ****     /* Normally the animation's `end_cb` sets correct position of the roller if infinite.
 847:lvgl/src/lv_widgets/lv_roller.c ****      * But without animations do it manually*/
 848:lvgl/src/lv_widgets/lv_roller.c ****     if(anim_en == LV_ANIM_OFF || anim_time == 0) {
 849:lvgl/src/lv_widgets/lv_roller.c ****         inf_normalize(roller_scrl);
 850:lvgl/src/lv_widgets/lv_roller.c ****     }
 851:lvgl/src/lv_widgets/lv_roller.c **** 
 852:lvgl/src/lv_widgets/lv_roller.c ****     lv_obj_t * label = get_label(roller);
 853:lvgl/src/lv_widgets/lv_roller.c **** 
 854:lvgl/src/lv_widgets/lv_roller.c ****     int32_t id = ext->sel_opt_id;
 855:lvgl/src/lv_widgets/lv_roller.c ****     lv_coord_t line_y1 = id * (font_h + line_space) + label->coords.y1 - roller_scrl->coords.y1;
 856:lvgl/src/lv_widgets/lv_roller.c ****     lv_coord_t new_y = -line_y1 + (h - font_h) / 2;
 857:lvgl/src/lv_widgets/lv_roller.c **** 
 858:lvgl/src/lv_widgets/lv_roller.c ****     if(anim_en == LV_ANIM_OFF || anim_time == 0) {
 859:lvgl/src/lv_widgets/lv_roller.c **** #if LV_USE_ANIMATION
 860:lvgl/src/lv_widgets/lv_roller.c ****         lv_anim_del(roller_scrl, (lv_anim_exec_xcb_t)lv_obj_set_y);
 861:lvgl/src/lv_widgets/lv_roller.c **** #endif
 862:lvgl/src/lv_widgets/lv_roller.c ****         lv_obj_set_y(roller_scrl, new_y);
 863:lvgl/src/lv_widgets/lv_roller.c ****     }
 864:lvgl/src/lv_widgets/lv_roller.c ****     else {
 865:lvgl/src/lv_widgets/lv_roller.c **** #if LV_USE_ANIMATION
 866:lvgl/src/lv_widgets/lv_roller.c ****         lv_anim_t a;
 867:lvgl/src/lv_widgets/lv_roller.c ****         lv_anim_init(&a);
 868:lvgl/src/lv_widgets/lv_roller.c ****         lv_anim_set_var(&a, roller_scrl);
 869:lvgl/src/lv_widgets/lv_roller.c ****         lv_anim_set_exec_cb(&a, (lv_anim_exec_xcb_t)lv_obj_set_y);
ARM GAS  D:\Temp\ccqwJTgn.s 			page 41


 870:lvgl/src/lv_widgets/lv_roller.c ****         lv_anim_set_values(&a, lv_obj_get_y(roller_scrl), new_y);
 871:lvgl/src/lv_widgets/lv_roller.c ****         lv_anim_set_time(&a, anim_time);
 872:lvgl/src/lv_widgets/lv_roller.c ****         lv_anim_set_ready_cb(&a, scroll_anim_ready_cb);
 873:lvgl/src/lv_widgets/lv_roller.c ****         lv_anim_start(&a);
 874:lvgl/src/lv_widgets/lv_roller.c **** #endif
 875:lvgl/src/lv_widgets/lv_roller.c ****     }
 876:lvgl/src/lv_widgets/lv_roller.c **** }
 877:lvgl/src/lv_widgets/lv_roller.c **** 
 878:lvgl/src/lv_widgets/lv_roller.c **** static lv_res_t release_handler(lv_obj_t * roller)
 879:lvgl/src/lv_widgets/lv_roller.c **** {
 880:lvgl/src/lv_widgets/lv_roller.c **** 
 881:lvgl/src/lv_widgets/lv_roller.c ****     /*If there was dragging `DRAG_END` signal will refresh the position and update the selected opt
 882:lvgl/src/lv_widgets/lv_roller.c ****     if(lv_indev_is_dragging(lv_indev_get_act())) return LV_RES_OK;
 883:lvgl/src/lv_widgets/lv_roller.c **** 
 884:lvgl/src/lv_widgets/lv_roller.c ****     lv_roller_ext_t * ext = lv_obj_get_ext_attr(roller);
 885:lvgl/src/lv_widgets/lv_roller.c **** 
 886:lvgl/src/lv_widgets/lv_roller.c ****     lv_indev_t * indev = lv_indev_get_act();
 887:lvgl/src/lv_widgets/lv_roller.c **** #if LV_USE_GROUP
 888:lvgl/src/lv_widgets/lv_roller.c ****     /*Leave edit mode once a new option is selected*/
 889:lvgl/src/lv_widgets/lv_roller.c ****     lv_indev_type_t indev_type = lv_indev_get_type(indev);
 890:lvgl/src/lv_widgets/lv_roller.c ****     if(indev_type == LV_INDEV_TYPE_ENCODER || indev_type == LV_INDEV_TYPE_KEYPAD) {
 891:lvgl/src/lv_widgets/lv_roller.c ****         ext->sel_opt_id_ori = ext->sel_opt_id;
 892:lvgl/src/lv_widgets/lv_roller.c **** 
 893:lvgl/src/lv_widgets/lv_roller.c ****         if(indev_type == LV_INDEV_TYPE_ENCODER) {
 894:lvgl/src/lv_widgets/lv_roller.c ****             lv_group_t * g      = lv_obj_get_group(roller);
 895:lvgl/src/lv_widgets/lv_roller.c ****             if(lv_group_get_editing(g)) {
 896:lvgl/src/lv_widgets/lv_roller.c ****                 lv_group_set_editing(g, false);
 897:lvgl/src/lv_widgets/lv_roller.c ****             }
 898:lvgl/src/lv_widgets/lv_roller.c ****         }
 899:lvgl/src/lv_widgets/lv_roller.c ****     }
 900:lvgl/src/lv_widgets/lv_roller.c **** #endif
 901:lvgl/src/lv_widgets/lv_roller.c **** 
 902:lvgl/src/lv_widgets/lv_roller.c ****     lv_obj_t * label = get_label(roller);
 903:lvgl/src/lv_widgets/lv_roller.c ****     if(label == NULL) return LV_RES_OK;
 904:lvgl/src/lv_widgets/lv_roller.c **** 
 905:lvgl/src/lv_widgets/lv_roller.c ****     if(lv_indev_get_type(indev) == LV_INDEV_TYPE_POINTER || lv_indev_get_type(indev) == LV_INDEV_TY
 906:lvgl/src/lv_widgets/lv_roller.c ****         /*Search the clicked option (For KEYPAD and ENCODER the new value should be already set)*/
 907:lvgl/src/lv_widgets/lv_roller.c ****         uint16_t new_opt  = 0;
 908:lvgl/src/lv_widgets/lv_roller.c ****         lv_point_t p;
 909:lvgl/src/lv_widgets/lv_roller.c ****         lv_indev_get_point(indev, &p);
 910:lvgl/src/lv_widgets/lv_roller.c ****         p.y -= label->coords.y1;
 911:lvgl/src/lv_widgets/lv_roller.c ****         p.x -= label->coords.x1;
 912:lvgl/src/lv_widgets/lv_roller.c ****         uint32_t letter_i;
 913:lvgl/src/lv_widgets/lv_roller.c ****         letter_i = lv_label_get_letter_on(label, &p);
 914:lvgl/src/lv_widgets/lv_roller.c **** 
 915:lvgl/src/lv_widgets/lv_roller.c ****         const char * txt  = lv_label_get_text(label);
 916:lvgl/src/lv_widgets/lv_roller.c ****         uint32_t i        = 0;
 917:lvgl/src/lv_widgets/lv_roller.c ****         uint32_t i_prev   = 0;
 918:lvgl/src/lv_widgets/lv_roller.c **** 
 919:lvgl/src/lv_widgets/lv_roller.c ****         uint32_t letter_cnt = 0;
 920:lvgl/src/lv_widgets/lv_roller.c ****         for(letter_cnt = 0; letter_cnt < letter_i; letter_cnt++) {
 921:lvgl/src/lv_widgets/lv_roller.c ****             uint32_t letter = _lv_txt_encoded_next(txt, &i);
 922:lvgl/src/lv_widgets/lv_roller.c ****             /*Count he lines to reach the clicked letter. But ignore the last '\n' because it
 923:lvgl/src/lv_widgets/lv_roller.c ****              * still belongs to the clicked line*/
 924:lvgl/src/lv_widgets/lv_roller.c ****             if(letter == '\n' && i_prev != letter_i) new_opt++;
 925:lvgl/src/lv_widgets/lv_roller.c ****             i_prev = i;
 926:lvgl/src/lv_widgets/lv_roller.c ****         }
ARM GAS  D:\Temp\ccqwJTgn.s 			page 42


 927:lvgl/src/lv_widgets/lv_roller.c ****         lv_roller_set_selected(roller, new_opt, LV_ANIM_ON);
 928:lvgl/src/lv_widgets/lv_roller.c ****     }
 929:lvgl/src/lv_widgets/lv_roller.c **** 
 930:lvgl/src/lv_widgets/lv_roller.c ****     uint32_t id  = ext->sel_opt_id; /*Just to use uint32_t in event data*/
 931:lvgl/src/lv_widgets/lv_roller.c ****     lv_res_t res = lv_event_send(roller, LV_EVENT_VALUE_CHANGED, &id);
 932:lvgl/src/lv_widgets/lv_roller.c ****     return res;
 933:lvgl/src/lv_widgets/lv_roller.c **** }
 934:lvgl/src/lv_widgets/lv_roller.c **** 
 935:lvgl/src/lv_widgets/lv_roller.c **** static void refr_width(lv_obj_t * roller)
 936:lvgl/src/lv_widgets/lv_roller.c **** {
 937:lvgl/src/lv_widgets/lv_roller.c ****     lv_obj_t * label = get_label(roller);
 938:lvgl/src/lv_widgets/lv_roller.c ****     if(label == NULL) return;
 939:lvgl/src/lv_widgets/lv_roller.c **** 
 940:lvgl/src/lv_widgets/lv_roller.c ****     switch(lv_label_get_align(label)) {
 941:lvgl/src/lv_widgets/lv_roller.c ****         case LV_LABEL_ALIGN_LEFT:
 942:lvgl/src/lv_widgets/lv_roller.c ****             lv_obj_align(label, NULL, LV_ALIGN_IN_LEFT_MID, 0, 0);
 943:lvgl/src/lv_widgets/lv_roller.c ****             break;
 944:lvgl/src/lv_widgets/lv_roller.c ****         case LV_LABEL_ALIGN_CENTER:
 945:lvgl/src/lv_widgets/lv_roller.c ****             lv_obj_align(label, NULL, LV_ALIGN_CENTER, 0, 0);
 946:lvgl/src/lv_widgets/lv_roller.c ****             break;
 947:lvgl/src/lv_widgets/lv_roller.c ****         case LV_LABEL_ALIGN_RIGHT:
 948:lvgl/src/lv_widgets/lv_roller.c ****             lv_obj_align(label, NULL, LV_ALIGN_IN_RIGHT_MID, 0, 0);
 949:lvgl/src/lv_widgets/lv_roller.c ****             break;
 950:lvgl/src/lv_widgets/lv_roller.c ****     }
 951:lvgl/src/lv_widgets/lv_roller.c **** 
 952:lvgl/src/lv_widgets/lv_roller.c ****     if(lv_roller_get_auto_fit(roller) == false) return;
 953:lvgl/src/lv_widgets/lv_roller.c **** 
 954:lvgl/src/lv_widgets/lv_roller.c ****     lv_coord_t label_w = lv_obj_get_width(label);
 955:lvgl/src/lv_widgets/lv_roller.c **** 
 956:lvgl/src/lv_widgets/lv_roller.c ****     lv_style_int_t left = lv_obj_get_style_pad_left(roller, LV_ROLLER_PART_BG);
 957:lvgl/src/lv_widgets/lv_roller.c ****     lv_style_int_t right = lv_obj_get_style_pad_right(roller, LV_ROLLER_PART_BG);
 958:lvgl/src/lv_widgets/lv_roller.c **** 
 959:lvgl/src/lv_widgets/lv_roller.c ****     const lv_font_t * base_font = lv_obj_get_style_text_font(roller, LV_ROLLER_PART_BG);
 960:lvgl/src/lv_widgets/lv_roller.c ****     const lv_font_t * sel_font = lv_obj_get_style_text_font(roller, LV_ROLLER_PART_SELECTED);
 961:lvgl/src/lv_widgets/lv_roller.c **** 
 962:lvgl/src/lv_widgets/lv_roller.c ****     /*The selected text might be larger to get its size*/
 963:lvgl/src/lv_widgets/lv_roller.c ****     if(base_font != sel_font) {
 964:lvgl/src/lv_widgets/lv_roller.c ****         lv_coord_t letter_sp = lv_obj_get_style_text_letter_space(roller, LV_ROLLER_PART_SELECTED);
 965:lvgl/src/lv_widgets/lv_roller.c ****         lv_coord_t line_sp = lv_obj_get_style_text_line_space(roller, LV_ROLLER_PART_SELECTED);
 966:lvgl/src/lv_widgets/lv_roller.c ****         lv_point_t p;
 967:lvgl/src/lv_widgets/lv_roller.c ****         _lv_txt_get_size(&p, lv_label_get_text(label), sel_font, letter_sp, line_sp, LV_COORD_MAX, 
 968:lvgl/src/lv_widgets/lv_roller.c ****         if(label_w < p.x)label_w = p.x;
 969:lvgl/src/lv_widgets/lv_roller.c ****     }
 970:lvgl/src/lv_widgets/lv_roller.c **** 
 971:lvgl/src/lv_widgets/lv_roller.c ****     lv_obj_set_width(roller, label_w + left + right);
 972:lvgl/src/lv_widgets/lv_roller.c **** }
 973:lvgl/src/lv_widgets/lv_roller.c **** 
 974:lvgl/src/lv_widgets/lv_roller.c **** /**
 975:lvgl/src/lv_widgets/lv_roller.c ****  * Refresh the height of the roller and the scrollable
 976:lvgl/src/lv_widgets/lv_roller.c ****  * @param roller pointer to roller
 977:lvgl/src/lv_widgets/lv_roller.c ****  */
 978:lvgl/src/lv_widgets/lv_roller.c **** static void refr_height(lv_obj_t * roller)
 979:lvgl/src/lv_widgets/lv_roller.c **** {
 980:lvgl/src/lv_widgets/lv_roller.c ****     lv_obj_t * label = get_label(roller);
 981:lvgl/src/lv_widgets/lv_roller.c ****     if(label == NULL) return;
 982:lvgl/src/lv_widgets/lv_roller.c **** 
 983:lvgl/src/lv_widgets/lv_roller.c ****     lv_obj_set_height(lv_page_get_scrollable(roller), lv_obj_get_height(label) + lv_obj_get_height(
ARM GAS  D:\Temp\ccqwJTgn.s 			page 43


 984:lvgl/src/lv_widgets/lv_roller.c **** 
 985:lvgl/src/lv_widgets/lv_roller.c **** #if LV_USE_ANIMATION
 986:lvgl/src/lv_widgets/lv_roller.c ****     lv_anim_del(lv_page_get_scrollable(roller), (lv_anim_exec_xcb_t)lv_obj_set_y);
 987:lvgl/src/lv_widgets/lv_roller.c **** #endif
 988:lvgl/src/lv_widgets/lv_roller.c ****     refr_position(roller, LV_ANIM_OFF);
 989:lvgl/src/lv_widgets/lv_roller.c **** }
 990:lvgl/src/lv_widgets/lv_roller.c **** 
 991:lvgl/src/lv_widgets/lv_roller.c **** /**
 992:lvgl/src/lv_widgets/lv_roller.c ****  * Set the middle page for the roller if infinite is enabled
 993:lvgl/src/lv_widgets/lv_roller.c ****  * @param scrl pointer to the roller's scrollable (lv_obj_t *)
 994:lvgl/src/lv_widgets/lv_roller.c ****  */
 995:lvgl/src/lv_widgets/lv_roller.c **** static void inf_normalize(void * scrl)
 996:lvgl/src/lv_widgets/lv_roller.c **** {
 997:lvgl/src/lv_widgets/lv_roller.c ****     lv_obj_t * roller_scrl = (lv_obj_t *)scrl;
 998:lvgl/src/lv_widgets/lv_roller.c ****     lv_obj_t * roller      = lv_obj_get_parent(roller_scrl);
 999:lvgl/src/lv_widgets/lv_roller.c ****     lv_roller_ext_t * ext  = lv_obj_get_ext_attr(roller);
1000:lvgl/src/lv_widgets/lv_roller.c **** 
1001:lvgl/src/lv_widgets/lv_roller.c ****     if(ext->mode == LV_ROLLER_MODE_INFINITE) {
1002:lvgl/src/lv_widgets/lv_roller.c ****         uint16_t real_id_cnt = ext->option_cnt / LV_ROLLER_INF_PAGES;
1003:lvgl/src/lv_widgets/lv_roller.c ****         ext->sel_opt_id = ext->sel_opt_id % real_id_cnt;
1004:lvgl/src/lv_widgets/lv_roller.c ****         ext->sel_opt_id += (LV_ROLLER_INF_PAGES / 2) * real_id_cnt; /*Select the middle page*/
1005:lvgl/src/lv_widgets/lv_roller.c **** 
1006:lvgl/src/lv_widgets/lv_roller.c ****         ext->sel_opt_id_ori = ext->sel_opt_id % real_id_cnt;
1007:lvgl/src/lv_widgets/lv_roller.c ****         ext->sel_opt_id_ori += (LV_ROLLER_INF_PAGES / 2) * real_id_cnt; /*Select the middle page*/
1008:lvgl/src/lv_widgets/lv_roller.c **** 
1009:lvgl/src/lv_widgets/lv_roller.c ****         /*Move to the new id*/
1010:lvgl/src/lv_widgets/lv_roller.c ****         const lv_font_t * font = lv_obj_get_style_text_font(roller, LV_ROLLER_PART_BG);
1011:lvgl/src/lv_widgets/lv_roller.c ****         lv_style_int_t line_space = lv_obj_get_style_text_line_space(roller, LV_ROLLER_PART_BG);
1012:lvgl/src/lv_widgets/lv_roller.c ****         lv_coord_t font_h              = lv_font_get_line_height(font);
1013:lvgl/src/lv_widgets/lv_roller.c ****         lv_coord_t h                   = lv_obj_get_height(roller);
1014:lvgl/src/lv_widgets/lv_roller.c **** 
1015:lvgl/src/lv_widgets/lv_roller.c ****         lv_obj_t * label = get_label(roller);
1016:lvgl/src/lv_widgets/lv_roller.c **** 
1017:lvgl/src/lv_widgets/lv_roller.c ****         lv_coord_t line_y1 = ext->sel_opt_id * (font_h + line_space) + label->coords.y1 - roller_sc
1018:lvgl/src/lv_widgets/lv_roller.c ****         lv_coord_t new_y = -line_y1 + (h - font_h) / 2;
1019:lvgl/src/lv_widgets/lv_roller.c ****         lv_obj_set_y(roller_scrl, new_y);
1020:lvgl/src/lv_widgets/lv_roller.c ****     }
1021:lvgl/src/lv_widgets/lv_roller.c **** }
1022:lvgl/src/lv_widgets/lv_roller.c **** 
1023:lvgl/src/lv_widgets/lv_roller.c **** static lv_obj_t * get_label(const lv_obj_t * roller)
1024:lvgl/src/lv_widgets/lv_roller.c **** {
 697              		.loc 1 1024 1 is_stmt 1 view -0
 698              		.cfi_startproc
 699              		@ args = 0, pretend = 0, frame = 0
 700              		@ frame_needed = 0, uses_anonymous_args = 0
 701              		.loc 1 1024 1 is_stmt 0 view .LVU217
 702 0000 08B5     		push	{r3, lr}
 703              	.LCFI9:
 704              		.cfi_def_cfa_offset 8
 705              		.cfi_offset 3, -8
 706              		.cfi_offset 14, -4
1025:lvgl/src/lv_widgets/lv_roller.c ****     lv_obj_t * scrl = lv_page_get_scrollable(roller);
 707              		.loc 1 1025 5 is_stmt 1 view .LVU218
 708              		.loc 1 1025 23 is_stmt 0 view .LVU219
 709 0002 FFF7FEFF 		bl	lv_page_get_scrollable
 710              	.LVL64:
1026:lvgl/src/lv_widgets/lv_roller.c ****     if(scrl == NULL) return NULL;   /*The roller is being deleted, the scrollable already not exist
ARM GAS  D:\Temp\ccqwJTgn.s 			page 44


 711              		.loc 1 1026 5 is_stmt 1 view .LVU220
 712              		.loc 1 1026 7 is_stmt 0 view .LVU221
 713 0006 0346     		mov	r3, r0
 714 0008 18B1     		cbz	r0, .L36
1027:lvgl/src/lv_widgets/lv_roller.c ****     return lv_obj_get_child(scrl, NULL);
 715              		.loc 1 1027 5 is_stmt 1 view .LVU222
 716              		.loc 1 1027 12 is_stmt 0 view .LVU223
 717 000a 0021     		movs	r1, #0
 718 000c FFF7FEFF 		bl	lv_obj_get_child
 719              	.LVL65:
 720              		.loc 1 1027 12 view .LVU224
 721 0010 0346     		mov	r3, r0
 722              	.L36:
1028:lvgl/src/lv_widgets/lv_roller.c **** }
 723              		.loc 1 1028 1 view .LVU225
 724 0012 1846     		mov	r0, r3
 725 0014 08BD     		pop	{r3, pc}
 726              		.cfi_endproc
 727              	.LFE498:
 729              		.section	.text.inf_normalize,"ax",%progbits
 730              		.align	1
 731              		.syntax unified
 732              		.thumb
 733              		.thumb_func
 734              		.fpu fpv4-sp-d16
 736              	inf_normalize:
 737              	.LVL66:
 738              	.LFB497:
 996:lvgl/src/lv_widgets/lv_roller.c ****     lv_obj_t * roller_scrl = (lv_obj_t *)scrl;
 739              		.loc 1 996 1 is_stmt 1 view -0
 740              		.cfi_startproc
 741              		@ args = 0, pretend = 0, frame = 0
 742              		@ frame_needed = 0, uses_anonymous_args = 0
 996:lvgl/src/lv_widgets/lv_roller.c ****     lv_obj_t * roller_scrl = (lv_obj_t *)scrl;
 743              		.loc 1 996 1 is_stmt 0 view .LVU227
 744 0000 2DE9F843 		push	{r3, r4, r5, r6, r7, r8, r9, lr}
 745              	.LCFI10:
 746              		.cfi_def_cfa_offset 32
 747              		.cfi_offset 3, -32
 748              		.cfi_offset 4, -28
 749              		.cfi_offset 5, -24
 750              		.cfi_offset 6, -20
 751              		.cfi_offset 7, -16
 752              		.cfi_offset 8, -12
 753              		.cfi_offset 9, -8
 754              		.cfi_offset 14, -4
 755 0004 0646     		mov	r6, r0
 997:lvgl/src/lv_widgets/lv_roller.c ****     lv_obj_t * roller      = lv_obj_get_parent(roller_scrl);
 756              		.loc 1 997 5 is_stmt 1 view .LVU228
 757              	.LVL67:
 998:lvgl/src/lv_widgets/lv_roller.c ****     lv_roller_ext_t * ext  = lv_obj_get_ext_attr(roller);
 758              		.loc 1 998 5 view .LVU229
 998:lvgl/src/lv_widgets/lv_roller.c ****     lv_roller_ext_t * ext  = lv_obj_get_ext_attr(roller);
 759              		.loc 1 998 30 is_stmt 0 view .LVU230
 760 0006 FFF7FEFF 		bl	lv_obj_get_parent
 761              	.LVL68:
 998:lvgl/src/lv_widgets/lv_roller.c ****     lv_roller_ext_t * ext  = lv_obj_get_ext_attr(roller);
ARM GAS  D:\Temp\ccqwJTgn.s 			page 45


 762              		.loc 1 998 30 view .LVU231
 763 000a 0546     		mov	r5, r0
 764              	.LVL69:
 999:lvgl/src/lv_widgets/lv_roller.c **** 
 765              		.loc 1 999 5 is_stmt 1 view .LVU232
 999:lvgl/src/lv_widgets/lv_roller.c **** 
 766              		.loc 1 999 30 is_stmt 0 view .LVU233
 767 000c FFF7FEFF 		bl	lv_obj_get_ext_attr
 768              	.LVL70:
1001:lvgl/src/lv_widgets/lv_roller.c ****         uint16_t real_id_cnt = ext->option_cnt / LV_ROLLER_INF_PAGES;
 769              		.loc 1 1001 5 is_stmt 1 view .LVU234
1001:lvgl/src/lv_widgets/lv_roller.c ****         uint16_t real_id_cnt = ext->option_cnt / LV_ROLLER_INF_PAGES;
 770              		.loc 1 1001 18 is_stmt 0 view .LVU235
 771 0010 90F84E30 		ldrb	r3, [r0, #78]	@ zero_extendqisi2
1001:lvgl/src/lv_widgets/lv_roller.c ****         uint16_t real_id_cnt = ext->option_cnt / LV_ROLLER_INF_PAGES;
 772              		.loc 1 1001 7 view .LVU236
 773 0014 13F0010F 		tst	r3, #1
 774 0018 01D1     		bne	.L42
 775              	.LVL71:
 776              	.L39:
1021:lvgl/src/lv_widgets/lv_roller.c **** 
 777              		.loc 1 1021 1 view .LVU237
 778 001a BDE8F883 		pop	{r3, r4, r5, r6, r7, r8, r9, pc}
 779              	.LVL72:
 780              	.L42:
1021:lvgl/src/lv_widgets/lv_roller.c **** 
 781              		.loc 1 1021 1 view .LVU238
 782 001e 0446     		mov	r4, r0
 783              	.LBB124:
1002:lvgl/src/lv_widgets/lv_roller.c ****         ext->sel_opt_id = ext->sel_opt_id % real_id_cnt;
 784              		.loc 1 1002 9 is_stmt 1 view .LVU239
1002:lvgl/src/lv_widgets/lv_roller.c ****         ext->sel_opt_id = ext->sel_opt_id % real_id_cnt;
 785              		.loc 1 1002 35 is_stmt 0 view .LVU240
 786 0020 B0F84820 		ldrh	r2, [r0, #72]
1002:lvgl/src/lv_widgets/lv_roller.c ****         ext->sel_opt_id = ext->sel_opt_id % real_id_cnt;
 787              		.loc 1 1002 18 view .LVU241
 788 0024 244B     		ldr	r3, .L43
 789 0026 A3FB0213 		umull	r1, r3, r3, r2
 790 002a D21A     		subs	r2, r2, r3
 791 002c 03EB5203 		add	r3, r3, r2, lsr #1
 792 0030 C3F38F03 		ubfx	r3, r3, #2, #16
 793              	.LVL73:
1003:lvgl/src/lv_widgets/lv_roller.c ****         ext->sel_opt_id += (LV_ROLLER_INF_PAGES / 2) * real_id_cnt; /*Select the middle page*/
 794              		.loc 1 1003 9 is_stmt 1 view .LVU242
1003:lvgl/src/lv_widgets/lv_roller.c ****         ext->sel_opt_id += (LV_ROLLER_INF_PAGES / 2) * real_id_cnt; /*Select the middle page*/
 795              		.loc 1 1003 30 is_stmt 0 view .LVU243
 796 0034 B0F84A10 		ldrh	r1, [r0, #74]
1003:lvgl/src/lv_widgets/lv_roller.c ****         ext->sel_opt_id += (LV_ROLLER_INF_PAGES / 2) * real_id_cnt; /*Select the middle page*/
 797              		.loc 1 1003 25 view .LVU244
 798 0038 B1FBF3F2 		udiv	r2, r1, r3
 799 003c 03FB1212 		mls	r2, r3, r2, r1
1004:lvgl/src/lv_widgets/lv_roller.c **** 
 800              		.loc 1 1004 9 is_stmt 1 view .LVU245
1004:lvgl/src/lv_widgets/lv_roller.c **** 
 801              		.loc 1 1004 25 is_stmt 0 view .LVU246
 802 0040 03EB4300 		add	r0, r3, r3, lsl #1
 803              	.LVL74:
ARM GAS  D:\Temp\ccqwJTgn.s 			page 46


1004:lvgl/src/lv_widgets/lv_roller.c **** 
 804              		.loc 1 1004 25 view .LVU247
 805 0044 80B2     		uxth	r0, r0
 806 0046 10FA82F2 		uxtah	r2, r0, r2
 807 004a 92B2     		uxth	r2, r2
 808 004c A4F84A20 		strh	r2, [r4, #74]	@ movhi
1006:lvgl/src/lv_widgets/lv_roller.c ****         ext->sel_opt_id_ori += (LV_ROLLER_INF_PAGES / 2) * real_id_cnt; /*Select the middle page*/
 809              		.loc 1 1006 9 is_stmt 1 view .LVU248
1006:lvgl/src/lv_widgets/lv_roller.c ****         ext->sel_opt_id_ori += (LV_ROLLER_INF_PAGES / 2) * real_id_cnt; /*Select the middle page*/
 810              		.loc 1 1006 29 is_stmt 0 view .LVU249
 811 0050 B2FBF3F1 		udiv	r1, r2, r3
 812 0054 03FB1123 		mls	r3, r3, r1, r2
 813              	.LVL75:
1007:lvgl/src/lv_widgets/lv_roller.c **** 
 814              		.loc 1 1007 9 is_stmt 1 view .LVU250
1007:lvgl/src/lv_widgets/lv_roller.c **** 
 815              		.loc 1 1007 29 is_stmt 0 view .LVU251
 816 0058 10FA83F3 		uxtah	r3, r0, r3
 817 005c A4F84C30 		strh	r3, [r4, #76]	@ movhi
1010:lvgl/src/lv_widgets/lv_roller.c ****         lv_style_int_t line_space = lv_obj_get_style_text_line_space(roller, LV_ROLLER_PART_BG);
 818              		.loc 1 1010 9 is_stmt 1 view .LVU252
 819              	.LVL76:
 820              	.LBB125:
 821              	.LBI125:
 822              		.loc 2 168 1 view .LVU253
 823              	.LBB126:
 824              		.loc 2 168 1 view .LVU254
 825 0060 48F28E02 		movw	r2, #32910
 826 0064 0021     		movs	r1, #0
 827 0066 2846     		mov	r0, r5
 828 0068 FFF7FEFF 		bl	_lv_obj_get_style_ptr
 829              	.LVL77:
 830              		.loc 2 168 1 is_stmt 0 view .LVU255
 831 006c 8046     		mov	r8, r0
 832              	.LVL78:
 833              		.loc 2 168 1 view .LVU256
 834              	.LBE126:
 835              	.LBE125:
1011:lvgl/src/lv_widgets/lv_roller.c ****         lv_coord_t font_h              = lv_font_get_line_height(font);
 836              		.loc 1 1011 9 is_stmt 1 view .LVU257
 837              	.LBB127:
 838              	.LBI127:
 161:lvgl/src/lv_widgets/../lv_core/lv_obj_style_dec.h **** _LV_OBJ_STYLE_SET_GET_DECLARE(TEXT_DECOR, text_decor, lv_text_decor_t, _int, scalar)
 839              		.loc 2 161 1 view .LVU258
 840              	.LBB128:
 161:lvgl/src/lv_widgets/../lv_core/lv_obj_style_dec.h **** _LV_OBJ_STYLE_SET_GET_DECLARE(TEXT_DECOR, text_decor, lv_text_decor_t, _int, scalar)
 841              		.loc 2 161 1 view .LVU259
 842 006e 48F28102 		movw	r2, #32897
 843 0072 0021     		movs	r1, #0
 844 0074 2846     		mov	r0, r5
 845              	.LVL79:
 161:lvgl/src/lv_widgets/../lv_core/lv_obj_style_dec.h **** _LV_OBJ_STYLE_SET_GET_DECLARE(TEXT_DECOR, text_decor, lv_text_decor_t, _int, scalar)
 846              		.loc 2 161 1 is_stmt 0 view .LVU260
 847 0076 FFF7FEFF 		bl	_lv_obj_get_style_int
 848              	.LVL80:
 849 007a 0746     		mov	r7, r0
 850              	.LVL81:
ARM GAS  D:\Temp\ccqwJTgn.s 			page 47


 161:lvgl/src/lv_widgets/../lv_core/lv_obj_style_dec.h **** _LV_OBJ_STYLE_SET_GET_DECLARE(TEXT_DECOR, text_decor, lv_text_decor_t, _int, scalar)
 851              		.loc 2 161 1 view .LVU261
 852              	.LBE128:
 853              	.LBE127:
1012:lvgl/src/lv_widgets/lv_roller.c ****         lv_coord_t h                   = lv_obj_get_height(roller);
 854              		.loc 1 1012 9 is_stmt 1 view .LVU262
 855              	.LBB129:
 856              	.LBI129:
 116:lvgl/src/lv_widgets/../lv_core/../lv_font/lv_font.h **** {
 857              		.loc 3 116 26 view .LVU263
 858              	.LBB130:
 859              		.loc 3 118 5 view .LVU264
 860              		.loc 3 118 18 is_stmt 0 view .LVU265
 861 007c B8F90890 		ldrsh	r9, [r8, #8]
 862              	.LVL82:
 863              		.loc 3 118 18 view .LVU266
 864              	.LBE130:
 865              	.LBE129:
1013:lvgl/src/lv_widgets/lv_roller.c **** 
 866              		.loc 1 1013 9 is_stmt 1 view .LVU267
1013:lvgl/src/lv_widgets/lv_roller.c **** 
 867              		.loc 1 1013 42 is_stmt 0 view .LVU268
 868 0080 2846     		mov	r0, r5
 869 0082 FFF7FEFF 		bl	lv_obj_get_height
 870              	.LVL83:
 871 0086 8046     		mov	r8, r0
 872              	.LVL84:
1015:lvgl/src/lv_widgets/lv_roller.c **** 
 873              		.loc 1 1015 9 is_stmt 1 view .LVU269
1015:lvgl/src/lv_widgets/lv_roller.c **** 
 874              		.loc 1 1015 28 is_stmt 0 view .LVU270
 875 0088 2846     		mov	r0, r5
 876 008a FFF7FEFF 		bl	get_label
 877              	.LVL85:
1017:lvgl/src/lv_widgets/lv_roller.c ****         lv_coord_t new_y = -line_y1 + (h - font_h) / 2;
 878              		.loc 1 1017 9 is_stmt 1 view .LVU271
1017:lvgl/src/lv_widgets/lv_roller.c ****         lv_coord_t new_y = -line_y1 + (h - font_h) / 2;
 879              		.loc 1 1017 33 is_stmt 0 view .LVU272
 880 008e B4F84A30 		ldrh	r3, [r4, #74]
1017:lvgl/src/lv_widgets/lv_roller.c ****         lv_coord_t new_y = -line_y1 + (h - font_h) / 2;
 881              		.loc 1 1017 56 view .LVU273
 882 0092 4F44     		add	r7, r7, r9
 883              	.LVL86:
1017:lvgl/src/lv_widgets/lv_roller.c ****         lv_coord_t new_y = -line_y1 + (h - font_h) / 2;
 884              		.loc 1 1017 85 view .LVU274
 885 0094 418A     		ldrh	r1, [r0, #18]
1017:lvgl/src/lv_widgets/lv_roller.c ****         lv_coord_t new_y = -line_y1 + (h - font_h) / 2;
 886              		.loc 1 1017 70 view .LVU275
 887 0096 17FB0317 		smlabb	r7, r7, r3, r1
 888 009a BFB2     		uxth	r7, r7
1017:lvgl/src/lv_widgets/lv_roller.c ****         lv_coord_t new_y = -line_y1 + (h - font_h) / 2;
 889              		.loc 1 1017 110 view .LVU276
 890 009c 718A     		ldrh	r1, [r6, #18]
 891              	.LVL87:
1018:lvgl/src/lv_widgets/lv_roller.c ****         lv_obj_set_y(roller_scrl, new_y);
 892              		.loc 1 1018 9 is_stmt 1 view .LVU277
1018:lvgl/src/lv_widgets/lv_roller.c ****         lv_obj_set_y(roller_scrl, new_y);
ARM GAS  D:\Temp\ccqwJTgn.s 			page 48


 893              		.loc 1 1018 42 is_stmt 0 view .LVU278
 894 009e A8EB0908 		sub	r8, r8, r9
 895              	.LVL88:
1018:lvgl/src/lv_widgets/lv_roller.c ****         lv_obj_set_y(roller_scrl, new_y);
 896              		.loc 1 1018 52 view .LVU279
 897 00a2 08EBD878 		add	r8, r8, r8, lsr #31
1018:lvgl/src/lv_widgets/lv_roller.c ****         lv_obj_set_y(roller_scrl, new_y);
 898              		.loc 1 1018 37 view .LVU280
 899 00a6 CF1B     		subs	r7, r1, r7
 900              	.LVL89:
1018:lvgl/src/lv_widgets/lv_roller.c ****         lv_obj_set_y(roller_scrl, new_y);
 901              		.loc 1 1018 37 view .LVU281
 902 00a8 07EB6808 		add	r8, r7, r8, asr #1
 903              	.LVL90:
1019:lvgl/src/lv_widgets/lv_roller.c ****     }
 904              		.loc 1 1019 9 is_stmt 1 view .LVU282
 905 00ac 0FFA88F1 		sxth	r1, r8
 906 00b0 3046     		mov	r0, r6
 907              	.LVL91:
1019:lvgl/src/lv_widgets/lv_roller.c ****     }
 908              		.loc 1 1019 9 is_stmt 0 view .LVU283
 909 00b2 FFF7FEFF 		bl	lv_obj_set_y
 910              	.LVL92:
 911              	.LBE124:
1021:lvgl/src/lv_widgets/lv_roller.c **** 
 912              		.loc 1 1021 1 view .LVU284
 913 00b6 B0E7     		b	.L39
 914              	.L44:
 915              		.align	2
 916              	.L43:
 917 00b8 25499224 		.word	613566757
 918              		.cfi_endproc
 919              	.LFE497:
 921              		.section	.text.scroll_anim_ready_cb,"ax",%progbits
 922              		.align	1
 923              		.syntax unified
 924              		.thumb
 925              		.thumb_func
 926              		.fpu fpv4-sp-d16
 928              	scroll_anim_ready_cb:
 929              	.LVL93:
 930              	.LFB499:
1029:lvgl/src/lv_widgets/lv_roller.c **** 
1030:lvgl/src/lv_widgets/lv_roller.c **** #if LV_USE_ANIMATION
1031:lvgl/src/lv_widgets/lv_roller.c **** static void scroll_anim_ready_cb(lv_anim_t * a)
1032:lvgl/src/lv_widgets/lv_roller.c **** {
 931              		.loc 1 1032 1 is_stmt 1 view -0
 932              		.cfi_startproc
 933              		@ args = 0, pretend = 0, frame = 0
 934              		@ frame_needed = 0, uses_anonymous_args = 0
 935              		.loc 1 1032 1 is_stmt 0 view .LVU286
 936 0000 08B5     		push	{r3, lr}
 937              	.LCFI11:
 938              		.cfi_def_cfa_offset 8
 939              		.cfi_offset 3, -8
 940              		.cfi_offset 14, -4
1033:lvgl/src/lv_widgets/lv_roller.c ****     inf_normalize(a->var);
ARM GAS  D:\Temp\ccqwJTgn.s 			page 49


 941              		.loc 1 1033 5 is_stmt 1 view .LVU287
 942 0002 0068     		ldr	r0, [r0]
 943              	.LVL94:
 944              		.loc 1 1033 5 is_stmt 0 view .LVU288
 945 0004 FFF7FEFF 		bl	inf_normalize
 946              	.LVL95:
1034:lvgl/src/lv_widgets/lv_roller.c **** }
 947              		.loc 1 1034 1 view .LVU289
 948 0008 08BD     		pop	{r3, pc}
 949              		.cfi_endproc
 950              	.LFE499:
 952              		.section	.text.refr_position,"ax",%progbits
 953              		.align	1
 954              		.syntax unified
 955              		.thumb
 956              		.thumb_func
 957              		.fpu fpv4-sp-d16
 959              	refr_position:
 960              	.LVL96:
 961              	.LFB493:
 833:lvgl/src/lv_widgets/lv_roller.c **** #if LV_USE_ANIMATION == 0
 962              		.loc 1 833 1 is_stmt 1 view -0
 963              		.cfi_startproc
 964              		@ args = 0, pretend = 0, frame = 72
 965              		@ frame_needed = 0, uses_anonymous_args = 0
 833:lvgl/src/lv_widgets/lv_roller.c **** #if LV_USE_ANIMATION == 0
 966              		.loc 1 833 1 is_stmt 0 view .LVU291
 967 0000 2DE9F04F 		push	{r4, r5, r6, r7, r8, r9, r10, fp, lr}
 968              	.LCFI12:
 969              		.cfi_def_cfa_offset 36
 970              		.cfi_offset 4, -36
 971              		.cfi_offset 5, -32
 972              		.cfi_offset 6, -28
 973              		.cfi_offset 7, -24
 974              		.cfi_offset 8, -20
 975              		.cfi_offset 9, -16
 976              		.cfi_offset 10, -12
 977              		.cfi_offset 11, -8
 978              		.cfi_offset 14, -4
 979 0004 93B0     		sub	sp, sp, #76
 980              	.LCFI13:
 981              		.cfi_def_cfa_offset 112
 982 0006 8246     		mov	r10, r0
 983 0008 0F46     		mov	r7, r1
 838:lvgl/src/lv_widgets/lv_roller.c ****     lv_roller_ext_t * ext          = lv_obj_get_ext_attr(roller);
 984              		.loc 1 838 5 is_stmt 1 view .LVU292
 838:lvgl/src/lv_widgets/lv_roller.c ****     lv_roller_ext_t * ext          = lv_obj_get_ext_attr(roller);
 985              		.loc 1 838 38 is_stmt 0 view .LVU293
 986 000a FFF7FEFF 		bl	lv_page_get_scrollable
 987              	.LVL97:
 838:lvgl/src/lv_widgets/lv_roller.c ****     lv_roller_ext_t * ext          = lv_obj_get_ext_attr(roller);
 988              		.loc 1 838 38 view .LVU294
 989 000e 0646     		mov	r6, r0
 990              	.LVL98:
 839:lvgl/src/lv_widgets/lv_roller.c ****     const lv_font_t * font = lv_obj_get_style_text_font(roller, LV_ROLLER_PART_BG);
 991              		.loc 1 839 5 is_stmt 1 view .LVU295
 839:lvgl/src/lv_widgets/lv_roller.c ****     const lv_font_t * font = lv_obj_get_style_text_font(roller, LV_ROLLER_PART_BG);
ARM GAS  D:\Temp\ccqwJTgn.s 			page 50


 992              		.loc 1 839 38 is_stmt 0 view .LVU296
 993 0010 5046     		mov	r0, r10
 994              	.LVL99:
 839:lvgl/src/lv_widgets/lv_roller.c ****     const lv_font_t * font = lv_obj_get_style_text_font(roller, LV_ROLLER_PART_BG);
 995              		.loc 1 839 38 view .LVU297
 996 0012 FFF7FEFF 		bl	lv_obj_get_ext_attr
 997              	.LVL100:
 998 0016 8346     		mov	fp, r0
 999              	.LVL101:
 840:lvgl/src/lv_widgets/lv_roller.c ****     lv_style_int_t line_space = lv_obj_get_style_text_line_space(roller, LV_ROLLER_PART_BG);
 1000              		.loc 1 840 5 is_stmt 1 view .LVU298
 1001              	.LBB131:
 1002              	.LBI131:
 1003              		.loc 2 168 1 view .LVU299
 1004              	.LBB132:
 1005              		.loc 2 168 1 view .LVU300
 1006 0018 48F28E02 		movw	r2, #32910
 1007 001c 0021     		movs	r1, #0
 1008 001e 5046     		mov	r0, r10
 1009              	.LVL102:
 1010              		.loc 2 168 1 is_stmt 0 view .LVU301
 1011 0020 FFF7FEFF 		bl	_lv_obj_get_style_ptr
 1012              	.LVL103:
 1013 0024 0546     		mov	r5, r0
 1014              	.LVL104:
 1015              		.loc 2 168 1 view .LVU302
 1016              	.LBE132:
 1017              	.LBE131:
 841:lvgl/src/lv_widgets/lv_roller.c ****     lv_coord_t font_h              = lv_font_get_line_height(font);
 1018              		.loc 1 841 5 is_stmt 1 view .LVU303
 1019              	.LBB133:
 1020              	.LBI133:
 161:lvgl/src/lv_widgets/../lv_core/lv_obj_style_dec.h **** _LV_OBJ_STYLE_SET_GET_DECLARE(TEXT_DECOR, text_decor, lv_text_decor_t, _int, scalar)
 1021              		.loc 2 161 1 view .LVU304
 1022              	.LBB134:
 161:lvgl/src/lv_widgets/../lv_core/lv_obj_style_dec.h **** _LV_OBJ_STYLE_SET_GET_DECLARE(TEXT_DECOR, text_decor, lv_text_decor_t, _int, scalar)
 1023              		.loc 2 161 1 view .LVU305
 1024 0026 48F28102 		movw	r2, #32897
 1025 002a 0021     		movs	r1, #0
 1026 002c 5046     		mov	r0, r10
 1027              	.LVL105:
 161:lvgl/src/lv_widgets/../lv_core/lv_obj_style_dec.h **** _LV_OBJ_STYLE_SET_GET_DECLARE(TEXT_DECOR, text_decor, lv_text_decor_t, _int, scalar)
 1028              		.loc 2 161 1 is_stmt 0 view .LVU306
 1029 002e FFF7FEFF 		bl	_lv_obj_get_style_int
 1030              	.LVL106:
 1031 0032 0446     		mov	r4, r0
 1032              	.LVL107:
 161:lvgl/src/lv_widgets/../lv_core/lv_obj_style_dec.h **** _LV_OBJ_STYLE_SET_GET_DECLARE(TEXT_DECOR, text_decor, lv_text_decor_t, _int, scalar)
 1033              		.loc 2 161 1 view .LVU307
 1034              	.LBE134:
 1035              	.LBE133:
 842:lvgl/src/lv_widgets/lv_roller.c ****     lv_coord_t h                   = lv_obj_get_height(roller);
 1036              		.loc 1 842 5 is_stmt 1 view .LVU308
 1037              	.LBB135:
 1038              	.LBI135:
 116:lvgl/src/lv_widgets/../lv_core/../lv_font/lv_font.h **** {
 1039              		.loc 3 116 26 view .LVU309
ARM GAS  D:\Temp\ccqwJTgn.s 			page 51


 1040              	.LBB136:
 1041              		.loc 3 118 5 view .LVU310
 1042              		.loc 3 118 18 is_stmt 0 view .LVU311
 1043 0034 B5F90880 		ldrsh	r8, [r5, #8]
 1044              	.LVL108:
 1045              		.loc 3 118 18 view .LVU312
 1046              	.LBE136:
 1047              	.LBE135:
 843:lvgl/src/lv_widgets/lv_roller.c ****     uint16_t anim_time             = lv_roller_get_anim_time(roller);
 1048              		.loc 1 843 5 is_stmt 1 view .LVU313
 843:lvgl/src/lv_widgets/lv_roller.c ****     uint16_t anim_time             = lv_roller_get_anim_time(roller);
 1049              		.loc 1 843 38 is_stmt 0 view .LVU314
 1050 0038 5046     		mov	r0, r10
 1051 003a FFF7FEFF 		bl	lv_obj_get_height
 1052              	.LVL109:
 1053 003e 0546     		mov	r5, r0
 1054              	.LVL110:
 844:lvgl/src/lv_widgets/lv_roller.c **** 
 1055              		.loc 1 844 5 is_stmt 1 view .LVU315
 1056              	.LBB137:
 1057              	.LBI137:
 1058              		.file 6 "lvgl/src/lv_widgets/lv_roller.h"
   1:lvgl/src/lv_widgets/lv_roller.h **** /**
   2:lvgl/src/lv_widgets/lv_roller.h ****  * @file lv_roller.h
   3:lvgl/src/lv_widgets/lv_roller.h ****  *
   4:lvgl/src/lv_widgets/lv_roller.h ****  */
   5:lvgl/src/lv_widgets/lv_roller.h **** 
   6:lvgl/src/lv_widgets/lv_roller.h **** #ifndef LV_ROLLER_H
   7:lvgl/src/lv_widgets/lv_roller.h **** #define LV_ROLLER_H
   8:lvgl/src/lv_widgets/lv_roller.h **** 
   9:lvgl/src/lv_widgets/lv_roller.h **** #ifdef __cplusplus
  10:lvgl/src/lv_widgets/lv_roller.h **** extern "C" {
  11:lvgl/src/lv_widgets/lv_roller.h **** #endif
  12:lvgl/src/lv_widgets/lv_roller.h **** 
  13:lvgl/src/lv_widgets/lv_roller.h **** /*********************
  14:lvgl/src/lv_widgets/lv_roller.h ****  *      INCLUDES
  15:lvgl/src/lv_widgets/lv_roller.h ****  *********************/
  16:lvgl/src/lv_widgets/lv_roller.h **** #include "../lv_conf_internal.h"
  17:lvgl/src/lv_widgets/lv_roller.h **** 
  18:lvgl/src/lv_widgets/lv_roller.h **** #if LV_USE_ROLLER != 0
  19:lvgl/src/lv_widgets/lv_roller.h **** 
  20:lvgl/src/lv_widgets/lv_roller.h **** /*Testing of dependencies*/
  21:lvgl/src/lv_widgets/lv_roller.h **** #if LV_USE_PAGE == 0
  22:lvgl/src/lv_widgets/lv_roller.h **** #error "lv_roller: lv_page is required. Enable it in lv_conf.h (LV_USE_PAGE 1)"
  23:lvgl/src/lv_widgets/lv_roller.h **** #endif
  24:lvgl/src/lv_widgets/lv_roller.h **** 
  25:lvgl/src/lv_widgets/lv_roller.h **** #include "../lv_core/lv_obj.h"
  26:lvgl/src/lv_widgets/lv_roller.h **** #include "lv_page.h"
  27:lvgl/src/lv_widgets/lv_roller.h **** #include "lv_label.h"
  28:lvgl/src/lv_widgets/lv_roller.h **** 
  29:lvgl/src/lv_widgets/lv_roller.h **** /*********************
  30:lvgl/src/lv_widgets/lv_roller.h ****  *      DEFINES
  31:lvgl/src/lv_widgets/lv_roller.h ****  *********************/
  32:lvgl/src/lv_widgets/lv_roller.h **** 
  33:lvgl/src/lv_widgets/lv_roller.h **** /**********************
  34:lvgl/src/lv_widgets/lv_roller.h ****  *      TYPEDEFS
  35:lvgl/src/lv_widgets/lv_roller.h ****  **********************/
ARM GAS  D:\Temp\ccqwJTgn.s 			page 52


  36:lvgl/src/lv_widgets/lv_roller.h **** 
  37:lvgl/src/lv_widgets/lv_roller.h **** /** Roller mode. */
  38:lvgl/src/lv_widgets/lv_roller.h **** enum {
  39:lvgl/src/lv_widgets/lv_roller.h ****     LV_ROLLER_MODE_NORMAL, /**< Normal mode (roller ends at the end of the options). */
  40:lvgl/src/lv_widgets/lv_roller.h ****     LV_ROLLER_MODE_INFINITE, /**< Infinite mode (roller can be scrolled forever). */
  41:lvgl/src/lv_widgets/lv_roller.h **** };
  42:lvgl/src/lv_widgets/lv_roller.h **** 
  43:lvgl/src/lv_widgets/lv_roller.h **** typedef uint8_t lv_roller_mode_t;
  44:lvgl/src/lv_widgets/lv_roller.h **** 
  45:lvgl/src/lv_widgets/lv_roller.h **** /*Data of roller*/
  46:lvgl/src/lv_widgets/lv_roller.h **** typedef struct {
  47:lvgl/src/lv_widgets/lv_roller.h ****     lv_page_ext_t page; /*Ext. of ancestor*/
  48:lvgl/src/lv_widgets/lv_roller.h **** 
  49:lvgl/src/lv_widgets/lv_roller.h ****     /*New data for this type */
  50:lvgl/src/lv_widgets/lv_roller.h ****     lv_style_list_t style_sel; /*Style of the selected option*/
  51:lvgl/src/lv_widgets/lv_roller.h ****     uint16_t option_cnt;          /*Number of options*/
  52:lvgl/src/lv_widgets/lv_roller.h ****     uint16_t sel_opt_id;          /*Index of the current option*/
  53:lvgl/src/lv_widgets/lv_roller.h ****     uint16_t sel_opt_id_ori;      /*Store the original index on focus*/
  54:lvgl/src/lv_widgets/lv_roller.h ****     lv_roller_mode_t mode : 1;
  55:lvgl/src/lv_widgets/lv_roller.h ****     uint8_t auto_fit : 1;         /*1: Automatically set the width*/
  56:lvgl/src/lv_widgets/lv_roller.h **** } lv_roller_ext_t;
  57:lvgl/src/lv_widgets/lv_roller.h **** 
  58:lvgl/src/lv_widgets/lv_roller.h **** enum {
  59:lvgl/src/lv_widgets/lv_roller.h ****     LV_ROLLER_PART_BG = LV_PAGE_PART_BG,
  60:lvgl/src/lv_widgets/lv_roller.h ****     LV_ROLLER_PART_SELECTED = _LV_PAGE_PART_VIRTUAL_LAST,
  61:lvgl/src/lv_widgets/lv_roller.h ****     _LV_ROLLER_PART_VIRTUAL_LAST,
  62:lvgl/src/lv_widgets/lv_roller.h **** };
  63:lvgl/src/lv_widgets/lv_roller.h **** typedef uint8_t lv_roller_part_t;
  64:lvgl/src/lv_widgets/lv_roller.h **** 
  65:lvgl/src/lv_widgets/lv_roller.h **** /**********************
  66:lvgl/src/lv_widgets/lv_roller.h ****  * GLOBAL PROTOTYPES
  67:lvgl/src/lv_widgets/lv_roller.h ****  **********************/
  68:lvgl/src/lv_widgets/lv_roller.h **** 
  69:lvgl/src/lv_widgets/lv_roller.h **** /**
  70:lvgl/src/lv_widgets/lv_roller.h ****  * Create a roller object
  71:lvgl/src/lv_widgets/lv_roller.h ****  * @param par pointer to an object, it will be the parent of the new roller
  72:lvgl/src/lv_widgets/lv_roller.h ****  * @param copy pointer to a roller object, if not NULL then the new object will be copied from it
  73:lvgl/src/lv_widgets/lv_roller.h ****  * @return pointer to the created roller
  74:lvgl/src/lv_widgets/lv_roller.h ****  */
  75:lvgl/src/lv_widgets/lv_roller.h **** lv_obj_t * lv_roller_create(lv_obj_t * par, const lv_obj_t * copy);
  76:lvgl/src/lv_widgets/lv_roller.h **** 
  77:lvgl/src/lv_widgets/lv_roller.h **** /*=====================
  78:lvgl/src/lv_widgets/lv_roller.h ****  * Setter functions
  79:lvgl/src/lv_widgets/lv_roller.h ****  *====================*/
  80:lvgl/src/lv_widgets/lv_roller.h **** 
  81:lvgl/src/lv_widgets/lv_roller.h **** /**
  82:lvgl/src/lv_widgets/lv_roller.h ****  * Set the options on a roller
  83:lvgl/src/lv_widgets/lv_roller.h ****  * @param roller pointer to roller object
  84:lvgl/src/lv_widgets/lv_roller.h ****  * @param options a string with '\n' separated options. E.g. "One\nTwo\nThree"
  85:lvgl/src/lv_widgets/lv_roller.h ****  * @param mode `LV_ROLLER_MODE_NORMAL` or `LV_ROLLER_MODE_INFINITE`
  86:lvgl/src/lv_widgets/lv_roller.h ****  */
  87:lvgl/src/lv_widgets/lv_roller.h **** void lv_roller_set_options(lv_obj_t * roller, const char * options, lv_roller_mode_t mode);
  88:lvgl/src/lv_widgets/lv_roller.h **** 
  89:lvgl/src/lv_widgets/lv_roller.h **** /**
  90:lvgl/src/lv_widgets/lv_roller.h ****  * Set the align of the roller's options (left, right or center[default])
  91:lvgl/src/lv_widgets/lv_roller.h ****  * @param roller - pointer to a roller object
  92:lvgl/src/lv_widgets/lv_roller.h ****  * @param align - one of lv_label_align_t values (left, right, center)
ARM GAS  D:\Temp\ccqwJTgn.s 			page 53


  93:lvgl/src/lv_widgets/lv_roller.h ****  */
  94:lvgl/src/lv_widgets/lv_roller.h **** void lv_roller_set_align(lv_obj_t * roller, lv_label_align_t align);
  95:lvgl/src/lv_widgets/lv_roller.h **** 
  96:lvgl/src/lv_widgets/lv_roller.h **** /**
  97:lvgl/src/lv_widgets/lv_roller.h ****  * Set the selected option
  98:lvgl/src/lv_widgets/lv_roller.h ****  * @param roller pointer to a roller object
  99:lvgl/src/lv_widgets/lv_roller.h ****  * @param sel_opt id of the selected option (0 ... number of option - 1);
 100:lvgl/src/lv_widgets/lv_roller.h ****  * @param anim LV_ANIM_ON: set with animation; LV_ANIM_OFF set immediately
 101:lvgl/src/lv_widgets/lv_roller.h ****  */
 102:lvgl/src/lv_widgets/lv_roller.h **** void lv_roller_set_selected(lv_obj_t * roller, uint16_t sel_opt, lv_anim_enable_t anim);
 103:lvgl/src/lv_widgets/lv_roller.h **** 
 104:lvgl/src/lv_widgets/lv_roller.h **** /**
 105:lvgl/src/lv_widgets/lv_roller.h ****  * Set the height to show the given number of rows (options)
 106:lvgl/src/lv_widgets/lv_roller.h ****  * @param roller pointer to a roller object
 107:lvgl/src/lv_widgets/lv_roller.h ****  * @param row_cnt number of desired visible rows
 108:lvgl/src/lv_widgets/lv_roller.h ****  */
 109:lvgl/src/lv_widgets/lv_roller.h **** void lv_roller_set_visible_row_count(lv_obj_t * roller, uint8_t row_cnt);
 110:lvgl/src/lv_widgets/lv_roller.h **** 
 111:lvgl/src/lv_widgets/lv_roller.h **** /**
 112:lvgl/src/lv_widgets/lv_roller.h ****  * Allow automatically setting the width of roller according to it's content.
 113:lvgl/src/lv_widgets/lv_roller.h ****  * @param roller pointer to a roller object
 114:lvgl/src/lv_widgets/lv_roller.h ****  * @param auto_fit true: enable auto fit
 115:lvgl/src/lv_widgets/lv_roller.h ****  */
 116:lvgl/src/lv_widgets/lv_roller.h **** void lv_roller_set_auto_fit(lv_obj_t * roller, bool auto_fit);
 117:lvgl/src/lv_widgets/lv_roller.h **** 
 118:lvgl/src/lv_widgets/lv_roller.h **** /**
 119:lvgl/src/lv_widgets/lv_roller.h ****  * Set the open/close animation time.
 120:lvgl/src/lv_widgets/lv_roller.h ****  * @param roller pointer to a roller object
 121:lvgl/src/lv_widgets/lv_roller.h ****  * @param anim_time: open/close animation time [ms]
 122:lvgl/src/lv_widgets/lv_roller.h ****  */
 123:lvgl/src/lv_widgets/lv_roller.h **** static inline void lv_roller_set_anim_time(lv_obj_t * roller, uint16_t anim_time)
 124:lvgl/src/lv_widgets/lv_roller.h **** {
 125:lvgl/src/lv_widgets/lv_roller.h ****     lv_page_set_anim_time(roller, anim_time);
 126:lvgl/src/lv_widgets/lv_roller.h **** }
 127:lvgl/src/lv_widgets/lv_roller.h **** 
 128:lvgl/src/lv_widgets/lv_roller.h **** /*=====================
 129:lvgl/src/lv_widgets/lv_roller.h ****  * Getter functions
 130:lvgl/src/lv_widgets/lv_roller.h ****  *====================*/
 131:lvgl/src/lv_widgets/lv_roller.h **** /**
 132:lvgl/src/lv_widgets/lv_roller.h ****  * Get the id of the selected option
 133:lvgl/src/lv_widgets/lv_roller.h ****  * @param roller pointer to a roller object
 134:lvgl/src/lv_widgets/lv_roller.h ****  * @return id of the selected option (0 ... number of option - 1);
 135:lvgl/src/lv_widgets/lv_roller.h ****  */
 136:lvgl/src/lv_widgets/lv_roller.h **** uint16_t lv_roller_get_selected(const lv_obj_t * roller);
 137:lvgl/src/lv_widgets/lv_roller.h **** 
 138:lvgl/src/lv_widgets/lv_roller.h **** /**
 139:lvgl/src/lv_widgets/lv_roller.h ****  * Get the total number of options
 140:lvgl/src/lv_widgets/lv_roller.h ****  * @param roller pointer to a roller object
 141:lvgl/src/lv_widgets/lv_roller.h ****  * @return the total number of options in the list
 142:lvgl/src/lv_widgets/lv_roller.h ****  */
 143:lvgl/src/lv_widgets/lv_roller.h **** uint16_t lv_roller_get_option_cnt(const lv_obj_t * roller);
 144:lvgl/src/lv_widgets/lv_roller.h **** 
 145:lvgl/src/lv_widgets/lv_roller.h **** /**
 146:lvgl/src/lv_widgets/lv_roller.h ****  * Get the current selected option as a string
 147:lvgl/src/lv_widgets/lv_roller.h ****  * @param roller pointer to roller object
 148:lvgl/src/lv_widgets/lv_roller.h ****  * @param buf pointer to an array to store the string
 149:lvgl/src/lv_widgets/lv_roller.h ****  * @param buf_size size of `buf` in bytes. 0: to ignore it.
ARM GAS  D:\Temp\ccqwJTgn.s 			page 54


 150:lvgl/src/lv_widgets/lv_roller.h ****  */
 151:lvgl/src/lv_widgets/lv_roller.h **** void lv_roller_get_selected_str(const lv_obj_t * roller, char * buf, uint32_t buf_size);
 152:lvgl/src/lv_widgets/lv_roller.h **** 
 153:lvgl/src/lv_widgets/lv_roller.h **** /**
 154:lvgl/src/lv_widgets/lv_roller.h ****  * Get the align attribute. Default alignment after _create is LV_LABEL_ALIGN_CENTER
 155:lvgl/src/lv_widgets/lv_roller.h ****  * @param roller pointer to a roller object
 156:lvgl/src/lv_widgets/lv_roller.h ****  * @return LV_LABEL_ALIGN_LEFT, LV_LABEL_ALIGN_RIGHT or LV_LABEL_ALIGN_CENTER
 157:lvgl/src/lv_widgets/lv_roller.h ****  */
 158:lvgl/src/lv_widgets/lv_roller.h **** lv_label_align_t lv_roller_get_align(const lv_obj_t * roller);
 159:lvgl/src/lv_widgets/lv_roller.h **** 
 160:lvgl/src/lv_widgets/lv_roller.h **** /**
 161:lvgl/src/lv_widgets/lv_roller.h ****  * Get whether the auto fit option is enabled or not.
 162:lvgl/src/lv_widgets/lv_roller.h ****  * @param roller pointer to a roller object
 163:lvgl/src/lv_widgets/lv_roller.h ****  * @return true: auto fit is enabled
 164:lvgl/src/lv_widgets/lv_roller.h ****  */
 165:lvgl/src/lv_widgets/lv_roller.h **** bool lv_roller_get_auto_fit(lv_obj_t * roller);
 166:lvgl/src/lv_widgets/lv_roller.h **** 
 167:lvgl/src/lv_widgets/lv_roller.h **** /**
 168:lvgl/src/lv_widgets/lv_roller.h ****  * Get the options of a roller
 169:lvgl/src/lv_widgets/lv_roller.h ****  * @param roller pointer to roller object
 170:lvgl/src/lv_widgets/lv_roller.h ****  * @return the options separated by '\n'-s (E.g. "Option1\nOption2\nOption3")
 171:lvgl/src/lv_widgets/lv_roller.h ****  */
 172:lvgl/src/lv_widgets/lv_roller.h **** const char * lv_roller_get_options(const lv_obj_t * roller);
 173:lvgl/src/lv_widgets/lv_roller.h **** 
 174:lvgl/src/lv_widgets/lv_roller.h **** /**
 175:lvgl/src/lv_widgets/lv_roller.h ****  * Get the open/close animation time.
 176:lvgl/src/lv_widgets/lv_roller.h ****  * @param roller pointer to a roller
 177:lvgl/src/lv_widgets/lv_roller.h ****  * @return open/close animation time [ms]
 178:lvgl/src/lv_widgets/lv_roller.h ****  */
 179:lvgl/src/lv_widgets/lv_roller.h **** static inline uint16_t lv_roller_get_anim_time(const lv_obj_t * roller)
 1059              		.loc 6 179 24 view .LVU316
 1060              	.LBB138:
 180:lvgl/src/lv_widgets/lv_roller.h **** {
 181:lvgl/src/lv_widgets/lv_roller.h ****     return lv_page_get_anim_time(roller);
 1061              		.loc 6 181 5 view .LVU317
 1062              		.loc 6 181 12 is_stmt 0 view .LVU318
 1063 0040 5046     		mov	r0, r10
 1064 0042 FFF7FEFF 		bl	lv_page_get_anim_time
 1065              	.LVL111:
 1066 0046 8146     		mov	r9, r0
 1067              	.LVL112:
 1068              		.loc 6 181 12 view .LVU319
 1069              	.LBE138:
 1070              	.LBE137:
 848:lvgl/src/lv_widgets/lv_roller.c ****         inf_normalize(roller_scrl);
 1071              		.loc 1 848 5 is_stmt 1 view .LVU320
 848:lvgl/src/lv_widgets/lv_roller.c ****         inf_normalize(roller_scrl);
 1072              		.loc 1 848 7 is_stmt 0 view .LVU321
 1073 0048 07B1     		cbz	r7, .L48
 848:lvgl/src/lv_widgets/lv_roller.c ****         inf_normalize(roller_scrl);
 1074              		.loc 1 848 31 discriminator 1 view .LVU322
 1075 004a 10B9     		cbnz	r0, .L49
 1076              	.L48:
 849:lvgl/src/lv_widgets/lv_roller.c ****     }
 1077              		.loc 1 849 9 is_stmt 1 view .LVU323
 1078 004c 3046     		mov	r0, r6
 1079              	.LVL113:
ARM GAS  D:\Temp\ccqwJTgn.s 			page 55


 849:lvgl/src/lv_widgets/lv_roller.c ****     }
 1080              		.loc 1 849 9 is_stmt 0 view .LVU324
 1081 004e FFF7FEFF 		bl	inf_normalize
 1082              	.LVL114:
 1083              	.L49:
 852:lvgl/src/lv_widgets/lv_roller.c **** 
 1084              		.loc 1 852 5 is_stmt 1 view .LVU325
 852:lvgl/src/lv_widgets/lv_roller.c **** 
 1085              		.loc 1 852 24 is_stmt 0 view .LVU326
 1086 0052 5046     		mov	r0, r10
 1087 0054 FFF7FEFF 		bl	get_label
 1088              	.LVL115:
 854:lvgl/src/lv_widgets/lv_roller.c ****     lv_coord_t line_y1 = id * (font_h + line_space) + label->coords.y1 - roller_scrl->coords.y1;
 1089              		.loc 1 854 5 is_stmt 1 view .LVU327
 854:lvgl/src/lv_widgets/lv_roller.c ****     lv_coord_t line_y1 = id * (font_h + line_space) + label->coords.y1 - roller_scrl->coords.y1;
 1090              		.loc 1 854 21 is_stmt 0 view .LVU328
 1091 0058 BBF84A20 		ldrh	r2, [fp, #74]
 1092              	.LVL116:
 855:lvgl/src/lv_widgets/lv_roller.c ****     lv_coord_t new_y = -line_y1 + (h - font_h) / 2;
 1093              		.loc 1 855 5 is_stmt 1 view .LVU329
 855:lvgl/src/lv_widgets/lv_roller.c ****     lv_coord_t new_y = -line_y1 + (h - font_h) / 2;
 1094              		.loc 1 855 39 is_stmt 0 view .LVU330
 1095 005c 4444     		add	r4, r4, r8
 1096              	.LVL117:
 855:lvgl/src/lv_widgets/lv_roller.c ****     lv_coord_t new_y = -line_y1 + (h - font_h) / 2;
 1097              		.loc 1 855 68 view .LVU331
 1098 005e 438A     		ldrh	r3, [r0, #18]
 855:lvgl/src/lv_widgets/lv_roller.c ****     lv_coord_t new_y = -line_y1 + (h - font_h) / 2;
 1099              		.loc 1 855 53 view .LVU332
 1100 0060 14FB0234 		smlabb	r4, r4, r2, r3
 1101 0064 A4B2     		uxth	r4, r4
 855:lvgl/src/lv_widgets/lv_roller.c ****     lv_coord_t new_y = -line_y1 + (h - font_h) / 2;
 1102              		.loc 1 855 93 view .LVU333
 1103 0066 738A     		ldrh	r3, [r6, #18]
 1104              	.LVL118:
 856:lvgl/src/lv_widgets/lv_roller.c **** 
 1105              		.loc 1 856 5 is_stmt 1 view .LVU334
 856:lvgl/src/lv_widgets/lv_roller.c **** 
 1106              		.loc 1 856 38 is_stmt 0 view .LVU335
 1107 0068 A5EB0805 		sub	r5, r5, r8
 1108              	.LVL119:
 856:lvgl/src/lv_widgets/lv_roller.c **** 
 1109              		.loc 1 856 48 view .LVU336
 1110 006c 05EBD575 		add	r5, r5, r5, lsr #31
 856:lvgl/src/lv_widgets/lv_roller.c **** 
 1111              		.loc 1 856 33 view .LVU337
 1112 0070 1C1B     		subs	r4, r3, r4
 1113              	.LVL120:
 856:lvgl/src/lv_widgets/lv_roller.c **** 
 1114              		.loc 1 856 33 view .LVU338
 1115 0072 04EB6504 		add	r4, r4, r5, asr #1
 856:lvgl/src/lv_widgets/lv_roller.c **** 
 1116              		.loc 1 856 16 view .LVU339
 1117 0076 24B2     		sxth	r4, r4
 1118              	.LVL121:
 858:lvgl/src/lv_widgets/lv_roller.c **** #if LV_USE_ANIMATION
 1119              		.loc 1 858 5 is_stmt 1 view .LVU340
ARM GAS  D:\Temp\ccqwJTgn.s 			page 56


 858:lvgl/src/lv_widgets/lv_roller.c **** #if LV_USE_ANIMATION
 1120              		.loc 1 858 7 is_stmt 0 view .LVU341
 1121 0078 17B1     		cbz	r7, .L50
 858:lvgl/src/lv_widgets/lv_roller.c **** #if LV_USE_ANIMATION
 1122              		.loc 1 858 31 discriminator 1 view .LVU342
 1123 007a B9F1000F 		cmp	r9, #0
 1124 007e 0AD1     		bne	.L51
 1125              	.L50:
 860:lvgl/src/lv_widgets/lv_roller.c **** #endif
 1126              		.loc 1 860 9 is_stmt 1 view .LVU343
 1127 0080 0F49     		ldr	r1, .L54
 1128 0082 3046     		mov	r0, r6
 1129              	.LVL122:
 860:lvgl/src/lv_widgets/lv_roller.c **** #endif
 1130              		.loc 1 860 9 is_stmt 0 view .LVU344
 1131 0084 FFF7FEFF 		bl	lv_anim_del
 1132              	.LVL123:
 862:lvgl/src/lv_widgets/lv_roller.c ****     }
 1133              		.loc 1 862 9 is_stmt 1 view .LVU345
 1134 0088 2146     		mov	r1, r4
 1135 008a 3046     		mov	r0, r6
 1136 008c FFF7FEFF 		bl	lv_obj_set_y
 1137              	.LVL124:
 1138              	.L47:
 876:lvgl/src/lv_widgets/lv_roller.c **** 
 1139              		.loc 1 876 1 is_stmt 0 view .LVU346
 1140 0090 13B0     		add	sp, sp, #76
 1141              	.LCFI14:
 1142              		.cfi_remember_state
 1143              		.cfi_def_cfa_offset 36
 1144              		@ sp needed
 1145 0092 BDE8F08F 		pop	{r4, r5, r6, r7, r8, r9, r10, fp, pc}
 1146              	.LVL125:
 1147              	.L51:
 1148              	.LCFI15:
 1149              		.cfi_restore_state
 1150              	.LBB139:
 866:lvgl/src/lv_widgets/lv_roller.c ****         lv_anim_init(&a);
 1151              		.loc 1 866 9 is_stmt 1 view .LVU347
 867:lvgl/src/lv_widgets/lv_roller.c ****         lv_anim_set_var(&a, roller_scrl);
 1152              		.loc 1 867 9 view .LVU348
 1153 0096 01A8     		add	r0, sp, #4
 1154              	.LVL126:
 867:lvgl/src/lv_widgets/lv_roller.c ****         lv_anim_set_var(&a, roller_scrl);
 1155              		.loc 1 867 9 is_stmt 0 view .LVU349
 1156 0098 FFF7FEFF 		bl	lv_anim_init
 1157              	.LVL127:
 868:lvgl/src/lv_widgets/lv_roller.c ****         lv_anim_set_exec_cb(&a, (lv_anim_exec_xcb_t)lv_obj_set_y);
 1158              		.loc 1 868 9 is_stmt 1 view .LVU350
 1159              	.LBB140:
 1160              	.LBI140:
 1161              		.file 7 "lvgl/src/lv_widgets/../lv_core/../lv_misc/lv_anim.h"
   1:lvgl/src/lv_widgets/../lv_core/../lv_misc/lv_anim.h **** /**
   2:lvgl/src/lv_widgets/../lv_core/../lv_misc/lv_anim.h ****  * @file anim.h
   3:lvgl/src/lv_widgets/../lv_core/../lv_misc/lv_anim.h ****  *
   4:lvgl/src/lv_widgets/../lv_core/../lv_misc/lv_anim.h ****  */
   5:lvgl/src/lv_widgets/../lv_core/../lv_misc/lv_anim.h **** 
ARM GAS  D:\Temp\ccqwJTgn.s 			page 57


   6:lvgl/src/lv_widgets/../lv_core/../lv_misc/lv_anim.h **** #ifndef ANIM_H
   7:lvgl/src/lv_widgets/../lv_core/../lv_misc/lv_anim.h **** #define ANIM_H
   8:lvgl/src/lv_widgets/../lv_core/../lv_misc/lv_anim.h **** 
   9:lvgl/src/lv_widgets/../lv_core/../lv_misc/lv_anim.h **** #ifdef __cplusplus
  10:lvgl/src/lv_widgets/../lv_core/../lv_misc/lv_anim.h **** extern "C" {
  11:lvgl/src/lv_widgets/../lv_core/../lv_misc/lv_anim.h **** #endif
  12:lvgl/src/lv_widgets/../lv_core/../lv_misc/lv_anim.h **** 
  13:lvgl/src/lv_widgets/../lv_core/../lv_misc/lv_anim.h **** /*********************
  14:lvgl/src/lv_widgets/../lv_core/../lv_misc/lv_anim.h ****  *      INCLUDES
  15:lvgl/src/lv_widgets/../lv_core/../lv_misc/lv_anim.h ****  *********************/
  16:lvgl/src/lv_widgets/../lv_core/../lv_misc/lv_anim.h **** #include "../lv_conf_internal.h"
  17:lvgl/src/lv_widgets/../lv_core/../lv_misc/lv_anim.h **** 
  18:lvgl/src/lv_widgets/../lv_core/../lv_misc/lv_anim.h **** #include <stdint.h>
  19:lvgl/src/lv_widgets/../lv_core/../lv_misc/lv_anim.h **** #include <stdbool.h>
  20:lvgl/src/lv_widgets/../lv_core/../lv_misc/lv_anim.h **** #include <string.h>
  21:lvgl/src/lv_widgets/../lv_core/../lv_misc/lv_anim.h **** #include "lv_mem.h"
  22:lvgl/src/lv_widgets/../lv_core/../lv_misc/lv_anim.h **** 
  23:lvgl/src/lv_widgets/../lv_core/../lv_misc/lv_anim.h **** /*********************
  24:lvgl/src/lv_widgets/../lv_core/../lv_misc/lv_anim.h ****  *      DEFINES
  25:lvgl/src/lv_widgets/../lv_core/../lv_misc/lv_anim.h ****  *********************/
  26:lvgl/src/lv_widgets/../lv_core/../lv_misc/lv_anim.h **** 
  27:lvgl/src/lv_widgets/../lv_core/../lv_misc/lv_anim.h **** /**********************
  28:lvgl/src/lv_widgets/../lv_core/../lv_misc/lv_anim.h ****  *      TYPEDEFS
  29:lvgl/src/lv_widgets/../lv_core/../lv_misc/lv_anim.h ****  **********************/
  30:lvgl/src/lv_widgets/../lv_core/../lv_misc/lv_anim.h **** 
  31:lvgl/src/lv_widgets/../lv_core/../lv_misc/lv_anim.h **** /** Can be used to indicate if animations are enabled or disabled in a case*/
  32:lvgl/src/lv_widgets/../lv_core/../lv_misc/lv_anim.h **** enum {
  33:lvgl/src/lv_widgets/../lv_core/../lv_misc/lv_anim.h ****     LV_ANIM_OFF,
  34:lvgl/src/lv_widgets/../lv_core/../lv_misc/lv_anim.h ****     LV_ANIM_ON,
  35:lvgl/src/lv_widgets/../lv_core/../lv_misc/lv_anim.h **** };
  36:lvgl/src/lv_widgets/../lv_core/../lv_misc/lv_anim.h **** 
  37:lvgl/src/lv_widgets/../lv_core/../lv_misc/lv_anim.h **** typedef uint8_t lv_anim_enable_t;
  38:lvgl/src/lv_widgets/../lv_core/../lv_misc/lv_anim.h **** 
  39:lvgl/src/lv_widgets/../lv_core/../lv_misc/lv_anim.h **** /** Type of the animated value*/
  40:lvgl/src/lv_widgets/../lv_core/../lv_misc/lv_anim.h **** typedef lv_coord_t lv_anim_value_t;
  41:lvgl/src/lv_widgets/../lv_core/../lv_misc/lv_anim.h **** 
  42:lvgl/src/lv_widgets/../lv_core/../lv_misc/lv_anim.h **** #if LV_USE_ANIMATION
  43:lvgl/src/lv_widgets/../lv_core/../lv_misc/lv_anim.h **** 
  44:lvgl/src/lv_widgets/../lv_core/../lv_misc/lv_anim.h **** #define LV_ANIM_REPEAT_INFINITE      0xFFFF
  45:lvgl/src/lv_widgets/../lv_core/../lv_misc/lv_anim.h **** 
  46:lvgl/src/lv_widgets/../lv_core/../lv_misc/lv_anim.h **** struct _lv_anim_t;
  47:lvgl/src/lv_widgets/../lv_core/../lv_misc/lv_anim.h **** struct _lv_anim_path_t;
  48:lvgl/src/lv_widgets/../lv_core/../lv_misc/lv_anim.h **** /** Get the current value during an animation*/
  49:lvgl/src/lv_widgets/../lv_core/../lv_misc/lv_anim.h **** typedef lv_anim_value_t (*lv_anim_path_cb_t)(const struct _lv_anim_path_t *, const struct _lv_anim_
  50:lvgl/src/lv_widgets/../lv_core/../lv_misc/lv_anim.h **** 
  51:lvgl/src/lv_widgets/../lv_core/../lv_misc/lv_anim.h **** typedef struct _lv_anim_path_t {
  52:lvgl/src/lv_widgets/../lv_core/../lv_misc/lv_anim.h ****     lv_anim_path_cb_t cb;
  53:lvgl/src/lv_widgets/../lv_core/../lv_misc/lv_anim.h ****     void * user_data;
  54:lvgl/src/lv_widgets/../lv_core/../lv_misc/lv_anim.h **** } lv_anim_path_t;
  55:lvgl/src/lv_widgets/../lv_core/../lv_misc/lv_anim.h **** 
  56:lvgl/src/lv_widgets/../lv_core/../lv_misc/lv_anim.h **** /** Generic prototype of "animator" functions.
  57:lvgl/src/lv_widgets/../lv_core/../lv_misc/lv_anim.h ****  * First parameter is the variable to animate.
  58:lvgl/src/lv_widgets/../lv_core/../lv_misc/lv_anim.h ****  * Second parameter is the value to set.
  59:lvgl/src/lv_widgets/../lv_core/../lv_misc/lv_anim.h ****  * Compatible with `lv_xxx_set_yyy(obj, value)` functions
  60:lvgl/src/lv_widgets/../lv_core/../lv_misc/lv_anim.h ****  * The `x` in `_xcb_t` means its not a fully generic prototype because
  61:lvgl/src/lv_widgets/../lv_core/../lv_misc/lv_anim.h ****  * it doesn't receive `lv_anim_t *` as its first argument*/
  62:lvgl/src/lv_widgets/../lv_core/../lv_misc/lv_anim.h **** typedef void (*lv_anim_exec_xcb_t)(void *, lv_anim_value_t);
ARM GAS  D:\Temp\ccqwJTgn.s 			page 58


  63:lvgl/src/lv_widgets/../lv_core/../lv_misc/lv_anim.h **** 
  64:lvgl/src/lv_widgets/../lv_core/../lv_misc/lv_anim.h **** /** Same as `lv_anim_exec_xcb_t` but receives `lv_anim_t *` as the first parameter.
  65:lvgl/src/lv_widgets/../lv_core/../lv_misc/lv_anim.h ****  * It's more consistent but less convenient. Might be used by binding generator functions.*/
  66:lvgl/src/lv_widgets/../lv_core/../lv_misc/lv_anim.h **** typedef void (*lv_anim_custom_exec_cb_t)(struct _lv_anim_t *, lv_anim_value_t);
  67:lvgl/src/lv_widgets/../lv_core/../lv_misc/lv_anim.h **** 
  68:lvgl/src/lv_widgets/../lv_core/../lv_misc/lv_anim.h **** /** Callback to call when the animation is ready*/
  69:lvgl/src/lv_widgets/../lv_core/../lv_misc/lv_anim.h **** typedef void (*lv_anim_ready_cb_t)(struct _lv_anim_t *);
  70:lvgl/src/lv_widgets/../lv_core/../lv_misc/lv_anim.h **** 
  71:lvgl/src/lv_widgets/../lv_core/../lv_misc/lv_anim.h **** /** Callback to call when the animation really stars (considering `delay`)*/
  72:lvgl/src/lv_widgets/../lv_core/../lv_misc/lv_anim.h **** typedef void (*lv_anim_start_cb_t)(struct _lv_anim_t *);
  73:lvgl/src/lv_widgets/../lv_core/../lv_misc/lv_anim.h **** 
  74:lvgl/src/lv_widgets/../lv_core/../lv_misc/lv_anim.h **** /** Describes an animation*/
  75:lvgl/src/lv_widgets/../lv_core/../lv_misc/lv_anim.h **** typedef struct _lv_anim_t {
  76:lvgl/src/lv_widgets/../lv_core/../lv_misc/lv_anim.h ****     void * var;                  /**<Variable to animate*/
  77:lvgl/src/lv_widgets/../lv_core/../lv_misc/lv_anim.h ****     lv_anim_exec_xcb_t exec_cb;   /**< Function to execute to animate*/
  78:lvgl/src/lv_widgets/../lv_core/../lv_misc/lv_anim.h ****     lv_anim_start_cb_t start_cb; /**< Call it when the animation is starts (considering `delay`)*/
  79:lvgl/src/lv_widgets/../lv_core/../lv_misc/lv_anim.h ****     lv_anim_ready_cb_t ready_cb; /**< Call it when the animation is ready*/
  80:lvgl/src/lv_widgets/../lv_core/../lv_misc/lv_anim.h ****     lv_anim_path_t path;         /**< Describe the path (curve) of animations*/
  81:lvgl/src/lv_widgets/../lv_core/../lv_misc/lv_anim.h ****     int32_t start;               /**< Start value*/
  82:lvgl/src/lv_widgets/../lv_core/../lv_misc/lv_anim.h ****     int32_t current;             /**< Current value */
  83:lvgl/src/lv_widgets/../lv_core/../lv_misc/lv_anim.h ****     int32_t end;                 /**< End value*/
  84:lvgl/src/lv_widgets/../lv_core/../lv_misc/lv_anim.h ****     int32_t time;               /**< Animation time in ms*/
  85:lvgl/src/lv_widgets/../lv_core/../lv_misc/lv_anim.h ****     int32_t act_time;            /**< Current time in animation. Set to negative to make delay.*/
  86:lvgl/src/lv_widgets/../lv_core/../lv_misc/lv_anim.h ****     uint32_t playback_delay;     /**< Wait before play back*/
  87:lvgl/src/lv_widgets/../lv_core/../lv_misc/lv_anim.h ****     uint32_t playback_time;      /**< Duration of playback animation*/
  88:lvgl/src/lv_widgets/../lv_core/../lv_misc/lv_anim.h ****     uint32_t repeat_delay;       /**< Wait before repeat*/
  89:lvgl/src/lv_widgets/../lv_core/../lv_misc/lv_anim.h ****     uint16_t repeat_cnt;         /**< Repeat count for the animation*/
  90:lvgl/src/lv_widgets/../lv_core/../lv_misc/lv_anim.h ****     uint8_t early_apply  : 1;    /**< 1: Apply start value immediately even is there is `delay` */
  91:lvgl/src/lv_widgets/../lv_core/../lv_misc/lv_anim.h **** #if LV_USE_USER_DATA
  92:lvgl/src/lv_widgets/../lv_core/../lv_misc/lv_anim.h ****     lv_anim_user_data_t user_data; /**< Custom user data*/
  93:lvgl/src/lv_widgets/../lv_core/../lv_misc/lv_anim.h **** #endif
  94:lvgl/src/lv_widgets/../lv_core/../lv_misc/lv_anim.h **** 
  95:lvgl/src/lv_widgets/../lv_core/../lv_misc/lv_anim.h ****     /*Animation system use these - user shouldn't set*/
  96:lvgl/src/lv_widgets/../lv_core/../lv_misc/lv_anim.h ****     uint32_t time_orig;
  97:lvgl/src/lv_widgets/../lv_core/../lv_misc/lv_anim.h ****     uint8_t playback_now : 1; /**< Play back is in progress*/
  98:lvgl/src/lv_widgets/../lv_core/../lv_misc/lv_anim.h ****     uint32_t has_run : 1;     /**< Indicates the animation has run in this round*/
  99:lvgl/src/lv_widgets/../lv_core/../lv_misc/lv_anim.h **** } lv_anim_t;
 100:lvgl/src/lv_widgets/../lv_core/../lv_misc/lv_anim.h **** 
 101:lvgl/src/lv_widgets/../lv_core/../lv_misc/lv_anim.h **** /**********************
 102:lvgl/src/lv_widgets/../lv_core/../lv_misc/lv_anim.h ****  * GLOBAL PROTOTYPES
 103:lvgl/src/lv_widgets/../lv_core/../lv_misc/lv_anim.h ****  **********************/
 104:lvgl/src/lv_widgets/../lv_core/../lv_misc/lv_anim.h **** 
 105:lvgl/src/lv_widgets/../lv_core/../lv_misc/lv_anim.h **** /**
 106:lvgl/src/lv_widgets/../lv_core/../lv_misc/lv_anim.h ****  * Init. the animation module
 107:lvgl/src/lv_widgets/../lv_core/../lv_misc/lv_anim.h ****  */
 108:lvgl/src/lv_widgets/../lv_core/../lv_misc/lv_anim.h **** void _lv_anim_core_init(void);
 109:lvgl/src/lv_widgets/../lv_core/../lv_misc/lv_anim.h **** 
 110:lvgl/src/lv_widgets/../lv_core/../lv_misc/lv_anim.h **** /**
 111:lvgl/src/lv_widgets/../lv_core/../lv_misc/lv_anim.h ****  * Initialize an animation variable.
 112:lvgl/src/lv_widgets/../lv_core/../lv_misc/lv_anim.h ****  * E.g.:
 113:lvgl/src/lv_widgets/../lv_core/../lv_misc/lv_anim.h ****  * lv_anim_t a;
 114:lvgl/src/lv_widgets/../lv_core/../lv_misc/lv_anim.h ****  * lv_anim_init(&a);
 115:lvgl/src/lv_widgets/../lv_core/../lv_misc/lv_anim.h ****  * lv_anim_set_...(&a);
 116:lvgl/src/lv_widgets/../lv_core/../lv_misc/lv_anim.h ****  * @param a pointer to an `lv_anim_t` variable to initialize
 117:lvgl/src/lv_widgets/../lv_core/../lv_misc/lv_anim.h ****  */
 118:lvgl/src/lv_widgets/../lv_core/../lv_misc/lv_anim.h **** void lv_anim_init(lv_anim_t * a);
 119:lvgl/src/lv_widgets/../lv_core/../lv_misc/lv_anim.h **** 
ARM GAS  D:\Temp\ccqwJTgn.s 			page 59


 120:lvgl/src/lv_widgets/../lv_core/../lv_misc/lv_anim.h **** /**
 121:lvgl/src/lv_widgets/../lv_core/../lv_misc/lv_anim.h ****  * Set a variable to animate
 122:lvgl/src/lv_widgets/../lv_core/../lv_misc/lv_anim.h ****  * @param a pointer to an initialized `lv_anim_t` variable
 123:lvgl/src/lv_widgets/../lv_core/../lv_misc/lv_anim.h ****  * @param var pointer to a variable to animate
 124:lvgl/src/lv_widgets/../lv_core/../lv_misc/lv_anim.h ****  */
 125:lvgl/src/lv_widgets/../lv_core/../lv_misc/lv_anim.h **** static inline void lv_anim_set_var(lv_anim_t * a, void * var)
 1162              		.loc 7 125 20 view .LVU351
 1163              	.LBB141:
 126:lvgl/src/lv_widgets/../lv_core/../lv_misc/lv_anim.h **** {
 127:lvgl/src/lv_widgets/../lv_core/../lv_misc/lv_anim.h ****     a->var     = var;
 1164              		.loc 7 127 5 view .LVU352
 1165              		.loc 7 127 16 is_stmt 0 view .LVU353
 1166 009c 0196     		str	r6, [sp, #4]
 1167              	.LVL128:
 1168              		.loc 7 127 16 view .LVU354
 1169              	.LBE141:
 1170              	.LBE140:
 869:lvgl/src/lv_widgets/lv_roller.c ****         lv_anim_set_values(&a, lv_obj_get_y(roller_scrl), new_y);
 1171              		.loc 1 869 9 is_stmt 1 view .LVU355
 1172              	.LBB142:
 1173              	.LBI142:
 128:lvgl/src/lv_widgets/../lv_core/../lv_misc/lv_anim.h **** }
 129:lvgl/src/lv_widgets/../lv_core/../lv_misc/lv_anim.h **** 
 130:lvgl/src/lv_widgets/../lv_core/../lv_misc/lv_anim.h **** /**
 131:lvgl/src/lv_widgets/../lv_core/../lv_misc/lv_anim.h ****  * Set a function to animate `var`
 132:lvgl/src/lv_widgets/../lv_core/../lv_misc/lv_anim.h ****  * @param a pointer to an initialized `lv_anim_t` variable
 133:lvgl/src/lv_widgets/../lv_core/../lv_misc/lv_anim.h ****  * @param exec_cb a function to execute during animation
 134:lvgl/src/lv_widgets/../lv_core/../lv_misc/lv_anim.h ****  *                LittelvGL's built-in functions can be used.
 135:lvgl/src/lv_widgets/../lv_core/../lv_misc/lv_anim.h ****  *                E.g. lv_obj_set_x
 136:lvgl/src/lv_widgets/../lv_core/../lv_misc/lv_anim.h ****  */
 137:lvgl/src/lv_widgets/../lv_core/../lv_misc/lv_anim.h **** static inline void lv_anim_set_exec_cb(lv_anim_t * a, lv_anim_exec_xcb_t exec_cb)
 1174              		.loc 7 137 20 view .LVU356
 1175              	.LBB143:
 138:lvgl/src/lv_widgets/../lv_core/../lv_misc/lv_anim.h **** {
 139:lvgl/src/lv_widgets/../lv_core/../lv_misc/lv_anim.h ****     a->exec_cb = exec_cb;
 1176              		.loc 7 139 5 view .LVU357
 1177              		.loc 7 139 16 is_stmt 0 view .LVU358
 1178 009e 084B     		ldr	r3, .L54
 1179 00a0 0293     		str	r3, [sp, #8]
 1180              	.LVL129:
 1181              		.loc 7 139 16 view .LVU359
 1182              	.LBE143:
 1183              	.LBE142:
 870:lvgl/src/lv_widgets/lv_roller.c ****         lv_anim_set_time(&a, anim_time);
 1184              		.loc 1 870 9 is_stmt 1 view .LVU360
 1185 00a2 3046     		mov	r0, r6
 1186 00a4 FFF7FEFF 		bl	lv_obj_get_y
 1187              	.LVL130:
 1188              	.LBB144:
 1189              	.LBI144:
 140:lvgl/src/lv_widgets/../lv_core/../lv_misc/lv_anim.h **** }
 141:lvgl/src/lv_widgets/../lv_core/../lv_misc/lv_anim.h **** 
 142:lvgl/src/lv_widgets/../lv_core/../lv_misc/lv_anim.h **** /**
 143:lvgl/src/lv_widgets/../lv_core/../lv_misc/lv_anim.h ****  * Set the duration of an animation
 144:lvgl/src/lv_widgets/../lv_core/../lv_misc/lv_anim.h ****  * @param a pointer to an initialized `lv_anim_t` variable
 145:lvgl/src/lv_widgets/../lv_core/../lv_misc/lv_anim.h ****  * @param duration duration of the animation in milliseconds
 146:lvgl/src/lv_widgets/../lv_core/../lv_misc/lv_anim.h ****  */
ARM GAS  D:\Temp\ccqwJTgn.s 			page 60


 147:lvgl/src/lv_widgets/../lv_core/../lv_misc/lv_anim.h **** static inline void lv_anim_set_time(lv_anim_t * a, uint32_t duration)
 148:lvgl/src/lv_widgets/../lv_core/../lv_misc/lv_anim.h **** {
 149:lvgl/src/lv_widgets/../lv_core/../lv_misc/lv_anim.h ****     a->time     = duration;
 150:lvgl/src/lv_widgets/../lv_core/../lv_misc/lv_anim.h **** }
 151:lvgl/src/lv_widgets/../lv_core/../lv_misc/lv_anim.h **** 
 152:lvgl/src/lv_widgets/../lv_core/../lv_misc/lv_anim.h **** /**
 153:lvgl/src/lv_widgets/../lv_core/../lv_misc/lv_anim.h ****  * Set a delay before starting the animation
 154:lvgl/src/lv_widgets/../lv_core/../lv_misc/lv_anim.h ****  * @param a pointer to an initialized `lv_anim_t` variable
 155:lvgl/src/lv_widgets/../lv_core/../lv_misc/lv_anim.h ****  * @param delay delay before the animation in milliseconds
 156:lvgl/src/lv_widgets/../lv_core/../lv_misc/lv_anim.h ****  */
 157:lvgl/src/lv_widgets/../lv_core/../lv_misc/lv_anim.h **** static inline void lv_anim_set_delay(lv_anim_t * a, uint32_t delay)
 158:lvgl/src/lv_widgets/../lv_core/../lv_misc/lv_anim.h **** {
 159:lvgl/src/lv_widgets/../lv_core/../lv_misc/lv_anim.h ****     a->act_time = -(int32_t)(delay);
 160:lvgl/src/lv_widgets/../lv_core/../lv_misc/lv_anim.h **** }
 161:lvgl/src/lv_widgets/../lv_core/../lv_misc/lv_anim.h **** 
 162:lvgl/src/lv_widgets/../lv_core/../lv_misc/lv_anim.h **** /**
 163:lvgl/src/lv_widgets/../lv_core/../lv_misc/lv_anim.h ****  * Set the start and end values of an animation
 164:lvgl/src/lv_widgets/../lv_core/../lv_misc/lv_anim.h ****  * @param a pointer to an initialized `lv_anim_t` variable
 165:lvgl/src/lv_widgets/../lv_core/../lv_misc/lv_anim.h ****  * @param start the start value
 166:lvgl/src/lv_widgets/../lv_core/../lv_misc/lv_anim.h ****  * @param end the end value
 167:lvgl/src/lv_widgets/../lv_core/../lv_misc/lv_anim.h ****  */
 168:lvgl/src/lv_widgets/../lv_core/../lv_misc/lv_anim.h **** static inline void lv_anim_set_values(lv_anim_t * a, lv_anim_value_t start, lv_anim_value_t end)
 1190              		.loc 7 168 20 view .LVU361
 1191              	.LBB145:
 169:lvgl/src/lv_widgets/../lv_core/../lv_misc/lv_anim.h **** {
 170:lvgl/src/lv_widgets/../lv_core/../lv_misc/lv_anim.h ****     a->start = start;
 1192              		.loc 7 170 5 view .LVU362
 1193              		.loc 7 170 14 is_stmt 0 view .LVU363
 1194 00a8 0790     		str	r0, [sp, #28]
 171:lvgl/src/lv_widgets/../lv_core/../lv_misc/lv_anim.h ****     a->current = start;
 1195              		.loc 7 171 5 is_stmt 1 view .LVU364
 1196              		.loc 7 171 16 is_stmt 0 view .LVU365
 1197 00aa 0890     		str	r0, [sp, #32]
 172:lvgl/src/lv_widgets/../lv_core/../lv_misc/lv_anim.h ****     a->end   = end;
 1198              		.loc 7 172 5 is_stmt 1 view .LVU366
 1199              		.loc 7 172 14 is_stmt 0 view .LVU367
 1200 00ac 0994     		str	r4, [sp, #36]
 1201              	.LVL131:
 1202              		.loc 7 172 14 view .LVU368
 1203              	.LBE145:
 1204              	.LBE144:
 871:lvgl/src/lv_widgets/lv_roller.c ****         lv_anim_set_ready_cb(&a, scroll_anim_ready_cb);
 1205              		.loc 1 871 9 is_stmt 1 view .LVU369
 1206              	.LBB146:
 1207              	.LBI146:
 147:lvgl/src/lv_widgets/../lv_core/../lv_misc/lv_anim.h **** {
 1208              		.loc 7 147 20 view .LVU370
 1209              	.LBB147:
 149:lvgl/src/lv_widgets/../lv_core/../lv_misc/lv_anim.h **** }
 1210              		.loc 7 149 5 view .LVU371
 149:lvgl/src/lv_widgets/../lv_core/../lv_misc/lv_anim.h **** }
 1211              		.loc 7 149 17 is_stmt 0 view .LVU372
 1212 00ae CDF82890 		str	r9, [sp, #40]
 1213              	.LVL132:
 149:lvgl/src/lv_widgets/../lv_core/../lv_misc/lv_anim.h **** }
 1214              		.loc 7 149 17 view .LVU373
 1215              	.LBE147:
ARM GAS  D:\Temp\ccqwJTgn.s 			page 61


 1216              	.LBE146:
 872:lvgl/src/lv_widgets/lv_roller.c ****         lv_anim_start(&a);
 1217              		.loc 1 872 9 is_stmt 1 view .LVU374
 1218              	.LBB148:
 1219              	.LBI148:
 173:lvgl/src/lv_widgets/../lv_core/../lv_misc/lv_anim.h **** }
 174:lvgl/src/lv_widgets/../lv_core/../lv_misc/lv_anim.h **** 
 175:lvgl/src/lv_widgets/../lv_core/../lv_misc/lv_anim.h **** /**
 176:lvgl/src/lv_widgets/../lv_core/../lv_misc/lv_anim.h ****  * Similar to `lv_anim_set_exec_cb` but `lv_anim_custom_exec_cb_t` receives
 177:lvgl/src/lv_widgets/../lv_core/../lv_misc/lv_anim.h ****  * `lv_anim_t * ` as its first parameter instead of `void *`.
 178:lvgl/src/lv_widgets/../lv_core/../lv_misc/lv_anim.h ****  * This function might be used when LVGL is binded to other languages because
 179:lvgl/src/lv_widgets/../lv_core/../lv_misc/lv_anim.h ****  * it's more consistent to have `lv_anim_t *` as first parameter.
 180:lvgl/src/lv_widgets/../lv_core/../lv_misc/lv_anim.h ****  * The variable to animate can be stored in the animation's `user_sata`
 181:lvgl/src/lv_widgets/../lv_core/../lv_misc/lv_anim.h ****  * @param a pointer to an initialized `lv_anim_t` variable
 182:lvgl/src/lv_widgets/../lv_core/../lv_misc/lv_anim.h ****  * @param exec_cb a function to execute.
 183:lvgl/src/lv_widgets/../lv_core/../lv_misc/lv_anim.h ****  */
 184:lvgl/src/lv_widgets/../lv_core/../lv_misc/lv_anim.h **** static inline void lv_anim_set_custom_exec_cb(lv_anim_t * a, lv_anim_custom_exec_cb_t exec_cb)
 185:lvgl/src/lv_widgets/../lv_core/../lv_misc/lv_anim.h **** {
 186:lvgl/src/lv_widgets/../lv_core/../lv_misc/lv_anim.h ****     a->var     = a;
 187:lvgl/src/lv_widgets/../lv_core/../lv_misc/lv_anim.h ****     a->exec_cb = (lv_anim_exec_xcb_t)exec_cb;
 188:lvgl/src/lv_widgets/../lv_core/../lv_misc/lv_anim.h **** }
 189:lvgl/src/lv_widgets/../lv_core/../lv_misc/lv_anim.h **** 
 190:lvgl/src/lv_widgets/../lv_core/../lv_misc/lv_anim.h **** /**
 191:lvgl/src/lv_widgets/../lv_core/../lv_misc/lv_anim.h ****  * Set the path (curve) of the animation.
 192:lvgl/src/lv_widgets/../lv_core/../lv_misc/lv_anim.h ****  * @param a pointer to an initialized `lv_anim_t` variable
 193:lvgl/src/lv_widgets/../lv_core/../lv_misc/lv_anim.h ****  * @param path_cb a function the get the current value of the animation.
 194:lvgl/src/lv_widgets/../lv_core/../lv_misc/lv_anim.h ****  *                The built in functions starts with `lv_anim_path_...`
 195:lvgl/src/lv_widgets/../lv_core/../lv_misc/lv_anim.h ****  */
 196:lvgl/src/lv_widgets/../lv_core/../lv_misc/lv_anim.h **** static inline void lv_anim_set_path(lv_anim_t * a, const lv_anim_path_t * path)
 197:lvgl/src/lv_widgets/../lv_core/../lv_misc/lv_anim.h **** {
 198:lvgl/src/lv_widgets/../lv_core/../lv_misc/lv_anim.h ****     _lv_memcpy_small(&a->path, path, sizeof(lv_anim_path_t));
 199:lvgl/src/lv_widgets/../lv_core/../lv_misc/lv_anim.h **** }
 200:lvgl/src/lv_widgets/../lv_core/../lv_misc/lv_anim.h **** 
 201:lvgl/src/lv_widgets/../lv_core/../lv_misc/lv_anim.h **** /**
 202:lvgl/src/lv_widgets/../lv_core/../lv_misc/lv_anim.h ****  * Set a function call when the animation really starts (considering `delay`)
 203:lvgl/src/lv_widgets/../lv_core/../lv_misc/lv_anim.h ****  * @param a pointer to an initialized `lv_anim_t` variable
 204:lvgl/src/lv_widgets/../lv_core/../lv_misc/lv_anim.h ****  * @param start_cb a function call when the animation starts
 205:lvgl/src/lv_widgets/../lv_core/../lv_misc/lv_anim.h ****  */
 206:lvgl/src/lv_widgets/../lv_core/../lv_misc/lv_anim.h **** static inline void lv_anim_set_start_cb(lv_anim_t * a, lv_anim_ready_cb_t start_cb)
 207:lvgl/src/lv_widgets/../lv_core/../lv_misc/lv_anim.h **** {
 208:lvgl/src/lv_widgets/../lv_core/../lv_misc/lv_anim.h ****     a->start_cb = start_cb;
 209:lvgl/src/lv_widgets/../lv_core/../lv_misc/lv_anim.h **** }
 210:lvgl/src/lv_widgets/../lv_core/../lv_misc/lv_anim.h **** 
 211:lvgl/src/lv_widgets/../lv_core/../lv_misc/lv_anim.h **** /**
 212:lvgl/src/lv_widgets/../lv_core/../lv_misc/lv_anim.h ****  * Set a function call when the animation is ready
 213:lvgl/src/lv_widgets/../lv_core/../lv_misc/lv_anim.h ****  * @param a pointer to an initialized `lv_anim_t` variable
 214:lvgl/src/lv_widgets/../lv_core/../lv_misc/lv_anim.h ****  * @param ready_cb a function call when the animation is ready
 215:lvgl/src/lv_widgets/../lv_core/../lv_misc/lv_anim.h ****  */
 216:lvgl/src/lv_widgets/../lv_core/../lv_misc/lv_anim.h **** static inline void lv_anim_set_ready_cb(lv_anim_t * a, lv_anim_ready_cb_t ready_cb)
 1220              		.loc 7 216 20 view .LVU375
 1221              	.LBB149:
 217:lvgl/src/lv_widgets/../lv_core/../lv_misc/lv_anim.h **** {
 218:lvgl/src/lv_widgets/../lv_core/../lv_misc/lv_anim.h ****     a->ready_cb = ready_cb;
 1222              		.loc 7 218 5 view .LVU376
 1223              		.loc 7 218 17 is_stmt 0 view .LVU377
 1224 00b2 044B     		ldr	r3, .L54+4
 1225 00b4 0493     		str	r3, [sp, #16]
ARM GAS  D:\Temp\ccqwJTgn.s 			page 62


 1226              	.LVL133:
 1227              		.loc 7 218 17 view .LVU378
 1228              	.LBE149:
 1229              	.LBE148:
 873:lvgl/src/lv_widgets/lv_roller.c **** #endif
 1230              		.loc 1 873 9 is_stmt 1 view .LVU379
 1231 00b6 01A8     		add	r0, sp, #4
 1232 00b8 FFF7FEFF 		bl	lv_anim_start
 1233              	.LVL134:
 1234              	.LBE139:
 876:lvgl/src/lv_widgets/lv_roller.c **** 
 1235              		.loc 1 876 1 is_stmt 0 view .LVU380
 1236 00bc E8E7     		b	.L47
 1237              	.L55:
 1238 00be 00BF     		.align	2
 1239              	.L54:
 1240 00c0 00000000 		.word	lv_obj_set_y
 1241 00c4 00000000 		.word	scroll_anim_ready_cb
 1242              		.cfi_endproc
 1243              	.LFE493:
 1245              		.section	.text.refr_height,"ax",%progbits
 1246              		.align	1
 1247              		.syntax unified
 1248              		.thumb
 1249              		.thumb_func
 1250              		.fpu fpv4-sp-d16
 1252              	refr_height:
 1253              	.LVL135:
 1254              	.LFB496:
 979:lvgl/src/lv_widgets/lv_roller.c ****     lv_obj_t * label = get_label(roller);
 1255              		.loc 1 979 1 is_stmt 1 view -0
 1256              		.cfi_startproc
 1257              		@ args = 0, pretend = 0, frame = 0
 1258              		@ frame_needed = 0, uses_anonymous_args = 0
 979:lvgl/src/lv_widgets/lv_roller.c ****     lv_obj_t * label = get_label(roller);
 1259              		.loc 1 979 1 is_stmt 0 view .LVU382
 1260 0000 70B5     		push	{r4, r5, r6, lr}
 1261              	.LCFI16:
 1262              		.cfi_def_cfa_offset 16
 1263              		.cfi_offset 4, -16
 1264              		.cfi_offset 5, -12
 1265              		.cfi_offset 6, -8
 1266              		.cfi_offset 14, -4
 1267 0002 0446     		mov	r4, r0
 980:lvgl/src/lv_widgets/lv_roller.c ****     if(label == NULL) return;
 1268              		.loc 1 980 5 is_stmt 1 view .LVU383
 980:lvgl/src/lv_widgets/lv_roller.c ****     if(label == NULL) return;
 1269              		.loc 1 980 24 is_stmt 0 view .LVU384
 1270 0004 FFF7FEFF 		bl	get_label
 1271              	.LVL136:
 981:lvgl/src/lv_widgets/lv_roller.c **** 
 1272              		.loc 1 981 5 is_stmt 1 view .LVU385
 981:lvgl/src/lv_widgets/lv_roller.c **** 
 1273              		.loc 1 981 7 is_stmt 0 view .LVU386
 1274 0008 D8B1     		cbz	r0, .L56
 1275 000a 0546     		mov	r5, r0
 983:lvgl/src/lv_widgets/lv_roller.c **** 
ARM GAS  D:\Temp\ccqwJTgn.s 			page 63


 1276              		.loc 1 983 5 is_stmt 1 view .LVU387
 1277 000c 2046     		mov	r0, r4
 1278              	.LVL137:
