ARM GAS  D:\Temp\cceOI0TF.s 			page 1


   1              		.cpu cortex-m4
   2              		.eabi_attribute 27, 1
   3              		.eabi_attribute 28, 1
   4              		.eabi_attribute 20, 1
   5              		.eabi_attribute 21, 1
   6              		.eabi_attribute 23, 3
   7              		.eabi_attribute 24, 1
   8              		.eabi_attribute 25, 1
   9              		.eabi_attribute 26, 1
  10              		.eabi_attribute 30, 1
  11              		.eabi_attribute 34, 1
  12              		.eabi_attribute 18, 4
  13              		.file	"lv_style.c"
  14              		.text
  15              	.Ltext0:
  16              		.cfi_sections	.debug_frame
  17              		.section	.text.lv_style_init,"ax",%progbits
  18              		.align	1
  19              		.global	lv_style_init
  20              		.arch armv7e-m
  21              		.syntax unified
  22              		.thumb
  23              		.thumb_func
  24              		.fpu fpv4-sp-d16
  26              	lv_style_init:
  27              	.LVL0:
  28              	.LFB458:
  29              		.file 1 "lvgl/src/lv_core/lv_style.c"
   1:lvgl/src/lv_core/lv_style.c **** /**
   2:lvgl/src/lv_core/lv_style.c ****  * @file lv_style.c
   3:lvgl/src/lv_core/lv_style.c ****  *
   4:lvgl/src/lv_core/lv_style.c ****  */
   5:lvgl/src/lv_core/lv_style.c **** 
   6:lvgl/src/lv_core/lv_style.c **** /*********************
   7:lvgl/src/lv_core/lv_style.c ****  *      INCLUDES
   8:lvgl/src/lv_core/lv_style.c ****  *********************/
   9:lvgl/src/lv_core/lv_style.c **** #include "lv_obj.h"
  10:lvgl/src/lv_core/lv_style.c **** #include "../lv_misc/lv_mem.h"
  11:lvgl/src/lv_core/lv_style.c **** #include "../lv_misc/lv_anim.h"
  12:lvgl/src/lv_core/lv_style.c **** 
  13:lvgl/src/lv_core/lv_style.c **** /*********************
  14:lvgl/src/lv_core/lv_style.c ****  *      DEFINES
  15:lvgl/src/lv_core/lv_style.c ****  *********************/
  16:lvgl/src/lv_core/lv_style.c **** #define STYLE_MIX_MAX 256
  17:lvgl/src/lv_core/lv_style.c **** #define STYLE_MIX_SHIFT 8 /*log2(STYLE_MIX_MAX)*/
  18:lvgl/src/lv_core/lv_style.c **** 
  19:lvgl/src/lv_core/lv_style.c **** #define VAL_PROP(v1, v2, r) v1 + (((v2 - v1) * r) >> STYLE_MIX_SHIFT)
  20:lvgl/src/lv_core/lv_style.c **** #define STYLE_ATTR_MIX(attr, r)                                                                    
  21:lvgl/src/lv_core/lv_style.c ****     if(start->attr != end->attr) {                                                                 
  22:lvgl/src/lv_core/lv_style.c ****         res->attr = VAL_PROP(start->attr, end->attr, r);                                           
  23:lvgl/src/lv_core/lv_style.c ****     } else {                                                                                       
  24:lvgl/src/lv_core/lv_style.c ****         res->attr = start->attr;                                                                   
  25:lvgl/src/lv_core/lv_style.c ****     }
  26:lvgl/src/lv_core/lv_style.c **** 
  27:lvgl/src/lv_core/lv_style.c **** #define LV_STYLE_PROP_TO_ID(prop) (prop & 0xFF);
  28:lvgl/src/lv_core/lv_style.c **** #define LV_STYLE_PROP_GET_TYPE(prop) ((prop >> 8) & 0xFF);
  29:lvgl/src/lv_core/lv_style.c **** 
ARM GAS  D:\Temp\cceOI0TF.s 			page 2


  30:lvgl/src/lv_core/lv_style.c **** /**********************
  31:lvgl/src/lv_core/lv_style.c ****  *      TYPEDEFS
  32:lvgl/src/lv_core/lv_style.c ****  **********************/
  33:lvgl/src/lv_core/lv_style.c **** 
  34:lvgl/src/lv_core/lv_style.c **** /**********************
  35:lvgl/src/lv_core/lv_style.c ****  *  STATIC PROTOTYPES
  36:lvgl/src/lv_core/lv_style.c ****  **********************/
  37:lvgl/src/lv_core/lv_style.c **** LV_ATTRIBUTE_FAST_MEM static inline int32_t get_property_index(const lv_style_t * style, lv_style_p
  38:lvgl/src/lv_core/lv_style.c **** static lv_style_t * get_alloc_local_style(lv_style_list_t * list);
  39:lvgl/src/lv_core/lv_style.c **** static inline void style_resize(lv_style_t * style, size_t sz);
  40:lvgl/src/lv_core/lv_style.c **** static inline lv_style_property_t get_style_prop(const lv_style_t * style, size_t idx);
  41:lvgl/src/lv_core/lv_style.c **** static inline uint8_t get_style_prop_id(const lv_style_t * style, size_t idx);
  42:lvgl/src/lv_core/lv_style.c **** static inline uint8_t get_style_prop_attr(const lv_style_t * style, size_t idx);
  43:lvgl/src/lv_core/lv_style.c **** static inline size_t get_prop_size(uint8_t prop_id);
  44:lvgl/src/lv_core/lv_style.c **** static inline size_t get_next_prop_index(uint8_t prop_id, size_t id);
  45:lvgl/src/lv_core/lv_style.c **** 
  46:lvgl/src/lv_core/lv_style.c **** /**********************
  47:lvgl/src/lv_core/lv_style.c ****  *  GLOBAL VARIABLES
  48:lvgl/src/lv_core/lv_style.c ****  **********************/
  49:lvgl/src/lv_core/lv_style.c **** 
  50:lvgl/src/lv_core/lv_style.c **** /**********************
  51:lvgl/src/lv_core/lv_style.c ****  *  STATIC VARIABLES
  52:lvgl/src/lv_core/lv_style.c ****  **********************/
  53:lvgl/src/lv_core/lv_style.c **** 
  54:lvgl/src/lv_core/lv_style.c **** /**********************
  55:lvgl/src/lv_core/lv_style.c ****  *      MACROS
  56:lvgl/src/lv_core/lv_style.c ****  **********************/
  57:lvgl/src/lv_core/lv_style.c **** 
  58:lvgl/src/lv_core/lv_style.c **** /**********************
  59:lvgl/src/lv_core/lv_style.c ****  *   GLOBAL FUNCTIONS
  60:lvgl/src/lv_core/lv_style.c ****  **********************/
  61:lvgl/src/lv_core/lv_style.c **** 
  62:lvgl/src/lv_core/lv_style.c **** /**
  63:lvgl/src/lv_core/lv_style.c ****  * Initialize a style
  64:lvgl/src/lv_core/lv_style.c ****  * @param style pointer to a style to initialize
  65:lvgl/src/lv_core/lv_style.c ****  */
  66:lvgl/src/lv_core/lv_style.c **** void lv_style_init(lv_style_t * style)
  67:lvgl/src/lv_core/lv_style.c **** {
  30              		.loc 1 67 1 view -0
  31              		.cfi_startproc
  32              		@ args = 0, pretend = 0, frame = 0
  33              		@ frame_needed = 0, uses_anonymous_args = 0
  34              		.loc 1 67 1 is_stmt 0 view .LVU1
  35 0000 08B5     		push	{r3, lr}
  36              	.LCFI0:
  37              		.cfi_def_cfa_offset 8
  38              		.cfi_offset 3, -8
  39              		.cfi_offset 14, -4
  68:lvgl/src/lv_core/lv_style.c ****     _lv_memset_00(style, sizeof(lv_style_t));
  40              		.loc 1 68 5 is_stmt 1 view .LVU2
  41 0002 0421     		movs	r1, #4
  42 0004 FFF7FEFF 		bl	_lv_memset_00
  43              	.LVL1:
  69:lvgl/src/lv_core/lv_style.c **** #if LV_USE_ASSERT_STYLE
  70:lvgl/src/lv_core/lv_style.c ****     style->sentinel = LV_DEBUG_STYLE_SENTINEL_VALUE;
  71:lvgl/src/lv_core/lv_style.c **** #endif
  72:lvgl/src/lv_core/lv_style.c **** }
ARM GAS  D:\Temp\cceOI0TF.s 			page 3


  44              		.loc 1 72 1 is_stmt 0 view .LVU3
  45 0008 08BD     		pop	{r3, pc}
  46              		.cfi_endproc
  47              	.LFE458:
  49              		.section	.text.lv_style_list_init,"ax",%progbits
  50              		.align	1
  51              		.global	lv_style_list_init
  52              		.syntax unified
  53              		.thumb
  54              		.thumb_func
  55              		.fpu fpv4-sp-d16
  57              	lv_style_list_init:
  58              	.LVL2:
  59              	.LFB461:
  73:lvgl/src/lv_core/lv_style.c **** 
  74:lvgl/src/lv_core/lv_style.c **** /**
  75:lvgl/src/lv_core/lv_style.c ****  * Copy a style with all its properties
  76:lvgl/src/lv_core/lv_style.c ****  * @param style_dest pointer to the destination style. (Should be initialized with `lv_style_init()
  77:lvgl/src/lv_core/lv_style.c ****  * @param style_src pointer to the source (to copy )style
  78:lvgl/src/lv_core/lv_style.c ****  */
  79:lvgl/src/lv_core/lv_style.c **** void lv_style_copy(lv_style_t * style_dest, const lv_style_t * style_src)
  80:lvgl/src/lv_core/lv_style.c **** {
  81:lvgl/src/lv_core/lv_style.c ****     if(style_src == NULL) return;
  82:lvgl/src/lv_core/lv_style.c **** 
  83:lvgl/src/lv_core/lv_style.c ****     LV_ASSERT_STYLE(style_dest);
  84:lvgl/src/lv_core/lv_style.c ****     LV_ASSERT_STYLE(style_src);
  85:lvgl/src/lv_core/lv_style.c **** 
  86:lvgl/src/lv_core/lv_style.c ****     if(style_src->map == NULL) return;
  87:lvgl/src/lv_core/lv_style.c **** 
  88:lvgl/src/lv_core/lv_style.c ****     uint16_t size = _lv_style_get_mem_size(style_src);
  89:lvgl/src/lv_core/lv_style.c ****     style_dest->map = lv_mem_alloc(size);
  90:lvgl/src/lv_core/lv_style.c ****     _lv_memcpy(style_dest->map, style_src->map, size);
  91:lvgl/src/lv_core/lv_style.c **** }
  92:lvgl/src/lv_core/lv_style.c **** 
  93:lvgl/src/lv_core/lv_style.c **** /**
  94:lvgl/src/lv_core/lv_style.c ****  * Remove a property from a style
  95:lvgl/src/lv_core/lv_style.c ****  * @param style pointer to a style
  96:lvgl/src/lv_core/lv_style.c ****  * @param prop a style property ORed with a state.
  97:lvgl/src/lv_core/lv_style.c ****  * E.g. `LV_STYLE_BORDER_WIDTH | (LV_STATE_PRESSED << LV_STYLE_STATE_POS)`
  98:lvgl/src/lv_core/lv_style.c ****  * @return true: the property was found and removed; false: the property wasn't found
  99:lvgl/src/lv_core/lv_style.c ****  */
 100:lvgl/src/lv_core/lv_style.c **** bool lv_style_remove_prop(lv_style_t * style, lv_style_property_t prop)
 101:lvgl/src/lv_core/lv_style.c **** {
 102:lvgl/src/lv_core/lv_style.c ****     if(style == NULL) return false;
 103:lvgl/src/lv_core/lv_style.c ****     LV_ASSERT_STYLE(style);
 104:lvgl/src/lv_core/lv_style.c **** 
 105:lvgl/src/lv_core/lv_style.c ****     int32_t id = get_property_index(style, prop);
 106:lvgl/src/lv_core/lv_style.c ****     /*The property exists but not sure it's state is the same*/
 107:lvgl/src/lv_core/lv_style.c ****     if(id >= 0) {
 108:lvgl/src/lv_core/lv_style.c ****         lv_style_attr_t attr_found;
 109:lvgl/src/lv_core/lv_style.c ****         lv_style_attr_t attr_goal;
 110:lvgl/src/lv_core/lv_style.c **** 
 111:lvgl/src/lv_core/lv_style.c ****         attr_found = get_style_prop_attr(style, id);
 112:lvgl/src/lv_core/lv_style.c ****         attr_goal = (prop >> 8) & 0xFFU;
 113:lvgl/src/lv_core/lv_style.c **** 
 114:lvgl/src/lv_core/lv_style.c ****         if(LV_STYLE_ATTR_GET_STATE(attr_found) == LV_STYLE_ATTR_GET_STATE(attr_goal)) {
 115:lvgl/src/lv_core/lv_style.c ****             uint32_t map_size = _lv_style_get_mem_size(style);
ARM GAS  D:\Temp\cceOI0TF.s 			page 4


 116:lvgl/src/lv_core/lv_style.c ****             uint8_t prop_size = get_prop_size(prop);
 117:lvgl/src/lv_core/lv_style.c **** 
 118:lvgl/src/lv_core/lv_style.c ****             /*Move the props to fill the space of the property to delete*/
 119:lvgl/src/lv_core/lv_style.c ****             uint32_t i;
 120:lvgl/src/lv_core/lv_style.c ****             for(i = id; i < map_size - prop_size; i++) {
 121:lvgl/src/lv_core/lv_style.c ****                 style->map[i] = style->map[i + prop_size];
 122:lvgl/src/lv_core/lv_style.c ****             }
 123:lvgl/src/lv_core/lv_style.c **** 
 124:lvgl/src/lv_core/lv_style.c ****             style_resize(style, map_size - prop_size);
 125:lvgl/src/lv_core/lv_style.c **** 
 126:lvgl/src/lv_core/lv_style.c ****             return true;
 127:lvgl/src/lv_core/lv_style.c ****         }
 128:lvgl/src/lv_core/lv_style.c ****     }
 129:lvgl/src/lv_core/lv_style.c **** 
 130:lvgl/src/lv_core/lv_style.c ****     return false;
 131:lvgl/src/lv_core/lv_style.c **** }
 132:lvgl/src/lv_core/lv_style.c **** 
 133:lvgl/src/lv_core/lv_style.c **** /**
 134:lvgl/src/lv_core/lv_style.c ****  * Initialize a style list
 135:lvgl/src/lv_core/lv_style.c ****  * @param list a style list to initialize
 136:lvgl/src/lv_core/lv_style.c ****  */
 137:lvgl/src/lv_core/lv_style.c **** void lv_style_list_init(lv_style_list_t * list)
 138:lvgl/src/lv_core/lv_style.c **** {
  60              		.loc 1 138 1 is_stmt 1 view -0
  61              		.cfi_startproc
  62              		@ args = 0, pretend = 0, frame = 0
  63              		@ frame_needed = 0, uses_anonymous_args = 0
  64              		.loc 1 138 1 is_stmt 0 view .LVU5
  65 0000 08B5     		push	{r3, lr}
  66              	.LCFI1:
  67              		.cfi_def_cfa_offset 8
  68              		.cfi_offset 3, -8
  69              		.cfi_offset 14, -4
 139:lvgl/src/lv_core/lv_style.c ****     _lv_memset_00(list, sizeof(lv_style_list_t));
  70              		.loc 1 139 5 is_stmt 1 view .LVU6
  71 0002 0821     		movs	r1, #8
  72 0004 FFF7FEFF 		bl	_lv_memset_00
  73              	.LVL3:
 140:lvgl/src/lv_core/lv_style.c **** #if LV_USE_ASSERT_STYLE
 141:lvgl/src/lv_core/lv_style.c ****     list->sentinel = LV_DEBUG_STYLE_LIST_SENTINEL_VALUE;
 142:lvgl/src/lv_core/lv_style.c **** #endif
 143:lvgl/src/lv_core/lv_style.c **** }
  74              		.loc 1 143 1 is_stmt 0 view .LVU7
  75 0008 08BD     		pop	{r3, pc}
  76              		.cfi_endproc
  77              	.LFE461:
  79              		.section	.text._lv_style_list_remove_style,"ax",%progbits
  80              		.align	1
  81              		.global	_lv_style_list_remove_style
  82              		.syntax unified
  83              		.thumb
  84              		.thumb_func
  85              		.fpu fpv4-sp-d16
  87              	_lv_style_list_remove_style:
  88              	.LVL4:
  89              	.LFB464:
 144:lvgl/src/lv_core/lv_style.c **** 
ARM GAS  D:\Temp\cceOI0TF.s 			page 5


 145:lvgl/src/lv_core/lv_style.c **** /**
 146:lvgl/src/lv_core/lv_style.c ****  * Copy a style list with all its styles and local style properties
 147:lvgl/src/lv_core/lv_style.c ****  * @param list_dest pointer to the destination style list. (should be initialized with `lv_style_li
 148:lvgl/src/lv_core/lv_style.c ****  * @param list_src pointer to the source (to copy) style list.
 149:lvgl/src/lv_core/lv_style.c ****  */
 150:lvgl/src/lv_core/lv_style.c **** void lv_style_list_copy(lv_style_list_t * list_dest, const lv_style_list_t * list_src)
 151:lvgl/src/lv_core/lv_style.c **** {
 152:lvgl/src/lv_core/lv_style.c ****     LV_ASSERT_STYLE_LIST(list_dest);
 153:lvgl/src/lv_core/lv_style.c ****     LV_ASSERT_STYLE_LIST(list_src);
 154:lvgl/src/lv_core/lv_style.c **** 
 155:lvgl/src/lv_core/lv_style.c ****     _lv_style_list_reset(list_dest);
 156:lvgl/src/lv_core/lv_style.c **** 
 157:lvgl/src/lv_core/lv_style.c ****     if(list_src->style_list == NULL) return;
 158:lvgl/src/lv_core/lv_style.c **** 
 159:lvgl/src/lv_core/lv_style.c ****     /*Copy the styles but skip the transitions*/
 160:lvgl/src/lv_core/lv_style.c ****     if(list_src->has_local == 0) {
 161:lvgl/src/lv_core/lv_style.c ****         if(list_src->has_trans) {
 162:lvgl/src/lv_core/lv_style.c ****             list_dest->style_list = lv_mem_alloc((list_src->style_cnt - 1) * sizeof(lv_style_t *));
 163:lvgl/src/lv_core/lv_style.c ****             _lv_memcpy(list_dest->style_list, list_src->style_list + 1, (list_src->style_cnt - 1) *
 164:lvgl/src/lv_core/lv_style.c ****             list_dest->style_cnt = list_src->style_cnt - 1;
 165:lvgl/src/lv_core/lv_style.c ****         }
 166:lvgl/src/lv_core/lv_style.c ****         else {
 167:lvgl/src/lv_core/lv_style.c ****             list_dest->style_list = lv_mem_alloc(list_src->style_cnt * sizeof(lv_style_t *));
 168:lvgl/src/lv_core/lv_style.c ****             _lv_memcpy(list_dest->style_list, list_src->style_list, list_src->style_cnt * sizeof(lv
 169:lvgl/src/lv_core/lv_style.c ****             list_dest->style_cnt = list_src->style_cnt;
 170:lvgl/src/lv_core/lv_style.c ****         }
 171:lvgl/src/lv_core/lv_style.c ****     }
 172:lvgl/src/lv_core/lv_style.c ****     else {
 173:lvgl/src/lv_core/lv_style.c ****         if(list_src->has_trans) {
 174:lvgl/src/lv_core/lv_style.c ****             list_dest->style_list = lv_mem_alloc((list_src->style_cnt - 2) * sizeof(lv_style_t *));
 175:lvgl/src/lv_core/lv_style.c ****             _lv_memcpy(list_dest->style_list, list_src->style_list + 2, (list_src->style_cnt - 2) *
 176:lvgl/src/lv_core/lv_style.c ****             list_dest->style_cnt = list_src->style_cnt - 2;
 177:lvgl/src/lv_core/lv_style.c ****         }
 178:lvgl/src/lv_core/lv_style.c ****         else {
 179:lvgl/src/lv_core/lv_style.c ****             list_dest->style_list = lv_mem_alloc((list_src->style_cnt - 1) * sizeof(lv_style_t *));
 180:lvgl/src/lv_core/lv_style.c ****             _lv_memcpy(list_dest->style_list, list_src->style_list + 1, (list_src->style_cnt - 1) *
 181:lvgl/src/lv_core/lv_style.c ****             list_dest->style_cnt = list_src->style_cnt - 1;
 182:lvgl/src/lv_core/lv_style.c ****         }
 183:lvgl/src/lv_core/lv_style.c **** 
 184:lvgl/src/lv_core/lv_style.c ****         lv_style_t * local_style = get_alloc_local_style(list_dest);
 185:lvgl/src/lv_core/lv_style.c ****         lv_style_copy(local_style, get_alloc_local_style((lv_style_list_t *)list_src));
 186:lvgl/src/lv_core/lv_style.c ****     }
 187:lvgl/src/lv_core/lv_style.c **** }
 188:lvgl/src/lv_core/lv_style.c **** 
 189:lvgl/src/lv_core/lv_style.c **** /**
 190:lvgl/src/lv_core/lv_style.c ****  * Add a style to a style list.
 191:lvgl/src/lv_core/lv_style.c ****  * Only the style pointer will be saved so the shouldn't be a local variable.
 192:lvgl/src/lv_core/lv_style.c ****  * (It should be static, global or dynamically allocated)
 193:lvgl/src/lv_core/lv_style.c ****  * @param list pointer to a style list
 194:lvgl/src/lv_core/lv_style.c ****  * @param style pointer to a style to add
 195:lvgl/src/lv_core/lv_style.c ****  */
 196:lvgl/src/lv_core/lv_style.c **** void _lv_style_list_add_style(lv_style_list_t * list, lv_style_t * style)
 197:lvgl/src/lv_core/lv_style.c **** {
 198:lvgl/src/lv_core/lv_style.c ****     LV_ASSERT_STYLE_LIST(list);
 199:lvgl/src/lv_core/lv_style.c ****     LV_ASSERT_STYLE(style);
 200:lvgl/src/lv_core/lv_style.c **** 
 201:lvgl/src/lv_core/lv_style.c ****     if(list == NULL) return;
ARM GAS  D:\Temp\cceOI0TF.s 			page 6


 202:lvgl/src/lv_core/lv_style.c **** 
 203:lvgl/src/lv_core/lv_style.c ****     /*Remove the style first if already exists*/
 204:lvgl/src/lv_core/lv_style.c ****     _lv_style_list_remove_style(list, style);
 205:lvgl/src/lv_core/lv_style.c **** 
 206:lvgl/src/lv_core/lv_style.c ****     lv_style_t ** new_classes;
 207:lvgl/src/lv_core/lv_style.c ****     if(list->style_cnt == 0) new_classes = lv_mem_alloc(sizeof(lv_style_t *));
 208:lvgl/src/lv_core/lv_style.c ****     else new_classes = lv_mem_realloc(list->style_list, sizeof(lv_style_t *) * (list->style_cnt + 1
 209:lvgl/src/lv_core/lv_style.c ****     LV_ASSERT_MEM(new_classes);
 210:lvgl/src/lv_core/lv_style.c ****     if(new_classes == NULL) {
 211:lvgl/src/lv_core/lv_style.c ****         LV_LOG_WARN("lv_style_list_add_style: couldn't add the class");
 212:lvgl/src/lv_core/lv_style.c ****         return;
 213:lvgl/src/lv_core/lv_style.c ****     }
 214:lvgl/src/lv_core/lv_style.c **** 
 215:lvgl/src/lv_core/lv_style.c ****     /*Make space for the new style at the beginning. Leave local and trans style if exists*/
 216:lvgl/src/lv_core/lv_style.c ****     uint8_t i;
 217:lvgl/src/lv_core/lv_style.c ****     uint8_t first_style = 0;
 218:lvgl/src/lv_core/lv_style.c ****     if(list->has_trans) first_style++;
 219:lvgl/src/lv_core/lv_style.c ****     if(list->has_local) first_style++;
 220:lvgl/src/lv_core/lv_style.c ****     for(i = list->style_cnt; i > first_style; i--) {
 221:lvgl/src/lv_core/lv_style.c ****         new_classes[i] = new_classes[i - 1];
 222:lvgl/src/lv_core/lv_style.c ****     }
 223:lvgl/src/lv_core/lv_style.c **** 
 224:lvgl/src/lv_core/lv_style.c ****     new_classes[first_style] = style;
 225:lvgl/src/lv_core/lv_style.c ****     list->style_cnt++;
 226:lvgl/src/lv_core/lv_style.c ****     list->style_list = new_classes;
 227:lvgl/src/lv_core/lv_style.c **** }
 228:lvgl/src/lv_core/lv_style.c **** 
 229:lvgl/src/lv_core/lv_style.c **** /**
 230:lvgl/src/lv_core/lv_style.c ****  * Remove a style from a style list
 231:lvgl/src/lv_core/lv_style.c ****  * @param style_list pointer to a style list
 232:lvgl/src/lv_core/lv_style.c ****  * @param style pointer to a style to remove
 233:lvgl/src/lv_core/lv_style.c ****  */
 234:lvgl/src/lv_core/lv_style.c **** void _lv_style_list_remove_style(lv_style_list_t * list, lv_style_t * style)
 235:lvgl/src/lv_core/lv_style.c **** {
  90              		.loc 1 235 1 is_stmt 1 view -0
  91              		.cfi_startproc
  92              		@ args = 0, pretend = 0, frame = 0
  93              		@ frame_needed = 0, uses_anonymous_args = 0
  94              		.loc 1 235 1 is_stmt 0 view .LVU9
  95 0000 70B5     		push	{r4, r5, r6, lr}
  96              	.LCFI2:
  97              		.cfi_def_cfa_offset 16
  98              		.cfi_offset 4, -16
  99              		.cfi_offset 5, -12
 100              		.cfi_offset 6, -8
 101              		.cfi_offset 14, -4
 236:lvgl/src/lv_core/lv_style.c ****     LV_ASSERT_STYLE_LIST(list);
 102              		.loc 1 236 31 is_stmt 1 view .LVU10
 237:lvgl/src/lv_core/lv_style.c ****     LV_ASSERT_STYLE(style);
 103              		.loc 1 237 27 view .LVU11
 238:lvgl/src/lv_core/lv_style.c **** 
 239:lvgl/src/lv_core/lv_style.c ****     if(list->style_cnt == 0) return;
 104              		.loc 1 239 5 view .LVU12
 105              		.loc 1 239 24 is_stmt 0 view .LVU13
 106 0002 0379     		ldrb	r3, [r0, #4]	@ zero_extendqisi2
 107              		.loc 1 239 7 view .LVU14
 108 0004 13F03F06 		ands	r6, r3, #63
ARM GAS  D:\Temp\cceOI0TF.s 			page 7


 109 0008 50D0     		beq	.L5
 240:lvgl/src/lv_core/lv_style.c **** 
 241:lvgl/src/lv_core/lv_style.c ****     /*Check if the style really exists here*/
 242:lvgl/src/lv_core/lv_style.c ****     uint8_t i;
 243:lvgl/src/lv_core/lv_style.c ****     bool found = false;
 244:lvgl/src/lv_core/lv_style.c ****     for(i = 0; i < list->style_cnt; i++) {
 110              		.loc 1 244 11 view .LVU15
 111 000a 0023     		movs	r3, #0
 112              	.L7:
 113              	.LVL5:
 114              		.loc 1 244 24 discriminator 1 view .LVU16
 115 000c 0279     		ldrb	r2, [r0, #4]	@ zero_extendqisi2
 116 000e 02F03F02 		and	r2, r2, #63
 117              		.loc 1 244 5 discriminator 1 view .LVU17
 118 0012 9A42     		cmp	r2, r3
 119 0014 07D9     		bls	.L18
 245:lvgl/src/lv_core/lv_style.c ****         if(list->style_list[i] == style) {
 120              		.loc 1 245 9 is_stmt 1 view .LVU18
 121              		.loc 1 245 16 is_stmt 0 view .LVU19
 122 0016 0468     		ldr	r4, [r0]
 123              		.loc 1 245 28 view .LVU20
 124 0018 54F82340 		ldr	r4, [r4, r3, lsl #2]
 125              		.loc 1 245 11 view .LVU21
 126 001c 8C42     		cmp	r4, r1
 127 001e 15D0     		beq	.L16
 244:lvgl/src/lv_core/lv_style.c ****         if(list->style_list[i] == style) {
 128              		.loc 1 244 38 discriminator 2 view .LVU22
 129 0020 0133     		adds	r3, r3, #1
 130              	.LVL6:
 244:lvgl/src/lv_core/lv_style.c ****         if(list->style_list[i] == style) {
 131              		.loc 1 244 38 discriminator 2 view .LVU23
 132 0022 DBB2     		uxtb	r3, r3
 133              	.LVL7:
 244:lvgl/src/lv_core/lv_style.c ****         if(list->style_list[i] == style) {
 134              		.loc 1 244 38 discriminator 2 view .LVU24
 135 0024 F2E7     		b	.L7
 136              	.L18:
 243:lvgl/src/lv_core/lv_style.c ****     for(i = 0; i < list->style_cnt; i++) {
 137              		.loc 1 243 10 view .LVU25
 138 0026 0023     		movs	r3, #0
 139              	.LVL8:
 140              	.L8:
 246:lvgl/src/lv_core/lv_style.c ****             found = true;
 247:lvgl/src/lv_core/lv_style.c ****             break;
 248:lvgl/src/lv_core/lv_style.c ****         }
 249:lvgl/src/lv_core/lv_style.c ****     }
 250:lvgl/src/lv_core/lv_style.c ****     if(found == false) return;
 141              		.loc 1 250 5 is_stmt 1 view .LVU26
 142              		.loc 1 250 7 is_stmt 0 view .LVU27
 143 0028 002B     		cmp	r3, #0
 144 002a 3FD0     		beq	.L5
 145 002c 0D46     		mov	r5, r1
 146 002e 0446     		mov	r4, r0
 251:lvgl/src/lv_core/lv_style.c **** 
 252:lvgl/src/lv_core/lv_style.c ****     if(list->style_cnt == 1) {
 147              		.loc 1 252 5 is_stmt 1 view .LVU28
 148              		.loc 1 252 7 is_stmt 0 view .LVU29
ARM GAS  D:\Temp\cceOI0TF.s 			page 8


 149 0030 012E     		cmp	r6, #1
 150 0032 0DD0     		beq	.L19
 253:lvgl/src/lv_core/lv_style.c ****         lv_mem_free(list->style_list);
 254:lvgl/src/lv_core/lv_style.c ****         list->style_list = NULL;
 255:lvgl/src/lv_core/lv_style.c ****         list->style_cnt = 0;
 256:lvgl/src/lv_core/lv_style.c ****         list->has_local = 0;
 257:lvgl/src/lv_core/lv_style.c ****         return;
 258:lvgl/src/lv_core/lv_style.c ****     }
 259:lvgl/src/lv_core/lv_style.c **** 
 260:lvgl/src/lv_core/lv_style.c ****     lv_style_t ** new_classes = lv_mem_alloc(sizeof(lv_style_t *) * (list->style_cnt - 1));
 151              		.loc 1 260 5 is_stmt 1 view .LVU30
 152              		.loc 1 260 86 is_stmt 0 view .LVU31
 153 0034 013A     		subs	r2, r2, #1
 154              		.loc 1 260 33 view .LVU32
 155 0036 9000     		lsls	r0, r2, #2
 156              	.LVL9:
 157              		.loc 1 260 33 view .LVU33
 158 0038 FFF7FEFF 		bl	lv_mem_alloc
 159              	.LVL10:
 160              		.loc 1 260 33 view .LVU34
 161 003c 0646     		mov	r6, r0
 162              	.LVL11:
 261:lvgl/src/lv_core/lv_style.c ****     LV_ASSERT_MEM(new_classes);
 163              		.loc 1 261 5 is_stmt 1 view .LVU35
 164              		.loc 1 261 5 view .LVU36
 165 003e FFF7FEFF 		bl	lv_debug_check_null
 166              	.LVL12:
 167              		.loc 1 261 5 is_stmt 0 view .LVU37
 168 0042 88B1     		cbz	r0, .L20
 169              		.loc 1 261 31 is_stmt 1 discriminator 2 view .LVU38
 262:lvgl/src/lv_core/lv_style.c ****     if(new_classes == NULL) {
 170              		.loc 1 262 5 discriminator 2 view .LVU39
 171              		.loc 1 262 7 is_stmt 0 discriminator 2 view .LVU40
 172 0044 96B3     		cbz	r6, .L5
 263:lvgl/src/lv_core/lv_style.c ****         LV_LOG_WARN("lv_style_list_remove_style: couldn't reallocate class list");
 264:lvgl/src/lv_core/lv_style.c ****         return;
 265:lvgl/src/lv_core/lv_style.c ****     }
 266:lvgl/src/lv_core/lv_style.c ****     uint8_t j;
 267:lvgl/src/lv_core/lv_style.c ****     for(i = 0, j = 0; i < list->style_cnt; i++) {
 173              		.loc 1 267 18 view .LVU41
 174 0046 0022     		movs	r2, #0
 175              		.loc 1 267 11 view .LVU42
 176 0048 1346     		mov	r3, r2
 177 004a 15E0     		b	.L13
 178              	.LVL13:
 179              	.L16:
 246:lvgl/src/lv_core/lv_style.c ****             break;
 180              		.loc 1 246 19 view .LVU43
 181 004c 0123     		movs	r3, #1
 182              	.LVL14:
 246:lvgl/src/lv_core/lv_style.c ****             break;
 183              		.loc 1 246 19 view .LVU44
 184 004e EBE7     		b	.L8
 185              	.LVL15:
 186              	.L19:
 253:lvgl/src/lv_core/lv_style.c ****         list->style_list = NULL;
 187              		.loc 1 253 9 is_stmt 1 view .LVU45
ARM GAS  D:\Temp\cceOI0TF.s 			page 9


 188 0050 0068     		ldr	r0, [r0]
 189              	.LVL16:
 253:lvgl/src/lv_core/lv_style.c ****         list->style_list = NULL;
 190              		.loc 1 253 9 is_stmt 0 view .LVU46
 191 0052 FFF7FEFF 		bl	lv_mem_free
 192              	.LVL17:
 254:lvgl/src/lv_core/lv_style.c ****         list->style_cnt = 0;
 193              		.loc 1 254 9 is_stmt 1 view .LVU47
 254:lvgl/src/lv_core/lv_style.c ****         list->style_cnt = 0;
 194              		.loc 1 254 26 is_stmt 0 view .LVU48
 195 0056 0022     		movs	r2, #0
 196 0058 2260     		str	r2, [r4]
 255:lvgl/src/lv_core/lv_style.c ****         list->has_local = 0;
 197              		.loc 1 255 9 is_stmt 1 view .LVU49
 255:lvgl/src/lv_core/lv_style.c ****         list->has_local = 0;
 198              		.loc 1 255 25 is_stmt 0 view .LVU50
 199 005a 2379     		ldrb	r3, [r4, #4]	@ zero_extendqisi2
 256:lvgl/src/lv_core/lv_style.c ****         return;
 200              		.loc 1 256 9 is_stmt 1 view .LVU51
 256:lvgl/src/lv_core/lv_style.c ****         return;
 201              		.loc 1 256 25 is_stmt 0 view .LVU52
 202 005c 03F0C003 		and	r3, r3, #192
 203 0060 62F38613 		bfi	r3, r2, #6, #1
 204 0064 2371     		strb	r3, [r4, #4]
 257:lvgl/src/lv_core/lv_style.c ****     }
 205              		.loc 1 257 9 is_stmt 1 view .LVU53
 206 0066 21E0     		b	.L5
 207              	.LVL18:
 208              	.L20:
 261:lvgl/src/lv_core/lv_style.c ****     if(new_classes == NULL) {
 209              		.loc 1 261 5 discriminator 1 view .LVU54
 261:lvgl/src/lv_core/lv_style.c ****     if(new_classes == NULL) {
 210              		.loc 1 261 5 discriminator 1 view .LVU55
 211 0068 3246     		mov	r2, r6
 212 006a 0023     		movs	r3, #0
 213 006c 1048     		ldr	r0, .L22
 214 006e FFF7FEFF 		bl	lv_debug_log_error
 215              	.LVL19:
 216              	.L12:
 261:lvgl/src/lv_core/lv_style.c ****     if(new_classes == NULL) {
 217              		.loc 1 261 5 discriminator 1 view .LVU56
 261:lvgl/src/lv_core/lv_style.c ****     if(new_classes == NULL) {
 218              		.loc 1 261 5 discriminator 1 view .LVU57
 219 0072 FEE7     		b	.L12
 220              	.LVL20:
 221              	.L14:
 222              		.loc 1 267 45 is_stmt 0 discriminator 2 view .LVU58
 223 0074 0133     		adds	r3, r3, #1
 224              	.LVL21:
 225              		.loc 1 267 45 discriminator 2 view .LVU59
 226 0076 DBB2     		uxtb	r3, r3
 227              	.LVL22:
 228              	.L13:
 229              		.loc 1 267 31 discriminator 1 view .LVU60
 230 0078 2179     		ldrb	r1, [r4, #4]	@ zero_extendqisi2
 231 007a 01F03F01 		and	r1, r1, #63
 232              		.loc 1 267 5 discriminator 1 view .LVU61
ARM GAS  D:\Temp\cceOI0TF.s 			page 10


 233 007e 9942     		cmp	r1, r3
 234 0080 09D9     		bls	.L21
 268:lvgl/src/lv_core/lv_style.c ****         if(list->style_list[i] == style) continue;
 235              		.loc 1 268 9 is_stmt 1 view .LVU62
 236              		.loc 1 268 16 is_stmt 0 view .LVU63
 237 0082 2168     		ldr	r1, [r4]
 238              		.loc 1 268 28 view .LVU64
 239 0084 51F82310 		ldr	r1, [r1, r3, lsl #2]
 240              		.loc 1 268 11 view .LVU65
 241 0088 A942     		cmp	r1, r5
 242 008a F3D0     		beq	.L14
 269:lvgl/src/lv_core/lv_style.c ****         new_classes[j] = list->style_list[i];
 243              		.loc 1 269 9 is_stmt 1 view .LVU66
 244              		.loc 1 269 24 is_stmt 0 view .LVU67
 245 008c 46F82210 		str	r1, [r6, r2, lsl #2]
 270:lvgl/src/lv_core/lv_style.c ****         j++;
 246              		.loc 1 270 9 is_stmt 1 view .LVU68
 247              		.loc 1 270 10 is_stmt 0 view .LVU69
 248 0090 0132     		adds	r2, r2, #1
 249              	.LVL23:
 250              		.loc 1 270 10 view .LVU70
 251 0092 D2B2     		uxtb	r2, r2
 252              	.LVL24:
 253              		.loc 1 270 10 view .LVU71
 254 0094 EEE7     		b	.L14
 255              	.L21:
 271:lvgl/src/lv_core/lv_style.c **** 
 272:lvgl/src/lv_core/lv_style.c ****     }
 273:lvgl/src/lv_core/lv_style.c **** 
 274:lvgl/src/lv_core/lv_style.c ****     lv_mem_free(list->style_list);
 256              		.loc 1 274 5 is_stmt 1 view .LVU72
 257 0096 2068     		ldr	r0, [r4]
 258 0098 FFF7FEFF 		bl	lv_mem_free
 259              	.LVL25:
 275:lvgl/src/lv_core/lv_style.c **** 
 276:lvgl/src/lv_core/lv_style.c ****     list->style_cnt--;
 260              		.loc 1 276 5 view .LVU73
 261              		.loc 1 276 9 is_stmt 0 view .LVU74
 262 009c 2379     		ldrb	r3, [r4, #4]	@ zero_extendqisi2
 263 009e 03F03F02 		and	r2, r3, #63
 264              		.loc 1 276 20 view .LVU75
 265 00a2 3F32     		adds	r2, r2, #63
 266 00a4 62F30503 		bfi	r3, r2, #0, #6
 267 00a8 2371     		strb	r3, [r4, #4]
 277:lvgl/src/lv_core/lv_style.c ****     list->style_list = new_classes;
 268              		.loc 1 277 5 is_stmt 1 view .LVU76
 269              		.loc 1 277 22 is_stmt 0 view .LVU77
 270 00aa 2660     		str	r6, [r4]
 271              	.LVL26:
 272              	.L5:
 278:lvgl/src/lv_core/lv_style.c **** }
 273              		.loc 1 278 1 view .LVU78
 274 00ac 70BD     		pop	{r4, r5, r6, pc}
 275              	.L23:
 276 00ae 00BF     		.align	2
 277              	.L22:
 278 00b0 00000000 		.word	.LC0
ARM GAS  D:\Temp\cceOI0TF.s 			page 11


 279              		.cfi_endproc
 280              	.LFE464:
 282              		.section	.text._lv_style_list_add_style,"ax",%progbits
 283              		.align	1
 284              		.global	_lv_style_list_add_style
 285              		.syntax unified
 286              		.thumb
 287              		.thumb_func
 288              		.fpu fpv4-sp-d16
 290              	_lv_style_list_add_style:
 291              	.LVL27:
 292              	.LFB463:
 197:lvgl/src/lv_core/lv_style.c ****     LV_ASSERT_STYLE_LIST(list);
 293              		.loc 1 197 1 is_stmt 1 view -0
 294              		.cfi_startproc
 295              		@ args = 0, pretend = 0, frame = 0
 296              		@ frame_needed = 0, uses_anonymous_args = 0
 198:lvgl/src/lv_core/lv_style.c ****     LV_ASSERT_STYLE(style);
 297              		.loc 1 198 31 view .LVU80
 199:lvgl/src/lv_core/lv_style.c **** 
 298              		.loc 1 199 27 view .LVU81
 201:lvgl/src/lv_core/lv_style.c **** 
 299              		.loc 1 201 5 view .LVU82
 201:lvgl/src/lv_core/lv_style.c **** 
 300              		.loc 1 201 7 is_stmt 0 view .LVU83
 301 0000 0028     		cmp	r0, #0
 302 0002 47D0     		beq	.L36
 197:lvgl/src/lv_core/lv_style.c ****     LV_ASSERT_STYLE_LIST(list);
 303              		.loc 1 197 1 view .LVU84
 304 0004 70B5     		push	{r4, r5, r6, lr}
 305              	.LCFI3:
 306              		.cfi_def_cfa_offset 16
 307              		.cfi_offset 4, -16
 308              		.cfi_offset 5, -12
 309              		.cfi_offset 6, -8
 310              		.cfi_offset 14, -4
 311 0006 0446     		mov	r4, r0
 312 0008 0E46     		mov	r6, r1
 204:lvgl/src/lv_core/lv_style.c **** 
 313              		.loc 1 204 5 is_stmt 1 view .LVU85
 314 000a FFF7FEFF 		bl	_lv_style_list_remove_style
 315              	.LVL28:
 206:lvgl/src/lv_core/lv_style.c ****     if(list->style_cnt == 0) new_classes = lv_mem_alloc(sizeof(lv_style_t *));
 316              		.loc 1 206 5 view .LVU86
 207:lvgl/src/lv_core/lv_style.c ****     else new_classes = lv_mem_realloc(list->style_list, sizeof(lv_style_t *) * (list->style_cnt + 1
 317              		.loc 1 207 5 view .LVU87
 207:lvgl/src/lv_core/lv_style.c ****     else new_classes = lv_mem_realloc(list->style_list, sizeof(lv_style_t *) * (list->style_cnt + 1
 318              		.loc 1 207 24 is_stmt 0 view .LVU88
 319 000e 2379     		ldrb	r3, [r4, #4]	@ zero_extendqisi2
 207:lvgl/src/lv_core/lv_style.c ****     else new_classes = lv_mem_realloc(list->style_list, sizeof(lv_style_t *) * (list->style_cnt + 1
 320              		.loc 1 207 7 view .LVU89
 321 0010 13F03F0F 		tst	r3, #63
 322 0014 16D1     		bne	.L26
 207:lvgl/src/lv_core/lv_style.c ****     else new_classes = lv_mem_realloc(list->style_list, sizeof(lv_style_t *) * (list->style_cnt + 1
 323              		.loc 1 207 30 is_stmt 1 discriminator 1 view .LVU90
 207:lvgl/src/lv_core/lv_style.c ****     else new_classes = lv_mem_realloc(list->style_list, sizeof(lv_style_t *) * (list->style_cnt + 1
 324              		.loc 1 207 44 is_stmt 0 discriminator 1 view .LVU91
ARM GAS  D:\Temp\cceOI0TF.s 			page 12


 325 0016 0420     		movs	r0, #4
 326 0018 FFF7FEFF 		bl	lv_mem_alloc
 327              	.LVL29:
 328 001c 0546     		mov	r5, r0
 329              	.LVL30:
 330              	.L27:
 209:lvgl/src/lv_core/lv_style.c ****     if(new_classes == NULL) {
 331              		.loc 1 209 5 is_stmt 1 view .LVU92
 209:lvgl/src/lv_core/lv_style.c ****     if(new_classes == NULL) {
 332              		.loc 1 209 5 view .LVU93
 333 001e 2846     		mov	r0, r5
 209:lvgl/src/lv_core/lv_style.c ****     if(new_classes == NULL) {
 334              		.loc 1 209 5 is_stmt 0 view .LVU94
 335 0020 FFF7FEFF 		bl	lv_debug_check_null
 336              	.LVL31:
 209:lvgl/src/lv_core/lv_style.c ****     if(new_classes == NULL) {
 337              		.loc 1 209 5 view .LVU95
 338 0024 C0B1     		cbz	r0, .L39
 209:lvgl/src/lv_core/lv_style.c ****     if(new_classes == NULL) {
 339              		.loc 1 209 31 is_stmt 1 discriminator 2 view .LVU96
 210:lvgl/src/lv_core/lv_style.c ****         LV_LOG_WARN("lv_style_list_add_style: couldn't add the class");
 340              		.loc 1 210 5 discriminator 2 view .LVU97
 210:lvgl/src/lv_core/lv_style.c ****         LV_LOG_WARN("lv_style_list_add_style: couldn't add the class");
 341              		.loc 1 210 7 is_stmt 0 discriminator 2 view .LVU98
 342 0026 A5B3     		cbz	r5, .L24
 216:lvgl/src/lv_core/lv_style.c ****     uint8_t first_style = 0;
 343              		.loc 1 216 5 is_stmt 1 view .LVU99
 217:lvgl/src/lv_core/lv_style.c ****     if(list->has_trans) first_style++;
 344              		.loc 1 217 5 view .LVU100
 345              	.LVL32:
 218:lvgl/src/lv_core/lv_style.c ****     if(list->has_local) first_style++;
 346              		.loc 1 218 5 view .LVU101
 218:lvgl/src/lv_core/lv_style.c ****     if(list->has_local) first_style++;
 347              		.loc 1 218 8 is_stmt 0 view .LVU102
 348 0028 2379     		ldrb	r3, [r4, #4]	@ zero_extendqisi2
 218:lvgl/src/lv_core/lv_style.c ****     if(list->has_local) first_style++;
 349              		.loc 1 218 7 view .LVU103
 350 002a 13F0800F 		tst	r3, #128
 351 002e 19D1     		bne	.L34
 217:lvgl/src/lv_core/lv_style.c ****     if(list->has_trans) first_style++;
 352              		.loc 1 217 13 view .LVU104
 353 0030 0022     		movs	r2, #0
 354              	.L30:
 355              	.LVL33:
 219:lvgl/src/lv_core/lv_style.c ****     for(i = list->style_cnt; i > first_style; i--) {
 356              		.loc 1 219 5 is_stmt 1 view .LVU105
 219:lvgl/src/lv_core/lv_style.c ****     for(i = list->style_cnt; i > first_style; i--) {
 357              		.loc 1 219 7 is_stmt 0 view .LVU106
 358 0032 13F0400F 		tst	r3, #64
 359 0036 01D0     		beq	.L31
 219:lvgl/src/lv_core/lv_style.c ****     for(i = list->style_cnt; i > first_style; i--) {
 360              		.loc 1 219 25 is_stmt 1 discriminator 1 view .LVU107
 219:lvgl/src/lv_core/lv_style.c ****     for(i = list->style_cnt; i > first_style; i--) {
 361              		.loc 1 219 36 is_stmt 0 discriminator 1 view .LVU108
 362 0038 0132     		adds	r2, r2, #1
 363              	.LVL34:
 219:lvgl/src/lv_core/lv_style.c ****     for(i = list->style_cnt; i > first_style; i--) {
ARM GAS  D:\Temp\cceOI0TF.s 			page 13


 364              		.loc 1 219 36 discriminator 1 view .LVU109
 365 003a D2B2     		uxtb	r2, r2
 366              	.LVL35:
 367              	.L31:
 220:lvgl/src/lv_core/lv_style.c ****         new_classes[i] = new_classes[i - 1];
 368              		.loc 1 220 5 is_stmt 1 view .LVU110
 220:lvgl/src/lv_core/lv_style.c ****         new_classes[i] = new_classes[i - 1];
 369              		.loc 1 220 17 is_stmt 0 view .LVU111
 370 003c 2379     		ldrb	r3, [r4, #4]	@ zero_extendqisi2
 371 003e 03F03F03 		and	r3, r3, #63
 372              	.LVL36:
 220:lvgl/src/lv_core/lv_style.c ****         new_classes[i] = new_classes[i - 1];
 373              		.loc 1 220 5 view .LVU112
 374 0042 1AE0     		b	.L32
 375              	.LVL37:
 376              	.L26:
 208:lvgl/src/lv_core/lv_style.c ****     LV_ASSERT_MEM(new_classes);
 377              		.loc 1 208 10 is_stmt 1 view .LVU113
 208:lvgl/src/lv_core/lv_style.c ****     LV_ASSERT_MEM(new_classes);
 378              		.loc 1 208 85 is_stmt 0 view .LVU114
 379 0044 2179     		ldrb	r1, [r4, #4]	@ zero_extendqisi2
 380 0046 01F03F01 		and	r1, r1, #63
 208:lvgl/src/lv_core/lv_style.c ****     LV_ASSERT_MEM(new_classes);
 381              		.loc 1 208 97 view .LVU115
 382 004a 0131     		adds	r1, r1, #1
 208:lvgl/src/lv_core/lv_style.c ****     LV_ASSERT_MEM(new_classes);
 383              		.loc 1 208 24 view .LVU116
 384 004c 8900     		lsls	r1, r1, #2
 385 004e 2068     		ldr	r0, [r4]
 386 0050 FFF7FEFF 		bl	lv_mem_realloc
 387              	.LVL38:
 388 0054 0546     		mov	r5, r0
 389              	.LVL39:
 208:lvgl/src/lv_core/lv_style.c ****     LV_ASSERT_MEM(new_classes);
 390              		.loc 1 208 24 view .LVU117
 391 0056 E2E7     		b	.L27
 392              	.LVL40:
 393              	.L39:
 209:lvgl/src/lv_core/lv_style.c ****     if(new_classes == NULL) {
 394              		.loc 1 209 5 is_stmt 1 discriminator 1 view .LVU118
 209:lvgl/src/lv_core/lv_style.c ****     if(new_classes == NULL) {
 395              		.loc 1 209 5 discriminator 1 view .LVU119
 396 0058 2A46     		mov	r2, r5
 397 005a 0023     		movs	r3, #0
 398 005c 0E48     		ldr	r0, .L40
 399 005e FFF7FEFF 		bl	lv_debug_log_error
 400              	.LVL41:
 401              	.L29:
 209:lvgl/src/lv_core/lv_style.c ****     if(new_classes == NULL) {
 402              		.loc 1 209 5 discriminator 1 view .LVU120
 209:lvgl/src/lv_core/lv_style.c ****     if(new_classes == NULL) {
 403              		.loc 1 209 5 discriminator 1 view .LVU121
 404 0062 FEE7     		b	.L29
 405              	.LVL42:
 406              	.L34:
 218:lvgl/src/lv_core/lv_style.c ****     if(list->has_local) first_style++;
 407              		.loc 1 218 36 is_stmt 0 view .LVU122
ARM GAS  D:\Temp\cceOI0TF.s 			page 14


 408 0064 0122     		movs	r2, #1
 409 0066 E4E7     		b	.L30
 410              	.LVL43:
 411              	.L33:
 221:lvgl/src/lv_core/lv_style.c ****     }
 412              		.loc 1 221 9 is_stmt 1 discriminator 3 view .LVU123
 221:lvgl/src/lv_core/lv_style.c ****     }
 413              		.loc 1 221 37 is_stmt 0 discriminator 3 view .LVU124
 414 0068 03F18041 		add	r1, r3, #1073741824
 415 006c 0139     		subs	r1, r1, #1
 416 006e 55F82110 		ldr	r1, [r5, r1, lsl #2]
 221:lvgl/src/lv_core/lv_style.c ****     }
 417              		.loc 1 221 24 discriminator 3 view .LVU125
 418 0072 45F82310 		str	r1, [r5, r3, lsl #2]
 220:lvgl/src/lv_core/lv_style.c ****         new_classes[i] = new_classes[i - 1];
 419              		.loc 1 220 48 discriminator 3 view .LVU126
 420 0076 013B     		subs	r3, r3, #1
 421              	.LVL44:
 220:lvgl/src/lv_core/lv_style.c ****         new_classes[i] = new_classes[i - 1];
 422              		.loc 1 220 48 discriminator 3 view .LVU127
 423 0078 DBB2     		uxtb	r3, r3
 424              	.LVL45:
 425              	.L32:
 220:lvgl/src/lv_core/lv_style.c ****         new_classes[i] = new_classes[i - 1];
 426              		.loc 1 220 5 discriminator 1 view .LVU128
 427 007a 9342     		cmp	r3, r2
 428 007c F4D8     		bhi	.L33
 224:lvgl/src/lv_core/lv_style.c ****     list->style_cnt++;
 429              		.loc 1 224 5 is_stmt 1 view .LVU129
 224:lvgl/src/lv_core/lv_style.c ****     list->style_cnt++;
 430              		.loc 1 224 30 is_stmt 0 view .LVU130
 431 007e 45F82260 		str	r6, [r5, r2, lsl #2]
 225:lvgl/src/lv_core/lv_style.c ****     list->style_list = new_classes;
 432              		.loc 1 225 5 is_stmt 1 view .LVU131
 225:lvgl/src/lv_core/lv_style.c ****     list->style_list = new_classes;
 433              		.loc 1 225 9 is_stmt 0 view .LVU132
 434 0082 2379     		ldrb	r3, [r4, #4]	@ zero_extendqisi2
 435              	.LVL46:
 225:lvgl/src/lv_core/lv_style.c ****     list->style_list = new_classes;
 436              		.loc 1 225 9 view .LVU133
 437 0084 03F03F02 		and	r2, r3, #63
 438              	.LVL47:
 225:lvgl/src/lv_core/lv_style.c ****     list->style_list = new_classes;
 439              		.loc 1 225 20 view .LVU134
 440 0088 0132     		adds	r2, r2, #1
 441 008a 62F30503 		bfi	r3, r2, #0, #6
 442 008e 2371     		strb	r3, [r4, #4]
 226:lvgl/src/lv_core/lv_style.c **** }
 443              		.loc 1 226 5 is_stmt 1 view .LVU135
 226:lvgl/src/lv_core/lv_style.c **** }
 444              		.loc 1 226 22 is_stmt 0 view .LVU136
 445 0090 2560     		str	r5, [r4]
 446              	.L24:
 227:lvgl/src/lv_core/lv_style.c **** 
 447              		.loc 1 227 1 view .LVU137
 448 0092 70BD     		pop	{r4, r5, r6, pc}
 449              	.LVL48:
ARM GAS  D:\Temp\cceOI0TF.s 			page 15


 450              	.L36:
 451              	.LCFI4:
 452              		.cfi_def_cfa_offset 0
 453              		.cfi_restore 4
 454              		.cfi_restore 5
 455              		.cfi_restore 6
 456              		.cfi_restore 14
 227:lvgl/src/lv_core/lv_style.c **** 
 457              		.loc 1 227 1 view .LVU138
 458 0094 7047     		bx	lr
 459              	.L41:
 460 0096 00BF     		.align	2
 461              	.L40:
 462 0098 00000000 		.word	.LC0
 463              		.cfi_endproc
 464              	.LFE463:
 466              		.section	.text.get_alloc_local_style,"ax",%progbits
 467              		.align	1
 468              		.syntax unified
 469              		.thumb
 470              		.thumb_func
 471              		.fpu fpv4-sp-d16
 473              	get_alloc_local_style:
 474              	.LVL49:
 475              	.LFB490:
 279:lvgl/src/lv_core/lv_style.c **** 
 280:lvgl/src/lv_core/lv_style.c **** /**
 281:lvgl/src/lv_core/lv_style.c ****  * Remove all styles added from style list, clear the local style, transition style and free all al
 282:lvgl/src/lv_core/lv_style.c ****  * Leave `ignore_trans` flag as it is.
 283:lvgl/src/lv_core/lv_style.c ****  * @param list pointer to a style list.
 284:lvgl/src/lv_core/lv_style.c ****  */
 285:lvgl/src/lv_core/lv_style.c **** void _lv_style_list_reset(lv_style_list_t * list)
 286:lvgl/src/lv_core/lv_style.c **** {
 287:lvgl/src/lv_core/lv_style.c ****     LV_ASSERT_STYLE_LIST(list);
 288:lvgl/src/lv_core/lv_style.c **** 
 289:lvgl/src/lv_core/lv_style.c ****     if(list == NULL) return;
 290:lvgl/src/lv_core/lv_style.c **** 
 291:lvgl/src/lv_core/lv_style.c ****     if(list->has_local) {
 292:lvgl/src/lv_core/lv_style.c ****         lv_style_t * local = lv_style_list_get_local_style(list);
 293:lvgl/src/lv_core/lv_style.c ****         if(local) {
 294:lvgl/src/lv_core/lv_style.c ****             lv_style_reset(local);
 295:lvgl/src/lv_core/lv_style.c ****             lv_mem_free(local);
 296:lvgl/src/lv_core/lv_style.c ****         }
 297:lvgl/src/lv_core/lv_style.c ****     }
 298:lvgl/src/lv_core/lv_style.c **** 
 299:lvgl/src/lv_core/lv_style.c ****     if(list->has_trans) {
 300:lvgl/src/lv_core/lv_style.c ****         lv_style_t * trans = _lv_style_list_get_transition_style(list);
 301:lvgl/src/lv_core/lv_style.c ****         if(trans) {
 302:lvgl/src/lv_core/lv_style.c ****             lv_style_reset(trans);
 303:lvgl/src/lv_core/lv_style.c ****             lv_mem_free(trans);
 304:lvgl/src/lv_core/lv_style.c ****         }
 305:lvgl/src/lv_core/lv_style.c ****     }
 306:lvgl/src/lv_core/lv_style.c **** 
 307:lvgl/src/lv_core/lv_style.c ****     if(list->style_cnt > 0) lv_mem_free(list->style_list);
 308:lvgl/src/lv_core/lv_style.c ****     list->style_list = NULL;
 309:lvgl/src/lv_core/lv_style.c ****     list->style_cnt = 0;
 310:lvgl/src/lv_core/lv_style.c ****     list->has_local = 0;
ARM GAS  D:\Temp\cceOI0TF.s 			page 16


 311:lvgl/src/lv_core/lv_style.c ****     list->has_trans = 0;
 312:lvgl/src/lv_core/lv_style.c ****     list->skip_trans = 0;
 313:lvgl/src/lv_core/lv_style.c **** 
 314:lvgl/src/lv_core/lv_style.c ****     /* Intentionally leave `ignore_trans` as it is,
 315:lvgl/src/lv_core/lv_style.c ****      * because it's independent from the styles in the list*/
 316:lvgl/src/lv_core/lv_style.c **** }
 317:lvgl/src/lv_core/lv_style.c **** 
 318:lvgl/src/lv_core/lv_style.c **** /**
 319:lvgl/src/lv_core/lv_style.c ****  * Clear all properties from a style and all allocated memories.
 320:lvgl/src/lv_core/lv_style.c ****  * @param style pointer to a style
 321:lvgl/src/lv_core/lv_style.c ****  */
 322:lvgl/src/lv_core/lv_style.c **** void lv_style_reset(lv_style_t * style)
 323:lvgl/src/lv_core/lv_style.c **** {
 324:lvgl/src/lv_core/lv_style.c ****     LV_ASSERT_STYLE(style);
 325:lvgl/src/lv_core/lv_style.c **** 
 326:lvgl/src/lv_core/lv_style.c ****     lv_mem_free(style->map);
 327:lvgl/src/lv_core/lv_style.c ****     style->map = NULL;
 328:lvgl/src/lv_core/lv_style.c **** }
 329:lvgl/src/lv_core/lv_style.c **** 
 330:lvgl/src/lv_core/lv_style.c **** /**
 331:lvgl/src/lv_core/lv_style.c ****  * Get the size of the properties in a style in bytes
 332:lvgl/src/lv_core/lv_style.c ****  * @param style pointer to a style
 333:lvgl/src/lv_core/lv_style.c ****  * @return size of the properties in bytes
 334:lvgl/src/lv_core/lv_style.c ****  */
 335:lvgl/src/lv_core/lv_style.c **** uint16_t _lv_style_get_mem_size(const lv_style_t * style)
 336:lvgl/src/lv_core/lv_style.c **** {
 337:lvgl/src/lv_core/lv_style.c ****     LV_ASSERT_STYLE(style);
 338:lvgl/src/lv_core/lv_style.c **** 
 339:lvgl/src/lv_core/lv_style.c ****     if(style->map == NULL) return 0;
 340:lvgl/src/lv_core/lv_style.c **** 
 341:lvgl/src/lv_core/lv_style.c ****     size_t i = 0;
 342:lvgl/src/lv_core/lv_style.c ****     uint8_t prop_id;
 343:lvgl/src/lv_core/lv_style.c ****     while((prop_id = get_style_prop_id(style, i)) != _LV_STYLE_CLOSING_PROP) {
 344:lvgl/src/lv_core/lv_style.c ****         i = get_next_prop_index(prop_id, i);
 345:lvgl/src/lv_core/lv_style.c ****     }
 346:lvgl/src/lv_core/lv_style.c **** 
 347:lvgl/src/lv_core/lv_style.c ****     return i + sizeof(lv_style_property_t);
 348:lvgl/src/lv_core/lv_style.c **** }
 349:lvgl/src/lv_core/lv_style.c **** 
 350:lvgl/src/lv_core/lv_style.c **** /**
 351:lvgl/src/lv_core/lv_style.c ****  * Set an integer typed property in a style.
 352:lvgl/src/lv_core/lv_style.c ****  * @param style pointer to a style where the property should be set
 353:lvgl/src/lv_core/lv_style.c ****  * @param prop a style property ORed with a state.
 354:lvgl/src/lv_core/lv_style.c ****  * E.g. `LV_STYLE_BORDER_WIDTH | (LV_STATE_PRESSED << LV_STYLE_STATE_POS)`
 355:lvgl/src/lv_core/lv_style.c ****  * @param value the value to set
 356:lvgl/src/lv_core/lv_style.c ****  * @note shouldn't be used directly. Use the specific property set functions instead.
 357:lvgl/src/lv_core/lv_style.c ****  *       For example: `lv_style_set_border_width()`
 358:lvgl/src/lv_core/lv_style.c ****  * @note for performance reasons it's not checked if the property really has integer type
 359:lvgl/src/lv_core/lv_style.c ****  */
 360:lvgl/src/lv_core/lv_style.c **** void _lv_style_set_int(lv_style_t * style, lv_style_property_t prop, lv_style_int_t value)
 361:lvgl/src/lv_core/lv_style.c **** {
 362:lvgl/src/lv_core/lv_style.c ****     LV_ASSERT_STYLE(style);
 363:lvgl/src/lv_core/lv_style.c **** 
 364:lvgl/src/lv_core/lv_style.c ****     int32_t id = get_property_index(style, prop);
 365:lvgl/src/lv_core/lv_style.c ****     /*The property already exists but not sure it's state is the same*/
 366:lvgl/src/lv_core/lv_style.c ****     if(id >= 0) {
 367:lvgl/src/lv_core/lv_style.c ****         lv_style_attr_t attr_found;
ARM GAS  D:\Temp\cceOI0TF.s 			page 17


 368:lvgl/src/lv_core/lv_style.c ****         lv_style_attr_t attr_goal;
 369:lvgl/src/lv_core/lv_style.c **** 
 370:lvgl/src/lv_core/lv_style.c ****         attr_found = get_style_prop_attr(style, id);
 371:lvgl/src/lv_core/lv_style.c ****         attr_goal = (prop >> 8) & 0xFFU;
 372:lvgl/src/lv_core/lv_style.c **** 
 373:lvgl/src/lv_core/lv_style.c ****         if(LV_STYLE_ATTR_GET_STATE(attr_found) == LV_STYLE_ATTR_GET_STATE(attr_goal)) {
 374:lvgl/src/lv_core/lv_style.c ****             _lv_memcpy_small(style->map + id + sizeof(lv_style_property_t), &value, sizeof(lv_style
 375:lvgl/src/lv_core/lv_style.c ****             return;
 376:lvgl/src/lv_core/lv_style.c ****         }
 377:lvgl/src/lv_core/lv_style.c ****     }
 378:lvgl/src/lv_core/lv_style.c **** 
 379:lvgl/src/lv_core/lv_style.c ****     /*Add new property if not exists yet*/
 380:lvgl/src/lv_core/lv_style.c ****     uint8_t new_prop_size = (sizeof(lv_style_property_t) + sizeof(lv_style_int_t));
 381:lvgl/src/lv_core/lv_style.c ****     lv_style_property_t end_mark = _LV_STYLE_CLOSING_PROP;
 382:lvgl/src/lv_core/lv_style.c ****     uint8_t end_mark_size = sizeof(end_mark);
 383:lvgl/src/lv_core/lv_style.c **** 
 384:lvgl/src/lv_core/lv_style.c ****     uint16_t size = _lv_style_get_mem_size(style);
 385:lvgl/src/lv_core/lv_style.c ****     if(size == 0) size += end_mark_size;
 386:lvgl/src/lv_core/lv_style.c ****     size += sizeof(lv_style_property_t) + sizeof(lv_style_int_t);
 387:lvgl/src/lv_core/lv_style.c ****     style_resize(style, size);
 388:lvgl/src/lv_core/lv_style.c ****     LV_ASSERT_MEM(style->map);
 389:lvgl/src/lv_core/lv_style.c ****     if(style == NULL) return;
 390:lvgl/src/lv_core/lv_style.c **** 
 391:lvgl/src/lv_core/lv_style.c ****     _lv_memcpy_small(style->map + size - new_prop_size - end_mark_size, &prop, sizeof(lv_style_prop
 392:lvgl/src/lv_core/lv_style.c ****     _lv_memcpy_small(style->map + size - sizeof(lv_style_int_t) - end_mark_size, &value, sizeof(lv_
 393:lvgl/src/lv_core/lv_style.c ****     _lv_memcpy_small(style->map + size - end_mark_size, &end_mark, sizeof(end_mark));
 394:lvgl/src/lv_core/lv_style.c **** }
 395:lvgl/src/lv_core/lv_style.c **** 
 396:lvgl/src/lv_core/lv_style.c **** /**
 397:lvgl/src/lv_core/lv_style.c ****  * Set a color typed property in a style.
 398:lvgl/src/lv_core/lv_style.c ****  * @param style pointer to a style where the property should be set
 399:lvgl/src/lv_core/lv_style.c ****  * @param prop a style property ORed with a state.
 400:lvgl/src/lv_core/lv_style.c ****  * E.g. `LV_STYLE_BORDER_COLOR | (LV_STATE_PRESSED << LV_STYLE_STATE_POS)`
 401:lvgl/src/lv_core/lv_style.c ****  * @param value the value to set
 402:lvgl/src/lv_core/lv_style.c ****  * @note shouldn't be used directly. Use the specific property set functions instead.
 403:lvgl/src/lv_core/lv_style.c ****  *       For example: `lv_style_set_border_color()`
 404:lvgl/src/lv_core/lv_style.c ****  * @note for performance reasons it's not checked if the property really has color type
 405:lvgl/src/lv_core/lv_style.c ****  */
 406:lvgl/src/lv_core/lv_style.c **** void _lv_style_set_color(lv_style_t * style, lv_style_property_t prop, lv_color_t color)
 407:lvgl/src/lv_core/lv_style.c **** {
 408:lvgl/src/lv_core/lv_style.c ****     LV_ASSERT_STYLE(style);
 409:lvgl/src/lv_core/lv_style.c **** 
 410:lvgl/src/lv_core/lv_style.c ****     int32_t id = get_property_index(style, prop);
 411:lvgl/src/lv_core/lv_style.c ****     /*The property already exists but not sure it's state is the same*/
 412:lvgl/src/lv_core/lv_style.c ****     if(id >= 0) {
 413:lvgl/src/lv_core/lv_style.c ****         lv_style_attr_t attr_found;
 414:lvgl/src/lv_core/lv_style.c ****         lv_style_attr_t attr_goal;
 415:lvgl/src/lv_core/lv_style.c **** 
 416:lvgl/src/lv_core/lv_style.c ****         attr_found = get_style_prop_attr(style, id);
 417:lvgl/src/lv_core/lv_style.c ****         attr_goal = (prop >> 8) & 0xFFU;
 418:lvgl/src/lv_core/lv_style.c **** 
 419:lvgl/src/lv_core/lv_style.c ****         if(LV_STYLE_ATTR_GET_STATE(attr_found) == LV_STYLE_ATTR_GET_STATE(attr_goal)) {
 420:lvgl/src/lv_core/lv_style.c ****             _lv_memcpy_small(style->map + id + sizeof(lv_style_property_t), &color, sizeof(lv_color
 421:lvgl/src/lv_core/lv_style.c ****             return;
 422:lvgl/src/lv_core/lv_style.c ****         }
 423:lvgl/src/lv_core/lv_style.c ****     }
 424:lvgl/src/lv_core/lv_style.c **** 
ARM GAS  D:\Temp\cceOI0TF.s 			page 18


 425:lvgl/src/lv_core/lv_style.c ****     /*Add new property if not exists yet*/
 426:lvgl/src/lv_core/lv_style.c ****     uint8_t new_prop_size = (sizeof(lv_style_property_t) + sizeof(lv_color_t));
 427:lvgl/src/lv_core/lv_style.c ****     lv_style_property_t end_mark = _LV_STYLE_CLOSING_PROP;
 428:lvgl/src/lv_core/lv_style.c ****     uint8_t end_mark_size = sizeof(end_mark);
 429:lvgl/src/lv_core/lv_style.c **** 
 430:lvgl/src/lv_core/lv_style.c ****     uint16_t size = _lv_style_get_mem_size(style);
 431:lvgl/src/lv_core/lv_style.c ****     if(size == 0) size += end_mark_size;
 432:lvgl/src/lv_core/lv_style.c **** 
 433:lvgl/src/lv_core/lv_style.c ****     size += sizeof(lv_style_property_t) + sizeof(lv_color_t);
 434:lvgl/src/lv_core/lv_style.c ****     style_resize(style, size);
 435:lvgl/src/lv_core/lv_style.c ****     LV_ASSERT_MEM(style->map);
 436:lvgl/src/lv_core/lv_style.c ****     if(style == NULL) return;
 437:lvgl/src/lv_core/lv_style.c **** 
 438:lvgl/src/lv_core/lv_style.c ****     _lv_memcpy_small(style->map + size - new_prop_size - end_mark_size, &prop, sizeof(lv_style_prop
 439:lvgl/src/lv_core/lv_style.c ****     _lv_memcpy_small(style->map + size - sizeof(lv_color_t) - end_mark_size, &color, sizeof(lv_colo
 440:lvgl/src/lv_core/lv_style.c ****     _lv_memcpy_small(style->map + size - end_mark_size, &end_mark, sizeof(end_mark));
 441:lvgl/src/lv_core/lv_style.c **** }
 442:lvgl/src/lv_core/lv_style.c **** 
 443:lvgl/src/lv_core/lv_style.c **** /**
 444:lvgl/src/lv_core/lv_style.c ****  * Set an opacity typed property in a style.
 445:lvgl/src/lv_core/lv_style.c ****  * @param style pointer to a style where the property should be set
 446:lvgl/src/lv_core/lv_style.c ****  * @param prop a style property ORed with a state.
 447:lvgl/src/lv_core/lv_style.c ****  * E.g. `LV_STYLE_BORDER_OPA | (LV_STATE_PRESSED << LV_STYLE_STATE_POS)`
 448:lvgl/src/lv_core/lv_style.c ****  * @param value the value to set
 449:lvgl/src/lv_core/lv_style.c ****  * @note shouldn't be used directly. Use the specific property set functions instead.
 450:lvgl/src/lv_core/lv_style.c ****  *       For example: `lv_style_set_border_opa()`
 451:lvgl/src/lv_core/lv_style.c ****  * @note for performance reasons it's not checked if the property really has opacity type
 452:lvgl/src/lv_core/lv_style.c ****  */
 453:lvgl/src/lv_core/lv_style.c **** void _lv_style_set_opa(lv_style_t * style, lv_style_property_t prop, lv_opa_t opa)
 454:lvgl/src/lv_core/lv_style.c **** {
 455:lvgl/src/lv_core/lv_style.c ****     LV_ASSERT_STYLE(style);
 456:lvgl/src/lv_core/lv_style.c **** 
 457:lvgl/src/lv_core/lv_style.c ****     int32_t id = get_property_index(style, prop);
 458:lvgl/src/lv_core/lv_style.c ****     /*The property already exists but not sure it's state is the same*/
 459:lvgl/src/lv_core/lv_style.c ****     if(id >= 0) {
 460:lvgl/src/lv_core/lv_style.c ****         lv_style_attr_t attr_found;
 461:lvgl/src/lv_core/lv_style.c ****         lv_style_attr_t attr_goal;
 462:lvgl/src/lv_core/lv_style.c **** 
 463:lvgl/src/lv_core/lv_style.c ****         attr_found = get_style_prop_attr(style, id);
 464:lvgl/src/lv_core/lv_style.c ****         attr_goal = (prop >> 8) & 0xFFU;
 465:lvgl/src/lv_core/lv_style.c **** 
 466:lvgl/src/lv_core/lv_style.c ****         if(LV_STYLE_ATTR_GET_STATE(attr_found) == LV_STYLE_ATTR_GET_STATE(attr_goal)) {
 467:lvgl/src/lv_core/lv_style.c ****             _lv_memcpy_small(style->map + id + sizeof(lv_style_property_t), &opa, sizeof(lv_opa_t))
 468:lvgl/src/lv_core/lv_style.c ****             return;
 469:lvgl/src/lv_core/lv_style.c ****         }
 470:lvgl/src/lv_core/lv_style.c ****     }
 471:lvgl/src/lv_core/lv_style.c **** 
 472:lvgl/src/lv_core/lv_style.c ****     /*Add new property if not exists yet*/
 473:lvgl/src/lv_core/lv_style.c ****     uint8_t new_prop_size = (sizeof(lv_style_property_t) + sizeof(lv_opa_t));
 474:lvgl/src/lv_core/lv_style.c ****     lv_style_property_t end_mark = _LV_STYLE_CLOSING_PROP;
 475:lvgl/src/lv_core/lv_style.c ****     uint8_t end_mark_size = sizeof(end_mark);
 476:lvgl/src/lv_core/lv_style.c **** 
 477:lvgl/src/lv_core/lv_style.c ****     uint16_t size = _lv_style_get_mem_size(style);
 478:lvgl/src/lv_core/lv_style.c ****     if(size == 0) size += end_mark_size;
 479:lvgl/src/lv_core/lv_style.c **** 
 480:lvgl/src/lv_core/lv_style.c ****     size += sizeof(lv_style_property_t) + sizeof(lv_opa_t);
 481:lvgl/src/lv_core/lv_style.c ****     style_resize(style, size);
ARM GAS  D:\Temp\cceOI0TF.s 			page 19


 482:lvgl/src/lv_core/lv_style.c ****     LV_ASSERT_MEM(style->map);
 483:lvgl/src/lv_core/lv_style.c ****     if(style == NULL) return;
 484:lvgl/src/lv_core/lv_style.c **** 
 485:lvgl/src/lv_core/lv_style.c ****     _lv_memcpy_small(style->map + size - new_prop_size - end_mark_size, &prop, sizeof(lv_style_prop
 486:lvgl/src/lv_core/lv_style.c ****     _lv_memcpy_small(style->map + size - sizeof(lv_opa_t) - end_mark_size, &opa, sizeof(lv_opa_t));
 487:lvgl/src/lv_core/lv_style.c ****     _lv_memcpy_small(style->map + size - end_mark_size, &end_mark, sizeof(end_mark));
 488:lvgl/src/lv_core/lv_style.c **** }
 489:lvgl/src/lv_core/lv_style.c **** 
 490:lvgl/src/lv_core/lv_style.c **** /**
 491:lvgl/src/lv_core/lv_style.c ****  * Set a pointer typed property in a style.
 492:lvgl/src/lv_core/lv_style.c ****  * @param style pointer to a style where the property should be set
 493:lvgl/src/lv_core/lv_style.c ****  * @param prop a style property ORed with a state.
 494:lvgl/src/lv_core/lv_style.c ****  * E.g. `LV_STYLE_TEXT_POINTER | (LV_STATE_PRESSED << LV_STYLE_STATE_POS)`
 495:lvgl/src/lv_core/lv_style.c ****  * @param value the value to set
 496:lvgl/src/lv_core/lv_style.c ****  * @note shouldn't be used directly. Use the specific property set functions instead.
 497:lvgl/src/lv_core/lv_style.c ****  *       For example: `lv_style_set_border_width()`
 498:lvgl/src/lv_core/lv_style.c ****  * @note for performance reasons it's not checked if the property is really has pointer type
 499:lvgl/src/lv_core/lv_style.c ****  */
 500:lvgl/src/lv_core/lv_style.c **** void _lv_style_set_ptr(lv_style_t * style, lv_style_property_t prop, const void * p)
 501:lvgl/src/lv_core/lv_style.c **** {
 502:lvgl/src/lv_core/lv_style.c ****     LV_ASSERT_STYLE(style);
 503:lvgl/src/lv_core/lv_style.c **** 
 504:lvgl/src/lv_core/lv_style.c ****     int32_t id = get_property_index(style, prop);
 505:lvgl/src/lv_core/lv_style.c ****     /*The property already exists but not sure it's state is the same*/
 506:lvgl/src/lv_core/lv_style.c ****     if(id >= 0) {
 507:lvgl/src/lv_core/lv_style.c ****         lv_style_attr_t attr_found;
 508:lvgl/src/lv_core/lv_style.c ****         lv_style_attr_t attr_goal;
 509:lvgl/src/lv_core/lv_style.c **** 
 510:lvgl/src/lv_core/lv_style.c ****         attr_found = get_style_prop_attr(style, id);
 511:lvgl/src/lv_core/lv_style.c ****         attr_goal = (prop >> 8) & 0xFFU;
 512:lvgl/src/lv_core/lv_style.c **** 
 513:lvgl/src/lv_core/lv_style.c ****         if(LV_STYLE_ATTR_GET_STATE(attr_found) == LV_STYLE_ATTR_GET_STATE(attr_goal)) {
 514:lvgl/src/lv_core/lv_style.c ****             _lv_memcpy_small(style->map + id + sizeof(lv_style_property_t), &p, sizeof(const void *
 515:lvgl/src/lv_core/lv_style.c ****             return;
 516:lvgl/src/lv_core/lv_style.c ****         }
 517:lvgl/src/lv_core/lv_style.c ****     }
 518:lvgl/src/lv_core/lv_style.c **** 
 519:lvgl/src/lv_core/lv_style.c ****     /*Add new property if not exists yet*/
 520:lvgl/src/lv_core/lv_style.c ****     uint8_t new_prop_size = (sizeof(lv_style_property_t) + sizeof(const void *));
 521:lvgl/src/lv_core/lv_style.c ****     lv_style_property_t end_mark = _LV_STYLE_CLOSING_PROP;
 522:lvgl/src/lv_core/lv_style.c ****     uint8_t end_mark_size = sizeof(end_mark);
 523:lvgl/src/lv_core/lv_style.c **** 
 524:lvgl/src/lv_core/lv_style.c ****     uint16_t size = _lv_style_get_mem_size(style);
 525:lvgl/src/lv_core/lv_style.c ****     if(size == 0) size += end_mark_size;
 526:lvgl/src/lv_core/lv_style.c **** 
 527:lvgl/src/lv_core/lv_style.c ****     size += sizeof(lv_style_property_t) + sizeof(const void *);
 528:lvgl/src/lv_core/lv_style.c ****     style_resize(style, size);
 529:lvgl/src/lv_core/lv_style.c ****     LV_ASSERT_MEM(style->map);
 530:lvgl/src/lv_core/lv_style.c ****     if(style == NULL) return;
 531:lvgl/src/lv_core/lv_style.c **** 
 532:lvgl/src/lv_core/lv_style.c ****     _lv_memcpy_small(style->map + size - new_prop_size - end_mark_size, &prop, sizeof(lv_style_prop
 533:lvgl/src/lv_core/lv_style.c ****     _lv_memcpy_small(style->map + size - sizeof(const void *) - end_mark_size, &p, sizeof(const voi
 534:lvgl/src/lv_core/lv_style.c ****     _lv_memcpy_small(style->map + size - end_mark_size, &end_mark, sizeof(end_mark));
 535:lvgl/src/lv_core/lv_style.c **** }
 536:lvgl/src/lv_core/lv_style.c **** 
 537:lvgl/src/lv_core/lv_style.c **** /**
 538:lvgl/src/lv_core/lv_style.c ****  * Get the a property from a style.
ARM GAS  D:\Temp\cceOI0TF.s 			page 20


 539:lvgl/src/lv_core/lv_style.c ****  * Take into account the style state and return the property which matches the best.
 540:lvgl/src/lv_core/lv_style.c ****  * @param style pointer to a style where to search
 541:lvgl/src/lv_core/lv_style.c ****  * @param prop the property, might contain ORed style states too
 542:lvgl/src/lv_core/lv_style.c ****  * @param res buffer to store the result
 543:lvgl/src/lv_core/lv_style.c ****  * @return the weight of the found property (how well it fits to the style state).
 544:lvgl/src/lv_core/lv_style.c ****  *         Higher number is means better fit
 545:lvgl/src/lv_core/lv_style.c ****  *         -1 if the not found (`res` will be undefined)
 546:lvgl/src/lv_core/lv_style.c ****  */
 547:lvgl/src/lv_core/lv_style.c **** int16_t _lv_style_get_int(const lv_style_t * style, lv_style_property_t prop, void * v_res)
 548:lvgl/src/lv_core/lv_style.c **** {
 549:lvgl/src/lv_core/lv_style.c ****     lv_style_int_t * res = (lv_style_int_t *)v_res;
 550:lvgl/src/lv_core/lv_style.c ****     LV_ASSERT_STYLE(style);
 551:lvgl/src/lv_core/lv_style.c **** 
 552:lvgl/src/lv_core/lv_style.c ****     if(style == NULL) return -1;
 553:lvgl/src/lv_core/lv_style.c ****     if(style->map == NULL) return -1;
 554:lvgl/src/lv_core/lv_style.c **** 
 555:lvgl/src/lv_core/lv_style.c ****     int32_t id = get_property_index(style, prop);
 556:lvgl/src/lv_core/lv_style.c ****     if(id < 0) {
 557:lvgl/src/lv_core/lv_style.c ****         return -1;
 558:lvgl/src/lv_core/lv_style.c ****     }
 559:lvgl/src/lv_core/lv_style.c ****     else {
 560:lvgl/src/lv_core/lv_style.c ****         _lv_memcpy_small(res, &style->map[id + sizeof(lv_style_property_t)], sizeof(lv_style_int_t)
 561:lvgl/src/lv_core/lv_style.c ****         lv_style_attr_t attr_act;
 562:lvgl/src/lv_core/lv_style.c ****         attr_act = get_style_prop_attr(style, id);
 563:lvgl/src/lv_core/lv_style.c **** 
 564:lvgl/src/lv_core/lv_style.c ****         lv_style_attr_t attr_goal;
 565:lvgl/src/lv_core/lv_style.c ****         attr_goal = (prop >> 8) & 0xFF;
 566:lvgl/src/lv_core/lv_style.c **** 
 567:lvgl/src/lv_core/lv_style.c ****         return LV_STYLE_ATTR_GET_STATE(attr_act) & LV_STYLE_ATTR_GET_STATE(attr_goal);
 568:lvgl/src/lv_core/lv_style.c ****     }
 569:lvgl/src/lv_core/lv_style.c **** }
 570:lvgl/src/lv_core/lv_style.c **** 
 571:lvgl/src/lv_core/lv_style.c **** /**
 572:lvgl/src/lv_core/lv_style.c ****  * Get an opacity typed property from a style.
 573:lvgl/src/lv_core/lv_style.c ****  * @param style pointer to a style from where the property should be get
 574:lvgl/src/lv_core/lv_style.c ****  * @param prop a style property ORed with a state.
 575:lvgl/src/lv_core/lv_style.c ****  * E.g. `LV_STYLE_BORDER_OPA | (LV_STATE_PRESSED << LV_STYLE_STATE_POS)`
 576:lvgl/src/lv_core/lv_style.c ****  * @param res pointer to a buffer to store the result value
 577:lvgl/src/lv_core/lv_style.c ****  * @return -1: the property wasn't found in the style.
 578:lvgl/src/lv_core/lv_style.c ****  *         The matching state bits of the desired state (in `prop`) and the best matching property'
 579:lvgl/src/lv_core/lv_style.c ****  *         Higher value means match in higher precedence state.
 580:lvgl/src/lv_core/lv_style.c ****  * @note shouldn't be used directly. Use the specific property get functions instead.
 581:lvgl/src/lv_core/lv_style.c ****  *       For example: `lv_style_get_border_opa()`
 582:lvgl/src/lv_core/lv_style.c ****  * @note for performance reasons it's not checked if the property really has opacity type
 583:lvgl/src/lv_core/lv_style.c ****  */
 584:lvgl/src/lv_core/lv_style.c **** int16_t _lv_style_get_opa(const lv_style_t * style, lv_style_property_t prop, void * v_res)
 585:lvgl/src/lv_core/lv_style.c **** {
 586:lvgl/src/lv_core/lv_style.c ****     lv_opa_t * res = (lv_opa_t *)v_res;
 587:lvgl/src/lv_core/lv_style.c ****     LV_ASSERT_STYLE(style);
 588:lvgl/src/lv_core/lv_style.c **** 
 589:lvgl/src/lv_core/lv_style.c ****     if(style == NULL) return -1;
 590:lvgl/src/lv_core/lv_style.c ****     if(style->map == NULL) return -1;
 591:lvgl/src/lv_core/lv_style.c **** 
 592:lvgl/src/lv_core/lv_style.c ****     int32_t id = get_property_index(style, prop);
 593:lvgl/src/lv_core/lv_style.c ****     if(id < 0) {
 594:lvgl/src/lv_core/lv_style.c ****         return -1;
 595:lvgl/src/lv_core/lv_style.c ****     }
ARM GAS  D:\Temp\cceOI0TF.s 			page 21


 596:lvgl/src/lv_core/lv_style.c ****     else {
 597:lvgl/src/lv_core/lv_style.c ****         _lv_memcpy_small(res, &style->map[id + sizeof(lv_style_property_t)], sizeof(lv_opa_t));
 598:lvgl/src/lv_core/lv_style.c ****         lv_style_attr_t attr_act;
 599:lvgl/src/lv_core/lv_style.c ****         attr_act = get_style_prop_attr(style, id);
 600:lvgl/src/lv_core/lv_style.c **** 
 601:lvgl/src/lv_core/lv_style.c ****         lv_style_attr_t attr_goal;
 602:lvgl/src/lv_core/lv_style.c ****         attr_goal = (prop >> 8) & 0xFF;
 603:lvgl/src/lv_core/lv_style.c **** 
 604:lvgl/src/lv_core/lv_style.c ****         return LV_STYLE_ATTR_GET_STATE(attr_act) & LV_STYLE_ATTR_GET_STATE(attr_goal);
 605:lvgl/src/lv_core/lv_style.c ****     }
 606:lvgl/src/lv_core/lv_style.c **** }
 607:lvgl/src/lv_core/lv_style.c **** 
 608:lvgl/src/lv_core/lv_style.c **** /**
 609:lvgl/src/lv_core/lv_style.c ****  * Get a color typed property from a style.
 610:lvgl/src/lv_core/lv_style.c ****  * @param style pointer to a style from where the property should be get
 611:lvgl/src/lv_core/lv_style.c ****  * @param prop a style property ORed with a state.
 612:lvgl/src/lv_core/lv_style.c ****  * E.g. `LV_STYLE_BORDER_COLOR | (LV_STATE_PRESSED << LV_STYLE_STATE_POS)`
 613:lvgl/src/lv_core/lv_style.c ****  * @param res pointer to a buffer to store the result value
 614:lvgl/src/lv_core/lv_style.c ****  * @return -1: the property wasn't found in the style.
 615:lvgl/src/lv_core/lv_style.c ****  *         The matching state bits of the desired state (in `prop`) and the best matching property'
 616:lvgl/src/lv_core/lv_style.c ****  *         Higher value means match in higher precedence state.
 617:lvgl/src/lv_core/lv_style.c ****  * @note shouldn't be used directly. Use the specific property get functions instead.
 618:lvgl/src/lv_core/lv_style.c ****  *       For example: `lv_style_get_border_color()`
 619:lvgl/src/lv_core/lv_style.c ****  * @note for performance reasons it's not checked if the property really has color type
 620:lvgl/src/lv_core/lv_style.c ****  */
 621:lvgl/src/lv_core/lv_style.c **** int16_t _lv_style_get_color(const lv_style_t * style, lv_style_property_t prop, void * v_res)
 622:lvgl/src/lv_core/lv_style.c **** {
 623:lvgl/src/lv_core/lv_style.c ****     lv_color_t * res = (lv_color_t *)v_res;
 624:lvgl/src/lv_core/lv_style.c ****     if(style == NULL) return -1;
 625:lvgl/src/lv_core/lv_style.c ****     if(style->map == NULL) return -1;
 626:lvgl/src/lv_core/lv_style.c ****     int32_t id = get_property_index(style, prop);
 627:lvgl/src/lv_core/lv_style.c ****     if(id < 0) {
 628:lvgl/src/lv_core/lv_style.c ****         return -1;
 629:lvgl/src/lv_core/lv_style.c ****     }
 630:lvgl/src/lv_core/lv_style.c ****     else {
 631:lvgl/src/lv_core/lv_style.c ****         _lv_memcpy_small(res, &style->map[id + sizeof(lv_style_property_t)], sizeof(lv_color_t));
 632:lvgl/src/lv_core/lv_style.c ****         lv_style_attr_t attr_act;
 633:lvgl/src/lv_core/lv_style.c ****         attr_act = get_style_prop_attr(style, id);
 634:lvgl/src/lv_core/lv_style.c **** 
 635:lvgl/src/lv_core/lv_style.c ****         lv_style_attr_t attr_goal;
 636:lvgl/src/lv_core/lv_style.c ****         attr_goal = (prop >> 8) & 0xFF;
 637:lvgl/src/lv_core/lv_style.c **** 
 638:lvgl/src/lv_core/lv_style.c ****         return LV_STYLE_ATTR_GET_STATE(attr_act) & LV_STYLE_ATTR_GET_STATE(attr_goal);
 639:lvgl/src/lv_core/lv_style.c ****     }
 640:lvgl/src/lv_core/lv_style.c **** }
 641:lvgl/src/lv_core/lv_style.c **** 
 642:lvgl/src/lv_core/lv_style.c **** /**
 643:lvgl/src/lv_core/lv_style.c ****  * Get a pointer typed property from a style.
 644:lvgl/src/lv_core/lv_style.c ****  * @param style pointer to a style from where the property should be get
 645:lvgl/src/lv_core/lv_style.c ****  * @param prop a style property ORed with a state.
 646:lvgl/src/lv_core/lv_style.c ****  * E.g. `LV_STYLE_TEXT_FONT | (LV_STATE_PRESSED << LV_STYLE_STATE_POS)`
 647:lvgl/src/lv_core/lv_style.c ****  * @param res pointer to a buffer to store the result value
 648:lvgl/src/lv_core/lv_style.c ****  * @return -1: the property wasn't found in the style.
 649:lvgl/src/lv_core/lv_style.c ****  *         The matching state bits of the desired state (in `prop`) and the best matching property'
 650:lvgl/src/lv_core/lv_style.c ****  *         Higher value means match in higher precedence state.
 651:lvgl/src/lv_core/lv_style.c ****  * @note shouldn't be used directly. Use the specific property get functions instead.
 652:lvgl/src/lv_core/lv_style.c ****  *       For example: `lv_style_get_text_font()`
ARM GAS  D:\Temp\cceOI0TF.s 			page 22


 653:lvgl/src/lv_core/lv_style.c ****  * @note for performance reasons it's not checked if the property really has pointer type
 654:lvgl/src/lv_core/lv_style.c ****  */
 655:lvgl/src/lv_core/lv_style.c **** int16_t _lv_style_get_ptr(const lv_style_t * style, lv_style_property_t prop, void * v_res)
 656:lvgl/src/lv_core/lv_style.c **** {
 657:lvgl/src/lv_core/lv_style.c ****     const void ** res = (const void **)v_res;
 658:lvgl/src/lv_core/lv_style.c ****     if(style == NULL) return -1;
 659:lvgl/src/lv_core/lv_style.c ****     if(style->map == NULL) return -1;
 660:lvgl/src/lv_core/lv_style.c **** 
 661:lvgl/src/lv_core/lv_style.c ****     int32_t id = get_property_index(style, prop);
 662:lvgl/src/lv_core/lv_style.c ****     if(id < 0) {
 663:lvgl/src/lv_core/lv_style.c ****         return -1;
 664:lvgl/src/lv_core/lv_style.c ****     }
 665:lvgl/src/lv_core/lv_style.c ****     else {
 666:lvgl/src/lv_core/lv_style.c ****         _lv_memcpy_small(res, &style->map[id + sizeof(lv_style_property_t)], sizeof(const void *));
 667:lvgl/src/lv_core/lv_style.c ****         lv_style_attr_t attr_act;
 668:lvgl/src/lv_core/lv_style.c ****         attr_act = get_style_prop_attr(style, id);
 669:lvgl/src/lv_core/lv_style.c **** 
 670:lvgl/src/lv_core/lv_style.c ****         lv_style_attr_t attr_goal;
 671:lvgl/src/lv_core/lv_style.c ****         attr_goal = (prop >> 8) & 0xFF;
 672:lvgl/src/lv_core/lv_style.c **** 
 673:lvgl/src/lv_core/lv_style.c ****         return LV_STYLE_ATTR_GET_STATE(attr_act) & LV_STYLE_ATTR_GET_STATE(attr_goal);
 674:lvgl/src/lv_core/lv_style.c ****     }
 675:lvgl/src/lv_core/lv_style.c **** }
 676:lvgl/src/lv_core/lv_style.c **** 
 677:lvgl/src/lv_core/lv_style.c **** /**
 678:lvgl/src/lv_core/lv_style.c ****  * Get the local style of a style list
 679:lvgl/src/lv_core/lv_style.c ****  * @param list pointer to a style list where the local property should be set
 680:lvgl/src/lv_core/lv_style.c ****  * @return pointer to the local style if exists else `NULL`.
 681:lvgl/src/lv_core/lv_style.c ****  */
 682:lvgl/src/lv_core/lv_style.c **** lv_style_t * lv_style_list_get_local_style(lv_style_list_t * list)
 683:lvgl/src/lv_core/lv_style.c **** {
 684:lvgl/src/lv_core/lv_style.c ****     LV_ASSERT_STYLE_LIST(list);
 685:lvgl/src/lv_core/lv_style.c **** 
 686:lvgl/src/lv_core/lv_style.c ****     if(!list->has_local) return NULL;
 687:lvgl/src/lv_core/lv_style.c ****     if(list->has_trans) return list->style_list[1];
 688:lvgl/src/lv_core/lv_style.c ****     else return list->style_list[0];
 689:lvgl/src/lv_core/lv_style.c **** }
 690:lvgl/src/lv_core/lv_style.c **** 
 691:lvgl/src/lv_core/lv_style.c **** /**
 692:lvgl/src/lv_core/lv_style.c ****  * Get the transition style of a style list
 693:lvgl/src/lv_core/lv_style.c ****  * @param list pointer to a style list where the local property should be set
 694:lvgl/src/lv_core/lv_style.c ****  * @return pointer to the transition style if exists else `NULL`.
 695:lvgl/src/lv_core/lv_style.c ****  */
 696:lvgl/src/lv_core/lv_style.c **** lv_style_t * _lv_style_list_get_transition_style(lv_style_list_t * list)
 697:lvgl/src/lv_core/lv_style.c **** {
 698:lvgl/src/lv_core/lv_style.c ****     LV_ASSERT_STYLE_LIST(list);
 699:lvgl/src/lv_core/lv_style.c **** 
 700:lvgl/src/lv_core/lv_style.c ****     if(!list->has_trans) return NULL;
 701:lvgl/src/lv_core/lv_style.c ****     return list->style_list[0];
 702:lvgl/src/lv_core/lv_style.c **** }
 703:lvgl/src/lv_core/lv_style.c **** 
 704:lvgl/src/lv_core/lv_style.c **** /**
 705:lvgl/src/lv_core/lv_style.c ****  * Allocate the transition style in a style list. If already exists simply return it.
 706:lvgl/src/lv_core/lv_style.c ****  * @param list pointer to a style list
 707:lvgl/src/lv_core/lv_style.c ****  * @return the transition style of a style list
 708:lvgl/src/lv_core/lv_style.c ****  */
 709:lvgl/src/lv_core/lv_style.c **** lv_style_t * _lv_style_list_add_trans_style(lv_style_list_t * list)
ARM GAS  D:\Temp\cceOI0TF.s 			page 23


 710:lvgl/src/lv_core/lv_style.c **** {
 711:lvgl/src/lv_core/lv_style.c ****     LV_ASSERT_STYLE_LIST(list);
 712:lvgl/src/lv_core/lv_style.c ****     if(list->has_trans) return _lv_style_list_get_transition_style(list);
 713:lvgl/src/lv_core/lv_style.c **** 
 714:lvgl/src/lv_core/lv_style.c ****     lv_style_t * trans_style = lv_mem_alloc(sizeof(lv_style_t));
 715:lvgl/src/lv_core/lv_style.c ****     LV_ASSERT_MEM(trans_style);
 716:lvgl/src/lv_core/lv_style.c ****     if(trans_style == NULL) {
 717:lvgl/src/lv_core/lv_style.c ****         LV_LOG_WARN("lv_style_list_add_trans_style: couldn't create transition style");
 718:lvgl/src/lv_core/lv_style.c ****         return NULL;
 719:lvgl/src/lv_core/lv_style.c ****     }
 720:lvgl/src/lv_core/lv_style.c **** 
 721:lvgl/src/lv_core/lv_style.c ****     lv_style_init(trans_style);
 722:lvgl/src/lv_core/lv_style.c **** 
 723:lvgl/src/lv_core/lv_style.c ****     _lv_style_list_add_style(list, trans_style);
 724:lvgl/src/lv_core/lv_style.c ****     list->has_trans = 1;
 725:lvgl/src/lv_core/lv_style.c **** 
 726:lvgl/src/lv_core/lv_style.c ****     /*If the list has local style trans was added after it. But trans should be the first so swap t
 727:lvgl/src/lv_core/lv_style.c ****     if(list->has_local) {
 728:lvgl/src/lv_core/lv_style.c ****         lv_style_t * tmp = list->style_list[0];
 729:lvgl/src/lv_core/lv_style.c ****         list->style_list[0] = list->style_list[1];
 730:lvgl/src/lv_core/lv_style.c ****         list->style_list[1] = tmp;
 731:lvgl/src/lv_core/lv_style.c ****     }
 732:lvgl/src/lv_core/lv_style.c ****     return trans_style;
 733:lvgl/src/lv_core/lv_style.c **** }
 734:lvgl/src/lv_core/lv_style.c **** 
 735:lvgl/src/lv_core/lv_style.c **** /**
 736:lvgl/src/lv_core/lv_style.c ****  * Set a local integer typed property in a style list.
 737:lvgl/src/lv_core/lv_style.c ****  * @param list pointer to a style list where the local property should be set
 738:lvgl/src/lv_core/lv_style.c ****  * @param prop a style property ORed with a state.
 739:lvgl/src/lv_core/lv_style.c ****  * E.g. `LV_STYLE_BORDER_WIDTH | (LV_STATE_PRESSED << LV_STYLE_STATE_POS)`
 740:lvgl/src/lv_core/lv_style.c ****  * @param value the value to set
 741:lvgl/src/lv_core/lv_style.c ****  * @note for performance reasons it's not checked if the property really has integer type
 742:lvgl/src/lv_core/lv_style.c ****  */
 743:lvgl/src/lv_core/lv_style.c **** void _lv_style_list_set_local_int(lv_style_list_t * list, lv_style_property_t prop, lv_style_int_t 
 744:lvgl/src/lv_core/lv_style.c **** {
 745:lvgl/src/lv_core/lv_style.c ****     LV_ASSERT_STYLE_LIST(list);
 746:lvgl/src/lv_core/lv_style.c **** 
 747:lvgl/src/lv_core/lv_style.c ****     lv_style_t * local = get_alloc_local_style(list);
 748:lvgl/src/lv_core/lv_style.c ****     _lv_style_set_int(local, prop, value);
 749:lvgl/src/lv_core/lv_style.c **** }
 750:lvgl/src/lv_core/lv_style.c **** 
 751:lvgl/src/lv_core/lv_style.c **** /**
 752:lvgl/src/lv_core/lv_style.c ****  * Set a local opacity typed property in a style list.
 753:lvgl/src/lv_core/lv_style.c ****  * @param list pointer to a style list where the local property should be set
 754:lvgl/src/lv_core/lv_style.c ****  * @param prop a style property ORed with a state.
 755:lvgl/src/lv_core/lv_style.c ****  * E.g. `LV_STYLE_BORDER_OPA | (LV_STATE_PRESSED << LV_STYLE_STATE_POS)`
 756:lvgl/src/lv_core/lv_style.c ****  * @param value the value to set
 757:lvgl/src/lv_core/lv_style.c ****  * @note for performance reasons it's not checked if the property really has opacity type
 758:lvgl/src/lv_core/lv_style.c ****  */
 759:lvgl/src/lv_core/lv_style.c **** void _lv_style_list_set_local_opa(lv_style_list_t * list, lv_style_property_t prop, lv_opa_t value)
 760:lvgl/src/lv_core/lv_style.c **** {
 761:lvgl/src/lv_core/lv_style.c ****     LV_ASSERT_STYLE_LIST(list);
 762:lvgl/src/lv_core/lv_style.c **** 
 763:lvgl/src/lv_core/lv_style.c ****     lv_style_t * local = get_alloc_local_style(list);
 764:lvgl/src/lv_core/lv_style.c ****     _lv_style_set_opa(local, prop, value);
 765:lvgl/src/lv_core/lv_style.c **** }
 766:lvgl/src/lv_core/lv_style.c **** 
ARM GAS  D:\Temp\cceOI0TF.s 			page 24


 767:lvgl/src/lv_core/lv_style.c **** /**
 768:lvgl/src/lv_core/lv_style.c ****  * Set a local color typed property in a style list.
 769:lvgl/src/lv_core/lv_style.c ****  * @param list pointer to a style list where the local property should be set
 770:lvgl/src/lv_core/lv_style.c ****  * @param prop a style property ORed with a state.
 771:lvgl/src/lv_core/lv_style.c ****  * E.g. `LV_STYLE_BORDER_COLOR | (LV_STATE_PRESSED << LV_STYLE_STATE_POS)`
 772:lvgl/src/lv_core/lv_style.c ****  * @param value the value to set
 773:lvgl/src/lv_core/lv_style.c ****  * @note for performance reasons it's not checked if the property really has color type
 774:lvgl/src/lv_core/lv_style.c ****  */
 775:lvgl/src/lv_core/lv_style.c **** void _lv_style_list_set_local_color(lv_style_list_t * list, lv_style_property_t prop, lv_color_t va
 776:lvgl/src/lv_core/lv_style.c **** {
 777:lvgl/src/lv_core/lv_style.c ****     LV_ASSERT_STYLE_LIST(list);
 778:lvgl/src/lv_core/lv_style.c **** 
 779:lvgl/src/lv_core/lv_style.c ****     lv_style_t * local = get_alloc_local_style(list);
 780:lvgl/src/lv_core/lv_style.c ****     _lv_style_set_color(local, prop, value);
 781:lvgl/src/lv_core/lv_style.c **** }
 782:lvgl/src/lv_core/lv_style.c **** 
 783:lvgl/src/lv_core/lv_style.c **** /**
 784:lvgl/src/lv_core/lv_style.c ****  * Set a local pointer typed property in a style list.
 785:lvgl/src/lv_core/lv_style.c ****  * @param list pointer to a style list where the local property should be set
 786:lvgl/src/lv_core/lv_style.c ****  * @param prop a style property ORed with a state.
 787:lvgl/src/lv_core/lv_style.c ****  * E.g. `LV_STYLE_TEXT_FONT | (LV_STATE_PRESSED << LV_STYLE_STATE_POS)`
 788:lvgl/src/lv_core/lv_style.c ****  * @param value the value to set
 789:lvgl/src/lv_core/lv_style.c ****  * @note for performance reasons it's not checked if the property really has pointer type
 790:lvgl/src/lv_core/lv_style.c ****  */
 791:lvgl/src/lv_core/lv_style.c **** void _lv_style_list_set_local_ptr(lv_style_list_t * list, lv_style_property_t prop, const void * va
 792:lvgl/src/lv_core/lv_style.c **** {
 793:lvgl/src/lv_core/lv_style.c ****     LV_ASSERT_STYLE_LIST(list);
 794:lvgl/src/lv_core/lv_style.c **** 
 795:lvgl/src/lv_core/lv_style.c ****     lv_style_t * local = get_alloc_local_style(list);
 796:lvgl/src/lv_core/lv_style.c ****     _lv_style_set_ptr(local, prop, value);
 797:lvgl/src/lv_core/lv_style.c **** }
 798:lvgl/src/lv_core/lv_style.c **** 
 799:lvgl/src/lv_core/lv_style.c **** /**
 800:lvgl/src/lv_core/lv_style.c ****  * Get an integer typed property from a style list.
 801:lvgl/src/lv_core/lv_style.c ****  * It will return the property which match best with given state.
 802:lvgl/src/lv_core/lv_style.c ****  * @param list pointer to a style list from where the property should be get
 803:lvgl/src/lv_core/lv_style.c ****  * @param prop a style property ORed with a state.
 804:lvgl/src/lv_core/lv_style.c ****  * E.g. `LV_STYLE_BORDER_WIDTH | (LV_STATE_PRESSED << LV_STYLE_STATE_POS)`
 805:lvgl/src/lv_core/lv_style.c ****  * @param res pointer to a buffer to store the result
 806:lvgl/src/lv_core/lv_style.c ****  * @return LV_RES_OK: there was a matching property in the list
 807:lvgl/src/lv_core/lv_style.c ****  *         LV_RES_INV: there was NO matching property in the list
 808:lvgl/src/lv_core/lv_style.c ****  * @note for performance reasons it's not checked if the property really has integer type
 809:lvgl/src/lv_core/lv_style.c ****  */
 810:lvgl/src/lv_core/lv_style.c **** lv_res_t _lv_style_list_get_int(lv_style_list_t * list, lv_style_property_t prop, lv_style_int_t * 
 811:lvgl/src/lv_core/lv_style.c **** {
 812:lvgl/src/lv_core/lv_style.c ****     LV_ASSERT_STYLE_LIST(list);
 813:lvgl/src/lv_core/lv_style.c **** 
 814:lvgl/src/lv_core/lv_style.c ****     if(list == NULL) return LV_RES_INV;
 815:lvgl/src/lv_core/lv_style.c ****     if(list->style_list == NULL) return LV_RES_INV;
 816:lvgl/src/lv_core/lv_style.c **** 
 817:lvgl/src/lv_core/lv_style.c ****     lv_style_attr_t attr;
 818:lvgl/src/lv_core/lv_style.c ****     attr = prop >> 8;
 819:lvgl/src/lv_core/lv_style.c ****     int16_t weight_goal = attr;
 820:lvgl/src/lv_core/lv_style.c **** 
 821:lvgl/src/lv_core/lv_style.c ****     int16_t weight = -1;
 822:lvgl/src/lv_core/lv_style.c **** 
 823:lvgl/src/lv_core/lv_style.c ****     lv_style_int_t value_act = 0;
ARM GAS  D:\Temp\cceOI0TF.s 			page 25


 824:lvgl/src/lv_core/lv_style.c **** 
 825:lvgl/src/lv_core/lv_style.c ****     int16_t ci;
 826:lvgl/src/lv_core/lv_style.c ****     for(ci = 0; ci < list->style_cnt; ci++) {
 827:lvgl/src/lv_core/lv_style.c ****         /* changed class to _class to allow compilation as c++ */
 828:lvgl/src/lv_core/lv_style.c ****         lv_style_t * _class = lv_style_list_get_style(list, ci);
 829:lvgl/src/lv_core/lv_style.c ****         int16_t weight_act = _lv_style_get_int(_class, prop, &value_act);
 830:lvgl/src/lv_core/lv_style.c **** 
 831:lvgl/src/lv_core/lv_style.c ****         /*On perfect match return the value immediately*/
 832:lvgl/src/lv_core/lv_style.c ****         if(weight_act == weight_goal) {
 833:lvgl/src/lv_core/lv_style.c ****             *res = value_act;
 834:lvgl/src/lv_core/lv_style.c ****             return LV_RES_OK;
 835:lvgl/src/lv_core/lv_style.c ****         }
 836:lvgl/src/lv_core/lv_style.c ****         else if(list->has_trans && weight_act >= 0 && ci == 0 && !list->skip_trans) {
 837:lvgl/src/lv_core/lv_style.c ****             *res = value_act;
 838:lvgl/src/lv_core/lv_style.c ****             return LV_RES_OK;
 839:lvgl/src/lv_core/lv_style.c ****         }
 840:lvgl/src/lv_core/lv_style.c ****         /*If the found ID is better the current candidate then use it*/
 841:lvgl/src/lv_core/lv_style.c ****         else if(weight_act > weight) {
 842:lvgl/src/lv_core/lv_style.c ****             weight =  weight_act;
 843:lvgl/src/lv_core/lv_style.c ****             *res = value_act;
 844:lvgl/src/lv_core/lv_style.c ****         }
 845:lvgl/src/lv_core/lv_style.c ****     }
 846:lvgl/src/lv_core/lv_style.c **** 
 847:lvgl/src/lv_core/lv_style.c ****     if(weight >= 0) return LV_RES_OK;
 848:lvgl/src/lv_core/lv_style.c ****     else return LV_RES_INV;
 849:lvgl/src/lv_core/lv_style.c **** 
 850:lvgl/src/lv_core/lv_style.c **** }
 851:lvgl/src/lv_core/lv_style.c **** 
 852:lvgl/src/lv_core/lv_style.c **** /**
 853:lvgl/src/lv_core/lv_style.c ****  * Get a color typed property from a style list.
 854:lvgl/src/lv_core/lv_style.c ****  * It will return the property which match best with given state.
 855:lvgl/src/lv_core/lv_style.c ****  * @param list pointer to a style list from where the property should be get
 856:lvgl/src/lv_core/lv_style.c ****  * @param prop a style property ORed with a state.
 857:lvgl/src/lv_core/lv_style.c ****  * E.g. `LV_STYLE_BORDER_COLOR | (LV_STATE_PRESSED << LV_STYLE_STATE_POS)`
 858:lvgl/src/lv_core/lv_style.c ****  * @param res pointer to a buffer to store the result
 859:lvgl/src/lv_core/lv_style.c ****  * @return LV_RES_OK: there was a matching property in the list
 860:lvgl/src/lv_core/lv_style.c ****  *         LV_RES_INV: there was NO matching property in the list
 861:lvgl/src/lv_core/lv_style.c ****  * @note for performance reasons it's not checked if the property really has color type
 862:lvgl/src/lv_core/lv_style.c ****  */
 863:lvgl/src/lv_core/lv_style.c **** lv_res_t _lv_style_list_get_color(lv_style_list_t * list, lv_style_property_t prop, lv_color_t * re
 864:lvgl/src/lv_core/lv_style.c **** {
 865:lvgl/src/lv_core/lv_style.c ****     LV_ASSERT_STYLE_LIST(list);
 866:lvgl/src/lv_core/lv_style.c **** 
 867:lvgl/src/lv_core/lv_style.c ****     if(list == NULL) return LV_RES_INV;
 868:lvgl/src/lv_core/lv_style.c ****     if(list->style_list == NULL) return LV_RES_INV;
 869:lvgl/src/lv_core/lv_style.c **** 
 870:lvgl/src/lv_core/lv_style.c ****     lv_style_attr_t attr;
 871:lvgl/src/lv_core/lv_style.c ****     attr = prop >> 8;
 872:lvgl/src/lv_core/lv_style.c ****     int16_t weight_goal = attr;
 873:lvgl/src/lv_core/lv_style.c **** 
 874:lvgl/src/lv_core/lv_style.c ****     int16_t weight = -1;
 875:lvgl/src/lv_core/lv_style.c **** 
 876:lvgl/src/lv_core/lv_style.c ****     lv_color_t value_act;
 877:lvgl/src/lv_core/lv_style.c ****     value_act.full = 0;
 878:lvgl/src/lv_core/lv_style.c **** 
 879:lvgl/src/lv_core/lv_style.c ****     int16_t ci;
 880:lvgl/src/lv_core/lv_style.c ****     for(ci = 0; ci < list->style_cnt; ci++) {
ARM GAS  D:\Temp\cceOI0TF.s 			page 26


 881:lvgl/src/lv_core/lv_style.c ****         lv_style_t * _class = lv_style_list_get_style(list, ci);
 882:lvgl/src/lv_core/lv_style.c ****         int16_t weight_act = _lv_style_get_color(_class, prop, &value_act);
 883:lvgl/src/lv_core/lv_style.c ****         /*On perfect match return the value immediately*/
 884:lvgl/src/lv_core/lv_style.c ****         if(weight_act == weight_goal) {
 885:lvgl/src/lv_core/lv_style.c ****             *res = value_act;
 886:lvgl/src/lv_core/lv_style.c ****             return LV_RES_OK;
 887:lvgl/src/lv_core/lv_style.c ****         }
 888:lvgl/src/lv_core/lv_style.c ****         else if(list->has_trans && weight_act >= 0 && ci == 0 && !list->skip_trans) {
 889:lvgl/src/lv_core/lv_style.c ****             *res = value_act;
 890:lvgl/src/lv_core/lv_style.c ****             return LV_RES_OK;
 891:lvgl/src/lv_core/lv_style.c ****         }
 892:lvgl/src/lv_core/lv_style.c ****         /*If the found ID is better the current candidate then use it*/
 893:lvgl/src/lv_core/lv_style.c ****         else if(weight_act > weight) {
 894:lvgl/src/lv_core/lv_style.c ****             weight =  weight_act;
 895:lvgl/src/lv_core/lv_style.c ****             *res = value_act;
 896:lvgl/src/lv_core/lv_style.c ****         }
 897:lvgl/src/lv_core/lv_style.c ****     }
 898:lvgl/src/lv_core/lv_style.c **** 
 899:lvgl/src/lv_core/lv_style.c ****     if(weight >= 0)  return LV_RES_OK;
 900:lvgl/src/lv_core/lv_style.c ****     else return LV_RES_INV;
 901:lvgl/src/lv_core/lv_style.c **** }
 902:lvgl/src/lv_core/lv_style.c **** 
 903:lvgl/src/lv_core/lv_style.c **** /**
 904:lvgl/src/lv_core/lv_style.c ****  * Get an opacity typed property from a style list.
 905:lvgl/src/lv_core/lv_style.c ****  * It will return the property which match best with given state.
 906:lvgl/src/lv_core/lv_style.c ****  * @param list pointer to a style list from where the property should be get
 907:lvgl/src/lv_core/lv_style.c ****  * @param prop a style property ORed with a state.
 908:lvgl/src/lv_core/lv_style.c ****  * E.g. `LV_STYLE_BORDER_OPA| (LV_STATE_PRESSED << LV_STYLE_STATE_POS)`
 909:lvgl/src/lv_core/lv_style.c ****  * @param res pointer to a buffer to store the result
 910:lvgl/src/lv_core/lv_style.c ****  * @return LV_RES_OK: there was a matching property in the list
 911:lvgl/src/lv_core/lv_style.c ****  *         LV_RES_INV: there was NO matching property in the list
 912:lvgl/src/lv_core/lv_style.c ****  * @note for performance reasons it's not checked if the property really has opacity type
 913:lvgl/src/lv_core/lv_style.c ****  */
 914:lvgl/src/lv_core/lv_style.c **** lv_res_t _lv_style_list_get_opa(lv_style_list_t * list, lv_style_property_t prop, lv_opa_t * res)
 915:lvgl/src/lv_core/lv_style.c **** {
 916:lvgl/src/lv_core/lv_style.c ****     LV_ASSERT_STYLE_LIST(list);
 917:lvgl/src/lv_core/lv_style.c **** 
 918:lvgl/src/lv_core/lv_style.c ****     if(list == NULL) return LV_RES_INV;
 919:lvgl/src/lv_core/lv_style.c ****     if(list->style_list == NULL) return LV_RES_INV;
 920:lvgl/src/lv_core/lv_style.c **** 
 921:lvgl/src/lv_core/lv_style.c ****     lv_style_attr_t attr;
 922:lvgl/src/lv_core/lv_style.c ****     attr = prop >> 8;
 923:lvgl/src/lv_core/lv_style.c ****     int16_t weight_goal = attr;
 924:lvgl/src/lv_core/lv_style.c **** 
 925:lvgl/src/lv_core/lv_style.c ****     int16_t weight = -1;
 926:lvgl/src/lv_core/lv_style.c **** 
 927:lvgl/src/lv_core/lv_style.c ****     lv_opa_t value_act = LV_OPA_TRANSP;
 928:lvgl/src/lv_core/lv_style.c **** 
 929:lvgl/src/lv_core/lv_style.c ****     int16_t ci;
 930:lvgl/src/lv_core/lv_style.c ****     for(ci = 0; ci < list->style_cnt; ci++) {
 931:lvgl/src/lv_core/lv_style.c ****         lv_style_t * _class = lv_style_list_get_style(list, ci);
 932:lvgl/src/lv_core/lv_style.c ****         int16_t weight_act = _lv_style_get_opa(_class, prop, &value_act);
 933:lvgl/src/lv_core/lv_style.c ****         /*On perfect match return the value immediately*/
 934:lvgl/src/lv_core/lv_style.c ****         if(weight_act == weight_goal) {
 935:lvgl/src/lv_core/lv_style.c ****             *res = value_act;
 936:lvgl/src/lv_core/lv_style.c ****             return LV_RES_OK;
 937:lvgl/src/lv_core/lv_style.c ****         }
ARM GAS  D:\Temp\cceOI0TF.s 			page 27


 938:lvgl/src/lv_core/lv_style.c ****         else if(list->has_trans && weight_act >= 0 && ci == 0 && !list->skip_trans) {
 939:lvgl/src/lv_core/lv_style.c ****             *res = value_act;
 940:lvgl/src/lv_core/lv_style.c ****             return LV_RES_OK;
 941:lvgl/src/lv_core/lv_style.c ****         }
 942:lvgl/src/lv_core/lv_style.c ****         /*If the found ID is better the current candidate then use it*/
 943:lvgl/src/lv_core/lv_style.c ****         else if(weight_act > weight) {
 944:lvgl/src/lv_core/lv_style.c ****             weight =  weight_act;
 945:lvgl/src/lv_core/lv_style.c ****             *res = value_act;
 946:lvgl/src/lv_core/lv_style.c ****         }
 947:lvgl/src/lv_core/lv_style.c ****     }
 948:lvgl/src/lv_core/lv_style.c **** 
 949:lvgl/src/lv_core/lv_style.c ****     if(weight >= 0)  return LV_RES_OK;
 950:lvgl/src/lv_core/lv_style.c ****     else return LV_RES_INV;
 951:lvgl/src/lv_core/lv_style.c **** }
 952:lvgl/src/lv_core/lv_style.c **** 
 953:lvgl/src/lv_core/lv_style.c **** /**
 954:lvgl/src/lv_core/lv_style.c ****  * Get a pointer typed property from a style list.
 955:lvgl/src/lv_core/lv_style.c ****  * It will return the property which match best with given state.
 956:lvgl/src/lv_core/lv_style.c ****  * @param list pointer to a style list from where the property should be get
 957:lvgl/src/lv_core/lv_style.c ****  * @param prop a style property ORed with a state.
 958:lvgl/src/lv_core/lv_style.c ****  * E.g. `LV_STYLE_TEXT_FONT | (LV_STATE_PRESSED << LV_STYLE_STATE_POS)`
 959:lvgl/src/lv_core/lv_style.c ****  * @param res pointer to a buffer to store the result
 960:lvgl/src/lv_core/lv_style.c ****  * @return LV_RES_OK: there was a matching property in the list
 961:lvgl/src/lv_core/lv_style.c ****  *         LV_RES_INV: there was NO matching property in the list
 962:lvgl/src/lv_core/lv_style.c ****  * @note for performance reasons it's not checked if the property really has pointer type
 963:lvgl/src/lv_core/lv_style.c ****  */
 964:lvgl/src/lv_core/lv_style.c **** lv_res_t _lv_style_list_get_ptr(lv_style_list_t * list, lv_style_property_t prop, const void ** res
 965:lvgl/src/lv_core/lv_style.c **** {
 966:lvgl/src/lv_core/lv_style.c ****     LV_ASSERT_STYLE_LIST(list);
 967:lvgl/src/lv_core/lv_style.c **** 
 968:lvgl/src/lv_core/lv_style.c ****     if(list == NULL) return LV_RES_INV;
 969:lvgl/src/lv_core/lv_style.c ****     if(list->style_list == NULL) return LV_RES_INV;
 970:lvgl/src/lv_core/lv_style.c **** 
 971:lvgl/src/lv_core/lv_style.c ****     lv_style_attr_t attr;
 972:lvgl/src/lv_core/lv_style.c ****     attr = prop >> 8;
 973:lvgl/src/lv_core/lv_style.c ****     int16_t weight_goal = attr;
 974:lvgl/src/lv_core/lv_style.c **** 
 975:lvgl/src/lv_core/lv_style.c ****     int16_t weight = -1;
 976:lvgl/src/lv_core/lv_style.c **** 
 977:lvgl/src/lv_core/lv_style.c ****     const void * value_act;
 978:lvgl/src/lv_core/lv_style.c **** 
 979:lvgl/src/lv_core/lv_style.c ****     int16_t ci;
 980:lvgl/src/lv_core/lv_style.c ****     for(ci = 0; ci < list->style_cnt; ci++) {
 981:lvgl/src/lv_core/lv_style.c ****         lv_style_t * _class = lv_style_list_get_style(list, ci);
 982:lvgl/src/lv_core/lv_style.c ****         int16_t weight_act = _lv_style_get_ptr(_class, prop, &value_act);
 983:lvgl/src/lv_core/lv_style.c ****         /*On perfect match return the value immediately*/
 984:lvgl/src/lv_core/lv_style.c ****         if(weight_act == weight_goal) {
 985:lvgl/src/lv_core/lv_style.c ****             *res = value_act;
 986:lvgl/src/lv_core/lv_style.c ****             return LV_RES_OK;
 987:lvgl/src/lv_core/lv_style.c ****         }
 988:lvgl/src/lv_core/lv_style.c ****         else if(list->has_trans && weight_act >= 0 && ci == 0 && !list->skip_trans) {
 989:lvgl/src/lv_core/lv_style.c ****             *res = value_act;
 990:lvgl/src/lv_core/lv_style.c ****             return LV_RES_OK;
 991:lvgl/src/lv_core/lv_style.c ****         }
 992:lvgl/src/lv_core/lv_style.c ****         /*If the found ID is better the current candidate then use it*/
 993:lvgl/src/lv_core/lv_style.c ****         else if(weight_act > weight) {
 994:lvgl/src/lv_core/lv_style.c ****             weight =  weight_act;
ARM GAS  D:\Temp\cceOI0TF.s 			page 28


 995:lvgl/src/lv_core/lv_style.c ****             *res = value_act;
 996:lvgl/src/lv_core/lv_style.c ****         }
 997:lvgl/src/lv_core/lv_style.c ****     }
 998:lvgl/src/lv_core/lv_style.c **** 
 999:lvgl/src/lv_core/lv_style.c ****     if(weight >= 0)  return LV_RES_OK;
1000:lvgl/src/lv_core/lv_style.c ****     else return LV_RES_INV;
1001:lvgl/src/lv_core/lv_style.c **** }
1002:lvgl/src/lv_core/lv_style.c **** 
1003:lvgl/src/lv_core/lv_style.c **** /**
1004:lvgl/src/lv_core/lv_style.c ****  * Check whether a style is valid (initialized correctly)
1005:lvgl/src/lv_core/lv_style.c ****  * @param style pointer to a style
1006:lvgl/src/lv_core/lv_style.c ****  * @return true: valid
1007:lvgl/src/lv_core/lv_style.c ****  */
1008:lvgl/src/lv_core/lv_style.c **** bool lv_debug_check_style(const lv_style_t * style)
1009:lvgl/src/lv_core/lv_style.c **** {
1010:lvgl/src/lv_core/lv_style.c ****     if(style == NULL) return true;  /*NULL style is still valid*/
1011:lvgl/src/lv_core/lv_style.c **** 
1012:lvgl/src/lv_core/lv_style.c **** #if LV_USE_ASSERT_STYLE
1013:lvgl/src/lv_core/lv_style.c ****     if(style->sentinel != LV_DEBUG_STYLE_SENTINEL_VALUE) {
1014:lvgl/src/lv_core/lv_style.c ****         LV_LOG_WARN("Invalid style (local variable or not initialized?)");
1015:lvgl/src/lv_core/lv_style.c ****         return false;
1016:lvgl/src/lv_core/lv_style.c ****     }
1017:lvgl/src/lv_core/lv_style.c **** #endif
1018:lvgl/src/lv_core/lv_style.c **** 
1019:lvgl/src/lv_core/lv_style.c ****     return true;
1020:lvgl/src/lv_core/lv_style.c **** }
1021:lvgl/src/lv_core/lv_style.c **** 
1022:lvgl/src/lv_core/lv_style.c **** /**
1023:lvgl/src/lv_core/lv_style.c ****  * Check whether a style list is valid (initialized correctly)
1024:lvgl/src/lv_core/lv_style.c ****  * @param style pointer to a style
1025:lvgl/src/lv_core/lv_style.c ****  * @return true: valid
1026:lvgl/src/lv_core/lv_style.c ****  */
1027:lvgl/src/lv_core/lv_style.c **** bool lv_debug_check_style_list(const lv_style_list_t * list)
1028:lvgl/src/lv_core/lv_style.c **** {
1029:lvgl/src/lv_core/lv_style.c ****     if(list == NULL) return true;  /*NULL list is still valid*/
1030:lvgl/src/lv_core/lv_style.c **** 
1031:lvgl/src/lv_core/lv_style.c **** #if LV_USE_ASSERT_STYLE
1032:lvgl/src/lv_core/lv_style.c ****     if(list->sentinel != LV_DEBUG_STYLE_LIST_SENTINEL_VALUE) {
1033:lvgl/src/lv_core/lv_style.c ****         LV_LOG_WARN("Invalid style (local variable or not initialized?)");
1034:lvgl/src/lv_core/lv_style.c ****         return false;
1035:lvgl/src/lv_core/lv_style.c ****     }
1036:lvgl/src/lv_core/lv_style.c **** #endif
1037:lvgl/src/lv_core/lv_style.c **** 
1038:lvgl/src/lv_core/lv_style.c ****     return true;
1039:lvgl/src/lv_core/lv_style.c **** }
1040:lvgl/src/lv_core/lv_style.c **** 
1041:lvgl/src/lv_core/lv_style.c **** /**********************
1042:lvgl/src/lv_core/lv_style.c ****  *   STATIC FUNCTIONS
1043:lvgl/src/lv_core/lv_style.c ****  **********************/
1044:lvgl/src/lv_core/lv_style.c **** 
1045:lvgl/src/lv_core/lv_style.c **** /**
1046:lvgl/src/lv_core/lv_style.c ****  * Get a property's index (byte index in `style->map`) from a style.
1047:lvgl/src/lv_core/lv_style.c ****  * Return best matching property's index considering the state of `prop`
1048:lvgl/src/lv_core/lv_style.c ****  * @param style pointer to a style
1049:lvgl/src/lv_core/lv_style.c ****  * @param prop a style property ORed with a state.
1050:lvgl/src/lv_core/lv_style.c ****  * E.g. `LV_STYLE_TEXT_FONT | (LV_STATE_PRESSED << LV_STYLE_STATE_POS)`
1051:lvgl/src/lv_core/lv_style.c ****  * @return
ARM GAS  D:\Temp\cceOI0TF.s 			page 29


1052:lvgl/src/lv_core/lv_style.c ****  */
1053:lvgl/src/lv_core/lv_style.c **** LV_ATTRIBUTE_FAST_MEM static inline int32_t get_property_index(const lv_style_t * style, lv_style_p
1054:lvgl/src/lv_core/lv_style.c **** {
1055:lvgl/src/lv_core/lv_style.c ****     LV_ASSERT_STYLE(style);
1056:lvgl/src/lv_core/lv_style.c **** 
1057:lvgl/src/lv_core/lv_style.c ****     if(style->map == NULL) return -1;
1058:lvgl/src/lv_core/lv_style.c **** 
1059:lvgl/src/lv_core/lv_style.c ****     uint8_t id_to_find = prop & 0xFF;
1060:lvgl/src/lv_core/lv_style.c ****     lv_style_attr_t attr;
1061:lvgl/src/lv_core/lv_style.c ****     attr = (prop >> 8) & 0xFF;
1062:lvgl/src/lv_core/lv_style.c **** 
1063:lvgl/src/lv_core/lv_style.c ****     int16_t weight = -1;
1064:lvgl/src/lv_core/lv_style.c ****     int16_t id_guess = -1;
1065:lvgl/src/lv_core/lv_style.c **** 
1066:lvgl/src/lv_core/lv_style.c ****     size_t i = 0;
1067:lvgl/src/lv_core/lv_style.c **** 
1068:lvgl/src/lv_core/lv_style.c ****     uint8_t prop_id;
1069:lvgl/src/lv_core/lv_style.c ****     while((prop_id = get_style_prop_id(style, i)) != _LV_STYLE_CLOSING_PROP) {
1070:lvgl/src/lv_core/lv_style.c ****         if(prop_id == id_to_find) {
1071:lvgl/src/lv_core/lv_style.c ****             lv_style_attr_t attr_i;
1072:lvgl/src/lv_core/lv_style.c ****             attr_i = get_style_prop_attr(style, i);
1073:lvgl/src/lv_core/lv_style.c **** 
1074:lvgl/src/lv_core/lv_style.c ****             /*If the state perfectly matches return this property*/
1075:lvgl/src/lv_core/lv_style.c ****             if(LV_STYLE_ATTR_GET_STATE(attr_i) == LV_STYLE_ATTR_GET_STATE(attr)) {
1076:lvgl/src/lv_core/lv_style.c ****                 return i;
1077:lvgl/src/lv_core/lv_style.c ****             }
1078:lvgl/src/lv_core/lv_style.c ****             /* Be sure the property not specifies other state than the requested.
1079:lvgl/src/lv_core/lv_style.c ****              * E.g. For HOVER+PRESS, HOVER only is OK, but HOVER+FOCUS not*/
1080:lvgl/src/lv_core/lv_style.c ****             else if((LV_STYLE_ATTR_GET_STATE(attr_i) & (~LV_STYLE_ATTR_GET_STATE(attr))) == 0) {
1081:lvgl/src/lv_core/lv_style.c ****                 /* Use this property if it describes better the requested state than the current ca
1082:lvgl/src/lv_core/lv_style.c ****                  * E.g. for HOVER+FOCUS+PRESS prefer HOVER+FOCUS over FOCUS*/
1083:lvgl/src/lv_core/lv_style.c ****                 if(LV_STYLE_ATTR_GET_STATE(attr_i) > weight) {
1084:lvgl/src/lv_core/lv_style.c ****                     weight = LV_STYLE_ATTR_GET_STATE(attr_i);
1085:lvgl/src/lv_core/lv_style.c ****                     id_guess = i;
1086:lvgl/src/lv_core/lv_style.c ****                 }
1087:lvgl/src/lv_core/lv_style.c ****             }
1088:lvgl/src/lv_core/lv_style.c ****         }
1089:lvgl/src/lv_core/lv_style.c **** 
1090:lvgl/src/lv_core/lv_style.c ****         i = get_next_prop_index(prop_id, i);
1091:lvgl/src/lv_core/lv_style.c ****     }
1092:lvgl/src/lv_core/lv_style.c **** 
1093:lvgl/src/lv_core/lv_style.c ****     return id_guess;
1094:lvgl/src/lv_core/lv_style.c **** }
1095:lvgl/src/lv_core/lv_style.c **** 
1096:lvgl/src/lv_core/lv_style.c **** /**
1097:lvgl/src/lv_core/lv_style.c ****  * Get he local style from a style list. Allocate it if not exists yet.
1098:lvgl/src/lv_core/lv_style.c ****  * @param list pointer to a style list
1099:lvgl/src/lv_core/lv_style.c ****  * @return pointer to the local style
1100:lvgl/src/lv_core/lv_style.c ****  */
1101:lvgl/src/lv_core/lv_style.c **** static lv_style_t * get_alloc_local_style(lv_style_list_t * list)
1102:lvgl/src/lv_core/lv_style.c **** {
 476              		.loc 1 1102 1 is_stmt 1 view -0
 477              		.cfi_startproc
 478              		@ args = 0, pretend = 0, frame = 0
 479              		@ frame_needed = 0, uses_anonymous_args = 0
 480              		.loc 1 1102 1 is_stmt 0 view .LVU140
 481 0000 38B5     		push	{r3, r4, r5, lr}
ARM GAS  D:\Temp\cceOI0TF.s 			page 30


 482              	.LCFI5:
 483              		.cfi_def_cfa_offset 16
 484              		.cfi_offset 3, -16
 485              		.cfi_offset 4, -12
 486              		.cfi_offset 5, -8
 487              		.cfi_offset 14, -4
1103:lvgl/src/lv_core/lv_style.c ****     LV_ASSERT_STYLE_LIST(list);
 488              		.loc 1 1103 31 is_stmt 1 view .LVU141
1104:lvgl/src/lv_core/lv_style.c **** 
1105:lvgl/src/lv_core/lv_style.c ****     if(list->has_local) return lv_style_list_get_style(list, list->has_trans ? 1 : 0);
 489              		.loc 1 1105 5 view .LVU142
 490              		.loc 1 1105 8 is_stmt 0 view .LVU143
 491 0002 0279     		ldrb	r2, [r0, #4]	@ zero_extendqisi2
 492              		.loc 1 1105 7 view .LVU144
 493 0004 12F0400F 		tst	r2, #64
 494 0008 19D0     		beq	.L43
 495              		.loc 1 1105 25 is_stmt 1 discriminator 1 view .LVU145
 496              		.loc 1 1105 82 is_stmt 0 discriminator 1 view .LVU146
 497 000a D309     		lsrs	r3, r2, #7
 498              	.LVL50:
 499              	.LBB141:
 500              	.LBI141:
 501              		.file 2 "lvgl/src/lv_core/lv_style.h"
   1:lvgl/src/lv_core/lv_style.h **** /**
   2:lvgl/src/lv_core/lv_style.h ****  * @file lv_style.h
   3:lvgl/src/lv_core/lv_style.h ****  *
   4:lvgl/src/lv_core/lv_style.h ****  */
   5:lvgl/src/lv_core/lv_style.h **** 
   6:lvgl/src/lv_core/lv_style.h **** #ifndef LV_STYLE_H
   7:lvgl/src/lv_core/lv_style.h **** #define LV_STYLE_H
   8:lvgl/src/lv_core/lv_style.h **** 
   9:lvgl/src/lv_core/lv_style.h **** #ifdef __cplusplus
  10:lvgl/src/lv_core/lv_style.h **** extern "C" {
  11:lvgl/src/lv_core/lv_style.h **** #endif
  12:lvgl/src/lv_core/lv_style.h **** 
  13:lvgl/src/lv_core/lv_style.h **** /*********************
  14:lvgl/src/lv_core/lv_style.h ****  *      INCLUDES
  15:lvgl/src/lv_core/lv_style.h ****  *********************/
  16:lvgl/src/lv_core/lv_style.h **** #include <stdbool.h>
  17:lvgl/src/lv_core/lv_style.h **** #include "../lv_font/lv_font.h"
  18:lvgl/src/lv_core/lv_style.h **** #include "../lv_misc/lv_color.h"
  19:lvgl/src/lv_core/lv_style.h **** #include "../lv_misc/lv_area.h"
  20:lvgl/src/lv_core/lv_style.h **** #include "../lv_misc/lv_anim.h"
  21:lvgl/src/lv_core/lv_style.h **** #include "../lv_misc/lv_types.h"
  22:lvgl/src/lv_core/lv_style.h **** #include "../lv_misc/lv_debug.h"
  23:lvgl/src/lv_core/lv_style.h **** #include "../lv_draw/lv_draw_blend.h"
  24:lvgl/src/lv_core/lv_style.h **** 
  25:lvgl/src/lv_core/lv_style.h **** /*********************
  26:lvgl/src/lv_core/lv_style.h ****  *      DEFINES
  27:lvgl/src/lv_core/lv_style.h ****  *********************/
  28:lvgl/src/lv_core/lv_style.h **** 
  29:lvgl/src/lv_core/lv_style.h **** #define LV_RADIUS_CIRCLE (0x7FFF) /**< A very big radius to always draw as circle*/
  30:lvgl/src/lv_core/lv_style.h **** LV_EXPORT_CONST_INT(LV_RADIUS_CIRCLE);
  31:lvgl/src/lv_core/lv_style.h **** 
  32:lvgl/src/lv_core/lv_style.h **** #define LV_DEBUG_STYLE_SENTINEL_VALUE      0x2288AAEE
  33:lvgl/src/lv_core/lv_style.h **** #define LV_DEBUG_STYLE_LIST_SENTINEL_VALUE 0x9977CCBB
  34:lvgl/src/lv_core/lv_style.h **** 
ARM GAS  D:\Temp\cceOI0TF.s 			page 31


  35:lvgl/src/lv_core/lv_style.h **** #define LV_STYLE_PROP_INIT(name, group, id, attr)  name = (((group << 4) + id) | ((attr) << 8))
  36:lvgl/src/lv_core/lv_style.h **** 
  37:lvgl/src/lv_core/lv_style.h **** #define LV_STYLE_ID_MASK 0x00FF
  38:lvgl/src/lv_core/lv_style.h **** 
  39:lvgl/src/lv_core/lv_style.h **** #define LV_STYLE_ATTR_NONE          0
  40:lvgl/src/lv_core/lv_style.h **** #define LV_STYLE_ATTR_INHERIT       (1 << 7)
  41:lvgl/src/lv_core/lv_style.h **** 
  42:lvgl/src/lv_core/lv_style.h **** #define _LV_STYLE_CLOSING_PROP     0xFF
  43:lvgl/src/lv_core/lv_style.h **** 
  44:lvgl/src/lv_core/lv_style.h **** #define LV_STYLE_TRANS_NUM_MAX      6
  45:lvgl/src/lv_core/lv_style.h **** 
  46:lvgl/src/lv_core/lv_style.h **** #define LV_STYLE_PROP_ALL 0xFF
  47:lvgl/src/lv_core/lv_style.h **** 
  48:lvgl/src/lv_core/lv_style.h **** /**********************
  49:lvgl/src/lv_core/lv_style.h ****  *      TYPEDEFS
  50:lvgl/src/lv_core/lv_style.h ****  **********************/
  51:lvgl/src/lv_core/lv_style.h **** 
  52:lvgl/src/lv_core/lv_style.h **** /*Border types (Use 'OR'ed values)*/
  53:lvgl/src/lv_core/lv_style.h **** enum {
  54:lvgl/src/lv_core/lv_style.h ****     LV_BORDER_SIDE_NONE     = 0x00,
  55:lvgl/src/lv_core/lv_style.h ****     LV_BORDER_SIDE_BOTTOM   = 0x01,
  56:lvgl/src/lv_core/lv_style.h ****     LV_BORDER_SIDE_TOP      = 0x02,
  57:lvgl/src/lv_core/lv_style.h ****     LV_BORDER_SIDE_LEFT     = 0x04,
  58:lvgl/src/lv_core/lv_style.h ****     LV_BORDER_SIDE_RIGHT    = 0x08,
  59:lvgl/src/lv_core/lv_style.h ****     LV_BORDER_SIDE_FULL     = 0x0F,
  60:lvgl/src/lv_core/lv_style.h ****     LV_BORDER_SIDE_INTERNAL = 0x10, /**< FOR matrix-like objects (e.g. Button matrix)*/
  61:lvgl/src/lv_core/lv_style.h ****     _LV_BORDER_SIDE_LAST
  62:lvgl/src/lv_core/lv_style.h **** };
  63:lvgl/src/lv_core/lv_style.h **** typedef uint8_t lv_border_side_t;
  64:lvgl/src/lv_core/lv_style.h **** 
  65:lvgl/src/lv_core/lv_style.h **** enum {
  66:lvgl/src/lv_core/lv_style.h ****     LV_GRAD_DIR_NONE,
  67:lvgl/src/lv_core/lv_style.h ****     LV_GRAD_DIR_VER,
  68:lvgl/src/lv_core/lv_style.h ****     LV_GRAD_DIR_HOR,
  69:lvgl/src/lv_core/lv_style.h ****     _LV_GRAD_DIR_LAST
  70:lvgl/src/lv_core/lv_style.h **** };
  71:lvgl/src/lv_core/lv_style.h **** 
  72:lvgl/src/lv_core/lv_style.h **** typedef uint8_t lv_grad_dir_t;
  73:lvgl/src/lv_core/lv_style.h **** 
  74:lvgl/src/lv_core/lv_style.h **** /*Text decorations (Use 'OR'ed values)*/
  75:lvgl/src/lv_core/lv_style.h **** enum {
  76:lvgl/src/lv_core/lv_style.h ****     LV_TEXT_DECOR_NONE          = 0x00,
  77:lvgl/src/lv_core/lv_style.h ****     LV_TEXT_DECOR_UNDERLINE     = 0x01,
  78:lvgl/src/lv_core/lv_style.h ****     LV_TEXT_DECOR_STRIKETHROUGH = 0x02,
  79:lvgl/src/lv_core/lv_style.h ****     _LV_TEXT_DECOR_LAST
  80:lvgl/src/lv_core/lv_style.h **** };
  81:lvgl/src/lv_core/lv_style.h **** 
  82:lvgl/src/lv_core/lv_style.h **** typedef uint8_t lv_text_decor_t;
  83:lvgl/src/lv_core/lv_style.h **** 
  84:lvgl/src/lv_core/lv_style.h **** typedef uint8_t lv_style_attr_t;
  85:lvgl/src/lv_core/lv_style.h **** 
  86:lvgl/src/lv_core/lv_style.h **** #define LV_STYLE_ATTR_GET_INHERIT(f) ((f)&0x80)
  87:lvgl/src/lv_core/lv_style.h **** #define LV_STYLE_ATTR_GET_STATE(f) ((f)&0x7F)
  88:lvgl/src/lv_core/lv_style.h **** 
  89:lvgl/src/lv_core/lv_style.h **** #define LV_STYLE_ID_VALUE 0x0   /*max 9 pcs*/
  90:lvgl/src/lv_core/lv_style.h **** #define LV_STYLE_ID_COLOR 0x9   /*max 3 pcs*/
  91:lvgl/src/lv_core/lv_style.h **** #define LV_STYLE_ID_OPA   0xC   /*max 2 pcs*/
ARM GAS  D:\Temp\cceOI0TF.s 			page 32


  92:lvgl/src/lv_core/lv_style.h **** #define LV_STYLE_ID_PTR   0xE   /*max 2 pcs*/
  93:lvgl/src/lv_core/lv_style.h **** 
  94:lvgl/src/lv_core/lv_style.h **** enum {
  95:lvgl/src/lv_core/lv_style.h ****     /*Skip 0th property*/
  96:lvgl/src/lv_core/lv_style.h ****     LV_STYLE_PROP_INIT(LV_STYLE_RADIUS,             0x0, LV_STYLE_ID_VALUE + 1, LV_STYLE_ATTR_NONE)
  97:lvgl/src/lv_core/lv_style.h ****     LV_STYLE_PROP_INIT(LV_STYLE_CLIP_CORNER,        0x0, LV_STYLE_ID_VALUE + 2, LV_STYLE_ATTR_NONE)
  98:lvgl/src/lv_core/lv_style.h ****     LV_STYLE_PROP_INIT(LV_STYLE_SIZE,               0x0, LV_STYLE_ID_VALUE + 3, LV_STYLE_ATTR_NONE)
  99:lvgl/src/lv_core/lv_style.h ****     LV_STYLE_PROP_INIT(LV_STYLE_TRANSFORM_WIDTH,    0x0, LV_STYLE_ID_VALUE + 4, LV_STYLE_ATTR_NONE)
 100:lvgl/src/lv_core/lv_style.h ****     LV_STYLE_PROP_INIT(LV_STYLE_TRANSFORM_HEIGHT,   0x0, LV_STYLE_ID_VALUE + 5, LV_STYLE_ATTR_NONE)
 101:lvgl/src/lv_core/lv_style.h ****     LV_STYLE_PROP_INIT(LV_STYLE_TRANSFORM_ANGLE,    0x0, LV_STYLE_ID_VALUE + 6, LV_STYLE_ATTR_NONE)
 102:lvgl/src/lv_core/lv_style.h ****     LV_STYLE_PROP_INIT(LV_STYLE_TRANSFORM_ZOOM,     0x0, LV_STYLE_ID_VALUE + 7, LV_STYLE_ATTR_NONE)
 103:lvgl/src/lv_core/lv_style.h ****     LV_STYLE_PROP_INIT(LV_STYLE_OPA_SCALE,          0x0, LV_STYLE_ID_OPA + 0,   LV_STYLE_ATTR_INHER
 104:lvgl/src/lv_core/lv_style.h **** 
 105:lvgl/src/lv_core/lv_style.h ****     LV_STYLE_PROP_INIT(LV_STYLE_PAD_TOP,            0x1, LV_STYLE_ID_VALUE + 0, LV_STYLE_ATTR_NONE)
 106:lvgl/src/lv_core/lv_style.h ****     LV_STYLE_PROP_INIT(LV_STYLE_PAD_BOTTOM,         0x1, LV_STYLE_ID_VALUE + 1, LV_STYLE_ATTR_NONE)
 107:lvgl/src/lv_core/lv_style.h ****     LV_STYLE_PROP_INIT(LV_STYLE_PAD_LEFT,           0x1, LV_STYLE_ID_VALUE + 2, LV_STYLE_ATTR_NONE)
 108:lvgl/src/lv_core/lv_style.h ****     LV_STYLE_PROP_INIT(LV_STYLE_PAD_RIGHT,          0x1, LV_STYLE_ID_VALUE + 3, LV_STYLE_ATTR_NONE)
 109:lvgl/src/lv_core/lv_style.h ****     LV_STYLE_PROP_INIT(LV_STYLE_PAD_INNER,          0x1, LV_STYLE_ID_VALUE + 4, LV_STYLE_ATTR_NONE)
 110:lvgl/src/lv_core/lv_style.h ****     LV_STYLE_PROP_INIT(LV_STYLE_MARGIN_TOP,         0x1, LV_STYLE_ID_VALUE + 5, LV_STYLE_ATTR_NONE)
 111:lvgl/src/lv_core/lv_style.h ****     LV_STYLE_PROP_INIT(LV_STYLE_MARGIN_BOTTOM,      0x1, LV_STYLE_ID_VALUE + 6, LV_STYLE_ATTR_NONE)
 112:lvgl/src/lv_core/lv_style.h ****     LV_STYLE_PROP_INIT(LV_STYLE_MARGIN_LEFT,        0x1, LV_STYLE_ID_VALUE + 7, LV_STYLE_ATTR_NONE)
 113:lvgl/src/lv_core/lv_style.h ****     LV_STYLE_PROP_INIT(LV_STYLE_MARGIN_RIGHT,       0x1, LV_STYLE_ID_VALUE + 8, LV_STYLE_ATTR_NONE)
 114:lvgl/src/lv_core/lv_style.h **** 
 115:lvgl/src/lv_core/lv_style.h ****     LV_STYLE_PROP_INIT(LV_STYLE_BG_BLEND_MODE,      0x2, LV_STYLE_ID_VALUE + 0, LV_STYLE_ATTR_NONE)
 116:lvgl/src/lv_core/lv_style.h ****     LV_STYLE_PROP_INIT(LV_STYLE_BG_MAIN_STOP,       0x2, LV_STYLE_ID_VALUE + 1, LV_STYLE_ATTR_NONE)
 117:lvgl/src/lv_core/lv_style.h ****     LV_STYLE_PROP_INIT(LV_STYLE_BG_GRAD_STOP,       0x2, LV_STYLE_ID_VALUE + 2, LV_STYLE_ATTR_NONE)
 118:lvgl/src/lv_core/lv_style.h ****     LV_STYLE_PROP_INIT(LV_STYLE_BG_GRAD_DIR,        0x2, LV_STYLE_ID_VALUE + 3, LV_STYLE_ATTR_NONE)
 119:lvgl/src/lv_core/lv_style.h ****     LV_STYLE_PROP_INIT(LV_STYLE_BG_COLOR,           0x2, LV_STYLE_ID_COLOR + 0, LV_STYLE_ATTR_NONE)
 120:lvgl/src/lv_core/lv_style.h ****     LV_STYLE_PROP_INIT(LV_STYLE_BG_GRAD_COLOR,      0x2, LV_STYLE_ID_COLOR + 1, LV_STYLE_ATTR_NONE)
 121:lvgl/src/lv_core/lv_style.h ****     LV_STYLE_PROP_INIT(LV_STYLE_BG_OPA,             0x2, LV_STYLE_ID_OPA   + 0, LV_STYLE_ATTR_NONE)
 122:lvgl/src/lv_core/lv_style.h **** 
 123:lvgl/src/lv_core/lv_style.h ****     LV_STYLE_PROP_INIT(LV_STYLE_BORDER_WIDTH,       0x3, LV_STYLE_ID_VALUE + 0, LV_STYLE_ATTR_NONE)
 124:lvgl/src/lv_core/lv_style.h ****     LV_STYLE_PROP_INIT(LV_STYLE_BORDER_SIDE,        0x3, LV_STYLE_ID_VALUE + 1, LV_STYLE_ATTR_NONE)
 125:lvgl/src/lv_core/lv_style.h ****     LV_STYLE_PROP_INIT(LV_STYLE_BORDER_BLEND_MODE,  0x3, LV_STYLE_ID_VALUE + 2, LV_STYLE_ATTR_NONE)
 126:lvgl/src/lv_core/lv_style.h ****     LV_STYLE_PROP_INIT(LV_STYLE_BORDER_POST,        0x3, LV_STYLE_ID_VALUE + 3, LV_STYLE_ATTR_NONE)
 127:lvgl/src/lv_core/lv_style.h ****     LV_STYLE_PROP_INIT(LV_STYLE_BORDER_COLOR,       0x3, LV_STYLE_ID_COLOR + 0, LV_STYLE_ATTR_NONE)
 128:lvgl/src/lv_core/lv_style.h ****     LV_STYLE_PROP_INIT(LV_STYLE_BORDER_OPA,         0x3, LV_STYLE_ID_OPA   + 0, LV_STYLE_ATTR_NONE)
 129:lvgl/src/lv_core/lv_style.h **** 
 130:lvgl/src/lv_core/lv_style.h ****     LV_STYLE_PROP_INIT(LV_STYLE_OUTLINE_WIDTH,       0x4, LV_STYLE_ID_VALUE + 0, LV_STYLE_ATTR_NONE
 131:lvgl/src/lv_core/lv_style.h ****     LV_STYLE_PROP_INIT(LV_STYLE_OUTLINE_PAD,         0x4, LV_STYLE_ID_VALUE + 1, LV_STYLE_ATTR_NONE
 132:lvgl/src/lv_core/lv_style.h ****     LV_STYLE_PROP_INIT(LV_STYLE_OUTLINE_BLEND_MODE,  0x4, LV_STYLE_ID_VALUE + 2, LV_STYLE_ATTR_NONE
 133:lvgl/src/lv_core/lv_style.h ****     LV_STYLE_PROP_INIT(LV_STYLE_OUTLINE_COLOR,       0x4, LV_STYLE_ID_COLOR + 0, LV_STYLE_ATTR_NONE
 134:lvgl/src/lv_core/lv_style.h ****     LV_STYLE_PROP_INIT(LV_STYLE_OUTLINE_OPA,         0x4, LV_STYLE_ID_OPA   + 0, LV_STYLE_ATTR_NONE
 135:lvgl/src/lv_core/lv_style.h **** 
 136:lvgl/src/lv_core/lv_style.h ****     LV_STYLE_PROP_INIT(LV_STYLE_SHADOW_WIDTH,       0x5, LV_STYLE_ID_VALUE + 0, LV_STYLE_ATTR_NONE)
 137:lvgl/src/lv_core/lv_style.h ****     LV_STYLE_PROP_INIT(LV_STYLE_SHADOW_OFS_X,       0x5, LV_STYLE_ID_VALUE + 1, LV_STYLE_ATTR_NONE)
 138:lvgl/src/lv_core/lv_style.h ****     LV_STYLE_PROP_INIT(LV_STYLE_SHADOW_OFS_Y,       0x5, LV_STYLE_ID_VALUE + 2, LV_STYLE_ATTR_NONE)
 139:lvgl/src/lv_core/lv_style.h ****     LV_STYLE_PROP_INIT(LV_STYLE_SHADOW_SPREAD,      0x5, LV_STYLE_ID_VALUE + 3, LV_STYLE_ATTR_NONE)
 140:lvgl/src/lv_core/lv_style.h ****     LV_STYLE_PROP_INIT(LV_STYLE_SHADOW_BLEND_MODE,  0x5, LV_STYLE_ID_VALUE + 4, LV_STYLE_ATTR_NONE)
 141:lvgl/src/lv_core/lv_style.h ****     LV_STYLE_PROP_INIT(LV_STYLE_SHADOW_COLOR,       0x5, LV_STYLE_ID_COLOR + 0, LV_STYLE_ATTR_NONE)
 142:lvgl/src/lv_core/lv_style.h ****     LV_STYLE_PROP_INIT(LV_STYLE_SHADOW_OPA,         0x5, LV_STYLE_ID_OPA   + 0, LV_STYLE_ATTR_NONE)
 143:lvgl/src/lv_core/lv_style.h **** 
 144:lvgl/src/lv_core/lv_style.h ****     LV_STYLE_PROP_INIT(LV_STYLE_PATTERN_BLEND_MODE,    0x6, LV_STYLE_ID_VALUE + 0, LV_STYLE_ATTR_NO
 145:lvgl/src/lv_core/lv_style.h ****     LV_STYLE_PROP_INIT(LV_STYLE_PATTERN_REPEAT,        0x6, LV_STYLE_ID_VALUE + 1, LV_STYLE_ATTR_NO
 146:lvgl/src/lv_core/lv_style.h ****     LV_STYLE_PROP_INIT(LV_STYLE_PATTERN_RECOLOR,       0x6, LV_STYLE_ID_COLOR + 0, LV_STYLE_ATTR_NO
 147:lvgl/src/lv_core/lv_style.h ****     LV_STYLE_PROP_INIT(LV_STYLE_PATTERN_OPA,           0x6, LV_STYLE_ID_OPA   + 0, LV_STYLE_ATTR_NO
 148:lvgl/src/lv_core/lv_style.h ****     LV_STYLE_PROP_INIT(LV_STYLE_PATTERN_RECOLOR_OPA,   0x6, LV_STYLE_ID_OPA   + 1, LV_STYLE_ATTR_NO
ARM GAS  D:\Temp\cceOI0TF.s 			page 33


 149:lvgl/src/lv_core/lv_style.h ****     LV_STYLE_PROP_INIT(LV_STYLE_PATTERN_IMAGE,         0x6, LV_STYLE_ID_PTR   + 0, LV_STYLE_ATTR_NO
 150:lvgl/src/lv_core/lv_style.h **** 
 151:lvgl/src/lv_core/lv_style.h ****     LV_STYLE_PROP_INIT(LV_STYLE_VALUE_LETTER_SPACE,  0x7, LV_STYLE_ID_VALUE + 0, LV_STYLE_ATTR_NONE
 152:lvgl/src/lv_core/lv_style.h ****     LV_STYLE_PROP_INIT(LV_STYLE_VALUE_LINE_SPACE,    0x7, LV_STYLE_ID_VALUE + 1, LV_STYLE_ATTR_NONE
 153:lvgl/src/lv_core/lv_style.h ****     LV_STYLE_PROP_INIT(LV_STYLE_VALUE_BLEND_MODE,    0x7, LV_STYLE_ID_VALUE + 2, LV_STYLE_ATTR_NONE
 154:lvgl/src/lv_core/lv_style.h ****     LV_STYLE_PROP_INIT(LV_STYLE_VALUE_OFS_X,         0x7, LV_STYLE_ID_VALUE + 3, LV_STYLE_ATTR_NONE
 155:lvgl/src/lv_core/lv_style.h ****     LV_STYLE_PROP_INIT(LV_STYLE_VALUE_OFS_Y,         0x7, LV_STYLE_ID_VALUE + 4, LV_STYLE_ATTR_NONE
 156:lvgl/src/lv_core/lv_style.h ****     LV_STYLE_PROP_INIT(LV_STYLE_VALUE_ALIGN,         0x7, LV_STYLE_ID_VALUE + 5, LV_STYLE_ATTR_NONE
 157:lvgl/src/lv_core/lv_style.h ****     LV_STYLE_PROP_INIT(LV_STYLE_VALUE_COLOR,         0x7, LV_STYLE_ID_COLOR + 0, LV_STYLE_ATTR_NONE
 158:lvgl/src/lv_core/lv_style.h ****     LV_STYLE_PROP_INIT(LV_STYLE_VALUE_OPA,           0x7, LV_STYLE_ID_OPA   + 0, LV_STYLE_ATTR_NONE
 159:lvgl/src/lv_core/lv_style.h ****     LV_STYLE_PROP_INIT(LV_STYLE_VALUE_FONT,          0x7, LV_STYLE_ID_PTR   + 0, LV_STYLE_ATTR_NONE
 160:lvgl/src/lv_core/lv_style.h ****     LV_STYLE_PROP_INIT(LV_STYLE_VALUE_STR,           0x7, LV_STYLE_ID_PTR   + 1, LV_STYLE_ATTR_NONE
 161:lvgl/src/lv_core/lv_style.h **** 
 162:lvgl/src/lv_core/lv_style.h ****     LV_STYLE_PROP_INIT(LV_STYLE_TEXT_LETTER_SPACE,   0x8, LV_STYLE_ID_VALUE + 0, LV_STYLE_ATTR_INHE
 163:lvgl/src/lv_core/lv_style.h ****     LV_STYLE_PROP_INIT(LV_STYLE_TEXT_LINE_SPACE,     0x8, LV_STYLE_ID_VALUE + 1, LV_STYLE_ATTR_INHE
 164:lvgl/src/lv_core/lv_style.h ****     LV_STYLE_PROP_INIT(LV_STYLE_TEXT_DECOR,          0x8, LV_STYLE_ID_VALUE + 2, LV_STYLE_ATTR_INHE
 165:lvgl/src/lv_core/lv_style.h ****     LV_STYLE_PROP_INIT(LV_STYLE_TEXT_BLEND_MODE,     0x8, LV_STYLE_ID_VALUE + 3, LV_STYLE_ATTR_INHE
 166:lvgl/src/lv_core/lv_style.h ****     LV_STYLE_PROP_INIT(LV_STYLE_TEXT_COLOR,          0x8, LV_STYLE_ID_COLOR + 0, LV_STYLE_ATTR_INHE
 167:lvgl/src/lv_core/lv_style.h ****     LV_STYLE_PROP_INIT(LV_STYLE_TEXT_SEL_COLOR,      0x8, LV_STYLE_ID_COLOR + 1, LV_STYLE_ATTR_INHE
 168:lvgl/src/lv_core/lv_style.h ****     LV_STYLE_PROP_INIT(LV_STYLE_TEXT_SEL_BG_COLOR,   0x8, LV_STYLE_ID_COLOR + 2, LV_STYLE_ATTR_INHE
 169:lvgl/src/lv_core/lv_style.h ****     LV_STYLE_PROP_INIT(LV_STYLE_TEXT_OPA,            0x8, LV_STYLE_ID_OPA   + 0, LV_STYLE_ATTR_INHE
 170:lvgl/src/lv_core/lv_style.h ****     LV_STYLE_PROP_INIT(LV_STYLE_TEXT_FONT,           0x8, LV_STYLE_ID_PTR   + 0, LV_STYLE_ATTR_INHE
 171:lvgl/src/lv_core/lv_style.h **** 
 172:lvgl/src/lv_core/lv_style.h ****     LV_STYLE_PROP_INIT(LV_STYLE_LINE_WIDTH,         0x9, LV_STYLE_ID_VALUE + 0, LV_STYLE_ATTR_NONE)
 173:lvgl/src/lv_core/lv_style.h ****     LV_STYLE_PROP_INIT(LV_STYLE_LINE_BLEND_MODE,    0x9, LV_STYLE_ID_VALUE + 1, LV_STYLE_ATTR_NONE)
 174:lvgl/src/lv_core/lv_style.h ****     LV_STYLE_PROP_INIT(LV_STYLE_LINE_DASH_WIDTH,    0x9, LV_STYLE_ID_VALUE + 2, LV_STYLE_ATTR_NONE)
 175:lvgl/src/lv_core/lv_style.h ****     LV_STYLE_PROP_INIT(LV_STYLE_LINE_DASH_GAP,      0x9, LV_STYLE_ID_VALUE + 3, LV_STYLE_ATTR_NONE)
 176:lvgl/src/lv_core/lv_style.h ****     LV_STYLE_PROP_INIT(LV_STYLE_LINE_ROUNDED,       0x9, LV_STYLE_ID_VALUE + 4, LV_STYLE_ATTR_NONE)
 177:lvgl/src/lv_core/lv_style.h ****     LV_STYLE_PROP_INIT(LV_STYLE_LINE_COLOR,         0x9, LV_STYLE_ID_COLOR + 0, LV_STYLE_ATTR_NONE)
 178:lvgl/src/lv_core/lv_style.h ****     LV_STYLE_PROP_INIT(LV_STYLE_LINE_OPA,           0x9, LV_STYLE_ID_OPA   + 0, LV_STYLE_ATTR_NONE)
 179:lvgl/src/lv_core/lv_style.h **** 
 180:lvgl/src/lv_core/lv_style.h ****     LV_STYLE_PROP_INIT(LV_STYLE_IMAGE_BLEND_MODE,   0xA, LV_STYLE_ID_VALUE + 0, LV_STYLE_ATTR_INHER
 181:lvgl/src/lv_core/lv_style.h ****     LV_STYLE_PROP_INIT(LV_STYLE_IMAGE_RECOLOR,      0xA, LV_STYLE_ID_COLOR + 0, LV_STYLE_ATTR_INHER
 182:lvgl/src/lv_core/lv_style.h ****     LV_STYLE_PROP_INIT(LV_STYLE_IMAGE_OPA,          0xA, LV_STYLE_ID_OPA   + 0, LV_STYLE_ATTR_INHER
 183:lvgl/src/lv_core/lv_style.h ****     LV_STYLE_PROP_INIT(LV_STYLE_IMAGE_RECOLOR_OPA,  0xA, LV_STYLE_ID_OPA   + 1, LV_STYLE_ATTR_INHER
 184:lvgl/src/lv_core/lv_style.h **** 
 185:lvgl/src/lv_core/lv_style.h ****     LV_STYLE_PROP_INIT(LV_STYLE_TRANSITION_TIME,    0xB, LV_STYLE_ID_VALUE + 0, LV_STYLE_ATTR_NONE)
 186:lvgl/src/lv_core/lv_style.h ****     LV_STYLE_PROP_INIT(LV_STYLE_TRANSITION_DELAY,   0xB, LV_STYLE_ID_VALUE + 1, LV_STYLE_ATTR_NONE)
 187:lvgl/src/lv_core/lv_style.h ****     LV_STYLE_PROP_INIT(LV_STYLE_TRANSITION_PROP_1,  0xB, LV_STYLE_ID_VALUE + 2, LV_STYLE_ATTR_NONE)
 188:lvgl/src/lv_core/lv_style.h ****     LV_STYLE_PROP_INIT(LV_STYLE_TRANSITION_PROP_2,  0xB, LV_STYLE_ID_VALUE + 3, LV_STYLE_ATTR_NONE)
 189:lvgl/src/lv_core/lv_style.h ****     LV_STYLE_PROP_INIT(LV_STYLE_TRANSITION_PROP_3,  0xB, LV_STYLE_ID_VALUE + 4, LV_STYLE_ATTR_NONE)
 190:lvgl/src/lv_core/lv_style.h ****     LV_STYLE_PROP_INIT(LV_STYLE_TRANSITION_PROP_4,  0xB, LV_STYLE_ID_VALUE + 5, LV_STYLE_ATTR_NONE)
 191:lvgl/src/lv_core/lv_style.h ****     LV_STYLE_PROP_INIT(LV_STYLE_TRANSITION_PROP_5,  0xB, LV_STYLE_ID_VALUE + 6, LV_STYLE_ATTR_NONE)
 192:lvgl/src/lv_core/lv_style.h ****     LV_STYLE_PROP_INIT(LV_STYLE_TRANSITION_PROP_6,  0xB, LV_STYLE_ID_VALUE + 7, LV_STYLE_ATTR_NONE)
 193:lvgl/src/lv_core/lv_style.h ****     LV_STYLE_PROP_INIT(LV_STYLE_TRANSITION_PATH,    0xB, LV_STYLE_ID_PTR + 0, LV_STYLE_ATTR_NONE),
 194:lvgl/src/lv_core/lv_style.h **** 
 195:lvgl/src/lv_core/lv_style.h ****     LV_STYLE_PROP_INIT(LV_STYLE_SCALE_WIDTH,            0xC, LV_STYLE_ID_VALUE + 0, LV_STYLE_ATTR_N
 196:lvgl/src/lv_core/lv_style.h ****     LV_STYLE_PROP_INIT(LV_STYLE_SCALE_BORDER_WIDTH,     0xC, LV_STYLE_ID_VALUE + 1, LV_STYLE_ATTR_N
 197:lvgl/src/lv_core/lv_style.h ****     LV_STYLE_PROP_INIT(LV_STYLE_SCALE_END_BORDER_WIDTH, 0xC, LV_STYLE_ID_VALUE + 2, LV_STYLE_ATTR_N
 198:lvgl/src/lv_core/lv_style.h ****     LV_STYLE_PROP_INIT(LV_STYLE_SCALE_END_LINE_WIDTH,   0xC, LV_STYLE_ID_VALUE + 3, LV_STYLE_ATTR_N
 199:lvgl/src/lv_core/lv_style.h ****     LV_STYLE_PROP_INIT(LV_STYLE_SCALE_GRAD_COLOR,       0xC, LV_STYLE_ID_COLOR + 0, LV_STYLE_ATTR_N
 200:lvgl/src/lv_core/lv_style.h ****     LV_STYLE_PROP_INIT(LV_STYLE_SCALE_END_COLOR,        0xC, LV_STYLE_ID_COLOR + 1, LV_STYLE_ATTR_N
 201:lvgl/src/lv_core/lv_style.h **** };
 202:lvgl/src/lv_core/lv_style.h **** 
 203:lvgl/src/lv_core/lv_style.h **** typedef uint16_t lv_style_property_t;
 204:lvgl/src/lv_core/lv_style.h **** 
 205:lvgl/src/lv_core/lv_style.h **** #define LV_STYLE_STATE_POS       8
ARM GAS  D:\Temp\cceOI0TF.s 			page 34


 206:lvgl/src/lv_core/lv_style.h **** #define LV_STYLE_STATE_MASK      0x7F00
 207:lvgl/src/lv_core/lv_style.h **** #define LV_STYLE_INHERIT_MASK    0x8000
 208:lvgl/src/lv_core/lv_style.h **** 
 209:lvgl/src/lv_core/lv_style.h **** typedef uint16_t lv_style_state_t;
 210:lvgl/src/lv_core/lv_style.h **** 
 211:lvgl/src/lv_core/lv_style.h **** typedef struct {
 212:lvgl/src/lv_core/lv_style.h ****     uint8_t * map;
 213:lvgl/src/lv_core/lv_style.h **** #if LV_USE_ASSERT_STYLE
 214:lvgl/src/lv_core/lv_style.h ****     uint32_t sentinel;
 215:lvgl/src/lv_core/lv_style.h **** #endif
 216:lvgl/src/lv_core/lv_style.h **** } lv_style_t;
 217:lvgl/src/lv_core/lv_style.h **** 
 218:lvgl/src/lv_core/lv_style.h **** typedef int16_t lv_style_int_t;
 219:lvgl/src/lv_core/lv_style.h **** 
 220:lvgl/src/lv_core/lv_style.h **** typedef struct {
 221:lvgl/src/lv_core/lv_style.h ****     lv_style_t ** style_list;
 222:lvgl/src/lv_core/lv_style.h **** #if LV_USE_ASSERT_STYLE
 223:lvgl/src/lv_core/lv_style.h ****     uint32_t sentinel;
 224:lvgl/src/lv_core/lv_style.h **** #endif
 225:lvgl/src/lv_core/lv_style.h ****     uint32_t style_cnt     : 6;
 226:lvgl/src/lv_core/lv_style.h ****     uint32_t has_local     : 1;
 227:lvgl/src/lv_core/lv_style.h ****     uint32_t has_trans     : 1;
 228:lvgl/src/lv_core/lv_style.h ****     uint32_t skip_trans    : 1;      /*1: Temporally skip the transition style if any*/
 229:lvgl/src/lv_core/lv_style.h ****     uint32_t ignore_trans  : 1;      /*1: Mark that this style list shouldn't receive transitions a
 230:lvgl/src/lv_core/lv_style.h ****     uint32_t valid_cache   : 1;      /*1: The cache is valid and can be used*/
 231:lvgl/src/lv_core/lv_style.h ****     uint32_t ignore_cache  : 1;      /*1: Ignore cache while getting value of properties*/
 232:lvgl/src/lv_core/lv_style.h **** 
 233:lvgl/src/lv_core/lv_style.h ****     uint32_t radius_zero : 1;
 234:lvgl/src/lv_core/lv_style.h ****     uint32_t opa_scale_cover      : 1;
 235:lvgl/src/lv_core/lv_style.h ****     uint32_t clip_corner_off       : 1;
 236:lvgl/src/lv_core/lv_style.h ****     uint32_t transform_all_zero  : 1;
 237:lvgl/src/lv_core/lv_style.h ****     uint32_t pad_all_zero : 1;
 238:lvgl/src/lv_core/lv_style.h ****     uint32_t margin_all_zero : 1;
 239:lvgl/src/lv_core/lv_style.h ****     uint32_t blend_mode_all_normal : 1;
 240:lvgl/src/lv_core/lv_style.h ****     uint32_t bg_opa_transp : 1;
 241:lvgl/src/lv_core/lv_style.h ****     uint32_t bg_opa_cover : 1;
 242:lvgl/src/lv_core/lv_style.h **** 
 243:lvgl/src/lv_core/lv_style.h ****     uint32_t border_width_zero : 1;
 244:lvgl/src/lv_core/lv_style.h ****     uint32_t border_side_full : 1;
 245:lvgl/src/lv_core/lv_style.h ****     uint32_t border_post_off : 1;
 246:lvgl/src/lv_core/lv_style.h **** 
 247:lvgl/src/lv_core/lv_style.h ****     uint32_t outline_width_zero : 1;
 248:lvgl/src/lv_core/lv_style.h ****     uint32_t pattern_img_null : 1;
 249:lvgl/src/lv_core/lv_style.h ****     uint32_t shadow_width_zero : 1;
 250:lvgl/src/lv_core/lv_style.h ****     uint32_t value_txt_str : 1;
 251:lvgl/src/lv_core/lv_style.h ****     uint32_t img_recolor_opa_transp : 1;
 252:lvgl/src/lv_core/lv_style.h **** 
 253:lvgl/src/lv_core/lv_style.h ****     uint32_t text_space_zero : 1;
 254:lvgl/src/lv_core/lv_style.h ****     uint32_t text_decor_none : 1;
 255:lvgl/src/lv_core/lv_style.h ****     uint32_t text_font_normal : 1;
 256:lvgl/src/lv_core/lv_style.h **** } lv_style_list_t;
 257:lvgl/src/lv_core/lv_style.h **** 
 258:lvgl/src/lv_core/lv_style.h **** /**********************
 259:lvgl/src/lv_core/lv_style.h ****  * GLOBAL PROTOTYPES
 260:lvgl/src/lv_core/lv_style.h ****  **********************/
 261:lvgl/src/lv_core/lv_style.h **** 
 262:lvgl/src/lv_core/lv_style.h **** /**
ARM GAS  D:\Temp\cceOI0TF.s 			page 35


 263:lvgl/src/lv_core/lv_style.h ****  * Initialize a style
 264:lvgl/src/lv_core/lv_style.h ****  * @param style pointer to a style to initialize
 265:lvgl/src/lv_core/lv_style.h ****  */
 266:lvgl/src/lv_core/lv_style.h **** void lv_style_init(lv_style_t * style);
 267:lvgl/src/lv_core/lv_style.h **** 
 268:lvgl/src/lv_core/lv_style.h **** /**
 269:lvgl/src/lv_core/lv_style.h ****  * Copy a style with all its properties
 270:lvgl/src/lv_core/lv_style.h ****  * @param style_dest pointer to the destination style. (Should be initialized with `lv_style_init()
 271:lvgl/src/lv_core/lv_style.h ****  * @param style_src pointer to the source (to copy )style
 272:lvgl/src/lv_core/lv_style.h ****  */
 273:lvgl/src/lv_core/lv_style.h **** void lv_style_copy(lv_style_t * style_dest, const lv_style_t * style_src);
 274:lvgl/src/lv_core/lv_style.h **** 
 275:lvgl/src/lv_core/lv_style.h **** /**
 276:lvgl/src/lv_core/lv_style.h ****  * Initialize a style list
 277:lvgl/src/lv_core/lv_style.h ****  * @param list a style list to initialize
 278:lvgl/src/lv_core/lv_style.h ****  */
 279:lvgl/src/lv_core/lv_style.h **** void lv_style_list_init(lv_style_list_t * list);
 280:lvgl/src/lv_core/lv_style.h **** 
 281:lvgl/src/lv_core/lv_style.h **** /**
 282:lvgl/src/lv_core/lv_style.h ****  * Copy a style list with all its styles and local style properties
 283:lvgl/src/lv_core/lv_style.h ****  * @param list_dest pointer to the destination style list. (should be initialized with `lv_style_li
 284:lvgl/src/lv_core/lv_style.h ****  * @param list_src pointer to the source (to copy) style list.
 285:lvgl/src/lv_core/lv_style.h ****  */
 286:lvgl/src/lv_core/lv_style.h **** void lv_style_list_copy(lv_style_list_t * list_dest, const lv_style_list_t * list_src);
 287:lvgl/src/lv_core/lv_style.h **** 
 288:lvgl/src/lv_core/lv_style.h **** /**
 289:lvgl/src/lv_core/lv_style.h ****  * Add a style to a style list.
 290:lvgl/src/lv_core/lv_style.h ****  * Only the style pointer will be saved so the shouldn't be a local variable.
 291:lvgl/src/lv_core/lv_style.h ****  * (It should be static, global or dynamically allocated)
 292:lvgl/src/lv_core/lv_style.h ****  * @param list pointer to a style list
 293:lvgl/src/lv_core/lv_style.h ****  * @param style pointer to a style to add
 294:lvgl/src/lv_core/lv_style.h ****  */
 295:lvgl/src/lv_core/lv_style.h **** void _lv_style_list_add_style(lv_style_list_t * list, lv_style_t * style);
 296:lvgl/src/lv_core/lv_style.h **** 
 297:lvgl/src/lv_core/lv_style.h **** /**
 298:lvgl/src/lv_core/lv_style.h ****  * Remove a style from a style list
 299:lvgl/src/lv_core/lv_style.h ****  * @param style_list pointer to a style list
 300:lvgl/src/lv_core/lv_style.h ****  * @param style pointer to a style to remove
 301:lvgl/src/lv_core/lv_style.h ****  */
 302:lvgl/src/lv_core/lv_style.h **** void _lv_style_list_remove_style(lv_style_list_t * list, lv_style_t * style);
 303:lvgl/src/lv_core/lv_style.h **** 
 304:lvgl/src/lv_core/lv_style.h **** /**
 305:lvgl/src/lv_core/lv_style.h ****  * Remove all styles added from style list, clear the local style, transition style and free all al
 306:lvgl/src/lv_core/lv_style.h ****  * Leave `ignore_trans` flag as it is.
 307:lvgl/src/lv_core/lv_style.h ****  * @param list pointer to a style list.
 308:lvgl/src/lv_core/lv_style.h ****  */
 309:lvgl/src/lv_core/lv_style.h **** void _lv_style_list_reset(lv_style_list_t * style_list);
 310:lvgl/src/lv_core/lv_style.h **** 
 311:lvgl/src/lv_core/lv_style.h **** static inline lv_style_t * lv_style_list_get_style(lv_style_list_t * list, uint8_t id)
 502              		.loc 2 311 28 is_stmt 1 discriminator 1 view .LVU147
 503              	.LBB142:
 312:lvgl/src/lv_core/lv_style.h **** {
 313:lvgl/src/lv_core/lv_style.h ****     if(list->has_trans && list->skip_trans) id++;
 504              		.loc 2 313 5 discriminator 1 view .LVU148
 505              		.loc 2 313 24 is_stmt 0 discriminator 1 view .LVU149
 506 000c 8188     		ldrh	r1, [r0, #4]
 507 000e 01F4C071 		and	r1, r1, #384
ARM GAS  D:\Temp\cceOI0TF.s 			page 36


 508              		.loc 2 313 7 discriminator 1 view .LVU150
 509 0012 B1F5C07F 		cmp	r1, #384
 510 0016 0CD0     		beq	.L52
 511              	.L44:
 314:lvgl/src/lv_core/lv_style.h ****     if(list->style_cnt == 0 || id >= list->style_cnt) return NULL;
 512              		.loc 2 314 5 is_stmt 1 view .LVU151
 513              		.loc 2 314 7 is_stmt 0 view .LVU152
 514 0018 12F03F0F 		tst	r2, #63
 515 001c 0BD0     		beq	.L49
 516              		.loc 2 314 42 view .LVU153
 517 001e 0279     		ldrb	r2, [r0, #4]	@ zero_extendqisi2
 518 0020 02F03F02 		and	r2, r2, #63
 519              		.loc 2 314 29 view .LVU154
 520 0024 9A42     		cmp	r2, r3
 521 0026 08D9     		bls	.L50
 315:lvgl/src/lv_core/lv_style.h ****     return list->style_list[id];
 522              		.loc 2 315 5 is_stmt 1 view .LVU155
 523              		.loc 2 315 16 is_stmt 0 view .LVU156
 524 0028 0268     		ldr	r2, [r0]
 525              		.loc 2 315 28 view .LVU157
 526 002a 52F82350 		ldr	r5, [r2, r3, lsl #2]
 527              	.LVL51:
 528              	.L42:
 529              		.loc 2 315 28 view .LVU158
 530              	.LBE142:
 531              	.LBE141:
1106:lvgl/src/lv_core/lv_style.c **** 
1107:lvgl/src/lv_core/lv_style.c ****     lv_style_t * local_style = lv_mem_alloc(sizeof(lv_style_t));
1108:lvgl/src/lv_core/lv_style.c ****     LV_ASSERT_MEM(local_style);
1109:lvgl/src/lv_core/lv_style.c ****     if(local_style == NULL) {
1110:lvgl/src/lv_core/lv_style.c ****         LV_LOG_WARN("get_local_style: couldn't create local style");
1111:lvgl/src/lv_core/lv_style.c ****         return NULL;
1112:lvgl/src/lv_core/lv_style.c ****     }
1113:lvgl/src/lv_core/lv_style.c ****     lv_style_init(local_style);
1114:lvgl/src/lv_core/lv_style.c **** 
1115:lvgl/src/lv_core/lv_style.c ****     /*Add the local style to the first place*/
1116:lvgl/src/lv_core/lv_style.c ****     _lv_style_list_add_style(list, local_style);
1117:lvgl/src/lv_core/lv_style.c ****     list->has_local = 1;
1118:lvgl/src/lv_core/lv_style.c **** 
1119:lvgl/src/lv_core/lv_style.c ****     return local_style;
1120:lvgl/src/lv_core/lv_style.c **** }
 532              		.loc 1 1120 1 view .LVU159
 533 002e 2846     		mov	r0, r5
 534 0030 38BD     		pop	{r3, r4, r5, pc}
 535              	.LVL52:
 536              	.L52:
 537              	.LBB144:
 538              	.LBB143:
 313:lvgl/src/lv_core/lv_style.h ****     if(list->style_cnt == 0 || id >= list->style_cnt) return NULL;
 539              		.loc 2 313 45 is_stmt 1 view .LVU160
 313:lvgl/src/lv_core/lv_style.h ****     if(list->style_cnt == 0 || id >= list->style_cnt) return NULL;
 540              		.loc 2 313 47 is_stmt 0 view .LVU161
 541 0032 0133     		adds	r3, r3, #1
 542              	.LVL53:
 313:lvgl/src/lv_core/lv_style.h ****     if(list->style_cnt == 0 || id >= list->style_cnt) return NULL;
 543              		.loc 2 313 47 view .LVU162
 544 0034 F0E7     		b	.L44
ARM GAS  D:\Temp\cceOI0TF.s 			page 37


 545              	.L49:
 314:lvgl/src/lv_core/lv_style.h ****     return list->style_list[id];
 546              		.loc 2 314 62 view .LVU163
 547 0036 0025     		movs	r5, #0
 548 0038 F9E7     		b	.L42
 549              	.L50:
 314:lvgl/src/lv_core/lv_style.h ****     return list->style_list[id];
 550              		.loc 2 314 62 view .LVU164
 551 003a 0025     		movs	r5, #0
 552              	.LVL54:
 314:lvgl/src/lv_core/lv_style.h ****     return list->style_list[id];
 553              		.loc 2 314 62 view .LVU165
 554              	.LBE143:
 555              	.LBE144:
1105:lvgl/src/lv_core/lv_style.c **** 
 556              		.loc 1 1105 32 view .LVU166
 557 003c F7E7     		b	.L42
 558              	.L43:
1105:lvgl/src/lv_core/lv_style.c **** 
 559              		.loc 1 1105 32 view .LVU167
 560 003e 0446     		mov	r4, r0
1107:lvgl/src/lv_core/lv_style.c ****     LV_ASSERT_MEM(local_style);
 561              		.loc 1 1107 5 is_stmt 1 view .LVU168
1107:lvgl/src/lv_core/lv_style.c ****     LV_ASSERT_MEM(local_style);
 562              		.loc 1 1107 32 is_stmt 0 view .LVU169
 563 0040 0420     		movs	r0, #4
 564              	.LVL55:
1107:lvgl/src/lv_core/lv_style.c ****     LV_ASSERT_MEM(local_style);
 565              		.loc 1 1107 32 view .LVU170
 566 0042 FFF7FEFF 		bl	lv_mem_alloc
 567              	.LVL56:
 568 0046 0546     		mov	r5, r0
 569              	.LVL57:
1108:lvgl/src/lv_core/lv_style.c ****     if(local_style == NULL) {
 570              		.loc 1 1108 5 is_stmt 1 view .LVU171
1108:lvgl/src/lv_core/lv_style.c ****     if(local_style == NULL) {
 571              		.loc 1 1108 5 view .LVU172
 572 0048 FFF7FEFF 		bl	lv_debug_check_null
 573              	.LVL58:
1108:lvgl/src/lv_core/lv_style.c ****     if(local_style == NULL) {
 574              		.loc 1 1108 5 is_stmt 0 view .LVU173
 575 004c 68B1     		cbz	r0, .L53
1108:lvgl/src/lv_core/lv_style.c ****     if(local_style == NULL) {
 576              		.loc 1 1108 31 is_stmt 1 discriminator 2 view .LVU174
1109:lvgl/src/lv_core/lv_style.c ****         LV_LOG_WARN("get_local_style: couldn't create local style");
 577              		.loc 1 1109 5 discriminator 2 view .LVU175
1109:lvgl/src/lv_core/lv_style.c ****         LV_LOG_WARN("get_local_style: couldn't create local style");
 578              		.loc 1 1109 7 is_stmt 0 discriminator 2 view .LVU176
 579 004e 002D     		cmp	r5, #0
 580 0050 EDD0     		beq	.L42
1113:lvgl/src/lv_core/lv_style.c **** 
 581              		.loc 1 1113 5 is_stmt 1 view .LVU177
 582 0052 2846     		mov	r0, r5
 583 0054 FFF7FEFF 		bl	lv_style_init
 584              	.LVL59:
1116:lvgl/src/lv_core/lv_style.c ****     list->has_local = 1;
 585              		.loc 1 1116 5 view .LVU178
ARM GAS  D:\Temp\cceOI0TF.s 			page 38


 586 0058 2946     		mov	r1, r5
 587 005a 2046     		mov	r0, r4
 588 005c FFF7FEFF 		bl	_lv_style_list_add_style
 589              	.LVL60:
1117:lvgl/src/lv_core/lv_style.c **** 
 590              		.loc 1 1117 5 view .LVU179
1117:lvgl/src/lv_core/lv_style.c **** 
 591              		.loc 1 1117 21 is_stmt 0 view .LVU180
 592 0060 2379     		ldrb	r3, [r4, #4]	@ zero_extendqisi2
 593 0062 43F04003 		orr	r3, r3, #64
 594 0066 2371     		strb	r3, [r4, #4]
1119:lvgl/src/lv_core/lv_style.c **** }
 595              		.loc 1 1119 5 is_stmt 1 view .LVU181
1119:lvgl/src/lv_core/lv_style.c **** }
 596              		.loc 1 1119 12 is_stmt 0 view .LVU182
 597 0068 E1E7     		b	.L42
 598              	.L53:
1108:lvgl/src/lv_core/lv_style.c ****     if(local_style == NULL) {
 599              		.loc 1 1108 5 is_stmt 1 discriminator 1 view .LVU183
1108:lvgl/src/lv_core/lv_style.c ****     if(local_style == NULL) {
 600              		.loc 1 1108 5 discriminator 1 view .LVU184
 601 006a 2A46     		mov	r2, r5
 602 006c 0023     		movs	r3, #0
 603 006e 0248     		ldr	r0, .L54
 604 0070 FFF7FEFF 		bl	lv_debug_log_error
 605              	.LVL61:
 606              	.L48:
1108:lvgl/src/lv_core/lv_style.c ****     if(local_style == NULL) {
 607              		.loc 1 1108 5 discriminator 1 view .LVU185
1108:lvgl/src/lv_core/lv_style.c ****     if(local_style == NULL) {
 608              		.loc 1 1108 5 discriminator 1 view .LVU186
 609 0074 FEE7     		b	.L48
 610              	.L55:
 611 0076 00BF     		.align	2
 612              	.L54:
 613 0078 00000000 		.word	.LC0
 614              		.cfi_endproc
 615              	.LFE490:
 617              		.section	.text.lv_style_reset,"ax",%progbits
 618              		.align	1
 619              		.global	lv_style_reset
 620              		.syntax unified
 621              		.thumb
 622              		.thumb_func
 623              		.fpu fpv4-sp-d16
 625              	lv_style_reset:
 626              	.LVL62:
 627              	.LFB466:
 323:lvgl/src/lv_core/lv_style.c ****     LV_ASSERT_STYLE(style);
 628              		.loc 1 323 1 view -0
 629              		.cfi_startproc
 630              		@ args = 0, pretend = 0, frame = 0
 631              		@ frame_needed = 0, uses_anonymous_args = 0
 323:lvgl/src/lv_core/lv_style.c ****     LV_ASSERT_STYLE(style);
 632              		.loc 1 323 1 is_stmt 0 view .LVU188
 633 0000 10B5     		push	{r4, lr}
 634              	.LCFI6:
ARM GAS  D:\Temp\cceOI0TF.s 			page 39


 635              		.cfi_def_cfa_offset 8
 636              		.cfi_offset 4, -8
 637              		.cfi_offset 14, -4
 638 0002 0446     		mov	r4, r0
 324:lvgl/src/lv_core/lv_style.c **** 
 639              		.loc 1 324 27 is_stmt 1 view .LVU189
 326:lvgl/src/lv_core/lv_style.c ****     style->map = NULL;
 640              		.loc 1 326 5 view .LVU190
 641 0004 0068     		ldr	r0, [r0]
 642              	.LVL63:
 326:lvgl/src/lv_core/lv_style.c ****     style->map = NULL;
 643              		.loc 1 326 5 is_stmt 0 view .LVU191
 644 0006 FFF7FEFF 		bl	lv_mem_free
 645              	.LVL64:
 327:lvgl/src/lv_core/lv_style.c **** }
 646              		.loc 1 327 5 is_stmt 1 view .LVU192
 327:lvgl/src/lv_core/lv_style.c **** }
 647              		.loc 1 327 16 is_stmt 0 view .LVU193
 648 000a 0023     		movs	r3, #0
 649 000c 2360     		str	r3, [r4]
 328:lvgl/src/lv_core/lv_style.c **** 
 650              		.loc 1 328 1 view .LVU194
 651 000e 10BD     		pop	{r4, pc}
 328:lvgl/src/lv_core/lv_style.c **** 
 652              		.loc 1 328 1 view .LVU195
 653              		.cfi_endproc
 654              	.LFE466:
 656              		.section	.text._lv_style_get_mem_size,"ax",%progbits
 657              		.align	1
 658              		.global	_lv_style_get_mem_size
 659              		.syntax unified
 660              		.thumb
 661              		.thumb_func
 662              		.fpu fpv4-sp-d16
 664              	_lv_style_get_mem_size:
 665              	.LVL65:
 666              	.LFB467:
 336:lvgl/src/lv_core/lv_style.c ****     LV_ASSERT_STYLE(style);
 667              		.loc 1 336 1 is_stmt 1 view -0
 668              		.cfi_startproc
 669              		@ args = 0, pretend = 0, frame = 8
 670              		@ frame_needed = 0, uses_anonymous_args = 0
 671              		@ link register save eliminated.
 337:lvgl/src/lv_core/lv_style.c **** 
 672              		.loc 1 337 27 view .LVU197
 339:lvgl/src/lv_core/lv_style.c **** 
 673              		.loc 1 339 5 view .LVU198
 339:lvgl/src/lv_core/lv_style.c **** 
 674              		.loc 1 339 13 is_stmt 0 view .LVU199
 675 0000 0368     		ldr	r3, [r0]
 339:lvgl/src/lv_core/lv_style.c **** 
 676              		.loc 1 339 7 view .LVU200
 677 0002 0BB3     		cbz	r3, .L63
 336:lvgl/src/lv_core/lv_style.c ****     LV_ASSERT_STYLE(style);
 678              		.loc 1 336 1 view .LVU201
 679 0004 82B0     		sub	sp, sp, #8
 680              	.LCFI7:
ARM GAS  D:\Temp\cceOI0TF.s 			page 40


 681              		.cfi_def_cfa_offset 8
 341:lvgl/src/lv_core/lv_style.c ****     uint8_t prop_id;
 682              		.loc 1 341 12 view .LVU202
 683 0006 0022     		movs	r2, #0
 684 0008 01E0     		b	.L60
 685              	.LVL66:
 686              	.L64:
 687              	.LBB145:
 688              	.LBB146:
 689              	.LBB147:
 690              	.LBB148:
1121:lvgl/src/lv_core/lv_style.c **** 
1122:lvgl/src/lv_core/lv_style.c **** /**
1123:lvgl/src/lv_core/lv_style.c ****  * Resizes a style map. Useful entry point for debugging.
1124:lvgl/src/lv_core/lv_style.c ****  * @param style pointer to the style to be resized.
1125:lvgl/src/lv_core/lv_style.c ****  * @param size new size
1126:lvgl/src/lv_core/lv_style.c ****  */
1127:lvgl/src/lv_core/lv_style.c **** static inline void style_resize(lv_style_t * style, size_t sz)
1128:lvgl/src/lv_core/lv_style.c **** {
1129:lvgl/src/lv_core/lv_style.c ****     style->map = lv_mem_realloc(style->map, sz);
1130:lvgl/src/lv_core/lv_style.c **** }
1131:lvgl/src/lv_core/lv_style.c **** 
1132:lvgl/src/lv_core/lv_style.c **** /**
1133:lvgl/src/lv_core/lv_style.c ****  * Get style property in index.
1134:lvgl/src/lv_core/lv_style.c ****  * @param style pointer to style.
1135:lvgl/src/lv_core/lv_style.c ****  * @param idx index of the style in style->map
1136:lvgl/src/lv_core/lv_style.c ****  * @return property in style->map + idx
1137:lvgl/src/lv_core/lv_style.c ****  */
1138:lvgl/src/lv_core/lv_style.c **** static inline lv_style_property_t get_style_prop(const lv_style_t * style, size_t idx)
1139:lvgl/src/lv_core/lv_style.c **** {
1140:lvgl/src/lv_core/lv_style.c ****     lv_style_property_t prop;
1141:lvgl/src/lv_core/lv_style.c ****     uint8_t * prop_p = (uint8_t *)&prop;
1142:lvgl/src/lv_core/lv_style.c ****     prop_p[0] = style->map[idx];
1143:lvgl/src/lv_core/lv_style.c ****     prop_p[1] = style->map[idx + 1];
1144:lvgl/src/lv_core/lv_style.c ****     return prop;
1145:lvgl/src/lv_core/lv_style.c **** }
1146:lvgl/src/lv_core/lv_style.c **** 
1147:lvgl/src/lv_core/lv_style.c **** /**
1148:lvgl/src/lv_core/lv_style.c ****  * Get style property id in index.
1149:lvgl/src/lv_core/lv_style.c ****  * @param style pointer to style.
1150:lvgl/src/lv_core/lv_style.c ****  * @param idx index of the style in style->map
1151:lvgl/src/lv_core/lv_style.c ****  * @return id of property in style->map + idx
1152:lvgl/src/lv_core/lv_style.c ****  */
1153:lvgl/src/lv_core/lv_style.c **** static inline uint8_t get_style_prop_id(const lv_style_t * style, size_t idx)
1154:lvgl/src/lv_core/lv_style.c **** {
1155:lvgl/src/lv_core/lv_style.c ****     return get_style_prop(style, idx) & 0xFF;
1156:lvgl/src/lv_core/lv_style.c **** }
1157:lvgl/src/lv_core/lv_style.c **** 
1158:lvgl/src/lv_core/lv_style.c **** /**
1159:lvgl/src/lv_core/lv_style.c ****  * Get style property attributes for index.
1160:lvgl/src/lv_core/lv_style.c ****  * @param style pointer to style.
1161:lvgl/src/lv_core/lv_style.c ****  * @param idx index of the style in style->map
1162:lvgl/src/lv_core/lv_style.c ****  * @return attribute of property in style->map + idx
1163:lvgl/src/lv_core/lv_style.c ****  */
1164:lvgl/src/lv_core/lv_style.c **** static inline uint8_t get_style_prop_attr(const lv_style_t * style, size_t idx)
1165:lvgl/src/lv_core/lv_style.c **** {
1166:lvgl/src/lv_core/lv_style.c ****     return ((get_style_prop(style, idx) >> 8) & 0xFFU);
ARM GAS  D:\Temp\cceOI0TF.s 			page 41


1167:lvgl/src/lv_core/lv_style.c **** }
1168:lvgl/src/lv_core/lv_style.c **** 
1169:lvgl/src/lv_core/lv_style.c **** /**
1170:lvgl/src/lv_core/lv_style.c ****  * Get property size.
1171:lvgl/src/lv_core/lv_style.c ****  * @param prop_id property id.
1172:lvgl/src/lv_core/lv_style.c ****  * @param idx index of the style in style->map
1173:lvgl/src/lv_core/lv_style.c ****  * @return attribute of property in style->map + idx
1174:lvgl/src/lv_core/lv_style.c ****  */
1175:lvgl/src/lv_core/lv_style.c **** static inline size_t get_prop_size(uint8_t prop_id)
1176:lvgl/src/lv_core/lv_style.c **** {
1177:lvgl/src/lv_core/lv_style.c ****     prop_id &= 0xF;
1178:lvgl/src/lv_core/lv_style.c ****     size_t size = sizeof(lv_style_property_t);
1179:lvgl/src/lv_core/lv_style.c ****     if(prop_id < LV_STYLE_ID_COLOR) size += sizeof(lv_style_int_t);
 691              		.loc 1 1179 42 view .LVU203
 692 000a 0423     		movs	r3, #4
 693              	.LVL67:
 694              	.L61:
1180:lvgl/src/lv_core/lv_style.c ****     else if(prop_id < LV_STYLE_ID_OPA) size += sizeof(lv_color_t);
1181:lvgl/src/lv_core/lv_style.c ****     else if(prop_id < LV_STYLE_ID_PTR) size += sizeof(lv_opa_t);
1182:lvgl/src/lv_core/lv_style.c ****     else size += sizeof(const void *);
1183:lvgl/src/lv_core/lv_style.c ****     return size;
 695              		.loc 1 1183 5 is_stmt 1 view .LVU204
 696              		.loc 1 1183 5 is_stmt 0 view .LVU205
 697              	.LBE148:
 698              	.LBE147:
1184:lvgl/src/lv_core/lv_style.c **** }
1185:lvgl/src/lv_core/lv_style.c **** 
1186:lvgl/src/lv_core/lv_style.c **** /**
1187:lvgl/src/lv_core/lv_style.c ****  * Get next property index, given current property and index.
1188:lvgl/src/lv_core/lv_style.c ****  * @param prop_id property id.
1189:lvgl/src/lv_core/lv_style.c ****  * @param idx index of the style in style->map
1190:lvgl/src/lv_core/lv_style.c ****  * @return index of next property in style->map
1191:lvgl/src/lv_core/lv_style.c ****  */
1192:lvgl/src/lv_core/lv_style.c **** static inline size_t get_next_prop_index(uint8_t prop_id, size_t idx)
1193:lvgl/src/lv_core/lv_style.c **** {
1194:lvgl/src/lv_core/lv_style.c ****     return idx + get_prop_size(prop_id);
 699              		.loc 1 1194 16 view .LVU206
 700 000c 1A44     		add	r2, r2, r3
 701              	.LVL68:
 702              	.L60:
 703              		.loc 1 1194 16 view .LVU207
 704              	.LBE146:
 705              	.LBE145:
 706              	.LBB152:
 707              	.LBI152:
1153:lvgl/src/lv_core/lv_style.c **** {
 708              		.loc 1 1153 23 is_stmt 1 view .LVU208
 709              	.LBB153:
1155:lvgl/src/lv_core/lv_style.c **** }
 710              		.loc 1 1155 5 view .LVU209
 711              	.LBB154:
 712              	.LBI154:
1138:lvgl/src/lv_core/lv_style.c **** {
 713              		.loc 1 1138 35 view .LVU210
 714              	.LBB155:
1140:lvgl/src/lv_core/lv_style.c ****     uint8_t * prop_p = (uint8_t *)&prop;
 715              		.loc 1 1140 5 view .LVU211
ARM GAS  D:\Temp\cceOI0TF.s 			page 42


1141:lvgl/src/lv_core/lv_style.c ****     prop_p[0] = style->map[idx];
 716              		.loc 1 1141 5 view .LVU212
1142:lvgl/src/lv_core/lv_style.c ****     prop_p[1] = style->map[idx + 1];
 717              		.loc 1 1142 5 view .LVU213
1142:lvgl/src/lv_core/lv_style.c ****     prop_p[1] = style->map[idx + 1];
 718              		.loc 1 1142 22 is_stmt 0 view .LVU214
 719 000e 0368     		ldr	r3, [r0]
1142:lvgl/src/lv_core/lv_style.c ****     prop_p[1] = style->map[idx + 1];
 720              		.loc 1 1142 27 view .LVU215
 721 0010 995C     		ldrb	r1, [r3, r2]	@ zero_extendqisi2
1142:lvgl/src/lv_core/lv_style.c ****     prop_p[1] = style->map[idx + 1];
 722              		.loc 1 1142 15 view .LVU216
 723 0012 8DF80610 		strb	r1, [sp, #6]
1143:lvgl/src/lv_core/lv_style.c ****     return prop;
 724              		.loc 1 1143 5 is_stmt 1 view .LVU217
1143:lvgl/src/lv_core/lv_style.c ****     return prop;
 725              		.loc 1 1143 27 is_stmt 0 view .LVU218
 726 0016 1344     		add	r3, r3, r2
 727 0018 5B78     		ldrb	r3, [r3, #1]	@ zero_extendqisi2
1143:lvgl/src/lv_core/lv_style.c ****     return prop;
 728              		.loc 1 1143 15 view .LVU219
 729 001a 8DF80730 		strb	r3, [sp, #7]
1144:lvgl/src/lv_core/lv_style.c **** }
 730              		.loc 1 1144 5 is_stmt 1 view .LVU220
 731              	.LVL69:
1144:lvgl/src/lv_core/lv_style.c **** }
 732              		.loc 1 1144 5 is_stmt 0 view .LVU221
 733              	.LBE155:
 734              	.LBE154:
1155:lvgl/src/lv_core/lv_style.c **** }
 735              		.loc 1 1155 39 view .LVU222
 736 001e CBB2     		uxtb	r3, r1
 737              	.LVL70:
1155:lvgl/src/lv_core/lv_style.c **** }
 738              		.loc 1 1155 39 view .LVU223
 739              	.LBE153:
 740              	.LBE152:
 343:lvgl/src/lv_core/lv_style.c ****         i = get_next_prop_index(prop_id, i);
 741              		.loc 1 343 10 view .LVU224
 742 0020 FF2B     		cmp	r3, #255
 743 0022 0DD0     		beq	.L71
 344:lvgl/src/lv_core/lv_style.c ****     }
 744              		.loc 1 344 9 is_stmt 1 view .LVU225
 745              	.LVL71:
 746              	.LBB156:
 747              	.LBI145:
1192:lvgl/src/lv_core/lv_style.c **** {
 748              		.loc 1 1192 22 view .LVU226
 749              	.LBB151:
 750              		.loc 1 1194 5 view .LVU227
 751              	.LBB150:
 752              	.LBI147:
1175:lvgl/src/lv_core/lv_style.c **** {
 753              		.loc 1 1175 22 view .LVU228
 754              	.LBB149:
1177:lvgl/src/lv_core/lv_style.c ****     size_t size = sizeof(lv_style_property_t);
 755              		.loc 1 1177 5 view .LVU229
ARM GAS  D:\Temp\cceOI0TF.s 			page 43


1177:lvgl/src/lv_core/lv_style.c ****     size_t size = sizeof(lv_style_property_t);
 756              		.loc 1 1177 13 is_stmt 0 view .LVU230
 757 0024 03F00F03 		and	r3, r3, #15
 758              	.LVL72:
1178:lvgl/src/lv_core/lv_style.c ****     if(prop_id < LV_STYLE_ID_COLOR) size += sizeof(lv_style_int_t);
 759              		.loc 1 1178 5 is_stmt 1 view .LVU231
1179:lvgl/src/lv_core/lv_style.c ****     else if(prop_id < LV_STYLE_ID_OPA) size += sizeof(lv_color_t);
 760              		.loc 1 1179 5 view .LVU232
1179:lvgl/src/lv_core/lv_style.c ****     else if(prop_id < LV_STYLE_ID_OPA) size += sizeof(lv_color_t);
 761              		.loc 1 1179 7 is_stmt 0 view .LVU233
 762 0028 082B     		cmp	r3, #8
 763 002a EED9     		bls	.L64
1180:lvgl/src/lv_core/lv_style.c ****     else if(prop_id < LV_STYLE_ID_PTR) size += sizeof(lv_opa_t);
 764              		.loc 1 1180 10 is_stmt 1 view .LVU234
1180:lvgl/src/lv_core/lv_style.c ****     else if(prop_id < LV_STYLE_ID_PTR) size += sizeof(lv_opa_t);
 765              		.loc 1 1180 12 is_stmt 0 view .LVU235
 766 002c 0B2B     		cmp	r3, #11
 767 002e 03D9     		bls	.L65
1181:lvgl/src/lv_core/lv_style.c ****     else size += sizeof(const void *);
 768              		.loc 1 1181 10 is_stmt 1 view .LVU236
1181:lvgl/src/lv_core/lv_style.c ****     else size += sizeof(const void *);
 769              		.loc 1 1181 12 is_stmt 0 view .LVU237
 770 0030 0D2B     		cmp	r3, #13
 771 0032 03D8     		bhi	.L66
1181:lvgl/src/lv_core/lv_style.c ****     else size += sizeof(const void *);
 772              		.loc 1 1181 45 view .LVU238
 773 0034 0323     		movs	r3, #3
 774              	.LVL73:
1181:lvgl/src/lv_core/lv_style.c ****     else size += sizeof(const void *);
 775              		.loc 1 1181 45 view .LVU239
 776 0036 E9E7     		b	.L61
 777              	.LVL74:
 778              	.L65:
1180:lvgl/src/lv_core/lv_style.c ****     else if(prop_id < LV_STYLE_ID_PTR) size += sizeof(lv_opa_t);
 779              		.loc 1 1180 45 view .LVU240
 780 0038 0423     		movs	r3, #4
 781              	.LVL75:
1180:lvgl/src/lv_core/lv_style.c ****     else if(prop_id < LV_STYLE_ID_PTR) size += sizeof(lv_opa_t);
 782              		.loc 1 1180 45 view .LVU241
 783 003a E7E7     		b	.L61
 784              	.LVL76:
 785              	.L66:
1182:lvgl/src/lv_core/lv_style.c ****     return size;
 786              		.loc 1 1182 15 view .LVU242
 787 003c 0623     		movs	r3, #6
 788              	.LVL77:
1182:lvgl/src/lv_core/lv_style.c ****     return size;
 789              		.loc 1 1182 15 view .LVU243
 790 003e E5E7     		b	.L61
 791              	.LVL78:
 792              	.L71:
1182:lvgl/src/lv_core/lv_style.c ****     return size;
 793              		.loc 1 1182 15 view .LVU244
 794              	.LBE149:
 795              	.LBE150:
 796              	.LBE151:
 797              	.LBE156:
ARM GAS  D:\Temp\cceOI0TF.s 			page 44


 347:lvgl/src/lv_core/lv_style.c **** }
 798              		.loc 1 347 5 is_stmt 1 view .LVU245
 347:lvgl/src/lv_core/lv_style.c **** }
 799              		.loc 1 347 14 is_stmt 0 view .LVU246
 800 0040 901C     		adds	r0, r2, #2
 801              	.LVL79:
 347:lvgl/src/lv_core/lv_style.c **** }
 802              		.loc 1 347 14 view .LVU247
 803 0042 80B2     		uxth	r0, r0
 348:lvgl/src/lv_core/lv_style.c **** 
 804              		.loc 1 348 1 view .LVU248
 805 0044 02B0     		add	sp, sp, #8
 806              	.LCFI8:
 807              		.cfi_def_cfa_offset 0
 808              	.LVL80:
 348:lvgl/src/lv_core/lv_style.c **** 
 809              		.loc 1 348 1 view .LVU249
 810              		@ sp needed
 811 0046 7047     		bx	lr
 812              	.LVL81:
 813              	.L63:
 339:lvgl/src/lv_core/lv_style.c **** 
 814              		.loc 1 339 35 view .LVU250
 815 0048 0020     		movs	r0, #0
 816              	.LVL82:
 348:lvgl/src/lv_core/lv_style.c **** 
 817              		.loc 1 348 1 view .LVU251
 818 004a 7047     		bx	lr
 819              		.cfi_endproc
 820              	.LFE467:
 822              		.section	.text.lv_style_copy,"ax",%progbits
 823              		.align	1
 824              		.global	lv_style_copy
 825              		.syntax unified
 826              		.thumb
 827              		.thumb_func
 828              		.fpu fpv4-sp-d16
 830              	lv_style_copy:
 831              	.LVL83:
 832              	.LFB459:
  80:lvgl/src/lv_core/lv_style.c ****     if(style_src == NULL) return;
 833              		.loc 1 80 1 is_stmt 1 view -0
 834              		.cfi_startproc
 835              		@ args = 0, pretend = 0, frame = 0
 836              		@ frame_needed = 0, uses_anonymous_args = 0
  81:lvgl/src/lv_core/lv_style.c **** 
 837              		.loc 1 81 5 view .LVU253
  81:lvgl/src/lv_core/lv_style.c **** 
 838              		.loc 1 81 7 is_stmt 0 view .LVU254
 839 0000 81B1     		cbz	r1, .L75
  80:lvgl/src/lv_core/lv_style.c ****     if(style_src == NULL) return;
 840              		.loc 1 80 1 view .LVU255
 841 0002 70B5     		push	{r4, r5, r6, lr}
 842              	.LCFI9:
 843              		.cfi_def_cfa_offset 16
 844              		.cfi_offset 4, -16
 845              		.cfi_offset 5, -12
ARM GAS  D:\Temp\cceOI0TF.s 			page 45


 846              		.cfi_offset 6, -8
 847              		.cfi_offset 14, -4
 848 0004 0C46     		mov	r4, r1
  83:lvgl/src/lv_core/lv_style.c ****     LV_ASSERT_STYLE(style_src);
 849              		.loc 1 83 32 is_stmt 1 view .LVU256
  84:lvgl/src/lv_core/lv_style.c **** 
 850              		.loc 1 84 31 view .LVU257
  86:lvgl/src/lv_core/lv_style.c **** 
 851              		.loc 1 86 5 view .LVU258
  86:lvgl/src/lv_core/lv_style.c **** 
 852              		.loc 1 86 17 is_stmt 0 view .LVU259
 853 0006 0A68     		ldr	r2, [r1]
  86:lvgl/src/lv_core/lv_style.c **** 
 854              		.loc 1 86 7 view .LVU260
 855 0008 5AB1     		cbz	r2, .L72
 856 000a 0546     		mov	r5, r0
  88:lvgl/src/lv_core/lv_style.c ****     style_dest->map = lv_mem_alloc(size);
 857              		.loc 1 88 5 is_stmt 1 view .LVU261
  88:lvgl/src/lv_core/lv_style.c ****     style_dest->map = lv_mem_alloc(size);
 858              		.loc 1 88 21 is_stmt 0 view .LVU262
 859 000c 0846     		mov	r0, r1
 860              	.LVL84:
  88:lvgl/src/lv_core/lv_style.c ****     style_dest->map = lv_mem_alloc(size);
 861              		.loc 1 88 21 view .LVU263
 862 000e FFF7FEFF 		bl	_lv_style_get_mem_size
 863              	.LVL85:
  88:lvgl/src/lv_core/lv_style.c ****     style_dest->map = lv_mem_alloc(size);
 864              		.loc 1 88 21 view .LVU264
 865 0012 0646     		mov	r6, r0
 866              	.LVL86:
  89:lvgl/src/lv_core/lv_style.c ****     _lv_memcpy(style_dest->map, style_src->map, size);
 867              		.loc 1 89 5 is_stmt 1 view .LVU265
  89:lvgl/src/lv_core/lv_style.c ****     _lv_memcpy(style_dest->map, style_src->map, size);
 868              		.loc 1 89 23 is_stmt 0 view .LVU266
 869 0014 FFF7FEFF 		bl	lv_mem_alloc
 870              	.LVL87:
  89:lvgl/src/lv_core/lv_style.c ****     _lv_memcpy(style_dest->map, style_src->map, size);
 871              		.loc 1 89 21 view .LVU267
 872 0018 2860     		str	r0, [r5]
  90:lvgl/src/lv_core/lv_style.c **** }
 873              		.loc 1 90 5 is_stmt 1 view .LVU268
 874 001a 3246     		mov	r2, r6
 875 001c 2168     		ldr	r1, [r4]
 876 001e FFF7FEFF 		bl	_lv_memcpy
 877              	.LVL88:
 878              	.L72:
  91:lvgl/src/lv_core/lv_style.c **** 
 879              		.loc 1 91 1 is_stmt 0 view .LVU269
 880 0022 70BD     		pop	{r4, r5, r6, pc}
 881              	.LVL89:
 882              	.L75:
 883              	.LCFI10:
 884              		.cfi_def_cfa_offset 0
 885              		.cfi_restore 4
 886              		.cfi_restore 5
 887              		.cfi_restore 6
 888              		.cfi_restore 14
ARM GAS  D:\Temp\cceOI0TF.s 			page 46


  91:lvgl/src/lv_core/lv_style.c **** 
 889              		.loc 1 91 1 view .LVU270
 890 0024 7047     		bx	lr
 891              		.cfi_endproc
 892              	.LFE459:
 894              		.section	.text.lv_style_remove_prop,"ax",%progbits
 895              		.align	1
 896              		.global	lv_style_remove_prop
 897              		.syntax unified
 898              		.thumb
 899              		.thumb_func
 900              		.fpu fpv4-sp-d16
 902              	lv_style_remove_prop:
 903              	.LVL90:
 904              	.LFB460:
 101:lvgl/src/lv_core/lv_style.c ****     if(style == NULL) return false;
 905              		.loc 1 101 1 is_stmt 1 view -0
 906              		.cfi_startproc
 907              		@ args = 0, pretend = 0, frame = 8
 908              		@ frame_needed = 0, uses_anonymous_args = 0
 102:lvgl/src/lv_core/lv_style.c ****     LV_ASSERT_STYLE(style);
 909              		.loc 1 102 5 view .LVU272
 102:lvgl/src/lv_core/lv_style.c ****     LV_ASSERT_STYLE(style);
 910              		.loc 1 102 7 is_stmt 0 view .LVU273
 911 0000 0028     		cmp	r0, #0
 912 0002 00F08B80 		beq	.L89
 101:lvgl/src/lv_core/lv_style.c ****     if(style == NULL) return false;
 913              		.loc 1 101 1 view .LVU274
 914 0006 2DE9F041 		push	{r4, r5, r6, r7, r8, lr}
 915              	.LCFI11:
 916              		.cfi_def_cfa_offset 24
 917              		.cfi_offset 4, -24
 918              		.cfi_offset 5, -20
 919              		.cfi_offset 6, -16
 920              		.cfi_offset 7, -12
 921              		.cfi_offset 8, -8
 922              		.cfi_offset 14, -4
 923 000a 82B0     		sub	sp, sp, #8
 924              	.LCFI12:
 925              		.cfi_def_cfa_offset 32
 926 000c 0746     		mov	r7, r0
 103:lvgl/src/lv_core/lv_style.c **** 
 927              		.loc 1 103 27 is_stmt 1 view .LVU275
 105:lvgl/src/lv_core/lv_style.c ****     /*The property exists but not sure it's state is the same*/
 928              		.loc 1 105 5 view .LVU276
 929              	.LVL91:
 930              	.LBB182:
 931              	.LBI182:
1053:lvgl/src/lv_core/lv_style.c **** {
 932              		.loc 1 1053 45 view .LVU277
 933              	.LBB183:
1055:lvgl/src/lv_core/lv_style.c **** 
 934              		.loc 1 1055 27 view .LVU278
1057:lvgl/src/lv_core/lv_style.c **** 
 935              		.loc 1 1057 5 view .LVU279
1057:lvgl/src/lv_core/lv_style.c **** 
 936              		.loc 1 1057 13 is_stmt 0 view .LVU280
ARM GAS  D:\Temp\cceOI0TF.s 			page 47


 937 000e 0368     		ldr	r3, [r0]
1057:lvgl/src/lv_core/lv_style.c **** 
 938              		.loc 1 1057 7 view .LVU281
 939 0010 002B     		cmp	r3, #0
 940 0012 5DD0     		beq	.L90
1059:lvgl/src/lv_core/lv_style.c ****     lv_style_attr_t attr;
 941              		.loc 1 1059 5 is_stmt 1 view .LVU282
1059:lvgl/src/lv_core/lv_style.c ****     lv_style_attr_t attr;
 942              		.loc 1 1059 13 is_stmt 0 view .LVU283
 943 0014 5FFA81FE 		uxtb	lr, r1
 944              	.LVL92:
1060:lvgl/src/lv_core/lv_style.c ****     attr = (prop >> 8) & 0xFF;
 945              		.loc 1 1060 5 is_stmt 1 view .LVU284
1061:lvgl/src/lv_core/lv_style.c **** 
 946              		.loc 1 1061 5 view .LVU285
1061:lvgl/src/lv_core/lv_style.c **** 
 947              		.loc 1 1061 10 is_stmt 0 view .LVU286
 948 0018 080A     		lsrs	r0, r1, #8
 949              	.LVL93:
1063:lvgl/src/lv_core/lv_style.c ****     int16_t id_guess = -1;
 950              		.loc 1 1063 5 is_stmt 1 view .LVU287
1064:lvgl/src/lv_core/lv_style.c **** 
 951              		.loc 1 1064 5 view .LVU288
1066:lvgl/src/lv_core/lv_style.c **** 
 952              		.loc 1 1066 5 view .LVU289
1068:lvgl/src/lv_core/lv_style.c ****     while((prop_id = get_style_prop_id(style, i)) != _LV_STYLE_CLOSING_PROP) {
 953              		.loc 1 1068 5 view .LVU290
1069:lvgl/src/lv_core/lv_style.c ****         if(prop_id == id_to_find) {
 954              		.loc 1 1069 5 view .LVU291
1066:lvgl/src/lv_core/lv_style.c **** 
 955              		.loc 1 1066 12 is_stmt 0 view .LVU292
 956 001a 0025     		movs	r5, #0
1064:lvgl/src/lv_core/lv_style.c **** 
 957              		.loc 1 1064 13 view .LVU293
 958 001c 4FF0FF36 		mov	r6, #-1
1063:lvgl/src/lv_core/lv_style.c ****     int16_t id_guess = -1;
 959              		.loc 1 1063 13 view .LVU294
 960 0020 B446     		mov	ip, r6
 961 0022 21E0     		b	.L81
 962              	.LVL94:
 963              	.L105:
 964              	.LBB184:
1071:lvgl/src/lv_core/lv_style.c ****             attr_i = get_style_prop_attr(style, i);
 965              		.loc 1 1071 13 is_stmt 1 view .LVU295
1072:lvgl/src/lv_core/lv_style.c **** 
 966              		.loc 1 1072 13 view .LVU296
 967              	.LBB185:
 968              	.LBI185:
1164:lvgl/src/lv_core/lv_style.c **** {
 969              		.loc 1 1164 23 view .LVU297
 970              	.LBB186:
1166:lvgl/src/lv_core/lv_style.c **** }
 971              		.loc 1 1166 5 view .LVU298
 972              	.LBB187:
 973              	.LBI187:
1138:lvgl/src/lv_core/lv_style.c **** {
 974              		.loc 1 1138 35 view .LVU299
ARM GAS  D:\Temp\cceOI0TF.s 			page 48


 975              	.LBB188:
1140:lvgl/src/lv_core/lv_style.c ****     uint8_t * prop_p = (uint8_t *)&prop;
 976              		.loc 1 1140 5 view .LVU300
1141:lvgl/src/lv_core/lv_style.c ****     prop_p[0] = style->map[idx];
 977              		.loc 1 1141 5 view .LVU301
1142:lvgl/src/lv_core/lv_style.c ****     prop_p[1] = style->map[idx + 1];
 978              		.loc 1 1142 5 view .LVU302
1142:lvgl/src/lv_core/lv_style.c ****     prop_p[1] = style->map[idx + 1];
 979              		.loc 1 1142 22 is_stmt 0 view .LVU303
 980 0024 3C68     		ldr	r4, [r7]
1142:lvgl/src/lv_core/lv_style.c ****     prop_p[1] = style->map[idx + 1];
 981              		.loc 1 1142 27 view .LVU304
 982 0026 14F80580 		ldrb	r8, [r4, r5]	@ zero_extendqisi2
1142:lvgl/src/lv_core/lv_style.c ****     prop_p[1] = style->map[idx + 1];
 983              		.loc 1 1142 15 view .LVU305
 984 002a 8DF80680 		strb	r8, [sp, #6]
1143:lvgl/src/lv_core/lv_style.c ****     return prop;
 985              		.loc 1 1143 5 is_stmt 1 view .LVU306
1143:lvgl/src/lv_core/lv_style.c ****     return prop;
 986              		.loc 1 1143 27 is_stmt 0 view .LVU307
 987 002e A25C     		ldrb	r2, [r4, r2]	@ zero_extendqisi2
1143:lvgl/src/lv_core/lv_style.c ****     return prop;
 988              		.loc 1 1143 15 view .LVU308
 989 0030 8DF80720 		strb	r2, [sp, #7]
1144:lvgl/src/lv_core/lv_style.c **** }
 990              		.loc 1 1144 5 is_stmt 1 view .LVU309
1144:lvgl/src/lv_core/lv_style.c **** }
 991              		.loc 1 1144 12 is_stmt 0 view .LVU310
 992 0034 BDF80640 		ldrh	r4, [sp, #6]
 993              	.LVL95:
1144:lvgl/src/lv_core/lv_style.c **** }
 994              		.loc 1 1144 12 view .LVU311
 995              	.LBE188:
 996              	.LBE187:
1166:lvgl/src/lv_core/lv_style.c **** }
 997              		.loc 1 1166 47 view .LVU312
 998 0038 240A     		lsrs	r4, r4, #8
 999 003a E2B2     		uxtb	r2, r4
 1000              	.LVL96:
1166:lvgl/src/lv_core/lv_style.c **** }
 1001              		.loc 1 1166 47 view .LVU313
 1002              	.LBE186:
 1003              	.LBE185:
1075:lvgl/src/lv_core/lv_style.c ****                 return i;
 1004              		.loc 1 1075 13 is_stmt 1 view .LVU314
1075:lvgl/src/lv_core/lv_style.c ****                 return i;
 1005              		.loc 1 1075 48 is_stmt 0 view .LVU315
 1006 003c 80EA0208 		eor	r8, r0, r2
1075:lvgl/src/lv_core/lv_style.c ****                 return i;
 1007              		.loc 1 1075 15 view .LVU316
 1008 0040 18F07F0F 		tst	r8, #127
 1009 0044 0CD0     		beq	.L103
1080:lvgl/src/lv_core/lv_style.c ****                 /* Use this property if it describes better the requested state than the current ca
 1010              		.loc 1 1080 18 is_stmt 1 view .LVU317
1080:lvgl/src/lv_core/lv_style.c ****                 /* Use this property if it describes better the requested state than the current ca
 1011              		.loc 1 1080 22 is_stmt 0 view .LVU318
 1012 0046 02F07F02 		and	r2, r2, #127
ARM GAS  D:\Temp\cceOI0TF.s 			page 49


 1013              	.LVL97:
1080:lvgl/src/lv_core/lv_style.c ****                 /* Use this property if it describes better the requested state than the current ca
 1014              		.loc 1 1080 58 view .LVU319
 1015 004a 00F07F08 		and	r8, r0, #127
1080:lvgl/src/lv_core/lv_style.c ****                 /* Use this property if it describes better the requested state than the current ca
 1016              		.loc 1 1080 20 view .LVU320
 1017 004e 32EA0808 		bics	r8, r2, r8
 1018 0052 17D1     		bne	.L82
1083:lvgl/src/lv_core/lv_style.c ****                     weight = LV_STYLE_ATTR_GET_STATE(attr_i);
 1019              		.loc 1 1083 17 is_stmt 1 view .LVU321
1083:lvgl/src/lv_core/lv_style.c ****                     weight = LV_STYLE_ATTR_GET_STATE(attr_i);
 1020              		.loc 1 1083 19 is_stmt 0 view .LVU322
 1021 0054 6245     		cmp	r2, ip
 1022 0056 15DD     		ble	.L82
1084:lvgl/src/lv_core/lv_style.c ****                     id_guess = i;
 1023              		.loc 1 1084 21 is_stmt 1 view .LVU323
1084:lvgl/src/lv_core/lv_style.c ****                     id_guess = i;
 1024              		.loc 1 1084 28 is_stmt 0 view .LVU324
 1025 0058 04F07F0C 		and	ip, r4, #127
 1026              	.LVL98:
1085:lvgl/src/lv_core/lv_style.c ****                 }
 1027              		.loc 1 1085 21 is_stmt 1 view .LVU325
1085:lvgl/src/lv_core/lv_style.c ****                 }
 1028              		.loc 1 1085 30 is_stmt 0 view .LVU326
 1029 005c 2EB2     		sxth	r6, r5
 1030              	.LVL99:
1085:lvgl/src/lv_core/lv_style.c ****                 }
 1031              		.loc 1 1085 30 view .LVU327
 1032 005e 11E0     		b	.L82
 1033              	.LVL100:
 1034              	.L103:
1076:lvgl/src/lv_core/lv_style.c ****             }
 1035              		.loc 1 1076 17 is_stmt 1 view .LVU328
1076:lvgl/src/lv_core/lv_style.c ****             }
 1036              		.loc 1 1076 24 is_stmt 0 view .LVU329
 1037 0060 2B46     		mov	r3, r5
 1038              	.LVL101:
1076:lvgl/src/lv_core/lv_style.c ****             }
 1039              		.loc 1 1076 24 view .LVU330
 1040 0062 1EE0     		b	.L80
 1041              	.LVL102:
 1042              	.L91:
1076:lvgl/src/lv_core/lv_style.c ****             }
 1043              		.loc 1 1076 24 view .LVU331
 1044              	.LBE184:
 1045              	.LBB189:
 1046              	.LBB190:
 1047              	.LBB191:
 1048              	.LBB192:
1179:lvgl/src/lv_core/lv_style.c ****     else if(prop_id < LV_STYLE_ID_OPA) size += sizeof(lv_color_t);
 1049              		.loc 1 1179 42 view .LVU332
 1050 0064 0422     		movs	r2, #4
 1051              	.LVL103:
 1052              	.L84:
1183:lvgl/src/lv_core/lv_style.c **** }
 1053              		.loc 1 1183 5 is_stmt 1 view .LVU333
1183:lvgl/src/lv_core/lv_style.c **** }
ARM GAS  D:\Temp\cceOI0TF.s 			page 50


 1054              		.loc 1 1183 5 is_stmt 0 view .LVU334
 1055              	.LBE192:
 1056              	.LBE191:
 1057              		.loc 1 1194 16 view .LVU335
 1058 0066 1544     		add	r5, r5, r2
 1059              	.LVL104:
 1060              	.L81:
 1061              		.loc 1 1194 16 view .LVU336
 1062              	.LBE190:
 1063              	.LBE189:
 1064              	.LBB196:
 1065              	.LBI196:
1153:lvgl/src/lv_core/lv_style.c **** {
 1066              		.loc 1 1153 23 is_stmt 1 view .LVU337
 1067              	.LBB197:
1155:lvgl/src/lv_core/lv_style.c **** }
 1068              		.loc 1 1155 5 view .LVU338
 1069              	.LBB198:
 1070              	.LBI198:
1138:lvgl/src/lv_core/lv_style.c **** {
 1071              		.loc 1 1138 35 view .LVU339
 1072              	.LBB199:
1140:lvgl/src/lv_core/lv_style.c ****     uint8_t * prop_p = (uint8_t *)&prop;
 1073              		.loc 1 1140 5 view .LVU340
1141:lvgl/src/lv_core/lv_style.c ****     prop_p[0] = style->map[idx];
 1074              		.loc 1 1141 5 view .LVU341
1142:lvgl/src/lv_core/lv_style.c ****     prop_p[1] = style->map[idx + 1];
 1075              		.loc 1 1142 5 view .LVU342
1142:lvgl/src/lv_core/lv_style.c ****     prop_p[1] = style->map[idx + 1];
 1076              		.loc 1 1142 22 is_stmt 0 view .LVU343
 1077 0068 3B68     		ldr	r3, [r7]
1142:lvgl/src/lv_core/lv_style.c ****     prop_p[1] = style->map[idx + 1];
 1078              		.loc 1 1142 27 view .LVU344
 1079 006a 5A5D     		ldrb	r2, [r3, r5]	@ zero_extendqisi2
1142:lvgl/src/lv_core/lv_style.c ****     prop_p[1] = style->map[idx + 1];
 1080              		.loc 1 1142 15 view .LVU345
 1081 006c 8DF80620 		strb	r2, [sp, #6]
1143:lvgl/src/lv_core/lv_style.c ****     return prop;
 1082              		.loc 1 1143 5 is_stmt 1 view .LVU346
1143:lvgl/src/lv_core/lv_style.c ****     return prop;
 1083              		.loc 1 1143 27 is_stmt 0 view .LVU347
 1084 0070 6A1C     		adds	r2, r5, #1
 1085 0072 9B5C     		ldrb	r3, [r3, r2]	@ zero_extendqisi2
1143:lvgl/src/lv_core/lv_style.c ****     return prop;
 1086              		.loc 1 1143 15 view .LVU348
 1087 0074 8DF80730 		strb	r3, [sp, #7]
1144:lvgl/src/lv_core/lv_style.c **** }
 1088              		.loc 1 1144 5 is_stmt 1 view .LVU349
 1089              	.LVL105:
1144:lvgl/src/lv_core/lv_style.c **** }
 1090              		.loc 1 1144 5 is_stmt 0 view .LVU350
 1091              	.LBE199:
 1092              	.LBE198:
1155:lvgl/src/lv_core/lv_style.c **** }
 1093              		.loc 1 1155 39 view .LVU351
 1094 0078 9DF80630 		ldrb	r3, [sp, #6]	@ zero_extendqisi2
 1095              	.LVL106:
ARM GAS  D:\Temp\cceOI0TF.s 			page 51


1155:lvgl/src/lv_core/lv_style.c **** }
 1096              		.loc 1 1155 39 view .LVU352
 1097              	.LBE197:
 1098              	.LBE196:
1069:lvgl/src/lv_core/lv_style.c ****         if(prop_id == id_to_find) {
 1099              		.loc 1 1069 10 view .LVU353
 1100 007c FF2B     		cmp	r3, #255
 1101 007e 0FD0     		beq	.L104
1070:lvgl/src/lv_core/lv_style.c ****             lv_style_attr_t attr_i;
 1102              		.loc 1 1070 9 is_stmt 1 view .LVU354
1070:lvgl/src/lv_core/lv_style.c ****             lv_style_attr_t attr_i;
 1103              		.loc 1 1070 11 is_stmt 0 view .LVU355
 1104 0080 9E45     		cmp	lr, r3
 1105 0082 CFD0     		beq	.L105
 1106              	.L82:
1090:lvgl/src/lv_core/lv_style.c ****     }
 1107              		.loc 1 1090 9 is_stmt 1 view .LVU356
 1108              	.LVL107:
 1109              	.LBB200:
 1110              	.LBI189:
1192:lvgl/src/lv_core/lv_style.c **** {
 1111              		.loc 1 1192 22 view .LVU357
 1112              	.LBB195:
 1113              		.loc 1 1194 5 view .LVU358
 1114              	.LBB194:
 1115              	.LBI191:
1175:lvgl/src/lv_core/lv_style.c **** {
 1116              		.loc 1 1175 22 view .LVU359
 1117              	.LBB193:
1177:lvgl/src/lv_core/lv_style.c ****     size_t size = sizeof(lv_style_property_t);
 1118              		.loc 1 1177 5 view .LVU360
1177:lvgl/src/lv_core/lv_style.c ****     size_t size = sizeof(lv_style_property_t);
 1119              		.loc 1 1177 13 is_stmt 0 view .LVU361
 1120 0084 03F00F02 		and	r2, r3, #15
 1121              	.LVL108:
1178:lvgl/src/lv_core/lv_style.c ****     if(prop_id < LV_STYLE_ID_COLOR) size += sizeof(lv_style_int_t);
 1122              		.loc 1 1178 5 is_stmt 1 view .LVU362
1179:lvgl/src/lv_core/lv_style.c ****     else if(prop_id < LV_STYLE_ID_OPA) size += sizeof(lv_color_t);
 1123              		.loc 1 1179 5 view .LVU363
1179:lvgl/src/lv_core/lv_style.c ****     else if(prop_id < LV_STYLE_ID_OPA) size += sizeof(lv_color_t);
 1124              		.loc 1 1179 7 is_stmt 0 view .LVU364
 1125 0088 082A     		cmp	r2, #8
 1126 008a EBD9     		bls	.L91
1180:lvgl/src/lv_core/lv_style.c ****     else if(prop_id < LV_STYLE_ID_PTR) size += sizeof(lv_opa_t);
 1127              		.loc 1 1180 10 is_stmt 1 view .LVU365
1180:lvgl/src/lv_core/lv_style.c ****     else if(prop_id < LV_STYLE_ID_PTR) size += sizeof(lv_opa_t);
 1128              		.loc 1 1180 12 is_stmt 0 view .LVU366
 1129 008c 0B2A     		cmp	r2, #11
 1130 008e 03D9     		bls	.L92
1181:lvgl/src/lv_core/lv_style.c ****     else size += sizeof(const void *);
 1131              		.loc 1 1181 10 is_stmt 1 view .LVU367
1181:lvgl/src/lv_core/lv_style.c ****     else size += sizeof(const void *);
 1132              		.loc 1 1181 12 is_stmt 0 view .LVU368
 1133 0090 0D2A     		cmp	r2, #13
 1134 0092 03D8     		bhi	.L93
1181:lvgl/src/lv_core/lv_style.c ****     else size += sizeof(const void *);
 1135              		.loc 1 1181 45 view .LVU369
ARM GAS  D:\Temp\cceOI0TF.s 			page 52


 1136 0094 0322     		movs	r2, #3
 1137              	.LVL109:
1181:lvgl/src/lv_core/lv_style.c ****     else size += sizeof(const void *);
 1138              		.loc 1 1181 45 view .LVU370
 1139 0096 E6E7     		b	.L84
 1140              	.LVL110:
 1141              	.L92:
1180:lvgl/src/lv_core/lv_style.c ****     else if(prop_id < LV_STYLE_ID_PTR) size += sizeof(lv_opa_t);
 1142              		.loc 1 1180 45 view .LVU371
 1143 0098 0422     		movs	r2, #4
 1144              	.LVL111:
1180:lvgl/src/lv_core/lv_style.c ****     else if(prop_id < LV_STYLE_ID_PTR) size += sizeof(lv_opa_t);
 1145              		.loc 1 1180 45 view .LVU372
 1146 009a E4E7     		b	.L84
 1147              	.LVL112:
 1148              	.L93:
1182:lvgl/src/lv_core/lv_style.c ****     return size;
 1149              		.loc 1 1182 15 view .LVU373
 1150 009c 0622     		movs	r2, #6
 1151              	.LVL113:
1182:lvgl/src/lv_core/lv_style.c ****     return size;
 1152              		.loc 1 1182 15 view .LVU374
 1153 009e E2E7     		b	.L84
 1154              	.LVL114:
 1155              	.L104:
1182:lvgl/src/lv_core/lv_style.c ****     return size;
 1156              		.loc 1 1182 15 view .LVU375
 1157              	.LBE193:
 1158              	.LBE194:
 1159              	.LBE195:
 1160              	.LBE200:
1093:lvgl/src/lv_core/lv_style.c **** }
 1161              		.loc 1 1093 5 is_stmt 1 view .LVU376
1093:lvgl/src/lv_core/lv_style.c **** }
 1162              		.loc 1 1093 12 is_stmt 0 view .LVU377
 1163 00a0 3346     		mov	r3, r6
 1164              	.LVL115:
 1165              	.L80:
1093:lvgl/src/lv_core/lv_style.c **** }
 1166              		.loc 1 1093 12 view .LVU378
 1167              	.LBE183:
 1168              	.LBE182:
 107:lvgl/src/lv_core/lv_style.c ****         lv_style_attr_t attr_found;
 1169              		.loc 1 107 5 is_stmt 1 view .LVU379
 107:lvgl/src/lv_core/lv_style.c ****         lv_style_attr_t attr_found;
 1170              		.loc 1 107 7 is_stmt 0 view .LVU380
 1171 00a2 002B     		cmp	r3, #0
 1172 00a4 3CDB     		blt	.L94
 1173              	.LBB202:
 108:lvgl/src/lv_core/lv_style.c ****         lv_style_attr_t attr_goal;
 1174              		.loc 1 108 9 is_stmt 1 view .LVU381
 109:lvgl/src/lv_core/lv_style.c **** 
 1175              		.loc 1 109 9 view .LVU382
 111:lvgl/src/lv_core/lv_style.c ****         attr_goal = (prop >> 8) & 0xFFU;
 1176              		.loc 1 111 9 view .LVU383
 111:lvgl/src/lv_core/lv_style.c ****         attr_goal = (prop >> 8) & 0xFFU;
 1177              		.loc 1 111 22 is_stmt 0 view .LVU384
ARM GAS  D:\Temp\cceOI0TF.s 			page 53


 1178 00a6 1C46     		mov	r4, r3
 1179              	.LVL116:
 1180              	.LBB203:
 1181              	.LBI203:
1164:lvgl/src/lv_core/lv_style.c **** {
 1182              		.loc 1 1164 23 is_stmt 1 view .LVU385
 1183              	.LBB204:
1166:lvgl/src/lv_core/lv_style.c **** }
 1184              		.loc 1 1166 5 view .LVU386
 1185              	.LBB205:
 1186              	.LBI205:
1138:lvgl/src/lv_core/lv_style.c **** {
 1187              		.loc 1 1138 35 view .LVU387
 1188              	.LBB206:
1140:lvgl/src/lv_core/lv_style.c ****     uint8_t * prop_p = (uint8_t *)&prop;
 1189              		.loc 1 1140 5 view .LVU388
1141:lvgl/src/lv_core/lv_style.c ****     prop_p[0] = style->map[idx];
 1190              		.loc 1 1141 5 view .LVU389
1142:lvgl/src/lv_core/lv_style.c ****     prop_p[1] = style->map[idx + 1];
 1191              		.loc 1 1142 5 view .LVU390
1142:lvgl/src/lv_core/lv_style.c ****     prop_p[1] = style->map[idx + 1];
 1192              		.loc 1 1142 22 is_stmt 0 view .LVU391
 1193 00a8 3A68     		ldr	r2, [r7]
1142:lvgl/src/lv_core/lv_style.c ****     prop_p[1] = style->map[idx + 1];
 1194              		.loc 1 1142 27 view .LVU392
 1195 00aa D05C     		ldrb	r0, [r2, r3]	@ zero_extendqisi2
1142:lvgl/src/lv_core/lv_style.c ****     prop_p[1] = style->map[idx + 1];
 1196              		.loc 1 1142 15 view .LVU393
 1197 00ac 8DF80600 		strb	r0, [sp, #6]
1143:lvgl/src/lv_core/lv_style.c ****     return prop;
 1198              		.loc 1 1143 5 is_stmt 1 view .LVU394
1143:lvgl/src/lv_core/lv_style.c ****     return prop;
 1199              		.loc 1 1143 27 is_stmt 0 view .LVU395
 1200 00b0 1344     		add	r3, r3, r2
 1201              	.LVL117:
1143:lvgl/src/lv_core/lv_style.c ****     return prop;
 1202              		.loc 1 1143 27 view .LVU396
 1203 00b2 5B78     		ldrb	r3, [r3, #1]	@ zero_extendqisi2
1143:lvgl/src/lv_core/lv_style.c ****     return prop;
 1204              		.loc 1 1143 15 view .LVU397
 1205 00b4 8DF80730 		strb	r3, [sp, #7]
1144:lvgl/src/lv_core/lv_style.c **** }
 1206              		.loc 1 1144 5 is_stmt 1 view .LVU398
1144:lvgl/src/lv_core/lv_style.c **** }
 1207              		.loc 1 1144 12 is_stmt 0 view .LVU399
 1208 00b8 BDF80620 		ldrh	r2, [sp, #6]
 1209              	.LVL118:
1144:lvgl/src/lv_core/lv_style.c **** }
 1210              		.loc 1 1144 12 view .LVU400
 1211              	.LBE206:
 1212              	.LBE205:
 1213              	.LBE204:
 1214              	.LBE203:
 112:lvgl/src/lv_core/lv_style.c **** 
 1215              		.loc 1 112 9 is_stmt 1 view .LVU401
 112:lvgl/src/lv_core/lv_style.c **** 
 1216              		.loc 1 112 19 is_stmt 0 view .LVU402
ARM GAS  D:\Temp\cceOI0TF.s 			page 54


 1217 00bc 0B0A     		lsrs	r3, r1, #8
 1218              	.LVL119:
 114:lvgl/src/lv_core/lv_style.c ****             uint32_t map_size = _lv_style_get_mem_size(style);
 1219              		.loc 1 114 9 is_stmt 1 view .LVU403
 114:lvgl/src/lv_core/lv_style.c ****             uint32_t map_size = _lv_style_get_mem_size(style);
 1220              		.loc 1 114 48 is_stmt 0 view .LVU404
 1221 00be 83EA1223 		eor	r3, r3, r2, lsr #8
 1222              	.LVL120:
 114:lvgl/src/lv_core/lv_style.c ****             uint32_t map_size = _lv_style_get_mem_size(style);
 1223              		.loc 1 114 11 view .LVU405
 1224 00c2 13F07F0F 		tst	r3, #127
 1225 00c6 06D0     		beq	.L106
 1226              	.LBE202:
 130:lvgl/src/lv_core/lv_style.c **** }
 1227              		.loc 1 130 12 view .LVU406
 1228 00c8 0020     		movs	r0, #0
 1229              	.LVL121:
 1230              	.L79:
 131:lvgl/src/lv_core/lv_style.c **** 
 1231              		.loc 1 131 1 view .LVU407
 1232 00ca 02B0     		add	sp, sp, #8
 1233              	.LCFI13:
 1234              		.cfi_remember_state
 1235              		.cfi_def_cfa_offset 24
 1236              		@ sp needed
 1237 00cc BDE8F081 		pop	{r4, r5, r6, r7, r8, pc}
 1238              	.LVL122:
 1239              	.L90:
 1240              	.LCFI14:
 1241              		.cfi_restore_state
 1242              	.LBB214:
 1243              	.LBB201:
1057:lvgl/src/lv_core/lv_style.c **** 
 1244              		.loc 1 1057 35 view .LVU408
 1245 00d0 4FF0FF33 		mov	r3, #-1
 1246 00d4 E5E7     		b	.L80
 1247              	.LVL123:
 1248              	.L106:
1057:lvgl/src/lv_core/lv_style.c **** 
 1249              		.loc 1 1057 35 view .LVU409
 1250 00d6 0D46     		mov	r5, r1
 1251              	.LBE201:
 1252              	.LBE214:
 1253              	.LBB215:
 1254              	.LBB207:
 115:lvgl/src/lv_core/lv_style.c ****             uint8_t prop_size = get_prop_size(prop);
 1255              		.loc 1 115 13 is_stmt 1 view .LVU410
 115:lvgl/src/lv_core/lv_style.c ****             uint8_t prop_size = get_prop_size(prop);
 1256              		.loc 1 115 33 is_stmt 0 view .LVU411
 1257 00d8 3846     		mov	r0, r7
 1258 00da FFF7FEFF 		bl	_lv_style_get_mem_size
 1259              	.LVL124:
 116:lvgl/src/lv_core/lv_style.c **** 
 1260              		.loc 1 116 13 is_stmt 1 view .LVU412
 1261              	.LBB208:
 1262              	.LBI208:
1175:lvgl/src/lv_core/lv_style.c **** {
ARM GAS  D:\Temp\cceOI0TF.s 			page 55


 1263              		.loc 1 1175 22 view .LVU413
 1264              	.LBB209:
1177:lvgl/src/lv_core/lv_style.c ****     size_t size = sizeof(lv_style_property_t);
 1265              		.loc 1 1177 5 view .LVU414
1177:lvgl/src/lv_core/lv_style.c ****     size_t size = sizeof(lv_style_property_t);
 1266              		.loc 1 1177 13 is_stmt 0 view .LVU415
 1267 00de 05F00F01 		and	r1, r5, #15
 1268              	.LVL125:
1178:lvgl/src/lv_core/lv_style.c ****     if(prop_id < LV_STYLE_ID_COLOR) size += sizeof(lv_style_int_t);
 1269              		.loc 1 1178 5 is_stmt 1 view .LVU416
1179:lvgl/src/lv_core/lv_style.c ****     else if(prop_id < LV_STYLE_ID_OPA) size += sizeof(lv_color_t);
 1270              		.loc 1 1179 5 view .LVU417
1179:lvgl/src/lv_core/lv_style.c ****     else if(prop_id < LV_STYLE_ID_OPA) size += sizeof(lv_color_t);
 1271              		.loc 1 1179 7 is_stmt 0 view .LVU418
 1272 00e2 0829     		cmp	r1, #8
 1273 00e4 05D9     		bls	.L96
1180:lvgl/src/lv_core/lv_style.c ****     else if(prop_id < LV_STYLE_ID_PTR) size += sizeof(lv_opa_t);
 1274              		.loc 1 1180 10 is_stmt 1 view .LVU419
1180:lvgl/src/lv_core/lv_style.c ****     else if(prop_id < LV_STYLE_ID_PTR) size += sizeof(lv_opa_t);
 1275              		.loc 1 1180 12 is_stmt 0 view .LVU420
 1276 00e6 0B29     		cmp	r1, #11
 1277 00e8 0ED9     		bls	.L97
1181:lvgl/src/lv_core/lv_style.c ****     else size += sizeof(const void *);
 1278              		.loc 1 1181 10 is_stmt 1 view .LVU421
1181:lvgl/src/lv_core/lv_style.c ****     else size += sizeof(const void *);
 1279              		.loc 1 1181 12 is_stmt 0 view .LVU422
 1280 00ea 0D29     		cmp	r1, #13
 1281 00ec 0ED8     		bhi	.L98
1181:lvgl/src/lv_core/lv_style.c ****     else size += sizeof(const void *);
 1282              		.loc 1 1181 45 view .LVU423
 1283 00ee 0325     		movs	r5, #3
 1284              	.LVL126:
1181:lvgl/src/lv_core/lv_style.c ****     else size += sizeof(const void *);
 1285              		.loc 1 1181 45 view .LVU424
 1286 00f0 00E0     		b	.L87
 1287              	.LVL127:
 1288              	.L96:
1179:lvgl/src/lv_core/lv_style.c ****     else if(prop_id < LV_STYLE_ID_OPA) size += sizeof(lv_color_t);
 1289              		.loc 1 1179 42 view .LVU425
 1290 00f2 0425     		movs	r5, #4
 1291              	.LVL128:
 1292              	.L87:
1179:lvgl/src/lv_core/lv_style.c ****     else if(prop_id < LV_STYLE_ID_OPA) size += sizeof(lv_color_t);
 1293              		.loc 1 1179 42 view .LVU426
 1294 00f4 EBB2     		uxtb	r3, r5
 1295              	.LBE209:
 1296              	.LBE208:
 120:lvgl/src/lv_core/lv_style.c ****                 style->map[i] = style->map[i + prop_size];
 1297              		.loc 1 120 38 discriminator 1 view .LVU427
 1298 00f6 C11A     		subs	r1, r0, r3
 120:lvgl/src/lv_core/lv_style.c ****                 style->map[i] = style->map[i + prop_size];
 1299              		.loc 1 120 13 discriminator 1 view .LVU428
 1300 00f8 A142     		cmp	r1, r4
 1301 00fa 09D9     		bls	.L107
 121:lvgl/src/lv_core/lv_style.c ****             }
 1302              		.loc 1 121 17 is_stmt 1 discriminator 3 view .LVU429
 121:lvgl/src/lv_core/lv_style.c ****             }
ARM GAS  D:\Temp\cceOI0TF.s 			page 56


 1303              		.loc 1 121 38 is_stmt 0 discriminator 3 view .LVU430
 1304 00fc 3A68     		ldr	r2, [r7]
 121:lvgl/src/lv_core/lv_style.c ****             }
 1305              		.loc 1 121 46 discriminator 3 view .LVU431
 1306 00fe 2344     		add	r3, r3, r4
 121:lvgl/src/lv_core/lv_style.c ****             }
 1307              		.loc 1 121 43 discriminator 3 view .LVU432
 1308 0100 D35C     		ldrb	r3, [r2, r3]	@ zero_extendqisi2
 121:lvgl/src/lv_core/lv_style.c ****             }
 1309              		.loc 1 121 31 discriminator 3 view .LVU433
 1310 0102 1355     		strb	r3, [r2, r4]
 120:lvgl/src/lv_core/lv_style.c ****                 style->map[i] = style->map[i + prop_size];
 1311              		.loc 1 120 52 discriminator 3 view .LVU434
 1312 0104 0134     		adds	r4, r4, #1
 1313              	.LVL129:
 120:lvgl/src/lv_core/lv_style.c ****                 style->map[i] = style->map[i + prop_size];
 1314              		.loc 1 120 52 discriminator 3 view .LVU435
 1315 0106 F5E7     		b	.L87
 1316              	.LVL130:
 1317              	.L97:
 1318              	.LBB211:
 1319              	.LBB210:
1180:lvgl/src/lv_core/lv_style.c ****     else if(prop_id < LV_STYLE_ID_PTR) size += sizeof(lv_opa_t);
 1320              		.loc 1 1180 45 view .LVU436
 1321 0108 0425     		movs	r5, #4
 1322              	.LVL131:
1180:lvgl/src/lv_core/lv_style.c ****     else if(prop_id < LV_STYLE_ID_PTR) size += sizeof(lv_opa_t);
 1323              		.loc 1 1180 45 view .LVU437
 1324 010a F3E7     		b	.L87
 1325              	.LVL132:
 1326              	.L98:
1182:lvgl/src/lv_core/lv_style.c ****     return size;
 1327              		.loc 1 1182 15 view .LVU438
 1328 010c 0625     		movs	r5, #6
 1329              	.LVL133:
1183:lvgl/src/lv_core/lv_style.c **** }
 1330              		.loc 1 1183 5 is_stmt 1 view .LVU439
1183:lvgl/src/lv_core/lv_style.c **** }
 1331              		.loc 1 1183 5 is_stmt 0 view .LVU440
 1332              	.LBE210:
 1333              	.LBE211:
 119:lvgl/src/lv_core/lv_style.c ****             for(i = id; i < map_size - prop_size; i++) {
 1334              		.loc 1 119 13 is_stmt 1 view .LVU441
 120:lvgl/src/lv_core/lv_style.c ****                 style->map[i] = style->map[i + prop_size];
 1335              		.loc 1 120 13 view .LVU442
 120:lvgl/src/lv_core/lv_style.c ****                 style->map[i] = style->map[i + prop_size];
 1336              		.loc 1 120 13 is_stmt 0 view .LVU443
 1337 010e F1E7     		b	.L87
 1338              	.LVL134:
 1339              	.L107:
 124:lvgl/src/lv_core/lv_style.c **** 
 1340              		.loc 1 124 13 is_stmt 1 view .LVU444
 1341              	.LBB212:
 1342              	.LBI212:
1127:lvgl/src/lv_core/lv_style.c **** {
 1343              		.loc 1 1127 20 view .LVU445
 1344              	.LBB213:
ARM GAS  D:\Temp\cceOI0TF.s 			page 57


1129:lvgl/src/lv_core/lv_style.c **** }
 1345              		.loc 1 1129 5 view .LVU446
1129:lvgl/src/lv_core/lv_style.c **** }
 1346              		.loc 1 1129 18 is_stmt 0 view .LVU447
 1347 0110 3868     		ldr	r0, [r7]
 1348              	.LVL135:
1129:lvgl/src/lv_core/lv_style.c **** }
 1349              		.loc 1 1129 18 view .LVU448
 1350 0112 FFF7FEFF 		bl	lv_mem_realloc
 1351              	.LVL136:
1129:lvgl/src/lv_core/lv_style.c **** }
 1352              		.loc 1 1129 16 view .LVU449
 1353 0116 3860     		str	r0, [r7]
 1354              	.LVL137:
1129:lvgl/src/lv_core/lv_style.c **** }
 1355              		.loc 1 1129 16 view .LVU450
 1356              	.LBE213:
 1357              	.LBE212:
 126:lvgl/src/lv_core/lv_style.c ****         }
 1358              		.loc 1 126 13 is_stmt 1 view .LVU451
 126:lvgl/src/lv_core/lv_style.c ****         }
 1359              		.loc 1 126 20 is_stmt 0 view .LVU452
 1360 0118 0120     		movs	r0, #1
 1361 011a D6E7     		b	.L79
 1362              	.LVL138:
 1363              	.L89:
 1364              	.LCFI15:
 1365              		.cfi_def_cfa_offset 0
 1366              		.cfi_restore 4
 1367              		.cfi_restore 5
 1368              		.cfi_restore 6
 1369              		.cfi_restore 7
 1370              		.cfi_restore 8
 1371              		.cfi_restore 14
 126:lvgl/src/lv_core/lv_style.c ****         }
 1372              		.loc 1 126 20 view .LVU453
 1373              	.LBE207:
 1374              	.LBE215:
 102:lvgl/src/lv_core/lv_style.c ****     LV_ASSERT_STYLE(style);
 1375              		.loc 1 102 30 view .LVU454
 1376 011c 0020     		movs	r0, #0
 1377              	.LVL139:
 131:lvgl/src/lv_core/lv_style.c **** 
 1378              		.loc 1 131 1 view .LVU455
 1379 011e 7047     		bx	lr
 1380              	.LVL140:
 1381              	.L94:
 1382              	.LCFI16:
 1383              		.cfi_def_cfa_offset 32
 1384              		.cfi_offset 4, -24
 1385              		.cfi_offset 5, -20
 1386              		.cfi_offset 6, -16
 1387              		.cfi_offset 7, -12
 1388              		.cfi_offset 8, -8
 1389              		.cfi_offset 14, -4
 130:lvgl/src/lv_core/lv_style.c **** }
 1390              		.loc 1 130 12 view .LVU456
ARM GAS  D:\Temp\cceOI0TF.s 			page 58


 1391 0120 0020     		movs	r0, #0
 1392 0122 D2E7     		b	.L79
 1393              		.cfi_endproc
 1394              	.LFE460:
 1396              		.section	.text._lv_style_set_int,"ax",%progbits
 1397              		.align	1
 1398              		.global	_lv_style_set_int
 1399              		.syntax unified
 1400              		.thumb
 1401              		.thumb_func
 1402              		.fpu fpv4-sp-d16
 1404              	_lv_style_set_int:
 1405              	.LVL141:
 1406              	.LFB468:
 361:lvgl/src/lv_core/lv_style.c ****     LV_ASSERT_STYLE(style);
 1407              		.loc 1 361 1 is_stmt 1 view -0
 1408              		.cfi_startproc
 1409              		@ args = 0, pretend = 0, frame = 16
 1410              		@ frame_needed = 0, uses_anonymous_args = 0
 361:lvgl/src/lv_core/lv_style.c ****     LV_ASSERT_STYLE(style);
 1411              		.loc 1 361 1 is_stmt 0 view .LVU458
 1412 0000 F0B5     		push	{r4, r5, r6, r7, lr}
 1413              	.LCFI17:
 1414              		.cfi_def_cfa_offset 20
 1415              		.cfi_offset 4, -20
 1416              		.cfi_offset 5, -16
 1417              		.cfi_offset 6, -12
 1418              		.cfi_offset 7, -8
 1419              		.cfi_offset 14, -4
 1420 0002 85B0     		sub	sp, sp, #20
 1421              	.LCFI18:
 1422              		.cfi_def_cfa_offset 40
 1423 0004 ADF80610 		strh	r1, [sp, #6]	@ movhi
 1424 0008 ADF80420 		strh	r2, [sp, #4]	@ movhi
 362:lvgl/src/lv_core/lv_style.c **** 
 1425              		.loc 1 362 27 is_stmt 1 view .LVU459
 364:lvgl/src/lv_core/lv_style.c ****     /*The property already exists but not sure it's state is the same*/
 1426              		.loc 1 364 5 view .LVU460
 1427              	.LVL142:
 1428              	.LBB246:
 1429              	.LBI246:
1053:lvgl/src/lv_core/lv_style.c **** {
 1430              		.loc 1 1053 45 view .LVU461
 1431              	.LBB247:
1055:lvgl/src/lv_core/lv_style.c **** 
 1432              		.loc 1 1055 27 view .LVU462
1057:lvgl/src/lv_core/lv_style.c **** 
 1433              		.loc 1 1057 5 view .LVU463
1057:lvgl/src/lv_core/lv_style.c **** 
 1434              		.loc 1 1057 13 is_stmt 0 view .LVU464
 1435 000c 0368     		ldr	r3, [r0]
1057:lvgl/src/lv_core/lv_style.c **** 
 1436              		.loc 1 1057 7 view .LVU465
 1437 000e 002B     		cmp	r3, #0
 1438 0010 77D0     		beq	.L129
1059:lvgl/src/lv_core/lv_style.c ****     lv_style_attr_t attr;
 1439              		.loc 1 1059 5 is_stmt 1 view .LVU466
ARM GAS  D:\Temp\cceOI0TF.s 			page 59


1059:lvgl/src/lv_core/lv_style.c ****     lv_style_attr_t attr;
 1440              		.loc 1 1059 13 is_stmt 0 view .LVU467
 1441 0012 CFB2     		uxtb	r7, r1
 1442              	.LVL143:
1060:lvgl/src/lv_core/lv_style.c ****     attr = (prop >> 8) & 0xFF;
 1443              		.loc 1 1060 5 is_stmt 1 view .LVU468
1061:lvgl/src/lv_core/lv_style.c **** 
 1444              		.loc 1 1061 5 view .LVU469
1061:lvgl/src/lv_core/lv_style.c **** 
 1445              		.loc 1 1061 10 is_stmt 0 view .LVU470
 1446 0014 0E0A     		lsrs	r6, r1, #8
 1447              	.LVL144:
1063:lvgl/src/lv_core/lv_style.c ****     int16_t id_guess = -1;
 1448              		.loc 1 1063 5 is_stmt 1 view .LVU471
1064:lvgl/src/lv_core/lv_style.c **** 
 1449              		.loc 1 1064 5 view .LVU472
1066:lvgl/src/lv_core/lv_style.c **** 
 1450              		.loc 1 1066 5 view .LVU473
1068:lvgl/src/lv_core/lv_style.c ****     while((prop_id = get_style_prop_id(style, i)) != _LV_STYLE_CLOSING_PROP) {
 1451              		.loc 1 1068 5 view .LVU474
1069:lvgl/src/lv_core/lv_style.c ****         if(prop_id == id_to_find) {
 1452              		.loc 1 1069 5 view .LVU475
1066:lvgl/src/lv_core/lv_style.c **** 
 1453              		.loc 1 1066 12 is_stmt 0 view .LVU476
 1454 0016 0022     		movs	r2, #0
 1455              	.LVL145:
1064:lvgl/src/lv_core/lv_style.c **** 
 1456              		.loc 1 1064 13 view .LVU477
 1457 0018 4FF0FF35 		mov	r5, #-1
1063:lvgl/src/lv_core/lv_style.c ****     int16_t id_guess = -1;
 1458              		.loc 1 1063 13 view .LVU478
 1459 001c AC46     		mov	ip, r5
 1460 001e 21E0     		b	.L110
 1461              	.LVL146:
 1462              	.L136:
 1463              	.LBB248:
1071:lvgl/src/lv_core/lv_style.c ****             attr_i = get_style_prop_attr(style, i);
 1464              		.loc 1 1071 13 is_stmt 1 view .LVU479
1072:lvgl/src/lv_core/lv_style.c **** 
 1465              		.loc 1 1072 13 view .LVU480
 1466              	.LBB249:
 1467              	.LBI249:
1164:lvgl/src/lv_core/lv_style.c **** {
 1468              		.loc 1 1164 23 view .LVU481
 1469              	.LBB250:
1166:lvgl/src/lv_core/lv_style.c **** }
 1470              		.loc 1 1166 5 view .LVU482
 1471              	.LBB251:
 1472              	.LBI251:
1138:lvgl/src/lv_core/lv_style.c **** {
 1473              		.loc 1 1138 35 view .LVU483
 1474              	.LBB252:
1140:lvgl/src/lv_core/lv_style.c ****     uint8_t * prop_p = (uint8_t *)&prop;
 1475              		.loc 1 1140 5 view .LVU484
1141:lvgl/src/lv_core/lv_style.c ****     prop_p[0] = style->map[idx];
 1476              		.loc 1 1141 5 view .LVU485
1142:lvgl/src/lv_core/lv_style.c ****     prop_p[1] = style->map[idx + 1];
ARM GAS  D:\Temp\cceOI0TF.s 			page 60


 1477              		.loc 1 1142 5 view .LVU486
1142:lvgl/src/lv_core/lv_style.c ****     prop_p[1] = style->map[idx + 1];
 1478              		.loc 1 1142 22 is_stmt 0 view .LVU487
 1479 0020 0468     		ldr	r4, [r0]
1142:lvgl/src/lv_core/lv_style.c ****     prop_p[1] = style->map[idx + 1];
 1480              		.loc 1 1142 27 view .LVU488
 1481 0022 14F802E0 		ldrb	lr, [r4, r2]	@ zero_extendqisi2
1142:lvgl/src/lv_core/lv_style.c ****     prop_p[1] = style->map[idx + 1];
 1482              		.loc 1 1142 15 view .LVU489
 1483 0026 8DF80CE0 		strb	lr, [sp, #12]
1143:lvgl/src/lv_core/lv_style.c ****     return prop;
 1484              		.loc 1 1143 5 is_stmt 1 view .LVU490
1143:lvgl/src/lv_core/lv_style.c ****     return prop;
 1485              		.loc 1 1143 27 is_stmt 0 view .LVU491
 1486 002a 615C     		ldrb	r1, [r4, r1]	@ zero_extendqisi2
1143:lvgl/src/lv_core/lv_style.c ****     return prop;
 1487              		.loc 1 1143 15 view .LVU492
 1488 002c 8DF80D10 		strb	r1, [sp, #13]
1144:lvgl/src/lv_core/lv_style.c **** }
 1489              		.loc 1 1144 5 is_stmt 1 view .LVU493
1144:lvgl/src/lv_core/lv_style.c **** }
 1490              		.loc 1 1144 12 is_stmt 0 view .LVU494
 1491 0030 BDF80C40 		ldrh	r4, [sp, #12]
 1492              	.LVL147:
1144:lvgl/src/lv_core/lv_style.c **** }
 1493              		.loc 1 1144 12 view .LVU495
 1494              	.LBE252:
 1495              	.LBE251:
1166:lvgl/src/lv_core/lv_style.c **** }
 1496              		.loc 1 1166 47 view .LVU496
 1497 0034 240A     		lsrs	r4, r4, #8
 1498 0036 E1B2     		uxtb	r1, r4
 1499              	.LVL148:
1166:lvgl/src/lv_core/lv_style.c **** }
 1500              		.loc 1 1166 47 view .LVU497
 1501              	.LBE250:
 1502              	.LBE249:
1075:lvgl/src/lv_core/lv_style.c ****                 return i;
 1503              		.loc 1 1075 13 is_stmt 1 view .LVU498
1075:lvgl/src/lv_core/lv_style.c ****                 return i;
 1504              		.loc 1 1075 48 is_stmt 0 view .LVU499
 1505 0038 86EA010E 		eor	lr, r6, r1
1075:lvgl/src/lv_core/lv_style.c ****                 return i;
 1506              		.loc 1 1075 15 view .LVU500
 1507 003c 1EF07F0F 		tst	lr, #127
 1508 0040 0CD0     		beq	.L134
1080:lvgl/src/lv_core/lv_style.c ****                 /* Use this property if it describes better the requested state than the current ca
 1509              		.loc 1 1080 18 is_stmt 1 view .LVU501
1080:lvgl/src/lv_core/lv_style.c ****                 /* Use this property if it describes better the requested state than the current ca
 1510              		.loc 1 1080 22 is_stmt 0 view .LVU502
 1511 0042 01F07F01 		and	r1, r1, #127
 1512              	.LVL149:
1080:lvgl/src/lv_core/lv_style.c ****                 /* Use this property if it describes better the requested state than the current ca
 1513              		.loc 1 1080 58 view .LVU503
 1514 0046 06F07F0E 		and	lr, r6, #127
1080:lvgl/src/lv_core/lv_style.c ****                 /* Use this property if it describes better the requested state than the current ca
 1515              		.loc 1 1080 20 view .LVU504
ARM GAS  D:\Temp\cceOI0TF.s 			page 61


 1516 004a 31EA0E0E 		bics	lr, r1, lr
 1517 004e 17D1     		bne	.L111
1083:lvgl/src/lv_core/lv_style.c ****                     weight = LV_STYLE_ATTR_GET_STATE(attr_i);
 1518              		.loc 1 1083 17 is_stmt 1 view .LVU505
1083:lvgl/src/lv_core/lv_style.c ****                     weight = LV_STYLE_ATTR_GET_STATE(attr_i);
 1519              		.loc 1 1083 19 is_stmt 0 view .LVU506
 1520 0050 6145     		cmp	r1, ip
 1521 0052 15DD     		ble	.L111
1084:lvgl/src/lv_core/lv_style.c ****                     id_guess = i;
 1522              		.loc 1 1084 21 is_stmt 1 view .LVU507
1084:lvgl/src/lv_core/lv_style.c ****                     id_guess = i;
 1523              		.loc 1 1084 28 is_stmt 0 view .LVU508
 1524 0054 04F07F0C 		and	ip, r4, #127
 1525              	.LVL150:
1085:lvgl/src/lv_core/lv_style.c ****                 }
 1526              		.loc 1 1085 21 is_stmt 1 view .LVU509
1085:lvgl/src/lv_core/lv_style.c ****                 }
 1527              		.loc 1 1085 30 is_stmt 0 view .LVU510
 1528 0058 15B2     		sxth	r5, r2
 1529              	.LVL151:
1085:lvgl/src/lv_core/lv_style.c ****                 }
 1530              		.loc 1 1085 30 view .LVU511
 1531 005a 11E0     		b	.L111
 1532              	.LVL152:
 1533              	.L134:
1076:lvgl/src/lv_core/lv_style.c ****             }
 1534              		.loc 1 1076 17 is_stmt 1 view .LVU512
1076:lvgl/src/lv_core/lv_style.c ****             }
 1535              		.loc 1 1076 24 is_stmt 0 view .LVU513
 1536 005c 1346     		mov	r3, r2
 1537              	.LVL153:
1076:lvgl/src/lv_core/lv_style.c ****             }
 1538              		.loc 1 1076 24 view .LVU514
 1539 005e 1EE0     		b	.L109
 1540              	.LVL154:
 1541              	.L130:
1076:lvgl/src/lv_core/lv_style.c ****             }
 1542              		.loc 1 1076 24 view .LVU515
 1543              	.LBE248:
 1544              	.LBB253:
 1545              	.LBB254:
 1546              	.LBB255:
 1547              	.LBB256:
1179:lvgl/src/lv_core/lv_style.c ****     else if(prop_id < LV_STYLE_ID_OPA) size += sizeof(lv_color_t);
 1548              		.loc 1 1179 42 view .LVU516
 1549 0060 0421     		movs	r1, #4
 1550              	.L113:
 1551              	.LVL155:
1183:lvgl/src/lv_core/lv_style.c **** }
 1552              		.loc 1 1183 5 is_stmt 1 view .LVU517
1183:lvgl/src/lv_core/lv_style.c **** }
 1553              		.loc 1 1183 5 is_stmt 0 view .LVU518
 1554              	.LBE256:
 1555              	.LBE255:
 1556              		.loc 1 1194 16 view .LVU519
 1557 0062 0A44     		add	r2, r2, r1
 1558              	.LVL156:
ARM GAS  D:\Temp\cceOI0TF.s 			page 62


 1559              	.L110:
 1560              		.loc 1 1194 16 view .LVU520
 1561              	.LBE254:
 1562              	.LBE253:
 1563              	.LBB260:
 1564              	.LBI260:
1153:lvgl/src/lv_core/lv_style.c **** {
 1565              		.loc 1 1153 23 is_stmt 1 view .LVU521
 1566              	.LBB261:
1155:lvgl/src/lv_core/lv_style.c **** }
 1567              		.loc 1 1155 5 view .LVU522
 1568              	.LBB262:
 1569              	.LBI262:
1138:lvgl/src/lv_core/lv_style.c **** {
 1570              		.loc 1 1138 35 view .LVU523
 1571              	.LBB263:
1140:lvgl/src/lv_core/lv_style.c ****     uint8_t * prop_p = (uint8_t *)&prop;
 1572              		.loc 1 1140 5 view .LVU524
1141:lvgl/src/lv_core/lv_style.c ****     prop_p[0] = style->map[idx];
 1573              		.loc 1 1141 5 view .LVU525
1142:lvgl/src/lv_core/lv_style.c ****     prop_p[1] = style->map[idx + 1];
 1574              		.loc 1 1142 5 view .LVU526
1142:lvgl/src/lv_core/lv_style.c ****     prop_p[1] = style->map[idx + 1];
 1575              		.loc 1 1142 22 is_stmt 0 view .LVU527
 1576 0064 0368     		ldr	r3, [r0]
1142:lvgl/src/lv_core/lv_style.c ****     prop_p[1] = style->map[idx + 1];
 1577              		.loc 1 1142 27 view .LVU528
 1578 0066 995C     		ldrb	r1, [r3, r2]	@ zero_extendqisi2
1142:lvgl/src/lv_core/lv_style.c ****     prop_p[1] = style->map[idx + 1];
 1579              		.loc 1 1142 15 view .LVU529
 1580 0068 8DF80C10 		strb	r1, [sp, #12]
1143:lvgl/src/lv_core/lv_style.c ****     return prop;
 1581              		.loc 1 1143 5 is_stmt 1 view .LVU530
1143:lvgl/src/lv_core/lv_style.c ****     return prop;
 1582              		.loc 1 1143 27 is_stmt 0 view .LVU531
 1583 006c 511C     		adds	r1, r2, #1
 1584 006e 5C5C     		ldrb	r4, [r3, r1]	@ zero_extendqisi2
1143:lvgl/src/lv_core/lv_style.c ****     return prop;
 1585              		.loc 1 1143 15 view .LVU532
 1586 0070 8DF80D40 		strb	r4, [sp, #13]
1144:lvgl/src/lv_core/lv_style.c **** }
 1587              		.loc 1 1144 5 is_stmt 1 view .LVU533
 1588              	.LVL157:
1144:lvgl/src/lv_core/lv_style.c **** }
 1589              		.loc 1 1144 5 is_stmt 0 view .LVU534
 1590              	.LBE263:
 1591              	.LBE262:
1155:lvgl/src/lv_core/lv_style.c **** }
 1592              		.loc 1 1155 39 view .LVU535
 1593 0074 9DF80C30 		ldrb	r3, [sp, #12]	@ zero_extendqisi2
 1594              	.LVL158:
1155:lvgl/src/lv_core/lv_style.c **** }
 1595              		.loc 1 1155 39 view .LVU536
 1596              	.LBE261:
 1597              	.LBE260:
1069:lvgl/src/lv_core/lv_style.c ****         if(prop_id == id_to_find) {
 1598              		.loc 1 1069 10 view .LVU537
ARM GAS  D:\Temp\cceOI0TF.s 			page 63


 1599 0078 FF2B     		cmp	r3, #255
 1600 007a 0FD0     		beq	.L135
1070:lvgl/src/lv_core/lv_style.c ****             lv_style_attr_t attr_i;
 1601              		.loc 1 1070 9 is_stmt 1 view .LVU538
1070:lvgl/src/lv_core/lv_style.c ****             lv_style_attr_t attr_i;
 1602              		.loc 1 1070 11 is_stmt 0 view .LVU539
 1603 007c 9F42     		cmp	r7, r3
 1604 007e CFD0     		beq	.L136
 1605              	.L111:
1090:lvgl/src/lv_core/lv_style.c ****     }
 1606              		.loc 1 1090 9 is_stmt 1 view .LVU540
 1607              	.LVL159:
 1608              	.LBB264:
 1609              	.LBI253:
1192:lvgl/src/lv_core/lv_style.c **** {
 1610              		.loc 1 1192 22 view .LVU541
 1611              	.LBB259:
 1612              		.loc 1 1194 5 view .LVU542
 1613              	.LBB258:
 1614              	.LBI255:
1175:lvgl/src/lv_core/lv_style.c **** {
 1615              		.loc 1 1175 22 view .LVU543
 1616              	.LBB257:
1177:lvgl/src/lv_core/lv_style.c ****     size_t size = sizeof(lv_style_property_t);
 1617              		.loc 1 1177 5 view .LVU544
1177:lvgl/src/lv_core/lv_style.c ****     size_t size = sizeof(lv_style_property_t);
 1618              		.loc 1 1177 13 is_stmt 0 view .LVU545
 1619 0080 03F00F03 		and	r3, r3, #15
 1620              	.LVL160:
1178:lvgl/src/lv_core/lv_style.c ****     if(prop_id < LV_STYLE_ID_COLOR) size += sizeof(lv_style_int_t);
 1621              		.loc 1 1178 5 is_stmt 1 view .LVU546
1179:lvgl/src/lv_core/lv_style.c ****     else if(prop_id < LV_STYLE_ID_OPA) size += sizeof(lv_color_t);
 1622              		.loc 1 1179 5 view .LVU547
1179:lvgl/src/lv_core/lv_style.c ****     else if(prop_id < LV_STYLE_ID_OPA) size += sizeof(lv_color_t);
 1623              		.loc 1 1179 7 is_stmt 0 view .LVU548
 1624 0084 082B     		cmp	r3, #8
 1625 0086 EBD9     		bls	.L130
1180:lvgl/src/lv_core/lv_style.c ****     else if(prop_id < LV_STYLE_ID_PTR) size += sizeof(lv_opa_t);
 1626              		.loc 1 1180 10 is_stmt 1 view .LVU549
1180:lvgl/src/lv_core/lv_style.c ****     else if(prop_id < LV_STYLE_ID_PTR) size += sizeof(lv_opa_t);
 1627              		.loc 1 1180 12 is_stmt 0 view .LVU550
 1628 0088 0B2B     		cmp	r3, #11
 1629 008a 03D9     		bls	.L131
1181:lvgl/src/lv_core/lv_style.c ****     else size += sizeof(const void *);
 1630              		.loc 1 1181 10 is_stmt 1 view .LVU551
1181:lvgl/src/lv_core/lv_style.c ****     else size += sizeof(const void *);
 1631              		.loc 1 1181 12 is_stmt 0 view .LVU552
 1632 008c 0D2B     		cmp	r3, #13
 1633 008e 03D8     		bhi	.L132
1181:lvgl/src/lv_core/lv_style.c ****     else size += sizeof(const void *);
 1634              		.loc 1 1181 45 view .LVU553
 1635 0090 0321     		movs	r1, #3
 1636 0092 E6E7     		b	.L113
 1637              	.L131:
1180:lvgl/src/lv_core/lv_style.c ****     else if(prop_id < LV_STYLE_ID_PTR) size += sizeof(lv_opa_t);
 1638              		.loc 1 1180 45 view .LVU554
 1639 0094 0421     		movs	r1, #4
ARM GAS  D:\Temp\cceOI0TF.s 			page 64


 1640 0096 E4E7     		b	.L113
 1641              	.L132:
1182:lvgl/src/lv_core/lv_style.c ****     return size;
 1642              		.loc 1 1182 15 view .LVU555
 1643 0098 0621     		movs	r1, #6
 1644 009a E2E7     		b	.L113
 1645              	.LVL161:
 1646              	.L135:
1182:lvgl/src/lv_core/lv_style.c ****     return size;
 1647              		.loc 1 1182 15 view .LVU556
 1648              	.LBE257:
 1649              	.LBE258:
 1650              	.LBE259:
 1651              	.LBE264:
1093:lvgl/src/lv_core/lv_style.c **** }
 1652              		.loc 1 1093 5 is_stmt 1 view .LVU557
1093:lvgl/src/lv_core/lv_style.c **** }
 1653              		.loc 1 1093 12 is_stmt 0 view .LVU558
 1654 009c 2B46     		mov	r3, r5
 1655              	.LVL162:
 1656              	.L109:
1093:lvgl/src/lv_core/lv_style.c **** }
 1657              		.loc 1 1093 12 view .LVU559
 1658              	.LBE247:
 1659              	.LBE246:
 366:lvgl/src/lv_core/lv_style.c ****         lv_style_attr_t attr_found;
 1660              		.loc 1 366 5 is_stmt 1 view .LVU560
 366:lvgl/src/lv_core/lv_style.c ****         lv_style_attr_t attr_found;
 1661              		.loc 1 366 7 is_stmt 0 view .LVU561
 1662 009e 002B     		cmp	r3, #0
 1663 00a0 11DB     		blt	.L115
 1664              	.LBB266:
 367:lvgl/src/lv_core/lv_style.c ****         lv_style_attr_t attr_goal;
 1665              		.loc 1 367 9 is_stmt 1 view .LVU562
 368:lvgl/src/lv_core/lv_style.c **** 
 1666              		.loc 1 368 9 view .LVU563
 370:lvgl/src/lv_core/lv_style.c ****         attr_goal = (prop >> 8) & 0xFFU;
 1667              		.loc 1 370 9 view .LVU564
 1668              	.LVL163:
 1669              	.LBB267:
 1670              	.LBI267:
1164:lvgl/src/lv_core/lv_style.c **** {
 1671              		.loc 1 1164 23 view .LVU565
 1672              	.LBB268:
1166:lvgl/src/lv_core/lv_style.c **** }
 1673              		.loc 1 1166 5 view .LVU566
 1674              	.LBB269:
 1675              	.LBI269:
1138:lvgl/src/lv_core/lv_style.c **** {
 1676              		.loc 1 1138 35 view .LVU567
 1677              	.LBB270:
1140:lvgl/src/lv_core/lv_style.c ****     uint8_t * prop_p = (uint8_t *)&prop;
 1678              		.loc 1 1140 5 view .LVU568
1141:lvgl/src/lv_core/lv_style.c ****     prop_p[0] = style->map[idx];
 1679              		.loc 1 1141 5 view .LVU569
1142:lvgl/src/lv_core/lv_style.c ****     prop_p[1] = style->map[idx + 1];
 1680              		.loc 1 1142 5 view .LVU570
ARM GAS  D:\Temp\cceOI0TF.s 			page 65


1142:lvgl/src/lv_core/lv_style.c ****     prop_p[1] = style->map[idx + 1];
 1681              		.loc 1 1142 22 is_stmt 0 view .LVU571
 1682 00a2 0268     		ldr	r2, [r0]
1142:lvgl/src/lv_core/lv_style.c ****     prop_p[1] = style->map[idx + 1];
 1683              		.loc 1 1142 27 view .LVU572
 1684 00a4 D15C     		ldrb	r1, [r2, r3]	@ zero_extendqisi2
1142:lvgl/src/lv_core/lv_style.c ****     prop_p[1] = style->map[idx + 1];
 1685              		.loc 1 1142 15 view .LVU573
 1686 00a6 8DF80C10 		strb	r1, [sp, #12]
1143:lvgl/src/lv_core/lv_style.c ****     return prop;
 1687              		.loc 1 1143 5 is_stmt 1 view .LVU574
1143:lvgl/src/lv_core/lv_style.c ****     return prop;
 1688              		.loc 1 1143 27 is_stmt 0 view .LVU575
 1689 00aa 1A44     		add	r2, r2, r3
 1690 00ac 5278     		ldrb	r2, [r2, #1]	@ zero_extendqisi2
1143:lvgl/src/lv_core/lv_style.c ****     return prop;
 1691              		.loc 1 1143 15 view .LVU576
 1692 00ae 8DF80D20 		strb	r2, [sp, #13]
1144:lvgl/src/lv_core/lv_style.c **** }
 1693              		.loc 1 1144 5 is_stmt 1 view .LVU577
1144:lvgl/src/lv_core/lv_style.c **** }
 1694              		.loc 1 1144 12 is_stmt 0 view .LVU578
 1695 00b2 BDF80C10 		ldrh	r1, [sp, #12]
 1696              	.LVL164:
1144:lvgl/src/lv_core/lv_style.c **** }
 1697              		.loc 1 1144 12 view .LVU579
 1698              	.LBE270:
 1699              	.LBE269:
 1700              	.LBE268:
 1701              	.LBE267:
 371:lvgl/src/lv_core/lv_style.c **** 
 1702              		.loc 1 371 9 is_stmt 1 view .LVU580
 371:lvgl/src/lv_core/lv_style.c **** 
 1703              		.loc 1 371 19 is_stmt 0 view .LVU581
 1704 00b6 BDF80620 		ldrh	r2, [sp, #6]
 1705 00ba 120A     		lsrs	r2, r2, #8
 1706              	.LVL165:
 373:lvgl/src/lv_core/lv_style.c ****             _lv_memcpy_small(style->map + id + sizeof(lv_style_property_t), &value, sizeof(lv_style
 1707              		.loc 1 373 9 is_stmt 1 view .LVU582
 373:lvgl/src/lv_core/lv_style.c ****             _lv_memcpy_small(style->map + id + sizeof(lv_style_property_t), &value, sizeof(lv_style
 1708              		.loc 1 373 48 is_stmt 0 view .LVU583
 1709 00bc 82EA1122 		eor	r2, r2, r1, lsr #8
 1710              	.LVL166:
 373:lvgl/src/lv_core/lv_style.c ****             _lv_memcpy_small(style->map + id + sizeof(lv_style_property_t), &value, sizeof(lv_style
 1711              		.loc 1 373 11 view .LVU584
 1712 00c0 12F07F0F 		tst	r2, #127
 1713 00c4 20D0     		beq	.L137
 1714              	.LVL167:
 1715              	.L115:
 373:lvgl/src/lv_core/lv_style.c ****             _lv_memcpy_small(style->map + id + sizeof(lv_style_property_t), &value, sizeof(lv_style
 1716              		.loc 1 373 11 view .LVU585
 1717 00c6 0546     		mov	r5, r0
 1718              	.LBE266:
 380:lvgl/src/lv_core/lv_style.c ****     lv_style_property_t end_mark = _LV_STYLE_CLOSING_PROP;
 1719              		.loc 1 380 5 is_stmt 1 view .LVU586
 1720              	.LVL168:
 381:lvgl/src/lv_core/lv_style.c ****     uint8_t end_mark_size = sizeof(end_mark);
ARM GAS  D:\Temp\cceOI0TF.s 			page 66


 1721              		.loc 1 381 5 view .LVU587
 381:lvgl/src/lv_core/lv_style.c ****     uint8_t end_mark_size = sizeof(end_mark);
 1722              		.loc 1 381 25 is_stmt 0 view .LVU588
 1723 00c8 FF23     		movs	r3, #255
 1724              	.LVL169:
 381:lvgl/src/lv_core/lv_style.c ****     uint8_t end_mark_size = sizeof(end_mark);
 1725              		.loc 1 381 25 view .LVU589
 1726 00ca ADF80E30 		strh	r3, [sp, #14]	@ movhi
 382:lvgl/src/lv_core/lv_style.c **** 
 1727              		.loc 1 382 5 is_stmt 1 view .LVU590
 1728              	.LVL170:
 384:lvgl/src/lv_core/lv_style.c ****     if(size == 0) size += end_mark_size;
 1729              		.loc 1 384 5 view .LVU591
 384:lvgl/src/lv_core/lv_style.c ****     if(size == 0) size += end_mark_size;
 1730              		.loc 1 384 21 is_stmt 0 view .LVU592
 1731 00ce FFF7FEFF 		bl	_lv_style_get_mem_size
 1732              	.LVL171:
 385:lvgl/src/lv_core/lv_style.c ****     size += sizeof(lv_style_property_t) + sizeof(lv_style_int_t);
 1733              		.loc 1 385 5 is_stmt 1 view .LVU593
 385:lvgl/src/lv_core/lv_style.c ****     size += sizeof(lv_style_property_t) + sizeof(lv_style_int_t);
 1734              		.loc 1 385 7 is_stmt 0 view .LVU594
 1735 00d2 0346     		mov	r3, r0
 1736 00d4 08B9     		cbnz	r0, .L119
 385:lvgl/src/lv_core/lv_style.c ****     size += sizeof(lv_style_property_t) + sizeof(lv_style_int_t);
 1737              		.loc 1 385 19 is_stmt 1 discriminator 1 view .LVU595
 385:lvgl/src/lv_core/lv_style.c ****     size += sizeof(lv_style_property_t) + sizeof(lv_style_int_t);
 1738              		.loc 1 385 24 is_stmt 0 discriminator 1 view .LVU596
 1739 00d6 0233     		adds	r3, r3, #2
 1740 00d8 9BB2     		uxth	r3, r3
 1741              	.LVL172:
 1742              	.L119:
 386:lvgl/src/lv_core/lv_style.c ****     style_resize(style, size);
 1743              		.loc 1 386 5 is_stmt 1 view .LVU597
 386:lvgl/src/lv_core/lv_style.c ****     style_resize(style, size);
 1744              		.loc 1 386 10 is_stmt 0 view .LVU598
 1745 00da 0433     		adds	r3, r3, #4
 1746              	.LVL173:
 386:lvgl/src/lv_core/lv_style.c ****     style_resize(style, size);
 1747              		.loc 1 386 10 view .LVU599
 1748 00dc 9CB2     		uxth	r4, r3
 387:lvgl/src/lv_core/lv_style.c ****     LV_ASSERT_MEM(style->map);
 1749              		.loc 1 387 5 is_stmt 1 view .LVU600
 1750              	.LVL174:
 1751              	.LBB275:
 1752              	.LBI275:
1127:lvgl/src/lv_core/lv_style.c **** {
 1753              		.loc 1 1127 20 view .LVU601
 1754              	.LBB276:
1129:lvgl/src/lv_core/lv_style.c **** }
 1755              		.loc 1 1129 5 view .LVU602
1129:lvgl/src/lv_core/lv_style.c **** }
 1756              		.loc 1 1129 18 is_stmt 0 view .LVU603
 1757 00de 2146     		mov	r1, r4
 1758 00e0 2868     		ldr	r0, [r5]
 1759 00e2 FFF7FEFF 		bl	lv_mem_realloc
 1760              	.LVL175:
1129:lvgl/src/lv_core/lv_style.c **** }
ARM GAS  D:\Temp\cceOI0TF.s 			page 67


 1761              		.loc 1 1129 16 view .LVU604
 1762 00e6 2860     		str	r0, [r5]
 1763              	.LVL176:
1129:lvgl/src/lv_core/lv_style.c **** }
 1764              		.loc 1 1129 16 view .LVU605
 1765              	.LBE276:
 1766              	.LBE275:
 388:lvgl/src/lv_core/lv_style.c ****     if(style == NULL) return;
 1767              		.loc 1 388 5 is_stmt 1 view .LVU606
 388:lvgl/src/lv_core/lv_style.c ****     if(style == NULL) return;
 1768              		.loc 1 388 5 view .LVU607
 1769 00e8 FFF7FEFF 		bl	lv_debug_check_null
 1770              	.LVL177:
 1771 00ec D0B1     		cbz	r0, .L138
 388:lvgl/src/lv_core/lv_style.c ****     if(style == NULL) return;
 1772              		.loc 1 388 30 discriminator 2 view .LVU608
 389:lvgl/src/lv_core/lv_style.c **** 
 1773              		.loc 1 389 5 discriminator 2 view .LVU609
 389:lvgl/src/lv_core/lv_style.c **** 
 1774              		.loc 1 389 7 is_stmt 0 discriminator 2 view .LVU610
 1775 00ee 002D     		cmp	r5, #0
 1776 00f0 3FD0     		beq	.L108
 391:lvgl/src/lv_core/lv_style.c ****     _lv_memcpy_small(style->map + size - sizeof(lv_style_int_t) - end_mark_size, &value, sizeof(lv_
 1777              		.loc 1 391 5 is_stmt 1 view .LVU611
 391:lvgl/src/lv_core/lv_style.c ****     _lv_memcpy_small(style->map + size - sizeof(lv_style_int_t) - end_mark_size, &value, sizeof(lv_
 1778              		.loc 1 391 27 is_stmt 0 view .LVU612
 1779 00f2 2B68     		ldr	r3, [r5]
 391:lvgl/src/lv_core/lv_style.c ****     _lv_memcpy_small(style->map + size - sizeof(lv_style_int_t) - end_mark_size, &value, sizeof(lv_
 1780              		.loc 1 391 40 view .LVU613
 1781 00f4 201F     		subs	r0, r4, #4
 391:lvgl/src/lv_core/lv_style.c ****     _lv_memcpy_small(style->map + size - sizeof(lv_style_int_t) - end_mark_size, &value, sizeof(lv_
 1782              		.loc 1 391 56 view .LVU614
 1783 00f6 A21F     		subs	r2, r4, #6
 1784 00f8 1344     		add	r3, r3, r2
 1785              	.LVL178:
 1786              	.LBB277:
 1787              	.LBI277:
 1788              		.file 3 "lvgl/src/lv_core/../lv_font/../lv_misc/lv_mem.h"
   1:lvgl/src/lv_core/../lv_font/../lv_misc/lv_mem.h **** /**
   2:lvgl/src/lv_core/../lv_font/../lv_misc/lv_mem.h ****  * @file lv_mem.h
   3:lvgl/src/lv_core/../lv_font/../lv_misc/lv_mem.h ****  *
   4:lvgl/src/lv_core/../lv_font/../lv_misc/lv_mem.h ****  */
   5:lvgl/src/lv_core/../lv_font/../lv_misc/lv_mem.h **** 
   6:lvgl/src/lv_core/../lv_font/../lv_misc/lv_mem.h **** #ifndef LV_MEM_H
   7:lvgl/src/lv_core/../lv_font/../lv_misc/lv_mem.h **** #define LV_MEM_H
   8:lvgl/src/lv_core/../lv_font/../lv_misc/lv_mem.h **** 
   9:lvgl/src/lv_core/../lv_font/../lv_misc/lv_mem.h **** #ifdef __cplusplus
  10:lvgl/src/lv_core/../lv_font/../lv_misc/lv_mem.h **** extern "C" {
  11:lvgl/src/lv_core/../lv_font/../lv_misc/lv_mem.h **** #endif
  12:lvgl/src/lv_core/../lv_font/../lv_misc/lv_mem.h **** 
  13:lvgl/src/lv_core/../lv_font/../lv_misc/lv_mem.h **** /*********************
  14:lvgl/src/lv_core/../lv_font/../lv_misc/lv_mem.h ****  *      INCLUDES
  15:lvgl/src/lv_core/../lv_font/../lv_misc/lv_mem.h ****  *********************/
  16:lvgl/src/lv_core/../lv_font/../lv_misc/lv_mem.h **** #include "../lv_conf_internal.h"
  17:lvgl/src/lv_core/../lv_font/../lv_misc/lv_mem.h **** 
  18:lvgl/src/lv_core/../lv_font/../lv_misc/lv_mem.h **** #include <stdint.h>
  19:lvgl/src/lv_core/../lv_font/../lv_misc/lv_mem.h **** #include <stddef.h>
ARM GAS  D:\Temp\cceOI0TF.s 			page 68


  20:lvgl/src/lv_core/../lv_font/../lv_misc/lv_mem.h **** #include "lv_log.h"
  21:lvgl/src/lv_core/../lv_font/../lv_misc/lv_mem.h **** #include "lv_types.h"
  22:lvgl/src/lv_core/../lv_font/../lv_misc/lv_mem.h **** 
  23:lvgl/src/lv_core/../lv_font/../lv_misc/lv_mem.h **** #if LV_MEMCPY_MEMSET_STD
  24:lvgl/src/lv_core/../lv_font/../lv_misc/lv_mem.h **** #include <string.h>
  25:lvgl/src/lv_core/../lv_font/../lv_misc/lv_mem.h **** #endif
  26:lvgl/src/lv_core/../lv_font/../lv_misc/lv_mem.h **** 
  27:lvgl/src/lv_core/../lv_font/../lv_misc/lv_mem.h **** /*********************
  28:lvgl/src/lv_core/../lv_font/../lv_misc/lv_mem.h ****  *      DEFINES
  29:lvgl/src/lv_core/../lv_font/../lv_misc/lv_mem.h ****  *********************/
  30:lvgl/src/lv_core/../lv_font/../lv_misc/lv_mem.h **** 
  31:lvgl/src/lv_core/../lv_font/../lv_misc/lv_mem.h **** #ifndef LV_MEM_BUF_MAX_NUM
  32:lvgl/src/lv_core/../lv_font/../lv_misc/lv_mem.h **** #define LV_MEM_BUF_MAX_NUM    16
  33:lvgl/src/lv_core/../lv_font/../lv_misc/lv_mem.h **** #endif
  34:lvgl/src/lv_core/../lv_font/../lv_misc/lv_mem.h **** 
  35:lvgl/src/lv_core/../lv_font/../lv_misc/lv_mem.h **** /**********************
  36:lvgl/src/lv_core/../lv_font/../lv_misc/lv_mem.h ****  *      TYPEDEFS
  37:lvgl/src/lv_core/../lv_font/../lv_misc/lv_mem.h ****  **********************/
  38:lvgl/src/lv_core/../lv_font/../lv_misc/lv_mem.h **** 
  39:lvgl/src/lv_core/../lv_font/../lv_misc/lv_mem.h **** /**
  40:lvgl/src/lv_core/../lv_font/../lv_misc/lv_mem.h ****  * Heap information structure.
  41:lvgl/src/lv_core/../lv_font/../lv_misc/lv_mem.h ****  */
  42:lvgl/src/lv_core/../lv_font/../lv_misc/lv_mem.h **** typedef struct {
  43:lvgl/src/lv_core/../lv_font/../lv_misc/lv_mem.h ****     uint32_t total_size; /**< Total heap size */
  44:lvgl/src/lv_core/../lv_font/../lv_misc/lv_mem.h ****     uint32_t free_cnt;
  45:lvgl/src/lv_core/../lv_font/../lv_misc/lv_mem.h ****     uint32_t free_size; /**< Size of available memory */
  46:lvgl/src/lv_core/../lv_font/../lv_misc/lv_mem.h ****     uint32_t free_biggest_size;
  47:lvgl/src/lv_core/../lv_font/../lv_misc/lv_mem.h ****     uint32_t used_cnt;
  48:lvgl/src/lv_core/../lv_font/../lv_misc/lv_mem.h ****     uint32_t max_used; /**< Max size of Heap memory used */
  49:lvgl/src/lv_core/../lv_font/../lv_misc/lv_mem.h ****     uint8_t used_pct; /**< Percentage used */
  50:lvgl/src/lv_core/../lv_font/../lv_misc/lv_mem.h ****     uint8_t frag_pct; /**< Amount of fragmentation */
  51:lvgl/src/lv_core/../lv_font/../lv_misc/lv_mem.h **** } lv_mem_monitor_t;
  52:lvgl/src/lv_core/../lv_font/../lv_misc/lv_mem.h **** 
  53:lvgl/src/lv_core/../lv_font/../lv_misc/lv_mem.h **** typedef struct {
  54:lvgl/src/lv_core/../lv_font/../lv_misc/lv_mem.h ****     void * p;
  55:lvgl/src/lv_core/../lv_font/../lv_misc/lv_mem.h ****     uint16_t size;
  56:lvgl/src/lv_core/../lv_font/../lv_misc/lv_mem.h ****     uint8_t used    : 1;
  57:lvgl/src/lv_core/../lv_font/../lv_misc/lv_mem.h **** } lv_mem_buf_t;
  58:lvgl/src/lv_core/../lv_font/../lv_misc/lv_mem.h **** 
  59:lvgl/src/lv_core/../lv_font/../lv_misc/lv_mem.h **** typedef lv_mem_buf_t lv_mem_buf_arr_t[LV_MEM_BUF_MAX_NUM];
  60:lvgl/src/lv_core/../lv_font/../lv_misc/lv_mem.h **** extern lv_mem_buf_arr_t _lv_mem_buf;
  61:lvgl/src/lv_core/../lv_font/../lv_misc/lv_mem.h **** 
  62:lvgl/src/lv_core/../lv_font/../lv_misc/lv_mem.h **** /**********************
  63:lvgl/src/lv_core/../lv_font/../lv_misc/lv_mem.h ****  * GLOBAL PROTOTYPES
  64:lvgl/src/lv_core/../lv_font/../lv_misc/lv_mem.h ****  **********************/
  65:lvgl/src/lv_core/../lv_font/../lv_misc/lv_mem.h **** 
  66:lvgl/src/lv_core/../lv_font/../lv_misc/lv_mem.h **** /**
  67:lvgl/src/lv_core/../lv_font/../lv_misc/lv_mem.h ****  * Initialize the dyn_mem module (work memory and other variables)
  68:lvgl/src/lv_core/../lv_font/../lv_misc/lv_mem.h ****  */
  69:lvgl/src/lv_core/../lv_font/../lv_misc/lv_mem.h **** void _lv_mem_init(void);
  70:lvgl/src/lv_core/../lv_font/../lv_misc/lv_mem.h **** 
  71:lvgl/src/lv_core/../lv_font/../lv_misc/lv_mem.h **** /**
  72:lvgl/src/lv_core/../lv_font/../lv_misc/lv_mem.h ****  * Clean up the memory buffer which frees all the allocated memories.
  73:lvgl/src/lv_core/../lv_font/../lv_misc/lv_mem.h ****  * @note It work only if `LV_MEM_CUSTOM == 0`
  74:lvgl/src/lv_core/../lv_font/../lv_misc/lv_mem.h ****  */
  75:lvgl/src/lv_core/../lv_font/../lv_misc/lv_mem.h **** void _lv_mem_deinit(void);
  76:lvgl/src/lv_core/../lv_font/../lv_misc/lv_mem.h **** 
ARM GAS  D:\Temp\cceOI0TF.s 			page 69


  77:lvgl/src/lv_core/../lv_font/../lv_misc/lv_mem.h **** /**
  78:lvgl/src/lv_core/../lv_font/../lv_misc/lv_mem.h ****  * Allocate a memory dynamically
  79:lvgl/src/lv_core/../lv_font/../lv_misc/lv_mem.h ****  * @param size size of the memory to allocate in bytes
  80:lvgl/src/lv_core/../lv_font/../lv_misc/lv_mem.h ****  * @return pointer to the allocated memory
  81:lvgl/src/lv_core/../lv_font/../lv_misc/lv_mem.h ****  */
  82:lvgl/src/lv_core/../lv_font/../lv_misc/lv_mem.h **** void * lv_mem_alloc(size_t size);
  83:lvgl/src/lv_core/../lv_font/../lv_misc/lv_mem.h **** 
  84:lvgl/src/lv_core/../lv_font/../lv_misc/lv_mem.h **** /**
  85:lvgl/src/lv_core/../lv_font/../lv_misc/lv_mem.h ****  * Free an allocated data
  86:lvgl/src/lv_core/../lv_font/../lv_misc/lv_mem.h ****  * @param data pointer to an allocated memory
  87:lvgl/src/lv_core/../lv_font/../lv_misc/lv_mem.h ****  */
  88:lvgl/src/lv_core/../lv_font/../lv_misc/lv_mem.h **** void lv_mem_free(const void * data);
  89:lvgl/src/lv_core/../lv_font/../lv_misc/lv_mem.h **** 
  90:lvgl/src/lv_core/../lv_font/../lv_misc/lv_mem.h **** /**
  91:lvgl/src/lv_core/../lv_font/../lv_misc/lv_mem.h ****  * Reallocate a memory with a new size. The old content will be kept.
  92:lvgl/src/lv_core/../lv_font/../lv_misc/lv_mem.h ****  * @param data pointer to an allocated memory.
  93:lvgl/src/lv_core/../lv_font/../lv_misc/lv_mem.h ****  * Its content will be copied to the new memory block and freed
  94:lvgl/src/lv_core/../lv_font/../lv_misc/lv_mem.h ****  * @param new_size the desired new size in byte
  95:lvgl/src/lv_core/../lv_font/../lv_misc/lv_mem.h ****  * @return pointer to the new memory
  96:lvgl/src/lv_core/../lv_font/../lv_misc/lv_mem.h ****  */
  97:lvgl/src/lv_core/../lv_font/../lv_misc/lv_mem.h **** void * lv_mem_realloc(void * data_p, size_t new_size);
  98:lvgl/src/lv_core/../lv_font/../lv_misc/lv_mem.h **** 
  99:lvgl/src/lv_core/../lv_font/../lv_misc/lv_mem.h **** /**
 100:lvgl/src/lv_core/../lv_font/../lv_misc/lv_mem.h ****  * Join the adjacent free memory blocks
 101:lvgl/src/lv_core/../lv_font/../lv_misc/lv_mem.h ****  */
 102:lvgl/src/lv_core/../lv_font/../lv_misc/lv_mem.h **** void lv_mem_defrag(void);
 103:lvgl/src/lv_core/../lv_font/../lv_misc/lv_mem.h **** 
 104:lvgl/src/lv_core/../lv_font/../lv_misc/lv_mem.h **** /**
 105:lvgl/src/lv_core/../lv_font/../lv_misc/lv_mem.h ****  *
 106:lvgl/src/lv_core/../lv_font/../lv_misc/lv_mem.h ****  * @return
 107:lvgl/src/lv_core/../lv_font/../lv_misc/lv_mem.h ****  */
 108:lvgl/src/lv_core/../lv_font/../lv_misc/lv_mem.h **** lv_res_t lv_mem_test(void);
 109:lvgl/src/lv_core/../lv_font/../lv_misc/lv_mem.h **** 
 110:lvgl/src/lv_core/../lv_font/../lv_misc/lv_mem.h **** /**
 111:lvgl/src/lv_core/../lv_font/../lv_misc/lv_mem.h ****  * Give information about the work memory of dynamic allocation
 112:lvgl/src/lv_core/../lv_font/../lv_misc/lv_mem.h ****  * @param mon_p pointer to a dm_mon_p variable,
 113:lvgl/src/lv_core/../lv_font/../lv_misc/lv_mem.h ****  *              the result of the analysis will be stored here
 114:lvgl/src/lv_core/../lv_font/../lv_misc/lv_mem.h ****  */
 115:lvgl/src/lv_core/../lv_font/../lv_misc/lv_mem.h **** void lv_mem_monitor(lv_mem_monitor_t * mon_p);
 116:lvgl/src/lv_core/../lv_font/../lv_misc/lv_mem.h **** 
 117:lvgl/src/lv_core/../lv_font/../lv_misc/lv_mem.h **** /**
 118:lvgl/src/lv_core/../lv_font/../lv_misc/lv_mem.h ****  * Give the size of an allocated memory
 119:lvgl/src/lv_core/../lv_font/../lv_misc/lv_mem.h ****  * @param data pointer to an allocated memory
 120:lvgl/src/lv_core/../lv_font/../lv_misc/lv_mem.h ****  * @return the size of data memory in bytes
 121:lvgl/src/lv_core/../lv_font/../lv_misc/lv_mem.h ****  */
 122:lvgl/src/lv_core/../lv_font/../lv_misc/lv_mem.h **** uint32_t _lv_mem_get_size(const void * data);
 123:lvgl/src/lv_core/../lv_font/../lv_misc/lv_mem.h **** 
 124:lvgl/src/lv_core/../lv_font/../lv_misc/lv_mem.h **** /**
 125:lvgl/src/lv_core/../lv_font/../lv_misc/lv_mem.h ****  * Get a temporal buffer with the given size.
 126:lvgl/src/lv_core/../lv_font/../lv_misc/lv_mem.h ****  * @param size the required size
 127:lvgl/src/lv_core/../lv_font/../lv_misc/lv_mem.h ****  */
 128:lvgl/src/lv_core/../lv_font/../lv_misc/lv_mem.h **** void * _lv_mem_buf_get(uint32_t size);
 129:lvgl/src/lv_core/../lv_font/../lv_misc/lv_mem.h **** 
 130:lvgl/src/lv_core/../lv_font/../lv_misc/lv_mem.h **** /**
 131:lvgl/src/lv_core/../lv_font/../lv_misc/lv_mem.h ****  * Release a memory buffer
 132:lvgl/src/lv_core/../lv_font/../lv_misc/lv_mem.h ****  * @param p buffer to release
 133:lvgl/src/lv_core/../lv_font/../lv_misc/lv_mem.h ****  */
ARM GAS  D:\Temp\cceOI0TF.s 			page 70


 134:lvgl/src/lv_core/../lv_font/../lv_misc/lv_mem.h **** void _lv_mem_buf_release(void * p);
 135:lvgl/src/lv_core/../lv_font/../lv_misc/lv_mem.h **** 
 136:lvgl/src/lv_core/../lv_font/../lv_misc/lv_mem.h **** /**
 137:lvgl/src/lv_core/../lv_font/../lv_misc/lv_mem.h ****  * Free all memory buffers
 138:lvgl/src/lv_core/../lv_font/../lv_misc/lv_mem.h ****  */
 139:lvgl/src/lv_core/../lv_font/../lv_misc/lv_mem.h **** void _lv_mem_buf_free_all(void);
 140:lvgl/src/lv_core/../lv_font/../lv_misc/lv_mem.h **** 
 141:lvgl/src/lv_core/../lv_font/../lv_misc/lv_mem.h **** //! @cond Doxygen_Suppress
 142:lvgl/src/lv_core/../lv_font/../lv_misc/lv_mem.h **** 
 143:lvgl/src/lv_core/../lv_font/../lv_misc/lv_mem.h **** #if LV_MEMCPY_MEMSET_STD
 144:lvgl/src/lv_core/../lv_font/../lv_misc/lv_mem.h **** 
 145:lvgl/src/lv_core/../lv_font/../lv_misc/lv_mem.h **** /**
 146:lvgl/src/lv_core/../lv_font/../lv_misc/lv_mem.h ****  * Wrapper for the standard memcpy
 147:lvgl/src/lv_core/../lv_font/../lv_misc/lv_mem.h ****  * @param dst pointer to the destination buffer
 148:lvgl/src/lv_core/../lv_font/../lv_misc/lv_mem.h ****  * @param src pointer to the source buffer
 149:lvgl/src/lv_core/../lv_font/../lv_misc/lv_mem.h ****  * @param len number of byte to copy
 150:lvgl/src/lv_core/../lv_font/../lv_misc/lv_mem.h ****  */
 151:lvgl/src/lv_core/../lv_font/../lv_misc/lv_mem.h **** static inline void * _lv_memcpy(void * dst, const void * src, size_t len)
 152:lvgl/src/lv_core/../lv_font/../lv_misc/lv_mem.h **** {
 153:lvgl/src/lv_core/../lv_font/../lv_misc/lv_mem.h ****     return memcpy(dst, src, len);
 154:lvgl/src/lv_core/../lv_font/../lv_misc/lv_mem.h **** }
 155:lvgl/src/lv_core/../lv_font/../lv_misc/lv_mem.h **** 
 156:lvgl/src/lv_core/../lv_font/../lv_misc/lv_mem.h **** /**
 157:lvgl/src/lv_core/../lv_font/../lv_misc/lv_mem.h ****  * Wrapper for the standard memcpy
 158:lvgl/src/lv_core/../lv_font/../lv_misc/lv_mem.h ****  * @param dst pointer to the destination buffer
 159:lvgl/src/lv_core/../lv_font/../lv_misc/lv_mem.h ****  * @param src pointer to the source buffer
 160:lvgl/src/lv_core/../lv_font/../lv_misc/lv_mem.h ****  * @param len number of byte to copy
 161:lvgl/src/lv_core/../lv_font/../lv_misc/lv_mem.h ****  */
 162:lvgl/src/lv_core/../lv_font/../lv_misc/lv_mem.h **** static inline void * _lv_memcpy_small(void * dst, const void * src, size_t len)
 163:lvgl/src/lv_core/../lv_font/../lv_misc/lv_mem.h **** {
 164:lvgl/src/lv_core/../lv_font/../lv_misc/lv_mem.h ****     return memcpy(dst, src, len);
 165:lvgl/src/lv_core/../lv_font/../lv_misc/lv_mem.h **** }
 166:lvgl/src/lv_core/../lv_font/../lv_misc/lv_mem.h **** 
 167:lvgl/src/lv_core/../lv_font/../lv_misc/lv_mem.h **** /**
 168:lvgl/src/lv_core/../lv_font/../lv_misc/lv_mem.h ****  * Wrapper for the standard memset
 169:lvgl/src/lv_core/../lv_font/../lv_misc/lv_mem.h ****  * @param dst pointer to the destination buffer
 170:lvgl/src/lv_core/../lv_font/../lv_misc/lv_mem.h ****  * @param v value to set [0..255]
 171:lvgl/src/lv_core/../lv_font/../lv_misc/lv_mem.h ****  * @param len number of byte to set
 172:lvgl/src/lv_core/../lv_font/../lv_misc/lv_mem.h ****  */
 173:lvgl/src/lv_core/../lv_font/../lv_misc/lv_mem.h **** static inline void _lv_memset(void * dst, uint8_t v, size_t len)
 174:lvgl/src/lv_core/../lv_font/../lv_misc/lv_mem.h **** {
 175:lvgl/src/lv_core/../lv_font/../lv_misc/lv_mem.h ****     memset(dst, v, len);
 176:lvgl/src/lv_core/../lv_font/../lv_misc/lv_mem.h **** }
 177:lvgl/src/lv_core/../lv_font/../lv_misc/lv_mem.h **** 
 178:lvgl/src/lv_core/../lv_font/../lv_misc/lv_mem.h **** /**
 179:lvgl/src/lv_core/../lv_font/../lv_misc/lv_mem.h ****  * Wrapper for the standard memset with fixed 0x00 value
 180:lvgl/src/lv_core/../lv_font/../lv_misc/lv_mem.h ****  * @param dst pointer to the destination buffer
 181:lvgl/src/lv_core/../lv_font/../lv_misc/lv_mem.h ****  * @param len number of byte to set
 182:lvgl/src/lv_core/../lv_font/../lv_misc/lv_mem.h ****  */
 183:lvgl/src/lv_core/../lv_font/../lv_misc/lv_mem.h **** static inline void _lv_memset_00(void * dst, size_t len)
 184:lvgl/src/lv_core/../lv_font/../lv_misc/lv_mem.h **** {
 185:lvgl/src/lv_core/../lv_font/../lv_misc/lv_mem.h ****     memset(dst, 0x00, len);
 186:lvgl/src/lv_core/../lv_font/../lv_misc/lv_mem.h **** }
 187:lvgl/src/lv_core/../lv_font/../lv_misc/lv_mem.h **** 
 188:lvgl/src/lv_core/../lv_font/../lv_misc/lv_mem.h **** /**
 189:lvgl/src/lv_core/../lv_font/../lv_misc/lv_mem.h ****  * Wrapper for the standard memset with fixed 0xFF value
 190:lvgl/src/lv_core/../lv_font/../lv_misc/lv_mem.h ****  * @param dst pointer to the destination buffer
ARM GAS  D:\Temp\cceOI0TF.s 			page 71


 191:lvgl/src/lv_core/../lv_font/../lv_misc/lv_mem.h ****  * @param len number of byte to set
 192:lvgl/src/lv_core/../lv_font/../lv_misc/lv_mem.h ****  */
 193:lvgl/src/lv_core/../lv_font/../lv_misc/lv_mem.h **** static inline void _lv_memset_ff(void * dst, size_t len)
 194:lvgl/src/lv_core/../lv_font/../lv_misc/lv_mem.h **** {
 195:lvgl/src/lv_core/../lv_font/../lv_misc/lv_mem.h ****     memset(dst, 0xFF, len);
 196:lvgl/src/lv_core/../lv_font/../lv_misc/lv_mem.h **** }
 197:lvgl/src/lv_core/../lv_font/../lv_misc/lv_mem.h **** 
 198:lvgl/src/lv_core/../lv_font/../lv_misc/lv_mem.h **** #else
 199:lvgl/src/lv_core/../lv_font/../lv_misc/lv_mem.h **** /**
 200:lvgl/src/lv_core/../lv_font/../lv_misc/lv_mem.h ****  * Same as `memcpy` but optimized for 4 byte operation.
 201:lvgl/src/lv_core/../lv_font/../lv_misc/lv_mem.h ****  * @param dst pointer to the destination buffer
 202:lvgl/src/lv_core/../lv_font/../lv_misc/lv_mem.h ****  * @param src pointer to the source buffer
 203:lvgl/src/lv_core/../lv_font/../lv_misc/lv_mem.h ****  * @param len number of byte to copy
 204:lvgl/src/lv_core/../lv_font/../lv_misc/lv_mem.h ****  */
 205:lvgl/src/lv_core/../lv_font/../lv_misc/lv_mem.h **** LV_ATTRIBUTE_FAST_MEM void * _lv_memcpy(void * dst, const void * src, size_t len);
 206:lvgl/src/lv_core/../lv_font/../lv_misc/lv_mem.h **** 
 207:lvgl/src/lv_core/../lv_font/../lv_misc/lv_mem.h **** /**
 208:lvgl/src/lv_core/../lv_font/../lv_misc/lv_mem.h ****  * Same as `memcpy` but optimized to copy only a few bytes.
 209:lvgl/src/lv_core/../lv_font/../lv_misc/lv_mem.h ****  * @param dst pointer to the destination buffer
 210:lvgl/src/lv_core/../lv_font/../lv_misc/lv_mem.h ****  * @param src pointer to the source buffer
 211:lvgl/src/lv_core/../lv_font/../lv_misc/lv_mem.h ****  * @param len number of byte to copy
 212:lvgl/src/lv_core/../lv_font/../lv_misc/lv_mem.h ****  */
 213:lvgl/src/lv_core/../lv_font/../lv_misc/lv_mem.h **** LV_ATTRIBUTE_FAST_MEM static inline void * _lv_memcpy_small(void * dst, const void * src, size_t le
 1789              		.loc 3 213 44 is_stmt 1 view .LVU615
 1790              	.LBB278:
 214:lvgl/src/lv_core/../lv_font/../lv_misc/lv_mem.h **** {
 215:lvgl/src/lv_core/../lv_font/../lv_misc/lv_mem.h ****     uint8_t * d8 = (uint8_t *)dst;
 1791              		.loc 3 215 5 view .LVU616
 216:lvgl/src/lv_core/../lv_font/../lv_misc/lv_mem.h ****     const uint8_t * s8 = (const uint8_t *)src;
 1792              		.loc 3 216 5 view .LVU617
 217:lvgl/src/lv_core/../lv_font/../lv_misc/lv_mem.h **** 
 218:lvgl/src/lv_core/../lv_font/../lv_misc/lv_mem.h ****     while(len) {
 1793              		.loc 3 218 5 view .LVU618
 216:lvgl/src/lv_core/../lv_font/../lv_misc/lv_mem.h ****     const uint8_t * s8 = (const uint8_t *)src;
 1794              		.loc 3 216 21 is_stmt 0 view .LVU619
 1795 00fa 0DF10601 		add	r1, sp, #6
 1796              	.LVL179:
 216:lvgl/src/lv_core/../lv_font/../lv_misc/lv_mem.h ****     const uint8_t * s8 = (const uint8_t *)src;
 1797              		.loc 3 216 21 view .LVU620
 1798              	.LBE278:
 1799              	.LBE277:
 391:lvgl/src/lv_core/lv_style.c ****     _lv_memcpy_small(style->map + size - sizeof(lv_style_int_t) - end_mark_size, &value, sizeof(lv_
 1800              		.loc 1 391 56 view .LVU621
 1801 00fe 0222     		movs	r2, #2
 1802 0100 1BE0     		b	.L122
 1803              	.LVL180:
 1804              	.L129:
 1805              	.LBB280:
 1806              	.LBB265:
1057:lvgl/src/lv_core/lv_style.c **** 
 1807              		.loc 1 1057 35 view .LVU622
 1808 0102 4FF0FF33 		mov	r3, #-1
 1809 0106 CAE7     		b	.L109
 1810              	.LVL181:
 1811              	.L137:
1057:lvgl/src/lv_core/lv_style.c **** 
 1812              		.loc 1 1057 35 view .LVU623
ARM GAS  D:\Temp\cceOI0TF.s 			page 72


 1813              	.LBE265:
 1814              	.LBE280:
 1815              	.LBB281:
 374:lvgl/src/lv_core/lv_style.c ****             return;
 1816              		.loc 1 374 13 is_stmt 1 view .LVU624
 374:lvgl/src/lv_core/lv_style.c ****             return;
 1817              		.loc 1 374 35 is_stmt 0 view .LVU625
 1818 0108 0268     		ldr	r2, [r0]
 374:lvgl/src/lv_core/lv_style.c ****             return;
 1819              		.loc 1 374 46 view .LVU626
 1820 010a 0233     		adds	r3, r3, #2
 1821              	.LVL182:
 374:lvgl/src/lv_core/lv_style.c ****             return;
 1822              		.loc 1 374 46 view .LVU627
 1823 010c 1344     		add	r3, r3, r2
 1824              	.LVL183:
 1825              	.LBB271:
 1826              	.LBI271:
 213:lvgl/src/lv_core/../lv_font/../lv_misc/lv_mem.h **** {
 1827              		.loc 3 213 44 is_stmt 1 view .LVU628
 1828              	.LBB272:
 215:lvgl/src/lv_core/../lv_font/../lv_misc/lv_mem.h ****     const uint8_t * s8 = (const uint8_t *)src;
 1829              		.loc 3 215 5 view .LVU629
 216:lvgl/src/lv_core/../lv_font/../lv_misc/lv_mem.h **** 
 1830              		.loc 3 216 5 view .LVU630
 1831              		.loc 3 218 5 view .LVU631
 216:lvgl/src/lv_core/../lv_font/../lv_misc/lv_mem.h **** 
 1832              		.loc 3 216 21 is_stmt 0 view .LVU632
 1833 010e 01A9     		add	r1, sp, #4
 1834              	.LVL184:
 216:lvgl/src/lv_core/../lv_font/../lv_misc/lv_mem.h **** 
 1835              		.loc 3 216 21 view .LVU633
 1836              	.LBE272:
 1837              	.LBE271:
 374:lvgl/src/lv_core/lv_style.c ****             return;
 1838              		.loc 1 374 46 view .LVU634
 1839 0110 0222     		movs	r2, #2
 1840 0112 04E0     		b	.L116
 1841              	.LVL185:
 1842              	.L117:
 1843              	.LBB274:
 1844              	.LBB273:
 219:lvgl/src/lv_core/../lv_font/../lv_misc/lv_mem.h ****         *d8 = *s8;
 1845              		.loc 3 219 9 is_stmt 1 view .LVU635
 1846              		.loc 3 219 15 is_stmt 0 view .LVU636
 1847 0114 11F8010B 		ldrb	r0, [r1], #1	@ zero_extendqisi2
 1848              	.LVL186:
 1849              		.loc 3 219 13 view .LVU637
 1850 0118 03F8010B 		strb	r0, [r3], #1
 1851              	.LVL187:
 220:lvgl/src/lv_core/../lv_font/../lv_misc/lv_mem.h ****         d8++;
 1852              		.loc 3 220 9 is_stmt 1 view .LVU638
 221:lvgl/src/lv_core/../lv_font/../lv_misc/lv_mem.h ****         s8++;
 1853              		.loc 3 221 9 view .LVU639
 222:lvgl/src/lv_core/../lv_font/../lv_misc/lv_mem.h ****         len--;
 1854              		.loc 3 222 9 view .LVU640
 1855              		.loc 3 222 12 is_stmt 0 view .LVU641
ARM GAS  D:\Temp\cceOI0TF.s 			page 73


 1856 011c 013A     		subs	r2, r2, #1
 1857              	.LVL188:
 1858              	.L116:
 218:lvgl/src/lv_core/../lv_font/../lv_misc/lv_mem.h ****         *d8 = *s8;
 1859              		.loc 3 218 10 view .LVU642
 1860 011e 002A     		cmp	r2, #0
 1861 0120 F8D1     		bne	.L117
 218:lvgl/src/lv_core/../lv_font/../lv_misc/lv_mem.h ****         *d8 = *s8;
 1862              		.loc 3 218 10 view .LVU643
 1863 0122 26E0     		b	.L108
 1864              	.LVL189:
 1865              	.L138:
 218:lvgl/src/lv_core/../lv_font/../lv_misc/lv_mem.h ****         *d8 = *s8;
 1866              		.loc 3 218 10 view .LVU644
 1867              	.LBE273:
 1868              	.LBE274:
 1869              	.LBE281:
 388:lvgl/src/lv_core/lv_style.c ****     if(style == NULL) return;
 1870              		.loc 1 388 5 is_stmt 1 discriminator 1 view .LVU645
 388:lvgl/src/lv_core/lv_style.c ****     if(style == NULL) return;
 1871              		.loc 1 388 5 discriminator 1 view .LVU646
 1872 0124 2A68     		ldr	r2, [r5]
 1873 0126 0023     		movs	r3, #0
 1874 0128 1348     		ldr	r0, .L139
 1875 012a FFF7FEFF 		bl	lv_debug_log_error
 1876              	.LVL190:
 1877              	.L121:
 388:lvgl/src/lv_core/lv_style.c ****     if(style == NULL) return;
 1878              		.loc 1 388 5 discriminator 1 view .LVU647
 388:lvgl/src/lv_core/lv_style.c ****     if(style == NULL) return;
 1879              		.loc 1 388 5 discriminator 1 view .LVU648
 1880 012e FEE7     		b	.L121
 1881              	.LVL191:
 1882              	.L123:
 1883              	.LBB282:
 1884              	.LBB279:
 219:lvgl/src/lv_core/../lv_font/../lv_misc/lv_mem.h ****         d8++;
 1885              		.loc 3 219 9 view .LVU649
 219:lvgl/src/lv_core/../lv_font/../lv_misc/lv_mem.h ****         d8++;
 1886              		.loc 3 219 15 is_stmt 0 view .LVU650
 1887 0130 11F8016B 		ldrb	r6, [r1], #1	@ zero_extendqisi2
 1888              	.LVL192:
 219:lvgl/src/lv_core/../lv_font/../lv_misc/lv_mem.h ****         d8++;
 1889              		.loc 3 219 13 view .LVU651
 1890 0134 03F8016B 		strb	r6, [r3], #1
 1891              	.LVL193:
 220:lvgl/src/lv_core/../lv_font/../lv_misc/lv_mem.h ****         s8++;
 1892              		.loc 3 220 9 is_stmt 1 view .LVU652
 221:lvgl/src/lv_core/../lv_font/../lv_misc/lv_mem.h ****         len--;
 1893              		.loc 3 221 9 view .LVU653
 1894              		.loc 3 222 9 view .LVU654
 1895              		.loc 3 222 12 is_stmt 0 view .LVU655
 1896 0138 013A     		subs	r2, r2, #1
 1897              	.LVL194:
 1898              	.L122:
 218:lvgl/src/lv_core/../lv_font/../lv_misc/lv_mem.h ****         *d8 = *s8;
 1899              		.loc 3 218 10 view .LVU656
ARM GAS  D:\Temp\cceOI0TF.s 			page 74


 1900 013a 002A     		cmp	r2, #0
 1901 013c F8D1     		bne	.L123
 223:lvgl/src/lv_core/../lv_font/../lv_misc/lv_mem.h ****     }
 224:lvgl/src/lv_core/../lv_font/../lv_misc/lv_mem.h **** 
 225:lvgl/src/lv_core/../lv_font/../lv_misc/lv_mem.h ****     return dst;
 1902              		.loc 3 225 5 is_stmt 1 view .LVU657
 1903              	.LVL195:
 1904              		.loc 3 225 5 is_stmt 0 view .LVU658
 1905              	.LBE279:
 1906              	.LBE282:
 392:lvgl/src/lv_core/lv_style.c ****     _lv_memcpy_small(style->map + size - end_mark_size, &end_mark, sizeof(end_mark));
 1907              		.loc 1 392 5 is_stmt 1 view .LVU659
 392:lvgl/src/lv_core/lv_style.c ****     _lv_memcpy_small(style->map + size - end_mark_size, &end_mark, sizeof(end_mark));
 1908              		.loc 1 392 27 is_stmt 0 view .LVU660
 1909 013e 2B68     		ldr	r3, [r5]
 392:lvgl/src/lv_core/lv_style.c ****     _lv_memcpy_small(style->map + size - end_mark_size, &end_mark, sizeof(end_mark));
 1910              		.loc 1 392 65 view .LVU661
 1911 0140 023C     		subs	r4, r4, #2
 1912 0142 0344     		add	r3, r3, r0
 1913              	.LVL196:
 1914              	.LBB283:
 1915              	.LBI283:
 213:lvgl/src/lv_core/../lv_font/../lv_misc/lv_mem.h **** {
 1916              		.loc 3 213 44 is_stmt 1 view .LVU662
 1917              	.LBB284:
 216:lvgl/src/lv_core/../lv_font/../lv_misc/lv_mem.h **** 
 1918              		.loc 3 216 21 is_stmt 0 view .LVU663
 1919 0144 01A9     		add	r1, sp, #4
 1920              	.LVL197:
 216:lvgl/src/lv_core/../lv_font/../lv_misc/lv_mem.h **** 
 1921              		.loc 3 216 21 view .LVU664
 1922              	.LBE284:
 1923              	.LBE283:
 392:lvgl/src/lv_core/lv_style.c ****     _lv_memcpy_small(style->map + size - end_mark_size, &end_mark, sizeof(end_mark));
 1924              		.loc 1 392 65 view .LVU665
 1925 0146 0222     		movs	r2, #2
 1926 0148 04E0     		b	.L124
 1927              	.LVL198:
 1928              	.L125:
 1929              	.LBB286:
 1930              	.LBB285:
 219:lvgl/src/lv_core/../lv_font/../lv_misc/lv_mem.h ****         d8++;
 1931              		.loc 3 219 9 is_stmt 1 view .LVU666
 219:lvgl/src/lv_core/../lv_font/../lv_misc/lv_mem.h ****         d8++;
 1932              		.loc 3 219 15 is_stmt 0 view .LVU667
 1933 014a 11F8010B 		ldrb	r0, [r1], #1	@ zero_extendqisi2
 1934              	.LVL199:
 219:lvgl/src/lv_core/../lv_font/../lv_misc/lv_mem.h ****         d8++;
 1935              		.loc 3 219 13 view .LVU668
 1936 014e 03F8010B 		strb	r0, [r3], #1
 1937              	.LVL200:
 220:lvgl/src/lv_core/../lv_font/../lv_misc/lv_mem.h ****         s8++;
 1938              		.loc 3 220 9 is_stmt 1 view .LVU669
 221:lvgl/src/lv_core/../lv_font/../lv_misc/lv_mem.h ****         len--;
 1939              		.loc 3 221 9 view .LVU670
 222:lvgl/src/lv_core/../lv_font/../lv_misc/lv_mem.h ****     }
 1940              		.loc 3 222 9 view .LVU671
ARM GAS  D:\Temp\cceOI0TF.s 			page 75


 222:lvgl/src/lv_core/../lv_font/../lv_misc/lv_mem.h ****     }
 1941              		.loc 3 222 12 is_stmt 0 view .LVU672
 1942 0152 013A     		subs	r2, r2, #1
 1943              	.LVL201:
 1944              	.L124:
 218:lvgl/src/lv_core/../lv_font/../lv_misc/lv_mem.h ****         *d8 = *s8;
 1945              		.loc 3 218 10 view .LVU673
 1946 0154 002A     		cmp	r2, #0
 1947 0156 F8D1     		bne	.L125
 1948              		.loc 3 225 5 is_stmt 1 view .LVU674
 1949              	.LVL202:
 1950              		.loc 3 225 5 is_stmt 0 view .LVU675
 1951              	.LBE285:
 1952              	.LBE286:
 393:lvgl/src/lv_core/lv_style.c **** }
 1953              		.loc 1 393 5 is_stmt 1 view .LVU676
 393:lvgl/src/lv_core/lv_style.c **** }
 1954              		.loc 1 393 27 is_stmt 0 view .LVU677
 1955 0158 2B68     		ldr	r3, [r5]
 393:lvgl/src/lv_core/lv_style.c **** }
 1956              		.loc 1 393 40 view .LVU678
 1957 015a 1C44     		add	r4, r4, r3
 1958              	.LVL203:
 1959              	.LBB287:
 1960              	.LBI287:
 213:lvgl/src/lv_core/../lv_font/../lv_misc/lv_mem.h **** {
 1961              		.loc 3 213 44 is_stmt 1 view .LVU679
 1962              	.LBB288:
 216:lvgl/src/lv_core/../lv_font/../lv_misc/lv_mem.h **** 
 1963              		.loc 3 216 21 is_stmt 0 view .LVU680
 1964 015c 0DF10E02 		add	r2, sp, #14
 1965              	.LVL204:
 216:lvgl/src/lv_core/../lv_font/../lv_misc/lv_mem.h **** 
 1966              		.loc 3 216 21 view .LVU681
 1967              	.LBE288:
 1968              	.LBE287:
 393:lvgl/src/lv_core/lv_style.c **** }
 1969              		.loc 1 393 40 view .LVU682
 1970 0160 0223     		movs	r3, #2
 1971 0162 04E0     		b	.L126
 1972              	.LVL205:
 1973              	.L127:
 1974              	.LBB290:
 1975              	.LBB289:
 219:lvgl/src/lv_core/../lv_font/../lv_misc/lv_mem.h ****         d8++;
 1976              		.loc 3 219 9 is_stmt 1 view .LVU683
 219:lvgl/src/lv_core/../lv_font/../lv_misc/lv_mem.h ****         d8++;
 1977              		.loc 3 219 15 is_stmt 0 view .LVU684
 1978 0164 12F8011B 		ldrb	r1, [r2], #1	@ zero_extendqisi2
 1979              	.LVL206:
 219:lvgl/src/lv_core/../lv_font/../lv_misc/lv_mem.h ****         d8++;
 1980              		.loc 3 219 13 view .LVU685
 1981 0168 04F8011B 		strb	r1, [r4], #1
 1982              	.LVL207:
 220:lvgl/src/lv_core/../lv_font/../lv_misc/lv_mem.h ****         s8++;
 1983              		.loc 3 220 9 is_stmt 1 view .LVU686
 221:lvgl/src/lv_core/../lv_font/../lv_misc/lv_mem.h ****         len--;
ARM GAS  D:\Temp\cceOI0TF.s 			page 76


 1984              		.loc 3 221 9 view .LVU687
 222:lvgl/src/lv_core/../lv_font/../lv_misc/lv_mem.h ****     }
 1985              		.loc 3 222 9 view .LVU688
 222:lvgl/src/lv_core/../lv_font/../lv_misc/lv_mem.h ****     }
 1986              		.loc 3 222 12 is_stmt 0 view .LVU689
 1987 016c 013B     		subs	r3, r3, #1
 1988              	.LVL208:
 1989              	.L126:
 218:lvgl/src/lv_core/../lv_font/../lv_misc/lv_mem.h ****         *d8 = *s8;
 1990              		.loc 3 218 10 view .LVU690
 1991 016e 002B     		cmp	r3, #0
 1992 0170 F8D1     		bne	.L127
 1993              	.LVL209:
 1994              	.L108:
 218:lvgl/src/lv_core/../lv_font/../lv_misc/lv_mem.h ****         *d8 = *s8;
 1995              		.loc 3 218 10 view .LVU691
 1996              	.LBE289:
 1997              	.LBE290:
 394:lvgl/src/lv_core/lv_style.c **** 
 1998              		.loc 1 394 1 view .LVU692
 1999 0172 05B0     		add	sp, sp, #20
 2000              	.LCFI19:
 2001              		.cfi_def_cfa_offset 20
 2002              		@ sp needed
 2003 0174 F0BD     		pop	{r4, r5, r6, r7, pc}
 2004              	.L140:
 2005 0176 00BF     		.align	2
 2006              	.L139:
 2007 0178 00000000 		.word	.LC0
 2008              		.cfi_endproc
 2009              	.LFE468:
 2011              		.section	.text._lv_style_set_color,"ax",%progbits
 2012              		.align	1
 2013              		.global	_lv_style_set_color
 2014              		.syntax unified
 2015              		.thumb
 2016              		.thumb_func
 2017              		.fpu fpv4-sp-d16
 2019              	_lv_style_set_color:
 2020              	.LVL210:
 2021              	.LFB469:
 407:lvgl/src/lv_core/lv_style.c ****     LV_ASSERT_STYLE(style);
 2022              		.loc 1 407 1 is_stmt 1 view -0
 2023              		.cfi_startproc
 2024              		@ args = 0, pretend = 0, frame = 16
 2025              		@ frame_needed = 0, uses_anonymous_args = 0
 407:lvgl/src/lv_core/lv_style.c ****     LV_ASSERT_STYLE(style);
 2026              		.loc 1 407 1 is_stmt 0 view .LVU694
 2027 0000 F0B5     		push	{r4, r5, r6, r7, lr}
 2028              	.LCFI20:
 2029              		.cfi_def_cfa_offset 20
 2030              		.cfi_offset 4, -20
 2031              		.cfi_offset 5, -16
 2032              		.cfi_offset 6, -12
 2033              		.cfi_offset 7, -8
 2034              		.cfi_offset 14, -4
 2035 0002 85B0     		sub	sp, sp, #20
ARM GAS  D:\Temp\cceOI0TF.s 			page 77


 2036              	.LCFI21:
 2037              		.cfi_def_cfa_offset 40
 2038 0004 ADF80420 		strh	r2, [sp, #4]	@ movhi
 2039 0008 ADF80610 		strh	r1, [sp, #6]	@ movhi
 408:lvgl/src/lv_core/lv_style.c **** 
 2040              		.loc 1 408 27 is_stmt 1 view .LVU695
 410:lvgl/src/lv_core/lv_style.c ****     /*The property already exists but not sure it's state is the same*/
 2041              		.loc 1 410 5 view .LVU696
 2042              	.LVL211:
 2043              	.LBB321:
 2044              	.LBI321:
1053:lvgl/src/lv_core/lv_style.c **** {
 2045              		.loc 1 1053 45 view .LVU697
 2046              	.LBB322:
1055:lvgl/src/lv_core/lv_style.c **** 
 2047              		.loc 1 1055 27 view .LVU698
1057:lvgl/src/lv_core/lv_style.c **** 
 2048              		.loc 1 1057 5 view .LVU699
1057:lvgl/src/lv_core/lv_style.c **** 
 2049              		.loc 1 1057 13 is_stmt 0 view .LVU700
 2050 000c 0368     		ldr	r3, [r0]
1057:lvgl/src/lv_core/lv_style.c **** 
 2051              		.loc 1 1057 7 view .LVU701
 2052 000e 002B     		cmp	r3, #0
 2053 0010 77D0     		beq	.L162
1059:lvgl/src/lv_core/lv_style.c ****     lv_style_attr_t attr;
 2054              		.loc 1 1059 5 is_stmt 1 view .LVU702
1059:lvgl/src/lv_core/lv_style.c ****     lv_style_attr_t attr;
 2055              		.loc 1 1059 13 is_stmt 0 view .LVU703
 2056 0012 CFB2     		uxtb	r7, r1
 2057              	.LVL212:
1060:lvgl/src/lv_core/lv_style.c ****     attr = (prop >> 8) & 0xFF;
 2058              		.loc 1 1060 5 is_stmt 1 view .LVU704
1061:lvgl/src/lv_core/lv_style.c **** 
 2059              		.loc 1 1061 5 view .LVU705
1061:lvgl/src/lv_core/lv_style.c **** 
 2060              		.loc 1 1061 10 is_stmt 0 view .LVU706
 2061 0014 0E0A     		lsrs	r6, r1, #8
 2062              	.LVL213:
1063:lvgl/src/lv_core/lv_style.c ****     int16_t id_guess = -1;
 2063              		.loc 1 1063 5 is_stmt 1 view .LVU707
1064:lvgl/src/lv_core/lv_style.c **** 
 2064              		.loc 1 1064 5 view .LVU708
1066:lvgl/src/lv_core/lv_style.c **** 
 2065              		.loc 1 1066 5 view .LVU709
1068:lvgl/src/lv_core/lv_style.c ****     while((prop_id = get_style_prop_id(style, i)) != _LV_STYLE_CLOSING_PROP) {
 2066              		.loc 1 1068 5 view .LVU710
1069:lvgl/src/lv_core/lv_style.c ****         if(prop_id == id_to_find) {
 2067              		.loc 1 1069 5 view .LVU711
1066:lvgl/src/lv_core/lv_style.c **** 
 2068              		.loc 1 1066 12 is_stmt 0 view .LVU712
 2069 0016 0022     		movs	r2, #0
1064:lvgl/src/lv_core/lv_style.c **** 
 2070              		.loc 1 1064 13 view .LVU713
 2071 0018 4FF0FF35 		mov	r5, #-1
1063:lvgl/src/lv_core/lv_style.c ****     int16_t id_guess = -1;
 2072              		.loc 1 1063 13 view .LVU714
ARM GAS  D:\Temp\cceOI0TF.s 			page 78


 2073 001c AC46     		mov	ip, r5
 2074 001e 21E0     		b	.L143
 2075              	.LVL214:
 2076              	.L169:
 2077              	.LBB323:
1071:lvgl/src/lv_core/lv_style.c ****             attr_i = get_style_prop_attr(style, i);
 2078              		.loc 1 1071 13 is_stmt 1 view .LVU715
1072:lvgl/src/lv_core/lv_style.c **** 
 2079              		.loc 1 1072 13 view .LVU716
 2080              	.LBB324:
 2081              	.LBI324:
1164:lvgl/src/lv_core/lv_style.c **** {
 2082              		.loc 1 1164 23 view .LVU717
 2083              	.LBB325:
1166:lvgl/src/lv_core/lv_style.c **** }
 2084              		.loc 1 1166 5 view .LVU718
 2085              	.LBB326:
 2086              	.LBI326:
1138:lvgl/src/lv_core/lv_style.c **** {
 2087              		.loc 1 1138 35 view .LVU719
 2088              	.LBB327:
1140:lvgl/src/lv_core/lv_style.c ****     uint8_t * prop_p = (uint8_t *)&prop;
 2089              		.loc 1 1140 5 view .LVU720
1141:lvgl/src/lv_core/lv_style.c ****     prop_p[0] = style->map[idx];
 2090              		.loc 1 1141 5 view .LVU721
1142:lvgl/src/lv_core/lv_style.c ****     prop_p[1] = style->map[idx + 1];
 2091              		.loc 1 1142 5 view .LVU722
1142:lvgl/src/lv_core/lv_style.c ****     prop_p[1] = style->map[idx + 1];
 2092              		.loc 1 1142 22 is_stmt 0 view .LVU723
 2093 0020 0468     		ldr	r4, [r0]
1142:lvgl/src/lv_core/lv_style.c ****     prop_p[1] = style->map[idx + 1];
 2094              		.loc 1 1142 27 view .LVU724
 2095 0022 14F802E0 		ldrb	lr, [r4, r2]	@ zero_extendqisi2
1142:lvgl/src/lv_core/lv_style.c ****     prop_p[1] = style->map[idx + 1];
 2096              		.loc 1 1142 15 view .LVU725
 2097 0026 8DF80CE0 		strb	lr, [sp, #12]
1143:lvgl/src/lv_core/lv_style.c ****     return prop;
 2098              		.loc 1 1143 5 is_stmt 1 view .LVU726
1143:lvgl/src/lv_core/lv_style.c ****     return prop;
 2099              		.loc 1 1143 27 is_stmt 0 view .LVU727
 2100 002a 615C     		ldrb	r1, [r4, r1]	@ zero_extendqisi2
1143:lvgl/src/lv_core/lv_style.c ****     return prop;
 2101              		.loc 1 1143 15 view .LVU728
 2102 002c 8DF80D10 		strb	r1, [sp, #13]
1144:lvgl/src/lv_core/lv_style.c **** }
 2103              		.loc 1 1144 5 is_stmt 1 view .LVU729
1144:lvgl/src/lv_core/lv_style.c **** }
 2104              		.loc 1 1144 12 is_stmt 0 view .LVU730
 2105 0030 BDF80C40 		ldrh	r4, [sp, #12]
 2106              	.LVL215:
1144:lvgl/src/lv_core/lv_style.c **** }
 2107              		.loc 1 1144 12 view .LVU731
 2108              	.LBE327:
 2109              	.LBE326:
1166:lvgl/src/lv_core/lv_style.c **** }
 2110              		.loc 1 1166 47 view .LVU732
 2111 0034 240A     		lsrs	r4, r4, #8
ARM GAS  D:\Temp\cceOI0TF.s 			page 79


 2112 0036 E1B2     		uxtb	r1, r4
 2113              	.LVL216:
1166:lvgl/src/lv_core/lv_style.c **** }
 2114              		.loc 1 1166 47 view .LVU733
 2115              	.LBE325:
 2116              	.LBE324:
1075:lvgl/src/lv_core/lv_style.c ****                 return i;
 2117              		.loc 1 1075 13 is_stmt 1 view .LVU734
1075:lvgl/src/lv_core/lv_style.c ****                 return i;
 2118              		.loc 1 1075 48 is_stmt 0 view .LVU735
 2119 0038 86EA010E 		eor	lr, r6, r1
1075:lvgl/src/lv_core/lv_style.c ****                 return i;
 2120              		.loc 1 1075 15 view .LVU736
 2121 003c 1EF07F0F 		tst	lr, #127
 2122 0040 0CD0     		beq	.L167
1080:lvgl/src/lv_core/lv_style.c ****                 /* Use this property if it describes better the requested state than the current ca
 2123              		.loc 1 1080 18 is_stmt 1 view .LVU737
1080:lvgl/src/lv_core/lv_style.c ****                 /* Use this property if it describes better the requested state than the current ca
 2124              		.loc 1 1080 22 is_stmt 0 view .LVU738
 2125 0042 01F07F01 		and	r1, r1, #127
 2126              	.LVL217:
1080:lvgl/src/lv_core/lv_style.c ****                 /* Use this property if it describes better the requested state than the current ca
 2127              		.loc 1 1080 58 view .LVU739
 2128 0046 06F07F0E 		and	lr, r6, #127
1080:lvgl/src/lv_core/lv_style.c ****                 /* Use this property if it describes better the requested state than the current ca
 2129              		.loc 1 1080 20 view .LVU740
 2130 004a 31EA0E0E 		bics	lr, r1, lr
 2131 004e 17D1     		bne	.L144
1083:lvgl/src/lv_core/lv_style.c ****                     weight = LV_STYLE_ATTR_GET_STATE(attr_i);
 2132              		.loc 1 1083 17 is_stmt 1 view .LVU741
1083:lvgl/src/lv_core/lv_style.c ****                     weight = LV_STYLE_ATTR_GET_STATE(attr_i);
 2133              		.loc 1 1083 19 is_stmt 0 view .LVU742
 2134 0050 6145     		cmp	r1, ip
 2135 0052 15DD     		ble	.L144
1084:lvgl/src/lv_core/lv_style.c ****                     id_guess = i;
 2136              		.loc 1 1084 21 is_stmt 1 view .LVU743
1084:lvgl/src/lv_core/lv_style.c ****                     id_guess = i;
 2137              		.loc 1 1084 28 is_stmt 0 view .LVU744
 2138 0054 04F07F0C 		and	ip, r4, #127
 2139              	.LVL218:
1085:lvgl/src/lv_core/lv_style.c ****                 }
 2140              		.loc 1 1085 21 is_stmt 1 view .LVU745
1085:lvgl/src/lv_core/lv_style.c ****                 }
 2141              		.loc 1 1085 30 is_stmt 0 view .LVU746
 2142 0058 15B2     		sxth	r5, r2
 2143              	.LVL219:
1085:lvgl/src/lv_core/lv_style.c ****                 }
 2144              		.loc 1 1085 30 view .LVU747
 2145 005a 11E0     		b	.L144
 2146              	.LVL220:
 2147              	.L167:
1076:lvgl/src/lv_core/lv_style.c ****             }
 2148              		.loc 1 1076 17 is_stmt 1 view .LVU748
1076:lvgl/src/lv_core/lv_style.c ****             }
 2149              		.loc 1 1076 24 is_stmt 0 view .LVU749
 2150 005c 1346     		mov	r3, r2
 2151              	.LVL221:
ARM GAS  D:\Temp\cceOI0TF.s 			page 80


1076:lvgl/src/lv_core/lv_style.c ****             }
 2152              		.loc 1 1076 24 view .LVU750
 2153 005e 1EE0     		b	.L142
 2154              	.LVL222:
 2155              	.L163:
1076:lvgl/src/lv_core/lv_style.c ****             }
 2156              		.loc 1 1076 24 view .LVU751
 2157              	.LBE323:
 2158              	.LBB328:
 2159              	.LBB329:
 2160              	.LBB330:
 2161              	.LBB331:
1179:lvgl/src/lv_core/lv_style.c ****     else if(prop_id < LV_STYLE_ID_OPA) size += sizeof(lv_color_t);
 2162              		.loc 1 1179 42 view .LVU752
 2163 0060 0421     		movs	r1, #4
 2164              	.L146:
 2165              	.LVL223:
1183:lvgl/src/lv_core/lv_style.c **** }
 2166              		.loc 1 1183 5 is_stmt 1 view .LVU753
1183:lvgl/src/lv_core/lv_style.c **** }
 2167              		.loc 1 1183 5 is_stmt 0 view .LVU754
 2168              	.LBE331:
 2169              	.LBE330:
 2170              		.loc 1 1194 16 view .LVU755
 2171 0062 0A44     		add	r2, r2, r1
 2172              	.LVL224:
 2173              	.L143:
 2174              		.loc 1 1194 16 view .LVU756
 2175              	.LBE329:
 2176              	.LBE328:
 2177              	.LBB335:
 2178              	.LBI335:
1153:lvgl/src/lv_core/lv_style.c **** {
 2179              		.loc 1 1153 23 is_stmt 1 view .LVU757
 2180              	.LBB336:
1155:lvgl/src/lv_core/lv_style.c **** }
 2181              		.loc 1 1155 5 view .LVU758
 2182              	.LBB337:
 2183              	.LBI337:
1138:lvgl/src/lv_core/lv_style.c **** {
 2184              		.loc 1 1138 35 view .LVU759
 2185              	.LBB338:
1140:lvgl/src/lv_core/lv_style.c ****     uint8_t * prop_p = (uint8_t *)&prop;
 2186              		.loc 1 1140 5 view .LVU760
1141:lvgl/src/lv_core/lv_style.c ****     prop_p[0] = style->map[idx];
 2187              		.loc 1 1141 5 view .LVU761
1142:lvgl/src/lv_core/lv_style.c ****     prop_p[1] = style->map[idx + 1];
 2188              		.loc 1 1142 5 view .LVU762
1142:lvgl/src/lv_core/lv_style.c ****     prop_p[1] = style->map[idx + 1];
 2189              		.loc 1 1142 22 is_stmt 0 view .LVU763
 2190 0064 0368     		ldr	r3, [r0]
1142:lvgl/src/lv_core/lv_style.c ****     prop_p[1] = style->map[idx + 1];
 2191              		.loc 1 1142 27 view .LVU764
 2192 0066 995C     		ldrb	r1, [r3, r2]	@ zero_extendqisi2
1142:lvgl/src/lv_core/lv_style.c ****     prop_p[1] = style->map[idx + 1];
 2193              		.loc 1 1142 15 view .LVU765
 2194 0068 8DF80C10 		strb	r1, [sp, #12]
ARM GAS  D:\Temp\cceOI0TF.s 			page 81


1143:lvgl/src/lv_core/lv_style.c ****     return prop;
 2195              		.loc 1 1143 5 is_stmt 1 view .LVU766
1143:lvgl/src/lv_core/lv_style.c ****     return prop;
 2196              		.loc 1 1143 27 is_stmt 0 view .LVU767
 2197 006c 511C     		adds	r1, r2, #1
 2198 006e 5C5C     		ldrb	r4, [r3, r1]	@ zero_extendqisi2
1143:lvgl/src/lv_core/lv_style.c ****     return prop;
 2199              		.loc 1 1143 15 view .LVU768
 2200 0070 8DF80D40 		strb	r4, [sp, #13]
1144:lvgl/src/lv_core/lv_style.c **** }
 2201              		.loc 1 1144 5 is_stmt 1 view .LVU769
 2202              	.LVL225:
1144:lvgl/src/lv_core/lv_style.c **** }
 2203              		.loc 1 1144 5 is_stmt 0 view .LVU770
 2204              	.LBE338:
 2205              	.LBE337:
1155:lvgl/src/lv_core/lv_style.c **** }
 2206              		.loc 1 1155 39 view .LVU771
 2207 0074 9DF80C30 		ldrb	r3, [sp, #12]	@ zero_extendqisi2
 2208              	.LVL226:
1155:lvgl/src/lv_core/lv_style.c **** }
 2209              		.loc 1 1155 39 view .LVU772
 2210              	.LBE336:
 2211              	.LBE335:
1069:lvgl/src/lv_core/lv_style.c ****         if(prop_id == id_to_find) {
 2212              		.loc 1 1069 10 view .LVU773
 2213 0078 FF2B     		cmp	r3, #255
 2214 007a 0FD0     		beq	.L168
1070:lvgl/src/lv_core/lv_style.c ****             lv_style_attr_t attr_i;
 2215              		.loc 1 1070 9 is_stmt 1 view .LVU774
1070:lvgl/src/lv_core/lv_style.c ****             lv_style_attr_t attr_i;
 2216              		.loc 1 1070 11 is_stmt 0 view .LVU775
 2217 007c 9F42     		cmp	r7, r3
 2218 007e CFD0     		beq	.L169
 2219              	.L144:
1090:lvgl/src/lv_core/lv_style.c ****     }
 2220              		.loc 1 1090 9 is_stmt 1 view .LVU776
 2221              	.LVL227:
 2222              	.LBB339:
 2223              	.LBI328:
1192:lvgl/src/lv_core/lv_style.c **** {
 2224              		.loc 1 1192 22 view .LVU777
 2225              	.LBB334:
 2226              		.loc 1 1194 5 view .LVU778
 2227              	.LBB333:
 2228              	.LBI330:
1175:lvgl/src/lv_core/lv_style.c **** {
 2229              		.loc 1 1175 22 view .LVU779
 2230              	.LBB332:
1177:lvgl/src/lv_core/lv_style.c ****     size_t size = sizeof(lv_style_property_t);
 2231              		.loc 1 1177 5 view .LVU780
1177:lvgl/src/lv_core/lv_style.c ****     size_t size = sizeof(lv_style_property_t);
 2232              		.loc 1 1177 13 is_stmt 0 view .LVU781
 2233 0080 03F00F03 		and	r3, r3, #15
 2234              	.LVL228:
1178:lvgl/src/lv_core/lv_style.c ****     if(prop_id < LV_STYLE_ID_COLOR) size += sizeof(lv_style_int_t);
 2235              		.loc 1 1178 5 is_stmt 1 view .LVU782
ARM GAS  D:\Temp\cceOI0TF.s 			page 82


1179:lvgl/src/lv_core/lv_style.c ****     else if(prop_id < LV_STYLE_ID_OPA) size += sizeof(lv_color_t);
 2236              		.loc 1 1179 5 view .LVU783
1179:lvgl/src/lv_core/lv_style.c ****     else if(prop_id < LV_STYLE_ID_OPA) size += sizeof(lv_color_t);
 2237              		.loc 1 1179 7 is_stmt 0 view .LVU784
 2238 0084 082B     		cmp	r3, #8
 2239 0086 EBD9     		bls	.L163
1180:lvgl/src/lv_core/lv_style.c ****     else if(prop_id < LV_STYLE_ID_PTR) size += sizeof(lv_opa_t);
 2240              		.loc 1 1180 10 is_stmt 1 view .LVU785
1180:lvgl/src/lv_core/lv_style.c ****     else if(prop_id < LV_STYLE_ID_PTR) size += sizeof(lv_opa_t);
 2241              		.loc 1 1180 12 is_stmt 0 view .LVU786
 2242 0088 0B2B     		cmp	r3, #11
 2243 008a 03D9     		bls	.L164
1181:lvgl/src/lv_core/lv_style.c ****     else size += sizeof(const void *);
 2244              		.loc 1 1181 10 is_stmt 1 view .LVU787
1181:lvgl/src/lv_core/lv_style.c ****     else size += sizeof(const void *);
 2245              		.loc 1 1181 12 is_stmt 0 view .LVU788
 2246 008c 0D2B     		cmp	r3, #13
 2247 008e 03D8     		bhi	.L165
1181:lvgl/src/lv_core/lv_style.c ****     else size += sizeof(const void *);
 2248              		.loc 1 1181 45 view .LVU789
 2249 0090 0321     		movs	r1, #3
 2250 0092 E6E7     		b	.L146
 2251              	.L164:
1180:lvgl/src/lv_core/lv_style.c ****     else if(prop_id < LV_STYLE_ID_PTR) size += sizeof(lv_opa_t);
 2252              		.loc 1 1180 45 view .LVU790
 2253 0094 0421     		movs	r1, #4
 2254 0096 E4E7     		b	.L146
 2255              	.L165:
1182:lvgl/src/lv_core/lv_style.c ****     return size;
 2256              		.loc 1 1182 15 view .LVU791
 2257 0098 0621     		movs	r1, #6
 2258 009a E2E7     		b	.L146
 2259              	.LVL229:
 2260              	.L168:
1182:lvgl/src/lv_core/lv_style.c ****     return size;
 2261              		.loc 1 1182 15 view .LVU792
 2262              	.LBE332:
 2263              	.LBE333:
 2264              	.LBE334:
 2265              	.LBE339:
1093:lvgl/src/lv_core/lv_style.c **** }
 2266              		.loc 1 1093 5 is_stmt 1 view .LVU793
1093:lvgl/src/lv_core/lv_style.c **** }
 2267              		.loc 1 1093 12 is_stmt 0 view .LVU794
 2268 009c 2B46     		mov	r3, r5
 2269              	.LVL230:
 2270              	.L142:
1093:lvgl/src/lv_core/lv_style.c **** }
 2271              		.loc 1 1093 12 view .LVU795
 2272              	.LBE322:
 2273              	.LBE321:
 412:lvgl/src/lv_core/lv_style.c ****         lv_style_attr_t attr_found;
 2274              		.loc 1 412 5 is_stmt 1 view .LVU796
 412:lvgl/src/lv_core/lv_style.c ****         lv_style_attr_t attr_found;
 2275              		.loc 1 412 7 is_stmt 0 view .LVU797
 2276 009e 002B     		cmp	r3, #0
 2277 00a0 11DB     		blt	.L148
ARM GAS  D:\Temp\cceOI0TF.s 			page 83


 2278              	.LBB341:
 413:lvgl/src/lv_core/lv_style.c ****         lv_style_attr_t attr_goal;
 2279              		.loc 1 413 9 is_stmt 1 view .LVU798
 414:lvgl/src/lv_core/lv_style.c **** 
 2280              		.loc 1 414 9 view .LVU799
 416:lvgl/src/lv_core/lv_style.c ****         attr_goal = (prop >> 8) & 0xFFU;
 2281              		.loc 1 416 9 view .LVU800
 2282              	.LVL231:
 2283              	.LBB342:
 2284              	.LBI342:
1164:lvgl/src/lv_core/lv_style.c **** {
 2285              		.loc 1 1164 23 view .LVU801
 2286              	.LBB343:
1166:lvgl/src/lv_core/lv_style.c **** }
 2287              		.loc 1 1166 5 view .LVU802
 2288              	.LBB344:
 2289              	.LBI344:
1138:lvgl/src/lv_core/lv_style.c **** {
 2290              		.loc 1 1138 35 view .LVU803
 2291              	.LBB345:
1140:lvgl/src/lv_core/lv_style.c ****     uint8_t * prop_p = (uint8_t *)&prop;
 2292              		.loc 1 1140 5 view .LVU804
1141:lvgl/src/lv_core/lv_style.c ****     prop_p[0] = style->map[idx];
 2293              		.loc 1 1141 5 view .LVU805
1142:lvgl/src/lv_core/lv_style.c ****     prop_p[1] = style->map[idx + 1];
 2294              		.loc 1 1142 5 view .LVU806
1142:lvgl/src/lv_core/lv_style.c ****     prop_p[1] = style->map[idx + 1];
 2295              		.loc 1 1142 22 is_stmt 0 view .LVU807
 2296 00a2 0268     		ldr	r2, [r0]
1142:lvgl/src/lv_core/lv_style.c ****     prop_p[1] = style->map[idx + 1];
 2297              		.loc 1 1142 27 view .LVU808
 2298 00a4 D15C     		ldrb	r1, [r2, r3]	@ zero_extendqisi2
1142:lvgl/src/lv_core/lv_style.c ****     prop_p[1] = style->map[idx + 1];
 2299              		.loc 1 1142 15 view .LVU809
 2300 00a6 8DF80C10 		strb	r1, [sp, #12]
1143:lvgl/src/lv_core/lv_style.c ****     return prop;
 2301              		.loc 1 1143 5 is_stmt 1 view .LVU810
1143:lvgl/src/lv_core/lv_style.c ****     return prop;
 2302              		.loc 1 1143 27 is_stmt 0 view .LVU811
 2303 00aa 1A44     		add	r2, r2, r3
 2304 00ac 5278     		ldrb	r2, [r2, #1]	@ zero_extendqisi2
1143:lvgl/src/lv_core/lv_style.c ****     return prop;
 2305              		.loc 1 1143 15 view .LVU812
 2306 00ae 8DF80D20 		strb	r2, [sp, #13]
1144:lvgl/src/lv_core/lv_style.c **** }
 2307              		.loc 1 1144 5 is_stmt 1 view .LVU813
1144:lvgl/src/lv_core/lv_style.c **** }
 2308              		.loc 1 1144 12 is_stmt 0 view .LVU814
 2309 00b2 BDF80C10 		ldrh	r1, [sp, #12]
 2310              	.LVL232:
1144:lvgl/src/lv_core/lv_style.c **** }
 2311              		.loc 1 1144 12 view .LVU815
 2312              	.LBE345:
 2313              	.LBE344:
 2314              	.LBE343:
 2315              	.LBE342:
 417:lvgl/src/lv_core/lv_style.c **** 
ARM GAS  D:\Temp\cceOI0TF.s 			page 84


 2316              		.loc 1 417 9 is_stmt 1 view .LVU816
 417:lvgl/src/lv_core/lv_style.c **** 
 2317              		.loc 1 417 19 is_stmt 0 view .LVU817
 2318 00b6 BDF80620 		ldrh	r2, [sp, #6]
 2319 00ba 120A     		lsrs	r2, r2, #8
 2320              	.LVL233:
 419:lvgl/src/lv_core/lv_style.c ****             _lv_memcpy_small(style->map + id + sizeof(lv_style_property_t), &color, sizeof(lv_color
 2321              		.loc 1 419 9 is_stmt 1 view .LVU818
 419:lvgl/src/lv_core/lv_style.c ****             _lv_memcpy_small(style->map + id + sizeof(lv_style_property_t), &color, sizeof(lv_color
 2322              		.loc 1 419 48 is_stmt 0 view .LVU819
 2323 00bc 82EA1122 		eor	r2, r2, r1, lsr #8
 2324              	.LVL234:
 419:lvgl/src/lv_core/lv_style.c ****             _lv_memcpy_small(style->map + id + sizeof(lv_style_property_t), &color, sizeof(lv_color
 2325              		.loc 1 419 11 view .LVU820
 2326 00c0 12F07F0F 		tst	r2, #127
 2327 00c4 20D0     		beq	.L170
 2328              	.LVL235:
 2329              	.L148:
 419:lvgl/src/lv_core/lv_style.c ****             _lv_memcpy_small(style->map + id + sizeof(lv_style_property_t), &color, sizeof(lv_color
 2330              		.loc 1 419 11 view .LVU821
 2331 00c6 0546     		mov	r5, r0
 2332              	.LBE341:
 426:lvgl/src/lv_core/lv_style.c ****     lv_style_property_t end_mark = _LV_STYLE_CLOSING_PROP;
 2333              		.loc 1 426 5 is_stmt 1 view .LVU822
 2334              	.LVL236:
 427:lvgl/src/lv_core/lv_style.c ****     uint8_t end_mark_size = sizeof(end_mark);
 2335              		.loc 1 427 5 view .LVU823
 427:lvgl/src/lv_core/lv_style.c ****     uint8_t end_mark_size = sizeof(end_mark);
 2336              		.loc 1 427 25 is_stmt 0 view .LVU824
 2337 00c8 FF23     		movs	r3, #255
 2338              	.LVL237:
 427:lvgl/src/lv_core/lv_style.c ****     uint8_t end_mark_size = sizeof(end_mark);
 2339              		.loc 1 427 25 view .LVU825
 2340 00ca ADF80E30 		strh	r3, [sp, #14]	@ movhi
 428:lvgl/src/lv_core/lv_style.c **** 
 2341              		.loc 1 428 5 is_stmt 1 view .LVU826
 2342              	.LVL238:
 430:lvgl/src/lv_core/lv_style.c ****     if(size == 0) size += end_mark_size;
 2343              		.loc 1 430 5 view .LVU827
 430:lvgl/src/lv_core/lv_style.c ****     if(size == 0) size += end_mark_size;
 2344              		.loc 1 430 21 is_stmt 0 view .LVU828
 2345 00ce FFF7FEFF 		bl	_lv_style_get_mem_size
 2346              	.LVL239:
 431:lvgl/src/lv_core/lv_style.c **** 
 2347              		.loc 1 431 5 is_stmt 1 view .LVU829
 431:lvgl/src/lv_core/lv_style.c **** 
 2348              		.loc 1 431 7 is_stmt 0 view .LVU830
 2349 00d2 0346     		mov	r3, r0
 2350 00d4 08B9     		cbnz	r0, .L152
 431:lvgl/src/lv_core/lv_style.c **** 
 2351              		.loc 1 431 19 is_stmt 1 discriminator 1 view .LVU831
 431:lvgl/src/lv_core/lv_style.c **** 
 2352              		.loc 1 431 24 is_stmt 0 discriminator 1 view .LVU832
 2353 00d6 0233     		adds	r3, r3, #2
 2354 00d8 9BB2     		uxth	r3, r3
 2355              	.LVL240:
 2356              	.L152:
ARM GAS  D:\Temp\cceOI0TF.s 			page 85


 433:lvgl/src/lv_core/lv_style.c ****     style_resize(style, size);
 2357              		.loc 1 433 5 is_stmt 1 view .LVU833
 433:lvgl/src/lv_core/lv_style.c ****     style_resize(style, size);
 2358              		.loc 1 433 10 is_stmt 0 view .LVU834
 2359 00da 0433     		adds	r3, r3, #4
 2360              	.LVL241:
 433:lvgl/src/lv_core/lv_style.c ****     style_resize(style, size);
 2361              		.loc 1 433 10 view .LVU835
 2362 00dc 9CB2     		uxth	r4, r3
 434:lvgl/src/lv_core/lv_style.c ****     LV_ASSERT_MEM(style->map);
 2363              		.loc 1 434 5 is_stmt 1 view .LVU836
 2364              	.LVL242:
 2365              	.LBB350:
 2366              	.LBI350:
1127:lvgl/src/lv_core/lv_style.c **** {
 2367              		.loc 1 1127 20 view .LVU837
 2368              	.LBB351:
1129:lvgl/src/lv_core/lv_style.c **** }
 2369              		.loc 1 1129 5 view .LVU838
1129:lvgl/src/lv_core/lv_style.c **** }
 2370              		.loc 1 1129 18 is_stmt 0 view .LVU839
 2371 00de 2146     		mov	r1, r4
 2372 00e0 2868     		ldr	r0, [r5]
 2373 00e2 FFF7FEFF 		bl	lv_mem_realloc
 2374              	.LVL243:
1129:lvgl/src/lv_core/lv_style.c **** }
 2375              		.loc 1 1129 16 view .LVU840
 2376 00e6 2860     		str	r0, [r5]
 2377              	.LVL244:
1129:lvgl/src/lv_core/lv_style.c **** }
 2378              		.loc 1 1129 16 view .LVU841
 2379              	.LBE351:
 2380              	.LBE350:
 435:lvgl/src/lv_core/lv_style.c ****     if(style == NULL) return;
 2381              		.loc 1 435 5 is_stmt 1 view .LVU842
 435:lvgl/src/lv_core/lv_style.c ****     if(style == NULL) return;
 2382              		.loc 1 435 5 view .LVU843
 2383 00e8 FFF7FEFF 		bl	lv_debug_check_null
 2384              	.LVL245:
 2385 00ec D0B1     		cbz	r0, .L171
 435:lvgl/src/lv_core/lv_style.c ****     if(style == NULL) return;
 2386              		.loc 1 435 30 discriminator 2 view .LVU844
 436:lvgl/src/lv_core/lv_style.c **** 
 2387              		.loc 1 436 5 discriminator 2 view .LVU845
 436:lvgl/src/lv_core/lv_style.c **** 
 2388              		.loc 1 436 7 is_stmt 0 discriminator 2 view .LVU846
 2389 00ee 002D     		cmp	r5, #0
 2390 00f0 3FD0     		beq	.L141
 438:lvgl/src/lv_core/lv_style.c ****     _lv_memcpy_small(style->map + size - sizeof(lv_color_t) - end_mark_size, &color, sizeof(lv_colo
 2391              		.loc 1 438 5 is_stmt 1 view .LVU847
 438:lvgl/src/lv_core/lv_style.c ****     _lv_memcpy_small(style->map + size - sizeof(lv_color_t) - end_mark_size, &color, sizeof(lv_colo
 2392              		.loc 1 438 27 is_stmt 0 view .LVU848
 2393 00f2 2B68     		ldr	r3, [r5]
 438:lvgl/src/lv_core/lv_style.c ****     _lv_memcpy_small(style->map + size - sizeof(lv_color_t) - end_mark_size, &color, sizeof(lv_colo
 2394              		.loc 1 438 40 view .LVU849
 2395 00f4 201F     		subs	r0, r4, #4
 438:lvgl/src/lv_core/lv_style.c ****     _lv_memcpy_small(style->map + size - sizeof(lv_color_t) - end_mark_size, &color, sizeof(lv_colo
ARM GAS  D:\Temp\cceOI0TF.s 			page 86


 2396              		.loc 1 438 56 view .LVU850
 2397 00f6 A21F     		subs	r2, r4, #6
 2398 00f8 1344     		add	r3, r3, r2
 2399              	.LVL246:
 2400              	.LBB352:
 2401              	.LBI352:
 213:lvgl/src/lv_core/../lv_font/../lv_misc/lv_mem.h **** {
 2402              		.loc 3 213 44 is_stmt 1 view .LVU851
 2403              	.LBB353:
 215:lvgl/src/lv_core/../lv_font/../lv_misc/lv_mem.h ****     const uint8_t * s8 = (const uint8_t *)src;
 2404              		.loc 3 215 5 view .LVU852
 216:lvgl/src/lv_core/../lv_font/../lv_misc/lv_mem.h **** 
 2405              		.loc 3 216 5 view .LVU853
 218:lvgl/src/lv_core/../lv_font/../lv_misc/lv_mem.h ****         *d8 = *s8;
 2406              		.loc 3 218 5 view .LVU854
 216:lvgl/src/lv_core/../lv_font/../lv_misc/lv_mem.h **** 
 2407              		.loc 3 216 21 is_stmt 0 view .LVU855
 2408 00fa 0DF10601 		add	r1, sp, #6
 2409              	.LVL247:
 216:lvgl/src/lv_core/../lv_font/../lv_misc/lv_mem.h **** 
 2410              		.loc 3 216 21 view .LVU856
 2411              	.LBE353:
 2412              	.LBE352:
 438:lvgl/src/lv_core/lv_style.c ****     _lv_memcpy_small(style->map + size - sizeof(lv_color_t) - end_mark_size, &color, sizeof(lv_colo
 2413              		.loc 1 438 56 view .LVU857
 2414 00fe 0222     		movs	r2, #2
 2415 0100 1BE0     		b	.L155
 2416              	.LVL248:
 2417              	.L162:
 2418              	.LBB355:
 2419              	.LBB340:
1057:lvgl/src/lv_core/lv_style.c **** 
 2420              		.loc 1 1057 35 view .LVU858
 2421 0102 4FF0FF33 		mov	r3, #-1
 2422 0106 CAE7     		b	.L142
 2423              	.LVL249:
 2424              	.L170:
1057:lvgl/src/lv_core/lv_style.c **** 
 2425              		.loc 1 1057 35 view .LVU859
 2426              	.LBE340:
 2427              	.LBE355:
 2428              	.LBB356:
 420:lvgl/src/lv_core/lv_style.c ****             return;
 2429              		.loc 1 420 13 is_stmt 1 view .LVU860
 420:lvgl/src/lv_core/lv_style.c ****             return;
 2430              		.loc 1 420 35 is_stmt 0 view .LVU861
 2431 0108 0268     		ldr	r2, [r0]
 420:lvgl/src/lv_core/lv_style.c ****             return;
 2432              		.loc 1 420 46 view .LVU862
 2433 010a 0233     		adds	r3, r3, #2
 2434              	.LVL250:
 420:lvgl/src/lv_core/lv_style.c ****             return;
 2435              		.loc 1 420 46 view .LVU863
 2436 010c 1344     		add	r3, r3, r2
 2437              	.LVL251:
 2438              	.LBB346:
 2439              	.LBI346:
ARM GAS  D:\Temp\cceOI0TF.s 			page 87


 213:lvgl/src/lv_core/../lv_font/../lv_misc/lv_mem.h **** {
 2440              		.loc 3 213 44 is_stmt 1 view .LVU864
 2441              	.LBB347:
 215:lvgl/src/lv_core/../lv_font/../lv_misc/lv_mem.h ****     const uint8_t * s8 = (const uint8_t *)src;
 2442              		.loc 3 215 5 view .LVU865
 216:lvgl/src/lv_core/../lv_font/../lv_misc/lv_mem.h **** 
 2443              		.loc 3 216 5 view .LVU866
 218:lvgl/src/lv_core/../lv_font/../lv_misc/lv_mem.h ****         *d8 = *s8;
 2444              		.loc 3 218 5 view .LVU867
 216:lvgl/src/lv_core/../lv_font/../lv_misc/lv_mem.h **** 
 2445              		.loc 3 216 21 is_stmt 0 view .LVU868
 2446 010e 01A9     		add	r1, sp, #4
 2447              	.LVL252:
 216:lvgl/src/lv_core/../lv_font/../lv_misc/lv_mem.h **** 
 2448              		.loc 3 216 21 view .LVU869
 2449              	.LBE347:
 2450              	.LBE346:
 420:lvgl/src/lv_core/lv_style.c ****             return;
 2451              		.loc 1 420 46 view .LVU870
 2452 0110 0222     		movs	r2, #2
 2453 0112 04E0     		b	.L149
 2454              	.LVL253:
 2455              	.L150:
 2456              	.LBB349:
 2457              	.LBB348:
 219:lvgl/src/lv_core/../lv_font/../lv_misc/lv_mem.h ****         d8++;
 2458              		.loc 3 219 9 is_stmt 1 view .LVU871
 219:lvgl/src/lv_core/../lv_font/../lv_misc/lv_mem.h ****         d8++;
 2459              		.loc 3 219 15 is_stmt 0 view .LVU872
 2460 0114 11F8010B 		ldrb	r0, [r1], #1	@ zero_extendqisi2
 2461              	.LVL254:
 219:lvgl/src/lv_core/../lv_font/../lv_misc/lv_mem.h ****         d8++;
 2462              		.loc 3 219 13 view .LVU873
 2463 0118 03F8010B 		strb	r0, [r3], #1
 2464              	.LVL255:
 220:lvgl/src/lv_core/../lv_font/../lv_misc/lv_mem.h ****         s8++;
 2465              		.loc 3 220 9 is_stmt 1 view .LVU874
 221:lvgl/src/lv_core/../lv_font/../lv_misc/lv_mem.h ****         len--;
 2466              		.loc 3 221 9 view .LVU875
 222:lvgl/src/lv_core/../lv_font/../lv_misc/lv_mem.h ****     }
 2467              		.loc 3 222 9 view .LVU876
 222:lvgl/src/lv_core/../lv_font/../lv_misc/lv_mem.h ****     }
 2468              		.loc 3 222 12 is_stmt 0 view .LVU877
 2469 011c 013A     		subs	r2, r2, #1
 2470              	.LVL256:
 2471              	.L149:
 218:lvgl/src/lv_core/../lv_font/../lv_misc/lv_mem.h ****         *d8 = *s8;
 2472              		.loc 3 218 10 view .LVU878
 2473 011e 002A     		cmp	r2, #0
 2474 0120 F8D1     		bne	.L150
 218:lvgl/src/lv_core/../lv_font/../lv_misc/lv_mem.h ****         *d8 = *s8;
 2475              		.loc 3 218 10 view .LVU879
 2476 0122 26E0     		b	.L141
 2477              	.LVL257:
 2478              	.L171:
 218:lvgl/src/lv_core/../lv_font/../lv_misc/lv_mem.h ****         *d8 = *s8;
 2479              		.loc 3 218 10 view .LVU880
ARM GAS  D:\Temp\cceOI0TF.s 			page 88


 2480              	.LBE348:
 2481              	.LBE349:
 2482              	.LBE356:
 435:lvgl/src/lv_core/lv_style.c ****     if(style == NULL) return;
 2483              		.loc 1 435 5 is_stmt 1 discriminator 1 view .LVU881
 435:lvgl/src/lv_core/lv_style.c ****     if(style == NULL) return;
 2484              		.loc 1 435 5 discriminator 1 view .LVU882
 2485 0124 2A68     		ldr	r2, [r5]
 2486 0126 0023     		movs	r3, #0
 2487 0128 1348     		ldr	r0, .L172
 2488 012a FFF7FEFF 		bl	lv_debug_log_error
 2489              	.LVL258:
 2490              	.L154:
 435:lvgl/src/lv_core/lv_style.c ****     if(style == NULL) return;
 2491              		.loc 1 435 5 discriminator 1 view .LVU883
 435:lvgl/src/lv_core/lv_style.c ****     if(style == NULL) return;
 2492              		.loc 1 435 5 discriminator 1 view .LVU884
 2493 012e FEE7     		b	.L154
 2494              	.LVL259:
 2495              	.L156:
 2496              	.LBB357:
 2497              	.LBB354:
 219:lvgl/src/lv_core/../lv_font/../lv_misc/lv_mem.h ****         d8++;
 2498              		.loc 3 219 9 view .LVU885
 219:lvgl/src/lv_core/../lv_font/../lv_misc/lv_mem.h ****         d8++;
 2499              		.loc 3 219 15 is_stmt 0 view .LVU886
 2500 0130 11F8016B 		ldrb	r6, [r1], #1	@ zero_extendqisi2
 2501              	.LVL260:
 219:lvgl/src/lv_core/../lv_font/../lv_misc/lv_mem.h ****         d8++;
 2502              		.loc 3 219 13 view .LVU887
 2503 0134 03F8016B 		strb	r6, [r3], #1
 2504              	.LVL261:
 220:lvgl/src/lv_core/../lv_font/../lv_misc/lv_mem.h ****         s8++;
 2505              		.loc 3 220 9 is_stmt 1 view .LVU888
 221:lvgl/src/lv_core/../lv_font/../lv_misc/lv_mem.h ****         len--;
 2506              		.loc 3 221 9 view .LVU889
 222:lvgl/src/lv_core/../lv_font/../lv_misc/lv_mem.h ****     }
 2507              		.loc 3 222 9 view .LVU890
 222:lvgl/src/lv_core/../lv_font/../lv_misc/lv_mem.h ****     }
 2508              		.loc 3 222 12 is_stmt 0 view .LVU891
 2509 0138 013A     		subs	r2, r2, #1
 2510              	.LVL262:
 2511              	.L155:
 218:lvgl/src/lv_core/../lv_font/../lv_misc/lv_mem.h ****         *d8 = *s8;
 2512              		.loc 3 218 10 view .LVU892
 2513 013a 002A     		cmp	r2, #0
 2514 013c F8D1     		bne	.L156
 2515              		.loc 3 225 5 is_stmt 1 view .LVU893
 2516              	.LVL263:
 2517              		.loc 3 225 5 is_stmt 0 view .LVU894
 2518              	.LBE354:
 2519              	.LBE357:
 439:lvgl/src/lv_core/lv_style.c ****     _lv_memcpy_small(style->map + size - end_mark_size, &end_mark, sizeof(end_mark));
 2520              		.loc 1 439 5 is_stmt 1 view .LVU895
 439:lvgl/src/lv_core/lv_style.c ****     _lv_memcpy_small(style->map + size - end_mark_size, &end_mark, sizeof(end_mark));
 2521              		.loc 1 439 27 is_stmt 0 view .LVU896
 2522 013e 2B68     		ldr	r3, [r5]
ARM GAS  D:\Temp\cceOI0TF.s 			page 89


 439:lvgl/src/lv_core/lv_style.c ****     _lv_memcpy_small(style->map + size - end_mark_size, &end_mark, sizeof(end_mark));
 2523              		.loc 1 439 61 view .LVU897
 2524 0140 023C     		subs	r4, r4, #2
 2525 0142 0344     		add	r3, r3, r0
 2526              	.LVL264:
 2527              	.LBB358:
 2528              	.LBI358:
 213:lvgl/src/lv_core/../lv_font/../lv_misc/lv_mem.h **** {
 2529              		.loc 3 213 44 is_stmt 1 view .LVU898
 2530              	.LBB359:
 216:lvgl/src/lv_core/../lv_font/../lv_misc/lv_mem.h **** 
 2531              		.loc 3 216 21 is_stmt 0 view .LVU899
 2532 0144 01A9     		add	r1, sp, #4
 2533              	.LVL265:
 216:lvgl/src/lv_core/../lv_font/../lv_misc/lv_mem.h **** 
 2534              		.loc 3 216 21 view .LVU900
 2535              	.LBE359:
 2536              	.LBE358:
 439:lvgl/src/lv_core/lv_style.c ****     _lv_memcpy_small(style->map + size - end_mark_size, &end_mark, sizeof(end_mark));
 2537              		.loc 1 439 61 view .LVU901
 2538 0146 0222     		movs	r2, #2
 2539 0148 04E0     		b	.L157
 2540              	.LVL266:
 2541              	.L158:
 2542              	.LBB361:
 2543              	.LBB360:
 219:lvgl/src/lv_core/../lv_font/../lv_misc/lv_mem.h ****         d8++;
 2544              		.loc 3 219 9 is_stmt 1 view .LVU902
 219:lvgl/src/lv_core/../lv_font/../lv_misc/lv_mem.h ****         d8++;
 2545              		.loc 3 219 15 is_stmt 0 view .LVU903
 2546 014a 11F8010B 		ldrb	r0, [r1], #1	@ zero_extendqisi2
 2547              	.LVL267:
 219:lvgl/src/lv_core/../lv_font/../lv_misc/lv_mem.h ****         d8++;
 2548              		.loc 3 219 13 view .LVU904
 2549 014e 03F8010B 		strb	r0, [r3], #1
 2550              	.LVL268:
 220:lvgl/src/lv_core/../lv_font/../lv_misc/lv_mem.h ****         s8++;
 2551              		.loc 3 220 9 is_stmt 1 view .LVU905
 221:lvgl/src/lv_core/../lv_font/../lv_misc/lv_mem.h ****         len--;
 2552              		.loc 3 221 9 view .LVU906
 222:lvgl/src/lv_core/../lv_font/../lv_misc/lv_mem.h ****     }
 2553              		.loc 3 222 9 view .LVU907
 222:lvgl/src/lv_core/../lv_font/../lv_misc/lv_mem.h ****     }
 2554              		.loc 3 222 12 is_stmt 0 view .LVU908
 2555 0152 013A     		subs	r2, r2, #1
 2556              	.LVL269:
 2557              	.L157:
 218:lvgl/src/lv_core/../lv_font/../lv_misc/lv_mem.h ****         *d8 = *s8;
 2558              		.loc 3 218 10 view .LVU909
 2559 0154 002A     		cmp	r2, #0
 2560 0156 F8D1     		bne	.L158
 2561              		.loc 3 225 5 is_stmt 1 view .LVU910
 2562              	.LVL270:
 2563              		.loc 3 225 5 is_stmt 0 view .LVU911
 2564              	.LBE360:
 2565              	.LBE361:
 440:lvgl/src/lv_core/lv_style.c **** }
ARM GAS  D:\Temp\cceOI0TF.s 			page 90


 2566              		.loc 1 440 5 is_stmt 1 view .LVU912
 440:lvgl/src/lv_core/lv_style.c **** }
 2567              		.loc 1 440 27 is_stmt 0 view .LVU913
 2568 0158 2B68     		ldr	r3, [r5]
 440:lvgl/src/lv_core/lv_style.c **** }
 2569              		.loc 1 440 40 view .LVU914
 2570 015a 1C44     		add	r4, r4, r3
 2571              	.LVL271:
 2572              	.LBB362:
 2573              	.LBI362:
 213:lvgl/src/lv_core/../lv_font/../lv_misc/lv_mem.h **** {
 2574              		.loc 3 213 44 is_stmt 1 view .LVU915
 2575              	.LBB363:
 216:lvgl/src/lv_core/../lv_font/../lv_misc/lv_mem.h **** 
 2576              		.loc 3 216 21 is_stmt 0 view .LVU916
 2577 015c 0DF10E02 		add	r2, sp, #14
 2578              	.LVL272:
 216:lvgl/src/lv_core/../lv_font/../lv_misc/lv_mem.h **** 
 2579              		.loc 3 216 21 view .LVU917
 2580              	.LBE363:
 2581              	.LBE362:
 440:lvgl/src/lv_core/lv_style.c **** }
 2582              		.loc 1 440 40 view .LVU918
 2583 0160 0223     		movs	r3, #2
 2584 0162 04E0     		b	.L159
 2585              	.LVL273:
 2586              	.L160:
 2587              	.LBB365:
 2588              	.LBB364:
 219:lvgl/src/lv_core/../lv_font/../lv_misc/lv_mem.h ****         d8++;
 2589              		.loc 3 219 9 is_stmt 1 view .LVU919
 219:lvgl/src/lv_core/../lv_font/../lv_misc/lv_mem.h ****         d8++;
 2590              		.loc 3 219 15 is_stmt 0 view .LVU920
 2591 0164 12F8011B 		ldrb	r1, [r2], #1	@ zero_extendqisi2
 2592              	.LVL274:
 219:lvgl/src/lv_core/../lv_font/../lv_misc/lv_mem.h ****         d8++;
 2593              		.loc 3 219 13 view .LVU921
 2594 0168 04F8011B 		strb	r1, [r4], #1
 2595              	.LVL275:
 220:lvgl/src/lv_core/../lv_font/../lv_misc/lv_mem.h ****         s8++;
 2596              		.loc 3 220 9 is_stmt 1 view .LVU922
 221:lvgl/src/lv_core/../lv_font/../lv_misc/lv_mem.h ****         len--;
 2597              		.loc 3 221 9 view .LVU923
 222:lvgl/src/lv_core/../lv_font/../lv_misc/lv_mem.h ****     }
 2598              		.loc 3 222 9 view .LVU924
 222:lvgl/src/lv_core/../lv_font/../lv_misc/lv_mem.h ****     }
 2599              		.loc 3 222 12 is_stmt 0 view .LVU925
 2600 016c 013B     		subs	r3, r3, #1
 2601              	.LVL276:
 2602              	.L159:
 218:lvgl/src/lv_core/../lv_font/../lv_misc/lv_mem.h ****         *d8 = *s8;
 2603              		.loc 3 218 10 view .LVU926
 2604 016e 002B     		cmp	r3, #0
 2605 0170 F8D1     		bne	.L160
 2606              	.LVL277:
 2607              	.L141:
 218:lvgl/src/lv_core/../lv_font/../lv_misc/lv_mem.h ****         *d8 = *s8;
ARM GAS  D:\Temp\cceOI0TF.s 			page 91


 2608              		.loc 3 218 10 view .LVU927
 2609              	.LBE364:
 2610              	.LBE365:
 441:lvgl/src/lv_core/lv_style.c **** 
 2611              		.loc 1 441 1 view .LVU928
 2612 0172 05B0     		add	sp, sp, #20
 2613              	.LCFI22:
 2614              		.cfi_def_cfa_offset 20
 2615              		@ sp needed
 2616 0174 F0BD     		pop	{r4, r5, r6, r7, pc}
 2617              	.L173:
 2618 0176 00BF     		.align	2
 2619              	.L172:
 2620 0178 00000000 		.word	.LC0
 2621              		.cfi_endproc
 2622              	.LFE469:
 2624              		.section	.text._lv_style_set_opa,"ax",%progbits
 2625              		.align	1
 2626              		.global	_lv_style_set_opa
 2627              		.syntax unified
 2628              		.thumb
 2629              		.thumb_func
 2630              		.fpu fpv4-sp-d16
 2632              	_lv_style_set_opa:
 2633              	.LVL278:
 2634              	.LFB470:
 454:lvgl/src/lv_core/lv_style.c ****     LV_ASSERT_STYLE(style);
 2635              		.loc 1 454 1 is_stmt 1 view -0
 2636              		.cfi_startproc
 2637              		@ args = 0, pretend = 0, frame = 16
 2638              		@ frame_needed = 0, uses_anonymous_args = 0
 454:lvgl/src/lv_core/lv_style.c ****     LV_ASSERT_STYLE(style);
 2639              		.loc 1 454 1 is_stmt 0 view .LVU930
 2640 0000 F0B5     		push	{r4, r5, r6, r7, lr}
 2641              	.LCFI23:
 2642              		.cfi_def_cfa_offset 20
 2643              		.cfi_offset 4, -20
 2644              		.cfi_offset 5, -16
 2645              		.cfi_offset 6, -12
 2646              		.cfi_offset 7, -8
 2647              		.cfi_offset 14, -4
 2648 0002 85B0     		sub	sp, sp, #20
 2649              	.LCFI24:
 2650              		.cfi_def_cfa_offset 40
 2651 0004 ADF80610 		strh	r1, [sp, #6]	@ movhi
 2652 0008 8DF80520 		strb	r2, [sp, #5]
 455:lvgl/src/lv_core/lv_style.c **** 
 2653              		.loc 1 455 27 is_stmt 1 view .LVU931
 457:lvgl/src/lv_core/lv_style.c ****     /*The property already exists but not sure it's state is the same*/
 2654              		.loc 1 457 5 view .LVU932
 2655              	.LVL279:
 2656              	.LBB396:
 2657              	.LBI396:
1053:lvgl/src/lv_core/lv_style.c **** {
 2658              		.loc 1 1053 45 view .LVU933
 2659              	.LBB397:
1055:lvgl/src/lv_core/lv_style.c **** 
ARM GAS  D:\Temp\cceOI0TF.s 			page 92


 2660              		.loc 1 1055 27 view .LVU934
1057:lvgl/src/lv_core/lv_style.c **** 
 2661              		.loc 1 1057 5 view .LVU935
1057:lvgl/src/lv_core/lv_style.c **** 
 2662              		.loc 1 1057 13 is_stmt 0 view .LVU936
 2663 000c 0368     		ldr	r3, [r0]
1057:lvgl/src/lv_core/lv_style.c **** 
 2664              		.loc 1 1057 7 view .LVU937
 2665 000e 002B     		cmp	r3, #0
 2666 0010 77D0     		beq	.L195
1059:lvgl/src/lv_core/lv_style.c ****     lv_style_attr_t attr;
 2667              		.loc 1 1059 5 is_stmt 1 view .LVU938
1059:lvgl/src/lv_core/lv_style.c ****     lv_style_attr_t attr;
 2668              		.loc 1 1059 13 is_stmt 0 view .LVU939
 2669 0012 CFB2     		uxtb	r7, r1
 2670              	.LVL280:
1060:lvgl/src/lv_core/lv_style.c ****     attr = (prop >> 8) & 0xFF;
 2671              		.loc 1 1060 5 is_stmt 1 view .LVU940
1061:lvgl/src/lv_core/lv_style.c **** 
 2672              		.loc 1 1061 5 view .LVU941
1061:lvgl/src/lv_core/lv_style.c **** 
 2673              		.loc 1 1061 10 is_stmt 0 view .LVU942
 2674 0014 0E0A     		lsrs	r6, r1, #8
 2675              	.LVL281:
1063:lvgl/src/lv_core/lv_style.c ****     int16_t id_guess = -1;
 2676              		.loc 1 1063 5 is_stmt 1 view .LVU943
1064:lvgl/src/lv_core/lv_style.c **** 
 2677              		.loc 1 1064 5 view .LVU944
1066:lvgl/src/lv_core/lv_style.c **** 
 2678              		.loc 1 1066 5 view .LVU945
1068:lvgl/src/lv_core/lv_style.c ****     while((prop_id = get_style_prop_id(style, i)) != _LV_STYLE_CLOSING_PROP) {
 2679              		.loc 1 1068 5 view .LVU946
1069:lvgl/src/lv_core/lv_style.c ****         if(prop_id == id_to_find) {
 2680              		.loc 1 1069 5 view .LVU947
1066:lvgl/src/lv_core/lv_style.c **** 
 2681              		.loc 1 1066 12 is_stmt 0 view .LVU948
 2682 0016 0022     		movs	r2, #0
 2683              	.LVL282:
1064:lvgl/src/lv_core/lv_style.c **** 
 2684              		.loc 1 1064 13 view .LVU949
 2685 0018 4FF0FF35 		mov	r5, #-1
1063:lvgl/src/lv_core/lv_style.c ****     int16_t id_guess = -1;
 2686              		.loc 1 1063 13 view .LVU950
 2687 001c AC46     		mov	ip, r5
 2688 001e 21E0     		b	.L176
 2689              	.LVL283:
 2690              	.L202:
 2691              	.LBB398:
1071:lvgl/src/lv_core/lv_style.c ****             attr_i = get_style_prop_attr(style, i);
 2692              		.loc 1 1071 13 is_stmt 1 view .LVU951
1072:lvgl/src/lv_core/lv_style.c **** 
 2693              		.loc 1 1072 13 view .LVU952
 2694              	.LBB399:
 2695              	.LBI399:
1164:lvgl/src/lv_core/lv_style.c **** {
 2696              		.loc 1 1164 23 view .LVU953
 2697              	.LBB400:
ARM GAS  D:\Temp\cceOI0TF.s 			page 93


1166:lvgl/src/lv_core/lv_style.c **** }
 2698              		.loc 1 1166 5 view .LVU954
 2699              	.LBB401:
 2700              	.LBI401:
1138:lvgl/src/lv_core/lv_style.c **** {
 2701              		.loc 1 1138 35 view .LVU955
 2702              	.LBB402:
1140:lvgl/src/lv_core/lv_style.c ****     uint8_t * prop_p = (uint8_t *)&prop;
 2703              		.loc 1 1140 5 view .LVU956
1141:lvgl/src/lv_core/lv_style.c ****     prop_p[0] = style->map[idx];
 2704              		.loc 1 1141 5 view .LVU957
1142:lvgl/src/lv_core/lv_style.c ****     prop_p[1] = style->map[idx + 1];
 2705              		.loc 1 1142 5 view .LVU958
1142:lvgl/src/lv_core/lv_style.c ****     prop_p[1] = style->map[idx + 1];
 2706              		.loc 1 1142 22 is_stmt 0 view .LVU959
 2707 0020 0468     		ldr	r4, [r0]
1142:lvgl/src/lv_core/lv_style.c ****     prop_p[1] = style->map[idx + 1];
 2708              		.loc 1 1142 27 view .LVU960
 2709 0022 14F802E0 		ldrb	lr, [r4, r2]	@ zero_extendqisi2
1142:lvgl/src/lv_core/lv_style.c ****     prop_p[1] = style->map[idx + 1];
 2710              		.loc 1 1142 15 view .LVU961
 2711 0026 8DF80CE0 		strb	lr, [sp, #12]
1143:lvgl/src/lv_core/lv_style.c ****     return prop;
 2712              		.loc 1 1143 5 is_stmt 1 view .LVU962
1143:lvgl/src/lv_core/lv_style.c ****     return prop;
 2713              		.loc 1 1143 27 is_stmt 0 view .LVU963
 2714 002a 615C     		ldrb	r1, [r4, r1]	@ zero_extendqisi2
1143:lvgl/src/lv_core/lv_style.c ****     return prop;
 2715              		.loc 1 1143 15 view .LVU964
 2716 002c 8DF80D10 		strb	r1, [sp, #13]
1144:lvgl/src/lv_core/lv_style.c **** }
 2717              		.loc 1 1144 5 is_stmt 1 view .LVU965
1144:lvgl/src/lv_core/lv_style.c **** }
 2718              		.loc 1 1144 12 is_stmt 0 view .LVU966
 2719 0030 BDF80C40 		ldrh	r4, [sp, #12]
 2720              	.LVL284:
1144:lvgl/src/lv_core/lv_style.c **** }
 2721              		.loc 1 1144 12 view .LVU967
 2722              	.LBE402:
 2723              	.LBE401:
1166:lvgl/src/lv_core/lv_style.c **** }
 2724              		.loc 1 1166 47 view .LVU968
 2725 0034 240A     		lsrs	r4, r4, #8
 2726 0036 E1B2     		uxtb	r1, r4
 2727              	.LVL285:
1166:lvgl/src/lv_core/lv_style.c **** }
 2728              		.loc 1 1166 47 view .LVU969
 2729              	.LBE400:
 2730              	.LBE399:
1075:lvgl/src/lv_core/lv_style.c ****                 return i;
 2731              		.loc 1 1075 13 is_stmt 1 view .LVU970
1075:lvgl/src/lv_core/lv_style.c ****                 return i;
 2732              		.loc 1 1075 48 is_stmt 0 view .LVU971
 2733 0038 86EA010E 		eor	lr, r6, r1
1075:lvgl/src/lv_core/lv_style.c ****                 return i;
 2734              		.loc 1 1075 15 view .LVU972
 2735 003c 1EF07F0F 		tst	lr, #127
ARM GAS  D:\Temp\cceOI0TF.s 			page 94


 2736 0040 0CD0     		beq	.L200
1080:lvgl/src/lv_core/lv_style.c ****                 /* Use this property if it describes better the requested state than the current ca
 2737              		.loc 1 1080 18 is_stmt 1 view .LVU973
1080:lvgl/src/lv_core/lv_style.c ****                 /* Use this property if it describes better the requested state than the current ca
 2738              		.loc 1 1080 22 is_stmt 0 view .LVU974
 2739 0042 01F07F01 		and	r1, r1, #127
 2740              	.LVL286:
1080:lvgl/src/lv_core/lv_style.c ****                 /* Use this property if it describes better the requested state than the current ca
 2741              		.loc 1 1080 58 view .LVU975
 2742 0046 06F07F0E 		and	lr, r6, #127
1080:lvgl/src/lv_core/lv_style.c ****                 /* Use this property if it describes better the requested state than the current ca
 2743              		.loc 1 1080 20 view .LVU976
 2744 004a 31EA0E0E 		bics	lr, r1, lr
 2745 004e 17D1     		bne	.L177
1083:lvgl/src/lv_core/lv_style.c ****                     weight = LV_STYLE_ATTR_GET_STATE(attr_i);
 2746              		.loc 1 1083 17 is_stmt 1 view .LVU977
1083:lvgl/src/lv_core/lv_style.c ****                     weight = LV_STYLE_ATTR_GET_STATE(attr_i);
 2747              		.loc 1 1083 19 is_stmt 0 view .LVU978
 2748 0050 6145     		cmp	r1, ip
 2749 0052 15DD     		ble	.L177
1084:lvgl/src/lv_core/lv_style.c ****                     id_guess = i;
 2750              		.loc 1 1084 21 is_stmt 1 view .LVU979
1084:lvgl/src/lv_core/lv_style.c ****                     id_guess = i;
 2751              		.loc 1 1084 28 is_stmt 0 view .LVU980
 2752 0054 04F07F0C 		and	ip, r4, #127
 2753              	.LVL287:
1085:lvgl/src/lv_core/lv_style.c ****                 }
 2754              		.loc 1 1085 21 is_stmt 1 view .LVU981
1085:lvgl/src/lv_core/lv_style.c ****                 }
 2755              		.loc 1 1085 30 is_stmt 0 view .LVU982
 2756 0058 15B2     		sxth	r5, r2
 2757              	.LVL288:
1085:lvgl/src/lv_core/lv_style.c ****                 }
 2758              		.loc 1 1085 30 view .LVU983
 2759 005a 11E0     		b	.L177
 2760              	.LVL289:
 2761              	.L200:
1076:lvgl/src/lv_core/lv_style.c ****             }
 2762              		.loc 1 1076 17 is_stmt 1 view .LVU984
1076:lvgl/src/lv_core/lv_style.c ****             }
 2763              		.loc 1 1076 24 is_stmt 0 view .LVU985
 2764 005c 1346     		mov	r3, r2
 2765              	.LVL290:
1076:lvgl/src/lv_core/lv_style.c ****             }
 2766              		.loc 1 1076 24 view .LVU986
 2767 005e 1EE0     		b	.L175
 2768              	.LVL291:
 2769              	.L196:
1076:lvgl/src/lv_core/lv_style.c ****             }
 2770              		.loc 1 1076 24 view .LVU987
 2771              	.LBE398:
 2772              	.LBB403:
 2773              	.LBB404:
 2774              	.LBB405:
 2775              	.LBB406:
1179:lvgl/src/lv_core/lv_style.c ****     else if(prop_id < LV_STYLE_ID_OPA) size += sizeof(lv_color_t);
 2776              		.loc 1 1179 42 view .LVU988
ARM GAS  D:\Temp\cceOI0TF.s 			page 95


 2777 0060 0421     		movs	r1, #4
 2778              	.L179:
 2779              	.LVL292:
1183:lvgl/src/lv_core/lv_style.c **** }
 2780              		.loc 1 1183 5 is_stmt 1 view .LVU989
1183:lvgl/src/lv_core/lv_style.c **** }
 2781              		.loc 1 1183 5 is_stmt 0 view .LVU990
 2782              	.LBE406:
 2783              	.LBE405:
 2784              		.loc 1 1194 16 view .LVU991
 2785 0062 0A44     		add	r2, r2, r1
 2786              	.LVL293:
 2787              	.L176:
 2788              		.loc 1 1194 16 view .LVU992
 2789              	.LBE404:
 2790              	.LBE403:
 2791              	.LBB410:
 2792              	.LBI410:
1153:lvgl/src/lv_core/lv_style.c **** {
 2793              		.loc 1 1153 23 is_stmt 1 view .LVU993
 2794              	.LBB411:
1155:lvgl/src/lv_core/lv_style.c **** }
 2795              		.loc 1 1155 5 view .LVU994
 2796              	.LBB412:
 2797              	.LBI412:
1138:lvgl/src/lv_core/lv_style.c **** {
 2798              		.loc 1 1138 35 view .LVU995
 2799              	.LBB413:
1140:lvgl/src/lv_core/lv_style.c ****     uint8_t * prop_p = (uint8_t *)&prop;
 2800              		.loc 1 1140 5 view .LVU996
1141:lvgl/src/lv_core/lv_style.c ****     prop_p[0] = style->map[idx];
 2801              		.loc 1 1141 5 view .LVU997
1142:lvgl/src/lv_core/lv_style.c ****     prop_p[1] = style->map[idx + 1];
 2802              		.loc 1 1142 5 view .LVU998
1142:lvgl/src/lv_core/lv_style.c ****     prop_p[1] = style->map[idx + 1];
 2803              		.loc 1 1142 22 is_stmt 0 view .LVU999
 2804 0064 0368     		ldr	r3, [r0]
1142:lvgl/src/lv_core/lv_style.c ****     prop_p[1] = style->map[idx + 1];
 2805              		.loc 1 1142 27 view .LVU1000
 2806 0066 995C     		ldrb	r1, [r3, r2]	@ zero_extendqisi2
1142:lvgl/src/lv_core/lv_style.c ****     prop_p[1] = style->map[idx + 1];
 2807              		.loc 1 1142 15 view .LVU1001
 2808 0068 8DF80C10 		strb	r1, [sp, #12]
1143:lvgl/src/lv_core/lv_style.c ****     return prop;
 2809              		.loc 1 1143 5 is_stmt 1 view .LVU1002
1143:lvgl/src/lv_core/lv_style.c ****     return prop;
 2810              		.loc 1 1143 27 is_stmt 0 view .LVU1003
 2811 006c 511C     		adds	r1, r2, #1
 2812 006e 5C5C     		ldrb	r4, [r3, r1]	@ zero_extendqisi2
1143:lvgl/src/lv_core/lv_style.c ****     return prop;
 2813              		.loc 1 1143 15 view .LVU1004
 2814 0070 8DF80D40 		strb	r4, [sp, #13]
1144:lvgl/src/lv_core/lv_style.c **** }
 2815              		.loc 1 1144 5 is_stmt 1 view .LVU1005
 2816              	.LVL294:
1144:lvgl/src/lv_core/lv_style.c **** }
 2817              		.loc 1 1144 5 is_stmt 0 view .LVU1006
ARM GAS  D:\Temp\cceOI0TF.s 			page 96


 2818              	.LBE413:
 2819              	.LBE412:
1155:lvgl/src/lv_core/lv_style.c **** }
 2820              		.loc 1 1155 39 view .LVU1007
 2821 0074 9DF80C30 		ldrb	r3, [sp, #12]	@ zero_extendqisi2
 2822              	.LVL295:
1155:lvgl/src/lv_core/lv_style.c **** }
 2823              		.loc 1 1155 39 view .LVU1008
 2824              	.LBE411:
 2825              	.LBE410:
1069:lvgl/src/lv_core/lv_style.c ****         if(prop_id == id_to_find) {
 2826              		.loc 1 1069 10 view .LVU1009
 2827 0078 FF2B     		cmp	r3, #255
 2828 007a 0FD0     		beq	.L201
1070:lvgl/src/lv_core/lv_style.c ****             lv_style_attr_t attr_i;
 2829              		.loc 1 1070 9 is_stmt 1 view .LVU1010
1070:lvgl/src/lv_core/lv_style.c ****             lv_style_attr_t attr_i;
 2830              		.loc 1 1070 11 is_stmt 0 view .LVU1011
 2831 007c 9F42     		cmp	r7, r3
 2832 007e CFD0     		beq	.L202
 2833              	.L177:
1090:lvgl/src/lv_core/lv_style.c ****     }
 2834              		.loc 1 1090 9 is_stmt 1 view .LVU1012
 2835              	.LVL296:
 2836              	.LBB414:
 2837              	.LBI403:
1192:lvgl/src/lv_core/lv_style.c **** {
 2838              		.loc 1 1192 22 view .LVU1013
 2839              	.LBB409:
 2840              		.loc 1 1194 5 view .LVU1014
 2841              	.LBB408:
 2842              	.LBI405:
1175:lvgl/src/lv_core/lv_style.c **** {
 2843              		.loc 1 1175 22 view .LVU1015
 2844              	.LBB407:
1177:lvgl/src/lv_core/lv_style.c ****     size_t size = sizeof(lv_style_property_t);
 2845              		.loc 1 1177 5 view .LVU1016
1177:lvgl/src/lv_core/lv_style.c ****     size_t size = sizeof(lv_style_property_t);
 2846              		.loc 1 1177 13 is_stmt 0 view .LVU1017
 2847 0080 03F00F03 		and	r3, r3, #15
 2848              	.LVL297:
1178:lvgl/src/lv_core/lv_style.c ****     if(prop_id < LV_STYLE_ID_COLOR) size += sizeof(lv_style_int_t);
 2849              		.loc 1 1178 5 is_stmt 1 view .LVU1018
1179:lvgl/src/lv_core/lv_style.c ****     else if(prop_id < LV_STYLE_ID_OPA) size += sizeof(lv_color_t);
 2850              		.loc 1 1179 5 view .LVU1019
1179:lvgl/src/lv_core/lv_style.c ****     else if(prop_id < LV_STYLE_ID_OPA) size += sizeof(lv_color_t);
 2851              		.loc 1 1179 7 is_stmt 0 view .LVU1020
 2852 0084 082B     		cmp	r3, #8
 2853 0086 EBD9     		bls	.L196
1180:lvgl/src/lv_core/lv_style.c ****     else if(prop_id < LV_STYLE_ID_PTR) size += sizeof(lv_opa_t);
 2854              		.loc 1 1180 10 is_stmt 1 view .LVU1021
1180:lvgl/src/lv_core/lv_style.c ****     else if(prop_id < LV_STYLE_ID_PTR) size += sizeof(lv_opa_t);
 2855              		.loc 1 1180 12 is_stmt 0 view .LVU1022
 2856 0088 0B2B     		cmp	r3, #11
 2857 008a 03D9     		bls	.L197
1181:lvgl/src/lv_core/lv_style.c ****     else size += sizeof(const void *);
 2858              		.loc 1 1181 10 is_stmt 1 view .LVU1023
ARM GAS  D:\Temp\cceOI0TF.s 			page 97


1181:lvgl/src/lv_core/lv_style.c ****     else size += sizeof(const void *);
 2859              		.loc 1 1181 12 is_stmt 0 view .LVU1024
 2860 008c 0D2B     		cmp	r3, #13
 2861 008e 03D8     		bhi	.L198
1181:lvgl/src/lv_core/lv_style.c ****     else size += sizeof(const void *);
 2862              		.loc 1 1181 45 view .LVU1025
 2863 0090 0321     		movs	r1, #3
 2864 0092 E6E7     		b	.L179
 2865              	.L197:
1180:lvgl/src/lv_core/lv_style.c ****     else if(prop_id < LV_STYLE_ID_PTR) size += sizeof(lv_opa_t);
 2866              		.loc 1 1180 45 view .LVU1026
 2867 0094 0421     		movs	r1, #4
 2868 0096 E4E7     		b	.L179
 2869              	.L198:
1182:lvgl/src/lv_core/lv_style.c ****     return size;
 2870              		.loc 1 1182 15 view .LVU1027
 2871 0098 0621     		movs	r1, #6
 2872 009a E2E7     		b	.L179
 2873              	.LVL298:
 2874              	.L201:
1182:lvgl/src/lv_core/lv_style.c ****     return size;
 2875              		.loc 1 1182 15 view .LVU1028
 2876              	.LBE407:
 2877              	.LBE408:
 2878              	.LBE409:
 2879              	.LBE414:
1093:lvgl/src/lv_core/lv_style.c **** }
 2880              		.loc 1 1093 5 is_stmt 1 view .LVU1029
1093:lvgl/src/lv_core/lv_style.c **** }
 2881              		.loc 1 1093 12 is_stmt 0 view .LVU1030
 2882 009c 2B46     		mov	r3, r5
 2883              	.LVL299:
 2884              	.L175:
1093:lvgl/src/lv_core/lv_style.c **** }
 2885              		.loc 1 1093 12 view .LVU1031
 2886              	.LBE397:
 2887              	.LBE396:
 459:lvgl/src/lv_core/lv_style.c ****         lv_style_attr_t attr_found;
 2888              		.loc 1 459 5 is_stmt 1 view .LVU1032
 459:lvgl/src/lv_core/lv_style.c ****         lv_style_attr_t attr_found;
 2889              		.loc 1 459 7 is_stmt 0 view .LVU1033
 2890 009e 002B     		cmp	r3, #0
 2891 00a0 11DB     		blt	.L181
 2892              	.LBB416:
 460:lvgl/src/lv_core/lv_style.c ****         lv_style_attr_t attr_goal;
 2893              		.loc 1 460 9 is_stmt 1 view .LVU1034
 461:lvgl/src/lv_core/lv_style.c **** 
 2894              		.loc 1 461 9 view .LVU1035
 463:lvgl/src/lv_core/lv_style.c ****         attr_goal = (prop >> 8) & 0xFFU;
 2895              		.loc 1 463 9 view .LVU1036
 2896              	.LVL300:
 2897              	.LBB417:
 2898              	.LBI417:
1164:lvgl/src/lv_core/lv_style.c **** {
 2899              		.loc 1 1164 23 view .LVU1037
 2900              	.LBB418:
1166:lvgl/src/lv_core/lv_style.c **** }
ARM GAS  D:\Temp\cceOI0TF.s 			page 98


 2901              		.loc 1 1166 5 view .LVU1038
 2902              	.LBB419:
 2903              	.LBI419:
1138:lvgl/src/lv_core/lv_style.c **** {
 2904              		.loc 1 1138 35 view .LVU1039
 2905              	.LBB420:
1140:lvgl/src/lv_core/lv_style.c ****     uint8_t * prop_p = (uint8_t *)&prop;
 2906              		.loc 1 1140 5 view .LVU1040
1141:lvgl/src/lv_core/lv_style.c ****     prop_p[0] = style->map[idx];
 2907              		.loc 1 1141 5 view .LVU1041
1142:lvgl/src/lv_core/lv_style.c ****     prop_p[1] = style->map[idx + 1];
 2908              		.loc 1 1142 5 view .LVU1042
1142:lvgl/src/lv_core/lv_style.c ****     prop_p[1] = style->map[idx + 1];
 2909              		.loc 1 1142 22 is_stmt 0 view .LVU1043
 2910 00a2 0268     		ldr	r2, [r0]
1142:lvgl/src/lv_core/lv_style.c ****     prop_p[1] = style->map[idx + 1];
 2911              		.loc 1 1142 27 view .LVU1044
 2912 00a4 D15C     		ldrb	r1, [r2, r3]	@ zero_extendqisi2
1142:lvgl/src/lv_core/lv_style.c ****     prop_p[1] = style->map[idx + 1];
 2913              		.loc 1 1142 15 view .LVU1045
 2914 00a6 8DF80C10 		strb	r1, [sp, #12]
1143:lvgl/src/lv_core/lv_style.c ****     return prop;
 2915              		.loc 1 1143 5 is_stmt 1 view .LVU1046
1143:lvgl/src/lv_core/lv_style.c ****     return prop;
 2916              		.loc 1 1143 27 is_stmt 0 view .LVU1047
 2917 00aa 1A44     		add	r2, r2, r3
 2918 00ac 5278     		ldrb	r2, [r2, #1]	@ zero_extendqisi2
1143:lvgl/src/lv_core/lv_style.c ****     return prop;
 2919              		.loc 1 1143 15 view .LVU1048
 2920 00ae 8DF80D20 		strb	r2, [sp, #13]
1144:lvgl/src/lv_core/lv_style.c **** }
 2921              		.loc 1 1144 5 is_stmt 1 view .LVU1049
1144:lvgl/src/lv_core/lv_style.c **** }
 2922              		.loc 1 1144 12 is_stmt 0 view .LVU1050
 2923 00b2 BDF80C10 		ldrh	r1, [sp, #12]
 2924              	.LVL301:
1144:lvgl/src/lv_core/lv_style.c **** }
 2925              		.loc 1 1144 12 view .LVU1051
 2926              	.LBE420:
 2927              	.LBE419:
 2928              	.LBE418:
 2929              	.LBE417:
 464:lvgl/src/lv_core/lv_style.c **** 
 2930              		.loc 1 464 9 is_stmt 1 view .LVU1052
 464:lvgl/src/lv_core/lv_style.c **** 
 2931              		.loc 1 464 19 is_stmt 0 view .LVU1053
 2932 00b6 BDF80620 		ldrh	r2, [sp, #6]
 2933 00ba 120A     		lsrs	r2, r2, #8
 2934              	.LVL302:
 466:lvgl/src/lv_core/lv_style.c ****             _lv_memcpy_small(style->map + id + sizeof(lv_style_property_t), &opa, sizeof(lv_opa_t))
 2935              		.loc 1 466 9 is_stmt 1 view .LVU1054
 466:lvgl/src/lv_core/lv_style.c ****             _lv_memcpy_small(style->map + id + sizeof(lv_style_property_t), &opa, sizeof(lv_opa_t))
 2936              		.loc 1 466 48 is_stmt 0 view .LVU1055
 2937 00bc 82EA1122 		eor	r2, r2, r1, lsr #8
 2938              	.LVL303:
 466:lvgl/src/lv_core/lv_style.c ****             _lv_memcpy_small(style->map + id + sizeof(lv_style_property_t), &opa, sizeof(lv_opa_t))
 2939              		.loc 1 466 11 view .LVU1056
ARM GAS  D:\Temp\cceOI0TF.s 			page 99


 2940 00c0 12F07F0F 		tst	r2, #127
 2941 00c4 20D0     		beq	.L203
 2942              	.LVL304:
 2943              	.L181:
 466:lvgl/src/lv_core/lv_style.c ****             _lv_memcpy_small(style->map + id + sizeof(lv_style_property_t), &opa, sizeof(lv_opa_t))
 2944              		.loc 1 466 11 view .LVU1057
 2945 00c6 0546     		mov	r5, r0
 2946              	.LBE416:
 473:lvgl/src/lv_core/lv_style.c ****     lv_style_property_t end_mark = _LV_STYLE_CLOSING_PROP;
 2947              		.loc 1 473 5 is_stmt 1 view .LVU1058
 2948              	.LVL305:
 474:lvgl/src/lv_core/lv_style.c ****     uint8_t end_mark_size = sizeof(end_mark);
 2949              		.loc 1 474 5 view .LVU1059
 474:lvgl/src/lv_core/lv_style.c ****     uint8_t end_mark_size = sizeof(end_mark);
 2950              		.loc 1 474 25 is_stmt 0 view .LVU1060
 2951 00c8 FF23     		movs	r3, #255
 2952              	.LVL306:
 474:lvgl/src/lv_core/lv_style.c ****     uint8_t end_mark_size = sizeof(end_mark);
 2953              		.loc 1 474 25 view .LVU1061
 2954 00ca ADF80E30 		strh	r3, [sp, #14]	@ movhi
 475:lvgl/src/lv_core/lv_style.c **** 
 2955              		.loc 1 475 5 is_stmt 1 view .LVU1062
 2956              	.LVL307:
 477:lvgl/src/lv_core/lv_style.c ****     if(size == 0) size += end_mark_size;
 2957              		.loc 1 477 5 view .LVU1063
 477:lvgl/src/lv_core/lv_style.c ****     if(size == 0) size += end_mark_size;
 2958              		.loc 1 477 21 is_stmt 0 view .LVU1064
 2959 00ce FFF7FEFF 		bl	_lv_style_get_mem_size
 2960              	.LVL308:
 478:lvgl/src/lv_core/lv_style.c **** 
 2961              		.loc 1 478 5 is_stmt 1 view .LVU1065
 478:lvgl/src/lv_core/lv_style.c **** 
 2962              		.loc 1 478 7 is_stmt 0 view .LVU1066
 2963 00d2 0346     		mov	r3, r0
 2964 00d4 08B9     		cbnz	r0, .L185
 478:lvgl/src/lv_core/lv_style.c **** 
 2965              		.loc 1 478 19 is_stmt 1 discriminator 1 view .LVU1067
 478:lvgl/src/lv_core/lv_style.c **** 
 2966              		.loc 1 478 24 is_stmt 0 discriminator 1 view .LVU1068
 2967 00d6 0233     		adds	r3, r3, #2
 2968 00d8 9BB2     		uxth	r3, r3
 2969              	.LVL309:
 2970              	.L185:
 480:lvgl/src/lv_core/lv_style.c ****     style_resize(style, size);
 2971              		.loc 1 480 5 is_stmt 1 view .LVU1069
 480:lvgl/src/lv_core/lv_style.c ****     style_resize(style, size);
 2972              		.loc 1 480 10 is_stmt 0 view .LVU1070
 2973 00da 0333     		adds	r3, r3, #3
 2974              	.LVL310:
 480:lvgl/src/lv_core/lv_style.c ****     style_resize(style, size);
 2975              		.loc 1 480 10 view .LVU1071
 2976 00dc 9CB2     		uxth	r4, r3
 481:lvgl/src/lv_core/lv_style.c ****     LV_ASSERT_MEM(style->map);
 2977              		.loc 1 481 5 is_stmt 1 view .LVU1072
 2978              	.LVL311:
 2979              	.LBB425:
 2980              	.LBI425:
ARM GAS  D:\Temp\cceOI0TF.s 			page 100


1127:lvgl/src/lv_core/lv_style.c **** {
 2981              		.loc 1 1127 20 view .LVU1073
 2982              	.LBB426:
1129:lvgl/src/lv_core/lv_style.c **** }
 2983              		.loc 1 1129 5 view .LVU1074
1129:lvgl/src/lv_core/lv_style.c **** }
 2984              		.loc 1 1129 18 is_stmt 0 view .LVU1075
 2985 00de 2146     		mov	r1, r4
 2986 00e0 2868     		ldr	r0, [r5]
 2987 00e2 FFF7FEFF 		bl	lv_mem_realloc
 2988              	.LVL312:
1129:lvgl/src/lv_core/lv_style.c **** }
 2989              		.loc 1 1129 16 view .LVU1076
 2990 00e6 2860     		str	r0, [r5]
 2991              	.LVL313:
1129:lvgl/src/lv_core/lv_style.c **** }
 2992              		.loc 1 1129 16 view .LVU1077
 2993              	.LBE426:
 2994              	.LBE425:
 482:lvgl/src/lv_core/lv_style.c ****     if(style == NULL) return;
 2995              		.loc 1 482 5 is_stmt 1 view .LVU1078
 482:lvgl/src/lv_core/lv_style.c ****     if(style == NULL) return;
 2996              		.loc 1 482 5 view .LVU1079
 2997 00e8 FFF7FEFF 		bl	lv_debug_check_null
 2998              	.LVL314:
 2999 00ec D8B1     		cbz	r0, .L204
 482:lvgl/src/lv_core/lv_style.c ****     if(style == NULL) return;
 3000              		.loc 1 482 30 discriminator 2 view .LVU1080
 483:lvgl/src/lv_core/lv_style.c **** 
 3001              		.loc 1 483 5 discriminator 2 view .LVU1081
 483:lvgl/src/lv_core/lv_style.c **** 
 3002              		.loc 1 483 7 is_stmt 0 discriminator 2 view .LVU1082
 3003 00ee 002D     		cmp	r5, #0
 3004 00f0 41D0     		beq	.L174
 485:lvgl/src/lv_core/lv_style.c ****     _lv_memcpy_small(style->map + size - sizeof(lv_opa_t) - end_mark_size, &opa, sizeof(lv_opa_t));
 3005              		.loc 1 485 5 is_stmt 1 view .LVU1083
 485:lvgl/src/lv_core/lv_style.c ****     _lv_memcpy_small(style->map + size - sizeof(lv_opa_t) - end_mark_size, &opa, sizeof(lv_opa_t));
 3006              		.loc 1 485 27 is_stmt 0 view .LVU1084
 3007 00f2 2B68     		ldr	r3, [r5]
 485:lvgl/src/lv_core/lv_style.c ****     _lv_memcpy_small(style->map + size - sizeof(lv_opa_t) - end_mark_size, &opa, sizeof(lv_opa_t));
 3008              		.loc 1 485 40 view .LVU1085
 3009 00f4 E01E     		subs	r0, r4, #3
 485:lvgl/src/lv_core/lv_style.c ****     _lv_memcpy_small(style->map + size - sizeof(lv_opa_t) - end_mark_size, &opa, sizeof(lv_opa_t));
 3010              		.loc 1 485 56 view .LVU1086
 3011 00f6 621F     		subs	r2, r4, #5
 3012 00f8 1344     		add	r3, r3, r2
 3013              	.LVL315:
 3014              	.LBB427:
 3015              	.LBI427:
 213:lvgl/src/lv_core/../lv_font/../lv_misc/lv_mem.h **** {
 3016              		.loc 3 213 44 is_stmt 1 view .LVU1087
 3017              	.LBB428:
 215:lvgl/src/lv_core/../lv_font/../lv_misc/lv_mem.h ****     const uint8_t * s8 = (const uint8_t *)src;
 3018              		.loc 3 215 5 view .LVU1088
 216:lvgl/src/lv_core/../lv_font/../lv_misc/lv_mem.h **** 
 3019              		.loc 3 216 5 view .LVU1089
 218:lvgl/src/lv_core/../lv_font/../lv_misc/lv_mem.h ****         *d8 = *s8;
ARM GAS  D:\Temp\cceOI0TF.s 			page 101


 3020              		.loc 3 218 5 view .LVU1090
 216:lvgl/src/lv_core/../lv_font/../lv_misc/lv_mem.h **** 
 3021              		.loc 3 216 21 is_stmt 0 view .LVU1091
 3022 00fa 0DF10601 		add	r1, sp, #6
 3023              	.LVL316:
 216:lvgl/src/lv_core/../lv_font/../lv_misc/lv_mem.h **** 
 3024              		.loc 3 216 21 view .LVU1092
 3025              	.LBE428:
 3026              	.LBE427:
 485:lvgl/src/lv_core/lv_style.c ****     _lv_memcpy_small(style->map + size - sizeof(lv_opa_t) - end_mark_size, &opa, sizeof(lv_opa_t));
 3027              		.loc 1 485 56 view .LVU1093
 3028 00fe 0222     		movs	r2, #2
 3029 0100 1CE0     		b	.L188
 3030              	.LVL317:
 3031              	.L195:
 3032              	.LBB430:
 3033              	.LBB415:
1057:lvgl/src/lv_core/lv_style.c **** 
 3034              		.loc 1 1057 35 view .LVU1094
 3035 0102 4FF0FF33 		mov	r3, #-1
 3036 0106 CAE7     		b	.L175
 3037              	.LVL318:
 3038              	.L203:
1057:lvgl/src/lv_core/lv_style.c **** 
 3039              		.loc 1 1057 35 view .LVU1095
 3040              	.LBE415:
 3041              	.LBE430:
 3042              	.LBB431:
 467:lvgl/src/lv_core/lv_style.c ****             return;
 3043              		.loc 1 467 13 is_stmt 1 view .LVU1096
 467:lvgl/src/lv_core/lv_style.c ****             return;
 3044              		.loc 1 467 35 is_stmt 0 view .LVU1097
 3045 0108 0268     		ldr	r2, [r0]
 467:lvgl/src/lv_core/lv_style.c ****             return;
 3046              		.loc 1 467 46 view .LVU1098
 3047 010a 0233     		adds	r3, r3, #2
 3048              	.LVL319:
 467:lvgl/src/lv_core/lv_style.c ****             return;
 3049              		.loc 1 467 46 view .LVU1099
 3050 010c 1344     		add	r3, r3, r2
 3051              	.LVL320:
 3052              	.LBB421:
 3053              	.LBI421:
 213:lvgl/src/lv_core/../lv_font/../lv_misc/lv_mem.h **** {
 3054              		.loc 3 213 44 is_stmt 1 view .LVU1100
 3055              	.LBB422:
 215:lvgl/src/lv_core/../lv_font/../lv_misc/lv_mem.h ****     const uint8_t * s8 = (const uint8_t *)src;
 3056              		.loc 3 215 5 view .LVU1101
 216:lvgl/src/lv_core/../lv_font/../lv_misc/lv_mem.h **** 
 3057              		.loc 3 216 5 view .LVU1102
 218:lvgl/src/lv_core/../lv_font/../lv_misc/lv_mem.h ****         *d8 = *s8;
 3058              		.loc 3 218 5 view .LVU1103
 216:lvgl/src/lv_core/../lv_font/../lv_misc/lv_mem.h **** 
 3059              		.loc 3 216 21 is_stmt 0 view .LVU1104
 3060 010e 0DF10501 		add	r1, sp, #5
 3061              	.LVL321:
 216:lvgl/src/lv_core/../lv_font/../lv_misc/lv_mem.h **** 
ARM GAS  D:\Temp\cceOI0TF.s 			page 102


 3062              		.loc 3 216 21 view .LVU1105
 3063              	.LBE422:
 3064              	.LBE421:
 467:lvgl/src/lv_core/lv_style.c ****             return;
 3065              		.loc 1 467 46 view .LVU1106
 3066 0112 0122     		movs	r2, #1
 3067 0114 04E0     		b	.L182
 3068              	.LVL322:
 3069              	.L183:
 3070              	.LBB424:
 3071              	.LBB423:
 219:lvgl/src/lv_core/../lv_font/../lv_misc/lv_mem.h ****         d8++;
 3072              		.loc 3 219 9 is_stmt 1 view .LVU1107
 219:lvgl/src/lv_core/../lv_font/../lv_misc/lv_mem.h ****         d8++;
 3073              		.loc 3 219 15 is_stmt 0 view .LVU1108
 3074 0116 11F8010B 		ldrb	r0, [r1], #1	@ zero_extendqisi2
 3075              	.LVL323:
 219:lvgl/src/lv_core/../lv_font/../lv_misc/lv_mem.h ****         d8++;
 3076              		.loc 3 219 13 view .LVU1109
 3077 011a 03F8010B 		strb	r0, [r3], #1
 3078              	.LVL324:
 220:lvgl/src/lv_core/../lv_font/../lv_misc/lv_mem.h ****         s8++;
 3079              		.loc 3 220 9 is_stmt 1 view .LVU1110
 221:lvgl/src/lv_core/../lv_font/../lv_misc/lv_mem.h ****         len--;
 3080              		.loc 3 221 9 view .LVU1111
 222:lvgl/src/lv_core/../lv_font/../lv_misc/lv_mem.h ****     }
 3081              		.loc 3 222 9 view .LVU1112
 222:lvgl/src/lv_core/../lv_font/../lv_misc/lv_mem.h ****     }
 3082              		.loc 3 222 12 is_stmt 0 view .LVU1113
 3083 011e 013A     		subs	r2, r2, #1
 3084              	.LVL325:
 3085              	.L182:
 218:lvgl/src/lv_core/../lv_font/../lv_misc/lv_mem.h ****         *d8 = *s8;
 3086              		.loc 3 218 10 view .LVU1114
 3087 0120 002A     		cmp	r2, #0
 3088 0122 F8D1     		bne	.L183
 218:lvgl/src/lv_core/../lv_font/../lv_misc/lv_mem.h ****         *d8 = *s8;
 3089              		.loc 3 218 10 view .LVU1115
 3090 0124 27E0     		b	.L174
 3091              	.LVL326:
 3092              	.L204:
 218:lvgl/src/lv_core/../lv_font/../lv_misc/lv_mem.h ****         *d8 = *s8;
 3093              		.loc 3 218 10 view .LVU1116
 3094              	.LBE423:
 3095              	.LBE424:
 3096              	.LBE431:
 482:lvgl/src/lv_core/lv_style.c ****     if(style == NULL) return;
 3097              		.loc 1 482 5 is_stmt 1 discriminator 1 view .LVU1117
 482:lvgl/src/lv_core/lv_style.c ****     if(style == NULL) return;
 3098              		.loc 1 482 5 discriminator 1 view .LVU1118
 3099 0126 2A68     		ldr	r2, [r5]
 3100 0128 0023     		movs	r3, #0
 3101 012a 1448     		ldr	r0, .L205
 3102 012c FFF7FEFF 		bl	lv_debug_log_error
 3103              	.LVL327:
 3104              	.L187:
 482:lvgl/src/lv_core/lv_style.c ****     if(style == NULL) return;
ARM GAS  D:\Temp\cceOI0TF.s 			page 103


 3105              		.loc 1 482 5 discriminator 1 view .LVU1119
 482:lvgl/src/lv_core/lv_style.c ****     if(style == NULL) return;
 3106              		.loc 1 482 5 discriminator 1 view .LVU1120
 3107 0130 FEE7     		b	.L187
 3108              	.LVL328:
 3109              	.L189:
 3110              	.LBB432:
 3111              	.LBB429:
 219:lvgl/src/lv_core/../lv_font/../lv_misc/lv_mem.h ****         d8++;
 3112              		.loc 3 219 9 view .LVU1121
 219:lvgl/src/lv_core/../lv_font/../lv_misc/lv_mem.h ****         d8++;
 3113              		.loc 3 219 15 is_stmt 0 view .LVU1122
 3114 0132 11F8016B 		ldrb	r6, [r1], #1	@ zero_extendqisi2
 3115              	.LVL329:
 219:lvgl/src/lv_core/../lv_font/../lv_misc/lv_mem.h ****         d8++;
 3116              		.loc 3 219 13 view .LVU1123
 3117 0136 03F8016B 		strb	r6, [r3], #1
 3118              	.LVL330:
 220:lvgl/src/lv_core/../lv_font/../lv_misc/lv_mem.h ****         s8++;
 3119              		.loc 3 220 9 is_stmt 1 view .LVU1124
 221:lvgl/src/lv_core/../lv_font/../lv_misc/lv_mem.h ****         len--;
 3120              		.loc 3 221 9 view .LVU1125
 222:lvgl/src/lv_core/../lv_font/../lv_misc/lv_mem.h ****     }
 3121              		.loc 3 222 9 view .LVU1126
 222:lvgl/src/lv_core/../lv_font/../lv_misc/lv_mem.h ****     }
 3122              		.loc 3 222 12 is_stmt 0 view .LVU1127
 3123 013a 013A     		subs	r2, r2, #1
 3124              	.LVL331:
 3125              	.L188:
 218:lvgl/src/lv_core/../lv_font/../lv_misc/lv_mem.h ****         *d8 = *s8;
 3126              		.loc 3 218 10 view .LVU1128
 3127 013c 002A     		cmp	r2, #0
 3128 013e F8D1     		bne	.L189
 3129              		.loc 3 225 5 is_stmt 1 view .LVU1129
 3130              	.LVL332:
 3131              		.loc 3 225 5 is_stmt 0 view .LVU1130
 3132              	.LBE429:
 3133              	.LBE432:
 486:lvgl/src/lv_core/lv_style.c ****     _lv_memcpy_small(style->map + size - end_mark_size, &end_mark, sizeof(end_mark));
 3134              		.loc 1 486 5 is_stmt 1 view .LVU1131
 486:lvgl/src/lv_core/lv_style.c ****     _lv_memcpy_small(style->map + size - end_mark_size, &end_mark, sizeof(end_mark));
 3135              		.loc 1 486 27 is_stmt 0 view .LVU1132
 3136 0140 2B68     		ldr	r3, [r5]
 486:lvgl/src/lv_core/lv_style.c ****     _lv_memcpy_small(style->map + size - end_mark_size, &end_mark, sizeof(end_mark));
 3137              		.loc 1 486 59 view .LVU1133
 3138 0142 023C     		subs	r4, r4, #2
 3139 0144 0344     		add	r3, r3, r0
 3140              	.LVL333:
 3141              	.LBB433:
 3142              	.LBI433:
 213:lvgl/src/lv_core/../lv_font/../lv_misc/lv_mem.h **** {
 3143              		.loc 3 213 44 is_stmt 1 view .LVU1134
 3144              	.LBB434:
 216:lvgl/src/lv_core/../lv_font/../lv_misc/lv_mem.h **** 
 3145              		.loc 3 216 21 is_stmt 0 view .LVU1135
 3146 0146 0DF10501 		add	r1, sp, #5
 3147              	.LVL334:
ARM GAS  D:\Temp\cceOI0TF.s 			page 104


 216:lvgl/src/lv_core/../lv_font/../lv_misc/lv_mem.h **** 
 3148              		.loc 3 216 21 view .LVU1136
 3149              	.LBE434:
 3150              	.LBE433:
 486:lvgl/src/lv_core/lv_style.c ****     _lv_memcpy_small(style->map + size - end_mark_size, &end_mark, sizeof(end_mark));
 3151              		.loc 1 486 59 view .LVU1137
 3152 014a 0122     		movs	r2, #1
 3153 014c 04E0     		b	.L190
 3154              	.LVL335:
 3155              	.L191:
 3156              	.LBB436:
 3157              	.LBB435:
 219:lvgl/src/lv_core/../lv_font/../lv_misc/lv_mem.h ****         d8++;
 3158              		.loc 3 219 9 is_stmt 1 view .LVU1138
 219:lvgl/src/lv_core/../lv_font/../lv_misc/lv_mem.h ****         d8++;
 3159              		.loc 3 219 15 is_stmt 0 view .LVU1139
 3160 014e 11F8010B 		ldrb	r0, [r1], #1	@ zero_extendqisi2
 3161              	.LVL336:
 219:lvgl/src/lv_core/../lv_font/../lv_misc/lv_mem.h ****         d8++;
 3162              		.loc 3 219 13 view .LVU1140
 3163 0152 03F8010B 		strb	r0, [r3], #1
 3164              	.LVL337:
 220:lvgl/src/lv_core/../lv_font/../lv_misc/lv_mem.h ****         s8++;
 3165              		.loc 3 220 9 is_stmt 1 view .LVU1141
 221:lvgl/src/lv_core/../lv_font/../lv_misc/lv_mem.h ****         len--;
 3166              		.loc 3 221 9 view .LVU1142
 222:lvgl/src/lv_core/../lv_font/../lv_misc/lv_mem.h ****     }
 3167              		.loc 3 222 9 view .LVU1143
 222:lvgl/src/lv_core/../lv_font/../lv_misc/lv_mem.h ****     }
 3168              		.loc 3 222 12 is_stmt 0 view .LVU1144
 3169 0156 013A     		subs	r2, r2, #1
 3170              	.LVL338:
 3171              	.L190:
 218:lvgl/src/lv_core/../lv_font/../lv_misc/lv_mem.h ****         *d8 = *s8;
 3172              		.loc 3 218 10 view .LVU1145
 3173 0158 002A     		cmp	r2, #0
 3174 015a F8D1     		bne	.L191
 3175              		.loc 3 225 5 is_stmt 1 view .LVU1146
 3176              	.LVL339:
 3177              		.loc 3 225 5 is_stmt 0 view .LVU1147
 3178              	.LBE435:
 3179              	.LBE436:
 487:lvgl/src/lv_core/lv_style.c **** }
 3180              		.loc 1 487 5 is_stmt 1 view .LVU1148
 487:lvgl/src/lv_core/lv_style.c **** }
 3181              		.loc 1 487 27 is_stmt 0 view .LVU1149
 3182 015c 2B68     		ldr	r3, [r5]
 487:lvgl/src/lv_core/lv_style.c **** }
 3183              		.loc 1 487 40 view .LVU1150
 3184 015e 1C44     		add	r4, r4, r3
 3185              	.LVL340:
 3186              	.LBB437:
 3187              	.LBI437:
 213:lvgl/src/lv_core/../lv_font/../lv_misc/lv_mem.h **** {
 3188              		.loc 3 213 44 is_stmt 1 view .LVU1151
 3189              	.LBB438:
 216:lvgl/src/lv_core/../lv_font/../lv_misc/lv_mem.h **** 
ARM GAS  D:\Temp\cceOI0TF.s 			page 105


 3190              		.loc 3 216 21 is_stmt 0 view .LVU1152
 3191 0160 0DF10E02 		add	r2, sp, #14
 3192              	.LVL341:
 216:lvgl/src/lv_core/../lv_font/../lv_misc/lv_mem.h **** 
 3193              		.loc 3 216 21 view .LVU1153
 3194              	.LBE438:
 3195              	.LBE437:
 487:lvgl/src/lv_core/lv_style.c **** }
 3196              		.loc 1 487 40 view .LVU1154
 3197 0164 0223     		movs	r3, #2
 3198 0166 04E0     		b	.L192
 3199              	.LVL342:
 3200              	.L193:
 3201              	.LBB440:
 3202              	.LBB439:
 219:lvgl/src/lv_core/../lv_font/../lv_misc/lv_mem.h ****         d8++;
 3203              		.loc 3 219 9 is_stmt 1 view .LVU1155
 219:lvgl/src/lv_core/../lv_font/../lv_misc/lv_mem.h ****         d8++;
 3204              		.loc 3 219 15 is_stmt 0 view .LVU1156
 3205 0168 12F8011B 		ldrb	r1, [r2], #1	@ zero_extendqisi2
 3206              	.LVL343:
 219:lvgl/src/lv_core/../lv_font/../lv_misc/lv_mem.h ****         d8++;
 3207              		.loc 3 219 13 view .LVU1157
 3208 016c 04F8011B 		strb	r1, [r4], #1
 3209              	.LVL344:
 220:lvgl/src/lv_core/../lv_font/../lv_misc/lv_mem.h ****         s8++;
 3210              		.loc 3 220 9 is_stmt 1 view .LVU1158
 221:lvgl/src/lv_core/../lv_font/../lv_misc/lv_mem.h ****         len--;
 3211              		.loc 3 221 9 view .LVU1159
 222:lvgl/src/lv_core/../lv_font/../lv_misc/lv_mem.h ****     }
 3212              		.loc 3 222 9 view .LVU1160
 222:lvgl/src/lv_core/../lv_font/../lv_misc/lv_mem.h ****     }
 3213              		.loc 3 222 12 is_stmt 0 view .LVU1161
 3214 0170 013B     		subs	r3, r3, #1
 3215              	.LVL345:
 3216              	.L192:
 218:lvgl/src/lv_core/../lv_font/../lv_misc/lv_mem.h ****         *d8 = *s8;
 3217              		.loc 3 218 10 view .LVU1162
 3218 0172 002B     		cmp	r3, #0
 3219 0174 F8D1     		bne	.L193
 3220              	.LVL346:
 3221              	.L174:
 218:lvgl/src/lv_core/../lv_font/../lv_misc/lv_mem.h ****         *d8 = *s8;
 3222              		.loc 3 218 10 view .LVU1163
 3223              	.LBE439:
 3224              	.LBE440:
 488:lvgl/src/lv_core/lv_style.c **** 
 3225              		.loc 1 488 1 view .LVU1164
 3226 0176 05B0     		add	sp, sp, #20
 3227              	.LCFI25:
 3228              		.cfi_def_cfa_offset 20
 3229              		@ sp needed
 3230 0178 F0BD     		pop	{r4, r5, r6, r7, pc}
 3231              	.L206:
 3232 017a 00BF     		.align	2
 3233              	.L205:
 3234 017c 00000000 		.word	.LC0
ARM GAS  D:\Temp\cceOI0TF.s 			page 106


 3235              		.cfi_endproc
 3236              	.LFE470:
 3238              		.section	.text._lv_style_set_ptr,"ax",%progbits
 3239              		.align	1
 3240              		.global	_lv_style_set_ptr
 3241              		.syntax unified
 3242              		.thumb
 3243              		.thumb_func
 3244              		.fpu fpv4-sp-d16
 3246              	_lv_style_set_ptr:
 3247              	.LVL347:
 3248              	.LFB471:
 501:lvgl/src/lv_core/lv_style.c ****     LV_ASSERT_STYLE(style);
 3249              		.loc 1 501 1 is_stmt 1 view -0
 3250              		.cfi_startproc
 3251              		@ args = 0, pretend = 0, frame = 16
 3252              		@ frame_needed = 0, uses_anonymous_args = 0
 501:lvgl/src/lv_core/lv_style.c ****     LV_ASSERT_STYLE(style);
 3253              		.loc 1 501 1 is_stmt 0 view .LVU1166
 3254 0000 F0B5     		push	{r4, r5, r6, r7, lr}
 3255              	.LCFI26:
 3256              		.cfi_def_cfa_offset 20
 3257              		.cfi_offset 4, -20
 3258              		.cfi_offset 5, -16
 3259              		.cfi_offset 6, -12
 3260              		.cfi_offset 7, -8
 3261              		.cfi_offset 14, -4
 3262 0002 85B0     		sub	sp, sp, #20
 3263              	.LCFI27:
 3264              		.cfi_def_cfa_offset 40
 3265 0004 0092     		str	r2, [sp]
 3266 0006 ADF80610 		strh	r1, [sp, #6]	@ movhi
 502:lvgl/src/lv_core/lv_style.c **** 
 3267              		.loc 1 502 27 is_stmt 1 view .LVU1167
 504:lvgl/src/lv_core/lv_style.c ****     /*The property already exists but not sure it's state is the same*/
 3268              		.loc 1 504 5 view .LVU1168
 3269              	.LVL348:
 3270              	.LBB471:
 3271              	.LBI471:
1053:lvgl/src/lv_core/lv_style.c **** {
 3272              		.loc 1 1053 45 view .LVU1169
 3273              	.LBB472:
1055:lvgl/src/lv_core/lv_style.c **** 
 3274              		.loc 1 1055 27 view .LVU1170
1057:lvgl/src/lv_core/lv_style.c **** 
 3275              		.loc 1 1057 5 view .LVU1171
1057:lvgl/src/lv_core/lv_style.c **** 
 3276              		.loc 1 1057 13 is_stmt 0 view .LVU1172
 3277 000a 0368     		ldr	r3, [r0]
1057:lvgl/src/lv_core/lv_style.c **** 
 3278              		.loc 1 1057 7 view .LVU1173
 3279 000c 002B     		cmp	r3, #0
 3280 000e 78D0     		beq	.L228
1059:lvgl/src/lv_core/lv_style.c ****     lv_style_attr_t attr;
 3281              		.loc 1 1059 5 is_stmt 1 view .LVU1174
1059:lvgl/src/lv_core/lv_style.c ****     lv_style_attr_t attr;
 3282              		.loc 1 1059 13 is_stmt 0 view .LVU1175
ARM GAS  D:\Temp\cceOI0TF.s 			page 107


 3283 0010 CFB2     		uxtb	r7, r1
 3284              	.LVL349:
1060:lvgl/src/lv_core/lv_style.c ****     attr = (prop >> 8) & 0xFF;
 3285              		.loc 1 1060 5 is_stmt 1 view .LVU1176
1061:lvgl/src/lv_core/lv_style.c **** 
 3286              		.loc 1 1061 5 view .LVU1177
1061:lvgl/src/lv_core/lv_style.c **** 
 3287              		.loc 1 1061 10 is_stmt 0 view .LVU1178
 3288 0012 0E0A     		lsrs	r6, r1, #8
 3289              	.LVL350:
1063:lvgl/src/lv_core/lv_style.c ****     int16_t id_guess = -1;
 3290              		.loc 1 1063 5 is_stmt 1 view .LVU1179
1064:lvgl/src/lv_core/lv_style.c **** 
 3291              		.loc 1 1064 5 view .LVU1180
1066:lvgl/src/lv_core/lv_style.c **** 
 3292              		.loc 1 1066 5 view .LVU1181
1068:lvgl/src/lv_core/lv_style.c ****     while((prop_id = get_style_prop_id(style, i)) != _LV_STYLE_CLOSING_PROP) {
 3293              		.loc 1 1068 5 view .LVU1182
1069:lvgl/src/lv_core/lv_style.c ****         if(prop_id == id_to_find) {
 3294              		.loc 1 1069 5 view .LVU1183
1066:lvgl/src/lv_core/lv_style.c **** 
 3295              		.loc 1 1066 12 is_stmt 0 view .LVU1184
 3296 0014 0022     		movs	r2, #0
 3297              	.LVL351:
1064:lvgl/src/lv_core/lv_style.c **** 
 3298              		.loc 1 1064 13 view .LVU1185
 3299 0016 4FF0FF35 		mov	r5, #-1
1063:lvgl/src/lv_core/lv_style.c ****     int16_t id_guess = -1;
 3300              		.loc 1 1063 13 view .LVU1186
 3301 001a AC46     		mov	ip, r5
 3302 001c 21E0     		b	.L209
 3303              	.LVL352:
 3304              	.L235:
 3305              	.LBB473:
1071:lvgl/src/lv_core/lv_style.c ****             attr_i = get_style_prop_attr(style, i);
 3306              		.loc 1 1071 13 is_stmt 1 view .LVU1187
1072:lvgl/src/lv_core/lv_style.c **** 
 3307              		.loc 1 1072 13 view .LVU1188
 3308              	.LBB474:
 3309              	.LBI474:
1164:lvgl/src/lv_core/lv_style.c **** {
 3310              		.loc 1 1164 23 view .LVU1189
 3311              	.LBB475:
1166:lvgl/src/lv_core/lv_style.c **** }
 3312              		.loc 1 1166 5 view .LVU1190
 3313              	.LBB476:
 3314              	.LBI476:
1138:lvgl/src/lv_core/lv_style.c **** {
 3315              		.loc 1 1138 35 view .LVU1191
 3316              	.LBB477:
1140:lvgl/src/lv_core/lv_style.c ****     uint8_t * prop_p = (uint8_t *)&prop;
 3317              		.loc 1 1140 5 view .LVU1192
1141:lvgl/src/lv_core/lv_style.c ****     prop_p[0] = style->map[idx];
 3318              		.loc 1 1141 5 view .LVU1193
1142:lvgl/src/lv_core/lv_style.c ****     prop_p[1] = style->map[idx + 1];
 3319              		.loc 1 1142 5 view .LVU1194
1142:lvgl/src/lv_core/lv_style.c ****     prop_p[1] = style->map[idx + 1];
ARM GAS  D:\Temp\cceOI0TF.s 			page 108


 3320              		.loc 1 1142 22 is_stmt 0 view .LVU1195
 3321 001e 0468     		ldr	r4, [r0]
1142:lvgl/src/lv_core/lv_style.c ****     prop_p[1] = style->map[idx + 1];
 3322              		.loc 1 1142 27 view .LVU1196
 3323 0020 14F802E0 		ldrb	lr, [r4, r2]	@ zero_extendqisi2
1142:lvgl/src/lv_core/lv_style.c ****     prop_p[1] = style->map[idx + 1];
 3324              		.loc 1 1142 15 view .LVU1197
 3325 0024 8DF80CE0 		strb	lr, [sp, #12]
1143:lvgl/src/lv_core/lv_style.c ****     return prop;
 3326              		.loc 1 1143 5 is_stmt 1 view .LVU1198
1143:lvgl/src/lv_core/lv_style.c ****     return prop;
 3327              		.loc 1 1143 27 is_stmt 0 view .LVU1199
 3328 0028 615C     		ldrb	r1, [r4, r1]	@ zero_extendqisi2
1143:lvgl/src/lv_core/lv_style.c ****     return prop;
 3329              		.loc 1 1143 15 view .LVU1200
 3330 002a 8DF80D10 		strb	r1, [sp, #13]
1144:lvgl/src/lv_core/lv_style.c **** }
 3331              		.loc 1 1144 5 is_stmt 1 view .LVU1201
1144:lvgl/src/lv_core/lv_style.c **** }
 3332              		.loc 1 1144 12 is_stmt 0 view .LVU1202
 3333 002e BDF80C40 		ldrh	r4, [sp, #12]
 3334              	.LVL353:
1144:lvgl/src/lv_core/lv_style.c **** }
 3335              		.loc 1 1144 12 view .LVU1203
 3336              	.LBE477:
 3337              	.LBE476:
1166:lvgl/src/lv_core/lv_style.c **** }
 3338              		.loc 1 1166 47 view .LVU1204
 3339 0032 240A     		lsrs	r4, r4, #8
 3340 0034 E1B2     		uxtb	r1, r4
 3341              	.LVL354:
1166:lvgl/src/lv_core/lv_style.c **** }
 3342              		.loc 1 1166 47 view .LVU1205
 3343              	.LBE475:
 3344              	.LBE474:
1075:lvgl/src/lv_core/lv_style.c ****                 return i;
 3345              		.loc 1 1075 13 is_stmt 1 view .LVU1206
1075:lvgl/src/lv_core/lv_style.c ****                 return i;
 3346              		.loc 1 1075 48 is_stmt 0 view .LVU1207
 3347 0036 86EA010E 		eor	lr, r6, r1
1075:lvgl/src/lv_core/lv_style.c ****                 return i;
 3348              		.loc 1 1075 15 view .LVU1208
 3349 003a 1EF07F0F 		tst	lr, #127
 3350 003e 0CD0     		beq	.L233
1080:lvgl/src/lv_core/lv_style.c ****                 /* Use this property if it describes better the requested state than the current ca
 3351              		.loc 1 1080 18 is_stmt 1 view .LVU1209
1080:lvgl/src/lv_core/lv_style.c ****                 /* Use this property if it describes better the requested state than the current ca
 3352              		.loc 1 1080 22 is_stmt 0 view .LVU1210
 3353 0040 01F07F01 		and	r1, r1, #127
 3354              	.LVL355:
1080:lvgl/src/lv_core/lv_style.c ****                 /* Use this property if it describes better the requested state than the current ca
 3355              		.loc 1 1080 58 view .LVU1211
 3356 0044 06F07F0E 		and	lr, r6, #127
1080:lvgl/src/lv_core/lv_style.c ****                 /* Use this property if it describes better the requested state than the current ca
 3357              		.loc 1 1080 20 view .LVU1212
 3358 0048 31EA0E0E 		bics	lr, r1, lr
 3359 004c 17D1     		bne	.L210
ARM GAS  D:\Temp\cceOI0TF.s 			page 109


1083:lvgl/src/lv_core/lv_style.c ****                     weight = LV_STYLE_ATTR_GET_STATE(attr_i);
 3360              		.loc 1 1083 17 is_stmt 1 view .LVU1213
1083:lvgl/src/lv_core/lv_style.c ****                     weight = LV_STYLE_ATTR_GET_STATE(attr_i);
 3361              		.loc 1 1083 19 is_stmt 0 view .LVU1214
 3362 004e 6145     		cmp	r1, ip
 3363 0050 15DD     		ble	.L210
1084:lvgl/src/lv_core/lv_style.c ****                     id_guess = i;
 3364              		.loc 1 1084 21 is_stmt 1 view .LVU1215
1084:lvgl/src/lv_core/lv_style.c ****                     id_guess = i;
 3365              		.loc 1 1084 28 is_stmt 0 view .LVU1216
 3366 0052 04F07F0C 		and	ip, r4, #127
 3367              	.LVL356:
1085:lvgl/src/lv_core/lv_style.c ****                 }
 3368              		.loc 1 1085 21 is_stmt 1 view .LVU1217
1085:lvgl/src/lv_core/lv_style.c ****                 }
 3369              		.loc 1 1085 30 is_stmt 0 view .LVU1218
 3370 0056 15B2     		sxth	r5, r2
 3371              	.LVL357:
1085:lvgl/src/lv_core/lv_style.c ****                 }
 3372              		.loc 1 1085 30 view .LVU1219
 3373 0058 11E0     		b	.L210
 3374              	.LVL358:
 3375              	.L233:
1076:lvgl/src/lv_core/lv_style.c ****             }
 3376              		.loc 1 1076 17 is_stmt 1 view .LVU1220
1076:lvgl/src/lv_core/lv_style.c ****             }
 3377              		.loc 1 1076 24 is_stmt 0 view .LVU1221
 3378 005a 1346     		mov	r3, r2
 3379              	.LVL359:
1076:lvgl/src/lv_core/lv_style.c ****             }
 3380              		.loc 1 1076 24 view .LVU1222
 3381 005c 1EE0     		b	.L208
 3382              	.LVL360:
 3383              	.L229:
1076:lvgl/src/lv_core/lv_style.c ****             }
 3384              		.loc 1 1076 24 view .LVU1223
 3385              	.LBE473:
 3386              	.LBB478:
 3387              	.LBB479:
 3388              	.LBB480:
 3389              	.LBB481:
1179:lvgl/src/lv_core/lv_style.c ****     else if(prop_id < LV_STYLE_ID_OPA) size += sizeof(lv_color_t);
 3390              		.loc 1 1179 42 view .LVU1224
 3391 005e 0421     		movs	r1, #4
 3392              	.L212:
 3393              	.LVL361:
1183:lvgl/src/lv_core/lv_style.c **** }
 3394              		.loc 1 1183 5 is_stmt 1 view .LVU1225
1183:lvgl/src/lv_core/lv_style.c **** }
 3395              		.loc 1 1183 5 is_stmt 0 view .LVU1226
 3396              	.LBE481:
 3397              	.LBE480:
 3398              		.loc 1 1194 16 view .LVU1227
 3399 0060 0A44     		add	r2, r2, r1
 3400              	.LVL362:
 3401              	.L209:
 3402              		.loc 1 1194 16 view .LVU1228
ARM GAS  D:\Temp\cceOI0TF.s 			page 110


 3403              	.LBE479:
 3404              	.LBE478:
 3405              	.LBB485:
 3406              	.LBI485:
1153:lvgl/src/lv_core/lv_style.c **** {
 3407              		.loc 1 1153 23 is_stmt 1 view .LVU1229
 3408              	.LBB486:
1155:lvgl/src/lv_core/lv_style.c **** }
 3409              		.loc 1 1155 5 view .LVU1230
 3410              	.LBB487:
 3411              	.LBI487:
1138:lvgl/src/lv_core/lv_style.c **** {
 3412              		.loc 1 1138 35 view .LVU1231
 3413              	.LBB488:
1140:lvgl/src/lv_core/lv_style.c ****     uint8_t * prop_p = (uint8_t *)&prop;
 3414              		.loc 1 1140 5 view .LVU1232
1141:lvgl/src/lv_core/lv_style.c ****     prop_p[0] = style->map[idx];
 3415              		.loc 1 1141 5 view .LVU1233
1142:lvgl/src/lv_core/lv_style.c ****     prop_p[1] = style->map[idx + 1];
 3416              		.loc 1 1142 5 view .LVU1234
1142:lvgl/src/lv_core/lv_style.c ****     prop_p[1] = style->map[idx + 1];
 3417              		.loc 1 1142 22 is_stmt 0 view .LVU1235
 3418 0062 0368     		ldr	r3, [r0]
1142:lvgl/src/lv_core/lv_style.c ****     prop_p[1] = style->map[idx + 1];
 3419              		.loc 1 1142 27 view .LVU1236
 3420 0064 995C     		ldrb	r1, [r3, r2]	@ zero_extendqisi2
1142:lvgl/src/lv_core/lv_style.c ****     prop_p[1] = style->map[idx + 1];
 3421              		.loc 1 1142 15 view .LVU1237
 3422 0066 8DF80C10 		strb	r1, [sp, #12]
1143:lvgl/src/lv_core/lv_style.c ****     return prop;
 3423              		.loc 1 1143 5 is_stmt 1 view .LVU1238
1143:lvgl/src/lv_core/lv_style.c ****     return prop;
 3424              		.loc 1 1143 27 is_stmt 0 view .LVU1239
 3425 006a 511C     		adds	r1, r2, #1
 3426 006c 5C5C     		ldrb	r4, [r3, r1]	@ zero_extendqisi2
1143:lvgl/src/lv_core/lv_style.c ****     return prop;
 3427              		.loc 1 1143 15 view .LVU1240
 3428 006e 8DF80D40 		strb	r4, [sp, #13]
1144:lvgl/src/lv_core/lv_style.c **** }
 3429              		.loc 1 1144 5 is_stmt 1 view .LVU1241
 3430              	.LVL363:
1144:lvgl/src/lv_core/lv_style.c **** }
 3431              		.loc 1 1144 5 is_stmt 0 view .LVU1242
 3432              	.LBE488:
 3433              	.LBE487:
1155:lvgl/src/lv_core/lv_style.c **** }
 3434              		.loc 1 1155 39 view .LVU1243
 3435 0072 9DF80C30 		ldrb	r3, [sp, #12]	@ zero_extendqisi2
 3436              	.LVL364:
1155:lvgl/src/lv_core/lv_style.c **** }
 3437              		.loc 1 1155 39 view .LVU1244
 3438              	.LBE486:
 3439              	.LBE485:
1069:lvgl/src/lv_core/lv_style.c ****         if(prop_id == id_to_find) {
 3440              		.loc 1 1069 10 view .LVU1245
 3441 0076 FF2B     		cmp	r3, #255
 3442 0078 0FD0     		beq	.L234
ARM GAS  D:\Temp\cceOI0TF.s 			page 111


1070:lvgl/src/lv_core/lv_style.c ****             lv_style_attr_t attr_i;
 3443              		.loc 1 1070 9 is_stmt 1 view .LVU1246
1070:lvgl/src/lv_core/lv_style.c ****             lv_style_attr_t attr_i;
 3444              		.loc 1 1070 11 is_stmt 0 view .LVU1247
 3445 007a 9F42     		cmp	r7, r3
 3446 007c CFD0     		beq	.L235
 3447              	.L210:
1090:lvgl/src/lv_core/lv_style.c ****     }
 3448              		.loc 1 1090 9 is_stmt 1 view .LVU1248
 3449              	.LVL365:
 3450              	.LBB489:
 3451              	.LBI478:
1192:lvgl/src/lv_core/lv_style.c **** {
 3452              		.loc 1 1192 22 view .LVU1249
 3453              	.LBB484:
 3454              		.loc 1 1194 5 view .LVU1250
 3455              	.LBB483:
 3456              	.LBI480:
1175:lvgl/src/lv_core/lv_style.c **** {
 3457              		.loc 1 1175 22 view .LVU1251
 3458              	.LBB482:
1177:lvgl/src/lv_core/lv_style.c ****     size_t size = sizeof(lv_style_property_t);
 3459              		.loc 1 1177 5 view .LVU1252
1177:lvgl/src/lv_core/lv_style.c ****     size_t size = sizeof(lv_style_property_t);
 3460              		.loc 1 1177 13 is_stmt 0 view .LVU1253
 3461 007e 03F00F03 		and	r3, r3, #15
 3462              	.LVL366:
1178:lvgl/src/lv_core/lv_style.c ****     if(prop_id < LV_STYLE_ID_COLOR) size += sizeof(lv_style_int_t);
 3463              		.loc 1 1178 5 is_stmt 1 view .LVU1254
1179:lvgl/src/lv_core/lv_style.c ****     else if(prop_id < LV_STYLE_ID_OPA) size += sizeof(lv_color_t);
 3464              		.loc 1 1179 5 view .LVU1255
1179:lvgl/src/lv_core/lv_style.c ****     else if(prop_id < LV_STYLE_ID_OPA) size += sizeof(lv_color_t);
 3465              		.loc 1 1179 7 is_stmt 0 view .LVU1256
 3466 0082 082B     		cmp	r3, #8
 3467 0084 EBD9     		bls	.L229
1180:lvgl/src/lv_core/lv_style.c ****     else if(prop_id < LV_STYLE_ID_PTR) size += sizeof(lv_opa_t);
 3468              		.loc 1 1180 10 is_stmt 1 view .LVU1257
1180:lvgl/src/lv_core/lv_style.c ****     else if(prop_id < LV_STYLE_ID_PTR) size += sizeof(lv_opa_t);
 3469              		.loc 1 1180 12 is_stmt 0 view .LVU1258
 3470 0086 0B2B     		cmp	r3, #11
 3471 0088 03D9     		bls	.L230
1181:lvgl/src/lv_core/lv_style.c ****     else size += sizeof(const void *);
 3472              		.loc 1 1181 10 is_stmt 1 view .LVU1259
1181:lvgl/src/lv_core/lv_style.c ****     else size += sizeof(const void *);
 3473              		.loc 1 1181 12 is_stmt 0 view .LVU1260
 3474 008a 0D2B     		cmp	r3, #13
 3475 008c 03D8     		bhi	.L231
1181:lvgl/src/lv_core/lv_style.c ****     else size += sizeof(const void *);
 3476              		.loc 1 1181 45 view .LVU1261
 3477 008e 0321     		movs	r1, #3
 3478 0090 E6E7     		b	.L212
 3479              	.L230:
1180:lvgl/src/lv_core/lv_style.c ****     else if(prop_id < LV_STYLE_ID_PTR) size += sizeof(lv_opa_t);
 3480              		.loc 1 1180 45 view .LVU1262
 3481 0092 0421     		movs	r1, #4
 3482 0094 E4E7     		b	.L212
 3483              	.L231:
ARM GAS  D:\Temp\cceOI0TF.s 			page 112


1182:lvgl/src/lv_core/lv_style.c ****     return size;
 3484              		.loc 1 1182 15 view .LVU1263
 3485 0096 0621     		movs	r1, #6
 3486 0098 E2E7     		b	.L212
 3487              	.LVL367:
 3488              	.L234:
1182:lvgl/src/lv_core/lv_style.c ****     return size;
 3489              		.loc 1 1182 15 view .LVU1264
 3490              	.LBE482:
 3491              	.LBE483:
 3492              	.LBE484:
 3493              	.LBE489:
1093:lvgl/src/lv_core/lv_style.c **** }
 3494              		.loc 1 1093 5 is_stmt 1 view .LVU1265
1093:lvgl/src/lv_core/lv_style.c **** }
 3495              		.loc 1 1093 12 is_stmt 0 view .LVU1266
 3496 009a 2B46     		mov	r3, r5
 3497              	.LVL368:
 3498              	.L208:
1093:lvgl/src/lv_core/lv_style.c **** }
 3499              		.loc 1 1093 12 view .LVU1267
 3500              	.LBE472:
 3501              	.LBE471:
 506:lvgl/src/lv_core/lv_style.c ****         lv_style_attr_t attr_found;
 3502              		.loc 1 506 5 is_stmt 1 view .LVU1268
 506:lvgl/src/lv_core/lv_style.c ****         lv_style_attr_t attr_found;
 3503              		.loc 1 506 7 is_stmt 0 view .LVU1269
 3504 009c 002B     		cmp	r3, #0
 3505 009e 11DB     		blt	.L214
 3506              	.LBB491:
 507:lvgl/src/lv_core/lv_style.c ****         lv_style_attr_t attr_goal;
 3507              		.loc 1 507 9 is_stmt 1 view .LVU1270
 508:lvgl/src/lv_core/lv_style.c **** 
 3508              		.loc 1 508 9 view .LVU1271
 510:lvgl/src/lv_core/lv_style.c ****         attr_goal = (prop >> 8) & 0xFFU;
 3509              		.loc 1 510 9 view .LVU1272
 3510              	.LVL369:
 3511              	.LBB492:
 3512              	.LBI492:
1164:lvgl/src/lv_core/lv_style.c **** {
 3513              		.loc 1 1164 23 view .LVU1273
 3514              	.LBB493:
1166:lvgl/src/lv_core/lv_style.c **** }
 3515              		.loc 1 1166 5 view .LVU1274
 3516              	.LBB494:
 3517              	.LBI494:
1138:lvgl/src/lv_core/lv_style.c **** {
 3518              		.loc 1 1138 35 view .LVU1275
 3519              	.LBB495:
1140:lvgl/src/lv_core/lv_style.c ****     uint8_t * prop_p = (uint8_t *)&prop;
 3520              		.loc 1 1140 5 view .LVU1276
1141:lvgl/src/lv_core/lv_style.c ****     prop_p[0] = style->map[idx];
 3521              		.loc 1 1141 5 view .LVU1277
1142:lvgl/src/lv_core/lv_style.c ****     prop_p[1] = style->map[idx + 1];
 3522              		.loc 1 1142 5 view .LVU1278
1142:lvgl/src/lv_core/lv_style.c ****     prop_p[1] = style->map[idx + 1];
 3523              		.loc 1 1142 22 is_stmt 0 view .LVU1279
ARM GAS  D:\Temp\cceOI0TF.s 			page 113


 3524 00a0 0268     		ldr	r2, [r0]
1142:lvgl/src/lv_core/lv_style.c ****     prop_p[1] = style->map[idx + 1];
 3525              		.loc 1 1142 27 view .LVU1280
 3526 00a2 D15C     		ldrb	r1, [r2, r3]	@ zero_extendqisi2
1142:lvgl/src/lv_core/lv_style.c ****     prop_p[1] = style->map[idx + 1];
 3527              		.loc 1 1142 15 view .LVU1281
 3528 00a4 8DF80C10 		strb	r1, [sp, #12]
1143:lvgl/src/lv_core/lv_style.c ****     return prop;
 3529              		.loc 1 1143 5 is_stmt 1 view .LVU1282
1143:lvgl/src/lv_core/lv_style.c ****     return prop;
 3530              		.loc 1 1143 27 is_stmt 0 view .LVU1283
 3531 00a8 1A44     		add	r2, r2, r3
 3532 00aa 5278     		ldrb	r2, [r2, #1]	@ zero_extendqisi2
1143:lvgl/src/lv_core/lv_style.c ****     return prop;
 3533              		.loc 1 1143 15 view .LVU1284
 3534 00ac 8DF80D20 		strb	r2, [sp, #13]
1144:lvgl/src/lv_core/lv_style.c **** }
 3535              		.loc 1 1144 5 is_stmt 1 view .LVU1285
1144:lvgl/src/lv_core/lv_style.c **** }
 3536              		.loc 1 1144 12 is_stmt 0 view .LVU1286
 3537 00b0 BDF80C10 		ldrh	r1, [sp, #12]
 3538              	.LVL370:
1144:lvgl/src/lv_core/lv_style.c **** }
 3539              		.loc 1 1144 12 view .LVU1287
 3540              	.LBE495:
 3541              	.LBE494:
 3542              	.LBE493:
 3543              	.LBE492:
 511:lvgl/src/lv_core/lv_style.c **** 
 3544              		.loc 1 511 9 is_stmt 1 view .LVU1288
 511:lvgl/src/lv_core/lv_style.c **** 
 3545              		.loc 1 511 19 is_stmt 0 view .LVU1289
 3546 00b4 BDF80620 		ldrh	r2, [sp, #6]
 3547 00b8 120A     		lsrs	r2, r2, #8
 3548              	.LVL371:
 513:lvgl/src/lv_core/lv_style.c ****             _lv_memcpy_small(style->map + id + sizeof(lv_style_property_t), &p, sizeof(const void *
 3549              		.loc 1 513 9 is_stmt 1 view .LVU1290
 513:lvgl/src/lv_core/lv_style.c ****             _lv_memcpy_small(style->map + id + sizeof(lv_style_property_t), &p, sizeof(const void *
 3550              		.loc 1 513 48 is_stmt 0 view .LVU1291
 3551 00ba 82EA1122 		eor	r2, r2, r1, lsr #8
 3552              	.LVL372:
 513:lvgl/src/lv_core/lv_style.c ****             _lv_memcpy_small(style->map + id + sizeof(lv_style_property_t), &p, sizeof(const void *
 3553              		.loc 1 513 11 view .LVU1292
 3554 00be 12F07F0F 		tst	r2, #127
 3555 00c2 21D0     		beq	.L236
 3556              	.LVL373:
 3557              	.L214:
 513:lvgl/src/lv_core/lv_style.c ****             _lv_memcpy_small(style->map + id + sizeof(lv_style_property_t), &p, sizeof(const void *
 3558              		.loc 1 513 11 view .LVU1293
 3559 00c4 0546     		mov	r5, r0
 3560              	.LBE491:
 520:lvgl/src/lv_core/lv_style.c ****     lv_style_property_t end_mark = _LV_STYLE_CLOSING_PROP;
 3561              		.loc 1 520 5 is_stmt 1 view .LVU1294
 3562              	.LVL374:
 521:lvgl/src/lv_core/lv_style.c ****     uint8_t end_mark_size = sizeof(end_mark);
 3563              		.loc 1 521 5 view .LVU1295
 521:lvgl/src/lv_core/lv_style.c ****     uint8_t end_mark_size = sizeof(end_mark);
ARM GAS  D:\Temp\cceOI0TF.s 			page 114


 3564              		.loc 1 521 25 is_stmt 0 view .LVU1296
 3565 00c6 FF23     		movs	r3, #255
 3566              	.LVL375:
 521:lvgl/src/lv_core/lv_style.c ****     uint8_t end_mark_size = sizeof(end_mark);
 3567              		.loc 1 521 25 view .LVU1297
 3568 00c8 ADF80E30 		strh	r3, [sp, #14]	@ movhi
 522:lvgl/src/lv_core/lv_style.c **** 
 3569              		.loc 1 522 5 is_stmt 1 view .LVU1298
 3570              	.LVL376:
 524:lvgl/src/lv_core/lv_style.c ****     if(size == 0) size += end_mark_size;
 3571              		.loc 1 524 5 view .LVU1299
 524:lvgl/src/lv_core/lv_style.c ****     if(size == 0) size += end_mark_size;
 3572              		.loc 1 524 21 is_stmt 0 view .LVU1300
 3573 00cc FFF7FEFF 		bl	_lv_style_get_mem_size
 3574              	.LVL377:
 525:lvgl/src/lv_core/lv_style.c **** 
 3575              		.loc 1 525 5 is_stmt 1 view .LVU1301
 525:lvgl/src/lv_core/lv_style.c **** 
 3576              		.loc 1 525 7 is_stmt 0 view .LVU1302
 3577 00d0 0346     		mov	r3, r0
 3578 00d2 08B9     		cbnz	r0, .L218
 525:lvgl/src/lv_core/lv_style.c **** 
 3579              		.loc 1 525 19 is_stmt 1 discriminator 1 view .LVU1303
 525:lvgl/src/lv_core/lv_style.c **** 
 3580              		.loc 1 525 24 is_stmt 0 discriminator 1 view .LVU1304
 3581 00d4 0233     		adds	r3, r3, #2
 3582 00d6 9BB2     		uxth	r3, r3
 3583              	.LVL378:
 3584              	.L218:
 527:lvgl/src/lv_core/lv_style.c ****     style_resize(style, size);
 3585              		.loc 1 527 5 is_stmt 1 view .LVU1305
 527:lvgl/src/lv_core/lv_style.c ****     style_resize(style, size);
 3586              		.loc 1 527 10 is_stmt 0 view .LVU1306
 3587 00d8 0633     		adds	r3, r3, #6
 3588              	.LVL379:
 527:lvgl/src/lv_core/lv_style.c ****     style_resize(style, size);
 3589              		.loc 1 527 10 view .LVU1307
 3590 00da 9CB2     		uxth	r4, r3
 528:lvgl/src/lv_core/lv_style.c ****     LV_ASSERT_MEM(style->map);
 3591              		.loc 1 528 5 is_stmt 1 view .LVU1308
 3592              	.LVL380:
 3593              	.LBB500:
 3594              	.LBI500:
1127:lvgl/src/lv_core/lv_style.c **** {
 3595              		.loc 1 1127 20 view .LVU1309
 3596              	.LBB501:
1129:lvgl/src/lv_core/lv_style.c **** }
 3597              		.loc 1 1129 5 view .LVU1310
1129:lvgl/src/lv_core/lv_style.c **** }
 3598              		.loc 1 1129 18 is_stmt 0 view .LVU1311
 3599 00dc 2146     		mov	r1, r4
 3600 00de 2868     		ldr	r0, [r5]
 3601 00e0 FFF7FEFF 		bl	lv_mem_realloc
 3602              	.LVL381:
1129:lvgl/src/lv_core/lv_style.c **** }
 3603              		.loc 1 1129 16 view .LVU1312
 3604 00e4 2860     		str	r0, [r5]
ARM GAS  D:\Temp\cceOI0TF.s 			page 115


 3605              	.LVL382:
1129:lvgl/src/lv_core/lv_style.c **** }
 3606              		.loc 1 1129 16 view .LVU1313
 3607              	.LBE501:
 3608              	.LBE500:
 529:lvgl/src/lv_core/lv_style.c ****     if(style == NULL) return;
 3609              		.loc 1 529 5 is_stmt 1 view .LVU1314
 529:lvgl/src/lv_core/lv_style.c ****     if(style == NULL) return;
 3610              		.loc 1 529 5 view .LVU1315
 3611 00e6 FFF7FEFF 		bl	lv_debug_check_null
 3612              	.LVL383:
 3613 00ea D8B1     		cbz	r0, .L237
 529:lvgl/src/lv_core/lv_style.c ****     if(style == NULL) return;
 3614              		.loc 1 529 30 discriminator 2 view .LVU1316
 530:lvgl/src/lv_core/lv_style.c **** 
 3615              		.loc 1 530 5 discriminator 2 view .LVU1317
 530:lvgl/src/lv_core/lv_style.c **** 
 3616              		.loc 1 530 7 is_stmt 0 discriminator 2 view .LVU1318
 3617 00ec 002D     		cmp	r5, #0
 3618 00ee 40D0     		beq	.L207
 532:lvgl/src/lv_core/lv_style.c ****     _lv_memcpy_small(style->map + size - sizeof(const void *) - end_mark_size, &p, sizeof(const voi
 3619              		.loc 1 532 5 is_stmt 1 view .LVU1319
 532:lvgl/src/lv_core/lv_style.c ****     _lv_memcpy_small(style->map + size - sizeof(const void *) - end_mark_size, &p, sizeof(const voi
 3620              		.loc 1 532 27 is_stmt 0 view .LVU1320
 3621 00f0 2B68     		ldr	r3, [r5]
 532:lvgl/src/lv_core/lv_style.c ****     _lv_memcpy_small(style->map + size - sizeof(const void *) - end_mark_size, &p, sizeof(const voi
 3622              		.loc 1 532 40 view .LVU1321
 3623 00f2 A01F     		subs	r0, r4, #6
 532:lvgl/src/lv_core/lv_style.c ****     _lv_memcpy_small(style->map + size - sizeof(const void *) - end_mark_size, &p, sizeof(const voi
 3624              		.loc 1 532 56 view .LVU1322
 3625 00f4 A4F10802 		sub	r2, r4, #8
 3626 00f8 1344     		add	r3, r3, r2
 3627              	.LVL384:
 3628              	.LBB502:
 3629              	.LBI502:
 213:lvgl/src/lv_core/../lv_font/../lv_misc/lv_mem.h **** {
 3630              		.loc 3 213 44 is_stmt 1 view .LVU1323
 3631              	.LBB503:
 215:lvgl/src/lv_core/../lv_font/../lv_misc/lv_mem.h ****     const uint8_t * s8 = (const uint8_t *)src;
 3632              		.loc 3 215 5 view .LVU1324
 216:lvgl/src/lv_core/../lv_font/../lv_misc/lv_mem.h **** 
 3633              		.loc 3 216 5 view .LVU1325
 218:lvgl/src/lv_core/../lv_font/../lv_misc/lv_mem.h ****         *d8 = *s8;
 3634              		.loc 3 218 5 view .LVU1326
 216:lvgl/src/lv_core/../lv_font/../lv_misc/lv_mem.h **** 
 3635              		.loc 3 216 21 is_stmt 0 view .LVU1327
 3636 00fa 0DF10601 		add	r1, sp, #6
 3637              	.LVL385:
 216:lvgl/src/lv_core/../lv_font/../lv_misc/lv_mem.h **** 
 3638              		.loc 3 216 21 view .LVU1328
 3639              	.LBE503:
 3640              	.LBE502:
 532:lvgl/src/lv_core/lv_style.c ****     _lv_memcpy_small(style->map + size - sizeof(const void *) - end_mark_size, &p, sizeof(const voi
 3641              		.loc 1 532 56 view .LVU1329
 3642 00fe 0222     		movs	r2, #2
 3643 0100 1BE0     		b	.L221
 3644              	.LVL386:
ARM GAS  D:\Temp\cceOI0TF.s 			page 116


 3645              	.L228:
 3646              	.LBB505:
 3647              	.LBB490:
1057:lvgl/src/lv_core/lv_style.c **** 
 3648              		.loc 1 1057 35 view .LVU1330
 3649 0102 4FF0FF33 		mov	r3, #-1
 3650 0106 C9E7     		b	.L208
 3651              	.LVL387:
 3652              	.L236:
1057:lvgl/src/lv_core/lv_style.c **** 
 3653              		.loc 1 1057 35 view .LVU1331
 3654              	.LBE490:
 3655              	.LBE505:
 3656              	.LBB506:
 514:lvgl/src/lv_core/lv_style.c ****             return;
 3657              		.loc 1 514 13 is_stmt 1 view .LVU1332
 514:lvgl/src/lv_core/lv_style.c ****             return;
 3658              		.loc 1 514 35 is_stmt 0 view .LVU1333
 3659 0108 0268     		ldr	r2, [r0]
 514:lvgl/src/lv_core/lv_style.c ****             return;
 3660              		.loc 1 514 46 view .LVU1334
 3661 010a 0233     		adds	r3, r3, #2
 3662              	.LVL388:
 514:lvgl/src/lv_core/lv_style.c ****             return;
 3663              		.loc 1 514 46 view .LVU1335
 3664 010c 1344     		add	r3, r3, r2
 3665              	.LVL389:
 3666              	.LBB496:
 3667              	.LBI496:
 213:lvgl/src/lv_core/../lv_font/../lv_misc/lv_mem.h **** {
 3668              		.loc 3 213 44 is_stmt 1 view .LVU1336
 3669              	.LBB497:
 215:lvgl/src/lv_core/../lv_font/../lv_misc/lv_mem.h ****     const uint8_t * s8 = (const uint8_t *)src;
 3670              		.loc 3 215 5 view .LVU1337
 216:lvgl/src/lv_core/../lv_font/../lv_misc/lv_mem.h **** 
 3671              		.loc 3 216 5 view .LVU1338
 218:lvgl/src/lv_core/../lv_font/../lv_misc/lv_mem.h ****         *d8 = *s8;
 3672              		.loc 3 218 5 view .LVU1339
 216:lvgl/src/lv_core/../lv_font/../lv_misc/lv_mem.h **** 
 3673              		.loc 3 216 21 is_stmt 0 view .LVU1340
 3674 010e 6946     		mov	r1, sp
 3675              	.LVL390:
 216:lvgl/src/lv_core/../lv_font/../lv_misc/lv_mem.h **** 
 3676              		.loc 3 216 21 view .LVU1341
 3677              	.LBE497:
 3678              	.LBE496:
 514:lvgl/src/lv_core/lv_style.c ****             return;
 3679              		.loc 1 514 46 view .LVU1342
 3680 0110 0422     		movs	r2, #4
 3681 0112 04E0     		b	.L215
 3682              	.LVL391:
 3683              	.L216:
 3684              	.LBB499:
 3685              	.LBB498:
 219:lvgl/src/lv_core/../lv_font/../lv_misc/lv_mem.h ****         d8++;
 3686              		.loc 3 219 9 is_stmt 1 view .LVU1343
 219:lvgl/src/lv_core/../lv_font/../lv_misc/lv_mem.h ****         d8++;
ARM GAS  D:\Temp\cceOI0TF.s 			page 117


 3687              		.loc 3 219 15 is_stmt 0 view .LVU1344
 3688 0114 11F8010B 		ldrb	r0, [r1], #1	@ zero_extendqisi2
 3689              	.LVL392:
 219:lvgl/src/lv_core/../lv_font/../lv_misc/lv_mem.h ****         d8++;
 3690              		.loc 3 219 13 view .LVU1345
 3691 0118 03F8010B 		strb	r0, [r3], #1
 3692              	.LVL393:
 220:lvgl/src/lv_core/../lv_font/../lv_misc/lv_mem.h ****         s8++;
 3693              		.loc 3 220 9 is_stmt 1 view .LVU1346
 221:lvgl/src/lv_core/../lv_font/../lv_misc/lv_mem.h ****         len--;
 3694              		.loc 3 221 9 view .LVU1347
 222:lvgl/src/lv_core/../lv_font/../lv_misc/lv_mem.h ****     }
 3695              		.loc 3 222 9 view .LVU1348
 222:lvgl/src/lv_core/../lv_font/../lv_misc/lv_mem.h ****     }
 3696              		.loc 3 222 12 is_stmt 0 view .LVU1349
 3697 011c 013A     		subs	r2, r2, #1
 3698              	.LVL394:
 3699              	.L215:
 218:lvgl/src/lv_core/../lv_font/../lv_misc/lv_mem.h ****         *d8 = *s8;
 3700              		.loc 3 218 10 view .LVU1350
 3701 011e 002A     		cmp	r2, #0
 3702 0120 F8D1     		bne	.L216
 218:lvgl/src/lv_core/../lv_font/../lv_misc/lv_mem.h ****         *d8 = *s8;
 3703              		.loc 3 218 10 view .LVU1351
 3704 0122 26E0     		b	.L207
 3705              	.LVL395:
 3706              	.L237:
 218:lvgl/src/lv_core/../lv_font/../lv_misc/lv_mem.h ****         *d8 = *s8;
 3707              		.loc 3 218 10 view .LVU1352
 3708              	.LBE498:
 3709              	.LBE499:
 3710              	.LBE506:
 529:lvgl/src/lv_core/lv_style.c ****     if(style == NULL) return;
 3711              		.loc 1 529 5 is_stmt 1 discriminator 1 view .LVU1353
 529:lvgl/src/lv_core/lv_style.c ****     if(style == NULL) return;
 3712              		.loc 1 529 5 discriminator 1 view .LVU1354
 3713 0124 2A68     		ldr	r2, [r5]
 3714 0126 0023     		movs	r3, #0
 3715 0128 1348     		ldr	r0, .L238
 3716 012a FFF7FEFF 		bl	lv_debug_log_error
 3717              	.LVL396:
 3718              	.L220:
 529:lvgl/src/lv_core/lv_style.c ****     if(style == NULL) return;
 3719              		.loc 1 529 5 discriminator 1 view .LVU1355
 529:lvgl/src/lv_core/lv_style.c ****     if(style == NULL) return;
 3720              		.loc 1 529 5 discriminator 1 view .LVU1356
 3721 012e FEE7     		b	.L220
 3722              	.LVL397:
 3723              	.L222:
 3724              	.LBB507:
 3725              	.LBB504:
 219:lvgl/src/lv_core/../lv_font/../lv_misc/lv_mem.h ****         d8++;
 3726              		.loc 3 219 9 view .LVU1357
 219:lvgl/src/lv_core/../lv_font/../lv_misc/lv_mem.h ****         d8++;
 3727              		.loc 3 219 15 is_stmt 0 view .LVU1358
 3728 0130 11F8016B 		ldrb	r6, [r1], #1	@ zero_extendqisi2
 3729              	.LVL398:
ARM GAS  D:\Temp\cceOI0TF.s 			page 118


 219:lvgl/src/lv_core/../lv_font/../lv_misc/lv_mem.h ****         d8++;
 3730              		.loc 3 219 13 view .LVU1359
 3731 0134 03F8016B 		strb	r6, [r3], #1
 3732              	.LVL399:
 220:lvgl/src/lv_core/../lv_font/../lv_misc/lv_mem.h ****         s8++;
 3733              		.loc 3 220 9 is_stmt 1 view .LVU1360
 221:lvgl/src/lv_core/../lv_font/../lv_misc/lv_mem.h ****         len--;
 3734              		.loc 3 221 9 view .LVU1361
 222:lvgl/src/lv_core/../lv_font/../lv_misc/lv_mem.h ****     }
 3735              		.loc 3 222 9 view .LVU1362
 222:lvgl/src/lv_core/../lv_font/../lv_misc/lv_mem.h ****     }
 3736              		.loc 3 222 12 is_stmt 0 view .LVU1363
 3737 0138 013A     		subs	r2, r2, #1
 3738              	.LVL400:
 3739              	.L221:
 218:lvgl/src/lv_core/../lv_font/../lv_misc/lv_mem.h ****         *d8 = *s8;
 3740              		.loc 3 218 10 view .LVU1364
 3741 013a 002A     		cmp	r2, #0
 3742 013c F8D1     		bne	.L222
 3743              		.loc 3 225 5 is_stmt 1 view .LVU1365
 3744              	.LVL401:
 3745              		.loc 3 225 5 is_stmt 0 view .LVU1366
 3746              	.LBE504:
 3747              	.LBE507:
 533:lvgl/src/lv_core/lv_style.c ****     _lv_memcpy_small(style->map + size - end_mark_size, &end_mark, sizeof(end_mark));
 3748              		.loc 1 533 5 is_stmt 1 view .LVU1367
 533:lvgl/src/lv_core/lv_style.c ****     _lv_memcpy_small(style->map + size - end_mark_size, &end_mark, sizeof(end_mark));
 3749              		.loc 1 533 27 is_stmt 0 view .LVU1368
 3750 013e 2B68     		ldr	r3, [r5]
 533:lvgl/src/lv_core/lv_style.c ****     _lv_memcpy_small(style->map + size - end_mark_size, &end_mark, sizeof(end_mark));
 3751              		.loc 1 533 63 view .LVU1369
 3752 0140 023C     		subs	r4, r4, #2
 3753 0142 0344     		add	r3, r3, r0
 3754              	.LVL402:
 3755              	.LBB508:
 3756              	.LBI508:
 213:lvgl/src/lv_core/../lv_font/../lv_misc/lv_mem.h **** {
 3757              		.loc 3 213 44 is_stmt 1 view .LVU1370
 3758              	.LBB509:
 216:lvgl/src/lv_core/../lv_font/../lv_misc/lv_mem.h **** 
 3759              		.loc 3 216 21 is_stmt 0 view .LVU1371
 3760 0144 6946     		mov	r1, sp
 3761              	.LBE509:
 3762              	.LBE508:
 533:lvgl/src/lv_core/lv_style.c ****     _lv_memcpy_small(style->map + size - end_mark_size, &end_mark, sizeof(end_mark));
 3763              		.loc 1 533 63 view .LVU1372
 3764 0146 0422     		movs	r2, #4
 3765 0148 04E0     		b	.L223
 3766              	.LVL403:
 3767              	.L224:
 3768              	.LBB511:
 3769              	.LBB510:
 219:lvgl/src/lv_core/../lv_font/../lv_misc/lv_mem.h ****         d8++;
 3770              		.loc 3 219 9 is_stmt 1 view .LVU1373
 219:lvgl/src/lv_core/../lv_font/../lv_misc/lv_mem.h ****         d8++;
 3771              		.loc 3 219 15 is_stmt 0 view .LVU1374
 3772 014a 11F8010B 		ldrb	r0, [r1], #1	@ zero_extendqisi2
ARM GAS  D:\Temp\cceOI0TF.s 			page 119


 3773              	.LVL404:
 219:lvgl/src/lv_core/../lv_font/../lv_misc/lv_mem.h ****         d8++;
 3774              		.loc 3 219 13 view .LVU1375
 3775 014e 03F8010B 		strb	r0, [r3], #1
 3776              	.LVL405:
 220:lvgl/src/lv_core/../lv_font/../lv_misc/lv_mem.h ****         s8++;
 3777              		.loc 3 220 9 is_stmt 1 view .LVU1376
 221:lvgl/src/lv_core/../lv_font/../lv_misc/lv_mem.h ****         len--;
 3778              		.loc 3 221 9 view .LVU1377
 222:lvgl/src/lv_core/../lv_font/../lv_misc/lv_mem.h ****     }
 3779              		.loc 3 222 9 view .LVU1378
 222:lvgl/src/lv_core/../lv_font/../lv_misc/lv_mem.h ****     }
 3780              		.loc 3 222 12 is_stmt 0 view .LVU1379
 3781 0152 013A     		subs	r2, r2, #1
 3782              	.LVL406:
 3783              	.L223:
 218:lvgl/src/lv_core/../lv_font/../lv_misc/lv_mem.h ****         *d8 = *s8;
 3784              		.loc 3 218 10 view .LVU1380
 3785 0154 002A     		cmp	r2, #0
 3786 0156 F8D1     		bne	.L224
 3787              		.loc 3 225 5 is_stmt 1 view .LVU1381
 3788              	.LVL407:
 3789              		.loc 3 225 5 is_stmt 0 view .LVU1382
 3790              	.LBE510:
 3791              	.LBE511:
 534:lvgl/src/lv_core/lv_style.c **** }
 3792              		.loc 1 534 5 is_stmt 1 view .LVU1383
 534:lvgl/src/lv_core/lv_style.c **** }
 3793              		.loc 1 534 27 is_stmt 0 view .LVU1384
 3794 0158 2B68     		ldr	r3, [r5]
 534:lvgl/src/lv_core/lv_style.c **** }
 3795              		.loc 1 534 40 view .LVU1385
 3796 015a 1C44     		add	r4, r4, r3
 3797              	.LVL408:
 3798              	.LBB512:
 3799              	.LBI512:
 213:lvgl/src/lv_core/../lv_font/../lv_misc/lv_mem.h **** {
 3800              		.loc 3 213 44 is_stmt 1 view .LVU1386
 3801              	.LBB513:
 216:lvgl/src/lv_core/../lv_font/../lv_misc/lv_mem.h **** 
 3802              		.loc 3 216 21 is_stmt 0 view .LVU1387
 3803 015c 0DF10E02 		add	r2, sp, #14
 3804              	.LVL409:
 216:lvgl/src/lv_core/../lv_font/../lv_misc/lv_mem.h **** 
 3805              		.loc 3 216 21 view .LVU1388
 3806              	.LBE513:
 3807              	.LBE512:
 534:lvgl/src/lv_core/lv_style.c **** }
 3808              		.loc 1 534 40 view .LVU1389
 3809 0160 0223     		movs	r3, #2
 3810 0162 04E0     		b	.L225
 3811              	.LVL410:
 3812              	.L226:
 3813              	.LBB515:
 3814              	.LBB514:
 219:lvgl/src/lv_core/../lv_font/../lv_misc/lv_mem.h ****         d8++;
 3815              		.loc 3 219 9 is_stmt 1 view .LVU1390
ARM GAS  D:\Temp\cceOI0TF.s 			page 120


 219:lvgl/src/lv_core/../lv_font/../lv_misc/lv_mem.h ****         d8++;
 3816              		.loc 3 219 15 is_stmt 0 view .LVU1391
 3817 0164 12F8011B 		ldrb	r1, [r2], #1	@ zero_extendqisi2
 3818              	.LVL411:
 219:lvgl/src/lv_core/../lv_font/../lv_misc/lv_mem.h ****         d8++;
 3819              		.loc 3 219 13 view .LVU1392
 3820 0168 04F8011B 		strb	r1, [r4], #1
 3821              	.LVL412:
 220:lvgl/src/lv_core/../lv_font/../lv_misc/lv_mem.h ****         s8++;
 3822              		.loc 3 220 9 is_stmt 1 view .LVU1393
 221:lvgl/src/lv_core/../lv_font/../lv_misc/lv_mem.h ****         len--;
 3823              		.loc 3 221 9 view .LVU1394
 222:lvgl/src/lv_core/../lv_font/../lv_misc/lv_mem.h ****     }
 3824              		.loc 3 222 9 view .LVU1395
 222:lvgl/src/lv_core/../lv_font/../lv_misc/lv_mem.h ****     }
 3825              		.loc 3 222 12 is_stmt 0 view .LVU1396
 3826 016c 013B     		subs	r3, r3, #1
 3827              	.LVL413:
 3828              	.L225:
 218:lvgl/src/lv_core/../lv_font/../lv_misc/lv_mem.h ****         *d8 = *s8;
 3829              		.loc 3 218 10 view .LVU1397
 3830 016e 002B     		cmp	r3, #0
 3831 0170 F8D1     		bne	.L226
 3832              	.LVL414:
 3833              	.L207:
 218:lvgl/src/lv_core/../lv_font/../lv_misc/lv_mem.h ****         *d8 = *s8;
 3834              		.loc 3 218 10 view .LVU1398
 3835              	.LBE514:
 3836              	.LBE515:
 535:lvgl/src/lv_core/lv_style.c **** 
 3837              		.loc 1 535 1 view .LVU1399
 3838 0172 05B0     		add	sp, sp, #20
 3839              	.LCFI28:
 3840              		.cfi_def_cfa_offset 20
 3841              		@ sp needed
 3842 0174 F0BD     		pop	{r4, r5, r6, r7, pc}
 3843              	.L239:
 3844 0176 00BF     		.align	2
 3845              	.L238:
 3846 0178 00000000 		.word	.LC0
 3847              		.cfi_endproc
 3848              	.LFE471:
 3850              		.section	.text._lv_style_get_int,"ax",%progbits
 3851              		.align	1
 3852              		.global	_lv_style_get_int
 3853              		.syntax unified
 3854              		.thumb
 3855              		.thumb_func
 3856              		.fpu fpv4-sp-d16
 3858              	_lv_style_get_int:
 3859              	.LVL415:
 3860              	.LFB472:
 548:lvgl/src/lv_core/lv_style.c ****     lv_style_int_t * res = (lv_style_int_t *)v_res;
 3861              		.loc 1 548 1 is_stmt 1 view -0
 3862              		.cfi_startproc
 3863              		@ args = 0, pretend = 0, frame = 8
 3864              		@ frame_needed = 0, uses_anonymous_args = 0
ARM GAS  D:\Temp\cceOI0TF.s 			page 121


 549:lvgl/src/lv_core/lv_style.c ****     LV_ASSERT_STYLE(style);
 3865              		.loc 1 549 5 view .LVU1401
 550:lvgl/src/lv_core/lv_style.c **** 
 3866              		.loc 1 550 27 view .LVU1402
 552:lvgl/src/lv_core/lv_style.c ****     if(style->map == NULL) return -1;
 3867              		.loc 1 552 5 view .LVU1403
 552:lvgl/src/lv_core/lv_style.c ****     if(style->map == NULL) return -1;
 3868              		.loc 1 552 7 is_stmt 0 view .LVU1404
 3869 0000 0028     		cmp	r0, #0
 3870 0002 73D0     		beq	.L250
 548:lvgl/src/lv_core/lv_style.c ****     lv_style_int_t * res = (lv_style_int_t *)v_res;
 3871              		.loc 1 548 1 view .LVU1405
 3872 0004 2DE9F043 		push	{r4, r5, r6, r7, r8, r9, lr}
 3873              	.LCFI29:
 3874              		.cfi_def_cfa_offset 28
 3875              		.cfi_offset 4, -28
 3876              		.cfi_offset 5, -24
 3877              		.cfi_offset 6, -20
 3878              		.cfi_offset 7, -16
 3879              		.cfi_offset 8, -12
 3880              		.cfi_offset 9, -8
 3881              		.cfi_offset 14, -4
 3882 0008 83B0     		sub	sp, sp, #12
 3883              	.LCFI30:
 3884              		.cfi_def_cfa_offset 40
 3885 000a 0646     		mov	r6, r0
 553:lvgl/src/lv_core/lv_style.c **** 
 3886              		.loc 1 553 5 is_stmt 1 view .LVU1406
 553:lvgl/src/lv_core/lv_style.c **** 
 3887              		.loc 1 553 13 is_stmt 0 view .LVU1407
 3888 000c 0368     		ldr	r3, [r0]
 553:lvgl/src/lv_core/lv_style.c **** 
 3889              		.loc 1 553 7 view .LVU1408
 3890 000e 002B     		cmp	r3, #0
 3891 0010 6FD0     		beq	.L251
 555:lvgl/src/lv_core/lv_style.c ****     if(id < 0) {
 3892              		.loc 1 555 5 is_stmt 1 view .LVU1409
 3893              	.LVL416:
 3894              	.LBB538:
 3895              	.LBI538:
1053:lvgl/src/lv_core/lv_style.c **** {
 3896              		.loc 1 1053 45 view .LVU1410
 3897              	.LBB539:
1055:lvgl/src/lv_core/lv_style.c **** 
 3898              		.loc 1 1055 27 view .LVU1411
1057:lvgl/src/lv_core/lv_style.c **** 
 3899              		.loc 1 1057 5 view .LVU1412
1057:lvgl/src/lv_core/lv_style.c **** 
 3900              		.loc 1 1057 7 is_stmt 0 view .LVU1413
 3901 0012 002B     		cmp	r3, #0
 3902 0014 56D0     		beq	.L252
1059:lvgl/src/lv_core/lv_style.c ****     lv_style_attr_t attr;
 3903              		.loc 1 1059 5 is_stmt 1 view .LVU1414
1059:lvgl/src/lv_core/lv_style.c ****     lv_style_attr_t attr;
 3904              		.loc 1 1059 13 is_stmt 0 view .LVU1415
 3905 0016 CFB2     		uxtb	r7, r1
 3906              	.LVL417:
ARM GAS  D:\Temp\cceOI0TF.s 			page 122


1060:lvgl/src/lv_core/lv_style.c ****     attr = (prop >> 8) & 0xFF;
 3907              		.loc 1 1060 5 is_stmt 1 view .LVU1416
1061:lvgl/src/lv_core/lv_style.c **** 
 3908              		.loc 1 1061 5 view .LVU1417
1061:lvgl/src/lv_core/lv_style.c **** 
 3909              		.loc 1 1061 10 is_stmt 0 view .LVU1418
 3910 0018 4FEA112C 		lsr	ip, r1, #8
 3911              	.LVL418:
1063:lvgl/src/lv_core/lv_style.c ****     int16_t id_guess = -1;
 3912              		.loc 1 1063 5 is_stmt 1 view .LVU1419
1064:lvgl/src/lv_core/lv_style.c **** 
 3913              		.loc 1 1064 5 view .LVU1420
1066:lvgl/src/lv_core/lv_style.c **** 
 3914              		.loc 1 1066 5 view .LVU1421
1068:lvgl/src/lv_core/lv_style.c ****     while((prop_id = get_style_prop_id(style, i)) != _LV_STYLE_CLOSING_PROP) {
 3915              		.loc 1 1068 5 view .LVU1422
1069:lvgl/src/lv_core/lv_style.c ****         if(prop_id == id_to_find) {
 3916              		.loc 1 1069 5 view .LVU1423
1066:lvgl/src/lv_core/lv_style.c **** 
 3917              		.loc 1 1066 12 is_stmt 0 view .LVU1424
 3918 001c 0024     		movs	r4, #0
1064:lvgl/src/lv_core/lv_style.c **** 
 3919              		.loc 1 1064 13 view .LVU1425
 3920 001e 4FF0FF30 		mov	r0, #-1
 3921              	.LVL419:
1063:lvgl/src/lv_core/lv_style.c ****     int16_t id_guess = -1;
 3922              		.loc 1 1063 13 view .LVU1426
 3923 0022 8646     		mov	lr, r0
 3924 0024 32E0     		b	.L243
 3925              	.LVL420:
 3926              	.L263:
 3927              	.LBB540:
1071:lvgl/src/lv_core/lv_style.c ****             attr_i = get_style_prop_attr(style, i);
 3928              		.loc 1 1071 13 is_stmt 1 view .LVU1427
1072:lvgl/src/lv_core/lv_style.c **** 
 3929              		.loc 1 1072 13 view .LVU1428
 3930              	.LBB541:
 3931              	.LBI541:
1164:lvgl/src/lv_core/lv_style.c **** {
 3932              		.loc 1 1164 23 view .LVU1429
 3933              	.LBB542:
1166:lvgl/src/lv_core/lv_style.c **** }
 3934              		.loc 1 1166 5 view .LVU1430
 3935              	.LBB543:
 3936              	.LBI543:
1138:lvgl/src/lv_core/lv_style.c **** {
 3937              		.loc 1 1138 35 view .LVU1431
 3938              	.LBB544:
1140:lvgl/src/lv_core/lv_style.c ****     uint8_t * prop_p = (uint8_t *)&prop;
 3939              		.loc 1 1140 5 view .LVU1432
1141:lvgl/src/lv_core/lv_style.c ****     prop_p[0] = style->map[idx];
 3940              		.loc 1 1141 5 view .LVU1433
1142:lvgl/src/lv_core/lv_style.c ****     prop_p[1] = style->map[idx + 1];
 3941              		.loc 1 1142 5 view .LVU1434
1142:lvgl/src/lv_core/lv_style.c ****     prop_p[1] = style->map[idx + 1];
 3942              		.loc 1 1142 22 is_stmt 0 view .LVU1435
 3943 0026 D6F80080 		ldr	r8, [r6]
ARM GAS  D:\Temp\cceOI0TF.s 			page 123


1142:lvgl/src/lv_core/lv_style.c ****     prop_p[1] = style->map[idx + 1];
 3944              		.loc 1 1142 27 view .LVU1436
 3945 002a 18F80490 		ldrb	r9, [r8, r4]	@ zero_extendqisi2
1142:lvgl/src/lv_core/lv_style.c ****     prop_p[1] = style->map[idx + 1];
 3946              		.loc 1 1142 15 view .LVU1437
 3947 002e 8DF80690 		strb	r9, [sp, #6]
1143:lvgl/src/lv_core/lv_style.c ****     return prop;
 3948              		.loc 1 1143 5 is_stmt 1 view .LVU1438
1143:lvgl/src/lv_core/lv_style.c ****     return prop;
 3949              		.loc 1 1143 27 is_stmt 0 view .LVU1439
 3950 0032 18F80550 		ldrb	r5, [r8, r5]	@ zero_extendqisi2
1143:lvgl/src/lv_core/lv_style.c ****     return prop;
 3951              		.loc 1 1143 15 view .LVU1440
 3952 0036 8DF80750 		strb	r5, [sp, #7]
1144:lvgl/src/lv_core/lv_style.c **** }
 3953              		.loc 1 1144 5 is_stmt 1 view .LVU1441
1144:lvgl/src/lv_core/lv_style.c **** }
 3954              		.loc 1 1144 12 is_stmt 0 view .LVU1442
 3955 003a BDF80680 		ldrh	r8, [sp, #6]
 3956              	.LVL421:
1144:lvgl/src/lv_core/lv_style.c **** }
 3957              		.loc 1 1144 12 view .LVU1443
 3958              	.LBE544:
 3959              	.LBE543:
1166:lvgl/src/lv_core/lv_style.c **** }
 3960              		.loc 1 1166 47 view .LVU1444
 3961 003e 4FEA1828 		lsr	r8, r8, #8
 3962 0042 5FFA88F5 		uxtb	r5, r8
 3963              	.LVL422:
1166:lvgl/src/lv_core/lv_style.c **** }
 3964              		.loc 1 1166 47 view .LVU1445
 3965              	.LBE542:
 3966              	.LBE541:
1075:lvgl/src/lv_core/lv_style.c ****                 return i;
 3967              		.loc 1 1075 13 is_stmt 1 view .LVU1446
1075:lvgl/src/lv_core/lv_style.c ****                 return i;
 3968              		.loc 1 1075 48 is_stmt 0 view .LVU1447
 3969 0046 8CEA0509 		eor	r9, ip, r5
1075:lvgl/src/lv_core/lv_style.c ****                 return i;
 3970              		.loc 1 1075 15 view .LVU1448
 3971 004a 19F07F0F 		tst	r9, #127
 3972 004e 0CD0     		beq	.L261
1080:lvgl/src/lv_core/lv_style.c ****                 /* Use this property if it describes better the requested state than the current ca
 3973              		.loc 1 1080 18 is_stmt 1 view .LVU1449
1080:lvgl/src/lv_core/lv_style.c ****                 /* Use this property if it describes better the requested state than the current ca
 3974              		.loc 1 1080 22 is_stmt 0 view .LVU1450
 3975 0050 05F07F05 		and	r5, r5, #127
 3976              	.LVL423:
1080:lvgl/src/lv_core/lv_style.c ****                 /* Use this property if it describes better the requested state than the current ca
 3977              		.loc 1 1080 58 view .LVU1451
 3978 0054 0CF07F09 		and	r9, ip, #127
1080:lvgl/src/lv_core/lv_style.c ****                 /* Use this property if it describes better the requested state than the current ca
 3979              		.loc 1 1080 20 view .LVU1452
 3980 0058 35EA0909 		bics	r9, r5, r9
 3981 005c 24D1     		bne	.L244
1083:lvgl/src/lv_core/lv_style.c ****                     weight = LV_STYLE_ATTR_GET_STATE(attr_i);
 3982              		.loc 1 1083 17 is_stmt 1 view .LVU1453
ARM GAS  D:\Temp\cceOI0TF.s 			page 124


1083:lvgl/src/lv_core/lv_style.c ****                     weight = LV_STYLE_ATTR_GET_STATE(attr_i);
 3983              		.loc 1 1083 19 is_stmt 0 view .LVU1454
 3984 005e 7545     		cmp	r5, lr
 3985 0060 22DD     		ble	.L244
1084:lvgl/src/lv_core/lv_style.c ****                     id_guess = i;
 3986              		.loc 1 1084 21 is_stmt 1 view .LVU1455
1084:lvgl/src/lv_core/lv_style.c ****                     id_guess = i;
 3987              		.loc 1 1084 28 is_stmt 0 view .LVU1456
 3988 0062 08F07F0E 		and	lr, r8, #127
 3989              	.LVL424:
1085:lvgl/src/lv_core/lv_style.c ****                 }
 3990              		.loc 1 1085 21 is_stmt 1 view .LVU1457
1085:lvgl/src/lv_core/lv_style.c ****                 }
 3991              		.loc 1 1085 30 is_stmt 0 view .LVU1458
 3992 0066 20B2     		sxth	r0, r4
 3993              	.LVL425:
1085:lvgl/src/lv_core/lv_style.c ****                 }
 3994              		.loc 1 1085 30 view .LVU1459
 3995 0068 1EE0     		b	.L244
 3996              	.LVL426:
 3997              	.L261:
1076:lvgl/src/lv_core/lv_style.c ****             }
 3998              		.loc 1 1076 17 is_stmt 1 view .LVU1460
1076:lvgl/src/lv_core/lv_style.c ****             }
 3999              		.loc 1 1076 24 is_stmt 0 view .LVU1461
 4000 006a 2046     		mov	r0, r4
 4001              	.LVL427:
 4002              	.L242:
1076:lvgl/src/lv_core/lv_style.c ****             }
 4003              		.loc 1 1076 24 view .LVU1462
 4004              	.LBE540:
 4005              	.LBE539:
 4006              	.LBE538:
 556:lvgl/src/lv_core/lv_style.c ****         return -1;
 4007              		.loc 1 556 5 is_stmt 1 view .LVU1463
 556:lvgl/src/lv_core/lv_style.c ****         return -1;
 4008              		.loc 1 556 7 is_stmt 0 view .LVU1464
 4009 006c 0028     		cmp	r0, #0
 4010 006e 43DB     		blt	.L256
 4011              	.LBB558:
 560:lvgl/src/lv_core/lv_style.c ****         lv_style_attr_t attr_act;
 4012              		.loc 1 560 9 is_stmt 1 view .LVU1465
 560:lvgl/src/lv_core/lv_style.c ****         lv_style_attr_t attr_act;
 4013              		.loc 1 560 37 is_stmt 0 view .LVU1466
 4014 0070 3368     		ldr	r3, [r6]
 560:lvgl/src/lv_core/lv_style.c ****         lv_style_attr_t attr_act;
 4015              		.loc 1 560 42 view .LVU1467
 4016 0072 0546     		mov	r5, r0
 4017 0074 0230     		adds	r0, r0, #2
 4018              	.LVL428:
 560:lvgl/src/lv_core/lv_style.c ****         lv_style_attr_t attr_act;
 4019              		.loc 1 560 31 view .LVU1468
 4020 0076 1844     		add	r0, r0, r3
 4021              	.LVL429:
 4022              	.LBB559:
 4023              	.LBI559:
 213:lvgl/src/lv_core/../lv_font/../lv_misc/lv_mem.h **** {
ARM GAS  D:\Temp\cceOI0TF.s 			page 125


 4024              		.loc 3 213 44 is_stmt 1 view .LVU1469
 4025              	.LBB560:
 215:lvgl/src/lv_core/../lv_font/../lv_misc/lv_mem.h ****     const uint8_t * s8 = (const uint8_t *)src;
 4026              		.loc 3 215 5 view .LVU1470
 216:lvgl/src/lv_core/../lv_font/../lv_misc/lv_mem.h **** 
 4027              		.loc 3 216 5 view .LVU1471
 218:lvgl/src/lv_core/../lv_font/../lv_misc/lv_mem.h ****         *d8 = *s8;
 4028              		.loc 3 218 5 view .LVU1472
 4029              	.LBE560:
 4030              	.LBE559:
 560:lvgl/src/lv_core/lv_style.c ****         lv_style_attr_t attr_act;
 4031              		.loc 1 560 31 is_stmt 0 view .LVU1473
 4032 0078 0223     		movs	r3, #2
 4033              	.LVL430:
 4034              	.L248:
 4035              	.LBB563:
 4036              	.LBB561:
 218:lvgl/src/lv_core/../lv_font/../lv_misc/lv_mem.h ****         *d8 = *s8;
 4037              		.loc 3 218 10 view .LVU1474
 4038 007a 33B3     		cbz	r3, .L262
 219:lvgl/src/lv_core/../lv_font/../lv_misc/lv_mem.h ****         d8++;
 4039              		.loc 3 219 9 is_stmt 1 view .LVU1475
 219:lvgl/src/lv_core/../lv_font/../lv_misc/lv_mem.h ****         d8++;
 4040              		.loc 3 219 15 is_stmt 0 view .LVU1476
 4041 007c 10F8014B 		ldrb	r4, [r0], #1	@ zero_extendqisi2
 4042              	.LVL431:
 219:lvgl/src/lv_core/../lv_font/../lv_misc/lv_mem.h ****         d8++;
 4043              		.loc 3 219 13 view .LVU1477
 4044 0080 02F8014B 		strb	r4, [r2], #1
 4045              	.LVL432:
 220:lvgl/src/lv_core/../lv_font/../lv_misc/lv_mem.h ****         s8++;
 4046              		.loc 3 220 9 is_stmt 1 view .LVU1478
 221:lvgl/src/lv_core/../lv_font/../lv_misc/lv_mem.h ****         len--;
 4047              		.loc 3 221 9 view .LVU1479
 222:lvgl/src/lv_core/../lv_font/../lv_misc/lv_mem.h ****     }
 4048              		.loc 3 222 9 view .LVU1480
 222:lvgl/src/lv_core/../lv_font/../lv_misc/lv_mem.h ****     }
 4049              		.loc 3 222 12 is_stmt 0 view .LVU1481
 4050 0084 013B     		subs	r3, r3, #1
 4051              	.LVL433:
 222:lvgl/src/lv_core/../lv_font/../lv_misc/lv_mem.h ****     }
 4052              		.loc 3 222 12 view .LVU1482
 4053 0086 F8E7     		b	.L248
 4054              	.LVL434:
 4055              	.L253:
 222:lvgl/src/lv_core/../lv_font/../lv_misc/lv_mem.h ****     }
 4056              		.loc 3 222 12 view .LVU1483
 4057              	.LBE561:
 4058              	.LBE563:
 4059              	.LBE558:
 4060              	.LBB569:
 4061              	.LBB557:
 4062              	.LBB545:
 4063              	.LBB546:
 4064              	.LBB547:
 4065              	.LBB548:
1179:lvgl/src/lv_core/lv_style.c ****     else if(prop_id < LV_STYLE_ID_OPA) size += sizeof(lv_color_t);
ARM GAS  D:\Temp\cceOI0TF.s 			page 126


 4066              		.loc 1 1179 42 view .LVU1484
 4067 0088 0423     		movs	r3, #4
 4068              	.LVL435:
 4069              	.L246:
1183:lvgl/src/lv_core/lv_style.c **** }
 4070              		.loc 1 1183 5 is_stmt 1 view .LVU1485
1183:lvgl/src/lv_core/lv_style.c **** }
 4071              		.loc 1 1183 5 is_stmt 0 view .LVU1486
 4072              	.LBE548:
 4073              	.LBE547:
 4074              		.loc 1 1194 16 view .LVU1487
 4075 008a 1C44     		add	r4, r4, r3
 4076              	.LVL436:
 4077              	.L243:
 4078              		.loc 1 1194 16 view .LVU1488
 4079              	.LBE546:
 4080              	.LBE545:
 4081              	.LBB552:
 4082              	.LBI552:
1153:lvgl/src/lv_core/lv_style.c **** {
 4083              		.loc 1 1153 23 is_stmt 1 view .LVU1489
 4084              	.LBB553:
1155:lvgl/src/lv_core/lv_style.c **** }
 4085              		.loc 1 1155 5 view .LVU1490
 4086              	.LBB554:
 4087              	.LBI554:
1138:lvgl/src/lv_core/lv_style.c **** {
 4088              		.loc 1 1138 35 view .LVU1491
 4089              	.LBB555:
1140:lvgl/src/lv_core/lv_style.c ****     uint8_t * prop_p = (uint8_t *)&prop;
 4090              		.loc 1 1140 5 view .LVU1492
1141:lvgl/src/lv_core/lv_style.c ****     prop_p[0] = style->map[idx];
 4091              		.loc 1 1141 5 view .LVU1493
1142:lvgl/src/lv_core/lv_style.c ****     prop_p[1] = style->map[idx + 1];
 4092              		.loc 1 1142 5 view .LVU1494
1142:lvgl/src/lv_core/lv_style.c ****     prop_p[1] = style->map[idx + 1];
 4093              		.loc 1 1142 22 is_stmt 0 view .LVU1495
 4094 008c 3368     		ldr	r3, [r6]
1142:lvgl/src/lv_core/lv_style.c ****     prop_p[1] = style->map[idx + 1];
 4095              		.loc 1 1142 27 view .LVU1496
 4096 008e 1D5D     		ldrb	r5, [r3, r4]	@ zero_extendqisi2
1142:lvgl/src/lv_core/lv_style.c ****     prop_p[1] = style->map[idx + 1];
 4097              		.loc 1 1142 15 view .LVU1497
 4098 0090 8DF80650 		strb	r5, [sp, #6]
1143:lvgl/src/lv_core/lv_style.c ****     return prop;
 4099              		.loc 1 1143 5 is_stmt 1 view .LVU1498
1143:lvgl/src/lv_core/lv_style.c ****     return prop;
 4100              		.loc 1 1143 27 is_stmt 0 view .LVU1499
 4101 0094 651C     		adds	r5, r4, #1
 4102 0096 5B5D     		ldrb	r3, [r3, r5]	@ zero_extendqisi2
1143:lvgl/src/lv_core/lv_style.c ****     return prop;
 4103              		.loc 1 1143 15 view .LVU1500
 4104 0098 8DF80730 		strb	r3, [sp, #7]
1144:lvgl/src/lv_core/lv_style.c **** }
 4105              		.loc 1 1144 5 is_stmt 1 view .LVU1501
 4106              	.LVL437:
1144:lvgl/src/lv_core/lv_style.c **** }
ARM GAS  D:\Temp\cceOI0TF.s 			page 127


 4107              		.loc 1 1144 5 is_stmt 0 view .LVU1502
 4108              	.LBE555:
 4109              	.LBE554:
1155:lvgl/src/lv_core/lv_style.c **** }
 4110              		.loc 1 1155 39 view .LVU1503
 4111 009c 9DF80630 		ldrb	r3, [sp, #6]	@ zero_extendqisi2
 4112              	.LVL438:
1155:lvgl/src/lv_core/lv_style.c **** }
 4113              		.loc 1 1155 39 view .LVU1504
 4114              	.LBE553:
 4115              	.LBE552:
1069:lvgl/src/lv_core/lv_style.c ****         if(prop_id == id_to_find) {
 4116              		.loc 1 1069 10 view .LVU1505
 4117 00a0 FF2B     		cmp	r3, #255
 4118 00a2 E3D0     		beq	.L242
1070:lvgl/src/lv_core/lv_style.c ****             lv_style_attr_t attr_i;
 4119              		.loc 1 1070 9 is_stmt 1 view .LVU1506
1070:lvgl/src/lv_core/lv_style.c ****             lv_style_attr_t attr_i;
 4120              		.loc 1 1070 11 is_stmt 0 view .LVU1507
 4121 00a4 9F42     		cmp	r7, r3
 4122 00a6 BED0     		beq	.L263
 4123              	.L244:
1090:lvgl/src/lv_core/lv_style.c ****     }
 4124              		.loc 1 1090 9 is_stmt 1 view .LVU1508
 4125              	.LVL439:
 4126              	.LBB556:
 4127              	.LBI545:
1192:lvgl/src/lv_core/lv_style.c **** {
 4128              		.loc 1 1192 22 view .LVU1509
 4129              	.LBB551:
 4130              		.loc 1 1194 5 view .LVU1510
 4131              	.LBB550:
 4132              	.LBI547:
1175:lvgl/src/lv_core/lv_style.c **** {
 4133              		.loc 1 1175 22 view .LVU1511
 4134              	.LBB549:
1177:lvgl/src/lv_core/lv_style.c ****     size_t size = sizeof(lv_style_property_t);
 4135              		.loc 1 1177 5 view .LVU1512
1177:lvgl/src/lv_core/lv_style.c ****     size_t size = sizeof(lv_style_property_t);
 4136              		.loc 1 1177 13 is_stmt 0 view .LVU1513
 4137 00a8 03F00F03 		and	r3, r3, #15
 4138              	.LVL440:
1178:lvgl/src/lv_core/lv_style.c ****     if(prop_id < LV_STYLE_ID_COLOR) size += sizeof(lv_style_int_t);
 4139              		.loc 1 1178 5 is_stmt 1 view .LVU1514
1179:lvgl/src/lv_core/lv_style.c ****     else if(prop_id < LV_STYLE_ID_OPA) size += sizeof(lv_color_t);
 4140              		.loc 1 1179 5 view .LVU1515
1179:lvgl/src/lv_core/lv_style.c ****     else if(prop_id < LV_STYLE_ID_OPA) size += sizeof(lv_color_t);
 4141              		.loc 1 1179 7 is_stmt 0 view .LVU1516
 4142 00ac 082B     		cmp	r3, #8
 4143 00ae EBD9     		bls	.L253
1180:lvgl/src/lv_core/lv_style.c ****     else if(prop_id < LV_STYLE_ID_PTR) size += sizeof(lv_opa_t);
 4144              		.loc 1 1180 10 is_stmt 1 view .LVU1517
1180:lvgl/src/lv_core/lv_style.c ****     else if(prop_id < LV_STYLE_ID_PTR) size += sizeof(lv_opa_t);
 4145              		.loc 1 1180 12 is_stmt 0 view .LVU1518
 4146 00b0 0B2B     		cmp	r3, #11
 4147 00b2 03D9     		bls	.L254
1181:lvgl/src/lv_core/lv_style.c ****     else size += sizeof(const void *);
ARM GAS  D:\Temp\cceOI0TF.s 			page 128


 4148              		.loc 1 1181 10 is_stmt 1 view .LVU1519
1181:lvgl/src/lv_core/lv_style.c ****     else size += sizeof(const void *);
 4149              		.loc 1 1181 12 is_stmt 0 view .LVU1520
 4150 00b4 0D2B     		cmp	r3, #13
 4151 00b6 03D8     		bhi	.L255
1181:lvgl/src/lv_core/lv_style.c ****     else size += sizeof(const void *);
 4152              		.loc 1 1181 45 view .LVU1521
 4153 00b8 0323     		movs	r3, #3
 4154              	.LVL441:
1181:lvgl/src/lv_core/lv_style.c ****     else size += sizeof(const void *);
 4155              		.loc 1 1181 45 view .LVU1522
 4156 00ba E6E7     		b	.L246
 4157              	.LVL442:
 4158              	.L254:
1180:lvgl/src/lv_core/lv_style.c ****     else if(prop_id < LV_STYLE_ID_PTR) size += sizeof(lv_opa_t);
 4159              		.loc 1 1180 45 view .LVU1523
 4160 00bc 0423     		movs	r3, #4
 4161              	.LVL443:
1180:lvgl/src/lv_core/lv_style.c ****     else if(prop_id < LV_STYLE_ID_PTR) size += sizeof(lv_opa_t);
 4162              		.loc 1 1180 45 view .LVU1524
 4163 00be E4E7     		b	.L246
 4164              	.LVL444:
 4165              	.L255:
1182:lvgl/src/lv_core/lv_style.c ****     return size;
 4166              		.loc 1 1182 15 view .LVU1525
 4167 00c0 0623     		movs	r3, #6
 4168              	.LVL445:
1182:lvgl/src/lv_core/lv_style.c ****     return size;
 4169              		.loc 1 1182 15 view .LVU1526
 4170 00c2 E2E7     		b	.L246
 4171              	.LVL446:
 4172              	.L252:
1182:lvgl/src/lv_core/lv_style.c ****     return size;
 4173              		.loc 1 1182 15 view .LVU1527
 4174              	.LBE549:
 4175              	.LBE550:
 4176              	.LBE551:
 4177              	.LBE556:
1057:lvgl/src/lv_core/lv_style.c **** 
 4178              		.loc 1 1057 35 view .LVU1528
 4179 00c4 4FF0FF30 		mov	r0, #-1
 4180              	.LVL447:
1057:lvgl/src/lv_core/lv_style.c **** 
 4181              		.loc 1 1057 35 view .LVU1529
 4182 00c8 D0E7     		b	.L242
 4183              	.LVL448:
 4184              	.L262:
1057:lvgl/src/lv_core/lv_style.c **** 
 4185              		.loc 1 1057 35 view .LVU1530
 4186              	.LBE557:
 4187              	.LBE569:
 4188              	.LBB570:
 4189              	.LBB564:
 4190              	.LBB562:
 4191              		.loc 3 225 5 is_stmt 1 view .LVU1531
 4192              		.loc 3 225 5 is_stmt 0 view .LVU1532
 4193              	.LBE562:
ARM GAS  D:\Temp\cceOI0TF.s 			page 129


 4194              	.LBE564:
 561:lvgl/src/lv_core/lv_style.c ****         attr_act = get_style_prop_attr(style, id);
 4195              		.loc 1 561 9 is_stmt 1 view .LVU1533
 562:lvgl/src/lv_core/lv_style.c **** 
 4196              		.loc 1 562 9 view .LVU1534
 4197              	.LBB565:
 4198              	.LBI565:
1164:lvgl/src/lv_core/lv_style.c **** {
 4199              		.loc 1 1164 23 view .LVU1535
 4200              	.LBB566:
1166:lvgl/src/lv_core/lv_style.c **** }
 4201              		.loc 1 1166 5 view .LVU1536
 4202              	.LBB567:
 4203              	.LBI567:
1138:lvgl/src/lv_core/lv_style.c **** {
 4204              		.loc 1 1138 35 view .LVU1537
 4205              	.LBB568:
1140:lvgl/src/lv_core/lv_style.c ****     uint8_t * prop_p = (uint8_t *)&prop;
 4206              		.loc 1 1140 5 view .LVU1538
1141:lvgl/src/lv_core/lv_style.c ****     prop_p[0] = style->map[idx];
 4207              		.loc 1 1141 5 view .LVU1539
1142:lvgl/src/lv_core/lv_style.c ****     prop_p[1] = style->map[idx + 1];
 4208              		.loc 1 1142 5 view .LVU1540
1142:lvgl/src/lv_core/lv_style.c ****     prop_p[1] = style->map[idx + 1];
 4209              		.loc 1 1142 22 is_stmt 0 view .LVU1541
 4210 00ca 3368     		ldr	r3, [r6]
1142:lvgl/src/lv_core/lv_style.c ****     prop_p[1] = style->map[idx + 1];
 4211              		.loc 1 1142 27 view .LVU1542
 4212 00cc 5A5D     		ldrb	r2, [r3, r5]	@ zero_extendqisi2
1142:lvgl/src/lv_core/lv_style.c ****     prop_p[1] = style->map[idx + 1];
 4213              		.loc 1 1142 15 view .LVU1543
 4214 00ce 8DF80620 		strb	r2, [sp, #6]
1143:lvgl/src/lv_core/lv_style.c ****     return prop;
 4215              		.loc 1 1143 5 is_stmt 1 view .LVU1544
1143:lvgl/src/lv_core/lv_style.c ****     return prop;
 4216              		.loc 1 1143 27 is_stmt 0 view .LVU1545
 4217 00d2 2B44     		add	r3, r3, r5
 4218 00d4 5B78     		ldrb	r3, [r3, #1]	@ zero_extendqisi2
1143:lvgl/src/lv_core/lv_style.c ****     return prop;
 4219              		.loc 1 1143 15 view .LVU1546
 4220 00d6 8DF80730 		strb	r3, [sp, #7]
1144:lvgl/src/lv_core/lv_style.c **** }
 4221              		.loc 1 1144 5 is_stmt 1 view .LVU1547
1144:lvgl/src/lv_core/lv_style.c **** }
 4222              		.loc 1 1144 12 is_stmt 0 view .LVU1548
 4223 00da BDF80600 		ldrh	r0, [sp, #6]
 4224              	.LVL449:
1144:lvgl/src/lv_core/lv_style.c **** }
 4225              		.loc 1 1144 12 view .LVU1549
 4226              	.LBE568:
 4227              	.LBE567:
 4228              	.LBE566:
 4229              	.LBE565:
 564:lvgl/src/lv_core/lv_style.c ****         attr_goal = (prop >> 8) & 0xFF;
 4230              		.loc 1 564 9 is_stmt 1 view .LVU1550
 565:lvgl/src/lv_core/lv_style.c **** 
 4231              		.loc 1 565 9 view .LVU1551
ARM GAS  D:\Temp\cceOI0TF.s 			page 130


 567:lvgl/src/lv_core/lv_style.c ****     }
 4232              		.loc 1 567 9 view .LVU1552
 567:lvgl/src/lv_core/lv_style.c ****     }
 4233              		.loc 1 567 16 is_stmt 0 view .LVU1553
 4234 00de C0F30620 		ubfx	r0, r0, #8, #7
 4235              	.LVL450:
 567:lvgl/src/lv_core/lv_style.c ****     }
 4236              		.loc 1 567 50 view .LVU1554
 4237 00e2 00EA1120 		and	r0, r0, r1, lsr #8
 4238              	.LVL451:
 4239              	.L241:
 567:lvgl/src/lv_core/lv_style.c ****     }
 4240              		.loc 1 567 50 view .LVU1555
 4241              	.LBE570:
 569:lvgl/src/lv_core/lv_style.c **** 
 4242              		.loc 1 569 1 view .LVU1556
 4243 00e6 03B0     		add	sp, sp, #12
 4244              	.LCFI31:
 4245              		.cfi_def_cfa_offset 28
 4246              		@ sp needed
 4247 00e8 BDE8F083 		pop	{r4, r5, r6, r7, r8, r9, pc}
 4248              	.LVL452:
 4249              	.L250:
 4250              	.LCFI32:
 4251              		.cfi_def_cfa_offset 0
 4252              		.cfi_restore 4
 4253              		.cfi_restore 5
 4254              		.cfi_restore 6
 4255              		.cfi_restore 7
 4256              		.cfi_restore 8
 4257              		.cfi_restore 9
 4258              		.cfi_restore 14
 552:lvgl/src/lv_core/lv_style.c ****     if(style->map == NULL) return -1;
 4259              		.loc 1 552 30 view .LVU1557
 4260 00ec 4FF0FF30 		mov	r0, #-1
 4261              	.LVL453:
 569:lvgl/src/lv_core/lv_style.c **** 
 4262              		.loc 1 569 1 view .LVU1558
 4263 00f0 7047     		bx	lr
 4264              	.LVL454:
 4265              	.L251:
 4266              	.LCFI33:
 4267              		.cfi_def_cfa_offset 40
 4268              		.cfi_offset 4, -28
 4269              		.cfi_offset 5, -24
 4270              		.cfi_offset 6, -20
 4271              		.cfi_offset 7, -16
 4272              		.cfi_offset 8, -12
 4273              		.cfi_offset 9, -8
 4274              		.cfi_offset 14, -4
 553:lvgl/src/lv_core/lv_style.c **** 
 4275              		.loc 1 553 35 view .LVU1559
 4276 00f2 4FF0FF30 		mov	r0, #-1
 4277              	.LVL455:
 553:lvgl/src/lv_core/lv_style.c **** 
 4278              		.loc 1 553 35 view .LVU1560
 4279 00f6 F6E7     		b	.L241
ARM GAS  D:\Temp\cceOI0TF.s 			page 131


 4280              	.LVL456:
 4281              	.L256:
 557:lvgl/src/lv_core/lv_style.c ****     }
 4282              		.loc 1 557 16 view .LVU1561
 4283 00f8 4FF0FF30 		mov	r0, #-1
 4284              	.LVL457:
 557:lvgl/src/lv_core/lv_style.c ****     }
 4285              		.loc 1 557 16 view .LVU1562
 4286 00fc F3E7     		b	.L241
 4287              		.cfi_endproc
 4288              	.LFE472:
 4290              		.section	.text._lv_style_get_opa,"ax",%progbits
 4291              		.align	1
 4292              		.global	_lv_style_get_opa
 4293              		.syntax unified
 4294              		.thumb
 4295              		.thumb_func
 4296              		.fpu fpv4-sp-d16
 4298              	_lv_style_get_opa:
 4299              	.LVL458:
 4300              	.LFB473:
 585:lvgl/src/lv_core/lv_style.c ****     lv_opa_t * res = (lv_opa_t *)v_res;
 4301              		.loc 1 585 1 is_stmt 1 view -0
 4302              		.cfi_startproc
 4303              		@ args = 0, pretend = 0, frame = 8
 4304              		@ frame_needed = 0, uses_anonymous_args = 0
 586:lvgl/src/lv_core/lv_style.c ****     LV_ASSERT_STYLE(style);
 4305              		.loc 1 586 5 view .LVU1564
 587:lvgl/src/lv_core/lv_style.c **** 
 4306              		.loc 1 587 27 view .LVU1565
 589:lvgl/src/lv_core/lv_style.c ****     if(style->map == NULL) return -1;
 4307              		.loc 1 589 5 view .LVU1566
 589:lvgl/src/lv_core/lv_style.c ****     if(style->map == NULL) return -1;
 4308              		.loc 1 589 7 is_stmt 0 view .LVU1567
 4309 0000 0028     		cmp	r0, #0
 4310 0002 73D0     		beq	.L274
 585:lvgl/src/lv_core/lv_style.c ****     lv_opa_t * res = (lv_opa_t *)v_res;
 4311              		.loc 1 585 1 view .LVU1568
 4312 0004 2DE9F043 		push	{r4, r5, r6, r7, r8, r9, lr}
 4313              	.LCFI34:
 4314              		.cfi_def_cfa_offset 28
 4315              		.cfi_offset 4, -28
 4316              		.cfi_offset 5, -24
 4317              		.cfi_offset 6, -20
 4318              		.cfi_offset 7, -16
 4319              		.cfi_offset 8, -12
 4320              		.cfi_offset 9, -8
 4321              		.cfi_offset 14, -4
 4322 0008 83B0     		sub	sp, sp, #12
 4323              	.LCFI35:
 4324              		.cfi_def_cfa_offset 40
 4325 000a 0646     		mov	r6, r0
 590:lvgl/src/lv_core/lv_style.c **** 
 4326              		.loc 1 590 5 is_stmt 1 view .LVU1569
 590:lvgl/src/lv_core/lv_style.c **** 
 4327              		.loc 1 590 13 is_stmt 0 view .LVU1570
 4328 000c 0368     		ldr	r3, [r0]
ARM GAS  D:\Temp\cceOI0TF.s 			page 132


 590:lvgl/src/lv_core/lv_style.c **** 
 4329              		.loc 1 590 7 view .LVU1571
 4330 000e 002B     		cmp	r3, #0
 4331 0010 6FD0     		beq	.L275
 592:lvgl/src/lv_core/lv_style.c ****     if(id < 0) {
 4332              		.loc 1 592 5 is_stmt 1 view .LVU1572
 4333              	.LVL459:
 4334              	.LBB593:
 4335              	.LBI593:
1053:lvgl/src/lv_core/lv_style.c **** {
 4336              		.loc 1 1053 45 view .LVU1573
 4337              	.LBB594:
1055:lvgl/src/lv_core/lv_style.c **** 
 4338              		.loc 1 1055 27 view .LVU1574
1057:lvgl/src/lv_core/lv_style.c **** 
 4339              		.loc 1 1057 5 view .LVU1575
1057:lvgl/src/lv_core/lv_style.c **** 
 4340              		.loc 1 1057 7 is_stmt 0 view .LVU1576
 4341 0012 002B     		cmp	r3, #0
 4342 0014 56D0     		beq	.L276
1059:lvgl/src/lv_core/lv_style.c ****     lv_style_attr_t attr;
 4343              		.loc 1 1059 5 is_stmt 1 view .LVU1577
1059:lvgl/src/lv_core/lv_style.c ****     lv_style_attr_t attr;
 4344              		.loc 1 1059 13 is_stmt 0 view .LVU1578
 4345 0016 CFB2     		uxtb	r7, r1
 4346              	.LVL460:
1060:lvgl/src/lv_core/lv_style.c ****     attr = (prop >> 8) & 0xFF;
 4347              		.loc 1 1060 5 is_stmt 1 view .LVU1579
1061:lvgl/src/lv_core/lv_style.c **** 
 4348              		.loc 1 1061 5 view .LVU1580
1061:lvgl/src/lv_core/lv_style.c **** 
 4349              		.loc 1 1061 10 is_stmt 0 view .LVU1581
 4350 0018 4FEA112C 		lsr	ip, r1, #8
 4351              	.LVL461:
1063:lvgl/src/lv_core/lv_style.c ****     int16_t id_guess = -1;
 4352              		.loc 1 1063 5 is_stmt 1 view .LVU1582
1064:lvgl/src/lv_core/lv_style.c **** 
 4353              		.loc 1 1064 5 view .LVU1583
1066:lvgl/src/lv_core/lv_style.c **** 
 4354              		.loc 1 1066 5 view .LVU1584
1068:lvgl/src/lv_core/lv_style.c ****     while((prop_id = get_style_prop_id(style, i)) != _LV_STYLE_CLOSING_PROP) {
 4355              		.loc 1 1068 5 view .LVU1585
1069:lvgl/src/lv_core/lv_style.c ****         if(prop_id == id_to_find) {
 4356              		.loc 1 1069 5 view .LVU1586
1066:lvgl/src/lv_core/lv_style.c **** 
 4357              		.loc 1 1066 12 is_stmt 0 view .LVU1587
 4358 001c 0024     		movs	r4, #0
1064:lvgl/src/lv_core/lv_style.c **** 
 4359              		.loc 1 1064 13 view .LVU1588
 4360 001e 4FF0FF30 		mov	r0, #-1
 4361              	.LVL462:
1063:lvgl/src/lv_core/lv_style.c ****     int16_t id_guess = -1;
 4362              		.loc 1 1063 13 view .LVU1589
 4363 0022 8646     		mov	lr, r0
 4364 0024 32E0     		b	.L267
 4365              	.LVL463:
 4366              	.L287:
ARM GAS  D:\Temp\cceOI0TF.s 			page 133


 4367              	.LBB595:
1071:lvgl/src/lv_core/lv_style.c ****             attr_i = get_style_prop_attr(style, i);
 4368              		.loc 1 1071 13 is_stmt 1 view .LVU1590
1072:lvgl/src/lv_core/lv_style.c **** 
 4369              		.loc 1 1072 13 view .LVU1591
 4370              	.LBB596:
 4371              	.LBI596:
1164:lvgl/src/lv_core/lv_style.c **** {
 4372              		.loc 1 1164 23 view .LVU1592
 4373              	.LBB597:
1166:lvgl/src/lv_core/lv_style.c **** }
 4374              		.loc 1 1166 5 view .LVU1593
 4375              	.LBB598:
 4376              	.LBI598:
1138:lvgl/src/lv_core/lv_style.c **** {
 4377              		.loc 1 1138 35 view .LVU1594
 4378              	.LBB599:
1140:lvgl/src/lv_core/lv_style.c ****     uint8_t * prop_p = (uint8_t *)&prop;
 4379              		.loc 1 1140 5 view .LVU1595
1141:lvgl/src/lv_core/lv_style.c ****     prop_p[0] = style->map[idx];
 4380              		.loc 1 1141 5 view .LVU1596
1142:lvgl/src/lv_core/lv_style.c ****     prop_p[1] = style->map[idx + 1];
 4381              		.loc 1 1142 5 view .LVU1597
1142:lvgl/src/lv_core/lv_style.c ****     prop_p[1] = style->map[idx + 1];
 4382              		.loc 1 1142 22 is_stmt 0 view .LVU1598
 4383 0026 D6F80080 		ldr	r8, [r6]
1142:lvgl/src/lv_core/lv_style.c ****     prop_p[1] = style->map[idx + 1];
 4384              		.loc 1 1142 27 view .LVU1599
 4385 002a 18F80490 		ldrb	r9, [r8, r4]	@ zero_extendqisi2
1142:lvgl/src/lv_core/lv_style.c ****     prop_p[1] = style->map[idx + 1];
 4386              		.loc 1 1142 15 view .LVU1600
 4387 002e 8DF80690 		strb	r9, [sp, #6]
1143:lvgl/src/lv_core/lv_style.c ****     return prop;
 4388              		.loc 1 1143 5 is_stmt 1 view .LVU1601
1143:lvgl/src/lv_core/lv_style.c ****     return prop;
 4389              		.loc 1 1143 27 is_stmt 0 view .LVU1602
 4390 0032 18F80550 		ldrb	r5, [r8, r5]	@ zero_extendqisi2
1143:lvgl/src/lv_core/lv_style.c ****     return prop;
 4391              		.loc 1 1143 15 view .LVU1603
 4392 0036 8DF80750 		strb	r5, [sp, #7]
1144:lvgl/src/lv_core/lv_style.c **** }
 4393              		.loc 1 1144 5 is_stmt 1 view .LVU1604
1144:lvgl/src/lv_core/lv_style.c **** }
 4394              		.loc 1 1144 12 is_stmt 0 view .LVU1605
 4395 003a BDF80680 		ldrh	r8, [sp, #6]
 4396              	.LVL464:
1144:lvgl/src/lv_core/lv_style.c **** }
 4397              		.loc 1 1144 12 view .LVU1606
 4398              	.LBE599:
 4399              	.LBE598:
1166:lvgl/src/lv_core/lv_style.c **** }
 4400              		.loc 1 1166 47 view .LVU1607
 4401 003e 4FEA1828 		lsr	r8, r8, #8
 4402 0042 5FFA88F5 		uxtb	r5, r8
 4403              	.LVL465:
1166:lvgl/src/lv_core/lv_style.c **** }
 4404              		.loc 1 1166 47 view .LVU1608
ARM GAS  D:\Temp\cceOI0TF.s 			page 134


 4405              	.LBE597:
 4406              	.LBE596:
1075:lvgl/src/lv_core/lv_style.c ****                 return i;
 4407              		.loc 1 1075 13 is_stmt 1 view .LVU1609
1075:lvgl/src/lv_core/lv_style.c ****                 return i;
 4408              		.loc 1 1075 48 is_stmt 0 view .LVU1610
 4409 0046 8CEA0509 		eor	r9, ip, r5
1075:lvgl/src/lv_core/lv_style.c ****                 return i;
 4410              		.loc 1 1075 15 view .LVU1611
 4411 004a 19F07F0F 		tst	r9, #127
 4412 004e 0CD0     		beq	.L285
1080:lvgl/src/lv_core/lv_style.c ****                 /* Use this property if it describes better the requested state than the current ca
 4413              		.loc 1 1080 18 is_stmt 1 view .LVU1612
1080:lvgl/src/lv_core/lv_style.c ****                 /* Use this property if it describes better the requested state than the current ca
 4414              		.loc 1 1080 22 is_stmt 0 view .LVU1613
 4415 0050 05F07F05 		and	r5, r5, #127
 4416              	.LVL466:
1080:lvgl/src/lv_core/lv_style.c ****                 /* Use this property if it describes better the requested state than the current ca
 4417              		.loc 1 1080 58 view .LVU1614
 4418 0054 0CF07F09 		and	r9, ip, #127
1080:lvgl/src/lv_core/lv_style.c ****                 /* Use this property if it describes better the requested state than the current ca
 4419              		.loc 1 1080 20 view .LVU1615
 4420 0058 35EA0909 		bics	r9, r5, r9
 4421 005c 24D1     		bne	.L268
1083:lvgl/src/lv_core/lv_style.c ****                     weight = LV_STYLE_ATTR_GET_STATE(attr_i);
 4422              		.loc 1 1083 17 is_stmt 1 view .LVU1616
1083:lvgl/src/lv_core/lv_style.c ****                     weight = LV_STYLE_ATTR_GET_STATE(attr_i);
 4423              		.loc 1 1083 19 is_stmt 0 view .LVU1617
 4424 005e 7545     		cmp	r5, lr
 4425 0060 22DD     		ble	.L268
1084:lvgl/src/lv_core/lv_style.c ****                     id_guess = i;
 4426              		.loc 1 1084 21 is_stmt 1 view .LVU1618
1084:lvgl/src/lv_core/lv_style.c ****                     id_guess = i;
 4427              		.loc 1 1084 28 is_stmt 0 view .LVU1619
 4428 0062 08F07F0E 		and	lr, r8, #127
 4429              	.LVL467:
1085:lvgl/src/lv_core/lv_style.c ****                 }
 4430              		.loc 1 1085 21 is_stmt 1 view .LVU1620
1085:lvgl/src/lv_core/lv_style.c ****                 }
 4431              		.loc 1 1085 30 is_stmt 0 view .LVU1621
 4432 0066 20B2     		sxth	r0, r4
 4433              	.LVL468:
1085:lvgl/src/lv_core/lv_style.c ****                 }
 4434              		.loc 1 1085 30 view .LVU1622
 4435 0068 1EE0     		b	.L268
 4436              	.LVL469:
 4437              	.L285:
1076:lvgl/src/lv_core/lv_style.c ****             }
 4438              		.loc 1 1076 17 is_stmt 1 view .LVU1623
1076:lvgl/src/lv_core/lv_style.c ****             }
 4439              		.loc 1 1076 24 is_stmt 0 view .LVU1624
 4440 006a 2046     		mov	r0, r4
 4441              	.LVL470:
 4442              	.L266:
1076:lvgl/src/lv_core/lv_style.c ****             }
 4443              		.loc 1 1076 24 view .LVU1625
 4444              	.LBE595:
ARM GAS  D:\Temp\cceOI0TF.s 			page 135


 4445              	.LBE594:
 4446              	.LBE593:
 593:lvgl/src/lv_core/lv_style.c ****         return -1;
 4447              		.loc 1 593 5 is_stmt 1 view .LVU1626
 593:lvgl/src/lv_core/lv_style.c ****         return -1;
 4448              		.loc 1 593 7 is_stmt 0 view .LVU1627
 4449 006c 0028     		cmp	r0, #0
 4450 006e 43DB     		blt	.L280
 4451              	.LBB613:
 597:lvgl/src/lv_core/lv_style.c ****         lv_style_attr_t attr_act;
 4452              		.loc 1 597 9 is_stmt 1 view .LVU1628
 597:lvgl/src/lv_core/lv_style.c ****         lv_style_attr_t attr_act;
 4453              		.loc 1 597 37 is_stmt 0 view .LVU1629
 4454 0070 3368     		ldr	r3, [r6]
 597:lvgl/src/lv_core/lv_style.c ****         lv_style_attr_t attr_act;
 4455              		.loc 1 597 42 view .LVU1630
 4456 0072 0546     		mov	r5, r0
 4457 0074 0230     		adds	r0, r0, #2
 4458              	.LVL471:
 597:lvgl/src/lv_core/lv_style.c ****         lv_style_attr_t attr_act;
 4459              		.loc 1 597 31 view .LVU1631
 4460 0076 1844     		add	r0, r0, r3
 4461              	.LVL472:
 4462              	.LBB614:
 4463              	.LBI614:
 213:lvgl/src/lv_core/../lv_font/../lv_misc/lv_mem.h **** {
 4464              		.loc 3 213 44 is_stmt 1 view .LVU1632
 4465              	.LBB615:
 215:lvgl/src/lv_core/../lv_font/../lv_misc/lv_mem.h ****     const uint8_t * s8 = (const uint8_t *)src;
 4466              		.loc 3 215 5 view .LVU1633
 216:lvgl/src/lv_core/../lv_font/../lv_misc/lv_mem.h **** 
 4467              		.loc 3 216 5 view .LVU1634
 218:lvgl/src/lv_core/../lv_font/../lv_misc/lv_mem.h ****         *d8 = *s8;
 4468              		.loc 3 218 5 view .LVU1635
 4469              	.LBE615:
 4470              	.LBE614:
 597:lvgl/src/lv_core/lv_style.c ****         lv_style_attr_t attr_act;
 4471              		.loc 1 597 31 is_stmt 0 view .LVU1636
 4472 0078 0123     		movs	r3, #1
 4473              	.LVL473:
 4474              	.L272:
 4475              	.LBB618:
 4476              	.LBB616:
 218:lvgl/src/lv_core/../lv_font/../lv_misc/lv_mem.h ****         *d8 = *s8;
 4477              		.loc 3 218 10 view .LVU1637
 4478 007a 33B3     		cbz	r3, .L286
 219:lvgl/src/lv_core/../lv_font/../lv_misc/lv_mem.h ****         d8++;
 4479              		.loc 3 219 9 is_stmt 1 view .LVU1638
 219:lvgl/src/lv_core/../lv_font/../lv_misc/lv_mem.h ****         d8++;
 4480              		.loc 3 219 15 is_stmt 0 view .LVU1639
 4481 007c 10F8014B 		ldrb	r4, [r0], #1	@ zero_extendqisi2
 4482              	.LVL474:
 219:lvgl/src/lv_core/../lv_font/../lv_misc/lv_mem.h ****         d8++;
 4483              		.loc 3 219 13 view .LVU1640
 4484 0080 02F8014B 		strb	r4, [r2], #1
 4485              	.LVL475:
 220:lvgl/src/lv_core/../lv_font/../lv_misc/lv_mem.h ****         s8++;
ARM GAS  D:\Temp\cceOI0TF.s 			page 136


 4486              		.loc 3 220 9 is_stmt 1 view .LVU1641
 221:lvgl/src/lv_core/../lv_font/../lv_misc/lv_mem.h ****         len--;
 4487              		.loc 3 221 9 view .LVU1642
 222:lvgl/src/lv_core/../lv_font/../lv_misc/lv_mem.h ****     }
 4488              		.loc 3 222 9 view .LVU1643
 222:lvgl/src/lv_core/../lv_font/../lv_misc/lv_mem.h ****     }
 4489              		.loc 3 222 12 is_stmt 0 view .LVU1644
 4490 0084 013B     		subs	r3, r3, #1
 4491              	.LVL476:
 222:lvgl/src/lv_core/../lv_font/../lv_misc/lv_mem.h ****     }
 4492              		.loc 3 222 12 view .LVU1645
 4493 0086 F8E7     		b	.L272
 4494              	.LVL477:
 4495              	.L277:
 222:lvgl/src/lv_core/../lv_font/../lv_misc/lv_mem.h ****     }
 4496              		.loc 3 222 12 view .LVU1646
 4497              	.LBE616:
 4498              	.LBE618:
 4499              	.LBE613:
 4500              	.LBB624:
 4501              	.LBB612:
 4502              	.LBB600:
 4503              	.LBB601:
 4504              	.LBB602:
 4505              	.LBB603:
1179:lvgl/src/lv_core/lv_style.c ****     else if(prop_id < LV_STYLE_ID_OPA) size += sizeof(lv_color_t);
 4506              		.loc 1 1179 42 view .LVU1647
 4507 0088 0423     		movs	r3, #4
 4508              	.LVL478:
 4509              	.L270:
1183:lvgl/src/lv_core/lv_style.c **** }
 4510              		.loc 1 1183 5 is_stmt 1 view .LVU1648
1183:lvgl/src/lv_core/lv_style.c **** }
 4511              		.loc 1 1183 5 is_stmt 0 view .LVU1649
 4512              	.LBE603:
 4513              	.LBE602:
 4514              		.loc 1 1194 16 view .LVU1650
 4515 008a 1C44     		add	r4, r4, r3
 4516              	.LVL479:
 4517              	.L267:
 4518              		.loc 1 1194 16 view .LVU1651
 4519              	.LBE601:
 4520              	.LBE600:
 4521              	.LBB607:
 4522              	.LBI607:
1153:lvgl/src/lv_core/lv_style.c **** {
 4523              		.loc 1 1153 23 is_stmt 1 view .LVU1652
 4524              	.LBB608:
1155:lvgl/src/lv_core/lv_style.c **** }
 4525              		.loc 1 1155 5 view .LVU1653
 4526              	.LBB609:
 4527              	.LBI609:
1138:lvgl/src/lv_core/lv_style.c **** {
 4528              		.loc 1 1138 35 view .LVU1654
 4529              	.LBB610:
1140:lvgl/src/lv_core/lv_style.c ****     uint8_t * prop_p = (uint8_t *)&prop;
 4530              		.loc 1 1140 5 view .LVU1655
ARM GAS  D:\Temp\cceOI0TF.s 			page 137


1141:lvgl/src/lv_core/lv_style.c ****     prop_p[0] = style->map[idx];
 4531              		.loc 1 1141 5 view .LVU1656
1142:lvgl/src/lv_core/lv_style.c ****     prop_p[1] = style->map[idx + 1];
 4532              		.loc 1 1142 5 view .LVU1657
1142:lvgl/src/lv_core/lv_style.c ****     prop_p[1] = style->map[idx + 1];
 4533              		.loc 1 1142 22 is_stmt 0 view .LVU1658
 4534 008c 3368     		ldr	r3, [r6]
1142:lvgl/src/lv_core/lv_style.c ****     prop_p[1] = style->map[idx + 1];
 4535              		.loc 1 1142 27 view .LVU1659
 4536 008e 1D5D     		ldrb	r5, [r3, r4]	@ zero_extendqisi2
1142:lvgl/src/lv_core/lv_style.c ****     prop_p[1] = style->map[idx + 1];
 4537              		.loc 1 1142 15 view .LVU1660
 4538 0090 8DF80650 		strb	r5, [sp, #6]
1143:lvgl/src/lv_core/lv_style.c ****     return prop;
 4539              		.loc 1 1143 5 is_stmt 1 view .LVU1661
1143:lvgl/src/lv_core/lv_style.c ****     return prop;
 4540              		.loc 1 1143 27 is_stmt 0 view .LVU1662
 4541 0094 651C     		adds	r5, r4, #1
 4542 0096 5B5D     		ldrb	r3, [r3, r5]	@ zero_extendqisi2
1143:lvgl/src/lv_core/lv_style.c ****     return prop;
 4543              		.loc 1 1143 15 view .LVU1663
 4544 0098 8DF80730 		strb	r3, [sp, #7]
1144:lvgl/src/lv_core/lv_style.c **** }
 4545              		.loc 1 1144 5 is_stmt 1 view .LVU1664
 4546              	.LVL480:
1144:lvgl/src/lv_core/lv_style.c **** }
 4547              		.loc 1 1144 5 is_stmt 0 view .LVU1665
 4548              	.LBE610:
 4549              	.LBE609:
1155:lvgl/src/lv_core/lv_style.c **** }
 4550              		.loc 1 1155 39 view .LVU1666
 4551 009c 9DF80630 		ldrb	r3, [sp, #6]	@ zero_extendqisi2
 4552              	.LVL481:
1155:lvgl/src/lv_core/lv_style.c **** }
 4553              		.loc 1 1155 39 view .LVU1667
 4554              	.LBE608:
 4555              	.LBE607:
1069:lvgl/src/lv_core/lv_style.c ****         if(prop_id == id_to_find) {
 4556              		.loc 1 1069 10 view .LVU1668
 4557 00a0 FF2B     		cmp	r3, #255
 4558 00a2 E3D0     		beq	.L266
1070:lvgl/src/lv_core/lv_style.c ****             lv_style_attr_t attr_i;
 4559              		.loc 1 1070 9 is_stmt 1 view .LVU1669
1070:lvgl/src/lv_core/lv_style.c ****             lv_style_attr_t attr_i;
 4560              		.loc 1 1070 11 is_stmt 0 view .LVU1670
 4561 00a4 9F42     		cmp	r7, r3
 4562 00a6 BED0     		beq	.L287
 4563              	.L268:
1090:lvgl/src/lv_core/lv_style.c ****     }
 4564              		.loc 1 1090 9 is_stmt 1 view .LVU1671
 4565              	.LVL482:
 4566              	.LBB611:
 4567              	.LBI600:
1192:lvgl/src/lv_core/lv_style.c **** {
 4568              		.loc 1 1192 22 view .LVU1672
 4569              	.LBB606:
 4570              		.loc 1 1194 5 view .LVU1673
ARM GAS  D:\Temp\cceOI0TF.s 			page 138


 4571              	.LBB605:
 4572              	.LBI602:
1175:lvgl/src/lv_core/lv_style.c **** {
 4573              		.loc 1 1175 22 view .LVU1674
 4574              	.LBB604:
1177:lvgl/src/lv_core/lv_style.c ****     size_t size = sizeof(lv_style_property_t);
 4575              		.loc 1 1177 5 view .LVU1675
1177:lvgl/src/lv_core/lv_style.c ****     size_t size = sizeof(lv_style_property_t);
 4576              		.loc 1 1177 13 is_stmt 0 view .LVU1676
 4577 00a8 03F00F03 		and	r3, r3, #15
 4578              	.LVL483:
1178:lvgl/src/lv_core/lv_style.c ****     if(prop_id < LV_STYLE_ID_COLOR) size += sizeof(lv_style_int_t);
 4579              		.loc 1 1178 5 is_stmt 1 view .LVU1677
1179:lvgl/src/lv_core/lv_style.c ****     else if(prop_id < LV_STYLE_ID_OPA) size += sizeof(lv_color_t);
 4580              		.loc 1 1179 5 view .LVU1678
1179:lvgl/src/lv_core/lv_style.c ****     else if(prop_id < LV_STYLE_ID_OPA) size += sizeof(lv_color_t);
 4581              		.loc 1 1179 7 is_stmt 0 view .LVU1679
 4582 00ac 082B     		cmp	r3, #8
 4583 00ae EBD9     		bls	.L277
1180:lvgl/src/lv_core/lv_style.c ****     else if(prop_id < LV_STYLE_ID_PTR) size += sizeof(lv_opa_t);
 4584              		.loc 1 1180 10 is_stmt 1 view .LVU1680
1180:lvgl/src/lv_core/lv_style.c ****     else if(prop_id < LV_STYLE_ID_PTR) size += sizeof(lv_opa_t);
 4585              		.loc 1 1180 12 is_stmt 0 view .LVU1681
 4586 00b0 0B2B     		cmp	r3, #11
 4587 00b2 03D9     		bls	.L278
1181:lvgl/src/lv_core/lv_style.c ****     else size += sizeof(const void *);
 4588              		.loc 1 1181 10 is_stmt 1 view .LVU1682
1181:lvgl/src/lv_core/lv_style.c ****     else size += sizeof(const void *);
 4589              		.loc 1 1181 12 is_stmt 0 view .LVU1683
 4590 00b4 0D2B     		cmp	r3, #13
 4591 00b6 03D8     		bhi	.L279
1181:lvgl/src/lv_core/lv_style.c ****     else size += sizeof(const void *);
 4592              		.loc 1 1181 45 view .LVU1684
 4593 00b8 0323     		movs	r3, #3
 4594              	.LVL484:
1181:lvgl/src/lv_core/lv_style.c ****     else size += sizeof(const void *);
 4595              		.loc 1 1181 45 view .LVU1685
 4596 00ba E6E7     		b	.L270
 4597              	.LVL485:
 4598              	.L278:
1180:lvgl/src/lv_core/lv_style.c ****     else if(prop_id < LV_STYLE_ID_PTR) size += sizeof(lv_opa_t);
 4599              		.loc 1 1180 45 view .LVU1686
 4600 00bc 0423     		movs	r3, #4
 4601              	.LVL486:
1180:lvgl/src/lv_core/lv_style.c ****     else if(prop_id < LV_STYLE_ID_PTR) size += sizeof(lv_opa_t);
 4602              		.loc 1 1180 45 view .LVU1687
 4603 00be E4E7     		b	.L270
 4604              	.LVL487:
 4605              	.L279:
1182:lvgl/src/lv_core/lv_style.c ****     return size;
 4606              		.loc 1 1182 15 view .LVU1688
 4607 00c0 0623     		movs	r3, #6
 4608              	.LVL488:
1182:lvgl/src/lv_core/lv_style.c ****     return size;
 4609              		.loc 1 1182 15 view .LVU1689
 4610 00c2 E2E7     		b	.L270
 4611              	.LVL489:
ARM GAS  D:\Temp\cceOI0TF.s 			page 139


 4612              	.L276:
1182:lvgl/src/lv_core/lv_style.c ****     return size;
 4613              		.loc 1 1182 15 view .LVU1690
 4614              	.LBE604:
 4615              	.LBE605:
 4616              	.LBE606:
 4617              	.LBE611:
1057:lvgl/src/lv_core/lv_style.c **** 
 4618              		.loc 1 1057 35 view .LVU1691
 4619 00c4 4FF0FF30 		mov	r0, #-1
 4620              	.LVL490:
1057:lvgl/src/lv_core/lv_style.c **** 
 4621              		.loc 1 1057 35 view .LVU1692
 4622 00c8 D0E7     		b	.L266
 4623              	.LVL491:
 4624              	.L286:
1057:lvgl/src/lv_core/lv_style.c **** 
 4625              		.loc 1 1057 35 view .LVU1693
 4626              	.LBE612:
 4627              	.LBE624:
 4628              	.LBB625:
 4629              	.LBB619:
 4630              	.LBB617:
 4631              		.loc 3 225 5 is_stmt 1 view .LVU1694
 4632              		.loc 3 225 5 is_stmt 0 view .LVU1695
 4633              	.LBE617:
 4634              	.LBE619:
 598:lvgl/src/lv_core/lv_style.c ****         attr_act = get_style_prop_attr(style, id);
 4635              		.loc 1 598 9 is_stmt 1 view .LVU1696
 599:lvgl/src/lv_core/lv_style.c **** 
 4636              		.loc 1 599 9 view .LVU1697
 4637              	.LBB620:
 4638              	.LBI620:
1164:lvgl/src/lv_core/lv_style.c **** {
 4639              		.loc 1 1164 23 view .LVU1698
 4640              	.LBB621:
1166:lvgl/src/lv_core/lv_style.c **** }
 4641              		.loc 1 1166 5 view .LVU1699
 4642              	.LBB622:
 4643              	.LBI622:
1138:lvgl/src/lv_core/lv_style.c **** {
 4644              		.loc 1 1138 35 view .LVU1700
 4645              	.LBB623:
1140:lvgl/src/lv_core/lv_style.c ****     uint8_t * prop_p = (uint8_t *)&prop;
 4646              		.loc 1 1140 5 view .LVU1701
1141:lvgl/src/lv_core/lv_style.c ****     prop_p[0] = style->map[idx];
 4647              		.loc 1 1141 5 view .LVU1702
1142:lvgl/src/lv_core/lv_style.c ****     prop_p[1] = style->map[idx + 1];
 4648              		.loc 1 1142 5 view .LVU1703
1142:lvgl/src/lv_core/lv_style.c ****     prop_p[1] = style->map[idx + 1];
 4649              		.loc 1 1142 22 is_stmt 0 view .LVU1704
 4650 00ca 3368     		ldr	r3, [r6]
1142:lvgl/src/lv_core/lv_style.c ****     prop_p[1] = style->map[idx + 1];
 4651              		.loc 1 1142 27 view .LVU1705
 4652 00cc 5A5D     		ldrb	r2, [r3, r5]	@ zero_extendqisi2
1142:lvgl/src/lv_core/lv_style.c ****     prop_p[1] = style->map[idx + 1];
 4653              		.loc 1 1142 15 view .LVU1706
ARM GAS  D:\Temp\cceOI0TF.s 			page 140


 4654 00ce 8DF80620 		strb	r2, [sp, #6]
1143:lvgl/src/lv_core/lv_style.c ****     return prop;
 4655              		.loc 1 1143 5 is_stmt 1 view .LVU1707
1143:lvgl/src/lv_core/lv_style.c ****     return prop;
 4656              		.loc 1 1143 27 is_stmt 0 view .LVU1708
 4657 00d2 2B44     		add	r3, r3, r5
 4658 00d4 5B78     		ldrb	r3, [r3, #1]	@ zero_extendqisi2
1143:lvgl/src/lv_core/lv_style.c ****     return prop;
 4659              		.loc 1 1143 15 view .LVU1709
 4660 00d6 8DF80730 		strb	r3, [sp, #7]
1144:lvgl/src/lv_core/lv_style.c **** }
 4661              		.loc 1 1144 5 is_stmt 1 view .LVU1710
1144:lvgl/src/lv_core/lv_style.c **** }
 4662              		.loc 1 1144 12 is_stmt 0 view .LVU1711
 4663 00da BDF80600 		ldrh	r0, [sp, #6]
 4664              	.LVL492:
1144:lvgl/src/lv_core/lv_style.c **** }
 4665              		.loc 1 1144 12 view .LVU1712
 4666              	.LBE623:
 4667              	.LBE622:
 4668              	.LBE621:
 4669              	.LBE620:
 601:lvgl/src/lv_core/lv_style.c ****         attr_goal = (prop >> 8) & 0xFF;
 4670              		.loc 1 601 9 is_stmt 1 view .LVU1713
 602:lvgl/src/lv_core/lv_style.c **** 
 4671              		.loc 1 602 9 view .LVU1714
 604:lvgl/src/lv_core/lv_style.c ****     }
 4672              		.loc 1 604 9 view .LVU1715
 604:lvgl/src/lv_core/lv_style.c ****     }
 4673              		.loc 1 604 16 is_stmt 0 view .LVU1716
 4674 00de C0F30620 		ubfx	r0, r0, #8, #7
 4675              	.LVL493:
 604:lvgl/src/lv_core/lv_style.c ****     }
 4676              		.loc 1 604 50 view .LVU1717
 4677 00e2 00EA1120 		and	r0, r0, r1, lsr #8
 4678              	.LVL494:
 4679              	.L265:
 604:lvgl/src/lv_core/lv_style.c ****     }
 4680              		.loc 1 604 50 view .LVU1718
 4681              	.LBE625:
 606:lvgl/src/lv_core/lv_style.c **** 
 4682              		.loc 1 606 1 view .LVU1719
 4683 00e6 03B0     		add	sp, sp, #12
 4684              	.LCFI36:
 4685              		.cfi_def_cfa_offset 28
 4686              		@ sp needed
 4687 00e8 BDE8F083 		pop	{r4, r5, r6, r7, r8, r9, pc}
 4688              	.LVL495:
 4689              	.L274:
 4690              	.LCFI37:
 4691              		.cfi_def_cfa_offset 0
 4692              		.cfi_restore 4
 4693              		.cfi_restore 5
 4694              		.cfi_restore 6
 4695              		.cfi_restore 7
 4696              		.cfi_restore 8
 4697              		.cfi_restore 9
ARM GAS  D:\Temp\cceOI0TF.s 			page 141


 4698              		.cfi_restore 14
 589:lvgl/src/lv_core/lv_style.c ****     if(style->map == NULL) return -1;
 4699              		.loc 1 589 30 view .LVU1720
 4700 00ec 4FF0FF30 		mov	r0, #-1
 4701              	.LVL496:
 606:lvgl/src/lv_core/lv_style.c **** 
 4702              		.loc 1 606 1 view .LVU1721
 4703 00f0 7047     		bx	lr
 4704              	.LVL497:
 4705              	.L275:
 4706              	.LCFI38:
 4707              		.cfi_def_cfa_offset 40
 4708              		.cfi_offset 4, -28
 4709              		.cfi_offset 5, -24
 4710              		.cfi_offset 6, -20
 4711              		.cfi_offset 7, -16
 4712              		.cfi_offset 8, -12
 4713              		.cfi_offset 9, -8
 4714              		.cfi_offset 14, -4
 590:lvgl/src/lv_core/lv_style.c **** 
 4715              		.loc 1 590 35 view .LVU1722
 4716 00f2 4FF0FF30 		mov	r0, #-1
 4717              	.LVL498:
 590:lvgl/src/lv_core/lv_style.c **** 
 4718              		.loc 1 590 35 view .LVU1723
 4719 00f6 F6E7     		b	.L265
 4720              	.LVL499:
 4721              	.L280:
 594:lvgl/src/lv_core/lv_style.c ****     }
 4722              		.loc 1 594 16 view .LVU1724
 4723 00f8 4FF0FF30 		mov	r0, #-1
 4724              	.LVL500:
 594:lvgl/src/lv_core/lv_style.c ****     }
 4725              		.loc 1 594 16 view .LVU1725
 4726 00fc F3E7     		b	.L265
 4727              		.cfi_endproc
 4728              	.LFE473:
 4730              		.section	.text._lv_style_get_color,"ax",%progbits
 4731              		.align	1
 4732              		.global	_lv_style_get_color
 4733              		.syntax unified
 4734              		.thumb
 4735              		.thumb_func
 4736              		.fpu fpv4-sp-d16
 4738              	_lv_style_get_color:
 4739              	.LVL501:
 4740              	.LFB474:
 622:lvgl/src/lv_core/lv_style.c ****     lv_color_t * res = (lv_color_t *)v_res;
 4741              		.loc 1 622 1 is_stmt 1 view -0
 4742              		.cfi_startproc
 4743              		@ args = 0, pretend = 0, frame = 8
 4744              		@ frame_needed = 0, uses_anonymous_args = 0
 623:lvgl/src/lv_core/lv_style.c ****     if(style == NULL) return -1;
 4745              		.loc 1 623 5 view .LVU1727
 624:lvgl/src/lv_core/lv_style.c ****     if(style->map == NULL) return -1;
 4746              		.loc 1 624 5 view .LVU1728
 624:lvgl/src/lv_core/lv_style.c ****     if(style->map == NULL) return -1;
ARM GAS  D:\Temp\cceOI0TF.s 			page 142


 4747              		.loc 1 624 7 is_stmt 0 view .LVU1729
 4748 0000 0028     		cmp	r0, #0
 4749 0002 73D0     		beq	.L298
 622:lvgl/src/lv_core/lv_style.c ****     lv_color_t * res = (lv_color_t *)v_res;
 4750              		.loc 1 622 1 view .LVU1730
 4751 0004 2DE9F043 		push	{r4, r5, r6, r7, r8, r9, lr}
 4752              	.LCFI39:
 4753              		.cfi_def_cfa_offset 28
 4754              		.cfi_offset 4, -28
 4755              		.cfi_offset 5, -24
 4756              		.cfi_offset 6, -20
 4757              		.cfi_offset 7, -16
 4758              		.cfi_offset 8, -12
 4759              		.cfi_offset 9, -8
 4760              		.cfi_offset 14, -4
 4761 0008 83B0     		sub	sp, sp, #12
 4762              	.LCFI40:
 4763              		.cfi_def_cfa_offset 40
 4764 000a 0646     		mov	r6, r0
 625:lvgl/src/lv_core/lv_style.c ****     int32_t id = get_property_index(style, prop);
 4765              		.loc 1 625 5 is_stmt 1 view .LVU1731
 625:lvgl/src/lv_core/lv_style.c ****     int32_t id = get_property_index(style, prop);
 4766              		.loc 1 625 13 is_stmt 0 view .LVU1732
 4767 000c 0368     		ldr	r3, [r0]
 625:lvgl/src/lv_core/lv_style.c ****     int32_t id = get_property_index(style, prop);
 4768              		.loc 1 625 7 view .LVU1733
 4769 000e 002B     		cmp	r3, #0
 4770 0010 6FD0     		beq	.L299
 626:lvgl/src/lv_core/lv_style.c ****     if(id < 0) {
 4771              		.loc 1 626 5 is_stmt 1 view .LVU1734
 4772              	.LVL502:
 4773              	.LBB648:
 4774              	.LBI648:
1053:lvgl/src/lv_core/lv_style.c **** {
 4775              		.loc 1 1053 45 view .LVU1735
 4776              	.LBB649:
1055:lvgl/src/lv_core/lv_style.c **** 
 4777              		.loc 1 1055 27 view .LVU1736
1057:lvgl/src/lv_core/lv_style.c **** 
 4778              		.loc 1 1057 5 view .LVU1737
1057:lvgl/src/lv_core/lv_style.c **** 
 4779              		.loc 1 1057 7 is_stmt 0 view .LVU1738
 4780 0012 002B     		cmp	r3, #0
 4781 0014 56D0     		beq	.L300
1059:lvgl/src/lv_core/lv_style.c ****     lv_style_attr_t attr;
 4782              		.loc 1 1059 5 is_stmt 1 view .LVU1739
1059:lvgl/src/lv_core/lv_style.c ****     lv_style_attr_t attr;
 4783              		.loc 1 1059 13 is_stmt 0 view .LVU1740
 4784 0016 CFB2     		uxtb	r7, r1
 4785              	.LVL503:
1060:lvgl/src/lv_core/lv_style.c ****     attr = (prop >> 8) & 0xFF;
 4786              		.loc 1 1060 5 is_stmt 1 view .LVU1741
1061:lvgl/src/lv_core/lv_style.c **** 
 4787              		.loc 1 1061 5 view .LVU1742
1061:lvgl/src/lv_core/lv_style.c **** 
 4788              		.loc 1 1061 10 is_stmt 0 view .LVU1743
 4789 0018 4FEA112C 		lsr	ip, r1, #8
ARM GAS  D:\Temp\cceOI0TF.s 			page 143


 4790              	.LVL504:
1063:lvgl/src/lv_core/lv_style.c ****     int16_t id_guess = -1;
 4791              		.loc 1 1063 5 is_stmt 1 view .LVU1744
1064:lvgl/src/lv_core/lv_style.c **** 
 4792              		.loc 1 1064 5 view .LVU1745
1066:lvgl/src/lv_core/lv_style.c **** 
 4793              		.loc 1 1066 5 view .LVU1746
1068:lvgl/src/lv_core/lv_style.c ****     while((prop_id = get_style_prop_id(style, i)) != _LV_STYLE_CLOSING_PROP) {
 4794              		.loc 1 1068 5 view .LVU1747
1069:lvgl/src/lv_core/lv_style.c ****         if(prop_id == id_to_find) {
 4795              		.loc 1 1069 5 view .LVU1748
1066:lvgl/src/lv_core/lv_style.c **** 
 4796              		.loc 1 1066 12 is_stmt 0 view .LVU1749
 4797 001c 0024     		movs	r4, #0
1064:lvgl/src/lv_core/lv_style.c **** 
 4798              		.loc 1 1064 13 view .LVU1750
 4799 001e 4FF0FF30 		mov	r0, #-1
 4800              	.LVL505:
1063:lvgl/src/lv_core/lv_style.c ****     int16_t id_guess = -1;
 4801              		.loc 1 1063 13 view .LVU1751
 4802 0022 8646     		mov	lr, r0
 4803 0024 32E0     		b	.L291
 4804              	.LVL506:
 4805              	.L311:
 4806              	.LBB650:
1071:lvgl/src/lv_core/lv_style.c ****             attr_i = get_style_prop_attr(style, i);
 4807              		.loc 1 1071 13 is_stmt 1 view .LVU1752
1072:lvgl/src/lv_core/lv_style.c **** 
 4808              		.loc 1 1072 13 view .LVU1753
 4809              	.LBB651:
 4810              	.LBI651:
1164:lvgl/src/lv_core/lv_style.c **** {
 4811              		.loc 1 1164 23 view .LVU1754
 4812              	.LBB652:
1166:lvgl/src/lv_core/lv_style.c **** }
 4813              		.loc 1 1166 5 view .LVU1755
 4814              	.LBB653:
 4815              	.LBI653:
1138:lvgl/src/lv_core/lv_style.c **** {
 4816              		.loc 1 1138 35 view .LVU1756
 4817              	.LBB654:
1140:lvgl/src/lv_core/lv_style.c ****     uint8_t * prop_p = (uint8_t *)&prop;
 4818              		.loc 1 1140 5 view .LVU1757
1141:lvgl/src/lv_core/lv_style.c ****     prop_p[0] = style->map[idx];
 4819              		.loc 1 1141 5 view .LVU1758
1142:lvgl/src/lv_core/lv_style.c ****     prop_p[1] = style->map[idx + 1];
 4820              		.loc 1 1142 5 view .LVU1759
1142:lvgl/src/lv_core/lv_style.c ****     prop_p[1] = style->map[idx + 1];
 4821              		.loc 1 1142 22 is_stmt 0 view .LVU1760
 4822 0026 D6F80080 		ldr	r8, [r6]
1142:lvgl/src/lv_core/lv_style.c ****     prop_p[1] = style->map[idx + 1];
 4823              		.loc 1 1142 27 view .LVU1761
 4824 002a 18F80490 		ldrb	r9, [r8, r4]	@ zero_extendqisi2
1142:lvgl/src/lv_core/lv_style.c ****     prop_p[1] = style->map[idx + 1];
 4825              		.loc 1 1142 15 view .LVU1762
 4826 002e 8DF80690 		strb	r9, [sp, #6]
1143:lvgl/src/lv_core/lv_style.c ****     return prop;
ARM GAS  D:\Temp\cceOI0TF.s 			page 144


 4827              		.loc 1 1143 5 is_stmt 1 view .LVU1763
1143:lvgl/src/lv_core/lv_style.c ****     return prop;
 4828              		.loc 1 1143 27 is_stmt 0 view .LVU1764
 4829 0032 18F80550 		ldrb	r5, [r8, r5]	@ zero_extendqisi2
1143:lvgl/src/lv_core/lv_style.c ****     return prop;
 4830              		.loc 1 1143 15 view .LVU1765
 4831 0036 8DF80750 		strb	r5, [sp, #7]
1144:lvgl/src/lv_core/lv_style.c **** }
 4832              		.loc 1 1144 5 is_stmt 1 view .LVU1766
1144:lvgl/src/lv_core/lv_style.c **** }
 4833              		.loc 1 1144 12 is_stmt 0 view .LVU1767
 4834 003a BDF80680 		ldrh	r8, [sp, #6]
 4835              	.LVL507:
1144:lvgl/src/lv_core/lv_style.c **** }
 4836              		.loc 1 1144 12 view .LVU1768
 4837              	.LBE654:
 4838              	.LBE653:
1166:lvgl/src/lv_core/lv_style.c **** }
 4839              		.loc 1 1166 47 view .LVU1769
 4840 003e 4FEA1828 		lsr	r8, r8, #8
 4841 0042 5FFA88F5 		uxtb	r5, r8
 4842              	.LVL508:
1166:lvgl/src/lv_core/lv_style.c **** }
 4843              		.loc 1 1166 47 view .LVU1770
 4844              	.LBE652:
 4845              	.LBE651:
1075:lvgl/src/lv_core/lv_style.c ****                 return i;
 4846              		.loc 1 1075 13 is_stmt 1 view .LVU1771
1075:lvgl/src/lv_core/lv_style.c ****                 return i;
 4847              		.loc 1 1075 48 is_stmt 0 view .LVU1772
 4848 0046 8CEA0509 		eor	r9, ip, r5
1075:lvgl/src/lv_core/lv_style.c ****                 return i;
 4849              		.loc 1 1075 15 view .LVU1773
 4850 004a 19F07F0F 		tst	r9, #127
 4851 004e 0CD0     		beq	.L309
1080:lvgl/src/lv_core/lv_style.c ****                 /* Use this property if it describes better the requested state than the current ca
 4852              		.loc 1 1080 18 is_stmt 1 view .LVU1774
1080:lvgl/src/lv_core/lv_style.c ****                 /* Use this property if it describes better the requested state than the current ca
 4853              		.loc 1 1080 22 is_stmt 0 view .LVU1775
 4854 0050 05F07F05 		and	r5, r5, #127
 4855              	.LVL509:
1080:lvgl/src/lv_core/lv_style.c ****                 /* Use this property if it describes better the requested state than the current ca
 4856              		.loc 1 1080 58 view .LVU1776
 4857 0054 0CF07F09 		and	r9, ip, #127
1080:lvgl/src/lv_core/lv_style.c ****                 /* Use this property if it describes better the requested state than the current ca
 4858              		.loc 1 1080 20 view .LVU1777
 4859 0058 35EA0909 		bics	r9, r5, r9
 4860 005c 24D1     		bne	.L292
1083:lvgl/src/lv_core/lv_style.c ****                     weight = LV_STYLE_ATTR_GET_STATE(attr_i);
 4861              		.loc 1 1083 17 is_stmt 1 view .LVU1778
1083:lvgl/src/lv_core/lv_style.c ****                     weight = LV_STYLE_ATTR_GET_STATE(attr_i);
 4862              		.loc 1 1083 19 is_stmt 0 view .LVU1779
 4863 005e 7545     		cmp	r5, lr
 4864 0060 22DD     		ble	.L292
1084:lvgl/src/lv_core/lv_style.c ****                     id_guess = i;
 4865              		.loc 1 1084 21 is_stmt 1 view .LVU1780
1084:lvgl/src/lv_core/lv_style.c ****                     id_guess = i;
ARM GAS  D:\Temp\cceOI0TF.s 			page 145


 4866              		.loc 1 1084 28 is_stmt 0 view .LVU1781
 4867 0062 08F07F0E 		and	lr, r8, #127
 4868              	.LVL510:
1085:lvgl/src/lv_core/lv_style.c ****                 }
 4869              		.loc 1 1085 21 is_stmt 1 view .LVU1782
1085:lvgl/src/lv_core/lv_style.c ****                 }
 4870              		.loc 1 1085 30 is_stmt 0 view .LVU1783
 4871 0066 20B2     		sxth	r0, r4
 4872              	.LVL511:
1085:lvgl/src/lv_core/lv_style.c ****                 }
 4873              		.loc 1 1085 30 view .LVU1784
 4874 0068 1EE0     		b	.L292
 4875              	.LVL512:
 4876              	.L309:
1076:lvgl/src/lv_core/lv_style.c ****             }
 4877              		.loc 1 1076 17 is_stmt 1 view .LVU1785
1076:lvgl/src/lv_core/lv_style.c ****             }
 4878              		.loc 1 1076 24 is_stmt 0 view .LVU1786
 4879 006a 2046     		mov	r0, r4
 4880              	.LVL513:
 4881              	.L290:
1076:lvgl/src/lv_core/lv_style.c ****             }
 4882              		.loc 1 1076 24 view .LVU1787
 4883              	.LBE650:
 4884              	.LBE649:
 4885              	.LBE648:
 627:lvgl/src/lv_core/lv_style.c ****         return -1;
 4886              		.loc 1 627 5 is_stmt 1 view .LVU1788
 627:lvgl/src/lv_core/lv_style.c ****         return -1;
 4887              		.loc 1 627 7 is_stmt 0 view .LVU1789
 4888 006c 0028     		cmp	r0, #0
 4889 006e 43DB     		blt	.L304
 4890              	.LBB668:
 631:lvgl/src/lv_core/lv_style.c ****         lv_style_attr_t attr_act;
 4891              		.loc 1 631 9 is_stmt 1 view .LVU1790
 631:lvgl/src/lv_core/lv_style.c ****         lv_style_attr_t attr_act;
 4892              		.loc 1 631 37 is_stmt 0 view .LVU1791
 4893 0070 3368     		ldr	r3, [r6]
 631:lvgl/src/lv_core/lv_style.c ****         lv_style_attr_t attr_act;
 4894              		.loc 1 631 42 view .LVU1792
 4895 0072 0546     		mov	r5, r0
 4896 0074 0230     		adds	r0, r0, #2
 4897              	.LVL514:
 631:lvgl/src/lv_core/lv_style.c ****         lv_style_attr_t attr_act;
 4898              		.loc 1 631 31 view .LVU1793
 4899 0076 1844     		add	r0, r0, r3
 4900              	.LVL515:
 4901              	.LBB669:
 4902              	.LBI669:
 213:lvgl/src/lv_core/../lv_font/../lv_misc/lv_mem.h **** {
 4903              		.loc 3 213 44 is_stmt 1 view .LVU1794
 4904              	.LBB670:
 215:lvgl/src/lv_core/../lv_font/../lv_misc/lv_mem.h ****     const uint8_t * s8 = (const uint8_t *)src;
 4905              		.loc 3 215 5 view .LVU1795
 216:lvgl/src/lv_core/../lv_font/../lv_misc/lv_mem.h **** 
 4906              		.loc 3 216 5 view .LVU1796
 218:lvgl/src/lv_core/../lv_font/../lv_misc/lv_mem.h ****         *d8 = *s8;
ARM GAS  D:\Temp\cceOI0TF.s 			page 146


 4907              		.loc 3 218 5 view .LVU1797
 4908              	.LBE670:
 4909              	.LBE669:
 631:lvgl/src/lv_core/lv_style.c ****         lv_style_attr_t attr_act;
 4910              		.loc 1 631 31 is_stmt 0 view .LVU1798
 4911 0078 0223     		movs	r3, #2
 4912              	.LVL516:
 4913              	.L296:
 4914              	.LBB673:
 4915              	.LBB671:
 218:lvgl/src/lv_core/../lv_font/../lv_misc/lv_mem.h ****         *d8 = *s8;
 4916              		.loc 3 218 10 view .LVU1799
 4917 007a 33B3     		cbz	r3, .L310
 219:lvgl/src/lv_core/../lv_font/../lv_misc/lv_mem.h ****         d8++;
 4918              		.loc 3 219 9 is_stmt 1 view .LVU1800
 219:lvgl/src/lv_core/../lv_font/../lv_misc/lv_mem.h ****         d8++;
 4919              		.loc 3 219 15 is_stmt 0 view .LVU1801
 4920 007c 10F8014B 		ldrb	r4, [r0], #1	@ zero_extendqisi2
 4921              	.LVL517:
 219:lvgl/src/lv_core/../lv_font/../lv_misc/lv_mem.h ****         d8++;
 4922              		.loc 3 219 13 view .LVU1802
 4923 0080 02F8014B 		strb	r4, [r2], #1
 4924              	.LVL518:
 220:lvgl/src/lv_core/../lv_font/../lv_misc/lv_mem.h ****         s8++;
 4925              		.loc 3 220 9 is_stmt 1 view .LVU1803
 221:lvgl/src/lv_core/../lv_font/../lv_misc/lv_mem.h ****         len--;
 4926              		.loc 3 221 9 view .LVU1804
 222:lvgl/src/lv_core/../lv_font/../lv_misc/lv_mem.h ****     }
 4927              		.loc 3 222 9 view .LVU1805
 222:lvgl/src/lv_core/../lv_font/../lv_misc/lv_mem.h ****     }
 4928              		.loc 3 222 12 is_stmt 0 view .LVU1806
 4929 0084 013B     		subs	r3, r3, #1
 4930              	.LVL519:
 222:lvgl/src/lv_core/../lv_font/../lv_misc/lv_mem.h ****     }
 4931              		.loc 3 222 12 view .LVU1807
 4932 0086 F8E7     		b	.L296
 4933              	.LVL520:
 4934              	.L301:
 222:lvgl/src/lv_core/../lv_font/../lv_misc/lv_mem.h ****     }
 4935              		.loc 3 222 12 view .LVU1808
 4936              	.LBE671:
 4937              	.LBE673:
 4938              	.LBE668:
 4939              	.LBB679:
 4940              	.LBB667:
 4941              	.LBB655:
 4942              	.LBB656:
 4943              	.LBB657:
 4944              	.LBB658:
1179:lvgl/src/lv_core/lv_style.c ****     else if(prop_id < LV_STYLE_ID_OPA) size += sizeof(lv_color_t);
 4945              		.loc 1 1179 42 view .LVU1809
 4946 0088 0423     		movs	r3, #4
 4947              	.LVL521:
 4948              	.L294:
1183:lvgl/src/lv_core/lv_style.c **** }
 4949              		.loc 1 1183 5 is_stmt 1 view .LVU1810
1183:lvgl/src/lv_core/lv_style.c **** }
ARM GAS  D:\Temp\cceOI0TF.s 			page 147


 4950              		.loc 1 1183 5 is_stmt 0 view .LVU1811
 4951              	.LBE658:
 4952              	.LBE657:
 4953              		.loc 1 1194 16 view .LVU1812
 4954 008a 1C44     		add	r4, r4, r3
 4955              	.LVL522:
 4956              	.L291:
 4957              		.loc 1 1194 16 view .LVU1813
 4958              	.LBE656:
 4959              	.LBE655:
 4960              	.LBB662:
 4961              	.LBI662:
1153:lvgl/src/lv_core/lv_style.c **** {
 4962              		.loc 1 1153 23 is_stmt 1 view .LVU1814
 4963              	.LBB663:
1155:lvgl/src/lv_core/lv_style.c **** }
 4964              		.loc 1 1155 5 view .LVU1815
 4965              	.LBB664:
 4966              	.LBI664:
1138:lvgl/src/lv_core/lv_style.c **** {
 4967              		.loc 1 1138 35 view .LVU1816
 4968              	.LBB665:
1140:lvgl/src/lv_core/lv_style.c ****     uint8_t * prop_p = (uint8_t *)&prop;
 4969              		.loc 1 1140 5 view .LVU1817
1141:lvgl/src/lv_core/lv_style.c ****     prop_p[0] = style->map[idx];
 4970              		.loc 1 1141 5 view .LVU1818
1142:lvgl/src/lv_core/lv_style.c ****     prop_p[1] = style->map[idx + 1];
 4971              		.loc 1 1142 5 view .LVU1819
1142:lvgl/src/lv_core/lv_style.c ****     prop_p[1] = style->map[idx + 1];
 4972              		.loc 1 1142 22 is_stmt 0 view .LVU1820
 4973 008c 3368     		ldr	r3, [r6]
1142:lvgl/src/lv_core/lv_style.c ****     prop_p[1] = style->map[idx + 1];
 4974              		.loc 1 1142 27 view .LVU1821
 4975 008e 1D5D     		ldrb	r5, [r3, r4]	@ zero_extendqisi2
1142:lvgl/src/lv_core/lv_style.c ****     prop_p[1] = style->map[idx + 1];
 4976              		.loc 1 1142 15 view .LVU1822
 4977 0090 8DF80650 		strb	r5, [sp, #6]
1143:lvgl/src/lv_core/lv_style.c ****     return prop;
 4978              		.loc 1 1143 5 is_stmt 1 view .LVU1823
1143:lvgl/src/lv_core/lv_style.c ****     return prop;
 4979              		.loc 1 1143 27 is_stmt 0 view .LVU1824
 4980 0094 651C     		adds	r5, r4, #1
 4981 0096 5B5D     		ldrb	r3, [r3, r5]	@ zero_extendqisi2
1143:lvgl/src/lv_core/lv_style.c ****     return prop;
 4982              		.loc 1 1143 15 view .LVU1825
 4983 0098 8DF80730 		strb	r3, [sp, #7]
1144:lvgl/src/lv_core/lv_style.c **** }
 4984              		.loc 1 1144 5 is_stmt 1 view .LVU1826
 4985              	.LVL523:
1144:lvgl/src/lv_core/lv_style.c **** }
 4986              		.loc 1 1144 5 is_stmt 0 view .LVU1827
 4987              	.LBE665:
 4988              	.LBE664:
1155:lvgl/src/lv_core/lv_style.c **** }
 4989              		.loc 1 1155 39 view .LVU1828
 4990 009c 9DF80630 		ldrb	r3, [sp, #6]	@ zero_extendqisi2
 4991              	.LVL524:
ARM GAS  D:\Temp\cceOI0TF.s 			page 148


1155:lvgl/src/lv_core/lv_style.c **** }
 4992              		.loc 1 1155 39 view .LVU1829
 4993              	.LBE663:
 4994              	.LBE662:
1069:lvgl/src/lv_core/lv_style.c ****         if(prop_id == id_to_find) {
 4995              		.loc 1 1069 10 view .LVU1830
 4996 00a0 FF2B     		cmp	r3, #255
 4997 00a2 E3D0     		beq	.L290
1070:lvgl/src/lv_core/lv_style.c ****             lv_style_attr_t attr_i;
 4998              		.loc 1 1070 9 is_stmt 1 view .LVU1831
1070:lvgl/src/lv_core/lv_style.c ****             lv_style_attr_t attr_i;
 4999              		.loc 1 1070 11 is_stmt 0 view .LVU1832
 5000 00a4 9F42     		cmp	r7, r3
 5001 00a6 BED0     		beq	.L311
 5002              	.L292:
1090:lvgl/src/lv_core/lv_style.c ****     }
 5003              		.loc 1 1090 9 is_stmt 1 view .LVU1833
 5004              	.LVL525:
 5005              	.LBB666:
 5006              	.LBI655:
1192:lvgl/src/lv_core/lv_style.c **** {
 5007              		.loc 1 1192 22 view .LVU1834
 5008              	.LBB661:
 5009              		.loc 1 1194 5 view .LVU1835
 5010              	.LBB660:
 5011              	.LBI657:
1175:lvgl/src/lv_core/lv_style.c **** {
 5012              		.loc 1 1175 22 view .LVU1836
 5013              	.LBB659:
1177:lvgl/src/lv_core/lv_style.c ****     size_t size = sizeof(lv_style_property_t);
 5014              		.loc 1 1177 5 view .LVU1837
1177:lvgl/src/lv_core/lv_style.c ****     size_t size = sizeof(lv_style_property_t);
 5015              		.loc 1 1177 13 is_stmt 0 view .LVU1838
 5016 00a8 03F00F03 		and	r3, r3, #15
 5017              	.LVL526:
1178:lvgl/src/lv_core/lv_style.c ****     if(prop_id < LV_STYLE_ID_COLOR) size += sizeof(lv_style_int_t);
 5018              		.loc 1 1178 5 is_stmt 1 view .LVU1839
1179:lvgl/src/lv_core/lv_style.c ****     else if(prop_id < LV_STYLE_ID_OPA) size += sizeof(lv_color_t);
 5019              		.loc 1 1179 5 view .LVU1840
1179:lvgl/src/lv_core/lv_style.c ****     else if(prop_id < LV_STYLE_ID_OPA) size += sizeof(lv_color_t);
 5020              		.loc 1 1179 7 is_stmt 0 view .LVU1841
 5021 00ac 082B     		cmp	r3, #8
 5022 00ae EBD9     		bls	.L301
1180:lvgl/src/lv_core/lv_style.c ****     else if(prop_id < LV_STYLE_ID_PTR) size += sizeof(lv_opa_t);
 5023              		.loc 1 1180 10 is_stmt 1 view .LVU1842
1180:lvgl/src/lv_core/lv_style.c ****     else if(prop_id < LV_STYLE_ID_PTR) size += sizeof(lv_opa_t);
 5024              		.loc 1 1180 12 is_stmt 0 view .LVU1843
 5025 00b0 0B2B     		cmp	r3, #11
 5026 00b2 03D9     		bls	.L302
1181:lvgl/src/lv_core/lv_style.c ****     else size += sizeof(const void *);
 5027              		.loc 1 1181 10 is_stmt 1 view .LVU1844
1181:lvgl/src/lv_core/lv_style.c ****     else size += sizeof(const void *);
 5028              		.loc 1 1181 12 is_stmt 0 view .LVU1845
 5029 00b4 0D2B     		cmp	r3, #13
 5030 00b6 03D8     		bhi	.L303
1181:lvgl/src/lv_core/lv_style.c ****     else size += sizeof(const void *);
 5031              		.loc 1 1181 45 view .LVU1846
ARM GAS  D:\Temp\cceOI0TF.s 			page 149


 5032 00b8 0323     		movs	r3, #3
 5033              	.LVL527:
1181:lvgl/src/lv_core/lv_style.c ****     else size += sizeof(const void *);
 5034              		.loc 1 1181 45 view .LVU1847
 5035 00ba E6E7     		b	.L294
 5036              	.LVL528:
 5037              	.L302:
1180:lvgl/src/lv_core/lv_style.c ****     else if(prop_id < LV_STYLE_ID_PTR) size += sizeof(lv_opa_t);
 5038              		.loc 1 1180 45 view .LVU1848
 5039 00bc 0423     		movs	r3, #4
 5040              	.LVL529:
1180:lvgl/src/lv_core/lv_style.c ****     else if(prop_id < LV_STYLE_ID_PTR) size += sizeof(lv_opa_t);
 5041              		.loc 1 1180 45 view .LVU1849
 5042 00be E4E7     		b	.L294
 5043              	.LVL530:
 5044              	.L303:
1182:lvgl/src/lv_core/lv_style.c ****     return size;
 5045              		.loc 1 1182 15 view .LVU1850
 5046 00c0 0623     		movs	r3, #6
 5047              	.LVL531:
1182:lvgl/src/lv_core/lv_style.c ****     return size;
 5048              		.loc 1 1182 15 view .LVU1851
 5049 00c2 E2E7     		b	.L294
 5050              	.LVL532:
 5051              	.L300:
1182:lvgl/src/lv_core/lv_style.c ****     return size;
 5052              		.loc 1 1182 15 view .LVU1852
 5053              	.LBE659:
 5054              	.LBE660:
 5055              	.LBE661:
 5056              	.LBE666:
1057:lvgl/src/lv_core/lv_style.c **** 
 5057              		.loc 1 1057 35 view .LVU1853
 5058 00c4 4FF0FF30 		mov	r0, #-1
 5059              	.LVL533:
1057:lvgl/src/lv_core/lv_style.c **** 
 5060              		.loc 1 1057 35 view .LVU1854
 5061 00c8 D0E7     		b	.L290
 5062              	.LVL534:
 5063              	.L310:
1057:lvgl/src/lv_core/lv_style.c **** 
 5064              		.loc 1 1057 35 view .LVU1855
 5065              	.LBE667:
 5066              	.LBE679:
 5067              	.LBB680:
 5068              	.LBB674:
 5069              	.LBB672:
 5070              		.loc 3 225 5 is_stmt 1 view .LVU1856
 5071              		.loc 3 225 5 is_stmt 0 view .LVU1857
 5072              	.LBE672:
 5073              	.LBE674:
 632:lvgl/src/lv_core/lv_style.c ****         attr_act = get_style_prop_attr(style, id);
 5074              		.loc 1 632 9 is_stmt 1 view .LVU1858
 633:lvgl/src/lv_core/lv_style.c **** 
 5075              		.loc 1 633 9 view .LVU1859
 5076              	.LBB675:
 5077              	.LBI675:
ARM GAS  D:\Temp\cceOI0TF.s 			page 150


1164:lvgl/src/lv_core/lv_style.c **** {
 5078              		.loc 1 1164 23 view .LVU1860
 5079              	.LBB676:
1166:lvgl/src/lv_core/lv_style.c **** }
 5080              		.loc 1 1166 5 view .LVU1861
 5081              	.LBB677:
 5082              	.LBI677:
1138:lvgl/src/lv_core/lv_style.c **** {
 5083              		.loc 1 1138 35 view .LVU1862
 5084              	.LBB678:
1140:lvgl/src/lv_core/lv_style.c ****     uint8_t * prop_p = (uint8_t *)&prop;
 5085              		.loc 1 1140 5 view .LVU1863
1141:lvgl/src/lv_core/lv_style.c ****     prop_p[0] = style->map[idx];
 5086              		.loc 1 1141 5 view .LVU1864
1142:lvgl/src/lv_core/lv_style.c ****     prop_p[1] = style->map[idx + 1];
 5087              		.loc 1 1142 5 view .LVU1865
1142:lvgl/src/lv_core/lv_style.c ****     prop_p[1] = style->map[idx + 1];
 5088              		.loc 1 1142 22 is_stmt 0 view .LVU1866
 5089 00ca 3368     		ldr	r3, [r6]
1142:lvgl/src/lv_core/lv_style.c ****     prop_p[1] = style->map[idx + 1];
 5090              		.loc 1 1142 27 view .LVU1867
 5091 00cc 5A5D     		ldrb	r2, [r3, r5]	@ zero_extendqisi2
1142:lvgl/src/lv_core/lv_style.c ****     prop_p[1] = style->map[idx + 1];
 5092              		.loc 1 1142 15 view .LVU1868
 5093 00ce 8DF80620 		strb	r2, [sp, #6]
1143:lvgl/src/lv_core/lv_style.c ****     return prop;
 5094              		.loc 1 1143 5 is_stmt 1 view .LVU1869
1143:lvgl/src/lv_core/lv_style.c ****     return prop;
 5095              		.loc 1 1143 27 is_stmt 0 view .LVU1870
 5096 00d2 2B44     		add	r3, r3, r5
 5097 00d4 5B78     		ldrb	r3, [r3, #1]	@ zero_extendqisi2
1143:lvgl/src/lv_core/lv_style.c ****     return prop;
 5098              		.loc 1 1143 15 view .LVU1871
 5099 00d6 8DF80730 		strb	r3, [sp, #7]
1144:lvgl/src/lv_core/lv_style.c **** }
 5100              		.loc 1 1144 5 is_stmt 1 view .LVU1872
1144:lvgl/src/lv_core/lv_style.c **** }
 5101              		.loc 1 1144 12 is_stmt 0 view .LVU1873
 5102 00da BDF80600 		ldrh	r0, [sp, #6]
 5103              	.LVL535:
1144:lvgl/src/lv_core/lv_style.c **** }
 5104              		.loc 1 1144 12 view .LVU1874
 5105              	.LBE678:
 5106              	.LBE677:
 5107              	.LBE676:
 5108              	.LBE675:
 635:lvgl/src/lv_core/lv_style.c ****         attr_goal = (prop >> 8) & 0xFF;
 5109              		.loc 1 635 9 is_stmt 1 view .LVU1875
 636:lvgl/src/lv_core/lv_style.c **** 
 5110              		.loc 1 636 9 view .LVU1876
 638:lvgl/src/lv_core/lv_style.c ****     }
 5111              		.loc 1 638 9 view .LVU1877
 638:lvgl/src/lv_core/lv_style.c ****     }
 5112              		.loc 1 638 16 is_stmt 0 view .LVU1878
 5113 00de C0F30620 		ubfx	r0, r0, #8, #7
 5114              	.LVL536:
 638:lvgl/src/lv_core/lv_style.c ****     }
ARM GAS  D:\Temp\cceOI0TF.s 			page 151


 5115              		.loc 1 638 50 view .LVU1879
 5116 00e2 00EA1120 		and	r0, r0, r1, lsr #8
 5117              	.LVL537:
 5118              	.L289:
 638:lvgl/src/lv_core/lv_style.c ****     }
 5119              		.loc 1 638 50 view .LVU1880
 5120              	.LBE680:
 640:lvgl/src/lv_core/lv_style.c **** 
 5121              		.loc 1 640 1 view .LVU1881
 5122 00e6 03B0     		add	sp, sp, #12
 5123              	.LCFI41:
 5124              		.cfi_def_cfa_offset 28
 5125              		@ sp needed
 5126 00e8 BDE8F083 		pop	{r4, r5, r6, r7, r8, r9, pc}
 5127              	.LVL538:
 5128              	.L298:
 5129              	.LCFI42:
 5130              		.cfi_def_cfa_offset 0
 5131              		.cfi_restore 4
 5132              		.cfi_restore 5
 5133              		.cfi_restore 6
 5134              		.cfi_restore 7
 5135              		.cfi_restore 8
 5136              		.cfi_restore 9
 5137              		.cfi_restore 14
 624:lvgl/src/lv_core/lv_style.c ****     if(style->map == NULL) return -1;
 5138              		.loc 1 624 30 view .LVU1882
 5139 00ec 4FF0FF30 		mov	r0, #-1
 5140              	.LVL539:
 640:lvgl/src/lv_core/lv_style.c **** 
 5141              		.loc 1 640 1 view .LVU1883
 5142 00f0 7047     		bx	lr
 5143              	.LVL540:
 5144              	.L299:
 5145              	.LCFI43:
 5146              		.cfi_def_cfa_offset 40
 5147              		.cfi_offset 4, -28
 5148              		.cfi_offset 5, -24
 5149              		.cfi_offset 6, -20
 5150              		.cfi_offset 7, -16
 5151              		.cfi_offset 8, -12
 5152              		.cfi_offset 9, -8
 5153              		.cfi_offset 14, -4
 625:lvgl/src/lv_core/lv_style.c ****     int32_t id = get_property_index(style, prop);
 5154              		.loc 1 625 35 view .LVU1884
 5155 00f2 4FF0FF30 		mov	r0, #-1
 5156              	.LVL541:
 625:lvgl/src/lv_core/lv_style.c ****     int32_t id = get_property_index(style, prop);
 5157              		.loc 1 625 35 view .LVU1885
 5158 00f6 F6E7     		b	.L289
 5159              	.LVL542:
 5160              	.L304:
 628:lvgl/src/lv_core/lv_style.c ****     }
 5161              		.loc 1 628 16 view .LVU1886
 5162 00f8 4FF0FF30 		mov	r0, #-1
 5163              	.LVL543:
 628:lvgl/src/lv_core/lv_style.c ****     }
ARM GAS  D:\Temp\cceOI0TF.s 			page 152


 5164              		.loc 1 628 16 view .LVU1887
 5165 00fc F3E7     		b	.L289
 5166              		.cfi_endproc
 5167              	.LFE474:
 5169              		.section	.text._lv_style_get_ptr,"ax",%progbits
 5170              		.align	1
 5171              		.global	_lv_style_get_ptr
 5172              		.syntax unified
 5173              		.thumb
 5174              		.thumb_func
 5175              		.fpu fpv4-sp-d16
 5177              	_lv_style_get_ptr:
 5178              	.LVL544:
 5179              	.LFB475:
 656:lvgl/src/lv_core/lv_style.c ****     const void ** res = (const void **)v_res;
 5180              		.loc 1 656 1 is_stmt 1 view -0
 5181              		.cfi_startproc
 5182              		@ args = 0, pretend = 0, frame = 8
 5183              		@ frame_needed = 0, uses_anonymous_args = 0
 657:lvgl/src/lv_core/lv_style.c ****     if(style == NULL) return -1;
 5184              		.loc 1 657 5 view .LVU1889
 658:lvgl/src/lv_core/lv_style.c ****     if(style->map == NULL) return -1;
 5185              		.loc 1 658 5 view .LVU1890
 658:lvgl/src/lv_core/lv_style.c ****     if(style->map == NULL) return -1;
 5186              		.loc 1 658 7 is_stmt 0 view .LVU1891
 5187 0000 0028     		cmp	r0, #0
 5188 0002 73D0     		beq	.L322
 656:lvgl/src/lv_core/lv_style.c ****     const void ** res = (const void **)v_res;
 5189              		.loc 1 656 1 view .LVU1892
 5190 0004 2DE9F043 		push	{r4, r5, r6, r7, r8, r9, lr}
 5191              	.LCFI44:
 5192              		.cfi_def_cfa_offset 28
 5193              		.cfi_offset 4, -28
 5194              		.cfi_offset 5, -24
 5195              		.cfi_offset 6, -20
 5196              		.cfi_offset 7, -16
 5197              		.cfi_offset 8, -12
 5198              		.cfi_offset 9, -8
 5199              		.cfi_offset 14, -4
 5200 0008 83B0     		sub	sp, sp, #12
 5201              	.LCFI45:
 5202              		.cfi_def_cfa_offset 40
 5203 000a 0646     		mov	r6, r0
 659:lvgl/src/lv_core/lv_style.c **** 
 5204              		.loc 1 659 5 is_stmt 1 view .LVU1893
 659:lvgl/src/lv_core/lv_style.c **** 
 5205              		.loc 1 659 13 is_stmt 0 view .LVU1894
 5206 000c 0368     		ldr	r3, [r0]
 659:lvgl/src/lv_core/lv_style.c **** 
 5207              		.loc 1 659 7 view .LVU1895
 5208 000e 002B     		cmp	r3, #0
 5209 0010 6FD0     		beq	.L323
 661:lvgl/src/lv_core/lv_style.c ****     if(id < 0) {
 5210              		.loc 1 661 5 is_stmt 1 view .LVU1896
 5211              	.LVL545:
 5212              	.LBB703:
 5213              	.LBI703:
ARM GAS  D:\Temp\cceOI0TF.s 			page 153


1053:lvgl/src/lv_core/lv_style.c **** {
 5214              		.loc 1 1053 45 view .LVU1897
 5215              	.LBB704:
1055:lvgl/src/lv_core/lv_style.c **** 
 5216              		.loc 1 1055 27 view .LVU1898
1057:lvgl/src/lv_core/lv_style.c **** 
 5217              		.loc 1 1057 5 view .LVU1899
1057:lvgl/src/lv_core/lv_style.c **** 
 5218              		.loc 1 1057 7 is_stmt 0 view .LVU1900
 5219 0012 002B     		cmp	r3, #0
 5220 0014 56D0     		beq	.L324
1059:lvgl/src/lv_core/lv_style.c ****     lv_style_attr_t attr;
 5221              		.loc 1 1059 5 is_stmt 1 view .LVU1901
1059:lvgl/src/lv_core/lv_style.c ****     lv_style_attr_t attr;
 5222              		.loc 1 1059 13 is_stmt 0 view .LVU1902
 5223 0016 CFB2     		uxtb	r7, r1
 5224              	.LVL546:
1060:lvgl/src/lv_core/lv_style.c ****     attr = (prop >> 8) & 0xFF;
 5225              		.loc 1 1060 5 is_stmt 1 view .LVU1903
1061:lvgl/src/lv_core/lv_style.c **** 
 5226              		.loc 1 1061 5 view .LVU1904
1061:lvgl/src/lv_core/lv_style.c **** 
 5227              		.loc 1 1061 10 is_stmt 0 view .LVU1905
 5228 0018 4FEA112C 		lsr	ip, r1, #8
 5229              	.LVL547:
1063:lvgl/src/lv_core/lv_style.c ****     int16_t id_guess = -1;
 5230              		.loc 1 1063 5 is_stmt 1 view .LVU1906
1064:lvgl/src/lv_core/lv_style.c **** 
 5231              		.loc 1 1064 5 view .LVU1907
1066:lvgl/src/lv_core/lv_style.c **** 
 5232              		.loc 1 1066 5 view .LVU1908
1068:lvgl/src/lv_core/lv_style.c ****     while((prop_id = get_style_prop_id(style, i)) != _LV_STYLE_CLOSING_PROP) {
 5233              		.loc 1 1068 5 view .LVU1909
1069:lvgl/src/lv_core/lv_style.c ****         if(prop_id == id_to_find) {
 5234              		.loc 1 1069 5 view .LVU1910
1066:lvgl/src/lv_core/lv_style.c **** 
 5235              		.loc 1 1066 12 is_stmt 0 view .LVU1911
 5236 001c 0024     		movs	r4, #0
1064:lvgl/src/lv_core/lv_style.c **** 
 5237              		.loc 1 1064 13 view .LVU1912
 5238 001e 4FF0FF30 		mov	r0, #-1
 5239              	.LVL548:
1063:lvgl/src/lv_core/lv_style.c ****     int16_t id_guess = -1;
 5240              		.loc 1 1063 13 view .LVU1913
 5241 0022 8646     		mov	lr, r0
 5242 0024 32E0     		b	.L315
 5243              	.LVL549:
 5244              	.L335:
 5245              	.LBB705:
1071:lvgl/src/lv_core/lv_style.c ****             attr_i = get_style_prop_attr(style, i);
 5246              		.loc 1 1071 13 is_stmt 1 view .LVU1914
1072:lvgl/src/lv_core/lv_style.c **** 
 5247              		.loc 1 1072 13 view .LVU1915
 5248              	.LBB706:
 5249              	.LBI706:
1164:lvgl/src/lv_core/lv_style.c **** {
 5250              		.loc 1 1164 23 view .LVU1916
ARM GAS  D:\Temp\cceOI0TF.s 			page 154


 5251              	.LBB707:
1166:lvgl/src/lv_core/lv_style.c **** }
 5252              		.loc 1 1166 5 view .LVU1917
 5253              	.LBB708:
 5254              	.LBI708:
1138:lvgl/src/lv_core/lv_style.c **** {
 5255              		.loc 1 1138 35 view .LVU1918
 5256              	.LBB709:
1140:lvgl/src/lv_core/lv_style.c ****     uint8_t * prop_p = (uint8_t *)&prop;
 5257              		.loc 1 1140 5 view .LVU1919
1141:lvgl/src/lv_core/lv_style.c ****     prop_p[0] = style->map[idx];
 5258              		.loc 1 1141 5 view .LVU1920
1142:lvgl/src/lv_core/lv_style.c ****     prop_p[1] = style->map[idx + 1];
 5259              		.loc 1 1142 5 view .LVU1921
1142:lvgl/src/lv_core/lv_style.c ****     prop_p[1] = style->map[idx + 1];
 5260              		.loc 1 1142 22 is_stmt 0 view .LVU1922
 5261 0026 D6F80080 		ldr	r8, [r6]
1142:lvgl/src/lv_core/lv_style.c ****     prop_p[1] = style->map[idx + 1];
 5262              		.loc 1 1142 27 view .LVU1923
 5263 002a 18F80490 		ldrb	r9, [r8, r4]	@ zero_extendqisi2
1142:lvgl/src/lv_core/lv_style.c ****     prop_p[1] = style->map[idx + 1];
 5264              		.loc 1 1142 15 view .LVU1924
 5265 002e 8DF80690 		strb	r9, [sp, #6]
1143:lvgl/src/lv_core/lv_style.c ****     return prop;
 5266              		.loc 1 1143 5 is_stmt 1 view .LVU1925
1143:lvgl/src/lv_core/lv_style.c ****     return prop;
 5267              		.loc 1 1143 27 is_stmt 0 view .LVU1926
 5268 0032 18F80550 		ldrb	r5, [r8, r5]	@ zero_extendqisi2
1143:lvgl/src/lv_core/lv_style.c ****     return prop;
 5269              		.loc 1 1143 15 view .LVU1927
 5270 0036 8DF80750 		strb	r5, [sp, #7]
1144:lvgl/src/lv_core/lv_style.c **** }
 5271              		.loc 1 1144 5 is_stmt 1 view .LVU1928
1144:lvgl/src/lv_core/lv_style.c **** }
 5272              		.loc 1 1144 12 is_stmt 0 view .LVU1929
 5273 003a BDF80680 		ldrh	r8, [sp, #6]
 5274              	.LVL550:
1144:lvgl/src/lv_core/lv_style.c **** }
 5275              		.loc 1 1144 12 view .LVU1930
 5276              	.LBE709:
 5277              	.LBE708:
1166:lvgl/src/lv_core/lv_style.c **** }
 5278              		.loc 1 1166 47 view .LVU1931
 5279 003e 4FEA1828 		lsr	r8, r8, #8
 5280 0042 5FFA88F5 		uxtb	r5, r8
 5281              	.LVL551:
1166:lvgl/src/lv_core/lv_style.c **** }
 5282              		.loc 1 1166 47 view .LVU1932
 5283              	.LBE707:
 5284              	.LBE706:
1075:lvgl/src/lv_core/lv_style.c ****                 return i;
 5285              		.loc 1 1075 13 is_stmt 1 view .LVU1933
1075:lvgl/src/lv_core/lv_style.c ****                 return i;
 5286              		.loc 1 1075 48 is_stmt 0 view .LVU1934
 5287 0046 8CEA0509 		eor	r9, ip, r5
1075:lvgl/src/lv_core/lv_style.c ****                 return i;
 5288              		.loc 1 1075 15 view .LVU1935
ARM GAS  D:\Temp\cceOI0TF.s 			page 155


 5289 004a 19F07F0F 		tst	r9, #127
 5290 004e 0CD0     		beq	.L333
1080:lvgl/src/lv_core/lv_style.c ****                 /* Use this property if it describes better the requested state than the current ca
 5291              		.loc 1 1080 18 is_stmt 1 view .LVU1936
1080:lvgl/src/lv_core/lv_style.c ****                 /* Use this property if it describes better the requested state than the current ca
 5292              		.loc 1 1080 22 is_stmt 0 view .LVU1937
 5293 0050 05F07F05 		and	r5, r5, #127
 5294              	.LVL552:
1080:lvgl/src/lv_core/lv_style.c ****                 /* Use this property if it describes better the requested state than the current ca
 5295              		.loc 1 1080 58 view .LVU1938
 5296 0054 0CF07F09 		and	r9, ip, #127
1080:lvgl/src/lv_core/lv_style.c ****                 /* Use this property if it describes better the requested state than the current ca
 5297              		.loc 1 1080 20 view .LVU1939
 5298 0058 35EA0909 		bics	r9, r5, r9
 5299 005c 24D1     		bne	.L316
1083:lvgl/src/lv_core/lv_style.c ****                     weight = LV_STYLE_ATTR_GET_STATE(attr_i);
 5300              		.loc 1 1083 17 is_stmt 1 view .LVU1940
1083:lvgl/src/lv_core/lv_style.c ****                     weight = LV_STYLE_ATTR_GET_STATE(attr_i);
 5301              		.loc 1 1083 19 is_stmt 0 view .LVU1941
 5302 005e 7545     		cmp	r5, lr
 5303 0060 22DD     		ble	.L316
1084:lvgl/src/lv_core/lv_style.c ****                     id_guess = i;
 5304              		.loc 1 1084 21 is_stmt 1 view .LVU1942
1084:lvgl/src/lv_core/lv_style.c ****                     id_guess = i;
 5305              		.loc 1 1084 28 is_stmt 0 view .LVU1943
 5306 0062 08F07F0E 		and	lr, r8, #127
 5307              	.LVL553:
1085:lvgl/src/lv_core/lv_style.c ****                 }
 5308              		.loc 1 1085 21 is_stmt 1 view .LVU1944
1085:lvgl/src/lv_core/lv_style.c ****                 }
 5309              		.loc 1 1085 30 is_stmt 0 view .LVU1945
 5310 0066 20B2     		sxth	r0, r4
 5311              	.LVL554:
1085:lvgl/src/lv_core/lv_style.c ****                 }
 5312              		.loc 1 1085 30 view .LVU1946
 5313 0068 1EE0     		b	.L316
 5314              	.LVL555:
 5315              	.L333:
1076:lvgl/src/lv_core/lv_style.c ****             }
 5316              		.loc 1 1076 17 is_stmt 1 view .LVU1947
1076:lvgl/src/lv_core/lv_style.c ****             }
 5317              		.loc 1 1076 24 is_stmt 0 view .LVU1948
 5318 006a 2046     		mov	r0, r4
 5319              	.LVL556:
 5320              	.L314:
1076:lvgl/src/lv_core/lv_style.c ****             }
 5321              		.loc 1 1076 24 view .LVU1949
 5322              	.LBE705:
 5323              	.LBE704:
 5324              	.LBE703:
 662:lvgl/src/lv_core/lv_style.c ****         return -1;
 5325              		.loc 1 662 5 is_stmt 1 view .LVU1950
 662:lvgl/src/lv_core/lv_style.c ****         return -1;
 5326              		.loc 1 662 7 is_stmt 0 view .LVU1951
 5327 006c 0028     		cmp	r0, #0
 5328 006e 43DB     		blt	.L328
 5329              	.LBB723:
ARM GAS  D:\Temp\cceOI0TF.s 			page 156


 666:lvgl/src/lv_core/lv_style.c ****         lv_style_attr_t attr_act;
 5330              		.loc 1 666 9 is_stmt 1 view .LVU1952
 666:lvgl/src/lv_core/lv_style.c ****         lv_style_attr_t attr_act;
 5331              		.loc 1 666 37 is_stmt 0 view .LVU1953
 5332 0070 3368     		ldr	r3, [r6]
 666:lvgl/src/lv_core/lv_style.c ****         lv_style_attr_t attr_act;
 5333              		.loc 1 666 42 view .LVU1954
 5334 0072 0546     		mov	r5, r0
 5335 0074 0230     		adds	r0, r0, #2
 5336              	.LVL557:
 666:lvgl/src/lv_core/lv_style.c ****         lv_style_attr_t attr_act;
 5337              		.loc 1 666 31 view .LVU1955
 5338 0076 1844     		add	r0, r0, r3
 5339              	.LVL558:
 5340              	.LBB724:
 5341              	.LBI724:
 213:lvgl/src/lv_core/../lv_font/../lv_misc/lv_mem.h **** {
 5342              		.loc 3 213 44 is_stmt 1 view .LVU1956
 5343              	.LBB725:
 215:lvgl/src/lv_core/../lv_font/../lv_misc/lv_mem.h ****     const uint8_t * s8 = (const uint8_t *)src;
 5344              		.loc 3 215 5 view .LVU1957
 216:lvgl/src/lv_core/../lv_font/../lv_misc/lv_mem.h **** 
 5345              		.loc 3 216 5 view .LVU1958
 218:lvgl/src/lv_core/../lv_font/../lv_misc/lv_mem.h ****         *d8 = *s8;
 5346              		.loc 3 218 5 view .LVU1959
 5347              	.LBE725:
 5348              	.LBE724:
 666:lvgl/src/lv_core/lv_style.c ****         lv_style_attr_t attr_act;
 5349              		.loc 1 666 31 is_stmt 0 view .LVU1960
 5350 0078 0423     		movs	r3, #4
 5351              	.LVL559:
 5352              	.L320:
 5353              	.LBB728:
 5354              	.LBB726:
 218:lvgl/src/lv_core/../lv_font/../lv_misc/lv_mem.h ****         *d8 = *s8;
 5355              		.loc 3 218 10 view .LVU1961
 5356 007a 33B3     		cbz	r3, .L334
 219:lvgl/src/lv_core/../lv_font/../lv_misc/lv_mem.h ****         d8++;
 5357              		.loc 3 219 9 is_stmt 1 view .LVU1962
 219:lvgl/src/lv_core/../lv_font/../lv_misc/lv_mem.h ****         d8++;
 5358              		.loc 3 219 15 is_stmt 0 view .LVU1963
 5359 007c 10F8014B 		ldrb	r4, [r0], #1	@ zero_extendqisi2
 5360              	.LVL560:
 219:lvgl/src/lv_core/../lv_font/../lv_misc/lv_mem.h ****         d8++;
 5361              		.loc 3 219 13 view .LVU1964
 5362 0080 02F8014B 		strb	r4, [r2], #1
 5363              	.LVL561:
 220:lvgl/src/lv_core/../lv_font/../lv_misc/lv_mem.h ****         s8++;
 5364              		.loc 3 220 9 is_stmt 1 view .LVU1965
 221:lvgl/src/lv_core/../lv_font/../lv_misc/lv_mem.h ****         len--;
 5365              		.loc 3 221 9 view .LVU1966
 222:lvgl/src/lv_core/../lv_font/../lv_misc/lv_mem.h ****     }
 5366              		.loc 3 222 9 view .LVU1967
 222:lvgl/src/lv_core/../lv_font/../lv_misc/lv_mem.h ****     }
 5367              		.loc 3 222 12 is_stmt 0 view .LVU1968
 5368 0084 013B     		subs	r3, r3, #1
 5369              	.LVL562:
ARM GAS  D:\Temp\cceOI0TF.s 			page 157


 222:lvgl/src/lv_core/../lv_font/../lv_misc/lv_mem.h ****     }
 5370              		.loc 3 222 12 view .LVU1969
 5371 0086 F8E7     		b	.L320
 5372              	.LVL563:
 5373              	.L325:
 222:lvgl/src/lv_core/../lv_font/../lv_misc/lv_mem.h ****     }
 5374              		.loc 3 222 12 view .LVU1970
 5375              	.LBE726:
 5376              	.LBE728:
 5377              	.LBE723:
 5378              	.LBB734:
 5379              	.LBB722:
 5380              	.LBB710:
 5381              	.LBB711:
 5382              	.LBB712:
 5383              	.LBB713:
1179:lvgl/src/lv_core/lv_style.c ****     else if(prop_id < LV_STYLE_ID_OPA) size += sizeof(lv_color_t);
 5384              		.loc 1 1179 42 view .LVU1971
 5385 0088 0423     		movs	r3, #4
 5386              	.LVL564:
 5387              	.L318:
1183:lvgl/src/lv_core/lv_style.c **** }
 5388              		.loc 1 1183 5 is_stmt 1 view .LVU1972
1183:lvgl/src/lv_core/lv_style.c **** }
 5389              		.loc 1 1183 5 is_stmt 0 view .LVU1973
 5390              	.LBE713:
 5391              	.LBE712:
 5392              		.loc 1 1194 16 view .LVU1974
 5393 008a 1C44     		add	r4, r4, r3
 5394              	.LVL565:
 5395              	.L315:
 5396              		.loc 1 1194 16 view .LVU1975
 5397              	.LBE711:
 5398              	.LBE710:
 5399              	.LBB717:
 5400              	.LBI717:
1153:lvgl/src/lv_core/lv_style.c **** {
 5401              		.loc 1 1153 23 is_stmt 1 view .LVU1976
 5402              	.LBB718:
1155:lvgl/src/lv_core/lv_style.c **** }
 5403              		.loc 1 1155 5 view .LVU1977
 5404              	.LBB719:
 5405              	.LBI719:
1138:lvgl/src/lv_core/lv_style.c **** {
 5406              		.loc 1 1138 35 view .LVU1978
 5407              	.LBB720:
1140:lvgl/src/lv_core/lv_style.c ****     uint8_t * prop_p = (uint8_t *)&prop;
 5408              		.loc 1 1140 5 view .LVU1979
1141:lvgl/src/lv_core/lv_style.c ****     prop_p[0] = style->map[idx];
 5409              		.loc 1 1141 5 view .LVU1980
1142:lvgl/src/lv_core/lv_style.c ****     prop_p[1] = style->map[idx + 1];
 5410              		.loc 1 1142 5 view .LVU1981
1142:lvgl/src/lv_core/lv_style.c ****     prop_p[1] = style->map[idx + 1];
 5411              		.loc 1 1142 22 is_stmt 0 view .LVU1982
 5412 008c 3368     		ldr	r3, [r6]
1142:lvgl/src/lv_core/lv_style.c ****     prop_p[1] = style->map[idx + 1];
 5413              		.loc 1 1142 27 view .LVU1983
ARM GAS  D:\Temp\cceOI0TF.s 			page 158


 5414 008e 1D5D     		ldrb	r5, [r3, r4]	@ zero_extendqisi2
1142:lvgl/src/lv_core/lv_style.c ****     prop_p[1] = style->map[idx + 1];
 5415              		.loc 1 1142 15 view .LVU1984
 5416 0090 8DF80650 		strb	r5, [sp, #6]
1143:lvgl/src/lv_core/lv_style.c ****     return prop;
 5417              		.loc 1 1143 5 is_stmt 1 view .LVU1985
1143:lvgl/src/lv_core/lv_style.c ****     return prop;
 5418              		.loc 1 1143 27 is_stmt 0 view .LVU1986
 5419 0094 651C     		adds	r5, r4, #1
 5420 0096 5B5D     		ldrb	r3, [r3, r5]	@ zero_extendqisi2
1143:lvgl/src/lv_core/lv_style.c ****     return prop;
 5421              		.loc 1 1143 15 view .LVU1987
 5422 0098 8DF80730 		strb	r3, [sp, #7]
1144:lvgl/src/lv_core/lv_style.c **** }
 5423              		.loc 1 1144 5 is_stmt 1 view .LVU1988
 5424              	.LVL566:
1144:lvgl/src/lv_core/lv_style.c **** }
 5425              		.loc 1 1144 5 is_stmt 0 view .LVU1989
 5426              	.LBE720:
 5427              	.LBE719:
1155:lvgl/src/lv_core/lv_style.c **** }
 5428              		.loc 1 1155 39 view .LVU1990
 5429 009c 9DF80630 		ldrb	r3, [sp, #6]	@ zero_extendqisi2
 5430              	.LVL567:
1155:lvgl/src/lv_core/lv_style.c **** }
 5431              		.loc 1 1155 39 view .LVU1991
 5432              	.LBE718:
 5433              	.LBE717:
1069:lvgl/src/lv_core/lv_style.c ****         if(prop_id == id_to_find) {
 5434              		.loc 1 1069 10 view .LVU1992
 5435 00a0 FF2B     		cmp	r3, #255
 5436 00a2 E3D0     		beq	.L314
1070:lvgl/src/lv_core/lv_style.c ****             lv_style_attr_t attr_i;
 5437              		.loc 1 1070 9 is_stmt 1 view .LVU1993
1070:lvgl/src/lv_core/lv_style.c ****             lv_style_attr_t attr_i;
 5438              		.loc 1 1070 11 is_stmt 0 view .LVU1994
 5439 00a4 9F42     		cmp	r7, r3
 5440 00a6 BED0     		beq	.L335
 5441              	.L316:
1090:lvgl/src/lv_core/lv_style.c ****     }
 5442              		.loc 1 1090 9 is_stmt 1 view .LVU1995
 5443              	.LVL568:
 5444              	.LBB721:
 5445              	.LBI710:
1192:lvgl/src/lv_core/lv_style.c **** {
 5446              		.loc 1 1192 22 view .LVU1996
 5447              	.LBB716:
 5448              		.loc 1 1194 5 view .LVU1997
 5449              	.LBB715:
 5450              	.LBI712:
1175:lvgl/src/lv_core/lv_style.c **** {
 5451              		.loc 1 1175 22 view .LVU1998
 5452              	.LBB714:
1177:lvgl/src/lv_core/lv_style.c ****     size_t size = sizeof(lv_style_property_t);
 5453              		.loc 1 1177 5 view .LVU1999
1177:lvgl/src/lv_core/lv_style.c ****     size_t size = sizeof(lv_style_property_t);
 5454              		.loc 1 1177 13 is_stmt 0 view .LVU2000
ARM GAS  D:\Temp\cceOI0TF.s 			page 159


 5455 00a8 03F00F03 		and	r3, r3, #15
 5456              	.LVL569:
1178:lvgl/src/lv_core/lv_style.c ****     if(prop_id < LV_STYLE_ID_COLOR) size += sizeof(lv_style_int_t);
 5457              		.loc 1 1178 5 is_stmt 1 view .LVU2001
1179:lvgl/src/lv_core/lv_style.c ****     else if(prop_id < LV_STYLE_ID_OPA) size += sizeof(lv_color_t);
 5458              		.loc 1 1179 5 view .LVU2002
1179:lvgl/src/lv_core/lv_style.c ****     else if(prop_id < LV_STYLE_ID_OPA) size += sizeof(lv_color_t);
 5459              		.loc 1 1179 7 is_stmt 0 view .LVU2003
 5460 00ac 082B     		cmp	r3, #8
 5461 00ae EBD9     		bls	.L325
1180:lvgl/src/lv_core/lv_style.c ****     else if(prop_id < LV_STYLE_ID_PTR) size += sizeof(lv_opa_t);
 5462              		.loc 1 1180 10 is_stmt 1 view .LVU2004
1180:lvgl/src/lv_core/lv_style.c ****     else if(prop_id < LV_STYLE_ID_PTR) size += sizeof(lv_opa_t);
 5463              		.loc 1 1180 12 is_stmt 0 view .LVU2005
 5464 00b0 0B2B     		cmp	r3, #11
 5465 00b2 03D9     		bls	.L326
1181:lvgl/src/lv_core/lv_style.c ****     else size += sizeof(const void *);
 5466              		.loc 1 1181 10 is_stmt 1 view .LVU2006
1181:lvgl/src/lv_core/lv_style.c ****     else size += sizeof(const void *);
 5467              		.loc 1 1181 12 is_stmt 0 view .LVU2007
 5468 00b4 0D2B     		cmp	r3, #13
 5469 00b6 03D8     		bhi	.L327
1181:lvgl/src/lv_core/lv_style.c ****     else size += sizeof(const void *);
 5470              		.loc 1 1181 45 view .LVU2008
 5471 00b8 0323     		movs	r3, #3
 5472              	.LVL570:
1181:lvgl/src/lv_core/lv_style.c ****     else size += sizeof(const void *);
 5473              		.loc 1 1181 45 view .LVU2009
 5474 00ba E6E7     		b	.L318
 5475              	.LVL571:
 5476              	.L326:
1180:lvgl/src/lv_core/lv_style.c ****     else if(prop_id < LV_STYLE_ID_PTR) size += sizeof(lv_opa_t);
 5477              		.loc 1 1180 45 view .LVU2010
 5478 00bc 0423     		movs	r3, #4
 5479              	.LVL572:
1180:lvgl/src/lv_core/lv_style.c ****     else if(prop_id < LV_STYLE_ID_PTR) size += sizeof(lv_opa_t);
 5480              		.loc 1 1180 45 view .LVU2011
 5481 00be E4E7     		b	.L318
 5482              	.LVL573:
 5483              	.L327:
1182:lvgl/src/lv_core/lv_style.c ****     return size;
 5484              		.loc 1 1182 15 view .LVU2012
 5485 00c0 0623     		movs	r3, #6
 5486              	.LVL574:
1182:lvgl/src/lv_core/lv_style.c ****     return size;
 5487              		.loc 1 1182 15 view .LVU2013
 5488 00c2 E2E7     		b	.L318
 5489              	.LVL575:
 5490              	.L324:
1182:lvgl/src/lv_core/lv_style.c ****     return size;
 5491              		.loc 1 1182 15 view .LVU2014
 5492              	.LBE714:
 5493              	.LBE715:
 5494              	.LBE716:
 5495              	.LBE721:
1057:lvgl/src/lv_core/lv_style.c **** 
 5496              		.loc 1 1057 35 view .LVU2015
ARM GAS  D:\Temp\cceOI0TF.s 			page 160


 5497 00c4 4FF0FF30 		mov	r0, #-1
 5498              	.LVL576:
1057:lvgl/src/lv_core/lv_style.c **** 
 5499              		.loc 1 1057 35 view .LVU2016
 5500 00c8 D0E7     		b	.L314
 5501              	.LVL577:
 5502              	.L334:
1057:lvgl/src/lv_core/lv_style.c **** 
 5503              		.loc 1 1057 35 view .LVU2017
 5504              	.LBE722:
 5505              	.LBE734:
 5506              	.LBB735:
 5507              	.LBB729:
 5508              	.LBB727:
 5509              		.loc 3 225 5 is_stmt 1 view .LVU2018
 5510              		.loc 3 225 5 is_stmt 0 view .LVU2019
 5511              	.LBE727:
 5512              	.LBE729:
 667:lvgl/src/lv_core/lv_style.c ****         attr_act = get_style_prop_attr(style, id);
 5513              		.loc 1 667 9 is_stmt 1 view .LVU2020
 668:lvgl/src/lv_core/lv_style.c **** 
 5514              		.loc 1 668 9 view .LVU2021
 5515              	.LBB730:
 5516              	.LBI730:
1164:lvgl/src/lv_core/lv_style.c **** {
 5517              		.loc 1 1164 23 view .LVU2022
 5518              	.LBB731:
1166:lvgl/src/lv_core/lv_style.c **** }
 5519              		.loc 1 1166 5 view .LVU2023
 5520              	.LBB732:
 5521              	.LBI732:
1138:lvgl/src/lv_core/lv_style.c **** {
 5522              		.loc 1 1138 35 view .LVU2024
 5523              	.LBB733:
1140:lvgl/src/lv_core/lv_style.c ****     uint8_t * prop_p = (uint8_t *)&prop;
 5524              		.loc 1 1140 5 view .LVU2025
1141:lvgl/src/lv_core/lv_style.c ****     prop_p[0] = style->map[idx];
 5525              		.loc 1 1141 5 view .LVU2026
1142:lvgl/src/lv_core/lv_style.c ****     prop_p[1] = style->map[idx + 1];
 5526              		.loc 1 1142 5 view .LVU2027
1142:lvgl/src/lv_core/lv_style.c ****     prop_p[1] = style->map[idx + 1];
 5527              		.loc 1 1142 22 is_stmt 0 view .LVU2028
 5528 00ca 3368     		ldr	r3, [r6]
1142:lvgl/src/lv_core/lv_style.c ****     prop_p[1] = style->map[idx + 1];
 5529              		.loc 1 1142 27 view .LVU2029
 5530 00cc 5A5D     		ldrb	r2, [r3, r5]	@ zero_extendqisi2
1142:lvgl/src/lv_core/lv_style.c ****     prop_p[1] = style->map[idx + 1];
 5531              		.loc 1 1142 15 view .LVU2030
 5532 00ce 8DF80620 		strb	r2, [sp, #6]
1143:lvgl/src/lv_core/lv_style.c ****     return prop;
 5533              		.loc 1 1143 5 is_stmt 1 view .LVU2031
1143:lvgl/src/lv_core/lv_style.c ****     return prop;
 5534              		.loc 1 1143 27 is_stmt 0 view .LVU2032
 5535 00d2 2B44     		add	r3, r3, r5
 5536 00d4 5B78     		ldrb	r3, [r3, #1]	@ zero_extendqisi2
1143:lvgl/src/lv_core/lv_style.c ****     return prop;
 5537              		.loc 1 1143 15 view .LVU2033
ARM GAS  D:\Temp\cceOI0TF.s 			page 161


 5538 00d6 8DF80730 		strb	r3, [sp, #7]
1144:lvgl/src/lv_core/lv_style.c **** }
 5539              		.loc 1 1144 5 is_stmt 1 view .LVU2034
1144:lvgl/src/lv_core/lv_style.c **** }
 5540              		.loc 1 1144 12 is_stmt 0 view .LVU2035
 5541 00da BDF80600 		ldrh	r0, [sp, #6]
 5542              	.LVL578:
1144:lvgl/src/lv_core/lv_style.c **** }
 5543              		.loc 1 1144 12 view .LVU2036
 5544              	.LBE733:
 5545              	.LBE732:
 5546              	.LBE731:
 5547              	.LBE730:
 670:lvgl/src/lv_core/lv_style.c ****         attr_goal = (prop >> 8) & 0xFF;
 5548              		.loc 1 670 9 is_stmt 1 view .LVU2037
 671:lvgl/src/lv_core/lv_style.c **** 
 5549              		.loc 1 671 9 view .LVU2038
 673:lvgl/src/lv_core/lv_style.c ****     }
 5550              		.loc 1 673 9 view .LVU2039
 673:lvgl/src/lv_core/lv_style.c ****     }
 5551              		.loc 1 673 16 is_stmt 0 view .LVU2040
 5552 00de C0F30620 		ubfx	r0, r0, #8, #7
 5553              	.LVL579:
 673:lvgl/src/lv_core/lv_style.c ****     }
 5554              		.loc 1 673 50 view .LVU2041
 5555 00e2 00EA1120 		and	r0, r0, r1, lsr #8
 5556              	.LVL580:
 5557              	.L313:
 673:lvgl/src/lv_core/lv_style.c ****     }
 5558              		.loc 1 673 50 view .LVU2042
 5559              	.LBE735:
 675:lvgl/src/lv_core/lv_style.c **** 
 5560              		.loc 1 675 1 view .LVU2043
 5561 00e6 03B0     		add	sp, sp, #12
 5562              	.LCFI46:
 5563              		.cfi_def_cfa_offset 28
 5564              		@ sp needed
 5565 00e8 BDE8F083 		pop	{r4, r5, r6, r7, r8, r9, pc}
 5566              	.LVL581:
 5567              	.L322:
 5568              	.LCFI47:
 5569              		.cfi_def_cfa_offset 0
 5570              		.cfi_restore 4
 5571              		.cfi_restore 5
 5572              		.cfi_restore 6
 5573              		.cfi_restore 7
 5574              		.cfi_restore 8
 5575              		.cfi_restore 9
 5576              		.cfi_restore 14
 658:lvgl/src/lv_core/lv_style.c ****     if(style->map == NULL) return -1;
 5577              		.loc 1 658 30 view .LVU2044
 5578 00ec 4FF0FF30 		mov	r0, #-1
 5579              	.LVL582:
 675:lvgl/src/lv_core/lv_style.c **** 
 5580              		.loc 1 675 1 view .LVU2045
 5581 00f0 7047     		bx	lr
 5582              	.LVL583:
ARM GAS  D:\Temp\cceOI0TF.s 			page 162


 5583              	.L323:
 5584              	.LCFI48:
 5585              		.cfi_def_cfa_offset 40
 5586              		.cfi_offset 4, -28
 5587              		.cfi_offset 5, -24
 5588              		.cfi_offset 6, -20
 5589              		.cfi_offset 7, -16
 5590              		.cfi_offset 8, -12
 5591              		.cfi_offset 9, -8
 5592              		.cfi_offset 14, -4
 659:lvgl/src/lv_core/lv_style.c **** 
 5593              		.loc 1 659 35 view .LVU2046
 5594 00f2 4FF0FF30 		mov	r0, #-1
 5595              	.LVL584:
 659:lvgl/src/lv_core/lv_style.c **** 
 5596              		.loc 1 659 35 view .LVU2047
 5597 00f6 F6E7     		b	.L313
 5598              	.LVL585:
 5599              	.L328:
 663:lvgl/src/lv_core/lv_style.c ****     }
 5600              		.loc 1 663 16 view .LVU2048
 5601 00f8 4FF0FF30 		mov	r0, #-1
 5602              	.LVL586:
 663:lvgl/src/lv_core/lv_style.c ****     }
 5603              		.loc 1 663 16 view .LVU2049
 5604 00fc F3E7     		b	.L313
 5605              		.cfi_endproc
 5606              	.LFE475:
 5608              		.section	.text.lv_style_list_get_local_style,"ax",%progbits
 5609              		.align	1
 5610              		.global	lv_style_list_get_local_style
 5611              		.syntax unified
 5612              		.thumb
 5613              		.thumb_func
 5614              		.fpu fpv4-sp-d16
 5616              	lv_style_list_get_local_style:
 5617              	.LVL587:
 5618              	.LFB476:
 683:lvgl/src/lv_core/lv_style.c ****     LV_ASSERT_STYLE_LIST(list);
 5619              		.loc 1 683 1 is_stmt 1 view -0
 5620              		.cfi_startproc
 5621              		@ args = 0, pretend = 0, frame = 0
 5622              		@ frame_needed = 0, uses_anonymous_args = 0
 5623              		@ link register save eliminated.
 684:lvgl/src/lv_core/lv_style.c **** 
 5624              		.loc 1 684 31 view .LVU2051
 686:lvgl/src/lv_core/lv_style.c ****     if(list->has_trans) return list->style_list[1];
 5625              		.loc 1 686 5 view .LVU2052
 686:lvgl/src/lv_core/lv_style.c ****     if(list->has_trans) return list->style_list[1];
 5626              		.loc 1 686 8 is_stmt 0 view .LVU2053
 5627 0000 0379     		ldrb	r3, [r0, #4]	@ zero_extendqisi2
 686:lvgl/src/lv_core/lv_style.c ****     if(list->has_trans) return list->style_list[1];
 5628              		.loc 1 686 7 view .LVU2054
 5629 0002 13F0400F 		tst	r3, #64
 5630 0006 08D0     		beq	.L339
 687:lvgl/src/lv_core/lv_style.c ****     else return list->style_list[0];
 5631              		.loc 1 687 5 is_stmt 1 view .LVU2055
ARM GAS  D:\Temp\cceOI0TF.s 			page 163


 687:lvgl/src/lv_core/lv_style.c ****     else return list->style_list[0];
 5632              		.loc 1 687 7 is_stmt 0 view .LVU2056
 5633 0008 13F0800F 		tst	r3, #128
 5634 000c 02D1     		bne	.L340
 688:lvgl/src/lv_core/lv_style.c **** }
 5635              		.loc 1 688 10 is_stmt 1 view .LVU2057
 688:lvgl/src/lv_core/lv_style.c **** }
 5636              		.loc 1 688 21 is_stmt 0 view .LVU2058
 5637 000e 0368     		ldr	r3, [r0]
 688:lvgl/src/lv_core/lv_style.c **** }
 5638              		.loc 1 688 33 view .LVU2059
 5639 0010 1868     		ldr	r0, [r3]
 5640              	.LVL588:
 688:lvgl/src/lv_core/lv_style.c **** }
 5641              		.loc 1 688 33 view .LVU2060
 5642 0012 7047     		bx	lr
 5643              	.LVL589:
 5644              	.L340:
 687:lvgl/src/lv_core/lv_style.c ****     else return list->style_list[0];
 5645              		.loc 1 687 25 is_stmt 1 discriminator 1 view .LVU2061
 687:lvgl/src/lv_core/lv_style.c ****     else return list->style_list[0];
 5646              		.loc 1 687 36 is_stmt 0 discriminator 1 view .LVU2062
 5647 0014 0368     		ldr	r3, [r0]
 687:lvgl/src/lv_core/lv_style.c ****     else return list->style_list[0];
 5648              		.loc 1 687 48 discriminator 1 view .LVU2063
 5649 0016 5868     		ldr	r0, [r3, #4]
 5650              	.LVL590:
 687:lvgl/src/lv_core/lv_style.c ****     else return list->style_list[0];
 5651              		.loc 1 687 48 discriminator 1 view .LVU2064
 5652 0018 7047     		bx	lr
 5653              	.LVL591:
 5654              	.L339:
 686:lvgl/src/lv_core/lv_style.c ****     if(list->has_trans) return list->style_list[1];
 5655              		.loc 1 686 33 view .LVU2065
 5656 001a 0020     		movs	r0, #0
 5657              	.LVL592:
 689:lvgl/src/lv_core/lv_style.c **** 
 5658              		.loc 1 689 1 view .LVU2066
 5659 001c 7047     		bx	lr
 5660              		.cfi_endproc
 5661              	.LFE476:
 5663              		.section	.text._lv_style_list_get_transition_style,"ax",%progbits
 5664              		.align	1
 5665              		.global	_lv_style_list_get_transition_style
 5666              		.syntax unified
 5667              		.thumb
 5668              		.thumb_func
 5669              		.fpu fpv4-sp-d16
 5671              	_lv_style_list_get_transition_style:
 5672              	.LVL593:
 5673              	.LFB477:
 697:lvgl/src/lv_core/lv_style.c ****     LV_ASSERT_STYLE_LIST(list);
 5674              		.loc 1 697 1 is_stmt 1 view -0
 5675              		.cfi_startproc
 5676              		@ args = 0, pretend = 0, frame = 0
 5677              		@ frame_needed = 0, uses_anonymous_args = 0
 5678              		@ link register save eliminated.
ARM GAS  D:\Temp\cceOI0TF.s 			page 164


 698:lvgl/src/lv_core/lv_style.c **** 
 5679              		.loc 1 698 31 view .LVU2068
 700:lvgl/src/lv_core/lv_style.c ****     return list->style_list[0];
 5680              		.loc 1 700 5 view .LVU2069
 700:lvgl/src/lv_core/lv_style.c ****     return list->style_list[0];
 5681              		.loc 1 700 7 is_stmt 0 view .LVU2070
 5682 0000 90F90430 		ldrsb	r3, [r0, #4]
 5683 0004 002B     		cmp	r3, #0
 5684 0006 02DA     		bge	.L343
 701:lvgl/src/lv_core/lv_style.c **** }
 5685              		.loc 1 701 5 is_stmt 1 view .LVU2071
 701:lvgl/src/lv_core/lv_style.c **** }
 5686              		.loc 1 701 16 is_stmt 0 view .LVU2072
 5687 0008 0368     		ldr	r3, [r0]
 701:lvgl/src/lv_core/lv_style.c **** }
 5688              		.loc 1 701 28 view .LVU2073
 5689 000a 1868     		ldr	r0, [r3]
 5690              	.LVL594:
 701:lvgl/src/lv_core/lv_style.c **** }
 5691              		.loc 1 701 28 view .LVU2074
 5692 000c 7047     		bx	lr
 5693              	.LVL595:
 5694              	.L343:
 700:lvgl/src/lv_core/lv_style.c ****     return list->style_list[0];
 5695              		.loc 1 700 33 view .LVU2075
 5696 000e 0020     		movs	r0, #0
 5697              	.LVL596:
 702:lvgl/src/lv_core/lv_style.c **** 
 5698              		.loc 1 702 1 view .LVU2076
 5699 0010 7047     		bx	lr
 5700              		.cfi_endproc
 5701              	.LFE477:
 5703              		.section	.text._lv_style_list_reset,"ax",%progbits
 5704              		.align	1
 5705              		.global	_lv_style_list_reset
 5706              		.syntax unified
 5707              		.thumb
 5708              		.thumb_func
 5709              		.fpu fpv4-sp-d16
 5711              	_lv_style_list_reset:
 5712              	.LVL597:
 5713              	.LFB465:
 286:lvgl/src/lv_core/lv_style.c ****     LV_ASSERT_STYLE_LIST(list);
 5714              		.loc 1 286 1 is_stmt 1 view -0
 5715              		.cfi_startproc
 5716              		@ args = 0, pretend = 0, frame = 0
 5717              		@ frame_needed = 0, uses_anonymous_args = 0
 287:lvgl/src/lv_core/lv_style.c **** 
 5718              		.loc 1 287 31 view .LVU2078
 289:lvgl/src/lv_core/lv_style.c **** 
 5719              		.loc 1 289 5 view .LVU2079
 289:lvgl/src/lv_core/lv_style.c **** 
 5720              		.loc 1 289 7 is_stmt 0 view .LVU2080
 5721 0000 98B3     		cbz	r0, .L350
 286:lvgl/src/lv_core/lv_style.c ****     LV_ASSERT_STYLE_LIST(list);
 5722              		.loc 1 286 1 view .LVU2081
 5723 0002 38B5     		push	{r3, r4, r5, lr}
ARM GAS  D:\Temp\cceOI0TF.s 			page 165


 5724              	.LCFI49:
 5725              		.cfi_def_cfa_offset 16
 5726              		.cfi_offset 3, -16
 5727              		.cfi_offset 4, -12
 5728              		.cfi_offset 5, -8
 5729              		.cfi_offset 14, -4
 5730 0004 0446     		mov	r4, r0
 291:lvgl/src/lv_core/lv_style.c ****         lv_style_t * local = lv_style_list_get_local_style(list);
 5731              		.loc 1 291 5 is_stmt 1 view .LVU2082
 291:lvgl/src/lv_core/lv_style.c ****         lv_style_t * local = lv_style_list_get_local_style(list);
 5732              		.loc 1 291 8 is_stmt 0 view .LVU2083
 5733 0006 0379     		ldrb	r3, [r0, #4]	@ zero_extendqisi2
 291:lvgl/src/lv_core/lv_style.c ****         lv_style_t * local = lv_style_list_get_local_style(list);
 5734              		.loc 1 291 7 view .LVU2084
 5735 0008 13F0400F 		tst	r3, #64
 5736 000c 08D0     		beq	.L346
 5737              	.LBB736:
 292:lvgl/src/lv_core/lv_style.c ****         if(local) {
 5738              		.loc 1 292 9 is_stmt 1 view .LVU2085
 292:lvgl/src/lv_core/lv_style.c ****         if(local) {
 5739              		.loc 1 292 30 is_stmt 0 view .LVU2086
 5740 000e FFF7FEFF 		bl	lv_style_list_get_local_style
 5741              	.LVL598:
 293:lvgl/src/lv_core/lv_style.c ****             lv_style_reset(local);
 5742              		.loc 1 293 9 is_stmt 1 view .LVU2087
 293:lvgl/src/lv_core/lv_style.c ****             lv_style_reset(local);
 5743              		.loc 1 293 11 is_stmt 0 view .LVU2088
 5744 0012 0546     		mov	r5, r0
 5745 0014 20B1     		cbz	r0, .L346
 294:lvgl/src/lv_core/lv_style.c ****             lv_mem_free(local);
 5746              		.loc 1 294 13 is_stmt 1 view .LVU2089
 5747 0016 FFF7FEFF 		bl	lv_style_reset
 5748              	.LVL599:
 295:lvgl/src/lv_core/lv_style.c ****         }
 5749              		.loc 1 295 13 view .LVU2090
 5750 001a 2846     		mov	r0, r5
 5751 001c FFF7FEFF 		bl	lv_mem_free
 5752              	.LVL600:
 5753              	.L346:
 295:lvgl/src/lv_core/lv_style.c ****         }
 5754              		.loc 1 295 13 is_stmt 0 view .LVU2091
 5755              	.LBE736:
 299:lvgl/src/lv_core/lv_style.c ****         lv_style_t * trans = _lv_style_list_get_transition_style(list);
 5756              		.loc 1 299 5 is_stmt 1 view .LVU2092
 299:lvgl/src/lv_core/lv_style.c ****         lv_style_t * trans = _lv_style_list_get_transition_style(list);
 5757              		.loc 1 299 7 is_stmt 0 view .LVU2093
 5758 0020 94F90430 		ldrsb	r3, [r4, #4]
 5759 0024 002B     		cmp	r3, #0
 5760 0026 10DB     		blt	.L353
 5761              	.L347:
 307:lvgl/src/lv_core/lv_style.c ****     list->style_list = NULL;
 5762              		.loc 1 307 5 is_stmt 1 view .LVU2094
 307:lvgl/src/lv_core/lv_style.c ****     list->style_list = NULL;
 5763              		.loc 1 307 24 is_stmt 0 view .LVU2095
 5764 0028 2379     		ldrb	r3, [r4, #4]	@ zero_extendqisi2
 307:lvgl/src/lv_core/lv_style.c ****     list->style_list = NULL;
 5765              		.loc 1 307 7 view .LVU2096
ARM GAS  D:\Temp\cceOI0TF.s 			page 166


 5766 002a 13F03F0F 		tst	r3, #63
 5767 002e 18D1     		bne	.L354
 5768              	.L348:
 308:lvgl/src/lv_core/lv_style.c ****     list->style_cnt = 0;
 5769              		.loc 1 308 5 is_stmt 1 view .LVU2097
 308:lvgl/src/lv_core/lv_style.c ****     list->style_cnt = 0;
 5770              		.loc 1 308 22 is_stmt 0 view .LVU2098
 5771 0030 0022     		movs	r2, #0
 5772 0032 2260     		str	r2, [r4]
 309:lvgl/src/lv_core/lv_style.c ****     list->has_local = 0;
 5773              		.loc 1 309 5 is_stmt 1 view .LVU2099
 309:lvgl/src/lv_core/lv_style.c ****     list->has_local = 0;
 5774              		.loc 1 309 21 is_stmt 0 view .LVU2100
 5775 0034 2379     		ldrb	r3, [r4, #4]	@ zero_extendqisi2
 310:lvgl/src/lv_core/lv_style.c ****     list->has_trans = 0;
 5776              		.loc 1 310 5 is_stmt 1 view .LVU2101
 311:lvgl/src/lv_core/lv_style.c ****     list->skip_trans = 0;
 5777              		.loc 1 311 5 view .LVU2102
 311:lvgl/src/lv_core/lv_style.c ****     list->skip_trans = 0;
 5778              		.loc 1 311 21 is_stmt 0 view .LVU2103
 5779 0036 03F08003 		and	r3, r3, #128
 5780 003a 62F3C713 		bfi	r3, r2, #7, #1
 5781 003e 2371     		strb	r3, [r4, #4]
 312:lvgl/src/lv_core/lv_style.c **** 
 5782              		.loc 1 312 5 is_stmt 1 view .LVU2104
 312:lvgl/src/lv_core/lv_style.c **** 
 5783              		.loc 1 312 22 is_stmt 0 view .LVU2105
 5784 0040 6379     		ldrb	r3, [r4, #5]	@ zero_extendqisi2
 5785 0042 62F30003 		bfi	r3, r2, #0, #1
 5786 0046 6371     		strb	r3, [r4, #5]
 316:lvgl/src/lv_core/lv_style.c **** 
 5787              		.loc 1 316 1 view .LVU2106
 5788 0048 38BD     		pop	{r3, r4, r5, pc}
 5789              	.LVL601:
 5790              	.L353:
 5791              	.LBB737:
 300:lvgl/src/lv_core/lv_style.c ****         if(trans) {
 5792              		.loc 1 300 9 is_stmt 1 view .LVU2107
 300:lvgl/src/lv_core/lv_style.c ****         if(trans) {
 5793              		.loc 1 300 30 is_stmt 0 view .LVU2108
 5794 004a 2046     		mov	r0, r4
 5795 004c FFF7FEFF 		bl	_lv_style_list_get_transition_style
 5796              	.LVL602:
 301:lvgl/src/lv_core/lv_style.c ****             lv_style_reset(trans);
 5797              		.loc 1 301 9 is_stmt 1 view .LVU2109
 301:lvgl/src/lv_core/lv_style.c ****             lv_style_reset(trans);
 5798              		.loc 1 301 11 is_stmt 0 view .LVU2110
 5799 0050 0546     		mov	r5, r0
 5800 0052 0028     		cmp	r0, #0
 5801 0054 E8D0     		beq	.L347
 302:lvgl/src/lv_core/lv_style.c ****             lv_mem_free(trans);
 5802              		.loc 1 302 13 is_stmt 1 view .LVU2111
 5803 0056 FFF7FEFF 		bl	lv_style_reset
 5804              	.LVL603:
 303:lvgl/src/lv_core/lv_style.c ****         }
 5805              		.loc 1 303 13 view .LVU2112
 5806 005a 2846     		mov	r0, r5
ARM GAS  D:\Temp\cceOI0TF.s 			page 167


 5807 005c FFF7FEFF 		bl	lv_mem_free
 5808              	.LVL604:
 5809 0060 E2E7     		b	.L347
 5810              	.LVL605:
 5811              	.L354:
 303:lvgl/src/lv_core/lv_style.c ****         }
 5812              		.loc 1 303 13 is_stmt 0 view .LVU2113
 5813              	.LBE737:
 307:lvgl/src/lv_core/lv_style.c ****     list->style_list = NULL;
 5814              		.loc 1 307 29 is_stmt 1 discriminator 1 view .LVU2114
 5815 0062 2068     		ldr	r0, [r4]
 5816 0064 FFF7FEFF 		bl	lv_mem_free
 5817              	.LVL606:
 5818 0068 E2E7     		b	.L348
 5819              	.LVL607:
 5820              	.L350:
 5821              	.LCFI50:
 5822              		.cfi_def_cfa_offset 0
 5823              		.cfi_restore 3
 5824              		.cfi_restore 4
 5825              		.cfi_restore 5
 5826              		.cfi_restore 14
 307:lvgl/src/lv_core/lv_style.c ****     list->style_list = NULL;
 5827              		.loc 1 307 29 is_stmt 0 discriminator 1 view .LVU2115
 5828 006a 7047     		bx	lr
 5829              		.cfi_endproc
 5830              	.LFE465:
 5832              		.section	.text.lv_style_list_copy,"ax",%progbits
 5833              		.align	1
 5834              		.global	lv_style_list_copy
 5835              		.syntax unified
 5836              		.thumb
 5837              		.thumb_func
 5838              		.fpu fpv4-sp-d16
 5840              	lv_style_list_copy:
 5841              	.LVL608:
 5842              	.LFB462:
 151:lvgl/src/lv_core/lv_style.c ****     LV_ASSERT_STYLE_LIST(list_dest);
 5843              		.loc 1 151 1 is_stmt 1 view -0
 5844              		.cfi_startproc
 5845              		@ args = 0, pretend = 0, frame = 0
 5846              		@ frame_needed = 0, uses_anonymous_args = 0
 151:lvgl/src/lv_core/lv_style.c ****     LV_ASSERT_STYLE_LIST(list_dest);
 5847              		.loc 1 151 1 is_stmt 0 view .LVU2117
 5848 0000 38B5     		push	{r3, r4, r5, lr}
 5849              	.LCFI51:
 5850              		.cfi_def_cfa_offset 16
 5851              		.cfi_offset 3, -16
 5852              		.cfi_offset 4, -12
 5853              		.cfi_offset 5, -8
 5854              		.cfi_offset 14, -4
 5855 0002 0546     		mov	r5, r0
 5856 0004 0C46     		mov	r4, r1
 152:lvgl/src/lv_core/lv_style.c ****     LV_ASSERT_STYLE_LIST(list_src);
 5857              		.loc 1 152 36 is_stmt 1 view .LVU2118
 153:lvgl/src/lv_core/lv_style.c **** 
 5858              		.loc 1 153 35 view .LVU2119
ARM GAS  D:\Temp\cceOI0TF.s 			page 168


 155:lvgl/src/lv_core/lv_style.c **** 
 5859              		.loc 1 155 5 view .LVU2120
 5860 0006 FFF7FEFF 		bl	_lv_style_list_reset
 5861              	.LVL609:
 157:lvgl/src/lv_core/lv_style.c **** 
 5862              		.loc 1 157 5 view .LVU2121
 157:lvgl/src/lv_core/lv_style.c **** 
 5863              		.loc 1 157 16 is_stmt 0 view .LVU2122
 5864 000a 2368     		ldr	r3, [r4]
 157:lvgl/src/lv_core/lv_style.c **** 
 5865              		.loc 1 157 7 view .LVU2123
 5866 000c 002B     		cmp	r3, #0
 5867 000e 5AD0     		beq	.L355
 160:lvgl/src/lv_core/lv_style.c ****         if(list_src->has_trans) {
 5868              		.loc 1 160 5 is_stmt 1 view .LVU2124
 160:lvgl/src/lv_core/lv_style.c ****         if(list_src->has_trans) {
 5869              		.loc 1 160 28 is_stmt 0 view .LVU2125
 5870 0010 2379     		ldrb	r3, [r4, #4]	@ zero_extendqisi2
 160:lvgl/src/lv_core/lv_style.c ****         if(list_src->has_trans) {
 5871              		.loc 1 160 7 view .LVU2126
 5872 0012 13F0400F 		tst	r3, #64
 5873 0016 2FD1     		bne	.L357
 161:lvgl/src/lv_core/lv_style.c ****             list_dest->style_list = lv_mem_alloc((list_src->style_cnt - 1) * sizeof(lv_style_t *));
 5874              		.loc 1 161 9 is_stmt 1 view .LVU2127
 161:lvgl/src/lv_core/lv_style.c ****             list_dest->style_list = lv_mem_alloc((list_src->style_cnt - 1) * sizeof(lv_style_t *));
 5875              		.loc 1 161 11 is_stmt 0 view .LVU2128
 5876 0018 13F0800F 		tst	r3, #128
 5877 001c 13D1     		bne	.L362
 167:lvgl/src/lv_core/lv_style.c ****             _lv_memcpy(list_dest->style_list, list_src->style_list, list_src->style_cnt * sizeof(lv
 5878              		.loc 1 167 13 is_stmt 1 view .LVU2129
 167:lvgl/src/lv_core/lv_style.c ****             _lv_memcpy(list_dest->style_list, list_src->style_list, list_src->style_cnt * sizeof(lv
 5879              		.loc 1 167 58 is_stmt 0 view .LVU2130
 5880 001e 2079     		ldrb	r0, [r4, #4]	@ zero_extendqisi2
 5881 0020 00F03F00 		and	r0, r0, #63
 167:lvgl/src/lv_core/lv_style.c ****             _lv_memcpy(list_dest->style_list, list_src->style_list, list_src->style_cnt * sizeof(lv
 5882              		.loc 1 167 37 view .LVU2131
 5883 0024 8000     		lsls	r0, r0, #2
 5884 0026 FFF7FEFF 		bl	lv_mem_alloc
 5885              	.LVL610:
 167:lvgl/src/lv_core/lv_style.c ****             _lv_memcpy(list_dest->style_list, list_src->style_list, list_src->style_cnt * sizeof(lv
 5886              		.loc 1 167 35 view .LVU2132
 5887 002a 2860     		str	r0, [r5]
 168:lvgl/src/lv_core/lv_style.c ****             list_dest->style_cnt = list_src->style_cnt;
 5888              		.loc 1 168 13 is_stmt 1 view .LVU2133
 168:lvgl/src/lv_core/lv_style.c ****             list_dest->style_cnt = list_src->style_cnt;
 5889              		.loc 1 168 77 is_stmt 0 view .LVU2134
 5890 002c 2279     		ldrb	r2, [r4, #4]	@ zero_extendqisi2
 5891 002e 02F03F02 		and	r2, r2, #63
 168:lvgl/src/lv_core/lv_style.c ****             list_dest->style_cnt = list_src->style_cnt;
 5892              		.loc 1 168 13 view .LVU2135
 5893 0032 9200     		lsls	r2, r2, #2
 5894 0034 2168     		ldr	r1, [r4]
 5895 0036 FFF7FEFF 		bl	_lv_memcpy
 5896              	.LVL611:
 169:lvgl/src/lv_core/lv_style.c ****         }
 5897              		.loc 1 169 13 is_stmt 1 view .LVU2136
 169:lvgl/src/lv_core/lv_style.c ****         }
ARM GAS  D:\Temp\cceOI0TF.s 			page 169


 5898              		.loc 1 169 44 is_stmt 0 view .LVU2137
 5899 003a 2279     		ldrb	r2, [r4, #4]	@ zero_extendqisi2
 169:lvgl/src/lv_core/lv_style.c ****         }
 5900              		.loc 1 169 34 view .LVU2138
 5901 003c 2B79     		ldrb	r3, [r5, #4]	@ zero_extendqisi2
 5902 003e 62F30503 		bfi	r3, r2, #0, #6
 5903 0042 2B71     		strb	r3, [r5, #4]
 5904 0044 3FE0     		b	.L355
 5905              	.L362:
 162:lvgl/src/lv_core/lv_style.c ****             _lv_memcpy(list_dest->style_list, list_src->style_list + 1, (list_src->style_cnt - 1) *
 5906              		.loc 1 162 13 is_stmt 1 view .LVU2139
 162:lvgl/src/lv_core/lv_style.c ****             _lv_memcpy(list_dest->style_list, list_src->style_list + 1, (list_src->style_cnt - 1) *
 5907              		.loc 1 162 59 is_stmt 0 view .LVU2140
 5908 0046 03F03F00 		and	r0, r3, #63
 162:lvgl/src/lv_core/lv_style.c ****             _lv_memcpy(list_dest->style_list, list_src->style_list + 1, (list_src->style_cnt - 1) *
 5909              		.loc 1 162 71 view .LVU2141
 5910 004a 0138     		subs	r0, r0, #1
 162:lvgl/src/lv_core/lv_style.c ****             _lv_memcpy(list_dest->style_list, list_src->style_list + 1, (list_src->style_cnt - 1) *
 5911              		.loc 1 162 37 view .LVU2142
 5912 004c 8000     		lsls	r0, r0, #2
 5913 004e FFF7FEFF 		bl	lv_mem_alloc
 5914              	.LVL612:
 162:lvgl/src/lv_core/lv_style.c ****             _lv_memcpy(list_dest->style_list, list_src->style_list + 1, (list_src->style_cnt - 1) *
 5915              		.loc 1 162 35 view .LVU2143
 5916 0052 2860     		str	r0, [r5]
 163:lvgl/src/lv_core/lv_style.c ****             list_dest->style_cnt = list_src->style_cnt - 1;
 5917              		.loc 1 163 13 is_stmt 1 view .LVU2144
 163:lvgl/src/lv_core/lv_style.c ****             list_dest->style_cnt = list_src->style_cnt - 1;
 5918              		.loc 1 163 55 is_stmt 0 view .LVU2145
 5919 0054 2168     		ldr	r1, [r4]
 163:lvgl/src/lv_core/lv_style.c ****             list_dest->style_cnt = list_src->style_cnt - 1;
 5920              		.loc 1 163 82 view .LVU2146
 5921 0056 2279     		ldrb	r2, [r4, #4]	@ zero_extendqisi2
 5922 0058 02F03F02 		and	r2, r2, #63
 163:lvgl/src/lv_core/lv_style.c ****             list_dest->style_cnt = list_src->style_cnt - 1;
 5923              		.loc 1 163 94 view .LVU2147
 5924 005c 013A     		subs	r2, r2, #1
 163:lvgl/src/lv_core/lv_style.c ****             list_dest->style_cnt = list_src->style_cnt - 1;
 5925              		.loc 1 163 13 view .LVU2148
 5926 005e 9200     		lsls	r2, r2, #2
 5927 0060 0431     		adds	r1, r1, #4
 5928 0062 FFF7FEFF 		bl	_lv_memcpy
 5929              	.LVL613:
 164:lvgl/src/lv_core/lv_style.c ****         }
 5930              		.loc 1 164 13 is_stmt 1 view .LVU2149
 164:lvgl/src/lv_core/lv_style.c ****         }
 5931              		.loc 1 164 44 is_stmt 0 view .LVU2150
 5932 0066 2379     		ldrb	r3, [r4, #4]	@ zero_extendqisi2
 5933 0068 03F03F03 		and	r3, r3, #63
 164:lvgl/src/lv_core/lv_style.c ****         }
 5934              		.loc 1 164 56 view .LVU2151
 5935 006c 013B     		subs	r3, r3, #1
 164:lvgl/src/lv_core/lv_style.c ****         }
 5936              		.loc 1 164 34 view .LVU2152
 5937 006e 2A79     		ldrb	r2, [r5, #4]	@ zero_extendqisi2
 5938 0070 63F30502 		bfi	r2, r3, #0, #6
 5939 0074 2A71     		strb	r2, [r5, #4]
ARM GAS  D:\Temp\cceOI0TF.s 			page 170


 5940 0076 26E0     		b	.L355
 5941              	.L357:
 5942              	.LBB738:
 173:lvgl/src/lv_core/lv_style.c ****             list_dest->style_list = lv_mem_alloc((list_src->style_cnt - 2) * sizeof(lv_style_t *));
 5943              		.loc 1 173 9 is_stmt 1 view .LVU2153
 173:lvgl/src/lv_core/lv_style.c ****             list_dest->style_list = lv_mem_alloc((list_src->style_cnt - 2) * sizeof(lv_style_t *));
 5944              		.loc 1 173 11 is_stmt 0 view .LVU2154
 5945 0078 13F0800F 		tst	r3, #128
 5946 007c 24D1     		bne	.L363
 179:lvgl/src/lv_core/lv_style.c ****             _lv_memcpy(list_dest->style_list, list_src->style_list + 1, (list_src->style_cnt - 1) *
 5947              		.loc 1 179 13 is_stmt 1 view .LVU2155
 179:lvgl/src/lv_core/lv_style.c ****             _lv_memcpy(list_dest->style_list, list_src->style_list + 1, (list_src->style_cnt - 1) *
 5948              		.loc 1 179 59 is_stmt 0 view .LVU2156
 5949 007e 2079     		ldrb	r0, [r4, #4]	@ zero_extendqisi2
 5950 0080 00F03F00 		and	r0, r0, #63
 179:lvgl/src/lv_core/lv_style.c ****             _lv_memcpy(list_dest->style_list, list_src->style_list + 1, (list_src->style_cnt - 1) *
 5951              		.loc 1 179 71 view .LVU2157
 5952 0084 0138     		subs	r0, r0, #1
 179:lvgl/src/lv_core/lv_style.c ****             _lv_memcpy(list_dest->style_list, list_src->style_list + 1, (list_src->style_cnt - 1) *
 5953              		.loc 1 179 37 view .LVU2158
 5954 0086 8000     		lsls	r0, r0, #2
 5955 0088 FFF7FEFF 		bl	lv_mem_alloc
 5956              	.LVL614:
 179:lvgl/src/lv_core/lv_style.c ****             _lv_memcpy(list_dest->style_list, list_src->style_list + 1, (list_src->style_cnt - 1) *
 5957              		.loc 1 179 35 view .LVU2159
 5958 008c 2860     		str	r0, [r5]
 180:lvgl/src/lv_core/lv_style.c ****             list_dest->style_cnt = list_src->style_cnt - 1;
 5959              		.loc 1 180 13 is_stmt 1 view .LVU2160
 180:lvgl/src/lv_core/lv_style.c ****             list_dest->style_cnt = list_src->style_cnt - 1;
 5960              		.loc 1 180 55 is_stmt 0 view .LVU2161
 5961 008e 2168     		ldr	r1, [r4]
 180:lvgl/src/lv_core/lv_style.c ****             list_dest->style_cnt = list_src->style_cnt - 1;
 5962              		.loc 1 180 82 view .LVU2162
 5963 0090 2279     		ldrb	r2, [r4, #4]	@ zero_extendqisi2
 5964 0092 02F03F02 		and	r2, r2, #63
 180:lvgl/src/lv_core/lv_style.c ****             list_dest->style_cnt = list_src->style_cnt - 1;
 5965              		.loc 1 180 94 view .LVU2163
 5966 0096 013A     		subs	r2, r2, #1
 180:lvgl/src/lv_core/lv_style.c ****             list_dest->style_cnt = list_src->style_cnt - 1;
 5967              		.loc 1 180 13 view .LVU2164
 5968 0098 9200     		lsls	r2, r2, #2
 5969 009a 0431     		adds	r1, r1, #4
 5970 009c FFF7FEFF 		bl	_lv_memcpy
 5971              	.LVL615:
 181:lvgl/src/lv_core/lv_style.c ****         }
 5972              		.loc 1 181 13 is_stmt 1 view .LVU2165
 181:lvgl/src/lv_core/lv_style.c ****         }
 5973              		.loc 1 181 44 is_stmt 0 view .LVU2166
 5974 00a0 2379     		ldrb	r3, [r4, #4]	@ zero_extendqisi2
 5975 00a2 03F03F03 		and	r3, r3, #63
 181:lvgl/src/lv_core/lv_style.c ****         }
 5976              		.loc 1 181 56 view .LVU2167
 5977 00a6 013B     		subs	r3, r3, #1
 181:lvgl/src/lv_core/lv_style.c ****         }
 5978              		.loc 1 181 34 view .LVU2168
 5979 00a8 2A79     		ldrb	r2, [r5, #4]	@ zero_extendqisi2
 5980 00aa 63F30502 		bfi	r2, r3, #0, #6
ARM GAS  D:\Temp\cceOI0TF.s 			page 171


 5981 00ae 2A71     		strb	r2, [r5, #4]
 5982              	.L360:
 184:lvgl/src/lv_core/lv_style.c ****         lv_style_copy(local_style, get_alloc_local_style((lv_style_list_t *)list_src));
 5983              		.loc 1 184 9 is_stmt 1 view .LVU2169
 184:lvgl/src/lv_core/lv_style.c ****         lv_style_copy(local_style, get_alloc_local_style((lv_style_list_t *)list_src));
 5984              		.loc 1 184 36 is_stmt 0 view .LVU2170
 5985 00b0 2846     		mov	r0, r5
 5986 00b2 FFF7FEFF 		bl	get_alloc_local_style
 5987              	.LVL616:
 5988 00b6 0546     		mov	r5, r0
 5989              	.LVL617:
 185:lvgl/src/lv_core/lv_style.c ****     }
 5990              		.loc 1 185 9 is_stmt 1 view .LVU2171
 185:lvgl/src/lv_core/lv_style.c ****     }
 5991              		.loc 1 185 36 is_stmt 0 view .LVU2172
 5992 00b8 2046     		mov	r0, r4
 5993              	.LVL618:
 185:lvgl/src/lv_core/lv_style.c ****     }
 5994              		.loc 1 185 36 view .LVU2173
 5995 00ba FFF7FEFF 		bl	get_alloc_local_style
 5996              	.LVL619:
 185:lvgl/src/lv_core/lv_style.c ****     }
 5997              		.loc 1 185 9 view .LVU2174
 5998 00be 0146     		mov	r1, r0
 5999 00c0 2846     		mov	r0, r5
 6000 00c2 FFF7FEFF 		bl	lv_style_copy
 6001              	.LVL620:
 6002              	.L355:
 185:lvgl/src/lv_core/lv_style.c ****     }
 6003              		.loc 1 185 9 view .LVU2175
 6004              	.LBE738:
 187:lvgl/src/lv_core/lv_style.c **** 
 6005              		.loc 1 187 1 view .LVU2176
 6006 00c6 38BD     		pop	{r3, r4, r5, pc}
 6007              	.LVL621:
 6008              	.L363:
 6009              	.LBB739:
 174:lvgl/src/lv_core/lv_style.c ****             _lv_memcpy(list_dest->style_list, list_src->style_list + 2, (list_src->style_cnt - 2) *
 6010              		.loc 1 174 13 is_stmt 1 view .LVU2177
 174:lvgl/src/lv_core/lv_style.c ****             _lv_memcpy(list_dest->style_list, list_src->style_list + 2, (list_src->style_cnt - 2) *
 6011              		.loc 1 174 59 is_stmt 0 view .LVU2178
 6012 00c8 2079     		ldrb	r0, [r4, #4]	@ zero_extendqisi2
 6013 00ca 00F03F00 		and	r0, r0, #63
 174:lvgl/src/lv_core/lv_style.c ****             _lv_memcpy(list_dest->style_list, list_src->style_list + 2, (list_src->style_cnt - 2) *
 6014              		.loc 1 174 71 view .LVU2179
 6015 00ce 0238     		subs	r0, r0, #2
 174:lvgl/src/lv_core/lv_style.c ****             _lv_memcpy(list_dest->style_list, list_src->style_list + 2, (list_src->style_cnt - 2) *
 6016              		.loc 1 174 37 view .LVU2180
 6017 00d0 8000     		lsls	r0, r0, #2
 6018 00d2 FFF7FEFF 		bl	lv_mem_alloc
 6019              	.LVL622:
 174:lvgl/src/lv_core/lv_style.c ****             _lv_memcpy(list_dest->style_list, list_src->style_list + 2, (list_src->style_cnt - 2) *
 6020              		.loc 1 174 35 view .LVU2181
 6021 00d6 2860     		str	r0, [r5]
 175:lvgl/src/lv_core/lv_style.c ****             list_dest->style_cnt = list_src->style_cnt - 2;
 6022              		.loc 1 175 13 is_stmt 1 view .LVU2182
 175:lvgl/src/lv_core/lv_style.c ****             list_dest->style_cnt = list_src->style_cnt - 2;
ARM GAS  D:\Temp\cceOI0TF.s 			page 172


 6023              		.loc 1 175 55 is_stmt 0 view .LVU2183
 6024 00d8 2168     		ldr	r1, [r4]
 175:lvgl/src/lv_core/lv_style.c ****             list_dest->style_cnt = list_src->style_cnt - 2;
 6025              		.loc 1 175 82 view .LVU2184
 6026 00da 2279     		ldrb	r2, [r4, #4]	@ zero_extendqisi2
 6027 00dc 02F03F02 		and	r2, r2, #63
 175:lvgl/src/lv_core/lv_style.c ****             list_dest->style_cnt = list_src->style_cnt - 2;
 6028              		.loc 1 175 94 view .LVU2185
 6029 00e0 023A     		subs	r2, r2, #2
 175:lvgl/src/lv_core/lv_style.c ****             list_dest->style_cnt = list_src->style_cnt - 2;
 6030              		.loc 1 175 13 view .LVU2186
 6031 00e2 9200     		lsls	r2, r2, #2
 6032 00e4 0831     		adds	r1, r1, #8
 6033 00e6 FFF7FEFF 		bl	_lv_memcpy
 6034              	.LVL623:
 176:lvgl/src/lv_core/lv_style.c ****         }
 6035              		.loc 1 176 13 is_stmt 1 view .LVU2187
 176:lvgl/src/lv_core/lv_style.c ****         }
 6036              		.loc 1 176 44 is_stmt 0 view .LVU2188
 6037 00ea 2379     		ldrb	r3, [r4, #4]	@ zero_extendqisi2
 6038 00ec 03F03F03 		and	r3, r3, #63
 176:lvgl/src/lv_core/lv_style.c ****         }
 6039              		.loc 1 176 56 view .LVU2189
 6040 00f0 023B     		subs	r3, r3, #2
 176:lvgl/src/lv_core/lv_style.c ****         }
 6041              		.loc 1 176 34 view .LVU2190
 6042 00f2 2A79     		ldrb	r2, [r5, #4]	@ zero_extendqisi2
 6043 00f4 63F30502 		bfi	r2, r3, #0, #6
 6044 00f8 2A71     		strb	r2, [r5, #4]
 6045 00fa D9E7     		b	.L360
 6046              	.LBE739:
 6047              		.cfi_endproc
 6048              	.LFE462:
 6050              		.section	.text._lv_style_list_add_trans_style,"ax",%progbits
 6051              		.align	1
 6052              		.global	_lv_style_list_add_trans_style
 6053              		.syntax unified
 6054              		.thumb
 6055              		.thumb_func
 6056              		.fpu fpv4-sp-d16
 6058              	_lv_style_list_add_trans_style:
 6059              	.LVL624:
 6060              	.LFB478:
 710:lvgl/src/lv_core/lv_style.c ****     LV_ASSERT_STYLE_LIST(list);
 6061              		.loc 1 710 1 is_stmt 1 view -0
 6062              		.cfi_startproc
 6063              		@ args = 0, pretend = 0, frame = 0
 6064              		@ frame_needed = 0, uses_anonymous_args = 0
 710:lvgl/src/lv_core/lv_style.c ****     LV_ASSERT_STYLE_LIST(list);
 6065              		.loc 1 710 1 is_stmt 0 view .LVU2192
 6066 0000 38B5     		push	{r3, r4, r5, lr}
 6067              	.LCFI52:
 6068              		.cfi_def_cfa_offset 16
 6069              		.cfi_offset 3, -16
 6070              		.cfi_offset 4, -12
 6071              		.cfi_offset 5, -8
 6072              		.cfi_offset 14, -4
ARM GAS  D:\Temp\cceOI0TF.s 			page 173


 6073 0002 0446     		mov	r4, r0
 711:lvgl/src/lv_core/lv_style.c ****     if(list->has_trans) return _lv_style_list_get_transition_style(list);
 6074              		.loc 1 711 31 is_stmt 1 view .LVU2193
 712:lvgl/src/lv_core/lv_style.c **** 
 6075              		.loc 1 712 5 view .LVU2194
 712:lvgl/src/lv_core/lv_style.c **** 
 6076              		.loc 1 712 7 is_stmt 0 view .LVU2195
 6077 0004 90F90430 		ldrsb	r3, [r0, #4]
 6078 0008 002B     		cmp	r3, #0
 6079 000a 1CDB     		blt	.L370
 714:lvgl/src/lv_core/lv_style.c ****     LV_ASSERT_MEM(trans_style);
 6080              		.loc 1 714 5 is_stmt 1 view .LVU2196
 714:lvgl/src/lv_core/lv_style.c ****     LV_ASSERT_MEM(trans_style);
 6081              		.loc 1 714 32 is_stmt 0 view .LVU2197
 6082 000c 0420     		movs	r0, #4
 6083              	.LVL625:
 714:lvgl/src/lv_core/lv_style.c ****     LV_ASSERT_MEM(trans_style);
 6084              		.loc 1 714 32 view .LVU2198
 6085 000e FFF7FEFF 		bl	lv_mem_alloc
 6086              	.LVL626:
 6087 0012 0546     		mov	r5, r0
 6088              	.LVL627:
 715:lvgl/src/lv_core/lv_style.c ****     if(trans_style == NULL) {
 6089              		.loc 1 715 5 is_stmt 1 view .LVU2199
 715:lvgl/src/lv_core/lv_style.c ****     if(trans_style == NULL) {
 6090              		.loc 1 715 5 view .LVU2200
 6091 0014 FFF7FEFF 		bl	lv_debug_check_null
 6092              	.LVL628:
 715:lvgl/src/lv_core/lv_style.c ****     if(trans_style == NULL) {
 6093              		.loc 1 715 5 is_stmt 0 view .LVU2201
 6094 0018 D0B1     		cbz	r0, .L371
 715:lvgl/src/lv_core/lv_style.c ****     if(trans_style == NULL) {
 6095              		.loc 1 715 31 is_stmt 1 discriminator 2 view .LVU2202
 716:lvgl/src/lv_core/lv_style.c ****         LV_LOG_WARN("lv_style_list_add_trans_style: couldn't create transition style");
 6096              		.loc 1 716 5 discriminator 2 view .LVU2203
 716:lvgl/src/lv_core/lv_style.c ****         LV_LOG_WARN("lv_style_list_add_trans_style: couldn't create transition style");
 6097              		.loc 1 716 7 is_stmt 0 discriminator 2 view .LVU2204
 6098 001a BDB1     		cbz	r5, .L364
 721:lvgl/src/lv_core/lv_style.c **** 
 6099              		.loc 1 721 5 is_stmt 1 view .LVU2205
 6100 001c 2846     		mov	r0, r5
 6101 001e FFF7FEFF 		bl	lv_style_init
 6102              	.LVL629:
 723:lvgl/src/lv_core/lv_style.c ****     list->has_trans = 1;
 6103              		.loc 1 723 5 view .LVU2206
 6104 0022 2946     		mov	r1, r5
 6105 0024 2046     		mov	r0, r4
 6106 0026 FFF7FEFF 		bl	_lv_style_list_add_style
 6107              	.LVL630:
 724:lvgl/src/lv_core/lv_style.c **** 
 6108              		.loc 1 724 5 view .LVU2207
 724:lvgl/src/lv_core/lv_style.c **** 
 6109              		.loc 1 724 21 is_stmt 0 view .LVU2208
 6110 002a 2379     		ldrb	r3, [r4, #4]	@ zero_extendqisi2
 6111 002c 43F08003 		orr	r3, r3, #128
 6112 0030 2371     		strb	r3, [r4, #4]
 727:lvgl/src/lv_core/lv_style.c ****         lv_style_t * tmp = list->style_list[0];
ARM GAS  D:\Temp\cceOI0TF.s 			page 174


 6113              		.loc 1 727 5 is_stmt 1 view .LVU2209
 727:lvgl/src/lv_core/lv_style.c ****         lv_style_t * tmp = list->style_list[0];
 6114              		.loc 1 727 7 is_stmt 0 view .LVU2210
 6115 0032 13F0400F 		tst	r3, #64
 6116 0036 09D0     		beq	.L364
 6117              	.LBB740:
 728:lvgl/src/lv_core/lv_style.c ****         list->style_list[0] = list->style_list[1];
 6118              		.loc 1 728 9 is_stmt 1 view .LVU2211
 728:lvgl/src/lv_core/lv_style.c ****         list->style_list[0] = list->style_list[1];
 6119              		.loc 1 728 32 is_stmt 0 view .LVU2212
 6120 0038 2368     		ldr	r3, [r4]
 728:lvgl/src/lv_core/lv_style.c ****         list->style_list[0] = list->style_list[1];
 6121              		.loc 1 728 22 view .LVU2213
 6122 003a 1A68     		ldr	r2, [r3]
 6123              	.LVL631:
 729:lvgl/src/lv_core/lv_style.c ****         list->style_list[1] = tmp;
 6124              		.loc 1 729 9 is_stmt 1 view .LVU2214
 729:lvgl/src/lv_core/lv_style.c ****         list->style_list[1] = tmp;
 6125              		.loc 1 729 29 is_stmt 0 view .LVU2215
 6126 003c 5968     		ldr	r1, [r3, #4]
 6127 003e 1960     		str	r1, [r3]
 730:lvgl/src/lv_core/lv_style.c ****     }
 6128              		.loc 1 730 9 is_stmt 1 view .LVU2216
 730:lvgl/src/lv_core/lv_style.c ****     }
 6129              		.loc 1 730 13 is_stmt 0 view .LVU2217
 6130 0040 2368     		ldr	r3, [r4]
 730:lvgl/src/lv_core/lv_style.c ****     }
 6131              		.loc 1 730 29 view .LVU2218
 6132 0042 5A60     		str	r2, [r3, #4]
 6133 0044 02E0     		b	.L364
 6134              	.LVL632:
 6135              	.L370:
 730:lvgl/src/lv_core/lv_style.c ****     }
 6136              		.loc 1 730 29 view .LVU2219
 6137              	.LBE740:
 712:lvgl/src/lv_core/lv_style.c **** 
 6138              		.loc 1 712 25 is_stmt 1 discriminator 1 view .LVU2220
 712:lvgl/src/lv_core/lv_style.c **** 
 6139              		.loc 1 712 32 is_stmt 0 discriminator 1 view .LVU2221
 6140 0046 FFF7FEFF 		bl	_lv_style_list_get_transition_style
 6141              	.LVL633:
 712:lvgl/src/lv_core/lv_style.c **** 
 6142              		.loc 1 712 32 discriminator 1 view .LVU2222
 6143 004a 0546     		mov	r5, r0
 6144              	.L364:
 733:lvgl/src/lv_core/lv_style.c **** 
 6145              		.loc 1 733 1 view .LVU2223
 6146 004c 2846     		mov	r0, r5
 6147 004e 38BD     		pop	{r3, r4, r5, pc}
 6148              	.LVL634:
 6149              	.L371:
 715:lvgl/src/lv_core/lv_style.c ****     if(trans_style == NULL) {
 6150              		.loc 1 715 5 is_stmt 1 discriminator 1 view .LVU2224
 715:lvgl/src/lv_core/lv_style.c ****     if(trans_style == NULL) {
 6151              		.loc 1 715 5 discriminator 1 view .LVU2225
 6152 0050 2A46     		mov	r2, r5
 6153 0052 0023     		movs	r3, #0
ARM GAS  D:\Temp\cceOI0TF.s 			page 175


 6154 0054 0148     		ldr	r0, .L372
 6155 0056 FFF7FEFF 		bl	lv_debug_log_error
 6156              	.LVL635:
 6157              	.L368:
 715:lvgl/src/lv_core/lv_style.c ****     if(trans_style == NULL) {
 6158              		.loc 1 715 5 discriminator 1 view .LVU2226
 715:lvgl/src/lv_core/lv_style.c ****     if(trans_style == NULL) {
 6159              		.loc 1 715 5 discriminator 1 view .LVU2227
 6160 005a FEE7     		b	.L368
 6161              	.L373:
 6162              		.align	2
 6163              	.L372:
 6164 005c 00000000 		.word	.LC0
 6165              		.cfi_endproc
 6166              	.LFE478:
 6168              		.section	.text._lv_style_list_set_local_int,"ax",%progbits
 6169              		.align	1
 6170              		.global	_lv_style_list_set_local_int
 6171              		.syntax unified
 6172              		.thumb
 6173              		.thumb_func
 6174              		.fpu fpv4-sp-d16
 6176              	_lv_style_list_set_local_int:
 6177              	.LVL636:
 6178              	.LFB479:
 744:lvgl/src/lv_core/lv_style.c ****     LV_ASSERT_STYLE_LIST(list);
 6179              		.loc 1 744 1 view -0
 6180              		.cfi_startproc
 6181              		@ args = 0, pretend = 0, frame = 0
 6182              		@ frame_needed = 0, uses_anonymous_args = 0
 744:lvgl/src/lv_core/lv_style.c ****     LV_ASSERT_STYLE_LIST(list);
 6183              		.loc 1 744 1 is_stmt 0 view .LVU2229
 6184 0000 38B5     		push	{r3, r4, r5, lr}
 6185              	.LCFI53:
 6186              		.cfi_def_cfa_offset 16
 6187              		.cfi_offset 3, -16
 6188              		.cfi_offset 4, -12
 6189              		.cfi_offset 5, -8
 6190              		.cfi_offset 14, -4
 6191 0002 0C46     		mov	r4, r1
 6192 0004 1546     		mov	r5, r2
 745:lvgl/src/lv_core/lv_style.c **** 
 6193              		.loc 1 745 31 is_stmt 1 view .LVU2230
 747:lvgl/src/lv_core/lv_style.c ****     _lv_style_set_int(local, prop, value);
 6194              		.loc 1 747 5 view .LVU2231
 747:lvgl/src/lv_core/lv_style.c ****     _lv_style_set_int(local, prop, value);
 6195              		.loc 1 747 26 is_stmt 0 view .LVU2232
 6196 0006 FFF7FEFF 		bl	get_alloc_local_style
 6197              	.LVL637:
 748:lvgl/src/lv_core/lv_style.c **** }
 6198              		.loc 1 748 5 is_stmt 1 view .LVU2233
 6199 000a 2A46     		mov	r2, r5
 6200 000c 2146     		mov	r1, r4
 6201 000e FFF7FEFF 		bl	_lv_style_set_int
 6202              	.LVL638:
 749:lvgl/src/lv_core/lv_style.c **** 
 6203              		.loc 1 749 1 is_stmt 0 view .LVU2234
ARM GAS  D:\Temp\cceOI0TF.s 			page 176


 6204 0012 38BD     		pop	{r3, r4, r5, pc}
 6205              		.cfi_endproc
 6206              	.LFE479:
 6208              		.section	.text._lv_style_list_set_local_opa,"ax",%progbits
 6209              		.align	1
 6210              		.global	_lv_style_list_set_local_opa
 6211              		.syntax unified
 6212              		.thumb
 6213              		.thumb_func
 6214              		.fpu fpv4-sp-d16
 6216              	_lv_style_list_set_local_opa:
 6217              	.LVL639:
 6218              	.LFB480:
 760:lvgl/src/lv_core/lv_style.c ****     LV_ASSERT_STYLE_LIST(list);
 6219              		.loc 1 760 1 is_stmt 1 view -0
 6220              		.cfi_startproc
 6221              		@ args = 0, pretend = 0, frame = 0
 6222              		@ frame_needed = 0, uses_anonymous_args = 0
 760:lvgl/src/lv_core/lv_style.c ****     LV_ASSERT_STYLE_LIST(list);
 6223              		.loc 1 760 1 is_stmt 0 view .LVU2236
 6224 0000 38B5     		push	{r3, r4, r5, lr}
 6225              	.LCFI54:
 6226              		.cfi_def_cfa_offset 16
 6227              		.cfi_offset 3, -16
 6228              		.cfi_offset 4, -12
 6229              		.cfi_offset 5, -8
 6230              		.cfi_offset 14, -4
 6231 0002 0C46     		mov	r4, r1
 6232 0004 1546     		mov	r5, r2
 761:lvgl/src/lv_core/lv_style.c **** 
 6233              		.loc 1 761 31 is_stmt 1 view .LVU2237
 763:lvgl/src/lv_core/lv_style.c ****     _lv_style_set_opa(local, prop, value);
 6234              		.loc 1 763 5 view .LVU2238
 763:lvgl/src/lv_core/lv_style.c ****     _lv_style_set_opa(local, prop, value);
 6235              		.loc 1 763 26 is_stmt 0 view .LVU2239
 6236 0006 FFF7FEFF 		bl	get_alloc_local_style
 6237              	.LVL640:
 764:lvgl/src/lv_core/lv_style.c **** }
 6238              		.loc 1 764 5 is_stmt 1 view .LVU2240
 6239 000a 2A46     		mov	r2, r5
 6240 000c 2146     		mov	r1, r4
 6241 000e FFF7FEFF 		bl	_lv_style_set_opa
 6242              	.LVL641:
 765:lvgl/src/lv_core/lv_style.c **** 
 6243              		.loc 1 765 1 is_stmt 0 view .LVU2241
 6244 0012 38BD     		pop	{r3, r4, r5, pc}
 6245              		.cfi_endproc
 6246              	.LFE480:
 6248              		.section	.text._lv_style_list_set_local_color,"ax",%progbits
 6249              		.align	1
 6250              		.global	_lv_style_list_set_local_color
 6251              		.syntax unified
 6252              		.thumb
 6253              		.thumb_func
 6254              		.fpu fpv4-sp-d16
 6256              	_lv_style_list_set_local_color:
 6257              	.LVL642:
ARM GAS  D:\Temp\cceOI0TF.s 			page 177


 6258              	.LFB481:
 776:lvgl/src/lv_core/lv_style.c ****     LV_ASSERT_STYLE_LIST(list);
 6259              		.loc 1 776 1 is_stmt 1 view -0
 6260              		.cfi_startproc
 6261              		@ args = 0, pretend = 0, frame = 0
 6262              		@ frame_needed = 0, uses_anonymous_args = 0
 776:lvgl/src/lv_core/lv_style.c ****     LV_ASSERT_STYLE_LIST(list);
 6263              		.loc 1 776 1 is_stmt 0 view .LVU2243
 6264 0000 38B5     		push	{r3, r4, r5, lr}
 6265              	.LCFI55:
 6266              		.cfi_def_cfa_offset 16
 6267              		.cfi_offset 3, -16
 6268              		.cfi_offset 4, -12
 6269              		.cfi_offset 5, -8
 6270              		.cfi_offset 14, -4
 6271 0002 0C46     		mov	r4, r1
 6272 0004 1546     		mov	r5, r2	@ movhi
 777:lvgl/src/lv_core/lv_style.c **** 
 6273              		.loc 1 777 31 is_stmt 1 view .LVU2244
 779:lvgl/src/lv_core/lv_style.c ****     _lv_style_set_color(local, prop, value);
 6274              		.loc 1 779 5 view .LVU2245
 779:lvgl/src/lv_core/lv_style.c ****     _lv_style_set_color(local, prop, value);
 6275              		.loc 1 779 26 is_stmt 0 view .LVU2246
 6276 0006 FFF7FEFF 		bl	get_alloc_local_style
 6277              	.LVL643:
 780:lvgl/src/lv_core/lv_style.c **** }
 6278              		.loc 1 780 5 is_stmt 1 view .LVU2247
 780:lvgl/src/lv_core/lv_style.c **** }
 6279              		.loc 1 780 5 is_stmt 0 view .LVU2248
 6280 000a 2A46     		mov	r2, r5	@ movhi
 6281 000c 2146     		mov	r1, r4
 6282 000e FFF7FEFF 		bl	_lv_style_set_color
 6283              	.LVL644:
 781:lvgl/src/lv_core/lv_style.c **** 
 6284              		.loc 1 781 1 view .LVU2249
 6285 0012 38BD     		pop	{r3, r4, r5, pc}
 781:lvgl/src/lv_core/lv_style.c **** 
 6286              		.loc 1 781 1 view .LVU2250
 6287              		.cfi_endproc
 6288              	.LFE481:
 6290              		.section	.text._lv_style_list_set_local_ptr,"ax",%progbits
 6291              		.align	1
 6292              		.global	_lv_style_list_set_local_ptr
 6293              		.syntax unified
 6294              		.thumb
 6295              		.thumb_func
 6296              		.fpu fpv4-sp-d16
 6298              	_lv_style_list_set_local_ptr:
 6299              	.LVL645:
 6300              	.LFB482:
 792:lvgl/src/lv_core/lv_style.c ****     LV_ASSERT_STYLE_LIST(list);
 6301              		.loc 1 792 1 is_stmt 1 view -0
 6302              		.cfi_startproc
 6303              		@ args = 0, pretend = 0, frame = 0
 6304              		@ frame_needed = 0, uses_anonymous_args = 0
 792:lvgl/src/lv_core/lv_style.c ****     LV_ASSERT_STYLE_LIST(list);
 6305              		.loc 1 792 1 is_stmt 0 view .LVU2252
ARM GAS  D:\Temp\cceOI0TF.s 			page 178


 6306 0000 38B5     		push	{r3, r4, r5, lr}
 6307              	.LCFI56:
 6308              		.cfi_def_cfa_offset 16
 6309              		.cfi_offset 3, -16
 6310              		.cfi_offset 4, -12
 6311              		.cfi_offset 5, -8
 6312              		.cfi_offset 14, -4
 6313 0002 0C46     		mov	r4, r1
 6314 0004 1546     		mov	r5, r2
 793:lvgl/src/lv_core/lv_style.c **** 
 6315              		.loc 1 793 31 is_stmt 1 view .LVU2253
 795:lvgl/src/lv_core/lv_style.c ****     _lv_style_set_ptr(local, prop, value);
 6316              		.loc 1 795 5 view .LVU2254
 795:lvgl/src/lv_core/lv_style.c ****     _lv_style_set_ptr(local, prop, value);
 6317              		.loc 1 795 26 is_stmt 0 view .LVU2255
 6318 0006 FFF7FEFF 		bl	get_alloc_local_style
 6319              	.LVL646:
 796:lvgl/src/lv_core/lv_style.c **** }
 6320              		.loc 1 796 5 is_stmt 1 view .LVU2256
 6321 000a 2A46     		mov	r2, r5
 6322 000c 2146     		mov	r1, r4
 6323 000e FFF7FEFF 		bl	_lv_style_set_ptr
 6324              	.LVL647:
 797:lvgl/src/lv_core/lv_style.c **** 
 6325              		.loc 1 797 1 is_stmt 0 view .LVU2257
 6326 0012 38BD     		pop	{r3, r4, r5, pc}
 797:lvgl/src/lv_core/lv_style.c **** 
 6327              		.loc 1 797 1 view .LVU2258
 6328              		.cfi_endproc
 6329              	.LFE482:
 6331              		.section	.text._lv_style_list_get_int,"ax",%progbits
 6332              		.align	1
 6333              		.global	_lv_style_list_get_int
 6334              		.syntax unified
 6335              		.thumb
 6336              		.thumb_func
 6337              		.fpu fpv4-sp-d16
 6339              	_lv_style_list_get_int:
 6340              	.LVL648:
 6341              	.LFB483:
 811:lvgl/src/lv_core/lv_style.c ****     LV_ASSERT_STYLE_LIST(list);
 6342              		.loc 1 811 1 is_stmt 1 view -0
 6343              		.cfi_startproc
 6344              		@ args = 0, pretend = 0, frame = 8
 6345              		@ frame_needed = 0, uses_anonymous_args = 0
 812:lvgl/src/lv_core/lv_style.c **** 
 6346              		.loc 1 812 31 view .LVU2260
 814:lvgl/src/lv_core/lv_style.c ****     if(list->style_list == NULL) return LV_RES_INV;
 6347              		.loc 1 814 5 view .LVU2261
 814:lvgl/src/lv_core/lv_style.c ****     if(list->style_list == NULL) return LV_RES_INV;
 6348              		.loc 1 814 7 is_stmt 0 view .LVU2262
 6349 0000 0028     		cmp	r0, #0
 6350 0002 5AD0     		beq	.L391
 811:lvgl/src/lv_core/lv_style.c ****     LV_ASSERT_STYLE_LIST(list);
 6351              		.loc 1 811 1 view .LVU2263
 6352 0004 2DE9F043 		push	{r4, r5, r6, r7, r8, r9, lr}
 6353              	.LCFI57:
ARM GAS  D:\Temp\cceOI0TF.s 			page 179


 6354              		.cfi_def_cfa_offset 28
 6355              		.cfi_offset 4, -28
 6356              		.cfi_offset 5, -24
 6357              		.cfi_offset 6, -20
 6358              		.cfi_offset 7, -16
 6359              		.cfi_offset 8, -12
 6360              		.cfi_offset 9, -8
 6361              		.cfi_offset 14, -4
 6362 0008 83B0     		sub	sp, sp, #12
 6363              	.LCFI58:
 6364              		.cfi_def_cfa_offset 40
 6365 000a 0546     		mov	r5, r0
 815:lvgl/src/lv_core/lv_style.c **** 
 6366              		.loc 1 815 5 is_stmt 1 view .LVU2264
 815:lvgl/src/lv_core/lv_style.c **** 
 6367              		.loc 1 815 12 is_stmt 0 view .LVU2265
 6368 000c 0368     		ldr	r3, [r0]
 815:lvgl/src/lv_core/lv_style.c **** 
 6369              		.loc 1 815 7 view .LVU2266
 6370 000e 002B     		cmp	r3, #0
 6371 0010 55D0     		beq	.L392
 6372 0012 9146     		mov	r9, r2
 6373 0014 0F46     		mov	r7, r1
 817:lvgl/src/lv_core/lv_style.c ****     attr = prop >> 8;
 6374              		.loc 1 817 5 is_stmt 1 view .LVU2267
 818:lvgl/src/lv_core/lv_style.c ****     int16_t weight_goal = attr;
 6375              		.loc 1 818 5 view .LVU2268
 6376              	.LVL649:
 819:lvgl/src/lv_core/lv_style.c **** 
 6377              		.loc 1 819 5 view .LVU2269
 819:lvgl/src/lv_core/lv_style.c **** 
 6378              		.loc 1 819 13 is_stmt 0 view .LVU2270
 6379 0016 4FEA1128 		lsr	r8, r1, #8
 6380              	.LVL650:
 821:lvgl/src/lv_core/lv_style.c **** 
 6381              		.loc 1 821 5 is_stmt 1 view .LVU2271
 823:lvgl/src/lv_core/lv_style.c **** 
 6382              		.loc 1 823 5 view .LVU2272
 823:lvgl/src/lv_core/lv_style.c **** 
 6383              		.loc 1 823 20 is_stmt 0 view .LVU2273
 6384 001a 0024     		movs	r4, #0
 6385 001c ADF80640 		strh	r4, [sp, #6]	@ movhi
 825:lvgl/src/lv_core/lv_style.c ****     for(ci = 0; ci < list->style_cnt; ci++) {
 6386              		.loc 1 825 5 is_stmt 1 view .LVU2274
 826:lvgl/src/lv_core/lv_style.c ****         /* changed class to _class to allow compilation as c++ */
 6387              		.loc 1 826 5 view .LVU2275
 6388              	.LVL651:
 821:lvgl/src/lv_core/lv_style.c **** 
 6389              		.loc 1 821 13 is_stmt 0 view .LVU2276
 6390 0020 4FF0FF36 		mov	r6, #-1
 826:lvgl/src/lv_core/lv_style.c ****         /* changed class to _class to allow compilation as c++ */
 6391              		.loc 1 826 5 view .LVU2277
 6392 0024 1DE0     		b	.L384
 6393              	.LVL652:
 6394              	.L401:
 6395              	.LBB741:
 6396              	.LBB742:
ARM GAS  D:\Temp\cceOI0TF.s 			page 180


 6397              	.LBB743:
 313:lvgl/src/lv_core/lv_style.h ****     if(list->style_cnt == 0 || id >= list->style_cnt) return NULL;
 6398              		.loc 2 313 45 is_stmt 1 view .LVU2278
 313:lvgl/src/lv_core/lv_style.h ****     if(list->style_cnt == 0 || id >= list->style_cnt) return NULL;
 6399              		.loc 2 313 47 is_stmt 0 view .LVU2279
 6400 0026 0131     		adds	r1, r1, #1
 6401              	.LVL653:
 313:lvgl/src/lv_core/lv_style.h ****     if(list->style_cnt == 0 || id >= list->style_cnt) return NULL;
 6402              		.loc 2 313 47 view .LVU2280
 6403 0028 C9B2     		uxtb	r1, r1
 6404              	.LVL654:
 313:lvgl/src/lv_core/lv_style.h ****     if(list->style_cnt == 0 || id >= list->style_cnt) return NULL;
 6405              		.loc 2 313 47 view .LVU2281
 6406 002a 26E0     		b	.L385
 6407              	.L393:
 314:lvgl/src/lv_core/lv_style.h ****     return list->style_list[id];
 6408              		.loc 2 314 62 view .LVU2282
 6409 002c 0020     		movs	r0, #0
 6410 002e 2DE0     		b	.L386
 6411              	.L394:
 6412 0030 0020     		movs	r0, #0
 6413 0032 2BE0     		b	.L386
 6414              	.LVL655:
 6415              	.L402:
 314:lvgl/src/lv_core/lv_style.h ****     return list->style_list[id];
 6416              		.loc 2 314 62 view .LVU2283
 6417              	.LBE743:
 6418              	.LBE742:
 833:lvgl/src/lv_core/lv_style.c ****             return LV_RES_OK;
 6419              		.loc 1 833 13 is_stmt 1 view .LVU2284
 833:lvgl/src/lv_core/lv_style.c ****             return LV_RES_OK;
 6420              		.loc 1 833 18 is_stmt 0 view .LVU2285
 6421 0034 BDF90630 		ldrsh	r3, [sp, #6]
 6422 0038 A9F80030 		strh	r3, [r9]	@ movhi
 834:lvgl/src/lv_core/lv_style.c ****         }
 6423              		.loc 1 834 13 is_stmt 1 view .LVU2286
 834:lvgl/src/lv_core/lv_style.c ****         }
 6424              		.loc 1 834 20 is_stmt 0 view .LVU2287
 6425 003c 0120     		movs	r0, #1
 6426              	.LVL656:
 6427              	.L383:
 834:lvgl/src/lv_core/lv_style.c ****         }
 6428              		.loc 1 834 20 view .LVU2288
 6429              	.LBE741:
 850:lvgl/src/lv_core/lv_style.c **** 
 6430              		.loc 1 850 1 view .LVU2289
 6431 003e 03B0     		add	sp, sp, #12
 6432              	.LCFI59:
 6433              		.cfi_remember_state
 6434              		.cfi_def_cfa_offset 28
 6435              		@ sp needed
 6436 0040 BDE8F083 		pop	{r4, r5, r6, r7, r8, r9, pc}
 6437              	.LVL657:
 6438              	.L403:
 6439              	.LCFI60:
 6440              		.cfi_restore_state
 6441              	.LBB746:
ARM GAS  D:\Temp\cceOI0TF.s 			page 181


 836:lvgl/src/lv_core/lv_style.c ****             *res = value_act;
 6442              		.loc 1 836 33 discriminator 1 view .LVU2290
 6443 0044 0028     		cmp	r0, #0
 6444 0046 2CDB     		blt	.L388
 836:lvgl/src/lv_core/lv_style.c ****             *res = value_act;
 6445              		.loc 1 836 52 discriminator 2 view .LVU2291
 6446 0048 5CBB     		cbnz	r4, .L388
 836:lvgl/src/lv_core/lv_style.c ****             *res = value_act;
 6447              		.loc 1 836 66 discriminator 3 view .LVU2292
 6448 004a 6B79     		ldrb	r3, [r5, #5]	@ zero_extendqisi2
 836:lvgl/src/lv_core/lv_style.c ****             *res = value_act;
 6449              		.loc 1 836 63 discriminator 3 view .LVU2293
 6450 004c 13F0010F 		tst	r3, #1
 6451 0050 27D1     		bne	.L388
 837:lvgl/src/lv_core/lv_style.c ****             return LV_RES_OK;
 6452              		.loc 1 837 13 is_stmt 1 view .LVU2294
 837:lvgl/src/lv_core/lv_style.c ****             return LV_RES_OK;
 6453              		.loc 1 837 18 is_stmt 0 view .LVU2295
 6454 0052 BDF90630 		ldrsh	r3, [sp, #6]
 6455 0056 A9F80030 		strh	r3, [r9]	@ movhi
 838:lvgl/src/lv_core/lv_style.c ****         }
 6456              		.loc 1 838 13 is_stmt 1 view .LVU2296
 838:lvgl/src/lv_core/lv_style.c ****         }
 6457              		.loc 1 838 20 is_stmt 0 view .LVU2297
 6458 005a 0120     		movs	r0, #1
 6459              	.LVL658:
 838:lvgl/src/lv_core/lv_style.c ****         }
 6460              		.loc 1 838 20 view .LVU2298
 6461 005c EFE7     		b	.L383
 6462              	.LVL659:
 6463              	.L389:
 838:lvgl/src/lv_core/lv_style.c ****         }
 6464              		.loc 1 838 20 view .LVU2299
 6465              	.LBE746:
 826:lvgl/src/lv_core/lv_style.c ****         /* changed class to _class to allow compilation as c++ */
 6466              		.loc 1 826 41 discriminator 2 view .LVU2300
 6467 005e 0134     		adds	r4, r4, #1
 6468              	.LVL660:
 826:lvgl/src/lv_core/lv_style.c ****         /* changed class to _class to allow compilation as c++ */
 6469              		.loc 1 826 41 discriminator 2 view .LVU2301
 6470 0060 24B2     		sxth	r4, r4
 6471              	.LVL661:
 6472              	.L384:
 826:lvgl/src/lv_core/lv_style.c ****         /* changed class to _class to allow compilation as c++ */
 6473              		.loc 1 826 26 discriminator 1 view .LVU2302
 6474 0062 2B79     		ldrb	r3, [r5, #4]	@ zero_extendqisi2
 6475 0064 03F03F03 		and	r3, r3, #63
 826:lvgl/src/lv_core/lv_style.c ****         /* changed class to _class to allow compilation as c++ */
 6476              		.loc 1 826 5 discriminator 1 view .LVU2303
 6477 0068 9C42     		cmp	r4, r3
 6478 006a 22DA     		bge	.L400
 6479              	.LBB747:
 828:lvgl/src/lv_core/lv_style.c ****         int16_t weight_act = _lv_style_get_int(_class, prop, &value_act);
 6480              		.loc 1 828 9 is_stmt 1 view .LVU2304
 828:lvgl/src/lv_core/lv_style.c ****         int16_t weight_act = _lv_style_get_int(_class, prop, &value_act);
 6481              		.loc 1 828 31 is_stmt 0 view .LVU2305
 6482 006c E1B2     		uxtb	r1, r4
ARM GAS  D:\Temp\cceOI0TF.s 			page 182


 6483              	.LVL662:
 6484              	.LBB745:
 6485              	.LBI742:
 311:lvgl/src/lv_core/lv_style.h **** {
 6486              		.loc 2 311 28 is_stmt 1 view .LVU2306
 6487              	.LBB744:
 313:lvgl/src/lv_core/lv_style.h ****     if(list->style_cnt == 0 || id >= list->style_cnt) return NULL;
 6488              		.loc 2 313 5 view .LVU2307
 313:lvgl/src/lv_core/lv_style.h ****     if(list->style_cnt == 0 || id >= list->style_cnt) return NULL;
 6489              		.loc 2 313 24 is_stmt 0 view .LVU2308
 6490 006e AA88     		ldrh	r2, [r5, #4]
 6491 0070 02F4C072 		and	r2, r2, #384
 313:lvgl/src/lv_core/lv_style.h ****     if(list->style_cnt == 0 || id >= list->style_cnt) return NULL;
 6492              		.loc 2 313 7 view .LVU2309
 6493 0074 B2F5C07F 		cmp	r2, #384
 6494 0078 D5D0     		beq	.L401
 6495              	.L385:
 314:lvgl/src/lv_core/lv_style.h ****     return list->style_list[id];
 6496              		.loc 2 314 5 is_stmt 1 view .LVU2310
 314:lvgl/src/lv_core/lv_style.h ****     return list->style_list[id];
 6497              		.loc 2 314 24 is_stmt 0 view .LVU2311
 6498 007a 2A79     		ldrb	r2, [r5, #4]	@ zero_extendqisi2
 314:lvgl/src/lv_core/lv_style.h ****     return list->style_list[id];
 6499              		.loc 2 314 7 view .LVU2312
 6500 007c 12F03F0F 		tst	r2, #63
 6501 0080 D4D0     		beq	.L393
 314:lvgl/src/lv_core/lv_style.h ****     return list->style_list[id];
 6502              		.loc 2 314 29 view .LVU2313
 6503 0082 8B42     		cmp	r3, r1
 6504 0084 D4D9     		bls	.L394
 6505              		.loc 2 315 5 is_stmt 1 view .LVU2314
 6506              		.loc 2 315 16 is_stmt 0 view .LVU2315
 6507 0086 2B68     		ldr	r3, [r5]
 6508              		.loc 2 315 28 view .LVU2316
 6509 0088 53F82100 		ldr	r0, [r3, r1, lsl #2]
 6510              	.L386:
 6511              	.LVL663:
 6512              		.loc 2 315 28 view .LVU2317
 6513              	.LBE744:
 6514              	.LBE745:
 829:lvgl/src/lv_core/lv_style.c **** 
 6515              		.loc 1 829 9 is_stmt 1 view .LVU2318
 829:lvgl/src/lv_core/lv_style.c **** 
 6516              		.loc 1 829 30 is_stmt 0 view .LVU2319
 6517 008c 0DF10602 		add	r2, sp, #6
 6518 0090 3946     		mov	r1, r7
 6519 0092 FFF7FEFF 		bl	_lv_style_get_int
 6520              	.LVL664:
 832:lvgl/src/lv_core/lv_style.c ****             *res = value_act;
 6521              		.loc 1 832 9 is_stmt 1 view .LVU2320
 832:lvgl/src/lv_core/lv_style.c ****             *res = value_act;
 6522              		.loc 1 832 11 is_stmt 0 view .LVU2321
 6523 0096 8045     		cmp	r8, r0
 6524 0098 CCD0     		beq	.L402
 836:lvgl/src/lv_core/lv_style.c ****             *res = value_act;
 6525              		.loc 1 836 14 is_stmt 1 view .LVU2322
 836:lvgl/src/lv_core/lv_style.c ****             *res = value_act;
ARM GAS  D:\Temp\cceOI0TF.s 			page 183


 6526              		.loc 1 836 16 is_stmt 0 view .LVU2323
 6527 009a 95F90430 		ldrsb	r3, [r5, #4]
 6528 009e 002B     		cmp	r3, #0
 6529 00a0 D0DB     		blt	.L403
 6530              	.L388:
 841:lvgl/src/lv_core/lv_style.c ****             weight =  weight_act;
 6531              		.loc 1 841 14 is_stmt 1 view .LVU2324
 841:lvgl/src/lv_core/lv_style.c ****             weight =  weight_act;
 6532              		.loc 1 841 16 is_stmt 0 view .LVU2325
 6533 00a2 8642     		cmp	r6, r0
 6534 00a4 DBDA     		bge	.L389
 842:lvgl/src/lv_core/lv_style.c ****             *res = value_act;
 6535              		.loc 1 842 13 is_stmt 1 view .LVU2326
 6536              	.LVL665:
 843:lvgl/src/lv_core/lv_style.c ****         }
 6537              		.loc 1 843 13 view .LVU2327
 843:lvgl/src/lv_core/lv_style.c ****         }
 6538              		.loc 1 843 18 is_stmt 0 view .LVU2328
 6539 00a6 BDF90630 		ldrsh	r3, [sp, #6]
 6540 00aa A9F80030 		strh	r3, [r9]	@ movhi
 842:lvgl/src/lv_core/lv_style.c ****             *res = value_act;
 6541              		.loc 1 842 20 view .LVU2329
 6542 00ae 0646     		mov	r6, r0
 6543 00b0 D5E7     		b	.L389
 6544              	.LVL666:
 6545              	.L400:
 842:lvgl/src/lv_core/lv_style.c ****             *res = value_act;
 6546              		.loc 1 842 20 view .LVU2330
 6547              	.LBE747:
 847:lvgl/src/lv_core/lv_style.c ****     else return LV_RES_INV;
 6548              		.loc 1 847 5 is_stmt 1 view .LVU2331
 847:lvgl/src/lv_core/lv_style.c ****     else return LV_RES_INV;
 6549              		.loc 1 847 7 is_stmt 0 view .LVU2332
 6550 00b2 002E     		cmp	r6, #0
 6551 00b4 05DB     		blt	.L395
 847:lvgl/src/lv_core/lv_style.c ****     else return LV_RES_INV;
 6552              		.loc 1 847 28 view .LVU2333
 6553 00b6 0120     		movs	r0, #1
 6554 00b8 C1E7     		b	.L383
 6555              	.LVL667:
 6556              	.L391:
 6557              	.LCFI61:
 6558              		.cfi_def_cfa_offset 0
 6559              		.cfi_restore 4
 6560              		.cfi_restore 5
 6561              		.cfi_restore 6
 6562              		.cfi_restore 7
 6563              		.cfi_restore 8
 6564              		.cfi_restore 9
 6565              		.cfi_restore 14
 814:lvgl/src/lv_core/lv_style.c ****     if(list->style_list == NULL) return LV_RES_INV;
 6566              		.loc 1 814 29 view .LVU2334
 6567 00ba 0020     		movs	r0, #0
 6568              	.LVL668:
 850:lvgl/src/lv_core/lv_style.c **** 
 6569              		.loc 1 850 1 view .LVU2335
 6570 00bc 7047     		bx	lr
ARM GAS  D:\Temp\cceOI0TF.s 			page 184


 6571              	.LVL669:
 6572              	.L392:
 6573              	.LCFI62:
 6574              		.cfi_def_cfa_offset 40
 6575              		.cfi_offset 4, -28
 6576              		.cfi_offset 5, -24
 6577              		.cfi_offset 6, -20
 6578              		.cfi_offset 7, -16
 6579              		.cfi_offset 8, -12
 6580              		.cfi_offset 9, -8
 6581              		.cfi_offset 14, -4
 815:lvgl/src/lv_core/lv_style.c **** 
 6582              		.loc 1 815 41 view .LVU2336
 6583 00be 0020     		movs	r0, #0
 6584              	.LVL670:
 815:lvgl/src/lv_core/lv_style.c **** 
 6585              		.loc 1 815 41 view .LVU2337
 6586 00c0 BDE7     		b	.L383
 6587              	.LVL671:
 6588              	.L395:
 848:lvgl/src/lv_core/lv_style.c **** 
 6589              		.loc 1 848 17 view .LVU2338
 6590 00c2 0020     		movs	r0, #0
 6591 00c4 BBE7     		b	.L383
 6592              		.cfi_endproc
 6593              	.LFE483:
 6595              		.section	.text._lv_style_list_get_color,"ax",%progbits
 6596              		.align	1
 6597              		.global	_lv_style_list_get_color
 6598              		.syntax unified
 6599              		.thumb
 6600              		.thumb_func
 6601              		.fpu fpv4-sp-d16
 6603              	_lv_style_list_get_color:
 6604              	.LVL672:
 6605              	.LFB484:
 864:lvgl/src/lv_core/lv_style.c ****     LV_ASSERT_STYLE_LIST(list);
 6606              		.loc 1 864 1 is_stmt 1 view -0
 6607              		.cfi_startproc
 6608              		@ args = 0, pretend = 0, frame = 8
 6609              		@ frame_needed = 0, uses_anonymous_args = 0
 865:lvgl/src/lv_core/lv_style.c **** 
 6610              		.loc 1 865 31 view .LVU2340
 867:lvgl/src/lv_core/lv_style.c ****     if(list->style_list == NULL) return LV_RES_INV;
 6611              		.loc 1 867 5 view .LVU2341
 867:lvgl/src/lv_core/lv_style.c ****     if(list->style_list == NULL) return LV_RES_INV;
 6612              		.loc 1 867 7 is_stmt 0 view .LVU2342
 6613 0000 0028     		cmp	r0, #0
 6614 0002 59D0     		beq	.L413
 864:lvgl/src/lv_core/lv_style.c ****     LV_ASSERT_STYLE_LIST(list);
 6615              		.loc 1 864 1 view .LVU2343
 6616 0004 2DE9F043 		push	{r4, r5, r6, r7, r8, r9, lr}
 6617              	.LCFI63:
 6618              		.cfi_def_cfa_offset 28
 6619              		.cfi_offset 4, -28
 6620              		.cfi_offset 5, -24
 6621              		.cfi_offset 6, -20
ARM GAS  D:\Temp\cceOI0TF.s 			page 185


 6622              		.cfi_offset 7, -16
 6623              		.cfi_offset 8, -12
 6624              		.cfi_offset 9, -8
 6625              		.cfi_offset 14, -4
 6626 0008 83B0     		sub	sp, sp, #12
 6627              	.LCFI64:
 6628              		.cfi_def_cfa_offset 40
 6629 000a 0546     		mov	r5, r0
 868:lvgl/src/lv_core/lv_style.c **** 
 6630              		.loc 1 868 5 is_stmt 1 view .LVU2344
 868:lvgl/src/lv_core/lv_style.c **** 
 6631              		.loc 1 868 12 is_stmt 0 view .LVU2345
 6632 000c 0368     		ldr	r3, [r0]
 868:lvgl/src/lv_core/lv_style.c **** 
 6633              		.loc 1 868 7 view .LVU2346
 6634 000e 002B     		cmp	r3, #0
 6635 0010 54D0     		beq	.L414
 6636 0012 9146     		mov	r9, r2
 6637 0014 0F46     		mov	r7, r1
 870:lvgl/src/lv_core/lv_style.c ****     attr = prop >> 8;
 6638              		.loc 1 870 5 is_stmt 1 view .LVU2347
 871:lvgl/src/lv_core/lv_style.c ****     int16_t weight_goal = attr;
 6639              		.loc 1 871 5 view .LVU2348
 6640              	.LVL673:
 872:lvgl/src/lv_core/lv_style.c **** 
 6641              		.loc 1 872 5 view .LVU2349
 872:lvgl/src/lv_core/lv_style.c **** 
 6642              		.loc 1 872 13 is_stmt 0 view .LVU2350
 6643 0016 4FEA1128 		lsr	r8, r1, #8
 6644              	.LVL674:
 874:lvgl/src/lv_core/lv_style.c **** 
 6645              		.loc 1 874 5 is_stmt 1 view .LVU2351
 876:lvgl/src/lv_core/lv_style.c ****     value_act.full = 0;
 6646              		.loc 1 876 5 view .LVU2352
 877:lvgl/src/lv_core/lv_style.c **** 
 6647              		.loc 1 877 5 view .LVU2353
 877:lvgl/src/lv_core/lv_style.c **** 
 6648              		.loc 1 877 20 is_stmt 0 view .LVU2354
 6649 001a 0024     		movs	r4, #0
 6650 001c ADF80440 		strh	r4, [sp, #4]	@ movhi
 879:lvgl/src/lv_core/lv_style.c ****     for(ci = 0; ci < list->style_cnt; ci++) {
 6651              		.loc 1 879 5 is_stmt 1 view .LVU2355
 880:lvgl/src/lv_core/lv_style.c ****         lv_style_t * _class = lv_style_list_get_style(list, ci);
 6652              		.loc 1 880 5 view .LVU2356
 6653              	.LVL675:
 874:lvgl/src/lv_core/lv_style.c **** 
 6654              		.loc 1 874 13 is_stmt 0 view .LVU2357
 6655 0020 4FF0FF36 		mov	r6, #-1
 880:lvgl/src/lv_core/lv_style.c ****         lv_style_t * _class = lv_style_list_get_style(list, ci);
 6656              		.loc 1 880 5 view .LVU2358
 6657 0024 1DE0     		b	.L406
 6658              	.LVL676:
 6659              	.L423:
 6660              	.LBB748:
 6661              	.LBB749:
 6662              	.LBB750:
 313:lvgl/src/lv_core/lv_style.h ****     if(list->style_cnt == 0 || id >= list->style_cnt) return NULL;
ARM GAS  D:\Temp\cceOI0TF.s 			page 186


 6663              		.loc 2 313 45 is_stmt 1 view .LVU2359
 313:lvgl/src/lv_core/lv_style.h ****     if(list->style_cnt == 0 || id >= list->style_cnt) return NULL;
 6664              		.loc 2 313 47 is_stmt 0 view .LVU2360
 6665 0026 0131     		adds	r1, r1, #1
 6666              	.LVL677:
 313:lvgl/src/lv_core/lv_style.h ****     if(list->style_cnt == 0 || id >= list->style_cnt) return NULL;
 6667              		.loc 2 313 47 view .LVU2361
 6668 0028 C9B2     		uxtb	r1, r1
 6669              	.LVL678:
 313:lvgl/src/lv_core/lv_style.h ****     if(list->style_cnt == 0 || id >= list->style_cnt) return NULL;
 6670              		.loc 2 313 47 view .LVU2362
 6671 002a 26E0     		b	.L407
 6672              	.L415:
 314:lvgl/src/lv_core/lv_style.h ****     return list->style_list[id];
 6673              		.loc 2 314 62 view .LVU2363
 6674 002c 0020     		movs	r0, #0
 6675 002e 2DE0     		b	.L408
 6676              	.L416:
 6677 0030 0020     		movs	r0, #0
 6678 0032 2BE0     		b	.L408
 6679              	.LVL679:
 6680              	.L424:
 314:lvgl/src/lv_core/lv_style.h ****     return list->style_list[id];
 6681              		.loc 2 314 62 view .LVU2364
 6682              	.LBE750:
 6683              	.LBE749:
 885:lvgl/src/lv_core/lv_style.c ****             return LV_RES_OK;
 6684              		.loc 1 885 13 is_stmt 1 view .LVU2365
 885:lvgl/src/lv_core/lv_style.c ****             return LV_RES_OK;
 6685              		.loc 1 885 18 is_stmt 0 view .LVU2366
 6686 0034 BDF80430 		ldrh	r3, [sp, #4]
 6687 0038 A9F80030 		strh	r3, [r9]	@ movhi
 886:lvgl/src/lv_core/lv_style.c ****         }
 6688              		.loc 1 886 13 is_stmt 1 view .LVU2367
 886:lvgl/src/lv_core/lv_style.c ****         }
 6689              		.loc 1 886 20 is_stmt 0 view .LVU2368
 6690 003c 0120     		movs	r0, #1
 6691              	.LVL680:
 6692              	.L405:
 886:lvgl/src/lv_core/lv_style.c ****         }
 6693              		.loc 1 886 20 view .LVU2369
 6694              	.LBE748:
 901:lvgl/src/lv_core/lv_style.c **** 
 6695              		.loc 1 901 1 view .LVU2370
 6696 003e 03B0     		add	sp, sp, #12
 6697              	.LCFI65:
 6698              		.cfi_remember_state
 6699              		.cfi_def_cfa_offset 28
 6700              		@ sp needed
 6701 0040 BDE8F083 		pop	{r4, r5, r6, r7, r8, r9, pc}
 6702              	.LVL681:
 6703              	.L425:
 6704              	.LCFI66:
 6705              		.cfi_restore_state
 6706              	.LBB753:
 888:lvgl/src/lv_core/lv_style.c ****             *res = value_act;
 6707              		.loc 1 888 33 discriminator 1 view .LVU2371
ARM GAS  D:\Temp\cceOI0TF.s 			page 187


 6708 0044 0028     		cmp	r0, #0
 6709 0046 2BDB     		blt	.L410
 888:lvgl/src/lv_core/lv_style.c ****             *res = value_act;
 6710              		.loc 1 888 52 discriminator 2 view .LVU2372
 6711 0048 54BB     		cbnz	r4, .L410
 888:lvgl/src/lv_core/lv_style.c ****             *res = value_act;
 6712              		.loc 1 888 66 discriminator 3 view .LVU2373
 6713 004a 6B79     		ldrb	r3, [r5, #5]	@ zero_extendqisi2
 888:lvgl/src/lv_core/lv_style.c ****             *res = value_act;
 6714              		.loc 1 888 63 discriminator 3 view .LVU2374
 6715 004c 13F0010F 		tst	r3, #1
 6716 0050 26D1     		bne	.L410
 889:lvgl/src/lv_core/lv_style.c ****             return LV_RES_OK;
 6717              		.loc 1 889 13 is_stmt 1 view .LVU2375
 889:lvgl/src/lv_core/lv_style.c ****             return LV_RES_OK;
 6718              		.loc 1 889 18 is_stmt 0 view .LVU2376
 6719 0052 BDF80430 		ldrh	r3, [sp, #4]
 6720 0056 A9F80030 		strh	r3, [r9]	@ movhi
 890:lvgl/src/lv_core/lv_style.c ****         }
 6721              		.loc 1 890 13 is_stmt 1 view .LVU2377
 890:lvgl/src/lv_core/lv_style.c ****         }
 6722              		.loc 1 890 20 is_stmt 0 view .LVU2378
 6723 005a 0120     		movs	r0, #1
 6724              	.LVL682:
 890:lvgl/src/lv_core/lv_style.c ****         }
 6725              		.loc 1 890 20 view .LVU2379
 6726 005c EFE7     		b	.L405
 6727              	.LVL683:
 6728              	.L411:
 890:lvgl/src/lv_core/lv_style.c ****         }
 6729              		.loc 1 890 20 view .LVU2380
 6730              	.LBE753:
 880:lvgl/src/lv_core/lv_style.c ****         lv_style_t * _class = lv_style_list_get_style(list, ci);
 6731              		.loc 1 880 41 discriminator 2 view .LVU2381
 6732 005e 0134     		adds	r4, r4, #1
 6733              	.LVL684:
 880:lvgl/src/lv_core/lv_style.c ****         lv_style_t * _class = lv_style_list_get_style(list, ci);
 6734              		.loc 1 880 41 discriminator 2 view .LVU2382
 6735 0060 24B2     		sxth	r4, r4
 6736              	.LVL685:
 6737              	.L406:
 880:lvgl/src/lv_core/lv_style.c ****         lv_style_t * _class = lv_style_list_get_style(list, ci);
 6738              		.loc 1 880 26 discriminator 1 view .LVU2383
 6739 0062 2B79     		ldrb	r3, [r5, #4]	@ zero_extendqisi2
 6740 0064 03F03F03 		and	r3, r3, #63
 880:lvgl/src/lv_core/lv_style.c ****         lv_style_t * _class = lv_style_list_get_style(list, ci);
 6741              		.loc 1 880 5 discriminator 1 view .LVU2384
 6742 0068 9C42     		cmp	r4, r3
 6743 006a 21DA     		bge	.L422
 6744              	.LBB754:
 881:lvgl/src/lv_core/lv_style.c ****         int16_t weight_act = _lv_style_get_color(_class, prop, &value_act);
 6745              		.loc 1 881 9 is_stmt 1 view .LVU2385
 881:lvgl/src/lv_core/lv_style.c ****         int16_t weight_act = _lv_style_get_color(_class, prop, &value_act);
 6746              		.loc 1 881 31 is_stmt 0 view .LVU2386
 6747 006c E1B2     		uxtb	r1, r4
 6748              	.LVL686:
 6749              	.LBB752:
ARM GAS  D:\Temp\cceOI0TF.s 			page 188


 6750              	.LBI749:
 311:lvgl/src/lv_core/lv_style.h **** {
 6751              		.loc 2 311 28 is_stmt 1 view .LVU2387
 6752              	.LBB751:
 313:lvgl/src/lv_core/lv_style.h ****     if(list->style_cnt == 0 || id >= list->style_cnt) return NULL;
 6753              		.loc 2 313 5 view .LVU2388
 313:lvgl/src/lv_core/lv_style.h ****     if(list->style_cnt == 0 || id >= list->style_cnt) return NULL;
 6754              		.loc 2 313 24 is_stmt 0 view .LVU2389
 6755 006e AA88     		ldrh	r2, [r5, #4]
 6756 0070 02F4C072 		and	r2, r2, #384
 313:lvgl/src/lv_core/lv_style.h ****     if(list->style_cnt == 0 || id >= list->style_cnt) return NULL;
 6757              		.loc 2 313 7 view .LVU2390
 6758 0074 B2F5C07F 		cmp	r2, #384
 6759 0078 D5D0     		beq	.L423
 6760              	.L407:
 314:lvgl/src/lv_core/lv_style.h ****     return list->style_list[id];
 6761              		.loc 2 314 5 is_stmt 1 view .LVU2391
 314:lvgl/src/lv_core/lv_style.h ****     return list->style_list[id];
 6762              		.loc 2 314 24 is_stmt 0 view .LVU2392
 6763 007a 2A79     		ldrb	r2, [r5, #4]	@ zero_extendqisi2
 314:lvgl/src/lv_core/lv_style.h ****     return list->style_list[id];
 6764              		.loc 2 314 7 view .LVU2393
 6765 007c 12F03F0F 		tst	r2, #63
 6766 0080 D4D0     		beq	.L415
 314:lvgl/src/lv_core/lv_style.h ****     return list->style_list[id];
 6767              		.loc 2 314 29 view .LVU2394
 6768 0082 8B42     		cmp	r3, r1
 6769 0084 D4D9     		bls	.L416
 6770              		.loc 2 315 5 is_stmt 1 view .LVU2395
 6771              		.loc 2 315 16 is_stmt 0 view .LVU2396
 6772 0086 2B68     		ldr	r3, [r5]
 6773              		.loc 2 315 28 view .LVU2397
 6774 0088 53F82100 		ldr	r0, [r3, r1, lsl #2]
 6775              	.L408:
 6776              	.LVL687:
 6777              		.loc 2 315 28 view .LVU2398
 6778              	.LBE751:
 6779              	.LBE752:
 882:lvgl/src/lv_core/lv_style.c ****         /*On perfect match return the value immediately*/
 6780              		.loc 1 882 9 is_stmt 1 view .LVU2399
 882:lvgl/src/lv_core/lv_style.c ****         /*On perfect match return the value immediately*/
 6781              		.loc 1 882 30 is_stmt 0 view .LVU2400
 6782 008c 01AA     		add	r2, sp, #4
 6783 008e 3946     		mov	r1, r7
 6784 0090 FFF7FEFF 		bl	_lv_style_get_color
 6785              	.LVL688:
 884:lvgl/src/lv_core/lv_style.c ****             *res = value_act;
 6786              		.loc 1 884 9 is_stmt 1 view .LVU2401
 884:lvgl/src/lv_core/lv_style.c ****             *res = value_act;
 6787              		.loc 1 884 11 is_stmt 0 view .LVU2402
 6788 0094 8045     		cmp	r8, r0
 6789 0096 CDD0     		beq	.L424
 888:lvgl/src/lv_core/lv_style.c ****             *res = value_act;
 6790              		.loc 1 888 14 is_stmt 1 view .LVU2403
 888:lvgl/src/lv_core/lv_style.c ****             *res = value_act;
 6791              		.loc 1 888 16 is_stmt 0 view .LVU2404
 6792 0098 95F90430 		ldrsb	r3, [r5, #4]
ARM GAS  D:\Temp\cceOI0TF.s 			page 189


 6793 009c 002B     		cmp	r3, #0
 6794 009e D1DB     		blt	.L425
 6795              	.L410:
 893:lvgl/src/lv_core/lv_style.c ****             weight =  weight_act;
 6796              		.loc 1 893 14 is_stmt 1 view .LVU2405
 893:lvgl/src/lv_core/lv_style.c ****             weight =  weight_act;
 6797              		.loc 1 893 16 is_stmt 0 view .LVU2406
 6798 00a0 8642     		cmp	r6, r0
 6799 00a2 DCDA     		bge	.L411
 894:lvgl/src/lv_core/lv_style.c ****             *res = value_act;
 6800              		.loc 1 894 13 is_stmt 1 view .LVU2407
 6801              	.LVL689:
 895:lvgl/src/lv_core/lv_style.c ****         }
 6802              		.loc 1 895 13 view .LVU2408
 895:lvgl/src/lv_core/lv_style.c ****         }
 6803              		.loc 1 895 18 is_stmt 0 view .LVU2409
 6804 00a4 BDF80430 		ldrh	r3, [sp, #4]
 6805 00a8 A9F80030 		strh	r3, [r9]	@ movhi
 894:lvgl/src/lv_core/lv_style.c ****             *res = value_act;
 6806              		.loc 1 894 20 view .LVU2410
 6807 00ac 0646     		mov	r6, r0
 6808 00ae D6E7     		b	.L411
 6809              	.LVL690:
 6810              	.L422:
 894:lvgl/src/lv_core/lv_style.c ****             *res = value_act;
 6811              		.loc 1 894 20 view .LVU2411
 6812              	.LBE754:
 899:lvgl/src/lv_core/lv_style.c ****     else return LV_RES_INV;
 6813              		.loc 1 899 5 is_stmt 1 view .LVU2412
 899:lvgl/src/lv_core/lv_style.c ****     else return LV_RES_INV;
 6814              		.loc 1 899 7 is_stmt 0 view .LVU2413
 6815 00b0 002E     		cmp	r6, #0
 6816 00b2 05DB     		blt	.L417
 899:lvgl/src/lv_core/lv_style.c ****     else return LV_RES_INV;
 6817              		.loc 1 899 29 view .LVU2414
 6818 00b4 0120     		movs	r0, #1
 6819 00b6 C2E7     		b	.L405
 6820              	.LVL691:
 6821              	.L413:
 6822              	.LCFI67:
 6823              		.cfi_def_cfa_offset 0
 6824              		.cfi_restore 4
 6825              		.cfi_restore 5
 6826              		.cfi_restore 6
 6827              		.cfi_restore 7
 6828              		.cfi_restore 8
 6829              		.cfi_restore 9
 6830              		.cfi_restore 14
 867:lvgl/src/lv_core/lv_style.c ****     if(list->style_list == NULL) return LV_RES_INV;
 6831              		.loc 1 867 29 view .LVU2415
 6832 00b8 0020     		movs	r0, #0
 6833              	.LVL692:
 901:lvgl/src/lv_core/lv_style.c **** 
 6834              		.loc 1 901 1 view .LVU2416
 6835 00ba 7047     		bx	lr
 6836              	.LVL693:
 6837              	.L414:
ARM GAS  D:\Temp\cceOI0TF.s 			page 190


 6838              	.LCFI68:
 6839              		.cfi_def_cfa_offset 40
 6840              		.cfi_offset 4, -28
 6841              		.cfi_offset 5, -24
 6842              		.cfi_offset 6, -20
 6843              		.cfi_offset 7, -16
 6844              		.cfi_offset 8, -12
 6845              		.cfi_offset 9, -8
 6846              		.cfi_offset 14, -4
 868:lvgl/src/lv_core/lv_style.c **** 
 6847              		.loc 1 868 41 view .LVU2417
 6848 00bc 0020     		movs	r0, #0
 6849              	.LVL694:
 868:lvgl/src/lv_core/lv_style.c **** 
 6850              		.loc 1 868 41 view .LVU2418
 6851 00be BEE7     		b	.L405
 6852              	.LVL695:
 6853              	.L417:
 900:lvgl/src/lv_core/lv_style.c **** }
 6854              		.loc 1 900 17 view .LVU2419
 6855 00c0 0020     		movs	r0, #0
 6856 00c2 BCE7     		b	.L405
 6857              		.cfi_endproc
 6858              	.LFE484:
 6860              		.section	.text._lv_style_list_get_opa,"ax",%progbits
 6861              		.align	1
 6862              		.global	_lv_style_list_get_opa
 6863              		.syntax unified
 6864              		.thumb
 6865              		.thumb_func
 6866              		.fpu fpv4-sp-d16
 6868              	_lv_style_list_get_opa:
 6869              	.LVL696:
 6870              	.LFB485:
 915:lvgl/src/lv_core/lv_style.c ****     LV_ASSERT_STYLE_LIST(list);
 6871              		.loc 1 915 1 is_stmt 1 view -0
 6872              		.cfi_startproc
 6873              		@ args = 0, pretend = 0, frame = 8
 6874              		@ frame_needed = 0, uses_anonymous_args = 0
 916:lvgl/src/lv_core/lv_style.c **** 
 6875              		.loc 1 916 31 view .LVU2421
 918:lvgl/src/lv_core/lv_style.c ****     if(list->style_list == NULL) return LV_RES_INV;
 6876              		.loc 1 918 5 view .LVU2422
 918:lvgl/src/lv_core/lv_style.c ****     if(list->style_list == NULL) return LV_RES_INV;
 6877              		.loc 1 918 7 is_stmt 0 view .LVU2423
 6878 0000 0028     		cmp	r0, #0
 6879 0002 5AD0     		beq	.L435
 915:lvgl/src/lv_core/lv_style.c ****     LV_ASSERT_STYLE_LIST(list);
 6880              		.loc 1 915 1 view .LVU2424
 6881 0004 2DE9F043 		push	{r4, r5, r6, r7, r8, r9, lr}
 6882              	.LCFI69:
 6883              		.cfi_def_cfa_offset 28
 6884              		.cfi_offset 4, -28
 6885              		.cfi_offset 5, -24
 6886              		.cfi_offset 6, -20
 6887              		.cfi_offset 7, -16
 6888              		.cfi_offset 8, -12
ARM GAS  D:\Temp\cceOI0TF.s 			page 191


 6889              		.cfi_offset 9, -8
 6890              		.cfi_offset 14, -4
 6891 0008 83B0     		sub	sp, sp, #12
 6892              	.LCFI70:
 6893              		.cfi_def_cfa_offset 40
 6894 000a 0546     		mov	r5, r0
 919:lvgl/src/lv_core/lv_style.c **** 
 6895              		.loc 1 919 5 is_stmt 1 view .LVU2425
 919:lvgl/src/lv_core/lv_style.c **** 
 6896              		.loc 1 919 12 is_stmt 0 view .LVU2426
 6897 000c 0368     		ldr	r3, [r0]
 919:lvgl/src/lv_core/lv_style.c **** 
 6898              		.loc 1 919 7 view .LVU2427
 6899 000e 002B     		cmp	r3, #0
 6900 0010 55D0     		beq	.L436
 6901 0012 9146     		mov	r9, r2
 6902 0014 0F46     		mov	r7, r1
 921:lvgl/src/lv_core/lv_style.c ****     attr = prop >> 8;
 6903              		.loc 1 921 5 is_stmt 1 view .LVU2428
 922:lvgl/src/lv_core/lv_style.c ****     int16_t weight_goal = attr;
 6904              		.loc 1 922 5 view .LVU2429
 6905              	.LVL697:
 923:lvgl/src/lv_core/lv_style.c **** 
 6906              		.loc 1 923 5 view .LVU2430
 923:lvgl/src/lv_core/lv_style.c **** 
 6907              		.loc 1 923 13 is_stmt 0 view .LVU2431
 6908 0016 4FEA1128 		lsr	r8, r1, #8
 6909              	.LVL698:
 925:lvgl/src/lv_core/lv_style.c **** 
 6910              		.loc 1 925 5 is_stmt 1 view .LVU2432
 927:lvgl/src/lv_core/lv_style.c **** 
 6911              		.loc 1 927 5 view .LVU2433
 927:lvgl/src/lv_core/lv_style.c **** 
 6912              		.loc 1 927 14 is_stmt 0 view .LVU2434
 6913 001a 0024     		movs	r4, #0
 6914 001c 8DF80740 		strb	r4, [sp, #7]
 929:lvgl/src/lv_core/lv_style.c ****     for(ci = 0; ci < list->style_cnt; ci++) {
 6915              		.loc 1 929 5 is_stmt 1 view .LVU2435
 930:lvgl/src/lv_core/lv_style.c ****         lv_style_t * _class = lv_style_list_get_style(list, ci);
 6916              		.loc 1 930 5 view .LVU2436
 6917              	.LVL699:
 925:lvgl/src/lv_core/lv_style.c **** 
 6918              		.loc 1 925 13 is_stmt 0 view .LVU2437
 6919 0020 4FF0FF36 		mov	r6, #-1
 930:lvgl/src/lv_core/lv_style.c ****         lv_style_t * _class = lv_style_list_get_style(list, ci);
 6920              		.loc 1 930 5 view .LVU2438
 6921 0024 1DE0     		b	.L428
 6922              	.LVL700:
 6923              	.L445:
 6924              	.LBB755:
 6925              	.LBB756:
 6926              	.LBB757:
 313:lvgl/src/lv_core/lv_style.h ****     if(list->style_cnt == 0 || id >= list->style_cnt) return NULL;
 6927              		.loc 2 313 45 is_stmt 1 view .LVU2439
 313:lvgl/src/lv_core/lv_style.h ****     if(list->style_cnt == 0 || id >= list->style_cnt) return NULL;
 6928              		.loc 2 313 47 is_stmt 0 view .LVU2440
 6929 0026 0131     		adds	r1, r1, #1
ARM GAS  D:\Temp\cceOI0TF.s 			page 192


 6930              	.LVL701:
 313:lvgl/src/lv_core/lv_style.h ****     if(list->style_cnt == 0 || id >= list->style_cnt) return NULL;
 6931              		.loc 2 313 47 view .LVU2441
 6932 0028 C9B2     		uxtb	r1, r1
 6933              	.LVL702:
 313:lvgl/src/lv_core/lv_style.h ****     if(list->style_cnt == 0 || id >= list->style_cnt) return NULL;
 6934              		.loc 2 313 47 view .LVU2442
 6935 002a 26E0     		b	.L429
 6936              	.L437:
 314:lvgl/src/lv_core/lv_style.h ****     return list->style_list[id];
 6937              		.loc 2 314 62 view .LVU2443
 6938 002c 0020     		movs	r0, #0
 6939 002e 2DE0     		b	.L430
 6940              	.L438:
 6941 0030 0020     		movs	r0, #0
 6942 0032 2BE0     		b	.L430
 6943              	.LVL703:
 6944              	.L446:
 314:lvgl/src/lv_core/lv_style.h ****     return list->style_list[id];
 6945              		.loc 2 314 62 view .LVU2444
 6946              	.LBE757:
 6947              	.LBE756:
 935:lvgl/src/lv_core/lv_style.c ****             return LV_RES_OK;
 6948              		.loc 1 935 13 is_stmt 1 view .LVU2445
 935:lvgl/src/lv_core/lv_style.c ****             return LV_RES_OK;
 6949              		.loc 1 935 18 is_stmt 0 view .LVU2446
 6950 0034 9DF80730 		ldrb	r3, [sp, #7]	@ zero_extendqisi2
 6951 0038 89F80030 		strb	r3, [r9]
 936:lvgl/src/lv_core/lv_style.c ****         }
 6952              		.loc 1 936 13 is_stmt 1 view .LVU2447
 936:lvgl/src/lv_core/lv_style.c ****         }
 6953              		.loc 1 936 20 is_stmt 0 view .LVU2448
 6954 003c 0120     		movs	r0, #1
 6955              	.LVL704:
 6956              	.L427:
 936:lvgl/src/lv_core/lv_style.c ****         }
 6957              		.loc 1 936 20 view .LVU2449
 6958              	.LBE755:
 951:lvgl/src/lv_core/lv_style.c **** 
 6959              		.loc 1 951 1 view .LVU2450
 6960 003e 03B0     		add	sp, sp, #12
 6961              	.LCFI71:
 6962              		.cfi_remember_state
 6963              		.cfi_def_cfa_offset 28
 6964              		@ sp needed
 6965 0040 BDE8F083 		pop	{r4, r5, r6, r7, r8, r9, pc}
 6966              	.LVL705:
 6967              	.L447:
 6968              	.LCFI72:
 6969              		.cfi_restore_state
 6970              	.LBB760:
 938:lvgl/src/lv_core/lv_style.c ****             *res = value_act;
 6971              		.loc 1 938 33 discriminator 1 view .LVU2451
 6972 0044 0028     		cmp	r0, #0
 6973 0046 2CDB     		blt	.L432
 938:lvgl/src/lv_core/lv_style.c ****             *res = value_act;
 6974              		.loc 1 938 52 discriminator 2 view .LVU2452
ARM GAS  D:\Temp\cceOI0TF.s 			page 193


 6975 0048 5CBB     		cbnz	r4, .L432
 938:lvgl/src/lv_core/lv_style.c ****             *res = value_act;
 6976              		.loc 1 938 66 discriminator 3 view .LVU2453
 6977 004a 6B79     		ldrb	r3, [r5, #5]	@ zero_extendqisi2
 938:lvgl/src/lv_core/lv_style.c ****             *res = value_act;
 6978              		.loc 1 938 63 discriminator 3 view .LVU2454
 6979 004c 13F0010F 		tst	r3, #1
 6980 0050 27D1     		bne	.L432
 939:lvgl/src/lv_core/lv_style.c ****             return LV_RES_OK;
 6981              		.loc 1 939 13 is_stmt 1 view .LVU2455
 939:lvgl/src/lv_core/lv_style.c ****             return LV_RES_OK;
 6982              		.loc 1 939 18 is_stmt 0 view .LVU2456
 6983 0052 9DF80730 		ldrb	r3, [sp, #7]	@ zero_extendqisi2
 6984 0056 89F80030 		strb	r3, [r9]
 940:lvgl/src/lv_core/lv_style.c ****         }
 6985              		.loc 1 940 13 is_stmt 1 view .LVU2457
 940:lvgl/src/lv_core/lv_style.c ****         }
 6986              		.loc 1 940 20 is_stmt 0 view .LVU2458
 6987 005a 0120     		movs	r0, #1
 6988              	.LVL706:
 940:lvgl/src/lv_core/lv_style.c ****         }
 6989              		.loc 1 940 20 view .LVU2459
 6990 005c EFE7     		b	.L427
 6991              	.LVL707:
 6992              	.L433:
 940:lvgl/src/lv_core/lv_style.c ****         }
 6993              		.loc 1 940 20 view .LVU2460
 6994              	.LBE760:
 930:lvgl/src/lv_core/lv_style.c ****         lv_style_t * _class = lv_style_list_get_style(list, ci);
 6995              		.loc 1 930 41 discriminator 2 view .LVU2461
 6996 005e 0134     		adds	r4, r4, #1
 6997              	.LVL708:
 930:lvgl/src/lv_core/lv_style.c ****         lv_style_t * _class = lv_style_list_get_style(list, ci);
 6998              		.loc 1 930 41 discriminator 2 view .LVU2462
 6999 0060 24B2     		sxth	r4, r4
 7000              	.LVL709:
 7001              	.L428:
 930:lvgl/src/lv_core/lv_style.c ****         lv_style_t * _class = lv_style_list_get_style(list, ci);
 7002              		.loc 1 930 26 discriminator 1 view .LVU2463
 7003 0062 2B79     		ldrb	r3, [r5, #4]	@ zero_extendqisi2
 7004 0064 03F03F03 		and	r3, r3, #63
 930:lvgl/src/lv_core/lv_style.c ****         lv_style_t * _class = lv_style_list_get_style(list, ci);
 7005              		.loc 1 930 5 discriminator 1 view .LVU2464
 7006 0068 9C42     		cmp	r4, r3
 7007 006a 22DA     		bge	.L444
 7008              	.LBB761:
 931:lvgl/src/lv_core/lv_style.c ****         int16_t weight_act = _lv_style_get_opa(_class, prop, &value_act);
 7009              		.loc 1 931 9 is_stmt 1 view .LVU2465
 931:lvgl/src/lv_core/lv_style.c ****         int16_t weight_act = _lv_style_get_opa(_class, prop, &value_act);
 7010              		.loc 1 931 31 is_stmt 0 view .LVU2466
 7011 006c E1B2     		uxtb	r1, r4
 7012              	.LVL710:
 7013              	.LBB759:
 7014              	.LBI756:
 311:lvgl/src/lv_core/lv_style.h **** {
 7015              		.loc 2 311 28 is_stmt 1 view .LVU2467
 7016              	.LBB758:
ARM GAS  D:\Temp\cceOI0TF.s 			page 194


 313:lvgl/src/lv_core/lv_style.h ****     if(list->style_cnt == 0 || id >= list->style_cnt) return NULL;
 7017              		.loc 2 313 5 view .LVU2468
 313:lvgl/src/lv_core/lv_style.h ****     if(list->style_cnt == 0 || id >= list->style_cnt) return NULL;
 7018              		.loc 2 313 24 is_stmt 0 view .LVU2469
 7019 006e AA88     		ldrh	r2, [r5, #4]
 7020 0070 02F4C072 		and	r2, r2, #384
 313:lvgl/src/lv_core/lv_style.h ****     if(list->style_cnt == 0 || id >= list->style_cnt) return NULL;
 7021              		.loc 2 313 7 view .LVU2470
 7022 0074 B2F5C07F 		cmp	r2, #384
 7023 0078 D5D0     		beq	.L445
 7024              	.L429:
 314:lvgl/src/lv_core/lv_style.h ****     return list->style_list[id];
 7025              		.loc 2 314 5 is_stmt 1 view .LVU2471
 314:lvgl/src/lv_core/lv_style.h ****     return list->style_list[id];
 7026              		.loc 2 314 24 is_stmt 0 view .LVU2472
 7027 007a 2A79     		ldrb	r2, [r5, #4]	@ zero_extendqisi2
 314:lvgl/src/lv_core/lv_style.h ****     return list->style_list[id];
 7028              		.loc 2 314 7 view .LVU2473
 7029 007c 12F03F0F 		tst	r2, #63
 7030 0080 D4D0     		beq	.L437
 314:lvgl/src/lv_core/lv_style.h ****     return list->style_list[id];
 7031              		.loc 2 314 29 view .LVU2474
 7032 0082 8B42     		cmp	r3, r1
 7033 0084 D4D9     		bls	.L438
 7034              		.loc 2 315 5 is_stmt 1 view .LVU2475
 7035              		.loc 2 315 16 is_stmt 0 view .LVU2476
 7036 0086 2B68     		ldr	r3, [r5]
 7037              		.loc 2 315 28 view .LVU2477
 7038 0088 53F82100 		ldr	r0, [r3, r1, lsl #2]
 7039              	.L430:
 7040              	.LVL711:
 7041              		.loc 2 315 28 view .LVU2478
 7042              	.LBE758:
 7043              	.LBE759:
 932:lvgl/src/lv_core/lv_style.c ****         /*On perfect match return the value immediately*/
 7044              		.loc 1 932 9 is_stmt 1 view .LVU2479
 932:lvgl/src/lv_core/lv_style.c ****         /*On perfect match return the value immediately*/
 7045              		.loc 1 932 30 is_stmt 0 view .LVU2480
 7046 008c 0DF10702 		add	r2, sp, #7
 7047 0090 3946     		mov	r1, r7
 7048 0092 FFF7FEFF 		bl	_lv_style_get_opa
 7049              	.LVL712:
 934:lvgl/src/lv_core/lv_style.c ****             *res = value_act;
 7050              		.loc 1 934 9 is_stmt 1 view .LVU2481
 934:lvgl/src/lv_core/lv_style.c ****             *res = value_act;
 7051              		.loc 1 934 11 is_stmt 0 view .LVU2482
 7052 0096 8045     		cmp	r8, r0
 7053 0098 CCD0     		beq	.L446
 938:lvgl/src/lv_core/lv_style.c ****             *res = value_act;
 7054              		.loc 1 938 14 is_stmt 1 view .LVU2483
 938:lvgl/src/lv_core/lv_style.c ****             *res = value_act;
 7055              		.loc 1 938 16 is_stmt 0 view .LVU2484
 7056 009a 95F90430 		ldrsb	r3, [r5, #4]
 7057 009e 002B     		cmp	r3, #0
 7058 00a0 D0DB     		blt	.L447
 7059              	.L432:
 943:lvgl/src/lv_core/lv_style.c ****             weight =  weight_act;
ARM GAS  D:\Temp\cceOI0TF.s 			page 195


 7060              		.loc 1 943 14 is_stmt 1 view .LVU2485
 943:lvgl/src/lv_core/lv_style.c ****             weight =  weight_act;
 7061              		.loc 1 943 16 is_stmt 0 view .LVU2486
 7062 00a2 8642     		cmp	r6, r0
 7063 00a4 DBDA     		bge	.L433
 944:lvgl/src/lv_core/lv_style.c ****             *res = value_act;
 7064              		.loc 1 944 13 is_stmt 1 view .LVU2487
 7065              	.LVL713:
 945:lvgl/src/lv_core/lv_style.c ****         }
 7066              		.loc 1 945 13 view .LVU2488
 945:lvgl/src/lv_core/lv_style.c ****         }
 7067              		.loc 1 945 18 is_stmt 0 view .LVU2489
 7068 00a6 9DF80730 		ldrb	r3, [sp, #7]	@ zero_extendqisi2
 7069 00aa 89F80030 		strb	r3, [r9]
 944:lvgl/src/lv_core/lv_style.c ****             *res = value_act;
 7070              		.loc 1 944 20 view .LVU2490
 7071 00ae 0646     		mov	r6, r0
 7072 00b0 D5E7     		b	.L433
 7073              	.LVL714:
 7074              	.L444:
 944:lvgl/src/lv_core/lv_style.c ****             *res = value_act;
 7075              		.loc 1 944 20 view .LVU2491
 7076              	.LBE761:
 949:lvgl/src/lv_core/lv_style.c ****     else return LV_RES_INV;
 7077              		.loc 1 949 5 is_stmt 1 view .LVU2492
 949:lvgl/src/lv_core/lv_style.c ****     else return LV_RES_INV;
 7078              		.loc 1 949 7 is_stmt 0 view .LVU2493
 7079 00b2 002E     		cmp	r6, #0
 7080 00b4 05DB     		blt	.L439
 949:lvgl/src/lv_core/lv_style.c ****     else return LV_RES_INV;
 7081              		.loc 1 949 29 view .LVU2494
 7082 00b6 0120     		movs	r0, #1
 7083 00b8 C1E7     		b	.L427
 7084              	.LVL715:
 7085              	.L435:
 7086              	.LCFI73:
 7087              		.cfi_def_cfa_offset 0
 7088              		.cfi_restore 4
 7089              		.cfi_restore 5
 7090              		.cfi_restore 6
 7091              		.cfi_restore 7
 7092              		.cfi_restore 8
 7093              		.cfi_restore 9
 7094              		.cfi_restore 14
 918:lvgl/src/lv_core/lv_style.c ****     if(list->style_list == NULL) return LV_RES_INV;
 7095              		.loc 1 918 29 view .LVU2495
 7096 00ba 0020     		movs	r0, #0
 7097              	.LVL716:
 951:lvgl/src/lv_core/lv_style.c **** 
 7098              		.loc 1 951 1 view .LVU2496
 7099 00bc 7047     		bx	lr
 7100              	.LVL717:
 7101              	.L436:
 7102              	.LCFI74:
 7103              		.cfi_def_cfa_offset 40
 7104              		.cfi_offset 4, -28
 7105              		.cfi_offset 5, -24
ARM GAS  D:\Temp\cceOI0TF.s 			page 196


 7106              		.cfi_offset 6, -20
 7107              		.cfi_offset 7, -16
 7108              		.cfi_offset 8, -12
 7109              		.cfi_offset 9, -8
 7110              		.cfi_offset 14, -4
 919:lvgl/src/lv_core/lv_style.c **** 
 7111              		.loc 1 919 41 view .LVU2497
 7112 00be 0020     		movs	r0, #0
 7113              	.LVL718:
 919:lvgl/src/lv_core/lv_style.c **** 
 7114              		.loc 1 919 41 view .LVU2498
 7115 00c0 BDE7     		b	.L427
 7116              	.LVL719:
 7117              	.L439:
 950:lvgl/src/lv_core/lv_style.c **** }
 7118              		.loc 1 950 17 view .LVU2499
 7119 00c2 0020     		movs	r0, #0
 7120 00c4 BBE7     		b	.L427
 7121              		.cfi_endproc
 7122              	.LFE485:
 7124              		.section	.text._lv_style_list_get_ptr,"ax",%progbits
 7125              		.align	1
 7126              		.global	_lv_style_list_get_ptr
 7127              		.syntax unified
 7128              		.thumb
 7129              		.thumb_func
 7130              		.fpu fpv4-sp-d16
 7132              	_lv_style_list_get_ptr:
 7133              	.LVL720:
 7134              	.LFB486:
 965:lvgl/src/lv_core/lv_style.c ****     LV_ASSERT_STYLE_LIST(list);
 7135              		.loc 1 965 1 is_stmt 1 view -0
 7136              		.cfi_startproc
 7137              		@ args = 0, pretend = 0, frame = 8
 7138              		@ frame_needed = 0, uses_anonymous_args = 0
 966:lvgl/src/lv_core/lv_style.c **** 
 7139              		.loc 1 966 31 view .LVU2501
 968:lvgl/src/lv_core/lv_style.c ****     if(list->style_list == NULL) return LV_RES_INV;
 7140              		.loc 1 968 5 view .LVU2502
 968:lvgl/src/lv_core/lv_style.c ****     if(list->style_list == NULL) return LV_RES_INV;
 7141              		.loc 1 968 7 is_stmt 0 view .LVU2503
 7142 0000 0028     		cmp	r0, #0
 7143 0002 54D0     		beq	.L457
 965:lvgl/src/lv_core/lv_style.c ****     LV_ASSERT_STYLE_LIST(list);
 7144              		.loc 1 965 1 view .LVU2504
 7145 0004 2DE9F043 		push	{r4, r5, r6, r7, r8, r9, lr}
 7146              	.LCFI75:
 7147              		.cfi_def_cfa_offset 28
 7148              		.cfi_offset 4, -28
 7149              		.cfi_offset 5, -24
 7150              		.cfi_offset 6, -20
 7151              		.cfi_offset 7, -16
 7152              		.cfi_offset 8, -12
 7153              		.cfi_offset 9, -8
 7154              		.cfi_offset 14, -4
 7155 0008 83B0     		sub	sp, sp, #12
 7156              	.LCFI76:
ARM GAS  D:\Temp\cceOI0TF.s 			page 197


 7157              		.cfi_def_cfa_offset 40
 7158 000a 0546     		mov	r5, r0
 969:lvgl/src/lv_core/lv_style.c **** 
 7159              		.loc 1 969 5 is_stmt 1 view .LVU2505
 969:lvgl/src/lv_core/lv_style.c **** 
 7160              		.loc 1 969 12 is_stmt 0 view .LVU2506
 7161 000c 0368     		ldr	r3, [r0]
 969:lvgl/src/lv_core/lv_style.c **** 
 7162              		.loc 1 969 7 view .LVU2507
 7163 000e 002B     		cmp	r3, #0
 7164 0010 4FD0     		beq	.L458
 7165 0012 9146     		mov	r9, r2
 7166 0014 0F46     		mov	r7, r1
 971:lvgl/src/lv_core/lv_style.c ****     attr = prop >> 8;
 7167              		.loc 1 971 5 is_stmt 1 view .LVU2508
 972:lvgl/src/lv_core/lv_style.c ****     int16_t weight_goal = attr;
 7168              		.loc 1 972 5 view .LVU2509
 7169              	.LVL721:
 973:lvgl/src/lv_core/lv_style.c **** 
 7170              		.loc 1 973 5 view .LVU2510
 973:lvgl/src/lv_core/lv_style.c **** 
 7171              		.loc 1 973 13 is_stmt 0 view .LVU2511
 7172 0016 4FEA1128 		lsr	r8, r1, #8
 7173              	.LVL722:
 975:lvgl/src/lv_core/lv_style.c **** 
 7174              		.loc 1 975 5 is_stmt 1 view .LVU2512
 977:lvgl/src/lv_core/lv_style.c **** 
 7175              		.loc 1 977 5 view .LVU2513
 979:lvgl/src/lv_core/lv_style.c ****     for(ci = 0; ci < list->style_cnt; ci++) {
 7176              		.loc 1 979 5 view .LVU2514
 980:lvgl/src/lv_core/lv_style.c ****         lv_style_t * _class = lv_style_list_get_style(list, ci);
 7177              		.loc 1 980 5 view .LVU2515
 980:lvgl/src/lv_core/lv_style.c ****         lv_style_t * _class = lv_style_list_get_style(list, ci);
 7178              		.loc 1 980 12 is_stmt 0 view .LVU2516
 7179 001a 0024     		movs	r4, #0
 975:lvgl/src/lv_core/lv_style.c **** 
 7180              		.loc 1 975 13 view .LVU2517
 7181 001c 4FF0FF36 		mov	r6, #-1
 980:lvgl/src/lv_core/lv_style.c ****         lv_style_t * _class = lv_style_list_get_style(list, ci);
 7182              		.loc 1 980 5 view .LVU2518
 7183 0020 1BE0     		b	.L450
 7184              	.LVL723:
 7185              	.L467:
 7186              	.LBB762:
 7187              	.LBB763:
 7188              	.LBB764:
 313:lvgl/src/lv_core/lv_style.h ****     if(list->style_cnt == 0 || id >= list->style_cnt) return NULL;
 7189              		.loc 2 313 45 is_stmt 1 view .LVU2519
 313:lvgl/src/lv_core/lv_style.h ****     if(list->style_cnt == 0 || id >= list->style_cnt) return NULL;
 7190              		.loc 2 313 47 is_stmt 0 view .LVU2520
 7191 0022 0131     		adds	r1, r1, #1
 7192              	.LVL724:
 313:lvgl/src/lv_core/lv_style.h ****     if(list->style_cnt == 0 || id >= list->style_cnt) return NULL;
 7193              		.loc 2 313 47 view .LVU2521
 7194 0024 C9B2     		uxtb	r1, r1
 7195              	.LVL725:
 313:lvgl/src/lv_core/lv_style.h ****     if(list->style_cnt == 0 || id >= list->style_cnt) return NULL;
ARM GAS  D:\Temp\cceOI0TF.s 			page 198


 7196              		.loc 2 313 47 view .LVU2522
 7197 0026 24E0     		b	.L451
 7198              	.L459:
 314:lvgl/src/lv_core/lv_style.h ****     return list->style_list[id];
 7199              		.loc 2 314 62 view .LVU2523
 7200 0028 0020     		movs	r0, #0
 7201 002a 2BE0     		b	.L452
 7202              	.L460:
 7203 002c 0020     		movs	r0, #0
 7204 002e 29E0     		b	.L452
 7205              	.LVL726:
 7206              	.L468:
 314:lvgl/src/lv_core/lv_style.h ****     return list->style_list[id];
 7207              		.loc 2 314 62 view .LVU2524
 7208              	.LBE764:
 7209              	.LBE763:
 985:lvgl/src/lv_core/lv_style.c ****             return LV_RES_OK;
 7210              		.loc 1 985 13 is_stmt 1 view .LVU2525
 985:lvgl/src/lv_core/lv_style.c ****             return LV_RES_OK;
 7211              		.loc 1 985 18 is_stmt 0 view .LVU2526
 7212 0030 019B     		ldr	r3, [sp, #4]
 7213 0032 C9F80030 		str	r3, [r9]
 986:lvgl/src/lv_core/lv_style.c ****         }
 7214              		.loc 1 986 13 is_stmt 1 view .LVU2527
 986:lvgl/src/lv_core/lv_style.c ****         }
 7215              		.loc 1 986 20 is_stmt 0 view .LVU2528
 7216 0036 0120     		movs	r0, #1
 7217              	.LVL727:
 7218              	.L449:
 986:lvgl/src/lv_core/lv_style.c ****         }
 7219              		.loc 1 986 20 view .LVU2529
 7220              	.LBE762:
1001:lvgl/src/lv_core/lv_style.c **** 
 7221              		.loc 1 1001 1 view .LVU2530
 7222 0038 03B0     		add	sp, sp, #12
 7223              	.LCFI77:
 7224              		.cfi_remember_state
 7225              		.cfi_def_cfa_offset 28
 7226              		@ sp needed
 7227 003a BDE8F083 		pop	{r4, r5, r6, r7, r8, r9, pc}
 7228              	.LVL728:
 7229              	.L469:
 7230              	.LCFI78:
 7231              		.cfi_restore_state
 7232              	.LBB767:
 988:lvgl/src/lv_core/lv_style.c ****             *res = value_act;
 7233              		.loc 1 988 33 discriminator 1 view .LVU2531
 7234 003e 0028     		cmp	r0, #0
 7235 0040 2ADB     		blt	.L454
 988:lvgl/src/lv_core/lv_style.c ****             *res = value_act;
 7236              		.loc 1 988 52 discriminator 2 view .LVU2532
 7237 0042 4CBB     		cbnz	r4, .L454
 988:lvgl/src/lv_core/lv_style.c ****             *res = value_act;
 7238              		.loc 1 988 66 discriminator 3 view .LVU2533
 7239 0044 6B79     		ldrb	r3, [r5, #5]	@ zero_extendqisi2
 988:lvgl/src/lv_core/lv_style.c ****             *res = value_act;
 7240              		.loc 1 988 63 discriminator 3 view .LVU2534
ARM GAS  D:\Temp\cceOI0TF.s 			page 199


 7241 0046 13F0010F 		tst	r3, #1
 7242 004a 25D1     		bne	.L454
 989:lvgl/src/lv_core/lv_style.c ****             return LV_RES_OK;
 7243              		.loc 1 989 13 is_stmt 1 view .LVU2535
 989:lvgl/src/lv_core/lv_style.c ****             return LV_RES_OK;
 7244              		.loc 1 989 18 is_stmt 0 view .LVU2536
 7245 004c 019B     		ldr	r3, [sp, #4]
 7246 004e C9F80030 		str	r3, [r9]
 990:lvgl/src/lv_core/lv_style.c ****         }
 7247              		.loc 1 990 13 is_stmt 1 view .LVU2537
 990:lvgl/src/lv_core/lv_style.c ****         }
 7248              		.loc 1 990 20 is_stmt 0 view .LVU2538
 7249 0052 0120     		movs	r0, #1
 7250              	.LVL729:
 990:lvgl/src/lv_core/lv_style.c ****         }
 7251              		.loc 1 990 20 view .LVU2539
 7252 0054 F0E7     		b	.L449
 7253              	.LVL730:
 7254              	.L455:
 990:lvgl/src/lv_core/lv_style.c ****         }
 7255              		.loc 1 990 20 view .LVU2540
 7256              	.LBE767:
 980:lvgl/src/lv_core/lv_style.c ****         lv_style_t * _class = lv_style_list_get_style(list, ci);
 7257              		.loc 1 980 41 discriminator 2 view .LVU2541
 7258 0056 0134     		adds	r4, r4, #1
 7259              	.LVL731:
 980:lvgl/src/lv_core/lv_style.c ****         lv_style_t * _class = lv_style_list_get_style(list, ci);
 7260              		.loc 1 980 41 discriminator 2 view .LVU2542
 7261 0058 24B2     		sxth	r4, r4
 7262              	.LVL732:
 7263              	.L450:
 980:lvgl/src/lv_core/lv_style.c ****         lv_style_t * _class = lv_style_list_get_style(list, ci);
 7264              		.loc 1 980 26 discriminator 1 view .LVU2543
 7265 005a 2B79     		ldrb	r3, [r5, #4]	@ zero_extendqisi2
 7266 005c 03F03F03 		and	r3, r3, #63
 980:lvgl/src/lv_core/lv_style.c ****         lv_style_t * _class = lv_style_list_get_style(list, ci);
 7267              		.loc 1 980 5 discriminator 1 view .LVU2544
 7268 0060 9C42     		cmp	r4, r3
 7269 0062 20DA     		bge	.L466
 7270              	.LBB768:
 981:lvgl/src/lv_core/lv_style.c ****         int16_t weight_act = _lv_style_get_ptr(_class, prop, &value_act);
 7271              		.loc 1 981 9 is_stmt 1 view .LVU2545
 981:lvgl/src/lv_core/lv_style.c ****         int16_t weight_act = _lv_style_get_ptr(_class, prop, &value_act);
 7272              		.loc 1 981 31 is_stmt 0 view .LVU2546
 7273 0064 E1B2     		uxtb	r1, r4
 7274              	.LVL733:
 7275              	.LBB766:
 7276              	.LBI763:
 311:lvgl/src/lv_core/lv_style.h **** {
 7277              		.loc 2 311 28 is_stmt 1 view .LVU2547
 7278              	.LBB765:
 313:lvgl/src/lv_core/lv_style.h ****     if(list->style_cnt == 0 || id >= list->style_cnt) return NULL;
 7279              		.loc 2 313 5 view .LVU2548
 313:lvgl/src/lv_core/lv_style.h ****     if(list->style_cnt == 0 || id >= list->style_cnt) return NULL;
 7280              		.loc 2 313 24 is_stmt 0 view .LVU2549
 7281 0066 AA88     		ldrh	r2, [r5, #4]
 7282 0068 02F4C072 		and	r2, r2, #384
ARM GAS  D:\Temp\cceOI0TF.s 			page 200


 313:lvgl/src/lv_core/lv_style.h ****     if(list->style_cnt == 0 || id >= list->style_cnt) return NULL;
 7283              		.loc 2 313 7 view .LVU2550
 7284 006c B2F5C07F 		cmp	r2, #384
 7285 0070 D7D0     		beq	.L467
 7286              	.L451:
 314:lvgl/src/lv_core/lv_style.h ****     return list->style_list[id];
 7287              		.loc 2 314 5 is_stmt 1 view .LVU2551
 314:lvgl/src/lv_core/lv_style.h ****     return list->style_list[id];
 7288              		.loc 2 314 24 is_stmt 0 view .LVU2552
 7289 0072 2A79     		ldrb	r2, [r5, #4]	@ zero_extendqisi2
 314:lvgl/src/lv_core/lv_style.h ****     return list->style_list[id];
 7290              		.loc 2 314 7 view .LVU2553
 7291 0074 12F03F0F 		tst	r2, #63
 7292 0078 D6D0     		beq	.L459
 314:lvgl/src/lv_core/lv_style.h ****     return list->style_list[id];
 7293              		.loc 2 314 29 view .LVU2554
 7294 007a 8B42     		cmp	r3, r1
 7295 007c D6D9     		bls	.L460
 7296              		.loc 2 315 5 is_stmt 1 view .LVU2555
 7297              		.loc 2 315 16 is_stmt 0 view .LVU2556
 7298 007e 2B68     		ldr	r3, [r5]
 7299              		.loc 2 315 28 view .LVU2557
 7300 0080 53F82100 		ldr	r0, [r3, r1, lsl #2]
 7301              	.L452:
 7302              	.LVL734:
 7303              		.loc 2 315 28 view .LVU2558
 7304              	.LBE765:
 7305              	.LBE766:
 982:lvgl/src/lv_core/lv_style.c ****         /*On perfect match return the value immediately*/
 7306              		.loc 1 982 9 is_stmt 1 view .LVU2559
 982:lvgl/src/lv_core/lv_style.c ****         /*On perfect match return the value immediately*/
 7307              		.loc 1 982 30 is_stmt 0 view .LVU2560
 7308 0084 01AA     		add	r2, sp, #4
 7309 0086 3946     		mov	r1, r7
 7310 0088 FFF7FEFF 		bl	_lv_style_get_ptr
 7311              	.LVL735:
 984:lvgl/src/lv_core/lv_style.c ****             *res = value_act;
 7312              		.loc 1 984 9 is_stmt 1 view .LVU2561
 984:lvgl/src/lv_core/lv_style.c ****             *res = value_act;
 7313              		.loc 1 984 11 is_stmt 0 view .LVU2562
 7314 008c 8045     		cmp	r8, r0
 7315 008e CFD0     		beq	.L468
 988:lvgl/src/lv_core/lv_style.c ****             *res = value_act;
 7316              		.loc 1 988 14 is_stmt 1 view .LVU2563
 988:lvgl/src/lv_core/lv_style.c ****             *res = value_act;
 7317              		.loc 1 988 16 is_stmt 0 view .LVU2564
 7318 0090 95F90430 		ldrsb	r3, [r5, #4]
 7319 0094 002B     		cmp	r3, #0
 7320 0096 D2DB     		blt	.L469
 7321              	.L454:
 993:lvgl/src/lv_core/lv_style.c ****             weight =  weight_act;
 7322              		.loc 1 993 14 is_stmt 1 view .LVU2565
 993:lvgl/src/lv_core/lv_style.c ****             weight =  weight_act;
 7323              		.loc 1 993 16 is_stmt 0 view .LVU2566
 7324 0098 8642     		cmp	r6, r0
 7325 009a DCDA     		bge	.L455
 994:lvgl/src/lv_core/lv_style.c ****             *res = value_act;
ARM GAS  D:\Temp\cceOI0TF.s 			page 201


 7326              		.loc 1 994 13 is_stmt 1 view .LVU2567
 7327              	.LVL736:
 995:lvgl/src/lv_core/lv_style.c ****         }
 7328              		.loc 1 995 13 view .LVU2568
 995:lvgl/src/lv_core/lv_style.c ****         }
 7329              		.loc 1 995 18 is_stmt 0 view .LVU2569
 7330 009c 019B     		ldr	r3, [sp, #4]
 7331 009e C9F80030 		str	r3, [r9]
 994:lvgl/src/lv_core/lv_style.c ****             *res = value_act;
 7332              		.loc 1 994 20 view .LVU2570
 7333 00a2 0646     		mov	r6, r0
 7334 00a4 D7E7     		b	.L455
 7335              	.LVL737:
 7336              	.L466:
 994:lvgl/src/lv_core/lv_style.c ****             *res = value_act;
 7337              		.loc 1 994 20 view .LVU2571
 7338              	.LBE768:
 999:lvgl/src/lv_core/lv_style.c ****     else return LV_RES_INV;
 7339              		.loc 1 999 5 is_stmt 1 view .LVU2572
 999:lvgl/src/lv_core/lv_style.c ****     else return LV_RES_INV;
 7340              		.loc 1 999 7 is_stmt 0 view .LVU2573
 7341 00a6 002E     		cmp	r6, #0
 7342 00a8 05DB     		blt	.L461
 999:lvgl/src/lv_core/lv_style.c ****     else return LV_RES_INV;
 7343              		.loc 1 999 29 view .LVU2574
 7344 00aa 0120     		movs	r0, #1
 7345 00ac C4E7     		b	.L449
 7346              	.LVL738:
 7347              	.L457:
 7348              	.LCFI79:
 7349              		.cfi_def_cfa_offset 0
 7350              		.cfi_restore 4
 7351              		.cfi_restore 5
 7352              		.cfi_restore 6
 7353              		.cfi_restore 7
 7354              		.cfi_restore 8
 7355              		.cfi_restore 9
 7356              		.cfi_restore 14
 968:lvgl/src/lv_core/lv_style.c ****     if(list->style_list == NULL) return LV_RES_INV;
 7357              		.loc 1 968 29 view .LVU2575
 7358 00ae 0020     		movs	r0, #0
 7359              	.LVL739:
1001:lvgl/src/lv_core/lv_style.c **** 
 7360              		.loc 1 1001 1 view .LVU2576
 7361 00b0 7047     		bx	lr
 7362              	.LVL740:
 7363              	.L458:
 7364              	.LCFI80:
 7365              		.cfi_def_cfa_offset 40
 7366              		.cfi_offset 4, -28
 7367              		.cfi_offset 5, -24
 7368              		.cfi_offset 6, -20
 7369              		.cfi_offset 7, -16
 7370              		.cfi_offset 8, -12
 7371              		.cfi_offset 9, -8
 7372              		.cfi_offset 14, -4
 969:lvgl/src/lv_core/lv_style.c **** 
ARM GAS  D:\Temp\cceOI0TF.s 			page 202


 7373              		.loc 1 969 41 view .LVU2577
 7374 00b2 0020     		movs	r0, #0
 7375              	.LVL741:
 969:lvgl/src/lv_core/lv_style.c **** 
 7376              		.loc 1 969 41 view .LVU2578
 7377 00b4 C0E7     		b	.L449
 7378              	.LVL742:
 7379              	.L461:
1000:lvgl/src/lv_core/lv_style.c **** }
 7380              		.loc 1 1000 17 view .LVU2579
 7381 00b6 0020     		movs	r0, #0
 7382 00b8 BEE7     		b	.L449
 7383              		.cfi_endproc
 7384              	.LFE486:
 7386              		.section	.text.lv_debug_check_style,"ax",%progbits
 7387              		.align	1
 7388              		.global	lv_debug_check_style
 7389              		.syntax unified
 7390              		.thumb
 7391              		.thumb_func
 7392              		.fpu fpv4-sp-d16
 7394              	lv_debug_check_style:
 7395              	.LVL743:
 7396              	.LFB487:
1009:lvgl/src/lv_core/lv_style.c ****     if(style == NULL) return true;  /*NULL style is still valid*/
 7397              		.loc 1 1009 1 is_stmt 1 view -0
 7398              		.cfi_startproc
 7399              		@ args = 0, pretend = 0, frame = 0
 7400              		@ frame_needed = 0, uses_anonymous_args = 0
 7401              		@ link register save eliminated.
1010:lvgl/src/lv_core/lv_style.c **** 
 7402              		.loc 1 1010 5 view .LVU2581
1020:lvgl/src/lv_core/lv_style.c **** 
 7403              		.loc 1 1020 1 is_stmt 0 view .LVU2582
 7404 0000 0120     		movs	r0, #1
 7405              	.LVL744:
1020:lvgl/src/lv_core/lv_style.c **** 
 7406              		.loc 1 1020 1 view .LVU2583
 7407 0002 7047     		bx	lr
 7408              		.cfi_endproc
 7409              	.LFE487:
 7411              		.section	.text.lv_debug_check_style_list,"ax",%progbits
 7412              		.align	1
 7413              		.global	lv_debug_check_style_list
 7414              		.syntax unified
 7415              		.thumb
 7416              		.thumb_func
 7417              		.fpu fpv4-sp-d16
 7419              	lv_debug_check_style_list:
 7420              	.LVL745:
 7421              	.LFB488:
1028:lvgl/src/lv_core/lv_style.c ****     if(list == NULL) return true;  /*NULL list is still valid*/
 7422              		.loc 1 1028 1 is_stmt 1 view -0
 7423              		.cfi_startproc
 7424              		@ args = 0, pretend = 0, frame = 0
 7425              		@ frame_needed = 0, uses_anonymous_args = 0
 7426              		@ link register save eliminated.
ARM GAS  D:\Temp\cceOI0TF.s 			page 203


1029:lvgl/src/lv_core/lv_style.c **** 
 7427              		.loc 1 1029 5 view .LVU2585
1039:lvgl/src/lv_core/lv_style.c **** 
 7428              		.loc 1 1039 1 is_stmt 0 view .LVU2586
 7429 0000 0120     		movs	r0, #1
 7430              	.LVL746:
1039:lvgl/src/lv_core/lv_style.c **** 
 7431              		.loc 1 1039 1 view .LVU2587
 7432 0002 7047     		bx	lr
 7433              		.cfi_endproc
 7434              	.LFE488:
 7436              		.section	.rodata._lv_style_list_remove_style.str1.4,"aMS",%progbits,1
 7437              		.align	2
 7438              	.LC0:
 7439 0000 4F757420 		.ascii	"Out of memory\000"
 7439      6F66206D 
 7439      656D6F72 
 7439      7900
 7440              		.text
 7441              	.Letext0:
 7442              		.file 4 "c:\\stm32\\gnu mcu eclipse\\arm embedded gcc\\8.2.1-1.4-20190214-0604\\arm-none-eabi\\inc
 7443              		.file 5 "c:\\stm32\\gnu mcu eclipse\\arm embedded gcc\\8.2.1-1.4-20190214-0604\\arm-none-eabi\\inc
 7444              		.file 6 "Drivers/CMSIS/Include/core_cm4.h"
 7445              		.file 7 "Drivers/CMSIS/Device/ST/STM32F4xx/Include/system_stm32f4xx.h"
 7446              		.file 8 "c:\\stm32\\gnu mcu eclipse\\arm embedded gcc\\8.2.1-1.4-20190214-0604\\lib\\gcc\\arm-none
 7447              		.file 9 "Drivers/STM32F4xx_HAL_Driver/Inc/stm32f4xx_hal.h"
 7448              		.file 10 "lvgl/lv_conf.h"
 7449              		.file 11 "c:\\stm32\\gnu mcu eclipse\\arm embedded gcc\\8.2.1-1.4-20190214-0604\\arm-none-eabi\\in
 7450              		.file 12 "c:\\stm32\\gnu mcu eclipse\\arm embedded gcc\\8.2.1-1.4-20190214-0604\\arm-none-eabi\\in
 7451              		.file 13 "c:\\stm32\\gnu mcu eclipse\\arm embedded gcc\\8.2.1-1.4-20190214-0604\\arm-none-eabi\\in
 7452              		.file 14 "lvgl/src/lv_core/../lv_font/../lv_misc/lv_types.h"
 7453              		.file 15 "lvgl/src/lv_core/../lv_font/lv_font.h"
 7454              		.file 16 "lvgl/src/lv_core/../lv_misc/lv_color.h"
 7455              		.file 17 "lvgl/src/lv_core/../lv_misc/lv_anim.h"
 7456              		.file 18 "lvgl/src/lv_core/../lv_draw/../lv_misc/lv_txt.h"
 7457              		.file 19 "lvgl/src/lv_core/../lv_draw/lv_draw_label.h"
 7458              		.file 20 "lvgl/src/lv_core/../lv_misc/lv_debug.h"
ARM GAS  D:\Temp\cceOI0TF.s 			page 204


DEFINED SYMBOLS
                            *ABS*:0000000000000000 lv_style.c
  D:\Temp\cceOI0TF.s:18     .text.lv_style_init:0000000000000000 $t
  D:\Temp\cceOI0TF.s:26     .text.lv_style_init:0000000000000000 lv_style_init
  D:\Temp\cceOI0TF.s:50     .text.lv_style_list_init:0000000000000000 $t
  D:\Temp\cceOI0TF.s:57     .text.lv_style_list_init:0000000000000000 lv_style_list_init
  D:\Temp\cceOI0TF.s:80     .text._lv_style_list_remove_style:0000000000000000 $t
  D:\Temp\cceOI0TF.s:87     .text._lv_style_list_remove_style:0000000000000000 _lv_style_list_remove_style
  D:\Temp\cceOI0TF.s:278    .text._lv_style_list_remove_style:00000000000000b0 $d
  D:\Temp\cceOI0TF.s:283    .text._lv_style_list_add_style:0000000000000000 $t
  D:\Temp\cceOI0TF.s:290    .text._lv_style_list_add_style:0000000000000000 _lv_style_list_add_style
  D:\Temp\cceOI0TF.s:462    .text._lv_style_list_add_style:0000000000000098 $d
  D:\Temp\cceOI0TF.s:467    .text.get_alloc_local_style:0000000000000000 $t
  D:\Temp\cceOI0TF.s:473    .text.get_alloc_local_style:0000000000000000 get_alloc_local_style
  D:\Temp\cceOI0TF.s:613    .text.get_alloc_local_style:0000000000000078 $d
  D:\Temp\cceOI0TF.s:618    .text.lv_style_reset:0000000000000000 $t
  D:\Temp\cceOI0TF.s:625    .text.lv_style_reset:0000000000000000 lv_style_reset
  D:\Temp\cceOI0TF.s:657    .text._lv_style_get_mem_size:0000000000000000 $t
  D:\Temp\cceOI0TF.s:664    .text._lv_style_get_mem_size:0000000000000000 _lv_style_get_mem_size
  D:\Temp\cceOI0TF.s:823    .text.lv_style_copy:0000000000000000 $t
  D:\Temp\cceOI0TF.s:830    .text.lv_style_copy:0000000000000000 lv_style_copy
  D:\Temp\cceOI0TF.s:895    .text.lv_style_remove_prop:0000000000000000 $t
  D:\Temp\cceOI0TF.s:902    .text.lv_style_remove_prop:0000000000000000 lv_style_remove_prop
  D:\Temp\cceOI0TF.s:1397   .text._lv_style_set_int:0000000000000000 $t
  D:\Temp\cceOI0TF.s:1404   .text._lv_style_set_int:0000000000000000 _lv_style_set_int
  D:\Temp\cceOI0TF.s:2007   .text._lv_style_set_int:0000000000000178 $d
  D:\Temp\cceOI0TF.s:2012   .text._lv_style_set_color:0000000000000000 $t
  D:\Temp\cceOI0TF.s:2019   .text._lv_style_set_color:0000000000000000 _lv_style_set_color
  D:\Temp\cceOI0TF.s:2620   .text._lv_style_set_color:0000000000000178 $d
  D:\Temp\cceOI0TF.s:2625   .text._lv_style_set_opa:0000000000000000 $t
  D:\Temp\cceOI0TF.s:2632   .text._lv_style_set_opa:0000000000000000 _lv_style_set_opa
  D:\Temp\cceOI0TF.s:3234   .text._lv_style_set_opa:000000000000017c $d
  D:\Temp\cceOI0TF.s:3239   .text._lv_style_set_ptr:0000000000000000 $t
  D:\Temp\cceOI0TF.s:3246   .text._lv_style_set_ptr:0000000000000000 _lv_style_set_ptr
  D:\Temp\cceOI0TF.s:3846   .text._lv_style_set_ptr:0000000000000178 $d
  D:\Temp\cceOI0TF.s:3851   .text._lv_style_get_int:0000000000000000 $t
  D:\Temp\cceOI0TF.s:3858   .text._lv_style_get_int:0000000000000000 _lv_style_get_int
  D:\Temp\cceOI0TF.s:4291   .text._lv_style_get_opa:0000000000000000 $t
  D:\Temp\cceOI0TF.s:4298   .text._lv_style_get_opa:0000000000000000 _lv_style_get_opa
  D:\Temp\cceOI0TF.s:4731   .text._lv_style_get_color:0000000000000000 $t
  D:\Temp\cceOI0TF.s:4738   .text._lv_style_get_color:0000000000000000 _lv_style_get_color
  D:\Temp\cceOI0TF.s:5170   .text._lv_style_get_ptr:0000000000000000 $t
  D:\Temp\cceOI0TF.s:5177   .text._lv_style_get_ptr:0000000000000000 _lv_style_get_ptr
  D:\Temp\cceOI0TF.s:5609   .text.lv_style_list_get_local_style:0000000000000000 $t
  D:\Temp\cceOI0TF.s:5616   .text.lv_style_list_get_local_style:0000000000000000 lv_style_list_get_local_style
  D:\Temp\cceOI0TF.s:5664   .text._lv_style_list_get_transition_style:0000000000000000 $t
  D:\Temp\cceOI0TF.s:5671   .text._lv_style_list_get_transition_style:0000000000000000 _lv_style_list_get_transition_style
  D:\Temp\cceOI0TF.s:5704   .text._lv_style_list_reset:0000000000000000 $t
  D:\Temp\cceOI0TF.s:5711   .text._lv_style_list_reset:0000000000000000 _lv_style_list_reset
  D:\Temp\cceOI0TF.s:5833   .text.lv_style_list_copy:0000000000000000 $t
  D:\Temp\cceOI0TF.s:5840   .text.lv_style_list_copy:0000000000000000 lv_style_list_copy
  D:\Temp\cceOI0TF.s:6051   .text._lv_style_list_add_trans_style:0000000000000000 $t
  D:\Temp\cceOI0TF.s:6058   .text._lv_style_list_add_trans_style:0000000000000000 _lv_style_list_add_trans_style
  D:\Temp\cceOI0TF.s:6164   .text._lv_style_list_add_trans_style:000000000000005c $d
  D:\Temp\cceOI0TF.s:6169   .text._lv_style_list_set_local_int:0000000000000000 $t
  D:\Temp\cceOI0TF.s:6176   .text._lv_style_list_set_local_int:0000000000000000 _lv_style_list_set_local_int
  D:\Temp\cceOI0TF.s:6209   .text._lv_style_list_set_local_opa:0000000000000000 $t
ARM GAS  D:\Temp\cceOI0TF.s 			page 205


  D:\Temp\cceOI0TF.s:6216   .text._lv_style_list_set_local_opa:0000000000000000 _lv_style_list_set_local_opa
  D:\Temp\cceOI0TF.s:6249   .text._lv_style_list_set_local_color:0000000000000000 $t
  D:\Temp\cceOI0TF.s:6256   .text._lv_style_list_set_local_color:0000000000000000 _lv_style_list_set_local_color
  D:\Temp\cceOI0TF.s:6291   .text._lv_style_list_set_local_ptr:0000000000000000 $t
  D:\Temp\cceOI0TF.s:6298   .text._lv_style_list_set_local_ptr:0000000000000000 _lv_style_list_set_local_ptr
  D:\Temp\cceOI0TF.s:6332   .text._lv_style_list_get_int:0000000000000000 $t
  D:\Temp\cceOI0TF.s:6339   .text._lv_style_list_get_int:0000000000000000 _lv_style_list_get_int
  D:\Temp\cceOI0TF.s:6596   .text._lv_style_list_get_color:0000000000000000 $t
  D:\Temp\cceOI0TF.s:6603   .text._lv_style_list_get_color:0000000000000000 _lv_style_list_get_color
  D:\Temp\cceOI0TF.s:6861   .text._lv_style_list_get_opa:0000000000000000 $t
  D:\Temp\cceOI0TF.s:6868   .text._lv_style_list_get_opa:0000000000000000 _lv_style_list_get_opa
  D:\Temp\cceOI0TF.s:7125   .text._lv_style_list_get_ptr:0000000000000000 $t
  D:\Temp\cceOI0TF.s:7132   .text._lv_style_list_get_ptr:0000000000000000 _lv_style_list_get_ptr
  D:\Temp\cceOI0TF.s:7387   .text.lv_debug_check_style:0000000000000000 $t
  D:\Temp\cceOI0TF.s:7394   .text.lv_debug_check_style:0000000000000000 lv_debug_check_style
  D:\Temp\cceOI0TF.s:7412   .text.lv_debug_check_style_list:0000000000000000 $t
  D:\Temp\cceOI0TF.s:7419   .text.lv_debug_check_style_list:0000000000000000 lv_debug_check_style_list
  D:\Temp\cceOI0TF.s:7437   .rodata._lv_style_list_remove_style.str1.4:0000000000000000 $d

UNDEFINED SYMBOLS
_lv_memset_00
lv_mem_alloc
lv_debug_check_null
lv_mem_free
lv_debug_log_error
lv_mem_realloc
_lv_memcpy
