ARM GAS  D:\Temp\cceOI0TF.s 			page 1


   1              		.cpu cortex-m4
   2              		.eabi_attribute 27, 1
   3              		.eabi_attribute 28, 1
   4              		.eabi_attribute 20, 1
   5              		.eabi_attribute 21, 1
   6              		.eabi_attribute 23, 3
   7              		.eabi_attribute 24, 1
   8              		.eabi_attribute 25, 1
   9              		.eabi_attribute 26, 1
  10              		.eabi_attribute 30, 1
  11              		.eabi_attribute 34, 1
  12              		.eabi_attribute 18, 4
  13              		.file	"lv_style.c"
  14              		.text
  15              	.Ltext0:
  16              		.cfi_sections	.debug_frame
  17              		.section	.text.lv_style_init,"ax",%progbits
  18              		.align	1
  19              		.global	lv_style_init
  20              		.arch armv7e-m
  21              		.syntax unified
  22              		.thumb
  23              		.thumb_func
  24              		.fpu fpv4-sp-d16
  26              	lv_style_init:
  27              	.LVL0:
  28              	.LFB458:
  29              		.file 1 "lvgl/src/lv_core/lv_style.c"
   1:lvgl/src/lv_core/lv_style.c **** /**
   2:lvgl/src/lv_core/lv_style.c ****  * @file lv_style.c
   3:lvgl/src/lv_core/lv_style.c ****  *
   4:lvgl/src/lv_core/lv_style.c ****  */
   5:lvgl/src/lv_core/lv_style.c **** 
   6:lvgl/src/lv_core/lv_style.c **** /*********************
   7:lvgl/src/lv_core/lv_style.c ****  *      INCLUDES
   8:lvgl/src/lv_core/lv_style.c ****  *********************/
   9:lvgl/src/lv_core/lv_style.c **** #include "lv_obj.h"
  10:lvgl/src/lv_core/lv_style.c **** #include "../lv_misc/lv_mem.h"
  11:lvgl/src/lv_core/lv_style.c **** #include "../lv_misc/lv_anim.h"
  12:lvgl/src/lv_core/lv_style.c **** 
  13:lvgl/src/lv_core/lv_style.c **** /*********************
  14:lvgl/src/lv_core/lv_style.c ****  *      DEFINES
  15:lvgl/src/lv_core/lv_style.c ****  *********************/
  16:lvgl/src/lv_core/lv_style.c **** #define STYLE_MIX_MAX 256
  17:lvgl/src/lv_core/lv_style.c **** #define STYLE_MIX_SHIFT 8 /*log2(STYLE_MIX_MAX)*/
  18:lvgl/src/lv_core/lv_style.c **** 
  19:lvgl/src/lv_core/lv_style.c **** #define VAL_PROP(v1, v2, r) v1 + (((v2 - v1) * r) >> STYLE_MIX_SHIFT)
  20:lvgl/src/lv_core/lv_style.c **** #define STYLE_ATTR_MIX(attr, r)                                                                    
  21:lvgl/src/lv_core/lv_style.c ****     if(start->attr != end->attr) {                                                                 
  22:lvgl/src/lv_core/lv_style.c ****         res->attr = VAL_PROP(start->attr, end->attr, r);                                           
  23:lvgl/src/lv_core/lv_style.c ****     } else {                                                                                       
  24:lvgl/src/lv_core/lv_style.c ****         res->attr = start->attr;                                                                   
  25:lvgl/src/lv_core/lv_style.c ****     }
  26:lvgl/src/lv_core/lv_style.c **** 
  27:lvgl/src/lv_core/lv_style.c **** #define LV_STYLE_PROP_TO_ID(prop) (prop & 0xFF);
  28:lvgl/src/lv_core/lv_style.c **** #define LV_STYLE_PROP_GET_TYPE(prop) ((prop >> 8) & 0xFF);
  29:lvgl/src/lv_core/lv_style.c **** 
ARM GAS  D:\Temp\cceOI0TF.s 			page 2


  30:lvgl/src/lv_core/lv_style.c **** /**********************
  31:lvgl/src/lv_core/lv_style.c ****  *      TYPEDEFS
  32:lvgl/src/lv_core/lv_style.c ****  **********************/
  33:lvgl/src/lv_core/lv_style.c **** 
  34:lvgl/src/lv_core/lv_style.c **** /**********************
  35:lvgl/src/lv_core/lv_style.c ****  *  STATIC PROTOTYPES
  36:lvgl/src/lv_core/lv_style.c ****  **********************/
  37:lvgl/src/lv_core/lv_style.c **** LV_ATTRIBUTE_FAST_MEM static inline int32_t get_property_index(const lv_style_t * style, lv_style_p
  38:lvgl/src/lv_core/lv_style.c **** static lv_style_t * get_alloc_local_style(lv_style_list_t * list);
  39:lvgl/src/lv_core/lv_style.c **** static inline void style_resize(lv_style_t * style, size_t sz);
  40:lvgl/src/lv_core/lv_style.c **** static inline lv_style_property_t get_style_prop(const lv_style_t * style, size_t idx);
  41:lvgl/src/lv_core/lv_style.c **** static inline uint8_t get_style_prop_id(const lv_style_t * style, size_t idx);
  42:lvgl/src/lv_core/lv_style.c **** static inline uint8_t get_style_prop_attr(const lv_style_t * style, size_t idx);
  43:lvgl/src/lv_core/lv_style.c **** static inline size_t get_prop_size(uint8_t prop_id);
  44:lvgl/src/lv_core/lv_style.c **** static inline size_t get_next_prop_index(uint8_t prop_id, size_t id);
  45:lvgl/src/lv_core/lv_style.c **** 
  46:lvgl/src/lv_core/lv_style.c **** /**********************
  47:lvgl/src/lv_core/lv_style.c ****  *  GLOBAL VARIABLES
  48:lvgl/src/lv_core/lv_style.c ****  **********************/
  49:lvgl/src/lv_core/lv_style.c **** 
  50:lvgl/src/lv_core/lv_style.c **** /**********************
  51:lvgl/src/lv_core/lv_style.c ****  *  STATIC VARIABLES
  52:lvgl/src/lv_core/lv_style.c ****  **********************/
  53:lvgl/src/lv_core/lv_style.c **** 
  54:lvgl/src/lv_core/lv_style.c **** /**********************
  55:lvgl/src/lv_core/lv_style.c ****  *      MACROS
  56:lvgl/src/lv_core/lv_style.c ****  **********************/
  57:lvgl/src/lv_core/lv_style.c **** 
  58:lvgl/src/lv_core/lv_style.c **** /**********************
  59:lvgl/src/lv_core/lv_style.c ****  *   GLOBAL FUNCTIONS
  60:lvgl/src/lv_core/lv_style.c ****  **********************/
  61:lvgl/src/lv_core/lv_style.c **** 
  62:lvgl/src/lv_core/lv_style.c **** /**
  63:lvgl/src/lv_core/lv_style.c ****  * Initialize a style
  64:lvgl/src/lv_core/lv_style.c ****  * @param style pointer to a style to initialize
  65:lvgl/src/lv_core/lv_style.c ****  */
  66:lvgl/src/lv_core/lv_style.c **** void lv_style_init(lv_style_t * style)
  67:lvgl/src/lv_core/lv_style.c **** {
  30              		.loc 1 67 1 view -0
  31              		.cfi_startproc
  32              		@ args = 0, pretend = 0, frame = 0
  33              		@ frame_needed = 0, uses_anonymous_args = 0
  34              		.loc 1 67 1 is_stmt 0 view .LVU1
  35 0000 08B5     		push	{r3, lr}
  36              	.LCFI0:
  37              		.cfi_def_cfa_offset 8
  38              		.cfi_offset 3, -8
  39              		.cfi_offset 14, -4
  68:lvgl/src/lv_core/lv_style.c ****     _lv_memset_00(style, sizeof(lv_style_t));
  40              		.loc 1 68 5 is_stmt 1 view .LVU2
  41 0002 0421     		movs	r1, #4
  42 0004 FFF7FEFF 		bl	_lv_memset_00
  43              	.LVL1:
  69:lvgl/src/lv_core/lv_style.c **** #if LV_USE_ASSERT_STYLE
  70:lvgl/src/lv_core/lv_style.c ****     style->sentinel = LV_DEBUG_STYLE_SENTINEL_VALUE;
  71:lvgl/src/lv_core/lv_style.c **** #endif
  72:lvgl/src/lv_core/lv_style.c **** }
ARM GAS  D:\Temp\cceOI0TF.s 			page 3


  44              		.loc 1 72 1 is_stmt 0 view .LVU3
  45 0008 08BD     		pop	{r3, pc}
  46              		.cfi_endproc
  47              	.LFE458:
  49              		.section	.text.lv_style_list_init,"ax",%progbits
  50              		.align	1
  51              		.global	lv_style_list_init
  52              		.syntax unified
  53              		.thumb
  54              		.thumb_func
  55              		.fpu fpv4-sp-d16
  57              	lv_style_list_init:
  58              	.LVL2:
  59              	.LFB461:
  73:lvgl/src/lv_core/lv_style.c **** 
  74:lvgl/src/lv_core/lv_style.c **** /**
  75:lvgl/src/lv_core/lv_style.c ****  * Copy a style with all its properties
  76:lvgl/src/lv_core/lv_style.c ****  * @param style_dest pointer to the destination style. (Should be initialized with `lv_style_init()
  77:lvgl/src/lv_core/lv_style.c ****  * @param style_src pointer to the source (to copy )style
  78:lvgl/src/lv_core/lv_style.c ****  */
  79:lvgl/src/lv_core/lv_style.c **** void lv_style_copy(lv_style_t * style_dest, const lv_style_t * style_src)
  80:lvgl/src/lv_core/lv_style.c **** {
  81:lvgl/src/lv_core/lv_style.c ****     if(style_src == NULL) return;
  82:lvgl/src/lv_core/lv_style.c **** 
  83:lvgl/src/lv_core/lv_style.c ****     LV_ASSERT_STYLE(style_dest);
  84:lvgl/src/lv_core/lv_style.c ****     LV_ASSERT_STYLE(style_src);
  85:lvgl/src/lv_core/lv_style.c **** 
  86:lvgl/src/lv_core/lv_style.c ****     if(style_src->map == NULL) return;
  87:lvgl/src/lv_core/lv_style.c **** 
  88:lvgl/src/lv_core/lv_style.c ****     uint16_t size = _lv_style_get_mem_size(style_src);
  89:lvgl/src/lv_core/lv_style.c ****     style_dest->map = lv_mem_alloc(size);
  90:lvgl/src/lv_core/lv_style.c ****     _lv_memcpy(style_dest->map, style_src->map, size);
  91:lvgl/src/lv_core/lv_style.c **** }
  92:lvgl/src/lv_core/lv_style.c **** 
  93:lvgl/src/lv_core/lv_style.c **** /**
  94:lvgl/src/lv_core/lv_style.c ****  * Remove a property from a style
  95:lvgl/src/lv_core/lv_style.c ****  * @param style pointer to a style
  96:lvgl/src/lv_core/lv_style.c ****  * @param prop a style property ORed with a state.
  97:lvgl/src/lv_core/lv_style.c ****  * E.g. `LV_STYLE_BORDER_WIDTH | (LV_STATE_PRESSED << LV_STYLE_STATE_POS)`
  98:lvgl/src/lv_core/lv_style.c ****  * @return true: the property was found and removed; false: the property wasn't found
  99:lvgl/src/lv_core/lv_style.c ****  */
 100:lvgl/src/lv_core/lv_style.c **** bool lv_style_remove_prop(lv_style_t * style, lv_style_property_t prop)
 101:lvgl/src/lv_core/lv_style.c **** {
 102:lvgl/src/lv_core/lv_style.c ****     if(style == NULL) return false;
 103:lvgl/src/lv_core/lv_style.c ****     LV_ASSERT_STYLE(style);
 104:lvgl/src/lv_core/lv_style.c **** 
 105:lvgl/src/lv_core/lv_style.c ****     int32_t id = get_property_index(style, prop);
 106:lvgl/src/lv_core/lv_style.c ****     /*The property exists but not sure it's state is the same*/
 107:lvgl/src/lv_core/lv_style.c ****     if(id >= 0) {
 108:lvgl/src/lv_core/lv_style.c ****         lv_style_attr_t attr_found;
 109:lvgl/src/lv_core/lv_style.c ****         lv_style_attr_t attr_goal;
 110:lvgl/src/lv_core/lv_style.c **** 
 111:lvgl/src/lv_core/lv_style.c ****         attr_found = get_style_prop_attr(style, id);
 112:lvgl/src/lv_core/lv_style.c ****         attr_goal = (prop >> 8) & 0xFFU;
 113:lvgl/src/lv_core/lv_style.c **** 
 114:lvgl/src/lv_core/lv_style.c ****         if(LV_STYLE_ATTR_GET_STATE(attr_found) == LV_STYLE_ATTR_GET_STATE(attr_goal)) {
 115:lvgl/src/lv_core/lv_style.c ****             uint32_t map_size = _lv_style_get_mem_size(style);
ARM GAS  D:\Temp\cceOI0TF.s 			page 4


 116:lvgl/src/lv_core/lv_style.c ****             uint8_t prop_size = get_prop_size(prop);
 117:lvgl/src/lv_core/lv_style.c **** 
 118:lvgl/src/lv_core/lv_style.c ****             /*Move the props to fill the space of the property to delete*/
 119:lvgl/src/lv_core/lv_style.c ****             uint32_t i;
 120:lvgl/src/lv_core/lv_style.c ****             for(i = id; i < map_size - prop_size; i++) {
 121:lvgl/src/lv_core/lv_style.c ****                 style->map[i] = style->map[i + prop_size];
 122:lvgl/src/lv_core/lv_style.c ****             }
 123:lvgl/src/lv_core/lv_style.c **** 
 124:lvgl/src/lv_core/lv_style.c ****             style_resize(style, map_size - prop_size);
 125:lvgl/src/lv_core/lv_style.c **** 
 126:lvgl/src/lv_core/lv_style.c ****             return true;
 127:lvgl/src/lv_core/lv_style.c ****         }
 128:lvgl/src/lv_core/lv_style.c ****     }
 129:lvgl/src/lv_core/lv_style.c **** 
 130:lvgl/src/lv_core/lv_style.c ****     return false;
 131:lvgl/src/lv_core/lv_style.c **** }
 132:lvgl/src/lv_core/lv_style.c **** 
 133:lvgl/src/lv_core/lv_style.c **** /**
 134:lvgl/src/lv_core/lv_style.c ****  * Initialize a style list
 135:lvgl/src/lv_core/lv_style.c ****  * @param list a style list to initialize
 136:lvgl/src/lv_core/lv_style.c ****  */
 137:lvgl/src/lv_core/lv_style.c **** void lv_style_list_init(lv_style_list_t * list)
 138:lvgl/src/lv_core/lv_style.c **** {
  60              		.loc 1 138 1 is_stmt 1 view -0
  61              		.cfi_startproc
  62              		@ args = 0, pretend = 0, frame = 0
  63              		@ frame_needed = 0, uses_anonymous_args = 0
  64              		.loc 1 138 1 is_stmt 0 view .LVU5
  65 0000 08B5     		push	{r3, lr}
  66              	.LCFI1:
  67              		.cfi_def_cfa_offset 8
  68              		.cfi_offset 3, -8
  69              		.cfi_offset 14, -4
 139:lvgl/src/lv_core/lv_style.c ****     _lv_memset_00(list, sizeof(lv_style_list_t));
  70              		.loc 1 139 5 is_stmt 1 view .LVU6
  71 0002 0821     		movs	r1, #8
  72 0004 FFF7FEFF 		bl	_lv_memset_00
  73              	.LVL3:
 140:lvgl/src/lv_core/lv_style.c **** #if LV_USE_ASSERT_STYLE
 141:lvgl/src/lv_core/lv_style.c ****     list->sentinel = LV_DEBUG_STYLE_LIST_SENTINEL_VALUE;
 142:lvgl/src/lv_core/lv_style.c **** #endif
 143:lvgl/src/lv_core/lv_style.c **** }
  74              		.loc 1 143 1 is_stmt 0 view .LVU7
  75 0008 08BD     		pop	{r3, pc}
  76              		.cfi_endproc
  77              	.LFE461:
  79              		.section	.text._lv_style_list_remove_style,"ax",%progbits
  80              		.align	1
  81              		.global	_lv_style_list_remove_style
  82              		.syntax unified
  83              		.thumb
  84              		.thumb_func
  85              		.fpu fpv4-sp-d16
  87              	_lv_style_list_remove_style:
  88              	.LVL4:
  89              	.LFB464:
 144:lvgl/src/lv_core/lv_style.c **** 
ARM GAS  D:\Temp\cceOI0TF.s 			page 5


 145:lvgl/src/lv_core/lv_style.c **** /**
 146:lvgl/src/lv_core/lv_style.c ****  * Copy a style list with all its styles and local style properties
 147:lvgl/src/lv_core/lv_style.c ****  * @param list_dest pointer to the destination style list. (should be initialized with `lv_style_li
 148:lvgl/src/lv_core/lv_style.c ****  * @param list_src pointer to the source (to copy) style list.
 149:lvgl/src/lv_core/lv_style.c ****  */
 150:lvgl/src/lv_core/lv_style.c **** void lv_style_list_copy(lv_style_list_t * list_dest, const lv_style_list_t * list_src)
 151:lvgl/src/lv_core/lv_style.c **** {
 152:lvgl/src/lv_core/lv_style.c ****     LV_ASSERT_STYLE_LIST(list_dest);
 153:lvgl/src/lv_core/lv_style.c ****     LV_ASSERT_STYLE_LIST(list_src);
 154:lvgl/src/lv_core/lv_style.c **** 
 155:lvgl/src/lv_core/lv_style.c ****     _lv_style_list_reset(list_dest);
 156:lvgl/src/lv_core/lv_style.c **** 
 157:lvgl/src/lv_core/lv_style.c ****     if(list_src->style_list == NULL) return;
 158:lvgl/src/lv_core/lv_style.c **** 
 159:lvgl/src/lv_core/lv_style.c ****     /*Copy the styles but skip the transitions*/
 160:lvgl/src/lv_core/lv_style.c ****     if(list_src->has_local == 0) {
 161:lvgl/src/lv_core/lv_style.c ****         if(list_src->has_trans) {
 162:lvgl/src/lv_core/lv_style.c ****             list_dest->style_list = lv_mem_alloc((list_src->style_cnt - 1) * sizeof(lv_style_t *));
 163:lvgl/src/lv_core/lv_style.c ****             _lv_memcpy(list_dest->style_list, list_src->style_list + 1, (list_src->style_cnt - 1) *
 164:lvgl/src/lv_core/lv_style.c ****             list_dest->style_cnt = list_src->style_cnt - 1;
 165:lvgl/src/lv_core/lv_style.c ****         }
 166:lvgl/src/lv_core/lv_style.c ****         else {
 167:lvgl/src/lv_core/lv_style.c ****             list_dest->style_list = lv_mem_alloc(list_src->style_cnt * sizeof(lv_style_t *));
 168:lvgl/src/lv_core/lv_style.c ****             _lv_memcpy(list_dest->style_list, list_src->style_list, list_src->style_cnt * sizeof(lv
 169:lvgl/src/lv_core/lv_style.c ****             list_dest->style_cnt = list_src->style_cnt;
 170:lvgl/src/lv_core/lv_style.c ****         }
 171:lvgl/src/lv_core/lv_style.c ****     }
 172:lvgl/src/lv_core/lv_style.c ****     else {
 173:lvgl/src/lv_core/lv_style.c ****         if(list_src->has_trans) {
 174:lvgl/src/lv_core/lv_style.c ****             list_dest->style_list = lv_mem_alloc((list_src->style_cnt - 2) * sizeof(lv_style_t *));
 175:lvgl/src/lv_core/lv_style.c ****             _lv_memcpy(list_dest->style_list, list_src->style_list + 2, (list_src->style_cnt - 2) *
 176:lvgl/src/lv_core/lv_style.c ****             list_dest->style_cnt = list_src->style_cnt - 2;
 177:lvgl/src/lv_core/lv_style.c ****         }
 178:lvgl/src/lv_core/lv_style.c ****         else {
 179:lvgl/src/lv_core/lv_style.c ****             list_dest->style_list = lv_mem_alloc((list_src->style_cnt - 1) * sizeof(lv_style_t *));
 180:lvgl/src/lv_core/lv_style.c ****             _lv_memcpy(list_dest->style_list, list_src->style_list + 1, (list_src->style_cnt - 1) *
 181:lvgl/src/lv_core/lv_style.c ****             list_dest->style_cnt = list_src->style_cnt - 1;
 182:lvgl/src/lv_core/lv_style.c ****         }
 183:lvgl/src/lv_core/lv_style.c **** 
 184:lvgl/src/lv_core/lv_style.c ****         lv_style_t * local_style = get_alloc_local_style(list_dest);
 185:lvgl/src/lv_core/lv_style.c ****         lv_style_copy(local_style, get_alloc_local_style((lv_style_list_t *)list_src));
 186:lvgl/src/lv_core/lv_style.c ****     }
 187:lvgl/src/lv_core/lv_style.c **** }
 188:lvgl/src/lv_core/lv_style.c **** 
 189:lvgl/src/lv_core/lv_style.c **** /**
 190:lvgl/src/lv_core/lv_style.c ****  * Add a style to a style list.
 191:lvgl/src/lv_core/lv_style.c ****  * Only the style pointer will be saved so the shouldn't be a local variable.
 192:lvgl/src/lv_core/lv_style.c ****  * (It should be static, global or dynamically allocated)
 193:lvgl/src/lv_core/lv_style.c ****  * @param list pointer to a style list
 194:lvgl/src/lv_core/lv_style.c ****  * @param style pointer to a style to add
 195:lvgl/src/lv_core/lv_style.c ****  */
 196:lvgl/src/lv_core/lv_style.c **** void _lv_style_list_add_style(lv_style_list_t * list, lv_style_t * style)
 197:lvgl/src/lv_core/lv_style.c **** {
 198:lvgl/src/lv_core/lv_style.c ****     LV_ASSERT_STYLE_LIST(list);
 199:lvgl/src/lv_core/lv_style.c ****     LV_ASSERT_STYLE(style);
 200:lvgl/src/lv_core/lv_style.c **** 
 201:lvgl/src/lv_core/lv_style.c ****     if(list == NULL) return;
ARM GAS  D:\Temp\cceOI0TF.s 			page 6


 202:lvgl/src/lv_core/lv_style.c **** 
 203:lvgl/src/lv_core/lv_style.c ****     /*Remove the style first if already exists*/
 204:lvgl/src/lv_core/lv_style.c ****     _lv_style_list_remove_style(list, style);
 205:lvgl/src/lv_core/lv_style.c **** 
 206:lvgl/src/lv_core/lv_style.c ****     lv_style_t ** new_classes;
 207:lvgl/src/lv_core/lv_style.c ****     if(list->style_cnt == 0) new_classes = lv_mem_alloc(sizeof(lv_style_t *));
 208:lvgl/src/lv_core/lv_style.c ****     else new_classes = lv_mem_realloc(list->style_list, sizeof(lv_style_t *) * (list->style_cnt + 1
 209:lvgl/src/lv_core/lv_style.c ****     LV_ASSERT_MEM(new_classes);
 210:lvgl/src/lv_core/lv_style.c ****     if(new_classes == NULL) {
 211:lvgl/src/lv_core/lv_style.c ****         LV_LOG_WARN("lv_style_list_add_style: couldn't add the class");
 212:lvgl/src/lv_core/lv_style.c ****         return;
 213:lvgl/src/lv_core/lv_style.c ****     }
 214:lvgl/src/lv_core/lv_style.c **** 
 215:lvgl/src/lv_core/lv_style.c ****     /*Make space for the new style at the beginning. Leave local and trans style if exists*/
 216:lvgl/src/lv_core/lv_style.c ****     uint8_t i;
 217:lvgl/src/lv_core/lv_style.c ****     uint8_t first_style = 0;
 218:lvgl/src/lv_core/lv_style.c ****     if(list->has_trans) first_style++;
 219:lvgl/src/lv_core/lv_style.c ****     if(list->has_local) first_style++;
 220:lvgl/src/lv_core/lv_style.c ****     for(i = list->style_cnt; i > first_style; i--) {
 221:lvgl/src/lv_core/lv_style.c ****         new_classes[i] = new_classes[i - 1];
 222:lvgl/src/lv_core/lv_style.c ****     }
 223:lvgl/src/lv_core/lv_style.c **** 
 224:lvgl/src/lv_core/lv_style.c ****     new_classes[first_style] = style;
 225:lvgl/src/lv_core/lv_style.c ****     list->style_cnt++;
 226:lvgl/src/lv_core/lv_style.c ****     list->style_list = new_classes;
 227:lvgl/src/lv_core/lv_style.c **** }
 228:lvgl/src/lv_core/lv_style.c **** 
 229:lvgl/src/lv_core/lv_style.c **** /**
 230:lvgl/src/lv_core/lv_style.c ****  * Remove a style from a style list
 231:lvgl/src/lv_core/lv_style.c ****  * @param style_list pointer to a style list
 232:lvgl/src/lv_core/lv_style.c ****  * @param style pointer to a style to remove
 233:lvgl/src/lv_core/lv_style.c ****  */
 234:lvgl/src/lv_core/lv_style.c **** void _lv_style_list_remove_style(lv_style_list_t * list, lv_style_t * style)
 235:lvgl/src/lv_core/lv_style.c **** {
  90              		.loc 1 235 1 is_stmt 1 view -0
  91              		.cfi_startproc
  92              		@ args = 0, pretend = 0, frame = 0
  93              		@ frame_needed = 0, uses_anonymous_args = 0
  94              		.loc 1 235 1 is_stmt 0 view .LVU9
  95 0000 70B5     		push	{r4, r5, r6, lr}
  96              	.LCFI2:
  97              		.cfi_def_cfa_offset 16
  98              		.cfi_offset 4, -16
  99              		.cfi_offset 5, -12
 100              		.cfi_offset 6, -8
 101              		.cfi_offset 14, -4
 236:lvgl/src/lv_core/lv_style.c ****     LV_ASSERT_STYLE_LIST(list);
 102              		.loc 1 236 31 is_stmt 1 view .LVU10
 237:lvgl/src/lv_core/lv_style.c ****     LV_ASSERT_STYLE(style);
 103              		.loc 1 237 27 view .LVU11
 238:lvgl/src/lv_core/lv_style.c **** 
 239:lvgl/src/lv_core/lv_style.c ****     if(list->style_cnt == 0) return;
 104              		.loc 1 239 5 view .LVU12
 105              		.loc 1 239 24 is_stmt 0 view .LVU13
 106 0002 0379     		ldrb	r3, [r0, #4]	@ zero_extendqisi2
 107              		.loc 1 239 7 view .LVU14
 108 0004 13F03F06 		ands	r6, r3, #63
ARM GAS  D:\Temp\cceOI0TF.s 			page 7


 109 0008 50D0     		beq	.L5
 240:lvgl/src/lv_core/lv_style.c **** 
 241:lvgl/src/lv_core/lv_style.c ****     /*Check if the style really exists here*/
 242:lvgl/src/lv_core/lv_style.c ****     uint8_t i;
 243:lvgl/src/lv_core/lv_style.c ****     bool found = false;
 244:lvgl/src/lv_core/lv_style.c ****     for(i = 0; i < list->style_cnt; i++) {
 110              		.loc 1 244 11 view .LVU15
 111 000a 0023     		movs	r3, #0
 112              	.L7:
 113              	.LVL5:
 114              		.loc 1 244 24 discriminator 1 view .LVU16
 115 000c 0279     		ldrb	r2, [r0, #4]	@ zero_extendqisi2
 116 000e 02F03F02 		and	r2, r2, #63
 117              		.loc 1 244 5 discriminator 1 view .LVU17
 118 0012 9A42     		cmp	r2, r3
 119 0014 07D9     		bls	.L18
 245:lvgl/src/lv_core/lv_style.c ****         if(list->style_list[i] == style) {
 120              		.loc 1 245 9 is_stmt 1 view .LVU18
 121              		.loc 1 245 16 is_stmt 0 view .LVU19
 122 0016 0468     		ldr	r4, [r0]
 123              		.loc 1 245 28 view .LVU20
 124 0018 54F82340 		ldr	r4, [r4, r3, lsl #2]
 125              		.loc 1 245 11 view .LVU21
 126 001c 8C42     		cmp	r4, r1
 127 001e 15D0     		beq	.L16
 244:lvgl/src/lv_core/lv_style.c ****         if(list->style_list[i] == style) {
 128              		.loc 1 244 38 discriminator 2 view .LVU22
 129 0020 0133     		adds	r3, r3, #1
 130              	.LVL6:
 244:lvgl/src/lv_core/lv_style.c ****         if(list->style_list[i] == style) {
 131              		.loc 1 244 38 discriminator 2 view .LVU23
 132 0022 DBB2     		uxtb	r3, r3
 133              	.LVL7:
 244:lvgl/src/lv_core/lv_style.c ****         if(list->style_list[i] == style) {
 134              		.loc 1 244 38 discriminator 2 view .LVU24
 135 0024 F2E7     		b	.L7
 136              	.L18:
 243:lvgl/src/lv_core/lv_style.c ****     for(i = 0; i < list->style_cnt; i++) {
 137              		.loc 1 243 10 view .LVU25
 138 0026 0023     		movs	r3, #0
 139              	.LVL8:
 140              	.L8:
 246:lvgl/src/lv_core/lv_style.c ****             found = true;
 247:lvgl/src/lv_core/lv_style.c ****             break;
 248:lvgl/src/lv_core/lv_style.c ****         }
 249:lvgl/src/lv_core/lv_style.c ****     }
 250:lvgl/src/lv_core/lv_style.c ****     if(found == false) return;
 141              		.loc 1 250 5 is_stmt 1 view .LVU26
 142              		.loc 1 250 7 is_stmt 0 view .LVU27
 143 0028 002B     		cmp	r3, #0
 144 002a 3FD0     		beq	.L5
 145 002c 0D46     		mov	r5, r1
 146 002e 0446     		mov	r4, r0
 251:lvgl/src/lv_core/lv_style.c **** 
 252:lvgl/src/lv_core/lv_style.c ****     if(list->style_cnt == 1) {
 147              		.loc 1 252 5 is_stmt 1 view .LVU28
 148              		.loc 1 252 7 is_stmt 0 view .LVU29
ARM GAS  D:\Temp\cceOI0TF.s 			page 8


 149 0030 012E     		cmp	r6, #1
 150 0032 0DD0     		beq	.L19
 253:lvgl/src/lv_core/lv_style.c ****         lv_mem_free(list->style_list);
 254:lvgl/src/lv_core/lv_style.c ****         list->style_list = NULL;
 255:lvgl/src/lv_core/lv_style.c ****         list->style_cnt = 0;
 256:lvgl/src/lv_core/lv_style.c ****         list->has_local = 0;
 257:lvgl/src/lv_core/lv_style.c ****         return;
 258:lvgl/src/lv_core/lv_style.c ****     }
 259:lvgl/src/lv_core/lv_style.c **** 
 260:lvgl/src/lv_core/lv_style.c ****     lv_style_t ** new_classes = lv_mem_alloc(sizeof(lv_style_t *) * (list->style_cnt - 1));
 151              		.loc 1 260 5 is_stmt 1 view .LVU30
 152              		.loc 1 260 86 is_stmt 0 view .LVU31
 153 0034 013A     		subs	r2, r2, #1
 154              		.loc 1 260 33 view .LVU32
 155 0036 9000     		lsls	r0, r2, #2
 156              	.LVL9:
 157              		.loc 1 260 33 view .LVU33
 158 0038 FFF7FEFF 		bl	lv_mem_alloc
 159              	.LVL10:
 160              		.loc 1 260 33 view .LVU34
 161 003c 0646     		mov	r6, r0
 162              	.LVL11:
 261:lvgl/src/lv_core/lv_style.c ****     LV_ASSERT_MEM(new_classes);
 163              		.loc 1 261 5 is_stmt 1 view .LVU35
 164              		.loc 1 261 5 view .LVU36
 165 003e FFF7FEFF 		bl	lv_debug_check_null
 166              	.LVL12:
 167              		.loc 1 261 5 is_stmt 0 view .LVU37
 168 0042 88B1     		cbz	r0, .L20
 169              		.loc 1 261 31 is_stmt 1 discriminator 2 view .LVU38
 262:lvgl/src/lv_core/lv_style.c ****     if(new_classes == NULL) {
 170              		.loc 1 262 5 discriminator 2 view .LVU39
 171              		.loc 1 262 7 is_stmt 0 discriminator 2 view .LVU40
 172 0044 96B3     		cbz	r6, .L5
 263:lvgl/src/lv_core/lv_style.c ****         LV_LOG_WARN("lv_style_list_remove_style: couldn't reallocate class list");
 264:lvgl/src/lv_core/lv_style.c ****         return;
 265:lvgl/src/lv_core/lv_style.c ****     }
 266:lvgl/src/lv_core/lv_style.c ****     uint8_t j;
 267:lvgl/src/lv_core/lv_style.c ****     for(i = 0, j = 0; i < list->style_cnt; i++) {
 173              		.loc 1 267 18 view .LVU41
 174 0046 0022     		movs	r2, #0
 175              		.loc 1 267 11 view .LVU42
 176 0048 1346     		mov	r3, r2
 177 004a 15E0     		b	.L13
 178              	.LVL13:
 179              	.L16:
 246:lvgl/src/lv_core/lv_style.c ****             break;
 180              		.loc 1 246 19 view .LVU43
 181 004c 0123     		movs	r3, #1
 182              	.LVL14:
 246:lvgl/src/lv_core/lv_style.c ****             break;
 183              		.loc 1 246 19 view .LVU44
 184 004e EBE7     		b	.L8
 185              	.LVL15:
 186              	.L19:
 253:lvgl/src/lv_core/lv_style.c ****         list->style_list = NULL;
 187              		.loc 1 253 9 is_stmt 1 view .LVU45
ARM GAS  D:\Temp\cceOI0TF.s 			page 9


 188 0050 0068     		ldr	r0, [r0]
 189              	.LVL16:
 253:lvgl/src/lv_core/lv_style.c ****         list->style_list = NULL;
 190              		.loc 1 253 9 is_stmt 0 view .LVU46
 191 0052 FFF7FEFF 		bl	lv_mem_free
 192              	.LVL17:
 254:lvgl/src/lv_core/lv_style.c ****         list->style_cnt = 0;
 193              		.loc 1 254 9 is_stmt 1 view .LVU47
 254:lvgl/src/lv_core/lv_style.c ****         list->style_cnt = 0;
 194              		.loc 1 254 26 is_stmt 0 view .LVU48
 195 0056 0022     		movs	r2, #0
 196 0058 2260     		str	r2, [r4]
 255:lvgl/src/lv_core/lv_style.c ****         list->has_local = 0;
 197              		.loc 1 255 9 is_stmt 1 view .LVU49
 255:lvgl/src/lv_core/lv_style.c ****         list->has_local = 0;
 198              		.loc 1 255 25 is_stmt 0 view .LVU50
 199 005a 2379     		ldrb	r3, [r4, #4]	@ zero_extendqisi2
 256:lvgl/src/lv_core/lv_style.c ****         return;
 200              		.loc 1 256 9 is_stmt 1 view .LVU51
 256:lvgl/src/lv_core/lv_style.c ****         return;
 201              		.loc 1 256 25 is_stmt 0 view .LVU52
 202 005c 03F0C003 		and	r3, r3, #192
 203 0060 62F38613 		bfi	r3, r2, #6, #1
 204 0064 2371     		strb	r3, [r4, #4]
 257:lvgl/src/lv_core/lv_style.c ****     }
 205              		.loc 1 257 9 is_stmt 1 view .LVU53
 206 0066 21E0     		b	.L5
 207              	.LVL18:
 208              	.L20:
 261:lvgl/src/lv_core/lv_style.c ****     if(new_classes == NULL) {
 209              		.loc 1 261 5 discriminator 1 view .LVU54
 261:lvgl/src/lv_core/lv_style.c ****     if(new_classes == NULL) {
 210              		.loc 1 261 5 discriminator 1 view .LVU55
 211 0068 3246     		mov	r2, r6
 212 006a 0023     		movs	r3, #0
 213 006c 1048     		ldr	r0, .L22
 214 006e FFF7FEFF 		bl	lv_debug_log_error
 215              	.LVL19:
 216              	.L12:
 261:lvgl/src/lv_core/lv_style.c ****     if(new_classes == NULL) {
 217              		.loc 1 261 5 discriminator 1 view .LVU56
 261:lvgl/src/lv_core/lv_style.c ****     if(new_classes == NULL) {
 218              		.loc 1 261 5 discriminator 1 view .LVU57
 219 0072 FEE7     		b	.L12
 220              	.LVL20:
 221              	.L14:
 222              		.loc 1 267 45 is_stmt 0 discriminator 2 view .LVU58
 223 0074 0133     		adds	r3, r3, #1
 224              	.LVL21:
 225              		.loc 1 267 45 discriminator 2 view .LVU59
 226 0076 DBB2     		uxtb	r3, r3
 227              	.LVL22:
 228              	.L13:
 229              		.loc 1 267 31 discriminator 1 view .LVU60
 230 0078 2179     		ldrb	r1, [r4, #4]	@ zero_extendqisi2
 231 007a 01F03F01 		and	r1, r1, #63
 232              		.loc 1 267 5 discriminator 1 view .LVU61
ARM GAS  D:\Temp\cceOI0TF.s 			page 10


 233 007e 9942     		cmp	r1, r3
 234 0080 09D9     		bls	.L21
 268:lvgl/src/lv_core/lv_style.c ****         if(list->style_list[i] == style) continue;
 235              		.loc 1 268 9 is_stmt 1 view .LVU62
 236              		.loc 1 268 16 is_stmt 0 view .LVU63
 237 0082 2168     		ldr	r1, [r4]
 238              		.loc 1 268 28 view .LVU64
 239 0084 51F82310 		ldr	r1, [r1, r3, lsl #2]
 240              		.loc 1 268 11 view .LVU65
 241 0088 A942     		cmp	r1, r5
 242 008a F3D0     		beq	.L14
 269:lvgl/src/lv_core/lv_style.c ****         new_classes[j] = list->style_list[i];
 243              		.loc 1 269 9 is_stmt 1 view .LVU66
 244              		.loc 1 269 24 is_stmt 0 view .LVU67
 245 008c 46F82210 		str	r1, [r6, r2, lsl #2]
 270:lvgl/src/lv_core/lv_style.c ****         j++;
 246              		.loc 1 270 9 is_stmt 1 view .LVU68
 247              		.loc 1 270 10 is_stmt 0 view .LVU69
 248 0090 0132     		adds	r2, r2, #1
 249              	.LVL23:
 250              		.loc 1 270 10 view .LVU70
 251 0092 D2B2     		uxtb	r2, r2
 252              	.LVL24:
 253              		.loc 1 270 10 view .LVU71
 254 0094 EEE7     		b	.L14
 255              	.L21:
 271:lvgl/src/lv_core/lv_style.c **** 
 272:lvgl/src/lv_core/lv_style.c ****     }
 273:lvgl/src/lv_core/lv_style.c **** 
 274:lvgl/src/lv_core/lv_style.c ****     lv_mem_free(list->style_list);
 256              		.loc 1 274 5 is_stmt 1 view .LVU72
 257 0096 2068     		ldr	r0, [r4]
 258 0098 FFF7FEFF 		bl	lv_mem_free
 259              	.LVL25:
 275:lvgl/src/lv_core/lv_style.c **** 
 276:lvgl/src/lv_core/lv_style.c ****     list->style_cnt--;
 260              		.loc 1 276 5 view .LVU73
 261              		.loc 1 276 9 is_stmt 0 view .LVU74
 262 009c 2379     		ldrb	r3, [r4, #4]	@ zero_extendqisi2
 263 009e 03F03F02 		and	r2, r3, #63
 264              		.loc 1 276 20 view .LVU75
 265 00a2 3F32     		adds	r2, r2, #63
 266 00a4 62F30503 		bfi	r3, r2, #0, #6
 267 00a8 2371     		strb	r3, [r4, #4]
 277:lvgl/src/lv_core/lv_style.c ****     list->style_list = new_classes;
 268              		.loc 1 277 5 is_stmt 1 view .LVU76
 269              		.loc 1 277 22 is_stmt 0 view .LVU77
 270 00aa 2660     		str	r6, [r4]
 271              	.LVL26:
 272              	.L5:
 278:lvgl/src/lv_core/lv_style.c **** }
 273              		.loc 1 278 1 view .LVU78
 274 00ac 70BD     		pop	{r4, r5, r6, pc}
 275              	.L23:
 276 00ae 00BF     		.align	2
 277              	.L22:
 278 00b0 00000000 		.word	.LC0
ARM GAS  D:\Temp\cceOI0TF.s 			page 11


 279              		.cfi_endproc
 280              	.LFE464:
 282              		.section	.text._lv_style_list_add_style,"ax",%progbits
 283              		.align	1
 284              		.global	_lv_style_list_add_style
 285              		.syntax unified
 286              		.thumb
 287              		.thumb_func
 288              		.fpu fpv4-sp-d16
 290              	_lv_style_list_add_style:
 291              	.LVL27:
 292              	.LFB463:
 197:lvgl/src/lv_core/lv_style.c ****     LV_ASSERT_STYLE_LIST(list);
 293              		.loc 1 197 1 is_stmt 1 view -0
 294              		.cfi_startproc
 295              		@ args = 0, pretend = 0, frame = 0
 296              		@ frame_needed = 0, uses_anonymous_args = 0
 198:lvgl/src/lv_core/lv_style.c ****     LV_ASSERT_STYLE(style);
 297              		.loc 1 198 31 view .LVU80
 199:lvgl/src/lv_core/lv_style.c **** 
 298              		.loc 1 199 27 view .LVU81
 201:lvgl/src/lv_core/lv_style.c **** 
 299              		.loc 1 201 5 view .LVU82
 201:lvgl/src/lv_core/lv_style.c **** 
 300              		.loc 1 201 7 is_stmt 0 view .LVU83
 301 0000 0028     		cmp	r0, #0
 302 0002 47D0     		beq	.L36
 197:lvgl/src/lv_core/lv_style.c ****     LV_ASSERT_STYLE_LIST(list);
 303              		.loc 1 197 1 view .LVU84
 304 0004 70B5     		push	{r4, r5, r6, lr}
 305              	.LCFI3:
 306              		.cfi_def_cfa_offset 16
 307              		.cfi_offset 4, -16
 308              		.cfi_offset 5, -12
 309              		.cfi_offset 6, -8
 310              		.cfi_offset 14, -4
 311 0006 0446     		mov	r4, r0
 312 0008 0E46     		mov	r6, r1
 204:lvgl/src/lv_core/lv_style.c **** 
 313              		.loc 1 204 5 is_stmt 1 view .LVU85
 314 000a FFF7FEFF 		bl	_lv_style_list_remove_style
 315              	.LVL28:
 206:lvgl/src/lv_core/lv_style.c ****     if(list->style_cnt == 0) new_classes = lv_mem_alloc(sizeof(lv_style_t *));
 316              		.loc 1 206 5 view .LVU86
 207:lvgl/src/lv_core/lv_style.c ****     else new_classes = lv_mem_realloc(list->style_list, sizeof(lv_style_t *) * (list->style_cnt + 1
 317              		.loc 1 207 5 view .LVU87
 207:lvgl/src/lv_core/lv_style.c ****     else new_classes = lv_mem_realloc(list->style_list, sizeof(lv_style_t *) * (list->style_cnt + 1
 318              		.loc 1 207 24 is_stmt 0 view .LVU88
 319 000e 2379     		ldrb	r3, [r4, #4]	@ zero_extendqisi2
 207:lvgl/src/lv_core/lv_style.c ****     else new_classes = lv_mem_realloc(list->style_list, sizeof(lv_style_t *) * (list->style_cnt + 1
 320              		.loc 1 207 7 view .LVU89
 321 0010 13F03F0F 		tst	r3, #63
 322 0014 16D1     		bne	.L26
 207:lvgl/src/lv_core/lv_style.c ****     else new_classes = lv_mem_realloc(list->style_list, sizeof(lv_style_t *) * (list->style_cnt + 1
 323              		.loc 1 207 30 is_stmt 1 discriminator 1 view .LVU90
 207:lvgl/src/lv_core/lv_style.c ****     else new_classes = lv_mem_realloc(list->style_list, sizeof(lv_style_t *) * (list->style_cnt + 1
 324              		.loc 1 207 44 is_stmt 0 discriminator 1 view .LVU91
ARM GAS  D:\Temp\cceOI0TF.s 			page 12


 325 0016 0420     		movs	r0, #4
 326 0018 FFF7FEFF 		bl	lv_mem_alloc
 327              	.LVL29:
 328 001c 0546     		mov	r5, r0
 329              	.LVL30:
 330              	.L27:
 209:lvgl/src/lv_core/lv_style.c ****     if(new_classes == NULL) {
 331              		.loc 1 209 5 is_stmt 1 view .LVU92
 209:lvgl/src/lv_core/lv_style.c ****     if(new_classes == NULL) {
 332              		.loc 1 209 5 view .LVU93
 333 001e 2846     		mov	r0, r5
 209:lvgl/src/lv_core/lv_style.c ****     if(new_classes == NULL) {
 334              		.loc 1 209 5 is_stmt 0 view .LVU94
 335 0020 FFF7FEFF 		bl	lv_debug_check_null
 336              	.LVL31:
 209:lvgl/src/lv_core/lv_style.c ****     if(new_classes == NULL) {
 337              		.loc 1 209 5 view .LVU95
 338 0024 C0B1     		cbz	r0, .L39
 209:lvgl/src/lv_core/lv_style.c ****     if(new_classes == NULL) {
 339              		.loc 1 209 31 is_stmt 1 discriminator 2 view .LVU96
 210:lvgl/src/lv_core/lv_style.c ****         LV_LOG_WARN("lv_style_list_add_style: couldn't add the class");
 340              		.loc 1 210 5 discriminator 2 view .LVU97
 210:lvgl/src/lv_core/lv_style.c ****         LV_LOG_WARN("lv_style_list_add_style: couldn't add the class");
 341              		.loc 1 210 7 is_stmt 0 discriminator 2 view .LVU98
 342 0026 A5B3     		cbz	r5, .L24
 216:lvgl/src/lv_core/lv_style.c ****     uint8_t first_style = 0;
 343              		.loc 1 216 5 is_stmt 1 view .LVU99
 217:lvgl/src/lv_core/lv_style.c ****     if(list->has_trans) first_style++;
 344              		.loc 1 217 5 view .LVU100
 345              	.LVL32:
 218:lvgl/src/lv_core/lv_style.c ****     if(list->has_local) first_style++;
 346              		.loc 1 218 5 view .LVU101
 218:lvgl/src/lv_core/lv_style.c ****     if(list->has_local) first_style++;
 347              		.loc 1 218 8 is_stmt 0 view .LVU102
 348 0028 2379     		ldrb	r3, [r4, #4]	@ zero_extendqisi2
 218:lvgl/src/lv_core/lv_style.c ****     if(list->has_local) first_style++;
 349              		.loc 1 218 7 view .LVU103
 350 002a 13F0800F 		tst	r3, #128
 351 002e 19D1     		bne	.L34
 217:lvgl/src/lv_core/lv_style.c ****     if(list->has_trans) first_style++;
 352              		.loc 1 217 13 view .LVU104
 353 0030 0022     		movs	r2, #0
 354              	.L30:
 355              	.LVL33:
 219:lvgl/src/lv_core/lv_style.c ****     for(i = list->style_cnt; i > first_style; i--) {
 356              		.loc 1 219 5 is_stmt 1 view .LVU105
 219:lvgl/src/lv_core/lv_style.c ****     for(i = list->style_cnt; i > first_style; i--) {
 357              		.loc 1 219 7 is_stmt 0 view .LVU106
 358 0032 13F0400F 		tst	r3, #64
 359 0036 01D0     		beq	.L31
 219:lvgl/src/lv_core/lv_style.c ****     for(i = list->style_cnt; i > first_style; i--) {
 360              		.loc 1 219 25 is_stmt 1 discriminator 1 view .LVU107
 219:lvgl/src/lv_core/lv_style.c ****     for(i = list->style_cnt; i > first_style; i--) {
 361              		.loc 1 219 36 is_stmt 0 discriminator 1 view .LVU108
 362 0038 0132     		adds	r2, r2, #1
 363              	.LVL34:
 219:lvgl/src/lv_core/lv_style.c ****     for(i = list->style_cnt; i > first_style; i--) {
ARM GAS  D:\Temp\cceOI0TF.s 			page 13


 364              		.loc 1 219 36 discriminator 1 view .LVU109
 365 003a D2B2     		uxtb	r2, r2
 366              	.LVL35:
 367              	.L31:
 220:lvgl/src/lv_core/lv_style.c ****         new_classes[i] = new_classes[i - 1];
 368              		.loc 1 220 5 is_stmt 1 view .LVU110
 220:lvgl/src/lv_core/lv_style.c ****         new_classes[i] = new_classes[i - 1];
 369              		.loc 1 220 17 is_stmt 0 view .LVU111
 370 003c 2379     		ldrb	r3, [r4, #4]	@ zero_extendqisi2
 371 003e 03F03F03 		and	r3, r3, #63
 372              	.LVL36:
 220:lvgl/src/lv_core/lv_style.c ****         new_classes[i] = new_classes[i - 1];
 373              		.loc 1 220 5 view .LVU112
 374 0042 1AE0     		b	.L32
 375              	.LVL37:
 376              	.L26:
 208:lvgl/src/lv_core/lv_style.c ****     LV_ASSERT_MEM(new_classes);
 377              		.loc 1 208 10 is_stmt 1 view .LVU113
 208:lvgl/src/lv_core/lv_style.c ****     LV_ASSERT_MEM(new_classes);
 378              		.loc 1 208 85 is_stmt 0 view .LVU114
 379 0044 2179     		ldrb	r1, [r4, #4]	@ zero_extendqisi2
 380 0046 01F03F01 		and	r1, r1, #63
 208:lvgl/src/lv_core/lv_style.c ****     LV_ASSERT_MEM(new_classes);
 381              		.loc 1 208 97 view .LVU115
 382 004a 0131     		adds	r1, r1, #1
 208:lvgl/src/lv_core/lv_style.c ****     LV_ASSERT_MEM(new_classes);
 383              		.loc 1 208 24 view .LVU116
 384 004c 8900     		lsls	r1, r1, #2
 385 004e 2068     		ldr	r0, [r4]
 386 0050 FFF7FEFF 		bl	lv_mem_realloc
 387              	.LVL38:
 388 0054 0546     		mov	r5, r0
 389              	.LVL39:
 208:lvgl/src/lv_core/lv_style.c ****     LV_ASSERT_MEM(new_classes);
 390              		.loc 1 208 24 view .LVU117
 391 0056 E2E7     		b	.L27
 392              	.LVL40:
 393              	.L39:
 209:lvgl/src/lv_core/lv_style.c ****     if(new_classes == NULL) {
 394              		.loc 1 209 5 is_stmt 1 discriminator 1 view .LVU118
 209:lvgl/src/lv_core/lv_style.c ****     if(new_classes == NULL) {
 395              		.loc 1 209 5 discriminator 1 view .LVU119
 396 0058 2A46     		mov	r2, r5
 397 005a 0023     		movs	r3, #0
 398 005c 0E48     		ldr	r0, .L40
 399 005e FFF7FEFF 		bl	lv_debug_log_error
 400              	.LVL41:
 401              	.L29:
 209:lvgl/src/lv_core/lv_style.c ****     if(new_classes == NULL) {
 402              		.loc 1 209 5 discriminator 1 view .LVU120
 209:lvgl/src/lv_core/lv_style.c ****     if(new_classes == NULL) {
 403              		.loc 1 209 5 discriminator 1 view .LVU121
 404 0062 FEE7     		b	.L29
 405              	.LVL42:
 406              	.L34:
 218:lvgl/src/lv_core/lv_style.c ****     if(list->has_local) first_style++;
 407              		.loc 1 218 36 is_stmt 0 view .LVU122
ARM GAS  D:\Temp\cceOI0TF.s 			page 14


 408 0064 0122     		movs	r2, #1
 409 0066 E4E7     		b	.L30
 410              	.LVL43:
 411              	.L33:
 221:lvgl/src/lv_core/lv_style.c ****     }
 412              		.loc 1 221 9 is_stmt 1 discriminator 3 view .LVU123
 221:lvgl/src/lv_core/lv_style.c ****     }
 413              		.loc 1 221 37 is_stmt 0 discriminator 3 view .LVU124
 414 0068 03F18041 		add	r1, r3, #1073741824
 415 006c 0139     		subs	r1, r1, #1
 416 006e 55F82110 		ldr	r1, [r5, r1, lsl #2]
 221:lvgl/src/lv_core/lv_style.c ****     }
 417              		.loc 1 221 24 discriminator 3 view .LVU125
 418 0072 45F82310 		str	r1, [r5, r3, lsl #2]
 220:lvgl/src/lv_core/lv_style.c ****         new_classes[i] = new_classes[i - 1];
 419              		.loc 1 220 48 discriminator 3 view .LVU126
 420 0076 013B     		subs	r3, r3, #1
 421              	.LVL44:
 220:lvgl/src/lv_core/lv_style.c ****         new_classes[i] = new_classes[i - 1];
 422              		.loc 1 220 48 discriminator 3 view .LVU127
 423 0078 DBB2     		uxtb	r3, r3
 424              	.LVL45:
 425              	.L32:
 220:lvgl/src/lv_core/lv_style.c ****         new_classes[i] = new_classes[i - 1];
 426              		.loc 1 220 5 discriminator 1 view .LVU128
 427 007a 9342     		cmp	r3, r2
 428 007c F4D8     		bhi	.L33
 224:lvgl/src/lv_core/lv_style.c ****     list->style_cnt++;
 429              		.loc 1 224 5 is_stmt 1 view .LVU129
 224:lvgl/src/lv_core/lv_style.c ****     list->style_cnt++;
 430              		.loc 1 224 30 is_stmt 0 view .LVU130
 431 007e 45F82260 		str	r6, [r5, r2, lsl #2]
 225:lvgl/src/lv_core/lv_style.c ****     list->style_list = new_classes;
 432              		.loc 1 225 5 is_stmt 1 view .LVU131
 225:lvgl/src/lv_core/lv_style.c ****     list->style_list = new_classes;
 433              		.loc 1 225 9 is_stmt 0 view .LVU132
 434 0082 2379     		ldrb	r3, [r4, #4]	@ zero_extendqisi2
 435              	.LVL46:
 225:lvgl/src/lv_core/lv_style.c ****     list->style_list = new_classes;
 436              		.loc 1 225 9 view .LVU133
 437 0084 03F03F02 		and	r2, r3, #63
 438              	.LVL47:
 225:lvgl/src/lv_core/lv_style.c ****     list->style_list = new_classes;
 439              		.loc 1 225 20 view .LVU134
 440 0088 0132     		adds	r2, r2, #1
 441 008a 62F30503 		bfi	r3, r2, #0, #6
 442 008e 2371     		strb	r3, [r4, #4]
 226:lvgl/src/lv_core/lv_style.c **** }
 443              		.loc 1 226 5 is_stmt 1 view .LVU135
 226:lvgl/src/lv_core/lv_style.c **** }
 444              		.loc 1 226 22 is_stmt 0 view .LVU136
 445 0090 2560     		str	r5, [r4]
 446              	.L24:
 227:lvgl/src/lv_core/lv_style.c **** 
 447              		.loc 1 227 1 view .LVU137
 448 0092 70BD     		pop	{r4, r5, r6, pc}
 449              	.LVL48:
ARM GAS  D:\Temp\cceOI0TF.s 			page 15


 450              	.L36:
 451              	.LCFI4:
 452              		.cfi_def_cfa_offset 0
 453              		.cfi_restore 4
 454              		.cfi_restore 5
 455              		.cfi_restore 6
 456              		.cfi_restore 14
 227:lvgl/src/lv_core/lv_style.c **** 
 457              		.loc 1 227 1 view .LVU138
 458 0094 7047     		bx	lr
 459              	.L41:
 460 0096 00BF     		.align	2
 461              	.L40:
 462 0098 00000000 		.word	.LC0
 463              		.cfi_endproc
 464              	.LFE463:
 466              		.section	.text.get_alloc_local_style,"ax",%progbits
 467              		.align	1
 468              		.syntax unified
 469              		.thumb
 470              		.thumb_func
 471              		.fpu fpv4-sp-d16
 473              	get_alloc_local_style:
 474              	.LVL49:
 475              	.LFB490:
 279:lvgl/src/lv_core/lv_style.c **** 
 280:lvgl/src/lv_core/lv_style.c **** /**
 281:lvgl/src/lv_core/lv_style.c ****  * Remove all styles added from style list, clear the local style, transition style and free all al
 282:lvgl/src/lv_core/lv_style.c ****  * Leave `ignore_trans` flag as it is.
 283:lvgl/src/lv_core/lv_style.c ****  * @param list pointer to a style list.
 284:lvgl/src/lv_core/lv_style.c ****  */
 285:lvgl/src/lv_core/lv_style.c **** void _lv_style_list_reset(lv_style_list_t * list)
 286:lvgl/src/lv_core/lv_style.c **** {
 287:lvgl/src/lv_core/lv_style.c ****     LV_ASSERT_STYLE_LIST(list);
 288:lvgl/src/lv_core/lv_style.c **** 
 289:lvgl/src/lv_core/lv_style.c ****     if(list == NULL) return;
 290:lvgl/src/lv_core/lv_style.c **** 
 291:lvgl/src/lv_core/lv_style.c ****     if(list->has_local) {
 292:lvgl/src/lv_core/lv_style.c ****         lv_style_t * local = lv_style_list_get_local_style(list);
 293:lvgl/src/lv_core/lv_style.c ****         if(local) {
 294:lvgl/src/lv_core/lv_style.c ****             lv_style_reset(local);
 295:lvgl/src/lv_core/lv_style.c ****             lv_mem_free(local);
 296:lvgl/src/lv_core/lv_style.c ****         }
 297:lvgl/src/lv_core/lv_style.c ****     }
 298:lvgl/src/lv_core/lv_style.c **** 
 299:lvgl/src/lv_core/lv_style.c ****     if(list->has_trans) {
 300:lvgl/src/lv_core/lv_style.c ****         lv_style_t * trans = _lv_style_list_get_transition_style(list);
 301:lvgl/src/lv_core/lv_style.c ****         if(trans) {
 302:lvgl/src/lv_core/lv_style.c ****             lv_style_reset(trans);
 303:lvgl/src/lv_core/lv_style.c ****             lv_mem_free(trans);
 304:lvgl/src/lv_core/lv_style.c ****         }
 305:lvgl/src/lv_core/lv_style.c ****     }
 306:lvgl/src/lv_core/lv_style.c **** 
 307:lvgl/src/lv_core/lv_style.c ****     if(list->style_cnt > 0) lv_mem_free(list->style_list);
 308:lvgl/src/lv_core/lv_style.c ****     list->style_list = NULL;
 309:lvgl/src/lv_core/lv_style.c ****     list->style_cnt = 0;
 310:lvgl/src/lv_core/lv_style.c ****     list->has_local = 0;
ARM GAS  D:\Temp\cceOI0TF.s 			page 16


 311:lvgl/src/lv_core/lv_style.c ****     list->has_trans = 0;
 312:lvgl/src/lv_core/lv_style.c ****     list->skip_trans = 0;
 313:lvgl/src/lv_core/lv_style.c **** 
 314:lvgl/src/lv_core/lv_style.c ****     /* Intentionally leave `ignore_trans` as it is,
 315:lvgl/src/lv_core/lv_style.c ****      * because it's independent from the styles in the list*/
 316:lvgl/src/lv_core/lv_style.c **** }
 317:lvgl/src/lv_core/lv_style.c **** 
 318:lvgl/src/lv_core/lv_style.c **** /**
 319:lvgl/src/lv_core/lv_style.c ****  * Clear all properties from a style and all allocated memories.
 320:lvgl/src/lv_core/lv_style.c ****  * @param style pointer to a style
 321:lvgl/src/lv_core/lv_style.c ****  */
 322:lvgl/src/lv_core/lv_style.c **** void lv_style_reset(lv_style_t * style)
 323:lvgl/src/lv_core/lv_style.c **** {
 324:lvgl/src/lv_core/lv_style.c ****     LV_ASSERT_STYLE(style);
 325:lvgl/src/lv_core/lv_style.c **** 
 326:lvgl/src/lv_core/lv_style.c ****     lv_mem_free(style->map);
 327:lvgl/src/lv_core/lv_style.c ****     style->map = NULL;
 328:lvgl/src/lv_core/lv_style.c **** }
 329:lvgl/src/lv_core/lv_style.c **** 
 330:lvgl/src/lv_core/lv_style.c **** /**
 331:lvgl/src/lv_core/lv_style.c ****  * Get the size of the properties in a style in bytes
 332:lvgl/src/lv_core/lv_style.c ****  * @param style pointer to a style
 333:lvgl/src/lv_core/lv_style.c ****  * @return size of the properties in bytes
 334:lvgl/src/lv_core/lv_style.c ****  */
 335:lvgl/src/lv_core/lv_style.c **** uint16_t _lv_style_get_mem_size(const lv_style_t * style)
 336:lvgl/src/lv_core/lv_style.c **** {
 337:lvgl/src/lv_core/lv_style.c ****     LV_ASSERT_STYLE(style);
 338:lvgl/src/lv_core/lv_style.c **** 
 339:lvgl/src/lv_core/lv_style.c ****     if(style->map == NULL) return 0;
 340:lvgl/src/lv_core/lv_style.c **** 
 341:lvgl/src/lv_core/lv_style.c ****     size_t i = 0;
 342:lvgl/src/lv_core/lv_style.c ****     uint8_t prop_id;
 343:lvgl/src/lv_core/lv_style.c ****     while((prop_id = get_style_prop_id(style, i)) != _LV_STYLE_CLOSING_PROP) {
 344:lvgl/src/lv_core/lv_style.c ****         i = get_next_prop_index(prop_id, i);
 345:lvgl/src/lv_core/lv_style.c ****     }
 346:lvgl/src/lv_core/lv_style.c **** 
 347:lvgl/src/lv_core/lv_style.c ****     return i + sizeof(lv_style_property_t);
 348:lvgl/src/lv_core/lv_style.c **** }
 349:lvgl/src/lv_core/lv_style.c **** 
 350:lvgl/src/lv_core/lv_style.c **** /**
 351:lvgl/src/lv_core/lv_style.c ****  * Set an integer typed property in a style.
 352:lvgl/src/lv_core/lv_style.c ****  * @param style pointer to a style where the property should be set
 353:lvgl/src/lv_core/lv_style.c ****  * @param prop a style property ORed with a state.
 354:lvgl/src/lv_core/lv_style.c ****  * E.g. `LV_STYLE_BORDER_WIDTH | (LV_STATE_PRESSED << LV_STYLE_STATE_POS)`
 355:lvgl/src/lv_core/lv_style.c ****  * @param value the value to set
 356:lvgl/src/lv_core/lv_style.c ****  * @note shouldn't be used directly. Use the specific property set functions instead.
 357:lvgl/src/lv_core/lv_style.c ****  *       For example: `lv_style_set_border_width()`
 358:lvgl/src/lv_core/lv_style.c ****  * @note for performance reasons it's not checked if the property really has integer type
 359:lvgl/src/lv_core/lv_style.c ****  */
 360:lvgl/src/lv_core/lv_style.c **** void _lv_style_set_int(lv_style_t * style, lv_style_property_t prop, lv_style_int_t value)
 361:lvgl/src/lv_core/lv_style.c **** {
 362:lvgl/src/lv_core/lv_style.c ****     LV_ASSERT_STYLE(style);
 363:lvgl/src/lv_core/lv_style.c **** 
 364:lvgl/src/lv_core/lv_style.c ****     int32_t id = get_property_index(style, prop);
 365:lvgl/src/lv_core/lv_style.c ****     /*The property already exists but not sure it's state is the same*/
 366:lvgl/src/lv_core/lv_style.c ****     if(id >= 0) {
 367:lvgl/src/lv_core/lv_style.c ****         lv_style_attr_t attr_found;
ARM GAS  D:\Temp\cceOI0TF.s 			page 17


 368:lvgl/src/lv_core/lv_style.c ****         lv_style_attr_t attr_goal;
 369:lvgl/src/lv_core/lv_style.c **** 
 370:lvgl/src/lv_core/lv_style.c ****         attr_found = get_style_prop_attr(style, id);
 371:lvgl/src/lv_core/lv_style.c ****         attr_goal = (prop >> 8) & 0xFFU;
 372:lvgl/src/lv_core/lv_style.c **** 
 373:lvgl/src/lv_core/lv_style.c ****         if(LV_STYLE_ATTR_GET_STATE(attr_found) == LV_STYLE_ATTR_GET_STATE(attr_goal)) {
 374:lvgl/src/lv_core/lv_style.c ****             _lv_memcpy_small(style->map + id + sizeof(lv_style_property_t), &value, sizeof(lv_style
 375:lvgl/src/lv_core/lv_style.c ****             return;
 376:lvgl/src/lv_core/lv_style.c ****         }
 377:lvgl/src/lv_core/lv_style.c ****     }
 378:lvgl/src/lv_core/lv_style.c **** 
 379:lvgl/src/lv_core/lv_style.c ****     /*Add new property if not exists yet*/
 380:lvgl/src/lv_core/lv_style.c ****     uint8_t new_prop_size = (sizeof(lv_style_property_t) + sizeof(lv_style_int_t));
 381:lvgl/src/lv_core/lv_style.c ****     lv_style_property_t end_mark = _LV_STYLE_CLOSING_PROP;
 382:lvgl/src/lv_core/lv_style.c ****     uint8_t end_mark_size = sizeof(end_mark);
 383:lvgl/src/lv_core/lv_style.c **** 
 384:lvgl/src/lv_core/lv_style.c ****     uint16_t size = _lv_style_get_mem_size(style);
 385:lvgl/src/lv_core/lv_style.c ****     if(size == 0) size += end_mark_size;
 386:lvgl/src/lv_core/lv_style.c ****     size += sizeof(lv_style_property_t) + sizeof(lv_style_int_t);
 387:lvgl/src/lv_core/lv_style.c ****     style_resize(style, size);
 388:lvgl/src/lv_core/lv_style.c ****     LV_ASSERT_MEM(style->map);
 389:lvgl/src/lv_core/lv_style.c ****     if(style == NULL) return;
 390:lvgl/src/lv_core/lv_style.c **** 
 391:lvgl/src/lv_core/lv_style.c ****     _lv_memcpy_small(style->map + size - new_prop_size - end_mark_size, &prop, sizeof(lv_style_prop
 392:lvgl/src/lv_core/lv_style.c ****     _lv_memcpy_small(style->map + size - sizeof(lv_style_int_t) - end_mark_size, &value, sizeof(lv_
 393:lvgl/src/lv_core/lv_style.c ****     _lv_memcpy_small(style->map + size - end_mark_size, &end_mark, sizeof(end_mark));
 394:lvgl/src/lv_core/lv_style.c **** }
 395:lvgl/src/lv_core/lv_style.c **** 
 396:lvgl/src/lv_core/lv_style.c **** /**
 397:lvgl/src/lv_core/lv_style.c ****  * Set a color typed property in a style.
 398:lvgl/src/lv_core/lv_style.c ****  * @param style pointer to a style where the property should be set
 399:lvgl/src/lv_core/lv_style.c ****  * @param prop a style property ORed with a state.
 400:lvgl/src/lv_core/lv_style.c ****  * E.g. `LV_STYLE_BORDER_COLOR | (LV_STATE_PRESSED << LV_STYLE_STATE_POS)`
 401:lvgl/src/lv_core/lv_style.c ****  * @param value the value to set
 402:lvgl/src/lv_core/lv_style.c ****  * @note shouldn't be used directly. Use the specific property set functions instead.
 403:lvgl/src/lv_core/lv_style.c ****  *       For example: `lv_style_set_border_color()`
 404:lvgl/src/lv_core/lv_style.c ****  * @note for performance reasons it's not checked if the property really has color type
 405:lvgl/src/lv_core/lv_style.c ****  */
 406:lvgl/src/lv_core/lv_style.c **** void _lv_style_set_color(lv_style_t * style, lv_style_property_t prop, lv_color_t color)
 407:lvgl/src/lv_core/lv_style.c **** {
 408:lvgl/src/lv_core/lv_style.c ****     LV_ASSERT_STYLE(style);
 409:lvgl/src/lv_core/lv_style.c **** 
 410:lvgl/src/lv_core/lv_style.c ****     int32_t id = get_property_index(style, prop);
 411:lvgl/src/lv_core/lv_style.c ****     /*The property already exists but not sure it's state is the same*/
 412:lvgl/src/lv_core/lv_style.c ****     if(id >= 0) {
 413:lvgl/src/lv_core/lv_style.c ****         lv_style_attr_t attr_found;
 414:lvgl/src/lv_core/lv_style.c ****         lv_style_attr_t attr_goal;
 415:lvgl/src/lv_core/lv_style.c **** 
 416:lvgl/src/lv_core/lv_style.c ****         attr_found = get_style_prop_attr(style, id);
 417:lvgl/src/lv_core/lv_style.c ****         attr_goal = (prop >> 8) & 0xFFU;
 418:lvgl/src/lv_core/lv_style.c **** 
 419:lvgl/src/lv_core/lv_style.c ****         if(LV_STYLE_ATTR_GET_STATE(attr_found) == LV_STYLE_ATTR_GET_STATE(attr_goal)) {
 420:lvgl/src/lv_core/lv_style.c ****             _lv_memcpy_small(style->map + id + sizeof(lv_style_property_t), &color, sizeof(lv_color
 421:lvgl/src/lv_core/lv_style.c ****             return;
 422:lvgl/src/lv_core/lv_style.c ****         }
 423:lvgl/src/lv_core/lv_style.c ****     }
 424:lvgl/src/lv_core/lv_style.c **** 
ARM GAS  D:\Temp\cceOI0TF.s 			page 18


 425:lvgl/src/lv_core/lv_style.c ****     /*Add new property if not exists yet*/
 426:lvgl/src/lv_core/lv_style.c ****     uint8_t new_prop_size = (sizeof(lv_style_property_t) + sizeof(lv_color_t));
 427:lvgl/src/lv_core/lv_style.c ****     lv_style_property_t end_mark = _LV_STYLE_CLOSING_PROP;
 428:lvgl/src/lv_core/lv_style.c ****     uint8_t end_mark_size = sizeof(end_mark);
 429:lvgl/src/lv_core/lv_style.c **** 
 430:lvgl/src/lv_core/lv_style.c ****     uint16_t size = _lv_style_get_mem_size(style);
 431:lvgl/src/lv_core/lv_style.c ****     if(size == 0) size += end_mark_size;
 432:lvgl/src/lv_core/lv_style.c **** 
 433:lvgl/src/lv_core/lv_style.c ****     size += sizeof(lv_style_property_t) + sizeof(lv_color_t);
 434:lvgl/src/lv_core/lv_style.c ****     style_resize(style, size);
 435:lvgl/src/lv_core/lv_style.c ****     LV_ASSERT_MEM(style->map);
 436:lvgl/src/lv_core/lv_style.c ****     if(style == NULL) return;
 437:lvgl/src/lv_core/lv_style.c **** 
 438:lvgl/src/lv_core/lv_style.c ****     _lv_memcpy_small(style->map + size - new_prop_size - end_mark_size, &prop, sizeof(lv_style_prop
 439:lvgl/src/lv_core/lv_style.c ****     _lv_memcpy_small(style->map + size - sizeof(lv_color_t) - end_mark_size, &color, sizeof(lv_colo
 440:lvgl/src/lv_core/lv_style.c ****     _lv_memcpy_small(style->map + size - end_mark_size, &end_mark, sizeof(end_mark));
 441:lvgl/src/lv_core/lv_style.c **** }
 442:lvgl/src/lv_core/lv_style.c **** 
 443:lvgl/src/lv_core/lv_style.c **** /**
 444:lvgl/src/lv_core/lv_style.c ****  * Set an opacity typed property in a style.
 445:lvgl/src/lv_core/lv_style.c ****  * @param style pointer to a style where the property should be set
 446:lvgl/src/lv_core/lv_style.c ****  * @param prop a style property ORed with a state.
 447:lvgl/src/lv_core/lv_style.c ****  * E.g. `LV_STYLE_BORDER_OPA | (LV_STATE_PRESSED << LV_STYLE_STATE_POS)`
 448:lvgl/src/lv_core/lv_style.c ****  * @param value the value to set
 449:lvgl/src/lv_core/lv_style.c ****  * @note shouldn't be used directly. Use the specific property set functions instead.
 450:lvgl/src/lv_core/lv_style.c ****  *       For example: `lv_style_set_border_opa()`
 451:lvgl/src/lv_core/lv_style.c ****  * @note for performance reasons it's not checked if the property really has opacity type
 452:lvgl/src/lv_core/lv_style.c ****  */
 453:lvgl/src/lv_core/lv_style.c **** void _lv_style_set_opa(lv_style_t * style, lv_style_property_t prop, lv_opa_t opa)
 454:lvgl/src/lv_core/lv_style.c **** {
 455:lvgl/src/lv_core/lv_style.c ****     LV_ASSERT_STYLE(style);
 456:lvgl/src/lv_core/lv_style.c **** 
 457:lvgl/src/lv_core/lv_style.c ****     int32_t id = get_property_index(style, prop);
 458:lvgl/src/lv_core/lv_style.c ****     /*The property already exists but not sure it's state is the same*/
 459:lvgl/src/lv_core/lv_style.c ****     if(id >= 0) {
 460:lvgl/src/lv_core/lv_style.c ****         lv_style_attr_t attr_found;
 461:lvgl/src/lv_core/lv_style.c ****         lv_style_attr_t attr_goal;
 462:lvgl/src/lv_core/lv_style.c **** 
 463:lvgl/src/lv_core/lv_style.c ****         attr_found = get_style_prop_attr(style, id);
 464:lvgl/src/lv_core/lv_style.c ****         attr_goal = (prop >> 8) & 0xFFU;
 465:lvgl/src/lv_core/lv_style.c **** 
 466:lvgl/src/lv_core/lv_style.c ****         if(LV_STYLE_ATTR_GET_STATE(attr_found) == LV_STYLE_ATTR_GET_STATE(attr_goal)) {
 467:lvgl/src/lv_core/lv_style.c ****             _lv_memcpy_small(style->map + id + sizeof(lv_style_property_t), &opa, sizeof(lv_opa_t))
 468:lvgl/src/lv_core/lv_style.c ****             return;
 469:lvgl/src/lv_core/lv_style.c ****         }
 470:lvgl/src/lv_core/lv_style.c ****     }
 471:lvgl/src/lv_core/lv_style.c **** 
 472:lvgl/src/lv_core/lv_style.c ****     /*Add new property if not exists yet*/
 473:lvgl/src/lv_core/lv_style.c ****     uint8_t new_prop_size = (sizeof(lv_style_property_t) + sizeof(lv_opa_t));
 474:lvgl/src/lv_core/lv_style.c ****     lv_style_property_t end_mark = _LV_STYLE_CLOSING_PROP;
 475:lvgl/src/lv_core/lv_style.c ****     uint8_t end_mark_size = sizeof(end_mark);
 476:lvgl/src/lv_core/lv_style.c **** 
 477:lvgl/src/lv_core/lv_style.c ****     uint16_t size = _lv_style_get_mem_size(style);
 478:lvgl/src/lv_core/lv_style.c ****     if(size == 0) size += end_mark_size;
 479:lvgl/src/lv_core/lv_style.c **** 
 480:lvgl/src/lv_core/lv_style.c ****     size += sizeof(lv_style_property_t) + sizeof(lv_opa_t);
 481:lvgl/src/lv_core/lv_style.c ****     style_resize(style, size);
ARM GAS  D:\Temp\cceOI0TF.s 			page 19


 482:lvgl/src/lv_core/lv_style.c ****     LV_ASSERT_MEM(style->map);
 483:lvgl/src/lv_core/lv_style.c ****     if(style == NULL) return;
 484:lvgl/src/lv_core/lv_style.c **** 
 485:lvgl/src/lv_core/lv_style.c ****     _lv_memcpy_small(style->map + size - new_prop_size - end_mark_size, &prop, sizeof(lv_style_prop
 486:lvgl/src/lv_core/lv_style.c ****     _lv_memcpy_small(style->map + size - sizeof(lv_opa_t) - end_mark_size, &opa, sizeof(lv_opa_t));
 487:lvgl/src/lv_core/lv_style.c ****     _lv_memcpy_small(style->map + size - end_mark_size, &end_mark, sizeof(end_mark));
 488:lvgl/src/lv_core/lv_style.c **** }
 489:lvgl/src/lv_core/lv_style.c **** 
 490:lvgl/src/lv_core/lv_style.c **** /**
 491:lvgl/src/lv_core/lv_style.c ****  * Set a pointer typed property in a style.
 492:lvgl/src/lv_core/lv_style.c ****  * @param style pointer to a style where the property should be set
 493:lvgl/src/lv_core/lv_style.c ****  * @param prop a style property ORed with a state.
 494:lvgl/src/lv_core/lv_style.c ****  * E.g. `LV_STYLE_TEXT_POINTER | (LV_STATE_PRESSED << LV_STYLE_STATE_POS)`
 495:lvgl/src/lv_core/lv_style.c ****  * @param value the value to set
 496:lvgl/src/lv_core/lv_style.c ****  * @note shouldn't be used directly. Use the specific property set functions instead.
 497:lvgl/src/lv_core/lv_style.c ****  *       For example: `lv_style_set_border_width()`
 498:lvgl/src/lv_core/lv_style.c ****  * @note for performance reasons it's not checked if the property is really has pointer type
 499:lvgl/src/lv_core/lv_style.c ****  */
 500:lvgl/src/lv_core/lv_style.c **** void _lv_style_set_ptr(lv_style_t * style, lv_style_property_t prop, const void * p)
 501:lvgl/src/lv_core/lv_style.c **** {
 502:lvgl/src/lv_core/lv_style.c ****     LV_ASSERT_STYLE(style);
 503:lvgl/src/lv_core/lv_style.c **** 
 504:lvgl/src/lv_core/lv_style.c ****     int32_t id = get_property_index(style, prop);
 505:lvgl/src/lv_core/lv_style.c ****     /*The property already exists but not sure it's state is the same*/
 506:lvgl/src/lv_core/lv_style.c ****     if(id >= 0) {
 507:lvgl/src/lv_core/lv_style.c ****         lv_style_attr_t attr_found;
 508:lvgl/src/lv_core/lv_style.c ****         lv_style_attr_t attr_goal;
 509:lvgl/src/lv_core/lv_style.c **** 
 510:lvgl/src/lv_core/lv_style.c ****         attr_found = get_style_prop_attr(style, id);
 511:lvgl/src/lv_core/lv_style.c ****         attr_goal = (prop >> 8) & 0xFFU;
 512:lvgl/src/lv_core/lv_style.c **** 
 513:lvgl/src/lv_core/lv_style.c ****         if(LV_STYLE_ATTR_GET_STATE(attr_found) == LV_STYLE_ATTR_GET_STATE(attr_goal)) {
 514:lvgl/src/lv_core/lv_style.c ****             _lv_memcpy_small(style->map + id + sizeof(lv_style_property_t), &p, sizeof(const void *
 515:lvgl/src/lv_core/lv_style.c ****             return;
 516:lvgl/src/lv_core/lv_style.c ****         }
 517:lvgl/src/lv_core/lv_style.c ****     }
 518:lvgl/src/lv_core/lv_style.c **** 
 519:lvgl/src/lv_core/lv_style.c ****     /*Add new property if not exists yet*/
 520:lvgl/src/lv_core/lv_style.c ****     uint8_t new_prop_size = (sizeof(lv_style_property_t) + sizeof(const void *));
 521:lvgl/src/lv_core/lv_style.c ****     lv_style_property_t end_mark = _LV_STYLE_CLOSING_PROP;
 522:lvgl/src/lv_core/lv_style.c ****     uint8_t end_mark_size = sizeof(end_mark);
 523:lvgl/src/lv_core/lv_style.c **** 
 524:lvgl/src/lv_core/lv_style.c ****     uint16_t size = _lv_style_get_mem_size(style);
 525:lvgl/src/lv_core/lv_style.c ****     if(size == 0) size += end_mark_size;
 526:lvgl/src/lv_core/lv_style.c **** 
 527:lvgl/src/lv_core/lv_style.c ****     size += sizeof(lv_style_property_t) + sizeof(const void *);
 528:lvgl/src/lv_core/lv_style.c ****     style_resize(style, size);
 529:lvgl/src/lv_core/lv_style.c ****     LV_ASSERT_MEM(style->map);
 530:lvgl/src/lv_core/lv_style.c ****     if(style == NULL) return;
 531:lvgl/src/lv_core/lv_style.c **** 
 532:lvgl/src/lv_core/lv_style.c ****     _lv_memcpy_small(style->map + size - new_prop_size - end_mark_size, &prop, sizeof(lv_style_prop
 533:lvgl/src/lv_core/lv_style.c ****     _lv_memcpy_small(style->map + size - sizeof(const void *) - end_mark_size, &p, sizeof(const voi
 534:lvgl/src/lv_core/lv_style.c ****     _lv_memcpy_small(style->map + size - end_mark_size, &end_mark, sizeof(end_mark));
 535:lvgl/src/lv_core/lv_style.c **** }
 536:lvgl/src/lv_core/lv_style.c **** 
 537:lvgl/src/lv_core/lv_style.c **** /**
 538:lvgl/src/lv_core/lv_style.c ****  * Get the a property from a style.
ARM GAS  D:\Temp\cceOI0TF.s 			page 20


 539:lvgl/src/lv_core/lv_style.c ****  * Take into account the style state and return the property which matches the best.
 540:lvgl/src/lv_core/lv_style.c ****  * @param style pointer to a style where to search
 541:lvgl/src/lv_core/lv_style.c ****  * @param prop the property, might contain ORed style states too
 542:lvgl/src/lv_core/lv_style.c ****  * @param res buffer to store the result
 543:lvgl/src/lv_core/lv_style.c ****  * @return the weight of the found property (how well it fits to the style state).
 544:lvgl/src/lv_core/lv_style.c ****  *         Higher number is means better fit
 545:lvgl/src/lv_core/lv_style.c ****  *         -1 if the not found (`res` will be undefined)
 546:lvgl/src/lv_core/lv_style.c ****  */
 547:lvgl/src/lv_core/lv_style.c **** int16_t _lv_style_get_int(const lv_style_t * style, lv_style_property_t prop, void * v_res)
 548:lvgl/src/lv_core/lv_style.c **** {
 549:lvgl/src/lv_core/lv_style.c ****     lv_style_int_t * res = (lv_style_int_t *)v_res;
 550:lvgl/src/lv_core/lv_style.c ****     LV_ASSERT_STYLE(style);
 551:lvgl/src/lv_core/lv_style.c **** 
 552:lvgl/src/lv_core/lv_style.c ****     if(style == NULL) return -1;
 553:lvgl/src/lv_core/lv_style.c ****     if(style->map == NULL) return -1;
 554:lvgl/src/lv_core/lv_style.c **** 
 555:lvgl/src/lv_core/lv_style.c ****     int32_t id = get_property_index(style, prop);
 556:lvgl/src/lv_core/lv_style.c ****     if(id < 0) {
 557:lvgl/src/lv_core/lv_style.c ****         return -1;
 558:lvgl/src/lv_core/lv_style.c ****     }
 559:lvgl/src/lv_core/lv_style.c ****     else {
 560:lvgl/src/lv_core/lv_style.c ****         _lv_memcpy_small(res, &style->map[id + sizeof(lv_style_property_t)], sizeof(lv_style_int_t)
 561:lvgl/src/lv_core/lv_style.c ****         lv_style_attr_t attr_act;
 562:lvgl/src/lv_core/lv_style.c ****         attr_act = get_style_prop_attr(style, id);
 563:lvgl/src/lv_core/lv_style.c **** 
 564:lvgl/src/lv_core/lv_style.c ****         lv_style_attr_t attr_goal;
 565:lvgl/src/lv_core/lv_style.c ****         attr_goal = (prop >> 8) & 0xFF;
 566:lvgl/src/lv_core/lv_style.c **** 
 567:lvgl/src/lv_core/lv_style.c ****         return LV_STYLE_ATTR_GET_STATE(attr_act) & LV_STYLE_ATTR_GET_STATE(attr_goal);
 568:lvgl/src/lv_core/lv_style.c ****     }
 569:lvgl/src/lv_core/lv_style.c **** }
 570:lvgl/src/lv_core/lv_style.c **** 
 571:lvgl/src/lv_core/lv_style.c **** /**
 572:lvgl/src/lv_core/lv_style.c ****  * Get an opacity typed property from a style.
 573:lvgl/src/lv_core/lv_style.c ****  * @param style pointer to a style from where the property should be get
 574:lvgl/src/lv_core/lv_style.c ****  * @param prop a style property ORed with a state.
 575:lvgl/src/lv_core/lv_style.c ****  * E.g. `LV_STYLE_BORDER_OPA | (LV_STATE_PRESSED << LV_STYLE_STATE_POS)`
 576:lvgl/src/lv_core/lv_style.c ****  * @param res pointer to a buffer to store the result value
 577:lvgl/src/lv_core/lv_style.c ****  * @return -1: the property wasn't found in the style.
 578:lvgl/src/lv_core/lv_style.c ****  *         The matching state bits of the desired state (in `prop`) and the best matching property'
 579:lvgl/src/lv_core/lv_style.c ****  *         Higher value means match in higher precedence state.
 580:lvgl/src/lv_core/lv_style.c ****  * @note shouldn't be used directly. Use the specific property get functions instead.
 581:lvgl/src/lv_core/lv_style.c ****  *       For example: `lv_style_get_border_opa()`
 582:lvgl/src/lv_core/lv_style.c ****  * @note for performance reasons it's not checked if the property really has opacity type
 583:lvgl/src/lv_core/lv_style.c ****  */
 584:lvgl/src/lv_core/lv_style.c **** int16_t _lv_style_get_opa(const lv_style_t * style, lv_style_property_t prop, void * v_res)
 585:lvgl/src/lv_core/lv_style.c **** {
 586:lvgl/src/lv_core/lv_style.c ****     lv_opa_t * res = (lv_opa_t *)v_res;
 587:lvgl/src/lv_core/lv_style.c ****     LV_ASSERT_STYLE(style);
 588:lvgl/src/lv_core/lv_style.c **** 
 589:lvgl/src/lv_core/lv_style.c ****     if(style == NULL) return -1;
 590:lvgl/src/lv_core/lv_style.c ****     if(style->map == NULL) return -1;
 591:lvgl/src/lv_core/lv_style.c **** 
 592:lvgl/src/lv_core/lv_style.c ****     int32_t id = get_property_index(style, prop);
 593:lvgl/src/lv_core/lv_style.c ****     if(id < 0) {
 594:lvgl/src/lv_core/lv_style.c ****         return -1;
 595:lvgl/src/lv_core/lv_style.c ****     }
ARM GAS  D:\Temp\cceOI0TF.s 			page 21


 596:lvgl/src/lv_core/lv_style.c ****     else {
 597:lvgl/src/lv_core/lv_style.c ****         _lv_memcpy_small(res, &style->map[id + sizeof(lv_style_property_t)], sizeof(lv_opa_t));
 598:lvgl/src/lv_core/lv_style.c ****         lv_style_attr_t attr_act;
 599:lvgl/src/lv_core/lv_style.c ****         attr_act = get_style_prop_attr(style, id);
 600:lvgl/src/lv_core/lv_style.c **** 
 601:lvgl/src/lv_core/lv_style.c ****         lv_style_attr_t attr_goal;
 602:lvgl/src/lv_core/lv_style.c ****         attr_goal = (prop >> 8) & 0xFF;
 603:lvgl/src/lv_core/lv_style.c **** 
 604:lvgl/src/lv_core/lv_style.c ****         return LV_STYLE_ATTR_GET_STATE(attr_act) & LV_STYLE_ATTR_GET_STATE(attr_goal);
 605:lvgl/src/lv_core/lv_style.c ****     }
 606:lvgl/src/lv_core/lv_style.c **** }
 607:lvgl/src/lv_core/lv_style.c **** 
 608:lvgl/src/lv_core/lv_style.c **** /**
 609:lvgl/src/lv_core/lv_style.c ****  * Get a color typed property from a style.
 610:lvgl/src/lv_core/lv_style.c ****  * @param style pointer to a style from where the property should be get
 611:lvgl/src/lv_core/lv_style.c ****  * @param prop a style property ORed with a state.
 612:lvgl/src/lv_core/lv_style.c ****  * E.g. `LV_STYLE_BORDER_COLOR | (LV_STATE_PRESSED << LV_STYLE_STATE_POS)`
 613:lvgl/src/lv_core/lv_style.c ****  * @param res pointer to a buffer to store the result value
 614:lvgl/src/lv_core/lv_style.c ****  * @return -1: the property wasn't found in the style.
 615:lvgl/src/lv_core/lv_style.c ****  *         The matching state bits of the desired state (in `prop`) and the best matching property'
 616:lvgl/src/lv_core/lv_style.c ****  *         Higher value means match in higher precedence state.
 617:lvgl/src/lv_core/lv_style.c ****  * @note shouldn't be used directly. Use the specific property get functions instead.
 618:lvgl/src/lv_core/lv_style.c ****  *       For example: `lv_style_get_border_color()`
 619:lvgl/src/lv_core/lv_style.c ****  * @note for performance reasons it's not checked if the property really has color type
 620:lvgl/src/lv_core/lv_style.c ****  */
 621:lvgl/src/lv_core/lv_style.c **** int16_t _lv_style_get_color(const lv_style_t * style, lv_style_property_t prop, void * v_res)
 622:lvgl/src/lv_core/lv_style.c **** {
 623:lvgl/src/lv_core/lv_style.c ****     lv_color_t * res = (lv_color_t *)v_res;
 624:lvgl/src/lv_core/lv_style.c ****     if(style == NULL) return -1;
 625:lvgl/src/lv_core/lv_style.c ****     if(style->map == NULL) return -1;
 626:lvgl/src/lv_core/lv_style.c ****     int32_t id = get_property_index(style, prop);
 627:lvgl/src/lv_core/lv_style.c ****     if(id < 0) {
 628:lvgl/src/lv_core/lv_style.c ****         return -1;
 629:lvgl/src/lv_core/lv_style.c ****     }
 630:lvgl/src/lv_core/lv_style.c ****     else {
 631:lvgl/src/lv_core/lv_style.c ****         _lv_memcpy_small(res, &style->map[id + sizeof(lv_style_property_t)], sizeof(lv_color_t));
 632:lvgl/src/lv_core/lv_style.c ****         lv_style_attr_t attr_act;
 633:lvgl/src/lv_core/lv_style.c ****         attr_act = get_style_prop_attr(style, id);
 634:lvgl/src/lv_core/lv_style.c **** 
 635:lvgl/src/lv_core/lv_style.c ****         lv_style_attr_t attr_goal;
 636:lvgl/src/lv_core/lv_style.c ****         attr_goal = (prop >> 8) & 0xFF;
 637:lvgl/src/lv_core/lv_style.c **** 
 638:lvgl/src/lv_core/lv_style.c ****         return LV_STYLE_ATTR_GET_STATE(attr_act) & LV_STYLE_ATTR_GET_STATE(attr_goal);
 639:lvgl/src/lv_core/lv_style.c ****     }
 640:lvgl/src/lv_core/lv_style.c **** }
 641:lvgl/src/lv_core/lv_style.c **** 
 642:lvgl/src/lv_core/lv_style.c **** /**
 643:lvgl/src/lv_core/lv_style.c ****  * Get a pointer typed property from a style.
 644:lvgl/src/lv_core/lv_style.c ****  * @param style pointer to a style from where the property should be get
 645:lvgl/src/lv_core/lv_style.c ****  * @param prop a style property ORed with a state.
 646:lvgl/src/lv_core/lv_style.c ****  * E.g. `LV_STYLE_TEXT_FONT | (LV_STATE_PRESSED << LV_STYLE_STATE_POS)`
 647:lvgl/src/lv_core/lv_style.c ****  * @param res pointer to a buffer to store the result value
 648:lvgl/src/lv_core/lv_style.c ****  * @return -1: the property wasn't found in the style.
 649:lvgl/src/lv_core/lv_style.c ****  *         The matching state bits of the desired state (in `prop`) and the best matching property'
 650:lvgl/src/lv_core/lv_style.c ****  *         Higher value means match in higher precedence state.
 651:lvgl/src/lv_core/lv_style.c ****  * @note shouldn't be used directly. Use the specific property get functions instead.
 652:lvgl/src/lv_core/lv_style.c ****  *       For example: `lv_style_get_text_font()`
ARM GAS  D:\Temp\cceOI0TF.s 			page 22


 653:lvgl/src/lv_core/lv_style.c ****  * @note for performance reasons it's not checked if the property really has pointer type
 654:lvgl/src/lv_core/lv_style.c ****  */
 655:lvgl/src/lv_core/lv_style.c **** int16_t _lv_style_get_ptr(const lv_style_t * style, lv_style_property_t prop, void * v_res)
 656:lvgl/src/lv_core/lv_style.c **** {
 657:lvgl/src/lv_core/lv_style.c ****     const void ** res = (const void **)v_res;
 658:lvgl/src/lv_core/lv_style.c ****     if(style == NULL) return -1;
 659:lvgl/src/lv_core/lv_style.c ****     if(style->map == NULL) return -1;
 660:lvgl/src/lv_core/lv_style.c **** 
 661:lvgl/src/lv_core/lv_style.c ****     int32_t id = get_property_index(style, prop);
 662:lvgl/src/lv_core/lv_style.c ****     if(id < 0) {
 663:lvgl/src/lv_core/lv_style.c ****         return -1;
 664:lvgl/src/lv_core/lv_style.c ****     }
 665:lvgl/src/lv_core/lv_style.c ****     else {
 666:lvgl/src/lv_core/lv_style.c ****         _lv_memcpy_small(res, &style->map[id + sizeof(lv_style_property_t)], sizeof(const void *));
 667:lvgl/src/lv_core/lv_style.c ****         lv_style_attr_t attr_act;
 668:lvgl/src/lv_core/lv_style.c ****         attr_act = get_style_prop_attr(style, id);
 669:lvgl/src/lv_core/lv_style.c **** 
 670:lvgl/src/lv_core/lv_style.c ****         lv_style_attr_t attr_goal;
 671:lvgl/src/lv_core/lv_style.c ****         attr_goal = (prop >> 8) & 0xFF;
 672:lvgl/src/lv_core/lv_style.c **** 
 673:lvgl/src/lv_core/lv_style.c ****         return LV_STYLE_ATTR_GET_STATE(attr_act) & LV_STYLE_ATTR_GET_STATE(attr_goal);
 674:lvgl/src/lv_core/lv_style.c ****     }
 675:lvgl/src/lv_core/lv_style.c **** }
 676:lvgl/src/lv_core/lv_style.c **** 
 677:lvgl/src/lv_core/lv_style.c **** /**
 678:lvgl/src/lv_core/lv_style.c ****  * Get the local style of a style list
 679:lvgl/src/lv_core/lv_style.c ****  * @param list pointer to a style list where the local property should be set
 680:lvgl/src/lv_core/lv_style.c ****  * @return pointer to the local style if exists else `NULL`.
 681:lvgl/src/lv_core/lv_style.c ****  */
 682:lvgl/src/lv_core/lv_style.c **** lv_style_t * lv_style_list_get_local_style(lv_style_list_t * list)
 683:lvgl/src/lv_core/lv_style.c **** {
 684:lvgl/src/lv_core/lv_style.c ****     LV_ASSERT_STYLE_LIST(list);
 685:lvgl/src/lv_core/lv_style.c **** 
 686:lvgl/src/lv_core/lv_style.c ****     if(!list->has_local) return NULL;
 687:lvgl/src/lv_core/lv_style.c ****     if(list->has_trans) return list->style_list[1];
 688:lvgl/src/lv_core/lv_style.c ****     else return list->style_list[0];
 689:lvgl/src/lv_core/lv_style.c **** }
 690:lvgl/src/lv_core/lv_style.c **** 
 691:lvgl/src/lv_core/lv_style.c **** /**
 692:lvgl/src/lv_core/lv_style.c ****  * Get the transition style of a style list
 693:lvgl/src/lv_core/lv_style.c ****  * @param list pointer to a style list where the local property should be set
 694:lvgl/src/lv_core/lv_style.c ****  * @return pointer to the transition style if exists else `NULL`.
 695:lvgl/src/lv_core/lv_style.c ****  */
 696:lvgl/src/lv_core/lv_style.c **** lv_style_t * _lv_style_list_get_transition_style(lv_style_list_t * list)
 697:lvgl/src/lv_core/lv_style.c **** {
 698:lvgl/src/lv_core/lv_style.c ****     LV_ASSERT_STYLE_LIST(list);
 699:lvgl/src/lv_core/lv_style.c **** 
 700:lvgl/src/lv_core/lv_style.c ****     if(!list->has_trans) return NULL;
 701:lvgl/src/lv_core/lv_style.c ****     return list->style_list[0];
 702:lvgl/src/lv_core/lv_style.c **** }
 703:lvgl/src/lv_core/lv_style.c **** 
 704:lvgl/src/lv_core/lv_style.c **** /**
 705:lvgl/src/lv_core/lv_style.c ****  * Allocate the transition style in a style list. If already exists simply return it.
 706:lvgl/src/lv_core/lv_style.c ****  * @param list pointer to a style list
 707:lvgl/src/lv_core/lv_style.c ****  * @return the transition style of a style list
 708:lvgl/src/lv_core/lv_style.c ****  */
 709:lvgl/src/lv_core/lv_style.c **** lv_style_t * _lv_style_list_add_trans_style(lv_style_list_t * list)
ARM GAS  D:\Temp\cceOI0TF.s 			page 23


 710:lvgl/src/lv_core/lv_style.c **** {
 711:lvgl/src/lv_core/lv_style.c ****     LV_ASSERT_STYLE_LIST(list);
 712:lvgl/src/lv_core/lv_style.c ****     if(list->has_trans) return _lv_style_list_get_transition_style(list);
 713:lvgl/src/lv_core/lv_style.c **** 
 714:lvgl/src/lv_core/lv_style.c ****     lv_style_t * trans_style = lv_mem_alloc(sizeof(lv_style_t));
 715:lvgl/src/lv_core/lv_style.c ****     LV_ASSERT_MEM(trans_style);
 716:lvgl/src/lv_core/lv_style.c ****     if(trans_style == NULL) {
 717:lvgl/src/lv_core/lv_style.c ****         LV_LOG_WARN("lv_style_list_add_trans_style: couldn't create transition style");
 718:lvgl/src/lv_core/lv_style.c ****         return NULL;
 719:lvgl/src/lv_core/lv_style.c ****     }
 720:lvgl/src/lv_core/lv_style.c **** 
 721:lvgl/src/lv_core/lv_style.c ****     lv_style_init(trans_style);
 722:lvgl/src/lv_core/lv_style.c **** 
 723:lvgl/src/lv_core/lv_style.c ****     _lv_style_list_add_style(list, trans_style);
 724:lvgl/src/lv_core/lv_style.c ****     list->has_trans = 1;
 725:lvgl/src/lv_core/lv_style.c **** 
 726:lvgl/src/lv_core/lv_style.c ****     /*If the list has local style trans was added after it. But trans should be the first so swap t
 727:lvgl/src/lv_core/lv_style.c ****     if(list->has_local) {
 728:lvgl/src/lv_core/lv_style.c ****         lv_style_t * tmp = list->style_list[0];
 729:lvgl/src/lv_core/lv_style.c ****         list->style_list[0] = list->style_list[1];
 730:lvgl/src/lv_core/lv_style.c ****         list->style_list[1] = tmp;
 731:lvgl/src/lv_core/lv_style.c ****     }
 732:lvgl/src/lv_core/lv_style.c ****     return trans_style;
 733:lvgl/src/lv_core/lv_style.c **** }
 734:lvgl/src/lv_core/lv_style.c **** 
 735:lvgl/src/lv_core/lv_style.c **** /**
 736:lvgl/src/lv_core/lv_style.c ****  * Set a local integer typed property in a style list.
 737:lvgl/src/lv_core/lv_style.c ****  * @param list pointer to a style list where the local property should be set
 738:lvgl/src/lv_core/lv_style.c ****  * @param prop a style property ORed with a state.
 739:lvgl/src/lv_core/lv_style.c ****  * E.g. `LV_STYLE_BORDER_WIDTH | (LV_STATE_PRESSED << LV_STYLE_STATE_POS)`
 740:lvgl/src/lv_core/lv_style.c ****  * @param value the value to set
 741:lvgl/src/lv_core/lv_style.c ****  * @note for performance reasons it's not checked if the property really has integer type
 742:lvgl/src/lv_core/lv_style.c ****  */
 743:lvgl/src/lv_core/lv_style.c **** void _lv_style_list_set_local_int(lv_style_list_t * list, lv_style_property_t prop, lv_style_int_t 
 744:lvgl/src/lv_core/lv_style.c **** {
 745:lvgl/src/lv_core/lv_style.c ****     LV_ASSERT_STYLE_LIST(list);
 746:lvgl/src/lv_core/lv_style.c **** 
 747:lvgl/src/lv_core/lv_style.c ****     lv_style_t * local = get_alloc_local_style(list);
 748:lvgl/src/lv_core/lv_style.c ****     _lv_style_set_int(local, prop, value);
 749:lvgl/src/lv_core/lv_style.c **** }
 750:lvgl/src/lv_core/lv_style.c **** 
 751:lvgl/src/lv_core/lv_style.c **** /**
 752:lvgl/src/lv_core/lv_style.c ****  * Set a local opacity typed property in a style list.
 753:lvgl/src/lv_core/lv_style.c ****  * @param list pointer to a style list where the local property should be set
 754:lvgl/src/lv_core/lv_style.c ****  * @param prop a style property ORed with a state.
 755:lvgl/src/lv_core/lv_style.c ****  * E.g. `LV_STYLE_BORDER_OPA | (LV_STATE_PRESSED << LV_STYLE_STATE_POS)`
 756:lvgl/src/lv_core/lv_style.c ****  * @param value the value to set
 757:lvgl/src/lv_core/lv_style.c ****  * @note for performance reasons it's not checked if the property really has opacity type
 758:lvgl/src/lv_core/lv_style.c ****  */
 759:lvgl/src/lv_core/lv_style.c **** void _lv_style_list_set_local_opa(lv_style_list_t * list, lv_style_property_t prop, lv_opa_t value)
 760:lvgl/src/lv_core/lv_style.c **** {
 761:lvgl/src/lv_core/lv_style.c ****     LV_ASSERT_STYLE_LIST(list);
 762:lvgl/src/lv_core/lv_style.c **** 
 763:lvgl/src/lv_core/lv_style.c ****     lv_style_t * local = get_alloc_local_style(list);
 764:lvgl/src/lv_core/lv_style.c ****     _lv_style_set_opa(local, prop, value);
 765:lvgl/src/lv_core/lv_style.c **** }
 766:lvgl/src/lv_core/lv_style.c **** 
ARM GAS  D:\Temp\cceOI0TF.s 			page 24


 767:lvgl/src/lv_core/lv_style.c **** /**
 768:lvgl/src/lv_core/lv_style.c ****  * Set a local color typed property in a style list.
 769:lvgl/src/lv_core/lv_style.c ****  * @param list pointer to a style list where the local property should be set
 770:lvgl/src/lv_core/lv_style.c ****  * @param prop a style property ORed with a state.
 771:lvgl/src/lv_core/lv_style.c ****  * E.g. `LV_STYLE_BORDER_COLOR | (LV_STATE_PRESSED << LV_STYLE_STATE_POS)`
 772:lvgl/src/lv_core/lv_style.c ****  * @param value the value to set
 773:lvgl/src/lv_core/lv_style.c ****  * @note for performance reasons it's not checked if the property really has color type
 774:lvgl/src/lv_core/lv_style.c ****  */
 775:lvgl/src/lv_core/lv_style.c **** void _lv_style_list_set_local_color(lv_style_list_t * list, lv_style_property_t prop, lv_color_t va
 776:lvgl/src/lv_core/lv_style.c **** {
 777:lvgl/src/lv_core/lv_style.c ****     LV_ASSERT_STYLE_LIST(list);
 778:lvgl/src/lv_core/lv_style.c **** 
 779:lvgl/src/lv_core/lv_style.c ****     lv_style_t * local = get_alloc_local_style(list);
 780:lvgl/src/lv_core/lv_style.c ****     _lv_style_set_color(local, prop, value);
 781:lvgl/src/lv_core/lv_style.c **** }
 782:lvgl/src/lv_core/lv_style.c **** 
 783:lvgl/src/lv_core/lv_style.c **** /**
 784:lvgl/src/lv_core/lv_style.c ****  * Set a local pointer typed property in a style list.
 785:lvgl/src/lv_core/lv_style.c ****  * @param list pointer to a style list where the local property should be set
 786:lvgl/src/lv_core/lv_style.c ****  * @param prop a style property ORed with a state.
 787:lvgl/src/lv_core/lv_style.c ****  * E.g. `LV_STYLE_TEXT_FONT | (LV_STATE_PRESSED << LV_STYLE_STATE_POS)`
 788:lvgl/src/lv_core/lv_style.c ****  * @param value the value to set
 789:lvgl/src/lv_core/lv_style.c ****  * @note for performance reasons it's not checked if the property really has pointer type
 790:lvgl/src/lv_core/lv_style.c ****  */
 791:lvgl/src/lv_core/lv_style.c **** void _lv_style_list_set_local_ptr(lv_style_list_t * list, lv_style_property_t prop, const void * va
 792:lvgl/src/lv_core/lv_style.c **** {
 793:lvgl/src/lv_core/lv_style.c ****     LV_ASSERT_STYLE_LIST(list);
 794:lvgl/src/lv_core/lv_style.c **** 
 795:lvgl/src/lv_core/lv_style.c ****     lv_style_t * local = get_alloc_local_style(list);
 796:lvgl/src/lv_core/lv_style.c ****     _lv_style_set_ptr(local, prop, value);
 797:lvgl/src/lv_core/lv_style.c **** }
 798:lvgl/src/lv_core/lv_style.c **** 
 799:lvgl/src/lv_core/lv_style.c **** /**
 800:lvgl/src/lv_core/lv_style.c ****  * Get an integer typed property from a style list.
 801:lvgl/src/lv_core/lv_style.c ****  * It will return the property which match best with given state.
 802:lvgl/src/lv_core/lv_style.c ****  * @param list pointer to a style list from where the property should be get
 803:lvgl/src/lv_core/lv_style.c ****  * @param prop a style property ORed with a state.
 804:lvgl/src/lv_core/lv_style.c ****  * E.g. `LV_STYLE_BORDER_WIDTH | (LV_STATE_PRESSED << LV_STYLE_STATE_POS)`
 805:lvgl/src/lv_core/lv_style.c ****  * @param res pointer to a buffer to store the result
 806:lvgl/src/lv_core/lv_style.c ****  * @return LV_RES_OK: there was a matching property in the list
 807:lvgl/src/lv_core/lv_style.c ****  *         LV_RES_INV: there was NO matching property in the list
 808:lvgl/src/lv_core/lv_style.c ****  * @note for performance reasons it's not checked if the property really has integer type
 809:lvgl/src/lv_core/lv_style.c ****  */
 810:lvgl/src/lv_core/lv_style.c **** lv_res_t _lv_style_list_get_int(lv_style_list_t * list, lv_style_property_t prop, lv_style_int_t * 
 811:lvgl/src/lv_core/lv_style.c **** {
 812:lvgl/src/lv_core/lv_style.c ****     LV_ASSERT_STYLE_LIST(list);
 813:lvgl/src/lv_core/lv_style.c **** 
 814:lvgl/src/lv_core/lv_style.c ****     if(list == NULL) return LV_RES_INV;
 815:lvgl/src/lv_core/lv_style.c ****     if(list->style_list == NULL) return LV_RES_INV;
 816:lvgl/src/lv_core/lv_style.c **** 
 817:lvgl/src/lv_core/lv_style.c ****     lv_style_attr_t attr;
 818:lvgl/src/lv_core/lv_style.c ****     attr = prop >> 8;
 819:lvgl/src/lv_core/lv_style.c ****     int16_t weight_goal = attr;
 820:lvgl/src/lv_core/lv_style.c **** 
 821:lvgl/src/lv_core/lv_style.c ****     int16_t weight = -1;
 822:lvgl/src/lv_core/lv_style.c **** 
 823:lvgl/src/lv_core/lv_style.c ****     lv_style_int_t value_act = 0;
ARM GAS  D:\Temp\cceOI0TF.s 			page 25


 824:lvgl/src/lv_core/lv_style.c **** 
 825:lvgl/src/lv_core/lv_style.c ****     int16_t ci;
 826:lvgl/src/lv_core/lv_style.c ****     for(ci = 0; ci < list->style_cnt; ci++) {
 827:lvgl/src/lv_core/lv_style.c ****         /* changed class to _class to allow compilation as c++ */
 828:lvgl/src/lv_core/lv_style.c ****         lv_style_t * _class = lv_style_list_get_style(list, ci);
 829:lvgl/src/lv_core/lv_style.c ****         int16_t weight_act = _lv_style_get_int(_class, prop, &value_act);
 830:lvgl/src/lv_core/lv_style.c **** 
 831:lvgl/src/lv_core/lv_style.c ****         /*On perfect match return the value immediately*/
 832:lvgl/src/lv_core/lv_style.c ****         if(weight_act == weight_goal) {
 833:lvgl/src/lv_core/lv_style.c ****             *res = value_act;
 834:lvgl/src/lv_core/lv_style.c ****             return LV_RES_OK;
 835:lvgl/src/lv_core/lv_style.c ****         }
 836:lvgl/src/lv_core/lv_style.c ****         else if(list->has_trans && weight_act >= 0 && ci == 0 && !list->skip_trans) {
 837:lvgl/src/lv_core/lv_style.c ****             *res = value_act;
 838:lvgl/src/lv_core/lv_style.c ****             return LV_RES_OK;
 839:lvgl/src/lv_core/lv_style.c ****         }
 840:lvgl/src/lv_core/lv_style.c ****         /*If the found ID is better the current candidate then use it*/
 841:lvgl/src/lv_core/lv_style.c ****         else if(weight_act > weight) {
 842:lvgl/src/lv_core/lv_style.c ****             weight =  weight_act;
 843:lvgl/src/lv_core/lv_style.c ****             *res = value_act;
 844:lvgl/src/lv_core/lv_style.c ****         }
 845:lvgl/src/lv_core/lv_style.c ****     }
 846:lvgl/src/lv_core/lv_style.c **** 
 847:lvgl/src/lv_core/lv_style.c ****     if(weight >= 0) return LV_RES_OK;
 848:lvgl/src/lv_core/lv_style.c ****     else return LV_RES_INV;
 849:lvgl/src/lv_core/lv_style.c **** 
 850:lvgl/src/lv_core/lv_style.c **** }
 851:lvgl/src/lv_core/lv_style.c **** 
 852:lvgl/src/lv_core/lv_style.c **** /**
 853:lvgl/src/lv_core/lv_style.c ****  * Get a color typed property from a style list.
 854:lvgl/src/lv_core/lv_style.c ****  * It will return the property which match best with given state.
 855:lvgl/src/lv_core/lv_style.c ****  * @param list pointer to a style list from where the property should be get
 856:lvgl/src/lv_core/lv_style.c ****  * @param prop a style property ORed with a state.
 857:lvgl/src/lv_core/lv_style.c ****  * E.g. `LV_STYLE_BORDER_COLOR | (LV_STATE_PRESSED << LV_STYLE_STATE_POS)`
 858:lvgl/src/lv_core/lv_style.c ****  * @param res pointer to a buffer to store the result
 859:lvgl/src/lv_core/lv_style.c ****  * @return LV_RES_OK: there was a matching property in the list
 860:lvgl/src/lv_core/lv_style.c ****  *         LV_RES_INV: there was NO matching property in the list
 861:lvgl/src/lv_core/lv_style.c ****  * @note for performance reasons it's not checked if the property really has color type
 862:lvgl/src/lv_core/lv_style.c ****  */
 863:lvgl/src/lv_core/lv_style.c **** lv_res_t _lv_style_list_get_color(lv_style_list_t * list, lv_style_property_t prop, lv_color_t * re
 864:lvgl/src/lv_core/lv_style.c **** {
 865:lvgl/src/lv_core/lv_style.c ****     LV_ASSERT_STYLE_LIST(list);
 866:lvgl/src/lv_core/lv_style.c **** 
 867:lvgl/src/lv_core/lv_style.c ****     if(list == NULL) return LV_RES_INV;
 868:lvgl/src/lv_core/lv_style.c ****     if(list->style_list == NULL) return LV_RES_INV;
 869:lvgl/src/lv_core/lv_style.c **** 
 870:lvgl/src/lv_core/lv_style.c ****     lv_style_attr_t attr;
 871:lvgl/src/lv_core/lv_style.c ****     attr = prop >> 8;
 872:lvgl/src/lv_core/lv_style.c ****     int16_t weight_goal = attr;
 873:lvgl/src/lv_core/lv_style.c **** 
 874:lvgl/src/lv_core/lv_style.c ****     int16_t weight = -1;
 875:lvgl/src/lv_core/lv_style.c **** 
 876:lvgl/src/lv_core/lv_style.c ****     lv_color_t value_act;
 877:lvgl/src/lv_core/lv_style.c ****     value_act.full = 0;
 878:lvgl/src/lv_core/lv_style.c **** 
 879:lvgl/src/lv_core/lv_style.c ****     int16_t ci;
 880:lvgl/src/lv_core/lv_style.c ****     for(ci = 0; ci < list->style_cnt; ci++) {
ARM GAS  D:\Temp\cceOI0TF.s 			page 26


 881:lvgl/src/lv_core/lv_style.c ****         lv_style_t * _class = lv_style_list_get_style(list, ci);
 882:lvgl/src/lv_core/lv_style.c ****         int16_t weight_act = _lv_style_get_color(_class, prop, &value_act);
 883:lvgl/src/lv_core/lv_style.c ****         /*On perfect match return the value immediately*/
 884:lvgl/src/lv_core/lv_style.c ****         if(weight_act == weight_goal) {
 885:lvgl/src/lv_core/lv_style.c ****             *res = value_act;
 886:lvgl/src/lv_core/lv_style.c ****             return LV_RES_OK;
 887:lvgl/src/lv_core/lv_style.c ****         }
 888:lvgl/src/lv_core/lv_style.c ****         else if(list->has_trans && weight_act >= 0 && ci == 0 && !list->skip_trans) {
 889:lvgl/src/lv_core/lv_style.c ****             *res = value_act;
 890:lvgl/src/lv_core/lv_style.c ****             return LV_RES_OK;
 891:lvgl/src/lv_core/lv_style.c ****         }
 892:lvgl/src/lv_core/lv_style.c ****         /*If the found ID is better the current candidate then use it*/
 893:lvgl/src/lv_core/lv_style.c ****         else if(weight_act > weight) {
 894:lvgl/src/lv_core/lv_style.c ****             weight =  weight_act;
 895:lvgl/src/lv_core/lv_style.c ****             *res = value_act;
 896:lvgl/src/lv_core/lv_style.c ****         }
 897:lvgl/src/lv_core/lv_style.c ****     }
 898:lvgl/src/lv_core/lv_style.c **** 
 899:lvgl/src/lv_core/lv_style.c ****     if(weight >= 0)  return LV_RES_OK;
 900:lvgl/src/lv_core/lv_style.c ****     else return LV_RES_INV;
 901:lvgl/src/lv_core/lv_style.c **** }
 902:lvgl/src/lv_core/lv_style.c **** 
 903:lvgl/src/lv_core/lv_style.c **** /**
 904:lvgl/src/lv_core/lv_style.c ****  * Get an opacity typed property from a style list.
 905:lvgl/src/lv_core/lv_style.c ****  * It will return the property which match best with given state.
 906:lvgl/src/lv_core/lv_style.c ****  * @param list pointer to a style list from where the property should be get
 907:lvgl/src/lv_core/lv_style.c ****  * @param prop a style property ORed with a state.
 908:lvgl/src/lv_core/lv_style.c ****  * E.g. `LV_STYLE_BORDER_OPA| (LV_STATE_PRESSED << LV_STYLE_STATE_POS)`
 909:lvgl/src/lv_core/lv_style.c ****  * @param res pointer to a buffer to store the result
 910:lvgl/src/lv_core/lv_style.c ****  * @return LV_RES_OK: there was a matching property in the list
 911:lvgl/src/lv_core/lv_style.c ****  *         LV_RES_INV: there was NO matching property in the list
 912:lvgl/src/lv_core/lv_style.c ****  * @note for performance reasons it's not checked if the property really has opacity type
 913:lvgl/src/lv_core/lv_style.c ****  */
 914:lvgl/src/lv_core/lv_style.c **** lv_res_t _lv_style_list_get_opa(lv_style_list_t * list, lv_style_property_t prop, lv_opa_t * res)
 915:lvgl/src/lv_core/lv_style.c **** {
 916:lvgl/src/lv_core/lv_style.c ****     LV_ASSERT_STYLE_LIST(list);
 917:lvgl/src/lv_core/lv_style.c **** 
 918:lvgl/src/lv_core/lv_style.c ****     if(list == NULL) return LV_RES_INV;
 919:lvgl/src/lv_core/lv_style.c ****     if(list->style_list == NULL) return LV_RES_INV;
 920:lvgl/src/lv_core/lv_style.c **** 
 921:lvgl/src/lv_core/lv_style.c ****     lv_style_attr_t attr;
 922:lvgl/src/lv_core/lv_style.c ****     attr = prop >> 8;
 923:lvgl/src/lv_core/lv_style.c ****     int16_t weight_goal = attr;
 924:lvgl/src/lv_core/lv_style.c **** 
 925:lvgl/src/lv_core/lv_style.c ****     int16_t weight = -1;
 926:lvgl/src/lv_core/lv_style.c **** 
 927:lvgl/src/lv_core/lv_style.c ****     lv_opa_t value_act = LV_OPA_TRANSP;
 928:lvgl/src/lv_core/lv_style.c **** 
 929:lvgl/src/lv_core/lv_style.c ****     int16_t ci;
 930:lvgl/src/lv_core/lv_style.c ****     for(ci = 0; ci < list->style_cnt; ci++) {
 931:lvgl/src/lv_core/lv_style.c ****         lv_style_t * _class = lv_style_list_get_style(list, ci);
 932:lvgl/src/lv_core/lv_style.c ****         int16_t weight_act = _lv_style_get_opa(_class, prop, &value_act);
 933:lvgl/src/lv_core/lv_style.c ****         /*On perfect match return the value immediately*/
 934:lvgl/src/lv_core/lv_style.c ****         if(weight_act == weight_goal) {
 935:lvgl/src/lv_core/lv_style.c ****             *res = value_act;
 936:lvgl/src/lv_core/lv_style.c ****             return LV_RES_OK;
 937:lvgl/src/lv_core/lv_style.c ****         }
ARM GAS  D:\Temp\cceOI0TF.s 			page 27


 938:lvgl/src/lv_core/lv_style.c ****         else if(list->has_trans && weight_act >= 0 && ci == 0 && !list->skip_trans) {
 939:lvgl/src/lv_core/lv_style.c ****             *res = value_act;
 940:lvgl/src/lv_core/lv_style.c ****             return LV_RES_OK;
 941:lvgl/src/lv_core/lv_style.c ****         }
 942:lvgl/src/lv_core/lv_style.c ****         /*If the found ID is better the current candidate then use it*/
 943:lvgl/src/lv_core/lv_style.c ****         else if(weight_act > weight) {
 944:lvgl/src/lv_core/lv_style.c ****             weight =  weight_act;
 945:lvgl/src/lv_core/lv_style.c ****             *res = value_act;
 946:lvgl/src/lv_core/lv_style.c ****         }
 947:lvgl/src/lv_core/lv_style.c ****     }
 948:lvgl/src/lv_core/lv_style.c **** 
 949:lvgl/src/lv_core/lv_style.c ****     if(weight >= 0)  return LV_RES_OK;
 950:lvgl/src/lv_core/lv_style.c ****     else return LV_RES_INV;
 951:lvgl/src/lv_core/lv_style.c **** }
 952:lvgl/src/lv_core/lv_style.c **** 
 953:lvgl/src/lv_core/lv_style.c **** /**
 954:lvgl/src/lv_core/lv_style.c ****  * Get a pointer typed property from a style list.
 955:lvgl/src/lv_core/lv_style.c ****  * It will return the property which match best with given state.
 956:lvgl/src/lv_core/lv_style.c ****  * @param list pointer to a style list from where the property should be get
 957:lvgl/src/lv_core/lv_style.c ****  * @param prop a style property ORed with a state.
 958:lvgl/src/lv_core/lv_style.c ****  * E.g. `LV_STYLE_TEXT_FONT | (LV_STATE_PRESSED << LV_STYLE_STATE_POS)`
 959:lvgl/src/lv_core/lv_style.c ****  * @param res pointer to a buffer to store the result
 960:lvgl/src/lv_core/lv_style.c ****  * @return LV_RES_OK: there was a matching property in the list
 961:lvgl/src/lv_core/lv_style.c ****  *         LV_RES_INV: there was NO matching property in the list
 962:lvgl/src/lv_core/lv_style.c ****  * @note for performance reasons it's not checked if the property really has pointer type
 963:lvgl/src/lv_core/lv_style.c ****  */
 964:lvgl/src/lv_core/lv_style.c **** lv_res_t _lv_style_list_get_ptr(lv_style_list_t * list, lv_style_property_t prop, const void ** res
 965:lvgl/src/lv_core/lv_style.c **** {
 966:lvgl/src/lv_core/lv_style.c ****     LV_ASSERT_STYLE_LIST(list);
 967:lvgl/src/lv_core/lv_style.c **** 
 968:lvgl/src/lv_core/lv_style.c ****     if(list == NULL) return LV_RES_INV;
 969:lvgl/src/lv_core/lv_style.c ****     if(list->style_list == NULL) return LV_RES_INV;
 970:lvgl/src/lv_core/lv_style.c **** 
 971:lvgl/src/lv_core/lv_style.c ****     lv_style_attr_t attr;
 972:lvgl/src/lv_core/lv_style.c ****     attr = prop >> 8;
 973:lvgl/src/lv_core/lv_style.c ****     int16_t weight_goal = attr;
 974:lvgl/src/lv_core/lv_style.c **** 
 975:lvgl/src/lv_core/lv_style.c ****     int16_t weight = -1;
 976:lvgl/src/lv_core/lv_style.c **** 
 977:lvgl/src/lv_core/lv_style.c ****     const void * value_act;
 978:lvgl/src/lv_core/lv_style.c **** 
 979:lvgl/src/lv_core/lv_style.c ****     int16_t ci;
 980:lvgl/src/lv_core/lv_style.c ****     for(ci = 0; ci < list->style_cnt; ci++) {
 981:lvgl/src/lv_core/lv_style.c ****         lv_style_t * _class = lv_style_list_get_style(list, ci);
 982:lvgl/src/lv_core/lv_style.c ****         int16_t weight_act = _lv_style_get_ptr(_class, prop, &value_act);
 983:lvgl/src/lv_core/lv_style.c ****         /*On perfect match return the value immediately*/
 984:lvgl/src/lv_core/lv_style.c ****         if(weight_act == weight_goal) {
 985:lvgl/src/lv_core/lv_style.c ****             *res = value_act;
 986:lvgl/src/lv_core/lv_style.c ****             return LV_RES_OK;
 987:lvgl/src/lv_core/lv_style.c ****         }
 988:lvgl/src/lv_core/lv_style.c ****         else if(list->has_trans && weight_act >= 0 && ci == 0 && !list->skip_trans) {
 989:lvgl/src/lv_core/lv_style.c ****             *res = value_act;
 990:lvgl/src/lv_core/lv_style.c ****             return LV_RES_OK;
 991:lvgl/src/lv_core/lv_style.c ****         }
 992:lvgl/src/lv_core/lv_style.c ****         /*If the found ID is better the current candidate then use it*/
 993:lvgl/src/lv_core/lv_style.c ****         else if(weight_act > weight) {
 994:lvgl/src/lv_core/lv_style.c ****             weight =  weight_act;
ARM GAS  D:\Temp\cceOI0TF.s 			page 28


 995:lvgl/src/lv_core/lv_style.c ****             *res = value_act;
 996:lvgl/src/lv_core/lv_style.c ****         }
 997:lvgl/src/lv_core/lv_style.c ****     }
 998:lvgl/src/lv_core/lv_style.c **** 
 999:lvgl/src/lv_core/lv_style.c ****     if(weight >= 0)  return LV_RES_OK;
1000:lvgl/src/lv_core/lv_style.c ****     else return LV_RES_INV;
1001:lvgl/src/lv_core/lv_style.c **** }
1002:lvgl/src/lv_core/lv_style.c **** 
1003:lvgl/src/lv_core/lv_style.c **** /**
1004:lvgl/src/lv_core/lv_style.c ****  * Check whether a style is valid (initialized correctly)
1005:lvgl/src/lv_core/lv_style.c ****  * @param style pointer to a style
1006:lvgl/src/lv_core/lv_style.c ****  * @return true: valid
1007:lvgl/src/lv_core/lv_style.c ****  */
1008:lvgl/src/lv_core/lv_style.c **** bool lv_debug_check_style(const lv_style_t * style)
1009:lvgl/src/lv_core/lv_style.c **** {
1010:lvgl/src/lv_core/lv_style.c ****     if(style == NULL) return true;  /*NULL style is still valid*/
1011:lvgl/src/lv_core/lv_style.c **** 
1012:lvgl/src/lv_core/lv_style.c **** #if LV_USE_ASSERT_STYLE
1013:lvgl/src/lv_core/lv_style.c ****     if(style->sentinel != LV_DEBUG_STYLE_SENTINEL_VALUE) {
1014:lvgl/src/lv_core/lv_style.c ****         LV_LOG_WARN("Invalid style (local variable or not initialized?)");
1015:lvgl/src/lv_core/lv_style.c ****         return false;
1016:lvgl/src/lv_core/lv_style.c ****     }
1017:lvgl/src/lv_core/lv_style.c **** #endif
1018:lvgl/src/lv_core/lv_style.c **** 
1019:lvgl/src/lv_core/lv_style.c ****     return true;
1020:lvgl/src/lv_core/lv_style.c **** }
1021:lvgl/src/lv_core/lv_style.c **** 
1022:lvgl/src/lv_core/lv_style.c **** /**
1023:lvgl/src/lv_core/lv_style.c ****  * Check whether a style list is valid (initialized correctly)
1024:lvgl/src/lv_core/lv_style.c ****  * @param style pointer to a style
1025:lvgl/src/lv_core/lv_style.c ****  * @return true: valid
1026:lvgl/src/lv_core/lv_style.c ****  */
1027:lvgl/src/lv_core/lv_style.c **** bool lv_debug_check_style_list(const lv_style_list_t * list)
1028:lvgl/src/lv_core/lv_style.c **** {
1029:lvgl/src/lv_core/lv_style.c ****     if(list == NULL) return true;  /*NULL list is still valid*/
1030:lvgl/src/lv_core/lv_style.c **** 
1031:lvgl/src/lv_core/lv_style.c **** #if LV_USE_ASSERT_STYLE
1032:lvgl/src/lv_core/lv_style.c ****     if(list->sentinel != LV_DEBUG_STYLE_LIST_SENTINEL_VALUE) {
1033:lvgl/src/lv_core/lv_style.c ****         LV_LOG_WARN("Invalid style (local variable or not initialized?)");
1034:lvgl/src/lv_core/lv_style.c ****         return false;
1035:lvgl/src/lv_core/lv_style.c ****     }
1036:lvgl/src/lv_core/lv_style.c **** #endif
1037:lvgl/src/lv_core/lv_style.c **** 
1038:lvgl/src/lv_core/lv_style.c ****     return true;
1039:lvgl/src/lv_core/lv_style.c **** }
1040:lvgl/src/lv_core/lv_style.c **** 
1041:lvgl/src/lv_core/lv_style.c **** /**********************
1042:lvgl/src/lv_core/lv_style.c ****  *   STATIC FUNCTIONS
1043:lvgl/src/lv_core/lv_style.c ****  **********************/
1044:lvgl/src/lv_core/lv_style.c **** 
1045:lvgl/src/lv_core/lv_style.c **** /**
1046:lvgl/src/lv_core/lv_style.c ****  * Get a property's index (byte index in `style->map`) from a style.
1047:lvgl/src/lv_core/lv_style.c ****  * Return best matching property's index considering the state of `prop`
1048:lvgl/src/lv_core/lv_style.c ****  * @param style pointer to a style
1049:lvgl/src/lv_core/lv_style.c ****  * @param prop a style property ORed with a state.
1050:lvgl/src/lv_core/lv_style.c ****  * E.g. `LV_STYLE_TEXT_FONT | (LV_STATE_PRESSED << LV_STYLE_STATE_POS)`
1051:lvgl/src/lv_core/lv_style.c ****  * @return
ARM GAS  D:\Temp\cceOI0TF.s 			page 29


1052:lvgl/src/lv_core/lv_style.c ****  */
1053:lvgl/src/lv_core/lv_style.c **** LV_ATTRIBUTE_FAST_MEM static inline int32_t get_property_index(const lv_style_t * style, lv_style_p
1054:lvgl/src/lv_core/lv_style.c **** {
1055:lvgl/src/lv_core/lv_style.c ****     LV_ASSERT_STYLE(style);
1056:lvgl/src/lv_core/lv_style.c **** 
1057:lvgl/src/lv_core/lv_style.c ****     if(style->map == NULL) return -1;
1058:lvgl/src/lv_core/lv_style.c **** 
1059:lvgl/src/lv_core/lv_style.c ****     uint8_t id_to_find = prop & 0xFF;
1060:lvgl/src/lv_core/lv_style.c ****     lv_style_attr_t attr;
1061:lvgl/src/lv_core/lv_style.c ****     attr = (prop >> 8) & 0xFF;
1062:lvgl/src/lv_core/lv_style.c **** 
1063:lvgl/src/lv_core/lv_style.c ****     int16_t weight = -1;
1064:lvgl/src/lv_core/lv_style.c ****     int16_t id_guess = -1;
1065:lvgl/src/lv_core/lv_style.c **** 
1066:lvgl/src/lv_core/lv_style.c ****     size_t i = 0;
1067:lvgl/src/lv_core/lv_style.c **** 
1068:lvgl/src/lv_core/lv_style.c ****     uint8_t prop_id;
1069:lvgl/src/lv_core/lv_style.c ****     while((prop_id = get_style_prop_id(style, i)) != _LV_STYLE_CLOSING_PROP) {
1070:lvgl/src/lv_core/lv_style.c ****         if(prop_id == id_to_find) {
1071:lvgl/src/lv_core/lv_style.c ****             lv_style_attr_t attr_i;
1072:lvgl/src/lv_core/lv_style.c ****             attr_i = get_style_prop_attr(style, i);
1073:lvgl/src/lv_core/lv_style.c **** 
1074:lvgl/src/lv_core/lv_style.c ****             /*If the state perfectly matches return this property*/
1075:lvgl/src/lv_core/lv_style.c ****             if(LV_STYLE_ATTR_GET_STATE(attr_i) == LV_STYLE_ATTR_GET_STATE(attr)) {
1076:lvgl/src/lv_core/lv_style.c ****                 return i;
1077:lvgl/src/lv_core/lv_style.c ****             }
1078:lvgl/src/lv_core/lv_style.c ****             /* Be sure the property not specifies other state than the requested.
1079:lvgl/src/lv_core/lv_style.c ****              * E.g. For HOVER+PRESS, HOVER only is OK, but HOVER+FOCUS not*/
1080:lvgl/src/lv_core/lv_style.c ****             else if((LV_STYLE_ATTR_GET_STATE(attr_i) & (~LV_STYLE_ATTR_GET_STATE(attr))) == 0) {
1081:lvgl/src/lv_core/lv_style.c ****                 /* Use this property if it describes better the requested state than the current ca
1082:lvgl/src/lv_core/lv_style.c ****                  * E.g. for HOVER+FOCUS+PRESS prefer HOVER+FOCUS over FOCUS*/
1083:lvgl/src/lv_core/lv_style.c ****                 if(LV_STYLE_ATTR_GET_STATE(attr_i) > weight) {
1084:lvgl/src/lv_core/lv_style.c ****                     weight = LV_STYLE_ATTR_GET_STATE(attr_i);
1085:lvgl/src/lv_core/lv_style.c ****                     id_guess = i;
1086:lvgl/src/lv_core/lv_style.c ****                 }
1087:lvgl/src/lv_core/lv_style.c ****             }
1088:lvgl/src/lv_core/lv_style.c ****         }
1089:lvgl/src/lv_core/lv_style.c **** 
1090:lvgl/src/lv_core/lv_style.c ****         i = get_next_prop_index(prop_id, i);
1091:lvgl/src/lv_core/lv_style.c ****     }
1092:lvgl/src/lv_core/lv_style.c **** 
1093:lvgl/src/lv_core/lv_style.c ****     return id_guess;
1094:lvgl/src/lv_core/lv_style.c **** }
1095:lvgl/src/lv_core/lv_style.c **** 
1096:lvgl/src/lv_core/lv_style.c **** /**
1097:lvgl/src/lv_core/lv_style.c ****  * Get he local style from a style list. Allocate it if not exists yet.
1098:lvgl/src/lv_core/lv_style.c ****  * @param list pointer to a style list
1099:lvgl/src/lv_core/lv_style.c ****  * @return pointer to the local style
1100:lvgl/src/lv_core/lv_style.c ****  */
1101:lvgl/src/lv_core/lv_style.c **** static lv_style_t * get_alloc_local_style(lv_style_list_t * list)
1102:lvgl/src/lv_core/lv_style.c **** {
 476              		.loc 1 1102 1 is_stmt 1 view -0
 477              		.cfi_startproc
 478              		@ args = 0, pretend = 0, frame = 0
 479              		@ frame_needed = 0, uses_anonymous_args = 0
 480              		.loc 1 1102 1 is_stmt 0 view .LVU140
 481 0000 38B5     		push	{r3, r4, r5, lr}
ARM GAS  D:\Temp\cceOI0TF.s 			page 30


 482              	.LCFI5:
 483              		.cfi_def_cfa_offset 16
 484              		.cfi_offset 3, -16
 485              		.cfi_offset 4, -12
 486              		.cfi_offset 5, -8
 487              		.cfi_offset 14, -4
1103:lvgl/src/lv_core/lv_style.c ****     LV_ASSERT_STYLE_LIST(list);
 488              		.loc 1 1103 31 is_stmt 1 view .LVU141
1104:lvgl/src/lv_core/lv_style.c **** 
1105:lvgl/src/lv_core/lv_style.c ****     if(list->has_local) return lv_style_list_get_style(list, list->has_trans ? 1 : 0);
 489              		.loc 1 1105 5 view .LVU142
 490              		.loc 1 1105 8 is_stmt 0 view .LVU143
 491 0002 0279     		ldrb	r2, [r0, #4]	@ zero_extendqisi2
 492              		.loc 1 1105 7 view .LVU144
 493 0004 12F0400F 		tst	r2, #64
 494 0008 19D0     		beq	.L43
 495              		.loc 1 1105 25 is_stmt 1 discriminator 1 view .LVU145
 496              		.loc 1 1105 82 is_stmt 0 discriminator 1 view .LVU146
 497 000a D309     		lsrs	r3, r2, #7
 498              	.LVL50:
 499              	.LBB141:
 500              	.LBI141:
 501              		.file 2 "lvgl/src/lv_core/lv_style.h"
   1:lvgl/src/lv_core/lv_style.h **** /**
   2:lvgl/src/lv_core/lv_style.h ****  * @file lv_style.h
   3:lvgl/src/lv_core/lv_style.h ****  *
   4:lvgl/src/lv_core/lv_style.h ****  */
   5:lvgl/src/lv_core/lv_style.h **** 
   6:lvgl/src/lv_core/lv_style.h **** #ifndef LV_STYLE_H
   7:lvgl/src/lv_core/lv_style.h **** #define LV_STYLE_H
   8:lvgl/src/lv_core/lv_style.h **** 
   9:lvgl/src/lv_core/lv_style.h **** #ifdef __cplusplus
  10:lvgl/src/lv_core/lv_style.h **** extern "C" {
  11:lvgl/src/lv_core/lv_style.h **** #endif
  12:lvgl/src/lv_core/lv_style.h **** 
  13:lvgl/src/lv_core/lv_style.h **** /*********************
  14:lvgl/src/lv_core/lv_style.h ****  *      INCLUDES
  15:lvgl/src/lv_core/lv_style.h ****  *********************/
  16:lvgl/src/lv_core/lv_style.h **** #include <stdbool.h>
  17:lvgl/src/lv_core/lv_style.h **** #include "../lv_font/lv_font.h"
  18:lvgl/src/lv_core/lv_style.h **** #include "../lv_misc/lv_color.h"
  19:lvgl/src/lv_core/lv_style.h **** #include "../lv_misc/lv_area.h"
  20:lvgl/src/lv_core/lv_style.h **** #include "../lv_misc/lv_anim.h"
  21:lvgl/src/lv_core/lv_style.h **** #include "../lv_misc/lv_types.h"
  22:lvgl/src/lv_core/lv_style.h **** #include "../lv_misc/lv_debug.h"
  23:lvgl/src/lv_core/lv_style.h **** #include "../lv_draw/lv_draw_blend.h"
  24:lvgl/src/lv_core/lv_style.h **** 
  25:lvgl/src/lv_core/lv_style.h **** /*********************
  26:lvgl/src/lv_core/lv_style.h ****  *      DEFINES
  27:lvgl/src/lv_core/lv_style.h ****  *********************/
  28:lvgl/src/lv_core/lv_style.h **** 
  29:lvgl/src/lv_core/lv_style.h **** #define LV_RADIUS_CIRCLE (0x7FFF) /**< A very big radius to always draw as circle*/
  30:lvgl/src/lv_core/lv_style.h **** LV_EXPORT_CONST_INT(LV_RADIUS_CIRCLE);
  31:lvgl/src/lv_core/lv_style.h **** 
  32:lvgl/src/lv_core/lv_style.h **** #define LV_DEBUG_STYLE_SENTINEL_VALUE      0x2288AAEE
  33:lvgl/src/lv_core/lv_style.h **** #define LV_DEBUG_STYLE_LIST_SENTINEL_VALUE 0x9977CCBB
  34:lvgl/src/lv_core/lv_style.h **** 
ARM GAS  D:\Temp\cceOI0TF.s 			page 31


  35:lvgl/src/lv_core/lv_style.h **** #define LV_STYLE_PROP_INIT(name, group, id, attr)  name = (((group << 4) + id) | ((attr) << 8))
  36:lvgl/src/lv_core/lv_style.h **** 
  37:lvgl/src/lv_core/lv_style.h **** #define LV_STYLE_ID_MASK 0x00FF
  38:lvgl/src/lv_core/lv_style.h **** 
  39:lvgl/src/lv_core/lv_style.h **** #define LV_STYLE_ATTR_NONE          0
  40:lvgl/src/lv_core/lv_style.h **** #define LV_STYLE_ATTR_INHERIT       (1 << 7)
  41:lvgl/src/lv_core/lv_style.h **** 
  42:lvgl/src/lv_core/lv_style.h **** #define _LV_STYLE_CLOSING_PROP     0xFF
  43:lvgl/src/lv_core/lv_style.h **** 
  44:lvgl/src/lv_core/lv_style.h **** #define LV_STYLE_TRANS_NUM_MAX      6
  45:lvgl/src/lv_core/lv_style.h **** 
  46:lvgl/src/lv_core/lv_style.h **** #define LV_STYLE_PROP_ALL 0xFF
  47:lvgl/src/lv_core/lv_style.h **** 
  48:lvgl/src/lv_core/lv_style.h **** /**********************
  49:lvgl/src/lv_core/lv_style.h ****  *      TYPEDEFS
  50:lvgl/src/lv_core/lv_style.h ****  **********************/
  51:lvgl/src/lv_core/lv_style.h **** 
  52:lvgl/src/lv_core/lv_style.h **** /*Border types (Use 'OR'ed values)*/
  53:lvgl/src/lv_core/lv_style.h **** enum {
  54:lvgl/src/lv_core/lv_style.h ****     LV_BORDER_SIDE_NONE     = 0x00,
  55:lvgl/src/lv_core/lv_style.h ****     LV_BORDER_SIDE_BOTTOM   = 0x01,
  56:lvgl/src/lv_core/lv_style.h ****     LV_BORDER_SIDE_TOP      = 0x02,
  57:lvgl/src/lv_core/lv_style.h ****     LV_BORDER_SIDE_LEFT     = 0x04,
  58:lvgl/src/lv_core/lv_style.h ****     LV_BORDER_SIDE_RIGHT    = 0x08,
  59:lvgl/src/lv_core/lv_style.h ****     LV_BORDER_SIDE_FULL     = 0x0F,
  60:lvgl/src/lv_core/lv_style.h ****     LV_BORDER_SIDE_INTERNAL = 0x10, /**< FOR matrix-like objects (e.g. Button matrix)*/
  61:lvgl/src/lv_core/lv_style.h ****     _LV_BORDER_SIDE_LAST
  62:lvgl/src/lv_core/lv_style.h **** };
  63:lvgl/src/lv_core/lv_style.h **** typedef uint8_t lv_border_side_t;
  64:lvgl/src/lv_core/lv_style.h **** 
  65:lvgl/src/lv_core/lv_style.h **** enum {
  66:lvgl/src/lv_core/lv_style.h ****     LV_GRAD_DIR_NONE,
  67:lvgl/src/lv_core/lv_style.h ****     LV_GRAD_DIR_VER,
  68:lvgl/src/lv_core/lv_style.h ****     LV_GRAD_DIR_HOR,
  69:lvgl/src/lv_core/lv_style.h ****     _LV_GRAD_DIR_LAST
  70:lvgl/src/lv_core/lv_style.h **** };
  71:lvgl/src/lv_core/lv_style.h **** 
  72:lvgl/src/lv_core/lv_style.h **** typedef uint8_t lv_grad_dir_t;
  73:lvgl/src/lv_core/lv_style.h **** 
  74:lvgl/src/lv_core/lv_style.h **** /*Text decorations (Use 'OR'ed values)*/
  75:lvgl/src/lv_core/lv_style.h **** enum {
  76:lvgl/src/lv_core/lv_style.h ****     LV_TEXT_DECOR_NONE          = 0x00,
  77:lvgl/src/lv_core/lv_style.h ****     LV_TEXT_DECOR_UNDERLINE     = 0x01,
  78:lvgl/src/lv_core/lv_style.h ****     LV_TEXT_DECOR_STRIKETHROUGH = 0x02,
  79:lvgl/src/lv_core/lv_style.h ****     _LV_TEXT_DECOR_LAST
  80:lvgl/src/lv_core/lv_style.h **** };
  81:lvgl/src/lv_core/lv_style.h **** 
  82:lvgl/src/lv_core/lv_style.h **** typedef uint8_t lv_text_decor_t;
  83:lvgl/src/lv_core/lv_style.h **** 
  84:lvgl/src/lv_core/lv_style.h **** typedef uint8_t lv_style_attr_t;
  85:lvgl/src/lv_core/lv_style.h **** 
  86:lvgl/src/lv_core/lv_style.h **** #define LV_STYLE_ATTR_GET_INHERIT(f) ((f)&0x80)
  87:lvgl/src/lv_core/lv_style.h **** #define LV_STYLE_ATTR_GET_STATE(f) ((f)&0x7F)
  88:lvgl/src/lv_core/lv_style.h **** 
  89:lvgl/src/lv_core/lv_style.h **** #define LV_STYLE_ID_VALUE 0x0   /*max 9 pcs*/
  90:lvgl/src/lv_core/lv_style.h **** #define LV_STYLE_ID_COLOR 0x9   /*max 3 pcs*/
  91:lvgl/src/lv_core/lv_style.h **** #define LV_STYLE_ID_OPA   0xC   /*max 2 pcs*/
ARM GAS  D:\Temp\cceOI0TF.s 			page 32


  92:lvgl/src/lv_core/lv_style.h **** #define LV_STYLE_ID_PTR   0xE   /*max 2 pcs*/
  93:lvgl/src/lv_core/lv_style.h **** 
  94:lvgl/src/lv_core/lv_style.h **** enum {
  95:lvgl/src/lv_core/lv_style.h ****     /*Skip 0th property*/
  96:lvgl/src/lv_core/lv_style.h ****     LV_STYLE_PROP_INIT(LV_STYLE_RADIUS,             0x0, LV_STYLE_ID_VALUE + 1, LV_STYLE_ATTR_NONE)
  97:lvgl/src/lv_core/lv_style.h ****     LV_STYLE_PROP_INIT(LV_STYLE_CLIP_CORNER,        0x0, LV_STYLE_ID_VALUE + 2, LV_STYLE_ATTR_NONE)
  98:lvgl/src/lv_core/lv_style.h ****     LV_STYLE_PROP_INIT(LV_STYLE_SIZE,               0x0, LV_STYLE_ID_VALUE + 3, LV_STYLE_ATTR_NONE)
  99:lvgl/src/lv_core/lv_style.h ****     LV_STYLE_PROP_INIT(LV_STYLE_TRANSFORM_WIDTH,    0x0, LV_STYLE_ID_VALUE + 4, LV_STYLE_ATTR_NONE)
 100:lvgl/src/lv_core/lv_style.h ****     LV_STYLE_PROP_INIT(LV_STYLE_TRANSFORM_HEIGHT,   0x0, LV_STYLE_ID_VALUE + 5, LV_STYLE_ATTR_NONE)
 101:lvgl/src/lv_core/lv_style.h ****     LV_STYLE_PROP_INIT(LV_STYLE_TRANSFORM_ANGLE,    0x0, LV_STYLE_ID_VALUE + 6, LV_STYLE_ATTR_NONE)
 102:lvgl/src/lv_core/lv_style.h ****     LV_STYLE_PROP_INIT(LV_STYLE_TRANSFORM_ZOOM,     0x0, LV_STYLE_ID_VALUE + 7, LV_STYLE_ATTR_NONE)
 103:lvgl/src/lv_core/lv_style.h ****     LV_STYLE_PROP_INIT(LV_STYLE_OPA_SCALE,          0x0, LV_STYLE_ID_OPA + 0,   LV_STYLE_ATTR_INHER
 104:lvgl/src/lv_core/lv_style.h **** 
 105:lvgl/src/lv_core/lv_style.h ****     LV_STYLE_PROP_INIT(LV_STYLE_PAD_TOP,            0x1, LV_STYLE_ID_VALUE + 0, LV_STYLE_ATTR_NONE)
 106:lvgl/src/lv_core/lv_style.h ****     LV_STYLE_PROP_INIT(LV_STYLE_PAD_BOTTOM,         0x1, LV_STYLE_ID_VALUE + 1, LV_STYLE_ATTR_NONE)
 107:lvgl/src/lv_core/lv_style.h ****     LV_STYLE_PROP_INIT(LV_STYLE_PAD_LEFT,           0x1, LV_STYLE_ID_VALUE + 2, LV_STYLE_ATTR_NONE)
 108:lvgl/src/lv_core/lv_style.h ****     LV_STYLE_PROP_INIT(LV_STYLE_PAD_RIGHT,          0x1, LV_STYLE_ID_VALUE + 3, LV_STYLE_ATTR_NONE)
 109:lvgl/src/lv_core/lv_style.h ****     LV_STYLE_PROP_INIT(LV_STYLE_PAD_INNER,          0x1, LV_STYLE_ID_VALUE + 4, LV_STYLE_ATTR_NONE)
 110:lvgl/src/lv_core/lv_style.h ****     LV_STYLE_PROP_INIT(LV_STYLE_MARGIN_TOP,         0x1, LV_STYLE_ID_VALUE + 5, LV_STYLE_ATTR_NONE)
 111:lvgl/src/lv_core/lv_style.h ****     LV_STYLE_PROP_INIT(LV_STYLE_MARGIN_BOTTOM,      0x1, LV_STYLE_ID_VALUE + 6, LV_STYLE_ATTR_NONE)
 112:lvgl/src/lv_core/lv_style.h ****     LV_STYLE_PROP_INIT(LV_STYLE_MARGIN_LEFT,        0x1, LV_STYLE_ID_VALUE + 7, LV_STYLE_ATTR_NONE)
 113:lvgl/src/lv_core/lv_style.h ****     LV_STYLE_PROP_INIT(LV_STYLE_MARGIN_RIGHT,       0x1, LV_STYLE_ID_VALUE + 8, LV_STYLE_ATTR_NONE)
 114:lvgl/src/lv_core/lv_style.h **** 
 115:lvgl/src/lv_core/lv_style.h ****     LV_STYLE_PROP_INIT(LV_STYLE_BG_BLEND_MODE,      0x2, LV_STYLE_ID_VALUE + 0, LV_STYLE_ATTR_NONE)
 116:lvgl/src/lv_core/lv_style.h ****     LV_STYLE_PROP_INIT(LV_STYLE_BG_MAIN_STOP,       0x2, LV_STYLE_ID_VALUE + 1, LV_STYLE_ATTR_NONE)
 117:lvgl/src/lv_core/lv_style.h ****     LV_STYLE_PROP_INIT(LV_STYLE_BG_GRAD_STOP,       0x2, LV_STYLE_ID_VALUE + 2, LV_STYLE_ATTR_NONE)
 118:lvgl/src/lv_core/lv_style.h ****     LV_STYLE_PROP_INIT(LV_STYLE_BG_GRAD_DIR,        0x2, LV_STYLE_ID_VALUE + 3, LV_STYLE_ATTR_NONE)
 119:lvgl/src/lv_core/lv_style.h ****     LV_STYLE_PROP_INIT(LV_STYLE_BG_COLOR,           0x2, LV_STYLE_ID_COLOR + 0, LV_STYLE_ATTR_NONE)
 120:lvgl/src/lv_core/lv_style.h ****     LV_STYLE_PROP_INIT(LV_STYLE_BG_GRAD_COLOR,      0x2, LV_STYLE_ID_COLOR + 1, LV_STYLE_ATTR_NONE)
 121:lvgl/src/lv_core/lv_style.h ****     LV_STYLE_PROP_INIT(LV_STYLE_BG_OPA,             0x2, LV_STYLE_ID_OPA   + 0, LV_STYLE_ATTR_NONE)
 122:lvgl/src/lv_core/lv_style.h **** 
 123:lvgl/src/lv_core/lv_style.h ****     LV_STYLE_PROP_INIT(LV_STYLE_BORDER_WIDTH,       0x3, LV_STYLE_ID_VALUE + 0, LV_STYLE_ATTR_NONE)
 124:lvgl/src/lv_core/lv_style.h ****     LV_STYLE_PROP_INIT(LV_STYLE_BORDER_SIDE,        0x3, LV_STYLE_ID_VALUE + 1, LV_STYLE_ATTR_NONE)
 125:lvgl/src/lv_core/lv_style.h ****     LV_STYLE_PROP_INIT(LV_STYLE_BORDER_BLEND_MODE,  0x3, LV_STYLE_ID_VALUE + 2, LV_STYLE_ATTR_NONE)
 126:lvgl/src/lv_core/lv_style.h ****     LV_STYLE_PROP_INIT(LV_STYLE_BORDER_POST,        0x3, LV_STYLE_ID_VALUE + 3, LV_STYLE_ATTR_NONE)
 127:lvgl/src/lv_core/lv_style.h ****     LV_STYLE_PROP_INIT(LV_STYLE_BORDER_COLOR,       0x3, LV_STYLE_ID_COLOR + 0, LV_STYLE_ATTR_NONE)
 128:lvgl/src/lv_core/lv_style.h ****     LV_STYLE_PROP_INIT(LV_STYLE_BORDER_OPA,         0x3, LV_STYLE_ID_OPA   + 0, LV_STYLE_ATTR_NONE)
 129:lvgl/src/lv_core/lv_style.h **** 
 130:lvgl/src/lv_core/lv_style.h ****     LV_STYLE_PROP_INIT(LV_STYLE_OUTLINE_WIDTH,       0x4, LV_STYLE_ID_VALUE + 0, LV_STYLE_ATTR_NONE
 131:lvgl/src/lv_core/lv_style.h ****     LV_STYLE_PROP_INIT(LV_STYLE_OUTLINE_PAD,         0x4, LV_STYLE_ID_VALUE + 1, LV_STYLE_ATTR_NONE
 132:lvgl/src/lv_core/lv_style.h ****     LV_STYLE_PROP_INIT(LV_STYLE_OUTLINE_BLEND_MODE,  0x4, LV_STYLE_ID_VALUE + 2, LV_STYLE_ATTR_NONE
 133:lvgl/src/lv_core/lv_style.h ****     LV_STYLE_PROP_INIT(LV_STYLE_OUTLINE_COLOR,       0x4, LV_STYLE_ID_COLOR + 0, LV_STYLE_ATTR_NONE
 134:lvgl/src/lv_core/lv_style.h ****     LV_STYLE_PROP_INIT(LV_STYLE_OUTLINE_OPA,         0x4, LV_STYLE_ID_OPA   + 0, LV_STYLE_ATTR_NONE
 135:lvgl/src/lv_core/lv_style.h **** 
 136:lvgl/src/lv_core/lv_style.h ****     LV_STYLE_PROP_INIT(LV_STYLE_SHADOW_WIDTH,       0x5, LV_STYLE_ID_VALUE + 0, LV_STYLE_ATTR_NONE)
 137:lvgl/src/lv_core/lv_style.h ****     LV_STYLE_PROP_INIT(LV_STYLE_SHADOW_OFS_X,       0x5, LV_STYLE_ID_VALUE + 1, LV_STYLE_ATTR_NONE)
 138:lvgl/src/lv_core/lv_style.h ****     LV_STYLE_PROP_INIT(LV_STYLE_SHADOW_OFS_Y,       0x5, LV_STYLE_ID_VALUE + 2, LV_STYLE_ATTR_NONE)
 139:lvgl/src/lv_core/lv_style.h ****     LV_STYLE_PROP_INIT(LV_STYLE_SHADOW_SPREAD,      0x5, LV_STYLE_ID_VALUE + 3, LV_STYLE_ATTR_NONE)
 140:lvgl/src/lv_core/lv_style.h ****     LV_STYLE_PROP_INIT(LV_STYLE_SHADOW_BLEND_MODE,  0x5, LV_STYLE_ID_VALUE + 4, LV_STYLE_ATTR_NONE)
 141:lvgl/src/lv_core/lv_style.h ****     LV_STYLE_PROP_INIT(LV_STYLE_SHADOW_COLOR,       0x5, LV_STYLE_ID_COLOR + 0, LV_STYLE_ATTR_NONE)
 142:lvgl/src/lv_core/lv_style.h ****     LV_STYLE_PROP_INIT(LV_STYLE_SHADOW_OPA,         0x5, LV_STYLE_ID_OPA   + 0, LV_STYLE_ATTR_NONE)
 143:lvgl/src/lv_core/lv_style.h **** 
 144:lvgl/src/lv_core/lv_style.h ****     LV_STYLE_PROP_INIT(LV_STYLE_PATTERN_BLEND_MODE,    0x6, LV_STYLE_ID_VALUE + 0, LV_STYLE_ATTR_NO
 145:lvgl/src/lv_core/lv_style.h ****     LV_STYLE_PROP_INIT(LV_STYLE_PATTERN_REPEAT,        0x6, LV_STYLE_ID_VALUE + 1, LV_STYLE_ATTR_NO
 146:lvgl/src/lv_core/lv_style.h ****     LV_STYLE_PROP_INIT(LV_STYLE_PATTERN_RECOLOR,       0x6, LV_STYLE_ID_COLOR + 0, LV_STYLE_ATTR_NO
 147:lvgl/src/lv_core/lv_style.h ****     LV_STYLE_PROP_INIT(LV_STYLE_PATTERN_OPA,           0x6, LV_STYLE_ID_OPA   + 0, LV_STYLE_ATTR_NO
 148:lvgl/src/lv_core/lv_style.h ****     LV_STYLE_PROP_INIT(LV_STYLE_PATTERN_RECOLOR_OPA,   0x6, LV_STYLE_ID_OPA   + 1, LV_STYLE_ATTR_NO
ARM GAS  D:\Temp\cceOI0TF.s 			page 33


 149:lvgl/src/lv_core/lv_style.h ****     LV_STYLE_PROP_INIT(LV_STYLE_PATTERN_IMAGE,         0x6, LV_STYLE_ID_PTR   + 0, LV_STYLE_ATTR_NO
 150:lvgl/src/lv_core/lv_style.h **** 
 151:lvgl/src/lv_core/lv_style.h ****     LV_STYLE_PROP_INIT(LV_STYLE_VALUE_LETTER_SPACE,  0x7, LV_STYLE_ID_VALUE + 0, LV_STYLE_ATTR_NONE
 152:lvgl/src/lv_core/lv_style.h ****     LV_STYLE_PROP_INIT(LV_STYLE_VALUE_LINE_SPACE,    0x7, LV_STYLE_ID_VALUE + 1, LV_STYLE_ATTR_NONE
 153:lvgl/src/lv_core/lv_style.h ****     LV_STYLE_PROP_INIT(LV_STYLE_VALUE_BLEND_MODE,    0x7, LV_STYLE_ID_VALUE + 2, LV_STYLE_ATTR_NONE
 154:lvgl/src/lv_core/lv_style.h ****     LV_STYLE_PROP_INIT(LV_STYLE_VALUE_OFS_X,         0x7, LV_STYLE_ID_VALUE + 3, LV_STYLE_ATTR_NONE
 155:lvgl/src/lv_core/lv_style.h ****     LV_STYLE_PROP_INIT(LV_STYLE_VALUE_OFS_Y,         0x7, LV_STYLE_ID_VALUE + 4, LV_STYLE_ATTR_NONE
 156:lvgl/src/lv_core/lv_style.h ****     LV_STYLE_PROP_INIT(LV_STYLE_VALUE_ALIGN,         0x7, LV_STYLE_ID_VALUE + 5, LV_STYLE_ATTR_NONE
 157:lvgl/src/lv_core/lv_style.h ****     LV_STYLE_PROP_INIT(LV_STYLE_VALUE_COLOR,         0x7, LV_STYLE_ID_COLOR + 0, LV_STYLE_ATTR_NONE
 158:lvgl/src/lv_core/lv_style.h ****     LV_STYLE_PROP_INIT(LV_STYLE_VALUE_OPA,           0x7, LV_STYLE_ID_OPA   + 0, LV_STYLE_ATTR_NONE
 159:lvgl/src/lv_core/lv_style.h ****     LV_STYLE_PROP_INIT(LV_STYLE_VALUE_FONT,          0x7, LV_STYLE_ID_PTR   + 0, LV_STYLE_ATTR_NONE
 160:lvgl/src/lv_core/lv_style.h ****     LV_STYLE_PROP_INIT(LV_STYLE_VALUE_STR,           0x7, LV_STYLE_ID_PTR   + 1, LV_STYLE_ATTR_NONE
 161:lvgl/src/lv_core/lv_style.h **** 
 162:lvgl/src/lv_core/lv_style.h ****     LV_STYLE_PROP_INIT(LV_STYLE_TEXT_LETTER_SPACE,   0x8, LV_STYLE_ID_VALUE + 0, LV_STYLE_ATTR_INHE
 163:lvgl/src/lv_core/lv_style.h ****     LV_STYLE_PROP_INIT(LV_STYLE_TEXT_LINE_SPACE,     0x8, LV_STYLE_ID_VALUE + 1, LV_STYLE_ATTR_INHE
 164:lvgl/src/lv_core/lv_style.h ****     LV_STYLE_PROP_INIT(LV_STYLE_TEXT_DECOR,          0x8, LV_STYLE_ID_VALUE + 2, LV_STYLE_ATTR_INHE
 165:lvgl/src/lv_core/lv_style.h ****     LV_STYLE_PROP_INIT(LV_STYLE_TEXT_BLEND_MODE,     0x8, LV_STYLE_ID_VALUE + 3, LV_STYLE_ATTR_INHE
 166:lvgl/src/lv_core/lv_style.h ****     LV_STYLE_PROP_INIT(LV_STYLE_TEXT_COLOR,          0x8, LV_STYLE_ID_COLOR + 0, LV_STYLE_ATTR_INHE
 167:lvgl/src/lv_core/lv_style.h ****     LV_STYLE_PROP_INIT(LV_STYLE_TEXT_SEL_COLOR,      0x8, LV_STYLE_ID_COLOR + 1, LV_STYLE_ATTR_INHE
 168:lvgl/src/lv_core/lv_style.h ****     LV_STYLE_PROP_INIT(LV_STYLE_TEXT_SEL_BG_COLOR,   0x8, LV_STYLE_ID_COLOR + 2, LV_STYLE_ATTR_INHE
 169:lvgl/src/lv_core/lv_style.h ****     LV_STYLE_PROP_INIT(LV_STYLE_TEXT_OPA,            0x8, LV_STYLE_ID_OPA   + 0, LV_STYLE_ATTR_INHE
 170:lvgl/src/lv_core/lv_style.h ****     LV_STYLE_PROP_INIT(LV_STYLE_TEXT_FONT,           0x8, LV_STYLE_ID_PTR   + 0, LV_STYLE_ATTR_INHE
 171:lvgl/src/lv_core/lv_style.h **** 
 172:lvgl/src/lv_core/lv_style.h ****     LV_STYLE_PROP_INIT(LV_STYLE_LINE_WIDTH,         0x9, LV_STYLE_ID_VALUE + 0, LV_STYLE_ATTR_NONE)
 173:lvgl/src/lv_core/lv_style.h ****     LV_STYLE_PROP_INIT(LV_STYLE_LINE_BLEND_MODE,    0x9, LV_STYLE_ID_VALUE + 1, LV_STYLE_ATTR_NONE)
 174:lvgl/src/lv_core/lv_style.h ****     LV_STYLE_PROP_INIT(LV_STYLE_LINE_DASH_WIDTH,    0x9, LV_STYLE_ID_VALUE + 2, LV_STYLE_ATTR_NONE)
 175:lvgl/src/lv_core/lv_style.h ****     LV_STYLE_PROP_INIT(LV_STYLE_LINE_DASH_GAP,      0x9, LV_STYLE_ID_VALUE + 3, LV_STYLE_ATTR_NONE)
 176:lvgl/src/lv_core/lv_style.h ****     LV_STYLE_PROP_INIT(LV_STYLE_LINE_ROUNDED,       0x9, LV_STYLE_ID_VALUE + 4, LV_STYLE_ATTR_NONE)
 177:lvgl/src/lv_core/lv_style.h ****     LV_STYLE_PROP_INIT(LV_STYLE_LINE_COLOR,         0x9, LV_STYLE_ID_COLOR + 0, LV_STYLE_ATTR_NONE)
 178:lvgl/src/lv_core/lv_style.h ****     LV_STYLE_PROP_INIT(LV_STYLE_LINE_OPA,           0x9, LV_STYLE_ID_OPA   + 0, LV_STYLE_ATTR_NONE)
 179:lvgl/src/lv_core/lv_style.h **** 
 180:lvgl/src/lv_core/lv_style.h ****     LV_STYLE_PROP_INIT(LV_STYLE_IMAGE_BLEND_MODE,   0xA, LV_STYLE_ID_VALUE + 0, LV_STYLE_ATTR_INHER
 181:lvgl/src/lv_core/lv_style.h ****     LV_STYLE_PROP_INIT(LV_STYLE_IMAGE_RECOLOR,      0xA, LV_STYLE_ID_COLOR + 0, LV_STYLE_ATTR_INHER
 182:lvgl/src/lv_core/lv_style.h ****     LV_STYLE_PROP_INIT(LV_STYLE_IMAGE_OPA,          0xA, LV_STYLE_ID_OPA   + 0, LV_STYLE_ATTR_INHER
 183:lvgl/src/lv_core/lv_style.h ****     LV_STYLE_PROP_INIT(LV_STYLE_IMAGE_RECOLOR_OPA,  0xA, LV_STYLE_ID_OPA   + 1, LV_STYLE_ATTR_INHER
 184:lvgl/src/lv_core/lv_style.h **** 
 185:lvgl/src/lv_core/lv_style.h ****     LV_STYLE_PROP_INIT(LV_STYLE_TRANSITION_TIME,    0xB, LV_STYLE_ID_VALUE + 0, LV_STYLE_ATTR_NONE)
 186:lvgl/src/lv_core/lv_style.h ****     LV_STYLE_PROP_INIT(LV_STYLE_TRANSITION_DELAY,   0xB, LV_STYLE_ID_VALUE + 1, LV_STYLE_ATTR_NONE)
 187:lvgl/src/lv_core/lv_style.h ****     LV_STYLE_PROP_INIT(LV_STYLE_TRANSITION_PROP_1,  0xB, LV_STYLE_ID_VALUE + 2, LV_STYLE_ATTR_NONE)
 188:lvgl/src/lv_core/lv_style.h ****     LV_STYLE_PROP_INIT(LV_STYLE_TRANSITION_PROP_2,  0xB, LV_STYLE_ID_VALUE + 3, LV_STYLE_ATTR_NONE)
 189:lvgl/src/lv_core/lv_style.h ****     LV_STYLE_PROP_INIT(LV_STYLE_TRANSITION_PROP_3,  0xB, LV_STYLE_ID_VALUE + 4, LV_STYLE_ATTR_NONE)
 190:lvgl/src/lv_core/lv_style.h ****     LV_STYLE_PROP_INIT(LV_STYLE_TRANSITION_PROP_4,  0xB, LV_STYLE_ID_VALUE + 5, LV_STYLE_ATTR_NONE)
 191:lvgl/src/lv_core/lv_style.h ****     LV_STYLE_PROP_INIT(LV_STYLE_TRANSITION_PROP_5,  0xB, LV_STYLE_ID_VALUE + 6, LV_STYLE_ATTR_NONE)
 192:lvgl/src/lv_core/lv_style.h ****     LV_STYLE_PROP_INIT(LV_STYLE_TRANSITION_PROP_6,  0xB, LV_STYLE_ID_VALUE + 7, LV_STYLE_ATTR_NONE)
 193:lvgl/src/lv_core/lv_style.h ****     LV_STYLE_PROP_INIT(LV_STYLE_TRANSITION_PATH,    0xB, LV_STYLE_ID_PTR + 0, LV_STYLE_ATTR_NONE),
 194:lvgl/src/lv_core/lv_style.h **** 
 195:lvgl/src/lv_core/lv_style.h ****     LV_STYLE_PROP_INIT(LV_STYLE_SCALE_WIDTH,            0xC, LV_STYLE_ID_VALUE + 0, LV_STYLE_ATTR_N
 196:lvgl/src/lv_core/lv_style.h ****     LV_STYLE_PROP_INIT(LV_STYLE_SCALE_BORDER_WIDTH,     0xC, LV_STYLE_ID_VALUE + 1, LV_STYLE_ATTR_N
 197:lvgl/src/lv_core/lv_style.h ****     LV_STYLE_PROP_INIT(LV_STYLE_SCALE_END_BORDER_WIDTH, 0xC, LV_STYLE_ID_VALUE + 2, LV_STYLE_ATTR_N
 198:lvgl/src/lv_core/lv_style.h ****     LV_STYLE_PROP_INIT(LV_STYLE_SCALE_END_LINE_WIDTH,   0xC, LV_STYLE_ID_VALUE + 3, LV_STYLE_ATTR_N
 199:lvgl/src/lv_core/lv_style.h ****     LV_STYLE_PROP_INIT(LV_STYLE_SCALE_GRAD_COLOR,       0xC, LV_STYLE_ID_COLOR + 0, LV_STYLE_ATTR_N
 200:lvgl/src/lv_core/lv_style.h ****     LV_STYLE_PROP_INIT(LV_STYLE_SCALE_END_COLOR,        0xC, LV_STYLE_ID_COLOR + 1, LV_STYLE_ATTR_N
 201:lvgl/src/lv_core/lv_style.h **** };
 202:lvgl/src/lv_core/lv_style.h **** 
 203:lvgl/src/lv_core/lv_style.h **** typedef uint16_t lv_style_property_t;
 204:lvgl/src/lv_core/lv_style.h **** 
 205:lvgl/src/lv_core/lv_style.h **** #define LV_STYLE_STATE_POS       8
ARM GAS  D:\Temp\cceOI0TF.s 			page 34


 206:lvgl/src/lv_core/lv_style.h **** #define LV_STYLE_STATE_MASK      0x7F00
 207:lvgl/src/lv_core/lv_style.h **** #define LV_STYLE_INHERIT_MASK    0x8000
 208:lvgl/src/lv_core/lv_style.h **** 
 209:lvgl/src/lv_core/lv_style.h **** typedef uint16_t lv_style_state_t;
 210:lvgl/src/lv_core/lv_style.h **** 
 211:lvgl/src/lv_core/lv_style.h **** typedef struct {
 212:lvgl/src/lv_core/lv_style.h ****     uint8_t * map;
 213:lvgl/src/lv_core/lv_style.h **** #if LV_USE_ASSERT_STYLE
 214:lvgl/src/lv_core/lv_style.h ****     uint32_t sentinel;
 215:lvgl/src/lv_core/lv_style.h **** #endif
 216:lvgl/src/lv_core/lv_style.h **** } lv_style_t;
 217:lvgl/src/lv_core/lv_style.h **** 
 218:lvgl/src/lv_core/lv_style.h **** typedef int16_t lv_style_int_t;
 219:lvgl/src/lv_core/lv_style.h **** 
 220:lvgl/src/lv_core/lv_style.h **** typedef struct {
 221:lvgl/src/lv_core/lv_style.h ****     lv_style_t ** style_list;
 222:lvgl/src/lv_core/lv_style.h **** #if LV_USE_ASSERT_STYLE
 223:lvgl/src/lv_core/lv_style.h ****     uint32_t sentinel;
 224:lvgl/src/lv_core/lv_style.h **** #endif
 225:lvgl/src/lv_core/lv_style.h ****     uint32_t style_cnt     : 6;
 226:lvgl/src/lv_core/lv_style.h ****     uint32_t has_local     : 1;
 227:lvgl/src/lv_core/lv_style.h ****     uint32_t has_trans     : 1;
 228:lvgl/src/lv_core/lv_style.h ****     uint32_t skip_trans    : 1;      /*1: Temporally skip the transition style if any*/
 229:lvgl/src/lv_core/lv_style.h ****     uint32_t ignore_trans  : 1;      /*1: Mark that this style list shouldn't receive transitions a
 230:lvgl/src/lv_core/lv_style.h ****     uint32_t valid_cache   : 1;      /*1: The cache is valid and can be used*/
 231:lvgl/src/lv_core/lv_style.h ****     uint32_t ignore_cache  : 1;      /*1: Ignore cache while getting value of properties*/
 232:lvgl/src/lv_core/lv_style.h **** 
 233:lvgl/src/lv_core/lv_style.h ****     uint32_t radius_zero : 1;
 234:lvgl/src/lv_core/lv_style.h ****     uint32_t opa_scale_cover      : 1;
 235:lvgl/src/lv_core/lv_style.h ****     uint32_t clip_corner_off       : 1;
 236:lvgl/src/lv_core/lv_style.h ****     uint32_t transform_all_zero  : 1;
 237:lvgl/src/lv_core/lv_style.h ****     uint32_t pad_all_zero : 1;
 238:lvgl/src/lv_core/lv_style.h ****     uint32_t margin_all_zero : 1;
 239:lvgl/src/lv_core/lv_style.h ****     uint32_t blend_mode_all_normal : 1;
 240:lvgl/src/lv_core/lv_style.h ****     uint32_t bg_opa_transp : 1;
 241:lvgl/src/lv_core/lv_style.h ****     uint32_t bg_opa_cover : 1;
 242:lvgl/src/lv_core/lv_style.h **** 
 243:lvgl/src/lv_core/lv_style.h ****     uint32_t border_width_zero : 1;
 244:lvgl/src/lv_core/lv_style.h ****     uint32_t border_side_full : 1;
 245:lvgl/src/lv_core/lv_style.h ****     uint32_t border_post_off : 1;
 246:lvgl/src/lv_core/lv_style.h **** 
 247:lvgl/src/lv_core/lv_style.h ****     uint32_t outline_width_zero : 1;
 248:lvgl/src/lv_core/lv_style.h ****     uint32_t pattern_img_null : 1;
 249:lvgl/src/lv_core/lv_style.h ****     uint32_t shadow_width_zero : 1;
 250:lvgl/src/lv_core/lv_style.h ****     uint32_t value_txt_str : 1;
 251:lvgl/src/lv_core/lv_style.h ****     uint32_t img_recolor_opa_transp : 1;
 252:lvgl/src/lv_core/lv_style.h **** 
 253:lvgl/src/lv_core/lv_style.h ****     uint32_t text_space_zero : 1;
 254:lvgl/src/lv_core/lv_style.h ****     uint32_t text_decor_none : 1;
 255:lvgl/src/lv_core/lv_style.h ****     uint32_t text_font_normal : 1;
 256:lvgl/src/lv_core/lv_style.h **** } lv_style_list_t;
 257:lvgl/src/lv_core/lv_style.h **** 
 258:lvgl/src/lv_core/lv_style.h **** /**********************
 259:lvgl/src/lv_core/lv_style.h ****  * GLOBAL PROTOTYPES
 260:lvgl/src/lv_core/lv_style.h ****  **********************/
 261:lvgl/src/lv_core/lv_style.h **** 
 262:lvgl/src/lv_core/lv_style.h **** /**
ARM GAS  D:\Temp\cceOI0TF.s 			page 35


 263:lvgl/src/lv_core/lv_style.h ****  * Initialize a style
 264:lvgl/src/lv_core/lv_style.h ****  * @param style pointer to a style to initialize
 265:lvgl/src/lv_core/lv_style.h ****  */
 266:lvgl/src/lv_core/lv_style.h **** void lv_style_init(lv_style_t * style);
 267:lvgl/src/lv_core/lv_style.h **** 
 268:lvgl/src/lv_core/lv_style.h **** /**
 269:lvgl/src/lv_core/lv_style.h ****  * Copy a style with all its properties
 270:lvgl/src/lv_core/lv_style.h ****  * @param style_dest pointer to the destination style. (Should be initialized with `lv_style_init()
 271:lvgl/src/lv_core/lv_style.h ****  * @param style_src pointer to the source (to copy )style
 272:lvgl/src/lv_core/lv_style.h ****  */
 273:lvgl/src/lv_core/lv_style.h **** void lv_style_copy(lv_style_t * style_dest, const lv_style_t * style_src);
 274:lvgl/src/lv_core/lv_style.h **** 
 275:lvgl/src/lv_core/lv_style.h **** /**
 276:lvgl/src/lv_core/lv_style.h ****  * Initialize a style list
 277:lvgl/src/lv_core/lv_style.h ****  * @param list a style list to initialize
 278:lvgl/src/lv_core/lv_style.h ****  */
 279:lvgl/src/lv_core/lv_style.h **** void lv_style_list_init(lv_style_list_t * list);
 280:lvgl/src/lv_core/lv_style.h **** 
 281:lvgl/src/lv_core/lv_style.h **** /**
 282:lvgl/src/lv_core/lv_style.h ****  * Copy a style list with all its styles and local style properties
 283:lvgl/src/lv_core/lv_style.h ****  * @param list_dest pointer to the destination style list. (should be initialized with `lv_style_li
 284:lvgl/src/lv_core/lv_style.h ****  * @param list_src pointer to the source (to copy) style list.
 285:lvgl/src/lv_core/lv_style.h ****  */
 286:lvgl/src/lv_core/lv_style.h **** void lv_style_list_copy(lv_style_list_t * list_dest, const lv_style_list_t * list_src);
 287:lvgl/src/lv_core/lv_style.h **** 
 288:lvgl/src/lv_core/lv_style.h **** /**
 289:lvgl/src/lv_core/lv_style.h ****  * Add a style to a style list.
 290:lvgl/src/lv_core/lv_style.h ****  * Only the style pointer will be saved so the shouldn't be a local variable.
 291:lvgl/src/lv_core/lv_style.h ****  * (It should be static, global or dynamically allocated)
 292:lvgl/src/lv_core/lv_style.h ****  * @param list pointer to a style list
 293:lvgl/src/lv_core/lv_style.h ****  * @param style pointer to a style to add
 294:lvgl/src/lv_core/lv_style.h ****  */
 295:lvgl/src/lv_core/lv_style.h **** void _lv_style_list_add_style(lv_style_list_t * list, lv_style_t * style);
 296:lvgl/src/lv_core/lv_style.h **** 
 297:lvgl/src/lv_core/lv_style.h **** /**
 298:lvgl/src/lv_core/lv_style.h ****  * Remove a style from a style list
 299:lvgl/src/lv_core/lv_style.h ****  * @param style_list pointer to a style list
 300:lvgl/src/lv_core/lv_style.h ****  * @param style pointer to a style to remove
 301:lvgl/src/lv_core/lv_style.h ****  */
 302:lvgl/src/lv_core/lv_style.h **** void _lv_style_list_remove_style(lv_style_list_t * list, lv_style_t * style);
 303:lvgl/src/lv_core/lv_style.h **** 
 304:lvgl/src/lv_core/lv_style.h **** /**
 305:lvgl/src/lv_core/lv_style.h ****  * Remove all styles added from style list, clear the local style, transition style and free all al
 306:lvgl/src/lv_core/lv_style.h ****  * Leave `ignore_trans` flag as it is.
 307:lvgl/src/lv_core/lv_style.h ****  * @param list pointer to a style list.
 308:lvgl/src/lv_core/lv_style.h ****  */
 309:lvgl/src/lv_core/lv_style.h **** void _lv_style_list_reset(lv_style_list_t * style_list);
 310:lvgl/src/lv_core/lv_style.h **** 
 311:lvgl/src/lv_core/lv_style.h **** static inline lv_style_t * lv_style_list_get_style(lv_style_list_t * list, uint8_t id)
 502              		.loc 2 311 28 is_stmt 1 discriminator 1 view .LVU147
 503              	.LBB142:
 312:lvgl/src/lv_core/lv_style.h **** {
 313:lvgl/src/lv_core/lv_style.h ****     if(list->has_trans && list->skip_trans) id++;
 504              		.loc 2 313 5 discriminator 1 view .LVU148
 505              		.loc 2 313 24 is_stmt 0 discriminator 1 view .LVU149
 506 000c 8188     		ldrh	r1, [r0, #4]
 507 000e 01F4C071 		and	r1, r1, #384
ARM GAS  D:\Temp\cceOI0TF.s 			page 36


 508              		.loc 2 313 7 discriminator 1 view .LVU150
 509 0012 B1F5C07F 		cmp	r1, #384
 510 0016 0CD0     		beq	.L52
 511              	.L44:
 314:lvgl/src/lv_core/lv_style.h ****     if(list->style_cnt == 0 || id >= list->style_cnt) return NULL;
 512              		.loc 2 314 5 is_stmt 1 view .LVU151
 513              		.loc 2 314 7 is_stmt 0 view .LVU152
 514 0018 12F03F0F 		tst	r2, #63
 515 001c 0BD0     		beq	.L49
 516              		.loc 2 314 42 view .LVU153
 517 001e 0279     		ldrb	r2, [r0, #4]	@ zero_extendqisi2
 518 0020 02F03F02 		and	r2, r2, #63
 519              		.loc 2 314 29 view .LVU154
 520 0024 9A42     		cmp	r2, r3
 521 0026 08D9     		bls	.L50
 315:lvgl/src/lv_core/lv_style.h ****     return list->style_list[id];
 522              		.loc 2 315 5 is_stmt 1 view .LVU155
 523              		.loc 2 315 16 is_stmt 0 view .LVU156
 524 0028 0268     		ldr	r2, [r0]
 525              		.loc 2 315 28 view .LVU157
 526 002a 52F82350 		ldr	r5, [r2, r3, lsl #2]
 527              	.LVL51:
 528              	.L42:
 529              		.loc 2 315 28 view .LVU158
 530              	.LBE142:
 531              	.LBE141:
1106:lvgl/src/lv_core/lv_style.c **** 
1107:lvgl/src/lv_core/lv_style.c ****     lv_style_t * local_style = lv_mem_alloc(sizeof(lv_style_t));
1108:lvgl/src/lv_core/lv_style.c ****     LV_ASSERT_MEM(local_style);
1109:lvgl/src/lv_core/lv_style.c ****     if(local_style == NULL) {
1110:lvgl/src/lv_core/lv_style.c ****         LV_LOG_WARN("get_local_style: couldn't create local style");
1111:lvgl/src/lv_core/lv_style.c ****         return NULL;
1112:lvgl/src/lv_core/lv_style.c ****     }
1113:lvgl/src/lv_core/lv_style.c ****     lv_style_init(local_style);
1114:lvgl/src/lv_core/lv_style.c **** 
1115:lvgl/src/lv_core/lv_style.c ****     /*Add the local style to the first place*/
1116:lvgl/src/lv_core/lv_style.c ****     _lv_style_list_add_style(list, local_style);
1117:lvgl/src/lv_core/lv_style.c ****     list->has_local = 1;
1118:lvgl/src/lv_core/lv_style.c **** 
1119:lvgl/src/lv_core/lv_style.c ****     return local_style;
1120:lvgl/src/lv_core/lv_style.c **** }
 532              		.loc 1 1120 1 view .LVU159
 533 002e 2846     		mov	r0, r5
 534 0030 38BD     		pop	{r3, r4, r5, pc}
 535              	.LVL52:
 536              	.L52:
 537              	.LBB144:
 538              	.LBB143:
 313:lvgl/src/lv_core/lv_style.h ****     if(list->style_cnt == 0 || id >= list->style_cnt) return NULL;
 539              		.loc 2 313 45 is_stmt 1 view .LVU160
 313:lvgl/src/lv_core/lv_style.h ****     if(list->style_cnt == 0 || id >= list->style_cnt) return NULL;
 540              		.loc 2 313 47 is_stmt 0 view .LVU161
 541 0032 0133     		adds	r3, r3, #1
 542              	.LVL53:
 313:lvgl/src/lv_core/lv_style.h ****     if(list->style_cnt == 0 || id >= list->style_cnt) return NULL;
 543              		.loc 2 313 47 view .LVU162
 544 0034 F0E7     		b	.L44
ARM GAS  D:\Temp\cceOI0TF.s 			page 37


 545              	.L49:
 314:lvgl/src/lv_core/lv_style.h ****     return list->style_list[id];
 546              		.loc 2 314 62 view .LVU163
 547 0036 0025     		movs	r5, #0
 548 0038 F9E7     		b	.L42
 549              	.L50:
 314:lvgl/src/lv_core/lv_style.h ****     return list->style_list[id];
 550              		.loc 2 314 62 view .LVU164
 551 003a 0025     		movs	r5, #0
 552              	.LVL54:
 314:lvgl/src/lv_core/lv_style.h ****     return list->style_list[id];
 553              		.loc 2 314 62 view .LVU165
 554              	.LBE143:
 555              	.LBE144:
1105:lvgl/src/lv_core/lv_style.c **** 
 556              		.loc 1 1105 32 view .LVU166
 557 003c F7E7     		b	.L42
 558              	.L43:
1105:lvgl/src/lv_core/lv_style.c **** 
 559              		.loc 1 1105 32 view .LVU167
 560 003e 0446     		mov	r4, r0
1107:lvgl/src/lv_core/lv_style.c ****     LV_ASSERT_MEM(local_style);
 561              		.loc 1 1107 5 is_stmt 1 view .LVU168
1107:lvgl/src/lv_core/lv_style.c ****     LV_ASSERT_MEM(local_style);
 562              		.loc 1 1107 32 is_stmt 0 view .LVU169
 563 0040 0420     		movs	r0, #4
 564              	.LVL55:
1107:lvgl/src/lv_core/lv_style.c ****     LV_ASSERT_MEM(local_style);
 565              		.loc 1 1107 32 view .LVU170
 566 0042 FFF7FEFF 		bl	lv_mem_alloc
 567              	.LVL56:
 568 0046 0546     		mov	r5, r0
 569              	.LVL57:
1108:lvgl/src/lv_core/lv_style.c ****     if(local_style == NULL) {
 570              		.loc 1 1108 5 is_stmt 1 view .LVU171
1108:lvgl/src/lv_core/lv_style.c ****     if(local_style == NULL) {
 571              		.loc 1 1108 5 view .LVU172
 572 0048 FFF7FEFF 		bl	lv_debug_check_null
 573              	.LVL58:
1108:lvgl/src/lv_core/lv_style.c ****     if(local_style == NULL) {
 574              		.loc 1 1108 5 is_stmt 0 view .LVU173
 575 004c 68B1     		cbz	r0, .L53
1108:lvgl/src/lv_core/lv_style.c ****     if(local_style == NULL) {
 576              		.loc 1 1108 31 is_stmt 1 discriminator 2 view .LVU174
1109:lvgl/src/lv_core/lv_style.c ****         LV_LOG_WARN("get_local_style: couldn't create local style");
 577              		.loc 1 1109 5 discriminator 2 view .LVU175
1109:lvgl/src/lv_core/lv_style.c ****         LV_LOG_WARN("get_local_style: couldn't create local style");
 578              		.loc 1 1109 7 is_stmt 0 discriminator 2 view .LVU176
 579 004e 002D     		cmp	r5, #0
 580 0050 EDD0     		beq	.L42
1113:lvgl/src/lv_core/lv_style.c **** 
 581              		.loc 1 1113 5 is_stmt 1 view .LVU177
 582 0052 2846     		mov	r0, r5
 583 0054 FFF7FEFF 		bl	lv_style_init
 584              	.LVL59:
1116:lvgl/src/lv_core/lv_style.c ****     list->has_local = 1;
 585              		.loc 1 1116 5 view .LVU178
ARM GAS  D:\Temp\cceOI0TF.s 			page 38


 586 0058 2946     		mov	r1, r5
 587 005a 2046     		mov	r0, r4
 588 005c FFF7FEFF 		bl	_lv_style_list_add_style
 589              	.LVL60:
1117:lvgl/src/lv_core/lv_style.c **** 
 590              		.loc 1 1117 5 view .LVU179
1117:lvgl/src/lv_core/lv_style.c **** 
 591              		.loc 1 1117 21 is_stmt 0 view .LVU180
 592 0060 2379     		ldrb	r3, [r4, #4]	@ zero_extendqisi2
 593 0062 43F04003 		orr	r3, r3, #64
 594 0066 2371     		strb	r3, [r4, #4]
1119:lvgl/src/lv_core/lv_style.c **** }
 595              		.loc 1 1119 5 is_stmt 1 view .LVU181
1119:lvgl/src/lv_core/lv_style.c **** }
 596              		.loc 1 1119 12 is_stmt 0 view .LVU182
 597 0068 E1E7     		b	.L42
 598              	.L53:
1108:lvgl/src/lv_core/lv_style.c ****     if(local_style == NULL) {
 599              		.loc 1 1108 5 is_stmt 1 discriminator 1 view .LVU183
1108:lvgl/src/lv_core/lv_style.c ****     if(local_style == NULL) {
 600              		.loc 1 1108 5 discriminator 1 view .LVU184
 601 006a 2A46     		mov	r2, r5
 602 006c 0023     		movs	r3, #0
 603 006e 0248     		ldr	r0, .L54
 604 0070 FFF7FEFF 		bl	lv_debug_log_error
 605              	.LVL61:
 606              	.L48:
1108:lvgl/src/lv_core/lv_style.c ****     if(local_style == NULL) {
 607              		.loc 1 1108 5 discriminator 1 view .LVU185
1108:lvgl/src/lv_core/lv_style.c ****     if(local_style == NULL) {
 608              		.loc 1 1108 5 discriminator 1 view .LVU186
 609 0074 FEE7     		b	.L48
 610              	.L55:
 611 0076 00BF     		.align	2
 612              	.L54:
 613 0078 00000000 		.word	.LC0
 614              		.cfi_endproc
 615              	.LFE490:
 617              		.section	.text.lv_style_reset,"ax",%progbits
 618              		.align	1
 619              		.global	lv_style_reset
 620              		.syntax unified
 621              		.thumb
 622              		.thumb_func
 623              		.fpu fpv4-sp-d16
 625              	lv_style_reset:
 626              	.LVL62:
 627              	.LFB466:
 323:lvgl/src/lv_core/lv_style.c ****     LV_ASSERT_STYLE(style);
 628              		.loc 1 323 1 view -0
 629              		.cfi_startproc
 630              		@ args = 0, pretend = 0, frame = 0
 631              		@ frame_needed = 0, uses_anonymous_args = 0
 323:lvgl/src/lv_core/lv_style.c ****     LV_ASSERT_STYLE(style);
 632              		.loc 1 323 1 is_stmt 0 view .LVU188
 633 0000 10B5     		push	{r4, lr}
 634              	.LCFI6:
ARM GAS  D:\Temp\cceOI0TF.s 			page 39


 635              		.cfi_def_cfa_offset 8
 636              		.cfi_offset 4, -8
 637              		.cfi_offset 14, -4
 638 0002 0446     		mov	r4, r0
 324:lvgl/src/lv_core/lv_style.c **** 
 639              		.loc 1 324 27 is_stmt 1 view .LVU189
 326:lvgl/src/lv_core/lv_style.c ****     style->map = NULL;
 640              		.loc 1 326 5 view .LVU190
 641 0004 0068     		ldr	r0, [r0]
 642              	.LVL63:
 326:lvgl/src/lv_core/lv_style.c ****     style->map = NULL;
 643              		.loc 1 326 5 is_stmt 0 view .LVU191
 644 0006 FFF7FEFF 		bl	lv_mem_free
 645              	.LVL64:
 327:lvgl/src/lv_core/lv_style.c **** }
 646              		.loc 1 327 5 is_stmt 1 view .LVU192
 327:lvgl/src/lv_core/lv_style.c **** }
 647              		.loc 1 327 16 is_stmt 0 view .LVU193
 648 000a 0023     		movs	r3, #0
 649 000c 2360     		str	r3, [r4]
 328:lvgl/src/lv_core/lv_style.c **** 
 650              		.loc 1 328 1 view .LVU194
 651 000e 10BD     		pop	{r4, pc}
 328:lvgl/src/lv_core/lv_style.c **** 
 652              		.loc 1 328 1 view .LVU195
 653              		.cfi_endproc
 654              	.LFE466:
 656              		.section	.text._lv_style_get_mem_size,"ax",%progbits
 657              		.align	1
 658              		.global	_lv_style_get_mem_size
 659              		.syntax unified
 660              		.thumb
 661              		.thumb_func
 662              		.fpu fpv4-sp-d16
 664              	_lv_style_get_mem_size:
 665              	.LVL65:
 666              	.LFB467:
 336:lvgl/src/lv_core/lv_style.c ****     LV_ASSERT_STYLE(style);
 667              		.loc 1 336 1 is_stmt 1 view -0
 668              		.cfi_startproc
 669              		@ args = 0, pretend = 0, frame = 8
 670              		@ frame_needed = 0, uses_anonymous_args = 0
 671              		@ link register save eliminated.
 337:lvgl/src/lv_core/lv_style.c **** 
 672              		.loc 1 337 27 view .LVU197
 339:lvgl/src/lv_core/lv_style.c **** 
 673              		.loc 1 339 5 view .LVU198
 339:lvgl/src/lv_core/lv_style.c **** 
 674              		.loc 1 339 13 is_stmt 0 view .LVU199
 675 0000 0368     		ldr	r3, [r0]
 339:lvgl/src/lv_core/lv_style.c **** 
 676              		.loc 1 339 7 view .LVU200
 677 0002 0BB3     		cbz	r3, .L63
 336:lvgl/src/lv_core/lv_style.c ****     LV_ASSERT_STYLE(style);
 678              		.loc 1 336 1 view .LVU201
 679 0004 82B0     		sub	sp, sp, #8
 680              	.LCFI7:
ARM GAS  D:\Temp\cceOI0TF.s 			page 40


 681              		.cfi_def_cfa_offset 8
 341:lvgl/src/lv_core/lv_style.c ****     uint8_t prop_id;
 682              		.loc 1 341 12 view .LVU202
 683 0006 0022     		movs	r2, #0
 684 0008 01E0     		b	.L60
 685              	.LVL66:
 686              	.L64:
 687              	.LBB145:
 688              	.LBB146:
 689              	.LBB147:
 690              	.LBB148:
1121:lvgl/src/lv_core/lv_style.c **** 
1122:lvgl/src/lv_core/lv_style.c **** /**
1123:lvgl/src/lv_core/lv_style.c ****  * Resizes a style map. Useful entry point for debugging.
1124:lvgl/src/lv_core/lv_style.c ****  * @param style pointer to the style to be resized.
1125:lvgl/src/lv_core/lv_style.c ****  * @param size new size
1126:lvgl/src/lv_core/lv_style.c ****  */
1127:lvgl/src/lv_core/lv_style.c **** static inline void style_resize(lv_style_t * style, size_t sz)
1128:lvgl/src/lv_core/lv_style.c **** {
1129:lvgl/src/lv_core/lv_style.c ****     style->map = lv_mem_realloc(style->map, sz);
1130:lvgl/src/lv_core/lv_style.c **** }
1131:lvgl/src/lv_core/lv_style.c **** 
1132:lvgl/src/lv_core/lv_style.c **** /**
1133:lvgl/src/lv_core/lv_style.c ****  * Get style property in index.
1134:lvgl/src/lv_core/lv_style.c ****  * @param style pointer to style.
1135:lvgl/src/lv_core/lv_style.c ****  * @param idx index of the style in style->map
1136:lvgl/src/lv_core/lv_style.c ****  * @return property in style->map + idx
1137:lvgl/src/lv_core/lv_style.c ****  */
1138:lvgl/src/lv_core/lv_style.c **** static inline lv_style_property_t get_style_prop(const lv_style_t * style, size_t idx)
1139:lvgl/src/lv_core/lv_style.c **** {
1140:lvgl/src/lv_core/lv_style.c ****     lv_style_property_t prop;
1141:lvgl/src/lv_core/lv_style.c ****     uint8_t * prop_p = (uint8_t *)&prop;
1142:lvgl/src/lv_core/lv_style.c ****     prop_p[0] = style->map[idx];
1143:lvgl/src/lv_core/lv_style.c ****     prop_p[1] = style->map[idx + 1];
1144:lvgl/src/lv_core/lv_style.c ****     return prop;
1145:lvgl/src/lv_core/lv_style.c **** }
1146:lvgl/src/lv_core/lv_style.c **** 
1147:lvgl/src/lv_core/lv_style.c **** /**
1148:lvgl/src/lv_core/lv_style.c ****  * Get style property id in index.
1149:lvgl/src/lv_core/lv_style.c ****  * @param style pointer to style.
1150:lvgl/src/lv_core/lv_style.c ****  * @param idx index of the style in style->map
1151:lvgl/src/lv_core/lv_style.c ****  * @return id of property in style->map + idx
1152:lvgl/src/lv_core/lv_style.c ****  */
1153:lvgl/src/lv_core/lv_style.c **** static inline uint8_t get_style_prop_id(const lv_style_t * style, size_t idx)
1154:lvgl/src/lv_core/lv_style.c **** {
1155:lvgl/src/lv_core/lv_style.c ****     return get_style_prop(style, idx) & 0xFF;
1156:lvgl/src/lv_core/lv_style.c **** }
1157:lvgl/src/lv_core/lv_style.c **** 
1158:lvgl/src/lv_core/lv_style.c **** /**
1159:lvgl/src/lv_core/lv_style.c ****  * Get style property attributes for index.
1160:lvgl/src/lv_core/lv_style.c ****  * @param style pointer to style.
1161:lvgl/src/lv_core/lv_style.c ****  * @param idx index of the style in style->map
1162:lvgl/src/lv_core/lv_style.c ****  * @return attribute of property in style->map + idx
1163:lvgl/src/lv_core/lv_style.c ****  */
1164:lvgl/src/lv_core/lv_style.c **** static inline uint8_t get_style_prop_attr(const lv_style_t * style, size_t idx)
1165:lvgl/src/lv_core/lv_style.c **** {
1166:lvgl/src/lv_core/lv_style.c ****     return ((get_style_prop(style, idx) >> 8) & 0xFFU);
ARM GAS  D:\Temp\cceOI0TF.s 			page 41


1167:lvgl/src/lv_core/lv_style.c **** }
1168:lvgl/src/lv_core/lv_style.c **** 
1169:lvgl/src/lv_core/lv_style.c **** /**
1170:lvgl/src/lv_core/lv_style.c ****  * Get property size.
1171:lvgl/src/lv_core/lv_style.c ****  * @param prop_id property id.
1172:lvgl/src/lv_core/lv_style.c ****  * @param idx index of the style in style->map
1173:lvgl/src/lv_core/lv_style.c ****  * @return attribute of property in style->map + idx
1174:lvgl/src/lv_core/lv_style.c ****  */
1175:lvgl/src/lv_core/lv_style.c **** static inline size_t get_prop_size(uint8_t prop_id)
1176:lvgl/src/lv_core/lv_style.c **** {
1177:lvgl/src/lv_core/lv_style.c ****     prop_id &= 0xF;
1178:lvgl/src/lv_core/lv_style.c ****     size_t size = sizeof(lv_style_property_t);
1179:lvgl/src/lv_core/lv_style.c ****     if(prop_id < LV_STYLE_ID_COLOR) size += sizeof(lv_style_int_t);
 691              		.loc 1 1179 42 view .LVU203
 692 000a 0423     		movs	r3, #4
 693              	.LVL67:
 694              	.L61:
1180:lvgl/src/lv_core/lv_style.c ****     else if(prop_id < LV_STYLE_ID_OPA) size += sizeof(lv_color_t);
1181:lvgl/src/lv_core/lv_style.c ****     else if(prop_id < LV_STYLE_ID_PTR) size += sizeof(lv_opa_t);
1182:lvgl/src/lv_core/lv_style.c ****     else size += sizeof(const void *);
1183:lvgl/src/lv_core/lv_style.c ****     return size;
 695              		.loc 1 1183 5 is_stmt 1 view .LVU204
 696              		.loc 1 1183 5 is_stmt 0 view .LVU205
 697              	.LBE148:
 698              	.LBE147:
1184:lvgl/src/lv_core/lv_style.c **** }
1185:lvgl/src/lv_core/lv_style.c **** 
1186:lvgl/src/lv_core/lv_style.c **** /**
1187:lvgl/src/lv_core/lv_style.c ****  * Get next property index, given current property and index.
1188:lvgl/src/lv_core/lv_style.c ****  * @param prop_id property id.
1189:lvgl/src/lv_core/lv_style.c ****  * @param idx index of the style in style->map
1190:lvgl/src/lv_core/lv_style.c ****  * @return index of next property in style->map
1191:lvgl/src/lv_core/lv_style.c ****  */
1192:lvgl/src/lv_core/lv_style.c **** static inline size_t get_next_prop_index(uint8_t prop_id, size_t idx)
1193:lvgl/src/lv_core/lv_style.c **** {
1194:lvgl/src/lv_core/lv_style.c ****     return idx + get_prop_size(prop_id);
 699              		.loc 1 1194 16 view .LVU206
 700 000c 1A44     		add	r2, r2, r3
 701              	.LVL68:
 702              	.L60:
 703              		.loc 1 1194 16 view .LVU207
 704              	.LBE146:
 705              	.LBE145:
 706              	.LBB152:
 707              	.LBI152:
1153:lvgl/src/lv_core/lv_style.c **** {
 708              		.loc 1 1153 23 is_stmt 1 view .LVU208
 709              	.LBB153:
1155:lvgl/src/lv_core/lv_style.c **** }
 710              		.loc 1 1155 5 view .LVU209
 711              	.LBB154:
 712              	.LBI154:
1138:lvgl/src/lv_core/lv_style.c **** {
 713              		.loc 1 1138 35 view .LVU210
 714              	.LBB155:
1140:lvgl/src/lv_core/lv_style.c ****     uint8_t * prop_p = (uint8_t *)&prop;
 715              		.loc 1 1140 5 view .LVU211
ARM GAS  D:\Temp\cceOI0TF.s 			page 42


1141:lvgl/src/lv_core/lv_style.c ****     prop_p[0] = style->map[idx];
 716              		.loc 1 1141 5 view .LVU212
1142:lvgl/src/lv_core/lv_style.c ****     prop_p[1] = style->map[idx + 1];
 717              		.loc 1 1142 5 view .LVU213
1142:lvgl/src/lv_core/lv_style.c ****     prop_p[1] = style->map[idx + 1];
 718              		.loc 1 1142 22 is_stmt 0 view .LVU214
 719 000e 0368     		ldr	r3, [r0]
1142:lvgl/src/lv_core/lv_style.c ****     prop_p[1] = style->map[idx + 1];
 720              		.loc 1 1142 27 view .LVU215
 721 0010 995C     		ldrb	r1, [r3, r2]	@ zero_extendqisi2
1142:lvgl/src/lv_core/lv_style.c ****     prop_p[1] = style->map[idx + 1];
 722              		.loc 1 1142 15 view .LVU216
 723 0012 8DF80610 		strb	r1, [sp, #6]
1143:lvgl/src/lv_core/lv_style.c ****     return prop;
 724              		.loc 1 1143 5 is_stmt 1 view .LVU217
1143:lvgl/src/lv_core/lv_style.c ****     return prop;
 725              		.loc 1 1143 27 is_stmt 0 view .LVU218
 726 0016 1344     		add	r3, r3, r2
 727 0018 5B78     		ldrb	r3, [r3, #1]	@ zero_extendqisi2
1143:lvgl/src/lv_core/lv_style.c ****     return prop;
 728              		.loc 1 1143 15 view .LVU219
 729 001a 8DF80730 		strb	r3, [sp, #7]
1144:lvgl/src/lv_core/lv_style.c **** }
 730              		.loc 1 1144 5 is_stmt 1 view .LVU220
 731              	.LVL69:
1144:lvgl/src/lv_core/lv_style.c **** }
 732              		.loc 1 1144 5 is_stmt 0 view .LVU221
 733              	.LBE155:
 734              	.LBE154:
1155:lvgl/src/lv_core/lv_style.c **** }
 735              		.loc 1 1155 39 view .LVU222
 736 001e CBB2     		uxtb	r3, r1
 737              	.LVL70:
1155:lvgl/src/lv_core/lv_style.c **** }
 738              		.loc 1 1155 39 view .LVU223
 739              	.LBE153:
 740              	.LBE152:
 343:lvgl/src/lv_core/lv_style.c ****         i = get_next_prop_index(prop_id, i);
 741              		.loc 1 343 10 view .LVU224
 742 0020 FF2B     		cmp	r3, #255
 743 0022 0DD0     		beq	.L71
 344:lvgl/src/lv_core/lv_style.c ****     }
 744              		.loc 1 344 9 is_stmt 1 view .LVU225
 745              	.LVL71:
 746              	.LBB156:
 747              	.LBI145:
1192:lvgl/src/lv_core/lv_style.c **** {
 748              		.loc 1 1192 22 view .LVU226
 749              	.LBB151:
 750              		.loc 1 1194 5 view .LVU227
 751              	.LBB150:
 752              	.LBI147:
1175:lvgl/src/lv_core/lv_style.c **** {
 753              		.loc 1 1175 22 view .LVU228
 754              	.LBB149:
1177:lvgl/src/lv_core/lv_style.c ****     size_t size = sizeof(lv_style_property_t);
 755              		.loc 1 1177 5 view .LVU229
ARM GAS  D:\Temp\cceOI0TF.s 			page 43


1177:lvgl/src/lv_core/lv_style.c ****     size_t size = sizeof(lv_style_property_t);
 756              		.loc 1 1177 13 is_stmt 0 view .LVU230
 757 0024 03F00F03 		and	r3, r3, #15
 758              	.LVL72:
1178:lvgl/src/lv_core/lv_style.c ****     if(prop_id < LV_STYLE_ID_COLOR) size += sizeof(lv_style_int_t);
 759              		.loc 1 1178 5 is_stmt 1 view .LVU231
1179:lvgl/src/lv_core/lv_style.c ****     else if(prop_id < LV_STYLE_ID_OPA) size += sizeof(lv_color_t);
 760              		.loc 1 1179 5 view .LVU232
1179:lvgl/src/lv_core/lv_style.c ****     else if(prop_id < LV_STYLE_ID_OPA) size += sizeof(lv_color_t);
 761              		.loc 1 1179 7 is_stmt 0 view .LVU233
 762 0028 082B     		cmp	r3, #8
 763 002a EED9     		bls	.L64
1180:lvgl/src/lv_core/lv_style.c ****     else if(prop_id < LV_STYLE_ID_PTR) size += sizeof(lv_opa_t);
 764              		.loc 1 1180 10 is_stmt 1 view .LVU234
1180:lvgl/src/lv_core/lv_style.c ****     else if(prop_id < LV_STYLE_ID_PTR) size += sizeof(lv_opa_t);
 765              		.loc 1 1180 12 is_stmt 0 view .LVU235
 766 002c 0B2B     		cmp	r3, #11
 767 002e 03D9     		bls	.L65
1181:lvgl/src/lv_core/lv_style.c ****     else size += sizeof(const void *);
 768              		.loc 1 1181 10 is_stmt 1 view .LVU236
1181:lvgl/src/lv_core/lv_style.c ****     else size += sizeof(const void *);
 769              		.loc 1 1181 12 is_stmt 0 view .LVU237
 770 0030 0D2B     		cmp	r3, #13
 771 0032 03D8     		bhi	.L66
1181:lvgl/src/lv_core/lv_style.c ****     else size += sizeof(const void *);
 772              		.loc 1 1181 45 view .LVU238
 773 0034 0323     		movs	r3, #3
 774              	.LVL73:
1181:lvgl/src/lv_core/lv_style.c ****     else size += sizeof(const void *);
 775              		.loc 1 1181 45 view .LVU239
 776 0036 E9E7     		b	.L61
 777              	.LVL74:
 778              	.L65:
1180:lvgl/src/lv_core/lv_style.c ****     else if(prop_id < LV_STYLE_ID_PTR) size += sizeof(lv_opa_t);
 779              		.loc 1 1180 45 view .LVU240
 780 0038 0423     		movs	r3, #4
 781              	.LVL75:
1180:lvgl/src/lv_core/lv_style.c ****     else if(prop_id < LV_STYLE_ID_PTR) size += sizeof(lv_opa_t);
 782              		.loc 1 1180 45 view .LVU241
 783 003a E7E7     		b	.L61
 784              	.LVL76:
 785              	.L66:
1182:lvgl/src/lv_core/lv_style.c ****     return size;
 786              		.loc 1 1182 15 view .LVU242
 787 003c 0623     		movs	r3, #6
 788              	.LVL77:
1182:lvgl/src/lv_core/lv_style.c ****     return size;
 789              		.loc 1 1182 15 view .LVU243
 790 003e E5E7     		b	.L61
 791              	.LVL78:
 792              	.L71:
1182:lvgl/src/lv_core/lv_style.c ****     return size;
 793              		.loc 1 1182 15 view .LVU244
 794              	.LBE149:
 795              	.LBE150:
 796              	.LBE151:
 797              	.LBE156:
ARM GAS  D:\Temp\cceOI0TF.s 			page 44


 347:lvgl/src/lv_core/lv_style.c **** }
 798              		.loc 1 347 5 is_stmt 1 view .LVU245
 347:lvgl/src/lv_core/lv_style.c **** }
 799              		.loc 1 347 14 is_stmt 0 view .LVU246
 800 0040 901C     		adds	r0, r2, #2
 801              	.LVL79:
 347:lvgl/src/lv_core/lv_style.c **** }
 802              		.loc 1 347 14 view .LVU247
 803 0042 80B2     		uxth	r0, r0
 348:lvgl/src/lv_core/lv_style.c **** 
 804              		.loc 1 348 1 view .LVU248
 805 0044 02B0     		add	sp, sp, #8
 806              	.LCFI8:
 807              		.cfi_def_cfa_offset 0
 808              	.LVL80:
 348:lvgl/src/lv_core/lv_style.c **** 
 809              		.loc 1 348 1 view .LVU249
 810              		@ sp needed
 811 0046 7047     		bx	lr
 812              	.LVL81:
 813              	.L63:
 339:lvgl/src/lv_core/lv_style.c **** 
 814              		.loc 1 339 35 view .LVU250
 815 0048 0020     		movs	r0, #0
 816              	.LVL82:
 348:lvgl/src/lv_core/lv_style.c **** 
 817              		.loc 1 348 1 view .LVU251
 818 004a 7047     		bx	lr
 819              		.cfi_endproc
 820              	.LFE467:
 822              		.section	.text.lv_style_copy,"ax",%progbits
 823              		.align	1
 824              		.global	lv_style_copy
 825              		.syntax unified
 826              		.thumb
 827              		.thumb_func
 828              		.fpu fpv4-sp-d16
 830              	lv_style_copy:
 831              	.LVL83:
 832              	.LFB459:
  80:lvgl/src/lv_core/lv_style.c ****     if(style_src == NULL) return;
 833              		.loc 1 80 1 is_stmt 1 view -0
 834              		.cfi_startproc
 835              		@ args = 0, pretend = 0, frame = 0
 836              		@ frame_needed = 0, uses_anonymous_args = 0
  81:lvgl/src/lv_core/lv_style.c **** 
 837              		.loc 1 81 5 view .LVU253
  81:lvgl/src/lv_core/lv_style.c **** 
 838              		.loc 1 81 7 is_stmt 0 view .LVU254
 839 0000 81B1     		cbz	r1, .L75
  80:lvgl/src/lv_core/lv_style.c ****     if(style_src == NULL) return;
 840              		.loc 1 80 1 view .LVU255
 841 0002 70B5     		push	{r4, r5, r6, lr}
 842              	.LCFI9:
 843              		.cfi_def_cfa_offset 16
 844              		.cfi_offset 4, -16
 845              		.cfi_offset 5, -12
ARM GAS  D:\Temp\cceOI0TF.s 			page 45


 846              		.cfi_offset 6, -8
 847              		.cfi_offset 14, -4
 848 0004 0C46     		mov	r4, r1
  83:lvgl/src/lv_core/lv_style.c ****     LV_ASSERT_STYLE(style_src);
 849              		.loc 1 83 32 is_stmt 1 view .LVU256
  84:lvgl/src/lv_core/lv_style.c **** 
 850              		.loc 1 84 31 view .LVU257
  86:lvgl/src/lv_core/lv_style.c **** 
 851              		.loc 1 86 5 view .LVU258
  86:lvgl/src/lv_core/lv_style.c **** 
 852              		.loc 1 86 17 is_stmt 0 view .LVU259
 853 0006 0A68     		ldr	r2, [r1]
  86:lvgl/src/lv_core/lv_style.c **** 
 854              		.loc 1 86 7 view .LVU260
 855 0008 5AB1     		cbz	r2, .L72
 856 000a 0546     		mov	r5, r0
  88:lvgl/src/lv_core/lv_style.c ****     style_dest->map = lv_mem_alloc(size);
 857              		.loc 1 88 5 is_stmt 1 view .LVU261
  88:lvgl/src/lv_core/lv_style.c ****     style_dest->map = lv_mem_alloc(size);
 858              		.loc 1 88 21 is_stmt 0 view .LVU262
 859 000c 0846     		mov	r0, r1
 860              	.LVL84:
  88:lvgl/src/lv_core/lv_style.c ****     style_dest->map = lv_mem_alloc(size);
 861              		.loc 1 88 21 view .LVU263
 862 000e FFF7FEFF 		bl	_lv_style_get_mem_size
 863              	.LVL85:
  88:lvgl/src/lv_core/lv_style.c ****     style_dest->map = lv_mem_alloc(size);
 864              		.loc 1 88 21 view .LVU264
 865 0012 0646     		mov	r6, r0
 866              	.LVL86:
  89:lvgl/src/lv_core/lv_style.c ****     _lv_memcpy(style_dest->map, style_src->map, size);
 867              		.loc 1 89 5 is_stmt 1 view .LVU265
  89:lvgl/src/lv_core/lv_style.c ****     _lv_memcpy(style_dest->map, style_src->map, size);
 868              		.loc 1 89 23 is_stmt 0 view .LVU266
 869 0014 FFF7FEFF 		bl	lv_mem_alloc
 870              	.LVL87:
  89:lvgl/src/lv_core/lv_style.c ****     _lv_memcpy(style_dest->map, style_src->map, size);
 871              		.loc 1 89 21 view .LVU267
 872 0018 2860     		str	r0, [r5]
  90:lvgl/src/lv_core/lv_style.c **** }
 873              		.loc 1 90 5 is_stmt 1 view .LVU268
 874 001a 3246     		mov	r2, r6
 875 001c 2168     		ldr	r1, [r4]
 876 001e FFF7FEFF 		bl	_lv_memcpy
 877              	.LVL88:
 878              	.L72:
  91:lvgl/src/lv_core/lv_style.c **** 
 879              		.loc 1 91 1 is_stmt 0 view .LVU269
 880 0022 70BD     		pop	{r4, r5, r6, pc}
 881              	.LVL89:
 882              	.L75:
 883              	.LCFI10:
 884              		.cfi_def_cfa_offset 0
 885              		.cfi_restore 4
 886              		.cfi_restore 5
 887              		.cfi_restore 6
 888              		.cfi_restore 14
ARM GAS  D:\Temp\cceOI0TF.s 			page 46


  91:lvgl/src/lv_core/lv_style.c **** 
 889              		.loc 1 91 1 view .LVU270
 890 0024 7047     		bx	lr
 891              		.cfi_endproc
 892              	.LFE459:
 894              		.section	.text.lv_style_remove_prop,"ax",%progbits
 895              		.align	1
 896              		.global	lv_style_remove_prop
 897              		.syntax unified
 898              		.thumb
 899              		.thumb_func
 900              		.fpu fpv4-sp-d16
 902              	lv_style_remove_prop:
 903              	.LVL90:
 904              	.LFB460:
 101:lvgl/src/lv_core/lv_style.c ****     if(style == NULL) return false;
 905              		.loc 1 101 1 is_stmt 1 view -0
 906              		.cfi_startproc
 907              		@ args = 0, pretend = 0, frame = 8
 908              		@ frame_needed = 0, uses_anonymous_args = 0
 102:lvgl/src/lv_core/lv_style.c ****     LV_ASSERT_STYLE(style);
 909              		.loc 1 102 5 view .LVU272
 102:lvgl/src/lv_core/lv_style.c ****     LV_ASSERT_STYLE(style);
 910              		.loc 1 102 7 is_stmt 0 view .LVU273
 911 0000 0028     		cmp	r0, #0
 912 0002 00F08B80 		beq	.L89
 101:lvgl/src/lv_core/lv_style.c ****     if(style == NULL) return false;
 913              		.loc 1 101 1 view .LVU274
 914 0006 2DE9F041 		push	{r4, r5, r6, r7, r8, lr}
 915              	.LCFI11:
 916              		.cfi_def_cfa_offset 24
 917              		.cfi_offset 4, -24
 918              		.cfi_offset 5, -20
 919              		.cfi_offset 6, -16
 920              		.cfi_offset 7, -12
 921              		.cfi_offset 8, -8
 922              		.cfi_offset 14, -4
 923 000a 82B0     		sub	sp, sp, #8
 924              	.LCFI12:
 925              		.cfi_def_cfa_offset 32
 926 000c 0746     		mov	r7, r0
 103:lvgl/src/lv_core/lv_style.c **** 
 927              		.loc 1 103 27 is_stmt 1 view .LVU275
 105:lvgl/src/lv_core/lv_style.c ****     /*The property exists but not sure it's state is the same*/
 928              		.loc 1 105 5 view .LVU276
 929              	.LVL91:
 930              	.LBB182:
 931              	.LBI182:
1053:lvgl/src/lv_core/lv_style.c **** {
 932              		.loc 1 1053 45 view .LVU277
 933              	.LBB183:
1055:lvgl/src/lv_core/lv_style.c **** 
 934              		.loc 1 1055 27 view .LVU278
1057:lvgl/src/lv_core/lv_style.c **** 
 935              		.loc 1 1057 5 view .LVU279
1057:lvgl/src/lv_core/lv_style.c **** 
 936              		.loc 1 1057 13 is_stmt 0 view .LVU280
ARM GAS  D:\Temp\cceOI0TF.s 			page 47


 937 000e 0368     		ldr	r3, [r0]
1057:lvgl/src/lv_core/lv_style.c **** 
 938              		.loc 1 1057 7 view .LVU281
 939 0010 002B     		cmp	r3, #0
 940 0012 5DD0     		beq	.L90
1059:lvgl/src/lv_core/lv_style.c ****     lv_style_attr_t attr;
 941              		.loc 1 1059 5 is_stmt 1 view .LVU282
1059:lvgl/src/lv_core/lv_style.c ****     lv_style_attr_t attr;
 942              		.loc 1 1059 13 is_stmt 0 view .LVU283
 943 0014 5FFA81FE 		uxtb	lr, r1
 944              	.LVL92:
1060:lvgl/src/lv_core/lv_style.c ****     attr = (prop >> 8) & 0xFF;
 945              		.loc 1 1060 5 is_stmt 1 view .LVU284
1061:lvgl/src/lv_core/lv_style.c **** 
 946              		.loc 1 1061 5 view .LVU285
1061:lvgl/src/lv_core/lv_style.c **** 
 947              		.loc 1 1061 10 is_stmt 0 view .LVU286
 948 0018 080A     		lsrs	r0, r1, #8
 949              	.LVL93:
1063:lvgl/src/lv_core/lv_style.c ****     int16_t id_guess = -1;
 950              		.loc 1 1063 5 is_stmt 1 view .LVU287
1064:lvgl/src/lv_core/lv_style.c **** 
 951              		.loc 1 1064 5 view .LVU288
1066:lvgl/src/lv_core/lv_style.c **** 
 952              		.loc 1 1066 5 view .LVU289
1068:lvgl/src/lv_core/lv_style.c ****     while((prop_id = get_style_prop_id(style, i)) != _LV_STYLE_CLOSING_PROP) {
 953              		.loc 1 1068 5 view .LVU290
1069:lvgl/src/lv_core/lv_style.c ****         if(prop_id == id_to_find) {
 954              		.loc 1 1069 5 view .LVU291
1066:lvgl/src/lv_core/lv_style.c **** 
 955              		.loc 1 1066 12 is_stmt 0 view .LVU292
 956 001a 0025     		movs	r5, #0
1064:lvgl/src/lv_core/lv_style.c **** 
 957              		.loc 1 1064 13 view .LVU293
 958 001c 4FF0FF36 		mov	r6, #-1
1063:lvgl/src/lv_core/lv_style.c ****     int16_t id_guess = -1;
 959              		.loc 1 1063 13 view .LVU294
 960 0020 B446     		mov	ip, r6
 961 0022 21E0     		b	.L81
 962              	.LVL94:
 963              	.L105:
 964              	.LBB184:
1071:lvgl/src/lv_core/lv_style.c ****             attr_i = get_style_prop_attr(style, i);
 965              		.loc 1 1071 13 is_stmt 1 view .LVU295
1072:lvgl/src/lv_core/lv_style.c **** 
 966              		.loc 1 1072 13 view .LVU296
 967              	.LBB185:
 968              	.LBI185:
1164:lvgl/src/lv_core/lv_style.c **** {
 969              		.loc 1 1164 23 view .LVU297
 970              	.LBB186:
1166:lvgl/src/lv_core/lv_style.c **** }
 971              		.loc 1 1166 5 view .LVU298
 972              	.LBB187:
 973              	.LBI187:
1138:lvgl/src/lv_core/lv_style.c **** {
 974              		.loc 1 1138 35 view .LVU299
ARM GAS  D:\Temp\cceOI0TF.s 			page 48


 975              	.LBB188:
1140:lvgl/src/lv_core/lv_style.c ****     uint8_t * prop_p = (uint8_t *)&prop;
 976              		.loc 1 1140 5 view .LVU300
1141:lvgl/src/lv_core/lv_style.c ****     prop_p[0] = style->map[idx];
 977              		.loc 1 1141 5 view .LVU301
1142:lvgl/src/lv_core/lv_style.c ****     prop_p[1] = style->map[idx + 1];
 978              		.loc 1 1142 5 view .LVU302
1142:lvgl/src/lv_core/lv_style.c ****     prop_p[1] = style->map[idx + 1];
 979              		.loc 1 1142 22 is_stmt 0 view .LVU303
 980 0024 3C68     		ldr	r4, [r7]
1142:lvgl/src/lv_core/lv_style.c ****     prop_p[1] = style->map[idx + 1];
 981              		.loc 1 1142 27 view .LVU304
 982 0026 14F80580 		ldrb	r8, [r4, r5]	@ zero_extendqisi2
1142:lvgl/src/lv_core/lv_style.c ****     prop_p[1] = style->map[idx + 1];
 983              		.loc 1 1142 15 view .LVU305
 984 002a 8DF80680 		strb	r8, [sp, #6]
1143:lvgl/src/lv_core/lv_style.c ****     return prop;
 985              		.loc 1 1143 5 is_stmt 1 view .LVU306
1143:lvgl/src/lv_core/lv_style.c ****     return prop;
 986              		.loc 1 1143 27 is_stmt 0 view .LVU307
 987 002e A25C     		ldrb	r2, [r4, r2]	@ zero_extendqisi2
1143:lvgl/src/lv_core/lv_style.c ****     return prop;
 988              		.loc 1 1143 15 view .LVU308
 989 0030 8DF80720 		strb	r2, [sp, #7]
1144:lvgl/src/lv_core/lv_style.c **** }
 990              		.loc 1 1144 5 is_stmt 1 view .LVU309
1144:lvgl/src/lv_core/lv_style.c **** }
 991              		.loc 1 1144 12 is_stmt 0 view .LVU310
 992 0034 BDF80640 		ldrh	r4, [sp, #6]
 993              	.LVL95:
1144:lvgl/src/lv_core/lv_style.c **** }
 994              		.loc 1 1144 12 view .LVU311
 995              	.LBE188:
 996              	.LBE187:
1166:lvgl/src/lv_core/lv_style.c **** }
 997              		.loc 1 1166 47 view .LVU312
 998 0038 240A     		lsrs	r4, r4, #8
 999 003a E2B2     		uxtb	r2, r4
 1000              	.LVL96:
1166:lvgl/src/lv_core/lv_style.c **** }
 1001              		.loc 1 1166 47 view .LVU313
 1002              	.LBE186:
 1003              	.LBE185:
1075:lvgl/src/lv_core/lv_style.c ****                 return i;
 1004              		.loc 1 1075 13 is_stmt 1 view .LVU314
1075:lvgl/src/lv_core/lv_style.c ****                 return i;
 1005              		.loc 1 1075 48 is_stmt 0 view .LVU315
 1006 003c 80EA0208 		eor	r8, r0, r2
1075:lvgl/src/lv_core/lv_style.c ****                 return i;
 1007              		.loc 1 1075 15 view .LVU316
 1008 0040 18F07F0F 		tst	r8, #127
 1009 0044 0CD0     		beq	.L103
1080:lvgl/src/lv_core/lv_style.c ****                 /* Use this property if it describes better the requested state than the current ca
 1010              		.loc 1 1080 18 is_stmt 1 view .LVU317
1080:lvgl/src/lv_core/lv_style.c ****                 /* Use this property if it describes better the requested state than the current ca
 1011              		.loc 1 1080 22 is_stmt 0 view .LVU318
 1012 0046 02F07F02 		and	r2, r2, #127
ARM GAS  D:\Temp\cceOI0TF.s 			page 49


 1013              	.LVL97:
1080:lvgl/src/lv_core/lv_style.c ****                 /* Use this property if it describes better the requested state than the current ca
 1014              		.loc 1 1080 58 view .LVU319
 1015 004a 00F07F08 		and	r8, r0, #127
1080:lvgl/src/lv_core/lv_style.c ****                 /* Use this property if it describes better the requested state than the current ca
 1016              		.loc 1 1080 20 view .LVU320
 1017 004e 32EA0808 		bics	r8, r2, r8
 1018 0052 17D1     		bne	.L82
1083:lvgl/src/lv_core/lv_style.c ****                     weight = LV_STYLE_ATTR_GET_STATE(attr_i);
 1019              		.loc 1 1083 17 is_stmt 1 view .LVU321
1083:lvgl/src/lv_core/lv_style.c ****                     weight = LV_STYLE_ATTR_GET_STATE(attr_i);
 1020              		.loc 1 1083 19 is_stmt 0 view .LVU322
 1021 0054 6245     		cmp	r2, ip
 1022 0056 15DD     		ble	.L82
1084:lvgl/src/lv_core/lv_style.c ****                     id_guess = i;
 1023              		.loc 1 1084 21 is_stmt 1 view .LVU323
1084:lvgl/src/lv_core/lv_style.c ****                     id_guess = i;
 1024              		.loc 1 1084 28 is_stmt 0 view .LVU324
 1025 0058 04F07F0C 		and	ip, r4, #127
 1026              	.LVL98:
1085:lvgl/src/lv_core/lv_style.c ****                 }
 1027              		.loc 1 1085 21 is_stmt 1 view .LVU325
1085:lvgl/src/lv_core/lv_style.c ****                 }
 1028              		.loc 1 1085 30 is_stmt 0 view .LVU326
 1029 005c 2EB2     		sxth	r6, r5
 1030              	.LVL99:
1085:lvgl/src/lv_core/lv_style.c ****                 }
 1031              		.loc 1 1085 30 view .LVU327
 1032 005e 11E0     		b	.L82
 1033              	.LVL100:
 1034              	.L103:
1076:lvgl/src/lv_core/lv_style.c ****             }
 1035              		.loc 1 1076 17 is_stmt 1 view .LVU328
1076:lvgl/src/lv_core/lv_style.c ****             }
 1036              		.loc 1 1076 24 is_stmt 0 view .LVU329
 1037 0060 2B46     		mov	r3, r5
 1038              	.LVL101:
1076:lvgl/src/lv_core/lv_style.c ****             }
 1039              		.loc 1 1076 24 view .LVU330
 1040 0062 1EE0     		b	.L80
 1041              	.LVL102:
 1042              	.L91:
1076:lvgl/src/lv_core/lv_style.c ****             }
 1043              		.loc 1 1076 24 view .LVU331
 1044              	.LBE184:
 1045              	.LBB189:
 1046              	.LBB190:
 1047              	.LBB191:
 1048              	.LBB192:
1179:lvgl/src/lv_core/lv_style.c ****     else if(prop_id < LV_STYLE_ID_OPA) size += sizeof(lv_color_t);
 1049              		.loc 1 1179 42 view .LVU332
 1050 0064 0422     		movs	r2, #4
 1051              	.LVL103:
 1052              	.L84:
1183:lvgl/src/lv_core/lv_style.c **** }
 1053              		.loc 1 1183 5 is_stmt 1 view .LVU333
1183:lvgl/src/lv_core/lv_style.c **** }
ARM GAS  D:\Temp\cceOI0TF.s 			page 50


 1054              		.loc 1 1183 5 is_stmt 0 view .LVU334
 1055              	.LBE192:
 1056              	.LBE191:
 1057              		.loc 1 1194 16 view .LVU335
 1058 0066 1544     		add	r5, r5, r2
 1059              	.LVL104:
 1060              	.L81:
 1061              		.loc 1 1194 16 view .LVU336
 1062              	.LBE190:
 1063              	.LBE189:
 1064              	.LBB196:
 1065              	.LBI196:
1153:lvgl/src/lv_core/lv_style.c **** {
 1066              		.loc 1 1153 23 is_stmt 1 view .LVU337
 1067              	.LBB197:
1155:lvgl/src/lv_core/lv_style.c **** }
 1068              		.loc 1 1155 5 view .LVU338
 1069              	.LBB198:
 1070              	.LBI198:
1138:lvgl/src/lv_core/lv_style.c **** {
 1071              		.loc 1 1138 35 view .LVU339
 1072              	.LBB199:
1140:lvgl/src/lv_core/lv_style.c ****     uint8_t * prop_p = (uint8_t *)&prop;
 1073              		.loc 1 1140 5 view .LVU340
1141:lvgl/src/lv_core/lv_style.c ****     prop_p[0] = style->map[idx];
 1074              		.loc 1 1141 5 view .LVU341
1142:lvgl/src/lv_core/lv_style.c ****     prop_p[1] = style->map[idx + 1];
 1075              		.loc 1 1142 5 view .LVU342
1142:lvgl/src/lv_core/lv_style.c ****     prop_p[1] = style->map[idx + 1];
 1076              		.loc 1 1142 22 is_stmt 0 view .LVU343
 1077 0068 3B68     		ldr	r3, [r7]
1142:lvgl/src/lv_core/lv_style.c ****     prop_p[1] = style->map[idx + 1];
 1078              		.loc 1 1142 27 view .LVU344
 1079 006a 5A5D     		ldrb	r2, [r3, r5]	@ zero_extendqisi2
1142:lvgl/src/lv_core/lv_style.c ****     prop_p[1] = style->map[idx + 1];
 1080              		.loc 1 1142 15 view .LVU345
 1081 006c 8DF80620 		strb	r2, [sp, #6]
1143:lvgl/src/lv_core/lv_style.c ****     return prop;
 1082              		.loc 1 1143 5 is_stmt 1 view .LVU346
1143:lvgl/src/lv_core/lv_style.c ****     return prop;
 1083              		.loc 1 1143 27 is_stmt 0 view .LVU347
 1084 0070 6A1C     		adds	r2, r5, #1
 1085 0072 9B5C     		ldrb	r3, [r3, r2]	@ zero_extendqisi2
1143:lvgl/src/lv_core/lv_style.c ****     return prop;
 1086              		.loc 1 1143 15 view .LVU348
 1087 0074 8DF80730 		strb	r3, [sp, #7]
1144:lvgl/src/lv_core/lv_style.c **** }
 1088              		.loc 1 1144 5 is_stmt 1 view .LVU349
 1089              	.LVL105:
1144:lvgl/src/lv_core/lv_style.c **** }
 1090              		.loc 1 1144 5 is_stmt 0 view .LVU350
 1091              	.LBE199:
 1092              	.LBE198:
1155:lvgl/src/lv_core/lv_style.c **** }
 1093              		.loc 1 1155 39 view .LVU351
 1094 0078 9DF80630 		ldrb	r3, [sp, #6]	@ zero_extendqisi2
 1095              	.LVL106:
ARM GAS  D:\Temp\cceOI0TF.s 			page 51


1155:lvgl/src/lv_core/lv_style.c **** }
 1096              		.loc 1 1155 39 view .LVU352
 1097              	.LBE197:
 1098              	.LBE196:
1069:lvgl/src/lv_core/lv_style.c ****         if(prop_id == id_to_find) {
 1099              		.loc 1 1069 10 view .LVU353
 1100 007c FF2B     		cmp	r3, #255
 1101 007e 0FD0     		beq	.L104
1070:lvgl/src/lv_core/lv_style.c ****             lv_style_attr_t attr_i;
 1102              		.loc 1 1070 9 is_stmt 1 view .LVU354
1070:lvgl/src/lv_core/lv_style.c ****             lv_style_attr_t attr_i;
 1103              		.loc 1 1070 11 is_stmt 0 view .LVU355
 1104 0080 9E45     		cmp	lr, r3
 1105 0082 CFD0     		beq	.L105
 1106              	.L82:
1090:lvgl/src/lv_core/lv_style.c ****     }
 1107              		.loc 1 1090 9 is_stmt 1 view .LVU356
 1108              	.LVL107:
 1109              	.LBB200:
 1110              	.LBI189:
1192:lvgl/src/lv_core/lv_style.c **** {
 1111              		.loc 1 1192 22 view .LVU357
 1112              	.LBB195:
 1113              		.loc 1 1194 5 view .LVU358
 1114              	.LBB194:
 1115              	.LBI191:
1175:lvgl/src/lv_core/lv_style.c **** {
 1116              		.loc 1 1175 22 view .LVU359
 1117              	.LBB193:
1177:lvgl/src/lv_core/lv_style.c ****     size_t size = sizeof(lv_style_property_t);
 1118              		.loc 1 1177 5 view .LVU360
1177:lvgl/src/lv_core/lv_style.c ****     size_t size = sizeof(lv_style_property_t);
 1119              		.loc 1 1177 13 is_stmt 0 view .LVU361
 1120 0084 03F00F02 		and	r2, r3, #15
 1121              	.LVL108:
1178:lvgl/src/lv_core/lv_style.c ****     if(prop_id < LV_STYLE_ID_COLOR) size += sizeof(lv_style_int_t);
 1122              		.loc 1 1178 5 is_stmt 1 view .LVU362
1179:lvgl/src/lv_core/lv_style.c ****     else if(prop_id < LV_STYLE_ID_OPA) size += sizeof(lv_color_t);
 1123              		.loc 1 1179 5 view .LVU363
1179:lvgl/src/lv_core/lv_style.c ****     else if(prop_id < LV_STYLE_ID_OPA) size += sizeof(lv_color_t);
 1124              		.loc 1 1179 7 is_stmt 0 view .LVU364
 1125 0088 082A     		cmp	r2, #8
 1126 008a EBD9     		bls	.L91
1180:lvgl/src/lv_core/lv_style.c ****     else if(prop_id < LV_STYLE_ID_PTR) size += sizeof(lv_opa_t);
 1127              		.loc 1 1180 10 is_stmt 1 view .LVU365
1180:lvgl/src/lv_core/lv_style.c ****     else if(prop_id < LV_STYLE_ID_PTR) size += sizeof(lv_opa_t);
 1128              		.loc 1 1180 12 is_stmt 0 view .LVU366
 1129 008c 0B2A     		cmp	r2, #11
 1130 008e 03D9     		bls	.L92
1181:lvgl/src/lv_core/lv_style.c ****     else size += sizeof(const void *);
 1131              		.loc 1 1181 10 is_stmt 1 view .LVU367
1181:lvgl/src/lv_core/lv_style.c ****     else size += sizeof(const void *);
 1132              		.loc 1 1181 12 is_stmt 0 view .LVU368
 1133 0090 0D2A     		cmp	r2, #13
 1134 0092 03D8     		bhi	.L93
1181:lvgl/src/lv_core/lv_style.c ****     else size += sizeof(const void *);
 1135              		.loc 1 1181 45 view .LVU369
ARM GAS  D:\Temp\cceOI0TF.s 			page 52


 1136 0094 0322     		movs	r2, #3
 1137              	.LVL109:
1181:lvgl/src/lv_core/lv_style.c ****     else size += sizeof(const void *);
 1138              		.loc 1 1181 45 view .LVU370
 1139 0096 E6E7     		b	.L84
 1140              	.LVL110:
 1141              	.L92:
1180:lvgl/src/lv_core/lv_style.c ****     else if(prop_id < LV_STYLE_ID_PTR) size += sizeof(lv_opa_t);
 1142              		.loc 1 1180 45 view .LVU371
 1143 0098 0422     		movs	r2, #4
 1144              	.LVL111:
1180:lvgl/src/lv_core/lv_style.c ****     else if(prop_id < LV_STYLE_ID_PTR) size += sizeof(lv_opa_t);
 1145              		.loc 1 1180 45 view .LVU372
 1146 009a E4E7     		b	.L84
 1147              	.LVL112:
 1148              	.L93:
1182:lvgl/src/lv_core/lv_style.c ****     return size;
 1149              		.loc 1 1182 15 view .LVU373
 1150 009c 0622     		movs	r2, #6
 1151              	.LVL113:
1182:lvgl/src/lv_core/lv_style.c ****     return size;
 1152              		.loc 1 1182 15 view .LVU374
 1153 009e E2E7     		b	.L84
 1154              	.LVL114:
 1155              	.L104:
1182:lvgl/src/lv_core/lv_style.c ****     return size;
 1156              		.loc 1 1182 15 view .LVU375
 1157              	.LBE193:
 1158              	.LBE194:
 1159              	.LBE195:
 1160              	.LBE200:
1093:lvgl/src/lv_core/lv_style.c **** }
 1161              		.loc 1 1093 5 is_stmt 1 view .LVU376
1093:lvgl/src/lv_core/lv_style.c **** }
 1162              		.loc 1 1093 12 is_stmt 0 view .LVU377
 1163 00a0 3346     		mov	r3, r6
 1164              	.LVL115:
 1165              	.L80:
1093:lvgl/src/lv_core/lv_style.c **** }
 1166              		.loc 1 1093 12 view .LVU378
 1167              	.LBE183:
 1168              	.LBE182:
 107:lvgl/src/lv_core/lv_style.c ****         lv_style_attr_t attr_found;
 1169              		.loc 1 107 5 is_stmt 1 view .LVU379
 107:lvgl/src/lv_core/lv_style.c ****         lv_style_attr_t attr_found;
 1170              		.loc 1 107 7 is_stmt 0 view .LVU380
 1171 00a2 002B     		cmp	r3, #0
 1172 00a4 3CDB     		blt	.L94
 1173              	.LBB202:
 108:lvgl/src/lv_core/lv_style.c ****         lv_style_attr_t attr_goal;
 1174              		.loc 1 108 9 is_stmt 1 view .LVU381
 109:lvgl/src/lv_core/lv_style.c **** 
 1175              		.loc 1 109 9 view .LVU382
 111:lvgl/src/lv_core/lv_style.c ****         attr_goal = (prop >> 8) & 0xFFU;
 1176              		.loc 1 111 9 view .LVU383
 111:lvgl/src/lv_core/lv_style.c ****         attr_goal = (prop >> 8) & 0xFFU;
 1177              		.loc 1 111 22 is_stmt 0 view .LVU384
ARM GAS  D:\Temp\cceOI0TF.s 			page 53


 1178 00a6 1C46     		mov	r4, r3
 1179              	.LVL116:
 1180              	.LBB203:
 1181              	.LBI203:
1164:lvgl/src/lv_core/lv_style.c **** {
 1182              		.loc 1 1164 23 is_stmt 1 view .LVU385
 1183              	.LBB204:
1166:lvgl/src/lv_core/lv_style.c **** }
 1184              		.loc 1 1166 5 view .LVU386
 1185              	.LBB205:
 1186              	.LBI205:
1138:lvgl/src/lv_core/lv_style.c **** {
 1187              		.loc 1 1138 35 view .LVU387
 1188              	.LBB206:
1140:lvgl/src/lv_core/lv_style.c ****     uint8_t * prop_p = (uint8_t *)&prop;
 1189              		.loc 1 1140 5 view .LVU388
1141:lvgl/src/lv_core/lv_style.c ****     prop_p[0] = style->map[idx];
 1190              		.loc 1 1141 5 view .LVU389
1142:lvgl/src/lv_core/lv_style.c ****     prop_p[1] = style->map[idx + 1];
 1191              		.loc 1 1142 5 view .LVU390
1142:lvgl/src/lv_core/lv_style.c ****     prop_p[1] = style->map[idx + 1];
 1192              		.loc 1 1142 22 is_stmt 0 view .LVU391
 1193 00a8 3A68     		ldr	r2, [r7]
1142:lvgl/src/lv_core/lv_style.c ****     prop_p[1] = style->map[idx + 1];
 1194              		.loc 1 1142 27 view .LVU392
 1195 00aa D05C     		ldrb	r0, [r2, r3]	@ zero_extendqisi2
1142:lvgl/src/lv_core/lv_style.c ****     prop_p[1] = style->map[idx + 1];
 1196              		.loc 1 1142 15 view .LVU393
 1197 00ac 8DF80600 		strb	r0, [sp, #6]
1143:lvgl/src/lv_core/lv_style.c ****     return prop;
 1198              		.loc 1 1143 5 is_stmt 1 view .LVU394
1143:lvgl/src/lv_core/lv_style.c ****     return prop;
 1199              		.loc 1 1143 27 is_stmt 0 view .LVU395
 1200 00b0 1344     		add	r3, r3, r2
 1201              	.LVL117:
1143:lvgl/src/lv_core/lv_style.c ****     return prop;
 1202              		.loc 1 1143 27 view .LVU396
 1203 00b2 5B78     		ldrb	r3, [r3, #1]	@ zero_extendqisi2
1143:lvgl/src/lv_core/lv_style.c ****     return prop;
 1204              		.loc 1 1143 15 view .LVU397
 1205 00b4 8DF80730 		strb	r3, [sp, #7]
1144:lvgl/src/lv_core/lv_style.c **** }
 1206              		.loc 1 1144 5 is_stmt 1 view .LVU398
1144:lvgl/src/lv_core/lv_style.c **** }
 1207              		.loc 1 1144 12 is_stmt 0 view .LVU399
 1208 00b8 BDF80620 		ldrh	r2, [sp, #6]
 1209              	.LVL118:
1144:lvgl/src/lv_core/lv_style.c **** }
 1210              		.loc 1 1144 12 view .LVU400
 1211              	.LBE206:
 1212              	.LBE205:
 1213              	.LBE204:
 1214              	.LBE203:
 112:lvgl/src/lv_core/lv_style.c **** 
 1215              		.loc 1 112 9 is_stmt 1 view .LVU401
 112:lvgl/src/lv_core/lv_style.c **** 
 1216              		.loc 1 112 19 is_stmt 0 view .LVU402
ARM GAS  D:\Temp\cceOI0TF.s 			page 54


 1217 00bc 0B0A     		lsrs	r3, r1, #8
 1218              	.LVL119:
 114:lvgl/src/lv_core/lv_style.c ****             uint32_t map_size = _lv_style_get_mem_size(style);
 1219              		.loc 1 114 9 is_stmt 1 view .LVU403
 114:lvgl/src/lv_core/lv_style.c ****             uint32_t map_size = _lv_style_get_mem_size(style);
 1220              		.loc 1 114 48 is_stmt 0 view .LVU404
 1221 00be 83EA1223 		eor	r3, r3, r2, lsr #8
 1222              	.LVL120:
 114:lvgl/src/lv_core/lv_style.c ****             uint32_t map_size = _lv_style_get_mem_size(style);
 1223              		.loc 1 114 11 view .LVU405
 1224 00c2 13F07F0F 		tst	r3, #127
 1225 00c6 06D0     		beq	.L106
 1226              	.LBE202:
 130:lvgl/src/lv_core/lv_style.c **** }
 1227              		.loc 1 130 12 view .LVU406
 1228 00c8 0020     		movs	r0, #0
 1229              	.LVL121:
 1230              	.L79:
 131:lvgl/src/lv_core/lv_style.c **** 
 1231              		.loc 1 131 1 view .LVU407
 1232 00ca 02B0     		add	sp, sp, #8
 1233              	.LCFI13:
 1234              		.cfi_remember_state
 1235              		.cfi_def_cfa_offset 24
 1236              		@ sp needed
 1237 00cc BDE8F081 		pop	{r4, r5, r6, r7, r8, pc}
 1238              	.LVL122:
 1239              	.L90:
 1240              	.LCFI14:
 1241              		.cfi_restore_state
 1242              	.LBB214:
 1243              	.LBB201:
1057:lvgl/src/lv_core/lv_style.c **** 
 1244              		.loc 1 1057 35 view .LVU408
 1245 00d0 4FF0FF33 		mov	r3, #-1
 1246 00d4 E5E7     		b	.L80
 1247              	.LVL123:
 1248              	.L106:
1057:lvgl/src/lv_core/lv_style.c **** 
 1249              		.loc 1 1057 35 view .LVU409
 1250 00d6 0D46     		mov	r5, r1
 1251              	.LBE201:
 1252              	.LBE214:
 1253              	.LBB215:
 1254              	.LBB207:
 115:lvgl/src/lv_core/lv_style.c ****             uint8_t prop_size = get_prop_size(prop);
 1255              		.loc 1 115 13 is_stmt 1 view .LVU410
 115:lvgl/src/lv_core/lv_style.c ****             uint8_t prop_size = get_prop_size(prop);
 1256              		.loc 1 115 33 is_stmt 0 view .LVU411
 1257 00d8 3846     		mov	r0, r7
 1258 00da FFF7FEFF 		bl	_lv_style_get_mem_size
 1259              	.LVL124:
 116:lvgl/src/lv_core/lv_style.c **** 
 1260              		.loc 1 116 13 is_stmt 1 view .LVU412
 1261              	.LBB208:
 1262              	.LBI208:
1175:lvgl/src/lv_core/lv_style.c **** {
ARM GAS  D:\Temp\cceOI0TF.s 			page 55


 1263              		.loc 1 1175 22 view .LVU413
 1264              	.LBB209:
1177:lvgl/src/lv_core/lv_style.c ****     size_t size = sizeof(lv_style_property_t);
 1265              		.loc 1 1177 5 view .LVU414
1177:lvgl/src/lv_core/lv_style.c ****     size_t size = sizeof(lv_style_property_t);
 1266              		.loc 1 1177 13 is_stmt 0 view .LVU415
 1267 00de 05F00F01 		and	r1, r5, #15
 1268              	.LVL125:
1178:lvgl/src/lv_core/lv_style.c ****     if(prop_id < LV_STYLE_ID_COLOR) size += sizeof(lv_style_int_t);
 1269              		.loc 1 1178 5 is_stmt 1 view .LVU416
1179:lvgl/src/lv_core/lv_style.c ****     else if(prop_id < LV_STYLE_ID_OPA) size += sizeof(lv_color_t);
 1270              		.loc 1 1179 5 view .LVU417
1179:lvgl/src/lv_core/lv_style.c ****     else if(prop_id < LV_STYLE_ID_OPA) size += sizeof(lv_color_t);
 1271              		.loc 1 1179 7 is_stmt 0 view .LVU418
 1272 00e2 0829     		cmp	r1, #8
 1273 00e4 05D9     		bls	.L96
1180:lvgl/src/lv_core/lv_style.c ****     else if(prop_id < LV_STYLE_ID_PTR) size += sizeof(lv_opa_t);
 1274              		.loc 1 1180 10 is_stmt 1 view .LVU419
1180:lvgl/src/lv_core/lv_style.c ****     else if(prop_id < LV_STYLE_ID_PTR) size += sizeof(lv_opa_t);
 1275              		.loc 1 1180 12 is_stmt 0 view .LVU420
 1276 00e6 0B29     		cmp	r1, #11
 1277 00e8 0ED9     		bls	.L97
1181:lvgl/src/lv_core/lv_style.c ****     else size += sizeof(const void *);
 1278              		.loc 1 1181 10 is_stmt 1 view .LVU421
1181:lvgl/src/lv_core/lv_style.c ****     else size += sizeof(const void *);
 1279              		.loc 1 1181 12 is_stmt 0 view .LVU422
 1280 00ea 0D29     		cmp	r1, #13
 1281 00ec 0ED8     		bhi	.L98
1181:lvgl/src/lv_core/lv_style.c ****     else size += sizeof(const void *);
 1282              		.loc 1 1181 45 view .LVU423
 1283 00ee 0325     		movs	r5, #3
 1284              	.LVL126:
1181:lvgl/src/lv_core/lv_style.c ****     else size += sizeof(const void *);
 1285              		.loc 1 1181 45 view .LVU424
 1286 00f0 00E0     		b	.L87
 1287              	.LVL127:
 1288              	.L96:
1179:lvgl/src/lv_core/lv_style.c ****     else if(prop_id < LV_STYLE_ID_OPA) size += sizeof(lv_color_t);
 1289              		.loc 1 1179 42 view .LVU425
 1290 00f2 0425     		movs	r5, #4
 1291              	.LVL128:
 1292              	.L87:
1179:lvgl/src/lv_core/lv_style.c ****     else if(prop_id < LV_STYLE_ID_OPA) size += sizeof(lv_color_t);
 1293              		.loc 1 1179 42 view .LVU426
 1294 00f4 EBB2     		uxtb	r3, r5
 1295              	.LBE209:
 1296              	.LBE208:
 120:lvgl/src/lv_core/lv_style.c ****                 style->map[i] = style->map[i + prop_size];
 1297              		.loc 1 120 38 discriminator 1 view .LVU427
 1298 00f6 C11A     		subs	r1, r0, r3
 120:lvgl/src/lv_core/lv_style.c ****                 style->map[i] = style->map[i + prop_size];
 1299              		.loc 1 120 13 discriminator 1 view .LVU428
 1300 00f8 A142     		cmp	r1, r4
 1301 00fa 09D9     		bls	.L107
 121:lvgl/src/lv_core/lv_style.c ****             }
 1302              		.loc 1 121 17 is_stmt 1 discriminator 3 view .LVU429
 121:lvgl/src/lv_core/lv_style.c ****             }
ARM GAS  D:\Temp\cceOI0TF.s 			page 56


 1303              		.loc 1 121 38 is_stmt 0 discriminator 3 view .LVU430
 1304 00fc 3A68     		ldr	r2, [r7]
 121:lvgl/src/lv_core/lv_style.c ****             }
 1305              		.loc 1 121 46 discriminator 3 view .LVU431
 1306 00fe 2344     		add	r3, r3, r4
 121:lvgl/src/lv_core/lv_style.c ****             }
 1307              		.loc 1 121 43 discriminator 3 view .LVU432
 1308 0100 D35C     		ldrb	r3, [r2, r3]	@ zero_extendqisi2
 121:lvgl/src/lv_core/lv_style.c ****             }
 1309              		.loc 1 121 31 discriminator 3 view .LVU433
 1310 0102 1355     		strb	r3, [r2, r4]
 120:lvgl/src/lv_core/lv_style.c ****                 style->map[i] = style->map[i + prop_size];
 1311              		.loc 1 120 52 discriminator 3 view .LVU434
 1312 0104 0134     		adds	r4, r4, #1
 1313              	.LVL129:
 120:lvgl/src/lv_core/lv_style.c ****                 style->map[i] = style->map[i + prop_size];
 1314              		.loc 1 120 52 discriminator 3 view .LVU435
 1315 0106 F5E7     		b	.L87
 1316              	.LVL130:
 1317              	.L97:
 1318              	.LBB211:
 1319              	.LBB210:
1180:lvgl/src/lv_core/lv_style.c ****     else if(prop_id < LV_STYLE_ID_PTR) size += sizeof(lv_opa_t);
 1320              		.loc 1 1180 45 view .LVU436
 1321 0108 0425     		movs	r5, #4
 1322              	.LVL131:
1180:lvgl/src/lv_core/lv_style.c ****     else if(prop_id < LV_STYLE_ID_PTR) size += sizeof(lv_opa_t);
 1323              		.loc 1 1180 45 view .LVU437
 1324 010a F3E7     		b	.L87
 1325              	.LVL132:
 1326              	.L98:
1182:lvgl/src/lv_core/lv_style.c ****     return size;
 1327              		.loc 1 1182 15 view .LVU438
 1328 010c 0625     		movs	r5, #6
 1329              	.LVL133:
1183:lvgl/src/lv_core/lv_style.c **** }
 1330              		.loc 1 1183 5 is_stmt 1 view .LVU439
1183:lvgl/src/lv_core/lv_style.c **** }
 1331              		.loc 1 1183 5 is_stmt 0 view .LVU440
 1332              	.LBE210:
 1333              	.LBE211:
 119:lvgl/src/lv_core/lv_style.c ****             for(i = id; i < map_size - prop_size; i++) {
 1334              		.loc 1 119 13 is_stmt 1 view .LVU441
 120:lvgl/src/lv_core/lv_style.c ****                 style->map[i] = style->map[i + prop_size];
 1335              		.loc 1 120 13 view .LVU442
 120:lvgl/src/lv_core/lv_style.c ****                 style->map[i] = style->map[i + prop_size];
 1336              		.loc 1 120 13 is_stmt 0 view .LVU443
 1337 010e F1E7     		b	.L87
 1338              	.LVL134:
 1339              	.L107:
 124:lvgl/src/lv_core/lv_style.c **** 
 1340              		.loc 1 124 13 is_stmt 1 view .LVU444
 1341              	.LBB212:
 1342              	.LBI212:
1127:lvgl/src/lv_core/lv_style.c **** {
 1343              		.loc 1 1127 20 view .LVU445
 1344              	.LBB213:
ARM GAS  D:\Temp\cceOI0TF.s 			page 57


1129:lvgl/src/lv_core/lv_style.c **** }
 1345              		.loc 1 1129 5 view .LVU446
1129:lvgl/src/lv_core/lv_style.c **** }
 1346              		.loc 1 1129 18 is_stmt 0 view .LVU447
 1347 0110 3868     		ldr	r0, [r7]
 1348              	.LVL135:
1129:lvgl/src/lv_core/lv_style.c **** }
 1349              		.loc 1 1129 18 view .LVU448
 1350 0112 FFF7FEFF 		bl	lv_mem_realloc
 1351              	.LVL136:
1129:lvgl/src/lv_core/lv_style.c **** }
 1352              		.loc 1 1129 16 view .LVU449
 1353 0116 3860     		str	r0, [r7]
 1354              	.LVL137:
1129:lvgl/src/lv_core/lv_style.c **** }
 1355              		.loc 1 1129 16 view .LVU450
 1356              	.LBE213:
 1357              	.LBE212:
 126:lvgl/src/lv_core/lv_style.c ****         }
 1358              		.loc 1 126 13 is_stmt 1 view .LVU451
 126:lvgl/src/lv_core/lv_style.c ****         }
 1359              		.loc 1 126 20 is_stmt 0 view .LVU452
 1360 0118 0120     		movs	r0, #1
 1361 011a D6E7     		b	.L79
 1362              	.LVL138:
 1363              	.L89:
 1364              	.LCFI15:
 1365              		.cfi_def_cfa_offset 0
 1366              		.cfi_restore 4
 1367              		.cfi_restore 5
 1368              		.cfi_restore 6
 1369              		.cfi_restore 7
 1370              		.cfi_restore 8
 1371              		.cfi_restore 14
 126:lvgl/src/lv_core/lv_style.c ****         }
 1372              		.loc 1 126 20 view .LVU453
 1373              	.LBE207:
 1374              	.LBE215:
 102:lvgl/src/lv_core/lv_style.c ****     LV_ASSERT_STYLE(style);
 1375              		.loc 1 102 30 view .LVU454
 1376 011c 0020     		movs	r0, #0
 1377              	.LVL139:
 131:lvgl/src/lv_core/lv_style.c **** 
 1378              		.loc 1 131 1 view .LVU455
 1379 011e 7047     		bx	lr
 1380              	.LVL140:
 1381              	.L94:
 1382              	.LCFI16:
 1383              		.cfi_def_cfa_offset 32
 1384              		.cfi_offset 4, -24
 1385              		.cfi_offset 5, -20
 1386              		.cfi_offset 6, -16
 1387              		.cfi_offset 7, -12
 1388              		.cfi_offset 8, -8
 1389              		.cfi_offset 14, -4
 130:lvgl/src/lv_core/lv_style.c **** }
 1390              		.loc 1 130 12 view .LVU456
ARM GAS  D:\Temp\cceOI0TF.s 			page 58


 1391 0120 0020     		movs	r0, #0
 1392 0122 D2E7     		b	.L79
 1393              		.cfi_endproc
 1394              	.LFE460:
 1396              		.section	.text._lv_style_set_int,"ax",%progbits
 1397              		.align	1
 1398              		.global	_lv_style_set_int
 1399              		.syntax unified
 1400              		.thumb
 1401              		.thumb_func
 1402              		.fpu fpv4-sp-d16
 1404              	_lv_style_set_int:
 1405              	.LVL141:
 1406              	.LFB468:
 361:lvgl/src/lv_core/lv_style.c ****     LV_ASSERT_STYLE(style);
 1407              		.loc 1 361 1 is_stmt 1 view -0
 1408              		.cfi_startproc
 1409              		@ args = 0, pretend = 0, frame = 16
 1410              		@ frame_needed = 0, uses_anonymous_args = 0
 361:lvgl/src/lv_core/lv_style.c ****     LV_ASSERT_STYLE(style);
 1411              		.loc 1 361 1 is_stmt 0 view .LVU458
 1412 0000 F0B5     		push	{r4, r5, r6, r7, lr}
 1413              	.LCFI17:
 1414              		.cfi_def_cfa_offset 20
 1415              		.cfi_offset 4, -20
 1416              		.cfi_offset 5, -16
 1417              		.cfi_offset 6, -12
 1418              		.cfi_offset 7, -8
 1419              		.cfi_offset 14, -4
 1420 0002 85B0     		sub	sp, sp, #20
 1421              	.LCFI18:
 1422              		.cfi_def_cfa_offset 40
 1423 0004 ADF80610 		strh	r1, [sp, #6]	@ movhi
 1424 0008 ADF80420 		strh	r2, [sp, #4]	@ movhi
 362:lvgl/src/lv_core/lv_style.c **** 
 1425              		.loc 1 362 27 is_stmt 1 view .LVU459
 364:lvgl/src/lv_core/lv_style.c ****     /*The property already exists but not sure it's state is the same*/
 1426              		.loc 1 364 5 view .LVU460
 1427              	.LVL142:
 1428              	.LBB246:
 1429              	.LBI246:
1053:lvgl/src/lv_core/lv_style.c **** {
 1430              		.loc 1 1053 45 view .LVU461
 1431              	.LBB247:
1055:lvgl/src/lv_core/lv_style.c **** 
 1432              		.loc 1 1055 27 view .LVU462
1057:lvgl/src/lv_core/lv_style.c **** 
 1433              		.loc 1 1057 5 view .LVU463
1057:lvgl/src/lv_core/lv_style.c **** 
 1434              		.loc 1 1057 13 is_stmt 0 view .LVU464
 1435 000c 0368     		ldr	r3, [r0]
1057:lvgl/src/lv_core/lv_style.c **** 
 1436              		.loc 1 1057 7 view .LVU465
 1437 000e 002B     		cmp	r3, #0
 1438 0010 77D0     		beq	.L129
1059:lvgl/src/lv_core/lv_style.c ****     lv_style_attr_t attr;
 1439              		.loc 1 1059 5 is_stmt 1 view .LVU466
ARM GAS  D:\Temp\cceOI0TF.s 			page 59


1059:lvgl/src/lv_core/lv_style.c ****     lv_style_attr_t attr;
 1440              		.loc 1 1059 13 is_stmt 0 view .LVU467
 1441 0012 CFB2     		uxtb	r7, r1
 1442              	.LVL143:
1060:lvgl/src/lv_core/lv_style.c ****     attr = (prop >> 8) & 0xFF;
 1443              		.loc 1 1060 5 is_stmt 1 view .LVU468
1061:lvgl/src/lv_core/lv_style.c **** 
 1444              		.loc 1 1061 5 view .LVU469
1061:lvgl/src/lv_core/lv_style.c **** 
 1445              		.loc 1 1061 10 is_stmt 0 view .LVU470
 1446 0014 0E0A     		lsrs	r6, r1, #8
 1447              	.LVL144:
1063:lvgl/src/lv_core/lv_style.c ****     int16_t id_guess = -1;
 1448              		.loc 1 1063 5 is_stmt 1 view .LVU471
1064:lvgl/src/lv_core/lv_style.c **** 
 1449              		.loc 1 1064 5 view .LVU472
1066:lvgl/src/lv_core/lv_style.c **** 
 1450              		.loc 1 1066 5 view .LVU473
1068:lvgl/src/lv_core/lv_style.c ****     while((prop_id = get_style_prop_id(style, i)) != _LV_STYLE_CLOSING_PROP) {
 1451              		.loc 1 1068 5 view .LVU474
1069:lvgl/src/lv_core/lv_style.c ****         if(prop_id == id_to_find) {
 1452              		.loc 1 1069 5 view .LVU475
1066:lvgl/src/lv_core/lv_style.c **** 
 1453              		.loc 1 1066 12 is_stmt 0 view .LVU476
 1454 0016 0022     		movs	r2, #0
 1455              	.LVL145:
1064:lvgl/src/lv_core/lv_style.c **** 
 1456              		.loc 1 1064 13 view .LVU477
 1457 0018 4FF0FF35 		mov	r5, #-1
1063:lvgl/src/lv_core/lv_style.c ****     int16_t id_guess = -1;
 1458              		.loc 1 1063 13 view .LVU478
 1459 001c AC46     		mov	ip, r5
 1460 001e 21E0     		b	.L110
 1461              	.LVL146:
 1462              	.L136:
 1463              	.LBB248:
1071:lvgl/src/lv_core/lv_style.c ****             attr_i = get_style_prop_attr(style, i);
 1464              		.loc 1 1071 13 is_stmt 1 view .LVU479
1072:lvgl/src/lv_core/lv_style.c **** 
 1465              		.loc 1 1072 13 view .LVU480
 1466              	.LBB249:
 1467              	.LBI249:
1164:lvgl/src/lv_core/lv_style.c **** {
 1468              		.loc 1 1164 23 view .LVU481
 1469              	.LBB250:
1166:lvgl/src/lv_core/lv_style.c **** }
 1470              		.loc 1 1166 5 view .LVU482
 1471              	.LBB251:
 1472              	.LBI251:
1138:lvgl/src/lv_core/lv_style.c **** {
 1473              		.loc 1 1138 35 view .LVU483
 1474              	.LBB252:
1140:lvgl/src/lv_core/lv_style.c ****     uint8_t * prop_p = (uint8_t *)&prop;
 1475              		.loc 1 1140 5 view .LVU484
1141:lvgl/src/lv_core/lv_style.c ****     prop_p[0] = style->map[idx];
 1476              		.loc 1 1141 5 view .LVU485
1142:lvgl/src/lv_core/lv_style.c ****     prop_p[1] = style->map[idx + 1];
ARM GAS  D:\Temp\cceOI0TF.s 			page 60


 1477              		.loc 1 1142 5 view .LVU486
1142:lvgl/src/lv_core/lv_style.c ****     prop_p[1] = style->map[idx + 1];
 1478              		.loc 1 1142 22 is_stmt 0 view .LVU487
 1479 0020 0468     		ldr	r4, [r0]
1142:lvgl/src/lv_core/lv_style.c ****     prop_p[1] = style->map[idx + 1];
 1480              		.loc 1 1142 27 view .LVU488
 1481 0022 14F802E0 		ldrb	lr, [r4, r2]	@ zero_extendqisi2
1142:lvgl/src/lv_core/lv_style.c ****     prop_p[1] = style->map[idx + 1];
 1482              		.loc 1 1142 15 view .LVU489
 1483 0026 8DF80CE0 		strb	lr, [sp, #12]
1143:lvgl/src/lv_core/lv_style.c ****     return prop;
 1484              		.loc 1 1143 5 is_stmt 1 view .LVU490
1143:lvgl/src/lv_core/lv_style.c ****     return prop;
 1485              		.loc 1 1143 27 is_stmt 0 view .LVU491
 1486 002a 615C     		ldrb	r1, [r4, r1]	@ zero_extendqisi2
1143:lvgl/src/lv_core/lv_style.c ****     return prop;
 1487              		.loc 1 1143 15 view .LVU492
 1488 002c 8DF80D10 		strb	r1, [sp, #13]
1144:lvgl/src/lv_core/lv_style.c **** }
 1489              		.loc 1 1144 5 is_stmt 1 view .LVU493
1144:lvgl/src/lv_core/lv_style.c **** }
 1490              		.loc 1 1144 12 is_stmt 0 view .LVU494
 1491 0030 BDF80C40 		ldrh	r4, [sp, #12]
 1492              	.LVL147:
1144:lvgl/src/lv_core/lv_style.c **** }
 1493              		.loc 1 1144 12 view .LVU495
 1494              	.LBE252:
 1495              	.LBE251:
1166:lvgl/src/lv_core/lv_style.c **** }
 1496              		.loc 1 1166 47 view .LVU496
 1497 0034 240A     		lsrs	r4, r4, #8
 1498 0036 E1B2     		uxtb	r1, r4
 1499              	.LVL148:
1166:lvgl/src/lv_core/lv_style.c **** }
 1500              		.loc 1 1166 47 view .LVU497
 1501              	.LBE250:
 1502              	.LBE249:
1075:lvgl/src/lv_core/lv_style.c ****                 return i;
 1503              		.loc 1 1075 13 is_stmt 1 view .LVU498
1075:lvgl/src/lv_core/lv_style.c ****                 return i;
 1504              		.loc 1 1075 48 is_stmt 0 view .LVU499
 1505 0038 86EA010E 		eor	lr, r6, r1
1075:lvgl/src/lv_core/lv_style.c ****                 return i;
 1506              		.loc 1 1075 15 view .LVU500
 1507 003c 1EF07F0F 		tst	lr, #127
 1508 0040 0CD0     		beq	.L134
1080:lvgl/src/lv_core/lv_style.c ****                 /* Use this property if it describes better the requested state than the current ca
 1509              		.loc 1 1080 18 is_stmt 1 view .LVU501
1080:lvgl/src/lv_core/lv_style.c ****                 /* Use this property if it describes better the requested state than the current ca
 1510              		.loc 1 1080 22 is_stmt 0 view .LVU502
 1511 0042 01F07F01 		and	r1, r1, #127
 1512              	.LVL149:
1080:lvgl/src/lv_core/lv_style.c ****                 /* Use this property if it describes better the requested state than the current ca
 1513              		.loc 1 1080 58 view .LVU503
 1514 0046 06F07F0E 		and	lr, r6, #127
1080:lvgl/src/lv_core/lv_style.c ****                 /* Use this property if it describes better the requested state than the current ca
 1515              		.loc 1 1080 20 view .LVU504
ARM GAS  D:\Temp\cceOI0TF.s 			page 61


 1516 004a 31EA0E0E 		bics	lr, r1, lr
 1517 004e 17D1     		bne	.L111
1083:lvgl/src/lv_core/lv_style.c ****                     weight = LV_STYLE_ATTR_GET_STATE(attr_i);
 1518              		.loc 1 1083 17 is_stmt 1 view .LVU505
1083:lvgl/src/lv_core/lv_style.c ****                     weight = LV_STYLE_ATTR_GET_STATE(attr_i);
 1519              		.loc 1 1083 19 is_stmt 0 view .LVU506
 1520 0050 6145     		cmp	r1, ip
 1521 0052 15DD     		ble	.L111
1084:lvgl/src/lv_core/lv_style.c ****                     id_guess = i;
 1522              		.loc 1 1084 21 is_stmt 1 view .LVU507
1084:lvgl/src/lv_core/lv_style.c ****                     id_guess = i;
 1523              		.loc 1 1084 28 is_stmt 0 view .LVU508
 1524 0054 04F07F0C 		and	ip, r4, #127
 1525              	.LVL150:
1085:lvgl/src/lv_core/lv_style.c ****                 }
 1526              		.loc 1 1085 21 is_stmt 1 view .LVU509
1085:lvgl/src/lv_core/lv_style.c ****                 }
 1527              		.loc 1 1085 30 is_stmt 0 view .LVU510
 1528 0058 15B2     		sxth	r5, r2
 1529              	.LVL151:
1085:lvgl/src/lv_core/lv_style.c ****                 }
 1530              		.loc 1 1085 30 view .LVU511
 1531 005a 11E0     		b	.L111
 1532              	.LVL152:
 1533              	.L134:
1076:lvgl/src/lv_core/lv_style.c ****             }
 1534              		.loc 1 1076 17 is_stmt 1 view .LVU512
1076:lvgl/src/lv_core/lv_style.c ****             }
 1535              		.loc 1 1076 24 is_stmt 0 view .LVU513
 1536 005c 1346     		mov	r3, r2
 1537              	.LVL153:
1076:lvgl/src/lv_core/lv_style.c ****             }
 1538              		.loc 1 1076 24 view .LVU514
 1539 005e 1EE0     		b	.L109
 1540              	.LVL154:
 1541              	.L130:
1076:lvgl/src/lv_core/lv_style.c ****             }
 1542              		.loc 1 1076 24 view .LVU515
 1543              	.LBE248:
 1544              	.LBB253:
 1545              	.LBB254:
 1546              	.LBB255:
 1547              	.LBB256:
1179:lvgl/src/lv_core/lv_style.c ****     else if(prop_id < LV_STYLE_ID_OPA) size += sizeof(lv_color_t);
 1548              		.loc 1 1179 42 view .LVU516
 1549 0060 0421     		movs	r1, #4
 1550              	.L113:
 1551              	.LVL155:
1183:lvgl/src/lv_core/lv_style.c **** }
 1552              		.loc 1 1183 5 is_stmt 1 view .LVU517
1183:lvgl/src/lv_core/lv_style.c **** }
 1553              		.loc 1 1183 5 is_stmt 0 view .LVU518
 1554              	.LBE256:
 1555              	.LBE255:
 1556              		.loc 1 1194 16 view .LVU519
 1557 0062 0A44     		add	r2, r2, r1
 1558              	.LVL156:
ARM GAS  D:\Temp\cceOI0TF.s 			page 62


 1559              	.L110:
 1560              		.loc 1 1194 16 view .LVU520
 1561              	.LBE254:
 1562              	.LBE253:
 1563              	.LBB260:
 1564              	.LBI260:
1153:lvgl/src/lv_core/lv_style.c **** {
 1565              		.loc 1 1153 23 is_stmt 1 view .LVU521
 1566              	.LBB261:
1155:lvgl/src/lv_core/lv_style.c **** }
 1567              		.loc 1 1155 5 view .LVU522
 1568              	.LBB262:
 1569              	.LBI262:
1138:lvgl/src/lv_core/lv_style.c **** {
 1570              		.loc 1 1138 35 view .LVU523
 1571              	.LBB263:
1140:lvgl/src/lv_core/lv_style.c ****     uint8_t * prop_p = (uint8_t *)&prop;
 1572              		.loc 1 1140 5 view .LVU524
1141:lvgl/src/lv_core/lv_style.c ****     prop_p[0] = style->map[idx];
 1573              		.loc 1 1141 5 view .LVU525
1142:lvgl/src/lv_core/lv_style.c ****     prop_p[1] = style->map[idx + 1];
 1574              		.loc 1 1142 5 view .LVU526
1142:lvgl/src/lv_core/lv_style.c ****     prop_p[1] = style->map[idx + 1];
 1575              		.loc 1 1142 22 is_stmt 0 view .LVU527
 1576 0064 0368     		ldr	r3, [r0]
1142:lvgl/src/lv_core/lv_style.c ****     prop_p[1] = style->map[idx + 1];
 1577              		.loc 1 1142 27 view .LVU528
 1578 0066 995C     		ldrb	r1, [r3, r2]	@ zero_extendqisi2
1142:lvgl/src/lv_core/lv_style.c ****     prop_p[1] = style->map[idx + 1];
 1579              		.loc 1 1142 15 view .LVU529
 1580 0068 8DF80C10 		strb	r1, [sp, #12]
1143:lvgl/src/lv_core/lv_style.c ****     return prop;
 1581              		.loc 1 1143 5 is_stmt 1 view .LVU530
1143:lvgl/src/lv_core/lv_style.c ****     return prop;
 1582              		.loc 1 1143 27 is_stmt 0 view .LVU531
 1583 006c 511C     		adds	r1, r2, #1
 1584 006e 5C5C     		ldrb	r4, [r3, r1]	@ zero_extendqisi2
1143:lvgl/src/lv_core/lv_style.c ****     return prop;
 1585              		.loc 1 1143 15 view .LVU532
 1586 0070 8DF80D40 		strb	r4, [sp, #13]
1144:lvgl/src/lv_core/lv_style.c **** }
 1587              		.loc 1 1144 5 is_stmt 1 view .LVU533
 1588              	.LVL157:
1144:lvgl/src/lv_core/lv_style.c **** }
 1589              		.loc 1 1144 5 is_stmt 0 view .LVU534
 1590              	.LBE263:
 1591              	.LBE262:
1155:lvgl/src/lv_core/lv_style.c **** }
 1592              		.loc 1 1155 39 view .LVU535
 1593 0074 9DF80C30 		ldrb	r3, [sp, #12]	@ zero_extendqisi2
 1594              	.LVL158:
1155:lvgl/src/lv_core/lv_style.c **** }
 1595              		.loc 1 1155 39 view .LVU536
 1596              	.LBE261:
 1597              	.LBE260:
1069:lvgl/src/lv_core/lv_style.c ****         if(prop_id == id_to_find) {
 1598              		.loc 1 1069 10 view .LVU537
ARM GAS  D:\Temp\cceOI0TF.s 			page 63


 1599 0078 FF2B     		cmp	r3, #255
 1600 007a 0FD0     		beq	.L135
1070:lvgl/src/lv_core/lv_style.c ****             lv_style_attr_t attr_i;
 1601              		.loc 1 1070 9 is_stmt 1 view .LVU538
1070:lvgl/src/lv_core/lv_style.c ****             lv_style_attr_t attr_i;
 1602              		.loc 1 1070 11 is_stmt 0 view .LVU539
 1603 007c 9F42     		cmp	r7, r3
 1604 007e CFD0     		beq	.L136
 1605              	.L111:
1090:lvgl/src/lv_core/lv_style.c ****     }
 1606              		.loc 1 1090 9 is_stmt 1 view .LVU540
 1607              	.LVL159:
 1608              	.LBB264:
 1609              	.LBI253:
1192:lvgl/src/lv_core/lv_style.c **** {
 1610              		.loc 1 1192 22 view .LVU541
 1611              	.LBB259:
 1612              		.loc 1 1194 5 view .LVU542
 1613              	.LBB258:
 1614              	.LBI255:
1175:lvgl/src/lv_core/lv_style.c **** {
 1615              		.loc 1 1175 22 view .LVU543
 1616              	.LBB257:
1177:lvgl/src/lv_core/lv_style.c ****     size_t size = sizeof(lv_style_property_t);
 1617              		.loc 1 1177 5 view .LVU544
1177:lvgl/src/lv_core/lv_style.c ****     size_t size = sizeof(lv_style_property_t);
 1618              		.loc 1 1177 13 is_stmt 0 view .LVU545
 1619 0080 03F00F03 		and	r3, r3, #15
 1620              	.LVL160:
1178:lvgl/src/lv_core/lv_style.c ****     if(prop_id < LV_STYLE_ID_COLOR) size += sizeof(lv_style_int_t);
 1621              		.loc 1 1178 5 is_stmt 1 view .LVU546
1179:lvgl/src/lv_core/lv_style.c ****     else if(prop_id < LV_STYLE_ID_OPA) size += sizeof(lv_color_t);
 1622              		.loc 1 1179 5 view .LVU547
1179:lvgl/src/lv_core/lv_style.c ****     else if(prop_id < LV_STYLE_ID_OPA) size += sizeof(lv_color_t);
 1623              		.loc 1 1179 7 is_stmt 0 view .LVU548
 1624 0084 082B     		cmp	r3, #8
 1625 0086 EBD9     		bls	.L130
1180:lvgl/src/lv_core/lv_style.c ****     else if(prop_id < LV_STYLE_ID_PTR) size += sizeof(lv_opa_t);
 1626              		.loc 1 1180 10 is_stmt 1 view .LVU549
1180:lvgl/src/lv_core/lv_style.c ****     else if(prop_id < LV_STYLE_ID_PTR) size += sizeof(lv_opa_t);
 1627              		.loc 1 1180 12 is_stmt 0 view .LVU550
 1628 0088 0B2B     		cmp	r3, #11
 1629 008a 03D9     		bls	.L131
1181:lvgl/src/lv_core/lv_style.c ****     else size += sizeof(const void *);
 1630              		.loc 1 1181 10 is_stmt 1 view .LVU551
1181:lvgl/src/lv_core/lv_style.c ****     else size += sizeof(const void *);
 1631              		.loc 1 1181 12 is_stmt 0 view .LVU552
 1632 008c 0D2B     		cmp	r3, #13
 1633 008e 03D8     		bhi	.L132
1181:lvgl/src/lv_core/lv_style.c ****     else size += sizeof(const void *);
 1634              		.loc 1 1181 45 view .LVU553
 1635 0090 0321     		movs	r1, #3
 1636 0092 E6E7     		b	.L113
 1637              	.L131:
1180:lvgl/src/lv_core/lv_style.c ****     else if(prop_id < LV_STYLE_ID_PTR) size += sizeof(lv_opa_t);
 1638              		.loc 1 1180 45 view .LVU554
 1639 0094 0421     		movs	r1, #4
ARM GAS  D:\Temp\cceOI0TF.s 			page 64


 1640 0096 E4E7     		b	.L113
 1641              	.L132:
1182:lvgl/src/lv_core/lv_style.c ****     return size;
 1642              		.loc 1 1182 15 view .LVU555
 1643 0098 0621     		movs	r1, #6
 1644 009a E2E7     		b	.L113
 1645              	.LVL161:
 1646              	.L135:
1182:lvgl/src/lv_core/lv_style.c ****     return size;
 1647              		.loc 1 1182 15 view .LVU556
 1648              	.LBE257:
 1649              	.LBE258:
 1650              	.LBE259:
 1651              	.LBE264:
1093:lvgl/src/lv_core/lv_style.c **** }
 1652              		.loc 1 1093 5 is_stmt 1 view .LVU557
1093:lvgl/src/lv_core/lv_style.c **** }
 1653              		.loc 1 1093 12 is_stmt 0 view .LVU558
 1654 009c 2B46     		mov	r3, r5
 1655              	.LVL162:
 1656              	.L109:
1093:lvgl/src/lv_core/lv_style.c **** }
 1657              		.loc 1 1093 12 view .LVU559
 1658              	.LBE247:
 1659              	.LBE246:
 366:lvgl/src/lv_core/lv_style.c ****         lv_style_attr_t attr_found;
 1660              		.loc 1 366 5 is_stmt 1 view .LVU560
 366:lvgl/src/lv_core/lv_style.c ****         lv_style_attr_t attr_found;
 1661              		.loc 1 366 7 is_stmt 0 view .LVU561
 1662 009e 002B     		cmp	r3, #0
 1663 00a0 11DB     		blt	.L115
 1664              	.LBB266:
 367:lvgl/src/lv_core/lv_style.c ****         lv_style_attr_t attr_goal;
 1665              		.loc 1 367 9 is_stmt 1 view .LVU562
 368:lvgl/src/lv_core/lv_style.c **** 
 1666              		.loc 1 368 9 view .LVU563
 370:lvgl/src/lv_core/lv_style.c ****         attr_goal = (prop >> 8) & 0xFFU;
 1667              		.loc 1 370 9 view .LVU564
 1668              	.LVL163:
 1669              	.LBB267:
 1670              	.LBI267:
1164:lvgl/src/lv_core/lv_style.c **** {
 1671              		.loc 1 1164 23 view .LVU565
 1672              	.LBB268:
1166:lvgl/src/lv_core/lv_style.c **** }
 1673              		.loc 1 1166 5 view .LVU566
 1674              	.LBB269:
 1675              	.LBI269:
1138:lvgl/src/lv_core/lv_style.c **** {
 1676              		.loc 1 1138 35 view .LVU567
 1677              	.LBB270:
1140:lvgl/src/lv_core/lv_style.c ****     uint8_t * prop_p = (uint8_t *)&prop;
 1678              		.loc 1 1140 5 view .LVU568
1141:lvgl/src/lv_core/lv_style.c ****     prop_p[0] = style->map[idx];
 1679              		.loc 1 1141 5 view .LVU569
1142:lvgl/src/lv_core/lv_style.c ****     prop_p[1] = style->map[idx + 1];
 1680              		.loc 1 1142 5 view .LVU570
ARM GAS  D:\Temp\cceOI0TF.s 			page 65


1142:lvgl/src/lv_core/lv_style.c ****     prop_p[1] = style->map[idx + 1];
 1681              		.loc 1 1142 22 is_stmt 0 view .LVU571
 1682 00a2 0268     		ldr	r2, [r0]
1142:lvgl/src/lv_core/lv_style.c ****     prop_p[1] = style->map[idx + 1];
 1683              		.loc 1 1142 27 view .LVU572
 1684 00a4 D15C     		ldrb	r1, [r2, r3]	@ zero_extendqisi2
1142:lvgl/src/lv_core/lv_style.c ****     prop_p[1] = style->map[idx + 1];
 1685              		.loc 1 1142 15 view .LVU573
 1686 00a6 8DF80C10 		strb	r1, [sp, #12]
1143:lvgl/src/lv_core/lv_style.c ****     return prop;
 1687              		.loc 1 1143 5 is_stmt 1 view .LVU574
1143:lvgl/src/lv_core/lv_style.c ****     return prop;
 1688              		.loc 1 1143 27 is_stmt 0 view .LVU575
 1689 00aa 1A44     		add	r2, r2, r3
 1690 00ac 5278     		ldrb	r2, [r2, #1]	@ zero_extendqisi2
1143:lvgl/src/lv_core/lv_style.c ****     return prop;
 1691              		.loc 1 1143 15 view .LVU576
 1692 00ae 8DF80D20 		strb	r2, [sp, #13]
1144:lvgl/src/lv_core/lv_style.c **** }
 1693              		.loc 1 1144 5 is_stmt 1 view .LVU577
1144:lvgl/src/lv_core/lv_style.c **** }
 1694              		.loc 1 1144 12 is_stmt 0 view .LVU578
 1695 00b2 BDF80C10 		ldrh	r1, [sp, #12]
 1696              	.LVL164:
1144:lvgl/src/lv_core/lv_style.c **** }
 1697              		.loc 1 1144 12 view .LVU579
 1698              	.LBE270:
 1699              	.LBE269:
 1700              	.LBE268:
 1701              	.LBE267:
 371:lvgl/src/lv_core/lv_style.c **** 
 1702              		.loc 1 371 9 is_stmt 1 view .LVU580
 371:lvgl/src/lv_core/lv_style.c **** 
 1703              		.loc 1 371 19 is_stmt 0 view .LVU581
 1704 00b6 BDF80620 		ldrh	r2, [sp, #6]
 1705 00ba 120A     		lsrs	r2, r2, #8
 1706              	.LVL165:
 373:lvgl/src/lv_core/lv_style.c ****             _lv_memcpy_small(style->map + id + sizeof(lv_style_property_t), &value, sizeof(lv_style
 1707              		.loc 1 373 9 is_stmt 1 view .LVU582
 373:lvgl/src/lv_core/lv_style.c ****             _lv_memcpy_small(style->map + id + sizeof(lv_style_property_t), &value, sizeof(lv_style
 1708              		.loc 1 373 48 is_stmt 0 view .LVU583
 1709 00bc 82EA1122 		eor	r2, r2, r1, lsr #8
 1710              	.LVL166:
 373:lvgl/src/lv_core/lv_style.c ****             _lv_memcpy_small(style->map + id + sizeof(lv_style_property_t), &value, sizeof(lv_style
 1711              		.loc 1 373 11 view .LVU584
 1712 00c0 12F07F0F 		tst	r2, #127
 1713 00c4 20D0     		beq	.L137
 1714              	.LVL167:
 1715              	.L115:
 373:lvgl/src/lv_core/lv_style.c ****             _lv_memcpy_small(style->map + id + sizeof(lv_style_property_t), &value, sizeof(lv_style
 1716              		.loc 1 373 11 view .LVU585
 1717 00c6 0546     		mov	r5, r0
 1718              	.LBE266:
 380:lvgl/src/lv_core/lv_style.c ****     lv_style_property_t end_mark = _LV_STYLE_CLOSING_PROP;
 1719              		.loc 1 380 5 is_stmt 1 view .LVU586
 1720              	.LVL168:
 381:lvgl/src/lv_core/lv_style.c ****     uint8_t end_mark_size = sizeof(end_mark);
ARM GAS  D:\Temp\cceOI0TF.s 			page 66


 1721              		.loc 1 381 5 view .LVU587
 381:lvgl/src/lv_core/lv_style.c ****     uint8_t end_mark_size = sizeof(end_mark);
 1722              		.loc 1 381 25 is_stmt 0 view .LVU588
 1723 00c8 FF23     		movs	r3, #255
 1724              	.LVL169:
 381:lvgl/src/lv_core/lv_style.c ****     uint8_t end_mark_size = sizeof(end_mark);
 1725              		.loc 1 381 25 view .LVU589
 1726 00ca ADF80E30 		strh	r3, [sp, #14]	@ movhi
 382:lvgl/src/lv_core/lv_style.c **** 
 1727              		.loc 1 382 5 is_stmt 1 view .LVU590
 1728              	.LVL170:
 384:lvgl/src/lv_core/lv_style.c ****     if(size == 0) size += end_mark_size;
 1729              		.loc 1 384 5 view .LVU591
 384:lvgl/src/lv_core/lv_style.c ****     if(size == 0) size += end_mark_size;
 1730              		.loc 1 384 21 is_stmt 0 view .LVU592
 1731 00ce FFF7FEFF 		bl	_lv_style_get_mem_size
 1732              	.LVL171:
 385:lvgl/src/lv_core/lv_style.c ****     size += sizeof(lv_style_property_t) + sizeof(lv_style_int_t);
 1733              		.loc 1 385 5 is_stmt 1 view .LVU593
 385:lvgl/src/lv_core/lv_style.c ****     size += sizeof(lv_style_property_t) + sizeof(lv_style_int_t);
 1734              		.loc 1 385 7 is_stmt 0 view .LVU594
 1735 00d2 0346     		mov	r3, r0
 1736 00d4 08B9     		cbnz	r0, .L119
 385:lvgl/src/lv_core/lv_style.c ****     size += sizeof(lv_style_property_t) + sizeof(lv_style_int_t);
 1737              		.loc 1 385 19 is_stmt 1 discriminator 1 view .LVU595
 385:lvgl/src/lv_core/lv_style.c ****     size += sizeof(lv_style_property_t) + sizeof(lv_style_int_t);
 1738              		.loc 1 385 24 is_stmt 0 discriminator 1 view .LVU596
 1739 00d6 0233     		adds	r3, r3, #2
 1740 00d8 9BB2     		uxth	r3, r3
 1741              	.LVL172:
 1742              	.L119:
 386:lvgl/src/lv_core/lv_style.c ****     style_resize(style, size);
 1743              		.loc 1 386 5 is_stmt 1 view .LVU597
 386:lvgl/src/lv_core/lv_style.c ****     style_resize(style, size);
 1744              		.loc 1 386 10 is_stmt 0 view .LVU598
 1745 00da 0433     		adds	r3, r3, #4
 1746              	.LVL173:
 386:lvgl/src/lv_core/lv_style.c ****     style_resize(style, size);
 1747              		.loc 1 386 10 view .LVU599
 1748 00dc 9CB2     		uxth	r4, r3
 387:lvgl/src/lv_core/lv_style.c ****     LV_ASSERT_MEM(style->map);
 1749              		.loc 1 387 5 is_stmt 1 view .LVU600
 1750              	.LVL174:
 1751              	.LBB275:
 1752              	.LBI275:
1127:lvgl/src/lv_core/lv_style.c **** {
 1753              		.loc 1 1127 20 view .LVU601
 1754              	.LBB276:
1129:lvgl/src/lv_core/lv_style.c **** }
 1755              		.loc 1 1129 5 view .LVU602
1129:lvgl/src/lv_core/lv_style.c **** }
 1756              		.loc 1 1129 18 is_stmt 0 view .LVU603
 1757 00de 2146     		mov	r1, r4
 1758 00e0 2868     		ldr	r0, [r5]
 1759 00e2 FFF7FEFF 		bl	lv_mem_realloc
 1760              	.LVL175:
1129:lvgl/src/lv_core/lv_style.c **** }
ARM GAS  D:\Temp\cceOI0TF.s 			page 67


 1761              		.loc 1 1129 16 view .LVU604
 1762 00e6 2860     		str	r0, [r5]
 1763              	.LVL176:
1129:lvgl/src/lv_core/lv_style.c **** }
 1764              		.loc 1 1129 16 view .LVU605
 1765              	.LBE276:
 1766              	.LBE275:
 388:lvgl/src/lv_core/lv_style.c ****     if(style == NULL) return;
 1767              		.loc 1 388 5 is_stmt 1 view .LVU606
 388:lvgl/src/lv_core/lv_style.c ****     if(style == NULL) return;
 1768              		.loc 1 388 5 view .LVU607
 1769 00e8 FFF7FEFF 		bl	lv_debug_check_null
 1770              	.LVL177:
 1771 00ec D0B1     		cbz	r0, .L138
 388:lvgl/src/lv_core/lv_style.c ****     if(style == NULL) return;
 1772              		.loc 1 388 30 discriminator 2 view .LVU608
 389:lvgl/src/lv_core/lv_style.c **** 
 1773              		.loc 1 389 5 discriminator 2 view .LVU609
 389:lvgl/src/lv_core/lv_style.c **** 
 1774              		.loc 1 389 7 is_stmt 0 discriminator 2 view .LVU610
 1775 00ee 002D     		cmp	r5, #0
 1776 00f0 3FD0     		beq	.L108
 391:lvgl/src/lv_core/lv_style.c ****     _lv_memcpy_small(style->map + size - sizeof(lv_style_int_t) - end_mark_size, &value, sizeof(lv_
 1777              		.loc 1 391 5 is_stmt 1 view .LVU611
 391:lvgl/src/lv_core/lv_style.c ****     _lv_memcpy_small(style->map + size - sizeof(lv_style_int_t) - end_mark_size, &value, sizeof(lv_
 1778              		.loc 1 391 27 is_stmt 0 view .LVU612
 1779 00f2 2B68     		ldr	r3, [r5]
 391:lvgl/src/lv_core/lv_style.c ****     _lv_memcpy_small(style->map + size - sizeof(lv_style_int_t) - end_mark_size, &value, sizeof(lv_
 1780              		.loc 1 391 40 view .LVU613
 1781 00f4 201F     		subs	r0, r4, #4
 391:lvgl/src/lv_core/lv_style.c ****     _lv_memcpy_small(style->map + size - sizeof(lv_style_int_t) - end_mark_size, &value, sizeof(lv_
 1782              		.loc 1 391 56 view .LVU614
 1783 00f6 A21F     		subs	r2, r4, #6
 1784 00f8 1344     		add	r3, r3, r2
 1785              	.LVL178:
 1786              	.LBB277:
 1787              	.LBI277:
 1788              		.file 3 "lvgl/src/lv_core/../lv_font/../lv_misc/lv_mem.h"
   1:lvgl/src/lv_core/../lv_font/../lv_misc/lv_mem.h **** /**
   2:lvgl/src/lv_core/../lv_font/../lv_misc/lv_mem.h ****  * @file lv_mem.h
   3:lvgl/src/lv_core/../lv_font/../lv_misc/lv_mem.h ****  *
   4:lvgl/src/lv_core/../lv_font/../lv_misc/lv_mem.h ****  */
   5:lvgl/src/lv_core/../lv_font/../lv_misc/lv_mem.h **** 
   6:lvgl/src/lv_core/../lv_font/../lv_misc/lv_mem.h **** #ifndef LV_MEM_H
   7:lvgl/src/lv_core/../lv_font/../lv_misc/lv_mem.h **** #define LV_MEM_H
   8:lvgl/src/lv_core/../lv_font/../lv_misc/lv_mem.h **** 
   9:lvgl/src/lv_core/../lv_font/../lv_misc/lv_mem.h **** #ifdef __cplusplus
  10:lvgl/src/lv_core/../lv_font/../lv_misc/lv_mem.h **** extern "C" {
  11:lvgl/src/lv_core/../lv_font/../lv_misc/lv_mem.h **** #endif
  12:lvgl/src/lv_core/../lv_font/../lv_misc/lv_mem.h **** 
  13:lvgl/src/lv_core/../lv_font/../lv_misc/lv_mem.h **** /*********************
  14:lvgl/src/lv_core/../lv_font/../lv_misc/lv_mem.h ****  *      INCLUDES
  15:lvgl/src/lv_core/../lv_font/../lv_misc/lv_mem.h ****  *********************/
  16:lvgl/src/lv_core/../lv_font/../lv_misc/lv_mem.h **** #include "../lv_conf_internal.h"
  17:lvgl/src/lv_core/../lv_font/../lv_misc/lv_mem.h **** 
  18:lvgl/src/lv_core/../lv_font/../lv_misc/lv_mem.h **** #include <stdint.h>
  19:lvgl/src/lv_core/../lv_font/../lv_misc/lv_mem.h **** #include <stddef.h>
ARM GAS  D:\Temp\cceOI0TF.s 			page 68


  20:lvgl/src/lv_core/../lv_font/../lv_misc/lv_mem.h **** #include "lv_log.h"
  21:lvgl/src/lv_core/../lv_font/../lv_misc/lv_mem.h **** #include "lv_types.h"
  22:lvgl/src/lv_core/../lv_font/../lv_misc/lv_mem.h **** 
  23:lvgl/src/lv_core/../lv_font/../lv_misc/lv_mem.h **** #if LV_MEMCPY_MEMSET_STD
  24:lvgl/src/lv_core/../lv_font/../lv_misc/lv_mem.h **** #include <string.h>
  25:lvgl/src/lv_core/../lv_font/../lv_misc/lv_mem.h **** #endif
  26:lvgl/src/lv_core/../lv_font/../lv_misc/lv_mem.h **** 
  27:lvgl/src/lv_core/../lv_font/../lv_misc/lv_mem.h **** /*********************
  28:lvgl/src/lv_core/../lv_font/../lv_misc/lv_mem.h ****  *      DEFINES
  29:lvgl/src/lv_core/../lv_font/../lv_misc/lv_mem.h ****  *********************/
  30:lvgl/src/lv_core/../lv_font/../lv_misc/lv_mem.h **** 
  31:lvgl/src/lv_core/../lv_font/../lv_misc/lv_mem.h **** #ifndef LV_MEM_BUF_MAX_NUM
  32:lvgl/src/lv_core/../lv_font/../lv_misc/lv_mem.h **** #define LV_MEM_BUF_MAX_NUM    16
  33:lvgl/src/lv_core/../lv_font/../lv_misc/lv_mem.h **** #endif
  34:lvgl/src/lv_core/../lv_font/../lv_misc/lv_mem.h **** 
  35:lvgl/src/lv_core/../lv_font/../lv_misc/lv_mem.h **** /**********************
  36:lvgl/src/lv_core/../lv_font/../lv_misc/lv_mem.h ****  *      TYPEDEFS
  37:lvgl/src/lv_core/../lv_font/../lv_misc/lv_mem.h ****  **********************/
  38:lvgl/src/lv_core/../lv_font/../lv_misc/lv_mem.h **** 
  39:lvgl/src/lv_core/../lv_font/../lv_misc/lv_mem.h **** /**
  40:lvgl/src/lv_core/../lv_font/../lv_misc/lv_mem.h ****  * Heap information structure.
  41:lvgl/src/lv_core/../lv_font/../lv_misc/lv_mem.h ****  */
  42:lvgl/src/lv_core/../lv_font/../lv_misc/lv_mem.h **** typedef struct {
  43:lvgl/src/lv_core/../lv_font/../lv_misc/lv_mem.h ****     uint32_t total_size; /**< Total heap size */
  44:lvgl/src/lv_core/../lv_font/../lv_misc/lv_mem.h ****     uint32_t free_cnt;
  45:lvgl/src/lv_core/../lv_font/../lv_misc/lv_mem.h ****     uint32_t free_size; /**< Size of available memory */
  46:lvgl/src/lv_core/../lv_font/../lv_misc/lv_mem.h ****     uint32_t free_biggest_size;
  47:lvgl/src/lv_core/../lv_font/../lv_misc/lv_mem.h ****     uint32_t used_cnt;
  48:lvgl/src/lv_core/../lv_font/../lv_misc/lv_mem.h ****     uint32_t max_used; /**< Max size of Heap memory used */
  49:lvgl/src/lv_core/../lv_font/../lv_misc/lv_mem.h ****     uint8_t used_pct; /**< Percentage used */
  50:lvgl/src/lv_core/../lv_font/../lv_misc/lv_mem.h ****     uint8_t frag_pct; /**< Amount of fragmentation */
  51:lvgl/src/lv_core/../lv_font/../lv_misc/lv_mem.h **** } lv_mem_monitor_t;
  52:lvgl/src/lv_core/../lv_font/../lv_misc/lv_mem.h **** 
  53:lvgl/src/lv_core/../lv_font/../lv_misc/lv_mem.h **** typedef struct {
  54:lvgl/src/lv_core/../lv_font/../lv_misc/lv_mem.h ****     void * p;
  55:lvgl/src/lv_core/../lv_font/../lv_misc/lv_mem.h ****     uint16_t size;
  56:lvgl/src/lv_core/../lv_font/../lv_misc/lv_mem.h ****     uint8_t used    : 1;
  57:lvgl/src/lv_core/../lv_font/../lv_misc/lv_mem.h **** } lv_mem_buf_t;
  58:lvgl/src/lv_core/../lv_font/../lv_misc/lv_mem.h **** 
  59:lvgl/src/lv_core/../lv_font/../lv_misc/lv_mem.h **** typedef lv_mem_buf_t lv_mem_buf_arr_t[LV_MEM_BUF_MAX_NUM];
  60:lvgl/src/lv_core/../lv_font/../lv_misc/lv_mem.h **** extern lv_mem_buf_arr_t _lv_mem_buf;
  61:lvgl/src/lv_core/../lv_font/../lv_misc/lv_mem.h **** 
  62:lvgl/src/lv_core/../lv_font/../lv_misc/lv_mem.h **** /**********************
  63:lvgl/src/lv_core/../lv_font/../lv_misc/lv_mem.h ****  * GLOBAL PROTOTYPES
  64:lvgl/src/lv_core/../lv_font/../lv_misc/lv_mem.h ****  **********************/
  65:lvgl/src/lv_core/../lv_font/../lv_misc/lv_mem.h **** 
  66:lvgl/src/lv_core/../lv_font/../lv_misc/lv_mem.h **** /**
  67:lvgl/src/lv_core/../lv_font/../lv_misc/lv_mem.h ****  * Initialize the dyn_mem module (work memory and other variables)
  68:lvgl/src/lv_core/../lv_font/../lv_misc/lv_mem.h ****  */
  69:lvgl/src/lv_core/../lv_font/../lv_misc/lv_mem.h **** void _lv_mem_init(void);
  70:lvgl/src/lv_core/../lv_font/../lv_misc/lv_mem.h **** 
  71:lvgl/src/lv_core/../lv_font/../lv_misc/lv_mem.h **** /**
  72:lvgl/src/lv_core/../lv_font/../lv_misc/lv_mem.h ****  * Clean up the memory buffer which frees all the allocated memories.
  73:lvgl/src/lv_core/../lv_font/../lv_misc/lv_mem.h ****  * @note It work only if `LV_MEM_CUSTOM == 0`
  74:lvgl/src/lv_core/../lv_font/../lv_misc/lv_mem.h ****  */
  75:lvgl/src/lv_core/../lv_font/../lv_misc/lv_mem.h **** void _lv_mem_deinit(void);
  76:lvgl/src/lv_core/../lv_font/../lv_misc/lv_mem.h **** 
ARM GAS  D:\Temp\cceOI0TF.s 			page 69


  77:lvgl/src/lv_core/../lv_font/../lv_misc/lv_mem.h **** /**
  78:lvgl/src/lv_core/../lv_font/../lv_misc/lv_mem.h ****  * Allocate a memory dynamically
  79:lvgl/src/lv_core/../lv_font/../lv_misc/lv_mem.h ****  * @param size size of the memory to allocate in bytes
  80:lvgl/src/lv_core/../lv_font/../lv_misc/lv_mem.h ****  * @return pointer to the allocated memory
  81:lvgl/src/lv_core/../lv_font/../lv_misc/lv_mem.h ****  */
  82:lvgl/src/lv_core/../lv_font/../lv_misc/lv_mem.h **** void * lv_mem_alloc(size_t size);
  83:lvgl/src/lv_core/../lv_font/../lv_misc/lv_mem.h **** 
  84:lvgl/src/lv_core/../lv_font/../lv_misc/lv_mem.h **** /**
  85:lvgl/src/lv_core/../lv_font/../lv_misc/lv_mem.h ****  * Free an allocated data
  86:lvgl/src/lv_core/../lv_font/../lv_misc/lv_mem.h ****  * @param data pointer to an allocated memory
  87:lvgl/src/lv_core/../lv_font/../lv_misc/lv_mem.h ****  */
  88:lvgl/src/lv_core/../lv_font/../lv_misc/lv_mem.h **** void lv_mem_free(const void * data);
  89:lvgl/src/lv_core/../lv_font/../lv_misc/lv_mem.h **** 
  90:lvgl/src/lv_core/../lv_font/../lv_misc/lv_mem.h **** /**
  91:lvgl/src/lv_core/../lv_font/../lv_misc/lv_mem.h ****  * Reallocate a memory with a new size. The old content will be kept.
  92:lvgl/src/lv_core/../lv_font/../lv_misc/lv_mem.h ****  * @param data pointer to an allocated memory.
  93:lvgl/src/lv_core/../lv_font/../lv_misc/lv_mem.h ****  * Its content will be copied to the new memory block and freed
  94:lvgl/src/lv_core/../lv_font/../lv_misc/lv_mem.h ****  * @param new_size the desired new size in byte
  95:lvgl/src/lv_core/../lv_font/../lv_misc/lv_mem.h ****  * @return pointer to the new memory
  96:lvgl/src/lv_core/../lv_font/../lv_misc/lv_mem.h ****  */
  97:lvgl/src/lv_core/../lv_font/../lv_misc/lv_mem.h **** void * lv_mem_realloc(void * data_p, size_t new_size);
  98:lvgl/src/lv_core/../lv_font/../lv_misc/lv_mem.h **** 
  99:lvgl/src/lv_core/../lv_font/../lv_misc/lv_mem.h **** /**
 100:lvgl/src/lv_core/../lv_font/../lv_misc/lv_mem.h ****  * Join the adjacent free memory blocks
 101:lvgl/src/lv_core/../lv_font/../lv_misc/lv_mem.h ****  */
 102:lvgl/src/lv_core/../lv_font/../lv_misc/lv_mem.h **** void lv_mem_defrag(void);
 103:lvgl/src/lv_core/../lv_font/../lv_misc/lv_mem.h **** 
 104:lvgl/src/lv_core/../lv_font/../lv_misc/lv_mem.h **** /**
 105:lvgl/src/lv_core/../lv_font/../lv_misc/lv_mem.h ****  *
 106:lvgl/src/lv_core/../lv_font/../lv_misc/lv_mem.h ****  * @return
 107:lvgl/src/lv_core/../lv_font/../lv_misc/lv_mem.h ****  */
 108:lvgl/src/lv_core/../lv_font/../lv_misc/lv_mem.h **** lv_res_t lv_mem_test(void);
 109:lvgl/src/lv_core/../lv_font/../lv_misc/lv_mem.h **** 
 110:lvgl/src/lv_core/../lv_font/../lv_misc/lv_mem.h **** /**
 111:lvgl/src/lv_core/../lv_font/../lv_misc/lv_mem.h ****  * Give information about the work memory of dynamic allocation
 112:lvgl/src/lv_core/../lv_font/../lv_misc/lv_mem.h ****  * @param mon_p pointer to a dm_mon_p variable,
 113:lvgl/src/lv_core/../lv_font/../lv_misc/lv_mem.h ****  *              the result of the analysis will be stored here
 114:lvgl/src/lv_core/../lv_font/../lv_misc/lv_mem.h ****  */
 115:lvgl/src/lv_core/../lv_font/../lv_misc/lv_mem.h **** void lv_mem_monitor(lv_mem_monitor_t * mon_p);
 116:lvgl/src/lv_core/../lv_font/../lv_misc/lv_mem.h **** 
 117:lvgl/src/lv_core/../lv_font/../lv_misc/lv_mem.h **** /**
 118:lvgl/src/lv_core/../lv_font/../lv_misc/lv_mem.h ****  * Give the size of an allocated memory
 119:lvgl/src/lv_core/../lv_font/../lv_misc/lv_mem.h ****  * @param data pointer to an allocated memory
 120:lvgl/src/lv_core/../lv_font/../lv_misc/lv_mem.h ****  * @return the size of data memory in bytes
 121:lvgl/src/lv_core/../lv_font/../lv_misc/lv_mem.h ****  */
 122:lvgl/src/lv_core/../lv_font/../lv_misc/lv_mem.h **** uint32_t _lv_mem_get_size(const void * data);
 123:lvgl/src/lv_core/../lv_font/../lv_misc/lv_mem.h **** 
 124:lvgl/src/lv_core/../lv_font/../lv_misc/lv_mem.h **** /**
 125:lvgl/src/lv_core/../lv_font/../lv_misc/lv_mem.h ****  * Get a temporal buffer with the given size.
 126:lvgl/src/lv_core/../lv_font/../lv_misc/lv_mem.h ****  * @param size the required size
 127:lvgl/src/lv_core/../lv_font/../lv_misc/lv_mem.h ****  */
 128:lvgl/src/lv_core/../lv_font/../lv_misc/lv_mem.h **** void * _lv_mem_buf_get(uint32_t size);
 129:lvgl/src/lv_core/../lv_font/../lv_misc/lv_mem.h **** 
 130:lvgl/src/lv_core/../lv_font/../lv_misc/lv_mem.h **** /**
 131:lvgl/src/lv_core/../lv_font/../lv_misc/lv_mem.h ****  * Release a memory buffer
 132:lvgl/src/lv_core/../lv_font/../lv_misc/lv_mem.h ****  * @param p buffer to release
 133:lvgl/src/lv_core/../lv_font/../lv_misc/lv_mem.h ****  */
ARM GAS  D:\Temp\cceOI0TF.s 			page 70


 134:lvgl/src/lv_core/../lv_font/../lv_misc/lv_mem.h **** void _lv_mem_buf_release(void * p);
 135:lvgl/src/lv_core/../lv_font/../lv_misc/lv_mem.h **** 
 136:lvgl/src/lv_core/../lv_font/../lv_misc/lv_mem.h **** /**
 137:lvgl/src/lv_core/../lv_font/../lv_misc/lv_mem.h ****  * Free all memory buffers
 138:lvgl/src/lv_core/../lv_font/../lv_misc/lv_mem.h ****  */
 139:lvgl/src/lv_core/../lv_font/../lv_misc/lv_mem.h **** void _lv_mem_buf_free_all(void);
 140:lvgl/src/lv_core/../lv_font/../lv_misc/lv_mem.h **** 
 141:lvgl/src/lv_core/../lv_font/../lv_misc/lv_mem.h **** //! @cond Doxygen_Suppress
 142:lvgl/src/lv_core/../lv_font/../lv_misc/lv_mem.h **** 
 143:lvgl/src/lv_core/../lv_font/../lv_misc/lv_mem.h **** #if LV_MEMCPY_MEMSET_STD
 144:lvgl/src/lv_core/../lv_font/../lv_misc/lv_mem.h **** 
 145:lvgl/src/lv_core/../lv_font/../lv_misc/lv_mem.h **** /**
 146:lvgl/src/lv_core/../lv_font/../lv_misc/lv_mem.h ****  * Wrapper for the standard memcpy
 147:lvgl/src/lv_core/../lv_font/../lv_misc/lv_mem.h ****  * @param dst pointer to the destination buffer
 148:lvgl/src/lv_core/../lv_font/../lv_misc/lv_mem.h ****  * @param src pointer to the source buffer
 149:lvgl/src/lv_core/../lv_font/../lv_misc/lv_mem.h ****  * @param len number of byte to copy
 150:lvgl/src/lv_core/../lv_font/../lv_misc/lv_mem.h ****  */
 151:lvgl/src/lv_core/../lv_font/../lv_misc/lv_mem.h **** static inline void * _lv_memcpy(void * dst, const void * src, size_t len)
 152:lvgl/src/lv_core/../lv_font/../lv_misc/lv_mem.h **** {
 153:lvgl/src/lv_core/../lv_font/../lv_misc/lv_mem.h ****     return memcpy(dst, src, len);
 154:lvgl/src/lv_core/../lv_font/../lv_misc/lv_mem.h **** }
 155:lvgl/src/lv_core/../lv_font/../lv_misc/lv_mem.h **** 
 156:lvgl/src/lv_core/../lv_font/../lv_misc/lv_mem.h **** /**
 157:lvgl/src/lv_core/../lv_font/../lv_misc/lv_mem.h ****  * Wrapper for the standard memcpy
 158:lvgl/src/lv_core/../lv_font/../lv_misc/lv_mem.h ****  * @param dst pointer to the destination buffer
 159:lvgl/src/lv_core/../lv_font/../lv_misc/lv_mem.h ****  * @param src pointer to the source buffer
 160:lvgl/src/lv_core/../lv_font/../lv_misc/lv_mem.h ****  * @param len number of byte to copy
 161:lvgl/src/lv_core/../lv_font/../lv_misc/lv_mem.h ****  */
 162:lvgl/src/lv_core/../lv_font/../lv_misc/lv_mem.h **** static inline void * _lv_memcpy_small(void * dst, const void * src, size_t len)
 163:lvgl/src/lv_core/../lv_font/../lv_misc/lv_mem.h **** {
 164:lvgl/src/lv_core/../lv_font/../lv_misc/lv_mem.h ****     return memcpy(dst, src, len);
 165:lvgl/src/lv_core/../lv_font/../lv_misc/lv_mem.h **** }
 166:lvgl/src/lv_core/../lv_font/../lv_misc/lv_mem.h **** 
 167:lvgl/src/lv_core/../lv_font/../lv_misc/lv_mem.h **** /**
 168:lvgl/src/lv_core/../lv_font/../lv_misc/lv_mem.h ****  * Wrapper for the standard memset
 169:lvgl/src/lv_core/../lv_font/../lv_misc/lv_mem.h ****  * @param dst pointer to the destination buffer
 170:lvgl/src/lv_core/../lv_font/../lv_misc/lv_mem.h ****  * @param v value to set [0..255]
 171:lvgl/src/lv_core/../lv_font/../lv_misc/lv_mem.h ****  * @param len number of byte to set
 172:lvgl/src/lv_core/../lv_font/../lv_misc/lv_mem.h ****  */
 173:lvgl/src/lv_core/../lv_font/../lv_misc/lv_mem.h **** static inline void _lv_memset(void * dst, uint8_t v, size_t len)
 174:lvgl/src/lv_core/../lv_font/../lv_misc/lv_mem.h **** {
 175:lvgl/src/lv_core/../lv_font/../lv_misc/lv_mem.h ****     memset(dst, v, len);
 176:lvgl/src/lv_core/../lv_font/../lv_misc/lv_mem.h **** }
 177:lvgl/src/lv_core/../lv_font/../lv_misc/lv_mem.h **** 
 178:lvgl/src/lv_core/../lv_font/../lv_misc/lv_mem.h **** /**
 179:lvgl/src/lv_core/../lv_font/../lv_misc/lv_mem.h ****  * Wrapper for the standard memset with fixed 0x00 value
 180:lvgl/src/lv_core/../lv_font/../lv_misc/lv_mem.h ****  * @param dst pointer to the destination buffer
 181:lvgl/src/lv_core/../lv_font/../lv_misc/lv_mem.h ****  * @param len number of byte to set
 182:lvgl/src/lv_core/../lv_font/../lv_misc/lv_mem.h ****  */
 183:lvgl/src/lv_core/../lv_font/../lv_misc/lv_mem.h **** static inline void _lv_memset_00(void * dst, size_t len)
 184:lvgl/src/lv_core/../lv_font/../lv_misc/lv_mem.h **** {
 185:lvgl/src/lv_core/../lv_font/../lv_misc/lv_mem.h ****     memset(dst, 0x00, len);
 186:lvgl/src/lv_core/../lv_font/../lv_misc/lv_mem.h **** }
 187:lvgl/src/lv_core/../lv_font/../lv_misc/lv_mem.h **** 
 188:lvgl/src/lv_core/../lv_font/../lv_misc/lv_mem.h **** /**
 189:lvgl/src/lv_core/../lv_font/../lv_misc/lv_mem.h ****  * Wrapper for the standard memset with fixed 0xFF value
 190:lvgl/src/lv_core/../lv_font/../lv_misc/lv_mem.h ****  * @param dst pointer to the destination buffer
ARM GAS  D:\Temp\cceOI0TF.s 			page 71


 191:lvgl/src/lv_core/../lv_font/../lv_misc/lv_mem.h ****  * @param len number of byte to set
 192:lvgl/src/lv_core/../lv_font/../lv_misc/lv_mem.h ****  */
 193:lvgl/src/lv_core/../lv_font/../lv_misc/lv_mem.h **** static inline void _lv_memset_ff(void * dst, size_t len)
 194:lvgl/src/lv_core/../lv_font/../lv_misc/lv_mem.h **** {
 195:lvgl/src/lv_core/../lv_font/../lv_misc/lv_mem.h ****     memset(dst, 0xFF, len);
 196:lvgl/src/lv_core/../lv_font/../lv_misc/lv_mem.h **** }
 197:lvgl/src/lv_core/../lv_font/../lv_misc/lv_mem.h **** 
 198:lvgl/src/lv_core/../lv_font/../lv_misc/lv_mem.h **** #else
 199:lvgl/src/lv_core/../lv_font/../lv_misc/lv_mem.h **** /**
 200:lvgl/src/lv_core/../lv_font/../lv_misc/lv_mem.h ****  * Same as `memcpy` but optimized for 4 byte operation.
 201:lvgl/src/lv_core/../lv_font/../lv_misc/lv_mem.h ****  * @param dst pointer to the destination buffer
 202:lvgl/src/lv_core/../lv_font/../lv_misc/lv_mem.h ****  * @param src pointer to the source buffer
 203:lvgl/src/lv_core/../lv_font/../lv_misc/lv_mem.h ****  * @param len number of byte to copy
 204:lvgl/src/lv_core/../lv_font/../lv_misc/lv_mem.h ****  */
 205:lvgl/src/lv_core/../lv_font/../lv_misc/lv_mem.h **** LV_ATTRIBUTE_FAST_MEM void * _lv_memcpy(void * dst, const void * src, size_t len);
 206:lvgl/src/lv_core/../lv_font/../lv_misc/lv_mem.h **** 
 207:lvgl/src/lv_core/../lv_font/../lv_misc/lv_mem.h **** /**
 208:lvgl/src/lv_core/../lv_font/../lv_misc/lv_mem.h ****  * Same as `memcpy` but optimized to copy only a few bytes.
 209:lvgl/src/lv_core/../lv_font/../lv_misc/lv_mem.h ****  * @param dst pointer to the destination buffer
 210:lvgl/src/lv_core/../lv_font/../lv_misc/lv_mem.h ****  * @param src pointer to the source buffer
 211:lvgl/src/lv_core/../lv_font/../lv_misc/lv_mem.h ****  * @param len number of byte to copy
 212:lvgl/src/lv_core/../lv_font/../lv_misc/lv_mem.h ****  */
 213:lvgl/src/lv_core/../lv_font/../lv_misc/lv_mem.h **** LV_ATTRIBUTE_FAST_MEM static inline void * _lv_memcpy_small(void * dst, const void * src, size_t le
 1789              		.loc 3 213 44 is_stmt 1 view .LVU615
 1790              	.LBB278:
 214:lvgl/src/lv_core/../lv_font/../lv_misc/lv_mem.h **** {
 215:lvgl/src/lv_core/../lv_font/../lv_misc/lv_mem.h ****     uint8_t * d8 = (uint8_t *)dst;
 1791              		.loc 3 215 5 view .LVU616
 216:lvgl/src/lv_core/../lv_font/../lv_misc/lv_mem.h ****     const uint8_t * s8 = (const uint8_t *)src;
 1792              		.loc 3 216 5 view .LVU617
 217:lvgl/src/lv_core/../lv_font/../lv_misc/lv_mem.h **** 
 218:lvgl/src/lv_core/../lv_font/../lv_misc/lv_mem.h ****     while(len) {
 1793              		.loc 3 218 5 view .LVU618
 216:lvgl/src/lv_core/../lv_font/../lv_misc/lv_mem.h ****     const uint8_t * s8 = (const uint8_t *)src;
 1794              		.loc 3 216 21 is_stmt 0 view .LVU619
 1795 00fa 0DF10601 		add	r1, sp, #6
 1796              	.LVL179:
 216:lvgl/src/lv_core/../lv_font/../lv_misc/lv_mem.h ****     const uint8_t * s8 = (const uint8_t *)src;
 1797              		.loc 3 216 21 view .LVU620
 1798              	.LBE278:
 1799              	.LBE277:
 391:lvgl/src/lv_core/lv_style.c ****     _lv_memcpy_small(style->map + size - sizeof(lv_style_int_t) - end_mark_size, &value, sizeof(lv_
 1800              		.loc 1 391 56 view .LVU621
 1801 00fe 0222     		movs	r2, #2
 1802 0100 1BE0     		b	.L122
 1803              	.LVL180:
 1804              	.L129:
 1805              	.LBB280:
 1806              	.LBB265:
1057:lvgl/src/lv_core/lv_style.c **** 
 1807              		.loc 1 1057 35 view .LVU622
 1808 0102 4FF0FF33 		mov	r3, #-1
 1809 0106 CAE7     		b	.L109
 1810              	.LVL181:
 1811              	.L137:
1057:lvgl/src/lv_core/lv_style.c **** 
 1812              		.loc 1 1057 35 view .LVU623
ARM GAS  D:\Temp\cceOI0TF.s 			page 72


 1813              	.LBE265:
 1814              	.LBE280:
 1815              	.LBB281:
 374:lvgl/src/lv_core/lv_style.c ****             return;
 1816              		.loc 1 374 13 is_stmt 1 view .LVU624
 374:lvgl/src/lv_core/lv_style.c ****             return;
 1817              		.loc 1 374 35 is_stmt 0 view .LVU625
 1818 0108 0268     		ldr	r2, [r0]
 374:lvgl/src/lv_core/lv_style.c ****             return;
 1819              		.loc 1 374 46 view .LVU626
 1820 010a 0233     		adds	r3, r3, #2
 1821              	.LVL182:
 374:lvgl/src/lv_core/lv_style.c ****             return;
 1822              		.loc 1 374 46 view .LVU627
 1823 010c 1344     		add	r3, r3, r2
 1824              	.LVL183:
 1825              	.LBB271:
 1826              	.LBI271:
 213:lvgl/src/lv_core/../lv_font/../lv_misc/lv_mem.h **** {
 1827              		.loc 3 213 44 is_stmt 1 view .LVU628
 1828              	.LBB272:
 215:lvgl/src/lv_core/../lv_font/../lv_misc/lv_mem.h ****     const uint8_t * s8 = (const uint8_t *)src;
 1829              		.loc 3 215 5 view .LVU629
 216:lvgl/src/lv_core/../lv_font/../lv_misc/lv_mem.h **** 
 1830              		.loc 3 216 5 view .LVU630
 1831              		.loc 3 218 5 view .LVU631
 216:lvgl/src/lv_core/../lv_font/../lv_misc/lv_mem.h **** 
 1832              		.loc 3 216 21 is_stmt 0 view .LVU632
 1833 010e 01A9     		add	r1, sp, #4
 1834              	.LVL184:
 216:lvgl/src/lv_core/../lv_font/../lv_misc/lv_mem.h **** 
 1835              		.loc 3 216 21 view .LVU633
 1836              	.LBE272:
 1837              	.LBE271:
 374:lvgl/src/lv_core/lv_style.c ****             return;
 1838              		.loc 1 374 46 view .LVU634
 1839 0110 0222     		movs	r2, #2
 1840 0112 04E0     		b	.L116
 1841              	.LVL185:
 1842              	.L117:
 1843              	.LBB274:
 1844              	.LBB273:
 219:lvgl/src/lv_core/../lv_font/../lv_misc/lv_mem.h ****         *d8 = *s8;
 1845              		.loc 3 219 9 is_stmt 1 view .LVU635
 1846              		.loc 3 219 15 is_stmt 0 view .LVU636
 1847 0114 11F8010B 		ldrb	r0, [r1], #1	@ zero_extendqisi2
 1848              	.LVL186:
 1849              		.loc 3 219 13 view .LVU637
 1850 0118 03F8010B 		strb	r0, [r3], #1
 1851              	.LVL187:
 220:lvgl/src/lv_core/../lv_font/../lv_misc/lv_mem.h ****         d8++;
 1852              		.loc 3 220 9 is_stmt 1 view .LVU638
 221:lvgl/src/lv_core/../lv_font/../lv_misc/lv_mem.h ****         s8++;
 1853              		.loc 3 221 9 view .LVU639
 222:lvgl/src/lv_core/../lv_font/../lv_misc/lv_mem.h ****         len--;
 1854              		.loc 3 222 9 view .LVU640
 1855              		.loc 3 222 12 is_stmt 0 view .LVU641
ARM GAS  D:\Temp\cceOI0TF.s 			page 73


 1856 011c 013A     		subs	r2, r2, #1
 1857              	.LVL188:
 1858              	.L116:
 218:lvgl/src/lv_core/../lv_font/../lv_misc/lv_mem.h ****         *d8 = *s8;
 1859              		.loc 3 218 10 view .LVU642
 1860 011e 002A     		cmp	r2, #0
 1861 0120 F8D1     		bne	.L117
 218:lvgl/src/lv_core/../lv_font/../lv_misc/lv_mem.h ****         *d8 = *s8;
 1862              		.loc 3 218 10 view .LVU643
 1863 0122 26E0     		b	.L108
 1864              	.LVL189:
 1865              	.L138:
 218:lvgl/src/lv_core/../lv_font/../lv_misc/lv_mem.h ****         *d8 = *s8;
 1866              		.loc 3 218 10 view .LVU644
 1867              	.LBE273:
 1868              	.LBE274:
 1869              	.LBE281:
 388:lvgl/src/lv_core/lv_style.c ****     if(style == NULL) return;
 1870              		.loc 1 388 5 is_stmt 1 discriminator 1 view .LVU645
 388:lvgl/src/lv_core/lv_style.c ****     if(style == NULL) return;
 1871              		.loc 1 388 5 discriminator 1 view .LVU646
 1872 0124 2A68     		ldr	r2, [r5]
 1873 0126 0023     		movs	r3, #0
 1874 0128 1348     		ldr	r0, .L139
 1875 012a FFF7FEFF 		bl	lv_debug_log_error
 1876              	.LVL190:
 1877              	.L121:
 388:lvgl/src/lv_core/lv_style.c ****     if(style == NULL) return;
 1878              		.loc 1 388 5 discriminator 1 view .LVU647
 388:lvgl/src/lv_core/lv_style.c ****     if(style == NULL) return;
 1879              		.loc 1 388 5 discriminator 1 view .LVU648
 1880 012e FEE7     		b	.L121
 1881              	.LVL191:
 1882              	.L123:
 1883              	.LBB282:
 1884              	.LBB279:
 219:lvgl/src/lv_core/../lv_font/../lv_misc/lv_mem.h ****         d8++;
 1885              		.loc 3 219 9 view .LVU649
 219:lvgl/src/lv_core/../lv_font/../lv_misc/lv_mem.h ****         d8++;
 1886              		.loc 3 219 15 is_stmt 0 view .LVU650
 1887 0130 11F8016B 		ldrb	r6, [r1], #1	@ zero_extendqisi2
 1888              	.LVL192:
 219:lvgl/src/lv_core/../lv_font/../lv_misc/lv_mem.h ****         d8++;
 1889              		.loc 3 219 13 view .LVU651
 1890 0134 03F8016B 		strb	r6, [r3], #1
 1891              	.LVL193:
 220:lvgl/src/lv_core/../lv_font/../lv_misc/lv_mem.h ****         s8++;
 1892              		.loc 3 220 9 is_stmt 1 view .LVU652
 221:lvgl/src/lv_core/../lv_font/../lv_misc/lv_mem.h ****         len--;
 1893              		.loc 3 221 9 view .LVU653
 1894              		.loc 3 222 9 view .LVU654
 1895              		.loc 3 222 12 is_stmt 0 view .LVU655
 1896 0138 013A     		subs	r2, r2, #1
 1897              	.LVL194:
 1898              	.L122:
 218:lvgl/src/lv_core/../lv_font/../lv_misc/lv_mem.h ****         *d8 = *s8;
 1899              		.loc 3 218 10 view .LVU656
ARM GAS  D:\Temp\cceOI0TF.s 			page 74


 1900 013a 002A     		cmp	r2, #0
 1901 013c F8D1     		bne	.L123
 223:lvgl/src/lv_core/../lv_font/../lv_misc/lv_mem.h ****     }
 224:lvgl/src/lv_core/../lv_font/../lv_misc/lv_mem.h **** 
 225:lvgl/src/lv_core/../lv_font/../lv_misc/lv_mem.h ****     return dst;
 1902              		.loc 3 225 5 is_stmt 1 view .LVU657
 1903              	.LVL195:
 1904              		.loc 3 225 5 is_stmt 0 view .LVU658
 1905              	.LBE279:
 1906              	.LBE282:
 392:lvgl/src/lv_core/lv_style.c ****     _lv_memcpy_small(style->map + size - end_mark_size, &end_mark, sizeof(end_mark));
 1907              		.loc 1 392 5 is_stmt 1 view .LVU659
 392:lvgl/src/lv_core/lv_style.c ****     _lv_memcpy_small(style->map + size - end_mark_size, &end_mark, sizeof(end_mark));
 1908              		.loc 1 392 27 is_stmt 0 view .LVU660
 1909 013e 2B68     		ldr	r3, [r5]
 392:lvgl/src/lv_core/lv_style.c ****     _lv_memcpy_small(style->map + size - end_mark_size, &end_mark, sizeof(end_mark));
 1910              		.loc 1 392 65 view .LVU661
 1911 0140 023C     		subs	r4, r4, #2
 1912 0142 0344     		add	r3, r3, r0
 1913              	.LVL196:
 1914              	.LBB283:
 1915              	.LBI283:
 213:lvgl/src/lv_core/../lv_font/../lv_misc/lv_mem.h **** {
 1916              		.loc 3 213 44 is_stmt 1 view .LVU662
 1917              	.LBB284:
 216:lvgl/src/lv_core/../lv_font/../lv_misc/lv_mem.h **** 
 1918              		.loc 3 216 21 is_stmt 0 view .LVU663
 1919 0144 01A9     		add	r1, sp, #4
 1920              	.LVL197:
 216:lvgl/src/lv_core/../lv_font/../lv_misc/lv_mem.h **** 
 1921              		.loc 3 216 21 view .LVU664
 1922              	.LBE284:
 1923              	.LBE283:
 392:lvgl/src/lv_core/lv_style.c ****     _lv_memcpy_small(style->map + size - end_mark_size, &end_mark, sizeof(end_mark));
 1924              		.loc 1 392 65 view .LVU665
 1925 0146 0222     		movs	r2, #2
 1926 0148 04E0     		b	.L124
 1927              	.LVL198:
 1928              	.L125:
 1929              	.LBB286:
 1930              	.LBB285:
 219:lvgl/src/lv_core/../lv_font/../lv_misc/lv_mem.h ****         d8++;
 1931              		.loc 3 219 9 is_stmt 1 view .LVU666
 219:lvgl/src/lv_core/../lv_font/../lv_misc/lv_mem.h ****         d8++;
 1932              		.loc 3 219 15 is_stmt 0 view .LVU667
 1933 014a 11F8010B 		ldrb	r0, [r1], #1	@ zero_extendqisi2
 1934              	.LVL199:
