ARM GAS  D:\Temp\ccnA29ZW.s 			page 1


   1              		.cpu cortex-m4
   2              		.eabi_attribute 27, 1
   3              		.eabi_attribute 28, 1
   4              		.eabi_attribute 20, 1
   5              		.eabi_attribute 21, 1
   6              		.eabi_attribute 23, 3
   7              		.eabi_attribute 24, 1
   8              		.eabi_attribute 25, 1
   9              		.eabi_attribute 26, 1
  10              		.eabi_attribute 30, 1
  11              		.eabi_attribute 34, 1
  12              		.eabi_attribute 18, 4
  13              		.file	"lv_tabview.c"
  14              		.text
  15              	.Ltext0:
  16              		.cfi_sections	.debug_frame
  17              		.section	.text.lv_tabview_get_style,"ax",%progbits
  18              		.align	1
  19              		.arch armv7e-m
  20              		.syntax unified
  21              		.thumb
  22              		.thumb_func
  23              		.fpu fpv4-sp-d16
  25              	lv_tabview_get_style:
  26              	.LVL0:
  27              	.LFB504:
  28              		.file 1 "lvgl/src/lv_widgets/lv_tabview.c"
   1:lvgl/src/lv_widgets/lv_tabview.c **** /**
   2:lvgl/src/lv_widgets/lv_tabview.c ****  * @file lv_tab.c
   3:lvgl/src/lv_widgets/lv_tabview.c ****  *
   4:lvgl/src/lv_widgets/lv_tabview.c ****  */
   5:lvgl/src/lv_widgets/lv_tabview.c **** 
   6:lvgl/src/lv_widgets/lv_tabview.c **** /*********************
   7:lvgl/src/lv_widgets/lv_tabview.c ****  *      INCLUDES
   8:lvgl/src/lv_widgets/lv_tabview.c ****  *********************/
   9:lvgl/src/lv_widgets/lv_tabview.c **** #include "lv_tabview.h"
  10:lvgl/src/lv_widgets/lv_tabview.c **** #if LV_USE_TABVIEW != 0
  11:lvgl/src/lv_widgets/lv_tabview.c **** 
  12:lvgl/src/lv_widgets/lv_tabview.c **** #include "lv_btnmatrix.h"
  13:lvgl/src/lv_widgets/lv_tabview.c **** #include "../lv_misc/lv_debug.h"
  14:lvgl/src/lv_widgets/lv_tabview.c **** #include "../lv_themes/lv_theme.h"
  15:lvgl/src/lv_widgets/lv_tabview.c **** #include "../lv_misc/lv_anim.h"
  16:lvgl/src/lv_widgets/lv_tabview.c **** #include "../lv_core/lv_disp.h"
  17:lvgl/src/lv_widgets/lv_tabview.c **** 
  18:lvgl/src/lv_widgets/lv_tabview.c **** /*********************
  19:lvgl/src/lv_widgets/lv_tabview.c ****  *      DEFINES
  20:lvgl/src/lv_widgets/lv_tabview.c ****  *********************/
  21:lvgl/src/lv_widgets/lv_tabview.c **** #define LV_OBJX_NAME "lv_tabview"
  22:lvgl/src/lv_widgets/lv_tabview.c **** 
  23:lvgl/src/lv_widgets/lv_tabview.c **** #if LV_USE_ANIMATION
  24:lvgl/src/lv_widgets/lv_tabview.c ****     #ifndef LV_TABVIEW_DEF_ANIM_TIME
  25:lvgl/src/lv_widgets/lv_tabview.c ****         #define LV_TABVIEW_DEF_ANIM_TIME 300 /*Animation time of focusing to the a list element [ms
  26:lvgl/src/lv_widgets/lv_tabview.c ****     #endif
  27:lvgl/src/lv_widgets/lv_tabview.c **** #else
  28:lvgl/src/lv_widgets/lv_tabview.c ****     #undef LV_TABVIEW_DEF_ANIM_TIME
  29:lvgl/src/lv_widgets/lv_tabview.c ****     #define LV_TABVIEW_DEF_ANIM_TIME 0 /*No animations*/
  30:lvgl/src/lv_widgets/lv_tabview.c **** #endif
ARM GAS  D:\Temp\ccnA29ZW.s 			page 2


  31:lvgl/src/lv_widgets/lv_tabview.c **** 
  32:lvgl/src/lv_widgets/lv_tabview.c **** /**********************
  33:lvgl/src/lv_widgets/lv_tabview.c ****  *      TYPEDEFS
  34:lvgl/src/lv_widgets/lv_tabview.c ****  **********************/
  35:lvgl/src/lv_widgets/lv_tabview.c **** 
  36:lvgl/src/lv_widgets/lv_tabview.c **** /**********************
  37:lvgl/src/lv_widgets/lv_tabview.c ****  *  STATIC PROTOTYPES
  38:lvgl/src/lv_widgets/lv_tabview.c ****  **********************/
  39:lvgl/src/lv_widgets/lv_tabview.c **** static lv_res_t lv_tabview_signal(lv_obj_t * tabview, lv_signal_t sign, void * param);
  40:lvgl/src/lv_widgets/lv_tabview.c **** static lv_res_t tabview_scrl_signal(lv_obj_t * tabview_scrl, lv_signal_t sign, void * param);
  41:lvgl/src/lv_widgets/lv_tabview.c **** static lv_style_list_t * lv_tabview_get_style(lv_obj_t * tabview, uint8_t part);
  42:lvgl/src/lv_widgets/lv_tabview.c **** 
  43:lvgl/src/lv_widgets/lv_tabview.c **** static void tab_btnm_event_cb(lv_obj_t * tab_btnm, lv_event_t event);
  44:lvgl/src/lv_widgets/lv_tabview.c **** static void tabview_realign(lv_obj_t * tabview);
  45:lvgl/src/lv_widgets/lv_tabview.c **** static void refr_indic_size(lv_obj_t * tabview);
  46:lvgl/src/lv_widgets/lv_tabview.c **** static void refr_btns_size(lv_obj_t * tabview);
  47:lvgl/src/lv_widgets/lv_tabview.c **** static void refr_content_size(lv_obj_t * tabview);
  48:lvgl/src/lv_widgets/lv_tabview.c **** static void refr_align(lv_obj_t * tabview);
  49:lvgl/src/lv_widgets/lv_tabview.c **** 
  50:lvgl/src/lv_widgets/lv_tabview.c **** /**********************
  51:lvgl/src/lv_widgets/lv_tabview.c ****  *  STATIC VARIABLES
  52:lvgl/src/lv_widgets/lv_tabview.c ****  **********************/
  53:lvgl/src/lv_widgets/lv_tabview.c **** static lv_signal_cb_t ancestor_signal;
  54:lvgl/src/lv_widgets/lv_tabview.c **** static lv_signal_cb_t ancestor_scrl_signal;
  55:lvgl/src/lv_widgets/lv_tabview.c **** static lv_signal_cb_t page_signal;
  56:lvgl/src/lv_widgets/lv_tabview.c **** static const char * tab_def[] = {""};
  57:lvgl/src/lv_widgets/lv_tabview.c **** 
  58:lvgl/src/lv_widgets/lv_tabview.c **** /**********************
  59:lvgl/src/lv_widgets/lv_tabview.c ****  *      MACROS
  60:lvgl/src/lv_widgets/lv_tabview.c ****  **********************/
  61:lvgl/src/lv_widgets/lv_tabview.c **** 
  62:lvgl/src/lv_widgets/lv_tabview.c **** /**********************
  63:lvgl/src/lv_widgets/lv_tabview.c ****  *   GLOBAL FUNCTIONS
  64:lvgl/src/lv_widgets/lv_tabview.c ****  **********************/
  65:lvgl/src/lv_widgets/lv_tabview.c **** 
  66:lvgl/src/lv_widgets/lv_tabview.c **** /**
  67:lvgl/src/lv_widgets/lv_tabview.c ****  * Create a Tab view object
  68:lvgl/src/lv_widgets/lv_tabview.c ****  * @param par pointer to an object, it will be the parent of the new tab
  69:lvgl/src/lv_widgets/lv_tabview.c ****  * @param copy pointer to a tab object, if not NULL then the new object will be copied from it
  70:lvgl/src/lv_widgets/lv_tabview.c ****  * @return pointer to the created tab
  71:lvgl/src/lv_widgets/lv_tabview.c ****  */
  72:lvgl/src/lv_widgets/lv_tabview.c **** lv_obj_t * lv_tabview_create(lv_obj_t * par, const lv_obj_t * copy)
  73:lvgl/src/lv_widgets/lv_tabview.c **** {
  74:lvgl/src/lv_widgets/lv_tabview.c ****     LV_LOG_TRACE("tab view create started");
  75:lvgl/src/lv_widgets/lv_tabview.c **** 
  76:lvgl/src/lv_widgets/lv_tabview.c ****     /*Create the ancestor of tab*/
  77:lvgl/src/lv_widgets/lv_tabview.c ****     lv_obj_t * tabview = lv_obj_create(par, copy);
  78:lvgl/src/lv_widgets/lv_tabview.c ****     LV_ASSERT_MEM(tabview);
  79:lvgl/src/lv_widgets/lv_tabview.c ****     if(tabview == NULL) return NULL;
  80:lvgl/src/lv_widgets/lv_tabview.c ****     if(ancestor_signal == NULL) ancestor_signal = lv_obj_get_signal_cb(tabview);
  81:lvgl/src/lv_widgets/lv_tabview.c **** 
  82:lvgl/src/lv_widgets/lv_tabview.c ****     /*Allocate the tab type specific extended data*/
  83:lvgl/src/lv_widgets/lv_tabview.c ****     lv_tabview_ext_t * ext = lv_obj_allocate_ext_attr(tabview, sizeof(lv_tabview_ext_t));
  84:lvgl/src/lv_widgets/lv_tabview.c ****     LV_ASSERT_MEM(ext);
  85:lvgl/src/lv_widgets/lv_tabview.c ****     if(ext == NULL) {
  86:lvgl/src/lv_widgets/lv_tabview.c ****         lv_obj_del(tabview);
  87:lvgl/src/lv_widgets/lv_tabview.c ****         return NULL;
ARM GAS  D:\Temp\ccnA29ZW.s 			page 3


  88:lvgl/src/lv_widgets/lv_tabview.c ****     }
  89:lvgl/src/lv_widgets/lv_tabview.c **** 
  90:lvgl/src/lv_widgets/lv_tabview.c ****     /*Initialize the allocated 'ext' */
  91:lvgl/src/lv_widgets/lv_tabview.c ****     ext->tab_cur      = 0;
  92:lvgl/src/lv_widgets/lv_tabview.c ****     ext->tab_cnt      = 0;
  93:lvgl/src/lv_widgets/lv_tabview.c ****     ext->point_last.x = 0;
  94:lvgl/src/lv_widgets/lv_tabview.c ****     ext->point_last.y = 0;
  95:lvgl/src/lv_widgets/lv_tabview.c ****     ext->content      = NULL;
  96:lvgl/src/lv_widgets/lv_tabview.c ****     ext->indic        = NULL;
  97:lvgl/src/lv_widgets/lv_tabview.c ****     ext->btns         = NULL;
  98:lvgl/src/lv_widgets/lv_tabview.c ****     ext->btns_pos     = LV_TABVIEW_TAB_POS_TOP;
  99:lvgl/src/lv_widgets/lv_tabview.c **** #if LV_USE_ANIMATION
 100:lvgl/src/lv_widgets/lv_tabview.c ****     ext->anim_time = LV_TABVIEW_DEF_ANIM_TIME;
 101:lvgl/src/lv_widgets/lv_tabview.c **** #endif
 102:lvgl/src/lv_widgets/lv_tabview.c **** 
 103:lvgl/src/lv_widgets/lv_tabview.c ****     /*The signal and design functions are not copied so set them here*/
 104:lvgl/src/lv_widgets/lv_tabview.c ****     lv_obj_set_signal_cb(tabview, lv_tabview_signal);
 105:lvgl/src/lv_widgets/lv_tabview.c ****     /*Init the new tab tab*/
 106:lvgl/src/lv_widgets/lv_tabview.c ****     if(copy == NULL) {
 107:lvgl/src/lv_widgets/lv_tabview.c ****         ext->tab_name_ptr = lv_mem_alloc(sizeof(char *));
 108:lvgl/src/lv_widgets/lv_tabview.c ****         LV_ASSERT_MEM(ext->tab_name_ptr);
 109:lvgl/src/lv_widgets/lv_tabview.c ****         if(ext->tab_name_ptr == NULL) return NULL;
 110:lvgl/src/lv_widgets/lv_tabview.c ****         ext->tab_name_ptr[0] = "";
 111:lvgl/src/lv_widgets/lv_tabview.c **** 
 112:lvgl/src/lv_widgets/lv_tabview.c ****         /* Set a size which fits into the parent.
 113:lvgl/src/lv_widgets/lv_tabview.c ****          * Don't use `par` directly because if the tabview is created on a page it is moved to the
 114:lvgl/src/lv_widgets/lv_tabview.c ****          * scrollable so the parent has changed */
 115:lvgl/src/lv_widgets/lv_tabview.c ****         lv_coord_t w;
 116:lvgl/src/lv_widgets/lv_tabview.c ****         lv_coord_t h;
 117:lvgl/src/lv_widgets/lv_tabview.c ****         if(par) {
 118:lvgl/src/lv_widgets/lv_tabview.c ****             w = lv_obj_get_width_fit(lv_obj_get_parent(tabview));
 119:lvgl/src/lv_widgets/lv_tabview.c ****             h = lv_obj_get_height_fit(lv_obj_get_parent(tabview));
 120:lvgl/src/lv_widgets/lv_tabview.c ****         }
 121:lvgl/src/lv_widgets/lv_tabview.c ****         else {
 122:lvgl/src/lv_widgets/lv_tabview.c ****             w = lv_disp_get_hor_res(NULL);
 123:lvgl/src/lv_widgets/lv_tabview.c ****             h = lv_disp_get_ver_res(NULL);
 124:lvgl/src/lv_widgets/lv_tabview.c ****         }
 125:lvgl/src/lv_widgets/lv_tabview.c **** 
 126:lvgl/src/lv_widgets/lv_tabview.c ****         lv_obj_set_size(tabview, w, h);
 127:lvgl/src/lv_widgets/lv_tabview.c **** 
 128:lvgl/src/lv_widgets/lv_tabview.c ****         ext->content = lv_page_create(tabview, NULL);
 129:lvgl/src/lv_widgets/lv_tabview.c ****         ext->btns    = lv_btnmatrix_create(tabview, NULL);
 130:lvgl/src/lv_widgets/lv_tabview.c ****         ext->indic   = lv_obj_create(ext->btns, NULL);
 131:lvgl/src/lv_widgets/lv_tabview.c **** 
 132:lvgl/src/lv_widgets/lv_tabview.c ****         if(ancestor_scrl_signal == NULL) ancestor_scrl_signal = lv_obj_get_signal_cb(lv_page_get_sc
 133:lvgl/src/lv_widgets/lv_tabview.c ****         lv_obj_set_signal_cb(lv_page_get_scrollable(ext->content), tabview_scrl_signal);
 134:lvgl/src/lv_widgets/lv_tabview.c **** 
 135:lvgl/src/lv_widgets/lv_tabview.c ****         lv_btnmatrix_set_map(ext->btns, tab_def);
 136:lvgl/src/lv_widgets/lv_tabview.c ****         lv_obj_set_event_cb(ext->btns, tab_btnm_event_cb);
 137:lvgl/src/lv_widgets/lv_tabview.c **** 
 138:lvgl/src/lv_widgets/lv_tabview.c ****         lv_obj_set_click(ext->indic, false);
 139:lvgl/src/lv_widgets/lv_tabview.c ****         lv_obj_set_drag_dir(lv_page_get_scrollable(ext->content), LV_DRAG_DIR_ONE);
 140:lvgl/src/lv_widgets/lv_tabview.c **** 
 141:lvgl/src/lv_widgets/lv_tabview.c ****         lv_page_set_scrollable_fit2(ext->content, LV_FIT_TIGHT, LV_FIT_PARENT);
 142:lvgl/src/lv_widgets/lv_tabview.c ****         lv_page_set_scrl_layout(ext->content, LV_LAYOUT_ROW_TOP);
 143:lvgl/src/lv_widgets/lv_tabview.c ****         lv_page_set_scrollbar_mode(ext->content, LV_SCROLLBAR_MODE_OFF);
 144:lvgl/src/lv_widgets/lv_tabview.c **** 
ARM GAS  D:\Temp\ccnA29ZW.s 			page 4


 145:lvgl/src/lv_widgets/lv_tabview.c ****         lv_obj_clean_style_list(ext->content, LV_PAGE_PART_BG);
 146:lvgl/src/lv_widgets/lv_tabview.c **** 
 147:lvgl/src/lv_widgets/lv_tabview.c ****         lv_theme_apply(tabview, LV_THEME_TABVIEW);
 148:lvgl/src/lv_widgets/lv_tabview.c **** 
 149:lvgl/src/lv_widgets/lv_tabview.c ****     }
 150:lvgl/src/lv_widgets/lv_tabview.c ****     /*Copy an existing tab view*/
 151:lvgl/src/lv_widgets/lv_tabview.c ****     else {
 152:lvgl/src/lv_widgets/lv_tabview.c ****         lv_tabview_ext_t * copy_ext = lv_obj_get_ext_attr(copy);
 153:lvgl/src/lv_widgets/lv_tabview.c ****         ext->point_last.x           = 0;
 154:lvgl/src/lv_widgets/lv_tabview.c ****         ext->point_last.y           = 0;
 155:lvgl/src/lv_widgets/lv_tabview.c ****         ext->btns                   = lv_btnmatrix_create(tabview, copy_ext->btns);
 156:lvgl/src/lv_widgets/lv_tabview.c ****         ext->indic                  = lv_obj_create(ext->btns, copy_ext->indic);
 157:lvgl/src/lv_widgets/lv_tabview.c ****         ext->content                = lv_page_create(tabview, copy_ext->content);
 158:lvgl/src/lv_widgets/lv_tabview.c **** #if LV_USE_ANIMATION
 159:lvgl/src/lv_widgets/lv_tabview.c ****         ext->anim_time = copy_ext->anim_time;
 160:lvgl/src/lv_widgets/lv_tabview.c **** #endif
 161:lvgl/src/lv_widgets/lv_tabview.c **** 
 162:lvgl/src/lv_widgets/lv_tabview.c ****         ext->tab_name_ptr = lv_mem_alloc(sizeof(char *));
 163:lvgl/src/lv_widgets/lv_tabview.c ****         LV_ASSERT_MEM(ext->tab_name_ptr);
 164:lvgl/src/lv_widgets/lv_tabview.c ****         if(ext->tab_name_ptr == NULL) return NULL;
 165:lvgl/src/lv_widgets/lv_tabview.c ****         ext->tab_name_ptr[0] = "";
 166:lvgl/src/lv_widgets/lv_tabview.c ****         lv_btnmatrix_set_map(ext->btns, ext->tab_name_ptr);
 167:lvgl/src/lv_widgets/lv_tabview.c **** 
 168:lvgl/src/lv_widgets/lv_tabview.c ****         lv_style_list_copy(lv_obj_get_style_list(tabview, LV_TABVIEW_PART_BG_SCROLLABLE), lv_obj_ge
 169:lvgl/src/lv_widgets/lv_tabview.c ****                                                                                                    
 170:lvgl/src/lv_widgets/lv_tabview.c ****         lv_style_list_copy(lv_obj_get_style_list(tabview, LV_TABVIEW_PART_TAB_BG), lv_obj_get_style
 171:lvgl/src/lv_widgets/lv_tabview.c ****                                                                                                    
 172:lvgl/src/lv_widgets/lv_tabview.c ****         lv_style_list_copy(lv_obj_get_style_list(tabview, LV_TABVIEW_PART_TAB_BTN), lv_obj_get_styl
 173:lvgl/src/lv_widgets/lv_tabview.c ****                                                                                                    
 174:lvgl/src/lv_widgets/lv_tabview.c **** 
 175:lvgl/src/lv_widgets/lv_tabview.c ****         uint16_t i;
 176:lvgl/src/lv_widgets/lv_tabview.c ****         for(i = 0; i < copy_ext->tab_cnt; i++) {
 177:lvgl/src/lv_widgets/lv_tabview.c ****             lv_obj_t * new_tab = lv_tabview_add_tab(tabview, copy_ext->tab_name_ptr[i]);
 178:lvgl/src/lv_widgets/lv_tabview.c ****             lv_obj_t * copy_tab = lv_tabview_get_tab(copy, i);
 179:lvgl/src/lv_widgets/lv_tabview.c ****             lv_style_list_copy(lv_obj_get_style_list(new_tab, LV_PAGE_PART_SCROLLABLE), lv_obj_get_
 180:lvgl/src/lv_widgets/lv_tabview.c ****                                                                                                    
 181:lvgl/src/lv_widgets/lv_tabview.c ****             lv_style_list_copy(lv_obj_get_style_list(new_tab, LV_PAGE_PART_SCROLLBAR), lv_obj_get_s
 182:lvgl/src/lv_widgets/lv_tabview.c ****                                                                                                    
 183:lvgl/src/lv_widgets/lv_tabview.c ****             lv_obj_refresh_style(new_tab, LV_OBJ_PART_ALL, LV_STYLE_PROP_ALL);
 184:lvgl/src/lv_widgets/lv_tabview.c ****         }
 185:lvgl/src/lv_widgets/lv_tabview.c **** 
 186:lvgl/src/lv_widgets/lv_tabview.c ****         /*Refresh the style with new signal function*/
 187:lvgl/src/lv_widgets/lv_tabview.c ****         lv_obj_refresh_style(tabview, LV_OBJ_PART_ALL, LV_STYLE_PROP_ALL);
 188:lvgl/src/lv_widgets/lv_tabview.c ****     }
 189:lvgl/src/lv_widgets/lv_tabview.c **** 
 190:lvgl/src/lv_widgets/lv_tabview.c ****     tabview_realign(tabview);
 191:lvgl/src/lv_widgets/lv_tabview.c **** 
 192:lvgl/src/lv_widgets/lv_tabview.c ****     LV_LOG_INFO("tab view created");
 193:lvgl/src/lv_widgets/lv_tabview.c **** 
 194:lvgl/src/lv_widgets/lv_tabview.c ****     return tabview;
 195:lvgl/src/lv_widgets/lv_tabview.c **** }
 196:lvgl/src/lv_widgets/lv_tabview.c **** 
 197:lvgl/src/lv_widgets/lv_tabview.c **** /*======================
 198:lvgl/src/lv_widgets/lv_tabview.c ****  * Add/remove functions
 199:lvgl/src/lv_widgets/lv_tabview.c ****  *=====================*/
 200:lvgl/src/lv_widgets/lv_tabview.c **** 
 201:lvgl/src/lv_widgets/lv_tabview.c **** /**
ARM GAS  D:\Temp\ccnA29ZW.s 			page 5


 202:lvgl/src/lv_widgets/lv_tabview.c ****  * Add a new tab with the given name
 203:lvgl/src/lv_widgets/lv_tabview.c ****  * @param tabview pointer to Tab view object where to ass the new tab
 204:lvgl/src/lv_widgets/lv_tabview.c ****  * @param name the text on the tab button
 205:lvgl/src/lv_widgets/lv_tabview.c ****  * @return pointer to the created page object (lv_page). You can create your content here
 206:lvgl/src/lv_widgets/lv_tabview.c ****  */
 207:lvgl/src/lv_widgets/lv_tabview.c **** lv_obj_t * lv_tabview_add_tab(lv_obj_t * tabview, const char * name)
 208:lvgl/src/lv_widgets/lv_tabview.c **** {
 209:lvgl/src/lv_widgets/lv_tabview.c ****     LV_ASSERT_OBJ(tabview, LV_OBJX_NAME);
 210:lvgl/src/lv_widgets/lv_tabview.c ****     LV_ASSERT_STR(name);
 211:lvgl/src/lv_widgets/lv_tabview.c **** 
 212:lvgl/src/lv_widgets/lv_tabview.c ****     lv_tabview_ext_t * ext = lv_obj_get_ext_attr(tabview);
 213:lvgl/src/lv_widgets/lv_tabview.c **** 
 214:lvgl/src/lv_widgets/lv_tabview.c ****     /*Create the container page*/
 215:lvgl/src/lv_widgets/lv_tabview.c ****     lv_obj_t * h = lv_page_create(ext->content, NULL);
 216:lvgl/src/lv_widgets/lv_tabview.c ****     lv_obj_set_size(h, lv_obj_get_width(tabview), lv_obj_get_height(ext->content));
 217:lvgl/src/lv_widgets/lv_tabview.c ****     lv_page_set_scrollbar_mode(h, LV_SCROLLBAR_MODE_AUTO);
 218:lvgl/src/lv_widgets/lv_tabview.c ****     lv_page_set_scroll_propagation(h, true);
 219:lvgl/src/lv_widgets/lv_tabview.c ****     lv_page_set_scrollable_fit4(h, LV_FIT_NONE, LV_FIT_MAX, LV_FIT_NONE, LV_FIT_MAX);
 220:lvgl/src/lv_widgets/lv_tabview.c ****     lv_theme_apply(h, LV_THEME_TABVIEW_PAGE);
 221:lvgl/src/lv_widgets/lv_tabview.c **** 
 222:lvgl/src/lv_widgets/lv_tabview.c ****     if(page_signal == NULL) page_signal = lv_obj_get_signal_cb(h);
 223:lvgl/src/lv_widgets/lv_tabview.c **** 
 224:lvgl/src/lv_widgets/lv_tabview.c ****     /*Extend the button matrix map with the new name*/
 225:lvgl/src/lv_widgets/lv_tabview.c ****     char * name_dm;
 226:lvgl/src/lv_widgets/lv_tabview.c ****     name_dm = lv_mem_alloc(strlen(name) + 1); /*+1 for the closing '\0' */
 227:lvgl/src/lv_widgets/lv_tabview.c ****     LV_ASSERT_MEM(name_dm);
 228:lvgl/src/lv_widgets/lv_tabview.c ****     if(name_dm == NULL) return NULL;
 229:lvgl/src/lv_widgets/lv_tabview.c ****     strcpy(name_dm, name);
 230:lvgl/src/lv_widgets/lv_tabview.c **** 
 231:lvgl/src/lv_widgets/lv_tabview.c ****     ext->tab_cnt++;
 232:lvgl/src/lv_widgets/lv_tabview.c **** 
 233:lvgl/src/lv_widgets/lv_tabview.c ****     /* FIXME: It is not possible yet to switch tab button position from/to top/bottom from/to left/
 234:lvgl/src/lv_widgets/lv_tabview.c ****      * Method: clean extra \n when switch from LV_TABVIEW_BTNS_POS_LEFT or LV_TABVIEW_BTNS_POS_RIGH
 235:lvgl/src/lv_widgets/lv_tabview.c ****      * to LV_TABVIEW_BTNS_POS_TOP or LV_TABVIEW_BTNS_POS_BOTTOM.
 236:lvgl/src/lv_widgets/lv_tabview.c ****      */
 237:lvgl/src/lv_widgets/lv_tabview.c ****     switch(ext->btns_pos) {
 238:lvgl/src/lv_widgets/lv_tabview.c ****         default: /*default case is prevented in lv_tabview_set_btns_pos(), but here for safety*/
 239:lvgl/src/lv_widgets/lv_tabview.c ****         case LV_TABVIEW_TAB_POS_NONE:
 240:lvgl/src/lv_widgets/lv_tabview.c ****         case LV_TABVIEW_TAB_POS_TOP:
 241:lvgl/src/lv_widgets/lv_tabview.c ****         case LV_TABVIEW_TAB_POS_BOTTOM:
 242:lvgl/src/lv_widgets/lv_tabview.c ****             ext->tab_name_ptr = lv_mem_realloc(ext->tab_name_ptr, sizeof(char *) * (ext->tab_cnt + 
 243:lvgl/src/lv_widgets/lv_tabview.c **** 
 244:lvgl/src/lv_widgets/lv_tabview.c ****             LV_ASSERT_MEM(ext->tab_name_ptr);
 245:lvgl/src/lv_widgets/lv_tabview.c ****             if(ext->tab_name_ptr == NULL) return NULL;
 246:lvgl/src/lv_widgets/lv_tabview.c **** 
 247:lvgl/src/lv_widgets/lv_tabview.c ****             ext->tab_name_ptr[ext->tab_cnt - 1] = name_dm;
 248:lvgl/src/lv_widgets/lv_tabview.c ****             ext->tab_name_ptr[ext->tab_cnt]     = "";
 249:lvgl/src/lv_widgets/lv_tabview.c **** 
 250:lvgl/src/lv_widgets/lv_tabview.c ****             break;
 251:lvgl/src/lv_widgets/lv_tabview.c ****         case LV_TABVIEW_TAB_POS_LEFT:
 252:lvgl/src/lv_widgets/lv_tabview.c ****         case LV_TABVIEW_TAB_POS_RIGHT:
 253:lvgl/src/lv_widgets/lv_tabview.c ****             ext->tab_name_ptr = lv_mem_realloc(ext->tab_name_ptr, sizeof(char *) * (ext->tab_cnt * 
 254:lvgl/src/lv_widgets/lv_tabview.c **** 
 255:lvgl/src/lv_widgets/lv_tabview.c ****             LV_ASSERT_MEM(ext->tab_name_ptr);
 256:lvgl/src/lv_widgets/lv_tabview.c ****             if(ext->tab_name_ptr == NULL) return NULL;
 257:lvgl/src/lv_widgets/lv_tabview.c **** 
 258:lvgl/src/lv_widgets/lv_tabview.c ****             if(ext->tab_cnt == 1) {
ARM GAS  D:\Temp\ccnA29ZW.s 			page 6


 259:lvgl/src/lv_widgets/lv_tabview.c ****                 ext->tab_name_ptr[0] = name_dm;
 260:lvgl/src/lv_widgets/lv_tabview.c ****                 ext->tab_name_ptr[1] = "";
 261:lvgl/src/lv_widgets/lv_tabview.c ****             }
 262:lvgl/src/lv_widgets/lv_tabview.c ****             else {
 263:lvgl/src/lv_widgets/lv_tabview.c ****                 ext->tab_name_ptr[ext->tab_cnt * 2 - 3] = "\n";
 264:lvgl/src/lv_widgets/lv_tabview.c ****                 ext->tab_name_ptr[ext->tab_cnt * 2 - 2] = name_dm;
 265:lvgl/src/lv_widgets/lv_tabview.c ****                 ext->tab_name_ptr[ext->tab_cnt * 2 - 1] = "";
 266:lvgl/src/lv_widgets/lv_tabview.c ****             }
 267:lvgl/src/lv_widgets/lv_tabview.c ****             break;
 268:lvgl/src/lv_widgets/lv_tabview.c ****     }
 269:lvgl/src/lv_widgets/lv_tabview.c **** 
 270:lvgl/src/lv_widgets/lv_tabview.c ****     /* The button matrix's map still points to the old `tab_name_ptr` which might be freed by
 271:lvgl/src/lv_widgets/lv_tabview.c ****      * `lv_mem_realloc`. So make its current map invalid*/
 272:lvgl/src/lv_widgets/lv_tabview.c ****     lv_btnmatrix_ext_t * btnm_ext = lv_obj_get_ext_attr(ext->btns);
 273:lvgl/src/lv_widgets/lv_tabview.c ****     btnm_ext->map_p          = NULL;
 274:lvgl/src/lv_widgets/lv_tabview.c **** 
 275:lvgl/src/lv_widgets/lv_tabview.c ****     lv_btnmatrix_set_map(ext->btns, ext->tab_name_ptr);
 276:lvgl/src/lv_widgets/lv_tabview.c ****     lv_btnmatrix_set_btn_ctrl(ext->btns, ext->tab_cur, LV_BTNMATRIX_CTRL_NO_REPEAT);
 277:lvgl/src/lv_widgets/lv_tabview.c **** 
 278:lvgl/src/lv_widgets/lv_tabview.c ****     /*Set the first btn as active*/
 279:lvgl/src/lv_widgets/lv_tabview.c ****     if(ext->tab_cnt == 1)  ext->tab_cur = 0;
 280:lvgl/src/lv_widgets/lv_tabview.c **** 
 281:lvgl/src/lv_widgets/lv_tabview.c ****     tabview_realign(tabview); /*Set the size of the pages, tab buttons and indicator*/
 282:lvgl/src/lv_widgets/lv_tabview.c **** 
 283:lvgl/src/lv_widgets/lv_tabview.c ****     lv_tabview_set_tab_act(tabview, ext->tab_cur, false);
 284:lvgl/src/lv_widgets/lv_tabview.c **** 
 285:lvgl/src/lv_widgets/lv_tabview.c ****     return h;
 286:lvgl/src/lv_widgets/lv_tabview.c **** }
 287:lvgl/src/lv_widgets/lv_tabview.c **** 
 288:lvgl/src/lv_widgets/lv_tabview.c **** /**
 289:lvgl/src/lv_widgets/lv_tabview.c ****  * Delete all children of a tab created by `lv_tabview_add_tab`.
 290:lvgl/src/lv_widgets/lv_tabview.c ****  * @param tab pointer to a tab
 291:lvgl/src/lv_widgets/lv_tabview.c ****  */
 292:lvgl/src/lv_widgets/lv_tabview.c **** void lv_tabview_clean_tab(lv_obj_t * tab)
 293:lvgl/src/lv_widgets/lv_tabview.c **** {
 294:lvgl/src/lv_widgets/lv_tabview.c ****     LV_ASSERT_OBJ(tab, "lv_page");
 295:lvgl/src/lv_widgets/lv_tabview.c **** 
 296:lvgl/src/lv_widgets/lv_tabview.c ****     lv_obj_t * scrl = lv_page_get_scrollable(tab);
 297:lvgl/src/lv_widgets/lv_tabview.c ****     lv_obj_clean(scrl);
 298:lvgl/src/lv_widgets/lv_tabview.c **** }
 299:lvgl/src/lv_widgets/lv_tabview.c **** 
 300:lvgl/src/lv_widgets/lv_tabview.c **** /*=====================
 301:lvgl/src/lv_widgets/lv_tabview.c ****  * Setter functions
 302:lvgl/src/lv_widgets/lv_tabview.c ****  *====================*/
 303:lvgl/src/lv_widgets/lv_tabview.c **** 
 304:lvgl/src/lv_widgets/lv_tabview.c **** /**
 305:lvgl/src/lv_widgets/lv_tabview.c ****  * Set a new tab
 306:lvgl/src/lv_widgets/lv_tabview.c ****  * @param tabview pointer to Tab view object
 307:lvgl/src/lv_widgets/lv_tabview.c ****  * @param id index of a tab to load
 308:lvgl/src/lv_widgets/lv_tabview.c ****  * @param anim LV_ANIM_ON: set the value with an animation; LV_ANIM_OFF: change the value immediate
 309:lvgl/src/lv_widgets/lv_tabview.c ****  */
 310:lvgl/src/lv_widgets/lv_tabview.c **** void lv_tabview_set_tab_act(lv_obj_t * tabview, uint16_t id, lv_anim_enable_t anim)
 311:lvgl/src/lv_widgets/lv_tabview.c **** {
 312:lvgl/src/lv_widgets/lv_tabview.c ****     LV_ASSERT_OBJ(tabview, LV_OBJX_NAME);
 313:lvgl/src/lv_widgets/lv_tabview.c **** 
 314:lvgl/src/lv_widgets/lv_tabview.c **** #if LV_USE_ANIMATION == 0
 315:lvgl/src/lv_widgets/lv_tabview.c ****     anim = LV_ANIM_OFF;
ARM GAS  D:\Temp\ccnA29ZW.s 			page 7


 316:lvgl/src/lv_widgets/lv_tabview.c **** #endif
 317:lvgl/src/lv_widgets/lv_tabview.c ****     lv_tabview_ext_t * ext = lv_obj_get_ext_attr(tabview);
 318:lvgl/src/lv_widgets/lv_tabview.c **** 
 319:lvgl/src/lv_widgets/lv_tabview.c ****     if(id >= ext->tab_cnt) id = ext->tab_cnt - 1;
 320:lvgl/src/lv_widgets/lv_tabview.c **** 
 321:lvgl/src/lv_widgets/lv_tabview.c ****     lv_btnmatrix_clear_btn_ctrl(ext->btns, ext->tab_cur, LV_BTNMATRIX_CTRL_CHECK_STATE);
 322:lvgl/src/lv_widgets/lv_tabview.c **** 
 323:lvgl/src/lv_widgets/lv_tabview.c ****     ext->tab_cur = id;
 324:lvgl/src/lv_widgets/lv_tabview.c **** 
 325:lvgl/src/lv_widgets/lv_tabview.c ****     if(lv_obj_get_base_dir(tabview) == LV_BIDI_DIR_RTL) {
 326:lvgl/src/lv_widgets/lv_tabview.c ****         id = (ext->tab_cnt - (id + 1));
 327:lvgl/src/lv_widgets/lv_tabview.c ****     }
 328:lvgl/src/lv_widgets/lv_tabview.c **** 
 329:lvgl/src/lv_widgets/lv_tabview.c ****     lv_coord_t cont_x;
 330:lvgl/src/lv_widgets/lv_tabview.c ****     lv_style_int_t scrl_inner = lv_obj_get_style_pad_inner(ext->content, LV_PAGE_PART_SCROLLABLE);
 331:lvgl/src/lv_widgets/lv_tabview.c ****     lv_style_int_t scrl_left = lv_obj_get_style_pad_left(ext->content, LV_PAGE_PART_SCROLLABLE);
 332:lvgl/src/lv_widgets/lv_tabview.c **** 
 333:lvgl/src/lv_widgets/lv_tabview.c ****     switch(ext->btns_pos) {
 334:lvgl/src/lv_widgets/lv_tabview.c ****         default: /*default case is prevented in lv_tabview_set_btns_pos(), but here for safety*/
 335:lvgl/src/lv_widgets/lv_tabview.c ****         case LV_TABVIEW_TAB_POS_NONE:
 336:lvgl/src/lv_widgets/lv_tabview.c ****         case LV_TABVIEW_TAB_POS_TOP:
 337:lvgl/src/lv_widgets/lv_tabview.c ****         case LV_TABVIEW_TAB_POS_BOTTOM:
 338:lvgl/src/lv_widgets/lv_tabview.c ****             cont_x = -(lv_obj_get_width(tabview) * id + scrl_inner * id + scrl_left);
 339:lvgl/src/lv_widgets/lv_tabview.c ****             break;
 340:lvgl/src/lv_widgets/lv_tabview.c ****         case LV_TABVIEW_TAB_POS_LEFT:
 341:lvgl/src/lv_widgets/lv_tabview.c ****         case LV_TABVIEW_TAB_POS_RIGHT:
 342:lvgl/src/lv_widgets/lv_tabview.c ****             cont_x = -((lv_obj_get_width(tabview) - lv_obj_get_width(ext->btns)) * id + scrl_inner 
 343:lvgl/src/lv_widgets/lv_tabview.c ****             break;
 344:lvgl/src/lv_widgets/lv_tabview.c ****     }
 345:lvgl/src/lv_widgets/lv_tabview.c **** 
 346:lvgl/src/lv_widgets/lv_tabview.c ****     if(anim == LV_ANIM_OFF || lv_tabview_get_anim_time(tabview) == 0) {
 347:lvgl/src/lv_widgets/lv_tabview.c ****         lv_obj_set_x(lv_page_get_scrollable(ext->content), cont_x);
 348:lvgl/src/lv_widgets/lv_tabview.c ****     }
 349:lvgl/src/lv_widgets/lv_tabview.c **** #if LV_USE_ANIMATION
 350:lvgl/src/lv_widgets/lv_tabview.c ****     else {
 351:lvgl/src/lv_widgets/lv_tabview.c ****         lv_anim_t a;
 352:lvgl/src/lv_widgets/lv_tabview.c ****         lv_anim_init(&a);
 353:lvgl/src/lv_widgets/lv_tabview.c ****         lv_anim_set_var(&a, lv_page_get_scrollable(ext->content));
 354:lvgl/src/lv_widgets/lv_tabview.c ****         lv_anim_set_exec_cb(&a, (lv_anim_exec_xcb_t)lv_obj_set_x);
 355:lvgl/src/lv_widgets/lv_tabview.c ****         lv_anim_set_values(&a, lv_obj_get_x(lv_page_get_scrollable(ext->content)), cont_x);
 356:lvgl/src/lv_widgets/lv_tabview.c ****         lv_anim_set_time(&a, ext->anim_time);
 357:lvgl/src/lv_widgets/lv_tabview.c ****         lv_anim_start(&a);
 358:lvgl/src/lv_widgets/lv_tabview.c ****     }
 359:lvgl/src/lv_widgets/lv_tabview.c **** #endif
 360:lvgl/src/lv_widgets/lv_tabview.c **** 
 361:lvgl/src/lv_widgets/lv_tabview.c ****     /*Move the indicator*/
 362:lvgl/src/lv_widgets/lv_tabview.c ****     lv_coord_t indic_size;
 363:lvgl/src/lv_widgets/lv_tabview.c ****     lv_coord_t indic_pos = 0; /*silence uninitialized variable warning*/;
 364:lvgl/src/lv_widgets/lv_tabview.c **** 
 365:lvgl/src/lv_widgets/lv_tabview.c ****     lv_style_int_t btns_bg_inner = 0;
 366:lvgl/src/lv_widgets/lv_tabview.c ****     lv_style_int_t btns_bg_left = 0;
 367:lvgl/src/lv_widgets/lv_tabview.c ****     lv_style_int_t btns_bg_top = 0;
 368:lvgl/src/lv_widgets/lv_tabview.c **** 
 369:lvgl/src/lv_widgets/lv_tabview.c ****     switch(ext->btns_pos) {
 370:lvgl/src/lv_widgets/lv_tabview.c ****         default: /*default case is prevented in lv_tabview_set_btns_pos(), but here for safety*/
 371:lvgl/src/lv_widgets/lv_tabview.c ****         case LV_TABVIEW_TAB_POS_NONE:
 372:lvgl/src/lv_widgets/lv_tabview.c ****             break;
ARM GAS  D:\Temp\ccnA29ZW.s 			page 8


 373:lvgl/src/lv_widgets/lv_tabview.c ****         case LV_TABVIEW_TAB_POS_TOP:
 374:lvgl/src/lv_widgets/lv_tabview.c ****         case LV_TABVIEW_TAB_POS_BOTTOM:
 375:lvgl/src/lv_widgets/lv_tabview.c ****             btns_bg_inner = lv_obj_get_style_pad_inner(tabview, LV_TABVIEW_PART_TAB_BG);
 376:lvgl/src/lv_widgets/lv_tabview.c ****             btns_bg_left = lv_obj_get_style_pad_left(tabview, LV_TABVIEW_PART_TAB_BG);
 377:lvgl/src/lv_widgets/lv_tabview.c ****             indic_size = lv_obj_get_width(ext->indic);
 378:lvgl/src/lv_widgets/lv_tabview.c ****             indic_pos  = indic_size * id + btns_bg_inner * id + btns_bg_left;
 379:lvgl/src/lv_widgets/lv_tabview.c ****             break;
 380:lvgl/src/lv_widgets/lv_tabview.c ****         case LV_TABVIEW_TAB_POS_LEFT:
 381:lvgl/src/lv_widgets/lv_tabview.c ****         case LV_TABVIEW_TAB_POS_RIGHT:
 382:lvgl/src/lv_widgets/lv_tabview.c ****             btns_bg_inner = lv_obj_get_style_pad_inner(tabview, LV_TABVIEW_PART_TAB_BG);
 383:lvgl/src/lv_widgets/lv_tabview.c ****             btns_bg_top = lv_obj_get_style_pad_top(tabview, LV_TABVIEW_PART_TAB_BG);
 384:lvgl/src/lv_widgets/lv_tabview.c ****             indic_size = lv_obj_get_height(ext->indic);
 385:lvgl/src/lv_widgets/lv_tabview.c ****             indic_pos  = btns_bg_top + id * (indic_size + btns_bg_inner);
 386:lvgl/src/lv_widgets/lv_tabview.c ****             break;
 387:lvgl/src/lv_widgets/lv_tabview.c ****     }
 388:lvgl/src/lv_widgets/lv_tabview.c **** 
 389:lvgl/src/lv_widgets/lv_tabview.c **** #if LV_USE_ANIMATION
 390:lvgl/src/lv_widgets/lv_tabview.c ****     if(anim == LV_ANIM_OFF || ext->anim_time == 0)
 391:lvgl/src/lv_widgets/lv_tabview.c **** #endif
 392:lvgl/src/lv_widgets/lv_tabview.c ****     {
 393:lvgl/src/lv_widgets/lv_tabview.c ****         switch(ext->btns_pos) {
 394:lvgl/src/lv_widgets/lv_tabview.c ****             default: /*default case is prevented in lv_tabview_set_btns_pos(), but here for safety*
 395:lvgl/src/lv_widgets/lv_tabview.c ****             case LV_TABVIEW_TAB_POS_NONE:
 396:lvgl/src/lv_widgets/lv_tabview.c ****                 break;
 397:lvgl/src/lv_widgets/lv_tabview.c ****             case LV_TABVIEW_TAB_POS_TOP:
 398:lvgl/src/lv_widgets/lv_tabview.c ****             case LV_TABVIEW_TAB_POS_BOTTOM:
 399:lvgl/src/lv_widgets/lv_tabview.c ****                 lv_obj_set_x(ext->indic, indic_pos);
 400:lvgl/src/lv_widgets/lv_tabview.c ****                 break;
 401:lvgl/src/lv_widgets/lv_tabview.c ****             case LV_TABVIEW_TAB_POS_LEFT:
 402:lvgl/src/lv_widgets/lv_tabview.c ****             case LV_TABVIEW_TAB_POS_RIGHT:
 403:lvgl/src/lv_widgets/lv_tabview.c ****                 lv_obj_set_y(ext->indic, indic_pos);
 404:lvgl/src/lv_widgets/lv_tabview.c ****                 break;
 405:lvgl/src/lv_widgets/lv_tabview.c ****         }
 406:lvgl/src/lv_widgets/lv_tabview.c ****     }
 407:lvgl/src/lv_widgets/lv_tabview.c **** #if LV_USE_ANIMATION
 408:lvgl/src/lv_widgets/lv_tabview.c ****     else {
 409:lvgl/src/lv_widgets/lv_tabview.c ****         lv_anim_t a;
 410:lvgl/src/lv_widgets/lv_tabview.c ****         lv_anim_init(&a);
 411:lvgl/src/lv_widgets/lv_tabview.c ****         lv_anim_set_var(&a, ext->indic);
 412:lvgl/src/lv_widgets/lv_tabview.c ****         lv_anim_set_time(&a, ext->anim_time);
 413:lvgl/src/lv_widgets/lv_tabview.c **** 
 414:lvgl/src/lv_widgets/lv_tabview.c ****         switch(ext->btns_pos) {
 415:lvgl/src/lv_widgets/lv_tabview.c ****             default: /*default case is prevented in lv_tabview_set_btns_pos(), but here for safety*
 416:lvgl/src/lv_widgets/lv_tabview.c ****             case LV_TABVIEW_TAB_POS_NONE:
 417:lvgl/src/lv_widgets/lv_tabview.c ****                 break;
 418:lvgl/src/lv_widgets/lv_tabview.c ****             case LV_TABVIEW_TAB_POS_TOP:
 419:lvgl/src/lv_widgets/lv_tabview.c ****             case LV_TABVIEW_TAB_POS_BOTTOM:
 420:lvgl/src/lv_widgets/lv_tabview.c ****                 lv_anim_set_exec_cb(&a, (lv_anim_exec_xcb_t)lv_obj_set_x);
 421:lvgl/src/lv_widgets/lv_tabview.c ****                 lv_anim_set_values(&a, lv_obj_get_x(ext->indic), indic_pos);
 422:lvgl/src/lv_widgets/lv_tabview.c ****                 break;
 423:lvgl/src/lv_widgets/lv_tabview.c ****             case LV_TABVIEW_TAB_POS_LEFT:
 424:lvgl/src/lv_widgets/lv_tabview.c ****             case LV_TABVIEW_TAB_POS_RIGHT:
 425:lvgl/src/lv_widgets/lv_tabview.c ****                 lv_anim_set_exec_cb(&a, (lv_anim_exec_xcb_t)lv_obj_set_y);
 426:lvgl/src/lv_widgets/lv_tabview.c ****                 lv_anim_set_values(&a, lv_obj_get_y(ext->indic), indic_pos);
 427:lvgl/src/lv_widgets/lv_tabview.c ****                 break;
 428:lvgl/src/lv_widgets/lv_tabview.c ****         }
 429:lvgl/src/lv_widgets/lv_tabview.c **** 
ARM GAS  D:\Temp\ccnA29ZW.s 			page 9


 430:lvgl/src/lv_widgets/lv_tabview.c ****         lv_anim_start(&a);
 431:lvgl/src/lv_widgets/lv_tabview.c ****     }
 432:lvgl/src/lv_widgets/lv_tabview.c **** #endif
 433:lvgl/src/lv_widgets/lv_tabview.c **** 
 434:lvgl/src/lv_widgets/lv_tabview.c ****     lv_btnmatrix_set_btn_ctrl(ext->btns, ext->tab_cur, LV_BTNMATRIX_CTRL_CHECK_STATE);
 435:lvgl/src/lv_widgets/lv_tabview.c **** }
 436:lvgl/src/lv_widgets/lv_tabview.c **** 
 437:lvgl/src/lv_widgets/lv_tabview.c **** /**
 438:lvgl/src/lv_widgets/lv_tabview.c ****  * Set the name of a tab.
 439:lvgl/src/lv_widgets/lv_tabview.c ****  * @param tabview pointer to Tab view object
 440:lvgl/src/lv_widgets/lv_tabview.c ****  * @param id index of the tab the name should be set
 441:lvgl/src/lv_widgets/lv_tabview.c ****  * @param name new tab name
 442:lvgl/src/lv_widgets/lv_tabview.c ****  */
 443:lvgl/src/lv_widgets/lv_tabview.c **** void lv_tabview_set_tab_name(lv_obj_t * tabview, uint16_t id, char * name)
 444:lvgl/src/lv_widgets/lv_tabview.c **** {
 445:lvgl/src/lv_widgets/lv_tabview.c ****     LV_ASSERT_OBJ(tabview, LV_OBJX_NAME);
 446:lvgl/src/lv_widgets/lv_tabview.c **** 
 447:lvgl/src/lv_widgets/lv_tabview.c ****     /* get tabview's ext pointer which contains the tab name pointer list */
 448:lvgl/src/lv_widgets/lv_tabview.c ****     lv_tabview_ext_t * ext = lv_obj_get_ext_attr(tabview);
 449:lvgl/src/lv_widgets/lv_tabview.c **** 
 450:lvgl/src/lv_widgets/lv_tabview.c ****     /* check for valid tab index */
 451:lvgl/src/lv_widgets/lv_tabview.c ****     if(ext->tab_cnt > id) {
 452:lvgl/src/lv_widgets/lv_tabview.c ****         /* reallocate memory for new tab name (use reallocate due to mostly the size didn't change 
 453:lvgl/src/lv_widgets/lv_tabview.c ****         char * str = lv_mem_realloc((void *)ext->tab_name_ptr[id], strlen(name) + 1);
 454:lvgl/src/lv_widgets/lv_tabview.c ****         LV_ASSERT_MEM(str);
 455:lvgl/src/lv_widgets/lv_tabview.c **** 
 456:lvgl/src/lv_widgets/lv_tabview.c ****         /* store new tab name at allocated memory */
 457:lvgl/src/lv_widgets/lv_tabview.c ****         strcpy(str, name);
 458:lvgl/src/lv_widgets/lv_tabview.c ****         /* update pointer  */
 459:lvgl/src/lv_widgets/lv_tabview.c ****         ext->tab_name_ptr[id] = str;
 460:lvgl/src/lv_widgets/lv_tabview.c **** 
 461:lvgl/src/lv_widgets/lv_tabview.c ****         /* force redrawing of the tab headers */
 462:lvgl/src/lv_widgets/lv_tabview.c ****         lv_obj_invalidate(ext->btns);
 463:lvgl/src/lv_widgets/lv_tabview.c ****     }
 464:lvgl/src/lv_widgets/lv_tabview.c **** }
 465:lvgl/src/lv_widgets/lv_tabview.c **** 
 466:lvgl/src/lv_widgets/lv_tabview.c **** /**
 467:lvgl/src/lv_widgets/lv_tabview.c ****  * Set the animation time of tab view when a new tab is loaded
 468:lvgl/src/lv_widgets/lv_tabview.c ****  * @param tabview pointer to Tab view object
 469:lvgl/src/lv_widgets/lv_tabview.c ****  * @param anim_time_ms time of animation in milliseconds
 470:lvgl/src/lv_widgets/lv_tabview.c ****  */
 471:lvgl/src/lv_widgets/lv_tabview.c **** void lv_tabview_set_anim_time(lv_obj_t * tabview, uint16_t anim_time)
 472:lvgl/src/lv_widgets/lv_tabview.c **** {
 473:lvgl/src/lv_widgets/lv_tabview.c ****     LV_ASSERT_OBJ(tabview, LV_OBJX_NAME);
 474:lvgl/src/lv_widgets/lv_tabview.c **** 
 475:lvgl/src/lv_widgets/lv_tabview.c **** #if LV_USE_ANIMATION
 476:lvgl/src/lv_widgets/lv_tabview.c ****     lv_tabview_ext_t * ext = lv_obj_get_ext_attr(tabview);
 477:lvgl/src/lv_widgets/lv_tabview.c ****     ext->anim_time         = anim_time;
 478:lvgl/src/lv_widgets/lv_tabview.c **** #else
 479:lvgl/src/lv_widgets/lv_tabview.c ****     (void)tabview;
 480:lvgl/src/lv_widgets/lv_tabview.c ****     (void)anim_time;
 481:lvgl/src/lv_widgets/lv_tabview.c **** #endif
 482:lvgl/src/lv_widgets/lv_tabview.c **** }
 483:lvgl/src/lv_widgets/lv_tabview.c **** 
 484:lvgl/src/lv_widgets/lv_tabview.c **** /**
 485:lvgl/src/lv_widgets/lv_tabview.c ****  * Set the position of tab select buttons
 486:lvgl/src/lv_widgets/lv_tabview.c ****  * @param tabview pointer to a tan view object
ARM GAS  D:\Temp\ccnA29ZW.s 			page 10


 487:lvgl/src/lv_widgets/lv_tabview.c ****  * @param btns_pos which button position
 488:lvgl/src/lv_widgets/lv_tabview.c ****  */
 489:lvgl/src/lv_widgets/lv_tabview.c **** void lv_tabview_set_btns_pos(lv_obj_t * tabview, lv_tabview_btns_pos_t btns_pos)
 490:lvgl/src/lv_widgets/lv_tabview.c **** {
 491:lvgl/src/lv_widgets/lv_tabview.c ****     if(btns_pos != LV_TABVIEW_TAB_POS_NONE &&
 492:lvgl/src/lv_widgets/lv_tabview.c ****        btns_pos != LV_TABVIEW_TAB_POS_TOP &&
 493:lvgl/src/lv_widgets/lv_tabview.c ****        btns_pos != LV_TABVIEW_TAB_POS_BOTTOM &&
 494:lvgl/src/lv_widgets/lv_tabview.c ****        btns_pos != LV_TABVIEW_TAB_POS_LEFT &&
 495:lvgl/src/lv_widgets/lv_tabview.c ****        btns_pos != LV_TABVIEW_TAB_POS_RIGHT) {
 496:lvgl/src/lv_widgets/lv_tabview.c ****         LV_LOG_WARN("lv_tabview_set_btns_pos: unexpected button position");
 497:lvgl/src/lv_widgets/lv_tabview.c ****         return;
 498:lvgl/src/lv_widgets/lv_tabview.c ****     }
 499:lvgl/src/lv_widgets/lv_tabview.c ****     LV_ASSERT_OBJ(tabview, LV_OBJX_NAME);
 500:lvgl/src/lv_widgets/lv_tabview.c **** 
 501:lvgl/src/lv_widgets/lv_tabview.c ****     lv_tabview_ext_t * ext = lv_obj_get_ext_attr(tabview);
 502:lvgl/src/lv_widgets/lv_tabview.c **** 
 503:lvgl/src/lv_widgets/lv_tabview.c ****     ext->btns_pos = btns_pos;
 504:lvgl/src/lv_widgets/lv_tabview.c ****     tabview_realign(tabview);
 505:lvgl/src/lv_widgets/lv_tabview.c **** }
 506:lvgl/src/lv_widgets/lv_tabview.c **** 
 507:lvgl/src/lv_widgets/lv_tabview.c **** /*=====================
 508:lvgl/src/lv_widgets/lv_tabview.c ****  * Getter functions
 509:lvgl/src/lv_widgets/lv_tabview.c ****  *====================*/
 510:lvgl/src/lv_widgets/lv_tabview.c **** 
 511:lvgl/src/lv_widgets/lv_tabview.c **** /**
 512:lvgl/src/lv_widgets/lv_tabview.c ****  * Get the index of the currently active tab
 513:lvgl/src/lv_widgets/lv_tabview.c ****  * @param tabview pointer to Tab view object
 514:lvgl/src/lv_widgets/lv_tabview.c ****  * @return the active btn index
 515:lvgl/src/lv_widgets/lv_tabview.c ****  */
 516:lvgl/src/lv_widgets/lv_tabview.c **** uint16_t lv_tabview_get_tab_act(const lv_obj_t * tabview)
 517:lvgl/src/lv_widgets/lv_tabview.c **** {
 518:lvgl/src/lv_widgets/lv_tabview.c ****     LV_ASSERT_OBJ(tabview, LV_OBJX_NAME);
 519:lvgl/src/lv_widgets/lv_tabview.c **** 
 520:lvgl/src/lv_widgets/lv_tabview.c ****     lv_tabview_ext_t * ext = lv_obj_get_ext_attr(tabview);
 521:lvgl/src/lv_widgets/lv_tabview.c ****     return ext->tab_cur;
 522:lvgl/src/lv_widgets/lv_tabview.c **** }
 523:lvgl/src/lv_widgets/lv_tabview.c **** 
 524:lvgl/src/lv_widgets/lv_tabview.c **** /**
 525:lvgl/src/lv_widgets/lv_tabview.c ****  * Get the number of tabs
 526:lvgl/src/lv_widgets/lv_tabview.c ****  * @param tabview pointer to Tab view object
 527:lvgl/src/lv_widgets/lv_tabview.c ****  * @return btn count
 528:lvgl/src/lv_widgets/lv_tabview.c ****  */
 529:lvgl/src/lv_widgets/lv_tabview.c **** uint16_t lv_tabview_get_tab_count(const lv_obj_t * tabview)
 530:lvgl/src/lv_widgets/lv_tabview.c **** {
 531:lvgl/src/lv_widgets/lv_tabview.c ****     LV_ASSERT_OBJ(tabview, LV_OBJX_NAME);
 532:lvgl/src/lv_widgets/lv_tabview.c **** 
 533:lvgl/src/lv_widgets/lv_tabview.c ****     lv_tabview_ext_t * ext = lv_obj_get_ext_attr(tabview);
 534:lvgl/src/lv_widgets/lv_tabview.c ****     return ext->tab_cnt;
 535:lvgl/src/lv_widgets/lv_tabview.c **** }
 536:lvgl/src/lv_widgets/lv_tabview.c **** 
 537:lvgl/src/lv_widgets/lv_tabview.c **** /**
 538:lvgl/src/lv_widgets/lv_tabview.c ****  * Get the page (content area) of a tab
 539:lvgl/src/lv_widgets/lv_tabview.c ****  * @param tabview pointer to Tab view object
 540:lvgl/src/lv_widgets/lv_tabview.c ****  * @param id index of the btn (>= 0)
 541:lvgl/src/lv_widgets/lv_tabview.c ****  * @return pointer to page (lv_page) object
 542:lvgl/src/lv_widgets/lv_tabview.c ****  */
 543:lvgl/src/lv_widgets/lv_tabview.c **** lv_obj_t * lv_tabview_get_tab(const lv_obj_t * tabview, uint16_t id)
ARM GAS  D:\Temp\ccnA29ZW.s 			page 11


 544:lvgl/src/lv_widgets/lv_tabview.c **** {
 545:lvgl/src/lv_widgets/lv_tabview.c ****     LV_ASSERT_OBJ(tabview, LV_OBJX_NAME);
 546:lvgl/src/lv_widgets/lv_tabview.c **** 
 547:lvgl/src/lv_widgets/lv_tabview.c ****     lv_tabview_ext_t * ext = lv_obj_get_ext_attr(tabview);
 548:lvgl/src/lv_widgets/lv_tabview.c ****     lv_obj_t * content_scrl = lv_page_get_scrollable(ext->content);
 549:lvgl/src/lv_widgets/lv_tabview.c ****     uint16_t i             = 0;
 550:lvgl/src/lv_widgets/lv_tabview.c ****     lv_obj_t * page        = lv_obj_get_child_back(content_scrl, NULL);
 551:lvgl/src/lv_widgets/lv_tabview.c **** 
 552:lvgl/src/lv_widgets/lv_tabview.c ****     while(page != NULL && i != id) {
 553:lvgl/src/lv_widgets/lv_tabview.c ****         if(lv_obj_get_signal_cb(page) == page_signal) i++;
 554:lvgl/src/lv_widgets/lv_tabview.c ****         page = lv_obj_get_child_back(content_scrl, page);
 555:lvgl/src/lv_widgets/lv_tabview.c ****     }
 556:lvgl/src/lv_widgets/lv_tabview.c **** 
 557:lvgl/src/lv_widgets/lv_tabview.c ****     if(i == id) return page;
 558:lvgl/src/lv_widgets/lv_tabview.c **** 
 559:lvgl/src/lv_widgets/lv_tabview.c ****     return NULL;
 560:lvgl/src/lv_widgets/lv_tabview.c **** }
 561:lvgl/src/lv_widgets/lv_tabview.c **** 
 562:lvgl/src/lv_widgets/lv_tabview.c **** /**
 563:lvgl/src/lv_widgets/lv_tabview.c ****  * Get the animation time of tab view when a new tab is loaded
 564:lvgl/src/lv_widgets/lv_tabview.c ****  * @param tabview pointer to Tab view object
 565:lvgl/src/lv_widgets/lv_tabview.c ****  * @return time of animation in milliseconds
 566:lvgl/src/lv_widgets/lv_tabview.c ****  */
 567:lvgl/src/lv_widgets/lv_tabview.c **** uint16_t lv_tabview_get_anim_time(const lv_obj_t * tabview)
 568:lvgl/src/lv_widgets/lv_tabview.c **** {
 569:lvgl/src/lv_widgets/lv_tabview.c ****     LV_ASSERT_OBJ(tabview, LV_OBJX_NAME);
 570:lvgl/src/lv_widgets/lv_tabview.c **** 
 571:lvgl/src/lv_widgets/lv_tabview.c **** #if LV_USE_ANIMATION
 572:lvgl/src/lv_widgets/lv_tabview.c ****     lv_tabview_ext_t * ext = lv_obj_get_ext_attr(tabview);
 573:lvgl/src/lv_widgets/lv_tabview.c ****     return ext->anim_time;
 574:lvgl/src/lv_widgets/lv_tabview.c **** #else
 575:lvgl/src/lv_widgets/lv_tabview.c ****     (void)tabview;
 576:lvgl/src/lv_widgets/lv_tabview.c ****     return 0;
 577:lvgl/src/lv_widgets/lv_tabview.c **** #endif
 578:lvgl/src/lv_widgets/lv_tabview.c **** }
 579:lvgl/src/lv_widgets/lv_tabview.c **** 
 580:lvgl/src/lv_widgets/lv_tabview.c **** /**
 581:lvgl/src/lv_widgets/lv_tabview.c ****  * Get position of tab select buttons
 582:lvgl/src/lv_widgets/lv_tabview.c ****  * @param tabview pointer to a ab view object
 583:lvgl/src/lv_widgets/lv_tabview.c ****  */
 584:lvgl/src/lv_widgets/lv_tabview.c **** lv_tabview_btns_pos_t lv_tabview_get_btns_pos(const lv_obj_t * tabview)
 585:lvgl/src/lv_widgets/lv_tabview.c **** {
 586:lvgl/src/lv_widgets/lv_tabview.c ****     LV_ASSERT_OBJ(tabview, LV_OBJX_NAME);
 587:lvgl/src/lv_widgets/lv_tabview.c **** 
 588:lvgl/src/lv_widgets/lv_tabview.c ****     lv_tabview_ext_t * ext = lv_obj_get_ext_attr(tabview);
 589:lvgl/src/lv_widgets/lv_tabview.c ****     return ext->btns_pos;
 590:lvgl/src/lv_widgets/lv_tabview.c **** }
 591:lvgl/src/lv_widgets/lv_tabview.c **** 
 592:lvgl/src/lv_widgets/lv_tabview.c **** /**********************
 593:lvgl/src/lv_widgets/lv_tabview.c ****  *   STATIC FUNCTIONS
 594:lvgl/src/lv_widgets/lv_tabview.c ****  **********************/
 595:lvgl/src/lv_widgets/lv_tabview.c **** 
 596:lvgl/src/lv_widgets/lv_tabview.c **** /**
 597:lvgl/src/lv_widgets/lv_tabview.c ****  * Signal function of the Tab view
 598:lvgl/src/lv_widgets/lv_tabview.c ****  * @param tabview pointer to a Tab view object
 599:lvgl/src/lv_widgets/lv_tabview.c ****  * @param sign a signal type from lv_signal_t enum
 600:lvgl/src/lv_widgets/lv_tabview.c ****  * @param param pointer to a signal specific variable
ARM GAS  D:\Temp\ccnA29ZW.s 			page 12


 601:lvgl/src/lv_widgets/lv_tabview.c ****  * @return LV_RES_OK: the object is not deleted in the function; LV_RES_INV: the object is deleted
 602:lvgl/src/lv_widgets/lv_tabview.c ****  */
 603:lvgl/src/lv_widgets/lv_tabview.c **** static lv_res_t lv_tabview_signal(lv_obj_t * tabview, lv_signal_t sign, void * param)
 604:lvgl/src/lv_widgets/lv_tabview.c **** {
 605:lvgl/src/lv_widgets/lv_tabview.c ****     lv_res_t res;
 606:lvgl/src/lv_widgets/lv_tabview.c ****     if(sign == LV_SIGNAL_GET_STYLE) {
 607:lvgl/src/lv_widgets/lv_tabview.c ****         lv_get_style_info_t * info = param;
 608:lvgl/src/lv_widgets/lv_tabview.c ****         info->result = lv_tabview_get_style(tabview, info->part);
 609:lvgl/src/lv_widgets/lv_tabview.c ****         if(info->result != NULL) return LV_RES_OK;
 610:lvgl/src/lv_widgets/lv_tabview.c ****         else return ancestor_signal(tabview, sign, param);
 611:lvgl/src/lv_widgets/lv_tabview.c ****     }
 612:lvgl/src/lv_widgets/lv_tabview.c ****     else if(sign == LV_SIGNAL_GET_STATE_DSC) {
 613:lvgl/src/lv_widgets/lv_tabview.c ****         lv_tabview_ext_t * ext = lv_obj_get_ext_attr(tabview);
 614:lvgl/src/lv_widgets/lv_tabview.c ****         lv_get_state_info_t * info = param;
 615:lvgl/src/lv_widgets/lv_tabview.c ****         if(info->part == LV_TABVIEW_PART_TAB_BG) info->result = lv_obj_get_state(ext->btns, LV_BTNM
 616:lvgl/src/lv_widgets/lv_tabview.c ****         else if(info->part == LV_TABVIEW_PART_TAB_BTN) info->result = lv_obj_get_state(ext->btns, L
 617:lvgl/src/lv_widgets/lv_tabview.c ****         else if(info->part == LV_TABVIEW_PART_INDIC) info->result = lv_obj_get_state(ext->indic, LV
 618:lvgl/src/lv_widgets/lv_tabview.c ****         else if(info->part == LV_TABVIEW_PART_BG_SCROLLABLE) info->result = lv_obj_get_state(ext->c
 619:lvgl/src/lv_widgets/lv_tabview.c ****                                                                                                  LV
 620:lvgl/src/lv_widgets/lv_tabview.c ****         return LV_RES_OK;
 621:lvgl/src/lv_widgets/lv_tabview.c ****     }
 622:lvgl/src/lv_widgets/lv_tabview.c **** 
 623:lvgl/src/lv_widgets/lv_tabview.c ****     /* Include the ancient signal function */
 624:lvgl/src/lv_widgets/lv_tabview.c ****     res = ancestor_signal(tabview, sign, param);
 625:lvgl/src/lv_widgets/lv_tabview.c ****     if(res != LV_RES_OK) return res;
 626:lvgl/src/lv_widgets/lv_tabview.c ****     if(sign == LV_SIGNAL_GET_TYPE) return lv_obj_handle_get_type_signal(param, LV_OBJX_NAME);
 627:lvgl/src/lv_widgets/lv_tabview.c **** 
 628:lvgl/src/lv_widgets/lv_tabview.c ****     lv_tabview_ext_t * ext = lv_obj_get_ext_attr(tabview);
 629:lvgl/src/lv_widgets/lv_tabview.c ****     if(sign == LV_SIGNAL_CLEANUP) {
 630:lvgl/src/lv_widgets/lv_tabview.c ****         uint8_t i;
 631:lvgl/src/lv_widgets/lv_tabview.c ****         for(i = 0; ext->tab_name_ptr[i][0] != '\0' && ext->tab_name_ptr[i][0] != '\n'; i++) lv_mem_
 632:lvgl/src/lv_widgets/lv_tabview.c **** 
 633:lvgl/src/lv_widgets/lv_tabview.c ****         lv_mem_free(ext->tab_name_ptr);
 634:lvgl/src/lv_widgets/lv_tabview.c ****         ext->tab_name_ptr = NULL;
 635:lvgl/src/lv_widgets/lv_tabview.c ****         ext->btns         = NULL; /*These objects were children so they are already invalid*/
 636:lvgl/src/lv_widgets/lv_tabview.c ****         ext->content      = NULL;
 637:lvgl/src/lv_widgets/lv_tabview.c ****     }
 638:lvgl/src/lv_widgets/lv_tabview.c ****     else if(sign == LV_SIGNAL_STYLE_CHG) {
 639:lvgl/src/lv_widgets/lv_tabview.c ****         /*Be sure the buttons are updated because correct button size is required in `tabview_reali
 640:lvgl/src/lv_widgets/lv_tabview.c ****         lv_signal_send(ext->btns, LV_SIGNAL_STYLE_CHG, NULL);
 641:lvgl/src/lv_widgets/lv_tabview.c **** 
 642:lvgl/src/lv_widgets/lv_tabview.c ****         tabview_realign(tabview);
 643:lvgl/src/lv_widgets/lv_tabview.c ****     }
 644:lvgl/src/lv_widgets/lv_tabview.c ****     else if(sign == LV_SIGNAL_COORD_CHG) {
 645:lvgl/src/lv_widgets/lv_tabview.c ****         if(ext->content != NULL && (lv_obj_get_width(tabview) != lv_area_get_width(param) ||
 646:lvgl/src/lv_widgets/lv_tabview.c ****                                     lv_obj_get_height(tabview) != lv_area_get_height(param))) {
 647:lvgl/src/lv_widgets/lv_tabview.c ****             tabview_realign(tabview);
 648:lvgl/src/lv_widgets/lv_tabview.c ****         }
 649:lvgl/src/lv_widgets/lv_tabview.c ****     }
 650:lvgl/src/lv_widgets/lv_tabview.c ****     else if(sign == LV_SIGNAL_RELEASED) {
 651:lvgl/src/lv_widgets/lv_tabview.c **** #if LV_USE_GROUP
 652:lvgl/src/lv_widgets/lv_tabview.c ****         /*If released by a KEYPAD or ENCODER then really the tab buttons should be released.
 653:lvgl/src/lv_widgets/lv_tabview.c ****          * So simulate a CLICK on the tab buttons*/
 654:lvgl/src/lv_widgets/lv_tabview.c ****         lv_indev_t * indev         = lv_indev_get_act();
 655:lvgl/src/lv_widgets/lv_tabview.c ****         lv_indev_type_t indev_type = lv_indev_get_type(indev);
 656:lvgl/src/lv_widgets/lv_tabview.c ****         if(indev_type == LV_INDEV_TYPE_KEYPAD ||
 657:lvgl/src/lv_widgets/lv_tabview.c ****            (indev_type == LV_INDEV_TYPE_ENCODER && lv_group_get_editing(lv_obj_get_group(tabview)))
ARM GAS  D:\Temp\ccnA29ZW.s 			page 13


 658:lvgl/src/lv_widgets/lv_tabview.c ****             lv_event_send(ext->btns, LV_EVENT_CLICKED, lv_event_get_data());
 659:lvgl/src/lv_widgets/lv_tabview.c ****         }
 660:lvgl/src/lv_widgets/lv_tabview.c **** #endif
 661:lvgl/src/lv_widgets/lv_tabview.c ****     }
 662:lvgl/src/lv_widgets/lv_tabview.c ****     else if(sign == LV_SIGNAL_GET_EDITABLE) {
 663:lvgl/src/lv_widgets/lv_tabview.c **** #if LV_USE_GROUP
 664:lvgl/src/lv_widgets/lv_tabview.c ****         bool * editable = (bool *)param;
 665:lvgl/src/lv_widgets/lv_tabview.c ****         *editable       = true;
 666:lvgl/src/lv_widgets/lv_tabview.c **** #endif
 667:lvgl/src/lv_widgets/lv_tabview.c ****     }
 668:lvgl/src/lv_widgets/lv_tabview.c **** 
 669:lvgl/src/lv_widgets/lv_tabview.c ****     if(sign == LV_SIGNAL_FOCUS || sign == LV_SIGNAL_DEFOCUS ||
 670:lvgl/src/lv_widgets/lv_tabview.c **** #if LV_USE_GROUP
 671:lvgl/src/lv_widgets/lv_tabview.c ****        sign == LV_SIGNAL_CONTROL ||
 672:lvgl/src/lv_widgets/lv_tabview.c **** #endif
 673:lvgl/src/lv_widgets/lv_tabview.c ****        sign == LV_SIGNAL_PRESSED || sign == LV_SIGNAL_RELEASED) {
 674:lvgl/src/lv_widgets/lv_tabview.c **** 
 675:lvgl/src/lv_widgets/lv_tabview.c ****         /* The button matrix is not in a group (the tab view is in it) but it should handle the
 676:lvgl/src/lv_widgets/lv_tabview.c ****          * group signals. So propagate the related signals to the button matrix manually*/
 677:lvgl/src/lv_widgets/lv_tabview.c ****         ext->btns->signal_cb(ext->btns, sign, param);
 678:lvgl/src/lv_widgets/lv_tabview.c **** 
 679:lvgl/src/lv_widgets/lv_tabview.c ****         /*Make the active tab's button focused*/
 680:lvgl/src/lv_widgets/lv_tabview.c ****         if(sign == LV_SIGNAL_FOCUS) {
 681:lvgl/src/lv_widgets/lv_tabview.c ****             lv_btnmatrix_set_focused_btn(ext->btns, ext->tab_cur);
 682:lvgl/src/lv_widgets/lv_tabview.c ****         }
 683:lvgl/src/lv_widgets/lv_tabview.c **** 
 684:lvgl/src/lv_widgets/lv_tabview.c ****         if(sign == LV_SIGNAL_FOCUS || sign == LV_SIGNAL_DEFOCUS) {
 685:lvgl/src/lv_widgets/lv_tabview.c ****             lv_state_t state = lv_obj_get_state(tabview, LV_TABVIEW_PART_BG);
 686:lvgl/src/lv_widgets/lv_tabview.c ****             if(state & LV_STATE_FOCUSED) {
 687:lvgl/src/lv_widgets/lv_tabview.c ****                 lv_obj_set_state(ext->btns, LV_STATE_FOCUSED);
 688:lvgl/src/lv_widgets/lv_tabview.c ****                 lv_obj_set_state(ext->indic, LV_STATE_FOCUSED);
 689:lvgl/src/lv_widgets/lv_tabview.c ****             }
 690:lvgl/src/lv_widgets/lv_tabview.c ****             else {
 691:lvgl/src/lv_widgets/lv_tabview.c ****                 lv_obj_clear_state(ext->btns, LV_STATE_FOCUSED);
 692:lvgl/src/lv_widgets/lv_tabview.c ****                 lv_obj_clear_state(ext->indic, LV_STATE_FOCUSED);
 693:lvgl/src/lv_widgets/lv_tabview.c **** 
 694:lvgl/src/lv_widgets/lv_tabview.c ****             }
 695:lvgl/src/lv_widgets/lv_tabview.c ****             if(state & LV_STATE_EDITED) {
 696:lvgl/src/lv_widgets/lv_tabview.c ****                 lv_obj_set_state(ext->btns, LV_STATE_EDITED);
 697:lvgl/src/lv_widgets/lv_tabview.c ****                 lv_obj_set_state(ext->indic, LV_STATE_EDITED);
 698:lvgl/src/lv_widgets/lv_tabview.c ****             }
 699:lvgl/src/lv_widgets/lv_tabview.c ****             else {
 700:lvgl/src/lv_widgets/lv_tabview.c ****                 lv_obj_clear_state(ext->btns, LV_STATE_EDITED);
 701:lvgl/src/lv_widgets/lv_tabview.c ****                 lv_obj_clear_state(ext->indic, LV_STATE_EDITED);
 702:lvgl/src/lv_widgets/lv_tabview.c **** 
 703:lvgl/src/lv_widgets/lv_tabview.c ****             }
 704:lvgl/src/lv_widgets/lv_tabview.c ****         }
 705:lvgl/src/lv_widgets/lv_tabview.c ****     }
 706:lvgl/src/lv_widgets/lv_tabview.c **** 
 707:lvgl/src/lv_widgets/lv_tabview.c ****     return res;
 708:lvgl/src/lv_widgets/lv_tabview.c **** }
 709:lvgl/src/lv_widgets/lv_tabview.c **** 
 710:lvgl/src/lv_widgets/lv_tabview.c **** /**
 711:lvgl/src/lv_widgets/lv_tabview.c ****  * Signal function of a tab views main scrollable area
 712:lvgl/src/lv_widgets/lv_tabview.c ****  * @param tab pointer to a tab page object
 713:lvgl/src/lv_widgets/lv_tabview.c ****  * @param sign a signal type from lv_signal_t enum
 714:lvgl/src/lv_widgets/lv_tabview.c ****  * @param param pointer to a signal specific variable
ARM GAS  D:\Temp\ccnA29ZW.s 			page 14


 715:lvgl/src/lv_widgets/lv_tabview.c ****  * @return LV_RES_OK: the object is not deleted in the function; LV_RES_INV: the object is deleted
 716:lvgl/src/lv_widgets/lv_tabview.c ****  */
 717:lvgl/src/lv_widgets/lv_tabview.c **** static lv_res_t tabview_scrl_signal(lv_obj_t * tabview_scrl, lv_signal_t sign, void * param)
 718:lvgl/src/lv_widgets/lv_tabview.c **** {
 719:lvgl/src/lv_widgets/lv_tabview.c ****     lv_res_t res;
 720:lvgl/src/lv_widgets/lv_tabview.c **** 
 721:lvgl/src/lv_widgets/lv_tabview.c ****     /* Include the ancient signal function */
 722:lvgl/src/lv_widgets/lv_tabview.c ****     res = ancestor_scrl_signal(tabview_scrl, sign, param);
 723:lvgl/src/lv_widgets/lv_tabview.c ****     if(res != LV_RES_OK) return res;
 724:lvgl/src/lv_widgets/lv_tabview.c ****     if(sign == LV_SIGNAL_GET_TYPE) return lv_obj_handle_get_type_signal(param, "");
 725:lvgl/src/lv_widgets/lv_tabview.c **** 
 726:lvgl/src/lv_widgets/lv_tabview.c ****     lv_obj_t * cont    = lv_obj_get_parent(tabview_scrl);
 727:lvgl/src/lv_widgets/lv_tabview.c ****     lv_obj_t * tabview = lv_obj_get_parent(cont);
 728:lvgl/src/lv_widgets/lv_tabview.c **** 
 729:lvgl/src/lv_widgets/lv_tabview.c ****     if(sign == LV_SIGNAL_DRAG_THROW_BEGIN) {
 730:lvgl/src/lv_widgets/lv_tabview.c ****         lv_tabview_ext_t * ext = lv_obj_get_ext_attr(tabview);
 731:lvgl/src/lv_widgets/lv_tabview.c **** 
 732:lvgl/src/lv_widgets/lv_tabview.c ****         lv_indev_t * indev = lv_indev_get_act();
 733:lvgl/src/lv_widgets/lv_tabview.c ****         lv_point_t point_act;
 734:lvgl/src/lv_widgets/lv_tabview.c ****         lv_indev_get_point(indev, &point_act);
 735:lvgl/src/lv_widgets/lv_tabview.c ****         lv_point_t vect;
 736:lvgl/src/lv_widgets/lv_tabview.c ****         lv_indev_get_vect(indev, &vect);
 737:lvgl/src/lv_widgets/lv_tabview.c ****         lv_coord_t x_predict = 0;
 738:lvgl/src/lv_widgets/lv_tabview.c **** 
 739:lvgl/src/lv_widgets/lv_tabview.c ****         while(vect.x != 0) {
 740:lvgl/src/lv_widgets/lv_tabview.c ****             x_predict += vect.x;
 741:lvgl/src/lv_widgets/lv_tabview.c ****             vect.x = vect.x * (100 - LV_INDEV_DEF_DRAG_THROW) / 100;
 742:lvgl/src/lv_widgets/lv_tabview.c ****         }
 743:lvgl/src/lv_widgets/lv_tabview.c **** 
 744:lvgl/src/lv_widgets/lv_tabview.c ****         res = lv_indev_finish_drag(indev);
 745:lvgl/src/lv_widgets/lv_tabview.c ****         if(res != LV_RES_OK) return res;
 746:lvgl/src/lv_widgets/lv_tabview.c ****         lv_obj_t * tab_page = lv_tabview_get_tab(tabview, ext->tab_cur);
 747:lvgl/src/lv_widgets/lv_tabview.c ****         if(tab_page == NULL) return LV_RES_OK;
 748:lvgl/src/lv_widgets/lv_tabview.c ****         lv_coord_t page_x1  = tab_page->coords.x1 - tabview->coords.x1 + x_predict;
 749:lvgl/src/lv_widgets/lv_tabview.c ****         lv_coord_t page_x2  = page_x1 + lv_obj_get_width(tabview);
 750:lvgl/src/lv_widgets/lv_tabview.c ****         lv_coord_t threshold = lv_obj_get_width(tabview) / 2;
 751:lvgl/src/lv_widgets/lv_tabview.c **** 
 752:lvgl/src/lv_widgets/lv_tabview.c ****         lv_bidi_dir_t base_dir = lv_obj_get_base_dir(tabview);
 753:lvgl/src/lv_widgets/lv_tabview.c ****         int16_t tab_cur = ext->tab_cur;
 754:lvgl/src/lv_widgets/lv_tabview.c ****         if(page_x1 > threshold) {
 755:lvgl/src/lv_widgets/lv_tabview.c ****             if(base_dir != LV_BIDI_DIR_RTL) tab_cur--;
 756:lvgl/src/lv_widgets/lv_tabview.c ****             else tab_cur ++;
 757:lvgl/src/lv_widgets/lv_tabview.c ****         }
 758:lvgl/src/lv_widgets/lv_tabview.c ****         else if(page_x2 < threshold) {
 759:lvgl/src/lv_widgets/lv_tabview.c ****             if(base_dir != LV_BIDI_DIR_RTL) tab_cur++;
 760:lvgl/src/lv_widgets/lv_tabview.c ****             else tab_cur --;
 761:lvgl/src/lv_widgets/lv_tabview.c ****         }
 762:lvgl/src/lv_widgets/lv_tabview.c **** 
 763:lvgl/src/lv_widgets/lv_tabview.c ****         if(tab_cur > ext->tab_cnt - 1) tab_cur = ext->tab_cnt - 1;
 764:lvgl/src/lv_widgets/lv_tabview.c ****         if(tab_cur < 0) tab_cur = 0;
 765:lvgl/src/lv_widgets/lv_tabview.c **** 
 766:lvgl/src/lv_widgets/lv_tabview.c ****         uint32_t id_prev = lv_tabview_get_tab_act(tabview);
 767:lvgl/src/lv_widgets/lv_tabview.c ****         lv_tabview_set_tab_act(tabview, tab_cur, LV_ANIM_ON);
 768:lvgl/src/lv_widgets/lv_tabview.c ****         uint32_t id_new = lv_tabview_get_tab_act(tabview);
 769:lvgl/src/lv_widgets/lv_tabview.c **** 
 770:lvgl/src/lv_widgets/lv_tabview.c ****         if(id_prev != id_new) res = lv_event_send(tabview, LV_EVENT_VALUE_CHANGED, &id_prev);
 771:lvgl/src/lv_widgets/lv_tabview.c ****         if(res != LV_RES_OK) return res;
ARM GAS  D:\Temp\ccnA29ZW.s 			page 15


 772:lvgl/src/lv_widgets/lv_tabview.c **** 
 773:lvgl/src/lv_widgets/lv_tabview.c ****     }
 774:lvgl/src/lv_widgets/lv_tabview.c ****     return res;
 775:lvgl/src/lv_widgets/lv_tabview.c **** }
 776:lvgl/src/lv_widgets/lv_tabview.c **** 
 777:lvgl/src/lv_widgets/lv_tabview.c **** /**
 778:lvgl/src/lv_widgets/lv_tabview.c ****  * Get the style descriptor of a part of the object
 779:lvgl/src/lv_widgets/lv_tabview.c ****  * @param page pointer the object
 780:lvgl/src/lv_widgets/lv_tabview.c ****  * @param part the part from `lv_tabview_part_t`. (LV_TABVIEW_PART_...)
 781:lvgl/src/lv_widgets/lv_tabview.c ****  * @return pointer to the style descriptor of the specified part
 782:lvgl/src/lv_widgets/lv_tabview.c ****  */
 783:lvgl/src/lv_widgets/lv_tabview.c **** static lv_style_list_t * lv_tabview_get_style(lv_obj_t * tabview, uint8_t part)
 784:lvgl/src/lv_widgets/lv_tabview.c **** {
  29              		.loc 1 784 1 view -0
  30              		.cfi_startproc
  31              		@ args = 0, pretend = 0, frame = 0
  32              		@ frame_needed = 0, uses_anonymous_args = 0
  33              		.loc 1 784 1 is_stmt 0 view .LVU1
  34 0000 38B5     		push	{r3, r4, r5, lr}
  35              	.LCFI0:
  36              		.cfi_def_cfa_offset 16
  37              		.cfi_offset 3, -16
  38              		.cfi_offset 4, -12
  39              		.cfi_offset 5, -8
  40              		.cfi_offset 14, -4
  41 0002 0446     		mov	r4, r0
  42 0004 0D46     		mov	r5, r1
 785:lvgl/src/lv_widgets/lv_tabview.c ****     LV_ASSERT_OBJ(tabview, LV_OBJX_NAME);
  43              		.loc 1 785 5 is_stmt 1 view .LVU2
  44              		.loc 1 785 5 view .LVU3
  45 0006 FFF7FEFF 		bl	lv_debug_check_null
  46              	.LVL1:
  47              		.loc 1 785 5 is_stmt 0 view .LVU4
  48 000a 28B9     		cbnz	r0, .L2
  49              		.loc 1 785 5 is_stmt 1 discriminator 1 view .LVU5
  50              		.loc 1 785 5 discriminator 1 view .LVU6
  51 000c 2246     		mov	r2, r4
  52 000e 0023     		movs	r3, #0
  53 0010 1548     		ldr	r0, .L14
  54 0012 FFF7FEFF 		bl	lv_debug_log_error
  55              	.LVL2:
  56              	.L3:
  57              		.loc 1 785 5 discriminator 1 view .LVU7
  58              		.loc 1 785 5 discriminator 1 view .LVU8
  59 0016 FEE7     		b	.L3
  60              	.L2:
  61              		.loc 1 785 41 discriminator 2 view .LVU9
 786:lvgl/src/lv_widgets/lv_tabview.c **** 
 787:lvgl/src/lv_widgets/lv_tabview.c ****     lv_tabview_ext_t * ext = lv_obj_get_ext_attr(tabview);
  62              		.loc 1 787 5 discriminator 2 view .LVU10
  63              		.loc 1 787 30 is_stmt 0 discriminator 2 view .LVU11
  64 0018 2046     		mov	r0, r4
  65 001a FFF7FEFF 		bl	lv_obj_get_ext_attr
  66              	.LVL3:
 788:lvgl/src/lv_widgets/lv_tabview.c ****     lv_style_list_t * style_dsc_p;
  67              		.loc 1 788 5 is_stmt 1 discriminator 2 view .LVU12
 789:lvgl/src/lv_widgets/lv_tabview.c **** 
ARM GAS  D:\Temp\ccnA29ZW.s 			page 16


 790:lvgl/src/lv_widgets/lv_tabview.c ****     switch(part) {
  68              		.loc 1 790 5 discriminator 2 view .LVU13
  69 001e 412D     		cmp	r5, #65
  70 0020 18D0     		beq	.L4
  71              		.loc 1 790 5 is_stmt 0 view .LVU14
  72 0022 09D8     		bhi	.L5
  73 0024 9DB1     		cbz	r5, .L6
  74 0026 402D     		cmp	r5, #64
  75 0028 04D1     		bne	.L12
 791:lvgl/src/lv_widgets/lv_tabview.c ****         case LV_TABVIEW_PART_BG:
 792:lvgl/src/lv_widgets/lv_tabview.c ****             style_dsc_p = &tabview->style_list;
 793:lvgl/src/lv_widgets/lv_tabview.c ****             break;
 794:lvgl/src/lv_widgets/lv_tabview.c ****         case LV_TABVIEW_PART_BG_SCROLLABLE:
 795:lvgl/src/lv_widgets/lv_tabview.c ****             style_dsc_p = lv_obj_get_style_list(ext->content, LV_PAGE_PART_SCROLLABLE);
  76              		.loc 1 795 13 is_stmt 1 view .LVU15
  77              		.loc 1 795 27 is_stmt 0 view .LVU16
  78 002a 4021     		movs	r1, #64
  79 002c 8068     		ldr	r0, [r0, #8]
  80              	.LVL4:
  81              		.loc 1 795 27 view .LVU17
  82 002e FFF7FEFF 		bl	lv_obj_get_style_list
  83              	.LVL5:
 796:lvgl/src/lv_widgets/lv_tabview.c ****             break;
  84              		.loc 1 796 13 is_stmt 1 view .LVU18
  85 0032 00E0     		b	.L1
  86              	.LVL6:
  87              	.L12:
 797:lvgl/src/lv_widgets/lv_tabview.c ****         case LV_TABVIEW_PART_TAB_BG:
 798:lvgl/src/lv_widgets/lv_tabview.c ****             style_dsc_p = lv_obj_get_style_list(ext->btns, LV_BTNMATRIX_PART_BG);
 799:lvgl/src/lv_widgets/lv_tabview.c ****             break;
 800:lvgl/src/lv_widgets/lv_tabview.c ****         case LV_TABVIEW_PART_TAB_BTN:
 801:lvgl/src/lv_widgets/lv_tabview.c ****             style_dsc_p = lv_obj_get_style_list(ext->btns, LV_BTNMATRIX_PART_BTN);
 802:lvgl/src/lv_widgets/lv_tabview.c ****             break;
 803:lvgl/src/lv_widgets/lv_tabview.c ****         case LV_TABVIEW_PART_INDIC:
 804:lvgl/src/lv_widgets/lv_tabview.c ****             style_dsc_p = lv_obj_get_style_list(ext->indic, LV_OBJ_PART_MAIN);
 805:lvgl/src/lv_widgets/lv_tabview.c ****             break;
 806:lvgl/src/lv_widgets/lv_tabview.c ****         default:
 807:lvgl/src/lv_widgets/lv_tabview.c ****             style_dsc_p = NULL;
  88              		.loc 1 807 25 is_stmt 0 view .LVU19
  89 0034 0020     		movs	r0, #0
  90              	.LVL7:
  91              	.L1:
 808:lvgl/src/lv_widgets/lv_tabview.c ****     }
 809:lvgl/src/lv_widgets/lv_tabview.c **** 
 810:lvgl/src/lv_widgets/lv_tabview.c ****     return style_dsc_p;
 811:lvgl/src/lv_widgets/lv_tabview.c **** }
  92              		.loc 1 811 1 view .LVU20
  93 0036 38BD     		pop	{r3, r4, r5, pc}
  94              	.LVL8:
  95              	.L5:
 790:lvgl/src/lv_widgets/lv_tabview.c ****         case LV_TABVIEW_PART_BG:
  96              		.loc 1 790 5 view .LVU21
  97 0038 422D     		cmp	r5, #66
  98 003a 10D0     		beq	.L9
  99 003c 432D     		cmp	r5, #67
 100 003e 04D1     		bne	.L13
 804:lvgl/src/lv_widgets/lv_tabview.c ****             break;
ARM GAS  D:\Temp\ccnA29ZW.s 			page 17


 101              		.loc 1 804 13 is_stmt 1 view .LVU22
 804:lvgl/src/lv_widgets/lv_tabview.c ****             break;
 102              		.loc 1 804 27 is_stmt 0 view .LVU23
 103 0040 0021     		movs	r1, #0
 104 0042 4068     		ldr	r0, [r0, #4]
 105              	.LVL9:
 804:lvgl/src/lv_widgets/lv_tabview.c ****             break;
 106              		.loc 1 804 27 view .LVU24
 107 0044 FFF7FEFF 		bl	lv_obj_get_style_list
 108              	.LVL10:
 805:lvgl/src/lv_widgets/lv_tabview.c ****         default:
 109              		.loc 1 805 13 is_stmt 1 view .LVU25
 810:lvgl/src/lv_widgets/lv_tabview.c **** }
 110              		.loc 1 810 5 view .LVU26
 810:lvgl/src/lv_widgets/lv_tabview.c **** }
 111              		.loc 1 810 12 is_stmt 0 view .LVU27
 112 0048 F5E7     		b	.L1
 113              	.LVL11:
 114              	.L13:
 807:lvgl/src/lv_widgets/lv_tabview.c ****     }
 115              		.loc 1 807 25 view .LVU28
 116 004a 0020     		movs	r0, #0
 117              	.LVL12:
 807:lvgl/src/lv_widgets/lv_tabview.c ****     }
 118              		.loc 1 807 25 view .LVU29
 119 004c F3E7     		b	.L1
 120              	.LVL13:
 121              	.L6:
 792:lvgl/src/lv_widgets/lv_tabview.c ****             break;
 122              		.loc 1 792 13 is_stmt 1 view .LVU30
 792:lvgl/src/lv_widgets/lv_tabview.c ****             break;
 123              		.loc 1 792 25 is_stmt 0 view .LVU31
 124 004e 04F12800 		add	r0, r4, #40
 125              	.LVL14:
 793:lvgl/src/lv_widgets/lv_tabview.c ****         case LV_TABVIEW_PART_BG_SCROLLABLE:
 126              		.loc 1 793 13 is_stmt 1 view .LVU32
 127 0052 F0E7     		b	.L1
 128              	.LVL15:
 129              	.L4:
 798:lvgl/src/lv_widgets/lv_tabview.c ****             break;
 130              		.loc 1 798 13 view .LVU33
 798:lvgl/src/lv_widgets/lv_tabview.c ****             break;
 131              		.loc 1 798 27 is_stmt 0 view .LVU34
 132 0054 0021     		movs	r1, #0
 133 0056 0068     		ldr	r0, [r0]
 134              	.LVL16:
 798:lvgl/src/lv_widgets/lv_tabview.c ****             break;
 135              		.loc 1 798 27 view .LVU35
 136 0058 FFF7FEFF 		bl	lv_obj_get_style_list
 137              	.LVL17:
 799:lvgl/src/lv_widgets/lv_tabview.c ****         case LV_TABVIEW_PART_TAB_BTN:
 138              		.loc 1 799 13 is_stmt 1 view .LVU36
 139 005c EBE7     		b	.L1
 140              	.LVL18:
 141              	.L9:
 801:lvgl/src/lv_widgets/lv_tabview.c ****             break;
 142              		.loc 1 801 13 view .LVU37
ARM GAS  D:\Temp\ccnA29ZW.s 			page 18


 801:lvgl/src/lv_widgets/lv_tabview.c ****             break;
 143              		.loc 1 801 27 is_stmt 0 view .LVU38
 144 005e 0121     		movs	r1, #1
 145 0060 0068     		ldr	r0, [r0]
 146              	.LVL19:
 801:lvgl/src/lv_widgets/lv_tabview.c ****             break;
 147              		.loc 1 801 27 view .LVU39
 148 0062 FFF7FEFF 		bl	lv_obj_get_style_list
 149              	.LVL20:
 802:lvgl/src/lv_widgets/lv_tabview.c ****         case LV_TABVIEW_PART_INDIC:
 150              		.loc 1 802 13 is_stmt 1 view .LVU40
 151 0066 E6E7     		b	.L1
 152              	.L15:
 153              		.align	2
 154              	.L14:
 155 0068 00000000 		.word	.LC0
 156              		.cfi_endproc
 157              	.LFE504:
 159              		.section	.text.refr_btns_size,"ax",%progbits
 160              		.align	1
 161              		.syntax unified
 162              		.thumb
 163              		.thumb_func
 164              		.fpu fpv4-sp-d16
 166              	refr_btns_size:
 167              	.LVL21:
 168              	.LFB508:
 812:lvgl/src/lv_widgets/lv_tabview.c **** 
 813:lvgl/src/lv_widgets/lv_tabview.c **** /**
 814:lvgl/src/lv_widgets/lv_tabview.c ****  * Called when a tab button is clicked
 815:lvgl/src/lv_widgets/lv_tabview.c ****  * @param tab_btnm pointer to the tab's button matrix object
 816:lvgl/src/lv_widgets/lv_tabview.c ****  * @param event type of the event
 817:lvgl/src/lv_widgets/lv_tabview.c ****  */
 818:lvgl/src/lv_widgets/lv_tabview.c **** static void tab_btnm_event_cb(lv_obj_t * tab_btnm, lv_event_t event)
 819:lvgl/src/lv_widgets/lv_tabview.c **** {
 820:lvgl/src/lv_widgets/lv_tabview.c ****     if(event != LV_EVENT_CLICKED) return;
 821:lvgl/src/lv_widgets/lv_tabview.c **** 
 822:lvgl/src/lv_widgets/lv_tabview.c ****     uint16_t btn_id = lv_btnmatrix_get_active_btn(tab_btnm);
 823:lvgl/src/lv_widgets/lv_tabview.c ****     if(btn_id == LV_BTNMATRIX_BTN_NONE) return;
 824:lvgl/src/lv_widgets/lv_tabview.c **** 
 825:lvgl/src/lv_widgets/lv_tabview.c ****     if(lv_btnmatrix_get_btn_ctrl(tab_btnm, btn_id, LV_BTNMATRIX_CTRL_DISABLED)) return;
 826:lvgl/src/lv_widgets/lv_tabview.c **** 
 827:lvgl/src/lv_widgets/lv_tabview.c ****     lv_btnmatrix_clear_btn_ctrl_all(tab_btnm, LV_BTNMATRIX_CTRL_CHECK_STATE);
 828:lvgl/src/lv_widgets/lv_tabview.c ****     lv_btnmatrix_set_btn_ctrl(tab_btnm, btn_id, LV_BTNMATRIX_CTRL_CHECK_STATE);
 829:lvgl/src/lv_widgets/lv_tabview.c **** 
 830:lvgl/src/lv_widgets/lv_tabview.c ****     lv_obj_t * tabview = lv_obj_get_parent(tab_btnm);
 831:lvgl/src/lv_widgets/lv_tabview.c **** 
 832:lvgl/src/lv_widgets/lv_tabview.c ****     uint32_t id_prev = lv_tabview_get_tab_act(tabview);
 833:lvgl/src/lv_widgets/lv_tabview.c ****     lv_tabview_set_tab_act(tabview, btn_id, LV_ANIM_ON);
 834:lvgl/src/lv_widgets/lv_tabview.c ****     uint32_t id_new = lv_tabview_get_tab_act(tabview);
 835:lvgl/src/lv_widgets/lv_tabview.c **** 
 836:lvgl/src/lv_widgets/lv_tabview.c ****     lv_res_t res = LV_RES_OK;
 837:lvgl/src/lv_widgets/lv_tabview.c ****     if(id_prev != id_new) res = lv_event_send(tabview, LV_EVENT_VALUE_CHANGED, &id_new);
 838:lvgl/src/lv_widgets/lv_tabview.c **** 
 839:lvgl/src/lv_widgets/lv_tabview.c **** #if LV_USE_GROUP
 840:lvgl/src/lv_widgets/lv_tabview.c ****     if(lv_indev_get_type(lv_indev_get_act()) == LV_INDEV_TYPE_ENCODER) {
 841:lvgl/src/lv_widgets/lv_tabview.c ****         lv_group_set_editing(lv_obj_get_group(tabview), false);
ARM GAS  D:\Temp\ccnA29ZW.s 			page 19


 842:lvgl/src/lv_widgets/lv_tabview.c ****     }
 843:lvgl/src/lv_widgets/lv_tabview.c **** #endif
 844:lvgl/src/lv_widgets/lv_tabview.c **** 
 845:lvgl/src/lv_widgets/lv_tabview.c ****     if(res != LV_RES_OK) return;
 846:lvgl/src/lv_widgets/lv_tabview.c **** }
 847:lvgl/src/lv_widgets/lv_tabview.c **** 
 848:lvgl/src/lv_widgets/lv_tabview.c **** /**
 849:lvgl/src/lv_widgets/lv_tabview.c ****  * Realign and resize the elements of Tab view
 850:lvgl/src/lv_widgets/lv_tabview.c ****  * @param tabview pointer to a Tab view object
 851:lvgl/src/lv_widgets/lv_tabview.c ****  */
 852:lvgl/src/lv_widgets/lv_tabview.c **** static void tabview_realign(lv_obj_t * tabview)
 853:lvgl/src/lv_widgets/lv_tabview.c **** {
 854:lvgl/src/lv_widgets/lv_tabview.c ****     lv_tabview_ext_t * ext = lv_obj_get_ext_attr(tabview);
 855:lvgl/src/lv_widgets/lv_tabview.c **** 
 856:lvgl/src/lv_widgets/lv_tabview.c ****     refr_btns_size(tabview);
 857:lvgl/src/lv_widgets/lv_tabview.c ****     refr_content_size(tabview);
 858:lvgl/src/lv_widgets/lv_tabview.c ****     refr_indic_size(tabview);
 859:lvgl/src/lv_widgets/lv_tabview.c **** 
 860:lvgl/src/lv_widgets/lv_tabview.c ****     refr_align(tabview);
 861:lvgl/src/lv_widgets/lv_tabview.c **** 
 862:lvgl/src/lv_widgets/lv_tabview.c ****     lv_tabview_set_tab_act(tabview, ext->tab_cur, LV_ANIM_OFF);
 863:lvgl/src/lv_widgets/lv_tabview.c **** }
 864:lvgl/src/lv_widgets/lv_tabview.c **** 
 865:lvgl/src/lv_widgets/lv_tabview.c **** static void refr_indic_size(lv_obj_t * tabview)
 866:lvgl/src/lv_widgets/lv_tabview.c **** {
 867:lvgl/src/lv_widgets/lv_tabview.c ****     lv_tabview_ext_t * ext = lv_obj_get_ext_attr(tabview);
 868:lvgl/src/lv_widgets/lv_tabview.c ****     lv_btnmatrix_ext_t * btnm_ext = lv_obj_get_ext_attr(ext->btns);
 869:lvgl/src/lv_widgets/lv_tabview.c **** 
 870:lvgl/src/lv_widgets/lv_tabview.c ****     lv_coord_t indic_size = lv_obj_get_style_size(tabview, LV_TABVIEW_PART_INDIC);
 871:lvgl/src/lv_widgets/lv_tabview.c **** 
 872:lvgl/src/lv_widgets/lv_tabview.c ****     /*Set the indicator width/height*/
 873:lvgl/src/lv_widgets/lv_tabview.c ****     lv_coord_t indic_w;
 874:lvgl/src/lv_widgets/lv_tabview.c ****     lv_coord_t indic_h;
 875:lvgl/src/lv_widgets/lv_tabview.c **** 
 876:lvgl/src/lv_widgets/lv_tabview.c ****     switch(ext->btns_pos) {
 877:lvgl/src/lv_widgets/lv_tabview.c ****         default: /*default case is prevented in lv_tabview_set_btns_pos(), but here for safety*/
 878:lvgl/src/lv_widgets/lv_tabview.c ****         case LV_TABVIEW_TAB_POS_NONE:
 879:lvgl/src/lv_widgets/lv_tabview.c ****             lv_obj_set_hidden(ext->indic, true);
 880:lvgl/src/lv_widgets/lv_tabview.c ****             indic_w = 0;
 881:lvgl/src/lv_widgets/lv_tabview.c ****             indic_h = 0;
 882:lvgl/src/lv_widgets/lv_tabview.c ****             break;
 883:lvgl/src/lv_widgets/lv_tabview.c ****         case LV_TABVIEW_TAB_POS_TOP:
 884:lvgl/src/lv_widgets/lv_tabview.c ****         case LV_TABVIEW_TAB_POS_BOTTOM:
 885:lvgl/src/lv_widgets/lv_tabview.c ****             lv_obj_set_hidden(ext->indic, false);
 886:lvgl/src/lv_widgets/lv_tabview.c ****             if(ext->tab_cnt) {
 887:lvgl/src/lv_widgets/lv_tabview.c ****                 indic_h = indic_size;
 888:lvgl/src/lv_widgets/lv_tabview.c ****                 indic_w = lv_area_get_width(&btnm_ext->button_areas[0]);
 889:lvgl/src/lv_widgets/lv_tabview.c ****             }
 890:lvgl/src/lv_widgets/lv_tabview.c ****             else {
 891:lvgl/src/lv_widgets/lv_tabview.c ****                 indic_w = 0;
 892:lvgl/src/lv_widgets/lv_tabview.c ****                 indic_h = 0;
 893:lvgl/src/lv_widgets/lv_tabview.c ****             }
 894:lvgl/src/lv_widgets/lv_tabview.c ****             break;
 895:lvgl/src/lv_widgets/lv_tabview.c ****         case LV_TABVIEW_TAB_POS_LEFT:
 896:lvgl/src/lv_widgets/lv_tabview.c ****         case LV_TABVIEW_TAB_POS_RIGHT:
 897:lvgl/src/lv_widgets/lv_tabview.c ****             lv_obj_set_hidden(ext->indic, false);
 898:lvgl/src/lv_widgets/lv_tabview.c ****             if(ext->tab_cnt) {
ARM GAS  D:\Temp\ccnA29ZW.s 			page 20


 899:lvgl/src/lv_widgets/lv_tabview.c ****                 indic_w = indic_size;
 900:lvgl/src/lv_widgets/lv_tabview.c ****                 indic_h = lv_area_get_height(&btnm_ext->button_areas[0]);
 901:lvgl/src/lv_widgets/lv_tabview.c ****             }
 902:lvgl/src/lv_widgets/lv_tabview.c ****             else {
 903:lvgl/src/lv_widgets/lv_tabview.c ****                 indic_w = 0;
 904:lvgl/src/lv_widgets/lv_tabview.c ****                 indic_h = 0;
 905:lvgl/src/lv_widgets/lv_tabview.c ****             }
 906:lvgl/src/lv_widgets/lv_tabview.c ****             break;
 907:lvgl/src/lv_widgets/lv_tabview.c ****     }
 908:lvgl/src/lv_widgets/lv_tabview.c **** 
 909:lvgl/src/lv_widgets/lv_tabview.c ****     lv_obj_set_width(ext->indic, indic_w);
 910:lvgl/src/lv_widgets/lv_tabview.c ****     lv_obj_set_height(ext->indic, indic_h);
 911:lvgl/src/lv_widgets/lv_tabview.c **** }
 912:lvgl/src/lv_widgets/lv_tabview.c **** 
 913:lvgl/src/lv_widgets/lv_tabview.c **** static void refr_btns_size(lv_obj_t * tabview)
 914:lvgl/src/lv_widgets/lv_tabview.c **** {
 169              		.loc 1 914 1 view -0
 170              		.cfi_startproc
 171              		@ args = 0, pretend = 0, frame = 16
 172              		@ frame_needed = 0, uses_anonymous_args = 0
 173              		.loc 1 914 1 is_stmt 0 view .LVU42
 174 0000 2DE9F04F 		push	{r4, r5, r6, r7, r8, r9, r10, fp, lr}
 175              	.LCFI1:
 176              		.cfi_def_cfa_offset 36
 177              		.cfi_offset 4, -36
 178              		.cfi_offset 5, -32
 179              		.cfi_offset 6, -28
 180              		.cfi_offset 7, -24
 181              		.cfi_offset 8, -20
 182              		.cfi_offset 9, -16
 183              		.cfi_offset 10, -12
 184              		.cfi_offset 11, -8
 185              		.cfi_offset 14, -4
 186 0004 85B0     		sub	sp, sp, #20
 187              	.LCFI2:
 188              		.cfi_def_cfa_offset 56
 189 0006 0446     		mov	r4, r0
 915:lvgl/src/lv_widgets/lv_tabview.c ****     lv_tabview_ext_t * ext = lv_obj_get_ext_attr(tabview);
 190              		.loc 1 915 5 is_stmt 1 view .LVU43
 191              		.loc 1 915 30 is_stmt 0 view .LVU44
 192 0008 FFF7FEFF 		bl	lv_obj_get_ext_attr
 193              	.LVL22:
 194              		.loc 1 915 30 view .LVU45
 195 000c 0646     		mov	r6, r0
 196              	.LVL23:
 916:lvgl/src/lv_widgets/lv_tabview.c **** 
 917:lvgl/src/lv_widgets/lv_tabview.c ****     lv_style_int_t tab_bg_left = lv_obj_get_style_pad_left(tabview, LV_TABVIEW_PART_TAB_BG);
 197              		.loc 1 917 5 is_stmt 1 view .LVU46
 198              	.LBB85:
 199              	.LBI85:
 200              		.file 2 "lvgl/src/lv_widgets/../lv_core/lv_obj_style_dec.h"
   1:lvgl/src/lv_widgets/../lv_core/lv_obj_style_dec.h **** 
   2:lvgl/src/lv_widgets/../lv_core/lv_obj_style_dec.h **** /**
   3:lvgl/src/lv_widgets/../lv_core/lv_obj_style_dec.h ****  * @file lv_obj_style_dec.h
   4:lvgl/src/lv_widgets/../lv_core/lv_obj_style_dec.h ****  *
   5:lvgl/src/lv_widgets/../lv_core/lv_obj_style_dec.h ****  */
   6:lvgl/src/lv_widgets/../lv_core/lv_obj_style_dec.h **** 
ARM GAS  D:\Temp\ccnA29ZW.s 			page 21


   7:lvgl/src/lv_widgets/../lv_core/lv_obj_style_dec.h **** #ifndef LV_OBJ_STYLE_DEC_H
   8:lvgl/src/lv_widgets/../lv_core/lv_obj_style_dec.h **** #define LV_OBJ_STYLE_DEC_H
   9:lvgl/src/lv_widgets/../lv_core/lv_obj_style_dec.h **** 
  10:lvgl/src/lv_widgets/../lv_core/lv_obj_style_dec.h **** #ifdef __cplusplus
  11:lvgl/src/lv_widgets/../lv_core/lv_obj_style_dec.h **** extern "C" {
  12:lvgl/src/lv_widgets/../lv_core/lv_obj_style_dec.h **** #endif
  13:lvgl/src/lv_widgets/../lv_core/lv_obj_style_dec.h **** 
  14:lvgl/src/lv_widgets/../lv_core/lv_obj_style_dec.h **** /*********************
  15:lvgl/src/lv_widgets/../lv_core/lv_obj_style_dec.h ****  *      DEFINES
  16:lvgl/src/lv_widgets/../lv_core/lv_obj_style_dec.h ****  *********************/
  17:lvgl/src/lv_widgets/../lv_core/lv_obj_style_dec.h **** 
  18:lvgl/src/lv_widgets/../lv_core/lv_obj_style_dec.h **** /**
  19:lvgl/src/lv_widgets/../lv_core/lv_obj_style_dec.h ****  * Macro to declare the most important style set/get API functions.
  20:lvgl/src/lv_widgets/../lv_core/lv_obj_style_dec.h ****  *
  21:lvgl/src/lv_widgets/../lv_core/lv_obj_style_dec.h ****  * Get the value of a style property from an object in the object's current state
  22:lvgl/src/lv_widgets/../lv_core/lv_obj_style_dec.h ****  * -----------------------------------------------------------------------------
  23:lvgl/src/lv_widgets/../lv_core/lv_obj_style_dec.h ****  *  - Get the value of a style property from an object in the object's current state.
  24:lvgl/src/lv_widgets/../lv_core/lv_obj_style_dec.h ****  *  - Transition animation is taken into account.
  25:lvgl/src/lv_widgets/../lv_core/lv_obj_style_dec.h ****  *  - If the property is not set in the object's styles check the parent(s) if the property can be 
  26:lvgl/src/lv_widgets/../lv_core/lv_obj_style_dec.h ****  *  - If still not found return a default value.
  27:lvgl/src/lv_widgets/../lv_core/lv_obj_style_dec.h ****  *  - For example:
  28:lvgl/src/lv_widgets/../lv_core/lv_obj_style_dec.h ****  *      `lv_style_int_t w = lv_obj_get_style_border_width(btn1, LV_BTN_PART_MAIN);`
  29:lvgl/src/lv_widgets/../lv_core/lv_obj_style_dec.h ****  *
  30:lvgl/src/lv_widgets/../lv_core/lv_obj_style_dec.h ****  * Set a local style property for an object in a given state
  31:lvgl/src/lv_widgets/../lv_core/lv_obj_style_dec.h ****  * ---------------------------------------------------------
  32:lvgl/src/lv_widgets/../lv_core/lv_obj_style_dec.h ****  *  - For example:
  33:lvgl/src/lv_widgets/../lv_core/lv_obj_style_dec.h ****  *      `lv_obj_set_style_local_border_width(btn1, LV_BTN_PART_MAIN, LV_STATE_PRESSED, 2);`
  34:lvgl/src/lv_widgets/../lv_core/lv_obj_style_dec.h ****  *
  35:lvgl/src/lv_widgets/../lv_core/lv_obj_style_dec.h ****  * Get a local style property's value of an object in a given state
  36:lvgl/src/lv_widgets/../lv_core/lv_obj_style_dec.h ****  * ----------------------------------------------------------------
  37:lvgl/src/lv_widgets/../lv_core/lv_obj_style_dec.h ****  *  - Return the best matching property in the given state.
  38:lvgl/src/lv_widgets/../lv_core/lv_obj_style_dec.h ****  *  - E.g. if `state` parameter is LV_STATE_PRESSED | LV_STATE_CHECKED` but the property defined on
  39:lvgl/src/lv_widgets/../lv_core/lv_obj_style_dec.h ****  *    `LV_STATE_PRESSED` and `LV_STATE_DEFAULT` the best matching state is `LV_STATE_PRESSED`
  40:lvgl/src/lv_widgets/../lv_core/lv_obj_style_dec.h ****  *    (because it has higher precedence) and it will be returned.
  41:lvgl/src/lv_widgets/../lv_core/lv_obj_style_dec.h ****  *  - If the property is not found even in `LV_STATE_DEFAULT` `-1` is returned.
  42:lvgl/src/lv_widgets/../lv_core/lv_obj_style_dec.h ****  *  - For example:
  43:lvgl/src/lv_widgets/../lv_core/lv_obj_style_dec.h ****  *      `//Type of result should be lv_style_int_t/lv_opa_t/lv_color_t/const void * according to th
  44:lvgl/src/lv_widgets/../lv_core/lv_obj_style_dec.h ****  *      `lv_style_int_t result;`
  45:lvgl/src/lv_widgets/../lv_core/lv_obj_style_dec.h ****  *      `lv_obj_get_style_local_border_width(btn1, LV_BTN_PART_MAIN, LV_STATE_PRESSED, &result);`
  46:lvgl/src/lv_widgets/../lv_core/lv_obj_style_dec.h ****  *      `if(weight > 0) ...the property is found and loaded into result...`
  47:lvgl/src/lv_widgets/../lv_core/lv_obj_style_dec.h ****  *
  48:lvgl/src/lv_widgets/../lv_core/lv_obj_style_dec.h ****  * Get the value from a style in a given state
  49:lvgl/src/lv_widgets/../lv_core/lv_obj_style_dec.h ****  * -------------------------------------------
  50:lvgl/src/lv_widgets/../lv_core/lv_obj_style_dec.h ****  * - The same rules applies to the return value then for "lv_obj_get_style_local_...()" above
  51:lvgl/src/lv_widgets/../lv_core/lv_obj_style_dec.h ****  * - For example
  52:lvgl/src/lv_widgets/../lv_core/lv_obj_style_dec.h ****  *      `int16_t weight = lv_style_get_border_width(&style1, LV_STATE_PRESSED, &result);`
  53:lvgl/src/lv_widgets/../lv_core/lv_obj_style_dec.h ****  *      `if(weight > 0) ...the property is found and loaded into result...`
  54:lvgl/src/lv_widgets/../lv_core/lv_obj_style_dec.h **** 
  55:lvgl/src/lv_widgets/../lv_core/lv_obj_style_dec.h ****  * Set a value in a style in a given state
  56:lvgl/src/lv_widgets/../lv_core/lv_obj_style_dec.h ****  * ---------------------------------------
  57:lvgl/src/lv_widgets/../lv_core/lv_obj_style_dec.h ****  * - For example
  58:lvgl/src/lv_widgets/../lv_core/lv_obj_style_dec.h ****  *      `lv_style_set_border_width(&style1, LV_STATE_PRESSED, 2);`
  59:lvgl/src/lv_widgets/../lv_core/lv_obj_style_dec.h ****  */
  60:lvgl/src/lv_widgets/../lv_core/lv_obj_style_dec.h **** 
  61:lvgl/src/lv_widgets/../lv_core/lv_obj_style_dec.h **** #define _OBJ_GET_STYLE_scalar(prop_name, func_name, value_type, style_type)                        
  62:lvgl/src/lv_widgets/../lv_core/lv_obj_style_dec.h ****     static inline value_type lv_obj_get_style_##func_name (const lv_obj_t * obj, uint8_t part)     
  63:lvgl/src/lv_widgets/../lv_core/lv_obj_style_dec.h ****     {                                                                                              
ARM GAS  D:\Temp\ccnA29ZW.s 			page 22


  64:lvgl/src/lv_widgets/../lv_core/lv_obj_style_dec.h ****         return (value_type) _lv_obj_get_style##style_type (obj, part, LV_STYLE_##prop_name);       
  65:lvgl/src/lv_widgets/../lv_core/lv_obj_style_dec.h ****     }
  66:lvgl/src/lv_widgets/../lv_core/lv_obj_style_dec.h **** 
  67:lvgl/src/lv_widgets/../lv_core/lv_obj_style_dec.h **** #define _OBJ_GET_STYLE_nonscalar(prop_name, func_name, value_type, style_type)                     
  68:lvgl/src/lv_widgets/../lv_core/lv_obj_style_dec.h ****     static inline value_type lv_obj_get_style_##func_name (const lv_obj_t * obj, uint8_t part)     
  69:lvgl/src/lv_widgets/../lv_core/lv_obj_style_dec.h ****     {                                                                                              
  70:lvgl/src/lv_widgets/../lv_core/lv_obj_style_dec.h ****         return _lv_obj_get_style##style_type (obj, part, LV_STYLE_##prop_name);                    
  71:lvgl/src/lv_widgets/../lv_core/lv_obj_style_dec.h ****     }
  72:lvgl/src/lv_widgets/../lv_core/lv_obj_style_dec.h **** 
  73:lvgl/src/lv_widgets/../lv_core/lv_obj_style_dec.h **** #define _OBJ_SET_STYLE_LOCAL_scalar(prop_name, func_name, value_type, style_type)                  
  74:lvgl/src/lv_widgets/../lv_core/lv_obj_style_dec.h ****     static inline void lv_obj_set_style_local_##func_name (lv_obj_t * obj, uint8_t part, lv_state_t
  75:lvgl/src/lv_widgets/../lv_core/lv_obj_style_dec.h ****     {                                                                                              
  76:lvgl/src/lv_widgets/../lv_core/lv_obj_style_dec.h ****         _lv_obj_set_style_local##style_type (obj, part, LV_STYLE_##prop_name | (state << LV_STYLE_S
  77:lvgl/src/lv_widgets/../lv_core/lv_obj_style_dec.h ****     }
  78:lvgl/src/lv_widgets/../lv_core/lv_obj_style_dec.h **** 
  79:lvgl/src/lv_widgets/../lv_core/lv_obj_style_dec.h **** #define _OBJ_SET_STYLE_LOCAL_nonscalar(prop_name, func_name, value_type, style_type)               
  80:lvgl/src/lv_widgets/../lv_core/lv_obj_style_dec.h ****     static inline void lv_obj_set_style_local_##func_name (lv_obj_t * obj, uint8_t part, lv_state_t
  81:lvgl/src/lv_widgets/../lv_core/lv_obj_style_dec.h ****     {                                                                                              
  82:lvgl/src/lv_widgets/../lv_core/lv_obj_style_dec.h ****         _lv_obj_set_style_local##style_type (obj, part, LV_STYLE_##prop_name | (state << LV_STYLE_S
  83:lvgl/src/lv_widgets/../lv_core/lv_obj_style_dec.h ****     }
  84:lvgl/src/lv_widgets/../lv_core/lv_obj_style_dec.h **** 
  85:lvgl/src/lv_widgets/../lv_core/lv_obj_style_dec.h **** #define _OBJ_SET_STYLE_scalar(prop_name, func_name, value_type, style_type)                        
  86:lvgl/src/lv_widgets/../lv_core/lv_obj_style_dec.h ****     static inline void lv_style_set_##func_name (lv_style_t * style, lv_state_t state, value_type v
  87:lvgl/src/lv_widgets/../lv_core/lv_obj_style_dec.h ****     {                                                                                              
  88:lvgl/src/lv_widgets/../lv_core/lv_obj_style_dec.h ****         _lv_style_set##style_type (style, LV_STYLE_##prop_name | (state << LV_STYLE_STATE_POS), val
  89:lvgl/src/lv_widgets/../lv_core/lv_obj_style_dec.h ****     }
  90:lvgl/src/lv_widgets/../lv_core/lv_obj_style_dec.h **** 
  91:lvgl/src/lv_widgets/../lv_core/lv_obj_style_dec.h **** #define _OBJ_SET_STYLE_nonscalar(prop_name, func_name, value_type, style_type)                     
  92:lvgl/src/lv_widgets/../lv_core/lv_obj_style_dec.h ****     static inline void lv_style_set_##func_name (lv_style_t * style, lv_state_t state, value_type v
  93:lvgl/src/lv_widgets/../lv_core/lv_obj_style_dec.h ****     {                                                                                              
  94:lvgl/src/lv_widgets/../lv_core/lv_obj_style_dec.h ****         _lv_style_set##style_type (style, LV_STYLE_##prop_name | (state << LV_STYLE_STATE_POS), val
  95:lvgl/src/lv_widgets/../lv_core/lv_obj_style_dec.h ****     }
  96:lvgl/src/lv_widgets/../lv_core/lv_obj_style_dec.h **** 
  97:lvgl/src/lv_widgets/../lv_core/lv_obj_style_dec.h **** #define _LV_OBJ_STYLE_SET_GET_DECLARE(prop_name, func_name, value_type, style_type, scalar)        
  98:lvgl/src/lv_widgets/../lv_core/lv_obj_style_dec.h ****     _OBJ_GET_STYLE_##scalar(prop_name, func_name, value_type, style_type)                          
  99:lvgl/src/lv_widgets/../lv_core/lv_obj_style_dec.h ****     _OBJ_SET_STYLE_LOCAL_##scalar(prop_name, func_name, value_type, style_type)                    
 100:lvgl/src/lv_widgets/../lv_core/lv_obj_style_dec.h ****     _OBJ_SET_STYLE_##scalar(prop_name, func_name, value_type, style_type)
 101:lvgl/src/lv_widgets/../lv_core/lv_obj_style_dec.h **** 
 102:lvgl/src/lv_widgets/../lv_core/lv_obj_style_dec.h **** _LV_OBJ_STYLE_SET_GET_DECLARE(RADIUS, radius, lv_style_int_t, _int, scalar)
 103:lvgl/src/lv_widgets/../lv_core/lv_obj_style_dec.h **** _LV_OBJ_STYLE_SET_GET_DECLARE(CLIP_CORNER, clip_corner, bool, _int, scalar)
 104:lvgl/src/lv_widgets/../lv_core/lv_obj_style_dec.h **** _LV_OBJ_STYLE_SET_GET_DECLARE(SIZE, size, lv_style_int_t, _int, scalar)
 105:lvgl/src/lv_widgets/../lv_core/lv_obj_style_dec.h **** _LV_OBJ_STYLE_SET_GET_DECLARE(TRANSFORM_WIDTH, transform_width, lv_style_int_t, _int, scalar)
 106:lvgl/src/lv_widgets/../lv_core/lv_obj_style_dec.h **** _LV_OBJ_STYLE_SET_GET_DECLARE(TRANSFORM_HEIGHT, transform_height, lv_style_int_t, _int, scalar)
 107:lvgl/src/lv_widgets/../lv_core/lv_obj_style_dec.h **** _LV_OBJ_STYLE_SET_GET_DECLARE(TRANSFORM_ANGLE, transform_angle, lv_style_int_t, _int, scalar)
 108:lvgl/src/lv_widgets/../lv_core/lv_obj_style_dec.h **** _LV_OBJ_STYLE_SET_GET_DECLARE(TRANSFORM_ZOOM, transform_zoom, lv_style_int_t, _int, scalar)
 109:lvgl/src/lv_widgets/../lv_core/lv_obj_style_dec.h **** _LV_OBJ_STYLE_SET_GET_DECLARE(OPA_SCALE, opa_scale, lv_opa_t, _opa, scalar)
 110:lvgl/src/lv_widgets/../lv_core/lv_obj_style_dec.h **** _LV_OBJ_STYLE_SET_GET_DECLARE(PAD_TOP, pad_top, lv_style_int_t, _int, scalar)
 111:lvgl/src/lv_widgets/../lv_core/lv_obj_style_dec.h **** _LV_OBJ_STYLE_SET_GET_DECLARE(PAD_BOTTOM, pad_bottom, lv_style_int_t, _int, scalar)
 112:lvgl/src/lv_widgets/../lv_core/lv_obj_style_dec.h **** _LV_OBJ_STYLE_SET_GET_DECLARE(PAD_LEFT, pad_left, lv_style_int_t, _int, scalar)
 201              		.loc 2 112 1 view .LVU47
 202              	.LBB86:
 203              		.loc 2 112 1 view .LVU48
 204 000e 1222     		movs	r2, #18
 205 0010 4121     		movs	r1, #65
 206 0012 2046     		mov	r0, r4
 207              	.LVL24:
 208              		.loc 2 112 1 is_stmt 0 view .LVU49
ARM GAS  D:\Temp\ccnA29ZW.s 			page 23


 209 0014 FFF7FEFF 		bl	_lv_obj_get_style_int
 210              	.LVL25:
 211 0018 0390     		str	r0, [sp, #12]
 212              	.LVL26:
 213              		.loc 2 112 1 view .LVU50
 214              	.LBE86:
 215              	.LBE85:
 918:lvgl/src/lv_widgets/lv_tabview.c ****     lv_style_int_t tab_bg_right = lv_obj_get_style_pad_right(tabview, LV_TABVIEW_PART_TAB_BG);
 216              		.loc 1 918 5 is_stmt 1 view .LVU51
 217              	.LBB87:
 218              	.LBI87:
 113:lvgl/src/lv_widgets/../lv_core/lv_obj_style_dec.h **** _LV_OBJ_STYLE_SET_GET_DECLARE(PAD_RIGHT, pad_right, lv_style_int_t, _int, scalar)
 219              		.loc 2 113 1 view .LVU52
 220              	.LBB88:
 221              		.loc 2 113 1 view .LVU53
 222 001a 1322     		movs	r2, #19
 223 001c 4121     		movs	r1, #65
 224 001e 2046     		mov	r0, r4
 225 0020 FFF7FEFF 		bl	_lv_obj_get_style_int
 226              	.LVL27:
 227 0024 0290     		str	r0, [sp, #8]
 228              	.LVL28:
 229              		.loc 2 113 1 is_stmt 0 view .LVU54
 230              	.LBE88:
 231              	.LBE87:
 919:lvgl/src/lv_widgets/lv_tabview.c ****     lv_style_int_t tab_bg_top = lv_obj_get_style_pad_top(tabview, LV_TABVIEW_PART_TAB_BG);
 232              		.loc 1 919 5 is_stmt 1 view .LVU55
 233              	.LBB89:
 234              	.LBI89:
 110:lvgl/src/lv_widgets/../lv_core/lv_obj_style_dec.h **** _LV_OBJ_STYLE_SET_GET_DECLARE(PAD_BOTTOM, pad_bottom, lv_style_int_t, _int, scalar)
 235              		.loc 2 110 1 view .LVU56
 236              	.LBB90:
 110:lvgl/src/lv_widgets/../lv_core/lv_obj_style_dec.h **** _LV_OBJ_STYLE_SET_GET_DECLARE(PAD_BOTTOM, pad_bottom, lv_style_int_t, _int, scalar)
 237              		.loc 2 110 1 view .LVU57
 238 0026 1022     		movs	r2, #16
 239 0028 4121     		movs	r1, #65
 240 002a 2046     		mov	r0, r4
 241 002c FFF7FEFF 		bl	_lv_obj_get_style_int
 242              	.LVL29:
 243 0030 8146     		mov	r9, r0
 244              	.LVL30:
 110:lvgl/src/lv_widgets/../lv_core/lv_obj_style_dec.h **** _LV_OBJ_STYLE_SET_GET_DECLARE(PAD_BOTTOM, pad_bottom, lv_style_int_t, _int, scalar)
 245              		.loc 2 110 1 is_stmt 0 view .LVU58
 246              	.LBE90:
 247              	.LBE89:
 920:lvgl/src/lv_widgets/lv_tabview.c ****     lv_style_int_t tab_bg_bottom = lv_obj_get_style_pad_bottom(tabview, LV_TABVIEW_PART_TAB_BG);
 248              		.loc 1 920 5 is_stmt 1 view .LVU59
 249              	.LBB91:
 250              	.LBI91:
 111:lvgl/src/lv_widgets/../lv_core/lv_obj_style_dec.h **** _LV_OBJ_STYLE_SET_GET_DECLARE(PAD_LEFT, pad_left, lv_style_int_t, _int, scalar)
 251              		.loc 2 111 1 view .LVU60
 252              	.LBB92:
 111:lvgl/src/lv_widgets/../lv_core/lv_obj_style_dec.h **** _LV_OBJ_STYLE_SET_GET_DECLARE(PAD_LEFT, pad_left, lv_style_int_t, _int, scalar)
 253              		.loc 2 111 1 view .LVU61
 254 0032 1122     		movs	r2, #17
 255 0034 4121     		movs	r1, #65
 256 0036 2046     		mov	r0, r4
ARM GAS  D:\Temp\ccnA29ZW.s 			page 24


 257 0038 FFF7FEFF 		bl	_lv_obj_get_style_int
 258              	.LVL31:
 259 003c 8046     		mov	r8, r0
 260              	.LVL32:
 111:lvgl/src/lv_widgets/../lv_core/lv_obj_style_dec.h **** _LV_OBJ_STYLE_SET_GET_DECLARE(PAD_LEFT, pad_left, lv_style_int_t, _int, scalar)
 261              		.loc 2 111 1 is_stmt 0 view .LVU62
 262              	.LBE92:
 263              	.LBE91:
 921:lvgl/src/lv_widgets/lv_tabview.c **** 
 922:lvgl/src/lv_widgets/lv_tabview.c ****     lv_style_int_t tab_left = lv_obj_get_style_pad_left(tabview, LV_TABVIEW_PART_TAB_BTN);
 264              		.loc 1 922 5 is_stmt 1 view .LVU63
 265              	.LBB93:
 266              	.LBI93:
 112:lvgl/src/lv_widgets/../lv_core/lv_obj_style_dec.h **** _LV_OBJ_STYLE_SET_GET_DECLARE(PAD_RIGHT, pad_right, lv_style_int_t, _int, scalar)
 267              		.loc 2 112 1 view .LVU64
 268              	.LBB94:
 112:lvgl/src/lv_widgets/../lv_core/lv_obj_style_dec.h **** _LV_OBJ_STYLE_SET_GET_DECLARE(PAD_RIGHT, pad_right, lv_style_int_t, _int, scalar)
 269              		.loc 2 112 1 view .LVU65
 270 003e 1222     		movs	r2, #18
 271 0040 4221     		movs	r1, #66
 272 0042 2046     		mov	r0, r4
 273 0044 FFF7FEFF 		bl	_lv_obj_get_style_int
 274              	.LVL33:
 275 0048 0546     		mov	r5, r0
 276              	.LVL34:
 112:lvgl/src/lv_widgets/../lv_core/lv_obj_style_dec.h **** _LV_OBJ_STYLE_SET_GET_DECLARE(PAD_RIGHT, pad_right, lv_style_int_t, _int, scalar)
 277              		.loc 2 112 1 is_stmt 0 view .LVU66
 278              	.LBE94:
 279              	.LBE93:
 923:lvgl/src/lv_widgets/lv_tabview.c ****     lv_style_int_t tab_right = lv_obj_get_style_pad_right(tabview, LV_TABVIEW_PART_TAB_BTN);
 280              		.loc 1 923 5 is_stmt 1 view .LVU67
 281              	.LBB95:
 282              	.LBI95:
 283              		.loc 2 113 1 view .LVU68
 284              	.LBB96:
 285              		.loc 2 113 1 view .LVU69
 286 004a 1322     		movs	r2, #19
 287 004c 4221     		movs	r1, #66
 288 004e 2046     		mov	r0, r4
 289 0050 FFF7FEFF 		bl	_lv_obj_get_style_int
 290              	.LVL35:
 291 0054 0190     		str	r0, [sp, #4]
 292              	.LVL36:
 293              		.loc 2 113 1 is_stmt 0 view .LVU70
 294              	.LBE96:
 295              	.LBE95:
 924:lvgl/src/lv_widgets/lv_tabview.c ****     lv_style_int_t tab_top = lv_obj_get_style_pad_top(tabview, LV_TABVIEW_PART_TAB_BTN);
 296              		.loc 1 924 5 is_stmt 1 view .LVU71
 297              	.LBB97:
 298              	.LBI97:
 110:lvgl/src/lv_widgets/../lv_core/lv_obj_style_dec.h **** _LV_OBJ_STYLE_SET_GET_DECLARE(PAD_BOTTOM, pad_bottom, lv_style_int_t, _int, scalar)
 299              		.loc 2 110 1 view .LVU72
 300              	.LBB98:
 110:lvgl/src/lv_widgets/../lv_core/lv_obj_style_dec.h **** _LV_OBJ_STYLE_SET_GET_DECLARE(PAD_BOTTOM, pad_bottom, lv_style_int_t, _int, scalar)
 301              		.loc 2 110 1 view .LVU73
 302 0056 1022     		movs	r2, #16
 303 0058 4221     		movs	r1, #66
ARM GAS  D:\Temp\ccnA29ZW.s 			page 25


 304 005a 2046     		mov	r0, r4
 305 005c FFF7FEFF 		bl	_lv_obj_get_style_int
 306              	.LVL37:
 307 0060 8346     		mov	fp, r0
 308              	.LVL38:
 110:lvgl/src/lv_widgets/../lv_core/lv_obj_style_dec.h **** _LV_OBJ_STYLE_SET_GET_DECLARE(PAD_BOTTOM, pad_bottom, lv_style_int_t, _int, scalar)
 309              		.loc 2 110 1 is_stmt 0 view .LVU74
 310              	.LBE98:
 311              	.LBE97:
 925:lvgl/src/lv_widgets/lv_tabview.c ****     lv_style_int_t tab_bottom = lv_obj_get_style_pad_bottom(tabview, LV_TABVIEW_PART_TAB_BTN);
 312              		.loc 1 925 5 is_stmt 1 view .LVU75
 313              	.LBB99:
 314              	.LBI99:
 111:lvgl/src/lv_widgets/../lv_core/lv_obj_style_dec.h **** _LV_OBJ_STYLE_SET_GET_DECLARE(PAD_LEFT, pad_left, lv_style_int_t, _int, scalar)
 315              		.loc 2 111 1 view .LVU76
 316              	.LBB100:
 111:lvgl/src/lv_widgets/../lv_core/lv_obj_style_dec.h **** _LV_OBJ_STYLE_SET_GET_DECLARE(PAD_LEFT, pad_left, lv_style_int_t, _int, scalar)
 317              		.loc 2 111 1 view .LVU77
 318 0062 1122     		movs	r2, #17
 319 0064 4221     		movs	r1, #66
 320 0066 2046     		mov	r0, r4
 321 0068 FFF7FEFF 		bl	_lv_obj_get_style_int
 322              	.LVL39:
 323 006c 8246     		mov	r10, r0
 324              	.LVL40:
 111:lvgl/src/lv_widgets/../lv_core/lv_obj_style_dec.h **** _LV_OBJ_STYLE_SET_GET_DECLARE(PAD_LEFT, pad_left, lv_style_int_t, _int, scalar)
 325              		.loc 2 111 1 is_stmt 0 view .LVU78
 326              	.LBE100:
 327              	.LBE99:
 926:lvgl/src/lv_widgets/lv_tabview.c **** 
 927:lvgl/src/lv_widgets/lv_tabview.c ****     const lv_font_t * font = lv_obj_get_style_text_font(tabview, LV_TABVIEW_PART_TAB_BTN);
 328              		.loc 1 927 5 is_stmt 1 view .LVU79
 329              	.LBB101:
 330              	.LBI101:
 114:lvgl/src/lv_widgets/../lv_core/lv_obj_style_dec.h **** _LV_OBJ_STYLE_SET_GET_DECLARE(PAD_INNER, pad_inner, lv_style_int_t, _int, scalar)
 115:lvgl/src/lv_widgets/../lv_core/lv_obj_style_dec.h **** _LV_OBJ_STYLE_SET_GET_DECLARE(MARGIN_TOP, margin_top, lv_style_int_t, _int, scalar)
 116:lvgl/src/lv_widgets/../lv_core/lv_obj_style_dec.h **** _LV_OBJ_STYLE_SET_GET_DECLARE(MARGIN_BOTTOM, margin_bottom, lv_style_int_t, _int, scalar)
 117:lvgl/src/lv_widgets/../lv_core/lv_obj_style_dec.h **** _LV_OBJ_STYLE_SET_GET_DECLARE(MARGIN_LEFT, margin_left, lv_style_int_t, _int, scalar)
 118:lvgl/src/lv_widgets/../lv_core/lv_obj_style_dec.h **** _LV_OBJ_STYLE_SET_GET_DECLARE(MARGIN_RIGHT, margin_right, lv_style_int_t, _int, scalar)
 119:lvgl/src/lv_widgets/../lv_core/lv_obj_style_dec.h **** _LV_OBJ_STYLE_SET_GET_DECLARE(BG_BLEND_MODE, bg_blend_mode, lv_blend_mode_t, _int, scalar)
 120:lvgl/src/lv_widgets/../lv_core/lv_obj_style_dec.h **** _LV_OBJ_STYLE_SET_GET_DECLARE(BG_MAIN_STOP, bg_main_stop, lv_style_int_t, _int, scalar)
 121:lvgl/src/lv_widgets/../lv_core/lv_obj_style_dec.h **** _LV_OBJ_STYLE_SET_GET_DECLARE(BG_GRAD_STOP, bg_grad_stop, lv_style_int_t, _int, scalar)
 122:lvgl/src/lv_widgets/../lv_core/lv_obj_style_dec.h **** _LV_OBJ_STYLE_SET_GET_DECLARE(BG_GRAD_DIR, bg_grad_dir, lv_grad_dir_t, _int, scalar)
 123:lvgl/src/lv_widgets/../lv_core/lv_obj_style_dec.h **** _LV_OBJ_STYLE_SET_GET_DECLARE(BG_COLOR, bg_color, lv_color_t, _color, nonscalar)
 124:lvgl/src/lv_widgets/../lv_core/lv_obj_style_dec.h **** _LV_OBJ_STYLE_SET_GET_DECLARE(BG_GRAD_COLOR, bg_grad_color, lv_color_t, _color, nonscalar)
 125:lvgl/src/lv_widgets/../lv_core/lv_obj_style_dec.h **** _LV_OBJ_STYLE_SET_GET_DECLARE(BG_OPA, bg_opa, lv_opa_t, _opa, scalar)
 126:lvgl/src/lv_widgets/../lv_core/lv_obj_style_dec.h **** _LV_OBJ_STYLE_SET_GET_DECLARE(BORDER_WIDTH, border_width, lv_style_int_t, _int, scalar)
 127:lvgl/src/lv_widgets/../lv_core/lv_obj_style_dec.h **** _LV_OBJ_STYLE_SET_GET_DECLARE(BORDER_SIDE, border_side, lv_border_side_t, _int, scalar)
 128:lvgl/src/lv_widgets/../lv_core/lv_obj_style_dec.h **** _LV_OBJ_STYLE_SET_GET_DECLARE(BORDER_BLEND_MODE, border_blend_mode, lv_blend_mode_t, _int, scalar)
 129:lvgl/src/lv_widgets/../lv_core/lv_obj_style_dec.h **** _LV_OBJ_STYLE_SET_GET_DECLARE(BORDER_POST, border_post, bool, _int, scalar)
 130:lvgl/src/lv_widgets/../lv_core/lv_obj_style_dec.h **** _LV_OBJ_STYLE_SET_GET_DECLARE(BORDER_COLOR, border_color, lv_color_t, _color, nonscalar)
 131:lvgl/src/lv_widgets/../lv_core/lv_obj_style_dec.h **** _LV_OBJ_STYLE_SET_GET_DECLARE(BORDER_OPA, border_opa, lv_opa_t, _opa, scalar)
 132:lvgl/src/lv_widgets/../lv_core/lv_obj_style_dec.h **** _LV_OBJ_STYLE_SET_GET_DECLARE(OUTLINE_WIDTH, outline_width, lv_style_int_t, _int, scalar)
 133:lvgl/src/lv_widgets/../lv_core/lv_obj_style_dec.h **** _LV_OBJ_STYLE_SET_GET_DECLARE(OUTLINE_PAD, outline_pad, lv_style_int_t, _int, scalar)
 134:lvgl/src/lv_widgets/../lv_core/lv_obj_style_dec.h **** _LV_OBJ_STYLE_SET_GET_DECLARE(OUTLINE_BLEND_MODE, outline_blend_mode, lv_blend_mode_t, _int, scalar
 135:lvgl/src/lv_widgets/../lv_core/lv_obj_style_dec.h **** _LV_OBJ_STYLE_SET_GET_DECLARE(OUTLINE_COLOR, outline_color, lv_color_t, _color, nonscalar)
 136:lvgl/src/lv_widgets/../lv_core/lv_obj_style_dec.h **** _LV_OBJ_STYLE_SET_GET_DECLARE(OUTLINE_OPA, outline_opa, lv_opa_t, _opa, scalar)
ARM GAS  D:\Temp\ccnA29ZW.s 			page 26


 137:lvgl/src/lv_widgets/../lv_core/lv_obj_style_dec.h **** _LV_OBJ_STYLE_SET_GET_DECLARE(SHADOW_WIDTH, shadow_width, lv_style_int_t, _int, scalar)
 138:lvgl/src/lv_widgets/../lv_core/lv_obj_style_dec.h **** _LV_OBJ_STYLE_SET_GET_DECLARE(SHADOW_OFS_X, shadow_ofs_x, lv_style_int_t, _int, scalar)
 139:lvgl/src/lv_widgets/../lv_core/lv_obj_style_dec.h **** _LV_OBJ_STYLE_SET_GET_DECLARE(SHADOW_OFS_Y, shadow_ofs_y, lv_style_int_t, _int, scalar)
 140:lvgl/src/lv_widgets/../lv_core/lv_obj_style_dec.h **** _LV_OBJ_STYLE_SET_GET_DECLARE(SHADOW_SPREAD, shadow_spread, lv_style_int_t, _int, scalar)
 141:lvgl/src/lv_widgets/../lv_core/lv_obj_style_dec.h **** _LV_OBJ_STYLE_SET_GET_DECLARE(SHADOW_BLEND_MODE, shadow_blend_mode, lv_blend_mode_t, _int, scalar)
 142:lvgl/src/lv_widgets/../lv_core/lv_obj_style_dec.h **** _LV_OBJ_STYLE_SET_GET_DECLARE(SHADOW_COLOR, shadow_color, lv_color_t, _color, nonscalar)
 143:lvgl/src/lv_widgets/../lv_core/lv_obj_style_dec.h **** _LV_OBJ_STYLE_SET_GET_DECLARE(SHADOW_OPA, shadow_opa, lv_opa_t, _opa, scalar)
 144:lvgl/src/lv_widgets/../lv_core/lv_obj_style_dec.h **** _LV_OBJ_STYLE_SET_GET_DECLARE(PATTERN_REPEAT, pattern_repeat, bool, _int, scalar)
 145:lvgl/src/lv_widgets/../lv_core/lv_obj_style_dec.h **** _LV_OBJ_STYLE_SET_GET_DECLARE(PATTERN_BLEND_MODE, pattern_blend_mode, lv_blend_mode_t, _int, scalar
 146:lvgl/src/lv_widgets/../lv_core/lv_obj_style_dec.h **** _LV_OBJ_STYLE_SET_GET_DECLARE(PATTERN_RECOLOR, pattern_recolor, lv_color_t, _color, nonscalar)
 147:lvgl/src/lv_widgets/../lv_core/lv_obj_style_dec.h **** _LV_OBJ_STYLE_SET_GET_DECLARE(PATTERN_OPA, pattern_opa, lv_opa_t, _opa, scalar)
 148:lvgl/src/lv_widgets/../lv_core/lv_obj_style_dec.h **** _LV_OBJ_STYLE_SET_GET_DECLARE(PATTERN_RECOLOR_OPA, pattern_recolor_opa, lv_opa_t, _opa, scalar)
 149:lvgl/src/lv_widgets/../lv_core/lv_obj_style_dec.h **** _LV_OBJ_STYLE_SET_GET_DECLARE(PATTERN_IMAGE, pattern_image, const void *, _ptr, scalar)
 150:lvgl/src/lv_widgets/../lv_core/lv_obj_style_dec.h **** _LV_OBJ_STYLE_SET_GET_DECLARE(VALUE_LETTER_SPACE, value_letter_space, lv_style_int_t, _int, scalar)
 151:lvgl/src/lv_widgets/../lv_core/lv_obj_style_dec.h **** _LV_OBJ_STYLE_SET_GET_DECLARE(VALUE_LINE_SPACE, value_line_space, lv_style_int_t, _int, scalar)
 152:lvgl/src/lv_widgets/../lv_core/lv_obj_style_dec.h **** _LV_OBJ_STYLE_SET_GET_DECLARE(VALUE_BLEND_MODE, value_blend_mode, lv_blend_mode_t, _int, scalar)
 153:lvgl/src/lv_widgets/../lv_core/lv_obj_style_dec.h **** _LV_OBJ_STYLE_SET_GET_DECLARE(VALUE_OFS_X, value_ofs_x, lv_style_int_t, _int, scalar)
 154:lvgl/src/lv_widgets/../lv_core/lv_obj_style_dec.h **** _LV_OBJ_STYLE_SET_GET_DECLARE(VALUE_OFS_Y, value_ofs_y, lv_style_int_t, _int, scalar)
 155:lvgl/src/lv_widgets/../lv_core/lv_obj_style_dec.h **** _LV_OBJ_STYLE_SET_GET_DECLARE(VALUE_ALIGN, value_align, lv_align_t, _int, scalar)
 156:lvgl/src/lv_widgets/../lv_core/lv_obj_style_dec.h **** _LV_OBJ_STYLE_SET_GET_DECLARE(VALUE_COLOR, value_color, lv_color_t, _color, nonscalar)
 157:lvgl/src/lv_widgets/../lv_core/lv_obj_style_dec.h **** _LV_OBJ_STYLE_SET_GET_DECLARE(VALUE_OPA, value_opa, lv_opa_t, _opa, scalar)
 158:lvgl/src/lv_widgets/../lv_core/lv_obj_style_dec.h **** _LV_OBJ_STYLE_SET_GET_DECLARE(VALUE_FONT, value_font, const lv_font_t *, _ptr, scalar)
 159:lvgl/src/lv_widgets/../lv_core/lv_obj_style_dec.h **** _LV_OBJ_STYLE_SET_GET_DECLARE(VALUE_STR, value_str, const char *, _ptr, scalar)
 160:lvgl/src/lv_widgets/../lv_core/lv_obj_style_dec.h **** _LV_OBJ_STYLE_SET_GET_DECLARE(TEXT_LETTER_SPACE, text_letter_space, lv_style_int_t, _int, scalar)
 161:lvgl/src/lv_widgets/../lv_core/lv_obj_style_dec.h **** _LV_OBJ_STYLE_SET_GET_DECLARE(TEXT_LINE_SPACE, text_line_space, lv_style_int_t, _int, scalar)
 162:lvgl/src/lv_widgets/../lv_core/lv_obj_style_dec.h **** _LV_OBJ_STYLE_SET_GET_DECLARE(TEXT_DECOR, text_decor, lv_text_decor_t, _int, scalar)
 163:lvgl/src/lv_widgets/../lv_core/lv_obj_style_dec.h **** _LV_OBJ_STYLE_SET_GET_DECLARE(TEXT_BLEND_MODE, text_blend_mode, lv_blend_mode_t, _int, scalar)
 164:lvgl/src/lv_widgets/../lv_core/lv_obj_style_dec.h **** _LV_OBJ_STYLE_SET_GET_DECLARE(TEXT_COLOR, text_color, lv_color_t, _color, nonscalar)
 165:lvgl/src/lv_widgets/../lv_core/lv_obj_style_dec.h **** _LV_OBJ_STYLE_SET_GET_DECLARE(TEXT_SEL_COLOR, text_sel_color, lv_color_t, _color, nonscalar)
 166:lvgl/src/lv_widgets/../lv_core/lv_obj_style_dec.h **** _LV_OBJ_STYLE_SET_GET_DECLARE(TEXT_SEL_BG_COLOR, text_sel_bg_color, lv_color_t, _color, nonscalar)
 167:lvgl/src/lv_widgets/../lv_core/lv_obj_style_dec.h **** _LV_OBJ_STYLE_SET_GET_DECLARE(TEXT_OPA, text_opa, lv_opa_t, _opa, scalar)
 168:lvgl/src/lv_widgets/../lv_core/lv_obj_style_dec.h **** _LV_OBJ_STYLE_SET_GET_DECLARE(TEXT_FONT, text_font, const lv_font_t *, _ptr, scalar)
 331              		.loc 2 168 1 view .LVU80
 332              	.LBB102:
 333              		.loc 2 168 1 view .LVU81
 334 006e 48F28E02 		movw	r2, #32910
 335 0072 4221     		movs	r1, #66
 336 0074 2046     		mov	r0, r4
 337 0076 FFF7FEFF 		bl	_lv_obj_get_style_ptr
 338              	.LVL41:
 339 007a 0746     		mov	r7, r0
 340              	.LVL42:
 341              		.loc 2 168 1 is_stmt 0 view .LVU82
 342              	.LBE102:
 343              	.LBE101:
 928:lvgl/src/lv_widgets/lv_tabview.c **** 
 929:lvgl/src/lv_widgets/lv_tabview.c ****     /*Set the tabs height/width*/
 930:lvgl/src/lv_widgets/lv_tabview.c ****     lv_coord_t btns_w;
 344              		.loc 1 930 5 is_stmt 1 view .LVU83
 931:lvgl/src/lv_widgets/lv_tabview.c ****     lv_coord_t btns_h;
 345              		.loc 1 931 5 view .LVU84
 932:lvgl/src/lv_widgets/lv_tabview.c **** 
 933:lvgl/src/lv_widgets/lv_tabview.c ****     switch(ext->btns_pos) {
 346              		.loc 1 933 5 view .LVU85
 347              		.loc 1 933 15 is_stmt 0 view .LVU86
 348 007c B37E     		ldrb	r3, [r6, #26]	@ zero_extendqisi2
 349 007e 03F00703 		and	r3, r3, #7
ARM GAS  D:\Temp\ccnA29ZW.s 			page 27


 350              		.loc 1 933 5 view .LVU87
 351 0082 013B     		subs	r3, r3, #1
 352 0084 032B     		cmp	r3, #3
 353 0086 03D8     		bhi	.L17
 354 0088 DFE803F0 		tbb	[pc, r3]
 355              	.L19:
 356 008c 0A       		.byte	(.L20-.L19)/2
 357 008d 0A       		.byte	(.L20-.L19)/2
 358 008e 26       		.byte	(.L18-.L19)/2
 359 008f 26       		.byte	(.L18-.L19)/2
 360              		.p2align 1
 361              	.L17:
 934:lvgl/src/lv_widgets/lv_tabview.c ****         default: /*default case is prevented in lv_tabview_set_btns_pos(), but here for safety*/
 935:lvgl/src/lv_widgets/lv_tabview.c ****         case LV_TABVIEW_TAB_POS_NONE:
 936:lvgl/src/lv_widgets/lv_tabview.c ****             btns_w = 0;
 362              		.loc 1 936 13 is_stmt 1 view .LVU88
 363              	.LVL43:
 937:lvgl/src/lv_widgets/lv_tabview.c ****             btns_h = 0;
 364              		.loc 1 937 13 view .LVU89
 938:lvgl/src/lv_widgets/lv_tabview.c ****             lv_obj_set_hidden(ext->btns, true);
 365              		.loc 1 938 13 view .LVU90
 366 0090 0121     		movs	r1, #1
 367 0092 3068     		ldr	r0, [r6]
 368              	.LVL44:
 369              		.loc 1 938 13 is_stmt 0 view .LVU91
 370 0094 FFF7FEFF 		bl	lv_obj_set_hidden
 371              	.LVL45:
 939:lvgl/src/lv_widgets/lv_tabview.c ****             break;
 372              		.loc 1 939 13 is_stmt 1 view .LVU92
 937:lvgl/src/lv_widgets/lv_tabview.c ****             btns_h = 0;
 373              		.loc 1 937 20 is_stmt 0 view .LVU93
 374 0098 4FF00008 		mov	r8, #0
 375              	.LVL46:
 936:lvgl/src/lv_widgets/lv_tabview.c ****             btns_h = 0;
 376              		.loc 1 936 20 view .LVU94
 377 009c 4546     		mov	r5, r8
 378              	.LVL47:
 379              		.loc 1 939 13 view .LVU95
 380 009e 13E0     		b	.L21
 381              	.LVL48:
 382              	.L20:
 940:lvgl/src/lv_widgets/lv_tabview.c ****         case LV_TABVIEW_TAB_POS_TOP:
 941:lvgl/src/lv_widgets/lv_tabview.c ****         case LV_TABVIEW_TAB_POS_BOTTOM:
 942:lvgl/src/lv_widgets/lv_tabview.c ****             lv_obj_set_hidden(ext->btns, false);
 383              		.loc 1 942 13 is_stmt 1 view .LVU96
 384 00a0 0021     		movs	r1, #0
 385 00a2 3068     		ldr	r0, [r6]
 386              	.LVL49:
 387              		.loc 1 942 13 is_stmt 0 view .LVU97
 388 00a4 FFF7FEFF 		bl	lv_obj_set_hidden
 389              	.LVL50:
 943:lvgl/src/lv_widgets/lv_tabview.c ****             btns_h = lv_font_get_line_height(font) + tab_top + tab_bottom + tab_bg_top + tab_bg_bot
 390              		.loc 1 943 13 is_stmt 1 view .LVU98
 391              	.LBB103:
 392              	.LBI103:
 393              		.file 3 "lvgl/src/lv_widgets/../lv_core/../lv_font/lv_font.h"
   1:lvgl/src/lv_widgets/../lv_core/../lv_font/lv_font.h **** /**
ARM GAS  D:\Temp\ccnA29ZW.s 			page 28


   2:lvgl/src/lv_widgets/../lv_core/../lv_font/lv_font.h ****  * @file lv_font.h
   3:lvgl/src/lv_widgets/../lv_core/../lv_font/lv_font.h ****  *
   4:lvgl/src/lv_widgets/../lv_core/../lv_font/lv_font.h ****  */
   5:lvgl/src/lv_widgets/../lv_core/../lv_font/lv_font.h **** 
   6:lvgl/src/lv_widgets/../lv_core/../lv_font/lv_font.h **** #ifndef LV_FONT_H
   7:lvgl/src/lv_widgets/../lv_core/../lv_font/lv_font.h **** #define LV_FONT_H
   8:lvgl/src/lv_widgets/../lv_core/../lv_font/lv_font.h **** 
   9:lvgl/src/lv_widgets/../lv_core/../lv_font/lv_font.h **** #ifdef __cplusplus
  10:lvgl/src/lv_widgets/../lv_core/../lv_font/lv_font.h **** extern "C" {
  11:lvgl/src/lv_widgets/../lv_core/../lv_font/lv_font.h **** #endif
  12:lvgl/src/lv_widgets/../lv_core/../lv_font/lv_font.h **** 
  13:lvgl/src/lv_widgets/../lv_core/../lv_font/lv_font.h **** /*********************
  14:lvgl/src/lv_widgets/../lv_core/../lv_font/lv_font.h ****  *      INCLUDES
  15:lvgl/src/lv_widgets/../lv_core/../lv_font/lv_font.h ****  *********************/
  16:lvgl/src/lv_widgets/../lv_core/../lv_font/lv_font.h **** #include "../lv_conf_internal.h"
  17:lvgl/src/lv_widgets/../lv_core/../lv_font/lv_font.h **** #include <stdint.h>
  18:lvgl/src/lv_widgets/../lv_core/../lv_font/lv_font.h **** #include <stddef.h>
  19:lvgl/src/lv_widgets/../lv_core/../lv_font/lv_font.h **** #include <stdbool.h>
  20:lvgl/src/lv_widgets/../lv_core/../lv_font/lv_font.h **** 
  21:lvgl/src/lv_widgets/../lv_core/../lv_font/lv_font.h **** #include "lv_symbol_def.h"
  22:lvgl/src/lv_widgets/../lv_core/../lv_font/lv_font.h **** #include "../lv_misc/lv_area.h"
  23:lvgl/src/lv_widgets/../lv_core/../lv_font/lv_font.h **** 
  24:lvgl/src/lv_widgets/../lv_core/../lv_font/lv_font.h **** /*********************
  25:lvgl/src/lv_widgets/../lv_core/../lv_font/lv_font.h ****  *      DEFINES
  26:lvgl/src/lv_widgets/../lv_core/../lv_font/lv_font.h ****  *********************/
  27:lvgl/src/lv_widgets/../lv_core/../lv_font/lv_font.h **** 
  28:lvgl/src/lv_widgets/../lv_core/../lv_font/lv_font.h **** /**********************
  29:lvgl/src/lv_widgets/../lv_core/../lv_font/lv_font.h ****  *      TYPEDEFS
  30:lvgl/src/lv_widgets/../lv_core/../lv_font/lv_font.h ****  **********************/
  31:lvgl/src/lv_widgets/../lv_core/../lv_font/lv_font.h **** 
  32:lvgl/src/lv_widgets/../lv_core/../lv_font/lv_font.h **** /*------------------
  33:lvgl/src/lv_widgets/../lv_core/../lv_font/lv_font.h ****  * General types
  34:lvgl/src/lv_widgets/../lv_core/../lv_font/lv_font.h ****  *-----------------*/
  35:lvgl/src/lv_widgets/../lv_core/../lv_font/lv_font.h **** 
  36:lvgl/src/lv_widgets/../lv_core/../lv_font/lv_font.h **** /** Describes the properties of a glyph. */
  37:lvgl/src/lv_widgets/../lv_core/../lv_font/lv_font.h **** typedef struct {
  38:lvgl/src/lv_widgets/../lv_core/../lv_font/lv_font.h ****     uint16_t adv_w; /**< The glyph needs this space. Draw the next glyph after this width. 8 bit in
  39:lvgl/src/lv_widgets/../lv_core/../lv_font/lv_font.h ****     uint16_t box_w;  /**< Width of the glyph's bounding box*/
  40:lvgl/src/lv_widgets/../lv_core/../lv_font/lv_font.h ****     uint16_t box_h;  /**< Height of the glyph's bounding box*/
  41:lvgl/src/lv_widgets/../lv_core/../lv_font/lv_font.h ****     int16_t ofs_x;   /**< x offset of the bounding box*/
  42:lvgl/src/lv_widgets/../lv_core/../lv_font/lv_font.h ****     int16_t ofs_y;  /**< y offset of the bounding box*/
  43:lvgl/src/lv_widgets/../lv_core/../lv_font/lv_font.h ****     uint8_t bpp;   /**< Bit-per-pixel: 1, 2, 4, 8*/
  44:lvgl/src/lv_widgets/../lv_core/../lv_font/lv_font.h **** } lv_font_glyph_dsc_t;
  45:lvgl/src/lv_widgets/../lv_core/../lv_font/lv_font.h **** 
  46:lvgl/src/lv_widgets/../lv_core/../lv_font/lv_font.h **** /** The bitmaps might be upscaled by 3 to achieve subpixel rendering. */
  47:lvgl/src/lv_widgets/../lv_core/../lv_font/lv_font.h **** enum {
  48:lvgl/src/lv_widgets/../lv_core/../lv_font/lv_font.h ****     LV_FONT_SUBPX_NONE,
  49:lvgl/src/lv_widgets/../lv_core/../lv_font/lv_font.h ****     LV_FONT_SUBPX_HOR,
  50:lvgl/src/lv_widgets/../lv_core/../lv_font/lv_font.h ****     LV_FONT_SUBPX_VER,
  51:lvgl/src/lv_widgets/../lv_core/../lv_font/lv_font.h ****     LV_FONT_SUBPX_BOTH,
  52:lvgl/src/lv_widgets/../lv_core/../lv_font/lv_font.h **** };
  53:lvgl/src/lv_widgets/../lv_core/../lv_font/lv_font.h **** 
  54:lvgl/src/lv_widgets/../lv_core/../lv_font/lv_font.h **** typedef uint8_t lv_font_subpx_t;
  55:lvgl/src/lv_widgets/../lv_core/../lv_font/lv_font.h **** 
  56:lvgl/src/lv_widgets/../lv_core/../lv_font/lv_font.h **** /** Describe the properties of a font*/
  57:lvgl/src/lv_widgets/../lv_core/../lv_font/lv_font.h **** typedef struct _lv_font_struct {
  58:lvgl/src/lv_widgets/../lv_core/../lv_font/lv_font.h ****     /** Get a glyph's descriptor from a font*/
ARM GAS  D:\Temp\ccnA29ZW.s 			page 29


  59:lvgl/src/lv_widgets/../lv_core/../lv_font/lv_font.h ****     bool (*get_glyph_dsc)(const struct _lv_font_struct *, lv_font_glyph_dsc_t *, uint32_t letter, u
  60:lvgl/src/lv_widgets/../lv_core/../lv_font/lv_font.h **** 
  61:lvgl/src/lv_widgets/../lv_core/../lv_font/lv_font.h ****     /** Get a glyph's bitmap from a font*/
  62:lvgl/src/lv_widgets/../lv_core/../lv_font/lv_font.h ****     const uint8_t * (*get_glyph_bitmap)(const struct _lv_font_struct *, uint32_t);
  63:lvgl/src/lv_widgets/../lv_core/../lv_font/lv_font.h **** 
  64:lvgl/src/lv_widgets/../lv_core/../lv_font/lv_font.h ****     /*Pointer to the font in a font pack (must have the same line height)*/
  65:lvgl/src/lv_widgets/../lv_core/../lv_font/lv_font.h ****     lv_coord_t line_height;         /**< The real line height where any text fits*/
  66:lvgl/src/lv_widgets/../lv_core/../lv_font/lv_font.h ****     lv_coord_t base_line;           /**< Base line measured from the top of the line_height*/
  67:lvgl/src/lv_widgets/../lv_core/../lv_font/lv_font.h ****     uint8_t subpx  : 2;             /**< An element of `lv_font_subpx_t`*/
  68:lvgl/src/lv_widgets/../lv_core/../lv_font/lv_font.h **** 
  69:lvgl/src/lv_widgets/../lv_core/../lv_font/lv_font.h ****     int8_t underline_position;      /**< Distance between the top of the underline and base line (<
  70:lvgl/src/lv_widgets/../lv_core/../lv_font/lv_font.h ****     int8_t underline_thickness;     /**< Thickness of the underline*/
  71:lvgl/src/lv_widgets/../lv_core/../lv_font/lv_font.h **** 
  72:lvgl/src/lv_widgets/../lv_core/../lv_font/lv_font.h ****     void * dsc;                     /**< Store implementation specific or run_time data or caching 
  73:lvgl/src/lv_widgets/../lv_core/../lv_font/lv_font.h **** #if LV_USE_USER_DATA
  74:lvgl/src/lv_widgets/../lv_core/../lv_font/lv_font.h ****     lv_font_user_data_t user_data;  /**< Custom user data for font. */
  75:lvgl/src/lv_widgets/../lv_core/../lv_font/lv_font.h **** #endif
  76:lvgl/src/lv_widgets/../lv_core/../lv_font/lv_font.h **** 
  77:lvgl/src/lv_widgets/../lv_core/../lv_font/lv_font.h **** } lv_font_t;
  78:lvgl/src/lv_widgets/../lv_core/../lv_font/lv_font.h **** 
  79:lvgl/src/lv_widgets/../lv_core/../lv_font/lv_font.h **** /**********************
  80:lvgl/src/lv_widgets/../lv_core/../lv_font/lv_font.h ****  * GLOBAL PROTOTYPES
  81:lvgl/src/lv_widgets/../lv_core/../lv_font/lv_font.h ****  **********************/
  82:lvgl/src/lv_widgets/../lv_core/../lv_font/lv_font.h **** 
  83:lvgl/src/lv_widgets/../lv_core/../lv_font/lv_font.h **** /**
  84:lvgl/src/lv_widgets/../lv_core/../lv_font/lv_font.h ****  * Return with the bitmap of a font.
  85:lvgl/src/lv_widgets/../lv_core/../lv_font/lv_font.h ****  * @param font_p pointer to a font
  86:lvgl/src/lv_widgets/../lv_core/../lv_font/lv_font.h ****  * @param letter an UNICODE character code
  87:lvgl/src/lv_widgets/../lv_core/../lv_font/lv_font.h ****  * @return pointer to the bitmap of the letter
  88:lvgl/src/lv_widgets/../lv_core/../lv_font/lv_font.h ****  */
  89:lvgl/src/lv_widgets/../lv_core/../lv_font/lv_font.h **** const uint8_t * lv_font_get_glyph_bitmap(const lv_font_t * font_p, uint32_t letter);
  90:lvgl/src/lv_widgets/../lv_core/../lv_font/lv_font.h **** 
  91:lvgl/src/lv_widgets/../lv_core/../lv_font/lv_font.h **** /**
  92:lvgl/src/lv_widgets/../lv_core/../lv_font/lv_font.h ****  * Get the descriptor of a glyph
  93:lvgl/src/lv_widgets/../lv_core/../lv_font/lv_font.h ****  * @param font_p pointer to font
  94:lvgl/src/lv_widgets/../lv_core/../lv_font/lv_font.h ****  * @param dsc_out store the result descriptor here
  95:lvgl/src/lv_widgets/../lv_core/../lv_font/lv_font.h ****  * @param letter an UNICODE letter code
  96:lvgl/src/lv_widgets/../lv_core/../lv_font/lv_font.h ****  * @return true: descriptor is successfully loaded into `dsc_out`.
  97:lvgl/src/lv_widgets/../lv_core/../lv_font/lv_font.h ****  *         false: the letter was not found, no data is loaded to `dsc_out`
  98:lvgl/src/lv_widgets/../lv_core/../lv_font/lv_font.h ****  */
  99:lvgl/src/lv_widgets/../lv_core/../lv_font/lv_font.h **** bool lv_font_get_glyph_dsc(const lv_font_t * font_p, lv_font_glyph_dsc_t * dsc_out, uint32_t letter
 100:lvgl/src/lv_widgets/../lv_core/../lv_font/lv_font.h ****                            uint32_t letter_next);
 101:lvgl/src/lv_widgets/../lv_core/../lv_font/lv_font.h **** 
 102:lvgl/src/lv_widgets/../lv_core/../lv_font/lv_font.h **** /**
 103:lvgl/src/lv_widgets/../lv_core/../lv_font/lv_font.h ****  * Get the width of a glyph with kerning
 104:lvgl/src/lv_widgets/../lv_core/../lv_font/lv_font.h ****  * @param font pointer to a font
 105:lvgl/src/lv_widgets/../lv_core/../lv_font/lv_font.h ****  * @param letter an UNICODE letter
 106:lvgl/src/lv_widgets/../lv_core/../lv_font/lv_font.h ****  * @param letter_next the next letter after `letter`. Used for kerning
 107:lvgl/src/lv_widgets/../lv_core/../lv_font/lv_font.h ****  * @return the width of the glyph
 108:lvgl/src/lv_widgets/../lv_core/../lv_font/lv_font.h ****  */
 109:lvgl/src/lv_widgets/../lv_core/../lv_font/lv_font.h **** uint16_t lv_font_get_glyph_width(const lv_font_t * font, uint32_t letter, uint32_t letter_next);
 110:lvgl/src/lv_widgets/../lv_core/../lv_font/lv_font.h **** 
 111:lvgl/src/lv_widgets/../lv_core/../lv_font/lv_font.h **** /**
 112:lvgl/src/lv_widgets/../lv_core/../lv_font/lv_font.h ****  * Get the line height of a font. All characters fit into this height
 113:lvgl/src/lv_widgets/../lv_core/../lv_font/lv_font.h ****  * @param font_p pointer to a font
 114:lvgl/src/lv_widgets/../lv_core/../lv_font/lv_font.h ****  * @return the height of a font
 115:lvgl/src/lv_widgets/../lv_core/../lv_font/lv_font.h ****  */
ARM GAS  D:\Temp\ccnA29ZW.s 			page 30


 116:lvgl/src/lv_widgets/../lv_core/../lv_font/lv_font.h **** static inline lv_coord_t lv_font_get_line_height(const lv_font_t * font_p)
 394              		.loc 3 116 26 view .LVU99
 395              	.LBB104:
 117:lvgl/src/lv_widgets/../lv_core/../lv_font/lv_font.h **** {
 118:lvgl/src/lv_widgets/../lv_core/../lv_font/lv_font.h ****     return font_p->line_height;
 396              		.loc 3 118 5 view .LVU100
 397              		.loc 3 118 18 is_stmt 0 view .LVU101
 398 00a8 B7F90830 		ldrsh	r3, [r7, #8]
 399              	.LVL51:
 400              		.loc 3 118 18 view .LVU102
 401              	.LBE104:
 402              	.LBE103:
 403              		.loc 1 943 52 view .LVU103
 404 00ac 1BFA83FB 		uxtah	fp, fp, r3
 405              	.LVL52:
 406              		.loc 1 943 62 view .LVU104
 407 00b0 1AFA8BFA 		uxtah	r10, r10, fp
 408              	.LVL53:
 409              		.loc 1 943 75 view .LVU105
 410 00b4 19FA8AF9 		uxtah	r9, r9, r10
 411              	.LVL54:
 412              		.loc 1 943 88 view .LVU106
 413 00b8 18FA89F8 		uxtah	r8, r8, r9
 414              	.LVL55:
 415              		.loc 1 943 20 view .LVU107
 416 00bc 0FFA88F8 		sxth	r8, r8
 417              	.LVL56:
 944:lvgl/src/lv_widgets/lv_tabview.c ****             btns_w = lv_obj_get_width(tabview);
 418              		.loc 1 944 13 is_stmt 1 view .LVU108
 419              		.loc 1 944 22 is_stmt 0 view .LVU109
 420 00c0 2046     		mov	r0, r4
 421 00c2 FFF7FEFF 		bl	lv_obj_get_width
 422              	.LVL57:
 423 00c6 0546     		mov	r5, r0
 424              	.LVL58:
 945:lvgl/src/lv_widgets/lv_tabview.c **** 
 946:lvgl/src/lv_widgets/lv_tabview.c ****             break;
 425              		.loc 1 946 13 is_stmt 1 view .LVU110
 426              	.L21:
 947:lvgl/src/lv_widgets/lv_tabview.c ****         case LV_TABVIEW_TAB_POS_LEFT:
 948:lvgl/src/lv_widgets/lv_tabview.c ****         case LV_TABVIEW_TAB_POS_RIGHT:
 949:lvgl/src/lv_widgets/lv_tabview.c ****             lv_obj_set_hidden(ext->btns, false);
 950:lvgl/src/lv_widgets/lv_tabview.c ****             btns_w = lv_font_get_glyph_width(font, 'A', '\0') +
 951:lvgl/src/lv_widgets/lv_tabview.c ****                      tab_left + tab_right + tab_bg_left + tab_bg_right;
 952:lvgl/src/lv_widgets/lv_tabview.c ****             btns_h = lv_obj_get_height(tabview);
 953:lvgl/src/lv_widgets/lv_tabview.c ****             break;
 954:lvgl/src/lv_widgets/lv_tabview.c ****     }
 955:lvgl/src/lv_widgets/lv_tabview.c **** 
 956:lvgl/src/lv_widgets/lv_tabview.c ****     lv_obj_set_size(ext->btns, btns_w, btns_h);
 427              		.loc 1 956 5 view .LVU111
 428 00c8 4246     		mov	r2, r8
 429 00ca 2946     		mov	r1, r5
 430 00cc 3068     		ldr	r0, [r6]
 431 00ce FFF7FEFF 		bl	lv_obj_set_size
 432              	.LVL59:
 957:lvgl/src/lv_widgets/lv_tabview.c **** }
 433              		.loc 1 957 1 is_stmt 0 view .LVU112
ARM GAS  D:\Temp\ccnA29ZW.s 			page 31


 434 00d2 05B0     		add	sp, sp, #20
 435              	.LCFI3:
 436              		.cfi_remember_state
 437              		.cfi_def_cfa_offset 36
 438              		@ sp needed
 439 00d4 BDE8F08F 		pop	{r4, r5, r6, r7, r8, r9, r10, fp, pc}
 440              	.LVL60:
 441              	.L18:
 442              	.LCFI4:
 443              		.cfi_restore_state
 949:lvgl/src/lv_widgets/lv_tabview.c ****             btns_w = lv_font_get_glyph_width(font, 'A', '\0') +
 444              		.loc 1 949 13 is_stmt 1 view .LVU113
 445 00d8 0021     		movs	r1, #0
 446 00da 3068     		ldr	r0, [r6]
 447              	.LVL61:
 949:lvgl/src/lv_widgets/lv_tabview.c ****             btns_w = lv_font_get_glyph_width(font, 'A', '\0') +
 448              		.loc 1 949 13 is_stmt 0 view .LVU114
 449 00dc FFF7FEFF 		bl	lv_obj_set_hidden
 450              	.LVL62:
 950:lvgl/src/lv_widgets/lv_tabview.c ****                      tab_left + tab_right + tab_bg_left + tab_bg_right;
 451              		.loc 1 950 13 is_stmt 1 view .LVU115
 950:lvgl/src/lv_widgets/lv_tabview.c ****                      tab_left + tab_right + tab_bg_left + tab_bg_right;
 452              		.loc 1 950 22 is_stmt 0 view .LVU116
 453 00e0 0022     		movs	r2, #0
 454 00e2 4121     		movs	r1, #65
 455 00e4 3846     		mov	r0, r7
 456 00e6 FFF7FEFF 		bl	lv_font_get_glyph_width
 457              	.LVL63:
 950:lvgl/src/lv_widgets/lv_tabview.c ****                      tab_left + tab_right + tab_bg_left + tab_bg_right;
 458              		.loc 1 950 63 view .LVU117
 459 00ea 0544     		add	r5, r5, r0
 460              	.LVL64:
 951:lvgl/src/lv_widgets/lv_tabview.c ****             btns_h = lv_obj_get_height(tabview);
 461              		.loc 1 951 31 view .LVU118
 462 00ec 019B     		ldr	r3, [sp, #4]
 463 00ee 13FA85F5 		uxtah	r5, r3, r5
 951:lvgl/src/lv_widgets/lv_tabview.c ****             btns_h = lv_obj_get_height(tabview);
 464              		.loc 1 951 43 view .LVU119
 465 00f2 039B     		ldr	r3, [sp, #12]
 466 00f4 13FA85F5 		uxtah	r5, r3, r5
 951:lvgl/src/lv_widgets/lv_tabview.c ****             btns_h = lv_obj_get_height(tabview);
 467              		.loc 1 951 57 view .LVU120
 468 00f8 029B     		ldr	r3, [sp, #8]
 469 00fa 13FA85F5 		uxtah	r5, r3, r5
 950:lvgl/src/lv_widgets/lv_tabview.c ****                      tab_left + tab_right + tab_bg_left + tab_bg_right;
 470              		.loc 1 950 20 view .LVU121
 471 00fe 2DB2     		sxth	r5, r5
 472              	.LVL65:
 952:lvgl/src/lv_widgets/lv_tabview.c ****             break;
 473              		.loc 1 952 13 is_stmt 1 view .LVU122
 952:lvgl/src/lv_widgets/lv_tabview.c ****             break;
 474              		.loc 1 952 22 is_stmt 0 view .LVU123
 475 0100 2046     		mov	r0, r4
 476 0102 FFF7FEFF 		bl	lv_obj_get_height
 477              	.LVL66:
 478 0106 8046     		mov	r8, r0
 479              	.LVL67:
ARM GAS  D:\Temp\ccnA29ZW.s 			page 32


 953:lvgl/src/lv_widgets/lv_tabview.c ****     }
 480              		.loc 1 953 13 is_stmt 1 view .LVU124
 481 0108 DEE7     		b	.L21
 482              		.cfi_endproc
 483              	.LFE508:
 485              		.section	.text.refr_content_size,"ax",%progbits
 486              		.align	1
 487              		.syntax unified
 488              		.thumb
 489              		.thumb_func
 490              		.fpu fpv4-sp-d16
 492              	refr_content_size:
 493              	.LVL68:
 494              	.LFB509:
 958:lvgl/src/lv_widgets/lv_tabview.c **** 
 959:lvgl/src/lv_widgets/lv_tabview.c **** static void refr_content_size(lv_obj_t * tabview)
 960:lvgl/src/lv_widgets/lv_tabview.c **** {
 495              		.loc 1 960 1 view -0
 496              		.cfi_startproc
 497              		@ args = 0, pretend = 0, frame = 0
 498              		@ frame_needed = 0, uses_anonymous_args = 0
 499              		.loc 1 960 1 is_stmt 0 view .LVU126
 500 0000 2DE9F041 		push	{r4, r5, r6, r7, r8, lr}
 501              	.LCFI5:
 502              		.cfi_def_cfa_offset 24
 503              		.cfi_offset 4, -24
 504              		.cfi_offset 5, -20
 505              		.cfi_offset 6, -16
 506              		.cfi_offset 7, -12
 507              		.cfi_offset 8, -8
 508              		.cfi_offset 14, -4
 509 0004 8046     		mov	r8, r0
 961:lvgl/src/lv_widgets/lv_tabview.c ****     lv_tabview_ext_t * ext = lv_obj_get_ext_attr(tabview);
 510              		.loc 1 961 5 is_stmt 1 view .LVU127
 511              		.loc 1 961 30 is_stmt 0 view .LVU128
 512 0006 FFF7FEFF 		bl	lv_obj_get_ext_attr
 513              	.LVL69:
 514              		.loc 1 961 30 view .LVU129
 515 000a 0546     		mov	r5, r0
 516              	.LVL70:
 962:lvgl/src/lv_widgets/lv_tabview.c ****     lv_coord_t cont_w;
 517              		.loc 1 962 5 is_stmt 1 view .LVU130
 963:lvgl/src/lv_widgets/lv_tabview.c ****     lv_coord_t cont_h;
 518              		.loc 1 963 5 view .LVU131
 964:lvgl/src/lv_widgets/lv_tabview.c **** 
 965:lvgl/src/lv_widgets/lv_tabview.c ****     switch(ext->btns_pos) {
 519              		.loc 1 965 5 view .LVU132
 520              		.loc 1 965 15 is_stmt 0 view .LVU133
 521 000c 837E     		ldrb	r3, [r0, #26]	@ zero_extendqisi2
 522 000e 03F00703 		and	r3, r3, #7
 523              		.loc 1 965 5 view .LVU134
 524 0012 013B     		subs	r3, r3, #1
 525 0014 032B     		cmp	r3, #3
 526 0016 03D8     		bhi	.L24
 527 0018 DFE803F0 		tbb	[pc, r3]
 528              	.L26:
 529 001c 0B       		.byte	(.L27-.L26)/2
ARM GAS  D:\Temp\ccnA29ZW.s 			page 33


 530 001d 0B       		.byte	(.L27-.L26)/2
 531 001e 36       		.byte	(.L25-.L26)/2
 532 001f 36       		.byte	(.L25-.L26)/2
 533              		.p2align 1
 534              	.L24:
 966:lvgl/src/lv_widgets/lv_tabview.c ****         default: /*default case is prevented in lv_tabview_set_btns_pos(), but here for safety*/
 967:lvgl/src/lv_widgets/lv_tabview.c ****         case LV_TABVIEW_TAB_POS_NONE:
 968:lvgl/src/lv_widgets/lv_tabview.c ****             cont_w = lv_obj_get_width(tabview);
 535              		.loc 1 968 13 is_stmt 1 view .LVU135
 536              		.loc 1 968 22 is_stmt 0 view .LVU136
 537 0020 4046     		mov	r0, r8
 538              	.LVL71:
 539              		.loc 1 968 22 view .LVU137
 540 0022 FFF7FEFF 		bl	lv_obj_get_width
 541              	.LVL72:
 542 0026 0746     		mov	r7, r0
 543              	.LVL73:
 969:lvgl/src/lv_widgets/lv_tabview.c ****             cont_h = lv_obj_get_height(tabview);
 544              		.loc 1 969 13 is_stmt 1 view .LVU138
 545              		.loc 1 969 22 is_stmt 0 view .LVU139
 546 0028 4046     		mov	r0, r8
 547 002a FFF7FEFF 		bl	lv_obj_get_height
 548              	.LVL74:
 549 002e 0446     		mov	r4, r0
 550              	.LVL75:
 970:lvgl/src/lv_widgets/lv_tabview.c ****             break;
 551              		.loc 1 970 13 is_stmt 1 view .LVU140
 552 0030 0DE0     		b	.L28
 553              	.LVL76:
 554              	.L27:
 971:lvgl/src/lv_widgets/lv_tabview.c ****         case LV_TABVIEW_TAB_POS_TOP:
 972:lvgl/src/lv_widgets/lv_tabview.c ****         case LV_TABVIEW_TAB_POS_BOTTOM:
 973:lvgl/src/lv_widgets/lv_tabview.c ****             cont_w = lv_obj_get_width(tabview);
 555              		.loc 1 973 13 view .LVU141
 556              		.loc 1 973 22 is_stmt 0 view .LVU142
 557 0032 4046     		mov	r0, r8
 558              	.LVL77:
 559              		.loc 1 973 22 view .LVU143
 560 0034 FFF7FEFF 		bl	lv_obj_get_width
 561              	.LVL78:
 562 0038 0746     		mov	r7, r0
 563              	.LVL79:
 974:lvgl/src/lv_widgets/lv_tabview.c ****             cont_h = lv_obj_get_height(tabview) - lv_obj_get_height(ext->btns);
 564              		.loc 1 974 13 is_stmt 1 view .LVU144
 565              		.loc 1 974 22 is_stmt 0 view .LVU145
 566 003a 4046     		mov	r0, r8
 567 003c FFF7FEFF 		bl	lv_obj_get_height
 568              	.LVL80:
 569 0040 84B2     		uxth	r4, r0
 570              		.loc 1 974 51 view .LVU146
 571 0042 2868     		ldr	r0, [r5]
 572 0044 FFF7FEFF 		bl	lv_obj_get_height
 573              	.LVL81:
 574 0048 80B2     		uxth	r0, r0
 575              		.loc 1 974 49 view .LVU147
 576 004a 241A     		subs	r4, r4, r0
 577              		.loc 1 974 20 view .LVU148
ARM GAS  D:\Temp\ccnA29ZW.s 			page 34


 578 004c 24B2     		sxth	r4, r4
 579              	.LVL82:
 975:lvgl/src/lv_widgets/lv_tabview.c ****             break;
 580              		.loc 1 975 13 is_stmt 1 view .LVU149
 581              	.L28:
 976:lvgl/src/lv_widgets/lv_tabview.c ****         case LV_TABVIEW_TAB_POS_LEFT:
 977:lvgl/src/lv_widgets/lv_tabview.c ****         case LV_TABVIEW_TAB_POS_RIGHT:
 978:lvgl/src/lv_widgets/lv_tabview.c ****             cont_w = lv_obj_get_width(tabview) - lv_obj_get_width(ext->btns);
 979:lvgl/src/lv_widgets/lv_tabview.c ****             cont_h = lv_obj_get_height(tabview);
 980:lvgl/src/lv_widgets/lv_tabview.c ****             break;
 981:lvgl/src/lv_widgets/lv_tabview.c ****     }
 982:lvgl/src/lv_widgets/lv_tabview.c **** 
 983:lvgl/src/lv_widgets/lv_tabview.c ****     lv_obj_set_size(ext->content, cont_w, cont_h);
 582              		.loc 1 983 5 view .LVU150
 583 004e 2246     		mov	r2, r4
 584 0050 3946     		mov	r1, r7
 585 0052 A868     		ldr	r0, [r5, #8]
 586 0054 FFF7FEFF 		bl	lv_obj_set_size
 587              	.LVL83:
 984:lvgl/src/lv_widgets/lv_tabview.c **** 
 985:lvgl/src/lv_widgets/lv_tabview.c ****     /*Refresh the size of the tab pages too. `ext->content` has a layout to align the pages*/
 986:lvgl/src/lv_widgets/lv_tabview.c ****     lv_style_int_t bg_top = lv_obj_get_style_pad_top(tabview, LV_TABVIEW_PART_BG_SCROLLABLE);
 588              		.loc 1 986 5 view .LVU151
 589              	.LBB105:
 590              	.LBI105:
 110:lvgl/src/lv_widgets/../lv_core/lv_obj_style_dec.h **** _LV_OBJ_STYLE_SET_GET_DECLARE(PAD_BOTTOM, pad_bottom, lv_style_int_t, _int, scalar)
 591              		.loc 2 110 1 view .LVU152
 592              	.LBB106:
 110:lvgl/src/lv_widgets/../lv_core/lv_obj_style_dec.h **** _LV_OBJ_STYLE_SET_GET_DECLARE(PAD_BOTTOM, pad_bottom, lv_style_int_t, _int, scalar)
 593              		.loc 2 110 1 view .LVU153
 594 0058 1022     		movs	r2, #16
 595 005a 4021     		movs	r1, #64
 596 005c 4046     		mov	r0, r8
 597 005e FFF7FEFF 		bl	_lv_obj_get_style_int
 598              	.LVL84:
 599 0062 0646     		mov	r6, r0
 600              	.LVL85:
 110:lvgl/src/lv_widgets/../lv_core/lv_obj_style_dec.h **** _LV_OBJ_STYLE_SET_GET_DECLARE(PAD_BOTTOM, pad_bottom, lv_style_int_t, _int, scalar)
 601              		.loc 2 110 1 is_stmt 0 view .LVU154
 602              	.LBE106:
 603              	.LBE105:
 987:lvgl/src/lv_widgets/lv_tabview.c ****     lv_style_int_t bg_bottom = lv_obj_get_style_pad_bottom(tabview, LV_TABVIEW_PART_BG_SCROLLABLE);
 604              		.loc 1 987 5 is_stmt 1 view .LVU155
 605              	.LBB107:
 606              	.LBI107:
 111:lvgl/src/lv_widgets/../lv_core/lv_obj_style_dec.h **** _LV_OBJ_STYLE_SET_GET_DECLARE(PAD_LEFT, pad_left, lv_style_int_t, _int, scalar)
 607              		.loc 2 111 1 view .LVU156
 608              	.LBB108:
 111:lvgl/src/lv_widgets/../lv_core/lv_obj_style_dec.h **** _LV_OBJ_STYLE_SET_GET_DECLARE(PAD_LEFT, pad_left, lv_style_int_t, _int, scalar)
 609              		.loc 2 111 1 view .LVU157
 610 0064 1122     		movs	r2, #17
 611 0066 4021     		movs	r1, #64
 612 0068 4046     		mov	r0, r8
 613 006a FFF7FEFF 		bl	_lv_obj_get_style_int
 614              	.LVL86:
 111:lvgl/src/lv_widgets/../lv_core/lv_obj_style_dec.h **** _LV_OBJ_STYLE_SET_GET_DECLARE(PAD_LEFT, pad_left, lv_style_int_t, _int, scalar)
 615              		.loc 2 111 1 is_stmt 0 view .LVU158
ARM GAS  D:\Temp\ccnA29ZW.s 			page 35


 616              	.LBE108:
 617              	.LBE107:
 988:lvgl/src/lv_widgets/lv_tabview.c ****     cont_h -= bg_top + bg_bottom;
 618              		.loc 1 988 5 is_stmt 1 view .LVU159
 619              		.loc 1 988 22 is_stmt 0 view .LVU160
 620 006e 0644     		add	r6, r6, r0
 621              	.LVL87:
 622              		.loc 1 988 22 view .LVU161
 623 0070 B6B2     		uxth	r6, r6
 624              		.loc 1 988 12 view .LVU162
 625 0072 A41B     		subs	r4, r4, r6
 626              	.LVL88:
 627              		.loc 1 988 12 view .LVU163
 628 0074 26B2     		sxth	r6, r4
 629              	.LVL89:
 989:lvgl/src/lv_widgets/lv_tabview.c ****     lv_obj_t * content_scrl = lv_page_get_scrollable(ext->content);
 630              		.loc 1 989 5 is_stmt 1 view .LVU164
 631              		.loc 1 989 31 is_stmt 0 view .LVU165
 632 0076 A868     		ldr	r0, [r5, #8]
 633              	.LVL90:
 634              		.loc 1 989 31 view .LVU166
 635 0078 FFF7FEFF 		bl	lv_page_get_scrollable
 636              	.LVL91:
 637 007c 0546     		mov	r5, r0
 638              	.LVL92:
 990:lvgl/src/lv_widgets/lv_tabview.c ****     lv_obj_t * pages = lv_obj_get_child(content_scrl, NULL);
 639              		.loc 1 990 5 is_stmt 1 view .LVU167
 640              		.loc 1 990 24 is_stmt 0 view .LVU168
 641 007e 0021     		movs	r1, #0
 642 0080 FFF7FEFF 		bl	lv_obj_get_child
 643              	.LVL93:
 644              		.loc 1 990 24 view .LVU169
 645 0084 0446     		mov	r4, r0
 646              	.LVL94:
 991:lvgl/src/lv_widgets/lv_tabview.c ****     while(pages != NULL) {
 647              		.loc 1 991 5 is_stmt 1 view .LVU170
 648              		.loc 1 991 10 is_stmt 0 view .LVU171
 649 0086 13E0     		b	.L29
 650              	.LVL95:
 651              	.L25:
 978:lvgl/src/lv_widgets/lv_tabview.c ****             cont_h = lv_obj_get_height(tabview);
 652              		.loc 1 978 13 is_stmt 1 view .LVU172
 978:lvgl/src/lv_widgets/lv_tabview.c ****             cont_h = lv_obj_get_height(tabview);
 653              		.loc 1 978 22 is_stmt 0 view .LVU173
 654 0088 4046     		mov	r0, r8
 655              	.LVL96:
 978:lvgl/src/lv_widgets/lv_tabview.c ****             cont_h = lv_obj_get_height(tabview);
 656              		.loc 1 978 22 view .LVU174
 657 008a FFF7FEFF 		bl	lv_obj_get_width
 658              	.LVL97:
 659 008e 87B2     		uxth	r7, r0
 978:lvgl/src/lv_widgets/lv_tabview.c ****             cont_h = lv_obj_get_height(tabview);
 660              		.loc 1 978 50 view .LVU175
 661 0090 2868     		ldr	r0, [r5]
 662 0092 FFF7FEFF 		bl	lv_obj_get_width
 663              	.LVL98:
 664 0096 80B2     		uxth	r0, r0
ARM GAS  D:\Temp\ccnA29ZW.s 			page 36


 978:lvgl/src/lv_widgets/lv_tabview.c ****             cont_h = lv_obj_get_height(tabview);
 665              		.loc 1 978 48 view .LVU176
 666 0098 3F1A     		subs	r7, r7, r0
 978:lvgl/src/lv_widgets/lv_tabview.c ****             cont_h = lv_obj_get_height(tabview);
 667              		.loc 1 978 20 view .LVU177
 668 009a 3FB2     		sxth	r7, r7
 669              	.LVL99:
 979:lvgl/src/lv_widgets/lv_tabview.c ****             break;
 670              		.loc 1 979 13 is_stmt 1 view .LVU178
 979:lvgl/src/lv_widgets/lv_tabview.c ****             break;
 671              		.loc 1 979 22 is_stmt 0 view .LVU179
 672 009c 4046     		mov	r0, r8
 673 009e FFF7FEFF 		bl	lv_obj_get_height
 674              	.LVL100:
 675 00a2 0446     		mov	r4, r0
 676              	.LVL101:
 980:lvgl/src/lv_widgets/lv_tabview.c ****     }
 677              		.loc 1 980 13 is_stmt 1 view .LVU180
 678 00a4 D3E7     		b	.L28
 679              	.LVL102:
 680              	.L30:
 992:lvgl/src/lv_widgets/lv_tabview.c ****         /*Be sure adjust only the pages (user can other things)*/
 993:lvgl/src/lv_widgets/lv_tabview.c ****         if(lv_obj_get_signal_cb(pages) == page_signal) {
 994:lvgl/src/lv_widgets/lv_tabview.c ****             lv_obj_set_size(pages, cont_w, cont_h);
 995:lvgl/src/lv_widgets/lv_tabview.c ****         }
 996:lvgl/src/lv_widgets/lv_tabview.c ****         pages = lv_obj_get_child(content_scrl, pages);
 681              		.loc 1 996 9 view .LVU181
 682              		.loc 1 996 17 is_stmt 0 view .LVU182
 683 00a6 2146     		mov	r1, r4
 684 00a8 2846     		mov	r0, r5
 685 00aa FFF7FEFF 		bl	lv_obj_get_child
 686              	.LVL103:
 687 00ae 0446     		mov	r4, r0
 688              	.LVL104:
 689              	.L29:
 991:lvgl/src/lv_widgets/lv_tabview.c ****         /*Be sure adjust only the pages (user can other things)*/
 690              		.loc 1 991 10 view .LVU183
 691 00b0 64B1     		cbz	r4, .L33
 993:lvgl/src/lv_widgets/lv_tabview.c ****             lv_obj_set_size(pages, cont_w, cont_h);
 692              		.loc 1 993 9 is_stmt 1 view .LVU184
 993:lvgl/src/lv_widgets/lv_tabview.c ****             lv_obj_set_size(pages, cont_w, cont_h);
 693              		.loc 1 993 12 is_stmt 0 view .LVU185
 694 00b2 2046     		mov	r0, r4
 993:lvgl/src/lv_widgets/lv_tabview.c ****             lv_obj_set_size(pages, cont_w, cont_h);
 695              		.loc 1 993 12 view .LVU186
 696 00b4 FFF7FEFF 		bl	lv_obj_get_signal_cb
 697              	.LVL105:
 993:lvgl/src/lv_widgets/lv_tabview.c ****             lv_obj_set_size(pages, cont_w, cont_h);
 698              		.loc 1 993 40 view .LVU187
 699 00b8 054B     		ldr	r3, .L34
 700 00ba 1B68     		ldr	r3, [r3]
 993:lvgl/src/lv_widgets/lv_tabview.c ****             lv_obj_set_size(pages, cont_w, cont_h);
 701              		.loc 1 993 11 view .LVU188
 702 00bc 8342     		cmp	r3, r0
 703 00be F2D1     		bne	.L30
 994:lvgl/src/lv_widgets/lv_tabview.c ****         }
 704              		.loc 1 994 13 is_stmt 1 view .LVU189
ARM GAS  D:\Temp\ccnA29ZW.s 			page 37


 705 00c0 3246     		mov	r2, r6
 706 00c2 3946     		mov	r1, r7
 707 00c4 2046     		mov	r0, r4
 708 00c6 FFF7FEFF 		bl	lv_obj_set_size
 709              	.LVL106:
 710 00ca ECE7     		b	.L30
 711              	.LVL107:
 712              	.L33:
 997:lvgl/src/lv_widgets/lv_tabview.c ****     }
 998:lvgl/src/lv_widgets/lv_tabview.c **** }
 713              		.loc 1 998 1 is_stmt 0 view .LVU190
 714 00cc BDE8F081 		pop	{r4, r5, r6, r7, r8, pc}
 715              	.LVL108:
 716              	.L35:
 717              		.loc 1 998 1 view .LVU191
 718              		.align	2
 719              	.L34:
 720 00d0 00000000 		.word	.LANCHOR0
 721              		.cfi_endproc
 722              	.LFE509:
 724              		.section	.text.refr_indic_size,"ax",%progbits
 725              		.align	1
 726              		.syntax unified
 727              		.thumb
 728              		.thumb_func
 729              		.fpu fpv4-sp-d16
 731              	refr_indic_size:
 732              	.LVL109:
 733              	.LFB507:
 866:lvgl/src/lv_widgets/lv_tabview.c ****     lv_tabview_ext_t * ext = lv_obj_get_ext_attr(tabview);
 734              		.loc 1 866 1 is_stmt 1 view -0
 735              		.cfi_startproc
 736              		@ args = 0, pretend = 0, frame = 0
 737              		@ frame_needed = 0, uses_anonymous_args = 0
 866:lvgl/src/lv_widgets/lv_tabview.c ****     lv_tabview_ext_t * ext = lv_obj_get_ext_attr(tabview);
 738              		.loc 1 866 1 is_stmt 0 view .LVU193
 739 0000 F8B5     		push	{r3, r4, r5, r6, r7, lr}
 740              	.LCFI6:
 741              		.cfi_def_cfa_offset 24
 742              		.cfi_offset 3, -24
 743              		.cfi_offset 4, -20
 744              		.cfi_offset 5, -16
 745              		.cfi_offset 6, -12
 746              		.cfi_offset 7, -8
 747              		.cfi_offset 14, -4
 748 0002 0546     		mov	r5, r0
 867:lvgl/src/lv_widgets/lv_tabview.c ****     lv_btnmatrix_ext_t * btnm_ext = lv_obj_get_ext_attr(ext->btns);
 749              		.loc 1 867 5 is_stmt 1 view .LVU194
 867:lvgl/src/lv_widgets/lv_tabview.c ****     lv_btnmatrix_ext_t * btnm_ext = lv_obj_get_ext_attr(ext->btns);
 750              		.loc 1 867 30 is_stmt 0 view .LVU195
 751 0004 FFF7FEFF 		bl	lv_obj_get_ext_attr
 752              	.LVL110:
 867:lvgl/src/lv_widgets/lv_tabview.c ****     lv_btnmatrix_ext_t * btnm_ext = lv_obj_get_ext_attr(ext->btns);
 753              		.loc 1 867 30 view .LVU196
 754 0008 0446     		mov	r4, r0
 755              	.LVL111:
 868:lvgl/src/lv_widgets/lv_tabview.c **** 
ARM GAS  D:\Temp\ccnA29ZW.s 			page 38


 756              		.loc 1 868 5 is_stmt 1 view .LVU197
 868:lvgl/src/lv_widgets/lv_tabview.c **** 
 757              		.loc 1 868 37 is_stmt 0 view .LVU198
 758 000a 0068     		ldr	r0, [r0]
 759              	.LVL112:
 868:lvgl/src/lv_widgets/lv_tabview.c **** 
 760              		.loc 1 868 37 view .LVU199
 761 000c FFF7FEFF 		bl	lv_obj_get_ext_attr
 762              	.LVL113:
 763 0010 0746     		mov	r7, r0
 764              	.LVL114:
 870:lvgl/src/lv_widgets/lv_tabview.c **** 
 765              		.loc 1 870 5 is_stmt 1 view .LVU200
 766              	.LBB109:
 767              	.LBI109:
 104:lvgl/src/lv_widgets/../lv_core/lv_obj_style_dec.h **** _LV_OBJ_STYLE_SET_GET_DECLARE(TRANSFORM_WIDTH, transform_width, lv_style_int_t, _int, scalar)
 768              		.loc 2 104 1 view .LVU201
 769              	.LBB110:
 104:lvgl/src/lv_widgets/../lv_core/lv_obj_style_dec.h **** _LV_OBJ_STYLE_SET_GET_DECLARE(TRANSFORM_WIDTH, transform_width, lv_style_int_t, _int, scalar)
 770              		.loc 2 104 1 view .LVU202
 771 0012 0322     		movs	r2, #3
 772 0014 4321     		movs	r1, #67
 773 0016 2846     		mov	r0, r5
 774              	.LVL115:
 104:lvgl/src/lv_widgets/../lv_core/lv_obj_style_dec.h **** _LV_OBJ_STYLE_SET_GET_DECLARE(TRANSFORM_WIDTH, transform_width, lv_style_int_t, _int, scalar)
 775              		.loc 2 104 1 is_stmt 0 view .LVU203
 776 0018 FFF7FEFF 		bl	_lv_obj_get_style_int
 777              	.LVL116:
 778 001c 0646     		mov	r6, r0
 779              	.LVL117:
 104:lvgl/src/lv_widgets/../lv_core/lv_obj_style_dec.h **** _LV_OBJ_STYLE_SET_GET_DECLARE(TRANSFORM_WIDTH, transform_width, lv_style_int_t, _int, scalar)
 780              		.loc 2 104 1 view .LVU204
 781              	.LBE110:
 782              	.LBE109:
 873:lvgl/src/lv_widgets/lv_tabview.c ****     lv_coord_t indic_h;
 783              		.loc 1 873 5 is_stmt 1 view .LVU205
 874:lvgl/src/lv_widgets/lv_tabview.c **** 
 784              		.loc 1 874 5 view .LVU206
 876:lvgl/src/lv_widgets/lv_tabview.c ****         default: /*default case is prevented in lv_tabview_set_btns_pos(), but here for safety*/
 785              		.loc 1 876 5 view .LVU207
 876:lvgl/src/lv_widgets/lv_tabview.c ****         default: /*default case is prevented in lv_tabview_set_btns_pos(), but here for safety*/
 786              		.loc 1 876 15 is_stmt 0 view .LVU208
 787 001e A37E     		ldrb	r3, [r4, #26]	@ zero_extendqisi2
 788 0020 03F00703 		and	r3, r3, #7
 876:lvgl/src/lv_widgets/lv_tabview.c ****         default: /*default case is prevented in lv_tabview_set_btns_pos(), but here for safety*/
 789              		.loc 1 876 5 view .LVU209
 790 0024 013B     		subs	r3, r3, #1
 791 0026 032B     		cmp	r3, #3
 792 0028 03D8     		bhi	.L37
 793 002a DFE803F0 		tbb	[pc, r3]
 794              	.L39:
 795 002e 09       		.byte	(.L40-.L39)/2
 796 002f 09       		.byte	(.L40-.L39)/2
 797 0030 20       		.byte	(.L38-.L39)/2
 798 0031 20       		.byte	(.L38-.L39)/2
 799              		.p2align 1
 800              	.L37:
ARM GAS  D:\Temp\ccnA29ZW.s 			page 39


 879:lvgl/src/lv_widgets/lv_tabview.c ****             indic_w = 0;
 801              		.loc 1 879 13 is_stmt 1 view .LVU210
 802 0032 0121     		movs	r1, #1
 803 0034 6068     		ldr	r0, [r4, #4]
 804 0036 FFF7FEFF 		bl	lv_obj_set_hidden
 805              	.LVL118:
 880:lvgl/src/lv_widgets/lv_tabview.c ****             indic_h = 0;
 806              		.loc 1 880 13 view .LVU211
 881:lvgl/src/lv_widgets/lv_tabview.c ****             break;
 807              		.loc 1 881 13 view .LVU212
 882:lvgl/src/lv_widgets/lv_tabview.c ****         case LV_TABVIEW_TAB_POS_TOP:
 808              		.loc 1 882 13 view .LVU213
 881:lvgl/src/lv_widgets/lv_tabview.c ****             break;
 809              		.loc 1 881 21 is_stmt 0 view .LVU214
 810 003a 0025     		movs	r5, #0
 811              	.LVL119:
 880:lvgl/src/lv_widgets/lv_tabview.c ****             indic_h = 0;
 812              		.loc 1 880 21 view .LVU215
 813 003c 2E46     		mov	r6, r5
 814              	.LVL120:
 882:lvgl/src/lv_widgets/lv_tabview.c ****         case LV_TABVIEW_TAB_POS_TOP:
 815              		.loc 1 882 13 view .LVU216
 816 003e 0DE0     		b	.L41
 817              	.LVL121:
 818              	.L40:
 885:lvgl/src/lv_widgets/lv_tabview.c ****             if(ext->tab_cnt) {
 819              		.loc 1 885 13 is_stmt 1 view .LVU217
 820 0040 0021     		movs	r1, #0
 821 0042 6068     		ldr	r0, [r4, #4]
 822 0044 FFF7FEFF 		bl	lv_obj_set_hidden
 823              	.LVL122:
 886:lvgl/src/lv_widgets/lv_tabview.c ****                 indic_h = indic_size;
 824              		.loc 1 886 13 view .LVU218
 886:lvgl/src/lv_widgets/lv_tabview.c ****                 indic_h = indic_size;
 825              		.loc 1 886 19 is_stmt 0 view .LVU219
 826 0048 E38A     		ldrh	r3, [r4, #22]
 886:lvgl/src/lv_widgets/lv_tabview.c ****                 indic_h = indic_size;
 827              		.loc 1 886 15 view .LVU220
 828 004a F3B1     		cbz	r3, .L42
 887:lvgl/src/lv_widgets/lv_tabview.c ****                 indic_w = lv_area_get_width(&btnm_ext->button_areas[0]);
 829              		.loc 1 887 17 is_stmt 1 view .LVU221
 830              	.LVL123:
 888:lvgl/src/lv_widgets/lv_tabview.c ****             }
 831              		.loc 1 888 17 view .LVU222
 888:lvgl/src/lv_widgets/lv_tabview.c ****             }
 832              		.loc 1 888 45 is_stmt 0 view .LVU223
 833 004c 7A68     		ldr	r2, [r7, #4]
 834              	.LVL124:
 835              	.LBB111:
 836              	.LBI111:
 837              		.file 4 "d:\\_project\\stm32\\f407\\hack_rf_new\\lvgl\\src\\lv_misc\\lv_area.h"
   1:d:\_project\stm32\f407\hack_rf_new\lvgl\src\lv_misc\lv_area.h **** /**
   2:d:\_project\stm32\f407\hack_rf_new\lvgl\src\lv_misc\lv_area.h ****  * @file lv_area.h
   3:d:\_project\stm32\f407\hack_rf_new\lvgl\src\lv_misc\lv_area.h ****  *
   4:d:\_project\stm32\f407\hack_rf_new\lvgl\src\lv_misc\lv_area.h ****  */
   5:d:\_project\stm32\f407\hack_rf_new\lvgl\src\lv_misc\lv_area.h **** 
   6:d:\_project\stm32\f407\hack_rf_new\lvgl\src\lv_misc\lv_area.h **** #ifndef LV_AREA_H
ARM GAS  D:\Temp\ccnA29ZW.s 			page 40


   7:d:\_project\stm32\f407\hack_rf_new\lvgl\src\lv_misc\lv_area.h **** #define LV_AREA_H
   8:d:\_project\stm32\f407\hack_rf_new\lvgl\src\lv_misc\lv_area.h **** 
   9:d:\_project\stm32\f407\hack_rf_new\lvgl\src\lv_misc\lv_area.h **** #ifdef __cplusplus
  10:d:\_project\stm32\f407\hack_rf_new\lvgl\src\lv_misc\lv_area.h **** extern "C" {
  11:d:\_project\stm32\f407\hack_rf_new\lvgl\src\lv_misc\lv_area.h **** #endif
  12:d:\_project\stm32\f407\hack_rf_new\lvgl\src\lv_misc\lv_area.h **** 
  13:d:\_project\stm32\f407\hack_rf_new\lvgl\src\lv_misc\lv_area.h **** /*********************
  14:d:\_project\stm32\f407\hack_rf_new\lvgl\src\lv_misc\lv_area.h ****  *      INCLUDES
  15:d:\_project\stm32\f407\hack_rf_new\lvgl\src\lv_misc\lv_area.h ****  *********************/
  16:d:\_project\stm32\f407\hack_rf_new\lvgl\src\lv_misc\lv_area.h **** #include "../lv_conf_internal.h"
  17:d:\_project\stm32\f407\hack_rf_new\lvgl\src\lv_misc\lv_area.h **** #include <string.h>
  18:d:\_project\stm32\f407\hack_rf_new\lvgl\src\lv_misc\lv_area.h **** #include <stdbool.h>
  19:d:\_project\stm32\f407\hack_rf_new\lvgl\src\lv_misc\lv_area.h **** #include <stdint.h>
  20:d:\_project\stm32\f407\hack_rf_new\lvgl\src\lv_misc\lv_area.h **** #include "lv_mem.h"
  21:d:\_project\stm32\f407\hack_rf_new\lvgl\src\lv_misc\lv_area.h **** 
  22:d:\_project\stm32\f407\hack_rf_new\lvgl\src\lv_misc\lv_area.h **** /*********************
  23:d:\_project\stm32\f407\hack_rf_new\lvgl\src\lv_misc\lv_area.h ****  *      DEFINES
  24:d:\_project\stm32\f407\hack_rf_new\lvgl\src\lv_misc\lv_area.h ****  *********************/
  25:d:\_project\stm32\f407\hack_rf_new\lvgl\src\lv_misc\lv_area.h **** /*To avoid overflow don't let the max ranges (reduce with 1000) */
  26:d:\_project\stm32\f407\hack_rf_new\lvgl\src\lv_misc\lv_area.h **** #define LV_COORD_MAX ((lv_coord_t)((uint32_t)((uint32_t)1 << (8 * sizeof(lv_coord_t) - 1)) - 1000))
  27:d:\_project\stm32\f407\hack_rf_new\lvgl\src\lv_misc\lv_area.h **** #define LV_COORD_MIN (-LV_COORD_MAX)
  28:d:\_project\stm32\f407\hack_rf_new\lvgl\src\lv_misc\lv_area.h **** 
  29:d:\_project\stm32\f407\hack_rf_new\lvgl\src\lv_misc\lv_area.h **** LV_EXPORT_CONST_INT(LV_COORD_MAX);
  30:d:\_project\stm32\f407\hack_rf_new\lvgl\src\lv_misc\lv_area.h **** LV_EXPORT_CONST_INT(LV_COORD_MIN);
  31:d:\_project\stm32\f407\hack_rf_new\lvgl\src\lv_misc\lv_area.h **** 
  32:d:\_project\stm32\f407\hack_rf_new\lvgl\src\lv_misc\lv_area.h **** /**********************
  33:d:\_project\stm32\f407\hack_rf_new\lvgl\src\lv_misc\lv_area.h ****  *      TYPEDEFS
  34:d:\_project\stm32\f407\hack_rf_new\lvgl\src\lv_misc\lv_area.h ****  **********************/
  35:d:\_project\stm32\f407\hack_rf_new\lvgl\src\lv_misc\lv_area.h **** 
  36:d:\_project\stm32\f407\hack_rf_new\lvgl\src\lv_misc\lv_area.h **** /**
  37:d:\_project\stm32\f407\hack_rf_new\lvgl\src\lv_misc\lv_area.h ****  * Represents a point on the screen.
  38:d:\_project\stm32\f407\hack_rf_new\lvgl\src\lv_misc\lv_area.h ****  */
  39:d:\_project\stm32\f407\hack_rf_new\lvgl\src\lv_misc\lv_area.h **** typedef struct {
  40:d:\_project\stm32\f407\hack_rf_new\lvgl\src\lv_misc\lv_area.h ****     lv_coord_t x;
  41:d:\_project\stm32\f407\hack_rf_new\lvgl\src\lv_misc\lv_area.h ****     lv_coord_t y;
  42:d:\_project\stm32\f407\hack_rf_new\lvgl\src\lv_misc\lv_area.h **** } lv_point_t;
  43:d:\_project\stm32\f407\hack_rf_new\lvgl\src\lv_misc\lv_area.h **** 
  44:d:\_project\stm32\f407\hack_rf_new\lvgl\src\lv_misc\lv_area.h **** /** Represents an area of the screen. */
  45:d:\_project\stm32\f407\hack_rf_new\lvgl\src\lv_misc\lv_area.h **** typedef struct {
  46:d:\_project\stm32\f407\hack_rf_new\lvgl\src\lv_misc\lv_area.h ****     lv_coord_t x1;
  47:d:\_project\stm32\f407\hack_rf_new\lvgl\src\lv_misc\lv_area.h ****     lv_coord_t y1;
  48:d:\_project\stm32\f407\hack_rf_new\lvgl\src\lv_misc\lv_area.h ****     lv_coord_t x2;
  49:d:\_project\stm32\f407\hack_rf_new\lvgl\src\lv_misc\lv_area.h ****     lv_coord_t y2;
  50:d:\_project\stm32\f407\hack_rf_new\lvgl\src\lv_misc\lv_area.h **** } lv_area_t;
  51:d:\_project\stm32\f407\hack_rf_new\lvgl\src\lv_misc\lv_area.h **** 
  52:d:\_project\stm32\f407\hack_rf_new\lvgl\src\lv_misc\lv_area.h **** /** Alignments */
  53:d:\_project\stm32\f407\hack_rf_new\lvgl\src\lv_misc\lv_area.h **** enum {
  54:d:\_project\stm32\f407\hack_rf_new\lvgl\src\lv_misc\lv_area.h ****     LV_ALIGN_CENTER = 0,
  55:d:\_project\stm32\f407\hack_rf_new\lvgl\src\lv_misc\lv_area.h ****     LV_ALIGN_IN_TOP_LEFT,
  56:d:\_project\stm32\f407\hack_rf_new\lvgl\src\lv_misc\lv_area.h ****     LV_ALIGN_IN_TOP_MID,
  57:d:\_project\stm32\f407\hack_rf_new\lvgl\src\lv_misc\lv_area.h ****     LV_ALIGN_IN_TOP_RIGHT,
  58:d:\_project\stm32\f407\hack_rf_new\lvgl\src\lv_misc\lv_area.h ****     LV_ALIGN_IN_BOTTOM_LEFT,
  59:d:\_project\stm32\f407\hack_rf_new\lvgl\src\lv_misc\lv_area.h ****     LV_ALIGN_IN_BOTTOM_MID,
  60:d:\_project\stm32\f407\hack_rf_new\lvgl\src\lv_misc\lv_area.h ****     LV_ALIGN_IN_BOTTOM_RIGHT,
  61:d:\_project\stm32\f407\hack_rf_new\lvgl\src\lv_misc\lv_area.h ****     LV_ALIGN_IN_LEFT_MID,
  62:d:\_project\stm32\f407\hack_rf_new\lvgl\src\lv_misc\lv_area.h ****     LV_ALIGN_IN_RIGHT_MID,
  63:d:\_project\stm32\f407\hack_rf_new\lvgl\src\lv_misc\lv_area.h ****     LV_ALIGN_OUT_TOP_LEFT,
ARM GAS  D:\Temp\ccnA29ZW.s 			page 41


  64:d:\_project\stm32\f407\hack_rf_new\lvgl\src\lv_misc\lv_area.h ****     LV_ALIGN_OUT_TOP_MID,
  65:d:\_project\stm32\f407\hack_rf_new\lvgl\src\lv_misc\lv_area.h ****     LV_ALIGN_OUT_TOP_RIGHT,
  66:d:\_project\stm32\f407\hack_rf_new\lvgl\src\lv_misc\lv_area.h ****     LV_ALIGN_OUT_BOTTOM_LEFT,
  67:d:\_project\stm32\f407\hack_rf_new\lvgl\src\lv_misc\lv_area.h ****     LV_ALIGN_OUT_BOTTOM_MID,
  68:d:\_project\stm32\f407\hack_rf_new\lvgl\src\lv_misc\lv_area.h ****     LV_ALIGN_OUT_BOTTOM_RIGHT,
  69:d:\_project\stm32\f407\hack_rf_new\lvgl\src\lv_misc\lv_area.h ****     LV_ALIGN_OUT_LEFT_TOP,
  70:d:\_project\stm32\f407\hack_rf_new\lvgl\src\lv_misc\lv_area.h ****     LV_ALIGN_OUT_LEFT_MID,
  71:d:\_project\stm32\f407\hack_rf_new\lvgl\src\lv_misc\lv_area.h ****     LV_ALIGN_OUT_LEFT_BOTTOM,
  72:d:\_project\stm32\f407\hack_rf_new\lvgl\src\lv_misc\lv_area.h ****     LV_ALIGN_OUT_RIGHT_TOP,
  73:d:\_project\stm32\f407\hack_rf_new\lvgl\src\lv_misc\lv_area.h ****     LV_ALIGN_OUT_RIGHT_MID,
  74:d:\_project\stm32\f407\hack_rf_new\lvgl\src\lv_misc\lv_area.h ****     LV_ALIGN_OUT_RIGHT_BOTTOM,
  75:d:\_project\stm32\f407\hack_rf_new\lvgl\src\lv_misc\lv_area.h **** };
  76:d:\_project\stm32\f407\hack_rf_new\lvgl\src\lv_misc\lv_area.h **** typedef uint8_t lv_align_t;
  77:d:\_project\stm32\f407\hack_rf_new\lvgl\src\lv_misc\lv_area.h **** 
  78:d:\_project\stm32\f407\hack_rf_new\lvgl\src\lv_misc\lv_area.h **** /**********************
  79:d:\_project\stm32\f407\hack_rf_new\lvgl\src\lv_misc\lv_area.h ****  * GLOBAL PROTOTYPES
  80:d:\_project\stm32\f407\hack_rf_new\lvgl\src\lv_misc\lv_area.h ****  **********************/
  81:d:\_project\stm32\f407\hack_rf_new\lvgl\src\lv_misc\lv_area.h **** 
  82:d:\_project\stm32\f407\hack_rf_new\lvgl\src\lv_misc\lv_area.h **** /**
  83:d:\_project\stm32\f407\hack_rf_new\lvgl\src\lv_misc\lv_area.h ****  * Initialize an area
  84:d:\_project\stm32\f407\hack_rf_new\lvgl\src\lv_misc\lv_area.h ****  * @param area_p pointer to an area
  85:d:\_project\stm32\f407\hack_rf_new\lvgl\src\lv_misc\lv_area.h ****  * @param x1 left coordinate of the area
  86:d:\_project\stm32\f407\hack_rf_new\lvgl\src\lv_misc\lv_area.h ****  * @param y1 top coordinate of the area
  87:d:\_project\stm32\f407\hack_rf_new\lvgl\src\lv_misc\lv_area.h ****  * @param x2 right coordinate of the area
  88:d:\_project\stm32\f407\hack_rf_new\lvgl\src\lv_misc\lv_area.h ****  * @param y2 bottom coordinate of the area
  89:d:\_project\stm32\f407\hack_rf_new\lvgl\src\lv_misc\lv_area.h ****  */
  90:d:\_project\stm32\f407\hack_rf_new\lvgl\src\lv_misc\lv_area.h **** void lv_area_set(lv_area_t * area_p, lv_coord_t x1, lv_coord_t y1, lv_coord_t x2, lv_coord_t y2);
  91:d:\_project\stm32\f407\hack_rf_new\lvgl\src\lv_misc\lv_area.h **** 
  92:d:\_project\stm32\f407\hack_rf_new\lvgl\src\lv_misc\lv_area.h **** /**
  93:d:\_project\stm32\f407\hack_rf_new\lvgl\src\lv_misc\lv_area.h ****  * Copy an area
  94:d:\_project\stm32\f407\hack_rf_new\lvgl\src\lv_misc\lv_area.h ****  * @param dest pointer to the destination area
  95:d:\_project\stm32\f407\hack_rf_new\lvgl\src\lv_misc\lv_area.h ****  * @param src pointer to the source area
  96:d:\_project\stm32\f407\hack_rf_new\lvgl\src\lv_misc\lv_area.h ****  */
  97:d:\_project\stm32\f407\hack_rf_new\lvgl\src\lv_misc\lv_area.h **** inline static void lv_area_copy(lv_area_t * dest, const lv_area_t * src)
  98:d:\_project\stm32\f407\hack_rf_new\lvgl\src\lv_misc\lv_area.h **** {
  99:d:\_project\stm32\f407\hack_rf_new\lvgl\src\lv_misc\lv_area.h ****     _lv_memcpy_small(dest, src, sizeof(lv_area_t));
 100:d:\_project\stm32\f407\hack_rf_new\lvgl\src\lv_misc\lv_area.h **** }
 101:d:\_project\stm32\f407\hack_rf_new\lvgl\src\lv_misc\lv_area.h **** 
 102:d:\_project\stm32\f407\hack_rf_new\lvgl\src\lv_misc\lv_area.h **** /**
 103:d:\_project\stm32\f407\hack_rf_new\lvgl\src\lv_misc\lv_area.h ****  * Get the width of an area
 104:d:\_project\stm32\f407\hack_rf_new\lvgl\src\lv_misc\lv_area.h ****  * @param area_p pointer to an area
 105:d:\_project\stm32\f407\hack_rf_new\lvgl\src\lv_misc\lv_area.h ****  * @return the width of the area (if x1 == x2 -> width = 1)
 106:d:\_project\stm32\f407\hack_rf_new\lvgl\src\lv_misc\lv_area.h ****  */
 107:d:\_project\stm32\f407\hack_rf_new\lvgl\src\lv_misc\lv_area.h **** static inline lv_coord_t lv_area_get_width(const lv_area_t * area_p)
 838              		.loc 4 107 26 is_stmt 1 view .LVU224
 839              	.LBB112:
 108:d:\_project\stm32\f407\hack_rf_new\lvgl\src\lv_misc\lv_area.h **** {
 109:d:\_project\stm32\f407\hack_rf_new\lvgl\src\lv_misc\lv_area.h ****     return (lv_coord_t)(area_p->x2 - area_p->x1 + 1);
 840              		.loc 4 109 5 view .LVU225
 841              		.loc 4 109 31 is_stmt 0 view .LVU226
 842 004e 9388     		ldrh	r3, [r2, #4]
 843              		.loc 4 109 44 view .LVU227
 844 0050 1288     		ldrh	r2, [r2]
 845              	.LVL125:
 846              		.loc 4 109 36 view .LVU228
 847 0052 9B1A     		subs	r3, r3, r2
 848 0054 9BB2     		uxth	r3, r3
ARM GAS  D:\Temp\ccnA29ZW.s 			page 42


 849              		.loc 4 109 49 view .LVU229
 850 0056 0133     		adds	r3, r3, #1
 851              	.LVL126:
 852              		.loc 4 109 49 view .LVU230
 853              	.LBE112:
 854              	.LBE111:
 887:lvgl/src/lv_widgets/lv_tabview.c ****                 indic_w = lv_area_get_width(&btnm_ext->button_areas[0]);
 855              		.loc 1 887 25 view .LVU231
 856 0058 3546     		mov	r5, r6
 857              	.LVL127:
 888:lvgl/src/lv_widgets/lv_tabview.c ****             }
 858              		.loc 1 888 27 view .LVU232
 859 005a 1EB2     		sxth	r6, r3
 860              	.LVL128:
 861              	.L41:
 909:lvgl/src/lv_widgets/lv_tabview.c ****     lv_obj_set_height(ext->indic, indic_h);
 862              		.loc 1 909 5 is_stmt 1 view .LVU233
 863 005c 3146     		mov	r1, r6
 864 005e 6068     		ldr	r0, [r4, #4]
 865 0060 FFF7FEFF 		bl	lv_obj_set_width
 866              	.LVL129:
 910:lvgl/src/lv_widgets/lv_tabview.c **** }
 867              		.loc 1 910 5 view .LVU234
 868 0064 2946     		mov	r1, r5
 869 0066 6068     		ldr	r0, [r4, #4]
 870 0068 FFF7FEFF 		bl	lv_obj_set_height
 871              	.LVL130:
 911:lvgl/src/lv_widgets/lv_tabview.c **** 
 872              		.loc 1 911 1 is_stmt 0 view .LVU235
 873 006c F8BD     		pop	{r3, r4, r5, r6, r7, pc}
 874              	.LVL131:
 875              	.L38:
 897:lvgl/src/lv_widgets/lv_tabview.c ****             if(ext->tab_cnt) {
 876              		.loc 1 897 13 is_stmt 1 view .LVU236
 877 006e 0021     		movs	r1, #0
 878 0070 6068     		ldr	r0, [r4, #4]
 879 0072 FFF7FEFF 		bl	lv_obj_set_hidden
 880              	.LVL132:
 898:lvgl/src/lv_widgets/lv_tabview.c ****                 indic_w = indic_size;
 881              		.loc 1 898 13 view .LVU237
 898:lvgl/src/lv_widgets/lv_tabview.c ****                 indic_w = indic_size;
 882              		.loc 1 898 19 is_stmt 0 view .LVU238
 883 0076 E38A     		ldrh	r3, [r4, #22]
 898:lvgl/src/lv_widgets/lv_tabview.c ****                 indic_w = indic_size;
 884              		.loc 1 898 15 view .LVU239
 885 0078 53B1     		cbz	r3, .L43
 899:lvgl/src/lv_widgets/lv_tabview.c ****                 indic_h = lv_area_get_height(&btnm_ext->button_areas[0]);
 886              		.loc 1 899 17 is_stmt 1 view .LVU240
 887              	.LVL133:
 900:lvgl/src/lv_widgets/lv_tabview.c ****             }
 888              		.loc 1 900 17 view .LVU241
 900:lvgl/src/lv_widgets/lv_tabview.c ****             }
 889              		.loc 1 900 46 is_stmt 0 view .LVU242
 890 007a 7B68     		ldr	r3, [r7, #4]
 891              	.LVL134:
 892              	.LBB113:
 893              	.LBI113:
ARM GAS  D:\Temp\ccnA29ZW.s 			page 43


 110:d:\_project\stm32\f407\hack_rf_new\lvgl\src\lv_misc\lv_area.h **** }
 111:d:\_project\stm32\f407\hack_rf_new\lvgl\src\lv_misc\lv_area.h **** 
 112:d:\_project\stm32\f407\hack_rf_new\lvgl\src\lv_misc\lv_area.h **** /**
 113:d:\_project\stm32\f407\hack_rf_new\lvgl\src\lv_misc\lv_area.h ****  * Get the height of an area
 114:d:\_project\stm32\f407\hack_rf_new\lvgl\src\lv_misc\lv_area.h ****  * @param area_p pointer to an area
 115:d:\_project\stm32\f407\hack_rf_new\lvgl\src\lv_misc\lv_area.h ****  * @return the height of the area (if y1 == y2 -> height = 1)
 116:d:\_project\stm32\f407\hack_rf_new\lvgl\src\lv_misc\lv_area.h ****  */
 117:d:\_project\stm32\f407\hack_rf_new\lvgl\src\lv_misc\lv_area.h **** static inline lv_coord_t lv_area_get_height(const lv_area_t * area_p)
 894              		.loc 4 117 26 is_stmt 1 view .LVU243
 895              	.LBB114:
 118:d:\_project\stm32\f407\hack_rf_new\lvgl\src\lv_misc\lv_area.h **** {
 119:d:\_project\stm32\f407\hack_rf_new\lvgl\src\lv_misc\lv_area.h ****     return (lv_coord_t)(area_p->y2 - area_p->y1 + 1);
 896              		.loc 4 119 5 view .LVU244
 897              		.loc 4 119 31 is_stmt 0 view .LVU245
 898 007c DD88     		ldrh	r5, [r3, #6]
 899              	.LVL135:
 900              		.loc 4 119 44 view .LVU246
 901 007e 5B88     		ldrh	r3, [r3, #2]
 902              	.LVL136:
 903              		.loc 4 119 36 view .LVU247
 904 0080 ED1A     		subs	r5, r5, r3
 905 0082 ADB2     		uxth	r5, r5
 906              		.loc 4 119 49 view .LVU248
 907 0084 0135     		adds	r5, r5, #1
 908              		.loc 4 119 12 view .LVU249
 909 0086 2DB2     		sxth	r5, r5
 910              	.LVL137:
 911              		.loc 4 119 12 view .LVU250
 912              	.LBE114:
 913              	.LBE113:
 914 0088 E8E7     		b	.L41
 915              	.LVL138:
 916              	.L42:
 892:lvgl/src/lv_widgets/lv_tabview.c ****             }
 917              		.loc 1 892 25 view .LVU251
 918 008a 0025     		movs	r5, #0
 919              	.LVL139:
 891:lvgl/src/lv_widgets/lv_tabview.c ****                 indic_h = 0;
 920              		.loc 1 891 25 view .LVU252
 921 008c 2E46     		mov	r6, r5
 922              	.LVL140:
 891:lvgl/src/lv_widgets/lv_tabview.c ****                 indic_h = 0;
 923              		.loc 1 891 25 view .LVU253
 924 008e E5E7     		b	.L41
 925              	.LVL141:
 926              	.L43:
 904:lvgl/src/lv_widgets/lv_tabview.c ****             }
 927              		.loc 1 904 25 view .LVU254
 928 0090 0025     		movs	r5, #0
 929              	.LVL142:
 903:lvgl/src/lv_widgets/lv_tabview.c ****                 indic_h = 0;
 930              		.loc 1 903 25 view .LVU255
 931 0092 2E46     		mov	r6, r5
 932              	.LVL143:
 903:lvgl/src/lv_widgets/lv_tabview.c ****                 indic_h = 0;
 933              		.loc 1 903 25 view .LVU256
 934 0094 E2E7     		b	.L41
ARM GAS  D:\Temp\ccnA29ZW.s 			page 44


 935              		.cfi_endproc
 936              	.LFE507:
 938              		.section	.text.refr_align,"ax",%progbits
 939              		.align	1
 940              		.syntax unified
 941              		.thumb
 942              		.thumb_func
 943              		.fpu fpv4-sp-d16
 945              	refr_align:
 946              	.LVL144:
 947              	.LFB510:
 999:lvgl/src/lv_widgets/lv_tabview.c **** 
1000:lvgl/src/lv_widgets/lv_tabview.c **** static void refr_align(lv_obj_t * tabview)
1001:lvgl/src/lv_widgets/lv_tabview.c **** {
 948              		.loc 1 1001 1 is_stmt 1 view -0
 949              		.cfi_startproc
 950              		@ args = 0, pretend = 0, frame = 0
 951              		@ frame_needed = 0, uses_anonymous_args = 0
 952              		.loc 1 1001 1 is_stmt 0 view .LVU258
 953 0000 F0B5     		push	{r4, r5, r6, r7, lr}
 954              	.LCFI7:
 955              		.cfi_def_cfa_offset 20
 956              		.cfi_offset 4, -20
 957              		.cfi_offset 5, -16
 958              		.cfi_offset 6, -12
 959              		.cfi_offset 7, -8
 960              		.cfi_offset 14, -4
 961 0002 83B0     		sub	sp, sp, #12
 962              	.LCFI8:
 963              		.cfi_def_cfa_offset 32
 964 0004 0646     		mov	r6, r0
1002:lvgl/src/lv_widgets/lv_tabview.c ****     lv_tabview_ext_t * ext = lv_obj_get_ext_attr(tabview);
 965              		.loc 1 1002 5 is_stmt 1 view .LVU259
 966              		.loc 1 1002 30 is_stmt 0 view .LVU260
 967 0006 FFF7FEFF 		bl	lv_obj_get_ext_attr
 968              	.LVL145:
 969              		.loc 1 1002 30 view .LVU261
 970 000a 0446     		mov	r4, r0
 971              	.LVL146:
1003:lvgl/src/lv_widgets/lv_tabview.c **** 
1004:lvgl/src/lv_widgets/lv_tabview.c ****     switch(ext->btns_pos) {
 972              		.loc 1 1004 5 is_stmt 1 view .LVU262
 973              		.loc 1 1004 15 is_stmt 0 view .LVU263
 974 000c 837E     		ldrb	r3, [r0, #26]	@ zero_extendqisi2
 975 000e 03F00703 		and	r3, r3, #7
 976              		.loc 1 1004 5 view .LVU264
 977 0012 013B     		subs	r3, r3, #1
 978 0014 032B     		cmp	r3, #3
 979 0016 03D8     		bhi	.L46
 980 0018 DFE803F0 		tbb	[pc, r3]
 981              	.L48:
 982 001c 0A       		.byte	(.L51-.L48)/2
 983 001d 22       		.byte	(.L50-.L48)/2
 984 001e 39       		.byte	(.L49-.L48)/2
 985 001f 54       		.byte	(.L47-.L48)/2
 986              		.p2align 1
 987              	.L46:
ARM GAS  D:\Temp\ccnA29ZW.s 			page 45


1005:lvgl/src/lv_widgets/lv_tabview.c ****         default: /*default case is prevented in lv_tabview_set_btns_pos(), but here for safety*/
1006:lvgl/src/lv_widgets/lv_tabview.c ****         case LV_TABVIEW_TAB_POS_NONE:
1007:lvgl/src/lv_widgets/lv_tabview.c ****             lv_obj_align(ext->content, NULL, LV_ALIGN_IN_TOP_LEFT, 0, 0);
 988              		.loc 1 1007 13 is_stmt 1 view .LVU265
 989 0020 8068     		ldr	r0, [r0, #8]
 990              	.LVL147:
 991              		.loc 1 1007 13 is_stmt 0 view .LVU266
 992 0022 0021     		movs	r1, #0
 993 0024 0091     		str	r1, [sp]
 994 0026 0B46     		mov	r3, r1
 995 0028 0122     		movs	r2, #1
 996 002a FFF7FEFF 		bl	lv_obj_align
 997              	.LVL148:
1008:lvgl/src/lv_widgets/lv_tabview.c ****             break;
 998              		.loc 1 1008 13 is_stmt 1 view .LVU267
 999 002e 15E0     		b	.L45
 1000              	.LVL149:
 1001              	.L51:
1009:lvgl/src/lv_widgets/lv_tabview.c ****         case LV_TABVIEW_TAB_POS_TOP:
1010:lvgl/src/lv_widgets/lv_tabview.c ****             lv_obj_align(ext->btns, NULL, LV_ALIGN_IN_TOP_LEFT, 0, 0);
 1002              		.loc 1 1010 13 view .LVU268
 1003 0030 0068     		ldr	r0, [r0]
 1004              	.LVL150:
 1005              		.loc 1 1010 13 is_stmt 0 view .LVU269
 1006 0032 0025     		movs	r5, #0
 1007 0034 0095     		str	r5, [sp]
 1008 0036 2B46     		mov	r3, r5
 1009 0038 0122     		movs	r2, #1
 1010 003a 2946     		mov	r1, r5
 1011 003c FFF7FEFF 		bl	lv_obj_align
 1012              	.LVL151:
1011:lvgl/src/lv_widgets/lv_tabview.c ****             lv_obj_align(ext->content, ext->btns, LV_ALIGN_OUT_BOTTOM_LEFT, 0, 0);
 1013              		.loc 1 1011 13 is_stmt 1 view .LVU270
 1014              		.loc 1 1011 43 is_stmt 0 view .LVU271
 1015 0040 2168     		ldr	r1, [r4]
 1016              		.loc 1 1011 13 view .LVU272
 1017 0042 A068     		ldr	r0, [r4, #8]
 1018 0044 0095     		str	r5, [sp]
 1019 0046 2B46     		mov	r3, r5
 1020 0048 0C22     		movs	r2, #12
 1021 004a FFF7FEFF 		bl	lv_obj_align
 1022              	.LVL152:
1012:lvgl/src/lv_widgets/lv_tabview.c ****             lv_obj_align(ext->indic, ext->btns, LV_ALIGN_IN_BOTTOM_LEFT, 0, 0);
 1023              		.loc 1 1012 13 is_stmt 1 view .LVU273
 1024              		.loc 1 1012 41 is_stmt 0 view .LVU274
 1025 004e 2168     		ldr	r1, [r4]
 1026              		.loc 1 1012 13 view .LVU275
 1027 0050 6068     		ldr	r0, [r4, #4]
 1028 0052 0095     		str	r5, [sp]
 1029 0054 2B46     		mov	r3, r5
 1030 0056 0422     		movs	r2, #4
 1031 0058 FFF7FEFF 		bl	lv_obj_align
 1032              	.LVL153:
1013:lvgl/src/lv_widgets/lv_tabview.c ****             break;
 1033              		.loc 1 1013 13 is_stmt 1 view .LVU276
 1034              	.L45:
1014:lvgl/src/lv_widgets/lv_tabview.c ****         case LV_TABVIEW_TAB_POS_BOTTOM:
ARM GAS  D:\Temp\ccnA29ZW.s 			page 46


1015:lvgl/src/lv_widgets/lv_tabview.c ****             lv_obj_align(ext->content, NULL, LV_ALIGN_IN_TOP_LEFT, 0, 0);
1016:lvgl/src/lv_widgets/lv_tabview.c ****             lv_obj_align(ext->btns, ext->content, LV_ALIGN_OUT_BOTTOM_LEFT, 0, 0);
1017:lvgl/src/lv_widgets/lv_tabview.c ****             lv_obj_align(ext->indic, ext->btns, LV_ALIGN_IN_TOP_LEFT, 0, 0);
1018:lvgl/src/lv_widgets/lv_tabview.c ****             break;
1019:lvgl/src/lv_widgets/lv_tabview.c ****         case LV_TABVIEW_TAB_POS_LEFT:
1020:lvgl/src/lv_widgets/lv_tabview.c ****             lv_obj_align(ext->btns, NULL, LV_ALIGN_IN_TOP_LEFT, 0, 0);
1021:lvgl/src/lv_widgets/lv_tabview.c ****             lv_obj_align(ext->content, tabview, LV_ALIGN_IN_TOP_LEFT, lv_obj_get_width(ext->btns), 
1022:lvgl/src/lv_widgets/lv_tabview.c ****             lv_obj_align(ext->indic, ext->btns, LV_ALIGN_IN_TOP_RIGHT, 0, 0);
1023:lvgl/src/lv_widgets/lv_tabview.c ****             break;
1024:lvgl/src/lv_widgets/lv_tabview.c ****         case LV_TABVIEW_TAB_POS_RIGHT:
1025:lvgl/src/lv_widgets/lv_tabview.c ****             lv_obj_align(ext->btns, NULL, LV_ALIGN_IN_TOP_RIGHT, 0, 0);
1026:lvgl/src/lv_widgets/lv_tabview.c ****             lv_obj_align(ext->content, tabview, LV_ALIGN_IN_TOP_LEFT, 0, 0);
1027:lvgl/src/lv_widgets/lv_tabview.c ****             lv_obj_align(ext->indic, ext->btns, LV_ALIGN_IN_TOP_LEFT, 0, 0);
1028:lvgl/src/lv_widgets/lv_tabview.c ****             break;
1029:lvgl/src/lv_widgets/lv_tabview.c ****     }
1030:lvgl/src/lv_widgets/lv_tabview.c **** }
 1035              		.loc 1 1030 1 is_stmt 0 view .LVU277
 1036 005c 03B0     		add	sp, sp, #12
 1037              	.LCFI9:
 1038              		.cfi_remember_state
 1039              		.cfi_def_cfa_offset 20
 1040              		@ sp needed
 1041 005e F0BD     		pop	{r4, r5, r6, r7, pc}
 1042              	.LVL154:
 1043              	.L50:
 1044              	.LCFI10:
 1045              		.cfi_restore_state
1015:lvgl/src/lv_widgets/lv_tabview.c ****             lv_obj_align(ext->btns, ext->content, LV_ALIGN_OUT_BOTTOM_LEFT, 0, 0);
 1046              		.loc 1 1015 13 is_stmt 1 view .LVU278
 1047 0060 8068     		ldr	r0, [r0, #8]
 1048              	.LVL155:
1015:lvgl/src/lv_widgets/lv_tabview.c ****             lv_obj_align(ext->btns, ext->content, LV_ALIGN_OUT_BOTTOM_LEFT, 0, 0);
 1049              		.loc 1 1015 13 is_stmt 0 view .LVU279
 1050 0062 0025     		movs	r5, #0
 1051 0064 0095     		str	r5, [sp]
 1052 0066 2B46     		mov	r3, r5
 1053 0068 0122     		movs	r2, #1
 1054 006a 2946     		mov	r1, r5
 1055 006c FFF7FEFF 		bl	lv_obj_align
 1056              	.LVL156:
1016:lvgl/src/lv_widgets/lv_tabview.c ****             lv_obj_align(ext->indic, ext->btns, LV_ALIGN_IN_TOP_LEFT, 0, 0);
 1057              		.loc 1 1016 13 is_stmt 1 view .LVU280
1016:lvgl/src/lv_widgets/lv_tabview.c ****             lv_obj_align(ext->indic, ext->btns, LV_ALIGN_IN_TOP_LEFT, 0, 0);
 1058              		.loc 1 1016 40 is_stmt 0 view .LVU281
 1059 0070 A168     		ldr	r1, [r4, #8]
1016:lvgl/src/lv_widgets/lv_tabview.c ****             lv_obj_align(ext->indic, ext->btns, LV_ALIGN_IN_TOP_LEFT, 0, 0);
 1060              		.loc 1 1016 13 view .LVU282
 1061 0072 2068     		ldr	r0, [r4]
 1062 0074 0095     		str	r5, [sp]
 1063 0076 2B46     		mov	r3, r5
 1064 0078 0C22     		movs	r2, #12
 1065 007a FFF7FEFF 		bl	lv_obj_align
 1066              	.LVL157:
1017:lvgl/src/lv_widgets/lv_tabview.c ****             break;
 1067              		.loc 1 1017 13 is_stmt 1 view .LVU283
1017:lvgl/src/lv_widgets/lv_tabview.c ****             break;
 1068              		.loc 1 1017 41 is_stmt 0 view .LVU284
ARM GAS  D:\Temp\ccnA29ZW.s 			page 47


 1069 007e 2168     		ldr	r1, [r4]
1017:lvgl/src/lv_widgets/lv_tabview.c ****             break;
 1070              		.loc 1 1017 13 view .LVU285
 1071 0080 6068     		ldr	r0, [r4, #4]
 1072 0082 0095     		str	r5, [sp]
 1073 0084 2B46     		mov	r3, r5
 1074 0086 0122     		movs	r2, #1
 1075 0088 FFF7FEFF 		bl	lv_obj_align
 1076              	.LVL158:
1018:lvgl/src/lv_widgets/lv_tabview.c ****         case LV_TABVIEW_TAB_POS_LEFT:
 1077              		.loc 1 1018 13 is_stmt 1 view .LVU286
 1078 008c E6E7     		b	.L45
 1079              	.LVL159:
 1080              	.L49:
1020:lvgl/src/lv_widgets/lv_tabview.c ****             lv_obj_align(ext->content, tabview, LV_ALIGN_IN_TOP_LEFT, lv_obj_get_width(ext->btns), 
 1081              		.loc 1 1020 13 view .LVU287
 1082 008e 0068     		ldr	r0, [r0]
 1083              	.LVL160:
1020:lvgl/src/lv_widgets/lv_tabview.c ****             lv_obj_align(ext->content, tabview, LV_ALIGN_IN_TOP_LEFT, lv_obj_get_width(ext->btns), 
 1084              		.loc 1 1020 13 is_stmt 0 view .LVU288
 1085 0090 0025     		movs	r5, #0
 1086 0092 0095     		str	r5, [sp]
 1087 0094 2B46     		mov	r3, r5
 1088 0096 0122     		movs	r2, #1
 1089 0098 2946     		mov	r1, r5
 1090 009a FFF7FEFF 		bl	lv_obj_align
 1091              	.LVL161:
1021:lvgl/src/lv_widgets/lv_tabview.c ****             lv_obj_align(ext->indic, ext->btns, LV_ALIGN_IN_TOP_RIGHT, 0, 0);
 1092              		.loc 1 1021 13 is_stmt 1 view .LVU289
 1093 009e A768     		ldr	r7, [r4, #8]
 1094 00a0 2068     		ldr	r0, [r4]
 1095 00a2 FFF7FEFF 		bl	lv_obj_get_width
 1096              	.LVL162:
 1097 00a6 0095     		str	r5, [sp]
 1098 00a8 0346     		mov	r3, r0
 1099 00aa 0122     		movs	r2, #1
 1100 00ac 3146     		mov	r1, r6
 1101 00ae 3846     		mov	r0, r7
 1102 00b0 FFF7FEFF 		bl	lv_obj_align
 1103              	.LVL163:
1022:lvgl/src/lv_widgets/lv_tabview.c ****             break;
 1104              		.loc 1 1022 13 view .LVU290
1022:lvgl/src/lv_widgets/lv_tabview.c ****             break;
 1105              		.loc 1 1022 41 is_stmt 0 view .LVU291
 1106 00b4 2168     		ldr	r1, [r4]
1022:lvgl/src/lv_widgets/lv_tabview.c ****             break;
 1107              		.loc 1 1022 13 view .LVU292
 1108 00b6 6068     		ldr	r0, [r4, #4]
 1109 00b8 0095     		str	r5, [sp]
 1110 00ba 2B46     		mov	r3, r5
 1111 00bc 0322     		movs	r2, #3
 1112 00be FFF7FEFF 		bl	lv_obj_align
 1113              	.LVL164:
1023:lvgl/src/lv_widgets/lv_tabview.c ****         case LV_TABVIEW_TAB_POS_RIGHT:
 1114              		.loc 1 1023 13 is_stmt 1 view .LVU293
 1115 00c2 CBE7     		b	.L45
 1116              	.LVL165:
ARM GAS  D:\Temp\ccnA29ZW.s 			page 48


 1117              	.L47:
1025:lvgl/src/lv_widgets/lv_tabview.c ****             lv_obj_align(ext->content, tabview, LV_ALIGN_IN_TOP_LEFT, 0, 0);
 1118              		.loc 1 1025 13 view .LVU294
 1119 00c4 0068     		ldr	r0, [r0]
 1120              	.LVL166:
1025:lvgl/src/lv_widgets/lv_tabview.c ****             lv_obj_align(ext->content, tabview, LV_ALIGN_IN_TOP_LEFT, 0, 0);
 1121              		.loc 1 1025 13 is_stmt 0 view .LVU295
 1122 00c6 0025     		movs	r5, #0
 1123 00c8 0095     		str	r5, [sp]
 1124 00ca 2B46     		mov	r3, r5
 1125 00cc 0322     		movs	r2, #3
 1126 00ce 2946     		mov	r1, r5
 1127 00d0 FFF7FEFF 		bl	lv_obj_align
 1128              	.LVL167:
1026:lvgl/src/lv_widgets/lv_tabview.c ****             lv_obj_align(ext->indic, ext->btns, LV_ALIGN_IN_TOP_LEFT, 0, 0);
 1129              		.loc 1 1026 13 is_stmt 1 view .LVU296
 1130 00d4 A068     		ldr	r0, [r4, #8]
 1131 00d6 0095     		str	r5, [sp]
 1132 00d8 2B46     		mov	r3, r5
 1133 00da 0122     		movs	r2, #1
 1134 00dc 3146     		mov	r1, r6
 1135 00de FFF7FEFF 		bl	lv_obj_align
 1136              	.LVL168:
1027:lvgl/src/lv_widgets/lv_tabview.c ****             break;
 1137              		.loc 1 1027 13 view .LVU297
1027:lvgl/src/lv_widgets/lv_tabview.c ****             break;
 1138              		.loc 1 1027 41 is_stmt 0 view .LVU298
 1139 00e2 2168     		ldr	r1, [r4]
1027:lvgl/src/lv_widgets/lv_tabview.c ****             break;
 1140              		.loc 1 1027 13 view .LVU299
 1141 00e4 6068     		ldr	r0, [r4, #4]
 1142 00e6 0095     		str	r5, [sp]
 1143 00e8 2B46     		mov	r3, r5
 1144 00ea 0122     		movs	r2, #1
 1145 00ec FFF7FEFF 		bl	lv_obj_align
 1146              	.LVL169:
1028:lvgl/src/lv_widgets/lv_tabview.c ****     }
 1147              		.loc 1 1028 13 is_stmt 1 view .LVU300
 1148              		.loc 1 1030 1 is_stmt 0 view .LVU301
 1149 00f0 B4E7     		b	.L45
 1150              		.cfi_endproc
 1151              	.LFE510:
 1153              		.section	.text.lv_tabview_clean_tab,"ax",%progbits
 1154              		.align	1
 1155              		.global	lv_tabview_clean_tab
 1156              		.syntax unified
 1157              		.thumb
 1158              		.thumb_func
 1159              		.fpu fpv4-sp-d16
 1161              	lv_tabview_clean_tab:
 1162              	.LVL170:
 1163              	.LFB492:
 293:lvgl/src/lv_widgets/lv_tabview.c ****     LV_ASSERT_OBJ(tab, "lv_page");
 1164              		.loc 1 293 1 is_stmt 1 view -0
 1165              		.cfi_startproc
 1166              		@ args = 0, pretend = 0, frame = 0
 1167              		@ frame_needed = 0, uses_anonymous_args = 0
ARM GAS  D:\Temp\ccnA29ZW.s 			page 49


 293:lvgl/src/lv_widgets/lv_tabview.c ****     LV_ASSERT_OBJ(tab, "lv_page");
 1168              		.loc 1 293 1 is_stmt 0 view .LVU303
 1169 0000 10B5     		push	{r4, lr}
 1170              	.LCFI11:
 1171              		.cfi_def_cfa_offset 8
 1172              		.cfi_offset 4, -8
 1173              		.cfi_offset 14, -4
 1174 0002 0446     		mov	r4, r0
 294:lvgl/src/lv_widgets/lv_tabview.c **** 
 1175              		.loc 1 294 5 is_stmt 1 view .LVU304
 294:lvgl/src/lv_widgets/lv_tabview.c **** 
 1176              		.loc 1 294 5 view .LVU305
 1177 0004 FFF7FEFF 		bl	lv_debug_check_null
 1178              	.LVL171:
 294:lvgl/src/lv_widgets/lv_tabview.c **** 
 1179              		.loc 1 294 5 is_stmt 0 view .LVU306
 1180 0008 28B9     		cbnz	r0, .L55
 294:lvgl/src/lv_widgets/lv_tabview.c **** 
 1181              		.loc 1 294 5 is_stmt 1 discriminator 1 view .LVU307
 294:lvgl/src/lv_widgets/lv_tabview.c **** 
 1182              		.loc 1 294 5 discriminator 1 view .LVU308
 1183 000a 2246     		mov	r2, r4
 1184 000c 0023     		movs	r3, #0
 1185 000e 0548     		ldr	r0, .L58
 1186 0010 FFF7FEFF 		bl	lv_debug_log_error
 1187              	.LVL172:
 1188              	.L56:
 294:lvgl/src/lv_widgets/lv_tabview.c **** 
 1189              		.loc 1 294 5 discriminator 1 view .LVU309
 294:lvgl/src/lv_widgets/lv_tabview.c **** 
 1190              		.loc 1 294 5 discriminator 1 view .LVU310
 1191 0014 FEE7     		b	.L56
 1192              	.L55:
 294:lvgl/src/lv_widgets/lv_tabview.c **** 
 1193              		.loc 1 294 34 discriminator 2 view .LVU311
 296:lvgl/src/lv_widgets/lv_tabview.c ****     lv_obj_clean(scrl);
 1194              		.loc 1 296 5 discriminator 2 view .LVU312
 296:lvgl/src/lv_widgets/lv_tabview.c ****     lv_obj_clean(scrl);
 1195              		.loc 1 296 23 is_stmt 0 discriminator 2 view .LVU313
 1196 0016 2046     		mov	r0, r4
 1197 0018 FFF7FEFF 		bl	lv_page_get_scrollable
 1198              	.LVL173:
 297:lvgl/src/lv_widgets/lv_tabview.c **** }
 1199              		.loc 1 297 5 is_stmt 1 discriminator 2 view .LVU314
 1200 001c FFF7FEFF 		bl	lv_obj_clean
 1201              	.LVL174:
 298:lvgl/src/lv_widgets/lv_tabview.c **** 
 1202              		.loc 1 298 1 is_stmt 0 discriminator 2 view .LVU315
 1203 0020 10BD     		pop	{r4, pc}
 1204              	.LVL175:
 1205              	.L59:
 298:lvgl/src/lv_widgets/lv_tabview.c **** 
 1206              		.loc 1 298 1 discriminator 2 view .LVU316
 1207 0022 00BF     		.align	2
 1208              	.L58:
 1209 0024 00000000 		.word	.LC0
 1210              		.cfi_endproc
ARM GAS  D:\Temp\ccnA29ZW.s 			page 50


 1211              	.LFE492:
 1213              		.section	.text.lv_tabview_set_tab_name,"ax",%progbits
 1214              		.align	1
 1215              		.global	lv_tabview_set_tab_name
 1216              		.syntax unified
 1217              		.thumb
 1218              		.thumb_func
 1219              		.fpu fpv4-sp-d16
 1221              	lv_tabview_set_tab_name:
 1222              	.LVL176:
 1223              	.LFB494:
 444:lvgl/src/lv_widgets/lv_tabview.c ****     LV_ASSERT_OBJ(tabview, LV_OBJX_NAME);
 1224              		.loc 1 444 1 is_stmt 1 view -0
 1225              		.cfi_startproc
 1226              		@ args = 0, pretend = 0, frame = 0
 1227              		@ frame_needed = 0, uses_anonymous_args = 0
 444:lvgl/src/lv_widgets/lv_tabview.c ****     LV_ASSERT_OBJ(tabview, LV_OBJX_NAME);
 1228              		.loc 1 444 1 is_stmt 0 view .LVU318
 1229 0000 F8B5     		push	{r3, r4, r5, r6, r7, lr}
 1230              	.LCFI12:
 1231              		.cfi_def_cfa_offset 24
 1232              		.cfi_offset 3, -24
 1233              		.cfi_offset 4, -20
 1234              		.cfi_offset 5, -16
 1235              		.cfi_offset 6, -12
 1236              		.cfi_offset 7, -8
 1237              		.cfi_offset 14, -4
 1238 0002 0446     		mov	r4, r0
 1239 0004 0D46     		mov	r5, r1
 1240 0006 1746     		mov	r7, r2
 445:lvgl/src/lv_widgets/lv_tabview.c **** 
 1241              		.loc 1 445 5 is_stmt 1 view .LVU319
 445:lvgl/src/lv_widgets/lv_tabview.c **** 
 1242              		.loc 1 445 5 view .LVU320
 1243 0008 FFF7FEFF 		bl	lv_debug_check_null
 1244              	.LVL177:
 445:lvgl/src/lv_widgets/lv_tabview.c **** 
 1245              		.loc 1 445 5 is_stmt 0 view .LVU321
 1246 000c 28B9     		cbnz	r0, .L61
 445:lvgl/src/lv_widgets/lv_tabview.c **** 
 1247              		.loc 1 445 5 is_stmt 1 discriminator 1 view .LVU322
 445:lvgl/src/lv_widgets/lv_tabview.c **** 
 1248              		.loc 1 445 5 discriminator 1 view .LVU323
 1249 000e 2246     		mov	r2, r4
 1250 0010 0023     		movs	r3, #0
 1251 0012 1548     		ldr	r0, .L68
 1252 0014 FFF7FEFF 		bl	lv_debug_log_error
 1253              	.LVL178:
 1254              	.L62:
 445:lvgl/src/lv_widgets/lv_tabview.c **** 
 1255              		.loc 1 445 5 discriminator 1 view .LVU324
 445:lvgl/src/lv_widgets/lv_tabview.c **** 
 1256              		.loc 1 445 5 discriminator 1 view .LVU325
 1257 0018 FEE7     		b	.L62
 1258              	.L61:
 445:lvgl/src/lv_widgets/lv_tabview.c **** 
 1259              		.loc 1 445 41 discriminator 2 view .LVU326
ARM GAS  D:\Temp\ccnA29ZW.s 			page 51


 448:lvgl/src/lv_widgets/lv_tabview.c **** 
 1260              		.loc 1 448 5 discriminator 2 view .LVU327
 448:lvgl/src/lv_widgets/lv_tabview.c **** 
 1261              		.loc 1 448 30 is_stmt 0 discriminator 2 view .LVU328
 1262 001a 2046     		mov	r0, r4
 1263 001c FFF7FEFF 		bl	lv_obj_get_ext_attr
 1264              	.LVL179:
 1265 0020 0446     		mov	r4, r0
 1266              	.LVL180:
 451:lvgl/src/lv_widgets/lv_tabview.c ****         /* reallocate memory for new tab name (use reallocate due to mostly the size didn't change 
 1267              		.loc 1 451 5 is_stmt 1 discriminator 2 view .LVU329
 451:lvgl/src/lv_widgets/lv_tabview.c ****         /* reallocate memory for new tab name (use reallocate due to mostly the size didn't change 
 1268              		.loc 1 451 11 is_stmt 0 discriminator 2 view .LVU330
 1269 0022 C38A     		ldrh	r3, [r0, #22]
 451:lvgl/src/lv_widgets/lv_tabview.c ****         /* reallocate memory for new tab name (use reallocate due to mostly the size didn't change 
 1270              		.loc 1 451 7 discriminator 2 view .LVU331
 1271 0024 AB42     		cmp	r3, r5
 1272 0026 00D8     		bhi	.L67
 1273              	.LVL181:
 1274              	.L60:
 464:lvgl/src/lv_widgets/lv_tabview.c **** 
 1275              		.loc 1 464 1 view .LVU332
 1276 0028 F8BD     		pop	{r3, r4, r5, r6, r7, pc}
 1277              	.LVL182:
 1278              	.L67:
 1279              	.LBB115:
 453:lvgl/src/lv_widgets/lv_tabview.c ****         LV_ASSERT_MEM(str);
 1280              		.loc 1 453 9 is_stmt 1 view .LVU333
 453:lvgl/src/lv_widgets/lv_tabview.c ****         LV_ASSERT_MEM(str);
 1281              		.loc 1 453 48 is_stmt 0 view .LVU334
 1282 002a C668     		ldr	r6, [r0, #12]
 453:lvgl/src/lv_widgets/lv_tabview.c ****         LV_ASSERT_MEM(str);
 1283              		.loc 1 453 68 view .LVU335
 1284 002c 3846     		mov	r0, r7
 1285              	.LVL183:
 453:lvgl/src/lv_widgets/lv_tabview.c ****         LV_ASSERT_MEM(str);
 1286              		.loc 1 453 68 view .LVU336
 1287 002e FFF7FEFF 		bl	strlen
 1288              	.LVL184:
 453:lvgl/src/lv_widgets/lv_tabview.c ****         LV_ASSERT_MEM(str);
 1289              		.loc 1 453 22 view .LVU337
 1290 0032 411C     		adds	r1, r0, #1
 1291 0034 56F82500 		ldr	r0, [r6, r5, lsl #2]
 1292 0038 FFF7FEFF 		bl	lv_mem_realloc
 1293              	.LVL185:
 1294 003c 0646     		mov	r6, r0
 1295              	.LVL186:
 454:lvgl/src/lv_widgets/lv_tabview.c **** 
 1296              		.loc 1 454 9 is_stmt 1 view .LVU338
 454:lvgl/src/lv_widgets/lv_tabview.c **** 
 1297              		.loc 1 454 9 view .LVU339
 1298 003e FFF7FEFF 		bl	lv_debug_check_null
 1299              	.LVL187:
 454:lvgl/src/lv_widgets/lv_tabview.c **** 
 1300              		.loc 1 454 9 is_stmt 0 view .LVU340
 1301 0042 28B9     		cbnz	r0, .L64
 454:lvgl/src/lv_widgets/lv_tabview.c **** 
ARM GAS  D:\Temp\ccnA29ZW.s 			page 52


 1302              		.loc 1 454 9 is_stmt 1 discriminator 1 view .LVU341
 454:lvgl/src/lv_widgets/lv_tabview.c **** 
 1303              		.loc 1 454 9 discriminator 1 view .LVU342
 1304 0044 3246     		mov	r2, r6
 1305 0046 0023     		movs	r3, #0
 1306 0048 0848     		ldr	r0, .L68+4
 1307 004a FFF7FEFF 		bl	lv_debug_log_error
 1308              	.LVL188:
 1309              	.L65:
 454:lvgl/src/lv_widgets/lv_tabview.c **** 
 1310              		.loc 1 454 9 discriminator 2 view .LVU343
 454:lvgl/src/lv_widgets/lv_tabview.c **** 
 1311              		.loc 1 454 9 discriminator 2 view .LVU344
 1312 004e FEE7     		b	.L65
 1313              	.L64:
 454:lvgl/src/lv_widgets/lv_tabview.c **** 
 1314              		.loc 1 454 27 discriminator 2 view .LVU345
 457:lvgl/src/lv_widgets/lv_tabview.c ****         /* update pointer  */
 1315              		.loc 1 457 9 discriminator 2 view .LVU346
 1316 0050 3946     		mov	r1, r7
 1317 0052 3046     		mov	r0, r6
 1318 0054 FFF7FEFF 		bl	strcpy
 1319              	.LVL189:
 459:lvgl/src/lv_widgets/lv_tabview.c **** 
 1320              		.loc 1 459 9 discriminator 2 view .LVU347
 459:lvgl/src/lv_widgets/lv_tabview.c **** 
 1321              		.loc 1 459 12 is_stmt 0 discriminator 2 view .LVU348
 1322 0058 E368     		ldr	r3, [r4, #12]
 459:lvgl/src/lv_widgets/lv_tabview.c **** 
 1323              		.loc 1 459 31 discriminator 2 view .LVU349
 1324 005a 43F82560 		str	r6, [r3, r5, lsl #2]
 462:lvgl/src/lv_widgets/lv_tabview.c ****     }
 1325              		.loc 1 462 9 is_stmt 1 discriminator 2 view .LVU350
 1326 005e 2068     		ldr	r0, [r4]
 1327 0060 FFF7FEFF 		bl	lv_obj_invalidate
 1328              	.LVL190:
 1329              	.LBE115:
 464:lvgl/src/lv_widgets/lv_tabview.c **** 
 1330              		.loc 1 464 1 is_stmt 0 discriminator 2 view .LVU351
 1331 0064 E0E7     		b	.L60
 1332              	.L69:
 1333 0066 00BF     		.align	2
 1334              	.L68:
 1335 0068 00000000 		.word	.LC0
 1336 006c 00000000 		.word	.LC1
 1337              		.cfi_endproc
 1338              	.LFE494:
 1340              		.section	.text.lv_tabview_set_anim_time,"ax",%progbits
 1341              		.align	1
 1342              		.global	lv_tabview_set_anim_time
 1343              		.syntax unified
 1344              		.thumb
 1345              		.thumb_func
 1346              		.fpu fpv4-sp-d16
 1348              	lv_tabview_set_anim_time:
 1349              	.LVL191:
 1350              	.LFB495:
ARM GAS  D:\Temp\ccnA29ZW.s 			page 53


 472:lvgl/src/lv_widgets/lv_tabview.c ****     LV_ASSERT_OBJ(tabview, LV_OBJX_NAME);
 1351              		.loc 1 472 1 is_stmt 1 view -0
 1352              		.cfi_startproc
 1353              		@ args = 0, pretend = 0, frame = 0
 1354              		@ frame_needed = 0, uses_anonymous_args = 0
 472:lvgl/src/lv_widgets/lv_tabview.c ****     LV_ASSERT_OBJ(tabview, LV_OBJX_NAME);
 1355              		.loc 1 472 1 is_stmt 0 view .LVU353
 1356 0000 38B5     		push	{r3, r4, r5, lr}
 1357              	.LCFI13:
 1358              		.cfi_def_cfa_offset 16
 1359              		.cfi_offset 3, -16
 1360              		.cfi_offset 4, -12
 1361              		.cfi_offset 5, -8
 1362              		.cfi_offset 14, -4
 1363 0002 0446     		mov	r4, r0
 1364 0004 0D46     		mov	r5, r1
 473:lvgl/src/lv_widgets/lv_tabview.c **** 
 1365              		.loc 1 473 5 is_stmt 1 view .LVU354
 473:lvgl/src/lv_widgets/lv_tabview.c **** 
 1366              		.loc 1 473 5 view .LVU355
 1367 0006 FFF7FEFF 		bl	lv_debug_check_null
 1368              	.LVL192:
 473:lvgl/src/lv_widgets/lv_tabview.c **** 
 1369              		.loc 1 473 5 is_stmt 0 view .LVU356
 1370 000a 28B9     		cbnz	r0, .L71
 473:lvgl/src/lv_widgets/lv_tabview.c **** 
 1371              		.loc 1 473 5 is_stmt 1 discriminator 1 view .LVU357
 473:lvgl/src/lv_widgets/lv_tabview.c **** 
 1372              		.loc 1 473 5 discriminator 1 view .LVU358
 1373 000c 2246     		mov	r2, r4
 1374 000e 0023     		movs	r3, #0
 1375 0010 0448     		ldr	r0, .L74
 1376 0012 FFF7FEFF 		bl	lv_debug_log_error
 1377              	.LVL193:
 1378              	.L72:
 473:lvgl/src/lv_widgets/lv_tabview.c **** 
 1379              		.loc 1 473 5 discriminator 1 view .LVU359
 473:lvgl/src/lv_widgets/lv_tabview.c **** 
 1380              		.loc 1 473 5 discriminator 1 view .LVU360
 1381 0016 FEE7     		b	.L72
 1382              	.L71:
 473:lvgl/src/lv_widgets/lv_tabview.c **** 
 1383              		.loc 1 473 41 discriminator 2 view .LVU361
 476:lvgl/src/lv_widgets/lv_tabview.c ****     ext->anim_time         = anim_time;
 1384              		.loc 1 476 5 discriminator 2 view .LVU362
 476:lvgl/src/lv_widgets/lv_tabview.c ****     ext->anim_time         = anim_time;
 1385              		.loc 1 476 30 is_stmt 0 discriminator 2 view .LVU363
 1386 0018 2046     		mov	r0, r4
 1387 001a FFF7FEFF 		bl	lv_obj_get_ext_attr
 1388              	.LVL194:
 477:lvgl/src/lv_widgets/lv_tabview.c **** #else
 1389              		.loc 1 477 5 is_stmt 1 discriminator 2 view .LVU364
 477:lvgl/src/lv_widgets/lv_tabview.c **** #else
 1390              		.loc 1 477 28 is_stmt 0 discriminator 2 view .LVU365
 1391 001e 0583     		strh	r5, [r0, #24]	@ movhi
 482:lvgl/src/lv_widgets/lv_tabview.c **** 
 1392              		.loc 1 482 1 discriminator 2 view .LVU366
ARM GAS  D:\Temp\ccnA29ZW.s 			page 54


 1393 0020 38BD     		pop	{r3, r4, r5, pc}
 1394              	.LVL195:
 1395              	.L75:
 482:lvgl/src/lv_widgets/lv_tabview.c **** 
 1396              		.loc 1 482 1 discriminator 2 view .LVU367
 1397 0022 00BF     		.align	2
 1398              	.L74:
 1399 0024 00000000 		.word	.LC0
 1400              		.cfi_endproc
 1401              	.LFE495:
 1403              		.section	.text.lv_tabview_get_tab_act,"ax",%progbits
 1404              		.align	1
 1405              		.global	lv_tabview_get_tab_act
 1406              		.syntax unified
 1407              		.thumb
 1408              		.thumb_func
 1409              		.fpu fpv4-sp-d16
 1411              	lv_tabview_get_tab_act:
 1412              	.LVL196:
 1413              	.LFB497:
 517:lvgl/src/lv_widgets/lv_tabview.c ****     LV_ASSERT_OBJ(tabview, LV_OBJX_NAME);
 1414              		.loc 1 517 1 is_stmt 1 view -0
 1415              		.cfi_startproc
 1416              		@ args = 0, pretend = 0, frame = 0
 1417              		@ frame_needed = 0, uses_anonymous_args = 0
 517:lvgl/src/lv_widgets/lv_tabview.c ****     LV_ASSERT_OBJ(tabview, LV_OBJX_NAME);
 1418              		.loc 1 517 1 is_stmt 0 view .LVU369
 1419 0000 10B5     		push	{r4, lr}
 1420              	.LCFI14:
 1421              		.cfi_def_cfa_offset 8
 1422              		.cfi_offset 4, -8
 1423              		.cfi_offset 14, -4
 1424 0002 0446     		mov	r4, r0
 518:lvgl/src/lv_widgets/lv_tabview.c **** 
 1425              		.loc 1 518 5 is_stmt 1 view .LVU370
 518:lvgl/src/lv_widgets/lv_tabview.c **** 
 1426              		.loc 1 518 5 view .LVU371
 1427 0004 FFF7FEFF 		bl	lv_debug_check_null
 1428              	.LVL197:
 518:lvgl/src/lv_widgets/lv_tabview.c **** 
 1429              		.loc 1 518 5 is_stmt 0 view .LVU372
 1430 0008 28B9     		cbnz	r0, .L77
 518:lvgl/src/lv_widgets/lv_tabview.c **** 
 1431              		.loc 1 518 5 is_stmt 1 discriminator 1 view .LVU373
 518:lvgl/src/lv_widgets/lv_tabview.c **** 
 1432              		.loc 1 518 5 discriminator 1 view .LVU374
 1433 000a 2246     		mov	r2, r4
 1434 000c 0023     		movs	r3, #0
 1435 000e 0448     		ldr	r0, .L80
 1436 0010 FFF7FEFF 		bl	lv_debug_log_error
 1437              	.LVL198:
 1438              	.L78:
 518:lvgl/src/lv_widgets/lv_tabview.c **** 
 1439              		.loc 1 518 5 discriminator 1 view .LVU375
 518:lvgl/src/lv_widgets/lv_tabview.c **** 
 1440              		.loc 1 518 5 discriminator 1 view .LVU376
 1441 0014 FEE7     		b	.L78
ARM GAS  D:\Temp\ccnA29ZW.s 			page 55


 1442              	.L77:
 518:lvgl/src/lv_widgets/lv_tabview.c **** 
 1443              		.loc 1 518 41 discriminator 2 view .LVU377
 520:lvgl/src/lv_widgets/lv_tabview.c ****     return ext->tab_cur;
 1444              		.loc 1 520 5 discriminator 2 view .LVU378
 520:lvgl/src/lv_widgets/lv_tabview.c ****     return ext->tab_cur;
 1445              		.loc 1 520 30 is_stmt 0 discriminator 2 view .LVU379
 1446 0016 2046     		mov	r0, r4
 1447 0018 FFF7FEFF 		bl	lv_obj_get_ext_attr
 1448              	.LVL199:
 521:lvgl/src/lv_widgets/lv_tabview.c **** }
 1449              		.loc 1 521 5 is_stmt 1 discriminator 2 view .LVU380
 522:lvgl/src/lv_widgets/lv_tabview.c **** 
 1450              		.loc 1 522 1 is_stmt 0 discriminator 2 view .LVU381
 1451 001c 808A     		ldrh	r0, [r0, #20]
 1452              	.LVL200:
 522:lvgl/src/lv_widgets/lv_tabview.c **** 
 1453              		.loc 1 522 1 discriminator 2 view .LVU382
 1454 001e 10BD     		pop	{r4, pc}
 1455              	.LVL201:
 1456              	.L81:
 522:lvgl/src/lv_widgets/lv_tabview.c **** 
 1457              		.loc 1 522 1 discriminator 2 view .LVU383
 1458              		.align	2
 1459              	.L80:
 1460 0020 00000000 		.word	.LC0
 1461              		.cfi_endproc
 1462              	.LFE497:
 1464              		.section	.text.lv_tabview_get_tab_count,"ax",%progbits
 1465              		.align	1
 1466              		.global	lv_tabview_get_tab_count
 1467              		.syntax unified
 1468              		.thumb
 1469              		.thumb_func
 1470              		.fpu fpv4-sp-d16
 1472              	lv_tabview_get_tab_count:
 1473              	.LVL202:
 1474              	.LFB498:
 530:lvgl/src/lv_widgets/lv_tabview.c ****     LV_ASSERT_OBJ(tabview, LV_OBJX_NAME);
 1475              		.loc 1 530 1 is_stmt 1 view -0
 1476              		.cfi_startproc
 1477              		@ args = 0, pretend = 0, frame = 0
 1478              		@ frame_needed = 0, uses_anonymous_args = 0
 530:lvgl/src/lv_widgets/lv_tabview.c ****     LV_ASSERT_OBJ(tabview, LV_OBJX_NAME);
 1479              		.loc 1 530 1 is_stmt 0 view .LVU385
 1480 0000 10B5     		push	{r4, lr}
 1481              	.LCFI15:
 1482              		.cfi_def_cfa_offset 8
 1483              		.cfi_offset 4, -8
 1484              		.cfi_offset 14, -4
 1485 0002 0446     		mov	r4, r0
 531:lvgl/src/lv_widgets/lv_tabview.c **** 
 1486              		.loc 1 531 5 is_stmt 1 view .LVU386
 531:lvgl/src/lv_widgets/lv_tabview.c **** 
 1487              		.loc 1 531 5 view .LVU387
 1488 0004 FFF7FEFF 		bl	lv_debug_check_null
 1489              	.LVL203:
ARM GAS  D:\Temp\ccnA29ZW.s 			page 56


 531:lvgl/src/lv_widgets/lv_tabview.c **** 
 1490              		.loc 1 531 5 is_stmt 0 view .LVU388
 1491 0008 28B9     		cbnz	r0, .L83
 531:lvgl/src/lv_widgets/lv_tabview.c **** 
 1492              		.loc 1 531 5 is_stmt 1 discriminator 1 view .LVU389
 531:lvgl/src/lv_widgets/lv_tabview.c **** 
 1493              		.loc 1 531 5 discriminator 1 view .LVU390
 1494 000a 2246     		mov	r2, r4
 1495 000c 0023     		movs	r3, #0
 1496 000e 0448     		ldr	r0, .L86
 1497 0010 FFF7FEFF 		bl	lv_debug_log_error
 1498              	.LVL204:
 1499              	.L84:
 531:lvgl/src/lv_widgets/lv_tabview.c **** 
 1500              		.loc 1 531 5 discriminator 1 view .LVU391
 531:lvgl/src/lv_widgets/lv_tabview.c **** 
 1501              		.loc 1 531 5 discriminator 1 view .LVU392
 1502 0014 FEE7     		b	.L84
 1503              	.L83:
 531:lvgl/src/lv_widgets/lv_tabview.c **** 
 1504              		.loc 1 531 41 discriminator 2 view .LVU393
 533:lvgl/src/lv_widgets/lv_tabview.c ****     return ext->tab_cnt;
 1505              		.loc 1 533 5 discriminator 2 view .LVU394
 533:lvgl/src/lv_widgets/lv_tabview.c ****     return ext->tab_cnt;
 1506              		.loc 1 533 30 is_stmt 0 discriminator 2 view .LVU395
 1507 0016 2046     		mov	r0, r4
 1508 0018 FFF7FEFF 		bl	lv_obj_get_ext_attr
 1509              	.LVL205:
 534:lvgl/src/lv_widgets/lv_tabview.c **** }
 1510              		.loc 1 534 5 is_stmt 1 discriminator 2 view .LVU396
 535:lvgl/src/lv_widgets/lv_tabview.c **** 
 1511              		.loc 1 535 1 is_stmt 0 discriminator 2 view .LVU397
 1512 001c C08A     		ldrh	r0, [r0, #22]
 1513              	.LVL206:
 535:lvgl/src/lv_widgets/lv_tabview.c **** 
 1514              		.loc 1 535 1 discriminator 2 view .LVU398
 1515 001e 10BD     		pop	{r4, pc}
 1516              	.LVL207:
 1517              	.L87:
 535:lvgl/src/lv_widgets/lv_tabview.c **** 
 1518              		.loc 1 535 1 discriminator 2 view .LVU399
 1519              		.align	2
 1520              	.L86:
 1521 0020 00000000 		.word	.LC0
 1522              		.cfi_endproc
 1523              	.LFE498:
 1525              		.section	.text.lv_tabview_get_tab,"ax",%progbits
 1526              		.align	1
 1527              		.global	lv_tabview_get_tab
 1528              		.syntax unified
 1529              		.thumb
 1530              		.thumb_func
 1531              		.fpu fpv4-sp-d16
 1533              	lv_tabview_get_tab:
 1534              	.LVL208:
 1535              	.LFB499:
 544:lvgl/src/lv_widgets/lv_tabview.c ****     LV_ASSERT_OBJ(tabview, LV_OBJX_NAME);
ARM GAS  D:\Temp\ccnA29ZW.s 			page 57


 1536              		.loc 1 544 1 is_stmt 1 view -0
 1537              		.cfi_startproc
 1538              		@ args = 0, pretend = 0, frame = 0
 1539              		@ frame_needed = 0, uses_anonymous_args = 0
 544:lvgl/src/lv_widgets/lv_tabview.c ****     LV_ASSERT_OBJ(tabview, LV_OBJX_NAME);
 1540              		.loc 1 544 1 is_stmt 0 view .LVU401
 1541 0000 F8B5     		push	{r3, r4, r5, r6, r7, lr}
 1542              	.LCFI16:
 1543              		.cfi_def_cfa_offset 24
 1544              		.cfi_offset 3, -24
 1545              		.cfi_offset 4, -20
 1546              		.cfi_offset 5, -16
 1547              		.cfi_offset 6, -12
 1548              		.cfi_offset 7, -8
 1549              		.cfi_offset 14, -4
 1550 0002 0446     		mov	r4, r0
 1551 0004 0E46     		mov	r6, r1
 545:lvgl/src/lv_widgets/lv_tabview.c **** 
 1552              		.loc 1 545 5 is_stmt 1 view .LVU402
 545:lvgl/src/lv_widgets/lv_tabview.c **** 
 1553              		.loc 1 545 5 view .LVU403
 1554 0006 FFF7FEFF 		bl	lv_debug_check_null
 1555              	.LVL209:
 545:lvgl/src/lv_widgets/lv_tabview.c **** 
 1556              		.loc 1 545 5 is_stmt 0 view .LVU404
 1557 000a 28B9     		cbnz	r0, .L89
 545:lvgl/src/lv_widgets/lv_tabview.c **** 
 1558              		.loc 1 545 5 is_stmt 1 discriminator 1 view .LVU405
 545:lvgl/src/lv_widgets/lv_tabview.c **** 
 1559              		.loc 1 545 5 discriminator 1 view .LVU406
 1560 000c 2246     		mov	r2, r4
 1561 000e 0023     		movs	r3, #0
 1562 0010 1348     		ldr	r0, .L97
 1563 0012 FFF7FEFF 		bl	lv_debug_log_error
 1564              	.LVL210:
 1565              	.L90:
 545:lvgl/src/lv_widgets/lv_tabview.c **** 
 1566              		.loc 1 545 5 discriminator 1 view .LVU407
 545:lvgl/src/lv_widgets/lv_tabview.c **** 
 1567              		.loc 1 545 5 discriminator 1 view .LVU408
 1568 0016 FEE7     		b	.L90
 1569              	.L89:
 545:lvgl/src/lv_widgets/lv_tabview.c **** 
 1570              		.loc 1 545 41 discriminator 2 view .LVU409
 547:lvgl/src/lv_widgets/lv_tabview.c ****     lv_obj_t * content_scrl = lv_page_get_scrollable(ext->content);
 1571              		.loc 1 547 5 discriminator 2 view .LVU410
 547:lvgl/src/lv_widgets/lv_tabview.c ****     lv_obj_t * content_scrl = lv_page_get_scrollable(ext->content);
 1572              		.loc 1 547 30 is_stmt 0 discriminator 2 view .LVU411
 1573 0018 2046     		mov	r0, r4
 1574 001a FFF7FEFF 		bl	lv_obj_get_ext_attr
 1575              	.LVL211:
 548:lvgl/src/lv_widgets/lv_tabview.c ****     uint16_t i             = 0;
 1576              		.loc 1 548 5 is_stmt 1 discriminator 2 view .LVU412
 548:lvgl/src/lv_widgets/lv_tabview.c ****     uint16_t i             = 0;
 1577              		.loc 1 548 31 is_stmt 0 discriminator 2 view .LVU413
 1578 001e 8068     		ldr	r0, [r0, #8]
 1579              	.LVL212:
ARM GAS  D:\Temp\ccnA29ZW.s 			page 58


 548:lvgl/src/lv_widgets/lv_tabview.c ****     uint16_t i             = 0;
 1580              		.loc 1 548 31 discriminator 2 view .LVU414
 1581 0020 FFF7FEFF 		bl	lv_page_get_scrollable
 1582              	.LVL213:
 1583 0024 0746     		mov	r7, r0
 1584              	.LVL214:
 549:lvgl/src/lv_widgets/lv_tabview.c ****     lv_obj_t * page        = lv_obj_get_child_back(content_scrl, NULL);
 1585              		.loc 1 549 5 is_stmt 1 discriminator 2 view .LVU415
 550:lvgl/src/lv_widgets/lv_tabview.c **** 
 1586              		.loc 1 550 5 discriminator 2 view .LVU416
 550:lvgl/src/lv_widgets/lv_tabview.c **** 
 1587              		.loc 1 550 30 is_stmt 0 discriminator 2 view .LVU417
 1588 0026 0021     		movs	r1, #0
 1589 0028 FFF7FEFF 		bl	lv_obj_get_child_back
 1590              	.LVL215:
 550:lvgl/src/lv_widgets/lv_tabview.c **** 
 1591              		.loc 1 550 30 discriminator 2 view .LVU418
 1592 002c 0446     		mov	r4, r0
 1593              	.LVL216:
 552:lvgl/src/lv_widgets/lv_tabview.c ****         if(lv_obj_get_signal_cb(page) == page_signal) i++;
 1594              		.loc 1 552 5 is_stmt 1 discriminator 2 view .LVU419
 549:lvgl/src/lv_widgets/lv_tabview.c ****     lv_obj_t * page        = lv_obj_get_child_back(content_scrl, NULL);
 1595              		.loc 1 549 14 is_stmt 0 discriminator 2 view .LVU420
 1596 002e 0025     		movs	r5, #0
 552:lvgl/src/lv_widgets/lv_tabview.c ****         if(lv_obj_get_signal_cb(page) == page_signal) i++;
 1597              		.loc 1 552 10 discriminator 2 view .LVU421
 1598 0030 04E0     		b	.L91
 1599              	.LVL217:
 1600              	.L92:
 554:lvgl/src/lv_widgets/lv_tabview.c ****     }
 1601              		.loc 1 554 9 is_stmt 1 view .LVU422
 554:lvgl/src/lv_widgets/lv_tabview.c ****     }
 1602              		.loc 1 554 16 is_stmt 0 view .LVU423
 1603 0032 2146     		mov	r1, r4
 1604 0034 3846     		mov	r0, r7
 1605 0036 FFF7FEFF 		bl	lv_obj_get_child_back
 1606              	.LVL218:
 1607 003a 0446     		mov	r4, r0
 1608              	.LVL219:
 1609              	.L91:
 552:lvgl/src/lv_widgets/lv_tabview.c ****         if(lv_obj_get_signal_cb(page) == page_signal) i++;
 1610              		.loc 1 552 10 view .LVU424
 1611 003c 5CB1     		cbz	r4, .L93
 552:lvgl/src/lv_widgets/lv_tabview.c ****         if(lv_obj_get_signal_cb(page) == page_signal) i++;
 1612              		.loc 1 552 24 discriminator 1 view .LVU425
 1613 003e B542     		cmp	r5, r6
 1614 0040 09D0     		beq	.L93
 553:lvgl/src/lv_widgets/lv_tabview.c ****         page = lv_obj_get_child_back(content_scrl, page);
 1615              		.loc 1 553 9 is_stmt 1 view .LVU426
 553:lvgl/src/lv_widgets/lv_tabview.c ****         page = lv_obj_get_child_back(content_scrl, page);
 1616              		.loc 1 553 12 is_stmt 0 view .LVU427
 1617 0042 2046     		mov	r0, r4
 553:lvgl/src/lv_widgets/lv_tabview.c ****         page = lv_obj_get_child_back(content_scrl, page);
 1618              		.loc 1 553 12 view .LVU428
 1619 0044 FFF7FEFF 		bl	lv_obj_get_signal_cb
 1620              	.LVL220:
 553:lvgl/src/lv_widgets/lv_tabview.c ****         page = lv_obj_get_child_back(content_scrl, page);
ARM GAS  D:\Temp\ccnA29ZW.s 			page 59


 1621              		.loc 1 553 39 view .LVU429
 1622 0048 064B     		ldr	r3, .L97+4
 1623 004a 1B68     		ldr	r3, [r3]
 553:lvgl/src/lv_widgets/lv_tabview.c ****         page = lv_obj_get_child_back(content_scrl, page);
 1624              		.loc 1 553 11 view .LVU430
 1625 004c 8342     		cmp	r3, r0
 1626 004e F0D1     		bne	.L92
 553:lvgl/src/lv_widgets/lv_tabview.c ****         page = lv_obj_get_child_back(content_scrl, page);
 1627              		.loc 1 553 55 is_stmt 1 discriminator 1 view .LVU431
 553:lvgl/src/lv_widgets/lv_tabview.c ****         page = lv_obj_get_child_back(content_scrl, page);
 1628              		.loc 1 553 56 is_stmt 0 discriminator 1 view .LVU432
 1629 0050 0135     		adds	r5, r5, #1
 1630              	.LVL221:
 553:lvgl/src/lv_widgets/lv_tabview.c ****         page = lv_obj_get_child_back(content_scrl, page);
 1631              		.loc 1 553 56 discriminator 1 view .LVU433
 1632 0052 ADB2     		uxth	r5, r5
 1633              	.LVL222:
 553:lvgl/src/lv_widgets/lv_tabview.c ****         page = lv_obj_get_child_back(content_scrl, page);
 1634              		.loc 1 553 56 discriminator 1 view .LVU434
 1635 0054 EDE7     		b	.L92
 1636              	.LVL223:
 1637              	.L93:
 557:lvgl/src/lv_widgets/lv_tabview.c **** 
 1638              		.loc 1 557 5 is_stmt 1 view .LVU435
 557:lvgl/src/lv_widgets/lv_tabview.c **** 
 1639              		.loc 1 557 7 is_stmt 0 view .LVU436
 1640 0056 B542     		cmp	r5, r6
 1641 0058 00D0     		beq	.L88
 559:lvgl/src/lv_widgets/lv_tabview.c **** }
 1642              		.loc 1 559 12 view .LVU437
 1643 005a 0024     		movs	r4, #0
 1644              	.L88:
 560:lvgl/src/lv_widgets/lv_tabview.c **** 
 1645              		.loc 1 560 1 view .LVU438
 1646 005c 2046     		mov	r0, r4
 1647              	.LVL224:
 560:lvgl/src/lv_widgets/lv_tabview.c **** 
 1648              		.loc 1 560 1 view .LVU439
 1649 005e F8BD     		pop	{r3, r4, r5, r6, r7, pc}
 1650              	.LVL225:
 1651              	.L98:
 560:lvgl/src/lv_widgets/lv_tabview.c **** 
 1652              		.loc 1 560 1 view .LVU440
 1653              		.align	2
 1654              	.L97:
 1655 0060 00000000 		.word	.LC0
 1656 0064 00000000 		.word	.LANCHOR0
 1657              		.cfi_endproc
 1658              	.LFE499:
 1660              		.section	.text.lv_tabview_get_anim_time,"ax",%progbits
 1661              		.align	1
 1662              		.global	lv_tabview_get_anim_time
 1663              		.syntax unified
 1664              		.thumb
 1665              		.thumb_func
 1666              		.fpu fpv4-sp-d16
 1668              	lv_tabview_get_anim_time:
ARM GAS  D:\Temp\ccnA29ZW.s 			page 60


 1669              	.LVL226:
 1670              	.LFB500:
 568:lvgl/src/lv_widgets/lv_tabview.c ****     LV_ASSERT_OBJ(tabview, LV_OBJX_NAME);
 1671              		.loc 1 568 1 is_stmt 1 view -0
 1672              		.cfi_startproc
 1673              		@ args = 0, pretend = 0, frame = 0
 1674              		@ frame_needed = 0, uses_anonymous_args = 0
 568:lvgl/src/lv_widgets/lv_tabview.c ****     LV_ASSERT_OBJ(tabview, LV_OBJX_NAME);
 1675              		.loc 1 568 1 is_stmt 0 view .LVU442
 1676 0000 10B5     		push	{r4, lr}
 1677              	.LCFI17:
 1678              		.cfi_def_cfa_offset 8
 1679              		.cfi_offset 4, -8
 1680              		.cfi_offset 14, -4
 1681 0002 0446     		mov	r4, r0
 569:lvgl/src/lv_widgets/lv_tabview.c **** 
 1682              		.loc 1 569 5 is_stmt 1 view .LVU443
 569:lvgl/src/lv_widgets/lv_tabview.c **** 
 1683              		.loc 1 569 5 view .LVU444
 1684 0004 FFF7FEFF 		bl	lv_debug_check_null
 1685              	.LVL227:
 569:lvgl/src/lv_widgets/lv_tabview.c **** 
 1686              		.loc 1 569 5 is_stmt 0 view .LVU445
 1687 0008 28B9     		cbnz	r0, .L100
 569:lvgl/src/lv_widgets/lv_tabview.c **** 
 1688              		.loc 1 569 5 is_stmt 1 discriminator 1 view .LVU446
 569:lvgl/src/lv_widgets/lv_tabview.c **** 
 1689              		.loc 1 569 5 discriminator 1 view .LVU447
 1690 000a 2246     		mov	r2, r4
 1691 000c 0023     		movs	r3, #0
 1692 000e 0448     		ldr	r0, .L103
 1693 0010 FFF7FEFF 		bl	lv_debug_log_error
 1694              	.LVL228:
 1695              	.L101:
 569:lvgl/src/lv_widgets/lv_tabview.c **** 
 1696              		.loc 1 569 5 discriminator 1 view .LVU448
 569:lvgl/src/lv_widgets/lv_tabview.c **** 
 1697              		.loc 1 569 5 discriminator 1 view .LVU449
 1698 0014 FEE7     		b	.L101
 1699              	.L100:
 569:lvgl/src/lv_widgets/lv_tabview.c **** 
 1700              		.loc 1 569 41 discriminator 2 view .LVU450
 572:lvgl/src/lv_widgets/lv_tabview.c ****     return ext->anim_time;
 1701              		.loc 1 572 5 discriminator 2 view .LVU451
 572:lvgl/src/lv_widgets/lv_tabview.c ****     return ext->anim_time;
 1702              		.loc 1 572 30 is_stmt 0 discriminator 2 view .LVU452
 1703 0016 2046     		mov	r0, r4
 1704 0018 FFF7FEFF 		bl	lv_obj_get_ext_attr
 1705              	.LVL229:
 573:lvgl/src/lv_widgets/lv_tabview.c **** #else
 1706              		.loc 1 573 5 is_stmt 1 discriminator 2 view .LVU453
 578:lvgl/src/lv_widgets/lv_tabview.c **** 
 1707              		.loc 1 578 1 is_stmt 0 discriminator 2 view .LVU454
 1708 001c 008B     		ldrh	r0, [r0, #24]
 1709              	.LVL230:
 578:lvgl/src/lv_widgets/lv_tabview.c **** 
 1710              		.loc 1 578 1 discriminator 2 view .LVU455
ARM GAS  D:\Temp\ccnA29ZW.s 			page 61


 1711 001e 10BD     		pop	{r4, pc}
 1712              	.LVL231:
 1713              	.L104:
 578:lvgl/src/lv_widgets/lv_tabview.c **** 
 1714              		.loc 1 578 1 discriminator 2 view .LVU456
 1715              		.align	2
 1716              	.L103:
 1717 0020 00000000 		.word	.LC0
 1718              		.cfi_endproc
 1719              	.LFE500:
 1721              		.section	.text.lv_tabview_set_tab_act,"ax",%progbits
 1722              		.align	1
 1723              		.global	lv_tabview_set_tab_act
 1724              		.syntax unified
 1725              		.thumb
 1726              		.thumb_func
 1727              		.fpu fpv4-sp-d16
 1729              	lv_tabview_set_tab_act:
 1730              	.LVL232:
 1731              	.LFB493:
 311:lvgl/src/lv_widgets/lv_tabview.c ****     LV_ASSERT_OBJ(tabview, LV_OBJX_NAME);
 1732              		.loc 1 311 1 is_stmt 1 view -0
 1733              		.cfi_startproc
 1734              		@ args = 0, pretend = 0, frame = 72
 1735              		@ frame_needed = 0, uses_anonymous_args = 0
 311:lvgl/src/lv_widgets/lv_tabview.c ****     LV_ASSERT_OBJ(tabview, LV_OBJX_NAME);
 1736              		.loc 1 311 1 is_stmt 0 view .LVU458
 1737 0000 2DE9F047 		push	{r4, r5, r6, r7, r8, r9, r10, lr}
 1738              	.LCFI18:
 1739              		.cfi_def_cfa_offset 32
 1740              		.cfi_offset 4, -32
 1741              		.cfi_offset 5, -28
 1742              		.cfi_offset 6, -24
 1743              		.cfi_offset 7, -20
 1744              		.cfi_offset 8, -16
 1745              		.cfi_offset 9, -12
 1746              		.cfi_offset 10, -8
 1747              		.cfi_offset 14, -4
 1748 0004 92B0     		sub	sp, sp, #72
 1749              	.LCFI19:
 1750              		.cfi_def_cfa_offset 104
 1751 0006 0646     		mov	r6, r0
 1752 0008 0F46     		mov	r7, r1
 1753 000a 9046     		mov	r8, r2
 312:lvgl/src/lv_widgets/lv_tabview.c **** 
 1754              		.loc 1 312 5 is_stmt 1 view .LVU459
 312:lvgl/src/lv_widgets/lv_tabview.c **** 
 1755              		.loc 1 312 5 view .LVU460
 1756 000c FFF7FEFF 		bl	lv_debug_check_null
 1757              	.LVL233:
 312:lvgl/src/lv_widgets/lv_tabview.c **** 
 1758              		.loc 1 312 5 is_stmt 0 view .LVU461
 1759 0010 28B9     		cbnz	r0, .L106
 312:lvgl/src/lv_widgets/lv_tabview.c **** 
 1760              		.loc 1 312 5 is_stmt 1 discriminator 1 view .LVU462
 312:lvgl/src/lv_widgets/lv_tabview.c **** 
 1761              		.loc 1 312 5 discriminator 1 view .LVU463
ARM GAS  D:\Temp\ccnA29ZW.s 			page 62


 1762 0012 3246     		mov	r2, r6
 1763 0014 0023     		movs	r3, #0
 1764 0016 7648     		ldr	r0, .L132
 1765 0018 FFF7FEFF 		bl	lv_debug_log_error
 1766              	.LVL234:
 1767              	.L107:
 312:lvgl/src/lv_widgets/lv_tabview.c **** 
 1768              		.loc 1 312 5 discriminator 1 view .LVU464
 312:lvgl/src/lv_widgets/lv_tabview.c **** 
 1769              		.loc 1 312 5 discriminator 1 view .LVU465
 1770 001c FEE7     		b	.L107
 1771              	.L106:
 312:lvgl/src/lv_widgets/lv_tabview.c **** 
 1772              		.loc 1 312 41 discriminator 2 view .LVU466
 317:lvgl/src/lv_widgets/lv_tabview.c **** 
 1773              		.loc 1 317 5 discriminator 2 view .LVU467
 317:lvgl/src/lv_widgets/lv_tabview.c **** 
 1774              		.loc 1 317 30 is_stmt 0 discriminator 2 view .LVU468
 1775 001e 3046     		mov	r0, r6
 1776 0020 FFF7FEFF 		bl	lv_obj_get_ext_attr
 1777              	.LVL235:
 1778 0024 0446     		mov	r4, r0
 1779              	.LVL236:
 319:lvgl/src/lv_widgets/lv_tabview.c **** 
 1780              		.loc 1 319 5 is_stmt 1 discriminator 2 view .LVU469
 319:lvgl/src/lv_widgets/lv_tabview.c **** 
 1781              		.loc 1 319 17 is_stmt 0 discriminator 2 view .LVU470
 1782 0026 C38A     		ldrh	r3, [r0, #22]
 319:lvgl/src/lv_widgets/lv_tabview.c **** 
 1783              		.loc 1 319 7 discriminator 2 view .LVU471
 1784 0028 BB42     		cmp	r3, r7
 1785 002a 01D8     		bhi	.L108
 319:lvgl/src/lv_widgets/lv_tabview.c **** 
 1786              		.loc 1 319 28 is_stmt 1 discriminator 1 view .LVU472
 319:lvgl/src/lv_widgets/lv_tabview.c **** 
 1787              		.loc 1 319 31 is_stmt 0 discriminator 1 view .LVU473
 1788 002c 013B     		subs	r3, r3, #1
 1789 002e 9FB2     		uxth	r7, r3
 1790              	.LVL237:
 1791              	.L108:
 321:lvgl/src/lv_widgets/lv_tabview.c **** 
 1792              		.loc 1 321 5 is_stmt 1 view .LVU474
 1793 0030 8022     		movs	r2, #128
 1794 0032 A18A     		ldrh	r1, [r4, #20]
 1795 0034 2068     		ldr	r0, [r4]
 1796              	.LVL238:
 321:lvgl/src/lv_widgets/lv_tabview.c **** 
 1797              		.loc 1 321 5 is_stmt 0 view .LVU475
 1798 0036 FFF7FEFF 		bl	lv_btnmatrix_clear_btn_ctrl
 1799              	.LVL239:
 323:lvgl/src/lv_widgets/lv_tabview.c **** 
 1800              		.loc 1 323 5 is_stmt 1 view .LVU476
 323:lvgl/src/lv_widgets/lv_tabview.c **** 
 1801              		.loc 1 323 18 is_stmt 0 view .LVU477
 1802 003a A782     		strh	r7, [r4, #20]	@ movhi
 325:lvgl/src/lv_widgets/lv_tabview.c ****         id = (ext->tab_cnt - (id + 1));
 1803              		.loc 1 325 5 is_stmt 1 view .LVU478
ARM GAS  D:\Temp\ccnA29ZW.s 			page 63


 325:lvgl/src/lv_widgets/lv_tabview.c ****         id = (ext->tab_cnt - (id + 1));
 1804              		.loc 1 325 8 is_stmt 0 view .LVU479
 1805 003c 3046     		mov	r0, r6
 1806 003e FFF7FEFF 		bl	lv_obj_get_base_dir
 1807              	.LVL240:
 325:lvgl/src/lv_widgets/lv_tabview.c ****         id = (ext->tab_cnt - (id + 1));
 1808              		.loc 1 325 7 view .LVU480
 1809 0042 0128     		cmp	r0, #1
 1810 0044 34D0     		beq	.L131
 1811              	.L109:
 329:lvgl/src/lv_widgets/lv_tabview.c ****     lv_style_int_t scrl_inner = lv_obj_get_style_pad_inner(ext->content, LV_PAGE_PART_SCROLLABLE);
 1812              		.loc 1 329 5 is_stmt 1 view .LVU481
 330:lvgl/src/lv_widgets/lv_tabview.c ****     lv_style_int_t scrl_left = lv_obj_get_style_pad_left(ext->content, LV_PAGE_PART_SCROLLABLE);
 1813              		.loc 1 330 5 view .LVU482
 1814              	.LVL241:
 1815              	.LBB116:
 1816              	.LBI116:
 114:lvgl/src/lv_widgets/../lv_core/lv_obj_style_dec.h **** _LV_OBJ_STYLE_SET_GET_DECLARE(MARGIN_TOP, margin_top, lv_style_int_t, _int, scalar)
 1817              		.loc 2 114 1 view .LVU483
 1818              	.LBB117:
 114:lvgl/src/lv_widgets/../lv_core/lv_obj_style_dec.h **** _LV_OBJ_STYLE_SET_GET_DECLARE(MARGIN_TOP, margin_top, lv_style_int_t, _int, scalar)
 1819              		.loc 2 114 1 view .LVU484
 1820 0046 1422     		movs	r2, #20
 1821 0048 4021     		movs	r1, #64
 1822 004a A068     		ldr	r0, [r4, #8]
 1823 004c FFF7FEFF 		bl	_lv_obj_get_style_int
 1824              	.LVL242:
 114:lvgl/src/lv_widgets/../lv_core/lv_obj_style_dec.h **** _LV_OBJ_STYLE_SET_GET_DECLARE(MARGIN_TOP, margin_top, lv_style_int_t, _int, scalar)
 1825              		.loc 2 114 1 is_stmt 0 view .LVU485
 1826 0050 8246     		mov	r10, r0
 1827              	.LVL243:
 114:lvgl/src/lv_widgets/../lv_core/lv_obj_style_dec.h **** _LV_OBJ_STYLE_SET_GET_DECLARE(MARGIN_TOP, margin_top, lv_style_int_t, _int, scalar)
 1828              		.loc 2 114 1 view .LVU486
 1829              	.LBE117:
 1830              	.LBE116:
 331:lvgl/src/lv_widgets/lv_tabview.c **** 
 1831              		.loc 1 331 5 is_stmt 1 view .LVU487
 1832              	.LBB118:
 1833              	.LBI118:
 112:lvgl/src/lv_widgets/../lv_core/lv_obj_style_dec.h **** _LV_OBJ_STYLE_SET_GET_DECLARE(PAD_RIGHT, pad_right, lv_style_int_t, _int, scalar)
 1834              		.loc 2 112 1 view .LVU488
 1835              	.LBB119:
 112:lvgl/src/lv_widgets/../lv_core/lv_obj_style_dec.h **** _LV_OBJ_STYLE_SET_GET_DECLARE(PAD_RIGHT, pad_right, lv_style_int_t, _int, scalar)
 1836              		.loc 2 112 1 view .LVU489
 1837 0052 1222     		movs	r2, #18
 1838 0054 4021     		movs	r1, #64
 1839 0056 A068     		ldr	r0, [r4, #8]
 1840 0058 FFF7FEFF 		bl	_lv_obj_get_style_int
 1841              	.LVL244:
 112:lvgl/src/lv_widgets/../lv_core/lv_obj_style_dec.h **** _LV_OBJ_STYLE_SET_GET_DECLARE(PAD_RIGHT, pad_right, lv_style_int_t, _int, scalar)
 1842              		.loc 2 112 1 is_stmt 0 view .LVU490
 1843 005c 8146     		mov	r9, r0
 1844              	.LVL245:
 112:lvgl/src/lv_widgets/../lv_core/lv_obj_style_dec.h **** _LV_OBJ_STYLE_SET_GET_DECLARE(PAD_RIGHT, pad_right, lv_style_int_t, _int, scalar)
 1845              		.loc 2 112 1 view .LVU491
 1846              	.LBE119:
 1847              	.LBE118:
ARM GAS  D:\Temp\ccnA29ZW.s 			page 64


 333:lvgl/src/lv_widgets/lv_tabview.c ****         default: /*default case is prevented in lv_tabview_set_btns_pos(), but here for safety*/
 1848              		.loc 1 333 5 is_stmt 1 view .LVU492
 333:lvgl/src/lv_widgets/lv_tabview.c ****         default: /*default case is prevented in lv_tabview_set_btns_pos(), but here for safety*/
 1849              		.loc 1 333 15 is_stmt 0 view .LVU493
 1850 005e A37E     		ldrb	r3, [r4, #26]	@ zero_extendqisi2
 1851 0060 03F00703 		and	r3, r3, #7
 333:lvgl/src/lv_widgets/lv_tabview.c ****         default: /*default case is prevented in lv_tabview_set_btns_pos(), but here for safety*/
 1852              		.loc 1 333 5 view .LVU494
 1853 0064 033B     		subs	r3, r3, #3
 1854 0066 012B     		cmp	r3, #1
 1855 0068 28D9     		bls	.L110
 338:lvgl/src/lv_widgets/lv_tabview.c ****             break;
 1856              		.loc 1 338 13 is_stmt 1 view .LVU495
 338:lvgl/src/lv_widgets/lv_tabview.c ****             break;
 1857              		.loc 1 338 24 is_stmt 0 view .LVU496
 1858 006a 3046     		mov	r0, r6
 1859 006c FFF7FEFF 		bl	lv_obj_get_width
 1860              	.LVL246:
 338:lvgl/src/lv_widgets/lv_tabview.c ****             break;
 1861              		.loc 1 338 55 view .LVU497
 1862 0070 00EB0A05 		add	r5, r0, r10
 1863 0074 15FB07F5 		smulbb	r5, r5, r7
 338:lvgl/src/lv_widgets/lv_tabview.c ****             break;
 1864              		.loc 1 338 73 view .LVU498
 1865 0078 19FA85F5 		uxtah	r5, r9, r5
 1866 007c ADB2     		uxth	r5, r5
 338:lvgl/src/lv_widgets/lv_tabview.c ****             break;
 1867              		.loc 1 338 20 view .LVU499
 1868 007e 6D42     		rsbs	r5, r5, #0
 1869 0080 2DB2     		sxth	r5, r5
 1870              	.LVL247:
 339:lvgl/src/lv_widgets/lv_tabview.c ****         case LV_TABVIEW_TAB_POS_LEFT:
 1871              		.loc 1 339 13 is_stmt 1 view .LVU500
 1872              	.L111:
 346:lvgl/src/lv_widgets/lv_tabview.c ****         lv_obj_set_x(lv_page_get_scrollable(ext->content), cont_x);
 1873              		.loc 1 346 5 view .LVU501
 346:lvgl/src/lv_widgets/lv_tabview.c ****         lv_obj_set_x(lv_page_get_scrollable(ext->content), cont_x);
 1874              		.loc 1 346 7 is_stmt 0 view .LVU502
 1875 0082 B8F1000F 		cmp	r8, #0
 1876 0086 03D0     		beq	.L112
 346:lvgl/src/lv_widgets/lv_tabview.c ****         lv_obj_set_x(lv_page_get_scrollable(ext->content), cont_x);
 1877              		.loc 1 346 31 discriminator 1 view .LVU503
 1878 0088 3046     		mov	r0, r6
 1879 008a FFF7FEFF 		bl	lv_tabview_get_anim_time
 1880              	.LVL248:
 346:lvgl/src/lv_widgets/lv_tabview.c ****         lv_obj_set_x(lv_page_get_scrollable(ext->content), cont_x);
 1881              		.loc 1 346 28 discriminator 1 view .LVU504
 1882 008e 30BB     		cbnz	r0, .L113
 1883              	.L112:
 347:lvgl/src/lv_widgets/lv_tabview.c ****     }
 1884              		.loc 1 347 9 is_stmt 1 view .LVU505
 1885 0090 A068     		ldr	r0, [r4, #8]
 1886 0092 FFF7FEFF 		bl	lv_page_get_scrollable
 1887              	.LVL249:
 1888 0096 2946     		mov	r1, r5
 1889 0098 FFF7FEFF 		bl	lv_obj_set_x
 1890              	.LVL250:
ARM GAS  D:\Temp\ccnA29ZW.s 			page 65


 1891              	.L114:
 362:lvgl/src/lv_widgets/lv_tabview.c ****     lv_coord_t indic_pos = 0; /*silence uninitialized variable warning*/;
 1892              		.loc 1 362 5 view .LVU506
 363:lvgl/src/lv_widgets/lv_tabview.c **** 
 1893              		.loc 1 363 5 view .LVU507
 363:lvgl/src/lv_widgets/lv_tabview.c **** 
 1894              		.loc 1 363 73 view .LVU508
 365:lvgl/src/lv_widgets/lv_tabview.c ****     lv_style_int_t btns_bg_left = 0;
 1895              		.loc 1 365 5 view .LVU509
 366:lvgl/src/lv_widgets/lv_tabview.c ****     lv_style_int_t btns_bg_top = 0;
 1896              		.loc 1 366 5 view .LVU510
 367:lvgl/src/lv_widgets/lv_tabview.c **** 
 1897              		.loc 1 367 5 view .LVU511
 369:lvgl/src/lv_widgets/lv_tabview.c ****         default: /*default case is prevented in lv_tabview_set_btns_pos(), but here for safety*/
 1898              		.loc 1 369 5 view .LVU512
 369:lvgl/src/lv_widgets/lv_tabview.c ****         default: /*default case is prevented in lv_tabview_set_btns_pos(), but here for safety*/
 1899              		.loc 1 369 15 is_stmt 0 view .LVU513
 1900 009c A37E     		ldrb	r3, [r4, #26]	@ zero_extendqisi2
 1901 009e 03F00703 		and	r3, r3, #7
 369:lvgl/src/lv_widgets/lv_tabview.c ****         default: /*default case is prevented in lv_tabview_set_btns_pos(), but here for safety*/
 1902              		.loc 1 369 5 view .LVU514
 1903 00a2 013B     		subs	r3, r3, #1
 1904 00a4 032B     		cmp	r3, #3
 1905 00a6 69D8     		bhi	.L129
 1906 00a8 DFE803F0 		tbb	[pc, r3]
 1907              	.L117:
 1908 00ac 30       		.byte	(.L118-.L117)/2
 1909 00ad 30       		.byte	(.L118-.L117)/2
 1910 00ae 54       		.byte	(.L116-.L117)/2
 1911 00af 54       		.byte	(.L116-.L117)/2
 1912              	.LVL251:
 1913              		.p2align 1
 1914              	.L131:
 326:lvgl/src/lv_widgets/lv_tabview.c ****     }
 1915              		.loc 1 326 9 is_stmt 1 view .LVU515
 326:lvgl/src/lv_widgets/lv_tabview.c ****     }
 1916              		.loc 1 326 18 is_stmt 0 view .LVU516
 1917 00b0 E38A     		ldrh	r3, [r4, #22]
 326:lvgl/src/lv_widgets/lv_tabview.c ****     }
 1918              		.loc 1 326 28 view .LVU517
 1919 00b2 DF1B     		subs	r7, r3, r7
 1920              	.LVL252:
 326:lvgl/src/lv_widgets/lv_tabview.c ****     }
 1921              		.loc 1 326 28 view .LVU518
 1922 00b4 BFB2     		uxth	r7, r7
 326:lvgl/src/lv_widgets/lv_tabview.c ****     }
 1923              		.loc 1 326 12 view .LVU519
 1924 00b6 013F     		subs	r7, r7, #1
 1925 00b8 BFB2     		uxth	r7, r7
 1926              	.LVL253:
 326:lvgl/src/lv_widgets/lv_tabview.c ****     }
 1927              		.loc 1 326 12 view .LVU520
 1928 00ba C4E7     		b	.L109
 1929              	.LVL254:
 1930              	.L110:
 342:lvgl/src/lv_widgets/lv_tabview.c ****             break;
 1931              		.loc 1 342 13 is_stmt 1 view .LVU521
ARM GAS  D:\Temp\ccnA29ZW.s 			page 66


 342:lvgl/src/lv_widgets/lv_tabview.c ****             break;
 1932              		.loc 1 342 25 is_stmt 0 view .LVU522
 1933 00bc 3046     		mov	r0, r6
 1934 00be FFF7FEFF 		bl	lv_obj_get_width
 1935              	.LVL255:
 1936 00c2 0546     		mov	r5, r0
 342:lvgl/src/lv_widgets/lv_tabview.c ****             break;
 1937              		.loc 1 342 53 view .LVU523
 1938 00c4 2068     		ldr	r0, [r4]
 1939 00c6 FFF7FEFF 		bl	lv_obj_get_width
 1940              	.LVL256:
 342:lvgl/src/lv_widgets/lv_tabview.c ****             break;
 1941              		.loc 1 342 51 view .LVU524
 1942 00ca 2D1A     		subs	r5, r5, r0
 342:lvgl/src/lv_widgets/lv_tabview.c ****             break;
 1943              		.loc 1 342 87 view .LVU525
 1944 00cc 5544     		add	r5, r5, r10
 1945 00ce 15FB07F5 		smulbb	r5, r5, r7
 342:lvgl/src/lv_widgets/lv_tabview.c ****             break;
 1946              		.loc 1 342 105 view .LVU526
 1947 00d2 19FA85F5 		uxtah	r5, r9, r5
 1948 00d6 ADB2     		uxth	r5, r5
 342:lvgl/src/lv_widgets/lv_tabview.c ****             break;
 1949              		.loc 1 342 20 view .LVU527
 1950 00d8 6D42     		rsbs	r5, r5, #0
 1951 00da 2DB2     		sxth	r5, r5
 1952              	.LVL257:
 343:lvgl/src/lv_widgets/lv_tabview.c ****     }
 1953              		.loc 1 343 13 is_stmt 1 view .LVU528
 1954 00dc D1E7     		b	.L111
 1955              	.L113:
 1956              	.LBB120:
 351:lvgl/src/lv_widgets/lv_tabview.c ****         lv_anim_init(&a);
 1957              		.loc 1 351 9 view .LVU529
 352:lvgl/src/lv_widgets/lv_tabview.c ****         lv_anim_set_var(&a, lv_page_get_scrollable(ext->content));
 1958              		.loc 1 352 9 view .LVU530
 1959 00de 01A8     		add	r0, sp, #4
 1960 00e0 FFF7FEFF 		bl	lv_anim_init
 1961              	.LVL258:
 353:lvgl/src/lv_widgets/lv_tabview.c ****         lv_anim_set_exec_cb(&a, (lv_anim_exec_xcb_t)lv_obj_set_x);
 1962              		.loc 1 353 9 view .LVU531
 353:lvgl/src/lv_widgets/lv_tabview.c ****         lv_anim_set_exec_cb(&a, (lv_anim_exec_xcb_t)lv_obj_set_x);
 1963              		.loc 1 353 29 is_stmt 0 view .LVU532
 1964 00e4 A068     		ldr	r0, [r4, #8]
 1965 00e6 FFF7FEFF 		bl	lv_page_get_scrollable
 1966              	.LVL259:
 1967              	.LBB121:
 1968              	.LBI121:
 1969              		.file 5 "lvgl/src/lv_widgets/../lv_core/../lv_misc/lv_anim.h"
   1:lvgl/src/lv_widgets/../lv_core/../lv_misc/lv_anim.h **** /**
   2:lvgl/src/lv_widgets/../lv_core/../lv_misc/lv_anim.h ****  * @file anim.h
   3:lvgl/src/lv_widgets/../lv_core/../lv_misc/lv_anim.h ****  *
   4:lvgl/src/lv_widgets/../lv_core/../lv_misc/lv_anim.h ****  */
   5:lvgl/src/lv_widgets/../lv_core/../lv_misc/lv_anim.h **** 
   6:lvgl/src/lv_widgets/../lv_core/../lv_misc/lv_anim.h **** #ifndef ANIM_H
   7:lvgl/src/lv_widgets/../lv_core/../lv_misc/lv_anim.h **** #define ANIM_H
   8:lvgl/src/lv_widgets/../lv_core/../lv_misc/lv_anim.h **** 
ARM GAS  D:\Temp\ccnA29ZW.s 			page 67


   9:lvgl/src/lv_widgets/../lv_core/../lv_misc/lv_anim.h **** #ifdef __cplusplus
  10:lvgl/src/lv_widgets/../lv_core/../lv_misc/lv_anim.h **** extern "C" {
  11:lvgl/src/lv_widgets/../lv_core/../lv_misc/lv_anim.h **** #endif
  12:lvgl/src/lv_widgets/../lv_core/../lv_misc/lv_anim.h **** 
  13:lvgl/src/lv_widgets/../lv_core/../lv_misc/lv_anim.h **** /*********************
  14:lvgl/src/lv_widgets/../lv_core/../lv_misc/lv_anim.h ****  *      INCLUDES
  15:lvgl/src/lv_widgets/../lv_core/../lv_misc/lv_anim.h ****  *********************/
  16:lvgl/src/lv_widgets/../lv_core/../lv_misc/lv_anim.h **** #include "../lv_conf_internal.h"
  17:lvgl/src/lv_widgets/../lv_core/../lv_misc/lv_anim.h **** 
  18:lvgl/src/lv_widgets/../lv_core/../lv_misc/lv_anim.h **** #include <stdint.h>
  19:lvgl/src/lv_widgets/../lv_core/../lv_misc/lv_anim.h **** #include <stdbool.h>
  20:lvgl/src/lv_widgets/../lv_core/../lv_misc/lv_anim.h **** #include <string.h>
  21:lvgl/src/lv_widgets/../lv_core/../lv_misc/lv_anim.h **** #include "lv_mem.h"
  22:lvgl/src/lv_widgets/../lv_core/../lv_misc/lv_anim.h **** 
  23:lvgl/src/lv_widgets/../lv_core/../lv_misc/lv_anim.h **** /*********************
  24:lvgl/src/lv_widgets/../lv_core/../lv_misc/lv_anim.h ****  *      DEFINES
  25:lvgl/src/lv_widgets/../lv_core/../lv_misc/lv_anim.h ****  *********************/
  26:lvgl/src/lv_widgets/../lv_core/../lv_misc/lv_anim.h **** 
  27:lvgl/src/lv_widgets/../lv_core/../lv_misc/lv_anim.h **** /**********************
  28:lvgl/src/lv_widgets/../lv_core/../lv_misc/lv_anim.h ****  *      TYPEDEFS
  29:lvgl/src/lv_widgets/../lv_core/../lv_misc/lv_anim.h ****  **********************/
  30:lvgl/src/lv_widgets/../lv_core/../lv_misc/lv_anim.h **** 
  31:lvgl/src/lv_widgets/../lv_core/../lv_misc/lv_anim.h **** /** Can be used to indicate if animations are enabled or disabled in a case*/
  32:lvgl/src/lv_widgets/../lv_core/../lv_misc/lv_anim.h **** enum {
  33:lvgl/src/lv_widgets/../lv_core/../lv_misc/lv_anim.h ****     LV_ANIM_OFF,
  34:lvgl/src/lv_widgets/../lv_core/../lv_misc/lv_anim.h ****     LV_ANIM_ON,
  35:lvgl/src/lv_widgets/../lv_core/../lv_misc/lv_anim.h **** };
  36:lvgl/src/lv_widgets/../lv_core/../lv_misc/lv_anim.h **** 
  37:lvgl/src/lv_widgets/../lv_core/../lv_misc/lv_anim.h **** typedef uint8_t lv_anim_enable_t;
  38:lvgl/src/lv_widgets/../lv_core/../lv_misc/lv_anim.h **** 
  39:lvgl/src/lv_widgets/../lv_core/../lv_misc/lv_anim.h **** /** Type of the animated value*/
  40:lvgl/src/lv_widgets/../lv_core/../lv_misc/lv_anim.h **** typedef lv_coord_t lv_anim_value_t;
  41:lvgl/src/lv_widgets/../lv_core/../lv_misc/lv_anim.h **** 
  42:lvgl/src/lv_widgets/../lv_core/../lv_misc/lv_anim.h **** #if LV_USE_ANIMATION
  43:lvgl/src/lv_widgets/../lv_core/../lv_misc/lv_anim.h **** 
  44:lvgl/src/lv_widgets/../lv_core/../lv_misc/lv_anim.h **** #define LV_ANIM_REPEAT_INFINITE      0xFFFF
  45:lvgl/src/lv_widgets/../lv_core/../lv_misc/lv_anim.h **** 
  46:lvgl/src/lv_widgets/../lv_core/../lv_misc/lv_anim.h **** struct _lv_anim_t;
  47:lvgl/src/lv_widgets/../lv_core/../lv_misc/lv_anim.h **** struct _lv_anim_path_t;
  48:lvgl/src/lv_widgets/../lv_core/../lv_misc/lv_anim.h **** /** Get the current value during an animation*/
  49:lvgl/src/lv_widgets/../lv_core/../lv_misc/lv_anim.h **** typedef lv_anim_value_t (*lv_anim_path_cb_t)(const struct _lv_anim_path_t *, const struct _lv_anim_
  50:lvgl/src/lv_widgets/../lv_core/../lv_misc/lv_anim.h **** 
  51:lvgl/src/lv_widgets/../lv_core/../lv_misc/lv_anim.h **** typedef struct _lv_anim_path_t {
  52:lvgl/src/lv_widgets/../lv_core/../lv_misc/lv_anim.h ****     lv_anim_path_cb_t cb;
  53:lvgl/src/lv_widgets/../lv_core/../lv_misc/lv_anim.h ****     void * user_data;
  54:lvgl/src/lv_widgets/../lv_core/../lv_misc/lv_anim.h **** } lv_anim_path_t;
  55:lvgl/src/lv_widgets/../lv_core/../lv_misc/lv_anim.h **** 
  56:lvgl/src/lv_widgets/../lv_core/../lv_misc/lv_anim.h **** /** Generic prototype of "animator" functions.
  57:lvgl/src/lv_widgets/../lv_core/../lv_misc/lv_anim.h ****  * First parameter is the variable to animate.
  58:lvgl/src/lv_widgets/../lv_core/../lv_misc/lv_anim.h ****  * Second parameter is the value to set.
  59:lvgl/src/lv_widgets/../lv_core/../lv_misc/lv_anim.h ****  * Compatible with `lv_xxx_set_yyy(obj, value)` functions
  60:lvgl/src/lv_widgets/../lv_core/../lv_misc/lv_anim.h ****  * The `x` in `_xcb_t` means its not a fully generic prototype because
  61:lvgl/src/lv_widgets/../lv_core/../lv_misc/lv_anim.h ****  * it doesn't receive `lv_anim_t *` as its first argument*/
  62:lvgl/src/lv_widgets/../lv_core/../lv_misc/lv_anim.h **** typedef void (*lv_anim_exec_xcb_t)(void *, lv_anim_value_t);
  63:lvgl/src/lv_widgets/../lv_core/../lv_misc/lv_anim.h **** 
  64:lvgl/src/lv_widgets/../lv_core/../lv_misc/lv_anim.h **** /** Same as `lv_anim_exec_xcb_t` but receives `lv_anim_t *` as the first parameter.
  65:lvgl/src/lv_widgets/../lv_core/../lv_misc/lv_anim.h ****  * It's more consistent but less convenient. Might be used by binding generator functions.*/
ARM GAS  D:\Temp\ccnA29ZW.s 			page 68


  66:lvgl/src/lv_widgets/../lv_core/../lv_misc/lv_anim.h **** typedef void (*lv_anim_custom_exec_cb_t)(struct _lv_anim_t *, lv_anim_value_t);
  67:lvgl/src/lv_widgets/../lv_core/../lv_misc/lv_anim.h **** 
  68:lvgl/src/lv_widgets/../lv_core/../lv_misc/lv_anim.h **** /** Callback to call when the animation is ready*/
  69:lvgl/src/lv_widgets/../lv_core/../lv_misc/lv_anim.h **** typedef void (*lv_anim_ready_cb_t)(struct _lv_anim_t *);
  70:lvgl/src/lv_widgets/../lv_core/../lv_misc/lv_anim.h **** 
  71:lvgl/src/lv_widgets/../lv_core/../lv_misc/lv_anim.h **** /** Callback to call when the animation really stars (considering `delay`)*/
  72:lvgl/src/lv_widgets/../lv_core/../lv_misc/lv_anim.h **** typedef void (*lv_anim_start_cb_t)(struct _lv_anim_t *);
  73:lvgl/src/lv_widgets/../lv_core/../lv_misc/lv_anim.h **** 
  74:lvgl/src/lv_widgets/../lv_core/../lv_misc/lv_anim.h **** /** Describes an animation*/
  75:lvgl/src/lv_widgets/../lv_core/../lv_misc/lv_anim.h **** typedef struct _lv_anim_t {
  76:lvgl/src/lv_widgets/../lv_core/../lv_misc/lv_anim.h ****     void * var;                  /**<Variable to animate*/
  77:lvgl/src/lv_widgets/../lv_core/../lv_misc/lv_anim.h ****     lv_anim_exec_xcb_t exec_cb;   /**< Function to execute to animate*/
  78:lvgl/src/lv_widgets/../lv_core/../lv_misc/lv_anim.h ****     lv_anim_start_cb_t start_cb; /**< Call it when the animation is starts (considering `delay`)*/
  79:lvgl/src/lv_widgets/../lv_core/../lv_misc/lv_anim.h ****     lv_anim_ready_cb_t ready_cb; /**< Call it when the animation is ready*/
  80:lvgl/src/lv_widgets/../lv_core/../lv_misc/lv_anim.h ****     lv_anim_path_t path;         /**< Describe the path (curve) of animations*/
  81:lvgl/src/lv_widgets/../lv_core/../lv_misc/lv_anim.h ****     int32_t start;               /**< Start value*/
  82:lvgl/src/lv_widgets/../lv_core/../lv_misc/lv_anim.h ****     int32_t current;             /**< Current value */
  83:lvgl/src/lv_widgets/../lv_core/../lv_misc/lv_anim.h ****     int32_t end;                 /**< End value*/
  84:lvgl/src/lv_widgets/../lv_core/../lv_misc/lv_anim.h ****     int32_t time;               /**< Animation time in ms*/
  85:lvgl/src/lv_widgets/../lv_core/../lv_misc/lv_anim.h ****     int32_t act_time;            /**< Current time in animation. Set to negative to make delay.*/
  86:lvgl/src/lv_widgets/../lv_core/../lv_misc/lv_anim.h ****     uint32_t playback_delay;     /**< Wait before play back*/
  87:lvgl/src/lv_widgets/../lv_core/../lv_misc/lv_anim.h ****     uint32_t playback_time;      /**< Duration of playback animation*/
  88:lvgl/src/lv_widgets/../lv_core/../lv_misc/lv_anim.h ****     uint32_t repeat_delay;       /**< Wait before repeat*/
  89:lvgl/src/lv_widgets/../lv_core/../lv_misc/lv_anim.h ****     uint16_t repeat_cnt;         /**< Repeat count for the animation*/
  90:lvgl/src/lv_widgets/../lv_core/../lv_misc/lv_anim.h ****     uint8_t early_apply  : 1;    /**< 1: Apply start value immediately even is there is `delay` */
  91:lvgl/src/lv_widgets/../lv_core/../lv_misc/lv_anim.h **** #if LV_USE_USER_DATA
  92:lvgl/src/lv_widgets/../lv_core/../lv_misc/lv_anim.h ****     lv_anim_user_data_t user_data; /**< Custom user data*/
  93:lvgl/src/lv_widgets/../lv_core/../lv_misc/lv_anim.h **** #endif
  94:lvgl/src/lv_widgets/../lv_core/../lv_misc/lv_anim.h **** 
  95:lvgl/src/lv_widgets/../lv_core/../lv_misc/lv_anim.h ****     /*Animation system use these - user shouldn't set*/
  96:lvgl/src/lv_widgets/../lv_core/../lv_misc/lv_anim.h ****     uint32_t time_orig;
  97:lvgl/src/lv_widgets/../lv_core/../lv_misc/lv_anim.h ****     uint8_t playback_now : 1; /**< Play back is in progress*/
  98:lvgl/src/lv_widgets/../lv_core/../lv_misc/lv_anim.h ****     uint32_t has_run : 1;     /**< Indicates the animation has run in this round*/
  99:lvgl/src/lv_widgets/../lv_core/../lv_misc/lv_anim.h **** } lv_anim_t;
 100:lvgl/src/lv_widgets/../lv_core/../lv_misc/lv_anim.h **** 
 101:lvgl/src/lv_widgets/../lv_core/../lv_misc/lv_anim.h **** /**********************
 102:lvgl/src/lv_widgets/../lv_core/../lv_misc/lv_anim.h ****  * GLOBAL PROTOTYPES
 103:lvgl/src/lv_widgets/../lv_core/../lv_misc/lv_anim.h ****  **********************/
 104:lvgl/src/lv_widgets/../lv_core/../lv_misc/lv_anim.h **** 
 105:lvgl/src/lv_widgets/../lv_core/../lv_misc/lv_anim.h **** /**
 106:lvgl/src/lv_widgets/../lv_core/../lv_misc/lv_anim.h ****  * Init. the animation module
 107:lvgl/src/lv_widgets/../lv_core/../lv_misc/lv_anim.h ****  */
 108:lvgl/src/lv_widgets/../lv_core/../lv_misc/lv_anim.h **** void _lv_anim_core_init(void);
 109:lvgl/src/lv_widgets/../lv_core/../lv_misc/lv_anim.h **** 
 110:lvgl/src/lv_widgets/../lv_core/../lv_misc/lv_anim.h **** /**
 111:lvgl/src/lv_widgets/../lv_core/../lv_misc/lv_anim.h ****  * Initialize an animation variable.
 112:lvgl/src/lv_widgets/../lv_core/../lv_misc/lv_anim.h ****  * E.g.:
 113:lvgl/src/lv_widgets/../lv_core/../lv_misc/lv_anim.h ****  * lv_anim_t a;
 114:lvgl/src/lv_widgets/../lv_core/../lv_misc/lv_anim.h ****  * lv_anim_init(&a);
 115:lvgl/src/lv_widgets/../lv_core/../lv_misc/lv_anim.h ****  * lv_anim_set_...(&a);
 116:lvgl/src/lv_widgets/../lv_core/../lv_misc/lv_anim.h ****  * @param a pointer to an `lv_anim_t` variable to initialize
 117:lvgl/src/lv_widgets/../lv_core/../lv_misc/lv_anim.h ****  */
 118:lvgl/src/lv_widgets/../lv_core/../lv_misc/lv_anim.h **** void lv_anim_init(lv_anim_t * a);
 119:lvgl/src/lv_widgets/../lv_core/../lv_misc/lv_anim.h **** 
 120:lvgl/src/lv_widgets/../lv_core/../lv_misc/lv_anim.h **** /**
 121:lvgl/src/lv_widgets/../lv_core/../lv_misc/lv_anim.h ****  * Set a variable to animate
 122:lvgl/src/lv_widgets/../lv_core/../lv_misc/lv_anim.h ****  * @param a pointer to an initialized `lv_anim_t` variable
ARM GAS  D:\Temp\ccnA29ZW.s 			page 69


 123:lvgl/src/lv_widgets/../lv_core/../lv_misc/lv_anim.h ****  * @param var pointer to a variable to animate
 124:lvgl/src/lv_widgets/../lv_core/../lv_misc/lv_anim.h ****  */
 125:lvgl/src/lv_widgets/../lv_core/../lv_misc/lv_anim.h **** static inline void lv_anim_set_var(lv_anim_t * a, void * var)
 1970              		.loc 5 125 20 is_stmt 1 view .LVU533
 1971              	.LBB122:
 126:lvgl/src/lv_widgets/../lv_core/../lv_misc/lv_anim.h **** {
 127:lvgl/src/lv_widgets/../lv_core/../lv_misc/lv_anim.h ****     a->var     = var;
 1972              		.loc 5 127 5 view .LVU534
 1973              		.loc 5 127 16 is_stmt 0 view .LVU535
 1974 00ea 0190     		str	r0, [sp, #4]
 1975              	.LVL260:
 1976              		.loc 5 127 16 view .LVU536
 1977              	.LBE122:
 1978              	.LBE121:
 354:lvgl/src/lv_widgets/lv_tabview.c ****         lv_anim_set_values(&a, lv_obj_get_x(lv_page_get_scrollable(ext->content)), cont_x);
 1979              		.loc 1 354 9 is_stmt 1 view .LVU537
 1980              	.LBB123:
 1981              	.LBI123:
 128:lvgl/src/lv_widgets/../lv_core/../lv_misc/lv_anim.h **** }
 129:lvgl/src/lv_widgets/../lv_core/../lv_misc/lv_anim.h **** 
 130:lvgl/src/lv_widgets/../lv_core/../lv_misc/lv_anim.h **** /**
 131:lvgl/src/lv_widgets/../lv_core/../lv_misc/lv_anim.h ****  * Set a function to animate `var`
 132:lvgl/src/lv_widgets/../lv_core/../lv_misc/lv_anim.h ****  * @param a pointer to an initialized `lv_anim_t` variable
 133:lvgl/src/lv_widgets/../lv_core/../lv_misc/lv_anim.h ****  * @param exec_cb a function to execute during animation
 134:lvgl/src/lv_widgets/../lv_core/../lv_misc/lv_anim.h ****  *                LittelvGL's built-in functions can be used.
 135:lvgl/src/lv_widgets/../lv_core/../lv_misc/lv_anim.h ****  *                E.g. lv_obj_set_x
 136:lvgl/src/lv_widgets/../lv_core/../lv_misc/lv_anim.h ****  */
 137:lvgl/src/lv_widgets/../lv_core/../lv_misc/lv_anim.h **** static inline void lv_anim_set_exec_cb(lv_anim_t * a, lv_anim_exec_xcb_t exec_cb)
 1982              		.loc 5 137 20 view .LVU538
 1983              	.LBB124:
 138:lvgl/src/lv_widgets/../lv_core/../lv_misc/lv_anim.h **** {
 139:lvgl/src/lv_widgets/../lv_core/../lv_misc/lv_anim.h ****     a->exec_cb = exec_cb;
 1984              		.loc 5 139 5 view .LVU539
 1985              		.loc 5 139 16 is_stmt 0 view .LVU540
 1986 00ec 414B     		ldr	r3, .L132+4
 1987 00ee 0293     		str	r3, [sp, #8]
 1988              	.LVL261:
 1989              		.loc 5 139 16 view .LVU541
 1990              	.LBE124:
 1991              	.LBE123:
 355:lvgl/src/lv_widgets/lv_tabview.c ****         lv_anim_set_time(&a, ext->anim_time);
 1992              		.loc 1 355 9 is_stmt 1 view .LVU542
 355:lvgl/src/lv_widgets/lv_tabview.c ****         lv_anim_set_time(&a, ext->anim_time);
 1993              		.loc 1 355 45 is_stmt 0 view .LVU543
 1994 00f0 A068     		ldr	r0, [r4, #8]
 1995 00f2 FFF7FEFF 		bl	lv_page_get_scrollable
 1996              	.LVL262:
 355:lvgl/src/lv_widgets/lv_tabview.c ****         lv_anim_set_time(&a, ext->anim_time);
 1997              		.loc 1 355 9 view .LVU544
 1998 00f6 FFF7FEFF 		bl	lv_obj_get_x
 1999              	.LVL263:
 2000              	.LBB125:
 2001              	.LBI125:
 140:lvgl/src/lv_widgets/../lv_core/../lv_misc/lv_anim.h **** }
 141:lvgl/src/lv_widgets/../lv_core/../lv_misc/lv_anim.h **** 
 142:lvgl/src/lv_widgets/../lv_core/../lv_misc/lv_anim.h **** /**
 143:lvgl/src/lv_widgets/../lv_core/../lv_misc/lv_anim.h ****  * Set the duration of an animation
ARM GAS  D:\Temp\ccnA29ZW.s 			page 70


 144:lvgl/src/lv_widgets/../lv_core/../lv_misc/lv_anim.h ****  * @param a pointer to an initialized `lv_anim_t` variable
 145:lvgl/src/lv_widgets/../lv_core/../lv_misc/lv_anim.h ****  * @param duration duration of the animation in milliseconds
 146:lvgl/src/lv_widgets/../lv_core/../lv_misc/lv_anim.h ****  */
 147:lvgl/src/lv_widgets/../lv_core/../lv_misc/lv_anim.h **** static inline void lv_anim_set_time(lv_anim_t * a, uint32_t duration)
 148:lvgl/src/lv_widgets/../lv_core/../lv_misc/lv_anim.h **** {
 149:lvgl/src/lv_widgets/../lv_core/../lv_misc/lv_anim.h ****     a->time     = duration;
 150:lvgl/src/lv_widgets/../lv_core/../lv_misc/lv_anim.h **** }
 151:lvgl/src/lv_widgets/../lv_core/../lv_misc/lv_anim.h **** 
 152:lvgl/src/lv_widgets/../lv_core/../lv_misc/lv_anim.h **** /**
 153:lvgl/src/lv_widgets/../lv_core/../lv_misc/lv_anim.h ****  * Set a delay before starting the animation
