ARM GAS  D:\Temp\cclc1fSW.s 			page 1


   1              		.cpu cortex-m4
   2              		.eabi_attribute 27, 1
   3              		.eabi_attribute 28, 1
   4              		.eabi_attribute 20, 1
   5              		.eabi_attribute 21, 1
   6              		.eabi_attribute 23, 3
   7              		.eabi_attribute 24, 1
   8              		.eabi_attribute 25, 1
   9              		.eabi_attribute 26, 1
  10              		.eabi_attribute 30, 1
  11              		.eabi_attribute 34, 1
  12              		.eabi_attribute 18, 4
  13              		.file	"lv_theme_material.c"
  14              		.text
  15              	.Ltext0:
  16              		.cfi_sections	.debug_frame
  17              		.section	.text.theme_apply,"ax",%progbits
  18              		.align	1
  19              		.arch armv7e-m
  20              		.syntax unified
  21              		.thumb
  22              		.thumb_func
  23              		.fpu fpv4-sp-d16
  25              	theme_apply:
  26              	.LVL0:
  27              	.LFB593:
  28              		.file 1 "lvgl/src/lv_themes/lv_theme_material.c"
   1:lvgl/src/lv_themes/lv_theme_material.c **** /**
   2:lvgl/src/lv_themes/lv_theme_material.c ****  * @file lv_theme_material.c
   3:lvgl/src/lv_themes/lv_theme_material.c ****  *
   4:lvgl/src/lv_themes/lv_theme_material.c ****  */
   5:lvgl/src/lv_themes/lv_theme_material.c **** 
   6:lvgl/src/lv_themes/lv_theme_material.c **** /*********************
   7:lvgl/src/lv_themes/lv_theme_material.c ****  *      INCLUDES
   8:lvgl/src/lv_themes/lv_theme_material.c ****  *********************/
   9:lvgl/src/lv_themes/lv_theme_material.c **** #include "../../lvgl.h" /*To see all the widgets*/
  10:lvgl/src/lv_themes/lv_theme_material.c **** 
  11:lvgl/src/lv_themes/lv_theme_material.c **** #if LV_USE_THEME_MATERIAL
  12:lvgl/src/lv_themes/lv_theme_material.c **** 
  13:lvgl/src/lv_themes/lv_theme_material.c **** #include "../lv_misc/lv_gc.h"
  14:lvgl/src/lv_themes/lv_theme_material.c **** 
  15:lvgl/src/lv_themes/lv_theme_material.c **** /*********************
  16:lvgl/src/lv_themes/lv_theme_material.c ****  *      DEFINES
  17:lvgl/src/lv_themes/lv_theme_material.c ****  *********************/
  18:lvgl/src/lv_themes/lv_theme_material.c **** 
  19:lvgl/src/lv_themes/lv_theme_material.c **** /*SCREEN*/
  20:lvgl/src/lv_themes/lv_theme_material.c **** 
  21:lvgl/src/lv_themes/lv_theme_material.c **** #define COLOR_SCR        (IS_LIGHT ? lv_color_hex(0xeaeff3) : lv_color_hex(0x444b5a))
  22:lvgl/src/lv_themes/lv_theme_material.c **** #define COLOR_SCR_TEXT   (IS_LIGHT ? lv_color_hex(0x3b3e42) : lv_color_hex(0xe7e9ec))
  23:lvgl/src/lv_themes/lv_theme_material.c **** 
  24:lvgl/src/lv_themes/lv_theme_material.c **** /*BUTTON*/
  25:lvgl/src/lv_themes/lv_theme_material.c **** #define COLOR_BTN           (IS_LIGHT ? lv_color_hex(0xffffff) : lv_color_hex(0x586273))
  26:lvgl/src/lv_themes/lv_theme_material.c **** #define COLOR_BTN_PR        (IS_LIGHT ? lv_color_mix(theme.color_primary, COLOR_BTN, LV_OPA_20) : l
  27:lvgl/src/lv_themes/lv_theme_material.c **** 
  28:lvgl/src/lv_themes/lv_theme_material.c **** #define COLOR_BTN_CHK       (theme.color_primary)
  29:lvgl/src/lv_themes/lv_theme_material.c **** #define COLOR_BTN_CHK_PR    (lv_color_darken(theme.color_primary, LV_OPA_30))
  30:lvgl/src/lv_themes/lv_theme_material.c **** #define COLOR_BTN_DIS       (IS_LIGHT ? lv_color_hex3(0xccc) : lv_color_hex3(0x888))
ARM GAS  D:\Temp\cclc1fSW.s 			page 2


  31:lvgl/src/lv_themes/lv_theme_material.c **** 
  32:lvgl/src/lv_themes/lv_theme_material.c **** #define COLOR_BTN_BORDER        theme.color_primary
  33:lvgl/src/lv_themes/lv_theme_material.c **** #define COLOR_BTN_BORDER_PR     theme.color_primary
  34:lvgl/src/lv_themes/lv_theme_material.c **** #define COLOR_BTN_BORDER_CHK    theme.color_primary
  35:lvgl/src/lv_themes/lv_theme_material.c **** #define COLOR_BTN_BORDER_CHK_PR theme.color_primary
  36:lvgl/src/lv_themes/lv_theme_material.c **** #define COLOR_BTN_BORDER_INA    (IS_LIGHT ? lv_color_hex3(0x888) : lv_color_hex(0x404040))
  37:lvgl/src/lv_themes/lv_theme_material.c **** 
  38:lvgl/src/lv_themes/lv_theme_material.c **** /*BACKGROUND*/
  39:lvgl/src/lv_themes/lv_theme_material.c **** #define COLOR_BG            (IS_LIGHT ? lv_color_hex(0xffffff) : lv_color_hex(0x586273))
  40:lvgl/src/lv_themes/lv_theme_material.c **** #define COLOR_BG_PR         (IS_LIGHT ? lv_color_hex(0xeeeeee) : lv_color_hex(0x494f57))
  41:lvgl/src/lv_themes/lv_theme_material.c **** #define COLOR_BG_CHK        theme.color_primary
  42:lvgl/src/lv_themes/lv_theme_material.c **** #define COLOR_BG_PR_CHK     lv_color_darken(theme.color_primary, LV_OPA_20)
  43:lvgl/src/lv_themes/lv_theme_material.c **** #define COLOR_BG_DIS        COLOR_BG
  44:lvgl/src/lv_themes/lv_theme_material.c **** 
  45:lvgl/src/lv_themes/lv_theme_material.c **** #define COLOR_BG_BORDER         (IS_LIGHT ? lv_color_hex(0xd6dde3) : lv_color_hex(0x808a97))   /*df
  46:lvgl/src/lv_themes/lv_theme_material.c **** #define COLOR_BG_BORDER_PR      (IS_LIGHT ? lv_color_hex3(0xccc) : lv_color_hex(0x5f656e))
  47:lvgl/src/lv_themes/lv_theme_material.c **** #define COLOR_BG_BORDER_CHK     (IS_LIGHT ? lv_color_hex(0x3b3e42) : lv_color_hex(0x5f656e))
  48:lvgl/src/lv_themes/lv_theme_material.c **** #define COLOR_BG_BORDER_CHK_PR  (IS_LIGHT ? lv_color_hex(0x3b3e42) : lv_color_hex(0x5f656e))
  49:lvgl/src/lv_themes/lv_theme_material.c **** #define COLOR_BG_BORDER_DIS     (IS_LIGHT ? lv_color_hex(0xd6dde3) : lv_color_hex(0x5f656e))
  50:lvgl/src/lv_themes/lv_theme_material.c **** 
  51:lvgl/src/lv_themes/lv_theme_material.c **** #define COLOR_BG_TEXT           (IS_LIGHT ? lv_color_hex(0x3b3e42) : lv_color_hex(0xffffff))
  52:lvgl/src/lv_themes/lv_theme_material.c **** #define COLOR_BG_TEXT_PR        (IS_LIGHT ? lv_color_hex(0x3b3e42) : lv_color_hex(0xffffff))
  53:lvgl/src/lv_themes/lv_theme_material.c **** #define COLOR_BG_TEXT_CHK       (IS_LIGHT ? lv_color_hex(0xffffff) : lv_color_hex(0xffffff))
  54:lvgl/src/lv_themes/lv_theme_material.c **** #define COLOR_BG_TEXT_CHK_PR    (IS_LIGHT ? lv_color_hex(0xffffff) : lv_color_hex(0xffffff))
  55:lvgl/src/lv_themes/lv_theme_material.c **** #define COLOR_BG_TEXT_DIS       (IS_LIGHT ? lv_color_hex3(0xaaa) : lv_color_hex3(0x999))
  56:lvgl/src/lv_themes/lv_theme_material.c **** 
  57:lvgl/src/lv_themes/lv_theme_material.c **** /*SECONDARY BACKGROUND*/
  58:lvgl/src/lv_themes/lv_theme_material.c **** #define COLOR_BG_SEC            (IS_LIGHT ? lv_color_hex(0xd4d7d9) : lv_color_hex(0x45494d))
  59:lvgl/src/lv_themes/lv_theme_material.c **** #define COLOR_BG_SEC_BORDER     (IS_LIGHT ? lv_color_hex(0xdfe7ed) : lv_color_hex(0x404040))
  60:lvgl/src/lv_themes/lv_theme_material.c **** #define COLOR_BG_SEC_TEXT       (IS_LIGHT ? lv_color_hex(0x31404f) : lv_color_hex(0xa5a8ad))
  61:lvgl/src/lv_themes/lv_theme_material.c **** #define COLOR_BG_SEC_TEXT_DIS   (IS_LIGHT ? lv_color_hex(0xaaaaaa) : lv_color_hex(0xa5a8ad))
  62:lvgl/src/lv_themes/lv_theme_material.c **** 
  63:lvgl/src/lv_themes/lv_theme_material.c **** #define TRANSITION_TIME         0/*((theme.flags & LV_THEME_MATERIAL_FLAG_NO_TRANSITION) ? 0 : 150)
  64:lvgl/src/lv_themes/lv_theme_material.c **** #define BORDER_WIDTH            LV_DPX(2)
  65:lvgl/src/lv_themes/lv_theme_material.c **** #define OUTLINE_WIDTH           ((theme.flags & LV_THEME_MATERIAL_FLAG_NO_FOCUS) ? 0 : LV_DPX(2))
  66:lvgl/src/lv_themes/lv_theme_material.c **** #define IS_LIGHT (theme.flags & LV_THEME_MATERIAL_FLAG_LIGHT)
  67:lvgl/src/lv_themes/lv_theme_material.c **** 
  68:lvgl/src/lv_themes/lv_theme_material.c **** #define PAD_DEF (lv_disp_get_size_category(NULL) <= LV_DISP_SIZE_MEDIUM ? LV_DPX(15) : (LV_DPX(30))
  69:lvgl/src/lv_themes/lv_theme_material.c **** 
  70:lvgl/src/lv_themes/lv_theme_material.c **** /**********************
  71:lvgl/src/lv_themes/lv_theme_material.c ****  *      TYPEDEFS
  72:lvgl/src/lv_themes/lv_theme_material.c ****  **********************/
  73:lvgl/src/lv_themes/lv_theme_material.c **** typedef struct {
  74:lvgl/src/lv_themes/lv_theme_material.c ****     lv_style_t scr;
  75:lvgl/src/lv_themes/lv_theme_material.c ****     lv_style_t bg;
  76:lvgl/src/lv_themes/lv_theme_material.c ****     lv_style_t bg_click;
  77:lvgl/src/lv_themes/lv_theme_material.c ****     lv_style_t bg_sec;
  78:lvgl/src/lv_themes/lv_theme_material.c ****     lv_style_t btn;
  79:lvgl/src/lv_themes/lv_theme_material.c ****     lv_style_t pad_inner;
  80:lvgl/src/lv_themes/lv_theme_material.c ****     lv_style_t pad_small;
  81:lvgl/src/lv_themes/lv_theme_material.c **** 
  82:lvgl/src/lv_themes/lv_theme_material.c **** #if LV_USE_ARC
  83:lvgl/src/lv_themes/lv_theme_material.c ****     lv_style_t arc_indic;
  84:lvgl/src/lv_themes/lv_theme_material.c ****     lv_style_t arc_bg;
  85:lvgl/src/lv_themes/lv_theme_material.c ****     lv_style_t arc_knob;
  86:lvgl/src/lv_themes/lv_theme_material.c **** #endif
  87:lvgl/src/lv_themes/lv_theme_material.c **** 
ARM GAS  D:\Temp\cclc1fSW.s 			page 3


  88:lvgl/src/lv_themes/lv_theme_material.c **** #if LV_USE_BAR
  89:lvgl/src/lv_themes/lv_theme_material.c ****     lv_style_t bar_bg;
  90:lvgl/src/lv_themes/lv_theme_material.c ****     lv_style_t bar_indic;
  91:lvgl/src/lv_themes/lv_theme_material.c **** #endif
  92:lvgl/src/lv_themes/lv_theme_material.c **** 
  93:lvgl/src/lv_themes/lv_theme_material.c **** #if LV_USE_CALENDAR
  94:lvgl/src/lv_themes/lv_theme_material.c ****     lv_style_t calendar_date_nums, calendar_header, calendar_daynames;
  95:lvgl/src/lv_themes/lv_theme_material.c **** #endif
  96:lvgl/src/lv_themes/lv_theme_material.c **** 
  97:lvgl/src/lv_themes/lv_theme_material.c **** #if LV_USE_CPICKER
  98:lvgl/src/lv_themes/lv_theme_material.c ****     lv_style_t cpicker_bg, cpicker_indic;
  99:lvgl/src/lv_themes/lv_theme_material.c **** #endif
 100:lvgl/src/lv_themes/lv_theme_material.c **** 
 101:lvgl/src/lv_themes/lv_theme_material.c **** #if LV_USE_CHART
 102:lvgl/src/lv_themes/lv_theme_material.c ****     lv_style_t chart_bg, chart_series_bg, chart_series;
 103:lvgl/src/lv_themes/lv_theme_material.c **** #endif
 104:lvgl/src/lv_themes/lv_theme_material.c **** 
 105:lvgl/src/lv_themes/lv_theme_material.c **** #if LV_USE_CHECKBOX
 106:lvgl/src/lv_themes/lv_theme_material.c ****     lv_style_t cb_bg, cb_bullet;
 107:lvgl/src/lv_themes/lv_theme_material.c **** #endif
 108:lvgl/src/lv_themes/lv_theme_material.c **** 
 109:lvgl/src/lv_themes/lv_theme_material.c **** #if LV_USE_DROPDOWN
 110:lvgl/src/lv_themes/lv_theme_material.c ****     lv_style_t ddlist_page, ddlist_sel;
 111:lvgl/src/lv_themes/lv_theme_material.c **** #endif
 112:lvgl/src/lv_themes/lv_theme_material.c **** 
 113:lvgl/src/lv_themes/lv_theme_material.c **** #if LV_USE_GAUGE
 114:lvgl/src/lv_themes/lv_theme_material.c ****     lv_style_t gauge_main, gauge_strong, gauge_needle;
 115:lvgl/src/lv_themes/lv_theme_material.c **** #endif
 116:lvgl/src/lv_themes/lv_theme_material.c **** 
 117:lvgl/src/lv_themes/lv_theme_material.c **** #if LV_USE_KEYBOARD
 118:lvgl/src/lv_themes/lv_theme_material.c ****     lv_style_t kb_bg;
 119:lvgl/src/lv_themes/lv_theme_material.c **** #endif
 120:lvgl/src/lv_themes/lv_theme_material.c **** 
 121:lvgl/src/lv_themes/lv_theme_material.c **** #if LV_USE_LED
 122:lvgl/src/lv_themes/lv_theme_material.c ****     lv_style_t led;
 123:lvgl/src/lv_themes/lv_theme_material.c **** #endif
 124:lvgl/src/lv_themes/lv_theme_material.c **** 
 125:lvgl/src/lv_themes/lv_theme_material.c **** #if LV_USE_LINEMETER
 126:lvgl/src/lv_themes/lv_theme_material.c ****     lv_style_t lmeter;
 127:lvgl/src/lv_themes/lv_theme_material.c **** #endif
 128:lvgl/src/lv_themes/lv_theme_material.c **** 
 129:lvgl/src/lv_themes/lv_theme_material.c **** #if LV_USE_LIST
 130:lvgl/src/lv_themes/lv_theme_material.c ****     lv_style_t list_bg, list_btn;
 131:lvgl/src/lv_themes/lv_theme_material.c **** #endif
 132:lvgl/src/lv_themes/lv_theme_material.c **** 
 133:lvgl/src/lv_themes/lv_theme_material.c **** #if LV_USE_MSGBOX
 134:lvgl/src/lv_themes/lv_theme_material.c ****     lv_style_t mbox_bg;
 135:lvgl/src/lv_themes/lv_theme_material.c **** #endif
 136:lvgl/src/lv_themes/lv_theme_material.c **** 
 137:lvgl/src/lv_themes/lv_theme_material.c **** #if LV_USE_PAGE
 138:lvgl/src/lv_themes/lv_theme_material.c ****     lv_style_t sb;
 139:lvgl/src/lv_themes/lv_theme_material.c **** #if LV_USE_ANIMATION
 140:lvgl/src/lv_themes/lv_theme_material.c ****     lv_style_t edge_flash;
 141:lvgl/src/lv_themes/lv_theme_material.c **** #endif
 142:lvgl/src/lv_themes/lv_theme_material.c **** #endif
 143:lvgl/src/lv_themes/lv_theme_material.c **** 
 144:lvgl/src/lv_themes/lv_theme_material.c **** #if LV_USE_ROLLER
ARM GAS  D:\Temp\cclc1fSW.s 			page 4


 145:lvgl/src/lv_themes/lv_theme_material.c ****     lv_style_t roller_bg, roller_sel;
 146:lvgl/src/lv_themes/lv_theme_material.c **** #endif
 147:lvgl/src/lv_themes/lv_theme_material.c **** 
 148:lvgl/src/lv_themes/lv_theme_material.c **** #if LV_USE_SLIDER
 149:lvgl/src/lv_themes/lv_theme_material.c ****     lv_style_t slider_knob, slider_bg;
 150:lvgl/src/lv_themes/lv_theme_material.c **** #endif
 151:lvgl/src/lv_themes/lv_theme_material.c **** 
 152:lvgl/src/lv_themes/lv_theme_material.c **** #if LV_USE_SPINBOX
 153:lvgl/src/lv_themes/lv_theme_material.c ****     lv_style_t spinbox_cursor;
 154:lvgl/src/lv_themes/lv_theme_material.c **** #endif
 155:lvgl/src/lv_themes/lv_theme_material.c **** 
 156:lvgl/src/lv_themes/lv_theme_material.c **** #if LV_USE_SWITCH
 157:lvgl/src/lv_themes/lv_theme_material.c ****     lv_style_t sw_knob;
 158:lvgl/src/lv_themes/lv_theme_material.c **** #endif
 159:lvgl/src/lv_themes/lv_theme_material.c **** 
 160:lvgl/src/lv_themes/lv_theme_material.c **** #if LV_USE_TABLE
 161:lvgl/src/lv_themes/lv_theme_material.c ****     lv_style_t table_cell;
 162:lvgl/src/lv_themes/lv_theme_material.c **** #endif
 163:lvgl/src/lv_themes/lv_theme_material.c **** 
 164:lvgl/src/lv_themes/lv_theme_material.c **** #if LV_USE_TABVIEW || LV_USE_WIN
 165:lvgl/src/lv_themes/lv_theme_material.c ****     lv_style_t tabview_btns, tabview_btns_bg, tabview_indic, tabview_page_scrl;
 166:lvgl/src/lv_themes/lv_theme_material.c **** #endif
 167:lvgl/src/lv_themes/lv_theme_material.c **** 
 168:lvgl/src/lv_themes/lv_theme_material.c **** #if LV_USE_TEXTAREA
 169:lvgl/src/lv_themes/lv_theme_material.c ****     lv_style_t ta_cursor, ta_placeholder;
 170:lvgl/src/lv_themes/lv_theme_material.c **** #endif
 171:lvgl/src/lv_themes/lv_theme_material.c **** 
 172:lvgl/src/lv_themes/lv_theme_material.c **** } theme_styles_t;
 173:lvgl/src/lv_themes/lv_theme_material.c **** 
 174:lvgl/src/lv_themes/lv_theme_material.c **** /**********************
 175:lvgl/src/lv_themes/lv_theme_material.c ****  *  STATIC PROTOTYPES
 176:lvgl/src/lv_themes/lv_theme_material.c ****  **********************/
 177:lvgl/src/lv_themes/lv_theme_material.c **** static void theme_apply(lv_theme_t * th, lv_obj_t * obj, lv_theme_style_t name);
 178:lvgl/src/lv_themes/lv_theme_material.c **** static void style_init_reset(lv_style_t * style);
 179:lvgl/src/lv_themes/lv_theme_material.c **** 
 180:lvgl/src/lv_themes/lv_theme_material.c **** /**********************
 181:lvgl/src/lv_themes/lv_theme_material.c ****  *  STATIC VARIABLES
 182:lvgl/src/lv_themes/lv_theme_material.c ****  **********************/
 183:lvgl/src/lv_themes/lv_theme_material.c **** static lv_theme_t theme;
 184:lvgl/src/lv_themes/lv_theme_material.c **** static theme_styles_t * styles;
 185:lvgl/src/lv_themes/lv_theme_material.c **** 
 186:lvgl/src/lv_themes/lv_theme_material.c **** static bool inited;
 187:lvgl/src/lv_themes/lv_theme_material.c **** 
 188:lvgl/src/lv_themes/lv_theme_material.c **** /**********************
 189:lvgl/src/lv_themes/lv_theme_material.c ****  *      MACROS
 190:lvgl/src/lv_themes/lv_theme_material.c ****  **********************/
 191:lvgl/src/lv_themes/lv_theme_material.c **** 
 192:lvgl/src/lv_themes/lv_theme_material.c **** /**********************
 193:lvgl/src/lv_themes/lv_theme_material.c ****  *   STATIC FUNCTIONS
 194:lvgl/src/lv_themes/lv_theme_material.c ****  **********************/
 195:lvgl/src/lv_themes/lv_theme_material.c **** 
 196:lvgl/src/lv_themes/lv_theme_material.c **** static void basic_init(void)
 197:lvgl/src/lv_themes/lv_theme_material.c **** {
 198:lvgl/src/lv_themes/lv_theme_material.c ****     style_init_reset(&styles->scr);
 199:lvgl/src/lv_themes/lv_theme_material.c ****     lv_style_set_bg_opa(&styles->scr, LV_STATE_DEFAULT, LV_OPA_COVER);
 200:lvgl/src/lv_themes/lv_theme_material.c ****     lv_style_set_bg_color(&styles->scr, LV_STATE_DEFAULT, COLOR_SCR);
 201:lvgl/src/lv_themes/lv_theme_material.c ****     lv_style_set_text_color(&styles->scr, LV_STATE_DEFAULT, COLOR_SCR_TEXT);
ARM GAS  D:\Temp\cclc1fSW.s 			page 5


 202:lvgl/src/lv_themes/lv_theme_material.c ****     lv_style_set_value_color(&styles->scr, LV_STATE_DEFAULT, COLOR_SCR_TEXT);
 203:lvgl/src/lv_themes/lv_theme_material.c ****     lv_style_set_text_sel_color(&styles->scr, LV_STATE_DEFAULT, COLOR_SCR_TEXT);
 204:lvgl/src/lv_themes/lv_theme_material.c ****     lv_style_set_text_sel_bg_color(&styles->scr, LV_STATE_DEFAULT, theme.color_primary);
 205:lvgl/src/lv_themes/lv_theme_material.c ****     lv_style_set_value_font(&styles->scr, LV_STATE_DEFAULT, theme.font_normal);
 206:lvgl/src/lv_themes/lv_theme_material.c **** 
 207:lvgl/src/lv_themes/lv_theme_material.c ****     style_init_reset(&styles->bg);
 208:lvgl/src/lv_themes/lv_theme_material.c ****     lv_style_set_radius(&styles->bg, LV_STATE_DEFAULT, LV_DPX(8));
 209:lvgl/src/lv_themes/lv_theme_material.c ****     lv_style_set_bg_opa(&styles->bg, LV_STATE_DEFAULT, LV_OPA_COVER);
 210:lvgl/src/lv_themes/lv_theme_material.c ****     lv_style_set_bg_color(&styles->bg, LV_STATE_DEFAULT, COLOR_BG);
 211:lvgl/src/lv_themes/lv_theme_material.c ****     lv_style_set_border_color(&styles->bg, LV_STATE_DEFAULT, COLOR_BG_BORDER);
 212:lvgl/src/lv_themes/lv_theme_material.c ****     if((theme.flags & LV_THEME_MATERIAL_FLAG_NO_FOCUS) == 0)lv_style_set_border_color(&styles->bg, 
 213:lvgl/src/lv_themes/lv_theme_material.c ****                                                                                           theme.col
 214:lvgl/src/lv_themes/lv_theme_material.c ****     lv_style_set_border_color(&styles->bg, LV_STATE_EDITED, theme.color_secondary);
 215:lvgl/src/lv_themes/lv_theme_material.c ****     lv_style_set_border_width(&styles->bg, LV_STATE_DEFAULT, BORDER_WIDTH);
 216:lvgl/src/lv_themes/lv_theme_material.c ****     lv_style_set_border_post(&styles->bg, LV_STATE_DEFAULT, true);
 217:lvgl/src/lv_themes/lv_theme_material.c ****     lv_style_set_text_color(&styles->bg, LV_STATE_DEFAULT, COLOR_BG_TEXT);
 218:lvgl/src/lv_themes/lv_theme_material.c ****     lv_style_set_value_font(&styles->bg, LV_STATE_DEFAULT, theme.font_normal);
 219:lvgl/src/lv_themes/lv_theme_material.c ****     lv_style_set_value_color(&styles->bg, LV_STATE_DEFAULT, COLOR_BG_TEXT);
 220:lvgl/src/lv_themes/lv_theme_material.c ****     lv_style_set_image_recolor(&styles->bg, LV_STATE_DEFAULT, COLOR_BG_TEXT);
 221:lvgl/src/lv_themes/lv_theme_material.c ****     lv_style_set_line_color(&styles->bg, LV_STATE_DEFAULT, COLOR_BG_TEXT);
 222:lvgl/src/lv_themes/lv_theme_material.c ****     lv_style_set_line_width(&styles->bg, LV_STATE_DEFAULT, 1);
 223:lvgl/src/lv_themes/lv_theme_material.c ****     lv_style_set_pad_left(&styles->bg, LV_STATE_DEFAULT, PAD_DEF + BORDER_WIDTH);
 224:lvgl/src/lv_themes/lv_theme_material.c ****     lv_style_set_pad_right(&styles->bg, LV_STATE_DEFAULT, PAD_DEF + BORDER_WIDTH);
 225:lvgl/src/lv_themes/lv_theme_material.c ****     lv_style_set_pad_top(&styles->bg, LV_STATE_DEFAULT, PAD_DEF + BORDER_WIDTH);
 226:lvgl/src/lv_themes/lv_theme_material.c ****     lv_style_set_pad_bottom(&styles->bg, LV_STATE_DEFAULT, PAD_DEF + BORDER_WIDTH);
 227:lvgl/src/lv_themes/lv_theme_material.c ****     lv_style_set_pad_inner(&styles->bg, LV_STATE_DEFAULT, PAD_DEF);
 228:lvgl/src/lv_themes/lv_theme_material.c ****     lv_style_set_transition_time(&styles->bg, LV_STATE_DEFAULT, TRANSITION_TIME);
 229:lvgl/src/lv_themes/lv_theme_material.c ****     lv_style_set_transition_prop_6(&styles->bg, LV_STATE_DEFAULT, LV_STYLE_BORDER_COLOR);
 230:lvgl/src/lv_themes/lv_theme_material.c **** 
 231:lvgl/src/lv_themes/lv_theme_material.c ****     style_init_reset(&styles->bg_sec);
 232:lvgl/src/lv_themes/lv_theme_material.c ****     lv_style_copy(&styles->bg_sec, &styles->bg);
 233:lvgl/src/lv_themes/lv_theme_material.c ****     lv_style_set_bg_color(&styles->bg_sec, LV_STATE_DEFAULT, COLOR_BG_SEC);
 234:lvgl/src/lv_themes/lv_theme_material.c ****     lv_style_set_border_color(&styles->bg_sec, LV_STATE_DEFAULT, COLOR_BG_SEC_BORDER);
 235:lvgl/src/lv_themes/lv_theme_material.c ****     lv_style_set_text_color(&styles->bg_sec, LV_STATE_DEFAULT, COLOR_BG_SEC_TEXT);
 236:lvgl/src/lv_themes/lv_theme_material.c ****     lv_style_set_value_color(&styles->bg_sec, LV_STATE_DEFAULT, COLOR_BG_SEC_TEXT);
 237:lvgl/src/lv_themes/lv_theme_material.c ****     lv_style_set_image_recolor(&styles->bg_sec, LV_STATE_DEFAULT, COLOR_BG_SEC_TEXT);
 238:lvgl/src/lv_themes/lv_theme_material.c ****     lv_style_set_line_color(&styles->bg_sec, LV_STATE_DEFAULT, COLOR_BG_SEC_TEXT);
 239:lvgl/src/lv_themes/lv_theme_material.c **** 
 240:lvgl/src/lv_themes/lv_theme_material.c ****     style_init_reset(&styles->bg_click);
 241:lvgl/src/lv_themes/lv_theme_material.c ****     lv_style_set_bg_color(&styles->bg_click, LV_STATE_PRESSED, COLOR_BG_PR);
 242:lvgl/src/lv_themes/lv_theme_material.c ****     lv_style_set_bg_color(&styles->bg_click, LV_STATE_CHECKED, COLOR_BG_CHK);
 243:lvgl/src/lv_themes/lv_theme_material.c ****     lv_style_set_bg_color(&styles->bg_click, LV_STATE_PRESSED | LV_STATE_CHECKED, COLOR_BG_PR_CHK);
 244:lvgl/src/lv_themes/lv_theme_material.c ****     lv_style_set_bg_color(&styles->bg_click, LV_STATE_DISABLED, COLOR_BG_DIS);
 245:lvgl/src/lv_themes/lv_theme_material.c ****     lv_style_set_border_width(&styles->bg_click, LV_STATE_CHECKED, 0);
 246:lvgl/src/lv_themes/lv_theme_material.c ****     lv_style_set_border_color(&styles->bg_click, LV_STATE_FOCUSED | LV_STATE_PRESSED, lv_color_dark
 247:lvgl/src/lv_themes/lv_theme_material.c ****                                                                                                    
 248:lvgl/src/lv_themes/lv_theme_material.c ****     lv_style_set_border_color(&styles->bg_click, LV_STATE_PRESSED, COLOR_BG_BORDER_PR);
 249:lvgl/src/lv_themes/lv_theme_material.c ****     lv_style_set_border_color(&styles->bg_click, LV_STATE_CHECKED, COLOR_BG_BORDER_CHK);
 250:lvgl/src/lv_themes/lv_theme_material.c ****     lv_style_set_border_color(&styles->bg_click, LV_STATE_PRESSED | LV_STATE_CHECKED, COLOR_BG_BORD
 251:lvgl/src/lv_themes/lv_theme_material.c ****     lv_style_set_border_color(&styles->bg_click, LV_STATE_DISABLED, COLOR_BG_BORDER_DIS);
 252:lvgl/src/lv_themes/lv_theme_material.c ****     lv_style_set_text_color(&styles->bg_click, LV_STATE_PRESSED, COLOR_BG_TEXT_PR);
 253:lvgl/src/lv_themes/lv_theme_material.c ****     lv_style_set_text_color(&styles->bg_click, LV_STATE_CHECKED, COLOR_BG_TEXT_CHK);
 254:lvgl/src/lv_themes/lv_theme_material.c ****     lv_style_set_text_color(&styles->bg_click, LV_STATE_PRESSED | LV_STATE_CHECKED, COLOR_BG_TEXT_C
 255:lvgl/src/lv_themes/lv_theme_material.c ****     lv_style_set_text_color(&styles->bg_click, LV_STATE_DISABLED, COLOR_BG_TEXT_DIS);
 256:lvgl/src/lv_themes/lv_theme_material.c ****     lv_style_set_image_recolor(&styles->bg_click, LV_STATE_PRESSED, COLOR_BG_TEXT_PR);
 257:lvgl/src/lv_themes/lv_theme_material.c ****     lv_style_set_image_recolor(&styles->bg_click, LV_STATE_CHECKED, COLOR_BG_TEXT_CHK);
 258:lvgl/src/lv_themes/lv_theme_material.c ****     lv_style_set_image_recolor(&styles->bg_click, LV_STATE_PRESSED | LV_STATE_CHECKED, COLOR_BG_TEX
ARM GAS  D:\Temp\cclc1fSW.s 			page 6


 259:lvgl/src/lv_themes/lv_theme_material.c ****     lv_style_set_image_recolor(&styles->bg_click, LV_STATE_DISABLED, COLOR_BG_TEXT_DIS);
 260:lvgl/src/lv_themes/lv_theme_material.c ****     lv_style_set_transition_prop_5(&styles->bg_click, LV_STATE_DEFAULT, LV_STYLE_BG_COLOR);
 261:lvgl/src/lv_themes/lv_theme_material.c **** 
 262:lvgl/src/lv_themes/lv_theme_material.c ****     style_init_reset(&styles->btn);
 263:lvgl/src/lv_themes/lv_theme_material.c ****     lv_style_set_radius(&styles->btn, LV_STATE_DEFAULT, LV_RADIUS_CIRCLE);
 264:lvgl/src/lv_themes/lv_theme_material.c ****     lv_style_set_bg_opa(&styles->btn, LV_STATE_DEFAULT, LV_OPA_COVER);
 265:lvgl/src/lv_themes/lv_theme_material.c ****     lv_style_set_bg_color(&styles->btn, LV_STATE_DEFAULT, COLOR_BTN);
 266:lvgl/src/lv_themes/lv_theme_material.c ****     lv_style_set_bg_color(&styles->btn, LV_STATE_PRESSED, COLOR_BTN_PR);
 267:lvgl/src/lv_themes/lv_theme_material.c ****     lv_style_set_bg_color(&styles->btn, LV_STATE_CHECKED, COLOR_BTN_CHK);
 268:lvgl/src/lv_themes/lv_theme_material.c ****     lv_style_set_bg_color(&styles->btn, LV_STATE_CHECKED | LV_STATE_PRESSED, COLOR_BTN_CHK_PR);
 269:lvgl/src/lv_themes/lv_theme_material.c ****     lv_style_set_bg_color(&styles->btn, LV_STATE_DISABLED, COLOR_BTN);
 270:lvgl/src/lv_themes/lv_theme_material.c ****     lv_style_set_bg_color(&styles->btn, LV_STATE_DISABLED | LV_STATE_CHECKED, COLOR_BTN_DIS);
 271:lvgl/src/lv_themes/lv_theme_material.c ****     lv_style_set_border_color(&styles->btn, LV_STATE_DEFAULT, COLOR_BTN_BORDER);
 272:lvgl/src/lv_themes/lv_theme_material.c ****     lv_style_set_border_color(&styles->btn, LV_STATE_PRESSED, COLOR_BTN_BORDER_PR);
 273:lvgl/src/lv_themes/lv_theme_material.c ****     lv_style_set_border_color(&styles->btn, LV_STATE_DISABLED, COLOR_BTN_BORDER_INA);
 274:lvgl/src/lv_themes/lv_theme_material.c ****     lv_style_set_border_width(&styles->btn, LV_STATE_DEFAULT, BORDER_WIDTH);
 275:lvgl/src/lv_themes/lv_theme_material.c ****     lv_style_set_border_opa(&styles->btn, LV_STATE_CHECKED, LV_OPA_TRANSP);
 276:lvgl/src/lv_themes/lv_theme_material.c **** 
 277:lvgl/src/lv_themes/lv_theme_material.c ****     lv_style_set_text_color(&styles->btn, LV_STATE_DEFAULT, IS_LIGHT ? lv_color_hex(0x31404f) : lv_
 278:lvgl/src/lv_themes/lv_theme_material.c ****     lv_style_set_text_color(&styles->btn, LV_STATE_PRESSED, IS_LIGHT ? lv_color_hex(0x31404f) : lv_
 279:lvgl/src/lv_themes/lv_theme_material.c ****     lv_style_set_text_color(&styles->btn, LV_STATE_CHECKED,  lv_color_hex(0xffffff));
 280:lvgl/src/lv_themes/lv_theme_material.c ****     lv_style_set_text_color(&styles->btn, LV_STATE_CHECKED | LV_STATE_PRESSED, lv_color_hex(0xfffff
 281:lvgl/src/lv_themes/lv_theme_material.c ****     lv_style_set_text_color(&styles->btn, LV_STATE_DISABLED, IS_LIGHT ? lv_color_hex(0x888888) : lv
 282:lvgl/src/lv_themes/lv_theme_material.c **** 
 283:lvgl/src/lv_themes/lv_theme_material.c ****     lv_style_set_image_recolor(&styles->btn, LV_STATE_DEFAULT, IS_LIGHT ? lv_color_hex(0x31404f) : 
 284:lvgl/src/lv_themes/lv_theme_material.c ****     lv_style_set_image_recolor(&styles->btn, LV_STATE_PRESSED, IS_LIGHT ? lv_color_hex(0x31404f) : 
 285:lvgl/src/lv_themes/lv_theme_material.c ****     lv_style_set_image_recolor(&styles->btn, LV_STATE_PRESSED, lv_color_hex(0xffffff));
 286:lvgl/src/lv_themes/lv_theme_material.c ****     lv_style_set_image_recolor(&styles->btn, LV_STATE_CHECKED | LV_STATE_PRESSED, lv_color_hex(0xff
 287:lvgl/src/lv_themes/lv_theme_material.c ****     lv_style_set_image_recolor(&styles->btn, LV_STATE_DISABLED, IS_LIGHT ? lv_color_hex(0x888888) :
 288:lvgl/src/lv_themes/lv_theme_material.c **** 
 289:lvgl/src/lv_themes/lv_theme_material.c ****     lv_style_set_value_color(&styles->btn, LV_STATE_DEFAULT, IS_LIGHT ? lv_color_hex(0x31404f) : lv
 290:lvgl/src/lv_themes/lv_theme_material.c ****     lv_style_set_value_color(&styles->btn, LV_STATE_PRESSED, IS_LIGHT ? lv_color_hex(0x31404f) : lv
 291:lvgl/src/lv_themes/lv_theme_material.c ****     lv_style_set_value_color(&styles->btn, LV_STATE_CHECKED,  lv_color_hex(0xffffff));
 292:lvgl/src/lv_themes/lv_theme_material.c ****     lv_style_set_value_color(&styles->btn, LV_STATE_CHECKED | LV_STATE_PRESSED, lv_color_hex(0xffff
 293:lvgl/src/lv_themes/lv_theme_material.c ****     lv_style_set_value_color(&styles->btn, LV_STATE_DISABLED, IS_LIGHT ? lv_color_hex(0x888888) : l
 294:lvgl/src/lv_themes/lv_theme_material.c **** 
 295:lvgl/src/lv_themes/lv_theme_material.c ****     lv_style_set_pad_left(&styles->btn, LV_STATE_DEFAULT, LV_DPX(40));
 296:lvgl/src/lv_themes/lv_theme_material.c ****     lv_style_set_pad_right(&styles->btn, LV_STATE_DEFAULT, LV_DPX(40));
 297:lvgl/src/lv_themes/lv_theme_material.c ****     lv_style_set_pad_top(&styles->btn, LV_STATE_DEFAULT, LV_DPX(15));
 298:lvgl/src/lv_themes/lv_theme_material.c ****     lv_style_set_pad_bottom(&styles->btn, LV_STATE_DEFAULT, LV_DPX(15));
 299:lvgl/src/lv_themes/lv_theme_material.c ****     lv_style_set_pad_inner(&styles->btn, LV_STATE_DEFAULT, LV_DPX(20));
 300:lvgl/src/lv_themes/lv_theme_material.c ****     lv_style_set_outline_width(&styles->btn, LV_STATE_DEFAULT, OUTLINE_WIDTH);
 301:lvgl/src/lv_themes/lv_theme_material.c ****     lv_style_set_outline_opa(&styles->btn, LV_STATE_DEFAULT, LV_OPA_0);
 302:lvgl/src/lv_themes/lv_theme_material.c ****     lv_style_set_outline_opa(&styles->btn, LV_STATE_FOCUSED, LV_OPA_50);
 303:lvgl/src/lv_themes/lv_theme_material.c ****     lv_style_set_outline_color(&styles->btn, LV_STATE_DEFAULT, theme.color_primary);
 304:lvgl/src/lv_themes/lv_theme_material.c ****     lv_style_set_outline_color(&styles->btn, LV_STATE_EDITED, theme.color_secondary);
 305:lvgl/src/lv_themes/lv_theme_material.c ****     lv_style_set_transition_time(&styles->btn, LV_STATE_DEFAULT, TRANSITION_TIME);
 306:lvgl/src/lv_themes/lv_theme_material.c ****     lv_style_set_transition_prop_4(&styles->btn, LV_STATE_DEFAULT, LV_STYLE_BORDER_OPA);
 307:lvgl/src/lv_themes/lv_theme_material.c ****     lv_style_set_transition_prop_5(&styles->btn, LV_STATE_DEFAULT, LV_STYLE_BG_COLOR);
 308:lvgl/src/lv_themes/lv_theme_material.c ****     lv_style_set_transition_prop_6(&styles->btn, LV_STATE_DEFAULT, LV_STYLE_OUTLINE_OPA);
 309:lvgl/src/lv_themes/lv_theme_material.c ****     lv_style_set_transition_delay(&styles->btn, LV_STATE_DEFAULT, TRANSITION_TIME);
 310:lvgl/src/lv_themes/lv_theme_material.c ****     lv_style_set_transition_delay(&styles->btn, LV_STATE_PRESSED, 0);
 311:lvgl/src/lv_themes/lv_theme_material.c **** 
 312:lvgl/src/lv_themes/lv_theme_material.c ****     style_init_reset(&styles->pad_inner);
 313:lvgl/src/lv_themes/lv_theme_material.c **** 
 314:lvgl/src/lv_themes/lv_theme_material.c ****     lv_style_set_pad_inner(&styles->pad_inner, LV_STATE_DEFAULT,
 315:lvgl/src/lv_themes/lv_theme_material.c ****                            lv_disp_get_size_category(NULL) <= LV_DISP_SIZE_MEDIUM ? LV_DPX(20) : LV
ARM GAS  D:\Temp\cclc1fSW.s 			page 7


 316:lvgl/src/lv_themes/lv_theme_material.c **** 
 317:lvgl/src/lv_themes/lv_theme_material.c ****     style_init_reset(&styles->pad_small);
 318:lvgl/src/lv_themes/lv_theme_material.c ****     lv_style_int_t pad_small_value = lv_disp_get_size_category(NULL) <= LV_DISP_SIZE_MEDIUM ? LV_DP
 319:lvgl/src/lv_themes/lv_theme_material.c ****     lv_style_set_pad_left(&styles->pad_small, LV_STATE_DEFAULT,  pad_small_value);
 320:lvgl/src/lv_themes/lv_theme_material.c ****     lv_style_set_pad_right(&styles->pad_small, LV_STATE_DEFAULT, pad_small_value);
 321:lvgl/src/lv_themes/lv_theme_material.c ****     lv_style_set_pad_top(&styles->pad_small, LV_STATE_DEFAULT,  pad_small_value);
 322:lvgl/src/lv_themes/lv_theme_material.c ****     lv_style_set_pad_bottom(&styles->pad_small, LV_STATE_DEFAULT, pad_small_value);
 323:lvgl/src/lv_themes/lv_theme_material.c ****     lv_style_set_pad_inner(&styles->pad_small, LV_STATE_DEFAULT, pad_small_value);
 324:lvgl/src/lv_themes/lv_theme_material.c **** }
 325:lvgl/src/lv_themes/lv_theme_material.c **** 
 326:lvgl/src/lv_themes/lv_theme_material.c **** static void cont_init(void)
 327:lvgl/src/lv_themes/lv_theme_material.c **** {
 328:lvgl/src/lv_themes/lv_theme_material.c **** #if LV_USE_CONT != 0
 329:lvgl/src/lv_themes/lv_theme_material.c **** 
 330:lvgl/src/lv_themes/lv_theme_material.c **** #endif
 331:lvgl/src/lv_themes/lv_theme_material.c **** }
 332:lvgl/src/lv_themes/lv_theme_material.c **** 
 333:lvgl/src/lv_themes/lv_theme_material.c **** static void btn_init(void)
 334:lvgl/src/lv_themes/lv_theme_material.c **** {
 335:lvgl/src/lv_themes/lv_theme_material.c **** #if LV_USE_BTN != 0
 336:lvgl/src/lv_themes/lv_theme_material.c **** 
 337:lvgl/src/lv_themes/lv_theme_material.c **** #endif
 338:lvgl/src/lv_themes/lv_theme_material.c **** }
 339:lvgl/src/lv_themes/lv_theme_material.c **** 
 340:lvgl/src/lv_themes/lv_theme_material.c **** static void label_init(void)
 341:lvgl/src/lv_themes/lv_theme_material.c **** {
 342:lvgl/src/lv_themes/lv_theme_material.c **** #if LV_USE_LABEL != 0
 343:lvgl/src/lv_themes/lv_theme_material.c **** 
 344:lvgl/src/lv_themes/lv_theme_material.c **** #endif
 345:lvgl/src/lv_themes/lv_theme_material.c **** }
 346:lvgl/src/lv_themes/lv_theme_material.c **** 
 347:lvgl/src/lv_themes/lv_theme_material.c **** static void bar_init(void)
 348:lvgl/src/lv_themes/lv_theme_material.c **** {
 349:lvgl/src/lv_themes/lv_theme_material.c **** #if LV_USE_BAR
 350:lvgl/src/lv_themes/lv_theme_material.c ****     style_init_reset(&styles->bar_bg);
 351:lvgl/src/lv_themes/lv_theme_material.c ****     lv_style_set_radius(&styles->bar_bg, LV_STATE_DEFAULT, LV_RADIUS_CIRCLE);
 352:lvgl/src/lv_themes/lv_theme_material.c ****     lv_style_set_bg_opa(&styles->bar_bg, LV_STATE_DEFAULT, LV_OPA_COVER);
 353:lvgl/src/lv_themes/lv_theme_material.c ****     lv_style_set_bg_color(&styles->bar_bg, LV_STATE_DEFAULT, COLOR_BG_SEC);
 354:lvgl/src/lv_themes/lv_theme_material.c ****     lv_style_set_value_color(&styles->bar_bg, LV_STATE_DEFAULT, IS_LIGHT ? lv_color_hex(0x31404f) :
 355:lvgl/src/lv_themes/lv_theme_material.c ****     lv_style_set_outline_color(&styles->bar_bg, LV_STATE_DEFAULT, theme.color_primary);
 356:lvgl/src/lv_themes/lv_theme_material.c ****     lv_style_set_outline_color(&styles->bar_bg, LV_STATE_EDITED, theme.color_secondary);
 357:lvgl/src/lv_themes/lv_theme_material.c ****     lv_style_set_outline_opa(&styles->bar_bg, LV_STATE_DEFAULT, LV_OPA_TRANSP);
 358:lvgl/src/lv_themes/lv_theme_material.c ****     lv_style_set_outline_opa(&styles->bar_bg, LV_STATE_FOCUSED, LV_OPA_50);
 359:lvgl/src/lv_themes/lv_theme_material.c ****     lv_style_set_outline_width(&styles->bar_bg, LV_STATE_DEFAULT, OUTLINE_WIDTH);
 360:lvgl/src/lv_themes/lv_theme_material.c ****     lv_style_set_transition_time(&styles->bar_bg, LV_STATE_DEFAULT, TRANSITION_TIME);
 361:lvgl/src/lv_themes/lv_theme_material.c ****     lv_style_set_transition_prop_6(&styles->bar_bg, LV_STATE_DEFAULT, LV_STYLE_OUTLINE_OPA);
 362:lvgl/src/lv_themes/lv_theme_material.c **** 
 363:lvgl/src/lv_themes/lv_theme_material.c ****     style_init_reset(&styles->bar_indic);
 364:lvgl/src/lv_themes/lv_theme_material.c ****     lv_style_set_bg_opa(&styles->bar_indic, LV_STATE_DEFAULT, LV_OPA_COVER);
 365:lvgl/src/lv_themes/lv_theme_material.c ****     lv_style_set_radius(&styles->bar_indic, LV_STATE_DEFAULT, LV_RADIUS_CIRCLE);
 366:lvgl/src/lv_themes/lv_theme_material.c ****     lv_style_set_bg_color(&styles->bar_indic, LV_STATE_DEFAULT, theme.color_primary);
 367:lvgl/src/lv_themes/lv_theme_material.c ****     lv_style_set_bg_color(&styles->bar_indic, LV_STATE_DISABLED, lv_color_hex3(0x888));
 368:lvgl/src/lv_themes/lv_theme_material.c ****     lv_style_set_value_color(&styles->bar_indic, LV_STATE_DEFAULT, IS_LIGHT ? lv_color_hex(0x41404f
 369:lvgl/src/lv_themes/lv_theme_material.c **** #endif
 370:lvgl/src/lv_themes/lv_theme_material.c **** }
 371:lvgl/src/lv_themes/lv_theme_material.c **** 
 372:lvgl/src/lv_themes/lv_theme_material.c **** static void img_init(void)
ARM GAS  D:\Temp\cclc1fSW.s 			page 8


 373:lvgl/src/lv_themes/lv_theme_material.c **** {
 374:lvgl/src/lv_themes/lv_theme_material.c **** #if LV_USE_IMG != 0
 375:lvgl/src/lv_themes/lv_theme_material.c **** 
 376:lvgl/src/lv_themes/lv_theme_material.c **** #endif
 377:lvgl/src/lv_themes/lv_theme_material.c **** }
 378:lvgl/src/lv_themes/lv_theme_material.c **** 
 379:lvgl/src/lv_themes/lv_theme_material.c **** static void line_init(void)
 380:lvgl/src/lv_themes/lv_theme_material.c **** {
 381:lvgl/src/lv_themes/lv_theme_material.c **** #if LV_USE_LINE != 0
 382:lvgl/src/lv_themes/lv_theme_material.c **** 
 383:lvgl/src/lv_themes/lv_theme_material.c **** #endif
 384:lvgl/src/lv_themes/lv_theme_material.c **** }
 385:lvgl/src/lv_themes/lv_theme_material.c **** 
 386:lvgl/src/lv_themes/lv_theme_material.c **** static void led_init(void)
 387:lvgl/src/lv_themes/lv_theme_material.c **** {
 388:lvgl/src/lv_themes/lv_theme_material.c **** #if LV_USE_LED != 0
 389:lvgl/src/lv_themes/lv_theme_material.c ****     style_init_reset(&styles->led);
 390:lvgl/src/lv_themes/lv_theme_material.c ****     lv_style_set_bg_opa(&styles->led, LV_STATE_DEFAULT, LV_OPA_COVER);
 391:lvgl/src/lv_themes/lv_theme_material.c ****     lv_style_set_bg_color(&styles->led, LV_STATE_DEFAULT, theme.color_primary);
 392:lvgl/src/lv_themes/lv_theme_material.c ****     lv_style_set_border_width(&styles->led, LV_STATE_DEFAULT, 2);
 393:lvgl/src/lv_themes/lv_theme_material.c ****     lv_style_set_border_opa(&styles->led, LV_STATE_DEFAULT, LV_OPA_50);
 394:lvgl/src/lv_themes/lv_theme_material.c ****     lv_style_set_border_color(&styles->led, LV_STATE_DEFAULT, lv_color_lighten(theme.color_primary,
 395:lvgl/src/lv_themes/lv_theme_material.c ****     lv_style_set_radius(&styles->led, LV_STATE_DEFAULT, LV_RADIUS_CIRCLE);
 396:lvgl/src/lv_themes/lv_theme_material.c ****     lv_style_set_shadow_width(&styles->led, LV_STATE_DEFAULT, LV_DPX(15));
 397:lvgl/src/lv_themes/lv_theme_material.c ****     lv_style_set_shadow_color(&styles->led, LV_STATE_DEFAULT, theme.color_primary);
 398:lvgl/src/lv_themes/lv_theme_material.c ****     lv_style_set_shadow_spread(&styles->led, LV_STATE_DEFAULT, LV_DPX(5));
 399:lvgl/src/lv_themes/lv_theme_material.c **** #endif
 400:lvgl/src/lv_themes/lv_theme_material.c **** }
 401:lvgl/src/lv_themes/lv_theme_material.c **** 
 402:lvgl/src/lv_themes/lv_theme_material.c **** static void slider_init(void)
 403:lvgl/src/lv_themes/lv_theme_material.c **** {
 404:lvgl/src/lv_themes/lv_theme_material.c **** #if LV_USE_SLIDER != 0
 405:lvgl/src/lv_themes/lv_theme_material.c ****     style_init_reset(&styles->slider_knob);
 406:lvgl/src/lv_themes/lv_theme_material.c ****     lv_style_set_bg_opa(&styles->slider_knob, LV_STATE_DEFAULT, LV_OPA_COVER);
 407:lvgl/src/lv_themes/lv_theme_material.c ****     lv_style_set_bg_color(&styles->slider_knob, LV_STATE_DEFAULT, IS_LIGHT ? theme.color_primary : 
 408:lvgl/src/lv_themes/lv_theme_material.c ****     lv_style_set_value_color(&styles->slider_knob, LV_STATE_DEFAULT, IS_LIGHT ? lv_color_hex(0x3140
 409:lvgl/src/lv_themes/lv_theme_material.c ****     lv_style_set_radius(&styles->slider_knob, LV_STATE_DEFAULT, LV_RADIUS_CIRCLE);
 410:lvgl/src/lv_themes/lv_theme_material.c ****     lv_style_set_pad_left(&styles->slider_knob, LV_STATE_DEFAULT, LV_DPX(7));
 411:lvgl/src/lv_themes/lv_theme_material.c ****     lv_style_set_pad_right(&styles->slider_knob, LV_STATE_DEFAULT, LV_DPX(7));
 412:lvgl/src/lv_themes/lv_theme_material.c ****     lv_style_set_pad_top(&styles->slider_knob, LV_STATE_DEFAULT, LV_DPX(7));
 413:lvgl/src/lv_themes/lv_theme_material.c ****     lv_style_set_pad_bottom(&styles->slider_knob, LV_STATE_DEFAULT, LV_DPX(7));
 414:lvgl/src/lv_themes/lv_theme_material.c **** 
 415:lvgl/src/lv_themes/lv_theme_material.c ****     style_init_reset(&styles->slider_bg);
 416:lvgl/src/lv_themes/lv_theme_material.c ****     lv_style_set_margin_left(&styles->slider_bg, LV_STATE_DEFAULT, LV_DPX(10));
 417:lvgl/src/lv_themes/lv_theme_material.c ****     lv_style_set_margin_right(&styles->slider_bg, LV_STATE_DEFAULT, LV_DPX(10));
 418:lvgl/src/lv_themes/lv_theme_material.c ****     lv_style_set_margin_top(&styles->slider_bg, LV_STATE_DEFAULT, LV_DPX(10));
 419:lvgl/src/lv_themes/lv_theme_material.c ****     lv_style_set_margin_bottom(&styles->slider_bg, LV_STATE_DEFAULT, LV_DPX(10));
 420:lvgl/src/lv_themes/lv_theme_material.c **** 
 421:lvgl/src/lv_themes/lv_theme_material.c **** #endif
 422:lvgl/src/lv_themes/lv_theme_material.c **** }
 423:lvgl/src/lv_themes/lv_theme_material.c **** 
 424:lvgl/src/lv_themes/lv_theme_material.c **** static void switch_init(void)
 425:lvgl/src/lv_themes/lv_theme_material.c **** {
 426:lvgl/src/lv_themes/lv_theme_material.c **** #if LV_USE_SWITCH != 0
 427:lvgl/src/lv_themes/lv_theme_material.c ****     style_init_reset(&styles->sw_knob);
 428:lvgl/src/lv_themes/lv_theme_material.c ****     lv_style_set_bg_opa(&styles->sw_knob, LV_STATE_DEFAULT, LV_OPA_COVER);
 429:lvgl/src/lv_themes/lv_theme_material.c ****     lv_style_set_bg_color(&styles->sw_knob, LV_STATE_DEFAULT, LV_COLOR_WHITE);
ARM GAS  D:\Temp\cclc1fSW.s 			page 9


 430:lvgl/src/lv_themes/lv_theme_material.c ****     lv_style_set_radius(&styles->sw_knob, LV_STATE_DEFAULT, LV_RADIUS_CIRCLE);
 431:lvgl/src/lv_themes/lv_theme_material.c ****     lv_style_set_pad_top(&styles->sw_knob, LV_STATE_DEFAULT,    - LV_DPX(4));
 432:lvgl/src/lv_themes/lv_theme_material.c ****     lv_style_set_pad_bottom(&styles->sw_knob, LV_STATE_DEFAULT, - LV_DPX(4));
 433:lvgl/src/lv_themes/lv_theme_material.c ****     lv_style_set_pad_left(&styles->sw_knob, LV_STATE_DEFAULT,   - LV_DPX(4));
 434:lvgl/src/lv_themes/lv_theme_material.c ****     lv_style_set_pad_right(&styles->sw_knob, LV_STATE_DEFAULT,  - LV_DPX(4));
 435:lvgl/src/lv_themes/lv_theme_material.c **** #endif
 436:lvgl/src/lv_themes/lv_theme_material.c **** }
 437:lvgl/src/lv_themes/lv_theme_material.c **** 
 438:lvgl/src/lv_themes/lv_theme_material.c **** static void linemeter_init(void)
 439:lvgl/src/lv_themes/lv_theme_material.c **** {
 440:lvgl/src/lv_themes/lv_theme_material.c **** #if LV_USE_LINEMETER != 0
 441:lvgl/src/lv_themes/lv_theme_material.c ****     style_init_reset(&styles->lmeter);
 442:lvgl/src/lv_themes/lv_theme_material.c ****     lv_style_set_radius(&styles->lmeter, LV_STATE_DEFAULT, LV_RADIUS_CIRCLE);
 443:lvgl/src/lv_themes/lv_theme_material.c ****     lv_style_set_pad_left(&styles->lmeter, LV_STATE_DEFAULT, LV_DPX(20));
 444:lvgl/src/lv_themes/lv_theme_material.c ****     lv_style_set_pad_right(&styles->lmeter, LV_STATE_DEFAULT, LV_DPX(20));
 445:lvgl/src/lv_themes/lv_theme_material.c ****     lv_style_set_pad_top(&styles->lmeter, LV_STATE_DEFAULT, LV_DPX(20));
 446:lvgl/src/lv_themes/lv_theme_material.c ****     lv_style_set_pad_inner(&styles->lmeter, LV_STATE_DEFAULT, LV_DPX(30));
 447:lvgl/src/lv_themes/lv_theme_material.c ****     lv_style_set_scale_width(&styles->lmeter, LV_STATE_DEFAULT, LV_DPX(25));
 448:lvgl/src/lv_themes/lv_theme_material.c **** 
 449:lvgl/src/lv_themes/lv_theme_material.c ****     lv_style_set_line_color(&styles->lmeter, LV_STATE_DEFAULT, theme.color_primary);
 450:lvgl/src/lv_themes/lv_theme_material.c ****     lv_style_set_scale_grad_color(&styles->lmeter, LV_STATE_DEFAULT, theme.color_primary);
 451:lvgl/src/lv_themes/lv_theme_material.c ****     lv_style_set_scale_end_color(&styles->lmeter, LV_STATE_DEFAULT, lv_color_hex3(0x888));
 452:lvgl/src/lv_themes/lv_theme_material.c ****     lv_style_set_line_width(&styles->lmeter, LV_STATE_DEFAULT, LV_DPX(10));
 453:lvgl/src/lv_themes/lv_theme_material.c ****     lv_style_set_scale_end_line_width(&styles->lmeter, LV_STATE_DEFAULT, LV_DPX(7));
 454:lvgl/src/lv_themes/lv_theme_material.c **** #endif
 455:lvgl/src/lv_themes/lv_theme_material.c **** }
 456:lvgl/src/lv_themes/lv_theme_material.c **** 
 457:lvgl/src/lv_themes/lv_theme_material.c **** static void gauge_init(void)
 458:lvgl/src/lv_themes/lv_theme_material.c **** {
 459:lvgl/src/lv_themes/lv_theme_material.c **** #if LV_USE_GAUGE != 0
 460:lvgl/src/lv_themes/lv_theme_material.c ****     style_init_reset(&styles->gauge_main);
 461:lvgl/src/lv_themes/lv_theme_material.c ****     lv_style_set_line_color(&styles->gauge_main, LV_STATE_DEFAULT, lv_color_hex3(0x888));
 462:lvgl/src/lv_themes/lv_theme_material.c ****     lv_style_set_scale_grad_color(&styles->gauge_main, LV_STATE_DEFAULT, lv_color_hex3(0x888));
 463:lvgl/src/lv_themes/lv_theme_material.c ****     lv_style_set_scale_end_color(&styles->gauge_main, LV_STATE_DEFAULT, theme.color_primary);
 464:lvgl/src/lv_themes/lv_theme_material.c ****     lv_style_set_line_width(&styles->gauge_main, LV_STATE_DEFAULT, LV_DPX(5));
 465:lvgl/src/lv_themes/lv_theme_material.c ****     lv_style_set_scale_end_line_width(&styles->gauge_main, LV_STATE_DEFAULT, LV_DPX(4));
 466:lvgl/src/lv_themes/lv_theme_material.c ****     lv_style_set_scale_end_border_width(&styles->gauge_main, LV_STATE_DEFAULT, LV_DPX(8));
 467:lvgl/src/lv_themes/lv_theme_material.c ****     lv_style_set_pad_left(&styles->gauge_main, LV_STATE_DEFAULT, LV_DPX(20));
 468:lvgl/src/lv_themes/lv_theme_material.c ****     lv_style_set_pad_right(&styles->gauge_main, LV_STATE_DEFAULT, LV_DPX(20));
 469:lvgl/src/lv_themes/lv_theme_material.c ****     lv_style_set_pad_top(&styles->gauge_main, LV_STATE_DEFAULT, LV_DPX(20));
 470:lvgl/src/lv_themes/lv_theme_material.c ****     lv_style_set_pad_inner(&styles->gauge_main, LV_STATE_DEFAULT, LV_DPX(20));
 471:lvgl/src/lv_themes/lv_theme_material.c ****     lv_style_set_scale_width(&styles->gauge_main, LV_STATE_DEFAULT, LV_DPX(15));
 472:lvgl/src/lv_themes/lv_theme_material.c ****     lv_style_set_radius(&styles->gauge_main, LV_STATE_DEFAULT, LV_RADIUS_CIRCLE);
 473:lvgl/src/lv_themes/lv_theme_material.c **** 
 474:lvgl/src/lv_themes/lv_theme_material.c ****     style_init_reset(&styles->gauge_strong);
 475:lvgl/src/lv_themes/lv_theme_material.c ****     lv_style_set_line_color(&styles->gauge_strong, LV_STATE_DEFAULT, lv_color_hex3(0x888));
 476:lvgl/src/lv_themes/lv_theme_material.c ****     lv_style_set_scale_grad_color(&styles->gauge_strong, LV_STATE_DEFAULT, lv_color_hex3(0x888));
 477:lvgl/src/lv_themes/lv_theme_material.c ****     lv_style_set_scale_end_color(&styles->gauge_strong, LV_STATE_DEFAULT, theme.color_primary);
 478:lvgl/src/lv_themes/lv_theme_material.c ****     lv_style_set_line_width(&styles->gauge_strong, LV_STATE_DEFAULT, LV_DPX(8));
 479:lvgl/src/lv_themes/lv_theme_material.c ****     lv_style_set_scale_end_line_width(&styles->gauge_strong, LV_STATE_DEFAULT, LV_DPX(8));
 480:lvgl/src/lv_themes/lv_theme_material.c ****     lv_style_set_scale_width(&styles->gauge_strong, LV_STATE_DEFAULT, LV_DPX(25));
 481:lvgl/src/lv_themes/lv_theme_material.c **** 
 482:lvgl/src/lv_themes/lv_theme_material.c ****     style_init_reset(&styles->gauge_needle);
 483:lvgl/src/lv_themes/lv_theme_material.c ****     lv_style_set_line_color(&styles->gauge_needle, LV_STATE_DEFAULT, IS_LIGHT ? lv_color_hex(0x464b
 484:lvgl/src/lv_themes/lv_theme_material.c ****     lv_style_set_line_width(&styles->gauge_needle, LV_STATE_DEFAULT, LV_DPX(8));
 485:lvgl/src/lv_themes/lv_theme_material.c ****     lv_style_set_bg_opa(&styles->gauge_needle, LV_STATE_DEFAULT, LV_OPA_COVER);
 486:lvgl/src/lv_themes/lv_theme_material.c ****     lv_style_set_bg_color(&styles->gauge_needle, LV_STATE_DEFAULT, IS_LIGHT ? lv_color_hex(0x464b5b
ARM GAS  D:\Temp\cclc1fSW.s 			page 10


 487:lvgl/src/lv_themes/lv_theme_material.c ****     lv_style_set_radius(&styles->gauge_needle, LV_STATE_DEFAULT, LV_RADIUS_CIRCLE);
 488:lvgl/src/lv_themes/lv_theme_material.c ****     lv_style_set_size(&styles->gauge_needle, LV_STATE_DEFAULT, LV_DPX(30));
 489:lvgl/src/lv_themes/lv_theme_material.c ****     lv_style_set_pad_inner(&styles->gauge_needle, LV_STATE_DEFAULT, LV_DPX(10));
 490:lvgl/src/lv_themes/lv_theme_material.c **** #endif
 491:lvgl/src/lv_themes/lv_theme_material.c **** }
 492:lvgl/src/lv_themes/lv_theme_material.c **** 
 493:lvgl/src/lv_themes/lv_theme_material.c **** static void arc_init(void)
 494:lvgl/src/lv_themes/lv_theme_material.c **** {
 495:lvgl/src/lv_themes/lv_theme_material.c **** #if LV_USE_ARC != 0
 496:lvgl/src/lv_themes/lv_theme_material.c ****     style_init_reset(&styles->arc_indic);
 497:lvgl/src/lv_themes/lv_theme_material.c ****     lv_style_set_line_color(&styles->arc_indic, LV_STATE_DEFAULT, theme.color_primary);
 498:lvgl/src/lv_themes/lv_theme_material.c ****     lv_style_set_line_width(&styles->arc_indic, LV_STATE_DEFAULT, LV_DPX(25));
 499:lvgl/src/lv_themes/lv_theme_material.c ****     lv_style_set_line_rounded(&styles->arc_indic, LV_STATE_DEFAULT, true);
 500:lvgl/src/lv_themes/lv_theme_material.c **** 
 501:lvgl/src/lv_themes/lv_theme_material.c ****     style_init_reset(&styles->arc_bg);
 502:lvgl/src/lv_themes/lv_theme_material.c ****     lv_style_set_line_color(&styles->arc_bg, LV_STATE_DEFAULT, COLOR_BG_SEC);
 503:lvgl/src/lv_themes/lv_theme_material.c ****     lv_style_set_line_width(&styles->arc_bg, LV_STATE_DEFAULT, LV_DPX(25));
 504:lvgl/src/lv_themes/lv_theme_material.c ****     lv_style_set_line_rounded(&styles->arc_bg, LV_STATE_DEFAULT, true);
 505:lvgl/src/lv_themes/lv_theme_material.c **** 
 506:lvgl/src/lv_themes/lv_theme_material.c ****     style_init_reset(&styles->arc_knob);
 507:lvgl/src/lv_themes/lv_theme_material.c ****     lv_style_set_radius(&styles->arc_knob, LV_STATE_DEFAULT,   LV_RADIUS_CIRCLE);
 508:lvgl/src/lv_themes/lv_theme_material.c ****     lv_style_set_pad_top(&styles->arc_knob, LV_STATE_DEFAULT,  LV_DPX(0));
 509:lvgl/src/lv_themes/lv_theme_material.c ****     lv_style_set_pad_bottom(&styles->arc_knob, LV_STATE_DEFAULT,  LV_DPX(0));
 510:lvgl/src/lv_themes/lv_theme_material.c ****     lv_style_set_pad_left(&styles->arc_knob, LV_STATE_DEFAULT,    LV_DPX(0));
 511:lvgl/src/lv_themes/lv_theme_material.c ****     lv_style_set_pad_right(&styles->arc_knob, LV_STATE_DEFAULT,   LV_DPX(0));
 512:lvgl/src/lv_themes/lv_theme_material.c **** 
 513:lvgl/src/lv_themes/lv_theme_material.c **** #endif
 514:lvgl/src/lv_themes/lv_theme_material.c **** }
 515:lvgl/src/lv_themes/lv_theme_material.c **** 
 516:lvgl/src/lv_themes/lv_theme_material.c **** static void spinner_init(void)
 517:lvgl/src/lv_themes/lv_theme_material.c **** {
 518:lvgl/src/lv_themes/lv_theme_material.c **** #if LV_USE_SPINNER != 0
 519:lvgl/src/lv_themes/lv_theme_material.c **** #endif
 520:lvgl/src/lv_themes/lv_theme_material.c **** }
 521:lvgl/src/lv_themes/lv_theme_material.c **** 
 522:lvgl/src/lv_themes/lv_theme_material.c **** static void chart_init(void)
 523:lvgl/src/lv_themes/lv_theme_material.c **** {
 524:lvgl/src/lv_themes/lv_theme_material.c **** #if LV_USE_CHART
 525:lvgl/src/lv_themes/lv_theme_material.c ****     style_init_reset(&styles->chart_bg);
 526:lvgl/src/lv_themes/lv_theme_material.c ****     lv_style_set_text_color(&styles->chart_bg, LV_STATE_DEFAULT, IS_LIGHT ? COLOR_BG_TEXT_DIS : lv_
 527:lvgl/src/lv_themes/lv_theme_material.c **** 
 528:lvgl/src/lv_themes/lv_theme_material.c ****     style_init_reset(&styles->chart_series_bg);
 529:lvgl/src/lv_themes/lv_theme_material.c ****     lv_style_set_line_width(&styles->chart_series_bg, LV_STATE_DEFAULT, LV_DPX(1));
 530:lvgl/src/lv_themes/lv_theme_material.c ****     lv_style_set_line_dash_width(&styles->chart_series_bg, LV_STATE_DEFAULT, LV_DPX(10));
 531:lvgl/src/lv_themes/lv_theme_material.c ****     lv_style_set_line_dash_gap(&styles->chart_series_bg, LV_STATE_DEFAULT, LV_DPX(10));
 532:lvgl/src/lv_themes/lv_theme_material.c ****     lv_style_set_line_color(&styles->chart_series_bg, LV_STATE_DEFAULT, COLOR_BG_BORDER);
 533:lvgl/src/lv_themes/lv_theme_material.c **** 
 534:lvgl/src/lv_themes/lv_theme_material.c ****     style_init_reset(&styles->chart_series);
 535:lvgl/src/lv_themes/lv_theme_material.c ****     lv_style_set_line_width(&styles->chart_series, LV_STATE_DEFAULT, LV_DPX(3));
 536:lvgl/src/lv_themes/lv_theme_material.c ****     lv_style_set_size(&styles->chart_series, LV_STATE_DEFAULT, LV_DPX(4));
 537:lvgl/src/lv_themes/lv_theme_material.c ****     lv_style_set_pad_inner(&styles->chart_series, LV_STATE_DEFAULT, LV_DPX(2));     /*Space between
 538:lvgl/src/lv_themes/lv_theme_material.c ****     lv_style_set_radius(&styles->chart_series, LV_STATE_DEFAULT, LV_DPX(1));
 539:lvgl/src/lv_themes/lv_theme_material.c **** 
 540:lvgl/src/lv_themes/lv_theme_material.c **** #endif
 541:lvgl/src/lv_themes/lv_theme_material.c **** }
 542:lvgl/src/lv_themes/lv_theme_material.c **** 
 543:lvgl/src/lv_themes/lv_theme_material.c **** static void calendar_init(void)
ARM GAS  D:\Temp\cclc1fSW.s 			page 11


 544:lvgl/src/lv_themes/lv_theme_material.c **** {
 545:lvgl/src/lv_themes/lv_theme_material.c **** #if LV_USE_CALENDAR
 546:lvgl/src/lv_themes/lv_theme_material.c **** 
 547:lvgl/src/lv_themes/lv_theme_material.c ****     style_init_reset(&styles->calendar_header);
 548:lvgl/src/lv_themes/lv_theme_material.c ****     lv_style_set_pad_top(&styles->calendar_header, LV_STATE_DEFAULT, 0);
 549:lvgl/src/lv_themes/lv_theme_material.c ****     lv_style_set_pad_left(&styles->calendar_header, LV_STATE_DEFAULT, PAD_DEF);
 550:lvgl/src/lv_themes/lv_theme_material.c ****     lv_style_set_pad_right(&styles->calendar_header, LV_STATE_DEFAULT, PAD_DEF);
 551:lvgl/src/lv_themes/lv_theme_material.c ****     lv_style_set_pad_bottom(&styles->calendar_header, LV_STATE_DEFAULT, 0);
 552:lvgl/src/lv_themes/lv_theme_material.c ****     lv_style_set_margin_top(&styles->calendar_header, LV_STATE_DEFAULT, PAD_DEF);
 553:lvgl/src/lv_themes/lv_theme_material.c ****     lv_style_set_margin_bottom(&styles->calendar_header, LV_STATE_DEFAULT, PAD_DEF);
 554:lvgl/src/lv_themes/lv_theme_material.c ****     lv_style_set_text_color(&styles->calendar_header, LV_STATE_PRESSED, IS_LIGHT ? lv_color_hex(0x8
 555:lvgl/src/lv_themes/lv_theme_material.c **** 
 556:lvgl/src/lv_themes/lv_theme_material.c ****     style_init_reset(&styles->calendar_daynames);
 557:lvgl/src/lv_themes/lv_theme_material.c ****     lv_style_set_text_color(&styles->calendar_daynames, LV_STATE_DEFAULT,
 558:lvgl/src/lv_themes/lv_theme_material.c ****                             IS_LIGHT ? lv_color_hex(0x31404f) : lv_color_hex3(0xeee));
 559:lvgl/src/lv_themes/lv_theme_material.c ****     lv_style_set_pad_left(&styles->calendar_daynames, LV_STATE_DEFAULT, PAD_DEF);
 560:lvgl/src/lv_themes/lv_theme_material.c ****     lv_style_set_pad_right(&styles->calendar_daynames, LV_STATE_DEFAULT, PAD_DEF);
 561:lvgl/src/lv_themes/lv_theme_material.c ****     lv_style_set_pad_bottom(&styles->calendar_daynames, LV_STATE_DEFAULT, PAD_DEF);
 562:lvgl/src/lv_themes/lv_theme_material.c **** 
 563:lvgl/src/lv_themes/lv_theme_material.c ****     style_init_reset(&styles->calendar_date_nums);
 564:lvgl/src/lv_themes/lv_theme_material.c ****     lv_style_set_radius(&styles->calendar_date_nums, LV_STATE_DEFAULT, LV_DPX(4));
 565:lvgl/src/lv_themes/lv_theme_material.c ****     lv_style_set_text_color(&styles->calendar_date_nums, LV_STATE_CHECKED,
 566:lvgl/src/lv_themes/lv_theme_material.c ****                             IS_LIGHT ? lv_color_hex(0x31404f) : LV_COLOR_WHITE);
 567:lvgl/src/lv_themes/lv_theme_material.c ****     lv_style_set_text_color(&styles->calendar_date_nums, LV_STATE_DISABLED, LV_COLOR_GRAY);
 568:lvgl/src/lv_themes/lv_theme_material.c ****     lv_style_set_bg_opa(&styles->calendar_date_nums, LV_STATE_CHECKED, IS_LIGHT ? LV_OPA_20 : LV_OP
 569:lvgl/src/lv_themes/lv_theme_material.c ****     lv_style_set_bg_opa(&styles->calendar_date_nums, LV_STATE_PRESSED, LV_OPA_20);
 570:lvgl/src/lv_themes/lv_theme_material.c ****     lv_style_set_bg_opa(&styles->calendar_date_nums, LV_STATE_FOCUSED, LV_OPA_COVER);
 571:lvgl/src/lv_themes/lv_theme_material.c ****     lv_style_set_text_color(&styles->calendar_date_nums, LV_STATE_FOCUSED, LV_COLOR_WHITE);
 572:lvgl/src/lv_themes/lv_theme_material.c ****     lv_style_set_bg_color(&styles->calendar_date_nums, LV_STATE_FOCUSED, theme.color_primary);
 573:lvgl/src/lv_themes/lv_theme_material.c ****     lv_style_set_bg_color(&styles->calendar_date_nums, LV_STATE_DEFAULT,
 574:lvgl/src/lv_themes/lv_theme_material.c ****                           IS_LIGHT ? lv_color_hex(0x666666) : LV_COLOR_WHITE);
 575:lvgl/src/lv_themes/lv_theme_material.c ****     lv_style_set_bg_color(&styles->calendar_date_nums, LV_STATE_CHECKED, theme.color_primary);
 576:lvgl/src/lv_themes/lv_theme_material.c ****     lv_style_set_border_width(&styles->calendar_date_nums, LV_STATE_CHECKED, 2);
 577:lvgl/src/lv_themes/lv_theme_material.c ****     lv_style_set_border_side(&styles->calendar_date_nums, LV_STATE_CHECKED, LV_BORDER_SIDE_LEFT);
 578:lvgl/src/lv_themes/lv_theme_material.c ****     lv_style_set_border_color(&styles->calendar_date_nums, LV_STATE_CHECKED, theme.color_primary);
 579:lvgl/src/lv_themes/lv_theme_material.c ****     lv_style_set_pad_inner(&styles->calendar_date_nums, LV_STATE_DEFAULT, LV_DPX(3));
 580:lvgl/src/lv_themes/lv_theme_material.c ****     lv_style_set_pad_left(&styles->calendar_date_nums, LV_STATE_DEFAULT, PAD_DEF);
 581:lvgl/src/lv_themes/lv_theme_material.c ****     lv_style_set_pad_right(&styles->calendar_date_nums, LV_STATE_DEFAULT, PAD_DEF);
 582:lvgl/src/lv_themes/lv_theme_material.c ****     lv_style_set_pad_bottom(&styles->calendar_date_nums, LV_STATE_DEFAULT, PAD_DEF);
 583:lvgl/src/lv_themes/lv_theme_material.c **** #endif
 584:lvgl/src/lv_themes/lv_theme_material.c **** }
 585:lvgl/src/lv_themes/lv_theme_material.c **** 
 586:lvgl/src/lv_themes/lv_theme_material.c **** static void cpicker_init(void)
 587:lvgl/src/lv_themes/lv_theme_material.c **** {
 588:lvgl/src/lv_themes/lv_theme_material.c **** #if LV_USE_CPICKER
 589:lvgl/src/lv_themes/lv_theme_material.c ****     style_init_reset(&styles->cpicker_bg);
 590:lvgl/src/lv_themes/lv_theme_material.c ****     lv_style_set_scale_width(&styles->cpicker_bg, LV_STATE_DEFAULT, LV_DPX(30));
 591:lvgl/src/lv_themes/lv_theme_material.c ****     lv_style_set_bg_opa(&styles->cpicker_bg, LV_STATE_DEFAULT, LV_OPA_COVER);
 592:lvgl/src/lv_themes/lv_theme_material.c ****     lv_style_set_bg_color(&styles->cpicker_bg, LV_STATE_DEFAULT, COLOR_SCR);
 593:lvgl/src/lv_themes/lv_theme_material.c ****     lv_style_set_pad_inner(&styles->cpicker_bg, LV_STATE_DEFAULT, LV_DPX(20));
 594:lvgl/src/lv_themes/lv_theme_material.c ****     lv_style_set_radius(&styles->cpicker_bg, LV_STATE_DEFAULT, LV_RADIUS_CIRCLE);
 595:lvgl/src/lv_themes/lv_theme_material.c **** 
 596:lvgl/src/lv_themes/lv_theme_material.c ****     style_init_reset(&styles->cpicker_indic);
 597:lvgl/src/lv_themes/lv_theme_material.c ****     lv_style_set_radius(&styles->cpicker_indic, LV_STATE_DEFAULT, LV_RADIUS_CIRCLE);
 598:lvgl/src/lv_themes/lv_theme_material.c ****     lv_style_set_bg_color(&styles->cpicker_indic, LV_STATE_DEFAULT, LV_COLOR_WHITE);
 599:lvgl/src/lv_themes/lv_theme_material.c ****     lv_style_set_bg_opa(&styles->cpicker_indic, LV_STATE_DEFAULT, LV_OPA_COVER);
 600:lvgl/src/lv_themes/lv_theme_material.c ****     lv_style_set_border_width(&styles->cpicker_indic, LV_STATE_DEFAULT, 2);
ARM GAS  D:\Temp\cclc1fSW.s 			page 12


 601:lvgl/src/lv_themes/lv_theme_material.c ****     lv_style_set_border_color(&styles->cpicker_indic, LV_STATE_DEFAULT, LV_COLOR_GRAY);
 602:lvgl/src/lv_themes/lv_theme_material.c ****     lv_style_set_border_color(&styles->cpicker_indic, LV_STATE_FOCUSED, theme.color_primary);
 603:lvgl/src/lv_themes/lv_theme_material.c ****     lv_style_set_border_color(&styles->cpicker_indic, LV_STATE_EDITED, theme.color_secondary);
 604:lvgl/src/lv_themes/lv_theme_material.c ****     lv_style_set_pad_left(&styles->cpicker_indic, LV_STATE_DEFAULT, LV_DPX(13));
 605:lvgl/src/lv_themes/lv_theme_material.c ****     lv_style_set_pad_right(&styles->cpicker_indic, LV_STATE_DEFAULT, LV_DPX(13));
 606:lvgl/src/lv_themes/lv_theme_material.c ****     lv_style_set_pad_top(&styles->cpicker_indic, LV_STATE_DEFAULT, LV_DPX(13));
 607:lvgl/src/lv_themes/lv_theme_material.c ****     lv_style_set_pad_bottom(&styles->cpicker_indic, LV_STATE_DEFAULT, LV_DPX(13));
 608:lvgl/src/lv_themes/lv_theme_material.c **** #endif
 609:lvgl/src/lv_themes/lv_theme_material.c **** }
 610:lvgl/src/lv_themes/lv_theme_material.c **** 
 611:lvgl/src/lv_themes/lv_theme_material.c **** static void checkbox_init(void)
 612:lvgl/src/lv_themes/lv_theme_material.c **** {
 613:lvgl/src/lv_themes/lv_theme_material.c **** #if LV_USE_CHECKBOX != 0
 614:lvgl/src/lv_themes/lv_theme_material.c ****     style_init_reset(&styles->cb_bg);
 615:lvgl/src/lv_themes/lv_theme_material.c ****     lv_style_set_radius(&styles->cb_bg, LV_STATE_DEFAULT, LV_DPX(4));
 616:lvgl/src/lv_themes/lv_theme_material.c ****     lv_style_set_pad_inner(&styles->cb_bg, LV_STATE_DEFAULT, LV_DPX(10));
 617:lvgl/src/lv_themes/lv_theme_material.c ****     lv_style_set_outline_color(&styles->cb_bg, LV_STATE_DEFAULT, theme.color_primary);
 618:lvgl/src/lv_themes/lv_theme_material.c ****     lv_style_set_outline_opa(&styles->cb_bg, LV_STATE_DEFAULT, LV_OPA_TRANSP);
 619:lvgl/src/lv_themes/lv_theme_material.c ****     lv_style_set_outline_opa(&styles->cb_bg, LV_STATE_FOCUSED, LV_OPA_50);
 620:lvgl/src/lv_themes/lv_theme_material.c ****     lv_style_set_outline_width(&styles->cb_bg, LV_STATE_DEFAULT, OUTLINE_WIDTH);
 621:lvgl/src/lv_themes/lv_theme_material.c ****     lv_style_set_outline_pad(&styles->cb_bg, LV_STATE_DEFAULT, LV_DPX(10));
 622:lvgl/src/lv_themes/lv_theme_material.c ****     lv_style_set_transition_time(&styles->cb_bg, LV_STATE_DEFAULT, TRANSITION_TIME);
 623:lvgl/src/lv_themes/lv_theme_material.c ****     lv_style_set_transition_prop_6(&styles->cb_bg, LV_STATE_DEFAULT, LV_STYLE_OUTLINE_OPA);
 624:lvgl/src/lv_themes/lv_theme_material.c **** 
 625:lvgl/src/lv_themes/lv_theme_material.c ****     style_init_reset(&styles->cb_bullet);
 626:lvgl/src/lv_themes/lv_theme_material.c ****     lv_style_set_outline_opa(&styles->cb_bullet, LV_STATE_FOCUSED, LV_OPA_TRANSP);
 627:lvgl/src/lv_themes/lv_theme_material.c ****     lv_style_set_radius(&styles->cb_bullet, LV_STATE_DEFAULT, LV_DPX(4));
 628:lvgl/src/lv_themes/lv_theme_material.c ****     lv_style_set_pattern_image(&styles->cb_bullet, LV_STATE_CHECKED, LV_SYMBOL_OK);
 629:lvgl/src/lv_themes/lv_theme_material.c ****     lv_style_set_pattern_recolor(&styles->cb_bullet, LV_STATE_CHECKED, LV_COLOR_WHITE);
 630:lvgl/src/lv_themes/lv_theme_material.c ****     lv_style_set_pattern_opa(&styles->cb_bullet, LV_STATE_DEFAULT, LV_OPA_TRANSP);
 631:lvgl/src/lv_themes/lv_theme_material.c ****     lv_style_set_pattern_opa(&styles->cb_bullet, LV_STATE_CHECKED, LV_OPA_COVER);
 632:lvgl/src/lv_themes/lv_theme_material.c ****     lv_style_set_transition_prop_3(&styles->cb_bullet, LV_STATE_DEFAULT, LV_STYLE_PATTERN_OPA);
 633:lvgl/src/lv_themes/lv_theme_material.c ****     lv_style_set_text_font(&styles->cb_bullet, LV_STATE_CHECKED, theme.font_small);
 634:lvgl/src/lv_themes/lv_theme_material.c ****     lv_style_set_pad_left(&styles->cb_bullet, LV_STATE_DEFAULT, LV_DPX(3));
 635:lvgl/src/lv_themes/lv_theme_material.c ****     lv_style_set_pad_right(&styles->cb_bullet, LV_STATE_DEFAULT, LV_DPX(3));
 636:lvgl/src/lv_themes/lv_theme_material.c ****     lv_style_set_pad_top(&styles->cb_bullet, LV_STATE_DEFAULT, LV_DPX(3));
 637:lvgl/src/lv_themes/lv_theme_material.c ****     lv_style_set_pad_bottom(&styles->cb_bullet, LV_STATE_DEFAULT, LV_DPX(3));
 638:lvgl/src/lv_themes/lv_theme_material.c **** #endif
 639:lvgl/src/lv_themes/lv_theme_material.c **** }
 640:lvgl/src/lv_themes/lv_theme_material.c **** 
 641:lvgl/src/lv_themes/lv_theme_material.c **** static void btnmatrix_init(void)
 642:lvgl/src/lv_themes/lv_theme_material.c **** {
 643:lvgl/src/lv_themes/lv_theme_material.c **** }
 644:lvgl/src/lv_themes/lv_theme_material.c **** 
 645:lvgl/src/lv_themes/lv_theme_material.c **** static void keyboard_init(void)
 646:lvgl/src/lv_themes/lv_theme_material.c **** {
 647:lvgl/src/lv_themes/lv_theme_material.c **** #if LV_USE_KEYBOARD
 648:lvgl/src/lv_themes/lv_theme_material.c ****     style_init_reset(&styles->kb_bg);
 649:lvgl/src/lv_themes/lv_theme_material.c ****     lv_style_set_radius(&styles->kb_bg, LV_STATE_DEFAULT, 0);
 650:lvgl/src/lv_themes/lv_theme_material.c ****     lv_style_set_border_width(&styles->kb_bg, LV_STATE_DEFAULT, LV_DPX(4));
 651:lvgl/src/lv_themes/lv_theme_material.c ****     lv_style_set_border_side(&styles->kb_bg, LV_STATE_DEFAULT, LV_BORDER_SIDE_TOP);
 652:lvgl/src/lv_themes/lv_theme_material.c ****     lv_style_set_border_color(&styles->kb_bg, LV_STATE_DEFAULT, IS_LIGHT ? COLOR_BG_TEXT : LV_COLOR
 653:lvgl/src/lv_themes/lv_theme_material.c ****     lv_style_set_border_color(&styles->kb_bg, LV_STATE_EDITED, theme.color_secondary);
 654:lvgl/src/lv_themes/lv_theme_material.c ****     lv_style_set_pad_left(&styles->kb_bg, LV_STATE_DEFAULT,  LV_DPX(5));
 655:lvgl/src/lv_themes/lv_theme_material.c ****     lv_style_set_pad_right(&styles->kb_bg, LV_STATE_DEFAULT, LV_DPX(5));
 656:lvgl/src/lv_themes/lv_theme_material.c ****     lv_style_set_pad_top(&styles->kb_bg, LV_STATE_DEFAULT,  LV_DPX(5));
 657:lvgl/src/lv_themes/lv_theme_material.c ****     lv_style_set_pad_bottom(&styles->kb_bg, LV_STATE_DEFAULT, LV_DPX(5));
ARM GAS  D:\Temp\cclc1fSW.s 			page 13


 658:lvgl/src/lv_themes/lv_theme_material.c ****     lv_style_set_pad_inner(&styles->kb_bg, LV_STATE_DEFAULT, LV_DPX(3));
 659:lvgl/src/lv_themes/lv_theme_material.c **** #endif
 660:lvgl/src/lv_themes/lv_theme_material.c **** }
 661:lvgl/src/lv_themes/lv_theme_material.c **** 
 662:lvgl/src/lv_themes/lv_theme_material.c **** static void msgbox_init(void)
 663:lvgl/src/lv_themes/lv_theme_material.c **** {
 664:lvgl/src/lv_themes/lv_theme_material.c **** #if LV_USE_MSGBOX
 665:lvgl/src/lv_themes/lv_theme_material.c ****     style_init_reset(&styles->mbox_bg);
 666:lvgl/src/lv_themes/lv_theme_material.c ****     lv_style_set_shadow_width(&styles->mbox_bg, LV_STATE_DEFAULT, LV_DPX(50));
 667:lvgl/src/lv_themes/lv_theme_material.c ****     lv_style_set_shadow_color(&styles->mbox_bg, LV_STATE_DEFAULT, IS_LIGHT ? LV_COLOR_SILVER : lv_c
 668:lvgl/src/lv_themes/lv_theme_material.c **** 
 669:lvgl/src/lv_themes/lv_theme_material.c **** #endif
 670:lvgl/src/lv_themes/lv_theme_material.c **** }
 671:lvgl/src/lv_themes/lv_theme_material.c **** 
 672:lvgl/src/lv_themes/lv_theme_material.c **** static void page_init(void)
 673:lvgl/src/lv_themes/lv_theme_material.c **** {
 674:lvgl/src/lv_themes/lv_theme_material.c **** #if LV_USE_PAGE
 675:lvgl/src/lv_themes/lv_theme_material.c ****     style_init_reset(&styles->sb);
 676:lvgl/src/lv_themes/lv_theme_material.c ****     lv_style_set_bg_opa(&styles->sb, LV_STATE_DEFAULT, LV_OPA_COVER);
 677:lvgl/src/lv_themes/lv_theme_material.c ****     lv_style_set_bg_color(&styles->sb, LV_STATE_DEFAULT, (IS_LIGHT ? lv_color_hex(0xcccfd1) : lv_co
 678:lvgl/src/lv_themes/lv_theme_material.c ****     lv_style_set_radius(&styles->sb, LV_STATE_DEFAULT, LV_RADIUS_CIRCLE);
 679:lvgl/src/lv_themes/lv_theme_material.c ****     lv_style_set_size(&styles->sb, LV_STATE_DEFAULT, LV_DPX(7));
 680:lvgl/src/lv_themes/lv_theme_material.c ****     lv_style_set_pad_right(&styles->sb, LV_STATE_DEFAULT,  LV_DPX(7));
 681:lvgl/src/lv_themes/lv_theme_material.c ****     lv_style_set_pad_bottom(&styles->sb, LV_STATE_DEFAULT,  LV_DPX(7));
 682:lvgl/src/lv_themes/lv_theme_material.c **** 
 683:lvgl/src/lv_themes/lv_theme_material.c **** #if LV_USE_ANIMATION
 684:lvgl/src/lv_themes/lv_theme_material.c ****     style_init_reset(&styles->edge_flash);
 685:lvgl/src/lv_themes/lv_theme_material.c ****     lv_style_set_bg_opa(&styles->edge_flash, LV_STATE_DEFAULT, LV_OPA_COVER);
 686:lvgl/src/lv_themes/lv_theme_material.c ****     lv_style_set_bg_color(&styles->edge_flash, LV_STATE_DEFAULT,  lv_color_hex3(0x888));
 687:lvgl/src/lv_themes/lv_theme_material.c **** #endif
 688:lvgl/src/lv_themes/lv_theme_material.c **** #endif
 689:lvgl/src/lv_themes/lv_theme_material.c **** }
 690:lvgl/src/lv_themes/lv_theme_material.c **** 
 691:lvgl/src/lv_themes/lv_theme_material.c **** static void textarea_init(void)
 692:lvgl/src/lv_themes/lv_theme_material.c **** {
 693:lvgl/src/lv_themes/lv_theme_material.c **** #if LV_USE_TEXTAREA
 694:lvgl/src/lv_themes/lv_theme_material.c ****     style_init_reset(&styles->ta_cursor);
 695:lvgl/src/lv_themes/lv_theme_material.c ****     lv_style_set_border_color(&styles->ta_cursor, LV_STATE_DEFAULT, COLOR_BG_SEC_TEXT);
 696:lvgl/src/lv_themes/lv_theme_material.c ****     lv_style_set_border_width(&styles->ta_cursor, LV_STATE_DEFAULT, LV_DPX(2));
 697:lvgl/src/lv_themes/lv_theme_material.c ****     lv_style_set_pad_left(&styles->ta_cursor, LV_STATE_DEFAULT, LV_DPX(1));
 698:lvgl/src/lv_themes/lv_theme_material.c ****     lv_style_set_border_side(&styles->ta_cursor, LV_STATE_DEFAULT, LV_BORDER_SIDE_LEFT);
 699:lvgl/src/lv_themes/lv_theme_material.c **** 
 700:lvgl/src/lv_themes/lv_theme_material.c ****     style_init_reset(&styles->ta_placeholder);
 701:lvgl/src/lv_themes/lv_theme_material.c ****     lv_style_set_text_color(&styles->ta_placeholder, LV_STATE_DEFAULT,
 702:lvgl/src/lv_themes/lv_theme_material.c ****                             IS_LIGHT ? COLOR_BG_TEXT_DIS : lv_color_hex(0xa1adbd));
 703:lvgl/src/lv_themes/lv_theme_material.c **** #endif
 704:lvgl/src/lv_themes/lv_theme_material.c **** }
 705:lvgl/src/lv_themes/lv_theme_material.c **** 
 706:lvgl/src/lv_themes/lv_theme_material.c **** static void spinbox_init(void)
 707:lvgl/src/lv_themes/lv_theme_material.c **** {
 708:lvgl/src/lv_themes/lv_theme_material.c **** #if LV_USE_SPINBOX
 709:lvgl/src/lv_themes/lv_theme_material.c **** 
 710:lvgl/src/lv_themes/lv_theme_material.c ****     style_init_reset(&styles->spinbox_cursor);
 711:lvgl/src/lv_themes/lv_theme_material.c ****     lv_style_set_bg_opa(&styles->spinbox_cursor, LV_STATE_DEFAULT, LV_OPA_COVER);
 712:lvgl/src/lv_themes/lv_theme_material.c ****     lv_style_set_bg_color(&styles->spinbox_cursor, LV_STATE_DEFAULT, theme.color_primary);
 713:lvgl/src/lv_themes/lv_theme_material.c ****     lv_style_set_text_color(&styles->spinbox_cursor, LV_STATE_DEFAULT, LV_COLOR_WHITE);
 714:lvgl/src/lv_themes/lv_theme_material.c ****     lv_style_set_pad_top(&styles->spinbox_cursor, LV_STATE_DEFAULT, LV_DPX(100));
ARM GAS  D:\Temp\cclc1fSW.s 			page 14


 715:lvgl/src/lv_themes/lv_theme_material.c ****     lv_style_set_pad_bottom(&styles->spinbox_cursor, LV_STATE_DEFAULT, LV_DPX(100));
 716:lvgl/src/lv_themes/lv_theme_material.c **** 
 717:lvgl/src/lv_themes/lv_theme_material.c **** #endif
 718:lvgl/src/lv_themes/lv_theme_material.c **** }
 719:lvgl/src/lv_themes/lv_theme_material.c **** 
 720:lvgl/src/lv_themes/lv_theme_material.c **** static void list_init(void)
 721:lvgl/src/lv_themes/lv_theme_material.c **** {
 722:lvgl/src/lv_themes/lv_theme_material.c **** #if LV_USE_LIST != 0
 723:lvgl/src/lv_themes/lv_theme_material.c ****     style_init_reset(&styles->list_bg);
 724:lvgl/src/lv_themes/lv_theme_material.c ****     lv_style_set_clip_corner(&styles->list_bg, LV_STATE_DEFAULT, true);
 725:lvgl/src/lv_themes/lv_theme_material.c ****     lv_style_set_pad_left(&styles->list_bg, LV_STATE_DEFAULT, 0);
 726:lvgl/src/lv_themes/lv_theme_material.c ****     lv_style_set_pad_right(&styles->list_bg, LV_STATE_DEFAULT, 0);
 727:lvgl/src/lv_themes/lv_theme_material.c ****     lv_style_set_pad_top(&styles->list_bg, LV_STATE_DEFAULT, 0);
 728:lvgl/src/lv_themes/lv_theme_material.c ****     lv_style_set_pad_bottom(&styles->list_bg, LV_STATE_DEFAULT, 0);
 729:lvgl/src/lv_themes/lv_theme_material.c ****     lv_style_set_pad_inner(&styles->list_bg, LV_STATE_DEFAULT, 0);
 730:lvgl/src/lv_themes/lv_theme_material.c **** 
 731:lvgl/src/lv_themes/lv_theme_material.c ****     style_init_reset(&styles->list_btn);
 732:lvgl/src/lv_themes/lv_theme_material.c ****     lv_style_set_bg_opa(&styles->list_btn, LV_STATE_DEFAULT, LV_OPA_COVER);
 733:lvgl/src/lv_themes/lv_theme_material.c ****     lv_style_set_bg_color(&styles->list_btn, LV_STATE_DEFAULT, COLOR_BG);
 734:lvgl/src/lv_themes/lv_theme_material.c ****     lv_style_set_bg_color(&styles->list_btn, LV_STATE_PRESSED, COLOR_BG_PR);
 735:lvgl/src/lv_themes/lv_theme_material.c ****     lv_style_set_bg_color(&styles->list_btn, LV_STATE_DISABLED, COLOR_BG_DIS);
 736:lvgl/src/lv_themes/lv_theme_material.c ****     lv_style_set_bg_color(&styles->list_btn, LV_STATE_CHECKED, COLOR_BG_CHK);
 737:lvgl/src/lv_themes/lv_theme_material.c ****     lv_style_set_bg_color(&styles->list_btn, LV_STATE_CHECKED | LV_STATE_PRESSED, COLOR_BG_PR_CHK);
 738:lvgl/src/lv_themes/lv_theme_material.c **** 
 739:lvgl/src/lv_themes/lv_theme_material.c ****     lv_style_set_text_color(&styles->list_btn, LV_STATE_DEFAULT, COLOR_BG_TEXT);
 740:lvgl/src/lv_themes/lv_theme_material.c ****     lv_style_set_text_color(&styles->list_btn, LV_STATE_CHECKED, COLOR_BG_TEXT_CHK);
 741:lvgl/src/lv_themes/lv_theme_material.c ****     lv_style_set_text_color(&styles->list_btn, LV_STATE_DISABLED, COLOR_BG_TEXT_DIS);
 742:lvgl/src/lv_themes/lv_theme_material.c **** 
 743:lvgl/src/lv_themes/lv_theme_material.c ****     lv_style_set_image_recolor(&styles->list_btn, LV_STATE_DEFAULT, COLOR_BG_TEXT);
 744:lvgl/src/lv_themes/lv_theme_material.c ****     lv_style_set_image_recolor(&styles->list_btn, LV_STATE_CHECKED, COLOR_BG_TEXT_CHK);
 745:lvgl/src/lv_themes/lv_theme_material.c ****     lv_style_set_image_recolor(&styles->list_btn, LV_STATE_DISABLED, COLOR_BG_TEXT_DIS);
 746:lvgl/src/lv_themes/lv_theme_material.c **** 
 747:lvgl/src/lv_themes/lv_theme_material.c ****     lv_style_set_border_side(&styles->list_btn, LV_STATE_DEFAULT, LV_BORDER_SIDE_BOTTOM);
 748:lvgl/src/lv_themes/lv_theme_material.c ****     lv_style_set_border_color(&styles->list_btn, LV_STATE_DEFAULT, COLOR_BG_BORDER);
 749:lvgl/src/lv_themes/lv_theme_material.c ****     lv_style_set_border_color(&styles->list_btn, LV_STATE_FOCUSED, theme.color_primary);
 750:lvgl/src/lv_themes/lv_theme_material.c ****     lv_style_set_border_width(&styles->list_btn, LV_STATE_DEFAULT, 1);
 751:lvgl/src/lv_themes/lv_theme_material.c **** 
 752:lvgl/src/lv_themes/lv_theme_material.c ****     lv_style_set_outline_color(&styles->list_btn, LV_STATE_FOCUSED, theme.color_secondary);
 753:lvgl/src/lv_themes/lv_theme_material.c ****     lv_style_set_outline_width(&styles->list_btn, LV_STATE_FOCUSED, OUTLINE_WIDTH);
 754:lvgl/src/lv_themes/lv_theme_material.c ****     lv_style_set_outline_pad(&styles->list_btn, LV_STATE_FOCUSED, -BORDER_WIDTH);
 755:lvgl/src/lv_themes/lv_theme_material.c **** 
 756:lvgl/src/lv_themes/lv_theme_material.c ****     lv_style_set_pad_left(&styles->list_btn, LV_STATE_DEFAULT, PAD_DEF);
 757:lvgl/src/lv_themes/lv_theme_material.c ****     lv_style_set_pad_right(&styles->list_btn, LV_STATE_DEFAULT, PAD_DEF);
 758:lvgl/src/lv_themes/lv_theme_material.c ****     lv_style_set_pad_top(&styles->list_btn, LV_STATE_DEFAULT, PAD_DEF);
 759:lvgl/src/lv_themes/lv_theme_material.c ****     lv_style_set_pad_bottom(&styles->list_btn, LV_STATE_DEFAULT, PAD_DEF);
 760:lvgl/src/lv_themes/lv_theme_material.c ****     lv_style_set_pad_inner(&styles->list_btn, LV_STATE_DEFAULT, PAD_DEF);
 761:lvgl/src/lv_themes/lv_theme_material.c **** 
 762:lvgl/src/lv_themes/lv_theme_material.c ****     lv_style_set_transform_width(&styles->list_btn, LV_STATE_DEFAULT, - PAD_DEF);
 763:lvgl/src/lv_themes/lv_theme_material.c ****     lv_style_set_transform_width(&styles->list_btn, LV_STATE_PRESSED, -BORDER_WIDTH);
 764:lvgl/src/lv_themes/lv_theme_material.c ****     lv_style_set_transform_width(&styles->list_btn, LV_STATE_CHECKED, -BORDER_WIDTH);
 765:lvgl/src/lv_themes/lv_theme_material.c ****     lv_style_set_transform_width(&styles->list_btn, LV_STATE_DISABLED, -BORDER_WIDTH);
 766:lvgl/src/lv_themes/lv_theme_material.c ****     lv_style_set_transform_width(&styles->list_btn, LV_STATE_FOCUSED, - BORDER_WIDTH);
 767:lvgl/src/lv_themes/lv_theme_material.c **** 
 768:lvgl/src/lv_themes/lv_theme_material.c ****     lv_style_set_transition_time(&styles->list_btn, LV_STATE_DEFAULT, TRANSITION_TIME);
 769:lvgl/src/lv_themes/lv_theme_material.c ****     lv_style_set_transition_prop_6(&styles->list_btn, LV_STATE_DEFAULT, LV_STYLE_BG_COLOR);
 770:lvgl/src/lv_themes/lv_theme_material.c ****     lv_style_set_transition_prop_5(&styles->list_btn, LV_STATE_DEFAULT, LV_STYLE_TRANSFORM_WIDTH);
 771:lvgl/src/lv_themes/lv_theme_material.c **** #endif
ARM GAS  D:\Temp\cclc1fSW.s 			page 15


 772:lvgl/src/lv_themes/lv_theme_material.c **** }
 773:lvgl/src/lv_themes/lv_theme_material.c **** 
 774:lvgl/src/lv_themes/lv_theme_material.c **** static void ddlist_init(void)
 775:lvgl/src/lv_themes/lv_theme_material.c **** {
 776:lvgl/src/lv_themes/lv_theme_material.c **** #if LV_USE_DROPDOWN != 0
 777:lvgl/src/lv_themes/lv_theme_material.c **** 
 778:lvgl/src/lv_themes/lv_theme_material.c ****     style_init_reset(&styles->ddlist_page);
 779:lvgl/src/lv_themes/lv_theme_material.c ****     lv_style_set_text_line_space(&styles->ddlist_page, LV_STATE_DEFAULT, LV_DPX(20));
 780:lvgl/src/lv_themes/lv_theme_material.c ****     lv_style_set_clip_corner(&styles->ddlist_page, LV_STATE_DEFAULT, true);
 781:lvgl/src/lv_themes/lv_theme_material.c **** 
 782:lvgl/src/lv_themes/lv_theme_material.c ****     style_init_reset(&styles->ddlist_sel);
 783:lvgl/src/lv_themes/lv_theme_material.c ****     lv_style_set_bg_opa(&styles->ddlist_sel, LV_STATE_DEFAULT, LV_OPA_COVER);
 784:lvgl/src/lv_themes/lv_theme_material.c ****     lv_style_set_bg_color(&styles->ddlist_sel, LV_STATE_DEFAULT, theme.color_primary);
 785:lvgl/src/lv_themes/lv_theme_material.c ****     lv_style_set_text_color(&styles->ddlist_sel, LV_STATE_DEFAULT, IS_LIGHT ? lv_color_hex3(0xfff) 
 786:lvgl/src/lv_themes/lv_theme_material.c ****     lv_style_set_bg_color(&styles->ddlist_sel, LV_STATE_PRESSED, COLOR_BG_PR);
 787:lvgl/src/lv_themes/lv_theme_material.c ****     lv_style_set_text_color(&styles->ddlist_sel, LV_STATE_PRESSED, COLOR_BG_TEXT_PR);
 788:lvgl/src/lv_themes/lv_theme_material.c **** #endif
 789:lvgl/src/lv_themes/lv_theme_material.c **** }
 790:lvgl/src/lv_themes/lv_theme_material.c **** 
 791:lvgl/src/lv_themes/lv_theme_material.c **** static void roller_init(void)
 792:lvgl/src/lv_themes/lv_theme_material.c **** {
 793:lvgl/src/lv_themes/lv_theme_material.c **** #if LV_USE_ROLLER != 0
 794:lvgl/src/lv_themes/lv_theme_material.c ****     style_init_reset(&styles->roller_bg);
 795:lvgl/src/lv_themes/lv_theme_material.c ****     lv_style_set_text_line_space(&styles->roller_bg, LV_STATE_DEFAULT, LV_DPX(25));
 796:lvgl/src/lv_themes/lv_theme_material.c **** 
 797:lvgl/src/lv_themes/lv_theme_material.c ****     style_init_reset(&styles->roller_sel);
 798:lvgl/src/lv_themes/lv_theme_material.c ****     lv_style_set_bg_opa(&styles->roller_sel, LV_STATE_DEFAULT, LV_OPA_COVER);
 799:lvgl/src/lv_themes/lv_theme_material.c ****     lv_style_set_bg_color(&styles->roller_sel, LV_STATE_DEFAULT, theme.color_primary);
 800:lvgl/src/lv_themes/lv_theme_material.c ****     lv_style_set_text_color(&styles->roller_sel, LV_STATE_DEFAULT, LV_COLOR_WHITE);
 801:lvgl/src/lv_themes/lv_theme_material.c **** #endif
 802:lvgl/src/lv_themes/lv_theme_material.c **** }
 803:lvgl/src/lv_themes/lv_theme_material.c **** 
 804:lvgl/src/lv_themes/lv_theme_material.c **** static void tabview_init(void)
 805:lvgl/src/lv_themes/lv_theme_material.c **** {
 806:lvgl/src/lv_themes/lv_theme_material.c **** #if LV_USE_TABVIEW != 0
 807:lvgl/src/lv_themes/lv_theme_material.c **** #endif
 808:lvgl/src/lv_themes/lv_theme_material.c **** }
 809:lvgl/src/lv_themes/lv_theme_material.c **** 
 810:lvgl/src/lv_themes/lv_theme_material.c **** static void tileview_init(void)
 811:lvgl/src/lv_themes/lv_theme_material.c **** {
 812:lvgl/src/lv_themes/lv_theme_material.c **** #if LV_USE_TILEVIEW != 0
 813:lvgl/src/lv_themes/lv_theme_material.c **** #endif
 814:lvgl/src/lv_themes/lv_theme_material.c **** }
 815:lvgl/src/lv_themes/lv_theme_material.c **** 
 816:lvgl/src/lv_themes/lv_theme_material.c **** static void table_init(void)
 817:lvgl/src/lv_themes/lv_theme_material.c **** {
 818:lvgl/src/lv_themes/lv_theme_material.c **** #if LV_USE_TABLE != 0
 819:lvgl/src/lv_themes/lv_theme_material.c ****     style_init_reset(&styles->table_cell);
 820:lvgl/src/lv_themes/lv_theme_material.c ****     lv_style_set_border_color(&styles->table_cell, LV_STATE_DEFAULT, COLOR_BG_BORDER);
 821:lvgl/src/lv_themes/lv_theme_material.c ****     lv_style_set_border_width(&styles->table_cell, LV_STATE_DEFAULT, 1);
 822:lvgl/src/lv_themes/lv_theme_material.c ****     lv_style_set_border_side(&styles->table_cell, LV_STATE_DEFAULT, LV_BORDER_SIDE_TOP | LV_BORDER_
 823:lvgl/src/lv_themes/lv_theme_material.c ****     lv_style_set_pad_left(&styles->table_cell, LV_STATE_DEFAULT, PAD_DEF);
 824:lvgl/src/lv_themes/lv_theme_material.c ****     lv_style_set_pad_right(&styles->table_cell, LV_STATE_DEFAULT, PAD_DEF);
 825:lvgl/src/lv_themes/lv_theme_material.c ****     lv_style_set_pad_top(&styles->table_cell, LV_STATE_DEFAULT, PAD_DEF);
 826:lvgl/src/lv_themes/lv_theme_material.c ****     lv_style_set_pad_bottom(&styles->table_cell, LV_STATE_DEFAULT, PAD_DEF);
 827:lvgl/src/lv_themes/lv_theme_material.c **** 
 828:lvgl/src/lv_themes/lv_theme_material.c **** #endif
ARM GAS  D:\Temp\cclc1fSW.s 			page 16


 829:lvgl/src/lv_themes/lv_theme_material.c **** }
 830:lvgl/src/lv_themes/lv_theme_material.c **** 
 831:lvgl/src/lv_themes/lv_theme_material.c **** static void win_init(void)
 832:lvgl/src/lv_themes/lv_theme_material.c **** {
 833:lvgl/src/lv_themes/lv_theme_material.c **** #if LV_USE_WIN != 0
 834:lvgl/src/lv_themes/lv_theme_material.c **** #endif
 835:lvgl/src/lv_themes/lv_theme_material.c **** }
 836:lvgl/src/lv_themes/lv_theme_material.c **** 
 837:lvgl/src/lv_themes/lv_theme_material.c **** static void tabview_win_shared_init(void)
 838:lvgl/src/lv_themes/lv_theme_material.c **** {
 839:lvgl/src/lv_themes/lv_theme_material.c **** #if LV_USE_TABVIEW || LV_USE_WIN
 840:lvgl/src/lv_themes/lv_theme_material.c ****     style_init_reset(&styles->tabview_btns_bg);
 841:lvgl/src/lv_themes/lv_theme_material.c ****     lv_style_set_bg_opa(&styles->tabview_btns_bg, LV_STATE_DEFAULT, LV_OPA_COVER);
 842:lvgl/src/lv_themes/lv_theme_material.c ****     lv_style_set_bg_color(&styles->tabview_btns_bg, LV_STATE_DEFAULT, COLOR_BG);
 843:lvgl/src/lv_themes/lv_theme_material.c ****     lv_style_set_text_color(&styles->tabview_btns_bg, LV_STATE_DEFAULT, COLOR_SCR_TEXT);
 844:lvgl/src/lv_themes/lv_theme_material.c ****     lv_style_set_image_recolor(&styles->tabview_btns_bg, LV_STATE_DEFAULT, lv_color_hex(0x979a9f));
 845:lvgl/src/lv_themes/lv_theme_material.c ****     lv_style_set_pad_top(&styles->tabview_btns_bg, LV_STATE_DEFAULT, LV_DPX(7));
 846:lvgl/src/lv_themes/lv_theme_material.c ****     lv_style_set_pad_left(&styles->tabview_btns_bg, LV_STATE_DEFAULT, LV_DPX(7));
 847:lvgl/src/lv_themes/lv_theme_material.c ****     lv_style_set_pad_right(&styles->tabview_btns_bg, LV_STATE_DEFAULT, LV_DPX(7));
 848:lvgl/src/lv_themes/lv_theme_material.c **** 
 849:lvgl/src/lv_themes/lv_theme_material.c ****     style_init_reset(&styles->tabview_btns);
 850:lvgl/src/lv_themes/lv_theme_material.c ****     lv_style_set_bg_opa(&styles->tabview_btns, LV_STATE_PRESSED, LV_OPA_50);
 851:lvgl/src/lv_themes/lv_theme_material.c ****     lv_style_set_bg_color(&styles->tabview_btns, LV_STATE_PRESSED, lv_color_hex3(0x888));
 852:lvgl/src/lv_themes/lv_theme_material.c ****     lv_style_set_text_color(&styles->tabview_btns, LV_STATE_CHECKED, COLOR_SCR_TEXT);
 853:lvgl/src/lv_themes/lv_theme_material.c ****     lv_style_set_pad_top(&styles->tabview_btns, LV_STATE_DEFAULT, LV_DPX(20));
 854:lvgl/src/lv_themes/lv_theme_material.c ****     lv_style_set_pad_bottom(&styles->tabview_btns, LV_STATE_DEFAULT, LV_DPX(20));
 855:lvgl/src/lv_themes/lv_theme_material.c ****     lv_style_set_text_color(&styles->tabview_btns, LV_STATE_FOCUSED, theme.color_primary);
 856:lvgl/src/lv_themes/lv_theme_material.c ****     lv_style_set_text_color(&styles->tabview_btns, LV_STATE_EDITED, theme.color_secondary);
 857:lvgl/src/lv_themes/lv_theme_material.c **** 
 858:lvgl/src/lv_themes/lv_theme_material.c ****     style_init_reset(&styles->tabview_indic);
 859:lvgl/src/lv_themes/lv_theme_material.c ****     lv_style_set_bg_opa(&styles->tabview_indic, LV_STATE_DEFAULT, LV_OPA_COVER);
 860:lvgl/src/lv_themes/lv_theme_material.c ****     lv_style_set_bg_color(&styles->tabview_indic, LV_STATE_DEFAULT, theme.color_primary);
 861:lvgl/src/lv_themes/lv_theme_material.c ****     lv_style_set_bg_color(&styles->tabview_indic, LV_STATE_EDITED, theme.color_secondary);
 862:lvgl/src/lv_themes/lv_theme_material.c ****     lv_style_set_size(&styles->tabview_indic, LV_STATE_DEFAULT, LV_DPX(5));
 863:lvgl/src/lv_themes/lv_theme_material.c ****     lv_style_set_radius(&styles->tabview_indic, LV_STATE_DEFAULT, LV_RADIUS_CIRCLE);
 864:lvgl/src/lv_themes/lv_theme_material.c **** 
 865:lvgl/src/lv_themes/lv_theme_material.c ****     style_init_reset(&styles->tabview_page_scrl);
 866:lvgl/src/lv_themes/lv_theme_material.c ****     lv_style_set_pad_top(&styles->tabview_page_scrl, LV_STATE_DEFAULT, PAD_DEF);
 867:lvgl/src/lv_themes/lv_theme_material.c ****     lv_style_set_pad_bottom(&styles->tabview_page_scrl, LV_STATE_DEFAULT, PAD_DEF);
 868:lvgl/src/lv_themes/lv_theme_material.c ****     lv_style_set_pad_left(&styles->tabview_page_scrl, LV_STATE_DEFAULT, PAD_DEF);
 869:lvgl/src/lv_themes/lv_theme_material.c ****     lv_style_set_pad_right(&styles->tabview_page_scrl, LV_STATE_DEFAULT, PAD_DEF);
 870:lvgl/src/lv_themes/lv_theme_material.c ****     lv_style_set_pad_inner(&styles->tabview_page_scrl, LV_STATE_DEFAULT, PAD_DEF);
 871:lvgl/src/lv_themes/lv_theme_material.c **** #endif
 872:lvgl/src/lv_themes/lv_theme_material.c **** }
 873:lvgl/src/lv_themes/lv_theme_material.c **** 
 874:lvgl/src/lv_themes/lv_theme_material.c **** /**********************
 875:lvgl/src/lv_themes/lv_theme_material.c ****  *   GLOBAL FUNCTIONS
 876:lvgl/src/lv_themes/lv_theme_material.c ****  **********************/
 877:lvgl/src/lv_themes/lv_theme_material.c **** 
 878:lvgl/src/lv_themes/lv_theme_material.c **** /**
 879:lvgl/src/lv_themes/lv_theme_material.c ****  * Initialize the default
 880:lvgl/src/lv_themes/lv_theme_material.c ****  * @param color_primary the primary color of the theme
 881:lvgl/src/lv_themes/lv_theme_material.c ****  * @param color_secondary the secondary color for the theme
 882:lvgl/src/lv_themes/lv_theme_material.c ****  * @param flags ORed flags starting with `LV_THEME_DEF_FLAG_...`
 883:lvgl/src/lv_themes/lv_theme_material.c ****  * @param font_small pointer to a small font
 884:lvgl/src/lv_themes/lv_theme_material.c ****  * @param font_normal pointer to a normal font
 885:lvgl/src/lv_themes/lv_theme_material.c ****  * @param font_subtitle pointer to a large font
ARM GAS  D:\Temp\cclc1fSW.s 			page 17


 886:lvgl/src/lv_themes/lv_theme_material.c ****  * @param font_title pointer to a extra large font
 887:lvgl/src/lv_themes/lv_theme_material.c ****  * @return a pointer to reference this theme later
 888:lvgl/src/lv_themes/lv_theme_material.c ****  */
 889:lvgl/src/lv_themes/lv_theme_material.c **** lv_theme_t * lv_theme_material_init(lv_color_t color_primary, lv_color_t color_secondary, uint32_t 
 890:lvgl/src/lv_themes/lv_theme_material.c ****                                     const lv_font_t * font_small, const lv_font_t * font_normal, co
 891:lvgl/src/lv_themes/lv_theme_material.c ****                                     const lv_font_t * font_title)
 892:lvgl/src/lv_themes/lv_theme_material.c **** {
 893:lvgl/src/lv_themes/lv_theme_material.c **** 
 894:lvgl/src/lv_themes/lv_theme_material.c ****     /* This trick is required only to avoid the garbage collection of
 895:lvgl/src/lv_themes/lv_theme_material.c ****      * styles' data if LVGL is used in a binding (e.g. Micropython)
 896:lvgl/src/lv_themes/lv_theme_material.c ****      * In a general case styles could be simple `static lv_style_t my style` variables*/
 897:lvgl/src/lv_themes/lv_theme_material.c ****     if(!inited) {
 898:lvgl/src/lv_themes/lv_theme_material.c ****         LV_GC_ROOT(_lv_theme_material_styles) = lv_mem_alloc(sizeof(theme_styles_t));
 899:lvgl/src/lv_themes/lv_theme_material.c ****         styles = (theme_styles_t *)LV_GC_ROOT(_lv_theme_material_styles);
 900:lvgl/src/lv_themes/lv_theme_material.c ****     }
 901:lvgl/src/lv_themes/lv_theme_material.c **** 
 902:lvgl/src/lv_themes/lv_theme_material.c ****     theme.color_primary = color_primary;
 903:lvgl/src/lv_themes/lv_theme_material.c ****     theme.color_secondary = color_secondary;
 904:lvgl/src/lv_themes/lv_theme_material.c ****     theme.font_small = font_small;
 905:lvgl/src/lv_themes/lv_theme_material.c ****     theme.font_normal = font_normal;
 906:lvgl/src/lv_themes/lv_theme_material.c ****     theme.font_subtitle = font_subtitle;
 907:lvgl/src/lv_themes/lv_theme_material.c ****     theme.font_title = font_title;
 908:lvgl/src/lv_themes/lv_theme_material.c ****     theme.flags = flags;
 909:lvgl/src/lv_themes/lv_theme_material.c **** 
 910:lvgl/src/lv_themes/lv_theme_material.c ****     basic_init();
 911:lvgl/src/lv_themes/lv_theme_material.c ****     cont_init();
 912:lvgl/src/lv_themes/lv_theme_material.c ****     btn_init();
 913:lvgl/src/lv_themes/lv_theme_material.c ****     label_init();
 914:lvgl/src/lv_themes/lv_theme_material.c ****     bar_init();
 915:lvgl/src/lv_themes/lv_theme_material.c ****     img_init();
 916:lvgl/src/lv_themes/lv_theme_material.c ****     line_init();
 917:lvgl/src/lv_themes/lv_theme_material.c ****     led_init();
 918:lvgl/src/lv_themes/lv_theme_material.c ****     slider_init();
 919:lvgl/src/lv_themes/lv_theme_material.c ****     switch_init();
 920:lvgl/src/lv_themes/lv_theme_material.c ****     linemeter_init();
 921:lvgl/src/lv_themes/lv_theme_material.c ****     gauge_init();
 922:lvgl/src/lv_themes/lv_theme_material.c ****     arc_init();
 923:lvgl/src/lv_themes/lv_theme_material.c ****     spinner_init();
 924:lvgl/src/lv_themes/lv_theme_material.c ****     chart_init();
 925:lvgl/src/lv_themes/lv_theme_material.c ****     calendar_init();
 926:lvgl/src/lv_themes/lv_theme_material.c ****     cpicker_init();
 927:lvgl/src/lv_themes/lv_theme_material.c ****     checkbox_init();
 928:lvgl/src/lv_themes/lv_theme_material.c ****     btnmatrix_init();
 929:lvgl/src/lv_themes/lv_theme_material.c ****     keyboard_init();
 930:lvgl/src/lv_themes/lv_theme_material.c ****     msgbox_init();
 931:lvgl/src/lv_themes/lv_theme_material.c ****     page_init();
 932:lvgl/src/lv_themes/lv_theme_material.c ****     textarea_init();
 933:lvgl/src/lv_themes/lv_theme_material.c ****     spinbox_init();
 934:lvgl/src/lv_themes/lv_theme_material.c ****     list_init();
 935:lvgl/src/lv_themes/lv_theme_material.c ****     ddlist_init();
 936:lvgl/src/lv_themes/lv_theme_material.c ****     roller_init();
 937:lvgl/src/lv_themes/lv_theme_material.c ****     tabview_init();
 938:lvgl/src/lv_themes/lv_theme_material.c ****     tileview_init();
 939:lvgl/src/lv_themes/lv_theme_material.c ****     table_init();
 940:lvgl/src/lv_themes/lv_theme_material.c ****     win_init();
 941:lvgl/src/lv_themes/lv_theme_material.c ****     tabview_win_shared_init();
 942:lvgl/src/lv_themes/lv_theme_material.c **** 
ARM GAS  D:\Temp\cclc1fSW.s 			page 18


 943:lvgl/src/lv_themes/lv_theme_material.c ****     theme.apply_xcb = NULL;
 944:lvgl/src/lv_themes/lv_theme_material.c ****     theme.apply_cb = theme_apply;
 945:lvgl/src/lv_themes/lv_theme_material.c **** 
 946:lvgl/src/lv_themes/lv_theme_material.c ****     inited = true;
 947:lvgl/src/lv_themes/lv_theme_material.c **** 
 948:lvgl/src/lv_themes/lv_theme_material.c ****     lv_obj_report_style_mod(NULL);
 949:lvgl/src/lv_themes/lv_theme_material.c **** 
 950:lvgl/src/lv_themes/lv_theme_material.c ****     return &theme;
 951:lvgl/src/lv_themes/lv_theme_material.c **** }
 952:lvgl/src/lv_themes/lv_theme_material.c **** 
 953:lvgl/src/lv_themes/lv_theme_material.c **** static void theme_apply(lv_theme_t * th, lv_obj_t * obj, lv_theme_style_t name)
 954:lvgl/src/lv_themes/lv_theme_material.c **** {
  29              		.loc 1 954 1 view -0
  30              		.cfi_startproc
  31              		@ args = 0, pretend = 0, frame = 0
  32              		@ frame_needed = 0, uses_anonymous_args = 0
  33              		.loc 1 954 1 is_stmt 0 view .LVU1
  34 0000 70B5     		push	{r4, r5, r6, lr}
  35              	.LCFI0:
  36              		.cfi_def_cfa_offset 16
  37              		.cfi_offset 4, -16
  38              		.cfi_offset 5, -12
  39              		.cfi_offset 6, -8
  40              		.cfi_offset 14, -4
  41 0002 0C46     		mov	r4, r1
 955:lvgl/src/lv_themes/lv_theme_material.c ****     LV_UNUSED(th);
  42              		.loc 1 955 5 is_stmt 1 view .LVU2
 956:lvgl/src/lv_themes/lv_theme_material.c **** 
 957:lvgl/src/lv_themes/lv_theme_material.c ****     lv_style_list_t * list;
  43              		.loc 1 957 5 view .LVU3
 958:lvgl/src/lv_themes/lv_theme_material.c **** 
 959:lvgl/src/lv_themes/lv_theme_material.c ****     switch(name) {
  44              		.loc 1 959 5 view .LVU4
  45 0004 013A     		subs	r2, r2, #1
  46              	.LVL1:
  47              		.loc 1 959 5 is_stmt 0 view .LVU5
  48 0006 272A     		cmp	r2, #39
  49 0008 31D8     		bhi	.L2
  50 000a DFE812F0 		tbh	[pc, r2, lsl #1]
  51              	.L4:
  52 000e 2800     		.2byte	(.L38-.L4)/2
  53 0010 3600     		.2byte	(.L37-.L4)/2
  54 0012 BB00     		.2byte	(.L36-.L4)/2
  55 0014 8F00     		.2byte	(.L35-.L4)/2
  56 0016 4A00     		.2byte	(.L34-.L4)/2
  57 0018 5400     		.2byte	(.L33-.L4)/2
  58 001a FD02     		.2byte	(.L32-.L4)/2
  59 001c 3000     		.2byte	(.L2-.L4)/2
  60 001e 1801     		.2byte	(.L31-.L4)/2
  61 0020 3702     		.2byte	(.L30-.L4)/2
  62 0022 4000     		.2byte	(.L29-.L4)/2
  63 0024 1F03     		.2byte	(.L28-.L4)/2
  64 0026 0402     		.2byte	(.L27-.L4)/2
  65 0028 4103     		.2byte	(.L26-.L4)/2
  66 002a 3000     		.2byte	(.L2-.L4)/2
  67 002c 3000     		.2byte	(.L2-.L4)/2
  68 002e 7200     		.2byte	(.L25-.L4)/2
ARM GAS  D:\Temp\cclc1fSW.s 			page 19


  69 0030 3000     		.2byte	(.L2-.L4)/2
  70 0032 5201     		.2byte	(.L24-.L4)/2
  71 0034 3000     		.2byte	(.L2-.L4)/2
  72 0036 E201     		.2byte	(.L23-.L4)/2
  73 0038 FA01     		.2byte	(.L22-.L4)/2
  74 003a 3103     		.2byte	(.L21-.L4)/2
  75 003c 3001     		.2byte	(.L20-.L4)/2
  76 003e 4001     		.2byte	(.L19-.L4)/2
  77 0040 DD01     		.2byte	(.L18-.L4)/2
  78 0042 5C01     		.2byte	(.L17-.L4)/2
  79 0044 C501     		.2byte	(.L16-.L4)/2
  80 0046 F800     		.2byte	(.L15-.L4)/2
  81 0048 D502     		.2byte	(.L14-.L4)/2
  82 004a ED02     		.2byte	(.L13-.L4)/2
  83 004c E600     		.2byte	(.L12-.L4)/2
  84 004e A100     		.2byte	(.L11-.L4)/2
  85 0050 6A02     		.2byte	(.L10-.L4)/2
  86 0052 7E01     		.2byte	(.L9-.L4)/2
  87 0054 9F01     		.2byte	(.L8-.L4)/2
  88 0056 AD02     		.2byte	(.L7-.L4)/2
  89 0058 A901     		.2byte	(.L6-.L4)/2
  90 005a 8202     		.2byte	(.L5-.L4)/2
  91 005c A302     		.2byte	(.L3-.L4)/2
  92              		.p2align 1
  93              	.L38:
 960:lvgl/src/lv_themes/lv_theme_material.c ****         case LV_THEME_NONE:
 961:lvgl/src/lv_themes/lv_theme_material.c ****             break;
 962:lvgl/src/lv_themes/lv_theme_material.c **** 
 963:lvgl/src/lv_themes/lv_theme_material.c ****         case LV_THEME_SCR:
 964:lvgl/src/lv_themes/lv_theme_material.c ****             list = lv_obj_get_style_list(obj, LV_OBJ_PART_MAIN);
  94              		.loc 1 964 13 is_stmt 1 view .LVU6
  95              		.loc 1 964 20 is_stmt 0 view .LVU7
  96 005e 0021     		movs	r1, #0
  97              	.LVL2:
  98              		.loc 1 964 20 view .LVU8
  99 0060 2046     		mov	r0, r4
 100              	.LVL3:
 101              		.loc 1 964 20 view .LVU9
 102 0062 FFF7FEFF 		bl	lv_obj_get_style_list
 103              	.LVL4:
 965:lvgl/src/lv_themes/lv_theme_material.c ****             _lv_style_list_add_style(list, &styles->scr);
 104              		.loc 1 965 13 is_stmt 1 view .LVU10
 105 0066 CB4B     		ldr	r3, .L42
 106 0068 1968     		ldr	r1, [r3]
 107 006a FFF7FEFF 		bl	_lv_style_list_add_style
 108              	.LVL5:
 966:lvgl/src/lv_themes/lv_theme_material.c ****             break;
 109              		.loc 1 966 13 view .LVU11
 110              	.L2:
 967:lvgl/src/lv_themes/lv_theme_material.c ****         case LV_THEME_OBJ:
 968:lvgl/src/lv_themes/lv_theme_material.c ****             list = lv_obj_get_style_list(obj, LV_OBJ_PART_MAIN);
 969:lvgl/src/lv_themes/lv_theme_material.c ****             _lv_style_list_add_style(list, &styles->bg);
 970:lvgl/src/lv_themes/lv_theme_material.c ****             break;
 971:lvgl/src/lv_themes/lv_theme_material.c **** #if LV_USE_CONT
 972:lvgl/src/lv_themes/lv_theme_material.c ****         case LV_THEME_CONT:
 973:lvgl/src/lv_themes/lv_theme_material.c ****             list = lv_obj_get_style_list(obj, LV_CONT_PART_MAIN);
 974:lvgl/src/lv_themes/lv_theme_material.c ****             _lv_style_list_add_style(list, &styles->bg);
ARM GAS  D:\Temp\cclc1fSW.s 			page 20


 975:lvgl/src/lv_themes/lv_theme_material.c ****             break;
 976:lvgl/src/lv_themes/lv_theme_material.c **** #endif
 977:lvgl/src/lv_themes/lv_theme_material.c **** 
 978:lvgl/src/lv_themes/lv_theme_material.c **** #if LV_USE_BTN
 979:lvgl/src/lv_themes/lv_theme_material.c ****         case LV_THEME_BTN:
 980:lvgl/src/lv_themes/lv_theme_material.c ****             list = lv_obj_get_style_list(obj, LV_BTN_PART_MAIN);
 981:lvgl/src/lv_themes/lv_theme_material.c ****             _lv_style_list_add_style(list, &styles->btn);
 982:lvgl/src/lv_themes/lv_theme_material.c ****             break;
 983:lvgl/src/lv_themes/lv_theme_material.c **** #endif
 984:lvgl/src/lv_themes/lv_theme_material.c **** 
 985:lvgl/src/lv_themes/lv_theme_material.c **** #if LV_USE_BTNMATRIX
 986:lvgl/src/lv_themes/lv_theme_material.c ****         case LV_THEME_BTNMATRIX:
 987:lvgl/src/lv_themes/lv_theme_material.c ****             list = lv_obj_get_style_list(obj, LV_BTNMATRIX_PART_BG);
 988:lvgl/src/lv_themes/lv_theme_material.c ****             _lv_style_list_add_style(list, &styles->bg);
 989:lvgl/src/lv_themes/lv_theme_material.c ****             _lv_style_list_add_style(list, &styles->pad_small);
 990:lvgl/src/lv_themes/lv_theme_material.c **** 
 991:lvgl/src/lv_themes/lv_theme_material.c ****             list = lv_obj_get_style_list(obj, LV_BTNMATRIX_PART_BTN);
 992:lvgl/src/lv_themes/lv_theme_material.c ****             _lv_style_list_add_style(list, &styles->bg);
 993:lvgl/src/lv_themes/lv_theme_material.c ****             _lv_style_list_add_style(list, &styles->bg_click);
 994:lvgl/src/lv_themes/lv_theme_material.c ****             break;
 995:lvgl/src/lv_themes/lv_theme_material.c **** #endif
 996:lvgl/src/lv_themes/lv_theme_material.c **** 
 997:lvgl/src/lv_themes/lv_theme_material.c **** #if LV_USE_KEYBOARD
 998:lvgl/src/lv_themes/lv_theme_material.c ****         case LV_THEME_KEYBOARD:
 999:lvgl/src/lv_themes/lv_theme_material.c ****             list = lv_obj_get_style_list(obj, LV_KEYBOARD_PART_BG);
1000:lvgl/src/lv_themes/lv_theme_material.c ****             _lv_style_list_add_style(list, &styles->scr);
1001:lvgl/src/lv_themes/lv_theme_material.c ****             _lv_style_list_add_style(list, &styles->kb_bg);
1002:lvgl/src/lv_themes/lv_theme_material.c **** 
1003:lvgl/src/lv_themes/lv_theme_material.c ****             list = lv_obj_get_style_list(obj, LV_KEYBOARD_PART_BTN);
1004:lvgl/src/lv_themes/lv_theme_material.c ****             _lv_style_list_add_style(list, &styles->bg);
1005:lvgl/src/lv_themes/lv_theme_material.c ****             _lv_style_list_add_style(list, &styles->bg_click);
1006:lvgl/src/lv_themes/lv_theme_material.c ****             break;
1007:lvgl/src/lv_themes/lv_theme_material.c **** #endif
1008:lvgl/src/lv_themes/lv_theme_material.c **** 
1009:lvgl/src/lv_themes/lv_theme_material.c **** #if LV_USE_BAR
1010:lvgl/src/lv_themes/lv_theme_material.c ****         case LV_THEME_BAR:
1011:lvgl/src/lv_themes/lv_theme_material.c ****             list = lv_obj_get_style_list(obj, LV_BAR_PART_BG);
1012:lvgl/src/lv_themes/lv_theme_material.c ****             _lv_style_list_add_style(list, &styles->bar_bg);
1013:lvgl/src/lv_themes/lv_theme_material.c **** 
1014:lvgl/src/lv_themes/lv_theme_material.c ****             list = lv_obj_get_style_list(obj, LV_BAR_PART_INDIC);
1015:lvgl/src/lv_themes/lv_theme_material.c ****             _lv_style_list_add_style(list, &styles->bar_indic);
1016:lvgl/src/lv_themes/lv_theme_material.c ****             break;
1017:lvgl/src/lv_themes/lv_theme_material.c **** #endif
1018:lvgl/src/lv_themes/lv_theme_material.c **** 
1019:lvgl/src/lv_themes/lv_theme_material.c **** #if LV_USE_SWITCH
1020:lvgl/src/lv_themes/lv_theme_material.c ****         case LV_THEME_SWITCH:
1021:lvgl/src/lv_themes/lv_theme_material.c ****             list = lv_obj_get_style_list(obj, LV_SWITCH_PART_BG);
1022:lvgl/src/lv_themes/lv_theme_material.c ****             _lv_style_list_add_style(list, &styles->bar_bg);
1023:lvgl/src/lv_themes/lv_theme_material.c **** 
1024:lvgl/src/lv_themes/lv_theme_material.c ****             list = lv_obj_get_style_list(obj, LV_SWITCH_PART_INDIC);
1025:lvgl/src/lv_themes/lv_theme_material.c ****             _lv_style_list_add_style(list, &styles->bar_indic);
1026:lvgl/src/lv_themes/lv_theme_material.c **** 
1027:lvgl/src/lv_themes/lv_theme_material.c ****             list = lv_obj_get_style_list(obj, LV_SWITCH_PART_KNOB);
1028:lvgl/src/lv_themes/lv_theme_material.c ****             _lv_style_list_add_style(list, &styles->sw_knob);
1029:lvgl/src/lv_themes/lv_theme_material.c ****             break;
1030:lvgl/src/lv_themes/lv_theme_material.c **** #endif
1031:lvgl/src/lv_themes/lv_theme_material.c **** 
ARM GAS  D:\Temp\cclc1fSW.s 			page 21


1032:lvgl/src/lv_themes/lv_theme_material.c **** #if LV_USE_CANVAS
1033:lvgl/src/lv_themes/lv_theme_material.c ****         case LV_THEME_CANVAS:
1034:lvgl/src/lv_themes/lv_theme_material.c ****             break;
1035:lvgl/src/lv_themes/lv_theme_material.c **** #endif
1036:lvgl/src/lv_themes/lv_theme_material.c **** 
1037:lvgl/src/lv_themes/lv_theme_material.c **** #if LV_USE_IMG
1038:lvgl/src/lv_themes/lv_theme_material.c ****         case LV_THEME_IMAGE:
1039:lvgl/src/lv_themes/lv_theme_material.c ****             break;
1040:lvgl/src/lv_themes/lv_theme_material.c **** #endif
1041:lvgl/src/lv_themes/lv_theme_material.c **** 
1042:lvgl/src/lv_themes/lv_theme_material.c **** #if LV_USE_IMGBTN
1043:lvgl/src/lv_themes/lv_theme_material.c ****         case LV_THEME_IMGBTN:
1044:lvgl/src/lv_themes/lv_theme_material.c ****             break;
1045:lvgl/src/lv_themes/lv_theme_material.c **** #endif
1046:lvgl/src/lv_themes/lv_theme_material.c **** 
1047:lvgl/src/lv_themes/lv_theme_material.c **** #if LV_USE_LABEL
1048:lvgl/src/lv_themes/lv_theme_material.c ****         case LV_THEME_LABEL:
1049:lvgl/src/lv_themes/lv_theme_material.c ****             break;
1050:lvgl/src/lv_themes/lv_theme_material.c **** #endif
1051:lvgl/src/lv_themes/lv_theme_material.c **** 
1052:lvgl/src/lv_themes/lv_theme_material.c **** #if LV_USE_LINE
1053:lvgl/src/lv_themes/lv_theme_material.c ****         case LV_THEME_LINE:
1054:lvgl/src/lv_themes/lv_theme_material.c ****             break;
1055:lvgl/src/lv_themes/lv_theme_material.c **** #endif
1056:lvgl/src/lv_themes/lv_theme_material.c **** 
1057:lvgl/src/lv_themes/lv_theme_material.c **** #if LV_USE_ARC
1058:lvgl/src/lv_themes/lv_theme_material.c ****         case LV_THEME_ARC:
1059:lvgl/src/lv_themes/lv_theme_material.c ****             list = lv_obj_get_style_list(obj, LV_ARC_PART_BG);
1060:lvgl/src/lv_themes/lv_theme_material.c ****             _lv_style_list_add_style(list, &styles->bg);
1061:lvgl/src/lv_themes/lv_theme_material.c ****             _lv_style_list_add_style(list, &styles->arc_bg);
1062:lvgl/src/lv_themes/lv_theme_material.c **** 
1063:lvgl/src/lv_themes/lv_theme_material.c ****             list = lv_obj_get_style_list(obj, LV_ARC_PART_INDIC);
1064:lvgl/src/lv_themes/lv_theme_material.c ****             _lv_style_list_add_style(list, &styles->arc_indic);
1065:lvgl/src/lv_themes/lv_theme_material.c **** 
1066:lvgl/src/lv_themes/lv_theme_material.c ****             list = lv_obj_get_style_list(obj, LV_ARC_PART_KNOB);
1067:lvgl/src/lv_themes/lv_theme_material.c ****             _lv_style_list_add_style(list, &styles->bg);
1068:lvgl/src/lv_themes/lv_theme_material.c ****             _lv_style_list_add_style(list, &styles->bg_click);
1069:lvgl/src/lv_themes/lv_theme_material.c ****             _lv_style_list_add_style(list, &styles->arc_knob);
1070:lvgl/src/lv_themes/lv_theme_material.c ****             break;
1071:lvgl/src/lv_themes/lv_theme_material.c **** #endif
1072:lvgl/src/lv_themes/lv_theme_material.c **** 
1073:lvgl/src/lv_themes/lv_theme_material.c **** #if LV_USE_SPINNER
1074:lvgl/src/lv_themes/lv_theme_material.c ****         case LV_THEME_SPINNER:
1075:lvgl/src/lv_themes/lv_theme_material.c ****             list = lv_obj_get_style_list(obj, LV_SPINNER_PART_BG);
1076:lvgl/src/lv_themes/lv_theme_material.c ****             _lv_style_list_add_style(list, &styles->arc_bg);
1077:lvgl/src/lv_themes/lv_theme_material.c **** 
1078:lvgl/src/lv_themes/lv_theme_material.c ****             list = lv_obj_get_style_list(obj, LV_SPINNER_PART_INDIC);
1079:lvgl/src/lv_themes/lv_theme_material.c ****             _lv_style_list_add_style(list, &styles->arc_indic);
1080:lvgl/src/lv_themes/lv_theme_material.c ****             break;
1081:lvgl/src/lv_themes/lv_theme_material.c **** #endif
1082:lvgl/src/lv_themes/lv_theme_material.c **** 
1083:lvgl/src/lv_themes/lv_theme_material.c **** #if LV_USE_SLIDER
1084:lvgl/src/lv_themes/lv_theme_material.c ****         case LV_THEME_SLIDER:
1085:lvgl/src/lv_themes/lv_theme_material.c ****             list = lv_obj_get_style_list(obj, LV_SLIDER_PART_BG);
1086:lvgl/src/lv_themes/lv_theme_material.c ****             _lv_style_list_add_style(list, &styles->bar_bg);
1087:lvgl/src/lv_themes/lv_theme_material.c ****             _lv_style_list_add_style(list, &styles->slider_bg);
1088:lvgl/src/lv_themes/lv_theme_material.c **** 
ARM GAS  D:\Temp\cclc1fSW.s 			page 22


1089:lvgl/src/lv_themes/lv_theme_material.c ****             list = lv_obj_get_style_list(obj, LV_SLIDER_PART_INDIC);
1090:lvgl/src/lv_themes/lv_theme_material.c ****             _lv_style_list_add_style(list, &styles->bar_indic);
1091:lvgl/src/lv_themes/lv_theme_material.c **** 
1092:lvgl/src/lv_themes/lv_theme_material.c ****             list = lv_obj_get_style_list(obj, LV_SLIDER_PART_KNOB);
1093:lvgl/src/lv_themes/lv_theme_material.c ****             _lv_style_list_add_style(list, &styles->slider_knob);
1094:lvgl/src/lv_themes/lv_theme_material.c ****             break;
1095:lvgl/src/lv_themes/lv_theme_material.c **** #endif
1096:lvgl/src/lv_themes/lv_theme_material.c **** 
1097:lvgl/src/lv_themes/lv_theme_material.c **** #if LV_USE_CHECKBOX
1098:lvgl/src/lv_themes/lv_theme_material.c ****         case LV_THEME_CHECKBOX:
1099:lvgl/src/lv_themes/lv_theme_material.c ****             list = lv_obj_get_style_list(obj, LV_CHECKBOX_PART_BG);
1100:lvgl/src/lv_themes/lv_theme_material.c ****             _lv_style_list_add_style(list, &styles->cb_bg);
1101:lvgl/src/lv_themes/lv_theme_material.c **** 
1102:lvgl/src/lv_themes/lv_theme_material.c ****             list = lv_obj_get_style_list(obj, LV_CHECKBOX_PART_BULLET);
1103:lvgl/src/lv_themes/lv_theme_material.c ****             _lv_style_list_add_style(list, &styles->btn);
1104:lvgl/src/lv_themes/lv_theme_material.c ****             _lv_style_list_add_style(list, &styles->cb_bullet);
1105:lvgl/src/lv_themes/lv_theme_material.c ****             break;
1106:lvgl/src/lv_themes/lv_theme_material.c **** #endif
1107:lvgl/src/lv_themes/lv_theme_material.c **** 
1108:lvgl/src/lv_themes/lv_theme_material.c **** #if LV_USE_MSGBOX
1109:lvgl/src/lv_themes/lv_theme_material.c ****         case LV_THEME_MSGBOX:
1110:lvgl/src/lv_themes/lv_theme_material.c ****             list = lv_obj_get_style_list(obj, LV_MSGBOX_PART_BG);
1111:lvgl/src/lv_themes/lv_theme_material.c ****             _lv_style_list_add_style(list, &styles->bg);
1112:lvgl/src/lv_themes/lv_theme_material.c ****             _lv_style_list_add_style(list, &styles->mbox_bg);
1113:lvgl/src/lv_themes/lv_theme_material.c ****             break;
1114:lvgl/src/lv_themes/lv_theme_material.c **** 
1115:lvgl/src/lv_themes/lv_theme_material.c ****         case LV_THEME_MSGBOX_BTNS:
1116:lvgl/src/lv_themes/lv_theme_material.c ****             list = lv_obj_get_style_list(obj, LV_MSGBOX_PART_BTN_BG);
1117:lvgl/src/lv_themes/lv_theme_material.c ****             _lv_style_list_add_style(list, &styles->pad_small);
1118:lvgl/src/lv_themes/lv_theme_material.c **** 
1119:lvgl/src/lv_themes/lv_theme_material.c ****             list = lv_obj_get_style_list(obj, LV_MSGBOX_PART_BTN);
1120:lvgl/src/lv_themes/lv_theme_material.c ****             _lv_style_list_add_style(list, &styles->btn);
1121:lvgl/src/lv_themes/lv_theme_material.c ****             break;
1122:lvgl/src/lv_themes/lv_theme_material.c **** 
1123:lvgl/src/lv_themes/lv_theme_material.c **** #endif
1124:lvgl/src/lv_themes/lv_theme_material.c **** #if LV_USE_LED
1125:lvgl/src/lv_themes/lv_theme_material.c ****         case LV_THEME_LED:
1126:lvgl/src/lv_themes/lv_theme_material.c ****             list = lv_obj_get_style_list(obj, LV_LED_PART_MAIN);
1127:lvgl/src/lv_themes/lv_theme_material.c ****             _lv_style_list_add_style(list, &styles->led);
1128:lvgl/src/lv_themes/lv_theme_material.c ****             break;
1129:lvgl/src/lv_themes/lv_theme_material.c **** #endif
1130:lvgl/src/lv_themes/lv_theme_material.c **** #if LV_USE_PAGE
1131:lvgl/src/lv_themes/lv_theme_material.c ****         case LV_THEME_PAGE:
1132:lvgl/src/lv_themes/lv_theme_material.c ****             list = lv_obj_get_style_list(obj, LV_PAGE_PART_BG);
1133:lvgl/src/lv_themes/lv_theme_material.c ****             _lv_style_list_add_style(list, &styles->bg);
1134:lvgl/src/lv_themes/lv_theme_material.c **** 
1135:lvgl/src/lv_themes/lv_theme_material.c ****             list = lv_obj_get_style_list(obj, LV_PAGE_PART_SCROLLABLE);
1136:lvgl/src/lv_themes/lv_theme_material.c ****             _lv_style_list_add_style(list, &styles->pad_inner);
1137:lvgl/src/lv_themes/lv_theme_material.c **** 
1138:lvgl/src/lv_themes/lv_theme_material.c ****             list = lv_obj_get_style_list(obj, LV_PAGE_PART_SCROLLBAR);
1139:lvgl/src/lv_themes/lv_theme_material.c ****             _lv_style_list_add_style(list, &styles->sb);
1140:lvgl/src/lv_themes/lv_theme_material.c **** 
1141:lvgl/src/lv_themes/lv_theme_material.c **** #if LV_USE_ANIMATION
1142:lvgl/src/lv_themes/lv_theme_material.c ****             list = lv_obj_get_style_list(obj, LV_PAGE_PART_EDGE_FLASH);
1143:lvgl/src/lv_themes/lv_theme_material.c ****             _lv_style_list_add_style(list, &styles->edge_flash);
1144:lvgl/src/lv_themes/lv_theme_material.c **** #endif
1145:lvgl/src/lv_themes/lv_theme_material.c ****             break;
ARM GAS  D:\Temp\cclc1fSW.s 			page 23


1146:lvgl/src/lv_themes/lv_theme_material.c **** #endif
1147:lvgl/src/lv_themes/lv_theme_material.c **** #if LV_USE_TABVIEW
1148:lvgl/src/lv_themes/lv_theme_material.c ****         case LV_THEME_TABVIEW:
1149:lvgl/src/lv_themes/lv_theme_material.c ****             list = lv_obj_get_style_list(obj, LV_TABVIEW_PART_BG);
1150:lvgl/src/lv_themes/lv_theme_material.c ****             _lv_style_list_add_style(list, &styles->scr);
1151:lvgl/src/lv_themes/lv_theme_material.c **** 
1152:lvgl/src/lv_themes/lv_theme_material.c ****             list = lv_obj_get_style_list(obj, LV_TABVIEW_PART_TAB_BG);
1153:lvgl/src/lv_themes/lv_theme_material.c ****             _lv_style_list_add_style(list, &styles->tabview_btns_bg);
1154:lvgl/src/lv_themes/lv_theme_material.c **** 
1155:lvgl/src/lv_themes/lv_theme_material.c ****             list = lv_obj_get_style_list(obj, LV_TABVIEW_PART_INDIC);
1156:lvgl/src/lv_themes/lv_theme_material.c ****             _lv_style_list_add_style(list, &styles->tabview_indic);
1157:lvgl/src/lv_themes/lv_theme_material.c **** 
1158:lvgl/src/lv_themes/lv_theme_material.c ****             list = lv_obj_get_style_list(obj, LV_TABVIEW_PART_TAB_BTN);
1159:lvgl/src/lv_themes/lv_theme_material.c ****             _lv_style_list_add_style(list, &styles->tabview_btns);
1160:lvgl/src/lv_themes/lv_theme_material.c ****             break;
1161:lvgl/src/lv_themes/lv_theme_material.c **** 
1162:lvgl/src/lv_themes/lv_theme_material.c ****         case LV_THEME_TABVIEW_PAGE:
1163:lvgl/src/lv_themes/lv_theme_material.c ****             list = lv_obj_get_style_list(obj, LV_PAGE_PART_SCROLLABLE);
1164:lvgl/src/lv_themes/lv_theme_material.c ****             _lv_style_list_add_style(list, &styles->tabview_page_scrl);
1165:lvgl/src/lv_themes/lv_theme_material.c **** 
1166:lvgl/src/lv_themes/lv_theme_material.c ****             break;
1167:lvgl/src/lv_themes/lv_theme_material.c **** #endif
1168:lvgl/src/lv_themes/lv_theme_material.c **** 
1169:lvgl/src/lv_themes/lv_theme_material.c **** #if LV_USE_TILEVIEW
1170:lvgl/src/lv_themes/lv_theme_material.c ****         case LV_THEME_TILEVIEW:
1171:lvgl/src/lv_themes/lv_theme_material.c ****             list = lv_obj_get_style_list(obj, LV_TILEVIEW_PART_BG);
1172:lvgl/src/lv_themes/lv_theme_material.c ****             _lv_style_list_add_style(list, &styles->scr);
1173:lvgl/src/lv_themes/lv_theme_material.c **** 
1174:lvgl/src/lv_themes/lv_theme_material.c ****             list = lv_obj_get_style_list(obj, LV_TILEVIEW_PART_SCROLLBAR);
1175:lvgl/src/lv_themes/lv_theme_material.c ****             _lv_style_list_add_style(list, &styles->sb);
1176:lvgl/src/lv_themes/lv_theme_material.c **** 
1177:lvgl/src/lv_themes/lv_theme_material.c **** #if LV_USE_ANIMATION
1178:lvgl/src/lv_themes/lv_theme_material.c ****             list = lv_obj_get_style_list(obj, LV_TILEVIEW_PART_EDGE_FLASH);
1179:lvgl/src/lv_themes/lv_theme_material.c ****             _lv_style_list_add_style(list, &styles->edge_flash);
1180:lvgl/src/lv_themes/lv_theme_material.c **** #endif
1181:lvgl/src/lv_themes/lv_theme_material.c ****             break;
1182:lvgl/src/lv_themes/lv_theme_material.c **** #endif
1183:lvgl/src/lv_themes/lv_theme_material.c **** 
1184:lvgl/src/lv_themes/lv_theme_material.c **** #if LV_USE_ROLLER
1185:lvgl/src/lv_themes/lv_theme_material.c ****         case LV_THEME_ROLLER:
1186:lvgl/src/lv_themes/lv_theme_material.c ****             list = lv_obj_get_style_list(obj, LV_ROLLER_PART_BG);
1187:lvgl/src/lv_themes/lv_theme_material.c ****             _lv_style_list_add_style(list, &styles->bg);
1188:lvgl/src/lv_themes/lv_theme_material.c ****             _lv_style_list_add_style(list, &styles->roller_bg);
1189:lvgl/src/lv_themes/lv_theme_material.c **** 
1190:lvgl/src/lv_themes/lv_theme_material.c ****             list = lv_obj_get_style_list(obj, LV_ROLLER_PART_SELECTED);
1191:lvgl/src/lv_themes/lv_theme_material.c ****             _lv_style_list_add_style(list, &styles->roller_sel);
1192:lvgl/src/lv_themes/lv_theme_material.c ****             break;
1193:lvgl/src/lv_themes/lv_theme_material.c **** #endif
1194:lvgl/src/lv_themes/lv_theme_material.c **** 
1195:lvgl/src/lv_themes/lv_theme_material.c **** #if LV_USE_OBJMASK
1196:lvgl/src/lv_themes/lv_theme_material.c ****         case LV_THEME_OBJMASK:
1197:lvgl/src/lv_themes/lv_theme_material.c ****             list = lv_obj_get_style_list(obj, LV_OBJMASK_PART_MAIN);
1198:lvgl/src/lv_themes/lv_theme_material.c ****             break;
1199:lvgl/src/lv_themes/lv_theme_material.c **** #endif
1200:lvgl/src/lv_themes/lv_theme_material.c **** 
1201:lvgl/src/lv_themes/lv_theme_material.c **** #if LV_USE_LIST
1202:lvgl/src/lv_themes/lv_theme_material.c ****         case LV_THEME_LIST:
ARM GAS  D:\Temp\cclc1fSW.s 			page 24


1203:lvgl/src/lv_themes/lv_theme_material.c ****             list = lv_obj_get_style_list(obj, LV_LIST_PART_BG);
1204:lvgl/src/lv_themes/lv_theme_material.c ****             _lv_style_list_add_style(list, &styles->bg);
1205:lvgl/src/lv_themes/lv_theme_material.c ****             _lv_style_list_add_style(list, &styles->list_bg);
1206:lvgl/src/lv_themes/lv_theme_material.c **** 
1207:lvgl/src/lv_themes/lv_theme_material.c ****             list = lv_obj_get_style_list(obj, LV_LIST_PART_SCROLLBAR);
1208:lvgl/src/lv_themes/lv_theme_material.c ****             _lv_style_list_add_style(list, &styles->sb);
1209:lvgl/src/lv_themes/lv_theme_material.c ****             break;
1210:lvgl/src/lv_themes/lv_theme_material.c **** 
1211:lvgl/src/lv_themes/lv_theme_material.c ****         case LV_THEME_LIST_BTN:
1212:lvgl/src/lv_themes/lv_theme_material.c ****             list = lv_obj_get_style_list(obj, LV_BTN_PART_MAIN);
1213:lvgl/src/lv_themes/lv_theme_material.c ****             _lv_style_list_add_style(list, &styles->list_btn);
1214:lvgl/src/lv_themes/lv_theme_material.c ****             break;
1215:lvgl/src/lv_themes/lv_theme_material.c **** #endif
1216:lvgl/src/lv_themes/lv_theme_material.c **** 
1217:lvgl/src/lv_themes/lv_theme_material.c **** #if LV_USE_DROPDOWN
1218:lvgl/src/lv_themes/lv_theme_material.c ****         case LV_THEME_DROPDOWN:
1219:lvgl/src/lv_themes/lv_theme_material.c ****             list = lv_obj_get_style_list(obj, LV_DROPDOWN_PART_MAIN);
1220:lvgl/src/lv_themes/lv_theme_material.c ****             _lv_style_list_add_style(list, &styles->bg);
1221:lvgl/src/lv_themes/lv_theme_material.c ****             _lv_style_list_add_style(list, &styles->bg_click);
1222:lvgl/src/lv_themes/lv_theme_material.c ****             _lv_style_list_add_style(list, &styles->pad_small);
1223:lvgl/src/lv_themes/lv_theme_material.c **** 
1224:lvgl/src/lv_themes/lv_theme_material.c ****             list = lv_obj_get_style_list(obj, LV_DROPDOWN_PART_LIST);
1225:lvgl/src/lv_themes/lv_theme_material.c ****             _lv_style_list_add_style(list, &styles->bg);
1226:lvgl/src/lv_themes/lv_theme_material.c ****             _lv_style_list_add_style(list, &styles->ddlist_page);
1227:lvgl/src/lv_themes/lv_theme_material.c **** 
1228:lvgl/src/lv_themes/lv_theme_material.c ****             list = lv_obj_get_style_list(obj, LV_DROPDOWN_PART_SCROLLBAR);
1229:lvgl/src/lv_themes/lv_theme_material.c ****             _lv_style_list_add_style(list, &styles->sb);
1230:lvgl/src/lv_themes/lv_theme_material.c **** 
1231:lvgl/src/lv_themes/lv_theme_material.c ****             list = lv_obj_get_style_list(obj, LV_DROPDOWN_PART_SELECTED);
1232:lvgl/src/lv_themes/lv_theme_material.c ****             _lv_style_list_add_style(list, &styles->ddlist_sel);
1233:lvgl/src/lv_themes/lv_theme_material.c ****             break;
1234:lvgl/src/lv_themes/lv_theme_material.c **** #endif
1235:lvgl/src/lv_themes/lv_theme_material.c **** 
1236:lvgl/src/lv_themes/lv_theme_material.c **** #if LV_USE_CHART
1237:lvgl/src/lv_themes/lv_theme_material.c ****         case LV_THEME_CHART:
1238:lvgl/src/lv_themes/lv_theme_material.c ****             list = lv_obj_get_style_list(obj, LV_CHART_PART_BG);
1239:lvgl/src/lv_themes/lv_theme_material.c ****             _lv_style_list_add_style(list, &styles->bg);
1240:lvgl/src/lv_themes/lv_theme_material.c ****             _lv_style_list_add_style(list, &styles->chart_bg);
1241:lvgl/src/lv_themes/lv_theme_material.c ****             _lv_style_list_add_style(list, &styles->pad_small);
1242:lvgl/src/lv_themes/lv_theme_material.c **** 
1243:lvgl/src/lv_themes/lv_theme_material.c ****             list = lv_obj_get_style_list(obj, LV_CHART_PART_SERIES_BG);
1244:lvgl/src/lv_themes/lv_theme_material.c ****             _lv_style_list_add_style(list, &styles->pad_small);
1245:lvgl/src/lv_themes/lv_theme_material.c ****             _lv_style_list_add_style(list, &styles->chart_series_bg);
1246:lvgl/src/lv_themes/lv_theme_material.c **** 
1247:lvgl/src/lv_themes/lv_theme_material.c ****             list = lv_obj_get_style_list(obj, LV_CHART_PART_CURSOR);
1248:lvgl/src/lv_themes/lv_theme_material.c ****             _lv_style_list_add_style(list, &styles->chart_series_bg);
1249:lvgl/src/lv_themes/lv_theme_material.c **** 
1250:lvgl/src/lv_themes/lv_theme_material.c ****             list = lv_obj_get_style_list(obj, LV_CHART_PART_SERIES);
1251:lvgl/src/lv_themes/lv_theme_material.c ****             _lv_style_list_add_style(list, &styles->chart_series);
1252:lvgl/src/lv_themes/lv_theme_material.c ****             break;
1253:lvgl/src/lv_themes/lv_theme_material.c **** #endif
1254:lvgl/src/lv_themes/lv_theme_material.c **** #if LV_USE_TABLE
1255:lvgl/src/lv_themes/lv_theme_material.c ****         case LV_THEME_TABLE: {
1256:lvgl/src/lv_themes/lv_theme_material.c ****                 list = lv_obj_get_style_list(obj, LV_TABLE_PART_BG);
1257:lvgl/src/lv_themes/lv_theme_material.c ****                 _lv_style_list_add_style(list, &styles->bg);
1258:lvgl/src/lv_themes/lv_theme_material.c **** 
1259:lvgl/src/lv_themes/lv_theme_material.c ****                 int idx = 1; /* start value should be 1, not zero, since cell styles
ARM GAS  D:\Temp\cclc1fSW.s 			page 25


1260:lvgl/src/lv_themes/lv_theme_material.c ****                             start at 1 due to presence of LV_TABLE_PART_BG=0
1261:lvgl/src/lv_themes/lv_theme_material.c ****                             in the enum (lv_table.h) */
1262:lvgl/src/lv_themes/lv_theme_material.c ****                 /* declaring idx outside loop to work with older compilers */
1263:lvgl/src/lv_themes/lv_theme_material.c ****                 for(; idx <= LV_TABLE_CELL_STYLE_CNT; idx ++) {
1264:lvgl/src/lv_themes/lv_theme_material.c ****                     list = lv_obj_get_style_list(obj, idx);
1265:lvgl/src/lv_themes/lv_theme_material.c ****                     _lv_style_list_add_style(list, &styles->table_cell);
1266:lvgl/src/lv_themes/lv_theme_material.c ****                 }
1267:lvgl/src/lv_themes/lv_theme_material.c ****                 break;
1268:lvgl/src/lv_themes/lv_theme_material.c ****             }
1269:lvgl/src/lv_themes/lv_theme_material.c **** #endif
1270:lvgl/src/lv_themes/lv_theme_material.c **** 
1271:lvgl/src/lv_themes/lv_theme_material.c **** #if LV_USE_WIN
1272:lvgl/src/lv_themes/lv_theme_material.c ****         case LV_THEME_WIN:
1273:lvgl/src/lv_themes/lv_theme_material.c ****             list = lv_obj_get_style_list(obj, LV_WIN_PART_BG);
1274:lvgl/src/lv_themes/lv_theme_material.c ****             _lv_style_list_add_style(list, &styles->scr);
1275:lvgl/src/lv_themes/lv_theme_material.c **** 
1276:lvgl/src/lv_themes/lv_theme_material.c ****             list = lv_obj_get_style_list(obj, LV_WIN_PART_SCROLLBAR);
1277:lvgl/src/lv_themes/lv_theme_material.c ****             _lv_style_list_add_style(list, &styles->sb);
1278:lvgl/src/lv_themes/lv_theme_material.c **** 
1279:lvgl/src/lv_themes/lv_theme_material.c ****             list = lv_obj_get_style_list(obj, LV_WIN_PART_CONTENT_SCROLLABLE);
1280:lvgl/src/lv_themes/lv_theme_material.c ****             _lv_style_list_add_style(list, &styles->tabview_page_scrl);
1281:lvgl/src/lv_themes/lv_theme_material.c **** 
1282:lvgl/src/lv_themes/lv_theme_material.c ****             list = lv_obj_get_style_list(obj, LV_WIN_PART_HEADER);
1283:lvgl/src/lv_themes/lv_theme_material.c ****             _lv_style_list_add_style(list, &styles->tabview_btns_bg);
1284:lvgl/src/lv_themes/lv_theme_material.c ****             break;
1285:lvgl/src/lv_themes/lv_theme_material.c **** 
1286:lvgl/src/lv_themes/lv_theme_material.c ****         case LV_THEME_WIN_BTN:
1287:lvgl/src/lv_themes/lv_theme_material.c ****             list = lv_obj_get_style_list(obj, LV_BTN_PART_MAIN);
1288:lvgl/src/lv_themes/lv_theme_material.c ****             _lv_style_list_add_style(list, &styles->tabview_btns);
1289:lvgl/src/lv_themes/lv_theme_material.c ****             break;
1290:lvgl/src/lv_themes/lv_theme_material.c **** #endif
1291:lvgl/src/lv_themes/lv_theme_material.c **** 
1292:lvgl/src/lv_themes/lv_theme_material.c **** #if LV_USE_TEXTAREA
1293:lvgl/src/lv_themes/lv_theme_material.c ****         case LV_THEME_TEXTAREA:
1294:lvgl/src/lv_themes/lv_theme_material.c ****             list = lv_obj_get_style_list(obj, LV_TEXTAREA_PART_BG);
1295:lvgl/src/lv_themes/lv_theme_material.c ****             _lv_style_list_add_style(list, &styles->bg);
1296:lvgl/src/lv_themes/lv_theme_material.c ****             _lv_style_list_add_style(list, &styles->pad_small);
1297:lvgl/src/lv_themes/lv_theme_material.c **** 
1298:lvgl/src/lv_themes/lv_theme_material.c ****             list = lv_obj_get_style_list(obj, LV_TEXTAREA_PART_PLACEHOLDER);
1299:lvgl/src/lv_themes/lv_theme_material.c ****             _lv_style_list_add_style(list, &styles->ta_placeholder);
1300:lvgl/src/lv_themes/lv_theme_material.c **** 
1301:lvgl/src/lv_themes/lv_theme_material.c ****             list = lv_obj_get_style_list(obj, LV_TEXTAREA_PART_CURSOR);
1302:lvgl/src/lv_themes/lv_theme_material.c ****             _lv_style_list_add_style(list, &styles->ta_cursor);
1303:lvgl/src/lv_themes/lv_theme_material.c **** 
1304:lvgl/src/lv_themes/lv_theme_material.c ****             list = lv_obj_get_style_list(obj, LV_TEXTAREA_PART_SCROLLBAR);
1305:lvgl/src/lv_themes/lv_theme_material.c ****             _lv_style_list_add_style(list, &styles->sb);
1306:lvgl/src/lv_themes/lv_theme_material.c ****             break;
1307:lvgl/src/lv_themes/lv_theme_material.c **** 
1308:lvgl/src/lv_themes/lv_theme_material.c **** #endif
1309:lvgl/src/lv_themes/lv_theme_material.c **** 
1310:lvgl/src/lv_themes/lv_theme_material.c **** #if LV_USE_SPINBOX
1311:lvgl/src/lv_themes/lv_theme_material.c ****         case LV_THEME_SPINBOX:
1312:lvgl/src/lv_themes/lv_theme_material.c ****             list = lv_obj_get_style_list(obj, LV_SPINBOX_PART_BG);
1313:lvgl/src/lv_themes/lv_theme_material.c ****             _lv_style_list_add_style(list, &styles->bg);
1314:lvgl/src/lv_themes/lv_theme_material.c ****             _lv_style_list_add_style(list, &styles->pad_small);
1315:lvgl/src/lv_themes/lv_theme_material.c **** 
1316:lvgl/src/lv_themes/lv_theme_material.c ****             list = lv_obj_get_style_list(obj, LV_SPINBOX_PART_CURSOR);
ARM GAS  D:\Temp\cclc1fSW.s 			page 26


1317:lvgl/src/lv_themes/lv_theme_material.c ****             _lv_style_list_add_style(list, &styles->spinbox_cursor);
1318:lvgl/src/lv_themes/lv_theme_material.c ****             break;
1319:lvgl/src/lv_themes/lv_theme_material.c **** 
1320:lvgl/src/lv_themes/lv_theme_material.c ****         case LV_THEME_SPINBOX_BTN:
1321:lvgl/src/lv_themes/lv_theme_material.c ****             list = lv_obj_get_style_list(obj, LV_BTN_PART_MAIN);
1322:lvgl/src/lv_themes/lv_theme_material.c ****             _lv_style_list_add_style(list, &styles->bg);
1323:lvgl/src/lv_themes/lv_theme_material.c ****             _lv_style_list_add_style(list, &styles->bg_click);
1324:lvgl/src/lv_themes/lv_theme_material.c ****             break;
1325:lvgl/src/lv_themes/lv_theme_material.c **** #endif
1326:lvgl/src/lv_themes/lv_theme_material.c **** 
1327:lvgl/src/lv_themes/lv_theme_material.c **** #if LV_USE_CALENDAR
1328:lvgl/src/lv_themes/lv_theme_material.c ****         case LV_THEME_CALENDAR:
1329:lvgl/src/lv_themes/lv_theme_material.c ****             list = lv_obj_get_style_list(obj, LV_CALENDAR_PART_BG);
1330:lvgl/src/lv_themes/lv_theme_material.c ****             _lv_style_list_add_style(list, &styles->bg);
1331:lvgl/src/lv_themes/lv_theme_material.c **** 
1332:lvgl/src/lv_themes/lv_theme_material.c ****             list = lv_obj_get_style_list(obj, LV_CALENDAR_PART_DATE);
1333:lvgl/src/lv_themes/lv_theme_material.c ****             _lv_style_list_add_style(list, &styles->calendar_date_nums);
1334:lvgl/src/lv_themes/lv_theme_material.c **** 
1335:lvgl/src/lv_themes/lv_theme_material.c ****             list = lv_obj_get_style_list(obj, LV_CALENDAR_PART_HEADER);
1336:lvgl/src/lv_themes/lv_theme_material.c ****             _lv_style_list_add_style(list, &styles->calendar_header);
1337:lvgl/src/lv_themes/lv_theme_material.c **** 
1338:lvgl/src/lv_themes/lv_theme_material.c ****             list = lv_obj_get_style_list(obj, LV_CALENDAR_PART_DAY_NAMES);
1339:lvgl/src/lv_themes/lv_theme_material.c ****             _lv_style_list_add_style(list, &styles->calendar_daynames);
1340:lvgl/src/lv_themes/lv_theme_material.c ****             break;
1341:lvgl/src/lv_themes/lv_theme_material.c **** #endif
1342:lvgl/src/lv_themes/lv_theme_material.c **** #if LV_USE_CPICKER
1343:lvgl/src/lv_themes/lv_theme_material.c ****         case LV_THEME_CPICKER:
1344:lvgl/src/lv_themes/lv_theme_material.c ****             list = lv_obj_get_style_list(obj, LV_CPICKER_PART_MAIN);
1345:lvgl/src/lv_themes/lv_theme_material.c ****             _lv_style_list_add_style(list, &styles->cpicker_bg);
1346:lvgl/src/lv_themes/lv_theme_material.c **** 
1347:lvgl/src/lv_themes/lv_theme_material.c ****             list = lv_obj_get_style_list(obj, LV_CPICKER_PART_KNOB);
1348:lvgl/src/lv_themes/lv_theme_material.c ****             _lv_style_list_add_style(list, &styles->cpicker_indic);
1349:lvgl/src/lv_themes/lv_theme_material.c ****             break;
1350:lvgl/src/lv_themes/lv_theme_material.c **** #endif
1351:lvgl/src/lv_themes/lv_theme_material.c **** 
1352:lvgl/src/lv_themes/lv_theme_material.c **** #if LV_USE_LINEMETER
1353:lvgl/src/lv_themes/lv_theme_material.c ****         case LV_THEME_LINEMETER:
1354:lvgl/src/lv_themes/lv_theme_material.c ****             list = lv_obj_get_style_list(obj, LV_LINEMETER_PART_MAIN);
1355:lvgl/src/lv_themes/lv_theme_material.c ****             _lv_style_list_add_style(list, &styles->bg);
1356:lvgl/src/lv_themes/lv_theme_material.c ****             _lv_style_list_add_style(list, &styles->lmeter);
1357:lvgl/src/lv_themes/lv_theme_material.c ****             break;
1358:lvgl/src/lv_themes/lv_theme_material.c **** #endif
1359:lvgl/src/lv_themes/lv_theme_material.c **** #if LV_USE_GAUGE
1360:lvgl/src/lv_themes/lv_theme_material.c ****         case LV_THEME_GAUGE:
1361:lvgl/src/lv_themes/lv_theme_material.c ****             list = lv_obj_get_style_list(obj, LV_GAUGE_PART_MAIN);
1362:lvgl/src/lv_themes/lv_theme_material.c ****             _lv_style_list_add_style(list, &styles->bg);
1363:lvgl/src/lv_themes/lv_theme_material.c ****             _lv_style_list_add_style(list, &styles->gauge_main);
1364:lvgl/src/lv_themes/lv_theme_material.c **** 
1365:lvgl/src/lv_themes/lv_theme_material.c ****             list = lv_obj_get_style_list(obj, LV_GAUGE_PART_MAJOR);
1366:lvgl/src/lv_themes/lv_theme_material.c ****             _lv_style_list_add_style(list, &styles->gauge_strong);
1367:lvgl/src/lv_themes/lv_theme_material.c **** 
1368:lvgl/src/lv_themes/lv_theme_material.c ****             list = lv_obj_get_style_list(obj, LV_GAUGE_PART_NEEDLE);
1369:lvgl/src/lv_themes/lv_theme_material.c ****             _lv_style_list_add_style(list, &styles->gauge_needle);
1370:lvgl/src/lv_themes/lv_theme_material.c ****             break;
1371:lvgl/src/lv_themes/lv_theme_material.c **** #endif
1372:lvgl/src/lv_themes/lv_theme_material.c ****         default:
1373:lvgl/src/lv_themes/lv_theme_material.c ****             break;
ARM GAS  D:\Temp\cclc1fSW.s 			page 27


1374:lvgl/src/lv_themes/lv_theme_material.c ****     }
1375:lvgl/src/lv_themes/lv_theme_material.c **** 
1376:lvgl/src/lv_themes/lv_theme_material.c ****     lv_obj_refresh_style(obj, LV_OBJ_PART_ALL, LV_STYLE_PROP_ALL);
 111              		.loc 1 1376 5 view .LVU12
 112 006e FF22     		movs	r2, #255
 113 0070 1146     		mov	r1, r2
 114 0072 2046     		mov	r0, r4
 115 0074 FFF7FEFF 		bl	lv_obj_refresh_style
 116              	.LVL6:
1377:lvgl/src/lv_themes/lv_theme_material.c **** }
 117              		.loc 1 1377 1 is_stmt 0 view .LVU13
 118 0078 70BD     		pop	{r4, r5, r6, pc}
 119              	.LVL7:
 120              	.L37:
 968:lvgl/src/lv_themes/lv_theme_material.c ****             _lv_style_list_add_style(list, &styles->bg);
 121              		.loc 1 968 13 is_stmt 1 view .LVU14
 968:lvgl/src/lv_themes/lv_theme_material.c ****             _lv_style_list_add_style(list, &styles->bg);
 122              		.loc 1 968 20 is_stmt 0 view .LVU15
 123 007a 0021     		movs	r1, #0
 124              	.LVL8:
 968:lvgl/src/lv_themes/lv_theme_material.c ****             _lv_style_list_add_style(list, &styles->bg);
 125              		.loc 1 968 20 view .LVU16
 126 007c 2046     		mov	r0, r4
 127              	.LVL9:
 968:lvgl/src/lv_themes/lv_theme_material.c ****             _lv_style_list_add_style(list, &styles->bg);
 128              		.loc 1 968 20 view .LVU17
 129 007e FFF7FEFF 		bl	lv_obj_get_style_list
 130              	.LVL10:
 969:lvgl/src/lv_themes/lv_theme_material.c ****             break;
 131              		.loc 1 969 13 is_stmt 1 view .LVU18
 969:lvgl/src/lv_themes/lv_theme_material.c ****             break;
 132              		.loc 1 969 51 is_stmt 0 view .LVU19
 133 0082 C44B     		ldr	r3, .L42
 134 0084 1968     		ldr	r1, [r3]
 969:lvgl/src/lv_themes/lv_theme_material.c ****             break;
 135              		.loc 1 969 13 view .LVU20
 136 0086 0431     		adds	r1, r1, #4
 137 0088 FFF7FEFF 		bl	_lv_style_list_add_style
 138              	.LVL11:
 970:lvgl/src/lv_themes/lv_theme_material.c **** #if LV_USE_CONT
 139              		.loc 1 970 13 is_stmt 1 view .LVU21
 140 008c EFE7     		b	.L2
 141              	.LVL12:
 142              	.L29:
 973:lvgl/src/lv_themes/lv_theme_material.c ****             _lv_style_list_add_style(list, &styles->bg);
 143              		.loc 1 973 13 view .LVU22
 973:lvgl/src/lv_themes/lv_theme_material.c ****             _lv_style_list_add_style(list, &styles->bg);
 144              		.loc 1 973 20 is_stmt 0 view .LVU23
 145 008e 0021     		movs	r1, #0
 146              	.LVL13:
 973:lvgl/src/lv_themes/lv_theme_material.c ****             _lv_style_list_add_style(list, &styles->bg);
 147              		.loc 1 973 20 view .LVU24
 148 0090 2046     		mov	r0, r4
 149              	.LVL14:
 973:lvgl/src/lv_themes/lv_theme_material.c ****             _lv_style_list_add_style(list, &styles->bg);
 150              		.loc 1 973 20 view .LVU25
 151 0092 FFF7FEFF 		bl	lv_obj_get_style_list
ARM GAS  D:\Temp\cclc1fSW.s 			page 28


 152              	.LVL15:
 974:lvgl/src/lv_themes/lv_theme_material.c ****             break;
 153              		.loc 1 974 13 is_stmt 1 view .LVU26
 974:lvgl/src/lv_themes/lv_theme_material.c ****             break;
 154              		.loc 1 974 51 is_stmt 0 view .LVU27
 155 0096 BF4B     		ldr	r3, .L42
 156 0098 1968     		ldr	r1, [r3]
 974:lvgl/src/lv_themes/lv_theme_material.c ****             break;
 157              		.loc 1 974 13 view .LVU28
 158 009a 0431     		adds	r1, r1, #4
 159 009c FFF7FEFF 		bl	_lv_style_list_add_style
 160              	.LVL16:
 975:lvgl/src/lv_themes/lv_theme_material.c **** #endif
 161              		.loc 1 975 13 is_stmt 1 view .LVU29
 162 00a0 E5E7     		b	.L2
 163              	.LVL17:
 164              	.L34:
 980:lvgl/src/lv_themes/lv_theme_material.c ****             _lv_style_list_add_style(list, &styles->btn);
 165              		.loc 1 980 13 view .LVU30
 980:lvgl/src/lv_themes/lv_theme_material.c ****             _lv_style_list_add_style(list, &styles->btn);
 166              		.loc 1 980 20 is_stmt 0 view .LVU31
 167 00a2 0021     		movs	r1, #0
 168              	.LVL18:
 980:lvgl/src/lv_themes/lv_theme_material.c ****             _lv_style_list_add_style(list, &styles->btn);
 169              		.loc 1 980 20 view .LVU32
 170 00a4 2046     		mov	r0, r4
 171              	.LVL19:
 980:lvgl/src/lv_themes/lv_theme_material.c ****             _lv_style_list_add_style(list, &styles->btn);
 172              		.loc 1 980 20 view .LVU33
 173 00a6 FFF7FEFF 		bl	lv_obj_get_style_list
 174              	.LVL20:
 981:lvgl/src/lv_themes/lv_theme_material.c ****             break;
 175              		.loc 1 981 13 is_stmt 1 view .LVU34
 981:lvgl/src/lv_themes/lv_theme_material.c ****             break;
 176              		.loc 1 981 51 is_stmt 0 view .LVU35
 177 00aa BA4B     		ldr	r3, .L42
 178 00ac 1968     		ldr	r1, [r3]
 981:lvgl/src/lv_themes/lv_theme_material.c ****             break;
 179              		.loc 1 981 13 view .LVU36
 180 00ae 1031     		adds	r1, r1, #16
 181 00b0 FFF7FEFF 		bl	_lv_style_list_add_style
 182              	.LVL21:
 982:lvgl/src/lv_themes/lv_theme_material.c **** #endif
 183              		.loc 1 982 13 is_stmt 1 view .LVU37
 184 00b4 DBE7     		b	.L2
 185              	.LVL22:
 186              	.L33:
 987:lvgl/src/lv_themes/lv_theme_material.c ****             _lv_style_list_add_style(list, &styles->bg);
 187              		.loc 1 987 13 view .LVU38
 987:lvgl/src/lv_themes/lv_theme_material.c ****             _lv_style_list_add_style(list, &styles->bg);
 188              		.loc 1 987 20 is_stmt 0 view .LVU39
 189 00b6 0021     		movs	r1, #0
 190              	.LVL23:
 987:lvgl/src/lv_themes/lv_theme_material.c ****             _lv_style_list_add_style(list, &styles->bg);
 191              		.loc 1 987 20 view .LVU40
 192 00b8 2046     		mov	r0, r4
 193              	.LVL24:
ARM GAS  D:\Temp\cclc1fSW.s 			page 29


 987:lvgl/src/lv_themes/lv_theme_material.c ****             _lv_style_list_add_style(list, &styles->bg);
 194              		.loc 1 987 20 view .LVU41
 195 00ba FFF7FEFF 		bl	lv_obj_get_style_list
 196              	.LVL25:
 197 00be 0646     		mov	r6, r0
 198              	.LVL26:
 988:lvgl/src/lv_themes/lv_theme_material.c ****             _lv_style_list_add_style(list, &styles->pad_small);
 199              		.loc 1 988 13 is_stmt 1 view .LVU42
 988:lvgl/src/lv_themes/lv_theme_material.c ****             _lv_style_list_add_style(list, &styles->pad_small);
 200              		.loc 1 988 51 is_stmt 0 view .LVU43
 201 00c0 B44D     		ldr	r5, .L42
 202 00c2 2968     		ldr	r1, [r5]
 988:lvgl/src/lv_themes/lv_theme_material.c ****             _lv_style_list_add_style(list, &styles->pad_small);
 203              		.loc 1 988 13 view .LVU44
 204 00c4 0431     		adds	r1, r1, #4
 205 00c6 FFF7FEFF 		bl	_lv_style_list_add_style
 206              	.LVL27:
 989:lvgl/src/lv_themes/lv_theme_material.c **** 
 207              		.loc 1 989 13 is_stmt 1 view .LVU45
 989:lvgl/src/lv_themes/lv_theme_material.c **** 
 208              		.loc 1 989 51 is_stmt 0 view .LVU46
 209 00ca 2968     		ldr	r1, [r5]
 989:lvgl/src/lv_themes/lv_theme_material.c **** 
 210              		.loc 1 989 13 view .LVU47
 211 00cc 1831     		adds	r1, r1, #24
 212 00ce 3046     		mov	r0, r6
 213 00d0 FFF7FEFF 		bl	_lv_style_list_add_style
 214              	.LVL28:
 991:lvgl/src/lv_themes/lv_theme_material.c ****             _lv_style_list_add_style(list, &styles->bg);
 215              		.loc 1 991 13 is_stmt 1 view .LVU48
 991:lvgl/src/lv_themes/lv_theme_material.c ****             _lv_style_list_add_style(list, &styles->bg);
 216              		.loc 1 991 20 is_stmt 0 view .LVU49
 217 00d4 0121     		movs	r1, #1
 218 00d6 2046     		mov	r0, r4
 219 00d8 FFF7FEFF 		bl	lv_obj_get_style_list
 220              	.LVL29:
 221 00dc 0646     		mov	r6, r0
 222              	.LVL30:
 992:lvgl/src/lv_themes/lv_theme_material.c ****             _lv_style_list_add_style(list, &styles->bg_click);
 223              		.loc 1 992 13 is_stmt 1 view .LVU50
 992:lvgl/src/lv_themes/lv_theme_material.c ****             _lv_style_list_add_style(list, &styles->bg_click);
 224              		.loc 1 992 51 is_stmt 0 view .LVU51
 225 00de 2968     		ldr	r1, [r5]
 992:lvgl/src/lv_themes/lv_theme_material.c ****             _lv_style_list_add_style(list, &styles->bg_click);
 226              		.loc 1 992 13 view .LVU52
 227 00e0 0431     		adds	r1, r1, #4
 228 00e2 FFF7FEFF 		bl	_lv_style_list_add_style
 229              	.LVL31:
 993:lvgl/src/lv_themes/lv_theme_material.c ****             break;
 230              		.loc 1 993 13 is_stmt 1 view .LVU53
 993:lvgl/src/lv_themes/lv_theme_material.c ****             break;
 231              		.loc 1 993 51 is_stmt 0 view .LVU54
 232 00e6 2968     		ldr	r1, [r5]
 993:lvgl/src/lv_themes/lv_theme_material.c ****             break;
 233              		.loc 1 993 13 view .LVU55
 234 00e8 0831     		adds	r1, r1, #8
 235 00ea 3046     		mov	r0, r6
ARM GAS  D:\Temp\cclc1fSW.s 			page 30


 236 00ec FFF7FEFF 		bl	_lv_style_list_add_style
 237              	.LVL32:
 994:lvgl/src/lv_themes/lv_theme_material.c **** #endif
 238              		.loc 1 994 13 is_stmt 1 view .LVU56
 239 00f0 BDE7     		b	.L2
 240              	.LVL33:
 241              	.L25:
 999:lvgl/src/lv_themes/lv_theme_material.c ****             _lv_style_list_add_style(list, &styles->scr);
 242              		.loc 1 999 13 view .LVU57
 999:lvgl/src/lv_themes/lv_theme_material.c ****             _lv_style_list_add_style(list, &styles->scr);
 243              		.loc 1 999 20 is_stmt 0 view .LVU58
 244 00f2 0021     		movs	r1, #0
 245              	.LVL34:
 999:lvgl/src/lv_themes/lv_theme_material.c ****             _lv_style_list_add_style(list, &styles->scr);
 246              		.loc 1 999 20 view .LVU59
 247 00f4 2046     		mov	r0, r4
 248              	.LVL35:
 999:lvgl/src/lv_themes/lv_theme_material.c ****             _lv_style_list_add_style(list, &styles->scr);
 249              		.loc 1 999 20 view .LVU60
 250 00f6 FFF7FEFF 		bl	lv_obj_get_style_list
 251              	.LVL36:
 252 00fa 0646     		mov	r6, r0
 253              	.LVL37:
1000:lvgl/src/lv_themes/lv_theme_material.c ****             _lv_style_list_add_style(list, &styles->kb_bg);
 254              		.loc 1 1000 13 is_stmt 1 view .LVU61
1000:lvgl/src/lv_themes/lv_theme_material.c ****             _lv_style_list_add_style(list, &styles->kb_bg);
 255              		.loc 1 1000 51 is_stmt 0 view .LVU62
 256 00fc A54D     		ldr	r5, .L42
1000:lvgl/src/lv_themes/lv_theme_material.c ****             _lv_style_list_add_style(list, &styles->kb_bg);
 257              		.loc 1 1000 13 view .LVU63
 258 00fe 2968     		ldr	r1, [r5]
 259 0100 FFF7FEFF 		bl	_lv_style_list_add_style
 260              	.LVL38:
1001:lvgl/src/lv_themes/lv_theme_material.c **** 
 261              		.loc 1 1001 13 is_stmt 1 view .LVU64
1001:lvgl/src/lv_themes/lv_theme_material.c **** 
 262              		.loc 1 1001 51 is_stmt 0 view .LVU65
 263 0104 2968     		ldr	r1, [r5]
1001:lvgl/src/lv_themes/lv_theme_material.c **** 
 264              		.loc 1 1001 13 view .LVU66
 265 0106 6C31     		adds	r1, r1, #108
 266 0108 3046     		mov	r0, r6
 267 010a FFF7FEFF 		bl	_lv_style_list_add_style
 268              	.LVL39:
1003:lvgl/src/lv_themes/lv_theme_material.c ****             _lv_style_list_add_style(list, &styles->bg);
 269              		.loc 1 1003 13 is_stmt 1 view .LVU67
1003:lvgl/src/lv_themes/lv_theme_material.c ****             _lv_style_list_add_style(list, &styles->bg);
 270              		.loc 1 1003 20 is_stmt 0 view .LVU68
 271 010e 0121     		movs	r1, #1
 272 0110 2046     		mov	r0, r4
 273 0112 FFF7FEFF 		bl	lv_obj_get_style_list
 274              	.LVL40:
 275 0116 0646     		mov	r6, r0
 276              	.LVL41:
1004:lvgl/src/lv_themes/lv_theme_material.c ****             _lv_style_list_add_style(list, &styles->bg_click);
 277              		.loc 1 1004 13 is_stmt 1 view .LVU69
1004:lvgl/src/lv_themes/lv_theme_material.c ****             _lv_style_list_add_style(list, &styles->bg_click);
ARM GAS  D:\Temp\cclc1fSW.s 			page 31


 278              		.loc 1 1004 51 is_stmt 0 view .LVU70
 279 0118 2968     		ldr	r1, [r5]
1004:lvgl/src/lv_themes/lv_theme_material.c ****             _lv_style_list_add_style(list, &styles->bg_click);
 280              		.loc 1 1004 13 view .LVU71
 281 011a 0431     		adds	r1, r1, #4
 282 011c FFF7FEFF 		bl	_lv_style_list_add_style
 283              	.LVL42:
1005:lvgl/src/lv_themes/lv_theme_material.c ****             break;
 284              		.loc 1 1005 13 is_stmt 1 view .LVU72
1005:lvgl/src/lv_themes/lv_theme_material.c ****             break;
 285              		.loc 1 1005 51 is_stmt 0 view .LVU73
 286 0120 2968     		ldr	r1, [r5]
1005:lvgl/src/lv_themes/lv_theme_material.c ****             break;
 287              		.loc 1 1005 13 view .LVU74
 288 0122 0831     		adds	r1, r1, #8
 289 0124 3046     		mov	r0, r6
 290 0126 FFF7FEFF 		bl	_lv_style_list_add_style
 291              	.LVL43:
1006:lvgl/src/lv_themes/lv_theme_material.c **** #endif
 292              		.loc 1 1006 13 is_stmt 1 view .LVU75
 293 012a A0E7     		b	.L2
 294              	.LVL44:
 295              	.L35:
1011:lvgl/src/lv_themes/lv_theme_material.c ****             _lv_style_list_add_style(list, &styles->bar_bg);
 296              		.loc 1 1011 13 view .LVU76
1011:lvgl/src/lv_themes/lv_theme_material.c ****             _lv_style_list_add_style(list, &styles->bar_bg);
 297              		.loc 1 1011 20 is_stmt 0 view .LVU77
 298 012c 0021     		movs	r1, #0
 299              	.LVL45:
1011:lvgl/src/lv_themes/lv_theme_material.c ****             _lv_style_list_add_style(list, &styles->bar_bg);
 300              		.loc 1 1011 20 view .LVU78
 301 012e 2046     		mov	r0, r4
 302              	.LVL46:
1011:lvgl/src/lv_themes/lv_theme_material.c ****             _lv_style_list_add_style(list, &styles->bar_bg);
 303              		.loc 1 1011 20 view .LVU79
 304 0130 FFF7FEFF 		bl	lv_obj_get_style_list
 305              	.LVL47:
1012:lvgl/src/lv_themes/lv_theme_material.c **** 
 306              		.loc 1 1012 13 is_stmt 1 view .LVU80
1012:lvgl/src/lv_themes/lv_theme_material.c **** 
 307              		.loc 1 1012 51 is_stmt 0 view .LVU81
 308 0134 974D     		ldr	r5, .L42
 309 0136 2968     		ldr	r1, [r5]
1012:lvgl/src/lv_themes/lv_theme_material.c **** 
 310              		.loc 1 1012 13 view .LVU82
 311 0138 2831     		adds	r1, r1, #40
 312 013a FFF7FEFF 		bl	_lv_style_list_add_style
 313              	.LVL48:
1014:lvgl/src/lv_themes/lv_theme_material.c ****             _lv_style_list_add_style(list, &styles->bar_indic);
 314              		.loc 1 1014 13 is_stmt 1 view .LVU83
1014:lvgl/src/lv_themes/lv_theme_material.c ****             _lv_style_list_add_style(list, &styles->bar_indic);
 315              		.loc 1 1014 20 is_stmt 0 view .LVU84
 316 013e 0121     		movs	r1, #1
 317 0140 2046     		mov	r0, r4
 318 0142 FFF7FEFF 		bl	lv_obj_get_style_list
 319              	.LVL49:
1015:lvgl/src/lv_themes/lv_theme_material.c ****             break;
ARM GAS  D:\Temp\cclc1fSW.s 			page 32


 320              		.loc 1 1015 13 is_stmt 1 view .LVU85
1015:lvgl/src/lv_themes/lv_theme_material.c ****             break;
 321              		.loc 1 1015 51 is_stmt 0 view .LVU86
 322 0146 2968     		ldr	r1, [r5]
1015:lvgl/src/lv_themes/lv_theme_material.c ****             break;
 323              		.loc 1 1015 13 view .LVU87
 324 0148 2C31     		adds	r1, r1, #44
 325 014a FFF7FEFF 		bl	_lv_style_list_add_style
 326              	.LVL50:
1016:lvgl/src/lv_themes/lv_theme_material.c **** #endif
 327              		.loc 1 1016 13 is_stmt 1 view .LVU88
 328 014e 8EE7     		b	.L2
 329              	.LVL51:
 330              	.L11:
1021:lvgl/src/lv_themes/lv_theme_material.c ****             _lv_style_list_add_style(list, &styles->bar_bg);
 331              		.loc 1 1021 13 view .LVU89
1021:lvgl/src/lv_themes/lv_theme_material.c ****             _lv_style_list_add_style(list, &styles->bar_bg);
 332              		.loc 1 1021 20 is_stmt 0 view .LVU90
 333 0150 0021     		movs	r1, #0
 334              	.LVL52:
1021:lvgl/src/lv_themes/lv_theme_material.c ****             _lv_style_list_add_style(list, &styles->bar_bg);
 335              		.loc 1 1021 20 view .LVU91
 336 0152 2046     		mov	r0, r4
 337              	.LVL53:
1021:lvgl/src/lv_themes/lv_theme_material.c ****             _lv_style_list_add_style(list, &styles->bar_bg);
 338              		.loc 1 1021 20 view .LVU92
 339 0154 FFF7FEFF 		bl	lv_obj_get_style_list
 340              	.LVL54:
1022:lvgl/src/lv_themes/lv_theme_material.c **** 
 341              		.loc 1 1022 13 is_stmt 1 view .LVU93
1022:lvgl/src/lv_themes/lv_theme_material.c **** 
 342              		.loc 1 1022 51 is_stmt 0 view .LVU94
 343 0158 8E4D     		ldr	r5, .L42
 344 015a 2968     		ldr	r1, [r5]
1022:lvgl/src/lv_themes/lv_theme_material.c **** 
 345              		.loc 1 1022 13 view .LVU95
 346 015c 2831     		adds	r1, r1, #40
 347 015e FFF7FEFF 		bl	_lv_style_list_add_style
 348              	.LVL55:
1024:lvgl/src/lv_themes/lv_theme_material.c ****             _lv_style_list_add_style(list, &styles->bar_indic);
 349              		.loc 1 1024 13 is_stmt 1 view .LVU96
1024:lvgl/src/lv_themes/lv_theme_material.c ****             _lv_style_list_add_style(list, &styles->bar_indic);
 350              		.loc 1 1024 20 is_stmt 0 view .LVU97
 351 0162 0121     		movs	r1, #1
 352 0164 2046     		mov	r0, r4
 353 0166 FFF7FEFF 		bl	lv_obj_get_style_list
 354              	.LVL56:
1025:lvgl/src/lv_themes/lv_theme_material.c **** 
 355              		.loc 1 1025 13 is_stmt 1 view .LVU98
1025:lvgl/src/lv_themes/lv_theme_material.c **** 
 356              		.loc 1 1025 51 is_stmt 0 view .LVU99
 357 016a 2968     		ldr	r1, [r5]
1025:lvgl/src/lv_themes/lv_theme_material.c **** 
 358              		.loc 1 1025 13 view .LVU100
 359 016c 2C31     		adds	r1, r1, #44
 360 016e FFF7FEFF 		bl	_lv_style_list_add_style
 361              	.LVL57:
ARM GAS  D:\Temp\cclc1fSW.s 			page 33


1027:lvgl/src/lv_themes/lv_theme_material.c ****             _lv_style_list_add_style(list, &styles->sw_knob);
 362              		.loc 1 1027 13 is_stmt 1 view .LVU101
1027:lvgl/src/lv_themes/lv_theme_material.c ****             _lv_style_list_add_style(list, &styles->sw_knob);
 363              		.loc 1 1027 20 is_stmt 0 view .LVU102
 364 0172 0221     		movs	r1, #2
 365 0174 2046     		mov	r0, r4
 366 0176 FFF7FEFF 		bl	lv_obj_get_style_list
 367              	.LVL58:
1028:lvgl/src/lv_themes/lv_theme_material.c ****             break;
 368              		.loc 1 1028 13 is_stmt 1 view .LVU103
1028:lvgl/src/lv_themes/lv_theme_material.c ****             break;
 369              		.loc 1 1028 51 is_stmt 0 view .LVU104
 370 017a 2968     		ldr	r1, [r5]
1028:lvgl/src/lv_themes/lv_theme_material.c ****             break;
 371              		.loc 1 1028 13 view .LVU105
 372 017c A031     		adds	r1, r1, #160
 373 017e FFF7FEFF 		bl	_lv_style_list_add_style
 374              	.LVL59:
1029:lvgl/src/lv_themes/lv_theme_material.c **** #endif
 375              		.loc 1 1029 13 is_stmt 1 view .LVU106
 376 0182 74E7     		b	.L2
 377              	.LVL60:
 378              	.L36:
1059:lvgl/src/lv_themes/lv_theme_material.c ****             _lv_style_list_add_style(list, &styles->bg);
 379              		.loc 1 1059 13 view .LVU107
1059:lvgl/src/lv_themes/lv_theme_material.c ****             _lv_style_list_add_style(list, &styles->bg);
 380              		.loc 1 1059 20 is_stmt 0 view .LVU108
 381 0184 0021     		movs	r1, #0
 382              	.LVL61:
1059:lvgl/src/lv_themes/lv_theme_material.c ****             _lv_style_list_add_style(list, &styles->bg);
 383              		.loc 1 1059 20 view .LVU109
 384 0186 2046     		mov	r0, r4
 385              	.LVL62:
1059:lvgl/src/lv_themes/lv_theme_material.c ****             _lv_style_list_add_style(list, &styles->bg);
 386              		.loc 1 1059 20 view .LVU110
 387 0188 FFF7FEFF 		bl	lv_obj_get_style_list
 388              	.LVL63:
 389 018c 0646     		mov	r6, r0
 390              	.LVL64:
1060:lvgl/src/lv_themes/lv_theme_material.c ****             _lv_style_list_add_style(list, &styles->arc_bg);
 391              		.loc 1 1060 13 is_stmt 1 view .LVU111
1060:lvgl/src/lv_themes/lv_theme_material.c ****             _lv_style_list_add_style(list, &styles->arc_bg);
 392              		.loc 1 1060 51 is_stmt 0 view .LVU112
 393 018e 814D     		ldr	r5, .L42
 394 0190 2968     		ldr	r1, [r5]
1060:lvgl/src/lv_themes/lv_theme_material.c ****             _lv_style_list_add_style(list, &styles->arc_bg);
 395              		.loc 1 1060 13 view .LVU113
 396 0192 0431     		adds	r1, r1, #4
 397 0194 FFF7FEFF 		bl	_lv_style_list_add_style
 398              	.LVL65:
1061:lvgl/src/lv_themes/lv_theme_material.c **** 
 399              		.loc 1 1061 13 is_stmt 1 view .LVU114
1061:lvgl/src/lv_themes/lv_theme_material.c **** 
 400              		.loc 1 1061 51 is_stmt 0 view .LVU115
 401 0198 2968     		ldr	r1, [r5]
1061:lvgl/src/lv_themes/lv_theme_material.c **** 
 402              		.loc 1 1061 13 view .LVU116
ARM GAS  D:\Temp\cclc1fSW.s 			page 34


 403 019a 2031     		adds	r1, r1, #32
 404 019c 3046     		mov	r0, r6
 405 019e FFF7FEFF 		bl	_lv_style_list_add_style
 406              	.LVL66:
1063:lvgl/src/lv_themes/lv_theme_material.c ****             _lv_style_list_add_style(list, &styles->arc_indic);
 407              		.loc 1 1063 13 is_stmt 1 view .LVU117
1063:lvgl/src/lv_themes/lv_theme_material.c ****             _lv_style_list_add_style(list, &styles->arc_indic);
 408              		.loc 1 1063 20 is_stmt 0 view .LVU118
 409 01a2 0121     		movs	r1, #1
 410 01a4 2046     		mov	r0, r4
 411 01a6 FFF7FEFF 		bl	lv_obj_get_style_list
 412              	.LVL67:
1064:lvgl/src/lv_themes/lv_theme_material.c **** 
 413              		.loc 1 1064 13 is_stmt 1 view .LVU119
1064:lvgl/src/lv_themes/lv_theme_material.c **** 
 414              		.loc 1 1064 51 is_stmt 0 view .LVU120
 415 01aa 2968     		ldr	r1, [r5]
1064:lvgl/src/lv_themes/lv_theme_material.c **** 
 416              		.loc 1 1064 13 view .LVU121
 417 01ac 1C31     		adds	r1, r1, #28
 418 01ae FFF7FEFF 		bl	_lv_style_list_add_style
 419              	.LVL68:
1066:lvgl/src/lv_themes/lv_theme_material.c ****             _lv_style_list_add_style(list, &styles->bg);
 420              		.loc 1 1066 13 is_stmt 1 view .LVU122
1066:lvgl/src/lv_themes/lv_theme_material.c ****             _lv_style_list_add_style(list, &styles->bg);
 421              		.loc 1 1066 20 is_stmt 0 view .LVU123
 422 01b2 0221     		movs	r1, #2
 423 01b4 2046     		mov	r0, r4
 424 01b6 FFF7FEFF 		bl	lv_obj_get_style_list
 425              	.LVL69:
 426 01ba 0646     		mov	r6, r0
 427              	.LVL70:
1067:lvgl/src/lv_themes/lv_theme_material.c ****             _lv_style_list_add_style(list, &styles->bg_click);
 428              		.loc 1 1067 13 is_stmt 1 view .LVU124
1067:lvgl/src/lv_themes/lv_theme_material.c ****             _lv_style_list_add_style(list, &styles->bg_click);
 429              		.loc 1 1067 51 is_stmt 0 view .LVU125
 430 01bc 2968     		ldr	r1, [r5]
1067:lvgl/src/lv_themes/lv_theme_material.c ****             _lv_style_list_add_style(list, &styles->bg_click);
 431              		.loc 1 1067 13 view .LVU126
 432 01be 0431     		adds	r1, r1, #4
 433 01c0 FFF7FEFF 		bl	_lv_style_list_add_style
 434              	.LVL71:
1068:lvgl/src/lv_themes/lv_theme_material.c ****             _lv_style_list_add_style(list, &styles->arc_knob);
 435              		.loc 1 1068 13 is_stmt 1 view .LVU127
1068:lvgl/src/lv_themes/lv_theme_material.c ****             _lv_style_list_add_style(list, &styles->arc_knob);
 436              		.loc 1 1068 51 is_stmt 0 view .LVU128
 437 01c4 2968     		ldr	r1, [r5]
1068:lvgl/src/lv_themes/lv_theme_material.c ****             _lv_style_list_add_style(list, &styles->arc_knob);
 438              		.loc 1 1068 13 view .LVU129
 439 01c6 0831     		adds	r1, r1, #8
 440 01c8 3046     		mov	r0, r6
 441 01ca FFF7FEFF 		bl	_lv_style_list_add_style
 442              	.LVL72:
1069:lvgl/src/lv_themes/lv_theme_material.c ****             break;
 443              		.loc 1 1069 13 is_stmt 1 view .LVU130
1069:lvgl/src/lv_themes/lv_theme_material.c ****             break;
 444              		.loc 1 1069 51 is_stmt 0 view .LVU131
ARM GAS  D:\Temp\cclc1fSW.s 			page 35


 445 01ce 2968     		ldr	r1, [r5]
1069:lvgl/src/lv_themes/lv_theme_material.c ****             break;
 446              		.loc 1 1069 13 view .LVU132
 447 01d0 2431     		adds	r1, r1, #36
 448 01d2 3046     		mov	r0, r6
 449 01d4 FFF7FEFF 		bl	_lv_style_list_add_style
 450              	.LVL73:
1070:lvgl/src/lv_themes/lv_theme_material.c **** #endif
 451              		.loc 1 1070 13 is_stmt 1 view .LVU133
 452 01d8 49E7     		b	.L2
 453              	.LVL74:
 454              	.L12:
1075:lvgl/src/lv_themes/lv_theme_material.c ****             _lv_style_list_add_style(list, &styles->arc_bg);
 455              		.loc 1 1075 13 view .LVU134
1075:lvgl/src/lv_themes/lv_theme_material.c ****             _lv_style_list_add_style(list, &styles->arc_bg);
 456              		.loc 1 1075 20 is_stmt 0 view .LVU135
 457 01da 0021     		movs	r1, #0
 458              	.LVL75:
1075:lvgl/src/lv_themes/lv_theme_material.c ****             _lv_style_list_add_style(list, &styles->arc_bg);
 459              		.loc 1 1075 20 view .LVU136
 460 01dc 2046     		mov	r0, r4
 461              	.LVL76:
1075:lvgl/src/lv_themes/lv_theme_material.c ****             _lv_style_list_add_style(list, &styles->arc_bg);
 462              		.loc 1 1075 20 view .LVU137
 463 01de FFF7FEFF 		bl	lv_obj_get_style_list
 464              	.LVL77:
1076:lvgl/src/lv_themes/lv_theme_material.c **** 
 465              		.loc 1 1076 13 is_stmt 1 view .LVU138
1076:lvgl/src/lv_themes/lv_theme_material.c **** 
 466              		.loc 1 1076 51 is_stmt 0 view .LVU139
 467 01e2 6C4D     		ldr	r5, .L42
 468 01e4 2968     		ldr	r1, [r5]
1076:lvgl/src/lv_themes/lv_theme_material.c **** 
 469              		.loc 1 1076 13 view .LVU140
 470 01e6 2031     		adds	r1, r1, #32
 471 01e8 FFF7FEFF 		bl	_lv_style_list_add_style
 472              	.LVL78:
1078:lvgl/src/lv_themes/lv_theme_material.c ****             _lv_style_list_add_style(list, &styles->arc_indic);
 473              		.loc 1 1078 13 is_stmt 1 view .LVU141
1078:lvgl/src/lv_themes/lv_theme_material.c ****             _lv_style_list_add_style(list, &styles->arc_indic);
 474              		.loc 1 1078 20 is_stmt 0 view .LVU142
 475 01ec 0121     		movs	r1, #1
 476 01ee 2046     		mov	r0, r4
 477 01f0 FFF7FEFF 		bl	lv_obj_get_style_list
 478              	.LVL79:
1079:lvgl/src/lv_themes/lv_theme_material.c ****             break;
 479              		.loc 1 1079 13 is_stmt 1 view .LVU143
1079:lvgl/src/lv_themes/lv_theme_material.c ****             break;
 480              		.loc 1 1079 51 is_stmt 0 view .LVU144
 481 01f4 2968     		ldr	r1, [r5]
1079:lvgl/src/lv_themes/lv_theme_material.c ****             break;
 482              		.loc 1 1079 13 view .LVU145
 483 01f6 1C31     		adds	r1, r1, #28
 484 01f8 FFF7FEFF 		bl	_lv_style_list_add_style
 485              	.LVL80:
1080:lvgl/src/lv_themes/lv_theme_material.c **** #endif
 486              		.loc 1 1080 13 is_stmt 1 view .LVU146
ARM GAS  D:\Temp\cclc1fSW.s 			page 36


 487 01fc 37E7     		b	.L2
 488              	.LVL81:
 489              	.L15:
1085:lvgl/src/lv_themes/lv_theme_material.c ****             _lv_style_list_add_style(list, &styles->bar_bg);
 490              		.loc 1 1085 13 view .LVU147
1085:lvgl/src/lv_themes/lv_theme_material.c ****             _lv_style_list_add_style(list, &styles->bar_bg);
 491              		.loc 1 1085 20 is_stmt 0 view .LVU148
 492 01fe 0021     		movs	r1, #0
 493              	.LVL82:
1085:lvgl/src/lv_themes/lv_theme_material.c ****             _lv_style_list_add_style(list, &styles->bar_bg);
 494              		.loc 1 1085 20 view .LVU149
 495 0200 2046     		mov	r0, r4
 496              	.LVL83:
1085:lvgl/src/lv_themes/lv_theme_material.c ****             _lv_style_list_add_style(list, &styles->bar_bg);
 497              		.loc 1 1085 20 view .LVU150
 498 0202 FFF7FEFF 		bl	lv_obj_get_style_list
 499              	.LVL84:
 500 0206 0646     		mov	r6, r0
 501              	.LVL85:
1086:lvgl/src/lv_themes/lv_theme_material.c ****             _lv_style_list_add_style(list, &styles->slider_bg);
 502              		.loc 1 1086 13 is_stmt 1 view .LVU151
1086:lvgl/src/lv_themes/lv_theme_material.c ****             _lv_style_list_add_style(list, &styles->slider_bg);
 503              		.loc 1 1086 51 is_stmt 0 view .LVU152
 504 0208 624D     		ldr	r5, .L42
 505 020a 2968     		ldr	r1, [r5]
1086:lvgl/src/lv_themes/lv_theme_material.c ****             _lv_style_list_add_style(list, &styles->slider_bg);
 506              		.loc 1 1086 13 view .LVU153
 507 020c 2831     		adds	r1, r1, #40
 508 020e FFF7FEFF 		bl	_lv_style_list_add_style
 509              	.LVL86:
1087:lvgl/src/lv_themes/lv_theme_material.c **** 
 510              		.loc 1 1087 13 is_stmt 1 view .LVU154
1087:lvgl/src/lv_themes/lv_theme_material.c **** 
 511              		.loc 1 1087 51 is_stmt 0 view .LVU155
 512 0212 2968     		ldr	r1, [r5]
1087:lvgl/src/lv_themes/lv_theme_material.c **** 
 513              		.loc 1 1087 13 view .LVU156
 514 0214 9831     		adds	r1, r1, #152
 515 0216 3046     		mov	r0, r6
 516 0218 FFF7FEFF 		bl	_lv_style_list_add_style
 517              	.LVL87:
1089:lvgl/src/lv_themes/lv_theme_material.c ****             _lv_style_list_add_style(list, &styles->bar_indic);
 518              		.loc 1 1089 13 is_stmt 1 view .LVU157
1089:lvgl/src/lv_themes/lv_theme_material.c ****             _lv_style_list_add_style(list, &styles->bar_indic);
 519              		.loc 1 1089 20 is_stmt 0 view .LVU158
 520 021c 0121     		movs	r1, #1
 521 021e 2046     		mov	r0, r4
 522 0220 FFF7FEFF 		bl	lv_obj_get_style_list
 523              	.LVL88:
1090:lvgl/src/lv_themes/lv_theme_material.c **** 
 524              		.loc 1 1090 13 is_stmt 1 view .LVU159
1090:lvgl/src/lv_themes/lv_theme_material.c **** 
 525              		.loc 1 1090 51 is_stmt 0 view .LVU160
 526 0224 2968     		ldr	r1, [r5]
1090:lvgl/src/lv_themes/lv_theme_material.c **** 
 527              		.loc 1 1090 13 view .LVU161
 528 0226 2C31     		adds	r1, r1, #44
ARM GAS  D:\Temp\cclc1fSW.s 			page 37


 529 0228 FFF7FEFF 		bl	_lv_style_list_add_style
 530              	.LVL89:
1092:lvgl/src/lv_themes/lv_theme_material.c ****             _lv_style_list_add_style(list, &styles->slider_knob);
 531              		.loc 1 1092 13 is_stmt 1 view .LVU162
1092:lvgl/src/lv_themes/lv_theme_material.c ****             _lv_style_list_add_style(list, &styles->slider_knob);
 532              		.loc 1 1092 20 is_stmt 0 view .LVU163
 533 022c 0221     		movs	r1, #2
 534 022e 2046     		mov	r0, r4
 535 0230 FFF7FEFF 		bl	lv_obj_get_style_list
 536              	.LVL90:
1093:lvgl/src/lv_themes/lv_theme_material.c ****             break;
 537              		.loc 1 1093 13 is_stmt 1 view .LVU164
1093:lvgl/src/lv_themes/lv_theme_material.c ****             break;
 538              		.loc 1 1093 51 is_stmt 0 view .LVU165
 539 0234 2968     		ldr	r1, [r5]
1093:lvgl/src/lv_themes/lv_theme_material.c ****             break;
 540              		.loc 1 1093 13 view .LVU166
 541 0236 9431     		adds	r1, r1, #148
 542 0238 FFF7FEFF 		bl	_lv_style_list_add_style
 543              	.LVL91:
1094:lvgl/src/lv_themes/lv_theme_material.c **** #endif
 544              		.loc 1 1094 13 is_stmt 1 view .LVU167
 545 023c 17E7     		b	.L2
 546              	.LVL92:
 547              	.L31:
1099:lvgl/src/lv_themes/lv_theme_material.c ****             _lv_style_list_add_style(list, &styles->cb_bg);
 548              		.loc 1 1099 13 view .LVU168
1099:lvgl/src/lv_themes/lv_theme_material.c ****             _lv_style_list_add_style(list, &styles->cb_bg);
 549              		.loc 1 1099 20 is_stmt 0 view .LVU169
 550 023e 0021     		movs	r1, #0
 551              	.LVL93:
1099:lvgl/src/lv_themes/lv_theme_material.c ****             _lv_style_list_add_style(list, &styles->cb_bg);
 552              		.loc 1 1099 20 view .LVU170
 553 0240 2046     		mov	r0, r4
 554              	.LVL94:
1099:lvgl/src/lv_themes/lv_theme_material.c ****             _lv_style_list_add_style(list, &styles->cb_bg);
 555              		.loc 1 1099 20 view .LVU171
 556 0242 FFF7FEFF 		bl	lv_obj_get_style_list
 557              	.LVL95:
1100:lvgl/src/lv_themes/lv_theme_material.c **** 
 558              		.loc 1 1100 13 is_stmt 1 view .LVU172
1100:lvgl/src/lv_themes/lv_theme_material.c **** 
 559              		.loc 1 1100 51 is_stmt 0 view .LVU173
 560 0246 534D     		ldr	r5, .L42
 561 0248 2968     		ldr	r1, [r5]
1100:lvgl/src/lv_themes/lv_theme_material.c **** 
 562              		.loc 1 1100 13 view .LVU174
 563 024a 5031     		adds	r1, r1, #80
 564 024c FFF7FEFF 		bl	_lv_style_list_add_style
 565              	.LVL96:
1102:lvgl/src/lv_themes/lv_theme_material.c ****             _lv_style_list_add_style(list, &styles->btn);
 566              		.loc 1 1102 13 is_stmt 1 view .LVU175
1102:lvgl/src/lv_themes/lv_theme_material.c ****             _lv_style_list_add_style(list, &styles->btn);
 567              		.loc 1 1102 20 is_stmt 0 view .LVU176
 568 0250 4021     		movs	r1, #64
 569 0252 2046     		mov	r0, r4
 570 0254 FFF7FEFF 		bl	lv_obj_get_style_list
ARM GAS  D:\Temp\cclc1fSW.s 			page 38


 571              	.LVL97:
 572 0258 0646     		mov	r6, r0
 573              	.LVL98:
1103:lvgl/src/lv_themes/lv_theme_material.c ****             _lv_style_list_add_style(list, &styles->cb_bullet);
 574              		.loc 1 1103 13 is_stmt 1 view .LVU177
1103:lvgl/src/lv_themes/lv_theme_material.c ****             _lv_style_list_add_style(list, &styles->cb_bullet);
 575              		.loc 1 1103 51 is_stmt 0 view .LVU178
 576 025a 2968     		ldr	r1, [r5]
1103:lvgl/src/lv_themes/lv_theme_material.c ****             _lv_style_list_add_style(list, &styles->cb_bullet);
 577              		.loc 1 1103 13 view .LVU179
 578 025c 1031     		adds	r1, r1, #16
 579 025e FFF7FEFF 		bl	_lv_style_list_add_style
 580              	.LVL99:
1104:lvgl/src/lv_themes/lv_theme_material.c ****             break;
 581              		.loc 1 1104 13 is_stmt 1 view .LVU180
1104:lvgl/src/lv_themes/lv_theme_material.c ****             break;
 582              		.loc 1 1104 51 is_stmt 0 view .LVU181
 583 0262 2968     		ldr	r1, [r5]
1104:lvgl/src/lv_themes/lv_theme_material.c ****             break;
 584              		.loc 1 1104 13 view .LVU182
 585 0264 5431     		adds	r1, r1, #84
 586 0266 3046     		mov	r0, r6
 587 0268 FFF7FEFF 		bl	_lv_style_list_add_style
 588              	.LVL100:
1105:lvgl/src/lv_themes/lv_theme_material.c **** #endif
 589              		.loc 1 1105 13 is_stmt 1 view .LVU183
 590 026c FFE6     		b	.L2
 591              	.LVL101:
 592              	.L20:
1110:lvgl/src/lv_themes/lv_theme_material.c ****             _lv_style_list_add_style(list, &styles->bg);
 593              		.loc 1 1110 13 view .LVU184
1110:lvgl/src/lv_themes/lv_theme_material.c ****             _lv_style_list_add_style(list, &styles->bg);
 594              		.loc 1 1110 20 is_stmt 0 view .LVU185
 595 026e 0021     		movs	r1, #0
 596              	.LVL102:
1110:lvgl/src/lv_themes/lv_theme_material.c ****             _lv_style_list_add_style(list, &styles->bg);
 597              		.loc 1 1110 20 view .LVU186
 598 0270 2046     		mov	r0, r4
 599              	.LVL103:
1110:lvgl/src/lv_themes/lv_theme_material.c ****             _lv_style_list_add_style(list, &styles->bg);
 600              		.loc 1 1110 20 view .LVU187
 601 0272 FFF7FEFF 		bl	lv_obj_get_style_list
 602              	.LVL104:
 603 0276 0646     		mov	r6, r0
 604              	.LVL105:
1111:lvgl/src/lv_themes/lv_theme_material.c ****             _lv_style_list_add_style(list, &styles->mbox_bg);
 605              		.loc 1 1111 13 is_stmt 1 view .LVU188
1111:lvgl/src/lv_themes/lv_theme_material.c ****             _lv_style_list_add_style(list, &styles->mbox_bg);
 606              		.loc 1 1111 51 is_stmt 0 view .LVU189
 607 0278 464D     		ldr	r5, .L42
 608 027a 2968     		ldr	r1, [r5]
1111:lvgl/src/lv_themes/lv_theme_material.c ****             _lv_style_list_add_style(list, &styles->mbox_bg);
 609              		.loc 1 1111 13 view .LVU190
 610 027c 0431     		adds	r1, r1, #4
 611 027e FFF7FEFF 		bl	_lv_style_list_add_style
 612              	.LVL106:
1112:lvgl/src/lv_themes/lv_theme_material.c ****             break;
ARM GAS  D:\Temp\cclc1fSW.s 			page 39


 613              		.loc 1 1112 13 is_stmt 1 view .LVU191
1112:lvgl/src/lv_themes/lv_theme_material.c ****             break;
 614              		.loc 1 1112 51 is_stmt 0 view .LVU192
 615 0282 2968     		ldr	r1, [r5]
1112:lvgl/src/lv_themes/lv_theme_material.c ****             break;
 616              		.loc 1 1112 13 view .LVU193
 617 0284 8031     		adds	r1, r1, #128
 618 0286 3046     		mov	r0, r6
 619 0288 FFF7FEFF 		bl	_lv_style_list_add_style
 620              	.LVL107:
1113:lvgl/src/lv_themes/lv_theme_material.c **** 
 621              		.loc 1 1113 13 is_stmt 1 view .LVU194
 622 028c EFE6     		b	.L2
 623              	.LVL108:
 624              	.L19:
1116:lvgl/src/lv_themes/lv_theme_material.c ****             _lv_style_list_add_style(list, &styles->pad_small);
 625              		.loc 1 1116 13 view .LVU195
1116:lvgl/src/lv_themes/lv_theme_material.c ****             _lv_style_list_add_style(list, &styles->pad_small);
 626              		.loc 1 1116 20 is_stmt 0 view .LVU196
 627 028e 4021     		movs	r1, #64
 628              	.LVL109:
1116:lvgl/src/lv_themes/lv_theme_material.c ****             _lv_style_list_add_style(list, &styles->pad_small);
 629              		.loc 1 1116 20 view .LVU197
 630 0290 2046     		mov	r0, r4
 631              	.LVL110:
1116:lvgl/src/lv_themes/lv_theme_material.c ****             _lv_style_list_add_style(list, &styles->pad_small);
 632              		.loc 1 1116 20 view .LVU198
 633 0292 FFF7FEFF 		bl	lv_obj_get_style_list
 634              	.LVL111:
1117:lvgl/src/lv_themes/lv_theme_material.c **** 
 635              		.loc 1 1117 13 is_stmt 1 view .LVU199
1117:lvgl/src/lv_themes/lv_theme_material.c **** 
 636              		.loc 1 1117 51 is_stmt 0 view .LVU200
 637 0296 3F4D     		ldr	r5, .L42
 638 0298 2968     		ldr	r1, [r5]
1117:lvgl/src/lv_themes/lv_theme_material.c **** 
 639              		.loc 1 1117 13 view .LVU201
 640 029a 1831     		adds	r1, r1, #24
 641 029c FFF7FEFF 		bl	_lv_style_list_add_style
 642              	.LVL112:
1119:lvgl/src/lv_themes/lv_theme_material.c ****             _lv_style_list_add_style(list, &styles->btn);
 643              		.loc 1 1119 13 is_stmt 1 view .LVU202
1119:lvgl/src/lv_themes/lv_theme_material.c ****             _lv_style_list_add_style(list, &styles->btn);
 644              		.loc 1 1119 20 is_stmt 0 view .LVU203
 645 02a0 4121     		movs	r1, #65
 646 02a2 2046     		mov	r0, r4
 647 02a4 FFF7FEFF 		bl	lv_obj_get_style_list
 648              	.LVL113:
1120:lvgl/src/lv_themes/lv_theme_material.c ****             break;
 649              		.loc 1 1120 13 is_stmt 1 view .LVU204
1120:lvgl/src/lv_themes/lv_theme_material.c ****             break;
 650              		.loc 1 1120 51 is_stmt 0 view .LVU205
 651 02a8 2968     		ldr	r1, [r5]
1120:lvgl/src/lv_themes/lv_theme_material.c ****             break;
 652              		.loc 1 1120 13 view .LVU206
 653 02aa 1031     		adds	r1, r1, #16
 654 02ac FFF7FEFF 		bl	_lv_style_list_add_style
ARM GAS  D:\Temp\cclc1fSW.s 			page 40


 655              	.LVL114:
1121:lvgl/src/lv_themes/lv_theme_material.c **** 
 656              		.loc 1 1121 13 is_stmt 1 view .LVU207
 657 02b0 DDE6     		b	.L2
 658              	.LVL115:
 659              	.L24:
1126:lvgl/src/lv_themes/lv_theme_material.c ****             _lv_style_list_add_style(list, &styles->led);
 660              		.loc 1 1126 13 view .LVU208
1126:lvgl/src/lv_themes/lv_theme_material.c ****             _lv_style_list_add_style(list, &styles->led);
 661              		.loc 1 1126 20 is_stmt 0 view .LVU209
 662 02b2 0021     		movs	r1, #0
 663              	.LVL116:
1126:lvgl/src/lv_themes/lv_theme_material.c ****             _lv_style_list_add_style(list, &styles->led);
 664              		.loc 1 1126 20 view .LVU210
 665 02b4 2046     		mov	r0, r4
 666              	.LVL117:
1126:lvgl/src/lv_themes/lv_theme_material.c ****             _lv_style_list_add_style(list, &styles->led);
 667              		.loc 1 1126 20 view .LVU211
 668 02b6 FFF7FEFF 		bl	lv_obj_get_style_list
 669              	.LVL118:
1127:lvgl/src/lv_themes/lv_theme_material.c ****             break;
 670              		.loc 1 1127 13 is_stmt 1 view .LVU212
1127:lvgl/src/lv_themes/lv_theme_material.c ****             break;
 671              		.loc 1 1127 51 is_stmt 0 view .LVU213
 672 02ba 364B     		ldr	r3, .L42
 673 02bc 1968     		ldr	r1, [r3]
1127:lvgl/src/lv_themes/lv_theme_material.c ****             break;
 674              		.loc 1 1127 13 view .LVU214
 675 02be 7031     		adds	r1, r1, #112
 676 02c0 FFF7FEFF 		bl	_lv_style_list_add_style
 677              	.LVL119:
1128:lvgl/src/lv_themes/lv_theme_material.c **** #endif
 678              		.loc 1 1128 13 is_stmt 1 view .LVU215
 679 02c4 D3E6     		b	.L2
 680              	.LVL120:
 681              	.L17:
1132:lvgl/src/lv_themes/lv_theme_material.c ****             _lv_style_list_add_style(list, &styles->bg);
 682              		.loc 1 1132 13 view .LVU216
1132:lvgl/src/lv_themes/lv_theme_material.c ****             _lv_style_list_add_style(list, &styles->bg);
 683              		.loc 1 1132 20 is_stmt 0 view .LVU217
 684 02c6 0021     		movs	r1, #0
 685              	.LVL121:
1132:lvgl/src/lv_themes/lv_theme_material.c ****             _lv_style_list_add_style(list, &styles->bg);
 686              		.loc 1 1132 20 view .LVU218
 687 02c8 2046     		mov	r0, r4
 688              	.LVL122:
1132:lvgl/src/lv_themes/lv_theme_material.c ****             _lv_style_list_add_style(list, &styles->bg);
 689              		.loc 1 1132 20 view .LVU219
 690 02ca FFF7FEFF 		bl	lv_obj_get_style_list
 691              	.LVL123:
1133:lvgl/src/lv_themes/lv_theme_material.c **** 
 692              		.loc 1 1133 13 is_stmt 1 view .LVU220
1133:lvgl/src/lv_themes/lv_theme_material.c **** 
 693              		.loc 1 1133 51 is_stmt 0 view .LVU221
 694 02ce 314D     		ldr	r5, .L42
 695 02d0 2968     		ldr	r1, [r5]
1133:lvgl/src/lv_themes/lv_theme_material.c **** 
ARM GAS  D:\Temp\cclc1fSW.s 			page 41


 696              		.loc 1 1133 13 view .LVU222
 697 02d2 0431     		adds	r1, r1, #4
 698 02d4 FFF7FEFF 		bl	_lv_style_list_add_style
 699              	.LVL124:
1135:lvgl/src/lv_themes/lv_theme_material.c ****             _lv_style_list_add_style(list, &styles->pad_inner);
 700              		.loc 1 1135 13 is_stmt 1 view .LVU223
1135:lvgl/src/lv_themes/lv_theme_material.c ****             _lv_style_list_add_style(list, &styles->pad_inner);
 701              		.loc 1 1135 20 is_stmt 0 view .LVU224
 702 02d8 4021     		movs	r1, #64
 703 02da 2046     		mov	r0, r4
 704 02dc FFF7FEFF 		bl	lv_obj_get_style_list
 705              	.LVL125:
1136:lvgl/src/lv_themes/lv_theme_material.c **** 
 706              		.loc 1 1136 13 is_stmt 1 view .LVU225
1136:lvgl/src/lv_themes/lv_theme_material.c **** 
 707              		.loc 1 1136 51 is_stmt 0 view .LVU226
 708 02e0 2968     		ldr	r1, [r5]
1136:lvgl/src/lv_themes/lv_theme_material.c **** 
 709              		.loc 1 1136 13 view .LVU227
 710 02e2 1431     		adds	r1, r1, #20
 711 02e4 FFF7FEFF 		bl	_lv_style_list_add_style
 712              	.LVL126:
1138:lvgl/src/lv_themes/lv_theme_material.c ****             _lv_style_list_add_style(list, &styles->sb);
 713              		.loc 1 1138 13 is_stmt 1 view .LVU228
1138:lvgl/src/lv_themes/lv_theme_material.c ****             _lv_style_list_add_style(list, &styles->sb);
 714              		.loc 1 1138 20 is_stmt 0 view .LVU229
 715 02e8 0121     		movs	r1, #1
 716 02ea 2046     		mov	r0, r4
 717 02ec FFF7FEFF 		bl	lv_obj_get_style_list
 718              	.LVL127:
1139:lvgl/src/lv_themes/lv_theme_material.c **** 
 719              		.loc 1 1139 13 is_stmt 1 view .LVU230
1139:lvgl/src/lv_themes/lv_theme_material.c **** 
 720              		.loc 1 1139 51 is_stmt 0 view .LVU231
 721 02f0 2968     		ldr	r1, [r5]
1139:lvgl/src/lv_themes/lv_theme_material.c **** 
 722              		.loc 1 1139 13 view .LVU232
 723 02f2 8431     		adds	r1, r1, #132
 724 02f4 FFF7FEFF 		bl	_lv_style_list_add_style
 725              	.LVL128:
1142:lvgl/src/lv_themes/lv_theme_material.c ****             _lv_style_list_add_style(list, &styles->edge_flash);
 726              		.loc 1 1142 13 is_stmt 1 view .LVU233
1142:lvgl/src/lv_themes/lv_theme_material.c ****             _lv_style_list_add_style(list, &styles->edge_flash);
 727              		.loc 1 1142 20 is_stmt 0 view .LVU234
 728 02f8 0221     		movs	r1, #2
 729 02fa 2046     		mov	r0, r4
 730 02fc FFF7FEFF 		bl	lv_obj_get_style_list
 731              	.LVL129:
1143:lvgl/src/lv_themes/lv_theme_material.c **** #endif
 732              		.loc 1 1143 13 is_stmt 1 view .LVU235
1143:lvgl/src/lv_themes/lv_theme_material.c **** #endif
 733              		.loc 1 1143 51 is_stmt 0 view .LVU236
 734 0300 2968     		ldr	r1, [r5]
1143:lvgl/src/lv_themes/lv_theme_material.c **** #endif
 735              		.loc 1 1143 13 view .LVU237
 736 0302 8831     		adds	r1, r1, #136
 737 0304 FFF7FEFF 		bl	_lv_style_list_add_style
ARM GAS  D:\Temp\cclc1fSW.s 			page 42


 738              	.LVL130:
1145:lvgl/src/lv_themes/lv_theme_material.c **** #endif
 739              		.loc 1 1145 13 is_stmt 1 view .LVU238
 740 0308 B1E6     		b	.L2
 741              	.LVL131:
 742              	.L9:
1149:lvgl/src/lv_themes/lv_theme_material.c ****             _lv_style_list_add_style(list, &styles->scr);
 743              		.loc 1 1149 13 view .LVU239
1149:lvgl/src/lv_themes/lv_theme_material.c ****             _lv_style_list_add_style(list, &styles->scr);
 744              		.loc 1 1149 20 is_stmt 0 view .LVU240
 745 030a 0021     		movs	r1, #0
 746              	.LVL132:
1149:lvgl/src/lv_themes/lv_theme_material.c ****             _lv_style_list_add_style(list, &styles->scr);
 747              		.loc 1 1149 20 view .LVU241
 748 030c 2046     		mov	r0, r4
 749              	.LVL133:
1149:lvgl/src/lv_themes/lv_theme_material.c ****             _lv_style_list_add_style(list, &styles->scr);
 750              		.loc 1 1149 20 view .LVU242
 751 030e FFF7FEFF 		bl	lv_obj_get_style_list
 752              	.LVL134:
1150:lvgl/src/lv_themes/lv_theme_material.c **** 
 753              		.loc 1 1150 13 is_stmt 1 view .LVU243
1150:lvgl/src/lv_themes/lv_theme_material.c **** 
 754              		.loc 1 1150 51 is_stmt 0 view .LVU244
 755 0312 204D     		ldr	r5, .L42
1150:lvgl/src/lv_themes/lv_theme_material.c **** 
 756              		.loc 1 1150 13 view .LVU245
 757 0314 2968     		ldr	r1, [r5]
 758 0316 FFF7FEFF 		bl	_lv_style_list_add_style
 759              	.LVL135:
1152:lvgl/src/lv_themes/lv_theme_material.c ****             _lv_style_list_add_style(list, &styles->tabview_btns_bg);
 760              		.loc 1 1152 13 is_stmt 1 view .LVU246
1152:lvgl/src/lv_themes/lv_theme_material.c ****             _lv_style_list_add_style(list, &styles->tabview_btns_bg);
 761              		.loc 1 1152 20 is_stmt 0 view .LVU247
 762 031a 4121     		movs	r1, #65
 763 031c 2046     		mov	r0, r4
 764 031e FFF7FEFF 		bl	lv_obj_get_style_list
 765              	.LVL136:
1153:lvgl/src/lv_themes/lv_theme_material.c **** 
 766              		.loc 1 1153 13 is_stmt 1 view .LVU248
1153:lvgl/src/lv_themes/lv_theme_material.c **** 
 767              		.loc 1 1153 51 is_stmt 0 view .LVU249
 768 0322 2968     		ldr	r1, [r5]
1153:lvgl/src/lv_themes/lv_theme_material.c **** 
 769              		.loc 1 1153 13 view .LVU250
 770 0324 AC31     		adds	r1, r1, #172
 771 0326 FFF7FEFF 		bl	_lv_style_list_add_style
 772              	.LVL137:
1155:lvgl/src/lv_themes/lv_theme_material.c ****             _lv_style_list_add_style(list, &styles->tabview_indic);
 773              		.loc 1 1155 13 is_stmt 1 view .LVU251
1155:lvgl/src/lv_themes/lv_theme_material.c ****             _lv_style_list_add_style(list, &styles->tabview_indic);
 774              		.loc 1 1155 20 is_stmt 0 view .LVU252
 775 032a 4321     		movs	r1, #67
 776 032c 2046     		mov	r0, r4
 777 032e FFF7FEFF 		bl	lv_obj_get_style_list
 778              	.LVL138:
1156:lvgl/src/lv_themes/lv_theme_material.c **** 
ARM GAS  D:\Temp\cclc1fSW.s 			page 43


 779              		.loc 1 1156 13 is_stmt 1 view .LVU253
1156:lvgl/src/lv_themes/lv_theme_material.c **** 
 780              		.loc 1 1156 51 is_stmt 0 view .LVU254
 781 0332 2968     		ldr	r1, [r5]
1156:lvgl/src/lv_themes/lv_theme_material.c **** 
 782              		.loc 1 1156 13 view .LVU255
 783 0334 B031     		adds	r1, r1, #176
 784 0336 FFF7FEFF 		bl	_lv_style_list_add_style
 785              	.LVL139:
1158:lvgl/src/lv_themes/lv_theme_material.c ****             _lv_style_list_add_style(list, &styles->tabview_btns);
 786              		.loc 1 1158 13 is_stmt 1 view .LVU256
1158:lvgl/src/lv_themes/lv_theme_material.c ****             _lv_style_list_add_style(list, &styles->tabview_btns);
 787              		.loc 1 1158 20 is_stmt 0 view .LVU257
 788 033a 4221     		movs	r1, #66
 789 033c 2046     		mov	r0, r4
 790 033e FFF7FEFF 		bl	lv_obj_get_style_list
 791              	.LVL140:
1159:lvgl/src/lv_themes/lv_theme_material.c ****             break;
 792              		.loc 1 1159 13 is_stmt 1 view .LVU258
1159:lvgl/src/lv_themes/lv_theme_material.c ****             break;
 793              		.loc 1 1159 51 is_stmt 0 view .LVU259
 794 0342 2968     		ldr	r1, [r5]
1159:lvgl/src/lv_themes/lv_theme_material.c ****             break;
 795              		.loc 1 1159 13 view .LVU260
 796 0344 A831     		adds	r1, r1, #168
 797 0346 FFF7FEFF 		bl	_lv_style_list_add_style
 798              	.LVL141:
1160:lvgl/src/lv_themes/lv_theme_material.c **** 
 799              		.loc 1 1160 13 is_stmt 1 view .LVU261
 800 034a 90E6     		b	.L2
 801              	.LVL142:
 802              	.L8:
1163:lvgl/src/lv_themes/lv_theme_material.c ****             _lv_style_list_add_style(list, &styles->tabview_page_scrl);
 803              		.loc 1 1163 13 view .LVU262
1163:lvgl/src/lv_themes/lv_theme_material.c ****             _lv_style_list_add_style(list, &styles->tabview_page_scrl);
 804              		.loc 1 1163 20 is_stmt 0 view .LVU263
 805 034c 4021     		movs	r1, #64
 806              	.LVL143:
1163:lvgl/src/lv_themes/lv_theme_material.c ****             _lv_style_list_add_style(list, &styles->tabview_page_scrl);
 807              		.loc 1 1163 20 view .LVU264
 808 034e 2046     		mov	r0, r4
 809              	.LVL144:
1163:lvgl/src/lv_themes/lv_theme_material.c ****             _lv_style_list_add_style(list, &styles->tabview_page_scrl);
 810              		.loc 1 1163 20 view .LVU265
 811 0350 FFF7FEFF 		bl	lv_obj_get_style_list
 812              	.LVL145:
1164:lvgl/src/lv_themes/lv_theme_material.c **** 
 813              		.loc 1 1164 13 is_stmt 1 view .LVU266
1164:lvgl/src/lv_themes/lv_theme_material.c **** 
 814              		.loc 1 1164 51 is_stmt 0 view .LVU267
 815 0354 0F4B     		ldr	r3, .L42
 816 0356 1968     		ldr	r1, [r3]
1164:lvgl/src/lv_themes/lv_theme_material.c **** 
 817              		.loc 1 1164 13 view .LVU268
 818 0358 B431     		adds	r1, r1, #180
 819 035a FFF7FEFF 		bl	_lv_style_list_add_style
 820              	.LVL146:
ARM GAS  D:\Temp\cclc1fSW.s 			page 44


1166:lvgl/src/lv_themes/lv_theme_material.c **** #endif
 821              		.loc 1 1166 13 is_stmt 1 view .LVU269
 822 035e 86E6     		b	.L2
 823              	.LVL147:
 824              	.L6:
1171:lvgl/src/lv_themes/lv_theme_material.c ****             _lv_style_list_add_style(list, &styles->scr);
 825              		.loc 1 1171 13 view .LVU270
1171:lvgl/src/lv_themes/lv_theme_material.c ****             _lv_style_list_add_style(list, &styles->scr);
 826              		.loc 1 1171 20 is_stmt 0 view .LVU271
 827 0360 0021     		movs	r1, #0
 828              	.LVL148:
1171:lvgl/src/lv_themes/lv_theme_material.c ****             _lv_style_list_add_style(list, &styles->scr);
 829              		.loc 1 1171 20 view .LVU272
 830 0362 2046     		mov	r0, r4
 831              	.LVL149:
1171:lvgl/src/lv_themes/lv_theme_material.c ****             _lv_style_list_add_style(list, &styles->scr);
 832              		.loc 1 1171 20 view .LVU273
 833 0364 FFF7FEFF 		bl	lv_obj_get_style_list
 834              	.LVL150:
1172:lvgl/src/lv_themes/lv_theme_material.c **** 
 835              		.loc 1 1172 13 is_stmt 1 view .LVU274
1172:lvgl/src/lv_themes/lv_theme_material.c **** 
 836              		.loc 1 1172 51 is_stmt 0 view .LVU275
 837 0368 0A4D     		ldr	r5, .L42
1172:lvgl/src/lv_themes/lv_theme_material.c **** 
 838              		.loc 1 1172 13 view .LVU276
 839 036a 2968     		ldr	r1, [r5]
 840 036c FFF7FEFF 		bl	_lv_style_list_add_style
 841              	.LVL151:
1174:lvgl/src/lv_themes/lv_theme_material.c ****             _lv_style_list_add_style(list, &styles->sb);
 842              		.loc 1 1174 13 is_stmt 1 view .LVU277
1174:lvgl/src/lv_themes/lv_theme_material.c ****             _lv_style_list_add_style(list, &styles->sb);
 843              		.loc 1 1174 20 is_stmt 0 view .LVU278
 844 0370 0121     		movs	r1, #1
 845 0372 2046     		mov	r0, r4
 846 0374 FFF7FEFF 		bl	lv_obj_get_style_list
 847              	.LVL152:
1175:lvgl/src/lv_themes/lv_theme_material.c **** 
 848              		.loc 1 1175 13 is_stmt 1 view .LVU279
1175:lvgl/src/lv_themes/lv_theme_material.c **** 
 849              		.loc 1 1175 51 is_stmt 0 view .LVU280
 850 0378 2968     		ldr	r1, [r5]
1175:lvgl/src/lv_themes/lv_theme_material.c **** 
 851              		.loc 1 1175 13 view .LVU281
 852 037a 8431     		adds	r1, r1, #132
 853 037c FFF7FEFF 		bl	_lv_style_list_add_style
 854              	.LVL153:
1178:lvgl/src/lv_themes/lv_theme_material.c ****             _lv_style_list_add_style(list, &styles->edge_flash);
 855              		.loc 1 1178 13 is_stmt 1 view .LVU282
1178:lvgl/src/lv_themes/lv_theme_material.c ****             _lv_style_list_add_style(list, &styles->edge_flash);
 856              		.loc 1 1178 20 is_stmt 0 view .LVU283
 857 0380 0221     		movs	r1, #2
 858 0382 2046     		mov	r0, r4
 859 0384 FFF7FEFF 		bl	lv_obj_get_style_list
 860              	.LVL154:
1179:lvgl/src/lv_themes/lv_theme_material.c **** #endif
 861              		.loc 1 1179 13 is_stmt 1 view .LVU284
ARM GAS  D:\Temp\cclc1fSW.s 			page 45


1179:lvgl/src/lv_themes/lv_theme_material.c **** #endif
 862              		.loc 1 1179 51 is_stmt 0 view .LVU285
 863 0388 2968     		ldr	r1, [r5]
1179:lvgl/src/lv_themes/lv_theme_material.c **** #endif
 864              		.loc 1 1179 13 view .LVU286
 865 038a 8831     		adds	r1, r1, #136
 866 038c FFF7FEFF 		bl	_lv_style_list_add_style
 867              	.LVL155:
1181:lvgl/src/lv_themes/lv_theme_material.c **** #endif
 868              		.loc 1 1181 13 is_stmt 1 view .LVU287
 869 0390 6DE6     		b	.L2
 870              	.L43:
 871 0392 00BF     		.align	2
 872              	.L42:
 873 0394 00000000 		.word	.LANCHOR0
 874              	.LVL156:
 875              	.L16:
1186:lvgl/src/lv_themes/lv_theme_material.c ****             _lv_style_list_add_style(list, &styles->bg);
 876              		.loc 1 1186 13 view .LVU288
1186:lvgl/src/lv_themes/lv_theme_material.c ****             _lv_style_list_add_style(list, &styles->bg);
 877              		.loc 1 1186 20 is_stmt 0 view .LVU289
 878 0398 0021     		movs	r1, #0
 879              	.LVL157:
1186:lvgl/src/lv_themes/lv_theme_material.c ****             _lv_style_list_add_style(list, &styles->bg);
 880              		.loc 1 1186 20 view .LVU290
 881 039a 2046     		mov	r0, r4
 882              	.LVL158:
1186:lvgl/src/lv_themes/lv_theme_material.c ****             _lv_style_list_add_style(list, &styles->bg);
 883              		.loc 1 1186 20 view .LVU291
 884 039c FFF7FEFF 		bl	lv_obj_get_style_list
 885              	.LVL159:
 886 03a0 0646     		mov	r6, r0
 887              	.LVL160:
1187:lvgl/src/lv_themes/lv_theme_material.c ****             _lv_style_list_add_style(list, &styles->roller_bg);
 888              		.loc 1 1187 13 is_stmt 1 view .LVU292
1187:lvgl/src/lv_themes/lv_theme_material.c ****             _lv_style_list_add_style(list, &styles->roller_bg);
 889              		.loc 1 1187 51 is_stmt 0 view .LVU293
 890 03a2 CB4D     		ldr	r5, .L44
 891 03a4 2968     		ldr	r1, [r5]
1187:lvgl/src/lv_themes/lv_theme_material.c ****             _lv_style_list_add_style(list, &styles->roller_bg);
 892              		.loc 1 1187 13 view .LVU294
 893 03a6 0431     		adds	r1, r1, #4
 894 03a8 FFF7FEFF 		bl	_lv_style_list_add_style
 895              	.LVL161:
1188:lvgl/src/lv_themes/lv_theme_material.c **** 
 896              		.loc 1 1188 13 is_stmt 1 view .LVU295
1188:lvgl/src/lv_themes/lv_theme_material.c **** 
 897              		.loc 1 1188 51 is_stmt 0 view .LVU296
 898 03ac 2968     		ldr	r1, [r5]
1188:lvgl/src/lv_themes/lv_theme_material.c **** 
 899              		.loc 1 1188 13 view .LVU297
 900 03ae 8C31     		adds	r1, r1, #140
 901 03b0 3046     		mov	r0, r6
 902 03b2 FFF7FEFF 		bl	_lv_style_list_add_style
 903              	.LVL162:
1190:lvgl/src/lv_themes/lv_theme_material.c ****             _lv_style_list_add_style(list, &styles->roller_sel);
 904              		.loc 1 1190 13 is_stmt 1 view .LVU298
ARM GAS  D:\Temp\cclc1fSW.s 			page 46


1190:lvgl/src/lv_themes/lv_theme_material.c ****             _lv_style_list_add_style(list, &styles->roller_sel);
 905              		.loc 1 1190 20 is_stmt 0 view .LVU299
 906 03b6 0321     		movs	r1, #3
 907 03b8 2046     		mov	r0, r4
 908 03ba FFF7FEFF 		bl	lv_obj_get_style_list
 909              	.LVL163:
1191:lvgl/src/lv_themes/lv_theme_material.c ****             break;
 910              		.loc 1 1191 13 is_stmt 1 view .LVU300
1191:lvgl/src/lv_themes/lv_theme_material.c ****             break;
 911              		.loc 1 1191 51 is_stmt 0 view .LVU301
 912 03be 2968     		ldr	r1, [r5]
1191:lvgl/src/lv_themes/lv_theme_material.c ****             break;
 913              		.loc 1 1191 13 view .LVU302
 914 03c0 9031     		adds	r1, r1, #144
 915 03c2 FFF7FEFF 		bl	_lv_style_list_add_style
 916              	.LVL164:
1192:lvgl/src/lv_themes/lv_theme_material.c **** #endif
 917              		.loc 1 1192 13 is_stmt 1 view .LVU303
 918 03c6 52E6     		b	.L2
 919              	.LVL165:
 920              	.L18:
1197:lvgl/src/lv_themes/lv_theme_material.c ****             break;
 921              		.loc 1 1197 13 view .LVU304
1197:lvgl/src/lv_themes/lv_theme_material.c ****             break;
 922              		.loc 1 1197 20 is_stmt 0 view .LVU305
 923 03c8 0021     		movs	r1, #0
 924              	.LVL166:
1197:lvgl/src/lv_themes/lv_theme_material.c ****             break;
 925              		.loc 1 1197 20 view .LVU306
 926 03ca 2046     		mov	r0, r4
 927              	.LVL167:
1197:lvgl/src/lv_themes/lv_theme_material.c ****             break;
 928              		.loc 1 1197 20 view .LVU307
 929 03cc FFF7FEFF 		bl	lv_obj_get_style_list
 930              	.LVL168:
1198:lvgl/src/lv_themes/lv_theme_material.c **** #endif
 931              		.loc 1 1198 13 is_stmt 1 view .LVU308
 932 03d0 4DE6     		b	.L2
 933              	.LVL169:
 934              	.L23:
1203:lvgl/src/lv_themes/lv_theme_material.c ****             _lv_style_list_add_style(list, &styles->bg);
 935              		.loc 1 1203 13 view .LVU309
1203:lvgl/src/lv_themes/lv_theme_material.c ****             _lv_style_list_add_style(list, &styles->bg);
 936              		.loc 1 1203 20 is_stmt 0 view .LVU310
 937 03d2 0021     		movs	r1, #0
 938              	.LVL170:
1203:lvgl/src/lv_themes/lv_theme_material.c ****             _lv_style_list_add_style(list, &styles->bg);
 939              		.loc 1 1203 20 view .LVU311
 940 03d4 2046     		mov	r0, r4
 941              	.LVL171:
1203:lvgl/src/lv_themes/lv_theme_material.c ****             _lv_style_list_add_style(list, &styles->bg);
 942              		.loc 1 1203 20 view .LVU312
 943 03d6 FFF7FEFF 		bl	lv_obj_get_style_list
 944              	.LVL172:
 945 03da 0646     		mov	r6, r0
 946              	.LVL173:
1204:lvgl/src/lv_themes/lv_theme_material.c ****             _lv_style_list_add_style(list, &styles->list_bg);
ARM GAS  D:\Temp\cclc1fSW.s 			page 47


 947              		.loc 1 1204 13 is_stmt 1 view .LVU313
1204:lvgl/src/lv_themes/lv_theme_material.c ****             _lv_style_list_add_style(list, &styles->list_bg);
 948              		.loc 1 1204 51 is_stmt 0 view .LVU314
 949 03dc BC4D     		ldr	r5, .L44
 950 03de 2968     		ldr	r1, [r5]
1204:lvgl/src/lv_themes/lv_theme_material.c ****             _lv_style_list_add_style(list, &styles->list_bg);
 951              		.loc 1 1204 13 view .LVU315
 952 03e0 0431     		adds	r1, r1, #4
 953 03e2 FFF7FEFF 		bl	_lv_style_list_add_style
 954              	.LVL174:
1205:lvgl/src/lv_themes/lv_theme_material.c **** 
 955              		.loc 1 1205 13 is_stmt 1 view .LVU316
1205:lvgl/src/lv_themes/lv_theme_material.c **** 
 956              		.loc 1 1205 51 is_stmt 0 view .LVU317
 957 03e6 2968     		ldr	r1, [r5]
1205:lvgl/src/lv_themes/lv_theme_material.c **** 
 958              		.loc 1 1205 13 view .LVU318
 959 03e8 7831     		adds	r1, r1, #120
 960 03ea 3046     		mov	r0, r6
 961 03ec FFF7FEFF 		bl	_lv_style_list_add_style
 962              	.LVL175:
1207:lvgl/src/lv_themes/lv_theme_material.c ****             _lv_style_list_add_style(list, &styles->sb);
 963              		.loc 1 1207 13 is_stmt 1 view .LVU319
1207:lvgl/src/lv_themes/lv_theme_material.c ****             _lv_style_list_add_style(list, &styles->sb);
 964              		.loc 1 1207 20 is_stmt 0 view .LVU320
 965 03f0 0121     		movs	r1, #1
 966 03f2 2046     		mov	r0, r4
 967 03f4 FFF7FEFF 		bl	lv_obj_get_style_list
 968              	.LVL176:
1208:lvgl/src/lv_themes/lv_theme_material.c ****             break;
 969              		.loc 1 1208 13 is_stmt 1 view .LVU321
1208:lvgl/src/lv_themes/lv_theme_material.c ****             break;
 970              		.loc 1 1208 51 is_stmt 0 view .LVU322
 971 03f8 2968     		ldr	r1, [r5]
1208:lvgl/src/lv_themes/lv_theme_material.c ****             break;
 972              		.loc 1 1208 13 view .LVU323
 973 03fa 8431     		adds	r1, r1, #132
 974 03fc FFF7FEFF 		bl	_lv_style_list_add_style
 975              	.LVL177:
1209:lvgl/src/lv_themes/lv_theme_material.c **** 
 976              		.loc 1 1209 13 is_stmt 1 view .LVU324
 977 0400 35E6     		b	.L2
 978              	.LVL178:
 979              	.L22:
1212:lvgl/src/lv_themes/lv_theme_material.c ****             _lv_style_list_add_style(list, &styles->list_btn);
 980              		.loc 1 1212 13 view .LVU325
1212:lvgl/src/lv_themes/lv_theme_material.c ****             _lv_style_list_add_style(list, &styles->list_btn);
 981              		.loc 1 1212 20 is_stmt 0 view .LVU326
 982 0402 0021     		movs	r1, #0
 983              	.LVL179:
1212:lvgl/src/lv_themes/lv_theme_material.c ****             _lv_style_list_add_style(list, &styles->list_btn);
 984              		.loc 1 1212 20 view .LVU327
 985 0404 2046     		mov	r0, r4
 986              	.LVL180:
1212:lvgl/src/lv_themes/lv_theme_material.c ****             _lv_style_list_add_style(list, &styles->list_btn);
 987              		.loc 1 1212 20 view .LVU328
 988 0406 FFF7FEFF 		bl	lv_obj_get_style_list
ARM GAS  D:\Temp\cclc1fSW.s 			page 48


 989              	.LVL181:
1213:lvgl/src/lv_themes/lv_theme_material.c ****             break;
 990              		.loc 1 1213 13 is_stmt 1 view .LVU329
1213:lvgl/src/lv_themes/lv_theme_material.c ****             break;
 991              		.loc 1 1213 51 is_stmt 0 view .LVU330
 992 040a B14B     		ldr	r3, .L44
 993 040c 1968     		ldr	r1, [r3]
1213:lvgl/src/lv_themes/lv_theme_material.c ****             break;
 994              		.loc 1 1213 13 view .LVU331
 995 040e 7C31     		adds	r1, r1, #124
 996 0410 FFF7FEFF 		bl	_lv_style_list_add_style
 997              	.LVL182:
1214:lvgl/src/lv_themes/lv_theme_material.c **** #endif
 998              		.loc 1 1214 13 is_stmt 1 view .LVU332
 999 0414 2BE6     		b	.L2
 1000              	.LVL183:
 1001              	.L27:
1219:lvgl/src/lv_themes/lv_theme_material.c ****             _lv_style_list_add_style(list, &styles->bg);
 1002              		.loc 1 1219 13 view .LVU333
1219:lvgl/src/lv_themes/lv_theme_material.c ****             _lv_style_list_add_style(list, &styles->bg);
 1003              		.loc 1 1219 20 is_stmt 0 view .LVU334
 1004 0416 0021     		movs	r1, #0
 1005              	.LVL184:
1219:lvgl/src/lv_themes/lv_theme_material.c ****             _lv_style_list_add_style(list, &styles->bg);
 1006              		.loc 1 1219 20 view .LVU335
 1007 0418 2046     		mov	r0, r4
 1008              	.LVL185:
1219:lvgl/src/lv_themes/lv_theme_material.c ****             _lv_style_list_add_style(list, &styles->bg);
 1009              		.loc 1 1219 20 view .LVU336
 1010 041a FFF7FEFF 		bl	lv_obj_get_style_list
 1011              	.LVL186:
 1012 041e 0646     		mov	r6, r0
 1013              	.LVL187:
1220:lvgl/src/lv_themes/lv_theme_material.c ****             _lv_style_list_add_style(list, &styles->bg_click);
 1014              		.loc 1 1220 13 is_stmt 1 view .LVU337
1220:lvgl/src/lv_themes/lv_theme_material.c ****             _lv_style_list_add_style(list, &styles->bg_click);
 1015              		.loc 1 1220 51 is_stmt 0 view .LVU338
 1016 0420 AB4D     		ldr	r5, .L44
 1017 0422 2968     		ldr	r1, [r5]
1220:lvgl/src/lv_themes/lv_theme_material.c ****             _lv_style_list_add_style(list, &styles->bg_click);
 1018              		.loc 1 1220 13 view .LVU339
 1019 0424 0431     		adds	r1, r1, #4
 1020 0426 FFF7FEFF 		bl	_lv_style_list_add_style
 1021              	.LVL188:
1221:lvgl/src/lv_themes/lv_theme_material.c ****             _lv_style_list_add_style(list, &styles->pad_small);
 1022              		.loc 1 1221 13 is_stmt 1 view .LVU340
1221:lvgl/src/lv_themes/lv_theme_material.c ****             _lv_style_list_add_style(list, &styles->pad_small);
 1023              		.loc 1 1221 51 is_stmt 0 view .LVU341
 1024 042a 2968     		ldr	r1, [r5]
1221:lvgl/src/lv_themes/lv_theme_material.c ****             _lv_style_list_add_style(list, &styles->pad_small);
 1025              		.loc 1 1221 13 view .LVU342
 1026 042c 0831     		adds	r1, r1, #8
 1027 042e 3046     		mov	r0, r6
 1028 0430 FFF7FEFF 		bl	_lv_style_list_add_style
 1029              	.LVL189:
1222:lvgl/src/lv_themes/lv_theme_material.c **** 
 1030              		.loc 1 1222 13 is_stmt 1 view .LVU343
ARM GAS  D:\Temp\cclc1fSW.s 			page 49


1222:lvgl/src/lv_themes/lv_theme_material.c **** 
 1031              		.loc 1 1222 51 is_stmt 0 view .LVU344
 1032 0434 2968     		ldr	r1, [r5]
1222:lvgl/src/lv_themes/lv_theme_material.c **** 
 1033              		.loc 1 1222 13 view .LVU345
 1034 0436 1831     		adds	r1, r1, #24
 1035 0438 3046     		mov	r0, r6
 1036 043a FFF7FEFF 		bl	_lv_style_list_add_style
 1037              	.LVL190:
1224:lvgl/src/lv_themes/lv_theme_material.c ****             _lv_style_list_add_style(list, &styles->bg);
 1038              		.loc 1 1224 13 is_stmt 1 view .LVU346
1224:lvgl/src/lv_themes/lv_theme_material.c ****             _lv_style_list_add_style(list, &styles->bg);
 1039              		.loc 1 1224 20 is_stmt 0 view .LVU347
 1040 043e 4021     		movs	r1, #64
 1041 0440 2046     		mov	r0, r4
 1042 0442 FFF7FEFF 		bl	lv_obj_get_style_list
 1043              	.LVL191:
 1044 0446 0646     		mov	r6, r0
 1045              	.LVL192:
1225:lvgl/src/lv_themes/lv_theme_material.c ****             _lv_style_list_add_style(list, &styles->ddlist_page);
 1046              		.loc 1 1225 13 is_stmt 1 view .LVU348
1225:lvgl/src/lv_themes/lv_theme_material.c ****             _lv_style_list_add_style(list, &styles->ddlist_page);
 1047              		.loc 1 1225 51 is_stmt 0 view .LVU349
 1048 0448 2968     		ldr	r1, [r5]
1225:lvgl/src/lv_themes/lv_theme_material.c ****             _lv_style_list_add_style(list, &styles->ddlist_page);
 1049              		.loc 1 1225 13 view .LVU350
 1050 044a 0431     		adds	r1, r1, #4
 1051 044c FFF7FEFF 		bl	_lv_style_list_add_style
 1052              	.LVL193:
1226:lvgl/src/lv_themes/lv_theme_material.c **** 
 1053              		.loc 1 1226 13 is_stmt 1 view .LVU351
1226:lvgl/src/lv_themes/lv_theme_material.c **** 
 1054              		.loc 1 1226 51 is_stmt 0 view .LVU352
 1055 0450 2968     		ldr	r1, [r5]
1226:lvgl/src/lv_themes/lv_theme_material.c **** 
 1056              		.loc 1 1226 13 view .LVU353
 1057 0452 5831     		adds	r1, r1, #88
 1058 0454 3046     		mov	r0, r6
 1059 0456 FFF7FEFF 		bl	_lv_style_list_add_style
 1060              	.LVL194:
1228:lvgl/src/lv_themes/lv_theme_material.c ****             _lv_style_list_add_style(list, &styles->sb);
 1061              		.loc 1 1228 13 is_stmt 1 view .LVU354
1228:lvgl/src/lv_themes/lv_theme_material.c ****             _lv_style_list_add_style(list, &styles->sb);
 1062              		.loc 1 1228 20 is_stmt 0 view .LVU355
 1063 045a 4121     		movs	r1, #65
 1064 045c 2046     		mov	r0, r4
 1065 045e FFF7FEFF 		bl	lv_obj_get_style_list
 1066              	.LVL195:
1229:lvgl/src/lv_themes/lv_theme_material.c **** 
 1067              		.loc 1 1229 13 is_stmt 1 view .LVU356
1229:lvgl/src/lv_themes/lv_theme_material.c **** 
 1068              		.loc 1 1229 51 is_stmt 0 view .LVU357
 1069 0462 2968     		ldr	r1, [r5]
1229:lvgl/src/lv_themes/lv_theme_material.c **** 
 1070              		.loc 1 1229 13 view .LVU358
 1071 0464 8431     		adds	r1, r1, #132
 1072 0466 FFF7FEFF 		bl	_lv_style_list_add_style
ARM GAS  D:\Temp\cclc1fSW.s 			page 50


 1073              	.LVL196:
1231:lvgl/src/lv_themes/lv_theme_material.c ****             _lv_style_list_add_style(list, &styles->ddlist_sel);
 1074              		.loc 1 1231 13 is_stmt 1 view .LVU359
1231:lvgl/src/lv_themes/lv_theme_material.c ****             _lv_style_list_add_style(list, &styles->ddlist_sel);
 1075              		.loc 1 1231 20 is_stmt 0 view .LVU360
 1076 046a 4221     		movs	r1, #66
 1077 046c 2046     		mov	r0, r4
 1078 046e FFF7FEFF 		bl	lv_obj_get_style_list
 1079              	.LVL197:
1232:lvgl/src/lv_themes/lv_theme_material.c ****             break;
 1080              		.loc 1 1232 13 is_stmt 1 view .LVU361
1232:lvgl/src/lv_themes/lv_theme_material.c ****             break;
 1081              		.loc 1 1232 51 is_stmt 0 view .LVU362
 1082 0472 2968     		ldr	r1, [r5]
1232:lvgl/src/lv_themes/lv_theme_material.c ****             break;
 1083              		.loc 1 1232 13 view .LVU363
 1084 0474 5C31     		adds	r1, r1, #92
 1085 0476 FFF7FEFF 		bl	_lv_style_list_add_style
 1086              	.LVL198:
1233:lvgl/src/lv_themes/lv_theme_material.c **** #endif
 1087              		.loc 1 1233 13 is_stmt 1 view .LVU364
 1088 047a F8E5     		b	.L2
 1089              	.LVL199:
 1090              	.L30:
1238:lvgl/src/lv_themes/lv_theme_material.c ****             _lv_style_list_add_style(list, &styles->bg);
 1091              		.loc 1 1238 13 view .LVU365
1238:lvgl/src/lv_themes/lv_theme_material.c ****             _lv_style_list_add_style(list, &styles->bg);
 1092              		.loc 1 1238 20 is_stmt 0 view .LVU366
 1093 047c 0021     		movs	r1, #0
 1094              	.LVL200:
1238:lvgl/src/lv_themes/lv_theme_material.c ****             _lv_style_list_add_style(list, &styles->bg);
 1095              		.loc 1 1238 20 view .LVU367
 1096 047e 2046     		mov	r0, r4
 1097              	.LVL201:
1238:lvgl/src/lv_themes/lv_theme_material.c ****             _lv_style_list_add_style(list, &styles->bg);
 1098              		.loc 1 1238 20 view .LVU368
 1099 0480 FFF7FEFF 		bl	lv_obj_get_style_list
 1100              	.LVL202:
 1101 0484 0646     		mov	r6, r0
 1102              	.LVL203:
1239:lvgl/src/lv_themes/lv_theme_material.c ****             _lv_style_list_add_style(list, &styles->chart_bg);
 1103              		.loc 1 1239 13 is_stmt 1 view .LVU369
1239:lvgl/src/lv_themes/lv_theme_material.c ****             _lv_style_list_add_style(list, &styles->chart_bg);
 1104              		.loc 1 1239 51 is_stmt 0 view .LVU370
 1105 0486 924D     		ldr	r5, .L44
 1106 0488 2968     		ldr	r1, [r5]
1239:lvgl/src/lv_themes/lv_theme_material.c ****             _lv_style_list_add_style(list, &styles->chart_bg);
 1107              		.loc 1 1239 13 view .LVU371
 1108 048a 0431     		adds	r1, r1, #4
 1109 048c FFF7FEFF 		bl	_lv_style_list_add_style
 1110              	.LVL204:
1240:lvgl/src/lv_themes/lv_theme_material.c ****             _lv_style_list_add_style(list, &styles->pad_small);
 1111              		.loc 1 1240 13 is_stmt 1 view .LVU372
1240:lvgl/src/lv_themes/lv_theme_material.c ****             _lv_style_list_add_style(list, &styles->pad_small);
 1112              		.loc 1 1240 51 is_stmt 0 view .LVU373
 1113 0490 2968     		ldr	r1, [r5]
1240:lvgl/src/lv_themes/lv_theme_material.c ****             _lv_style_list_add_style(list, &styles->pad_small);
ARM GAS  D:\Temp\cclc1fSW.s 			page 51


 1114              		.loc 1 1240 13 view .LVU374
 1115 0492 4431     		adds	r1, r1, #68
 1116 0494 3046     		mov	r0, r6
 1117 0496 FFF7FEFF 		bl	_lv_style_list_add_style
 1118              	.LVL205:
1241:lvgl/src/lv_themes/lv_theme_material.c **** 
 1119              		.loc 1 1241 13 is_stmt 1 view .LVU375
1241:lvgl/src/lv_themes/lv_theme_material.c **** 
 1120              		.loc 1 1241 51 is_stmt 0 view .LVU376
 1121 049a 2968     		ldr	r1, [r5]
1241:lvgl/src/lv_themes/lv_theme_material.c **** 
 1122              		.loc 1 1241 13 view .LVU377
 1123 049c 1831     		adds	r1, r1, #24
 1124 049e 3046     		mov	r0, r6
 1125 04a0 FFF7FEFF 		bl	_lv_style_list_add_style
 1126              	.LVL206:
1243:lvgl/src/lv_themes/lv_theme_material.c ****             _lv_style_list_add_style(list, &styles->pad_small);
 1127              		.loc 1 1243 13 is_stmt 1 view .LVU378
1243:lvgl/src/lv_themes/lv_theme_material.c ****             _lv_style_list_add_style(list, &styles->pad_small);
 1128              		.loc 1 1243 20 is_stmt 0 view .LVU379
 1129 04a4 0121     		movs	r1, #1
 1130 04a6 2046     		mov	r0, r4
 1131 04a8 FFF7FEFF 		bl	lv_obj_get_style_list
 1132              	.LVL207:
 1133 04ac 0646     		mov	r6, r0
 1134              	.LVL208:
1244:lvgl/src/lv_themes/lv_theme_material.c ****             _lv_style_list_add_style(list, &styles->chart_series_bg);
 1135              		.loc 1 1244 13 is_stmt 1 view .LVU380
1244:lvgl/src/lv_themes/lv_theme_material.c ****             _lv_style_list_add_style(list, &styles->chart_series_bg);
 1136              		.loc 1 1244 51 is_stmt 0 view .LVU381
 1137 04ae 2968     		ldr	r1, [r5]
1244:lvgl/src/lv_themes/lv_theme_material.c ****             _lv_style_list_add_style(list, &styles->chart_series_bg);
 1138              		.loc 1 1244 13 view .LVU382
 1139 04b0 1831     		adds	r1, r1, #24
 1140 04b2 FFF7FEFF 		bl	_lv_style_list_add_style
 1141              	.LVL209:
1245:lvgl/src/lv_themes/lv_theme_material.c **** 
 1142              		.loc 1 1245 13 is_stmt 1 view .LVU383
1245:lvgl/src/lv_themes/lv_theme_material.c **** 
 1143              		.loc 1 1245 51 is_stmt 0 view .LVU384
 1144 04b6 2968     		ldr	r1, [r5]
1245:lvgl/src/lv_themes/lv_theme_material.c **** 
 1145              		.loc 1 1245 13 view .LVU385
 1146 04b8 4831     		adds	r1, r1, #72
 1147 04ba 3046     		mov	r0, r6
 1148 04bc FFF7FEFF 		bl	_lv_style_list_add_style
 1149              	.LVL210:
1247:lvgl/src/lv_themes/lv_theme_material.c ****             _lv_style_list_add_style(list, &styles->chart_series_bg);
 1150              		.loc 1 1247 13 is_stmt 1 view .LVU386
1247:lvgl/src/lv_themes/lv_theme_material.c ****             _lv_style_list_add_style(list, &styles->chart_series_bg);
 1151              		.loc 1 1247 20 is_stmt 0 view .LVU387
 1152 04c0 0321     		movs	r1, #3
 1153 04c2 2046     		mov	r0, r4
 1154 04c4 FFF7FEFF 		bl	lv_obj_get_style_list
 1155              	.LVL211:
1248:lvgl/src/lv_themes/lv_theme_material.c **** 
 1156              		.loc 1 1248 13 is_stmt 1 view .LVU388
ARM GAS  D:\Temp\cclc1fSW.s 			page 52


1248:lvgl/src/lv_themes/lv_theme_material.c **** 
 1157              		.loc 1 1248 51 is_stmt 0 view .LVU389
 1158 04c8 2968     		ldr	r1, [r5]
1248:lvgl/src/lv_themes/lv_theme_material.c **** 
 1159              		.loc 1 1248 13 view .LVU390
 1160 04ca 4831     		adds	r1, r1, #72
 1161 04cc FFF7FEFF 		bl	_lv_style_list_add_style
 1162              	.LVL212:
1250:lvgl/src/lv_themes/lv_theme_material.c ****             _lv_style_list_add_style(list, &styles->chart_series);
 1163              		.loc 1 1250 13 is_stmt 1 view .LVU391
1250:lvgl/src/lv_themes/lv_theme_material.c ****             _lv_style_list_add_style(list, &styles->chart_series);
 1164              		.loc 1 1250 20 is_stmt 0 view .LVU392
 1165 04d0 0221     		movs	r1, #2
 1166 04d2 2046     		mov	r0, r4
 1167 04d4 FFF7FEFF 		bl	lv_obj_get_style_list
 1168              	.LVL213:
1251:lvgl/src/lv_themes/lv_theme_material.c ****             break;
 1169              		.loc 1 1251 13 is_stmt 1 view .LVU393
1251:lvgl/src/lv_themes/lv_theme_material.c ****             break;
 1170              		.loc 1 1251 51 is_stmt 0 view .LVU394
 1171 04d8 2968     		ldr	r1, [r5]
1251:lvgl/src/lv_themes/lv_theme_material.c ****             break;
 1172              		.loc 1 1251 13 view .LVU395
 1173 04da 4C31     		adds	r1, r1, #76
 1174 04dc FFF7FEFF 		bl	_lv_style_list_add_style
 1175              	.LVL214:
1252:lvgl/src/lv_themes/lv_theme_material.c **** #endif
 1176              		.loc 1 1252 13 is_stmt 1 view .LVU396
 1177 04e0 C5E5     		b	.L2
 1178              	.LVL215:
 1179              	.L10:
 1180              	.LBB1442:
1256:lvgl/src/lv_themes/lv_theme_material.c ****                 _lv_style_list_add_style(list, &styles->bg);
 1181              		.loc 1 1256 17 view .LVU397
1256:lvgl/src/lv_themes/lv_theme_material.c ****                 _lv_style_list_add_style(list, &styles->bg);
 1182              		.loc 1 1256 24 is_stmt 0 view .LVU398
 1183 04e2 0021     		movs	r1, #0
 1184              	.LVL216:
1256:lvgl/src/lv_themes/lv_theme_material.c ****                 _lv_style_list_add_style(list, &styles->bg);
 1185              		.loc 1 1256 24 view .LVU399
 1186 04e4 2046     		mov	r0, r4
 1187              	.LVL217:
1256:lvgl/src/lv_themes/lv_theme_material.c ****                 _lv_style_list_add_style(list, &styles->bg);
 1188              		.loc 1 1256 24 view .LVU400
 1189 04e6 FFF7FEFF 		bl	lv_obj_get_style_list
 1190              	.LVL218:
1257:lvgl/src/lv_themes/lv_theme_material.c **** 
 1191              		.loc 1 1257 17 is_stmt 1 view .LVU401
1257:lvgl/src/lv_themes/lv_theme_material.c **** 
 1192              		.loc 1 1257 55 is_stmt 0 view .LVU402
 1193 04ea 794B     		ldr	r3, .L44
 1194 04ec 1968     		ldr	r1, [r3]
1257:lvgl/src/lv_themes/lv_theme_material.c **** 
 1195              		.loc 1 1257 17 view .LVU403
 1196 04ee 0431     		adds	r1, r1, #4
 1197 04f0 FFF7FEFF 		bl	_lv_style_list_add_style
 1198              	.LVL219:
ARM GAS  D:\Temp\cclc1fSW.s 			page 53


1259:lvgl/src/lv_themes/lv_theme_material.c ****                             start at 1 due to presence of LV_TABLE_PART_BG=0
 1199              		.loc 1 1259 17 is_stmt 1 view .LVU404
1263:lvgl/src/lv_themes/lv_theme_material.c ****                     list = lv_obj_get_style_list(obj, idx);
 1200              		.loc 1 1263 17 view .LVU405
1259:lvgl/src/lv_themes/lv_theme_material.c ****                             start at 1 due to presence of LV_TABLE_PART_BG=0
 1201              		.loc 1 1259 21 is_stmt 0 view .LVU406
 1202 04f4 0125     		movs	r5, #1
1263:lvgl/src/lv_themes/lv_theme_material.c ****                     list = lv_obj_get_style_list(obj, idx);
 1203              		.loc 1 1263 17 view .LVU407
 1204 04f6 09E0     		b	.L39
 1205              	.LVL220:
 1206              	.L40:
1264:lvgl/src/lv_themes/lv_theme_material.c ****                     _lv_style_list_add_style(list, &styles->table_cell);
 1207              		.loc 1 1264 21 is_stmt 1 discriminator 2 view .LVU408
1264:lvgl/src/lv_themes/lv_theme_material.c ****                     _lv_style_list_add_style(list, &styles->table_cell);
 1208              		.loc 1 1264 28 is_stmt 0 discriminator 2 view .LVU409
 1209 04f8 E9B2     		uxtb	r1, r5
 1210 04fa 2046     		mov	r0, r4
 1211 04fc FFF7FEFF 		bl	lv_obj_get_style_list
 1212              	.LVL221:
1265:lvgl/src/lv_themes/lv_theme_material.c ****                 }
 1213              		.loc 1 1265 21 is_stmt 1 discriminator 2 view .LVU410
1265:lvgl/src/lv_themes/lv_theme_material.c ****                 }
 1214              		.loc 1 1265 59 is_stmt 0 discriminator 2 view .LVU411
 1215 0500 734B     		ldr	r3, .L44
 1216 0502 1968     		ldr	r1, [r3]
1265:lvgl/src/lv_themes/lv_theme_material.c ****                 }
 1217              		.loc 1 1265 21 discriminator 2 view .LVU412
 1218 0504 A431     		adds	r1, r1, #164
 1219 0506 FFF7FEFF 		bl	_lv_style_list_add_style
 1220              	.LVL222:
1263:lvgl/src/lv_themes/lv_theme_material.c ****                     list = lv_obj_get_style_list(obj, idx);
 1221              		.loc 1 1263 59 discriminator 2 view .LVU413
 1222 050a 0135     		adds	r5, r5, #1
 1223              	.LVL223:
 1224              	.L39:
1263:lvgl/src/lv_themes/lv_theme_material.c ****                     list = lv_obj_get_style_list(obj, idx);
 1225              		.loc 1 1263 17 discriminator 1 view .LVU414
 1226 050c 042D     		cmp	r5, #4
 1227 050e F3DD     		ble	.L40
 1228 0510 ADE5     		b	.L2
 1229              	.LVL224:
 1230              	.L5:
1263:lvgl/src/lv_themes/lv_theme_material.c ****                     list = lv_obj_get_style_list(obj, idx);
 1231              		.loc 1 1263 17 discriminator 1 view .LVU415
 1232              	.LBE1442:
1273:lvgl/src/lv_themes/lv_theme_material.c ****             _lv_style_list_add_style(list, &styles->scr);
 1233              		.loc 1 1273 13 is_stmt 1 view .LVU416
1273:lvgl/src/lv_themes/lv_theme_material.c ****             _lv_style_list_add_style(list, &styles->scr);
 1234              		.loc 1 1273 20 is_stmt 0 view .LVU417
 1235 0512 0021     		movs	r1, #0
 1236              	.LVL225:
1273:lvgl/src/lv_themes/lv_theme_material.c ****             _lv_style_list_add_style(list, &styles->scr);
 1237              		.loc 1 1273 20 view .LVU418
 1238 0514 2046     		mov	r0, r4
 1239              	.LVL226:
1273:lvgl/src/lv_themes/lv_theme_material.c ****             _lv_style_list_add_style(list, &styles->scr);
ARM GAS  D:\Temp\cclc1fSW.s 			page 54


 1240              		.loc 1 1273 20 view .LVU419
 1241 0516 FFF7FEFF 		bl	lv_obj_get_style_list
 1242              	.LVL227:
1274:lvgl/src/lv_themes/lv_theme_material.c **** 
 1243              		.loc 1 1274 13 is_stmt 1 view .LVU420
1274:lvgl/src/lv_themes/lv_theme_material.c **** 
 1244              		.loc 1 1274 51 is_stmt 0 view .LVU421
 1245 051a 6D4D     		ldr	r5, .L44
1274:lvgl/src/lv_themes/lv_theme_material.c **** 
 1246              		.loc 1 1274 13 view .LVU422
 1247 051c 2968     		ldr	r1, [r5]
 1248 051e FFF7FEFF 		bl	_lv_style_list_add_style
 1249              	.LVL228:
1276:lvgl/src/lv_themes/lv_theme_material.c ****             _lv_style_list_add_style(list, &styles->sb);
 1250              		.loc 1 1276 13 is_stmt 1 view .LVU423
1276:lvgl/src/lv_themes/lv_theme_material.c ****             _lv_style_list_add_style(list, &styles->sb);
 1251              		.loc 1 1276 20 is_stmt 0 view .LVU424
 1252 0522 4221     		movs	r1, #66
 1253 0524 2046     		mov	r0, r4
 1254 0526 FFF7FEFF 		bl	lv_obj_get_style_list
 1255              	.LVL229:
1277:lvgl/src/lv_themes/lv_theme_material.c **** 
 1256              		.loc 1 1277 13 is_stmt 1 view .LVU425
1277:lvgl/src/lv_themes/lv_theme_material.c **** 
 1257              		.loc 1 1277 51 is_stmt 0 view .LVU426
 1258 052a 2968     		ldr	r1, [r5]
1277:lvgl/src/lv_themes/lv_theme_material.c **** 
 1259              		.loc 1 1277 13 view .LVU427
 1260 052c 8431     		adds	r1, r1, #132
 1261 052e FFF7FEFF 		bl	_lv_style_list_add_style
 1262              	.LVL230:
1279:lvgl/src/lv_themes/lv_theme_material.c ****             _lv_style_list_add_style(list, &styles->tabview_page_scrl);
 1263              		.loc 1 1279 13 is_stmt 1 view .LVU428
1279:lvgl/src/lv_themes/lv_theme_material.c ****             _lv_style_list_add_style(list, &styles->tabview_page_scrl);
 1264              		.loc 1 1279 20 is_stmt 0 view .LVU429
 1265 0532 4121     		movs	r1, #65
 1266 0534 2046     		mov	r0, r4
 1267 0536 FFF7FEFF 		bl	lv_obj_get_style_list
 1268              	.LVL231:
1280:lvgl/src/lv_themes/lv_theme_material.c **** 
 1269              		.loc 1 1280 13 is_stmt 1 view .LVU430
1280:lvgl/src/lv_themes/lv_theme_material.c **** 
 1270              		.loc 1 1280 51 is_stmt 0 view .LVU431
 1271 053a 2968     		ldr	r1, [r5]
1280:lvgl/src/lv_themes/lv_theme_material.c **** 
 1272              		.loc 1 1280 13 view .LVU432
 1273 053c B431     		adds	r1, r1, #180
 1274 053e FFF7FEFF 		bl	_lv_style_list_add_style
 1275              	.LVL232:
1282:lvgl/src/lv_themes/lv_theme_material.c ****             _lv_style_list_add_style(list, &styles->tabview_btns_bg);
 1276              		.loc 1 1282 13 is_stmt 1 view .LVU433
1282:lvgl/src/lv_themes/lv_theme_material.c ****             _lv_style_list_add_style(list, &styles->tabview_btns_bg);
 1277              		.loc 1 1282 20 is_stmt 0 view .LVU434
 1278 0542 4021     		movs	r1, #64
 1279 0544 2046     		mov	r0, r4
 1280 0546 FFF7FEFF 		bl	lv_obj_get_style_list
 1281              	.LVL233:
ARM GAS  D:\Temp\cclc1fSW.s 			page 55


1283:lvgl/src/lv_themes/lv_theme_material.c ****             break;
 1282              		.loc 1 1283 13 is_stmt 1 view .LVU435
1283:lvgl/src/lv_themes/lv_theme_material.c ****             break;
 1283              		.loc 1 1283 51 is_stmt 0 view .LVU436
 1284 054a 2968     		ldr	r1, [r5]
1283:lvgl/src/lv_themes/lv_theme_material.c ****             break;
 1285              		.loc 1 1283 13 view .LVU437
 1286 054c AC31     		adds	r1, r1, #172
 1287 054e FFF7FEFF 		bl	_lv_style_list_add_style
 1288              	.LVL234:
1284:lvgl/src/lv_themes/lv_theme_material.c **** 
 1289              		.loc 1 1284 13 is_stmt 1 view .LVU438
 1290 0552 8CE5     		b	.L2
 1291              	.LVL235:
 1292              	.L3:
1287:lvgl/src/lv_themes/lv_theme_material.c ****             _lv_style_list_add_style(list, &styles->tabview_btns);
 1293              		.loc 1 1287 13 view .LVU439
1287:lvgl/src/lv_themes/lv_theme_material.c ****             _lv_style_list_add_style(list, &styles->tabview_btns);
 1294              		.loc 1 1287 20 is_stmt 0 view .LVU440
 1295 0554 0021     		movs	r1, #0
 1296              	.LVL236:
1287:lvgl/src/lv_themes/lv_theme_material.c ****             _lv_style_list_add_style(list, &styles->tabview_btns);
 1297              		.loc 1 1287 20 view .LVU441
 1298 0556 2046     		mov	r0, r4
 1299              	.LVL237:
1287:lvgl/src/lv_themes/lv_theme_material.c ****             _lv_style_list_add_style(list, &styles->tabview_btns);
 1300              		.loc 1 1287 20 view .LVU442
 1301 0558 FFF7FEFF 		bl	lv_obj_get_style_list
 1302              	.LVL238:
1288:lvgl/src/lv_themes/lv_theme_material.c ****             break;
 1303              		.loc 1 1288 13 is_stmt 1 view .LVU443
1288:lvgl/src/lv_themes/lv_theme_material.c ****             break;
 1304              		.loc 1 1288 51 is_stmt 0 view .LVU444
 1305 055c 5C4B     		ldr	r3, .L44
 1306 055e 1968     		ldr	r1, [r3]
1288:lvgl/src/lv_themes/lv_theme_material.c ****             break;
 1307              		.loc 1 1288 13 view .LVU445
 1308 0560 A831     		adds	r1, r1, #168
 1309 0562 FFF7FEFF 		bl	_lv_style_list_add_style
 1310              	.LVL239:
1289:lvgl/src/lv_themes/lv_theme_material.c **** #endif
 1311              		.loc 1 1289 13 is_stmt 1 view .LVU446
 1312 0566 82E5     		b	.L2
 1313              	.LVL240:
 1314              	.L7:
1294:lvgl/src/lv_themes/lv_theme_material.c ****             _lv_style_list_add_style(list, &styles->bg);
 1315              		.loc 1 1294 13 view .LVU447
1294:lvgl/src/lv_themes/lv_theme_material.c ****             _lv_style_list_add_style(list, &styles->bg);
 1316              		.loc 1 1294 20 is_stmt 0 view .LVU448
 1317 0568 0021     		movs	r1, #0
 1318              	.LVL241:
1294:lvgl/src/lv_themes/lv_theme_material.c ****             _lv_style_list_add_style(list, &styles->bg);
 1319              		.loc 1 1294 20 view .LVU449
 1320 056a 2046     		mov	r0, r4
 1321              	.LVL242:
1294:lvgl/src/lv_themes/lv_theme_material.c ****             _lv_style_list_add_style(list, &styles->bg);
 1322              		.loc 1 1294 20 view .LVU450
ARM GAS  D:\Temp\cclc1fSW.s 			page 56


 1323 056c FFF7FEFF 		bl	lv_obj_get_style_list
 1324              	.LVL243:
 1325 0570 0646     		mov	r6, r0
 1326              	.LVL244:
1295:lvgl/src/lv_themes/lv_theme_material.c ****             _lv_style_list_add_style(list, &styles->pad_small);
 1327              		.loc 1 1295 13 is_stmt 1 view .LVU451
1295:lvgl/src/lv_themes/lv_theme_material.c ****             _lv_style_list_add_style(list, &styles->pad_small);
 1328              		.loc 1 1295 51 is_stmt 0 view .LVU452
 1329 0572 574D     		ldr	r5, .L44
 1330 0574 2968     		ldr	r1, [r5]
1295:lvgl/src/lv_themes/lv_theme_material.c ****             _lv_style_list_add_style(list, &styles->pad_small);
 1331              		.loc 1 1295 13 view .LVU453
 1332 0576 0431     		adds	r1, r1, #4
 1333 0578 FFF7FEFF 		bl	_lv_style_list_add_style
 1334              	.LVL245:
1296:lvgl/src/lv_themes/lv_theme_material.c **** 
 1335              		.loc 1 1296 13 is_stmt 1 view .LVU454
1296:lvgl/src/lv_themes/lv_theme_material.c **** 
 1336              		.loc 1 1296 51 is_stmt 0 view .LVU455
 1337 057c 2968     		ldr	r1, [r5]
1296:lvgl/src/lv_themes/lv_theme_material.c **** 
 1338              		.loc 1 1296 13 view .LVU456
 1339 057e 1831     		adds	r1, r1, #24
 1340 0580 3046     		mov	r0, r6
 1341 0582 FFF7FEFF 		bl	_lv_style_list_add_style
 1342              	.LVL246:
1298:lvgl/src/lv_themes/lv_theme_material.c ****             _lv_style_list_add_style(list, &styles->ta_placeholder);
 1343              		.loc 1 1298 13 is_stmt 1 view .LVU457
1298:lvgl/src/lv_themes/lv_theme_material.c ****             _lv_style_list_add_style(list, &styles->ta_placeholder);
 1344              		.loc 1 1298 20 is_stmt 0 view .LVU458
 1345 0586 0421     		movs	r1, #4
 1346 0588 2046     		mov	r0, r4
 1347 058a FFF7FEFF 		bl	lv_obj_get_style_list
 1348              	.LVL247:
1299:lvgl/src/lv_themes/lv_theme_material.c **** 
 1349              		.loc 1 1299 13 is_stmt 1 view .LVU459
1299:lvgl/src/lv_themes/lv_theme_material.c **** 
 1350              		.loc 1 1299 51 is_stmt 0 view .LVU460
 1351 058e 2968     		ldr	r1, [r5]
1299:lvgl/src/lv_themes/lv_theme_material.c **** 
 1352              		.loc 1 1299 13 view .LVU461
 1353 0590 BC31     		adds	r1, r1, #188
 1354 0592 FFF7FEFF 		bl	_lv_style_list_add_style
 1355              	.LVL248:
1301:lvgl/src/lv_themes/lv_theme_material.c ****             _lv_style_list_add_style(list, &styles->ta_cursor);
 1356              		.loc 1 1301 13 is_stmt 1 view .LVU462
1301:lvgl/src/lv_themes/lv_theme_material.c ****             _lv_style_list_add_style(list, &styles->ta_cursor);
 1357              		.loc 1 1301 20 is_stmt 0 view .LVU463
 1358 0596 0321     		movs	r1, #3
 1359 0598 2046     		mov	r0, r4
 1360 059a FFF7FEFF 		bl	lv_obj_get_style_list
 1361              	.LVL249:
1302:lvgl/src/lv_themes/lv_theme_material.c **** 
 1362              		.loc 1 1302 13 is_stmt 1 view .LVU464
1302:lvgl/src/lv_themes/lv_theme_material.c **** 
 1363              		.loc 1 1302 51 is_stmt 0 view .LVU465
 1364 059e 2968     		ldr	r1, [r5]
ARM GAS  D:\Temp\cclc1fSW.s 			page 57


1302:lvgl/src/lv_themes/lv_theme_material.c **** 
 1365              		.loc 1 1302 13 view .LVU466
 1366 05a0 B831     		adds	r1, r1, #184
 1367 05a2 FFF7FEFF 		bl	_lv_style_list_add_style
 1368              	.LVL250:
1304:lvgl/src/lv_themes/lv_theme_material.c ****             _lv_style_list_add_style(list, &styles->sb);
 1369              		.loc 1 1304 13 is_stmt 1 view .LVU467
1304:lvgl/src/lv_themes/lv_theme_material.c ****             _lv_style_list_add_style(list, &styles->sb);
 1370              		.loc 1 1304 20 is_stmt 0 view .LVU468
 1371 05a6 0121     		movs	r1, #1
 1372 05a8 2046     		mov	r0, r4
 1373 05aa FFF7FEFF 		bl	lv_obj_get_style_list
 1374              	.LVL251:
1305:lvgl/src/lv_themes/lv_theme_material.c ****             break;
 1375              		.loc 1 1305 13 is_stmt 1 view .LVU469
1305:lvgl/src/lv_themes/lv_theme_material.c ****             break;
 1376              		.loc 1 1305 51 is_stmt 0 view .LVU470
 1377 05ae 2968     		ldr	r1, [r5]
1305:lvgl/src/lv_themes/lv_theme_material.c ****             break;
 1378              		.loc 1 1305 13 view .LVU471
 1379 05b0 8431     		adds	r1, r1, #132
 1380 05b2 FFF7FEFF 		bl	_lv_style_list_add_style
 1381              	.LVL252:
1306:lvgl/src/lv_themes/lv_theme_material.c **** 
 1382              		.loc 1 1306 13 is_stmt 1 view .LVU472
 1383 05b6 5AE5     		b	.L2
 1384              	.LVL253:
 1385              	.L14:
1312:lvgl/src/lv_themes/lv_theme_material.c ****             _lv_style_list_add_style(list, &styles->bg);
 1386              		.loc 1 1312 13 view .LVU473
1312:lvgl/src/lv_themes/lv_theme_material.c ****             _lv_style_list_add_style(list, &styles->bg);
 1387              		.loc 1 1312 20 is_stmt 0 view .LVU474
 1388 05b8 0021     		movs	r1, #0
 1389              	.LVL254:
1312:lvgl/src/lv_themes/lv_theme_material.c ****             _lv_style_list_add_style(list, &styles->bg);
 1390              		.loc 1 1312 20 view .LVU475
 1391 05ba 2046     		mov	r0, r4
 1392              	.LVL255:
1312:lvgl/src/lv_themes/lv_theme_material.c ****             _lv_style_list_add_style(list, &styles->bg);
 1393              		.loc 1 1312 20 view .LVU476
 1394 05bc FFF7FEFF 		bl	lv_obj_get_style_list
 1395              	.LVL256:
 1396 05c0 0646     		mov	r6, r0
 1397              	.LVL257:
1313:lvgl/src/lv_themes/lv_theme_material.c ****             _lv_style_list_add_style(list, &styles->pad_small);
 1398              		.loc 1 1313 13 is_stmt 1 view .LVU477
1313:lvgl/src/lv_themes/lv_theme_material.c ****             _lv_style_list_add_style(list, &styles->pad_small);
 1399              		.loc 1 1313 51 is_stmt 0 view .LVU478
 1400 05c2 434D     		ldr	r5, .L44
 1401 05c4 2968     		ldr	r1, [r5]
1313:lvgl/src/lv_themes/lv_theme_material.c ****             _lv_style_list_add_style(list, &styles->pad_small);
 1402              		.loc 1 1313 13 view .LVU479
 1403 05c6 0431     		adds	r1, r1, #4
 1404 05c8 FFF7FEFF 		bl	_lv_style_list_add_style
 1405              	.LVL258:
1314:lvgl/src/lv_themes/lv_theme_material.c **** 
 1406              		.loc 1 1314 13 is_stmt 1 view .LVU480
ARM GAS  D:\Temp\cclc1fSW.s 			page 58


1314:lvgl/src/lv_themes/lv_theme_material.c **** 
 1407              		.loc 1 1314 51 is_stmt 0 view .LVU481
 1408 05cc 2968     		ldr	r1, [r5]
1314:lvgl/src/lv_themes/lv_theme_material.c **** 
 1409              		.loc 1 1314 13 view .LVU482
 1410 05ce 1831     		adds	r1, r1, #24
 1411 05d0 3046     		mov	r0, r6
 1412 05d2 FFF7FEFF 		bl	_lv_style_list_add_style
 1413              	.LVL259:
1316:lvgl/src/lv_themes/lv_theme_material.c ****             _lv_style_list_add_style(list, &styles->spinbox_cursor);
 1414              		.loc 1 1316 13 is_stmt 1 view .LVU483
1316:lvgl/src/lv_themes/lv_theme_material.c ****             _lv_style_list_add_style(list, &styles->spinbox_cursor);
 1415              		.loc 1 1316 20 is_stmt 0 view .LVU484
 1416 05d6 0321     		movs	r1, #3
 1417 05d8 2046     		mov	r0, r4
 1418 05da FFF7FEFF 		bl	lv_obj_get_style_list
 1419              	.LVL260:
1317:lvgl/src/lv_themes/lv_theme_material.c ****             break;
 1420              		.loc 1 1317 13 is_stmt 1 view .LVU485
1317:lvgl/src/lv_themes/lv_theme_material.c ****             break;
 1421              		.loc 1 1317 51 is_stmt 0 view .LVU486
 1422 05de 2968     		ldr	r1, [r5]
1317:lvgl/src/lv_themes/lv_theme_material.c ****             break;
 1423              		.loc 1 1317 13 view .LVU487
 1424 05e0 9C31     		adds	r1, r1, #156
 1425 05e2 FFF7FEFF 		bl	_lv_style_list_add_style
 1426              	.LVL261:
1318:lvgl/src/lv_themes/lv_theme_material.c **** 
 1427              		.loc 1 1318 13 is_stmt 1 view .LVU488
 1428 05e6 42E5     		b	.L2
 1429              	.LVL262:
 1430              	.L13:
1321:lvgl/src/lv_themes/lv_theme_material.c ****             _lv_style_list_add_style(list, &styles->bg);
 1431              		.loc 1 1321 13 view .LVU489
1321:lvgl/src/lv_themes/lv_theme_material.c ****             _lv_style_list_add_style(list, &styles->bg);
 1432              		.loc 1 1321 20 is_stmt 0 view .LVU490
 1433 05e8 0021     		movs	r1, #0
 1434              	.LVL263:
1321:lvgl/src/lv_themes/lv_theme_material.c ****             _lv_style_list_add_style(list, &styles->bg);
 1435              		.loc 1 1321 20 view .LVU491
 1436 05ea 2046     		mov	r0, r4
 1437              	.LVL264:
1321:lvgl/src/lv_themes/lv_theme_material.c ****             _lv_style_list_add_style(list, &styles->bg);
 1438              		.loc 1 1321 20 view .LVU492
 1439 05ec FFF7FEFF 		bl	lv_obj_get_style_list
 1440              	.LVL265:
 1441 05f0 0646     		mov	r6, r0
 1442              	.LVL266:
1322:lvgl/src/lv_themes/lv_theme_material.c ****             _lv_style_list_add_style(list, &styles->bg_click);
 1443              		.loc 1 1322 13 is_stmt 1 view .LVU493
1322:lvgl/src/lv_themes/lv_theme_material.c ****             _lv_style_list_add_style(list, &styles->bg_click);
 1444              		.loc 1 1322 51 is_stmt 0 view .LVU494
 1445 05f2 374D     		ldr	r5, .L44
 1446 05f4 2968     		ldr	r1, [r5]
1322:lvgl/src/lv_themes/lv_theme_material.c ****             _lv_style_list_add_style(list, &styles->bg_click);
 1447              		.loc 1 1322 13 view .LVU495
 1448 05f6 0431     		adds	r1, r1, #4
ARM GAS  D:\Temp\cclc1fSW.s 			page 59


 1449 05f8 FFF7FEFF 		bl	_lv_style_list_add_style
 1450              	.LVL267:
1323:lvgl/src/lv_themes/lv_theme_material.c ****             break;
 1451              		.loc 1 1323 13 is_stmt 1 view .LVU496
1323:lvgl/src/lv_themes/lv_theme_material.c ****             break;
 1452              		.loc 1 1323 51 is_stmt 0 view .LVU497
 1453 05fc 2968     		ldr	r1, [r5]
1323:lvgl/src/lv_themes/lv_theme_material.c ****             break;
 1454              		.loc 1 1323 13 view .LVU498
 1455 05fe 0831     		adds	r1, r1, #8
 1456 0600 3046     		mov	r0, r6
 1457 0602 FFF7FEFF 		bl	_lv_style_list_add_style
 1458              	.LVL268:
1324:lvgl/src/lv_themes/lv_theme_material.c **** #endif
 1459              		.loc 1 1324 13 is_stmt 1 view .LVU499
 1460 0606 32E5     		b	.L2
 1461              	.LVL269:
 1462              	.L32:
1329:lvgl/src/lv_themes/lv_theme_material.c ****             _lv_style_list_add_style(list, &styles->bg);
 1463              		.loc 1 1329 13 view .LVU500
1329:lvgl/src/lv_themes/lv_theme_material.c ****             _lv_style_list_add_style(list, &styles->bg);
 1464              		.loc 1 1329 20 is_stmt 0 view .LVU501
 1465 0608 0021     		movs	r1, #0
 1466              	.LVL270:
1329:lvgl/src/lv_themes/lv_theme_material.c ****             _lv_style_list_add_style(list, &styles->bg);
 1467              		.loc 1 1329 20 view .LVU502
 1468 060a 2046     		mov	r0, r4
 1469              	.LVL271:
1329:lvgl/src/lv_themes/lv_theme_material.c ****             _lv_style_list_add_style(list, &styles->bg);
 1470              		.loc 1 1329 20 view .LVU503
 1471 060c FFF7FEFF 		bl	lv_obj_get_style_list
 1472              	.LVL272:
1330:lvgl/src/lv_themes/lv_theme_material.c **** 
 1473              		.loc 1 1330 13 is_stmt 1 view .LVU504
1330:lvgl/src/lv_themes/lv_theme_material.c **** 
 1474              		.loc 1 1330 51 is_stmt 0 view .LVU505
 1475 0610 2F4D     		ldr	r5, .L44
 1476 0612 2968     		ldr	r1, [r5]
1330:lvgl/src/lv_themes/lv_theme_material.c **** 
 1477              		.loc 1 1330 13 view .LVU506
 1478 0614 0431     		adds	r1, r1, #4
 1479 0616 FFF7FEFF 		bl	_lv_style_list_add_style
 1480              	.LVL273:
1332:lvgl/src/lv_themes/lv_theme_material.c ****             _lv_style_list_add_style(list, &styles->calendar_date_nums);
 1481              		.loc 1 1332 13 is_stmt 1 view .LVU507
1332:lvgl/src/lv_themes/lv_theme_material.c ****             _lv_style_list_add_style(list, &styles->calendar_date_nums);
 1482              		.loc 1 1332 20 is_stmt 0 view .LVU508
 1483 061a 0321     		movs	r1, #3
 1484 061c 2046     		mov	r0, r4
 1485 061e FFF7FEFF 		bl	lv_obj_get_style_list
 1486              	.LVL274:
1333:lvgl/src/lv_themes/lv_theme_material.c **** 
 1487              		.loc 1 1333 13 is_stmt 1 view .LVU509
1333:lvgl/src/lv_themes/lv_theme_material.c **** 
 1488              		.loc 1 1333 51 is_stmt 0 view .LVU510
 1489 0622 2968     		ldr	r1, [r5]
1333:lvgl/src/lv_themes/lv_theme_material.c **** 
ARM GAS  D:\Temp\cclc1fSW.s 			page 60


 1490              		.loc 1 1333 13 view .LVU511
 1491 0624 3031     		adds	r1, r1, #48
 1492 0626 FFF7FEFF 		bl	_lv_style_list_add_style
 1493              	.LVL275:
1335:lvgl/src/lv_themes/lv_theme_material.c ****             _lv_style_list_add_style(list, &styles->calendar_header);
 1494              		.loc 1 1335 13 is_stmt 1 view .LVU512
1335:lvgl/src/lv_themes/lv_theme_material.c ****             _lv_style_list_add_style(list, &styles->calendar_header);
 1495              		.loc 1 1335 20 is_stmt 0 view .LVU513
 1496 062a 0121     		movs	r1, #1
 1497 062c 2046     		mov	r0, r4
 1498 062e FFF7FEFF 		bl	lv_obj_get_style_list
 1499              	.LVL276:
1336:lvgl/src/lv_themes/lv_theme_material.c **** 
 1500              		.loc 1 1336 13 is_stmt 1 view .LVU514
1336:lvgl/src/lv_themes/lv_theme_material.c **** 
 1501              		.loc 1 1336 51 is_stmt 0 view .LVU515
 1502 0632 2968     		ldr	r1, [r5]
1336:lvgl/src/lv_themes/lv_theme_material.c **** 
 1503              		.loc 1 1336 13 view .LVU516
 1504 0634 3431     		adds	r1, r1, #52
 1505 0636 FFF7FEFF 		bl	_lv_style_list_add_style
 1506              	.LVL277:
1338:lvgl/src/lv_themes/lv_theme_material.c ****             _lv_style_list_add_style(list, &styles->calendar_daynames);
 1507              		.loc 1 1338 13 is_stmt 1 view .LVU517
1338:lvgl/src/lv_themes/lv_theme_material.c ****             _lv_style_list_add_style(list, &styles->calendar_daynames);
 1508              		.loc 1 1338 20 is_stmt 0 view .LVU518
 1509 063a 0221     		movs	r1, #2
 1510 063c 2046     		mov	r0, r4
 1511 063e FFF7FEFF 		bl	lv_obj_get_style_list
 1512              	.LVL278:
1339:lvgl/src/lv_themes/lv_theme_material.c ****             break;
 1513              		.loc 1 1339 13 is_stmt 1 view .LVU519
1339:lvgl/src/lv_themes/lv_theme_material.c ****             break;
 1514              		.loc 1 1339 51 is_stmt 0 view .LVU520
 1515 0642 2968     		ldr	r1, [r5]
1339:lvgl/src/lv_themes/lv_theme_material.c ****             break;
 1516              		.loc 1 1339 13 view .LVU521
 1517 0644 3831     		adds	r1, r1, #56
 1518 0646 FFF7FEFF 		bl	_lv_style_list_add_style
 1519              	.LVL279:
1340:lvgl/src/lv_themes/lv_theme_material.c **** #endif
 1520              		.loc 1 1340 13 is_stmt 1 view .LVU522
 1521 064a 10E5     		b	.L2
 1522              	.LVL280:
 1523              	.L28:
1344:lvgl/src/lv_themes/lv_theme_material.c ****             _lv_style_list_add_style(list, &styles->cpicker_bg);
 1524              		.loc 1 1344 13 view .LVU523
1344:lvgl/src/lv_themes/lv_theme_material.c ****             _lv_style_list_add_style(list, &styles->cpicker_bg);
 1525              		.loc 1 1344 20 is_stmt 0 view .LVU524
 1526 064c 0021     		movs	r1, #0
 1527              	.LVL281:
1344:lvgl/src/lv_themes/lv_theme_material.c ****             _lv_style_list_add_style(list, &styles->cpicker_bg);
 1528              		.loc 1 1344 20 view .LVU525
 1529 064e 2046     		mov	r0, r4
 1530              	.LVL282:
1344:lvgl/src/lv_themes/lv_theme_material.c ****             _lv_style_list_add_style(list, &styles->cpicker_bg);
 1531              		.loc 1 1344 20 view .LVU526
ARM GAS  D:\Temp\cclc1fSW.s 			page 61


 1532 0650 FFF7FEFF 		bl	lv_obj_get_style_list
 1533              	.LVL283:
1345:lvgl/src/lv_themes/lv_theme_material.c **** 
 1534              		.loc 1 1345 13 is_stmt 1 view .LVU527
1345:lvgl/src/lv_themes/lv_theme_material.c **** 
 1535              		.loc 1 1345 51 is_stmt 0 view .LVU528
 1536 0654 1E4D     		ldr	r5, .L44
 1537 0656 2968     		ldr	r1, [r5]
1345:lvgl/src/lv_themes/lv_theme_material.c **** 
 1538              		.loc 1 1345 13 view .LVU529
 1539 0658 3C31     		adds	r1, r1, #60
 1540 065a FFF7FEFF 		bl	_lv_style_list_add_style
 1541              	.LVL284:
1347:lvgl/src/lv_themes/lv_theme_material.c ****             _lv_style_list_add_style(list, &styles->cpicker_indic);
 1542              		.loc 1 1347 13 is_stmt 1 view .LVU530
1347:lvgl/src/lv_themes/lv_theme_material.c ****             _lv_style_list_add_style(list, &styles->cpicker_indic);
 1543              		.loc 1 1347 20 is_stmt 0 view .LVU531
 1544 065e 0121     		movs	r1, #1
 1545 0660 2046     		mov	r0, r4
 1546 0662 FFF7FEFF 		bl	lv_obj_get_style_list
 1547              	.LVL285:
1348:lvgl/src/lv_themes/lv_theme_material.c ****             break;
 1548              		.loc 1 1348 13 is_stmt 1 view .LVU532
1348:lvgl/src/lv_themes/lv_theme_material.c ****             break;
 1549              		.loc 1 1348 51 is_stmt 0 view .LVU533
 1550 0666 2968     		ldr	r1, [r5]
1348:lvgl/src/lv_themes/lv_theme_material.c ****             break;
 1551              		.loc 1 1348 13 view .LVU534
 1552 0668 4031     		adds	r1, r1, #64
 1553 066a FFF7FEFF 		bl	_lv_style_list_add_style
 1554              	.LVL286:
1349:lvgl/src/lv_themes/lv_theme_material.c **** #endif
 1555              		.loc 1 1349 13 is_stmt 1 view .LVU535
 1556 066e FEE4     		b	.L2
 1557              	.LVL287:
 1558              	.L21:
1354:lvgl/src/lv_themes/lv_theme_material.c ****             _lv_style_list_add_style(list, &styles->bg);
 1559              		.loc 1 1354 13 view .LVU536
1354:lvgl/src/lv_themes/lv_theme_material.c ****             _lv_style_list_add_style(list, &styles->bg);
 1560              		.loc 1 1354 20 is_stmt 0 view .LVU537
 1561 0670 0021     		movs	r1, #0
 1562              	.LVL288:
1354:lvgl/src/lv_themes/lv_theme_material.c ****             _lv_style_list_add_style(list, &styles->bg);
 1563              		.loc 1 1354 20 view .LVU538
 1564 0672 2046     		mov	r0, r4
 1565              	.LVL289:
1354:lvgl/src/lv_themes/lv_theme_material.c ****             _lv_style_list_add_style(list, &styles->bg);
 1566              		.loc 1 1354 20 view .LVU539
 1567 0674 FFF7FEFF 		bl	lv_obj_get_style_list
 1568              	.LVL290:
 1569 0678 0646     		mov	r6, r0
 1570              	.LVL291:
1355:lvgl/src/lv_themes/lv_theme_material.c ****             _lv_style_list_add_style(list, &styles->lmeter);
 1571              		.loc 1 1355 13 is_stmt 1 view .LVU540
1355:lvgl/src/lv_themes/lv_theme_material.c ****             _lv_style_list_add_style(list, &styles->lmeter);
 1572              		.loc 1 1355 51 is_stmt 0 view .LVU541
 1573 067a 154D     		ldr	r5, .L44
ARM GAS  D:\Temp\cclc1fSW.s 			page 62


 1574 067c 2968     		ldr	r1, [r5]
1355:lvgl/src/lv_themes/lv_theme_material.c ****             _lv_style_list_add_style(list, &styles->lmeter);
 1575              		.loc 1 1355 13 view .LVU542
 1576 067e 0431     		adds	r1, r1, #4
 1577 0680 FFF7FEFF 		bl	_lv_style_list_add_style
 1578              	.LVL292:
1356:lvgl/src/lv_themes/lv_theme_material.c ****             break;
 1579              		.loc 1 1356 13 is_stmt 1 view .LVU543
1356:lvgl/src/lv_themes/lv_theme_material.c ****             break;
 1580              		.loc 1 1356 51 is_stmt 0 view .LVU544
 1581 0684 2968     		ldr	r1, [r5]
1356:lvgl/src/lv_themes/lv_theme_material.c ****             break;
 1582              		.loc 1 1356 13 view .LVU545
 1583 0686 7431     		adds	r1, r1, #116
 1584 0688 3046     		mov	r0, r6
 1585 068a FFF7FEFF 		bl	_lv_style_list_add_style
 1586              	.LVL293:
1357:lvgl/src/lv_themes/lv_theme_material.c **** #endif
 1587              		.loc 1 1357 13 is_stmt 1 view .LVU546
 1588 068e EEE4     		b	.L2
 1589              	.LVL294:
 1590              	.L26:
1361:lvgl/src/lv_themes/lv_theme_material.c ****             _lv_style_list_add_style(list, &styles->bg);
 1591              		.loc 1 1361 13 view .LVU547
1361:lvgl/src/lv_themes/lv_theme_material.c ****             _lv_style_list_add_style(list, &styles->bg);
 1592              		.loc 1 1361 20 is_stmt 0 view .LVU548
 1593 0690 0021     		movs	r1, #0
 1594              	.LVL295:
1361:lvgl/src/lv_themes/lv_theme_material.c ****             _lv_style_list_add_style(list, &styles->bg);
 1595              		.loc 1 1361 20 view .LVU549
 1596 0692 2046     		mov	r0, r4
 1597              	.LVL296:
1361:lvgl/src/lv_themes/lv_theme_material.c ****             _lv_style_list_add_style(list, &styles->bg);
 1598              		.loc 1 1361 20 view .LVU550
 1599 0694 FFF7FEFF 		bl	lv_obj_get_style_list
 1600              	.LVL297:
 1601 0698 0646     		mov	r6, r0
 1602              	.LVL298:
1362:lvgl/src/lv_themes/lv_theme_material.c ****             _lv_style_list_add_style(list, &styles->gauge_main);
 1603              		.loc 1 1362 13 is_stmt 1 view .LVU551
1362:lvgl/src/lv_themes/lv_theme_material.c ****             _lv_style_list_add_style(list, &styles->gauge_main);
 1604              		.loc 1 1362 51 is_stmt 0 view .LVU552
 1605 069a 0D4D     		ldr	r5, .L44
 1606 069c 2968     		ldr	r1, [r5]
1362:lvgl/src/lv_themes/lv_theme_material.c ****             _lv_style_list_add_style(list, &styles->gauge_main);
 1607              		.loc 1 1362 13 view .LVU553
 1608 069e 0431     		adds	r1, r1, #4
 1609 06a0 FFF7FEFF 		bl	_lv_style_list_add_style
 1610              	.LVL299:
1363:lvgl/src/lv_themes/lv_theme_material.c **** 
 1611              		.loc 1 1363 13 is_stmt 1 view .LVU554
1363:lvgl/src/lv_themes/lv_theme_material.c **** 
 1612              		.loc 1 1363 51 is_stmt 0 view .LVU555
 1613 06a4 2968     		ldr	r1, [r5]
1363:lvgl/src/lv_themes/lv_theme_material.c **** 
 1614              		.loc 1 1363 13 view .LVU556
 1615 06a6 6031     		adds	r1, r1, #96
ARM GAS  D:\Temp\cclc1fSW.s 			page 63


 1616 06a8 3046     		mov	r0, r6
 1617 06aa FFF7FEFF 		bl	_lv_style_list_add_style
 1618              	.LVL300:
1365:lvgl/src/lv_themes/lv_theme_material.c ****             _lv_style_list_add_style(list, &styles->gauge_strong);
 1619              		.loc 1 1365 13 is_stmt 1 view .LVU557
1365:lvgl/src/lv_themes/lv_theme_material.c ****             _lv_style_list_add_style(list, &styles->gauge_strong);
 1620              		.loc 1 1365 20 is_stmt 0 view .LVU558
 1621 06ae 0121     		movs	r1, #1
 1622 06b0 2046     		mov	r0, r4
 1623 06b2 FFF7FEFF 		bl	lv_obj_get_style_list
 1624              	.LVL301:
1366:lvgl/src/lv_themes/lv_theme_material.c **** 
 1625              		.loc 1 1366 13 is_stmt 1 view .LVU559
1366:lvgl/src/lv_themes/lv_theme_material.c **** 
 1626              		.loc 1 1366 51 is_stmt 0 view .LVU560
 1627 06b6 2968     		ldr	r1, [r5]
1366:lvgl/src/lv_themes/lv_theme_material.c **** 
 1628              		.loc 1 1366 13 view .LVU561
 1629 06b8 6431     		adds	r1, r1, #100
 1630 06ba FFF7FEFF 		bl	_lv_style_list_add_style
 1631              	.LVL302:
1368:lvgl/src/lv_themes/lv_theme_material.c ****             _lv_style_list_add_style(list, &styles->gauge_needle);
 1632              		.loc 1 1368 13 is_stmt 1 view .LVU562
1368:lvgl/src/lv_themes/lv_theme_material.c ****             _lv_style_list_add_style(list, &styles->gauge_needle);
 1633              		.loc 1 1368 20 is_stmt 0 view .LVU563
 1634 06be 0221     		movs	r1, #2
 1635 06c0 2046     		mov	r0, r4
 1636 06c2 FFF7FEFF 		bl	lv_obj_get_style_list
 1637              	.LVL303:
1369:lvgl/src/lv_themes/lv_theme_material.c ****             break;
 1638              		.loc 1 1369 13 is_stmt 1 view .LVU564
1369:lvgl/src/lv_themes/lv_theme_material.c ****             break;
 1639              		.loc 1 1369 51 is_stmt 0 view .LVU565
 1640 06c6 2968     		ldr	r1, [r5]
1369:lvgl/src/lv_themes/lv_theme_material.c ****             break;
 1641              		.loc 1 1369 13 view .LVU566
 1642 06c8 6831     		adds	r1, r1, #104
 1643 06ca FFF7FEFF 		bl	_lv_style_list_add_style
 1644              	.LVL304:
1370:lvgl/src/lv_themes/lv_theme_material.c **** #endif
 1645              		.loc 1 1370 13 is_stmt 1 view .LVU567
 1646 06ce CEE4     		b	.L2
 1647              	.L45:
 1648              		.align	2
 1649              	.L44:
 1650 06d0 00000000 		.word	.LANCHOR0
 1651              		.cfi_endproc
 1652              	.LFE593:
 1654              		.section	.text.style_init_reset,"ax",%progbits
 1655              		.align	1
 1656              		.syntax unified
 1657              		.thumb
 1658              		.thumb_func
 1659              		.fpu fpv4-sp-d16
 1661              	style_init_reset:
 1662              	.LVL305:
 1663              	.LFB594:
ARM GAS  D:\Temp\cclc1fSW.s 			page 64


1378:lvgl/src/lv_themes/lv_theme_material.c **** 
1379:lvgl/src/lv_themes/lv_theme_material.c **** /**********************
1380:lvgl/src/lv_themes/lv_theme_material.c ****  *   STATIC FUNCTIONS
1381:lvgl/src/lv_themes/lv_theme_material.c ****  **********************/
1382:lvgl/src/lv_themes/lv_theme_material.c **** 
1383:lvgl/src/lv_themes/lv_theme_material.c **** static void style_init_reset(lv_style_t * style)
1384:lvgl/src/lv_themes/lv_theme_material.c **** {
 1664              		.loc 1 1384 1 view -0
 1665              		.cfi_startproc
 1666              		@ args = 0, pretend = 0, frame = 0
 1667              		@ frame_needed = 0, uses_anonymous_args = 0
 1668              		.loc 1 1384 1 is_stmt 0 view .LVU569
 1669 0000 08B5     		push	{r3, lr}
 1670              	.LCFI1:
 1671              		.cfi_def_cfa_offset 8
 1672              		.cfi_offset 3, -8
 1673              		.cfi_offset 14, -4
1385:lvgl/src/lv_themes/lv_theme_material.c ****     if(inited) lv_style_reset(style);
 1674              		.loc 1 1385 5 is_stmt 1 view .LVU570
 1675              		.loc 1 1385 8 is_stmt 0 view .LVU571
 1676 0002 044B     		ldr	r3, .L50
 1677 0004 1B78     		ldrb	r3, [r3]	@ zero_extendqisi2
 1678              		.loc 1 1385 7 view .LVU572
 1679 0006 13B1     		cbz	r3, .L47
 1680              		.loc 1 1385 16 is_stmt 1 discriminator 1 view .LVU573
 1681 0008 FFF7FEFF 		bl	lv_style_reset
 1682              	.LVL306:
 1683              	.L46:
1386:lvgl/src/lv_themes/lv_theme_material.c ****     else lv_style_init(style);
1387:lvgl/src/lv_themes/lv_theme_material.c **** }
 1684              		.loc 1 1387 1 is_stmt 0 view .LVU574
 1685 000c 08BD     		pop	{r3, pc}
 1686              	.LVL307:
 1687              	.L47:
1386:lvgl/src/lv_themes/lv_theme_material.c ****     else lv_style_init(style);
 1688              		.loc 1 1386 10 is_stmt 1 view .LVU575
 1689 000e FFF7FEFF 		bl	lv_style_init
 1690              	.LVL308:
 1691              		.loc 1 1387 1 is_stmt 0 view .LVU576
 1692 0012 FBE7     		b	.L46
 1693              	.L51:
 1694              		.align	2
 1695              	.L50:
 1696 0014 00000000 		.word	.LANCHOR1
 1697              		.cfi_endproc
 1698              	.LFE594:
 1700              		.section	.text.bar_init,"ax",%progbits
 1701              		.align	1
 1702              		.syntax unified
 1703              		.thumb
 1704              		.thumb_func
 1705              		.fpu fpv4-sp-d16
 1707              	bar_init:
 1708              	.LFB564:
 348:lvgl/src/lv_themes/lv_theme_material.c **** #if LV_USE_BAR
 1709              		.loc 1 348 1 is_stmt 1 view -0
 1710              		.cfi_startproc
ARM GAS  D:\Temp\cclc1fSW.s 			page 65


 1711              		@ args = 0, pretend = 0, frame = 0
 1712              		@ frame_needed = 0, uses_anonymous_args = 0
 1713 0000 38B5     		push	{r3, r4, r5, lr}
 1714              	.LCFI2:
 1715              		.cfi_def_cfa_offset 16
 1716              		.cfi_offset 3, -16
 1717              		.cfi_offset 4, -12
 1718              		.cfi_offset 5, -8
 1719              		.cfi_offset 14, -4
 350:lvgl/src/lv_themes/lv_theme_material.c ****     lv_style_set_radius(&styles->bar_bg, LV_STATE_DEFAULT, LV_RADIUS_CIRCLE);
 1720              		.loc 1 350 5 view .LVU578
 350:lvgl/src/lv_themes/lv_theme_material.c ****     lv_style_set_radius(&styles->bar_bg, LV_STATE_DEFAULT, LV_RADIUS_CIRCLE);
 1721              		.loc 1 350 29 is_stmt 0 view .LVU579
 1722 0002 6A4C     		ldr	r4, .L65
 1723 0004 2068     		ldr	r0, [r4]
 350:lvgl/src/lv_themes/lv_theme_material.c ****     lv_style_set_radius(&styles->bar_bg, LV_STATE_DEFAULT, LV_RADIUS_CIRCLE);
 1724              		.loc 1 350 5 view .LVU580
 1725 0006 2830     		adds	r0, r0, #40
 1726 0008 FFF7FEFF 		bl	style_init_reset
 1727              	.LVL309:
 351:lvgl/src/lv_themes/lv_theme_material.c ****     lv_style_set_bg_opa(&styles->bar_bg, LV_STATE_DEFAULT, LV_OPA_COVER);
 1728              		.loc 1 351 5 is_stmt 1 view .LVU581
 351:lvgl/src/lv_themes/lv_theme_material.c ****     lv_style_set_bg_opa(&styles->bar_bg, LV_STATE_DEFAULT, LV_OPA_COVER);
 1729              		.loc 1 351 32 is_stmt 0 view .LVU582
 1730 000c 2068     		ldr	r0, [r4]
 1731              	.LVL310:
 1732              	.LBB1443:
 1733              	.LBI1443:
 1734              		.file 2 "lvgl/src/lv_themes/../../src/lv_core/lv_obj_style_dec.h"
   1:lvgl/src/lv_themes/../../src/lv_core/lv_obj_style_dec.h **** 
   2:lvgl/src/lv_themes/../../src/lv_core/lv_obj_style_dec.h **** /**
