ARM GAS  D:\Temp\ccnA29ZW.s 			page 1


   1              		.cpu cortex-m4
   2              		.eabi_attribute 27, 1
   3              		.eabi_attribute 28, 1
   4              		.eabi_attribute 20, 1
   5              		.eabi_attribute 21, 1
   6              		.eabi_attribute 23, 3
   7              		.eabi_attribute 24, 1
   8              		.eabi_attribute 25, 1
   9              		.eabi_attribute 26, 1
  10              		.eabi_attribute 30, 1
  11              		.eabi_attribute 34, 1
  12              		.eabi_attribute 18, 4
  13              		.file	"lv_tabview.c"
  14              		.text
  15              	.Ltext0:
  16              		.cfi_sections	.debug_frame
  17              		.section	.text.lv_tabview_get_style,"ax",%progbits
  18              		.align	1
  19              		.arch armv7e-m
  20              		.syntax unified
  21              		.thumb
  22              		.thumb_func
  23              		.fpu fpv4-sp-d16
  25              	lv_tabview_get_style:
  26              	.LVL0:
  27              	.LFB504:
  28              		.file 1 "lvgl/src/lv_widgets/lv_tabview.c"
   1:lvgl/src/lv_widgets/lv_tabview.c **** /**
   2:lvgl/src/lv_widgets/lv_tabview.c ****  * @file lv_tab.c
   3:lvgl/src/lv_widgets/lv_tabview.c ****  *
   4:lvgl/src/lv_widgets/lv_tabview.c ****  */
   5:lvgl/src/lv_widgets/lv_tabview.c **** 
   6:lvgl/src/lv_widgets/lv_tabview.c **** /*********************
   7:lvgl/src/lv_widgets/lv_tabview.c ****  *      INCLUDES
   8:lvgl/src/lv_widgets/lv_tabview.c ****  *********************/
   9:lvgl/src/lv_widgets/lv_tabview.c **** #include "lv_tabview.h"
  10:lvgl/src/lv_widgets/lv_tabview.c **** #if LV_USE_TABVIEW != 0
  11:lvgl/src/lv_widgets/lv_tabview.c **** 
  12:lvgl/src/lv_widgets/lv_tabview.c **** #include "lv_btnmatrix.h"
  13:lvgl/src/lv_widgets/lv_tabview.c **** #include "../lv_misc/lv_debug.h"
  14:lvgl/src/lv_widgets/lv_tabview.c **** #include "../lv_themes/lv_theme.h"
  15:lvgl/src/lv_widgets/lv_tabview.c **** #include "../lv_misc/lv_anim.h"
  16:lvgl/src/lv_widgets/lv_tabview.c **** #include "../lv_core/lv_disp.h"
  17:lvgl/src/lv_widgets/lv_tabview.c **** 
  18:lvgl/src/lv_widgets/lv_tabview.c **** /*********************
  19:lvgl/src/lv_widgets/lv_tabview.c ****  *      DEFINES
  20:lvgl/src/lv_widgets/lv_tabview.c ****  *********************/
  21:lvgl/src/lv_widgets/lv_tabview.c **** #define LV_OBJX_NAME "lv_tabview"
  22:lvgl/src/lv_widgets/lv_tabview.c **** 
  23:lvgl/src/lv_widgets/lv_tabview.c **** #if LV_USE_ANIMATION
  24:lvgl/src/lv_widgets/lv_tabview.c ****     #ifndef LV_TABVIEW_DEF_ANIM_TIME
  25:lvgl/src/lv_widgets/lv_tabview.c ****         #define LV_TABVIEW_DEF_ANIM_TIME 300 /*Animation time of focusing to the a list element [ms
  26:lvgl/src/lv_widgets/lv_tabview.c ****     #endif
  27:lvgl/src/lv_widgets/lv_tabview.c **** #else
  28:lvgl/src/lv_widgets/lv_tabview.c ****     #undef LV_TABVIEW_DEF_ANIM_TIME
  29:lvgl/src/lv_widgets/lv_tabview.c ****     #define LV_TABVIEW_DEF_ANIM_TIME 0 /*No animations*/
  30:lvgl/src/lv_widgets/lv_tabview.c **** #endif
ARM GAS  D:\Temp\ccnA29ZW.s 			page 2


  31:lvgl/src/lv_widgets/lv_tabview.c **** 
  32:lvgl/src/lv_widgets/lv_tabview.c **** /**********************
  33:lvgl/src/lv_widgets/lv_tabview.c ****  *      TYPEDEFS
  34:lvgl/src/lv_widgets/lv_tabview.c ****  **********************/
  35:lvgl/src/lv_widgets/lv_tabview.c **** 
  36:lvgl/src/lv_widgets/lv_tabview.c **** /**********************
  37:lvgl/src/lv_widgets/lv_tabview.c ****  *  STATIC PROTOTYPES
  38:lvgl/src/lv_widgets/lv_tabview.c ****  **********************/
  39:lvgl/src/lv_widgets/lv_tabview.c **** static lv_res_t lv_tabview_signal(lv_obj_t * tabview, lv_signal_t sign, void * param);
  40:lvgl/src/lv_widgets/lv_tabview.c **** static lv_res_t tabview_scrl_signal(lv_obj_t * tabview_scrl, lv_signal_t sign, void * param);
  41:lvgl/src/lv_widgets/lv_tabview.c **** static lv_style_list_t * lv_tabview_get_style(lv_obj_t * tabview, uint8_t part);
  42:lvgl/src/lv_widgets/lv_tabview.c **** 
  43:lvgl/src/lv_widgets/lv_tabview.c **** static void tab_btnm_event_cb(lv_obj_t * tab_btnm, lv_event_t event);
  44:lvgl/src/lv_widgets/lv_tabview.c **** static void tabview_realign(lv_obj_t * tabview);
  45:lvgl/src/lv_widgets/lv_tabview.c **** static void refr_indic_size(lv_obj_t * tabview);
  46:lvgl/src/lv_widgets/lv_tabview.c **** static void refr_btns_size(lv_obj_t * tabview);
  47:lvgl/src/lv_widgets/lv_tabview.c **** static void refr_content_size(lv_obj_t * tabview);
  48:lvgl/src/lv_widgets/lv_tabview.c **** static void refr_align(lv_obj_t * tabview);
  49:lvgl/src/lv_widgets/lv_tabview.c **** 
  50:lvgl/src/lv_widgets/lv_tabview.c **** /**********************
  51:lvgl/src/lv_widgets/lv_tabview.c ****  *  STATIC VARIABLES
  52:lvgl/src/lv_widgets/lv_tabview.c ****  **********************/
  53:lvgl/src/lv_widgets/lv_tabview.c **** static lv_signal_cb_t ancestor_signal;
  54:lvgl/src/lv_widgets/lv_tabview.c **** static lv_signal_cb_t ancestor_scrl_signal;
  55:lvgl/src/lv_widgets/lv_tabview.c **** static lv_signal_cb_t page_signal;
  56:lvgl/src/lv_widgets/lv_tabview.c **** static const char * tab_def[] = {""};
  57:lvgl/src/lv_widgets/lv_tabview.c **** 
  58:lvgl/src/lv_widgets/lv_tabview.c **** /**********************
  59:lvgl/src/lv_widgets/lv_tabview.c ****  *      MACROS
  60:lvgl/src/lv_widgets/lv_tabview.c ****  **********************/
  61:lvgl/src/lv_widgets/lv_tabview.c **** 
  62:lvgl/src/lv_widgets/lv_tabview.c **** /**********************
  63:lvgl/src/lv_widgets/lv_tabview.c ****  *   GLOBAL FUNCTIONS
  64:lvgl/src/lv_widgets/lv_tabview.c ****  **********************/
  65:lvgl/src/lv_widgets/lv_tabview.c **** 
  66:lvgl/src/lv_widgets/lv_tabview.c **** /**
  67:lvgl/src/lv_widgets/lv_tabview.c ****  * Create a Tab view object
  68:lvgl/src/lv_widgets/lv_tabview.c ****  * @param par pointer to an object, it will be the parent of the new tab
  69:lvgl/src/lv_widgets/lv_tabview.c ****  * @param copy pointer to a tab object, if not NULL then the new object will be copied from it
  70:lvgl/src/lv_widgets/lv_tabview.c ****  * @return pointer to the created tab
  71:lvgl/src/lv_widgets/lv_tabview.c ****  */
  72:lvgl/src/lv_widgets/lv_tabview.c **** lv_obj_t * lv_tabview_create(lv_obj_t * par, const lv_obj_t * copy)
  73:lvgl/src/lv_widgets/lv_tabview.c **** {
  74:lvgl/src/lv_widgets/lv_tabview.c ****     LV_LOG_TRACE("tab view create started");
  75:lvgl/src/lv_widgets/lv_tabview.c **** 
  76:lvgl/src/lv_widgets/lv_tabview.c ****     /*Create the ancestor of tab*/
  77:lvgl/src/lv_widgets/lv_tabview.c ****     lv_obj_t * tabview = lv_obj_create(par, copy);
  78:lvgl/src/lv_widgets/lv_tabview.c ****     LV_ASSERT_MEM(tabview);
  79:lvgl/src/lv_widgets/lv_tabview.c ****     if(tabview == NULL) return NULL;
  80:lvgl/src/lv_widgets/lv_tabview.c ****     if(ancestor_signal == NULL) ancestor_signal = lv_obj_get_signal_cb(tabview);
  81:lvgl/src/lv_widgets/lv_tabview.c **** 
  82:lvgl/src/lv_widgets/lv_tabview.c ****     /*Allocate the tab type specific extended data*/
  83:lvgl/src/lv_widgets/lv_tabview.c ****     lv_tabview_ext_t * ext = lv_obj_allocate_ext_attr(tabview, sizeof(lv_tabview_ext_t));
  84:lvgl/src/lv_widgets/lv_tabview.c ****     LV_ASSERT_MEM(ext);
  85:lvgl/src/lv_widgets/lv_tabview.c ****     if(ext == NULL) {
  86:lvgl/src/lv_widgets/lv_tabview.c ****         lv_obj_del(tabview);
  87:lvgl/src/lv_widgets/lv_tabview.c ****         return NULL;
ARM GAS  D:\Temp\ccnA29ZW.s 			page 3


  88:lvgl/src/lv_widgets/lv_tabview.c ****     }
  89:lvgl/src/lv_widgets/lv_tabview.c **** 
  90:lvgl/src/lv_widgets/lv_tabview.c ****     /*Initialize the allocated 'ext' */
  91:lvgl/src/lv_widgets/lv_tabview.c ****     ext->tab_cur      = 0;
  92:lvgl/src/lv_widgets/lv_tabview.c ****     ext->tab_cnt      = 0;
  93:lvgl/src/lv_widgets/lv_tabview.c ****     ext->point_last.x = 0;
  94:lvgl/src/lv_widgets/lv_tabview.c ****     ext->point_last.y = 0;
  95:lvgl/src/lv_widgets/lv_tabview.c ****     ext->content      = NULL;
  96:lvgl/src/lv_widgets/lv_tabview.c ****     ext->indic        = NULL;
  97:lvgl/src/lv_widgets/lv_tabview.c ****     ext->btns         = NULL;
  98:lvgl/src/lv_widgets/lv_tabview.c ****     ext->btns_pos     = LV_TABVIEW_TAB_POS_TOP;
  99:lvgl/src/lv_widgets/lv_tabview.c **** #if LV_USE_ANIMATION
 100:lvgl/src/lv_widgets/lv_tabview.c ****     ext->anim_time = LV_TABVIEW_DEF_ANIM_TIME;
 101:lvgl/src/lv_widgets/lv_tabview.c **** #endif
 102:lvgl/src/lv_widgets/lv_tabview.c **** 
 103:lvgl/src/lv_widgets/lv_tabview.c ****     /*The signal and design functions are not copied so set them here*/
 104:lvgl/src/lv_widgets/lv_tabview.c ****     lv_obj_set_signal_cb(tabview, lv_tabview_signal);
 105:lvgl/src/lv_widgets/lv_tabview.c ****     /*Init the new tab tab*/
 106:lvgl/src/lv_widgets/lv_tabview.c ****     if(copy == NULL) {
 107:lvgl/src/lv_widgets/lv_tabview.c ****         ext->tab_name_ptr = lv_mem_alloc(sizeof(char *));
 108:lvgl/src/lv_widgets/lv_tabview.c ****         LV_ASSERT_MEM(ext->tab_name_ptr);
 109:lvgl/src/lv_widgets/lv_tabview.c ****         if(ext->tab_name_ptr == NULL) return NULL;
 110:lvgl/src/lv_widgets/lv_tabview.c ****         ext->tab_name_ptr[0] = "";
 111:lvgl/src/lv_widgets/lv_tabview.c **** 
 112:lvgl/src/lv_widgets/lv_tabview.c ****         /* Set a size which fits into the parent.
 113:lvgl/src/lv_widgets/lv_tabview.c ****          * Don't use `par` directly because if the tabview is created on a page it is moved to the
 114:lvgl/src/lv_widgets/lv_tabview.c ****          * scrollable so the parent has changed */
 115:lvgl/src/lv_widgets/lv_tabview.c ****         lv_coord_t w;
 116:lvgl/src/lv_widgets/lv_tabview.c ****         lv_coord_t h;
 117:lvgl/src/lv_widgets/lv_tabview.c ****         if(par) {
 118:lvgl/src/lv_widgets/lv_tabview.c ****             w = lv_obj_get_width_fit(lv_obj_get_parent(tabview));
 119:lvgl/src/lv_widgets/lv_tabview.c ****             h = lv_obj_get_height_fit(lv_obj_get_parent(tabview));
 120:lvgl/src/lv_widgets/lv_tabview.c ****         }
 121:lvgl/src/lv_widgets/lv_tabview.c ****         else {
 122:lvgl/src/lv_widgets/lv_tabview.c ****             w = lv_disp_get_hor_res(NULL);
 123:lvgl/src/lv_widgets/lv_tabview.c ****             h = lv_disp_get_ver_res(NULL);
 124:lvgl/src/lv_widgets/lv_tabview.c ****         }
 125:lvgl/src/lv_widgets/lv_tabview.c **** 
 126:lvgl/src/lv_widgets/lv_tabview.c ****         lv_obj_set_size(tabview, w, h);
 127:lvgl/src/lv_widgets/lv_tabview.c **** 
 128:lvgl/src/lv_widgets/lv_tabview.c ****         ext->content = lv_page_create(tabview, NULL);
 129:lvgl/src/lv_widgets/lv_tabview.c ****         ext->btns    = lv_btnmatrix_create(tabview, NULL);
 130:lvgl/src/lv_widgets/lv_tabview.c ****         ext->indic   = lv_obj_create(ext->btns, NULL);
 131:lvgl/src/lv_widgets/lv_tabview.c **** 
 132:lvgl/src/lv_widgets/lv_tabview.c ****         if(ancestor_scrl_signal == NULL) ancestor_scrl_signal = lv_obj_get_signal_cb(lv_page_get_sc
 133:lvgl/src/lv_widgets/lv_tabview.c ****         lv_obj_set_signal_cb(lv_page_get_scrollable(ext->content), tabview_scrl_signal);
 134:lvgl/src/lv_widgets/lv_tabview.c **** 
 135:lvgl/src/lv_widgets/lv_tabview.c ****         lv_btnmatrix_set_map(ext->btns, tab_def);
 136:lvgl/src/lv_widgets/lv_tabview.c ****         lv_obj_set_event_cb(ext->btns, tab_btnm_event_cb);
 137:lvgl/src/lv_widgets/lv_tabview.c **** 
 138:lvgl/src/lv_widgets/lv_tabview.c ****         lv_obj_set_click(ext->indic, false);
 139:lvgl/src/lv_widgets/lv_tabview.c ****         lv_obj_set_drag_dir(lv_page_get_scrollable(ext->content), LV_DRAG_DIR_ONE);
 140:lvgl/src/lv_widgets/lv_tabview.c **** 
 141:lvgl/src/lv_widgets/lv_tabview.c ****         lv_page_set_scrollable_fit2(ext->content, LV_FIT_TIGHT, LV_FIT_PARENT);
 142:lvgl/src/lv_widgets/lv_tabview.c ****         lv_page_set_scrl_layout(ext->content, LV_LAYOUT_ROW_TOP);
 143:lvgl/src/lv_widgets/lv_tabview.c ****         lv_page_set_scrollbar_mode(ext->content, LV_SCROLLBAR_MODE_OFF);
 144:lvgl/src/lv_widgets/lv_tabview.c **** 
ARM GAS  D:\Temp\ccnA29ZW.s 			page 4


 145:lvgl/src/lv_widgets/lv_tabview.c ****         lv_obj_clean_style_list(ext->content, LV_PAGE_PART_BG);
 146:lvgl/src/lv_widgets/lv_tabview.c **** 
 147:lvgl/src/lv_widgets/lv_tabview.c ****         lv_theme_apply(tabview, LV_THEME_TABVIEW);
 148:lvgl/src/lv_widgets/lv_tabview.c **** 
 149:lvgl/src/lv_widgets/lv_tabview.c ****     }
 150:lvgl/src/lv_widgets/lv_tabview.c ****     /*Copy an existing tab view*/
 151:lvgl/src/lv_widgets/lv_tabview.c ****     else {
 152:lvgl/src/lv_widgets/lv_tabview.c ****         lv_tabview_ext_t * copy_ext = lv_obj_get_ext_attr(copy);
 153:lvgl/src/lv_widgets/lv_tabview.c ****         ext->point_last.x           = 0;
 154:lvgl/src/lv_widgets/lv_tabview.c ****         ext->point_last.y           = 0;
 155:lvgl/src/lv_widgets/lv_tabview.c ****         ext->btns                   = lv_btnmatrix_create(tabview, copy_ext->btns);
 156:lvgl/src/lv_widgets/lv_tabview.c ****         ext->indic                  = lv_obj_create(ext->btns, copy_ext->indic);
 157:lvgl/src/lv_widgets/lv_tabview.c ****         ext->content                = lv_page_create(tabview, copy_ext->content);
 158:lvgl/src/lv_widgets/lv_tabview.c **** #if LV_USE_ANIMATION
 159:lvgl/src/lv_widgets/lv_tabview.c ****         ext->anim_time = copy_ext->anim_time;
 160:lvgl/src/lv_widgets/lv_tabview.c **** #endif
 161:lvgl/src/lv_widgets/lv_tabview.c **** 
 162:lvgl/src/lv_widgets/lv_tabview.c ****         ext->tab_name_ptr = lv_mem_alloc(sizeof(char *));
 163:lvgl/src/lv_widgets/lv_tabview.c ****         LV_ASSERT_MEM(ext->tab_name_ptr);
 164:lvgl/src/lv_widgets/lv_tabview.c ****         if(ext->tab_name_ptr == NULL) return NULL;
 165:lvgl/src/lv_widgets/lv_tabview.c ****         ext->tab_name_ptr[0] = "";
 166:lvgl/src/lv_widgets/lv_tabview.c ****         lv_btnmatrix_set_map(ext->btns, ext->tab_name_ptr);
 167:lvgl/src/lv_widgets/lv_tabview.c **** 
 168:lvgl/src/lv_widgets/lv_tabview.c ****         lv_style_list_copy(lv_obj_get_style_list(tabview, LV_TABVIEW_PART_BG_SCROLLABLE), lv_obj_ge
 169:lvgl/src/lv_widgets/lv_tabview.c ****                                                                                                    
 170:lvgl/src/lv_widgets/lv_tabview.c ****         lv_style_list_copy(lv_obj_get_style_list(tabview, LV_TABVIEW_PART_TAB_BG), lv_obj_get_style
 171:lvgl/src/lv_widgets/lv_tabview.c ****                                                                                                    
 172:lvgl/src/lv_widgets/lv_tabview.c ****         lv_style_list_copy(lv_obj_get_style_list(tabview, LV_TABVIEW_PART_TAB_BTN), lv_obj_get_styl
 173:lvgl/src/lv_widgets/lv_tabview.c ****                                                                                                    
 174:lvgl/src/lv_widgets/lv_tabview.c **** 
 175:lvgl/src/lv_widgets/lv_tabview.c ****         uint16_t i;
 176:lvgl/src/lv_widgets/lv_tabview.c ****         for(i = 0; i < copy_ext->tab_cnt; i++) {
 177:lvgl/src/lv_widgets/lv_tabview.c ****             lv_obj_t * new_tab = lv_tabview_add_tab(tabview, copy_ext->tab_name_ptr[i]);
 178:lvgl/src/lv_widgets/lv_tabview.c ****             lv_obj_t * copy_tab = lv_tabview_get_tab(copy, i);
 179:lvgl/src/lv_widgets/lv_tabview.c ****             lv_style_list_copy(lv_obj_get_style_list(new_tab, LV_PAGE_PART_SCROLLABLE), lv_obj_get_
 180:lvgl/src/lv_widgets/lv_tabview.c ****                                                                                                    
 181:lvgl/src/lv_widgets/lv_tabview.c ****             lv_style_list_copy(lv_obj_get_style_list(new_tab, LV_PAGE_PART_SCROLLBAR), lv_obj_get_s
 182:lvgl/src/lv_widgets/lv_tabview.c ****                                                                                                    
 183:lvgl/src/lv_widgets/lv_tabview.c ****             lv_obj_refresh_style(new_tab, LV_OBJ_PART_ALL, LV_STYLE_PROP_ALL);
 184:lvgl/src/lv_widgets/lv_tabview.c ****         }
 185:lvgl/src/lv_widgets/lv_tabview.c **** 
 186:lvgl/src/lv_widgets/lv_tabview.c ****         /*Refresh the style with new signal function*/
 187:lvgl/src/lv_widgets/lv_tabview.c ****         lv_obj_refresh_style(tabview, LV_OBJ_PART_ALL, LV_STYLE_PROP_ALL);
 188:lvgl/src/lv_widgets/lv_tabview.c ****     }
 189:lvgl/src/lv_widgets/lv_tabview.c **** 
 190:lvgl/src/lv_widgets/lv_tabview.c ****     tabview_realign(tabview);
 191:lvgl/src/lv_widgets/lv_tabview.c **** 
 192:lvgl/src/lv_widgets/lv_tabview.c ****     LV_LOG_INFO("tab view created");
 193:lvgl/src/lv_widgets/lv_tabview.c **** 
 194:lvgl/src/lv_widgets/lv_tabview.c ****     return tabview;
 195:lvgl/src/lv_widgets/lv_tabview.c **** }
 196:lvgl/src/lv_widgets/lv_tabview.c **** 
 197:lvgl/src/lv_widgets/lv_tabview.c **** /*======================
 198:lvgl/src/lv_widgets/lv_tabview.c ****  * Add/remove functions
 199:lvgl/src/lv_widgets/lv_tabview.c ****  *=====================*/
 200:lvgl/src/lv_widgets/lv_tabview.c **** 
 201:lvgl/src/lv_widgets/lv_tabview.c **** /**
ARM GAS  D:\Temp\ccnA29ZW.s 			page 5


 202:lvgl/src/lv_widgets/lv_tabview.c ****  * Add a new tab with the given name
 203:lvgl/src/lv_widgets/lv_tabview.c ****  * @param tabview pointer to Tab view object where to ass the new tab
 204:lvgl/src/lv_widgets/lv_tabview.c ****  * @param name the text on the tab button
 205:lvgl/src/lv_widgets/lv_tabview.c ****  * @return pointer to the created page object (lv_page). You can create your content here
 206:lvgl/src/lv_widgets/lv_tabview.c ****  */
 207:lvgl/src/lv_widgets/lv_tabview.c **** lv_obj_t * lv_tabview_add_tab(lv_obj_t * tabview, const char * name)
 208:lvgl/src/lv_widgets/lv_tabview.c **** {
 209:lvgl/src/lv_widgets/lv_tabview.c ****     LV_ASSERT_OBJ(tabview, LV_OBJX_NAME);
 210:lvgl/src/lv_widgets/lv_tabview.c ****     LV_ASSERT_STR(name);
 211:lvgl/src/lv_widgets/lv_tabview.c **** 
 212:lvgl/src/lv_widgets/lv_tabview.c ****     lv_tabview_ext_t * ext = lv_obj_get_ext_attr(tabview);
 213:lvgl/src/lv_widgets/lv_tabview.c **** 
 214:lvgl/src/lv_widgets/lv_tabview.c ****     /*Create the container page*/
 215:lvgl/src/lv_widgets/lv_tabview.c ****     lv_obj_t * h = lv_page_create(ext->content, NULL);
 216:lvgl/src/lv_widgets/lv_tabview.c ****     lv_obj_set_size(h, lv_obj_get_width(tabview), lv_obj_get_height(ext->content));
 217:lvgl/src/lv_widgets/lv_tabview.c ****     lv_page_set_scrollbar_mode(h, LV_SCROLLBAR_MODE_AUTO);
 218:lvgl/src/lv_widgets/lv_tabview.c ****     lv_page_set_scroll_propagation(h, true);
 219:lvgl/src/lv_widgets/lv_tabview.c ****     lv_page_set_scrollable_fit4(h, LV_FIT_NONE, LV_FIT_MAX, LV_FIT_NONE, LV_FIT_MAX);
 220:lvgl/src/lv_widgets/lv_tabview.c ****     lv_theme_apply(h, LV_THEME_TABVIEW_PAGE);
 221:lvgl/src/lv_widgets/lv_tabview.c **** 
 222:lvgl/src/lv_widgets/lv_tabview.c ****     if(page_signal == NULL) page_signal = lv_obj_get_signal_cb(h);
 223:lvgl/src/lv_widgets/lv_tabview.c **** 
 224:lvgl/src/lv_widgets/lv_tabview.c ****     /*Extend the button matrix map with the new name*/
 225:lvgl/src/lv_widgets/lv_tabview.c ****     char * name_dm;
 226:lvgl/src/lv_widgets/lv_tabview.c ****     name_dm = lv_mem_alloc(strlen(name) + 1); /*+1 for the closing '\0' */
 227:lvgl/src/lv_widgets/lv_tabview.c ****     LV_ASSERT_MEM(name_dm);
 228:lvgl/src/lv_widgets/lv_tabview.c ****     if(name_dm == NULL) return NULL;
 229:lvgl/src/lv_widgets/lv_tabview.c ****     strcpy(name_dm, name);
 230:lvgl/src/lv_widgets/lv_tabview.c **** 
 231:lvgl/src/lv_widgets/lv_tabview.c ****     ext->tab_cnt++;
 232:lvgl/src/lv_widgets/lv_tabview.c **** 
 233:lvgl/src/lv_widgets/lv_tabview.c ****     /* FIXME: It is not possible yet to switch tab button position from/to top/bottom from/to left/
 234:lvgl/src/lv_widgets/lv_tabview.c ****      * Method: clean extra \n when switch from LV_TABVIEW_BTNS_POS_LEFT or LV_TABVIEW_BTNS_POS_RIGH
 235:lvgl/src/lv_widgets/lv_tabview.c ****      * to LV_TABVIEW_BTNS_POS_TOP or LV_TABVIEW_BTNS_POS_BOTTOM.
 236:lvgl/src/lv_widgets/lv_tabview.c ****      */
 237:lvgl/src/lv_widgets/lv_tabview.c ****     switch(ext->btns_pos) {
 238:lvgl/src/lv_widgets/lv_tabview.c ****         default: /*default case is prevented in lv_tabview_set_btns_pos(), but here for safety*/
 239:lvgl/src/lv_widgets/lv_tabview.c ****         case LV_TABVIEW_TAB_POS_NONE:
 240:lvgl/src/lv_widgets/lv_tabview.c ****         case LV_TABVIEW_TAB_POS_TOP:
 241:lvgl/src/lv_widgets/lv_tabview.c ****         case LV_TABVIEW_TAB_POS_BOTTOM:
 242:lvgl/src/lv_widgets/lv_tabview.c ****             ext->tab_name_ptr = lv_mem_realloc(ext->tab_name_ptr, sizeof(char *) * (ext->tab_cnt + 
 243:lvgl/src/lv_widgets/lv_tabview.c **** 
 244:lvgl/src/lv_widgets/lv_tabview.c ****             LV_ASSERT_MEM(ext->tab_name_ptr);
 245:lvgl/src/lv_widgets/lv_tabview.c ****             if(ext->tab_name_ptr == NULL) return NULL;
 246:lvgl/src/lv_widgets/lv_tabview.c **** 
 247:lvgl/src/lv_widgets/lv_tabview.c ****             ext->tab_name_ptr[ext->tab_cnt - 1] = name_dm;
 248:lvgl/src/lv_widgets/lv_tabview.c ****             ext->tab_name_ptr[ext->tab_cnt]     = "";
 249:lvgl/src/lv_widgets/lv_tabview.c **** 
 250:lvgl/src/lv_widgets/lv_tabview.c ****             break;
 251:lvgl/src/lv_widgets/lv_tabview.c ****         case LV_TABVIEW_TAB_POS_LEFT:
 252:lvgl/src/lv_widgets/lv_tabview.c ****         case LV_TABVIEW_TAB_POS_RIGHT:
 253:lvgl/src/lv_widgets/lv_tabview.c ****             ext->tab_name_ptr = lv_mem_realloc(ext->tab_name_ptr, sizeof(char *) * (ext->tab_cnt * 
 254:lvgl/src/lv_widgets/lv_tabview.c **** 
 255:lvgl/src/lv_widgets/lv_tabview.c ****             LV_ASSERT_MEM(ext->tab_name_ptr);
 256:lvgl/src/lv_widgets/lv_tabview.c ****             if(ext->tab_name_ptr == NULL) return NULL;
 257:lvgl/src/lv_widgets/lv_tabview.c **** 
 258:lvgl/src/lv_widgets/lv_tabview.c ****             if(ext->tab_cnt == 1) {
ARM GAS  D:\Temp\ccnA29ZW.s 			page 6


 259:lvgl/src/lv_widgets/lv_tabview.c ****                 ext->tab_name_ptr[0] = name_dm;
 260:lvgl/src/lv_widgets/lv_tabview.c ****                 ext->tab_name_ptr[1] = "";
 261:lvgl/src/lv_widgets/lv_tabview.c ****             }
 262:lvgl/src/lv_widgets/lv_tabview.c ****             else {
 263:lvgl/src/lv_widgets/lv_tabview.c ****                 ext->tab_name_ptr[ext->tab_cnt * 2 - 3] = "\n";
 264:lvgl/src/lv_widgets/lv_tabview.c ****                 ext->tab_name_ptr[ext->tab_cnt * 2 - 2] = name_dm;
 265:lvgl/src/lv_widgets/lv_tabview.c ****                 ext->tab_name_ptr[ext->tab_cnt * 2 - 1] = "";
 266:lvgl/src/lv_widgets/lv_tabview.c ****             }
 267:lvgl/src/lv_widgets/lv_tabview.c ****             break;
 268:lvgl/src/lv_widgets/lv_tabview.c ****     }
 269:lvgl/src/lv_widgets/lv_tabview.c **** 
 270:lvgl/src/lv_widgets/lv_tabview.c ****     /* The button matrix's map still points to the old `tab_name_ptr` which might be freed by
 271:lvgl/src/lv_widgets/lv_tabview.c ****      * `lv_mem_realloc`. So make its current map invalid*/
 272:lvgl/src/lv_widgets/lv_tabview.c ****     lv_btnmatrix_ext_t * btnm_ext = lv_obj_get_ext_attr(ext->btns);
 273:lvgl/src/lv_widgets/lv_tabview.c ****     btnm_ext->map_p          = NULL;
 274:lvgl/src/lv_widgets/lv_tabview.c **** 
 275:lvgl/src/lv_widgets/lv_tabview.c ****     lv_btnmatrix_set_map(ext->btns, ext->tab_name_ptr);
 276:lvgl/src/lv_widgets/lv_tabview.c ****     lv_btnmatrix_set_btn_ctrl(ext->btns, ext->tab_cur, LV_BTNMATRIX_CTRL_NO_REPEAT);
 277:lvgl/src/lv_widgets/lv_tabview.c **** 
 278:lvgl/src/lv_widgets/lv_tabview.c ****     /*Set the first btn as active*/
 279:lvgl/src/lv_widgets/lv_tabview.c ****     if(ext->tab_cnt == 1)  ext->tab_cur = 0;
 280:lvgl/src/lv_widgets/lv_tabview.c **** 
 281:lvgl/src/lv_widgets/lv_tabview.c ****     tabview_realign(tabview); /*Set the size of the pages, tab buttons and indicator*/
 282:lvgl/src/lv_widgets/lv_tabview.c **** 
 283:lvgl/src/lv_widgets/lv_tabview.c ****     lv_tabview_set_tab_act(tabview, ext->tab_cur, false);
 284:lvgl/src/lv_widgets/lv_tabview.c **** 
 285:lvgl/src/lv_widgets/lv_tabview.c ****     return h;
 286:lvgl/src/lv_widgets/lv_tabview.c **** }
 287:lvgl/src/lv_widgets/lv_tabview.c **** 
 288:lvgl/src/lv_widgets/lv_tabview.c **** /**
 289:lvgl/src/lv_widgets/lv_tabview.c ****  * Delete all children of a tab created by `lv_tabview_add_tab`.
 290:lvgl/src/lv_widgets/lv_tabview.c ****  * @param tab pointer to a tab
 291:lvgl/src/lv_widgets/lv_tabview.c ****  */
 292:lvgl/src/lv_widgets/lv_tabview.c **** void lv_tabview_clean_tab(lv_obj_t * tab)
 293:lvgl/src/lv_widgets/lv_tabview.c **** {
 294:lvgl/src/lv_widgets/lv_tabview.c ****     LV_ASSERT_OBJ(tab, "lv_page");
 295:lvgl/src/lv_widgets/lv_tabview.c **** 
 296:lvgl/src/lv_widgets/lv_tabview.c ****     lv_obj_t * scrl = lv_page_get_scrollable(tab);
 297:lvgl/src/lv_widgets/lv_tabview.c ****     lv_obj_clean(scrl);
 298:lvgl/src/lv_widgets/lv_tabview.c **** }
 299:lvgl/src/lv_widgets/lv_tabview.c **** 
 300:lvgl/src/lv_widgets/lv_tabview.c **** /*=====================
 301:lvgl/src/lv_widgets/lv_tabview.c ****  * Setter functions
 302:lvgl/src/lv_widgets/lv_tabview.c ****  *====================*/
 303:lvgl/src/lv_widgets/lv_tabview.c **** 
 304:lvgl/src/lv_widgets/lv_tabview.c **** /**
 305:lvgl/src/lv_widgets/lv_tabview.c ****  * Set a new tab
 306:lvgl/src/lv_widgets/lv_tabview.c ****  * @param tabview pointer to Tab view object
 307:lvgl/src/lv_widgets/lv_tabview.c ****  * @param id index of a tab to load
 308:lvgl/src/lv_widgets/lv_tabview.c ****  * @param anim LV_ANIM_ON: set the value with an animation; LV_ANIM_OFF: change the value immediate
 309:lvgl/src/lv_widgets/lv_tabview.c ****  */
 310:lvgl/src/lv_widgets/lv_tabview.c **** void lv_tabview_set_tab_act(lv_obj_t * tabview, uint16_t id, lv_anim_enable_t anim)
 311:lvgl/src/lv_widgets/lv_tabview.c **** {
 312:lvgl/src/lv_widgets/lv_tabview.c ****     LV_ASSERT_OBJ(tabview, LV_OBJX_NAME);
 313:lvgl/src/lv_widgets/lv_tabview.c **** 
 314:lvgl/src/lv_widgets/lv_tabview.c **** #if LV_USE_ANIMATION == 0
 315:lvgl/src/lv_widgets/lv_tabview.c ****     anim = LV_ANIM_OFF;
ARM GAS  D:\Temp\ccnA29ZW.s 			page 7


 316:lvgl/src/lv_widgets/lv_tabview.c **** #endif
 317:lvgl/src/lv_widgets/lv_tabview.c ****     lv_tabview_ext_t * ext = lv_obj_get_ext_attr(tabview);
 318:lvgl/src/lv_widgets/lv_tabview.c **** 
 319:lvgl/src/lv_widgets/lv_tabview.c ****     if(id >= ext->tab_cnt) id = ext->tab_cnt - 1;
 320:lvgl/src/lv_widgets/lv_tabview.c **** 
 321:lvgl/src/lv_widgets/lv_tabview.c ****     lv_btnmatrix_clear_btn_ctrl(ext->btns, ext->tab_cur, LV_BTNMATRIX_CTRL_CHECK_STATE);
 322:lvgl/src/lv_widgets/lv_tabview.c **** 
 323:lvgl/src/lv_widgets/lv_tabview.c ****     ext->tab_cur = id;
 324:lvgl/src/lv_widgets/lv_tabview.c **** 
 325:lvgl/src/lv_widgets/lv_tabview.c ****     if(lv_obj_get_base_dir(tabview) == LV_BIDI_DIR_RTL) {
 326:lvgl/src/lv_widgets/lv_tabview.c ****         id = (ext->tab_cnt - (id + 1));
 327:lvgl/src/lv_widgets/lv_tabview.c ****     }
 328:lvgl/src/lv_widgets/lv_tabview.c **** 
 329:lvgl/src/lv_widgets/lv_tabview.c ****     lv_coord_t cont_x;
 330:lvgl/src/lv_widgets/lv_tabview.c ****     lv_style_int_t scrl_inner = lv_obj_get_style_pad_inner(ext->content, LV_PAGE_PART_SCROLLABLE);
 331:lvgl/src/lv_widgets/lv_tabview.c ****     lv_style_int_t scrl_left = lv_obj_get_style_pad_left(ext->content, LV_PAGE_PART_SCROLLABLE);
 332:lvgl/src/lv_widgets/lv_tabview.c **** 
 333:lvgl/src/lv_widgets/lv_tabview.c ****     switch(ext->btns_pos) {
 334:lvgl/src/lv_widgets/lv_tabview.c ****         default: /*default case is prevented in lv_tabview_set_btns_pos(), but here for safety*/
 335:lvgl/src/lv_widgets/lv_tabview.c ****         case LV_TABVIEW_TAB_POS_NONE:
 336:lvgl/src/lv_widgets/lv_tabview.c ****         case LV_TABVIEW_TAB_POS_TOP:
 337:lvgl/src/lv_widgets/lv_tabview.c ****         case LV_TABVIEW_TAB_POS_BOTTOM:
 338:lvgl/src/lv_widgets/lv_tabview.c ****             cont_x = -(lv_obj_get_width(tabview) * id + scrl_inner * id + scrl_left);
 339:lvgl/src/lv_widgets/lv_tabview.c ****             break;
 340:lvgl/src/lv_widgets/lv_tabview.c ****         case LV_TABVIEW_TAB_POS_LEFT:
 341:lvgl/src/lv_widgets/lv_tabview.c ****         case LV_TABVIEW_TAB_POS_RIGHT:
 342:lvgl/src/lv_widgets/lv_tabview.c ****             cont_x = -((lv_obj_get_width(tabview) - lv_obj_get_width(ext->btns)) * id + scrl_inner 
 343:lvgl/src/lv_widgets/lv_tabview.c ****             break;
 344:lvgl/src/lv_widgets/lv_tabview.c ****     }
 345:lvgl/src/lv_widgets/lv_tabview.c **** 
 346:lvgl/src/lv_widgets/lv_tabview.c ****     if(anim == LV_ANIM_OFF || lv_tabview_get_anim_time(tabview) == 0) {
 347:lvgl/src/lv_widgets/lv_tabview.c ****         lv_obj_set_x(lv_page_get_scrollable(ext->content), cont_x);
 348:lvgl/src/lv_widgets/lv_tabview.c ****     }
 349:lvgl/src/lv_widgets/lv_tabview.c **** #if LV_USE_ANIMATION
 350:lvgl/src/lv_widgets/lv_tabview.c ****     else {
 351:lvgl/src/lv_widgets/lv_tabview.c ****         lv_anim_t a;
 352:lvgl/src/lv_widgets/lv_tabview.c ****         lv_anim_init(&a);
 353:lvgl/src/lv_widgets/lv_tabview.c ****         lv_anim_set_var(&a, lv_page_get_scrollable(ext->content));
 354:lvgl/src/lv_widgets/lv_tabview.c ****         lv_anim_set_exec_cb(&a, (lv_anim_exec_xcb_t)lv_obj_set_x);
 355:lvgl/src/lv_widgets/lv_tabview.c ****         lv_anim_set_values(&a, lv_obj_get_x(lv_page_get_scrollable(ext->content)), cont_x);
 356:lvgl/src/lv_widgets/lv_tabview.c ****         lv_anim_set_time(&a, ext->anim_time);
 357:lvgl/src/lv_widgets/lv_tabview.c ****         lv_anim_start(&a);
 358:lvgl/src/lv_widgets/lv_tabview.c ****     }
 359:lvgl/src/lv_widgets/lv_tabview.c **** #endif
 360:lvgl/src/lv_widgets/lv_tabview.c **** 
 361:lvgl/src/lv_widgets/lv_tabview.c ****     /*Move the indicator*/
 362:lvgl/src/lv_widgets/lv_tabview.c ****     lv_coord_t indic_size;
 363:lvgl/src/lv_widgets/lv_tabview.c ****     lv_coord_t indic_pos = 0; /*silence uninitialized variable warning*/;
 364:lvgl/src/lv_widgets/lv_tabview.c **** 
 365:lvgl/src/lv_widgets/lv_tabview.c ****     lv_style_int_t btns_bg_inner = 0;
 366:lvgl/src/lv_widgets/lv_tabview.c ****     lv_style_int_t btns_bg_left = 0;
 367:lvgl/src/lv_widgets/lv_tabview.c ****     lv_style_int_t btns_bg_top = 0;
 368:lvgl/src/lv_widgets/lv_tabview.c **** 
 369:lvgl/src/lv_widgets/lv_tabview.c ****     switch(ext->btns_pos) {
 370:lvgl/src/lv_widgets/lv_tabview.c ****         default: /*default case is prevented in lv_tabview_set_btns_pos(), but here for safety*/
 371:lvgl/src/lv_widgets/lv_tabview.c ****         case LV_TABVIEW_TAB_POS_NONE:
 372:lvgl/src/lv_widgets/lv_tabview.c ****             break;
ARM GAS  D:\Temp\ccnA29ZW.s 			page 8


 373:lvgl/src/lv_widgets/lv_tabview.c ****         case LV_TABVIEW_TAB_POS_TOP:
 374:lvgl/src/lv_widgets/lv_tabview.c ****         case LV_TABVIEW_TAB_POS_BOTTOM:
 375:lvgl/src/lv_widgets/lv_tabview.c ****             btns_bg_inner = lv_obj_get_style_pad_inner(tabview, LV_TABVIEW_PART_TAB_BG);
 376:lvgl/src/lv_widgets/lv_tabview.c ****             btns_bg_left = lv_obj_get_style_pad_left(tabview, LV_TABVIEW_PART_TAB_BG);
 377:lvgl/src/lv_widgets/lv_tabview.c ****             indic_size = lv_obj_get_width(ext->indic);
 378:lvgl/src/lv_widgets/lv_tabview.c ****             indic_pos  = indic_size * id + btns_bg_inner * id + btns_bg_left;
 379:lvgl/src/lv_widgets/lv_tabview.c ****             break;
 380:lvgl/src/lv_widgets/lv_tabview.c ****         case LV_TABVIEW_TAB_POS_LEFT:
 381:lvgl/src/lv_widgets/lv_tabview.c ****         case LV_TABVIEW_TAB_POS_RIGHT:
 382:lvgl/src/lv_widgets/lv_tabview.c ****             btns_bg_inner = lv_obj_get_style_pad_inner(tabview, LV_TABVIEW_PART_TAB_BG);
 383:lvgl/src/lv_widgets/lv_tabview.c ****             btns_bg_top = lv_obj_get_style_pad_top(tabview, LV_TABVIEW_PART_TAB_BG);
 384:lvgl/src/lv_widgets/lv_tabview.c ****             indic_size = lv_obj_get_height(ext->indic);
 385:lvgl/src/lv_widgets/lv_tabview.c ****             indic_pos  = btns_bg_top + id * (indic_size + btns_bg_inner);
 386:lvgl/src/lv_widgets/lv_tabview.c ****             break;
 387:lvgl/src/lv_widgets/lv_tabview.c ****     }
 388:lvgl/src/lv_widgets/lv_tabview.c **** 
 389:lvgl/src/lv_widgets/lv_tabview.c **** #if LV_USE_ANIMATION
 390:lvgl/src/lv_widgets/lv_tabview.c ****     if(anim == LV_ANIM_OFF || ext->anim_time == 0)
 391:lvgl/src/lv_widgets/lv_tabview.c **** #endif
 392:lvgl/src/lv_widgets/lv_tabview.c ****     {
 393:lvgl/src/lv_widgets/lv_tabview.c ****         switch(ext->btns_pos) {
 394:lvgl/src/lv_widgets/lv_tabview.c ****             default: /*default case is prevented in lv_tabview_set_btns_pos(), but here for safety*
 395:lvgl/src/lv_widgets/lv_tabview.c ****             case LV_TABVIEW_TAB_POS_NONE:
 396:lvgl/src/lv_widgets/lv_tabview.c ****                 break;
 397:lvgl/src/lv_widgets/lv_tabview.c ****             case LV_TABVIEW_TAB_POS_TOP:
 398:lvgl/src/lv_widgets/lv_tabview.c ****             case LV_TABVIEW_TAB_POS_BOTTOM:
 399:lvgl/src/lv_widgets/lv_tabview.c ****                 lv_obj_set_x(ext->indic, indic_pos);
 400:lvgl/src/lv_widgets/lv_tabview.c ****                 break;
 401:lvgl/src/lv_widgets/lv_tabview.c ****             case LV_TABVIEW_TAB_POS_LEFT:
 402:lvgl/src/lv_widgets/lv_tabview.c ****             case LV_TABVIEW_TAB_POS_RIGHT:
 403:lvgl/src/lv_widgets/lv_tabview.c ****                 lv_obj_set_y(ext->indic, indic_pos);
 404:lvgl/src/lv_widgets/lv_tabview.c ****                 break;
 405:lvgl/src/lv_widgets/lv_tabview.c ****         }
 406:lvgl/src/lv_widgets/lv_tabview.c ****     }
 407:lvgl/src/lv_widgets/lv_tabview.c **** #if LV_USE_ANIMATION
 408:lvgl/src/lv_widgets/lv_tabview.c ****     else {
 409:lvgl/src/lv_widgets/lv_tabview.c ****         lv_anim_t a;
 410:lvgl/src/lv_widgets/lv_tabview.c ****         lv_anim_init(&a);
 411:lvgl/src/lv_widgets/lv_tabview.c ****         lv_anim_set_var(&a, ext->indic);
 412:lvgl/src/lv_widgets/lv_tabview.c ****         lv_anim_set_time(&a, ext->anim_time);
 413:lvgl/src/lv_widgets/lv_tabview.c **** 
 414:lvgl/src/lv_widgets/lv_tabview.c ****         switch(ext->btns_pos) {
 415:lvgl/src/lv_widgets/lv_tabview.c ****             default: /*default case is prevented in lv_tabview_set_btns_pos(), but here for safety*
 416:lvgl/src/lv_widgets/lv_tabview.c ****             case LV_TABVIEW_TAB_POS_NONE:
 417:lvgl/src/lv_widgets/lv_tabview.c ****                 break;
 418:lvgl/src/lv_widgets/lv_tabview.c ****             case LV_TABVIEW_TAB_POS_TOP:
 419:lvgl/src/lv_widgets/lv_tabview.c ****             case LV_TABVIEW_TAB_POS_BOTTOM:
 420:lvgl/src/lv_widgets/lv_tabview.c ****                 lv_anim_set_exec_cb(&a, (lv_anim_exec_xcb_t)lv_obj_set_x);
 421:lvgl/src/lv_widgets/lv_tabview.c ****                 lv_anim_set_values(&a, lv_obj_get_x(ext->indic), indic_pos);
 422:lvgl/src/lv_widgets/lv_tabview.c ****                 break;
 423:lvgl/src/lv_widgets/lv_tabview.c ****             case LV_TABVIEW_TAB_POS_LEFT:
 424:lvgl/src/lv_widgets/lv_tabview.c ****             case LV_TABVIEW_TAB_POS_RIGHT:
 425:lvgl/src/lv_widgets/lv_tabview.c ****                 lv_anim_set_exec_cb(&a, (lv_anim_exec_xcb_t)lv_obj_set_y);
 426:lvgl/src/lv_widgets/lv_tabview.c ****                 lv_anim_set_values(&a, lv_obj_get_y(ext->indic), indic_pos);
 427:lvgl/src/lv_widgets/lv_tabview.c ****                 break;
 428:lvgl/src/lv_widgets/lv_tabview.c ****         }
 429:lvgl/src/lv_widgets/lv_tabview.c **** 
ARM GAS  D:\Temp\ccnA29ZW.s 			page 9


 430:lvgl/src/lv_widgets/lv_tabview.c ****         lv_anim_start(&a);
 431:lvgl/src/lv_widgets/lv_tabview.c ****     }
 432:lvgl/src/lv_widgets/lv_tabview.c **** #endif
 433:lvgl/src/lv_widgets/lv_tabview.c **** 
 434:lvgl/src/lv_widgets/lv_tabview.c ****     lv_btnmatrix_set_btn_ctrl(ext->btns, ext->tab_cur, LV_BTNMATRIX_CTRL_CHECK_STATE);
 435:lvgl/src/lv_widgets/lv_tabview.c **** }
 436:lvgl/src/lv_widgets/lv_tabview.c **** 
 437:lvgl/src/lv_widgets/lv_tabview.c **** /**
 438:lvgl/src/lv_widgets/lv_tabview.c ****  * Set the name of a tab.
 439:lvgl/src/lv_widgets/lv_tabview.c ****  * @param tabview pointer to Tab view object
 440:lvgl/src/lv_widgets/lv_tabview.c ****  * @param id index of the tab the name should be set
 441:lvgl/src/lv_widgets/lv_tabview.c ****  * @param name new tab name
 442:lvgl/src/lv_widgets/lv_tabview.c ****  */
 443:lvgl/src/lv_widgets/lv_tabview.c **** void lv_tabview_set_tab_name(lv_obj_t * tabview, uint16_t id, char * name)
 444:lvgl/src/lv_widgets/lv_tabview.c **** {
 445:lvgl/src/lv_widgets/lv_tabview.c ****     LV_ASSERT_OBJ(tabview, LV_OBJX_NAME);
 446:lvgl/src/lv_widgets/lv_tabview.c **** 
 447:lvgl/src/lv_widgets/lv_tabview.c ****     /* get tabview's ext pointer which contains the tab name pointer list */
 448:lvgl/src/lv_widgets/lv_tabview.c ****     lv_tabview_ext_t * ext = lv_obj_get_ext_attr(tabview);
 449:lvgl/src/lv_widgets/lv_tabview.c **** 
 450:lvgl/src/lv_widgets/lv_tabview.c ****     /* check for valid tab index */
 451:lvgl/src/lv_widgets/lv_tabview.c ****     if(ext->tab_cnt > id) {
 452:lvgl/src/lv_widgets/lv_tabview.c ****         /* reallocate memory for new tab name (use reallocate due to mostly the size didn't change 
 453:lvgl/src/lv_widgets/lv_tabview.c ****         char * str = lv_mem_realloc((void *)ext->tab_name_ptr[id], strlen(name) + 1);
 454:lvgl/src/lv_widgets/lv_tabview.c ****         LV_ASSERT_MEM(str);
 455:lvgl/src/lv_widgets/lv_tabview.c **** 
 456:lvgl/src/lv_widgets/lv_tabview.c ****         /* store new tab name at allocated memory */
 457:lvgl/src/lv_widgets/lv_tabview.c ****         strcpy(str, name);
 458:lvgl/src/lv_widgets/lv_tabview.c ****         /* update pointer  */
 459:lvgl/src/lv_widgets/lv_tabview.c ****         ext->tab_name_ptr[id] = str;
 460:lvgl/src/lv_widgets/lv_tabview.c **** 
 461:lvgl/src/lv_widgets/lv_tabview.c ****         /* force redrawing of the tab headers */
 462:lvgl/src/lv_widgets/lv_tabview.c ****         lv_obj_invalidate(ext->btns);
 463:lvgl/src/lv_widgets/lv_tabview.c ****     }
 464:lvgl/src/lv_widgets/lv_tabview.c **** }
 465:lvgl/src/lv_widgets/lv_tabview.c **** 
 466:lvgl/src/lv_widgets/lv_tabview.c **** /**
 467:lvgl/src/lv_widgets/lv_tabview.c ****  * Set the animation time of tab view when a new tab is loaded
 468:lvgl/src/lv_widgets/lv_tabview.c ****  * @param tabview pointer to Tab view object
 469:lvgl/src/lv_widgets/lv_tabview.c ****  * @param anim_time_ms time of animation in milliseconds
 470:lvgl/src/lv_widgets/lv_tabview.c ****  */
 471:lvgl/src/lv_widgets/lv_tabview.c **** void lv_tabview_set_anim_time(lv_obj_t * tabview, uint16_t anim_time)
 472:lvgl/src/lv_widgets/lv_tabview.c **** {
 473:lvgl/src/lv_widgets/lv_tabview.c ****     LV_ASSERT_OBJ(tabview, LV_OBJX_NAME);
 474:lvgl/src/lv_widgets/lv_tabview.c **** 
 475:lvgl/src/lv_widgets/lv_tabview.c **** #if LV_USE_ANIMATION
 476:lvgl/src/lv_widgets/lv_tabview.c ****     lv_tabview_ext_t * ext = lv_obj_get_ext_attr(tabview);
 477:lvgl/src/lv_widgets/lv_tabview.c ****     ext->anim_time         = anim_time;
 478:lvgl/src/lv_widgets/lv_tabview.c **** #else
 479:lvgl/src/lv_widgets/lv_tabview.c ****     (void)tabview;
 480:lvgl/src/lv_widgets/lv_tabview.c ****     (void)anim_time;
 481:lvgl/src/lv_widgets/lv_tabview.c **** #endif
 482:lvgl/src/lv_widgets/lv_tabview.c **** }
 483:lvgl/src/lv_widgets/lv_tabview.c **** 
 484:lvgl/src/lv_widgets/lv_tabview.c **** /**
 485:lvgl/src/lv_widgets/lv_tabview.c ****  * Set the position of tab select buttons
 486:lvgl/src/lv_widgets/lv_tabview.c ****  * @param tabview pointer to a tan view object
ARM GAS  D:\Temp\ccnA29ZW.s 			page 10


 487:lvgl/src/lv_widgets/lv_tabview.c ****  * @param btns_pos which button position
 488:lvgl/src/lv_widgets/lv_tabview.c ****  */
 489:lvgl/src/lv_widgets/lv_tabview.c **** void lv_tabview_set_btns_pos(lv_obj_t * tabview, lv_tabview_btns_pos_t btns_pos)
 490:lvgl/src/lv_widgets/lv_tabview.c **** {
 491:lvgl/src/lv_widgets/lv_tabview.c ****     if(btns_pos != LV_TABVIEW_TAB_POS_NONE &&
 492:lvgl/src/lv_widgets/lv_tabview.c ****        btns_pos != LV_TABVIEW_TAB_POS_TOP &&
 493:lvgl/src/lv_widgets/lv_tabview.c ****        btns_pos != LV_TABVIEW_TAB_POS_BOTTOM &&
 494:lvgl/src/lv_widgets/lv_tabview.c ****        btns_pos != LV_TABVIEW_TAB_POS_LEFT &&
 495:lvgl/src/lv_widgets/lv_tabview.c ****        btns_pos != LV_TABVIEW_TAB_POS_RIGHT) {
 496:lvgl/src/lv_widgets/lv_tabview.c ****         LV_LOG_WARN("lv_tabview_set_btns_pos: unexpected button position");
 497:lvgl/src/lv_widgets/lv_tabview.c ****         return;
 498:lvgl/src/lv_widgets/lv_tabview.c ****     }
 499:lvgl/src/lv_widgets/lv_tabview.c ****     LV_ASSERT_OBJ(tabview, LV_OBJX_NAME);
 500:lvgl/src/lv_widgets/lv_tabview.c **** 
 501:lvgl/src/lv_widgets/lv_tabview.c ****     lv_tabview_ext_t * ext = lv_obj_get_ext_attr(tabview);
 502:lvgl/src/lv_widgets/lv_tabview.c **** 
 503:lvgl/src/lv_widgets/lv_tabview.c ****     ext->btns_pos = btns_pos;
 504:lvgl/src/lv_widgets/lv_tabview.c ****     tabview_realign(tabview);
 505:lvgl/src/lv_widgets/lv_tabview.c **** }
 506:lvgl/src/lv_widgets/lv_tabview.c **** 
 507:lvgl/src/lv_widgets/lv_tabview.c **** /*=====================
 508:lvgl/src/lv_widgets/lv_tabview.c ****  * Getter functions
 509:lvgl/src/lv_widgets/lv_tabview.c ****  *====================*/
 510:lvgl/src/lv_widgets/lv_tabview.c **** 
 511:lvgl/src/lv_widgets/lv_tabview.c **** /**
 512:lvgl/src/lv_widgets/lv_tabview.c ****  * Get the index of the currently active tab
 513:lvgl/src/lv_widgets/lv_tabview.c ****  * @param tabview pointer to Tab view object
 514:lvgl/src/lv_widgets/lv_tabview.c ****  * @return the active btn index
 515:lvgl/src/lv_widgets/lv_tabview.c ****  */
 516:lvgl/src/lv_widgets/lv_tabview.c **** uint16_t lv_tabview_get_tab_act(const lv_obj_t * tabview)
 517:lvgl/src/lv_widgets/lv_tabview.c **** {
 518:lvgl/src/lv_widgets/lv_tabview.c ****     LV_ASSERT_OBJ(tabview, LV_OBJX_NAME);
 519:lvgl/src/lv_widgets/lv_tabview.c **** 
 520:lvgl/src/lv_widgets/lv_tabview.c ****     lv_tabview_ext_t * ext = lv_obj_get_ext_attr(tabview);
 521:lvgl/src/lv_widgets/lv_tabview.c ****     return ext->tab_cur;
 522:lvgl/src/lv_widgets/lv_tabview.c **** }
 523:lvgl/src/lv_widgets/lv_tabview.c **** 
 524:lvgl/src/lv_widgets/lv_tabview.c **** /**
 525:lvgl/src/lv_widgets/lv_tabview.c ****  * Get the number of tabs
 526:lvgl/src/lv_widgets/lv_tabview.c ****  * @param tabview pointer to Tab view object
 527:lvgl/src/lv_widgets/lv_tabview.c ****  * @return btn count
 528:lvgl/src/lv_widgets/lv_tabview.c ****  */
 529:lvgl/src/lv_widgets/lv_tabview.c **** uint16_t lv_tabview_get_tab_count(const lv_obj_t * tabview)
 530:lvgl/src/lv_widgets/lv_tabview.c **** {
 531:lvgl/src/lv_widgets/lv_tabview.c ****     LV_ASSERT_OBJ(tabview, LV_OBJX_NAME);
 532:lvgl/src/lv_widgets/lv_tabview.c **** 
 533:lvgl/src/lv_widgets/lv_tabview.c ****     lv_tabview_ext_t * ext = lv_obj_get_ext_attr(tabview);
 534:lvgl/src/lv_widgets/lv_tabview.c ****     return ext->tab_cnt;
 535:lvgl/src/lv_widgets/lv_tabview.c **** }
 536:lvgl/src/lv_widgets/lv_tabview.c **** 
 537:lvgl/src/lv_widgets/lv_tabview.c **** /**
 538:lvgl/src/lv_widgets/lv_tabview.c ****  * Get the page (content area) of a tab
 539:lvgl/src/lv_widgets/lv_tabview.c ****  * @param tabview pointer to Tab view object
 540:lvgl/src/lv_widgets/lv_tabview.c ****  * @param id index of the btn (>= 0)
 541:lvgl/src/lv_widgets/lv_tabview.c ****  * @return pointer to page (lv_page) object
 542:lvgl/src/lv_widgets/lv_tabview.c ****  */
 543:lvgl/src/lv_widgets/lv_tabview.c **** lv_obj_t * lv_tabview_get_tab(const lv_obj_t * tabview, uint16_t id)
ARM GAS  D:\Temp\ccnA29ZW.s 			page 11


 544:lvgl/src/lv_widgets/lv_tabview.c **** {
 545:lvgl/src/lv_widgets/lv_tabview.c ****     LV_ASSERT_OBJ(tabview, LV_OBJX_NAME);
 546:lvgl/src/lv_widgets/lv_tabview.c **** 
 547:lvgl/src/lv_widgets/lv_tabview.c ****     lv_tabview_ext_t * ext = lv_obj_get_ext_attr(tabview);
 548:lvgl/src/lv_widgets/lv_tabview.c ****     lv_obj_t * content_scrl = lv_page_get_scrollable(ext->content);
 549:lvgl/src/lv_widgets/lv_tabview.c ****     uint16_t i             = 0;
 550:lvgl/src/lv_widgets/lv_tabview.c ****     lv_obj_t * page        = lv_obj_get_child_back(content_scrl, NULL);
 551:lvgl/src/lv_widgets/lv_tabview.c **** 
 552:lvgl/src/lv_widgets/lv_tabview.c ****     while(page != NULL && i != id) {
 553:lvgl/src/lv_widgets/lv_tabview.c ****         if(lv_obj_get_signal_cb(page) == page_signal) i++;
 554:lvgl/src/lv_widgets/lv_tabview.c ****         page = lv_obj_get_child_back(content_scrl, page);
 555:lvgl/src/lv_widgets/lv_tabview.c ****     }
 556:lvgl/src/lv_widgets/lv_tabview.c **** 
 557:lvgl/src/lv_widgets/lv_tabview.c ****     if(i == id) return page;
 558:lvgl/src/lv_widgets/lv_tabview.c **** 
 559:lvgl/src/lv_widgets/lv_tabview.c ****     return NULL;
 560:lvgl/src/lv_widgets/lv_tabview.c **** }
 561:lvgl/src/lv_widgets/lv_tabview.c **** 
 562:lvgl/src/lv_widgets/lv_tabview.c **** /**
 563:lvgl/src/lv_widgets/lv_tabview.c ****  * Get the animation time of tab view when a new tab is loaded
 564:lvgl/src/lv_widgets/lv_tabview.c ****  * @param tabview pointer to Tab view object
 565:lvgl/src/lv_widgets/lv_tabview.c ****  * @return time of animation in milliseconds
 566:lvgl/src/lv_widgets/lv_tabview.c ****  */
 567:lvgl/src/lv_widgets/lv_tabview.c **** uint16_t lv_tabview_get_anim_time(const lv_obj_t * tabview)
 568:lvgl/src/lv_widgets/lv_tabview.c **** {
 569:lvgl/src/lv_widgets/lv_tabview.c ****     LV_ASSERT_OBJ(tabview, LV_OBJX_NAME);
 570:lvgl/src/lv_widgets/lv_tabview.c **** 
 571:lvgl/src/lv_widgets/lv_tabview.c **** #if LV_USE_ANIMATION
 572:lvgl/src/lv_widgets/lv_tabview.c ****     lv_tabview_ext_t * ext = lv_obj_get_ext_attr(tabview);
 573:lvgl/src/lv_widgets/lv_tabview.c ****     return ext->anim_time;
 574:lvgl/src/lv_widgets/lv_tabview.c **** #else
 575:lvgl/src/lv_widgets/lv_tabview.c ****     (void)tabview;
 576:lvgl/src/lv_widgets/lv_tabview.c ****     return 0;
 577:lvgl/src/lv_widgets/lv_tabview.c **** #endif
 578:lvgl/src/lv_widgets/lv_tabview.c **** }
 579:lvgl/src/lv_widgets/lv_tabview.c **** 
 580:lvgl/src/lv_widgets/lv_tabview.c **** /**
 581:lvgl/src/lv_widgets/lv_tabview.c ****  * Get position of tab select buttons
 582:lvgl/src/lv_widgets/lv_tabview.c ****  * @param tabview pointer to a ab view object
 583:lvgl/src/lv_widgets/lv_tabview.c ****  */
 584:lvgl/src/lv_widgets/lv_tabview.c **** lv_tabview_btns_pos_t lv_tabview_get_btns_pos(const lv_obj_t * tabview)
 585:lvgl/src/lv_widgets/lv_tabview.c **** {
 586:lvgl/src/lv_widgets/lv_tabview.c ****     LV_ASSERT_OBJ(tabview, LV_OBJX_NAME);
 587:lvgl/src/lv_widgets/lv_tabview.c **** 
 588:lvgl/src/lv_widgets/lv_tabview.c ****     lv_tabview_ext_t * ext = lv_obj_get_ext_attr(tabview);
 589:lvgl/src/lv_widgets/lv_tabview.c ****     return ext->btns_pos;
 590:lvgl/src/lv_widgets/lv_tabview.c **** }
 591:lvgl/src/lv_widgets/lv_tabview.c **** 
 592:lvgl/src/lv_widgets/lv_tabview.c **** /**********************
 593:lvgl/src/lv_widgets/lv_tabview.c ****  *   STATIC FUNCTIONS
 594:lvgl/src/lv_widgets/lv_tabview.c ****  **********************/
 595:lvgl/src/lv_widgets/lv_tabview.c **** 
 596:lvgl/src/lv_widgets/lv_tabview.c **** /**
 597:lvgl/src/lv_widgets/lv_tabview.c ****  * Signal function of the Tab view
 598:lvgl/src/lv_widgets/lv_tabview.c ****  * @param tabview pointer to a Tab view object
 599:lvgl/src/lv_widgets/lv_tabview.c ****  * @param sign a signal type from lv_signal_t enum
 600:lvgl/src/lv_widgets/lv_tabview.c ****  * @param param pointer to a signal specific variable
ARM GAS  D:\Temp\ccnA29ZW.s 			page 12


 601:lvgl/src/lv_widgets/lv_tabview.c ****  * @return LV_RES_OK: the object is not deleted in the function; LV_RES_INV: the object is deleted
 602:lvgl/src/lv_widgets/lv_tabview.c ****  */
 603:lvgl/src/lv_widgets/lv_tabview.c **** static lv_res_t lv_tabview_signal(lv_obj_t * tabview, lv_signal_t sign, void * param)
 604:lvgl/src/lv_widgets/lv_tabview.c **** {
 605:lvgl/src/lv_widgets/lv_tabview.c ****     lv_res_t res;
 606:lvgl/src/lv_widgets/lv_tabview.c ****     if(sign == LV_SIGNAL_GET_STYLE) {
 607:lvgl/src/lv_widgets/lv_tabview.c ****         lv_get_style_info_t * info = param;
 608:lvgl/src/lv_widgets/lv_tabview.c ****         info->result = lv_tabview_get_style(tabview, info->part);
 609:lvgl/src/lv_widgets/lv_tabview.c ****         if(info->result != NULL) return LV_RES_OK;
 610:lvgl/src/lv_widgets/lv_tabview.c ****         else return ancestor_signal(tabview, sign, param);
 611:lvgl/src/lv_widgets/lv_tabview.c ****     }
 612:lvgl/src/lv_widgets/lv_tabview.c ****     else if(sign == LV_SIGNAL_GET_STATE_DSC) {
 613:lvgl/src/lv_widgets/lv_tabview.c ****         lv_tabview_ext_t * ext = lv_obj_get_ext_attr(tabview);
 614:lvgl/src/lv_widgets/lv_tabview.c ****         lv_get_state_info_t * info = param;
 615:lvgl/src/lv_widgets/lv_tabview.c ****         if(info->part == LV_TABVIEW_PART_TAB_BG) info->result = lv_obj_get_state(ext->btns, LV_BTNM
 616:lvgl/src/lv_widgets/lv_tabview.c ****         else if(info->part == LV_TABVIEW_PART_TAB_BTN) info->result = lv_obj_get_state(ext->btns, L
 617:lvgl/src/lv_widgets/lv_tabview.c ****         else if(info->part == LV_TABVIEW_PART_INDIC) info->result = lv_obj_get_state(ext->indic, LV
 618:lvgl/src/lv_widgets/lv_tabview.c ****         else if(info->part == LV_TABVIEW_PART_BG_SCROLLABLE) info->result = lv_obj_get_state(ext->c
 619:lvgl/src/lv_widgets/lv_tabview.c ****                                                                                                  LV
 620:lvgl/src/lv_widgets/lv_tabview.c ****         return LV_RES_OK;
 621:lvgl/src/lv_widgets/lv_tabview.c ****     }
 622:lvgl/src/lv_widgets/lv_tabview.c **** 
 623:lvgl/src/lv_widgets/lv_tabview.c ****     /* Include the ancient signal function */
 624:lvgl/src/lv_widgets/lv_tabview.c ****     res = ancestor_signal(tabview, sign, param);
 625:lvgl/src/lv_widgets/lv_tabview.c ****     if(res != LV_RES_OK) return res;
 626:lvgl/src/lv_widgets/lv_tabview.c ****     if(sign == LV_SIGNAL_GET_TYPE) return lv_obj_handle_get_type_signal(param, LV_OBJX_NAME);
 627:lvgl/src/lv_widgets/lv_tabview.c **** 
 628:lvgl/src/lv_widgets/lv_tabview.c ****     lv_tabview_ext_t * ext = lv_obj_get_ext_attr(tabview);
 629:lvgl/src/lv_widgets/lv_tabview.c ****     if(sign == LV_SIGNAL_CLEANUP) {
 630:lvgl/src/lv_widgets/lv_tabview.c ****         uint8_t i;
 631:lvgl/src/lv_widgets/lv_tabview.c ****         for(i = 0; ext->tab_name_ptr[i][0] != '\0' && ext->tab_name_ptr[i][0] != '\n'; i++) lv_mem_
 632:lvgl/src/lv_widgets/lv_tabview.c **** 
 633:lvgl/src/lv_widgets/lv_tabview.c ****         lv_mem_free(ext->tab_name_ptr);
 634:lvgl/src/lv_widgets/lv_tabview.c ****         ext->tab_name_ptr = NULL;
 635:lvgl/src/lv_widgets/lv_tabview.c ****         ext->btns         = NULL; /*These objects were children so they are already invalid*/
 636:lvgl/src/lv_widgets/lv_tabview.c ****         ext->content      = NULL;
 637:lvgl/src/lv_widgets/lv_tabview.c ****     }
 638:lvgl/src/lv_widgets/lv_tabview.c ****     else if(sign == LV_SIGNAL_STYLE_CHG) {
 639:lvgl/src/lv_widgets/lv_tabview.c ****         /*Be sure the buttons are updated because correct button size is required in `tabview_reali
 640:lvgl/src/lv_widgets/lv_tabview.c ****         lv_signal_send(ext->btns, LV_SIGNAL_STYLE_CHG, NULL);
 641:lvgl/src/lv_widgets/lv_tabview.c **** 
 642:lvgl/src/lv_widgets/lv_tabview.c ****         tabview_realign(tabview);
 643:lvgl/src/lv_widgets/lv_tabview.c ****     }
 644:lvgl/src/lv_widgets/lv_tabview.c ****     else if(sign == LV_SIGNAL_COORD_CHG) {
 645:lvgl/src/lv_widgets/lv_tabview.c ****         if(ext->content != NULL && (lv_obj_get_width(tabview) != lv_area_get_width(param) ||
 646:lvgl/src/lv_widgets/lv_tabview.c ****                                     lv_obj_get_height(tabview) != lv_area_get_height(param))) {
 647:lvgl/src/lv_widgets/lv_tabview.c ****             tabview_realign(tabview);
 648:lvgl/src/lv_widgets/lv_tabview.c ****         }
 649:lvgl/src/lv_widgets/lv_tabview.c ****     }
 650:lvgl/src/lv_widgets/lv_tabview.c ****     else if(sign == LV_SIGNAL_RELEASED) {
 651:lvgl/src/lv_widgets/lv_tabview.c **** #if LV_USE_GROUP
 652:lvgl/src/lv_widgets/lv_tabview.c ****         /*If released by a KEYPAD or ENCODER then really the tab buttons should be released.
 653:lvgl/src/lv_widgets/lv_tabview.c ****          * So simulate a CLICK on the tab buttons*/
 654:lvgl/src/lv_widgets/lv_tabview.c ****         lv_indev_t * indev         = lv_indev_get_act();
 655:lvgl/src/lv_widgets/lv_tabview.c ****         lv_indev_type_t indev_type = lv_indev_get_type(indev);
 656:lvgl/src/lv_widgets/lv_tabview.c ****         if(indev_type == LV_INDEV_TYPE_KEYPAD ||
 657:lvgl/src/lv_widgets/lv_tabview.c ****            (indev_type == LV_INDEV_TYPE_ENCODER && lv_group_get_editing(lv_obj_get_group(tabview)))
ARM GAS  D:\Temp\ccnA29ZW.s 			page 13


 658:lvgl/src/lv_widgets/lv_tabview.c ****             lv_event_send(ext->btns, LV_EVENT_CLICKED, lv_event_get_data());
 659:lvgl/src/lv_widgets/lv_tabview.c ****         }
 660:lvgl/src/lv_widgets/lv_tabview.c **** #endif
 661:lvgl/src/lv_widgets/lv_tabview.c ****     }
 662:lvgl/src/lv_widgets/lv_tabview.c ****     else if(sign == LV_SIGNAL_GET_EDITABLE) {
 663:lvgl/src/lv_widgets/lv_tabview.c **** #if LV_USE_GROUP
 664:lvgl/src/lv_widgets/lv_tabview.c ****         bool * editable = (bool *)param;
 665:lvgl/src/lv_widgets/lv_tabview.c ****         *editable       = true;
 666:lvgl/src/lv_widgets/lv_tabview.c **** #endif
 667:lvgl/src/lv_widgets/lv_tabview.c ****     }
 668:lvgl/src/lv_widgets/lv_tabview.c **** 
 669:lvgl/src/lv_widgets/lv_tabview.c ****     if(sign == LV_SIGNAL_FOCUS || sign == LV_SIGNAL_DEFOCUS ||
 670:lvgl/src/lv_widgets/lv_tabview.c **** #if LV_USE_GROUP
 671:lvgl/src/lv_widgets/lv_tabview.c ****        sign == LV_SIGNAL_CONTROL ||
 672:lvgl/src/lv_widgets/lv_tabview.c **** #endif
 673:lvgl/src/lv_widgets/lv_tabview.c ****        sign == LV_SIGNAL_PRESSED || sign == LV_SIGNAL_RELEASED) {
 674:lvgl/src/lv_widgets/lv_tabview.c **** 
 675:lvgl/src/lv_widgets/lv_tabview.c ****         /* The button matrix is not in a group (the tab view is in it) but it should handle the
 676:lvgl/src/lv_widgets/lv_tabview.c ****          * group signals. So propagate the related signals to the button matrix manually*/
 677:lvgl/src/lv_widgets/lv_tabview.c ****         ext->btns->signal_cb(ext->btns, sign, param);
 678:lvgl/src/lv_widgets/lv_tabview.c **** 
 679:lvgl/src/lv_widgets/lv_tabview.c ****         /*Make the active tab's button focused*/
 680:lvgl/src/lv_widgets/lv_tabview.c ****         if(sign == LV_SIGNAL_FOCUS) {
 681:lvgl/src/lv_widgets/lv_tabview.c ****             lv_btnmatrix_set_focused_btn(ext->btns, ext->tab_cur);
 682:lvgl/src/lv_widgets/lv_tabview.c ****         }
 683:lvgl/src/lv_widgets/lv_tabview.c **** 
 684:lvgl/src/lv_widgets/lv_tabview.c ****         if(sign == LV_SIGNAL_FOCUS || sign == LV_SIGNAL_DEFOCUS) {
 685:lvgl/src/lv_widgets/lv_tabview.c ****             lv_state_t state = lv_obj_get_state(tabview, LV_TABVIEW_PART_BG);
 686:lvgl/src/lv_widgets/lv_tabview.c ****             if(state & LV_STATE_FOCUSED) {
 687:lvgl/src/lv_widgets/lv_tabview.c ****                 lv_obj_set_state(ext->btns, LV_STATE_FOCUSED);
 688:lvgl/src/lv_widgets/lv_tabview.c ****                 lv_obj_set_state(ext->indic, LV_STATE_FOCUSED);
 689:lvgl/src/lv_widgets/lv_tabview.c ****             }
 690:lvgl/src/lv_widgets/lv_tabview.c ****             else {
 691:lvgl/src/lv_widgets/lv_tabview.c ****                 lv_obj_clear_state(ext->btns, LV_STATE_FOCUSED);
 692:lvgl/src/lv_widgets/lv_tabview.c ****                 lv_obj_clear_state(ext->indic, LV_STATE_FOCUSED);
 693:lvgl/src/lv_widgets/lv_tabview.c **** 
 694:lvgl/src/lv_widgets/lv_tabview.c ****             }
 695:lvgl/src/lv_widgets/lv_tabview.c ****             if(state & LV_STATE_EDITED) {
 696:lvgl/src/lv_widgets/lv_tabview.c ****                 lv_obj_set_state(ext->btns, LV_STATE_EDITED);
 697:lvgl/src/lv_widgets/lv_tabview.c ****                 lv_obj_set_state(ext->indic, LV_STATE_EDITED);
 698:lvgl/src/lv_widgets/lv_tabview.c ****             }
 699:lvgl/src/lv_widgets/lv_tabview.c ****             else {
 700:lvgl/src/lv_widgets/lv_tabview.c ****                 lv_obj_clear_state(ext->btns, LV_STATE_EDITED);
 701:lvgl/src/lv_widgets/lv_tabview.c ****                 lv_obj_clear_state(ext->indic, LV_STATE_EDITED);
 702:lvgl/src/lv_widgets/lv_tabview.c **** 
 703:lvgl/src/lv_widgets/lv_tabview.c ****             }
 704:lvgl/src/lv_widgets/lv_tabview.c ****         }
 705:lvgl/src/lv_widgets/lv_tabview.c ****     }
 706:lvgl/src/lv_widgets/lv_tabview.c **** 
 707:lvgl/src/lv_widgets/lv_tabview.c ****     return res;
 708:lvgl/src/lv_widgets/lv_tabview.c **** }
 709:lvgl/src/lv_widgets/lv_tabview.c **** 
 710:lvgl/src/lv_widgets/lv_tabview.c **** /**
 711:lvgl/src/lv_widgets/lv_tabview.c ****  * Signal function of a tab views main scrollable area
 712:lvgl/src/lv_widgets/lv_tabview.c ****  * @param tab pointer to a tab page object
 713:lvgl/src/lv_widgets/lv_tabview.c ****  * @param sign a signal type from lv_signal_t enum
 714:lvgl/src/lv_widgets/lv_tabview.c ****  * @param param pointer to a signal specific variable
ARM GAS  D:\Temp\ccnA29ZW.s 			page 14


 715:lvgl/src/lv_widgets/lv_tabview.c ****  * @return LV_RES_OK: the object is not deleted in the function; LV_RES_INV: the object is deleted
 716:lvgl/src/lv_widgets/lv_tabview.c ****  */
 717:lvgl/src/lv_widgets/lv_tabview.c **** static lv_res_t tabview_scrl_signal(lv_obj_t * tabview_scrl, lv_signal_t sign, void * param)
 718:lvgl/src/lv_widgets/lv_tabview.c **** {
 719:lvgl/src/lv_widgets/lv_tabview.c ****     lv_res_t res;
 720:lvgl/src/lv_widgets/lv_tabview.c **** 
 721:lvgl/src/lv_widgets/lv_tabview.c ****     /* Include the ancient signal function */
 722:lvgl/src/lv_widgets/lv_tabview.c ****     res = ancestor_scrl_signal(tabview_scrl, sign, param);
 723:lvgl/src/lv_widgets/lv_tabview.c ****     if(res != LV_RES_OK) return res;
 724:lvgl/src/lv_widgets/lv_tabview.c ****     if(sign == LV_SIGNAL_GET_TYPE) return lv_obj_handle_get_type_signal(param, "");
 725:lvgl/src/lv_widgets/lv_tabview.c **** 
 726:lvgl/src/lv_widgets/lv_tabview.c ****     lv_obj_t * cont    = lv_obj_get_parent(tabview_scrl);
 727:lvgl/src/lv_widgets/lv_tabview.c ****     lv_obj_t * tabview = lv_obj_get_parent(cont);
 728:lvgl/src/lv_widgets/lv_tabview.c **** 
 729:lvgl/src/lv_widgets/lv_tabview.c ****     if(sign == LV_SIGNAL_DRAG_THROW_BEGIN) {
 730:lvgl/src/lv_widgets/lv_tabview.c ****         lv_tabview_ext_t * ext = lv_obj_get_ext_attr(tabview);
 731:lvgl/src/lv_widgets/lv_tabview.c **** 
 732:lvgl/src/lv_widgets/lv_tabview.c ****         lv_indev_t * indev = lv_indev_get_act();
 733:lvgl/src/lv_widgets/lv_tabview.c ****         lv_point_t point_act;
 734:lvgl/src/lv_widgets/lv_tabview.c ****         lv_indev_get_point(indev, &point_act);
 735:lvgl/src/lv_widgets/lv_tabview.c ****         lv_point_t vect;
 736:lvgl/src/lv_widgets/lv_tabview.c ****         lv_indev_get_vect(indev, &vect);
 737:lvgl/src/lv_widgets/lv_tabview.c ****         lv_coord_t x_predict = 0;
 738:lvgl/src/lv_widgets/lv_tabview.c **** 
 739:lvgl/src/lv_widgets/lv_tabview.c ****         while(vect.x != 0) {
 740:lvgl/src/lv_widgets/lv_tabview.c ****             x_predict += vect.x;
 741:lvgl/src/lv_widgets/lv_tabview.c ****             vect.x = vect.x * (100 - LV_INDEV_DEF_DRAG_THROW) / 100;
 742:lvgl/src/lv_widgets/lv_tabview.c ****         }
 743:lvgl/src/lv_widgets/lv_tabview.c **** 
 744:lvgl/src/lv_widgets/lv_tabview.c ****         res = lv_indev_finish_drag(indev);
 745:lvgl/src/lv_widgets/lv_tabview.c ****         if(res != LV_RES_OK) return res;
 746:lvgl/src/lv_widgets/lv_tabview.c ****         lv_obj_t * tab_page = lv_tabview_get_tab(tabview, ext->tab_cur);
 747:lvgl/src/lv_widgets/lv_tabview.c ****         if(tab_page == NULL) return LV_RES_OK;
 748:lvgl/src/lv_widgets/lv_tabview.c ****         lv_coord_t page_x1  = tab_page->coords.x1 - tabview->coords.x1 + x_predict;
 749:lvgl/src/lv_widgets/lv_tabview.c ****         lv_coord_t page_x2  = page_x1 + lv_obj_get_width(tabview);
 750:lvgl/src/lv_widgets/lv_tabview.c ****         lv_coord_t threshold = lv_obj_get_width(tabview) / 2;
 751:lvgl/src/lv_widgets/lv_tabview.c **** 
 752:lvgl/src/lv_widgets/lv_tabview.c ****         lv_bidi_dir_t base_dir = lv_obj_get_base_dir(tabview);
 753:lvgl/src/lv_widgets/lv_tabview.c ****         int16_t tab_cur = ext->tab_cur;
 754:lvgl/src/lv_widgets/lv_tabview.c ****         if(page_x1 > threshold) {
 755:lvgl/src/lv_widgets/lv_tabview.c ****             if(base_dir != LV_BIDI_DIR_RTL) tab_cur--;
 756:lvgl/src/lv_widgets/lv_tabview.c ****             else tab_cur ++;
 757:lvgl/src/lv_widgets/lv_tabview.c ****         }
 758:lvgl/src/lv_widgets/lv_tabview.c ****         else if(page_x2 < threshold) {
 759:lvgl/src/lv_widgets/lv_tabview.c ****             if(base_dir != LV_BIDI_DIR_RTL) tab_cur++;
 760:lvgl/src/lv_widgets/lv_tabview.c ****             else tab_cur --;
 761:lvgl/src/lv_widgets/lv_tabview.c ****         }
 762:lvgl/src/lv_widgets/lv_tabview.c **** 
 763:lvgl/src/lv_widgets/lv_tabview.c ****         if(tab_cur > ext->tab_cnt - 1) tab_cur = ext->tab_cnt - 1;
 764:lvgl/src/lv_widgets/lv_tabview.c ****         if(tab_cur < 0) tab_cur = 0;
 765:lvgl/src/lv_widgets/lv_tabview.c **** 
 766:lvgl/src/lv_widgets/lv_tabview.c ****         uint32_t id_prev = lv_tabview_get_tab_act(tabview);
 767:lvgl/src/lv_widgets/lv_tabview.c ****         lv_tabview_set_tab_act(tabview, tab_cur, LV_ANIM_ON);
 768:lvgl/src/lv_widgets/lv_tabview.c ****         uint32_t id_new = lv_tabview_get_tab_act(tabview);
 769:lvgl/src/lv_widgets/lv_tabview.c **** 
 770:lvgl/src/lv_widgets/lv_tabview.c ****         if(id_prev != id_new) res = lv_event_send(tabview, LV_EVENT_VALUE_CHANGED, &id_prev);
 771:lvgl/src/lv_widgets/lv_tabview.c ****         if(res != LV_RES_OK) return res;
ARM GAS  D:\Temp\ccnA29ZW.s 			page 15


 772:lvgl/src/lv_widgets/lv_tabview.c **** 
 773:lvgl/src/lv_widgets/lv_tabview.c ****     }
 774:lvgl/src/lv_widgets/lv_tabview.c ****     return res;
 775:lvgl/src/lv_widgets/lv_tabview.c **** }
 776:lvgl/src/lv_widgets/lv_tabview.c **** 
 777:lvgl/src/lv_widgets/lv_tabview.c **** /**
 778:lvgl/src/lv_widgets/lv_tabview.c ****  * Get the style descriptor of a part of the object
 779:lvgl/src/lv_widgets/lv_tabview.c ****  * @param page pointer the object
 780:lvgl/src/lv_widgets/lv_tabview.c ****  * @param part the part from `lv_tabview_part_t`. (LV_TABVIEW_PART_...)
 781:lvgl/src/lv_widgets/lv_tabview.c ****  * @return pointer to the style descriptor of the specified part
 782:lvgl/src/lv_widgets/lv_tabview.c ****  */
 783:lvgl/src/lv_widgets/lv_tabview.c **** static lv_style_list_t * lv_tabview_get_style(lv_obj_t * tabview, uint8_t part)
 784:lvgl/src/lv_widgets/lv_tabview.c **** {
  29              		.loc 1 784 1 view -0
  30              		.cfi_startproc
  31              		@ args = 0, pretend = 0, frame = 0
  32              		@ frame_needed = 0, uses_anonymous_args = 0
  33              		.loc 1 784 1 is_stmt 0 view .LVU1
  34 0000 38B5     		push	{r3, r4, r5, lr}
  35              	.LCFI0:
  36              		.cfi_def_cfa_offset 16
  37              		.cfi_offset 3, -16
  38              		.cfi_offset 4, -12
  39              		.cfi_offset 5, -8
  40              		.cfi_offset 14, -4
  41 0002 0446     		mov	r4, r0
  42 0004 0D46     		mov	r5, r1
 785:lvgl/src/lv_widgets/lv_tabview.c ****     LV_ASSERT_OBJ(tabview, LV_OBJX_NAME);
  43              		.loc 1 785 5 is_stmt 1 view .LVU2
  44              		.loc 1 785 5 view .LVU3
  45 0006 FFF7FEFF 		bl	lv_debug_check_null
  46              	.LVL1:
  47              		.loc 1 785 5 is_stmt 0 view .LVU4
  48 000a 28B9     		cbnz	r0, .L2
  49              		.loc 1 785 5 is_stmt 1 discriminator 1 view .LVU5
  50              		.loc 1 785 5 discriminator 1 view .LVU6
  51 000c 2246     		mov	r2, r4
  52 000e 0023     		movs	r3, #0
  53 0010 1548     		ldr	r0, .L14
  54 0012 FFF7FEFF 		bl	lv_debug_log_error
  55              	.LVL2:
  56              	.L3:
  57              		.loc 1 785 5 discriminator 1 view .LVU7
  58              		.loc 1 785 5 discriminator 1 view .LVU8
  59 0016 FEE7     		b	.L3
  60              	.L2:
  61              		.loc 1 785 41 discriminator 2 view .LVU9
 786:lvgl/src/lv_widgets/lv_tabview.c **** 
 787:lvgl/src/lv_widgets/lv_tabview.c ****     lv_tabview_ext_t * ext = lv_obj_get_ext_attr(tabview);
  62              		.loc 1 787 5 discriminator 2 view .LVU10
  63              		.loc 1 787 30 is_stmt 0 discriminator 2 view .LVU11
  64 0018 2046     		mov	r0, r4
  65 001a FFF7FEFF 		bl	lv_obj_get_ext_attr
  66              	.LVL3:
 788:lvgl/src/lv_widgets/lv_tabview.c ****     lv_style_list_t * style_dsc_p;
  67              		.loc 1 788 5 is_stmt 1 discriminator 2 view .LVU12
 789:lvgl/src/lv_widgets/lv_tabview.c **** 
ARM GAS  D:\Temp\ccnA29ZW.s 			page 16


 790:lvgl/src/lv_widgets/lv_tabview.c ****     switch(part) {
  68              		.loc 1 790 5 discriminator 2 view .LVU13
  69 001e 412D     		cmp	r5, #65
  70 0020 18D0     		beq	.L4
  71              		.loc 1 790 5 is_stmt 0 view .LVU14
  72 0022 09D8     		bhi	.L5
  73 0024 9DB1     		cbz	r5, .L6
  74 0026 402D     		cmp	r5, #64
  75 0028 04D1     		bne	.L12
 791:lvgl/src/lv_widgets/lv_tabview.c ****         case LV_TABVIEW_PART_BG:
 792:lvgl/src/lv_widgets/lv_tabview.c ****             style_dsc_p = &tabview->style_list;
 793:lvgl/src/lv_widgets/lv_tabview.c ****             break;
 794:lvgl/src/lv_widgets/lv_tabview.c ****         case LV_TABVIEW_PART_BG_SCROLLABLE:
 795:lvgl/src/lv_widgets/lv_tabview.c ****             style_dsc_p = lv_obj_get_style_list(ext->content, LV_PAGE_PART_SCROLLABLE);
  76              		.loc 1 795 13 is_stmt 1 view .LVU15
  77              		.loc 1 795 27 is_stmt 0 view .LVU16
  78 002a 4021     		movs	r1, #64
  79 002c 8068     		ldr	r0, [r0, #8]
  80              	.LVL4:
  81              		.loc 1 795 27 view .LVU17
  82 002e FFF7FEFF 		bl	lv_obj_get_style_list
  83              	.LVL5:
 796:lvgl/src/lv_widgets/lv_tabview.c ****             break;
  84              		.loc 1 796 13 is_stmt 1 view .LVU18
  85 0032 00E0     		b	.L1
  86              	.LVL6:
  87              	.L12:
 797:lvgl/src/lv_widgets/lv_tabview.c ****         case LV_TABVIEW_PART_TAB_BG:
 798:lvgl/src/lv_widgets/lv_tabview.c ****             style_dsc_p = lv_obj_get_style_list(ext->btns, LV_BTNMATRIX_PART_BG);
 799:lvgl/src/lv_widgets/lv_tabview.c ****             break;
 800:lvgl/src/lv_widgets/lv_tabview.c ****         case LV_TABVIEW_PART_TAB_BTN:
 801:lvgl/src/lv_widgets/lv_tabview.c ****             style_dsc_p = lv_obj_get_style_list(ext->btns, LV_BTNMATRIX_PART_BTN);
 802:lvgl/src/lv_widgets/lv_tabview.c ****             break;
 803:lvgl/src/lv_widgets/lv_tabview.c ****         case LV_TABVIEW_PART_INDIC:
 804:lvgl/src/lv_widgets/lv_tabview.c ****             style_dsc_p = lv_obj_get_style_list(ext->indic, LV_OBJ_PART_MAIN);
 805:lvgl/src/lv_widgets/lv_tabview.c ****             break;
 806:lvgl/src/lv_widgets/lv_tabview.c ****         default:
 807:lvgl/src/lv_widgets/lv_tabview.c ****             style_dsc_p = NULL;
  88              		.loc 1 807 25 is_stmt 0 view .LVU19
  89 0034 0020     		movs	r0, #0
  90              	.LVL7:
  91              	.L1:
 808:lvgl/src/lv_widgets/lv_tabview.c ****     }
 809:lvgl/src/lv_widgets/lv_tabview.c **** 
 810:lvgl/src/lv_widgets/lv_tabview.c ****     return style_dsc_p;
 811:lvgl/src/lv_widgets/lv_tabview.c **** }
  92              		.loc 1 811 1 view .LVU20
  93 0036 38BD     		pop	{r3, r4, r5, pc}
  94              	.LVL8:
  95              	.L5:
 790:lvgl/src/lv_widgets/lv_tabview.c ****         case LV_TABVIEW_PART_BG:
  96              		.loc 1 790 5 view .LVU21
  97 0038 422D     		cmp	r5, #66
  98 003a 10D0     		beq	.L9
  99 003c 432D     		cmp	r5, #67
 100 003e 04D1     		bne	.L13
 804:lvgl/src/lv_widgets/lv_tabview.c ****             break;
ARM GAS  D:\Temp\ccnA29ZW.s 			page 17


 101              		.loc 1 804 13 is_stmt 1 view .LVU22
 804:lvgl/src/lv_widgets/lv_tabview.c ****             break;
 102              		.loc 1 804 27 is_stmt 0 view .LVU23
 103 0040 0021     		movs	r1, #0
 104 0042 4068     		ldr	r0, [r0, #4]
 105              	.LVL9:
 804:lvgl/src/lv_widgets/lv_tabview.c ****             break;
 106              		.loc 1 804 27 view .LVU24
 107 0044 FFF7FEFF 		bl	lv_obj_get_style_list
 108              	.LVL10:
 805:lvgl/src/lv_widgets/lv_tabview.c ****         default:
 109              		.loc 1 805 13 is_stmt 1 view .LVU25
 810:lvgl/src/lv_widgets/lv_tabview.c **** }
 110              		.loc 1 810 5 view .LVU26
 810:lvgl/src/lv_widgets/lv_tabview.c **** }
 111              		.loc 1 810 12 is_stmt 0 view .LVU27
 112 0048 F5E7     		b	.L1
 113              	.LVL11:
 114              	.L13:
 807:lvgl/src/lv_widgets/lv_tabview.c ****     }
 115              		.loc 1 807 25 view .LVU28
 116 004a 0020     		movs	r0, #0
 117              	.LVL12:
 807:lvgl/src/lv_widgets/lv_tabview.c ****     }
 118              		.loc 1 807 25 view .LVU29
 119 004c F3E7     		b	.L1
 120              	.LVL13:
 121              	.L6:
 792:lvgl/src/lv_widgets/lv_tabview.c ****             break;
 122              		.loc 1 792 13 is_stmt 1 view .LVU30
 792:lvgl/src/lv_widgets/lv_tabview.c ****             break;
 123              		.loc 1 792 25 is_stmt 0 view .LVU31
 124 004e 04F12800 		add	r0, r4, #40
 125              	.LVL14:
 793:lvgl/src/lv_widgets/lv_tabview.c ****         case LV_TABVIEW_PART_BG_SCROLLABLE:
 126              		.loc 1 793 13 is_stmt 1 view .LVU32
 127 0052 F0E7     		b	.L1
 128              	.LVL15:
 129              	.L4:
 798:lvgl/src/lv_widgets/lv_tabview.c ****             break;
 130              		.loc 1 798 13 view .LVU33
 798:lvgl/src/lv_widgets/lv_tabview.c ****             break;
 131              		.loc 1 798 27 is_stmt 0 view .LVU34
 132 0054 0021     		movs	r1, #0
 133 0056 0068     		ldr	r0, [r0]
 134              	.LVL16:
 798:lvgl/src/lv_widgets/lv_tabview.c ****             break;
 135              		.loc 1 798 27 view .LVU35
 136 0058 FFF7FEFF 		bl	lv_obj_get_style_list
 137              	.LVL17:
 799:lvgl/src/lv_widgets/lv_tabview.c ****         case LV_TABVIEW_PART_TAB_BTN:
 138              		.loc 1 799 13 is_stmt 1 view .LVU36
 139 005c EBE7     		b	.L1
 140              	.LVL18:
 141              	.L9:
 801:lvgl/src/lv_widgets/lv_tabview.c ****             break;
 142              		.loc 1 801 13 view .LVU37
ARM GAS  D:\Temp\ccnA29ZW.s 			page 18


 801:lvgl/src/lv_widgets/lv_tabview.c ****             break;
 143              		.loc 1 801 27 is_stmt 0 view .LVU38
 144 005e 0121     		movs	r1, #1
 145 0060 0068     		ldr	r0, [r0]
 146              	.LVL19:
 801:lvgl/src/lv_widgets/lv_tabview.c ****             break;
 147              		.loc 1 801 27 view .LVU39
 148 0062 FFF7FEFF 		bl	lv_obj_get_style_list
 149              	.LVL20:
 802:lvgl/src/lv_widgets/lv_tabview.c ****         case LV_TABVIEW_PART_INDIC:
 150              		.loc 1 802 13 is_stmt 1 view .LVU40
 151 0066 E6E7     		b	.L1
 152              	.L15:
 153              		.align	2
 154              	.L14:
 155 0068 00000000 		.word	.LC0
 156              		.cfi_endproc
 157              	.LFE504:
 159              		.section	.text.refr_btns_size,"ax",%progbits
 160              		.align	1
 161              		.syntax unified
 162              		.thumb
 163              		.thumb_func
 164              		.fpu fpv4-sp-d16
 166              	refr_btns_size:
 167              	.LVL21:
 168              	.LFB508:
 812:lvgl/src/lv_widgets/lv_tabview.c **** 
 813:lvgl/src/lv_widgets/lv_tabview.c **** /**
 814:lvgl/src/lv_widgets/lv_tabview.c ****  * Called when a tab button is clicked
 815:lvgl/src/lv_widgets/lv_tabview.c ****  * @param tab_btnm pointer to the tab's button matrix object
 816:lvgl/src/lv_widgets/lv_tabview.c ****  * @param event type of the event
 817:lvgl/src/lv_widgets/lv_tabview.c ****  */
 818:lvgl/src/lv_widgets/lv_tabview.c **** static void tab_btnm_event_cb(lv_obj_t * tab_btnm, lv_event_t event)
 819:lvgl/src/lv_widgets/lv_tabview.c **** {
 820:lvgl/src/lv_widgets/lv_tabview.c ****     if(event != LV_EVENT_CLICKED) return;
 821:lvgl/src/lv_widgets/lv_tabview.c **** 
 822:lvgl/src/lv_widgets/lv_tabview.c ****     uint16_t btn_id = lv_btnmatrix_get_active_btn(tab_btnm);
 823:lvgl/src/lv_widgets/lv_tabview.c ****     if(btn_id == LV_BTNMATRIX_BTN_NONE) return;
 824:lvgl/src/lv_widgets/lv_tabview.c **** 
 825:lvgl/src/lv_widgets/lv_tabview.c ****     if(lv_btnmatrix_get_btn_ctrl(tab_btnm, btn_id, LV_BTNMATRIX_CTRL_DISABLED)) return;
 826:lvgl/src/lv_widgets/lv_tabview.c **** 
 827:lvgl/src/lv_widgets/lv_tabview.c ****     lv_btnmatrix_clear_btn_ctrl_all(tab_btnm, LV_BTNMATRIX_CTRL_CHECK_STATE);
 828:lvgl/src/lv_widgets/lv_tabview.c ****     lv_btnmatrix_set_btn_ctrl(tab_btnm, btn_id, LV_BTNMATRIX_CTRL_CHECK_STATE);
 829:lvgl/src/lv_widgets/lv_tabview.c **** 
 830:lvgl/src/lv_widgets/lv_tabview.c ****     lv_obj_t * tabview = lv_obj_get_parent(tab_btnm);
 831:lvgl/src/lv_widgets/lv_tabview.c **** 
 832:lvgl/src/lv_widgets/lv_tabview.c ****     uint32_t id_prev = lv_tabview_get_tab_act(tabview);
 833:lvgl/src/lv_widgets/lv_tabview.c ****     lv_tabview_set_tab_act(tabview, btn_id, LV_ANIM_ON);
 834:lvgl/src/lv_widgets/lv_tabview.c ****     uint32_t id_new = lv_tabview_get_tab_act(tabview);
 835:lvgl/src/lv_widgets/lv_tabview.c **** 
 836:lvgl/src/lv_widgets/lv_tabview.c ****     lv_res_t res = LV_RES_OK;
 837:lvgl/src/lv_widgets/lv_tabview.c ****     if(id_prev != id_new) res = lv_event_send(tabview, LV_EVENT_VALUE_CHANGED, &id_new);
 838:lvgl/src/lv_widgets/lv_tabview.c **** 
 839:lvgl/src/lv_widgets/lv_tabview.c **** #if LV_USE_GROUP
 840:lvgl/src/lv_widgets/lv_tabview.c ****     if(lv_indev_get_type(lv_indev_get_act()) == LV_INDEV_TYPE_ENCODER) {
 841:lvgl/src/lv_widgets/lv_tabview.c ****         lv_group_set_editing(lv_obj_get_group(tabview), false);
ARM GAS  D:\Temp\ccnA29ZW.s 			page 19


 842:lvgl/src/lv_widgets/lv_tabview.c ****     }
 843:lvgl/src/lv_widgets/lv_tabview.c **** #endif
 844:lvgl/src/lv_widgets/lv_tabview.c **** 
 845:lvgl/src/lv_widgets/lv_tabview.c ****     if(res != LV_RES_OK) return;
 846:lvgl/src/lv_widgets/lv_tabview.c **** }
 847:lvgl/src/lv_widgets/lv_tabview.c **** 
 848:lvgl/src/lv_widgets/lv_tabview.c **** /**
 849:lvgl/src/lv_widgets/lv_tabview.c ****  * Realign and resize the elements of Tab view
 850:lvgl/src/lv_widgets/lv_tabview.c ****  * @param tabview pointer to a Tab view object
 851:lvgl/src/lv_widgets/lv_tabview.c ****  */
 852:lvgl/src/lv_widgets/lv_tabview.c **** static void tabview_realign(lv_obj_t * tabview)
 853:lvgl/src/lv_widgets/lv_tabview.c **** {
 854:lvgl/src/lv_widgets/lv_tabview.c ****     lv_tabview_ext_t * ext = lv_obj_get_ext_attr(tabview);
 855:lvgl/src/lv_widgets/lv_tabview.c **** 
 856:lvgl/src/lv_widgets/lv_tabview.c ****     refr_btns_size(tabview);
 857:lvgl/src/lv_widgets/lv_tabview.c ****     refr_content_size(tabview);
 858:lvgl/src/lv_widgets/lv_tabview.c ****     refr_indic_size(tabview);
 859:lvgl/src/lv_widgets/lv_tabview.c **** 
 860:lvgl/src/lv_widgets/lv_tabview.c ****     refr_align(tabview);
 861:lvgl/src/lv_widgets/lv_tabview.c **** 
 862:lvgl/src/lv_widgets/lv_tabview.c ****     lv_tabview_set_tab_act(tabview, ext->tab_cur, LV_ANIM_OFF);
 863:lvgl/src/lv_widgets/lv_tabview.c **** }
 864:lvgl/src/lv_widgets/lv_tabview.c **** 
 865:lvgl/src/lv_widgets/lv_tabview.c **** static void refr_indic_size(lv_obj_t * tabview)
 866:lvgl/src/lv_widgets/lv_tabview.c **** {
 867:lvgl/src/lv_widgets/lv_tabview.c ****     lv_tabview_ext_t * ext = lv_obj_get_ext_attr(tabview);
 868:lvgl/src/lv_widgets/lv_tabview.c ****     lv_btnmatrix_ext_t * btnm_ext = lv_obj_get_ext_attr(ext->btns);
 869:lvgl/src/lv_widgets/lv_tabview.c **** 
 870:lvgl/src/lv_widgets/lv_tabview.c ****     lv_coord_t indic_size = lv_obj_get_style_size(tabview, LV_TABVIEW_PART_INDIC);
 871:lvgl/src/lv_widgets/lv_tabview.c **** 
 872:lvgl/src/lv_widgets/lv_tabview.c ****     /*Set the indicator width/height*/
 873:lvgl/src/lv_widgets/lv_tabview.c ****     lv_coord_t indic_w;
 874:lvgl/src/lv_widgets/lv_tabview.c ****     lv_coord_t indic_h;
 875:lvgl/src/lv_widgets/lv_tabview.c **** 
 876:lvgl/src/lv_widgets/lv_tabview.c ****     switch(ext->btns_pos) {
 877:lvgl/src/lv_widgets/lv_tabview.c ****         default: /*default case is prevented in lv_tabview_set_btns_pos(), but here for safety*/
 878:lvgl/src/lv_widgets/lv_tabview.c ****         case LV_TABVIEW_TAB_POS_NONE:
 879:lvgl/src/lv_widgets/lv_tabview.c ****             lv_obj_set_hidden(ext->indic, true);
 880:lvgl/src/lv_widgets/lv_tabview.c ****             indic_w = 0;
 881:lvgl/src/lv_widgets/lv_tabview.c ****             indic_h = 0;
 882:lvgl/src/lv_widgets/lv_tabview.c ****             break;
 883:lvgl/src/lv_widgets/lv_tabview.c ****         case LV_TABVIEW_TAB_POS_TOP:
 884:lvgl/src/lv_widgets/lv_tabview.c ****         case LV_TABVIEW_TAB_POS_BOTTOM:
 885:lvgl/src/lv_widgets/lv_tabview.c ****             lv_obj_set_hidden(ext->indic, false);
 886:lvgl/src/lv_widgets/lv_tabview.c ****             if(ext->tab_cnt) {
 887:lvgl/src/lv_widgets/lv_tabview.c ****                 indic_h = indic_size;
 888:lvgl/src/lv_widgets/lv_tabview.c ****                 indic_w = lv_area_get_width(&btnm_ext->button_areas[0]);
 889:lvgl/src/lv_widgets/lv_tabview.c ****             }
 890:lvgl/src/lv_widgets/lv_tabview.c ****             else {
 891:lvgl/src/lv_widgets/lv_tabview.c ****                 indic_w = 0;
 892:lvgl/src/lv_widgets/lv_tabview.c ****                 indic_h = 0;
 893:lvgl/src/lv_widgets/lv_tabview.c ****             }
 894:lvgl/src/lv_widgets/lv_tabview.c ****             break;
 895:lvgl/src/lv_widgets/lv_tabview.c ****         case LV_TABVIEW_TAB_POS_LEFT:
 896:lvgl/src/lv_widgets/lv_tabview.c ****         case LV_TABVIEW_TAB_POS_RIGHT:
 897:lvgl/src/lv_widgets/lv_tabview.c ****             lv_obj_set_hidden(ext->indic, false);
 898:lvgl/src/lv_widgets/lv_tabview.c ****             if(ext->tab_cnt) {
ARM GAS  D:\Temp\ccnA29ZW.s 			page 20


 899:lvgl/src/lv_widgets/lv_tabview.c ****                 indic_w = indic_size;
 900:lvgl/src/lv_widgets/lv_tabview.c ****                 indic_h = lv_area_get_height(&btnm_ext->button_areas[0]);
 901:lvgl/src/lv_widgets/lv_tabview.c ****             }
 902:lvgl/src/lv_widgets/lv_tabview.c ****             else {
 903:lvgl/src/lv_widgets/lv_tabview.c ****                 indic_w = 0;
 904:lvgl/src/lv_widgets/lv_tabview.c ****                 indic_h = 0;
 905:lvgl/src/lv_widgets/lv_tabview.c ****             }
 906:lvgl/src/lv_widgets/lv_tabview.c ****             break;
 907:lvgl/src/lv_widgets/lv_tabview.c ****     }
 908:lvgl/src/lv_widgets/lv_tabview.c **** 
 909:lvgl/src/lv_widgets/lv_tabview.c ****     lv_obj_set_width(ext->indic, indic_w);
 910:lvgl/src/lv_widgets/lv_tabview.c ****     lv_obj_set_height(ext->indic, indic_h);
 911:lvgl/src/lv_widgets/lv_tabview.c **** }
 912:lvgl/src/lv_widgets/lv_tabview.c **** 
 913:lvgl/src/lv_widgets/lv_tabview.c **** static void refr_btns_size(lv_obj_t * tabview)
 914:lvgl/src/lv_widgets/lv_tabview.c **** {
 169              		.loc 1 914 1 view -0
 170              		.cfi_startproc
 171              		@ args = 0, pretend = 0, frame = 16
 172              		@ frame_needed = 0, uses_anonymous_args = 0
 173              		.loc 1 914 1 is_stmt 0 view .LVU42
 174 0000 2DE9F04F 		push	{r4, r5, r6, r7, r8, r9, r10, fp, lr}
 175              	.LCFI1:
 176              		.cfi_def_cfa_offset 36
 177              		.cfi_offset 4, -36
 178              		.cfi_offset 5, -32
 179              		.cfi_offset 6, -28
 180              		.cfi_offset 7, -24
 181              		.cfi_offset 8, -20
 182              		.cfi_offset 9, -16
 183              		.cfi_offset 10, -12
 184              		.cfi_offset 11, -8
 185              		.cfi_offset 14, -4
 186 0004 85B0     		sub	sp, sp, #20
 187              	.LCFI2:
 188              		.cfi_def_cfa_offset 56
 189 0006 0446     		mov	r4, r0
 915:lvgl/src/lv_widgets/lv_tabview.c ****     lv_tabview_ext_t * ext = lv_obj_get_ext_attr(tabview);
 190              		.loc 1 915 5 is_stmt 1 view .LVU43
 191              		.loc 1 915 30 is_stmt 0 view .LVU44
 192 0008 FFF7FEFF 		bl	lv_obj_get_ext_attr
 193              	.LVL22:
 194              		.loc 1 915 30 view .LVU45
 195 000c 0646     		mov	r6, r0
 196              	.LVL23:
 916:lvgl/src/lv_widgets/lv_tabview.c **** 
 917:lvgl/src/lv_widgets/lv_tabview.c ****     lv_style_int_t tab_bg_left = lv_obj_get_style_pad_left(tabview, LV_TABVIEW_PART_TAB_BG);
 197              		.loc 1 917 5 is_stmt 1 view .LVU46
 198              	.LBB85:
 199              	.LBI85:
 200              		.file 2 "lvgl/src/lv_widgets/../lv_core/lv_obj_style_dec.h"
   1:lvgl/src/lv_widgets/../lv_core/lv_obj_style_dec.h **** 
   2:lvgl/src/lv_widgets/../lv_core/lv_obj_style_dec.h **** /**
   3:lvgl/src/lv_widgets/../lv_core/lv_obj_style_dec.h ****  * @file lv_obj_style_dec.h
   4:lvgl/src/lv_widgets/../lv_core/lv_obj_style_dec.h ****  *
   5:lvgl/src/lv_widgets/../lv_core/lv_obj_style_dec.h ****  */
   6:lvgl/src/lv_widgets/../lv_core/lv_obj_style_dec.h **** 
ARM GAS  D:\Temp\ccnA29ZW.s 			page 21


   7:lvgl/src/lv_widgets/../lv_core/lv_obj_style_dec.h **** #ifndef LV_OBJ_STYLE_DEC_H
   8:lvgl/src/lv_widgets/../lv_core/lv_obj_style_dec.h **** #define LV_OBJ_STYLE_DEC_H
   9:lvgl/src/lv_widgets/../lv_core/lv_obj_style_dec.h **** 
  10:lvgl/src/lv_widgets/../lv_core/lv_obj_style_dec.h **** #ifdef __cplusplus
  11:lvgl/src/lv_widgets/../lv_core/lv_obj_style_dec.h **** extern "C" {
  12:lvgl/src/lv_widgets/../lv_core/lv_obj_style_dec.h **** #endif
  13:lvgl/src/lv_widgets/../lv_core/lv_obj_style_dec.h **** 
  14:lvgl/src/lv_widgets/../lv_core/lv_obj_style_dec.h **** /*********************
  15:lvgl/src/lv_widgets/../lv_core/lv_obj_style_dec.h ****  *      DEFINES
  16:lvgl/src/lv_widgets/../lv_core/lv_obj_style_dec.h ****  *********************/
  17:lvgl/src/lv_widgets/../lv_core/lv_obj_style_dec.h **** 
  18:lvgl/src/lv_widgets/../lv_core/lv_obj_style_dec.h **** /**
  19:lvgl/src/lv_widgets/../lv_core/lv_obj_style_dec.h ****  * Macro to declare the most important style set/get API functions.
  20:lvgl/src/lv_widgets/../lv_core/lv_obj_style_dec.h ****  *
  21:lvgl/src/lv_widgets/../lv_core/lv_obj_style_dec.h ****  * Get the value of a style property from an object in the object's current state
  22:lvgl/src/lv_widgets/../lv_core/lv_obj_style_dec.h ****  * -----------------------------------------------------------------------------
  23:lvgl/src/lv_widgets/../lv_core/lv_obj_style_dec.h ****  *  - Get the value of a style property from an object in the object's current state.
  24:lvgl/src/lv_widgets/../lv_core/lv_obj_style_dec.h ****  *  - Transition animation is taken into account.
  25:lvgl/src/lv_widgets/../lv_core/lv_obj_style_dec.h ****  *  - If the property is not set in the object's styles check the parent(s) if the property can be 
  26:lvgl/src/lv_widgets/../lv_core/lv_obj_style_dec.h ****  *  - If still not found return a default value.
  27:lvgl/src/lv_widgets/../lv_core/lv_obj_style_dec.h ****  *  - For example:
  28:lvgl/src/lv_widgets/../lv_core/lv_obj_style_dec.h ****  *      `lv_style_int_t w = lv_obj_get_style_border_width(btn1, LV_BTN_PART_MAIN);`
  29:lvgl/src/lv_widgets/../lv_core/lv_obj_style_dec.h ****  *
  30:lvgl/src/lv_widgets/../lv_core/lv_obj_style_dec.h ****  * Set a local style property for an object in a given state
  31:lvgl/src/lv_widgets/../lv_core/lv_obj_style_dec.h ****  * ---------------------------------------------------------
  32:lvgl/src/lv_widgets/../lv_core/lv_obj_style_dec.h ****  *  - For example:
  33:lvgl/src/lv_widgets/../lv_core/lv_obj_style_dec.h ****  *      `lv_obj_set_style_local_border_width(btn1, LV_BTN_PART_MAIN, LV_STATE_PRESSED, 2);`
  34:lvgl/src/lv_widgets/../lv_core/lv_obj_style_dec.h ****  *
  35:lvgl/src/lv_widgets/../lv_core/lv_obj_style_dec.h ****  * Get a local style property's value of an object in a given state
  36:lvgl/src/lv_widgets/../lv_core/lv_obj_style_dec.h ****  * ----------------------------------------------------------------
  37:lvgl/src/lv_widgets/../lv_core/lv_obj_style_dec.h ****  *  - Return the best matching property in the given state.
  38:lvgl/src/lv_widgets/../lv_core/lv_obj_style_dec.h ****  *  - E.g. if `state` parameter is LV_STATE_PRESSED | LV_STATE_CHECKED` but the property defined on
  39:lvgl/src/lv_widgets/../lv_core/lv_obj_style_dec.h ****  *    `LV_STATE_PRESSED` and `LV_STATE_DEFAULT` the best matching state is `LV_STATE_PRESSED`
  40:lvgl/src/lv_widgets/../lv_core/lv_obj_style_dec.h ****  *    (because it has higher precedence) and it will be returned.
  41:lvgl/src/lv_widgets/../lv_core/lv_obj_style_dec.h ****  *  - If the property is not found even in `LV_STATE_DEFAULT` `-1` is returned.
  42:lvgl/src/lv_widgets/../lv_core/lv_obj_style_dec.h ****  *  - For example:
  43:lvgl/src/lv_widgets/../lv_core/lv_obj_style_dec.h ****  *      `//Type of result should be lv_style_int_t/lv_opa_t/lv_color_t/const void * according to th
  44:lvgl/src/lv_widgets/../lv_core/lv_obj_style_dec.h ****  *      `lv_style_int_t result;`
  45:lvgl/src/lv_widgets/../lv_core/lv_obj_style_dec.h ****  *      `lv_obj_get_style_local_border_width(btn1, LV_BTN_PART_MAIN, LV_STATE_PRESSED, &result);`
  46:lvgl/src/lv_widgets/../lv_core/lv_obj_style_dec.h ****  *      `if(weight > 0) ...the property is found and loaded into result...`
  47:lvgl/src/lv_widgets/../lv_core/lv_obj_style_dec.h ****  *
  48:lvgl/src/lv_widgets/../lv_core/lv_obj_style_dec.h ****  * Get the value from a style in a given state
  49:lvgl/src/lv_widgets/../lv_core/lv_obj_style_dec.h ****  * -------------------------------------------
  50:lvgl/src/lv_widgets/../lv_core/lv_obj_style_dec.h ****  * - The same rules applies to the return value then for "lv_obj_get_style_local_...()" above
  51:lvgl/src/lv_widgets/../lv_core/lv_obj_style_dec.h ****  * - For example
  52:lvgl/src/lv_widgets/../lv_core/lv_obj_style_dec.h ****  *      `int16_t weight = lv_style_get_border_width(&style1, LV_STATE_PRESSED, &result);`
  53:lvgl/src/lv_widgets/../lv_core/lv_obj_style_dec.h ****  *      `if(weight > 0) ...the property is found and loaded into result...`
  54:lvgl/src/lv_widgets/../lv_core/lv_obj_style_dec.h **** 
  55:lvgl/src/lv_widgets/../lv_core/lv_obj_style_dec.h ****  * Set a value in a style in a given state
  56:lvgl/src/lv_widgets/../lv_core/lv_obj_style_dec.h ****  * ---------------------------------------
  57:lvgl/src/lv_widgets/../lv_core/lv_obj_style_dec.h ****  * - For example
  58:lvgl/src/lv_widgets/../lv_core/lv_obj_style_dec.h ****  *      `lv_style_set_border_width(&style1, LV_STATE_PRESSED, 2);`
  59:lvgl/src/lv_widgets/../lv_core/lv_obj_style_dec.h ****  */
  60:lvgl/src/lv_widgets/../lv_core/lv_obj_style_dec.h **** 
  61:lvgl/src/lv_widgets/../lv_core/lv_obj_style_dec.h **** #define _OBJ_GET_STYLE_scalar(prop_name, func_name, value_type, style_type)                        
  62:lvgl/src/lv_widgets/../lv_core/lv_obj_style_dec.h ****     static inline value_type lv_obj_get_style_##func_name (const lv_obj_t * obj, uint8_t part)     
  63:lvgl/src/lv_widgets/../lv_core/lv_obj_style_dec.h ****     {                                                                                              
ARM GAS  D:\Temp\ccnA29ZW.s 			page 22


  64:lvgl/src/lv_widgets/../lv_core/lv_obj_style_dec.h ****         return (value_type) _lv_obj_get_style##style_type (obj, part, LV_STYLE_##prop_name);       
  65:lvgl/src/lv_widgets/../lv_core/lv_obj_style_dec.h ****     }
  66:lvgl/src/lv_widgets/../lv_core/lv_obj_style_dec.h **** 
  67:lvgl/src/lv_widgets/../lv_core/lv_obj_style_dec.h **** #define _OBJ_GET_STYLE_nonscalar(prop_name, func_name, value_type, style_type)                     
  68:lvgl/src/lv_widgets/../lv_core/lv_obj_style_dec.h ****     static inline value_type lv_obj_get_style_##func_name (const lv_obj_t * obj, uint8_t part)     
  69:lvgl/src/lv_widgets/../lv_core/lv_obj_style_dec.h ****     {                                                                                              
  70:lvgl/src/lv_widgets/../lv_core/lv_obj_style_dec.h ****         return _lv_obj_get_style##style_type (obj, part, LV_STYLE_##prop_name);                    
  71:lvgl/src/lv_widgets/../lv_core/lv_obj_style_dec.h ****     }
  72:lvgl/src/lv_widgets/../lv_core/lv_obj_style_dec.h **** 
  73:lvgl/src/lv_widgets/../lv_core/lv_obj_style_dec.h **** #define _OBJ_SET_STYLE_LOCAL_scalar(prop_name, func_name, value_type, style_type)                  
  74:lvgl/src/lv_widgets/../lv_core/lv_obj_style_dec.h ****     static inline void lv_obj_set_style_local_##func_name (lv_obj_t * obj, uint8_t part, lv_state_t
  75:lvgl/src/lv_widgets/../lv_core/lv_obj_style_dec.h ****     {                                                                                              
  76:lvgl/src/lv_widgets/../lv_core/lv_obj_style_dec.h ****         _lv_obj_set_style_local##style_type (obj, part, LV_STYLE_##prop_name | (state << LV_STYLE_S
  77:lvgl/src/lv_widgets/../lv_core/lv_obj_style_dec.h ****     }
  78:lvgl/src/lv_widgets/../lv_core/lv_obj_style_dec.h **** 
  79:lvgl/src/lv_widgets/../lv_core/lv_obj_style_dec.h **** #define _OBJ_SET_STYLE_LOCAL_nonscalar(prop_name, func_name, value_type, style_type)               
  80:lvgl/src/lv_widgets/../lv_core/lv_obj_style_dec.h ****     static inline void lv_obj_set_style_local_##func_name (lv_obj_t * obj, uint8_t part, lv_state_t
  81:lvgl/src/lv_widgets/../lv_core/lv_obj_style_dec.h ****     {                                                                                              
  82:lvgl/src/lv_widgets/../lv_core/lv_obj_style_dec.h ****         _lv_obj_set_style_local##style_type (obj, part, LV_STYLE_##prop_name | (state << LV_STYLE_S
  83:lvgl/src/lv_widgets/../lv_core/lv_obj_style_dec.h ****     }
  84:lvgl/src/lv_widgets/../lv_core/lv_obj_style_dec.h **** 
  85:lvgl/src/lv_widgets/../lv_core/lv_obj_style_dec.h **** #define _OBJ_SET_STYLE_scalar(prop_name, func_name, value_type, style_type)                        
  86:lvgl/src/lv_widgets/../lv_core/lv_obj_style_dec.h ****     static inline void lv_style_set_##func_name (lv_style_t * style, lv_state_t state, value_type v
  87:lvgl/src/lv_widgets/../lv_core/lv_obj_style_dec.h ****     {                                                                                              
  88:lvgl/src/lv_widgets/../lv_core/lv_obj_style_dec.h ****         _lv_style_set##style_type (style, LV_STYLE_##prop_name | (state << LV_STYLE_STATE_POS), val
  89:lvgl/src/lv_widgets/../lv_core/lv_obj_style_dec.h ****     }
  90:lvgl/src/lv_widgets/../lv_core/lv_obj_style_dec.h **** 
  91:lvgl/src/lv_widgets/../lv_core/lv_obj_style_dec.h **** #define _OBJ_SET_STYLE_nonscalar(prop_name, func_name, value_type, style_type)                     
  92:lvgl/src/lv_widgets/../lv_core/lv_obj_style_dec.h ****     static inline void lv_style_set_##func_name (lv_style_t * style, lv_state_t state, value_type v
  93:lvgl/src/lv_widgets/../lv_core/lv_obj_style_dec.h ****     {                                                                                              
  94:lvgl/src/lv_widgets/../lv_core/lv_obj_style_dec.h ****         _lv_style_set##style_type (style, LV_STYLE_##prop_name | (state << LV_STYLE_STATE_POS), val
  95:lvgl/src/lv_widgets/../lv_core/lv_obj_style_dec.h ****     }
  96:lvgl/src/lv_widgets/../lv_core/lv_obj_style_dec.h **** 
  97:lvgl/src/lv_widgets/../lv_core/lv_obj_style_dec.h **** #define _LV_OBJ_STYLE_SET_GET_DECLARE(prop_name, func_name, value_type, style_type, scalar)        
  98:lvgl/src/lv_widgets/../lv_core/lv_obj_style_dec.h ****     _OBJ_GET_STYLE_##scalar(prop_name, func_name, value_type, style_type)                          
  99:lvgl/src/lv_widgets/../lv_core/lv_obj_style_dec.h ****     _OBJ_SET_STYLE_LOCAL_##scalar(prop_name, func_name, value_type, style_type)                    
 100:lvgl/src/lv_widgets/../lv_core/lv_obj_style_dec.h ****     _OBJ_SET_STYLE_##scalar(prop_name, func_name, value_type, style_type)
 101:lvgl/src/lv_widgets/../lv_core/lv_obj_style_dec.h **** 
 102:lvgl/src/lv_widgets/../lv_core/lv_obj_style_dec.h **** _LV_OBJ_STYLE_SET_GET_DECLARE(RADIUS, radius, lv_style_int_t, _int, scalar)
 103:lvgl/src/lv_widgets/../lv_core/lv_obj_style_dec.h **** _LV_OBJ_STYLE_SET_GET_DECLARE(CLIP_CORNER, clip_corner, bool, _int, scalar)
 104:lvgl/src/lv_widgets/../lv_core/lv_obj_style_dec.h **** _LV_OBJ_STYLE_SET_GET_DECLARE(SIZE, size, lv_style_int_t, _int, scalar)
 105:lvgl/src/lv_widgets/../lv_core/lv_obj_style_dec.h **** _LV_OBJ_STYLE_SET_GET_DECLARE(TRANSFORM_WIDTH, transform_width, lv_style_int_t, _int, scalar)
 106:lvgl/src/lv_widgets/../lv_core/lv_obj_style_dec.h **** _LV_OBJ_STYLE_SET_GET_DECLARE(TRANSFORM_HEIGHT, transform_height, lv_style_int_t, _int, scalar)
 107:lvgl/src/lv_widgets/../lv_core/lv_obj_style_dec.h **** _LV_OBJ_STYLE_SET_GET_DECLARE(TRANSFORM_ANGLE, transform_angle, lv_style_int_t, _int, scalar)
 108:lvgl/src/lv_widgets/../lv_core/lv_obj_style_dec.h **** _LV_OBJ_STYLE_SET_GET_DECLARE(TRANSFORM_ZOOM, transform_zoom, lv_style_int_t, _int, scalar)
 109:lvgl/src/lv_widgets/../lv_core/lv_obj_style_dec.h **** _LV_OBJ_STYLE_SET_GET_DECLARE(OPA_SCALE, opa_scale, lv_opa_t, _opa, scalar)
 110:lvgl/src/lv_widgets/../lv_core/lv_obj_style_dec.h **** _LV_OBJ_STYLE_SET_GET_DECLARE(PAD_TOP, pad_top, lv_style_int_t, _int, scalar)
 111:lvgl/src/lv_widgets/../lv_core/lv_obj_style_dec.h **** _LV_OBJ_STYLE_SET_GET_DECLARE(PAD_BOTTOM, pad_bottom, lv_style_int_t, _int, scalar)
 112:lvgl/src/lv_widgets/../lv_core/lv_obj_style_dec.h **** _LV_OBJ_STYLE_SET_GET_DECLARE(PAD_LEFT, pad_left, lv_style_int_t, _int, scalar)
 201              		.loc 2 112 1 view .LVU47
 202              	.LBB86:
 203              		.loc 2 112 1 view .LVU48
 204 000e 1222     		movs	r2, #18
 205 0010 4121     		movs	r1, #65
 206 0012 2046     		mov	r0, r4
 207              	.LVL24:
 208              		.loc 2 112 1 is_stmt 0 view .LVU49
ARM GAS  D:\Temp\ccnA29ZW.s 			page 23


 209 0014 FFF7FEFF 		bl	_lv_obj_get_style_int
 210              	.LVL25:
 211 0018 0390     		str	r0, [sp, #12]
 212              	.LVL26:
 213              		.loc 2 112 1 view .LVU50
 214              	.LBE86:
 215              	.LBE85:
 918:lvgl/src/lv_widgets/lv_tabview.c ****     lv_style_int_t tab_bg_right = lv_obj_get_style_pad_right(tabview, LV_TABVIEW_PART_TAB_BG);
 216              		.loc 1 918 5 is_stmt 1 view .LVU51
 217              	.LBB87:
 218              	.LBI87:
 113:lvgl/src/lv_widgets/../lv_core/lv_obj_style_dec.h **** _LV_OBJ_STYLE_SET_GET_DECLARE(PAD_RIGHT, pad_right, lv_style_int_t, _int, scalar)
 219              		.loc 2 113 1 view .LVU52
 220              	.LBB88:
 221              		.loc 2 113 1 view .LVU53
 222 001a 1322     		movs	r2, #19
 223 001c 4121     		movs	r1, #65
 224 001e 2046     		mov	r0, r4
 225 0020 FFF7FEFF 		bl	_lv_obj_get_style_int
 226              	.LVL27:
 227 0024 0290     		str	r0, [sp, #8]
 228              	.LVL28:
 229              		.loc 2 113 1 is_stmt 0 view .LVU54
 230              	.LBE88:
 231              	.LBE87:
 919:lvgl/src/lv_widgets/lv_tabview.c ****     lv_style_int_t tab_bg_top = lv_obj_get_style_pad_top(tabview, LV_TABVIEW_PART_TAB_BG);
 232              		.loc 1 919 5 is_stmt 1 view .LVU55
 233              	.LBB89:
 234              	.LBI89:
 110:lvgl/src/lv_widgets/../lv_core/lv_obj_style_dec.h **** _LV_OBJ_STYLE_SET_GET_DECLARE(PAD_BOTTOM, pad_bottom, lv_style_int_t, _int, scalar)
 235              		.loc 2 110 1 view .LVU56
 236              	.LBB90:
 110:lvgl/src/lv_widgets/../lv_core/lv_obj_style_dec.h **** _LV_OBJ_STYLE_SET_GET_DECLARE(PAD_BOTTOM, pad_bottom, lv_style_int_t, _int, scalar)
 237              		.loc 2 110 1 view .LVU57
 238 0026 1022     		movs	r2, #16
 239 0028 4121     		movs	r1, #65
 240 002a 2046     		mov	r0, r4
 241 002c FFF7FEFF 		bl	_lv_obj_get_style_int
 242              	.LVL29:
 243 0030 8146     		mov	r9, r0
 244              	.LVL30:
 110:lvgl/src/lv_widgets/../lv_core/lv_obj_style_dec.h **** _LV_OBJ_STYLE_SET_GET_DECLARE(PAD_BOTTOM, pad_bottom, lv_style_int_t, _int, scalar)
 245              		.loc 2 110 1 is_stmt 0 view .LVU58
 246              	.LBE90:
 247              	.LBE89:
 920:lvgl/src/lv_widgets/lv_tabview.c ****     lv_style_int_t tab_bg_bottom = lv_obj_get_style_pad_bottom(tabview, LV_TABVIEW_PART_TAB_BG);
 248              		.loc 1 920 5 is_stmt 1 view .LVU59
 249              	.LBB91:
 250              	.LBI91:
 111:lvgl/src/lv_widgets/../lv_core/lv_obj_style_dec.h **** _LV_OBJ_STYLE_SET_GET_DECLARE(PAD_LEFT, pad_left, lv_style_int_t, _int, scalar)
 251              		.loc 2 111 1 view .LVU60
 252              	.LBB92:
 111:lvgl/src/lv_widgets/../lv_core/lv_obj_style_dec.h **** _LV_OBJ_STYLE_SET_GET_DECLARE(PAD_LEFT, pad_left, lv_style_int_t, _int, scalar)
 253              		.loc 2 111 1 view .LVU61
 254 0032 1122     		movs	r2, #17
 255 0034 4121     		movs	r1, #65
 256 0036 2046     		mov	r0, r4
ARM GAS  D:\Temp\ccnA29ZW.s 			page 24


 257 0038 FFF7FEFF 		bl	_lv_obj_get_style_int
 258              	.LVL31:
 259 003c 8046     		mov	r8, r0
 260              	.LVL32:
 111:lvgl/src/lv_widgets/../lv_core/lv_obj_style_dec.h **** _LV_OBJ_STYLE_SET_GET_DECLARE(PAD_LEFT, pad_left, lv_style_int_t, _int, scalar)
 261              		.loc 2 111 1 is_stmt 0 view .LVU62
 262              	.LBE92:
 263              	.LBE91:
 921:lvgl/src/lv_widgets/lv_tabview.c **** 
 922:lvgl/src/lv_widgets/lv_tabview.c ****     lv_style_int_t tab_left = lv_obj_get_style_pad_left(tabview, LV_TABVIEW_PART_TAB_BTN);
 264              		.loc 1 922 5 is_stmt 1 view .LVU63
 265              	.LBB93:
 266              	.LBI93:
 112:lvgl/src/lv_widgets/../lv_core/lv_obj_style_dec.h **** _LV_OBJ_STYLE_SET_GET_DECLARE(PAD_RIGHT, pad_right, lv_style_int_t, _int, scalar)
 267              		.loc 2 112 1 view .LVU64
 268              	.LBB94:
 112:lvgl/src/lv_widgets/../lv_core/lv_obj_style_dec.h **** _LV_OBJ_STYLE_SET_GET_DECLARE(PAD_RIGHT, pad_right, lv_style_int_t, _int, scalar)
 269              		.loc 2 112 1 view .LVU65
 270 003e 1222     		movs	r2, #18
 271 0040 4221     		movs	r1, #66
 272 0042 2046     		mov	r0, r4
 273 0044 FFF7FEFF 		bl	_lv_obj_get_style_int
 274              	.LVL33:
 275 0048 0546     		mov	r5, r0
 276              	.LVL34:
 112:lvgl/src/lv_widgets/../lv_core/lv_obj_style_dec.h **** _LV_OBJ_STYLE_SET_GET_DECLARE(PAD_RIGHT, pad_right, lv_style_int_t, _int, scalar)
 277              		.loc 2 112 1 is_stmt 0 view .LVU66
 278              	.LBE94:
 279              	.LBE93:
 923:lvgl/src/lv_widgets/lv_tabview.c ****     lv_style_int_t tab_right = lv_obj_get_style_pad_right(tabview, LV_TABVIEW_PART_TAB_BTN);
 280              		.loc 1 923 5 is_stmt 1 view .LVU67
 281              	.LBB95:
 282              	.LBI95:
 283              		.loc 2 113 1 view .LVU68
 284              	.LBB96:
 285              		.loc 2 113 1 view .LVU69
 286 004a 1322     		movs	r2, #19
 287 004c 4221     		movs	r1, #66
 288 004e 2046     		mov	r0, r4
 289 0050 FFF7FEFF 		bl	_lv_obj_get_style_int
 290              	.LVL35:
 291 0054 0190     		str	r0, [sp, #4]
 292              	.LVL36:
 293              		.loc 2 113 1 is_stmt 0 view .LVU70
 294              	.LBE96:
 295              	.LBE95:
 924:lvgl/src/lv_widgets/lv_tabview.c ****     lv_style_int_t tab_top = lv_obj_get_style_pad_top(tabview, LV_TABVIEW_PART_TAB_BTN);
 296              		.loc 1 924 5 is_stmt 1 view .LVU71
 297              	.LBB97:
 298              	.LBI97:
 110:lvgl/src/lv_widgets/../lv_core/lv_obj_style_dec.h **** _LV_OBJ_STYLE_SET_GET_DECLARE(PAD_BOTTOM, pad_bottom, lv_style_int_t, _int, scalar)
 299              		.loc 2 110 1 view .LVU72
 300              	.LBB98:
 110:lvgl/src/lv_widgets/../lv_core/lv_obj_style_dec.h **** _LV_OBJ_STYLE_SET_GET_DECLARE(PAD_BOTTOM, pad_bottom, lv_style_int_t, _int, scalar)
 301              		.loc 2 110 1 view .LVU73
 302 0056 1022     		movs	r2, #16
 303 0058 4221     		movs	r1, #66
ARM GAS  D:\Temp\ccnA29ZW.s 			page 25


 304 005a 2046     		mov	r0, r4
 305 005c FFF7FEFF 		bl	_lv_obj_get_style_int
 306              	.LVL37:
 307 0060 8346     		mov	fp, r0
 308              	.LVL38:
 110:lvgl/src/lv_widgets/../lv_core/lv_obj_style_dec.h **** _LV_OBJ_STYLE_SET_GET_DECLARE(PAD_BOTTOM, pad_bottom, lv_style_int_t, _int, scalar)
 309              		.loc 2 110 1 is_stmt 0 view .LVU74
 310              	.LBE98:
 311              	.LBE97:
 925:lvgl/src/lv_widgets/lv_tabview.c ****     lv_style_int_t tab_bottom = lv_obj_get_style_pad_bottom(tabview, LV_TABVIEW_PART_TAB_BTN);
 312              		.loc 1 925 5 is_stmt 1 view .LVU75
 313              	.LBB99:
 314              	.LBI99:
 111:lvgl/src/lv_widgets/../lv_core/lv_obj_style_dec.h **** _LV_OBJ_STYLE_SET_GET_DECLARE(PAD_LEFT, pad_left, lv_style_int_t, _int, scalar)
 315              		.loc 2 111 1 view .LVU76
 316              	.LBB100:
 111:lvgl/src/lv_widgets/../lv_core/lv_obj_style_dec.h **** _LV_OBJ_STYLE_SET_GET_DECLARE(PAD_LEFT, pad_left, lv_style_int_t, _int, scalar)
 317              		.loc 2 111 1 view .LVU77
 318 0062 1122     		movs	r2, #17
 319 0064 4221     		movs	r1, #66
 320 0066 2046     		mov	r0, r4
 321 0068 FFF7FEFF 		bl	_lv_obj_get_style_int
 322              	.LVL39:
 323 006c 8246     		mov	r10, r0
 324              	.LVL40:
 111:lvgl/src/lv_widgets/../lv_core/lv_obj_style_dec.h **** _LV_OBJ_STYLE_SET_GET_DECLARE(PAD_LEFT, pad_left, lv_style_int_t, _int, scalar)
 325              		.loc 2 111 1 is_stmt 0 view .LVU78
 326              	.LBE100:
 327              	.LBE99:
 926:lvgl/src/lv_widgets/lv_tabview.c **** 
 927:lvgl/src/lv_widgets/lv_tabview.c ****     const lv_font_t * font = lv_obj_get_style_text_font(tabview, LV_TABVIEW_PART_TAB_BTN);
 328              		.loc 1 927 5 is_stmt 1 view .LVU79
 329              	.LBB101:
 330              	.LBI101:
 114:lvgl/src/lv_widgets/../lv_core/lv_obj_style_dec.h **** _LV_OBJ_STYLE_SET_GET_DECLARE(PAD_INNER, pad_inner, lv_style_int_t, _int, scalar)
 115:lvgl/src/lv_widgets/../lv_core/lv_obj_style_dec.h **** _LV_OBJ_STYLE_SET_GET_DECLARE(MARGIN_TOP, margin_top, lv_style_int_t, _int, scalar)
 116:lvgl/src/lv_widgets/../lv_core/lv_obj_style_dec.h **** _LV_OBJ_STYLE_SET_GET_DECLARE(MARGIN_BOTTOM, margin_bottom, lv_style_int_t, _int, scalar)
 117:lvgl/src/lv_widgets/../lv_core/lv_obj_style_dec.h **** _LV_OBJ_STYLE_SET_GET_DECLARE(MARGIN_LEFT, margin_left, lv_style_int_t, _int, scalar)
 118:lvgl/src/lv_widgets/../lv_core/lv_obj_style_dec.h **** _LV_OBJ_STYLE_SET_GET_DECLARE(MARGIN_RIGHT, margin_right, lv_style_int_t, _int, scalar)
 119:lvgl/src/lv_widgets/../lv_core/lv_obj_style_dec.h **** _LV_OBJ_STYLE_SET_GET_DECLARE(BG_BLEND_MODE, bg_blend_mode, lv_blend_mode_t, _int, scalar)
 120:lvgl/src/lv_widgets/../lv_core/lv_obj_style_dec.h **** _LV_OBJ_STYLE_SET_GET_DECLARE(BG_MAIN_STOP, bg_main_stop, lv_style_int_t, _int, scalar)
 121:lvgl/src/lv_widgets/../lv_core/lv_obj_style_dec.h **** _LV_OBJ_STYLE_SET_GET_DECLARE(BG_GRAD_STOP, bg_grad_stop, lv_style_int_t, _int, scalar)
 122:lvgl/src/lv_widgets/../lv_core/lv_obj_style_dec.h **** _LV_OBJ_STYLE_SET_GET_DECLARE(BG_GRAD_DIR, bg_grad_dir, lv_grad_dir_t, _int, scalar)
 123:lvgl/src/lv_widgets/../lv_core/lv_obj_style_dec.h **** _LV_OBJ_STYLE_SET_GET_DECLARE(BG_COLOR, bg_color, lv_color_t, _color, nonscalar)
 124:lvgl/src/lv_widgets/../lv_core/lv_obj_style_dec.h **** _LV_OBJ_STYLE_SET_GET_DECLARE(BG_GRAD_COLOR, bg_grad_color, lv_color_t, _color, nonscalar)
 125:lvgl/src/lv_widgets/../lv_core/lv_obj_style_dec.h **** _LV_OBJ_STYLE_SET_GET_DECLARE(BG_OPA, bg_opa, lv_opa_t, _opa, scalar)
 126:lvgl/src/lv_widgets/../lv_core/lv_obj_style_dec.h **** _LV_OBJ_STYLE_SET_GET_DECLARE(BORDER_WIDTH, border_width, lv_style_int_t, _int, scalar)
 127:lvgl/src/lv_widgets/../lv_core/lv_obj_style_dec.h **** _LV_OBJ_STYLE_SET_GET_DECLARE(BORDER_SIDE, border_side, lv_border_side_t, _int, scalar)
 128:lvgl/src/lv_widgets/../lv_core/lv_obj_style_dec.h **** _LV_OBJ_STYLE_SET_GET_DECLARE(BORDER_BLEND_MODE, border_blend_mode, lv_blend_mode_t, _int, scalar)
 129:lvgl/src/lv_widgets/../lv_core/lv_obj_style_dec.h **** _LV_OBJ_STYLE_SET_GET_DECLARE(BORDER_POST, border_post, bool, _int, scalar)
 130:lvgl/src/lv_widgets/../lv_core/lv_obj_style_dec.h **** _LV_OBJ_STYLE_SET_GET_DECLARE(BORDER_COLOR, border_color, lv_color_t, _color, nonscalar)
 131:lvgl/src/lv_widgets/../lv_core/lv_obj_style_dec.h **** _LV_OBJ_STYLE_SET_GET_DECLARE(BORDER_OPA, border_opa, lv_opa_t, _opa, scalar)
 132:lvgl/src/lv_widgets/../lv_core/lv_obj_style_dec.h **** _LV_OBJ_STYLE_SET_GET_DECLARE(OUTLINE_WIDTH, outline_width, lv_style_int_t, _int, scalar)
 133:lvgl/src/lv_widgets/../lv_core/lv_obj_style_dec.h **** _LV_OBJ_STYLE_SET_GET_DECLARE(OUTLINE_PAD, outline_pad, lv_style_int_t, _int, scalar)
 134:lvgl/src/lv_widgets/../lv_core/lv_obj_style_dec.h **** _LV_OBJ_STYLE_SET_GET_DECLARE(OUTLINE_BLEND_MODE, outline_blend_mode, lv_blend_mode_t, _int, scalar
 135:lvgl/src/lv_widgets/../lv_core/lv_obj_style_dec.h **** _LV_OBJ_STYLE_SET_GET_DECLARE(OUTLINE_COLOR, outline_color, lv_color_t, _color, nonscalar)
 136:lvgl/src/lv_widgets/../lv_core/lv_obj_style_dec.h **** _LV_OBJ_STYLE_SET_GET_DECLARE(OUTLINE_OPA, outline_opa, lv_opa_t, _opa, scalar)
ARM GAS  D:\Temp\ccnA29ZW.s 			page 26


 137:lvgl/src/lv_widgets/../lv_core/lv_obj_style_dec.h **** _LV_OBJ_STYLE_SET_GET_DECLARE(SHADOW_WIDTH, shadow_width, lv_style_int_t, _int, scalar)
 138:lvgl/src/lv_widgets/../lv_core/lv_obj_style_dec.h **** _LV_OBJ_STYLE_SET_GET_DECLARE(SHADOW_OFS_X, shadow_ofs_x, lv_style_int_t, _int, scalar)
 139:lvgl/src/lv_widgets/../lv_core/lv_obj_style_dec.h **** _LV_OBJ_STYLE_SET_GET_DECLARE(SHADOW_OFS_Y, shadow_ofs_y, lv_style_int_t, _int, scalar)
 140:lvgl/src/lv_widgets/../lv_core/lv_obj_style_dec.h **** _LV_OBJ_STYLE_SET_GET_DECLARE(SHADOW_SPREAD, shadow_spread, lv_style_int_t, _int, scalar)
 141:lvgl/src/lv_widgets/../lv_core/lv_obj_style_dec.h **** _LV_OBJ_STYLE_SET_GET_DECLARE(SHADOW_BLEND_MODE, shadow_blend_mode, lv_blend_mode_t, _int, scalar)
 142:lvgl/src/lv_widgets/../lv_core/lv_obj_style_dec.h **** _LV_OBJ_STYLE_SET_GET_DECLARE(SHADOW_COLOR, shadow_color, lv_color_t, _color, nonscalar)
 143:lvgl/src/lv_widgets/../lv_core/lv_obj_style_dec.h **** _LV_OBJ_STYLE_SET_GET_DECLARE(SHADOW_OPA, shadow_opa, lv_opa_t, _opa, scalar)
 144:lvgl/src/lv_widgets/../lv_core/lv_obj_style_dec.h **** _LV_OBJ_STYLE_SET_GET_DECLARE(PATTERN_REPEAT, pattern_repeat, bool, _int, scalar)
 145:lvgl/src/lv_widgets/../lv_core/lv_obj_style_dec.h **** _LV_OBJ_STYLE_SET_GET_DECLARE(PATTERN_BLEND_MODE, pattern_blend_mode, lv_blend_mode_t, _int, scalar
 146:lvgl/src/lv_widgets/../lv_core/lv_obj_style_dec.h **** _LV_OBJ_STYLE_SET_GET_DECLARE(PATTERN_RECOLOR, pattern_recolor, lv_color_t, _color, nonscalar)
 147:lvgl/src/lv_widgets/../lv_core/lv_obj_style_dec.h **** _LV_OBJ_STYLE_SET_GET_DECLARE(PATTERN_OPA, pattern_opa, lv_opa_t, _opa, scalar)
 148:lvgl/src/lv_widgets/../lv_core/lv_obj_style_dec.h **** _LV_OBJ_STYLE_SET_GET_DECLARE(PATTERN_RECOLOR_OPA, pattern_recolor_opa, lv_opa_t, _opa, scalar)
 149:lvgl/src/lv_widgets/../lv_core/lv_obj_style_dec.h **** _LV_OBJ_STYLE_SET_GET_DECLARE(PATTERN_IMAGE, pattern_image, const void *, _ptr, scalar)
 150:lvgl/src/lv_widgets/../lv_core/lv_obj_style_dec.h **** _LV_OBJ_STYLE_SET_GET_DECLARE(VALUE_LETTER_SPACE, value_letter_space, lv_style_int_t, _int, scalar)
 151:lvgl/src/lv_widgets/../lv_core/lv_obj_style_dec.h **** _LV_OBJ_STYLE_SET_GET_DECLARE(VALUE_LINE_SPACE, value_line_space, lv_style_int_t, _int, scalar)
 152:lvgl/src/lv_widgets/../lv_core/lv_obj_style_dec.h **** _LV_OBJ_STYLE_SET_GET_DECLARE(VALUE_BLEND_MODE, value_blend_mode, lv_blend_mode_t, _int, scalar)
 153:lvgl/src/lv_widgets/../lv_core/lv_obj_style_dec.h **** _LV_OBJ_STYLE_SET_GET_DECLARE(VALUE_OFS_X, value_ofs_x, lv_style_int_t, _int, scalar)
 154:lvgl/src/lv_widgets/../lv_core/lv_obj_style_dec.h **** _LV_OBJ_STYLE_SET_GET_DECLARE(VALUE_OFS_Y, value_ofs_y, lv_style_int_t, _int, scalar)
 155:lvgl/src/lv_widgets/../lv_core/lv_obj_style_dec.h **** _LV_OBJ_STYLE_SET_GET_DECLARE(VALUE_ALIGN, value_align, lv_align_t, _int, scalar)
 156:lvgl/src/lv_widgets/../lv_core/lv_obj_style_dec.h **** _LV_OBJ_STYLE_SET_GET_DECLARE(VALUE_COLOR, value_color, lv_color_t, _color, nonscalar)
 157:lvgl/src/lv_widgets/../lv_core/lv_obj_style_dec.h **** _LV_OBJ_STYLE_SET_GET_DECLARE(VALUE_OPA, value_opa, lv_opa_t, _opa, scalar)
 158:lvgl/src/lv_widgets/../lv_core/lv_obj_style_dec.h **** _LV_OBJ_STYLE_SET_GET_DECLARE(VALUE_FONT, value_font, const lv_font_t *, _ptr, scalar)
 159:lvgl/src/lv_widgets/../lv_core/lv_obj_style_dec.h **** _LV_OBJ_STYLE_SET_GET_DECLARE(VALUE_STR, value_str, const char *, _ptr, scalar)
 160:lvgl/src/lv_widgets/../lv_core/lv_obj_style_dec.h **** _LV_OBJ_STYLE_SET_GET_DECLARE(TEXT_LETTER_SPACE, text_letter_space, lv_style_int_t, _int, scalar)
 161:lvgl/src/lv_widgets/../lv_core/lv_obj_style_dec.h **** _LV_OBJ_STYLE_SET_GET_DECLARE(TEXT_LINE_SPACE, text_line_space, lv_style_int_t, _int, scalar)
 162:lvgl/src/lv_widgets/../lv_core/lv_obj_style_dec.h **** _LV_OBJ_STYLE_SET_GET_DECLARE(TEXT_DECOR, text_decor, lv_text_decor_t, _int, scalar)
 163:lvgl/src/lv_widgets/../lv_core/lv_obj_style_dec.h **** _LV_OBJ_STYLE_SET_GET_DECLARE(TEXT_BLEND_MODE, text_blend_mode, lv_blend_mode_t, _int, scalar)
 164:lvgl/src/lv_widgets/../lv_core/lv_obj_style_dec.h **** _LV_OBJ_STYLE_SET_GET_DECLARE(TEXT_COLOR, text_color, lv_color_t, _color, nonscalar)
 165:lvgl/src/lv_widgets/../lv_core/lv_obj_style_dec.h **** _LV_OBJ_STYLE_SET_GET_DECLARE(TEXT_SEL_COLOR, text_sel_color, lv_color_t, _color, nonscalar)
 166:lvgl/src/lv_widgets/../lv_core/lv_obj_style_dec.h **** _LV_OBJ_STYLE_SET_GET_DECLARE(TEXT_SEL_BG_COLOR, text_sel_bg_color, lv_color_t, _color, nonscalar)
 167:lvgl/src/lv_widgets/../lv_core/lv_obj_style_dec.h **** _LV_OBJ_STYLE_SET_GET_DECLARE(TEXT_OPA, text_opa, lv_opa_t, _opa, scalar)
 168:lvgl/src/lv_widgets/../lv_core/lv_obj_style_dec.h **** _LV_OBJ_STYLE_SET_GET_DECLARE(TEXT_FONT, text_font, const lv_font_t *, _ptr, scalar)
 331              		.loc 2 168 1 view .LVU80
 332              	.LBB102:
 333              		.loc 2 168 1 view .LVU81
 334 006e 48F28E02 		movw	r2, #32910
 335 0072 4221     		movs	r1, #66
 336 0074 2046     		mov	r0, r4
 337 0076 FFF7FEFF 		bl	_lv_obj_get_style_ptr
 338              	.LVL41:
 339 007a 0746     		mov	r7, r0
 340              	.LVL42:
 341              		.loc 2 168 1 is_stmt 0 view .LVU82
 342              	.LBE102:
 343              	.LBE101:
 928:lvgl/src/lv_widgets/lv_tabview.c **** 
 929:lvgl/src/lv_widgets/lv_tabview.c ****     /*Set the tabs height/width*/
 930:lvgl/src/lv_widgets/lv_tabview.c ****     lv_coord_t btns_w;
 344              		.loc 1 930 5 is_stmt 1 view .LVU83
 931:lvgl/src/lv_widgets/lv_tabview.c ****     lv_coord_t btns_h;
 345              		.loc 1 931 5 view .LVU84
 932:lvgl/src/lv_widgets/lv_tabview.c **** 
 933:lvgl/src/lv_widgets/lv_tabview.c ****     switch(ext->btns_pos) {
 346              		.loc 1 933 5 view .LVU85
 347              		.loc 1 933 15 is_stmt 0 view .LVU86
 348 007c B37E     		ldrb	r3, [r6, #26]	@ zero_extendqisi2
 349 007e 03F00703 		and	r3, r3, #7
ARM GAS  D:\Temp\ccnA29ZW.s 			page 27


 350              		.loc 1 933 5 view .LVU87
 351 0082 013B     		subs	r3, r3, #1
 352 0084 032B     		cmp	r3, #3
 353 0086 03D8     		bhi	.L17
 354 0088 DFE803F0 		tbb	[pc, r3]
 355              	.L19:
 356 008c 0A       		.byte	(.L20-.L19)/2
 357 008d 0A       		.byte	(.L20-.L19)/2
 358 008e 26       		.byte	(.L18-.L19)/2
 359 008f 26       		.byte	(.L18-.L19)/2
 360              		.p2align 1
 361              	.L17:
 934:lvgl/src/lv_widgets/lv_tabview.c ****         default: /*default case is prevented in lv_tabview_set_btns_pos(), but here for safety*/
 935:lvgl/src/lv_widgets/lv_tabview.c ****         case LV_TABVIEW_TAB_POS_NONE:
 936:lvgl/src/lv_widgets/lv_tabview.c ****             btns_w = 0;
 362              		.loc 1 936 13 is_stmt 1 view .LVU88
 363              	.LVL43:
 937:lvgl/src/lv_widgets/lv_tabview.c ****             btns_h = 0;
 364              		.loc 1 937 13 view .LVU89
 938:lvgl/src/lv_widgets/lv_tabview.c ****             lv_obj_set_hidden(ext->btns, true);
 365              		.loc 1 938 13 view .LVU90
 366 0090 0121     		movs	r1, #1
 367 0092 3068     		ldr	r0, [r6]
 368              	.LVL44:
 369              		.loc 1 938 13 is_stmt 0 view .LVU91
 370 0094 FFF7FEFF 		bl	lv_obj_set_hidden
 371              	.LVL45:
 939:lvgl/src/lv_widgets/lv_tabview.c ****             break;
 372              		.loc 1 939 13 is_stmt 1 view .LVU92
 937:lvgl/src/lv_widgets/lv_tabview.c ****             btns_h = 0;
 373              		.loc 1 937 20 is_stmt 0 view .LVU93
 374 0098 4FF00008 		mov	r8, #0
 375              	.LVL46:
 936:lvgl/src/lv_widgets/lv_tabview.c ****             btns_h = 0;
 376              		.loc 1 936 20 view .LVU94
 377 009c 4546     		mov	r5, r8
 378              	.LVL47:
 379              		.loc 1 939 13 view .LVU95
 380 009e 13E0     		b	.L21
 381              	.LVL48:
 382              	.L20:
 940:lvgl/src/lv_widgets/lv_tabview.c ****         case LV_TABVIEW_TAB_POS_TOP:
 941:lvgl/src/lv_widgets/lv_tabview.c ****         case LV_TABVIEW_TAB_POS_BOTTOM:
 942:lvgl/src/lv_widgets/lv_tabview.c ****             lv_obj_set_hidden(ext->btns, false);
 383              		.loc 1 942 13 is_stmt 1 view .LVU96
 384 00a0 0021     		movs	r1, #0
 385 00a2 3068     		ldr	r0, [r6]
 386              	.LVL49:
 387              		.loc 1 942 13 is_stmt 0 view .LVU97
 388 00a4 FFF7FEFF 		bl	lv_obj_set_hidden
 389              	.LVL50:
 943:lvgl/src/lv_widgets/lv_tabview.c ****             btns_h = lv_font_get_line_height(font) + tab_top + tab_bottom + tab_bg_top + tab_bg_bot
 390              		.loc 1 943 13 is_stmt 1 view .LVU98
 391              	.LBB103:
 392              	.LBI103:
 393              		.file 3 "lvgl/src/lv_widgets/../lv_core/../lv_font/lv_font.h"
   1:lvgl/src/lv_widgets/../lv_core/../lv_font/lv_font.h **** /**
ARM GAS  D:\Temp\ccnA29ZW.s 			page 28


   2:lvgl/src/lv_widgets/../lv_core/../lv_font/lv_font.h ****  * @file lv_font.h
   3:lvgl/src/lv_widgets/../lv_core/../lv_font/lv_font.h ****  *
   4:lvgl/src/lv_widgets/../lv_core/../lv_font/lv_font.h ****  */
   5:lvgl/src/lv_widgets/../lv_core/../lv_font/lv_font.h **** 
   6:lvgl/src/lv_widgets/../lv_core/../lv_font/lv_font.h **** #ifndef LV_FONT_H
   7:lvgl/src/lv_widgets/../lv_core/../lv_font/lv_font.h **** #define LV_FONT_H
   8:lvgl/src/lv_widgets/../lv_core/../lv_font/lv_font.h **** 
   9:lvgl/src/lv_widgets/../lv_core/../lv_font/lv_font.h **** #ifdef __cplusplus
  10:lvgl/src/lv_widgets/../lv_core/../lv_font/lv_font.h **** extern "C" {
  11:lvgl/src/lv_widgets/../lv_core/../lv_font/lv_font.h **** #endif
  12:lvgl/src/lv_widgets/../lv_core/../lv_font/lv_font.h **** 
  13:lvgl/src/lv_widgets/../lv_core/../lv_font/lv_font.h **** /*********************
  14:lvgl/src/lv_widgets/../lv_core/../lv_font/lv_font.h ****  *      INCLUDES
  15:lvgl/src/lv_widgets/../lv_core/../lv_font/lv_font.h ****  *********************/
  16:lvgl/src/lv_widgets/../lv_core/../lv_font/lv_font.h **** #include "../lv_conf_internal.h"
  17:lvgl/src/lv_widgets/../lv_core/../lv_font/lv_font.h **** #include <stdint.h>
  18:lvgl/src/lv_widgets/../lv_core/../lv_font/lv_font.h **** #include <stddef.h>
  19:lvgl/src/lv_widgets/../lv_core/../lv_font/lv_font.h **** #include <stdbool.h>
  20:lvgl/src/lv_widgets/../lv_core/../lv_font/lv_font.h **** 
  21:lvgl/src/lv_widgets/../lv_core/../lv_font/lv_font.h **** #include "lv_symbol_def.h"
  22:lvgl/src/lv_widgets/../lv_core/../lv_font/lv_font.h **** #include "../lv_misc/lv_area.h"
  23:lvgl/src/lv_widgets/../lv_core/../lv_font/lv_font.h **** 
  24:lvgl/src/lv_widgets/../lv_core/../lv_font/lv_font.h **** /*********************
  25:lvgl/src/lv_widgets/../lv_core/../lv_font/lv_font.h ****  *      DEFINES
  26:lvgl/src/lv_widgets/../lv_core/../lv_font/lv_font.h ****  *********************/
  27:lvgl/src/lv_widgets/../lv_core/../lv_font/lv_font.h **** 
  28:lvgl/src/lv_widgets/../lv_core/../lv_font/lv_font.h **** /**********************
  29:lvgl/src/lv_widgets/../lv_core/../lv_font/lv_font.h ****  *      TYPEDEFS
  30:lvgl/src/lv_widgets/../lv_core/../lv_font/lv_font.h ****  **********************/
  31:lvgl/src/lv_widgets/../lv_core/../lv_font/lv_font.h **** 
  32:lvgl/src/lv_widgets/../lv_core/../lv_font/lv_font.h **** /*------------------
  33:lvgl/src/lv_widgets/../lv_core/../lv_font/lv_font.h ****  * General types
  34:lvgl/src/lv_widgets/../lv_core/../lv_font/lv_font.h ****  *-----------------*/
  35:lvgl/src/lv_widgets/../lv_core/../lv_font/lv_font.h **** 
  36:lvgl/src/lv_widgets/../lv_core/../lv_font/lv_font.h **** /** Describes the properties of a glyph. */
  37:lvgl/src/lv_widgets/../lv_core/../lv_font/lv_font.h **** typedef struct {
  38:lvgl/src/lv_widgets/../lv_core/../lv_font/lv_font.h ****     uint16_t adv_w; /**< The glyph needs this space. Draw the next glyph after this width. 8 bit in
  39:lvgl/src/lv_widgets/../lv_core/../lv_font/lv_font.h ****     uint16_t box_w;  /**< Width of the glyph's bounding box*/
  40:lvgl/src/lv_widgets/../lv_core/../lv_font/lv_font.h ****     uint16_t box_h;  /**< Height of the glyph's bounding box*/
  41:lvgl/src/lv_widgets/../lv_core/../lv_font/lv_font.h ****     int16_t ofs_x;   /**< x offset of the bounding box*/
  42:lvgl/src/lv_widgets/../lv_core/../lv_font/lv_font.h ****     int16_t ofs_y;  /**< y offset of the bounding box*/
  43:lvgl/src/lv_widgets/../lv_core/../lv_font/lv_font.h ****     uint8_t bpp;   /**< Bit-per-pixel: 1, 2, 4, 8*/
  44:lvgl/src/lv_widgets/../lv_core/../lv_font/lv_font.h **** } lv_font_glyph_dsc_t;
  45:lvgl/src/lv_widgets/../lv_core/../lv_font/lv_font.h **** 
  46:lvgl/src/lv_widgets/../lv_core/../lv_font/lv_font.h **** /** The bitmaps might be upscaled by 3 to achieve subpixel rendering. */
  47:lvgl/src/lv_widgets/../lv_core/../lv_font/lv_font.h **** enum {
  48:lvgl/src/lv_widgets/../lv_core/../lv_font/lv_font.h ****     LV_FONT_SUBPX_NONE,
  49:lvgl/src/lv_widgets/../lv_core/../lv_font/lv_font.h ****     LV_FONT_SUBPX_HOR,
  50:lvgl/src/lv_widgets/../lv_core/../lv_font/lv_font.h ****     LV_FONT_SUBPX_VER,
  51:lvgl/src/lv_widgets/../lv_core/../lv_font/lv_font.h ****     LV_FONT_SUBPX_BOTH,
  52:lvgl/src/lv_widgets/../lv_core/../lv_font/lv_font.h **** };
  53:lvgl/src/lv_widgets/../lv_core/../lv_font/lv_font.h **** 
  54:lvgl/src/lv_widgets/../lv_core/../lv_font/lv_font.h **** typedef uint8_t lv_font_subpx_t;
  55:lvgl/src/lv_widgets/../lv_core/../lv_font/lv_font.h **** 
  56:lvgl/src/lv_widgets/../lv_core/../lv_font/lv_font.h **** /** Describe the properties of a font*/
  57:lvgl/src/lv_widgets/../lv_core/../lv_font/lv_font.h **** typedef struct _lv_font_struct {
  58:lvgl/src/lv_widgets/../lv_core/../lv_font/lv_font.h ****     /** Get a glyph's descriptor from a font*/
ARM GAS  D:\Temp\ccnA29ZW.s 			page 29


  59:lvgl/src/lv_widgets/../lv_core/../lv_font/lv_font.h ****     bool (*get_glyph_dsc)(const struct _lv_font_struct *, lv_font_glyph_dsc_t *, uint32_t letter, u
  60:lvgl/src/lv_widgets/../lv_core/../lv_font/lv_font.h **** 
  61:lvgl/src/lv_widgets/../lv_core/../lv_font/lv_font.h ****     /** Get a glyph's bitmap from a font*/
  62:lvgl/src/lv_widgets/../lv_core/../lv_font/lv_font.h ****     const uint8_t * (*get_glyph_bitmap)(const struct _lv_font_struct *, uint32_t);
  63:lvgl/src/lv_widgets/../lv_core/../lv_font/lv_font.h **** 
  64:lvgl/src/lv_widgets/../lv_core/../lv_font/lv_font.h ****     /*Pointer to the font in a font pack (must have the same line height)*/
  65:lvgl/src/lv_widgets/../lv_core/../lv_font/lv_font.h ****     lv_coord_t line_height;         /**< The real line height where any text fits*/
  66:lvgl/src/lv_widgets/../lv_core/../lv_font/lv_font.h ****     lv_coord_t base_line;           /**< Base line measured from the top of the line_height*/
  67:lvgl/src/lv_widgets/../lv_core/../lv_font/lv_font.h ****     uint8_t subpx  : 2;             /**< An element of `lv_font_subpx_t`*/
  68:lvgl/src/lv_widgets/../lv_core/../lv_font/lv_font.h **** 
  69:lvgl/src/lv_widgets/../lv_core/../lv_font/lv_font.h ****     int8_t underline_position;      /**< Distance between the top of the underline and base line (<
  70:lvgl/src/lv_widgets/../lv_core/../lv_font/lv_font.h ****     int8_t underline_thickness;     /**< Thickness of the underline*/
  71:lvgl/src/lv_widgets/../lv_core/../lv_font/lv_font.h **** 
  72:lvgl/src/lv_widgets/../lv_core/../lv_font/lv_font.h ****     void * dsc;                     /**< Store implementation specific or run_time data or caching 
  73:lvgl/src/lv_widgets/../lv_core/../lv_font/lv_font.h **** #if LV_USE_USER_DATA
  74:lvgl/src/lv_widgets/../lv_core/../lv_font/lv_font.h ****     lv_font_user_data_t user_data;  /**< Custom user data for font. */
  75:lvgl/src/lv_widgets/../lv_core/../lv_font/lv_font.h **** #endif
  76:lvgl/src/lv_widgets/../lv_core/../lv_font/lv_font.h **** 
  77:lvgl/src/lv_widgets/../lv_core/../lv_font/lv_font.h **** } lv_font_t;
  78:lvgl/src/lv_widgets/../lv_core/../lv_font/lv_font.h **** 
  79:lvgl/src/lv_widgets/../lv_core/../lv_font/lv_font.h **** /**********************
  80:lvgl/src/lv_widgets/../lv_core/../lv_font/lv_font.h ****  * GLOBAL PROTOTYPES
  81:lvgl/src/lv_widgets/../lv_core/../lv_font/lv_font.h ****  **********************/
  82:lvgl/src/lv_widgets/../lv_core/../lv_font/lv_font.h **** 
  83:lvgl/src/lv_widgets/../lv_core/../lv_font/lv_font.h **** /**
  84:lvgl/src/lv_widgets/../lv_core/../lv_font/lv_font.h ****  * Return with the bitmap of a font.
  85:lvgl/src/lv_widgets/../lv_core/../lv_font/lv_font.h ****  * @param font_p pointer to a font
  86:lvgl/src/lv_widgets/../lv_core/../lv_font/lv_font.h ****  * @param letter an UNICODE character code
  87:lvgl/src/lv_widgets/../lv_core/../lv_font/lv_font.h ****  * @return pointer to the bitmap of the letter
  88:lvgl/src/lv_widgets/../lv_core/../lv_font/lv_font.h ****  */
  89:lvgl/src/lv_widgets/../lv_core/../lv_font/lv_font.h **** const uint8_t * lv_font_get_glyph_bitmap(const lv_font_t * font_p, uint32_t letter);
  90:lvgl/src/lv_widgets/../lv_core/../lv_font/lv_font.h **** 
  91:lvgl/src/lv_widgets/../lv_core/../lv_font/lv_font.h **** /**
  92:lvgl/src/lv_widgets/../lv_core/../lv_font/lv_font.h ****  * Get the descriptor of a glyph
  93:lvgl/src/lv_widgets/../lv_core/../lv_font/lv_font.h ****  * @param font_p pointer to font
  94:lvgl/src/lv_widgets/../lv_core/../lv_font/lv_font.h ****  * @param dsc_out store the result descriptor here
  95:lvgl/src/lv_widgets/../lv_core/../lv_font/lv_font.h ****  * @param letter an UNICODE letter code
  96:lvgl/src/lv_widgets/../lv_core/../lv_font/lv_font.h ****  * @return true: descriptor is successfully loaded into `dsc_out`.
  97:lvgl/src/lv_widgets/../lv_core/../lv_font/lv_font.h ****  *         false: the letter was not found, no data is loaded to `dsc_out`
  98:lvgl/src/lv_widgets/../lv_core/../lv_font/lv_font.h ****  */
  99:lvgl/src/lv_widgets/../lv_core/../lv_font/lv_font.h **** bool lv_font_get_glyph_dsc(const lv_font_t * font_p, lv_font_glyph_dsc_t * dsc_out, uint32_t letter
 100:lvgl/src/lv_widgets/../lv_core/../lv_font/lv_font.h ****                            uint32_t letter_next);
 101:lvgl/src/lv_widgets/../lv_core/../lv_font/lv_font.h **** 
 102:lvgl/src/lv_widgets/../lv_core/../lv_font/lv_font.h **** /**
 103:lvgl/src/lv_widgets/../lv_core/../lv_font/lv_font.h ****  * Get the width of a glyph with kerning
 104:lvgl/src/lv_widgets/../lv_core/../lv_font/lv_font.h ****  * @param font pointer to a font
 105:lvgl/src/lv_widgets/../lv_core/../lv_font/lv_font.h ****  * @param letter an UNICODE letter
 106:lvgl/src/lv_widgets/../lv_core/../lv_font/lv_font.h ****  * @param letter_next the next letter after `letter`. Used for kerning
 107:lvgl/src/lv_widgets/../lv_core/../lv_font/lv_font.h ****  * @return the width of the glyph
 108:lvgl/src/lv_widgets/../lv_core/../lv_font/lv_font.h ****  */
 109:lvgl/src/lv_widgets/../lv_core/../lv_font/lv_font.h **** uint16_t lv_font_get_glyph_width(const lv_font_t * font, uint32_t letter, uint32_t letter_next);
 110:lvgl/src/lv_widgets/../lv_core/../lv_font/lv_font.h **** 
 111:lvgl/src/lv_widgets/../lv_core/../lv_font/lv_font.h **** /**
 112:lvgl/src/lv_widgets/../lv_core/../lv_font/lv_font.h ****  * Get the line height of a font. All characters fit into this height
 113:lvgl/src/lv_widgets/../lv_core/../lv_font/lv_font.h ****  * @param font_p pointer to a font
 114:lvgl/src/lv_widgets/../lv_core/../lv_font/lv_font.h ****  * @return the height of a font
 115:lvgl/src/lv_widgets/../lv_core/../lv_font/lv_font.h ****  */
ARM GAS  D:\Temp\ccnA29ZW.s 			page 30


 116:lvgl/src/lv_widgets/../lv_core/../lv_font/lv_font.h **** static inline lv_coord_t lv_font_get_line_height(const lv_font_t * font_p)
 394              		.loc 3 116 26 view .LVU99
 395              	.LBB104:
 117:lvgl/src/lv_widgets/../lv_core/../lv_font/lv_font.h **** {
 118:lvgl/src/lv_widgets/../lv_core/../lv_font/lv_font.h ****     return font_p->line_height;
 396              		.loc 3 118 5 view .LVU100
 397              		.loc 3 118 18 is_stmt 0 view .LVU101
 398 00a8 B7F90830 		ldrsh	r3, [r7, #8]
 399              	.LVL51:
 400              		.loc 3 118 18 view .LVU102
 401              	.LBE104:
 402              	.LBE103:
 403              		.loc 1 943 52 view .LVU103
 404 00ac 1BFA83FB 		uxtah	fp, fp, r3
 405              	.LVL52:
 406              		.loc 1 943 62 view .LVU104
 407 00b0 1AFA8BFA 		uxtah	r10, r10, fp
 408              	.LVL53:
 409              		.loc 1 943 75 view .LVU105
 410 00b4 19FA8AF9 		uxtah	r9, r9, r10
 411              	.LVL54:
 412              		.loc 1 943 88 view .LVU106
 413 00b8 18FA89F8 		uxtah	r8, r8, r9
 414              	.LVL55:
 415              		.loc 1 943 20 view .LVU107
 416 00bc 0FFA88F8 		sxth	r8, r8
 417              	.LVL56:
 944:lvgl/src/lv_widgets/lv_tabview.c ****             btns_w = lv_obj_get_width(tabview);
 418              		.loc 1 944 13 is_stmt 1 view .LVU108
 419              		.loc 1 944 22 is_stmt 0 view .LVU109
 420 00c0 2046     		mov	r0, r4
 421 00c2 FFF7FEFF 		bl	lv_obj_get_width
 422              	.LVL57:
 423 00c6 0546     		mov	r5, r0
 424              	.LVL58:
 945:lvgl/src/lv_widgets/lv_tabview.c **** 
 946:lvgl/src/lv_widgets/lv_tabview.c ****             break;
 425              		.loc 1 946 13 is_stmt 1 view .LVU110
 426              	.L21:
 947:lvgl/src/lv_widgets/lv_tabview.c ****         case LV_TABVIEW_TAB_POS_LEFT:
 948:lvgl/src/lv_widgets/lv_tabview.c ****         case LV_TABVIEW_TAB_POS_RIGHT:
 949:lvgl/src/lv_widgets/lv_tabview.c ****             lv_obj_set_hidden(ext->btns, false);
 950:lvgl/src/lv_widgets/lv_tabview.c ****             btns_w = lv_font_get_glyph_width(font, 'A', '\0') +
 951:lvgl/src/lv_widgets/lv_tabview.c ****                      tab_left + tab_right + tab_bg_left + tab_bg_right;
 952:lvgl/src/lv_widgets/lv_tabview.c ****             btns_h = lv_obj_get_height(tabview);
 953:lvgl/src/lv_widgets/lv_tabview.c ****             break;
 954:lvgl/src/lv_widgets/lv_tabview.c ****     }
 955:lvgl/src/lv_widgets/lv_tabview.c **** 
 956:lvgl/src/lv_widgets/lv_tabview.c ****     lv_obj_set_size(ext->btns, btns_w, btns_h);
 427              		.loc 1 956 5 view .LVU111
 428 00c8 4246     		mov	r2, r8
 429 00ca 2946     		mov	r1, r5
 430 00cc 3068     		ldr	r0, [r6]
 431 00ce FFF7FEFF 		bl	lv_obj_set_size
 432              	.LVL59:
 957:lvgl/src/lv_widgets/lv_tabview.c **** }
 433              		.loc 1 957 1 is_stmt 0 view .LVU112
ARM GAS  D:\Temp\ccnA29ZW.s 			page 31


 434 00d2 05B0     		add	sp, sp, #20
 435              	.LCFI3:
 436              		.cfi_remember_state
 437              		.cfi_def_cfa_offset 36
 438              		@ sp needed
 439 00d4 BDE8F08F 		pop	{r4, r5, r6, r7, r8, r9, r10, fp, pc}
 440              	.LVL60:
 441              	.L18:
 442              	.LCFI4:
 443              		.cfi_restore_state
 949:lvgl/src/lv_widgets/lv_tabview.c ****             btns_w = lv_font_get_glyph_width(font, 'A', '\0') +
 444              		.loc 1 949 13 is_stmt 1 view .LVU113
 445 00d8 0021     		movs	r1, #0
 446 00da 3068     		ldr	r0, [r6]
 447              	.LVL61:
 949:lvgl/src/lv_widgets/lv_tabview.c ****             btns_w = lv_font_get_glyph_width(font, 'A', '\0') +
 448              		.loc 1 949 13 is_stmt 0 view .LVU114
 449 00dc FFF7FEFF 		bl	lv_obj_set_hidden
 450              	.LVL62:
 950:lvgl/src/lv_widgets/lv_tabview.c ****                      tab_left + tab_right + tab_bg_left + tab_bg_right;
 451              		.loc 1 950 13 is_stmt 1 view .LVU115
 950:lvgl/src/lv_widgets/lv_tabview.c ****                      tab_left + tab_right + tab_bg_left + tab_bg_right;
 452              		.loc 1 950 22 is_stmt 0 view .LVU116
 453 00e0 0022     		movs	r2, #0
 454 00e2 4121     		movs	r1, #65
 455 00e4 3846     		mov	r0, r7
 456 00e6 FFF7FEFF 		bl	lv_font_get_glyph_width
 457              	.LVL63:
 950:lvgl/src/lv_widgets/lv_tabview.c ****                      tab_left + tab_right + tab_bg_left + tab_bg_right;
 458              		.loc 1 950 63 view .LVU117
 459 00ea 0544     		add	r5, r5, r0
 460              	.LVL64:
 951:lvgl/src/lv_widgets/lv_tabview.c ****             btns_h = lv_obj_get_height(tabview);
 461              		.loc 1 951 31 view .LVU118
 462 00ec 019B     		ldr	r3, [sp, #4]
 463 00ee 13FA85F5 		uxtah	r5, r3, r5
 951:lvgl/src/lv_widgets/lv_tabview.c ****             btns_h = lv_obj_get_height(tabview);
 464              		.loc 1 951 43 view .LVU119
 465 00f2 039B     		ldr	r3, [sp, #12]
 466 00f4 13FA85F5 		uxtah	r5, r3, r5
 951:lvgl/src/lv_widgets/lv_tabview.c ****             btns_h = lv_obj_get_height(tabview);
 467              		.loc 1 951 57 view .LVU120
 468 00f8 029B     		ldr	r3, [sp, #8]
 469 00fa 13FA85F5 		uxtah	r5, r3, r5
 950:lvgl/src/lv_widgets/lv_tabview.c ****                      tab_left + tab_right + tab_bg_left + tab_bg_right;
 470              		.loc 1 950 20 view .LVU121
 471 00fe 2DB2     		sxth	r5, r5
 472              	.LVL65:
 952:lvgl/src/lv_widgets/lv_tabview.c ****             break;
 473              		.loc 1 952 13 is_stmt 1 view .LVU122
 952:lvgl/src/lv_widgets/lv_tabview.c ****             break;
 474              		.loc 1 952 22 is_stmt 0 view .LVU123
 475 0100 2046     		mov	r0, r4
 476 0102 FFF7FEFF 		bl	lv_obj_get_height
 477              	.LVL66:
 478 0106 8046     		mov	r8, r0
 479              	.LVL67:
ARM GAS  D:\Temp\ccnA29ZW.s 			page 32


 953:lvgl/src/lv_widgets/lv_tabview.c ****     }
 480              		.loc 1 953 13 is_stmt 1 view .LVU124
 481 0108 DEE7     		b	.L21
 482              		.cfi_endproc
 483              	.LFE508:
 485              		.section	.text.refr_content_size,"ax",%progbits
 486              		.align	1
 487              		.syntax unified
 488              		.thumb
 489              		.thumb_func
 490              		.fpu fpv4-sp-d16
 492              	refr_content_size:
 493              	.LVL68:
 494              	.LFB509:
 958:lvgl/src/lv_widgets/lv_tabview.c **** 
 959:lvgl/src/lv_widgets/lv_tabview.c **** static void refr_content_size(lv_obj_t * tabview)
 960:lvgl/src/lv_widgets/lv_tabview.c **** {
 495              		.loc 1 960 1 view -0
 496              		.cfi_startproc
 497              		@ args = 0, pretend = 0, frame = 0
 498              		@ frame_needed = 0, uses_anonymous_args = 0
 499              		.loc 1 960 1 is_stmt 0 view .LVU126
 500 0000 2DE9F041 		push	{r4, r5, r6, r7, r8, lr}
 501              	.LCFI5:
 502              		.cfi_def_cfa_offset 24
 503              		.cfi_offset 4, -24
 504              		.cfi_offset 5, -20
 505              		.cfi_offset 6, -16
 506              		.cfi_offset 7, -12
 507              		.cfi_offset 8, -8
 508              		.cfi_offset 14, -4
 509 0004 8046     		mov	r8, r0
 961:lvgl/src/lv_widgets/lv_tabview.c ****     lv_tabview_ext_t * ext = lv_obj_get_ext_attr(tabview);
 510              		.loc 1 961 5 is_stmt 1 view .LVU127
 511              		.loc 1 961 30 is_stmt 0 view .LVU128
 512 0006 FFF7FEFF 		bl	lv_obj_get_ext_attr
 513              	.LVL69:
 514              		.loc 1 961 30 view .LVU129
 515 000a 0546     		mov	r5, r0
 516              	.LVL70:
 962:lvgl/src/lv_widgets/lv_tabview.c ****     lv_coord_t cont_w;
 517              		.loc 1 962 5 is_stmt 1 view .LVU130
 963:lvgl/src/lv_widgets/lv_tabview.c ****     lv_coord_t cont_h;
 518              		.loc 1 963 5 view .LVU131
 964:lvgl/src/lv_widgets/lv_tabview.c **** 
 965:lvgl/src/lv_widgets/lv_tabview.c ****     switch(ext->btns_pos) {
 519              		.loc 1 965 5 view .LVU132
 520              		.loc 1 965 15 is_stmt 0 view .LVU133
 521 000c 837E     		ldrb	r3, [r0, #26]	@ zero_extendqisi2
 522 000e 03F00703 		and	r3, r3, #7
 523              		.loc 1 965 5 view .LVU134
 524 0012 013B     		subs	r3, r3, #1
 525 0014 032B     		cmp	r3, #3
 526 0016 03D8     		bhi	.L24
 527 0018 DFE803F0 		tbb	[pc, r3]
 528              	.L26:
 529 001c 0B       		.byte	(.L27-.L26)/2
ARM GAS  D:\Temp\ccnA29ZW.s 			page 33


 530 001d 0B       		.byte	(.L27-.L26)/2
 531 001e 36       		.byte	(.L25-.L26)/2
 532 001f 36       		.byte	(.L25-.L26)/2
 533              		.p2align 1
 534              	.L24:
 966:lvgl/src/lv_widgets/lv_tabview.c ****         default: /*default case is prevented in lv_tabview_set_btns_pos(), but here for safety*/
 967:lvgl/src/lv_widgets/lv_tabview.c ****         case LV_TABVIEW_TAB_POS_NONE:
 968:lvgl/src/lv_widgets/lv_tabview.c ****             cont_w = lv_obj_get_width(tabview);
 535              		.loc 1 968 13 is_stmt 1 view .LVU135
 536              		.loc 1 968 22 is_stmt 0 view .LVU136
 537 0020 4046     		mov	r0, r8
 538              	.LVL71:
 539              		.loc 1 968 22 view .LVU137
 540 0022 FFF7FEFF 		bl	lv_obj_get_width
 541              	.LVL72:
 542 0026 0746     		mov	r7, r0
 543              	.LVL73:
 969:lvgl/src/lv_widgets/lv_tabview.c ****             cont_h = lv_obj_get_height(tabview);
 544              		.loc 1 969 13 is_stmt 1 view .LVU138
 545              		.loc 1 969 22 is_stmt 0 view .LVU139
 546 0028 4046     		mov	r0, r8
 547 002a FFF7FEFF 		bl	lv_obj_get_height
 548              	.LVL74:
 549 002e 0446     		mov	r4, r0
 550              	.LVL75:
 970:lvgl/src/lv_widgets/lv_tabview.c ****             break;
 551              		.loc 1 970 13 is_stmt 1 view .LVU140
 552 0030 0DE0     		b	.L28
 553              	.LVL76:
 554              	.L27:
 971:lvgl/src/lv_widgets/lv_tabview.c ****         case LV_TABVIEW_TAB_POS_TOP:
 972:lvgl/src/lv_widgets/lv_tabview.c ****         case LV_TABVIEW_TAB_POS_BOTTOM:
 973:lvgl/src/lv_widgets/lv_tabview.c ****             cont_w = lv_obj_get_width(tabview);
 555              		.loc 1 973 13 view .LVU141
 556              		.loc 1 973 22 is_stmt 0 view .LVU142
 557 0032 4046     		mov	r0, r8
 558              	.LVL77:
 559              		.loc 1 973 22 view .LVU143
 560 0034 FFF7FEFF 		bl	lv_obj_get_width
 561              	.LVL78:
 562 0038 0746     		mov	r7, r0
 563              	.LVL79:
 974:lvgl/src/lv_widgets/lv_tabview.c ****             cont_h = lv_obj_get_height(tabview) - lv_obj_get_height(ext->btns);
 564              		.loc 1 974 13 is_stmt 1 view .LVU144
 565              		.loc 1 974 22 is_stmt 0 view .LVU145
 566 003a 4046     		mov	r0, r8
 567 003c FFF7FEFF 		bl	lv_obj_get_height
 568              	.LVL80:
 569 0040 84B2     		uxth	r4, r0
 570              		.loc 1 974 51 view .LVU146
 571 0042 2868     		ldr	r0, [r5]
 572 0044 FFF7FEFF 		bl	lv_obj_get_height
 573              	.LVL81:
 574 0048 80B2     		uxth	r0, r0
 575              		.loc 1 974 49 view .LVU147
 576 004a 241A     		subs	r4, r4, r0
 577              		.loc 1 974 20 view .LVU148
ARM GAS  D:\Temp\ccnA29ZW.s 			page 34


 578 004c 24B2     		sxth	r4, r4
 579              	.LVL82:
 975:lvgl/src/lv_widgets/lv_tabview.c ****             break;
 580              		.loc 1 975 13 is_stmt 1 view .LVU149
 581              	.L28:
 976:lvgl/src/lv_widgets/lv_tabview.c ****         case LV_TABVIEW_TAB_POS_LEFT:
 977:lvgl/src/lv_widgets/lv_tabview.c ****         case LV_TABVIEW_TAB_POS_RIGHT:
 978:lvgl/src/lv_widgets/lv_tabview.c ****             cont_w = lv_obj_get_width(tabview) - lv_obj_get_width(ext->btns);
 979:lvgl/src/lv_widgets/lv_tabview.c ****             cont_h = lv_obj_get_height(tabview);
 980:lvgl/src/lv_widgets/lv_tabview.c ****             break;
 981:lvgl/src/lv_widgets/lv_tabview.c ****     }
 982:lvgl/src/lv_widgets/lv_tabview.c **** 
 983:lvgl/src/lv_widgets/lv_tabview.c ****     lv_obj_set_size(ext->content, cont_w, cont_h);
 582              		.loc 1 983 5 view .LVU150
 583 004e 2246     		mov	r2, r4
 584 0050 3946     		mov	r1, r7
 585 0052 A868     		ldr	r0, [r5, #8]
 586 0054 FFF7FEFF 		bl	lv_obj_set_size
 587              	.LVL83:
 984:lvgl/src/lv_widgets/lv_tabview.c **** 
 985:lvgl/src/lv_widgets/lv_tabview.c ****     /*Refresh the size of the tab pages too. `ext->content` has a layout to align the pages*/
 986:lvgl/src/lv_widgets/lv_tabview.c ****     lv_style_int_t bg_top = lv_obj_get_style_pad_top(tabview, LV_TABVIEW_PART_BG_SCROLLABLE);
 588              		.loc 1 986 5 view .LVU151
 589              	.LBB105:
 590              	.LBI105:
 110:lvgl/src/lv_widgets/../lv_core/lv_obj_style_dec.h **** _LV_OBJ_STYLE_SET_GET_DECLARE(PAD_BOTTOM, pad_bottom, lv_style_int_t, _int, scalar)
 591              		.loc 2 110 1 view .LVU152
 592              	.LBB106:
 110:lvgl/src/lv_widgets/../lv_core/lv_obj_style_dec.h **** _LV_OBJ_STYLE_SET_GET_DECLARE(PAD_BOTTOM, pad_bottom, lv_style_int_t, _int, scalar)
 593              		.loc 2 110 1 view .LVU153
 594 0058 1022     		movs	r2, #16
 595 005a 4021     		movs	r1, #64
 596 005c 4046     		mov	r0, r8
 597 005e FFF7FEFF 		bl	_lv_obj_get_style_int
 598              	.LVL84:
 599 0062 0646     		mov	r6, r0
 600              	.LVL85:
 110:lvgl/src/lv_widgets/../lv_core/lv_obj_style_dec.h **** _LV_OBJ_STYLE_SET_GET_DECLARE(PAD_BOTTOM, pad_bottom, lv_style_int_t, _int, scalar)
 601              		.loc 2 110 1 is_stmt 0 view .LVU154
 602              	.LBE106:
 603              	.LBE105:
 987:lvgl/src/lv_widgets/lv_tabview.c ****     lv_style_int_t bg_bottom = lv_obj_get_style_pad_bottom(tabview, LV_TABVIEW_PART_BG_SCROLLABLE);
 604              		.loc 1 987 5 is_stmt 1 view .LVU155
 605              	.LBB107:
 606              	.LBI107:
 111:lvgl/src/lv_widgets/../lv_core/lv_obj_style_dec.h **** _LV_OBJ_STYLE_SET_GET_DECLARE(PAD_LEFT, pad_left, lv_style_int_t, _int, scalar)
 607              		.loc 2 111 1 view .LVU156
 608              	.LBB108:
 111:lvgl/src/lv_widgets/../lv_core/lv_obj_style_dec.h **** _LV_OBJ_STYLE_SET_GET_DECLARE(PAD_LEFT, pad_left, lv_style_int_t, _int, scalar)
 609              		.loc 2 111 1 view .LVU157
 610 0064 1122     		movs	r2, #17
 611 0066 4021     		movs	r1, #64
 612 0068 4046     		mov	r0, r8
 613 006a FFF7FEFF 		bl	_lv_obj_get_style_int
 614              	.LVL86:
 111:lvgl/src/lv_widgets/../lv_core/lv_obj_style_dec.h **** _LV_OBJ_STYLE_SET_GET_DECLARE(PAD_LEFT, pad_left, lv_style_int_t, _int, scalar)
 615              		.loc 2 111 1 is_stmt 0 view .LVU158
ARM GAS  D:\Temp\ccnA29ZW.s 			page 35


 616              	.LBE108:
 617              	.LBE107:
 988:lvgl/src/lv_widgets/lv_tabview.c ****     cont_h -= bg_top + bg_bottom;
 618              		.loc 1 988 5 is_stmt 1 view .LVU159
 619              		.loc 1 988 22 is_stmt 0 view .LVU160
 620 006e 0644     		add	r6, r6, r0
 621              	.LVL87:
 622              		.loc 1 988 22 view .LVU161
 623 0070 B6B2     		uxth	r6, r6
 624              		.loc 1 988 12 view .LVU162
 625 0072 A41B     		subs	r4, r4, r6
 626              	.LVL88:
 627              		.loc 1 988 12 view .LVU163
 628 0074 26B2     		sxth	r6, r4
 629              	.LVL89:
 989:lvgl/src/lv_widgets/lv_tabview.c ****     lv_obj_t * content_scrl = lv_page_get_scrollable(ext->content);
 630              		.loc 1 989 5 is_stmt 1 view .LVU164
 631              		.loc 1 989 31 is_stmt 0 view .LVU165
 632 0076 A868     		ldr	r0, [r5, #8]
 633              	.LVL90:
 634              		.loc 1 989 31 view .LVU166
 635 0078 FFF7FEFF 		bl	lv_page_get_scrollable
 636              	.LVL91:
 637 007c 0546     		mov	r5, r0
 638              	.LVL92:
 990:lvgl/src/lv_widgets/lv_tabview.c ****     lv_obj_t * pages = lv_obj_get_child(content_scrl, NULL);
 639              		.loc 1 990 5 is_stmt 1 view .LVU167
 640              		.loc 1 990 24 is_stmt 0 view .LVU168
 641 007e 0021     		movs	r1, #0
 642 0080 FFF7FEFF 		bl	lv_obj_get_child
 643              	.LVL93:
 644              		.loc 1 990 24 view .LVU169
 645 0084 0446     		mov	r4, r0
 646              	.LVL94:
 991:lvgl/src/lv_widgets/lv_tabview.c ****     while(pages != NULL) {
 647              		.loc 1 991 5 is_stmt 1 view .LVU170
 648              		.loc 1 991 10 is_stmt 0 view .LVU171
 649 0086 13E0     		b	.L29
 650              	.LVL95:
 651              	.L25:
 978:lvgl/src/lv_widgets/lv_tabview.c ****             cont_h = lv_obj_get_height(tabview);
 652              		.loc 1 978 13 is_stmt 1 view .LVU172
 978:lvgl/src/lv_widgets/lv_tabview.c ****             cont_h = lv_obj_get_height(tabview);
 653              		.loc 1 978 22 is_stmt 0 view .LVU173
 654 0088 4046     		mov	r0, r8
 655              	.LVL96:
 978:lvgl/src/lv_widgets/lv_tabview.c ****             cont_h = lv_obj_get_height(tabview);
 656              		.loc 1 978 22 view .LVU174
 657 008a FFF7FEFF 		bl	lv_obj_get_width
 658              	.LVL97:
 659 008e 87B2     		uxth	r7, r0
 978:lvgl/src/lv_widgets/lv_tabview.c ****             cont_h = lv_obj_get_height(tabview);
 660              		.loc 1 978 50 view .LVU175
 661 0090 2868     		ldr	r0, [r5]
 662 0092 FFF7FEFF 		bl	lv_obj_get_width
 663              	.LVL98:
 664 0096 80B2     		uxth	r0, r0
ARM GAS  D:\Temp\ccnA29ZW.s 			page 36


 978:lvgl/src/lv_widgets/lv_tabview.c ****             cont_h = lv_obj_get_height(tabview);
 665              		.loc 1 978 48 view .LVU176
 666 0098 3F1A     		subs	r7, r7, r0
 978:lvgl/src/lv_widgets/lv_tabview.c ****             cont_h = lv_obj_get_height(tabview);
 667              		.loc 1 978 20 view .LVU177
 668 009a 3FB2     		sxth	r7, r7
 669              	.LVL99:
 979:lvgl/src/lv_widgets/lv_tabview.c ****             break;
 670              		.loc 1 979 13 is_stmt 1 view .LVU178
 979:lvgl/src/lv_widgets/lv_tabview.c ****             break;
 671              		.loc 1 979 22 is_stmt 0 view .LVU179
 672 009c 4046     		mov	r0, r8
 673 009e FFF7FEFF 		bl	lv_obj_get_height
 674              	.LVL100:
 675 00a2 0446     		mov	r4, r0
 676              	.LVL101:
 980:lvgl/src/lv_widgets/lv_tabview.c ****     }
 677              		.loc 1 980 13 is_stmt 1 view .LVU180
 678 00a4 D3E7     		b	.L28
 679              	.LVL102:
 680              	.L30:
 992:lvgl/src/lv_widgets/lv_tabview.c ****         /*Be sure adjust only the pages (user can other things)*/
 993:lvgl/src/lv_widgets/lv_tabview.c ****         if(lv_obj_get_signal_cb(pages) == page_signal) {
 994:lvgl/src/lv_widgets/lv_tabview.c ****             lv_obj_set_size(pages, cont_w, cont_h);
 995:lvgl/src/lv_widgets/lv_tabview.c ****         }
 996:lvgl/src/lv_widgets/lv_tabview.c ****         pages = lv_obj_get_child(content_scrl, pages);
 681              		.loc 1 996 9 view .LVU181
 682              		.loc 1 996 17 is_stmt 0 view .LVU182
 683 00a6 2146     		mov	r1, r4
 684 00a8 2846     		mov	r0, r5
 685 00aa FFF7FEFF 		bl	lv_obj_get_child
 686              	.LVL103:
 687 00ae 0446     		mov	r4, r0
 688              	.LVL104:
 689              	.L29:
 991:lvgl/src/lv_widgets/lv_tabview.c ****         /*Be sure adjust only the pages (user can other things)*/
 690              		.loc 1 991 10 view .LVU183
 691 00b0 64B1     		cbz	r4, .L33
 993:lvgl/src/lv_widgets/lv_tabview.c ****             lv_obj_set_size(pages, cont_w, cont_h);
 692              		.loc 1 993 9 is_stmt 1 view .LVU184
 993:lvgl/src/lv_widgets/lv_tabview.c ****             lv_obj_set_size(pages, cont_w, cont_h);
 693              		.loc 1 993 12 is_stmt 0 view .LVU185
 694 00b2 2046     		mov	r0, r4
 993:lvgl/src/lv_widgets/lv_tabview.c ****             lv_obj_set_size(pages, cont_w, cont_h);
 695              		.loc 1 993 12 view .LVU186
 696 00b4 FFF7FEFF 		bl	lv_obj_get_signal_cb
 697              	.LVL105:
 993:lvgl/src/lv_widgets/lv_tabview.c ****             lv_obj_set_size(pages, cont_w, cont_h);
 698              		.loc 1 993 40 view .LVU187
 699 00b8 054B     		ldr	r3, .L34
 700 00ba 1B68     		ldr	r3, [r3]
 993:lvgl/src/lv_widgets/lv_tabview.c ****             lv_obj_set_size(pages, cont_w, cont_h);
 701              		.loc 1 993 11 view .LVU188
 702 00bc 8342     		cmp	r3, r0
 703 00be F2D1     		bne	.L30
 994:lvgl/src/lv_widgets/lv_tabview.c ****         }
 704              		.loc 1 994 13 is_stmt 1 view .LVU189
ARM GAS  D:\Temp\ccnA29ZW.s 			page 37


 705 00c0 3246     		mov	r2, r6
 706 00c2 3946     		mov	r1, r7
 707 00c4 2046     		mov	r0, r4
 708 00c6 FFF7FEFF 		bl	lv_obj_set_size
 709              	.LVL106:
 710 00ca ECE7     		b	.L30
 711              	.LVL107:
 712              	.L33:
 997:lvgl/src/lv_widgets/lv_tabview.c ****     }
 998:lvgl/src/lv_widgets/lv_tabview.c **** }
 713              		.loc 1 998 1 is_stmt 0 view .LVU190
 714 00cc BDE8F081 		pop	{r4, r5, r6, r7, r8, pc}
 715              	.LVL108:
 716              	.L35:
 717              		.loc 1 998 1 view .LVU191
 718              		.align	2
 719              	.L34:
 720 00d0 00000000 		.word	.LANCHOR0
 721              		.cfi_endproc
 722              	.LFE509:
 724              		.section	.text.refr_indic_size,"ax",%progbits
 725              		.align	1
 726              		.syntax unified
 727              		.thumb
 728              		.thumb_func
 729              		.fpu fpv4-sp-d16
 731              	refr_indic_size:
 732              	.LVL109:
 733              	.LFB507:
 866:lvgl/src/lv_widgets/lv_tabview.c ****     lv_tabview_ext_t * ext = lv_obj_get_ext_attr(tabview);
 734              		.loc 1 866 1 is_stmt 1 view -0
 735              		.cfi_startproc
 736              		@ args = 0, pretend = 0, frame = 0
 737              		@ frame_needed = 0, uses_anonymous_args = 0
 866:lvgl/src/lv_widgets/lv_tabview.c ****     lv_tabview_ext_t * ext = lv_obj_get_ext_attr(tabview);
 738              		.loc 1 866 1 is_stmt 0 view .LVU193
 739 0000 F8B5     		push	{r3, r4, r5, r6, r7, lr}
 740              	.LCFI6:
 741              		.cfi_def_cfa_offset 24
 742              		.cfi_offset 3, -24
 743              		.cfi_offset 4, -20
 744              		.cfi_offset 5, -16
 745              		.cfi_offset 6, -12
 746              		.cfi_offset 7, -8
 747              		.cfi_offset 14, -4
 748 0002 0546     		mov	r5, r0
 867:lvgl/src/lv_widgets/lv_tabview.c ****     lv_btnmatrix_ext_t * btnm_ext = lv_obj_get_ext_attr(ext->btns);
 749              		.loc 1 867 5 is_stmt 1 view .LVU194
 867:lvgl/src/lv_widgets/lv_tabview.c ****     lv_btnmatrix_ext_t * btnm_ext = lv_obj_get_ext_attr(ext->btns);
 750              		.loc 1 867 30 is_stmt 0 view .LVU195
 751 0004 FFF7FEFF 		bl	lv_obj_get_ext_attr
 752              	.LVL110:
 867:lvgl/src/lv_widgets/lv_tabview.c ****     lv_btnmatrix_ext_t * btnm_ext = lv_obj_get_ext_attr(ext->btns);
 753              		.loc 1 867 30 view .LVU196
 754 0008 0446     		mov	r4, r0
 755              	.LVL111:
 868:lvgl/src/lv_widgets/lv_tabview.c **** 
ARM GAS  D:\Temp\ccnA29ZW.s 			page 38


 756              		.loc 1 868 5 is_stmt 1 view .LVU197
 868:lvgl/src/lv_widgets/lv_tabview.c **** 
 757              		.loc 1 868 37 is_stmt 0 view .LVU198
 758 000a 0068     		ldr	r0, [r0]
 759              	.LVL112:
 868:lvgl/src/lv_widgets/lv_tabview.c **** 
 760              		.loc 1 868 37 view .LVU199
 761 000c FFF7FEFF 		bl	lv_obj_get_ext_attr
 762              	.LVL113:
 763 0010 0746     		mov	r7, r0
 764              	.LVL114:
 870:lvgl/src/lv_widgets/lv_tabview.c **** 
 765              		.loc 1 870 5 is_stmt 1 view .LVU200
 766              	.LBB109:
 767              	.LBI109:
 104:lvgl/src/lv_widgets/../lv_core/lv_obj_style_dec.h **** _LV_OBJ_STYLE_SET_GET_DECLARE(TRANSFORM_WIDTH, transform_width, lv_style_int_t, _int, scalar)
 768              		.loc 2 104 1 view .LVU201
 769              	.LBB110:
 104:lvgl/src/lv_widgets/../lv_core/lv_obj_style_dec.h **** _LV_OBJ_STYLE_SET_GET_DECLARE(TRANSFORM_WIDTH, transform_width, lv_style_int_t, _int, scalar)
 770              		.loc 2 104 1 view .LVU202
 771 0012 0322     		movs	r2, #3
 772 0014 4321     		movs	r1, #67
 773 0016 2846     		mov	r0, r5
 774              	.LVL115:
 104:lvgl/src/lv_widgets/../lv_core/lv_obj_style_dec.h **** _LV_OBJ_STYLE_SET_GET_DECLARE(TRANSFORM_WIDTH, transform_width, lv_style_int_t, _int, scalar)
 775              		.loc 2 104 1 is_stmt 0 view .LVU203
 776 0018 FFF7FEFF 		bl	_lv_obj_get_style_int
 777              	.LVL116:
 778 001c 0646     		mov	r6, r0
 779              	.LVL117:
 104:lvgl/src/lv_widgets/../lv_core/lv_obj_style_dec.h **** _LV_OBJ_STYLE_SET_GET_DECLARE(TRANSFORM_WIDTH, transform_width, lv_style_int_t, _int, scalar)
 780              		.loc 2 104 1 view .LVU204
 781              	.LBE110:
 782              	.LBE109:
 873:lvgl/src/lv_widgets/lv_tabview.c ****     lv_coord_t indic_h;
 783              		.loc 1 873 5 is_stmt 1 view .LVU205
 874:lvgl/src/lv_widgets/lv_tabview.c **** 
 784              		.loc 1 874 5 view .LVU206
 876:lvgl/src/lv_widgets/lv_tabview.c ****         default: /*default case is prevented in lv_tabview_set_btns_pos(), but here for safety*/
 785              		.loc 1 876 5 view .LVU207
 876:lvgl/src/lv_widgets/lv_tabview.c ****         default: /*default case is prevented in lv_tabview_set_btns_pos(), but here for safety*/
 786              		.loc 1 876 15 is_stmt 0 view .LVU208
 787 001e A37E     		ldrb	r3, [r4, #26]	@ zero_extendqisi2
 788 0020 03F00703 		and	r3, r3, #7
 876:lvgl/src/lv_widgets/lv_tabview.c ****         default: /*default case is prevented in lv_tabview_set_btns_pos(), but here for safety*/
 789              		.loc 1 876 5 view .LVU209
 790 0024 013B     		subs	r3, r3, #1
 791 0026 032B     		cmp	r3, #3
 792 0028 03D8     		bhi	.L37
 793 002a DFE803F0 		tbb	[pc, r3]
 794              	.L39:
 795 002e 09       		.byte	(.L40-.L39)/2
 796 002f 09       		.byte	(.L40-.L39)/2
 797 0030 20       		.byte	(.L38-.L39)/2
 798 0031 20       		.byte	(.L38-.L39)/2
 799              		.p2align 1
 800              	.L37:
ARM GAS  D:\Temp\ccnA29ZW.s 			page 39


 879:lvgl/src/lv_widgets/lv_tabview.c ****             indic_w = 0;
 801              		.loc 1 879 13 is_stmt 1 view .LVU210
 802 0032 0121     		movs	r1, #1
 803 0034 6068     		ldr	r0, [r4, #4]
 804 0036 FFF7FEFF 		bl	lv_obj_set_hidden
 805              	.LVL118:
 880:lvgl/src/lv_widgets/lv_tabview.c ****             indic_h = 0;
 806              		.loc 1 880 13 view .LVU211
 881:lvgl/src/lv_widgets/lv_tabview.c ****             break;
 807              		.loc 1 881 13 view .LVU212
 882:lvgl/src/lv_widgets/lv_tabview.c ****         case LV_TABVIEW_TAB_POS_TOP:
 808              		.loc 1 882 13 view .LVU213
 881:lvgl/src/lv_widgets/lv_tabview.c ****             break;
 809              		.loc 1 881 21 is_stmt 0 view .LVU214
 810 003a 0025     		movs	r5, #0
 811              	.LVL119:
 880:lvgl/src/lv_widgets/lv_tabview.c ****             indic_h = 0;
 812              		.loc 1 880 21 view .LVU215
 813 003c 2E46     		mov	r6, r5
 814              	.LVL120:
 882:lvgl/src/lv_widgets/lv_tabview.c ****         case LV_TABVIEW_TAB_POS_TOP:
 815              		.loc 1 882 13 view .LVU216
 816 003e 0DE0     		b	.L41
 817              	.LVL121:
 818              	.L40:
 885:lvgl/src/lv_widgets/lv_tabview.c ****             if(ext->tab_cnt) {
 819              		.loc 1 885 13 is_stmt 1 view .LVU217
 820 0040 0021     		movs	r1, #0
 821 0042 6068     		ldr	r0, [r4, #4]
 822 0044 FFF7FEFF 		bl	lv_obj_set_hidden
 823              	.LVL122:
 886:lvgl/src/lv_widgets/lv_tabview.c ****                 indic_h = indic_size;
 824              		.loc 1 886 13 view .LVU218
 886:lvgl/src/lv_widgets/lv_tabview.c ****                 indic_h = indic_size;
 825              		.loc 1 886 19 is_stmt 0 view .LVU219
 826 0048 E38A     		ldrh	r3, [r4, #22]
 886:lvgl/src/lv_widgets/lv_tabview.c ****                 indic_h = indic_size;
 827              		.loc 1 886 15 view .LVU220
 828 004a F3B1     		cbz	r3, .L42
 887:lvgl/src/lv_widgets/lv_tabview.c ****                 indic_w = lv_area_get_width(&btnm_ext->button_areas[0]);
 829              		.loc 1 887 17 is_stmt 1 view .LVU221
 830              	.LVL123:
 888:lvgl/src/lv_widgets/lv_tabview.c ****             }
 831              		.loc 1 888 17 view .LVU222
 888:lvgl/src/lv_widgets/lv_tabview.c ****             }
 832              		.loc 1 888 45 is_stmt 0 view .LVU223
 833 004c 7A68     		ldr	r2, [r7, #4]
 834              	.LVL124:
 835              	.LBB111:
 836              	.LBI111:
 837              		.file 4 "d:\\_project\\stm32\\f407\\hack_rf_new\\lvgl\\src\\lv_misc\\lv_area.h"
   1:d:\_project\stm32\f407\hack_rf_new\lvgl\src\lv_misc\lv_area.h **** /**
   2:d:\_project\stm32\f407\hack_rf_new\lvgl\src\lv_misc\lv_area.h ****  * @file lv_area.h
   3:d:\_project\stm32\f407\hack_rf_new\lvgl\src\lv_misc\lv_area.h ****  *
   4:d:\_project\stm32\f407\hack_rf_new\lvgl\src\lv_misc\lv_area.h ****  */
   5:d:\_project\stm32\f407\hack_rf_new\lvgl\src\lv_misc\lv_area.h **** 
   6:d:\_project\stm32\f407\hack_rf_new\lvgl\src\lv_misc\lv_area.h **** #ifndef LV_AREA_H
ARM GAS  D:\Temp\ccnA29ZW.s 			page 40


   7:d:\_project\stm32\f407\hack_rf_new\lvgl\src\lv_misc\lv_area.h **** #define LV_AREA_H
   8:d:\_project\stm32\f407\hack_rf_new\lvgl\src\lv_misc\lv_area.h **** 
   9:d:\_project\stm32\f407\hack_rf_new\lvgl\src\lv_misc\lv_area.h **** #ifdef __cplusplus
  10:d:\_project\stm32\f407\hack_rf_new\lvgl\src\lv_misc\lv_area.h **** extern "C" {
  11:d:\_project\stm32\f407\hack_rf_new\lvgl\src\lv_misc\lv_area.h **** #endif
  12:d:\_project\stm32\f407\hack_rf_new\lvgl\src\lv_misc\lv_area.h **** 
  13:d:\_project\stm32\f407\hack_rf_new\lvgl\src\lv_misc\lv_area.h **** /*********************
  14:d:\_project\stm32\f407\hack_rf_new\lvgl\src\lv_misc\lv_area.h ****  *      INCLUDES
  15:d:\_project\stm32\f407\hack_rf_new\lvgl\src\lv_misc\lv_area.h ****  *********************/
  16:d:\_project\stm32\f407\hack_rf_new\lvgl\src\lv_misc\lv_area.h **** #include "../lv_conf_internal.h"
  17:d:\_project\stm32\f407\hack_rf_new\lvgl\src\lv_misc\lv_area.h **** #include <string.h>
  18:d:\_project\stm32\f407\hack_rf_new\lvgl\src\lv_misc\lv_area.h **** #include <stdbool.h>
  19:d:\_project\stm32\f407\hack_rf_new\lvgl\src\lv_misc\lv_area.h **** #include <stdint.h>
  20:d:\_project\stm32\f407\hack_rf_new\lvgl\src\lv_misc\lv_area.h **** #include "lv_mem.h"
  21:d:\_project\stm32\f407\hack_rf_new\lvgl\src\lv_misc\lv_area.h **** 
  22:d:\_project\stm32\f407\hack_rf_new\lvgl\src\lv_misc\lv_area.h **** /*********************
  23:d:\_project\stm32\f407\hack_rf_new\lvgl\src\lv_misc\lv_area.h ****  *      DEFINES
  24:d:\_project\stm32\f407\hack_rf_new\lvgl\src\lv_misc\lv_area.h ****  *********************/
  25:d:\_project\stm32\f407\hack_rf_new\lvgl\src\lv_misc\lv_area.h **** /*To avoid overflow don't let the max ranges (reduce with 1000) */
  26:d:\_project\stm32\f407\hack_rf_new\lvgl\src\lv_misc\lv_area.h **** #define LV_COORD_MAX ((lv_coord_t)((uint32_t)((uint32_t)1 << (8 * sizeof(lv_coord_t) - 1)) - 1000))
  27:d:\_project\stm32\f407\hack_rf_new\lvgl\src\lv_misc\lv_area.h **** #define LV_COORD_MIN (-LV_COORD_MAX)
  28:d:\_project\stm32\f407\hack_rf_new\lvgl\src\lv_misc\lv_area.h **** 
  29:d:\_project\stm32\f407\hack_rf_new\lvgl\src\lv_misc\lv_area.h **** LV_EXPORT_CONST_INT(LV_COORD_MAX);
  30:d:\_project\stm32\f407\hack_rf_new\lvgl\src\lv_misc\lv_area.h **** LV_EXPORT_CONST_INT(LV_COORD_MIN);
  31:d:\_project\stm32\f407\hack_rf_new\lvgl\src\lv_misc\lv_area.h **** 
  32:d:\_project\stm32\f407\hack_rf_new\lvgl\src\lv_misc\lv_area.h **** /**********************
  33:d:\_project\stm32\f407\hack_rf_new\lvgl\src\lv_misc\lv_area.h ****  *      TYPEDEFS
  34:d:\_project\stm32\f407\hack_rf_new\lvgl\src\lv_misc\lv_area.h ****  **********************/
  35:d:\_project\stm32\f407\hack_rf_new\lvgl\src\lv_misc\lv_area.h **** 
  36:d:\_project\stm32\f407\hack_rf_new\lvgl\src\lv_misc\lv_area.h **** /**
  37:d:\_project\stm32\f407\hack_rf_new\lvgl\src\lv_misc\lv_area.h ****  * Represents a point on the screen.
  38:d:\_project\stm32\f407\hack_rf_new\lvgl\src\lv_misc\lv_area.h ****  */
  39:d:\_project\stm32\f407\hack_rf_new\lvgl\src\lv_misc\lv_area.h **** typedef struct {
  40:d:\_project\stm32\f407\hack_rf_new\lvgl\src\lv_misc\lv_area.h ****     lv_coord_t x;
  41:d:\_project\stm32\f407\hack_rf_new\lvgl\src\lv_misc\lv_area.h ****     lv_coord_t y;
  42:d:\_project\stm32\f407\hack_rf_new\lvgl\src\lv_misc\lv_area.h **** } lv_point_t;
  43:d:\_project\stm32\f407\hack_rf_new\lvgl\src\lv_misc\lv_area.h **** 
  44:d:\_project\stm32\f407\hack_rf_new\lvgl\src\lv_misc\lv_area.h **** /** Represents an area of the screen. */
  45:d:\_project\stm32\f407\hack_rf_new\lvgl\src\lv_misc\lv_area.h **** typedef struct {
  46:d:\_project\stm32\f407\hack_rf_new\lvgl\src\lv_misc\lv_area.h ****     lv_coord_t x1;
  47:d:\_project\stm32\f407\hack_rf_new\lvgl\src\lv_misc\lv_area.h ****     lv_coord_t y1;
  48:d:\_project\stm32\f407\hack_rf_new\lvgl\src\lv_misc\lv_area.h ****     lv_coord_t x2;
  49:d:\_project\stm32\f407\hack_rf_new\lvgl\src\lv_misc\lv_area.h ****     lv_coord_t y2;
  50:d:\_project\stm32\f407\hack_rf_new\lvgl\src\lv_misc\lv_area.h **** } lv_area_t;
  51:d:\_project\stm32\f407\hack_rf_new\lvgl\src\lv_misc\lv_area.h **** 
  52:d:\_project\stm32\f407\hack_rf_new\lvgl\src\lv_misc\lv_area.h **** /** Alignments */
  53:d:\_project\stm32\f407\hack_rf_new\lvgl\src\lv_misc\lv_area.h **** enum {
  54:d:\_project\stm32\f407\hack_rf_new\lvgl\src\lv_misc\lv_area.h ****     LV_ALIGN_CENTER = 0,
  55:d:\_project\stm32\f407\hack_rf_new\lvgl\src\lv_misc\lv_area.h ****     LV_ALIGN_IN_TOP_LEFT,
  56:d:\_project\stm32\f407\hack_rf_new\lvgl\src\lv_misc\lv_area.h ****     LV_ALIGN_IN_TOP_MID,
  57:d:\_project\stm32\f407\hack_rf_new\lvgl\src\lv_misc\lv_area.h ****     LV_ALIGN_IN_TOP_RIGHT,
  58:d:\_project\stm32\f407\hack_rf_new\lvgl\src\lv_misc\lv_area.h ****     LV_ALIGN_IN_BOTTOM_LEFT,
  59:d:\_project\stm32\f407\hack_rf_new\lvgl\src\lv_misc\lv_area.h ****     LV_ALIGN_IN_BOTTOM_MID,
  60:d:\_project\stm32\f407\hack_rf_new\lvgl\src\lv_misc\lv_area.h ****     LV_ALIGN_IN_BOTTOM_RIGHT,
  61:d:\_project\stm32\f407\hack_rf_new\lvgl\src\lv_misc\lv_area.h ****     LV_ALIGN_IN_LEFT_MID,
  62:d:\_project\stm32\f407\hack_rf_new\lvgl\src\lv_misc\lv_area.h ****     LV_ALIGN_IN_RIGHT_MID,
  63:d:\_project\stm32\f407\hack_rf_new\lvgl\src\lv_misc\lv_area.h ****     LV_ALIGN_OUT_TOP_LEFT,
ARM GAS  D:\Temp\ccnA29ZW.s 			page 41


  64:d:\_project\stm32\f407\hack_rf_new\lvgl\src\lv_misc\lv_area.h ****     LV_ALIGN_OUT_TOP_MID,
  65:d:\_project\stm32\f407\hack_rf_new\lvgl\src\lv_misc\lv_area.h ****     LV_ALIGN_OUT_TOP_RIGHT,
  66:d:\_project\stm32\f407\hack_rf_new\lvgl\src\lv_misc\lv_area.h ****     LV_ALIGN_OUT_BOTTOM_LEFT,
  67:d:\_project\stm32\f407\hack_rf_new\lvgl\src\lv_misc\lv_area.h ****     LV_ALIGN_OUT_BOTTOM_MID,
  68:d:\_project\stm32\f407\hack_rf_new\lvgl\src\lv_misc\lv_area.h ****     LV_ALIGN_OUT_BOTTOM_RIGHT,
  69:d:\_project\stm32\f407\hack_rf_new\lvgl\src\lv_misc\lv_area.h ****     LV_ALIGN_OUT_LEFT_TOP,
  70:d:\_project\stm32\f407\hack_rf_new\lvgl\src\lv_misc\lv_area.h ****     LV_ALIGN_OUT_LEFT_MID,
  71:d:\_project\stm32\f407\hack_rf_new\lvgl\src\lv_misc\lv_area.h ****     LV_ALIGN_OUT_LEFT_BOTTOM,
  72:d:\_project\stm32\f407\hack_rf_new\lvgl\src\lv_misc\lv_area.h ****     LV_ALIGN_OUT_RIGHT_TOP,
  73:d:\_project\stm32\f407\hack_rf_new\lvgl\src\lv_misc\lv_area.h ****     LV_ALIGN_OUT_RIGHT_MID,
  74:d:\_project\stm32\f407\hack_rf_new\lvgl\src\lv_misc\lv_area.h ****     LV_ALIGN_OUT_RIGHT_BOTTOM,
  75:d:\_project\stm32\f407\hack_rf_new\lvgl\src\lv_misc\lv_area.h **** };
  76:d:\_project\stm32\f407\hack_rf_new\lvgl\src\lv_misc\lv_area.h **** typedef uint8_t lv_align_t;
  77:d:\_project\stm32\f407\hack_rf_new\lvgl\src\lv_misc\lv_area.h **** 
  78:d:\_project\stm32\f407\hack_rf_new\lvgl\src\lv_misc\lv_area.h **** /**********************
  79:d:\_project\stm32\f407\hack_rf_new\lvgl\src\lv_misc\lv_area.h ****  * GLOBAL PROTOTYPES
  80:d:\_project\stm32\f407\hack_rf_new\lvgl\src\lv_misc\lv_area.h ****  **********************/
  81:d:\_project\stm32\f407\hack_rf_new\lvgl\src\lv_misc\lv_area.h **** 
  82:d:\_project\stm32\f407\hack_rf_new\lvgl\src\lv_misc\lv_area.h **** /**
  83:d:\_project\stm32\f407\hack_rf_new\lvgl\src\lv_misc\lv_area.h ****  * Initialize an area
  84:d:\_project\stm32\f407\hack_rf_new\lvgl\src\lv_misc\lv_area.h ****  * @param area_p pointer to an area
  85:d:\_project\stm32\f407\hack_rf_new\lvgl\src\lv_misc\lv_area.h ****  * @param x1 left coordinate of the area
  86:d:\_project\stm32\f407\hack_rf_new\lvgl\src\lv_misc\lv_area.h ****  * @param y1 top coordinate of the area
  87:d:\_project\stm32\f407\hack_rf_new\lvgl\src\lv_misc\lv_area.h ****  * @param x2 right coordinate of the area
  88:d:\_project\stm32\f407\hack_rf_new\lvgl\src\lv_misc\lv_area.h ****  * @param y2 bottom coordinate of the area
  89:d:\_project\stm32\f407\hack_rf_new\lvgl\src\lv_misc\lv_area.h ****  */
  90:d:\_project\stm32\f407\hack_rf_new\lvgl\src\lv_misc\lv_area.h **** void lv_area_set(lv_area_t * area_p, lv_coord_t x1, lv_coord_t y1, lv_coord_t x2, lv_coord_t y2);
  91:d:\_project\stm32\f407\hack_rf_new\lvgl\src\lv_misc\lv_area.h **** 
  92:d:\_project\stm32\f407\hack_rf_new\lvgl\src\lv_misc\lv_area.h **** /**
  93:d:\_project\stm32\f407\hack_rf_new\lvgl\src\lv_misc\lv_area.h ****  * Copy an area
  94:d:\_project\stm32\f407\hack_rf_new\lvgl\src\lv_misc\lv_area.h ****  * @param dest pointer to the destination area
  95:d:\_project\stm32\f407\hack_rf_new\lvgl\src\lv_misc\lv_area.h ****  * @param src pointer to the source area
  96:d:\_project\stm32\f407\hack_rf_new\lvgl\src\lv_misc\lv_area.h ****  */
  97:d:\_project\stm32\f407\hack_rf_new\lvgl\src\lv_misc\lv_area.h **** inline static void lv_area_copy(lv_area_t * dest, const lv_area_t * src)
  98:d:\_project\stm32\f407\hack_rf_new\lvgl\src\lv_misc\lv_area.h **** {
  99:d:\_project\stm32\f407\hack_rf_new\lvgl\src\lv_misc\lv_area.h ****     _lv_memcpy_small(dest, src, sizeof(lv_area_t));
 100:d:\_project\stm32\f407\hack_rf_new\lvgl\src\lv_misc\lv_area.h **** }
 101:d:\_project\stm32\f407\hack_rf_new\lvgl\src\lv_misc\lv_area.h **** 
 102:d:\_project\stm32\f407\hack_rf_new\lvgl\src\lv_misc\lv_area.h **** /**
 103:d:\_project\stm32\f407\hack_rf_new\lvgl\src\lv_misc\lv_area.h ****  * Get the width of an area
 104:d:\_project\stm32\f407\hack_rf_new\lvgl\src\lv_misc\lv_area.h ****  * @param area_p pointer to an area
 105:d:\_project\stm32\f407\hack_rf_new\lvgl\src\lv_misc\lv_area.h ****  * @return the width of the area (if x1 == x2 -> width = 1)
 106:d:\_project\stm32\f407\hack_rf_new\lvgl\src\lv_misc\lv_area.h ****  */
 107:d:\_project\stm32\f407\hack_rf_new\lvgl\src\lv_misc\lv_area.h **** static inline lv_coord_t lv_area_get_width(const lv_area_t * area_p)
 838              		.loc 4 107 26 is_stmt 1 view .LVU224
 839              	.LBB112:
 108:d:\_project\stm32\f407\hack_rf_new\lvgl\src\lv_misc\lv_area.h **** {
 109:d:\_project\stm32\f407\hack_rf_new\lvgl\src\lv_misc\lv_area.h ****     return (lv_coord_t)(area_p->x2 - area_p->x1 + 1);
 840              		.loc 4 109 5 view .LVU225
 841              		.loc 4 109 31 is_stmt 0 view .LVU226
 842 004e 9388     		ldrh	r3, [r2, #4]
 843              		.loc 4 109 44 view .LVU227
 844 0050 1288     		ldrh	r2, [r2]
 845              	.LVL125:
 846              		.loc 4 109 36 view .LVU228
 847 0052 9B1A     		subs	r3, r3, r2
 848 0054 9BB2     		uxth	r3, r3
ARM GAS  D:\Temp\ccnA29ZW.s 			page 42


 849              		.loc 4 109 49 view .LVU229
 850 0056 0133     		adds	r3, r3, #1
 851              	.LVL126:
 852              		.loc 4 109 49 view .LVU230
 853              	.LBE112:
 854              	.LBE111:
 887:lvgl/src/lv_widgets/lv_tabview.c ****                 indic_w = lv_area_get_width(&btnm_ext->button_areas[0]);
 855              		.loc 1 887 25 view .LVU231
 856 0058 3546     		mov	r5, r6
 857              	.LVL127:
 888:lvgl/src/lv_widgets/lv_tabview.c ****             }
 858              		.loc 1 888 27 view .LVU232
 859 005a 1EB2     		sxth	r6, r3
 860              	.LVL128:
 861              	.L41:
 909:lvgl/src/lv_widgets/lv_tabview.c ****     lv_obj_set_height(ext->indic, indic_h);
 862              		.loc 1 909 5 is_stmt 1 view .LVU233
 863 005c 3146     		mov	r1, r6
 864 005e 6068     		ldr	r0, [r4, #4]
 865 0060 FFF7FEFF 		bl	lv_obj_set_width
 866              	.LVL129:
 910:lvgl/src/lv_widgets/lv_tabview.c **** }
 867              		.loc 1 910 5 view .LVU234
 868 0064 2946     		mov	r1, r5
 869 0066 6068     		ldr	r0, [r4, #4]
 870 0068 FFF7FEFF 		bl	lv_obj_set_height
 871              	.LVL130:
 911:lvgl/src/lv_widgets/lv_tabview.c **** 
 872              		.loc 1 911 1 is_stmt 0 view .LVU235
 873 006c F8BD     		pop	{r3, r4, r5, r6, r7, pc}
 874              	.LVL131:
 875              	.L38:
 897:lvgl/src/lv_widgets/lv_tabview.c ****             if(ext->tab_cnt) {
 876              		.loc 1 897 13 is_stmt 1 view .LVU236
 877 006e 0021     		movs	r1, #0
 878 0070 6068     		ldr	r0, [r4, #4]
 879 0072 FFF7FEFF 		bl	lv_obj_set_hidden
 880              	.LVL132:
 898:lvgl/src/lv_widgets/lv_tabview.c ****                 indic_w = indic_size;
 881              		.loc 1 898 13 view .LVU237
 898:lvgl/src/lv_widgets/lv_tabview.c ****                 indic_w = indic_size;
 882              		.loc 1 898 19 is_stmt 0 view .LVU238
 883 0076 E38A     		ldrh	r3, [r4, #22]
 898:lvgl/src/lv_widgets/lv_tabview.c ****                 indic_w = indic_size;
 884              		.loc 1 898 15 view .LVU239
 885 0078 53B1     		cbz	r3, .L43
 899:lvgl/src/lv_widgets/lv_tabview.c ****                 indic_h = lv_area_get_height(&btnm_ext->button_areas[0]);
 886              		.loc 1 899 17 is_stmt 1 view .LVU240
 887              	.LVL133:
 900:lvgl/src/lv_widgets/lv_tabview.c ****             }
 888              		.loc 1 900 17 view .LVU241
 900:lvgl/src/lv_widgets/lv_tabview.c ****             }
 889              		.loc 1 900 46 is_stmt 0 view .LVU242
 890 007a 7B68     		ldr	r3, [r7, #4]
 891              	.LVL134:
 892              	.LBB113:
 893              	.LBI113:
ARM GAS  D:\Temp\ccnA29ZW.s 			page 43


 110:d:\_project\stm32\f407\hack_rf_new\lvgl\src\lv_misc\lv_area.h **** }
 111:d:\_project\stm32\f407\hack_rf_new\lvgl\src\lv_misc\lv_area.h **** 
 112:d:\_project\stm32\f407\hack_rf_new\lvgl\src\lv_misc\lv_area.h **** /**
 113:d:\_project\stm32\f407\hack_rf_new\lvgl\src\lv_misc\lv_area.h ****  * Get the height of an area
 114:d:\_project\stm32\f407\hack_rf_new\lvgl\src\lv_misc\lv_area.h ****  * @param area_p pointer to an area
 115:d:\_project\stm32\f407\hack_rf_new\lvgl\src\lv_misc\lv_area.h ****  * @return the height of the area (if y1 == y2 -> height = 1)
 116:d:\_project\stm32\f407\hack_rf_new\lvgl\src\lv_misc\lv_area.h ****  */
 117:d:\_project\stm32\f407\hack_rf_new\lvgl\src\lv_misc\lv_area.h **** static inline lv_coord_t lv_area_get_height(const lv_area_t * area_p)
 894              		.loc 4 117 26 is_stmt 1 view .LVU243
 895              	.LBB114:
 118:d:\_project\stm32\f407\hack_rf_new\lvgl\src\lv_misc\lv_area.h **** {
 119:d:\_project\stm32\f407\hack_rf_new\lvgl\src\lv_misc\lv_area.h ****     return (lv_coord_t)(area_p->y2 - area_p->y1 + 1);
 896              		.loc 4 119 5 view .LVU244
 897              		.loc 4 119 31 is_stmt 0 view .LVU245
 898 007c DD88     		ldrh	r5, [r3, #6]
 899              	.LVL135:
 900              		.loc 4 119 44 view .LVU246
 901 007e 5B88     		ldrh	r3, [r3, #2]
 902              	.LVL136:
 903              		.loc 4 119 36 view .LVU247
 904 0080 ED1A     		subs	r5, r5, r3
 905 0082 ADB2     		uxth	r5, r5
 906              		.loc 4 119 49 view .LVU248
 907 0084 0135     		adds	r5, r5, #1
 908              		.loc 4 119 12 view .LVU249
 909 0086 2DB2     		sxth	r5, r5
 910              	.LVL137:
 911              		.loc 4 119 12 view .LVU250
 912              	.LBE114:
 913              	.LBE113:
 914 0088 E8E7     		b	.L41
 915              	.LVL138:
 916              	.L42:
 892:lvgl/src/lv_widgets/lv_tabview.c ****             }
 917              		.loc 1 892 25 view .LVU251
 918 008a 0025     		movs	r5, #0
 919              	.LVL139:
 891:lvgl/src/lv_widgets/lv_tabview.c ****                 indic_h = 0;
 920              		.loc 1 891 25 view .LVU252
 921 008c 2E46     		mov	r6, r5
 922              	.LVL140:
 891:lvgl/src/lv_widgets/lv_tabview.c ****                 indic_h = 0;
 923              		.loc 1 891 25 view .LVU253
 924 008e E5E7     		b	.L41
 925              	.LVL141:
 926              	.L43:
 904:lvgl/src/lv_widgets/lv_tabview.c ****             }
 927              		.loc 1 904 25 view .LVU254
 928 0090 0025     		movs	r5, #0
 929              	.LVL142:
 903:lvgl/src/lv_widgets/lv_tabview.c ****                 indic_h = 0;
 930              		.loc 1 903 25 view .LVU255
 931 0092 2E46     		mov	r6, r5
 932              	.LVL143:
 903:lvgl/src/lv_widgets/lv_tabview.c ****                 indic_h = 0;
 933              		.loc 1 903 25 view .LVU256
 934 0094 E2E7     		b	.L41
ARM GAS  D:\Temp\ccnA29ZW.s 			page 44


 935              		.cfi_endproc
 936              	.LFE507:
 938              		.section	.text.refr_align,"ax",%progbits
 939              		.align	1
 940              		.syntax unified
 941              		.thumb
 942              		.thumb_func
 943              		.fpu fpv4-sp-d16
 945              	refr_align:
 946              	.LVL144:
 947              	.LFB510:
 999:lvgl/src/lv_widgets/lv_tabview.c **** 
1000:lvgl/src/lv_widgets/lv_tabview.c **** static void refr_align(lv_obj_t * tabview)
1001:lvgl/src/lv_widgets/lv_tabview.c **** {
 948              		.loc 1 1001 1 is_stmt 1 view -0
 949              		.cfi_startproc
 950              		@ args = 0, pretend = 0, frame = 0
 951              		@ frame_needed = 0, uses_anonymous_args = 0
 952              		.loc 1 1001 1 is_stmt 0 view .LVU258
 953 0000 F0B5     		push	{r4, r5, r6, r7, lr}
 954              	.LCFI7:
 955              		.cfi_def_cfa_offset 20
 956              		.cfi_offset 4, -20
 957              		.cfi_offset 5, -16
 958              		.cfi_offset 6, -12
 959              		.cfi_offset 7, -8
 960              		.cfi_offset 14, -4
 961 0002 83B0     		sub	sp, sp, #12
 962              	.LCFI8:
 963              		.cfi_def_cfa_offset 32
 964 0004 0646     		mov	r6, r0
1002:lvgl/src/lv_widgets/lv_tabview.c ****     lv_tabview_ext_t * ext = lv_obj_get_ext_attr(tabview);
 965              		.loc 1 1002 5 is_stmt 1 view .LVU259
 966              		.loc 1 1002 30 is_stmt 0 view .LVU260
 967 0006 FFF7FEFF 		bl	lv_obj_get_ext_attr
 968              	.LVL145:
 969              		.loc 1 1002 30 view .LVU261
 970 000a 0446     		mov	r4, r0
 971              	.LVL146:
1003:lvgl/src/lv_widgets/lv_tabview.c **** 
1004:lvgl/src/lv_widgets/lv_tabview.c ****     switch(ext->btns_pos) {
 972              		.loc 1 1004 5 is_stmt 1 view .LVU262
 973              		.loc 1 1004 15 is_stmt 0 view .LVU263
 974 000c 837E     		ldrb	r3, [r0, #26]	@ zero_extendqisi2
 975 000e 03F00703 		and	r3, r3, #7
 976              		.loc 1 1004 5 view .LVU264
 977 0012 013B     		subs	r3, r3, #1
 978 0014 032B     		cmp	r3, #3
 979 0016 03D8     		bhi	.L46
 980 0018 DFE803F0 		tbb	[pc, r3]
 981              	.L48:
 982 001c 0A       		.byte	(.L51-.L48)/2
 983 001d 22       		.byte	(.L50-.L48)/2
 984 001e 39       		.byte	(.L49-.L48)/2
 985 001f 54       		.byte	(.L47-.L48)/2
 986              		.p2align 1
 987              	.L46:
ARM GAS  D:\Temp\ccnA29ZW.s 			page 45


1005:lvgl/src/lv_widgets/lv_tabview.c ****         default: /*default case is prevented in lv_tabview_set_btns_pos(), but here for safety*/
1006:lvgl/src/lv_widgets/lv_tabview.c ****         case LV_TABVIEW_TAB_POS_NONE:
1007:lvgl/src/lv_widgets/lv_tabview.c ****             lv_obj_align(ext->content, NULL, LV_ALIGN_IN_TOP_LEFT, 0, 0);
 988              		.loc 1 1007 13 is_stmt 1 view .LVU265
 989 0020 8068     		ldr	r0, [r0, #8]
 990              	.LVL147:
 991              		.loc 1 1007 13 is_stmt 0 view .LVU266
 992 0022 0021     		movs	r1, #0
 993 0024 0091     		str	r1, [sp]
 994 0026 0B46     		mov	r3, r1
 995 0028 0122     		movs	r2, #1
 996 002a FFF7FEFF 		bl	lv_obj_align
 997              	.LVL148:
1008:lvgl/src/lv_widgets/lv_tabview.c ****             break;
 998              		.loc 1 1008 13 is_stmt 1 view .LVU267
 999 002e 15E0     		b	.L45
 1000              	.LVL149:
 1001              	.L51:
1009:lvgl/src/lv_widgets/lv_tabview.c ****         case LV_TABVIEW_TAB_POS_TOP:
1010:lvgl/src/lv_widgets/lv_tabview.c ****             lv_obj_align(ext->btns, NULL, LV_ALIGN_IN_TOP_LEFT, 0, 0);
 1002              		.loc 1 1010 13 view .LVU268
 1003 0030 0068     		ldr	r0, [r0]
 1004              	.LVL150:
 1005              		.loc 1 1010 13 is_stmt 0 view .LVU269
 1006 0032 0025     		movs	r5, #0
 1007 0034 0095     		str	r5, [sp]
 1008 0036 2B46     		mov	r3, r5
 1009 0038 0122     		movs	r2, #1
 1010 003a 2946     		mov	r1, r5
 1011 003c FFF7FEFF 		bl	lv_obj_align
 1012              	.LVL151:
1011:lvgl/src/lv_widgets/lv_tabview.c ****             lv_obj_align(ext->content, ext->btns, LV_ALIGN_OUT_BOTTOM_LEFT, 0, 0);
 1013              		.loc 1 1011 13 is_stmt 1 view .LVU270
 1014              		.loc 1 1011 43 is_stmt 0 view .LVU271
 1015 0040 2168     		ldr	r1, [r4]
 1016              		.loc 1 1011 13 view .LVU272
 1017 0042 A068     		ldr	r0, [r4, #8]
 1018 0044 0095     		str	r5, [sp]
 1019 0046 2B46     		mov	r3, r5
 1020 0048 0C22     		movs	r2, #12
 1021 004a FFF7FEFF 		bl	lv_obj_align
 1022              	.LVL152:
1012:lvgl/src/lv_widgets/lv_tabview.c ****             lv_obj_align(ext->indic, ext->btns, LV_ALIGN_IN_BOTTOM_LEFT, 0, 0);
 1023              		.loc 1 1012 13 is_stmt 1 view .LVU273
 1024              		.loc 1 1012 41 is_stmt 0 view .LVU274
 1025 004e 2168     		ldr	r1, [r4]
 1026              		.loc 1 1012 13 view .LVU275
 1027 0050 6068     		ldr	r0, [r4, #4]
 1028 0052 0095     		str	r5, [sp]
 1029 0054 2B46     		mov	r3, r5
 1030 0056 0422     		movs	r2, #4
 1031 0058 FFF7FEFF 		bl	lv_obj_align
 1032              	.LVL153:
1013:lvgl/src/lv_widgets/lv_tabview.c ****             break;
 1033              		.loc 1 1013 13 is_stmt 1 view .LVU276
 1034              	.L45:
1014:lvgl/src/lv_widgets/lv_tabview.c ****         case LV_TABVIEW_TAB_POS_BOTTOM:
ARM GAS  D:\Temp\ccnA29ZW.s 			page 46


1015:lvgl/src/lv_widgets/lv_tabview.c ****             lv_obj_align(ext->content, NULL, LV_ALIGN_IN_TOP_LEFT, 0, 0);
1016:lvgl/src/lv_widgets/lv_tabview.c ****             lv_obj_align(ext->btns, ext->content, LV_ALIGN_OUT_BOTTOM_LEFT, 0, 0);
1017:lvgl/src/lv_widgets/lv_tabview.c ****             lv_obj_align(ext->indic, ext->btns, LV_ALIGN_IN_TOP_LEFT, 0, 0);
1018:lvgl/src/lv_widgets/lv_tabview.c ****             break;
1019:lvgl/src/lv_widgets/lv_tabview.c ****         case LV_TABVIEW_TAB_POS_LEFT:
1020:lvgl/src/lv_widgets/lv_tabview.c ****             lv_obj_align(ext->btns, NULL, LV_ALIGN_IN_TOP_LEFT, 0, 0);
1021:lvgl/src/lv_widgets/lv_tabview.c ****             lv_obj_align(ext->content, tabview, LV_ALIGN_IN_TOP_LEFT, lv_obj_get_width(ext->btns), 
1022:lvgl/src/lv_widgets/lv_tabview.c ****             lv_obj_align(ext->indic, ext->btns, LV_ALIGN_IN_TOP_RIGHT, 0, 0);
1023:lvgl/src/lv_widgets/lv_tabview.c ****             break;
1024:lvgl/src/lv_widgets/lv_tabview.c ****         case LV_TABVIEW_TAB_POS_RIGHT:
1025:lvgl/src/lv_widgets/lv_tabview.c ****             lv_obj_align(ext->btns, NULL, LV_ALIGN_IN_TOP_RIGHT, 0, 0);
1026:lvgl/src/lv_widgets/lv_tabview.c ****             lv_obj_align(ext->content, tabview, LV_ALIGN_IN_TOP_LEFT, 0, 0);
1027:lvgl/src/lv_widgets/lv_tabview.c ****             lv_obj_align(ext->indic, ext->btns, LV_ALIGN_IN_TOP_LEFT, 0, 0);
1028:lvgl/src/lv_widgets/lv_tabview.c ****             break;
1029:lvgl/src/lv_widgets/lv_tabview.c ****     }
1030:lvgl/src/lv_widgets/lv_tabview.c **** }
 1035              		.loc 1 1030 1 is_stmt 0 view .LVU277
 1036 005c 03B0     		add	sp, sp, #12
 1037              	.LCFI9:
 1038              		.cfi_remember_state
 1039              		.cfi_def_cfa_offset 20
 1040              		@ sp needed
 1041 005e F0BD     		pop	{r4, r5, r6, r7, pc}
 1042              	.LVL154:
 1043              	.L50:
 1044              	.LCFI10:
 1045              		.cfi_restore_state
1015:lvgl/src/lv_widgets/lv_tabview.c ****             lv_obj_align(ext->btns, ext->content, LV_ALIGN_OUT_BOTTOM_LEFT, 0, 0);
 1046              		.loc 1 1015 13 is_stmt 1 view .LVU278
 1047 0060 8068     		ldr	r0, [r0, #8]
 1048              	.LVL155:
1015:lvgl/src/lv_widgets/lv_tabview.c ****             lv_obj_align(ext->btns, ext->content, LV_ALIGN_OUT_BOTTOM_LEFT, 0, 0);
 1049              		.loc 1 1015 13 is_stmt 0 view .LVU279
 1050 0062 0025     		movs	r5, #0
 1051 0064 0095     		str	r5, [sp]
 1052 0066 2B46     		mov	r3, r5
 1053 0068 0122     		movs	r2, #1
 1054 006a 2946     		mov	r1, r5
 1055 006c FFF7FEFF 		bl	lv_obj_align
 1056              	.LVL156:
1016:lvgl/src/lv_widgets/lv_tabview.c ****             lv_obj_align(ext->indic, ext->btns, LV_ALIGN_IN_TOP_LEFT, 0, 0);
 1057              		.loc 1 1016 13 is_stmt 1 view .LVU280
1016:lvgl/src/lv_widgets/lv_tabview.c ****             lv_obj_align(ext->indic, ext->btns, LV_ALIGN_IN_TOP_LEFT, 0, 0);
 1058              		.loc 1 1016 40 is_stmt 0 view .LVU281
 1059 0070 A168     		ldr	r1, [r4, #8]
1016:lvgl/src/lv_widgets/lv_tabview.c ****             lv_obj_align(ext->indic, ext->btns, LV_ALIGN_IN_TOP_LEFT, 0, 0);
 1060              		.loc 1 1016 13 view .LVU282
 1061 0072 2068     		ldr	r0, [r4]
 1062 0074 0095     		str	r5, [sp]
 1063 0076 2B46     		mov	r3, r5
 1064 0078 0C22     		movs	r2, #12
 1065 007a FFF7FEFF 		bl	lv_obj_align
 1066              	.LVL157:
1017:lvgl/src/lv_widgets/lv_tabview.c ****             break;
 1067              		.loc 1 1017 13 is_stmt 1 view .LVU283
1017:lvgl/src/lv_widgets/lv_tabview.c ****             break;
 1068              		.loc 1 1017 41 is_stmt 0 view .LVU284
ARM GAS  D:\Temp\ccnA29ZW.s 			page 47


 1069 007e 2168     		ldr	r1, [r4]
1017:lvgl/src/lv_widgets/lv_tabview.c ****             break;
 1070              		.loc 1 1017 13 view .LVU285
 1071 0080 6068     		ldr	r0, [r4, #4]
 1072 0082 0095     		str	r5, [sp]
 1073 0084 2B46     		mov	r3, r5
 1074 0086 0122     		movs	r2, #1
 1075 0088 FFF7FEFF 		bl	lv_obj_align
 1076              	.LVL158:
1018:lvgl/src/lv_widgets/lv_tabview.c ****         case LV_TABVIEW_TAB_POS_LEFT:
 1077              		.loc 1 1018 13 is_stmt 1 view .LVU286
 1078 008c E6E7     		b	.L45
 1079              	.LVL159:
 1080              	.L49:
1020:lvgl/src/lv_widgets/lv_tabview.c ****             lv_obj_align(ext->content, tabview, LV_ALIGN_IN_TOP_LEFT, lv_obj_get_width(ext->btns), 
 1081              		.loc 1 1020 13 view .LVU287
 1082 008e 0068     		ldr	r0, [r0]
 1083              	.LVL160:
1020:lvgl/src/lv_widgets/lv_tabview.c ****             lv_obj_align(ext->content, tabview, LV_ALIGN_IN_TOP_LEFT, lv_obj_get_width(ext->btns), 
 1084              		.loc 1 1020 13 is_stmt 0 view .LVU288
 1085 0090 0025     		movs	r5, #0
 1086 0092 0095     		str	r5, [sp]
 1087 0094 2B46     		mov	r3, r5
 1088 0096 0122     		movs	r2, #1
 1089 0098 2946     		mov	r1, r5
 1090 009a FFF7FEFF 		bl	lv_obj_align
 1091              	.LVL161:
1021:lvgl/src/lv_widgets/lv_tabview.c ****             lv_obj_align(ext->indic, ext->btns, LV_ALIGN_IN_TOP_RIGHT, 0, 0);
 1092              		.loc 1 1021 13 is_stmt 1 view .LVU289
 1093 009e A768     		ldr	r7, [r4, #8]
 1094 00a0 2068     		ldr	r0, [r4]
 1095 00a2 FFF7FEFF 		bl	lv_obj_get_width
 1096              	.LVL162:
 1097 00a6 0095     		str	r5, [sp]
 1098 00a8 0346     		mov	r3, r0
 1099 00aa 0122     		movs	r2, #1
 1100 00ac 3146     		mov	r1, r6
 1101 00ae 3846     		mov	r0, r7
 1102 00b0 FFF7FEFF 		bl	lv_obj_align
 1103              	.LVL163:
1022:lvgl/src/lv_widgets/lv_tabview.c ****             break;
 1104              		.loc 1 1022 13 view .LVU290
1022:lvgl/src/lv_widgets/lv_tabview.c ****             break;
 1105              		.loc 1 1022 41 is_stmt 0 view .LVU291
 1106 00b4 2168     		ldr	r1, [r4]
1022:lvgl/src/lv_widgets/lv_tabview.c ****             break;
 1107              		.loc 1 1022 13 view .LVU292
 1108 00b6 6068     		ldr	r0, [r4, #4]
 1109 00b8 0095     		str	r5, [sp]
 1110 00ba 2B46     		mov	r3, r5
 1111 00bc 0322     		movs	r2, #3
 1112 00be FFF7FEFF 		bl	lv_obj_align
 1113              	.LVL164:
1023:lvgl/src/lv_widgets/lv_tabview.c ****         case LV_TABVIEW_TAB_POS_RIGHT:
 1114              		.loc 1 1023 13 is_stmt 1 view .LVU293
 1115 00c2 CBE7     		b	.L45
 1116              	.LVL165:
ARM GAS  D:\Temp\ccnA29ZW.s 			page 48


 1117              	.L47:
1025:lvgl/src/lv_widgets/lv_tabview.c ****             lv_obj_align(ext->content, tabview, LV_ALIGN_IN_TOP_LEFT, 0, 0);
 1118              		.loc 1 1025 13 view .LVU294
 1119 00c4 0068     		ldr	r0, [r0]
 1120              	.LVL166:
1025:lvgl/src/lv_widgets/lv_tabview.c ****             lv_obj_align(ext->content, tabview, LV_ALIGN_IN_TOP_LEFT, 0, 0);
 1121              		.loc 1 1025 13 is_stmt 0 view .LVU295
 1122 00c6 0025     		movs	r5, #0
 1123 00c8 0095     		str	r5, [sp]
 1124 00ca 2B46     		mov	r3, r5
 1125 00cc 0322     		movs	r2, #3
 1126 00ce 2946     		mov	r1, r5
 1127 00d0 FFF7FEFF 		bl	lv_obj_align
 1128              	.LVL167:
1026:lvgl/src/lv_widgets/lv_tabview.c ****             lv_obj_align(ext->indic, ext->btns, LV_ALIGN_IN_TOP_LEFT, 0, 0);
 1129              		.loc 1 1026 13 is_stmt 1 view .LVU296
 1130 00d4 A068     		ldr	r0, [r4, #8]
 1131 00d6 0095     		str	r5, [sp]
 1132 00d8 2B46     		mov	r3, r5
 1133 00da 0122     		movs	r2, #1
 1134 00dc 3146     		mov	r1, r6
 1135 00de FFF7FEFF 		bl	lv_obj_align
 1136              	.LVL168:
1027:lvgl/src/lv_widgets/lv_tabview.c ****             break;
 1137              		.loc 1 1027 13 view .LVU297
1027:lvgl/src/lv_widgets/lv_tabview.c ****             break;
 1138              		.loc 1 1027 41 is_stmt 0 view .LVU298
 1139 00e2 2168     		ldr	r1, [r4]
1027:lvgl/src/lv_widgets/lv_tabview.c ****             break;
 1140              		.loc 1 1027 13 view .LVU299
 1141 00e4 6068     		ldr	r0, [r4, #4]
 1142 00e6 0095     		str	r5, [sp]
 1143 00e8 2B46     		mov	r3, r5
 1144 00ea 0122     		movs	r2, #1
 1145 00ec FFF7FEFF 		bl	lv_obj_align
 1146              	.LVL169:
1028:lvgl/src/lv_widgets/lv_tabview.c ****     }
 1147              		.loc 1 1028 13 is_stmt 1 view .LVU300
 1148              		.loc 1 1030 1 is_stmt 0 view .LVU301
 1149 00f0 B4E7     		b	.L45
 1150              		.cfi_endproc
 1151              	.LFE510:
 1153              		.section	.text.lv_tabview_clean_tab,"ax",%progbits
 1154              		.align	1
 1155              		.global	lv_tabview_clean_tab
 1156              		.syntax unified
 1157              		.thumb
 1158              		.thumb_func
 1159              		.fpu fpv4-sp-d16
 1161              	lv_tabview_clean_tab:
 1162              	.LVL170:
 1163              	.LFB492:
 293:lvgl/src/lv_widgets/lv_tabview.c ****     LV_ASSERT_OBJ(tab, "lv_page");
 1164              		.loc 1 293 1 is_stmt 1 view -0
 1165              		.cfi_startproc
 1166              		@ args = 0, pretend = 0, frame = 0
 1167              		@ frame_needed = 0, uses_anonymous_args = 0
ARM GAS  D:\Temp\ccnA29ZW.s 			page 49


 293:lvgl/src/lv_widgets/lv_tabview.c ****     LV_ASSERT_OBJ(tab, "lv_page");
 1168              		.loc 1 293 1 is_stmt 0 view .LVU303
 1169 0000 10B5     		push	{r4, lr}
 1170              	.LCFI11:
 1171              		.cfi_def_cfa_offset 8
 1172              		.cfi_offset 4, -8
 1173              		.cfi_offset 14, -4
 1174 0002 0446     		mov	r4, r0
 294:lvgl/src/lv_widgets/lv_tabview.c **** 
 1175              		.loc 1 294 5 is_stmt 1 view .LVU304
 294:lvgl/src/lv_widgets/lv_tabview.c **** 
 1176              		.loc 1 294 5 view .LVU305
 1177 0004 FFF7FEFF 		bl	lv_debug_check_null
 1178              	.LVL171:
 294:lvgl/src/lv_widgets/lv_tabview.c **** 
 1179              		.loc 1 294 5 is_stmt 0 view .LVU306
 1180 0008 28B9     		cbnz	r0, .L55
 294:lvgl/src/lv_widgets/lv_tabview.c **** 
 1181              		.loc 1 294 5 is_stmt 1 discriminator 1 view .LVU307
 294:lvgl/src/lv_widgets/lv_tabview.c **** 
 1182              		.loc 1 294 5 discriminator 1 view .LVU308
 1183 000a 2246     		mov	r2, r4
 1184 000c 0023     		movs	r3, #0
 1185 000e 0548     		ldr	r0, .L58
 1186 0010 FFF7FEFF 		bl	lv_debug_log_error
 1187              	.LVL172:
 1188              	.L56:
 294:lvgl/src/lv_widgets/lv_tabview.c **** 
 1189              		.loc 1 294 5 discriminator 1 view .LVU309
 294:lvgl/src/lv_widgets/lv_tabview.c **** 
 1190              		.loc 1 294 5 discriminator 1 view .LVU310
 1191 0014 FEE7     		b	.L56
 1192              	.L55:
 294:lvgl/src/lv_widgets/lv_tabview.c **** 
 1193              		.loc 1 294 34 discriminator 2 view .LVU311
 296:lvgl/src/lv_widgets/lv_tabview.c ****     lv_obj_clean(scrl);
 1194              		.loc 1 296 5 discriminator 2 view .LVU312
 296:lvgl/src/lv_widgets/lv_tabview.c ****     lv_obj_clean(scrl);
 1195              		.loc 1 296 23 is_stmt 0 discriminator 2 view .LVU313
 1196 0016 2046     		mov	r0, r4
 1197 0018 FFF7FEFF 		bl	lv_page_get_scrollable
 1198              	.LVL173:
 297:lvgl/src/lv_widgets/lv_tabview.c **** }
 1199              		.loc 1 297 5 is_stmt 1 discriminator 2 view .LVU314
 1200 001c FFF7FEFF 		bl	lv_obj_clean
 1201              	.LVL174:
 298:lvgl/src/lv_widgets/lv_tabview.c **** 
 1202              		.loc 1 298 1 is_stmt 0 discriminator 2 view .LVU315
 1203 0020 10BD     		pop	{r4, pc}
 1204              	.LVL175:
 1205              	.L59:
 298:lvgl/src/lv_widgets/lv_tabview.c **** 
 1206              		.loc 1 298 1 discriminator 2 view .LVU316
 1207 0022 00BF     		.align	2
 1208              	.L58:
 1209 0024 00000000 		.word	.LC0
 1210              		.cfi_endproc
ARM GAS  D:\Temp\ccnA29ZW.s 			page 50


 1211              	.LFE492:
 1213              		.section	.text.lv_tabview_set_tab_name,"ax",%progbits
 1214              		.align	1
 1215              		.global	lv_tabview_set_tab_name
 1216              		.syntax unified
 1217              		.thumb
 1218              		.thumb_func
 1219              		.fpu fpv4-sp-d16
 1221              	lv_tabview_set_tab_name:
 1222              	.LVL176:
 1223              	.LFB494:
 444:lvgl/src/lv_widgets/lv_tabview.c ****     LV_ASSERT_OBJ(tabview, LV_OBJX_NAME);
 1224              		.loc 1 444 1 is_stmt 1 view -0
 1225              		.cfi_startproc
 1226              		@ args = 0, pretend = 0, frame = 0
 1227              		@ frame_needed = 0, uses_anonymous_args = 0
 444:lvgl/src/lv_widgets/lv_tabview.c ****     LV_ASSERT_OBJ(tabview, LV_OBJX_NAME);
 1228              		.loc 1 444 1 is_stmt 0 view .LVU318
 1229 0000 F8B5     		push	{r3, r4, r5, r6, r7, lr}
 1230              	.LCFI12:
 1231              		.cfi_def_cfa_offset 24
 1232              		.cfi_offset 3, -24
 1233              		.cfi_offset 4, -20
 1234              		.cfi_offset 5, -16
 1235              		.cfi_offset 6, -12
 1236              		.cfi_offset 7, -8
 1237              		.cfi_offset 14, -4
 1238 0002 0446     		mov	r4, r0
 1239 0004 0D46     		mov	r5, r1
 1240 0006 1746     		mov	r7, r2
 445:lvgl/src/lv_widgets/lv_tabview.c **** 
 1241              		.loc 1 445 5 is_stmt 1 view .LVU319
 445:lvgl/src/lv_widgets/lv_tabview.c **** 
 1242              		.loc 1 445 5 view .LVU320
 1243 0008 FFF7FEFF 		bl	lv_debug_check_null
 1244              	.LVL177:
 445:lvgl/src/lv_widgets/lv_tabview.c **** 
 1245              		.loc 1 445 5 is_stmt 0 view .LVU321
 1246 000c 28B9     		cbnz	r0, .L61
 445:lvgl/src/lv_widgets/lv_tabview.c **** 
 1247              		.loc 1 445 5 is_stmt 1 discriminator 1 view .LVU322
 445:lvgl/src/lv_widgets/lv_tabview.c **** 
 1248              		.loc 1 445 5 discriminator 1 view .LVU323
 1249 000e 2246     		mov	r2, r4
 1250 0010 0023     		movs	r3, #0
 1251 0012 1548     		ldr	r0, .L68
 1252 0014 FFF7FEFF 		bl	lv_debug_log_error
 1253              	.LVL178:
 1254              	.L62:
 445:lvgl/src/lv_widgets/lv_tabview.c **** 
 1255              		.loc 1 445 5 discriminator 1 view .LVU324
 445:lvgl/src/lv_widgets/lv_tabview.c **** 
 1256              		.loc 1 445 5 discriminator 1 view .LVU325
 1257 0018 FEE7     		b	.L62
 1258              	.L61:
 445:lvgl/src/lv_widgets/lv_tabview.c **** 
 1259              		.loc 1 445 41 discriminator 2 view .LVU326
ARM GAS  D:\Temp\ccnA29ZW.s 			page 51


 448:lvgl/src/lv_widgets/lv_tabview.c **** 
 1260              		.loc 1 448 5 discriminator 2 view .LVU327
 448:lvgl/src/lv_widgets/lv_tabview.c **** 
 1261              		.loc 1 448 30 is_stmt 0 discriminator 2 view .LVU328
 1262 001a 2046     		mov	r0, r4
 1263 001c FFF7FEFF 		bl	lv_obj_get_ext_attr
 1264              	.LVL179:
 1265 0020 0446     		mov	r4, r0
 1266              	.LVL180:
 451:lvgl/src/lv_widgets/lv_tabview.c ****         /* reallocate memory for new tab name (use reallocate due to mostly the size didn't change 
 1267              		.loc 1 451 5 is_stmt 1 discriminator 2 view .LVU329
 451:lvgl/src/lv_widgets/lv_tabview.c ****         /* reallocate memory for new tab name (use reallocate due to mostly the size didn't change 
 1268              		.loc 1 451 11 is_stmt 0 discriminator 2 view .LVU330
 1269 0022 C38A     		ldrh	r3, [r0, #22]
 451:lvgl/src/lv_widgets/lv_tabview.c ****         /* reallocate memory for new tab name (use reallocate due to mostly the size didn't change 
 1270              		.loc 1 451 7 discriminator 2 view .LVU331
 1271 0024 AB42     		cmp	r3, r5
 1272 0026 00D8     		bhi	.L67
 1273              	.LVL181:
 1274              	.L60:
 464:lvgl/src/lv_widgets/lv_tabview.c **** 
 1275              		.loc 1 464 1 view .LVU332
 1276 0028 F8BD     		pop	{r3, r4, r5, r6, r7, pc}
 1277              	.LVL182:
 1278              	.L67:
 1279              	.LBB115:
 453:lvgl/src/lv_widgets/lv_tabview.c ****         LV_ASSERT_MEM(str);
 1280              		.loc 1 453 9 is_stmt 1 view .LVU333
 453:lvgl/src/lv_widgets/lv_tabview.c ****         LV_ASSERT_MEM(str);
 1281              		.loc 1 453 48 is_stmt 0 view .LVU334
 1282 002a C668     		ldr	r6, [r0, #12]
 453:lvgl/src/lv_widgets/lv_tabview.c ****         LV_ASSERT_MEM(str);
 1283              		.loc 1 453 68 view .LVU335
 1284 002c 3846     		mov	r0, r7
 1285              	.LVL183:
 453:lvgl/src/lv_widgets/lv_tabview.c ****         LV_ASSERT_MEM(str);
 1286              		.loc 1 453 68 view .LVU336
 1287 002e FFF7FEFF 		bl	strlen
 1288              	.LVL184:
 453:lvgl/src/lv_widgets/lv_tabview.c ****         LV_ASSERT_MEM(str);
 1289              		.loc 1 453 22 view .LVU337
 1290 0032 411C     		adds	r1, r0, #1
 1291 0034 56F82500 		ldr	r0, [r6, r5, lsl #2]
 1292 0038 FFF7FEFF 		bl	lv_mem_realloc
 1293              	.LVL185:
 1294 003c 0646     		mov	r6, r0
 1295              	.LVL186:
 454:lvgl/src/lv_widgets/lv_tabview.c **** 
 1296              		.loc 1 454 9 is_stmt 1 view .LVU338
 454:lvgl/src/lv_widgets/lv_tabview.c **** 
 1297              		.loc 1 454 9 view .LVU339
 1298 003e FFF7FEFF 		bl	lv_debug_check_null
 1299              	.LVL187:
 454:lvgl/src/lv_widgets/lv_tabview.c **** 
 1300              		.loc 1 454 9 is_stmt 0 view .LVU340
 1301 0042 28B9     		cbnz	r0, .L64
 454:lvgl/src/lv_widgets/lv_tabview.c **** 
ARM GAS  D:\Temp\ccnA29ZW.s 			page 52


 1302              		.loc 1 454 9 is_stmt 1 discriminator 1 view .LVU341
 454:lvgl/src/lv_widgets/lv_tabview.c **** 
 1303              		.loc 1 454 9 discriminator 1 view .LVU342
 1304 0044 3246     		mov	r2, r6
 1305 0046 0023     		movs	r3, #0
 1306 0048 0848     		ldr	r0, .L68+4
 1307 004a FFF7FEFF 		bl	lv_debug_log_error
 1308              	.LVL188:
 1309              	.L65:
 454:lvgl/src/lv_widgets/lv_tabview.c **** 
 1310              		.loc 1 454 9 discriminator 2 view .LVU343
 454:lvgl/src/lv_widgets/lv_tabview.c **** 
 1311              		.loc 1 454 9 discriminator 2 view .LVU344
 1312 004e FEE7     		b	.L65
 1313              	.L64:
 454:lvgl/src/lv_widgets/lv_tabview.c **** 
 1314              		.loc 1 454 27 discriminator 2 view .LVU345
 457:lvgl/src/lv_widgets/lv_tabview.c ****         /* update pointer  */
 1315              		.loc 1 457 9 discriminator 2 view .LVU346
 1316 0050 3946     		mov	r1, r7
 1317 0052 3046     		mov	r0, r6
 1318 0054 FFF7FEFF 		bl	strcpy
 1319              	.LVL189:
 459:lvgl/src/lv_widgets/lv_tabview.c **** 
 1320              		.loc 1 459 9 discriminator 2 view .LVU347
 459:lvgl/src/lv_widgets/lv_tabview.c **** 
 1321              		.loc 1 459 12 is_stmt 0 discriminator 2 view .LVU348
 1322 0058 E368     		ldr	r3, [r4, #12]
 459:lvgl/src/lv_widgets/lv_tabview.c **** 
 1323              		.loc 1 459 31 discriminator 2 view .LVU349
 1324 005a 43F82560 		str	r6, [r3, r5, lsl #2]
 462:lvgl/src/lv_widgets/lv_tabview.c ****     }
 1325              		.loc 1 462 9 is_stmt 1 discriminator 2 view .LVU350
 1326 005e 2068     		ldr	r0, [r4]
 1327 0060 FFF7FEFF 		bl	lv_obj_invalidate
 1328              	.LVL190:
 1329              	.LBE115:
 464:lvgl/src/lv_widgets/lv_tabview.c **** 
 1330              		.loc 1 464 1 is_stmt 0 discriminator 2 view .LVU351
 1331 0064 E0E7     		b	.L60
 1332              	.L69:
 1333 0066 00BF     		.align	2
 1334              	.L68:
 1335 0068 00000000 		.word	.LC0
 1336 006c 00000000 		.word	.LC1
 1337              		.cfi_endproc
 1338              	.LFE494:
 1340              		.section	.text.lv_tabview_set_anim_time,"ax",%progbits
 1341              		.align	1
 1342              		.global	lv_tabview_set_anim_time
 1343              		.syntax unified
 1344              		.thumb
 1345              		.thumb_func
 1346              		.fpu fpv4-sp-d16
 1348              	lv_tabview_set_anim_time:
 1349              	.LVL191:
 1350              	.LFB495:
ARM GAS  D:\Temp\ccnA29ZW.s 			page 53


 472:lvgl/src/lv_widgets/lv_tabview.c ****     LV_ASSERT_OBJ(tabview, LV_OBJX_NAME);
 1351              		.loc 1 472 1 is_stmt 1 view -0
 1352              		.cfi_startproc
 1353              		@ args = 0, pretend = 0, frame = 0
 1354              		@ frame_needed = 0, uses_anonymous_args = 0
 472:lvgl/src/lv_widgets/lv_tabview.c ****     LV_ASSERT_OBJ(tabview, LV_OBJX_NAME);
 1355              		.loc 1 472 1 is_stmt 0 view .LVU353
 1356 0000 38B5     		push	{r3, r4, r5, lr}
 1357              	.LCFI13:
 1358              		.cfi_def_cfa_offset 16
 1359              		.cfi_offset 3, -16
 1360              		.cfi_offset 4, -12
 1361              		.cfi_offset 5, -8
 1362              		.cfi_offset 14, -4
 1363 0002 0446     		mov	r4, r0
 1364 0004 0D46     		mov	r5, r1
 473:lvgl/src/lv_widgets/lv_tabview.c **** 
 1365              		.loc 1 473 5 is_stmt 1 view .LVU354
 473:lvgl/src/lv_widgets/lv_tabview.c **** 
 1366              		.loc 1 473 5 view .LVU355
 1367 0006 FFF7FEFF 		bl	lv_debug_check_null
 1368              	.LVL192:
 473:lvgl/src/lv_widgets/lv_tabview.c **** 
 1369              		.loc 1 473 5 is_stmt 0 view .LVU356
 1370 000a 28B9     		cbnz	r0, .L71
 473:lvgl/src/lv_widgets/lv_tabview.c **** 
 1371              		.loc 1 473 5 is_stmt 1 discriminator 1 view .LVU357
 473:lvgl/src/lv_widgets/lv_tabview.c **** 
 1372              		.loc 1 473 5 discriminator 1 view .LVU358
 1373 000c 2246     		mov	r2, r4
 1374 000e 0023     		movs	r3, #0
 1375 0010 0448     		ldr	r0, .L74
 1376 0012 FFF7FEFF 		bl	lv_debug_log_error
 1377              	.LVL193:
 1378              	.L72:
 473:lvgl/src/lv_widgets/lv_tabview.c **** 
 1379              		.loc 1 473 5 discriminator 1 view .LVU359
 473:lvgl/src/lv_widgets/lv_tabview.c **** 
 1380              		.loc 1 473 5 discriminator 1 view .LVU360
 1381 0016 FEE7     		b	.L72
 1382              	.L71:
 473:lvgl/src/lv_widgets/lv_tabview.c **** 
 1383              		.loc 1 473 41 discriminator 2 view .LVU361
 476:lvgl/src/lv_widgets/lv_tabview.c ****     ext->anim_time         = anim_time;
 1384              		.loc 1 476 5 discriminator 2 view .LVU362
 476:lvgl/src/lv_widgets/lv_tabview.c ****     ext->anim_time         = anim_time;
 1385              		.loc 1 476 30 is_stmt 0 discriminator 2 view .LVU363
 1386 0018 2046     		mov	r0, r4
 1387 001a FFF7FEFF 		bl	lv_obj_get_ext_attr
 1388              	.LVL194:
 477:lvgl/src/lv_widgets/lv_tabview.c **** #else
 1389              		.loc 1 477 5 is_stmt 1 discriminator 2 view .LVU364
 477:lvgl/src/lv_widgets/lv_tabview.c **** #else
 1390              		.loc 1 477 28 is_stmt 0 discriminator 2 view .LVU365
 1391 001e 0583     		strh	r5, [r0, #24]	@ movhi
 482:lvgl/src/lv_widgets/lv_tabview.c **** 
 1392              		.loc 1 482 1 discriminator 2 view .LVU366
ARM GAS  D:\Temp\ccnA29ZW.s 			page 54


 1393 0020 38BD     		pop	{r3, r4, r5, pc}
 1394              	.LVL195:
 1395              	.L75:
 482:lvgl/src/lv_widgets/lv_tabview.c **** 
 1396              		.loc 1 482 1 discriminator 2 view .LVU367
 1397 0022 00BF     		.align	2
 1398              	.L74:
 1399 0024 00000000 		.word	.LC0
 1400              		.cfi_endproc
 1401              	.LFE495:
 1403              		.section	.text.lv_tabview_get_tab_act,"ax",%progbits
 1404              		.align	1
 1405              		.global	lv_tabview_get_tab_act
 1406              		.syntax unified
 1407              		.thumb
 1408              		.thumb_func
 1409              		.fpu fpv4-sp-d16
 1411              	lv_tabview_get_tab_act:
 1412              	.LVL196:
 1413              	.LFB497:
 517:lvgl/src/lv_widgets/lv_tabview.c ****     LV_ASSERT_OBJ(tabview, LV_OBJX_NAME);
 1414              		.loc 1 517 1 is_stmt 1 view -0
 1415              		.cfi_startproc
 1416              		@ args = 0, pretend = 0, frame = 0
 1417              		@ frame_needed = 0, uses_anonymous_args = 0
 517:lvgl/src/lv_widgets/lv_tabview.c ****     LV_ASSERT_OBJ(tabview, LV_OBJX_NAME);
 1418              		.loc 1 517 1 is_stmt 0 view .LVU369
 1419 0000 10B5     		push	{r4, lr}
 1420              	.LCFI14:
 1421              		.cfi_def_cfa_offset 8
 1422              		.cfi_offset 4, -8
 1423              		.cfi_offset 14, -4
 1424 0002 0446     		mov	r4, r0
 518:lvgl/src/lv_widgets/lv_tabview.c **** 
 1425              		.loc 1 518 5 is_stmt 1 view .LVU370
 518:lvgl/src/lv_widgets/lv_tabview.c **** 
 1426              		.loc 1 518 5 view .LVU371
 1427 0004 FFF7FEFF 		bl	lv_debug_check_null
 1428              	.LVL197:
 518:lvgl/src/lv_widgets/lv_tabview.c **** 
 1429              		.loc 1 518 5 is_stmt 0 view .LVU372
 1430 0008 28B9     		cbnz	r0, .L77
 518:lvgl/src/lv_widgets/lv_tabview.c **** 
 1431              		.loc 1 518 5 is_stmt 1 discriminator 1 view .LVU373
 518:lvgl/src/lv_widgets/lv_tabview.c **** 
 1432              		.loc 1 518 5 discriminator 1 view .LVU374
 1433 000a 2246     		mov	r2, r4
 1434 000c 0023     		movs	r3, #0
 1435 000e 0448     		ldr	r0, .L80
 1436 0010 FFF7FEFF 		bl	lv_debug_log_error
 1437              	.LVL198:
 1438              	.L78:
 518:lvgl/src/lv_widgets/lv_tabview.c **** 
 1439              		.loc 1 518 5 discriminator 1 view .LVU375
 518:lvgl/src/lv_widgets/lv_tabview.c **** 
 1440              		.loc 1 518 5 discriminator 1 view .LVU376
 1441 0014 FEE7     		b	.L78
ARM GAS  D:\Temp\ccnA29ZW.s 			page 55


 1442              	.L77:
 518:lvgl/src/lv_widgets/lv_tabview.c **** 
 1443              		.loc 1 518 41 discriminator 2 view .LVU377
 520:lvgl/src/lv_widgets/lv_tabview.c ****     return ext->tab_cur;
 1444              		.loc 1 520 5 discriminator 2 view .LVU378
 520:lvgl/src/lv_widgets/lv_tabview.c ****     return ext->tab_cur;
 1445              		.loc 1 520 30 is_stmt 0 discriminator 2 view .LVU379
 1446 0016 2046     		mov	r0, r4
 1447 0018 FFF7FEFF 		bl	lv_obj_get_ext_attr
 1448              	.LVL199:
 521:lvgl/src/lv_widgets/lv_tabview.c **** }
 1449              		.loc 1 521 5 is_stmt 1 discriminator 2 view .LVU380
 522:lvgl/src/lv_widgets/lv_tabview.c **** 
 1450              		.loc 1 522 1 is_stmt 0 discriminator 2 view .LVU381
 1451 001c 808A     		ldrh	r0, [r0, #20]
 1452              	.LVL200:
 522:lvgl/src/lv_widgets/lv_tabview.c **** 
 1453              		.loc 1 522 1 discriminator 2 view .LVU382
 1454 001e 10BD     		pop	{r4, pc}
 1455              	.LVL201:
 1456              	.L81:
 522:lvgl/src/lv_widgets/lv_tabview.c **** 
 1457              		.loc 1 522 1 discriminator 2 view .LVU383
 1458              		.align	2
 1459              	.L80:
 1460 0020 00000000 		.word	.LC0
 1461              		.cfi_endproc
 1462              	.LFE497:
 1464              		.section	.text.lv_tabview_get_tab_count,"ax",%progbits
 1465              		.align	1
 1466              		.global	lv_tabview_get_tab_count
 1467              		.syntax unified
 1468              		.thumb
 1469              		.thumb_func
 1470              		.fpu fpv4-sp-d16
 1472              	lv_tabview_get_tab_count:
 1473              	.LVL202:
 1474              	.LFB498:
 530:lvgl/src/lv_widgets/lv_tabview.c ****     LV_ASSERT_OBJ(tabview, LV_OBJX_NAME);
 1475              		.loc 1 530 1 is_stmt 1 view -0
 1476              		.cfi_startproc
 1477              		@ args = 0, pretend = 0, frame = 0
 1478              		@ frame_needed = 0, uses_anonymous_args = 0
 530:lvgl/src/lv_widgets/lv_tabview.c ****     LV_ASSERT_OBJ(tabview, LV_OBJX_NAME);
 1479              		.loc 1 530 1 is_stmt 0 view .LVU385
 1480 0000 10B5     		push	{r4, lr}
 1481              	.LCFI15:
 1482              		.cfi_def_cfa_offset 8
 1483              		.cfi_offset 4, -8
 1484              		.cfi_offset 14, -4
 1485 0002 0446     		mov	r4, r0
 531:lvgl/src/lv_widgets/lv_tabview.c **** 
 1486              		.loc 1 531 5 is_stmt 1 view .LVU386
 531:lvgl/src/lv_widgets/lv_tabview.c **** 
 1487              		.loc 1 531 5 view .LVU387
 1488 0004 FFF7FEFF 		bl	lv_debug_check_null
 1489              	.LVL203:
ARM GAS  D:\Temp\ccnA29ZW.s 			page 56


 531:lvgl/src/lv_widgets/lv_tabview.c **** 
 1490              		.loc 1 531 5 is_stmt 0 view .LVU388
 1491 0008 28B9     		cbnz	r0, .L83
 531:lvgl/src/lv_widgets/lv_tabview.c **** 
 1492              		.loc 1 531 5 is_stmt 1 discriminator 1 view .LVU389
 531:lvgl/src/lv_widgets/lv_tabview.c **** 
 1493              		.loc 1 531 5 discriminator 1 view .LVU390
 1494 000a 2246     		mov	r2, r4
 1495 000c 0023     		movs	r3, #0
 1496 000e 0448     		ldr	r0, .L86
 1497 0010 FFF7FEFF 		bl	lv_debug_log_error
 1498              	.LVL204:
 1499              	.L84:
 531:lvgl/src/lv_widgets/lv_tabview.c **** 
 1500              		.loc 1 531 5 discriminator 1 view .LVU391
 531:lvgl/src/lv_widgets/lv_tabview.c **** 
 1501              		.loc 1 531 5 discriminator 1 view .LVU392
 1502 0014 FEE7     		b	.L84
 1503              	.L83:
 531:lvgl/src/lv_widgets/lv_tabview.c **** 
 1504              		.loc 1 531 41 discriminator 2 view .LVU393
 533:lvgl/src/lv_widgets/lv_tabview.c ****     return ext->tab_cnt;
 1505              		.loc 1 533 5 discriminator 2 view .LVU394
 533:lvgl/src/lv_widgets/lv_tabview.c ****     return ext->tab_cnt;
 1506              		.loc 1 533 30 is_stmt 0 discriminator 2 view .LVU395
 1507 0016 2046     		mov	r0, r4
 1508 0018 FFF7FEFF 		bl	lv_obj_get_ext_attr
 1509              	.LVL205:
 534:lvgl/src/lv_widgets/lv_tabview.c **** }
 1510              		.loc 1 534 5 is_stmt 1 discriminator 2 view .LVU396
 535:lvgl/src/lv_widgets/lv_tabview.c **** 
 1511              		.loc 1 535 1 is_stmt 0 discriminator 2 view .LVU397
 1512 001c C08A     		ldrh	r0, [r0, #22]
 1513              	.LVL206:
 535:lvgl/src/lv_widgets/lv_tabview.c **** 
 1514              		.loc 1 535 1 discriminator 2 view .LVU398
 1515 001e 10BD     		pop	{r4, pc}
 1516              	.LVL207:
 1517              	.L87:
 535:lvgl/src/lv_widgets/lv_tabview.c **** 
 1518              		.loc 1 535 1 discriminator 2 view .LVU399
 1519              		.align	2
 1520              	.L86:
 1521 0020 00000000 		.word	.LC0
 1522              		.cfi_endproc
 1523              	.LFE498:
 1525              		.section	.text.lv_tabview_get_tab,"ax",%progbits
 1526              		.align	1
 1527              		.global	lv_tabview_get_tab
 1528              		.syntax unified
 1529              		.thumb
 1530              		.thumb_func
 1531              		.fpu fpv4-sp-d16
 1533              	lv_tabview_get_tab:
 1534              	.LVL208:
 1535              	.LFB499:
 544:lvgl/src/lv_widgets/lv_tabview.c ****     LV_ASSERT_OBJ(tabview, LV_OBJX_NAME);
ARM GAS  D:\Temp\ccnA29ZW.s 			page 57


 1536              		.loc 1 544 1 is_stmt 1 view -0
 1537              		.cfi_startproc
 1538              		@ args = 0, pretend = 0, frame = 0
 1539              		@ frame_needed = 0, uses_anonymous_args = 0
 544:lvgl/src/lv_widgets/lv_tabview.c ****     LV_ASSERT_OBJ(tabview, LV_OBJX_NAME);
 1540              		.loc 1 544 1 is_stmt 0 view .LVU401
 1541 0000 F8B5     		push	{r3, r4, r5, r6, r7, lr}
 1542              	.LCFI16:
 1543              		.cfi_def_cfa_offset 24
 1544              		.cfi_offset 3, -24
 1545              		.cfi_offset 4, -20
 1546              		.cfi_offset 5, -16
 1547              		.cfi_offset 6, -12
 1548              		.cfi_offset 7, -8
 1549              		.cfi_offset 14, -4
 1550 0002 0446     		mov	r4, r0
 1551 0004 0E46     		mov	r6, r1
 545:lvgl/src/lv_widgets/lv_tabview.c **** 
 1552              		.loc 1 545 5 is_stmt 1 view .LVU402
 545:lvgl/src/lv_widgets/lv_tabview.c **** 
 1553              		.loc 1 545 5 view .LVU403
 1554 0006 FFF7FEFF 		bl	lv_debug_check_null
 1555              	.LVL209:
 545:lvgl/src/lv_widgets/lv_tabview.c **** 
 1556              		.loc 1 545 5 is_stmt 0 view .LVU404
 1557 000a 28B9     		cbnz	r0, .L89
 545:lvgl/src/lv_widgets/lv_tabview.c **** 
 1558              		.loc 1 545 5 is_stmt 1 discriminator 1 view .LVU405
 545:lvgl/src/lv_widgets/lv_tabview.c **** 
 1559              		.loc 1 545 5 discriminator 1 view .LVU406
 1560 000c 2246     		mov	r2, r4
 1561 000e 0023     		movs	r3, #0
 1562 0010 1348     		ldr	r0, .L97
 1563 0012 FFF7FEFF 		bl	lv_debug_log_error
 1564              	.LVL210:
 1565              	.L90:
 545:lvgl/src/lv_widgets/lv_tabview.c **** 
 1566              		.loc 1 545 5 discriminator 1 view .LVU407
 545:lvgl/src/lv_widgets/lv_tabview.c **** 
 1567              		.loc 1 545 5 discriminator 1 view .LVU408
 1568 0016 FEE7     		b	.L90
 1569              	.L89:
 545:lvgl/src/lv_widgets/lv_tabview.c **** 
 1570              		.loc 1 545 41 discriminator 2 view .LVU409
 547:lvgl/src/lv_widgets/lv_tabview.c ****     lv_obj_t * content_scrl = lv_page_get_scrollable(ext->content);
 1571              		.loc 1 547 5 discriminator 2 view .LVU410
 547:lvgl/src/lv_widgets/lv_tabview.c ****     lv_obj_t * content_scrl = lv_page_get_scrollable(ext->content);
 1572              		.loc 1 547 30 is_stmt 0 discriminator 2 view .LVU411
 1573 0018 2046     		mov	r0, r4
 1574 001a FFF7FEFF 		bl	lv_obj_get_ext_attr
 1575              	.LVL211:
 548:lvgl/src/lv_widgets/lv_tabview.c ****     uint16_t i             = 0;
 1576              		.loc 1 548 5 is_stmt 1 discriminator 2 view .LVU412
 548:lvgl/src/lv_widgets/lv_tabview.c ****     uint16_t i             = 0;
 1577              		.loc 1 548 31 is_stmt 0 discriminator 2 view .LVU413
 1578 001e 8068     		ldr	r0, [r0, #8]
 1579              	.LVL212:
ARM GAS  D:\Temp\ccnA29ZW.s 			page 58


 548:lvgl/src/lv_widgets/lv_tabview.c ****     uint16_t i             = 0;
 1580              		.loc 1 548 31 discriminator 2 view .LVU414
 1581 0020 FFF7FEFF 		bl	lv_page_get_scrollable
 1582              	.LVL213:
 1583 0024 0746     		mov	r7, r0
 1584              	.LVL214:
 549:lvgl/src/lv_widgets/lv_tabview.c ****     lv_obj_t * page        = lv_obj_get_child_back(content_scrl, NULL);
 1585              		.loc 1 549 5 is_stmt 1 discriminator 2 view .LVU415
 550:lvgl/src/lv_widgets/lv_tabview.c **** 
 1586              		.loc 1 550 5 discriminator 2 view .LVU416
 550:lvgl/src/lv_widgets/lv_tabview.c **** 
 1587              		.loc 1 550 30 is_stmt 0 discriminator 2 view .LVU417
 1588 0026 0021     		movs	r1, #0
 1589 0028 FFF7FEFF 		bl	lv_obj_get_child_back
 1590              	.LVL215:
 550:lvgl/src/lv_widgets/lv_tabview.c **** 
 1591              		.loc 1 550 30 discriminator 2 view .LVU418
 1592 002c 0446     		mov	r4, r0
 1593              	.LVL216:
 552:lvgl/src/lv_widgets/lv_tabview.c ****         if(lv_obj_get_signal_cb(page) == page_signal) i++;
 1594              		.loc 1 552 5 is_stmt 1 discriminator 2 view .LVU419
 549:lvgl/src/lv_widgets/lv_tabview.c ****     lv_obj_t * page        = lv_obj_get_child_back(content_scrl, NULL);
 1595              		.loc 1 549 14 is_stmt 0 discriminator 2 view .LVU420
 1596 002e 0025     		movs	r5, #0
 552:lvgl/src/lv_widgets/lv_tabview.c ****         if(lv_obj_get_signal_cb(page) == page_signal) i++;
 1597              		.loc 1 552 10 discriminator 2 view .LVU421
 1598 0030 04E0     		b	.L91
 1599              	.LVL217:
 1600              	.L92:
 554:lvgl/src/lv_widgets/lv_tabview.c ****     }
 1601              		.loc 1 554 9 is_stmt 1 view .LVU422
 554:lvgl/src/lv_widgets/lv_tabview.c ****     }
 1602              		.loc 1 554 16 is_stmt 0 view .LVU423
 1603 0032 2146     		mov	r1, r4
 1604 0034 3846     		mov	r0, r7
 1605 0036 FFF7FEFF 		bl	lv_obj_get_child_back
 1606              	.LVL218:
 1607 003a 0446     		mov	r4, r0
 1608              	.LVL219:
 1609              	.L91:
 552:lvgl/src/lv_widgets/lv_tabview.c ****         if(lv_obj_get_signal_cb(page) == page_signal) i++;
 1610              		.loc 1 552 10 view .LVU424
 1611 003c 5CB1     		cbz	r4, .L93
 552:lvgl/src/lv_widgets/lv_tabview.c ****         if(lv_obj_get_signal_cb(page) == page_signal) i++;
 1612              		.loc 1 552 24 discriminator 1 view .LVU425
 1613 003e B542     		cmp	r5, r6
 1614 0040 09D0     		beq	.L93
 553:lvgl/src/lv_widgets/lv_tabview.c ****         page = lv_obj_get_child_back(content_scrl, page);
 1615              		.loc 1 553 9 is_stmt 1 view .LVU426
 553:lvgl/src/lv_widgets/lv_tabview.c ****         page = lv_obj_get_child_back(content_scrl, page);
 1616              		.loc 1 553 12 is_stmt 0 view .LVU427
 1617 0042 2046     		mov	r0, r4
 553:lvgl/src/lv_widgets/lv_tabview.c ****         page = lv_obj_get_child_back(content_scrl, page);
 1618              		.loc 1 553 12 view .LVU428
 1619 0044 FFF7FEFF 		bl	lv_obj_get_signal_cb
 1620              	.LVL220:
 553:lvgl/src/lv_widgets/lv_tabview.c ****         page = lv_obj_get_child_back(content_scrl, page);
ARM GAS  D:\Temp\ccnA29ZW.s 			page 59


 1621              		.loc 1 553 39 view .LVU429
 1622 0048 064B     		ldr	r3, .L97+4
 1623 004a 1B68     		ldr	r3, [r3]
 553:lvgl/src/lv_widgets/lv_tabview.c ****         page = lv_obj_get_child_back(content_scrl, page);
 1624              		.loc 1 553 11 view .LVU430
 1625 004c 8342     		cmp	r3, r0
 1626 004e F0D1     		bne	.L92
 553:lvgl/src/lv_widgets/lv_tabview.c ****         page = lv_obj_get_child_back(content_scrl, page);
 1627              		.loc 1 553 55 is_stmt 1 discriminator 1 view .LVU431
 553:lvgl/src/lv_widgets/lv_tabview.c ****         page = lv_obj_get_child_back(content_scrl, page);
 1628              		.loc 1 553 56 is_stmt 0 discriminator 1 view .LVU432
 1629 0050 0135     		adds	r5, r5, #1
 1630              	.LVL221:
 553:lvgl/src/lv_widgets/lv_tabview.c ****         page = lv_obj_get_child_back(content_scrl, page);
 1631              		.loc 1 553 56 discriminator 1 view .LVU433
 1632 0052 ADB2     		uxth	r5, r5
 1633              	.LVL222:
 553:lvgl/src/lv_widgets/lv_tabview.c ****         page = lv_obj_get_child_back(content_scrl, page);
 1634              		.loc 1 553 56 discriminator 1 view .LVU434
 1635 0054 EDE7     		b	.L92
 1636              	.LVL223:
 1637              	.L93:
 557:lvgl/src/lv_widgets/lv_tabview.c **** 
 1638              		.loc 1 557 5 is_stmt 1 view .LVU435
 557:lvgl/src/lv_widgets/lv_tabview.c **** 
 1639              		.loc 1 557 7 is_stmt 0 view .LVU436
 1640 0056 B542     		cmp	r5, r6
 1641 0058 00D0     		beq	.L88
 559:lvgl/src/lv_widgets/lv_tabview.c **** }
 1642              		.loc 1 559 12 view .LVU437
 1643 005a 0024     		movs	r4, #0
 1644              	.L88:
 560:lvgl/src/lv_widgets/lv_tabview.c **** 
 1645              		.loc 1 560 1 view .LVU438
 1646 005c 2046     		mov	r0, r4
 1647              	.LVL224:
 560:lvgl/src/lv_widgets/lv_tabview.c **** 
 1648              		.loc 1 560 1 view .LVU439
 1649 005e F8BD     		pop	{r3, r4, r5, r6, r7, pc}
 1650              	.LVL225:
 1651              	.L98:
 560:lvgl/src/lv_widgets/lv_tabview.c **** 
 1652              		.loc 1 560 1 view .LVU440
 1653              		.align	2
 1654              	.L97:
 1655 0060 00000000 		.word	.LC0
 1656 0064 00000000 		.word	.LANCHOR0
 1657              		.cfi_endproc
 1658              	.LFE499:
 1660              		.section	.text.lv_tabview_get_anim_time,"ax",%progbits
 1661              		.align	1
 1662              		.global	lv_tabview_get_anim_time
 1663              		.syntax unified
 1664              		.thumb
 1665              		.thumb_func
 1666              		.fpu fpv4-sp-d16
 1668              	lv_tabview_get_anim_time:
ARM GAS  D:\Temp\ccnA29ZW.s 			page 60


 1669              	.LVL226:
 1670              	.LFB500:
 568:lvgl/src/lv_widgets/lv_tabview.c ****     LV_ASSERT_OBJ(tabview, LV_OBJX_NAME);
 1671              		.loc 1 568 1 is_stmt 1 view -0
 1672              		.cfi_startproc
 1673              		@ args = 0, pretend = 0, frame = 0
 1674              		@ frame_needed = 0, uses_anonymous_args = 0
 568:lvgl/src/lv_widgets/lv_tabview.c ****     LV_ASSERT_OBJ(tabview, LV_OBJX_NAME);
 1675              		.loc 1 568 1 is_stmt 0 view .LVU442
 1676 0000 10B5     		push	{r4, lr}
 1677              	.LCFI17:
 1678              		.cfi_def_cfa_offset 8
 1679              		.cfi_offset 4, -8
 1680              		.cfi_offset 14, -4
 1681 0002 0446     		mov	r4, r0
 569:lvgl/src/lv_widgets/lv_tabview.c **** 
 1682              		.loc 1 569 5 is_stmt 1 view .LVU443
 569:lvgl/src/lv_widgets/lv_tabview.c **** 
 1683              		.loc 1 569 5 view .LVU444
 1684 0004 FFF7FEFF 		bl	lv_debug_check_null
 1685              	.LVL227:
 569:lvgl/src/lv_widgets/lv_tabview.c **** 
 1686              		.loc 1 569 5 is_stmt 0 view .LVU445
 1687 0008 28B9     		cbnz	r0, .L100
 569:lvgl/src/lv_widgets/lv_tabview.c **** 
 1688              		.loc 1 569 5 is_stmt 1 discriminator 1 view .LVU446
 569:lvgl/src/lv_widgets/lv_tabview.c **** 
 1689              		.loc 1 569 5 discriminator 1 view .LVU447
 1690 000a 2246     		mov	r2, r4
 1691 000c 0023     		movs	r3, #0
 1692 000e 0448     		ldr	r0, .L103
 1693 0010 FFF7FEFF 		bl	lv_debug_log_error
 1694              	.LVL228:
 1695              	.L101:
 569:lvgl/src/lv_widgets/lv_tabview.c **** 
 1696              		.loc 1 569 5 discriminator 1 view .LVU448
 569:lvgl/src/lv_widgets/lv_tabview.c **** 
 1697              		.loc 1 569 5 discriminator 1 view .LVU449
 1698 0014 FEE7     		b	.L101
 1699              	.L100:
 569:lvgl/src/lv_widgets/lv_tabview.c **** 
 1700              		.loc 1 569 41 discriminator 2 view .LVU450
 572:lvgl/src/lv_widgets/lv_tabview.c ****     return ext->anim_time;
 1701              		.loc 1 572 5 discriminator 2 view .LVU451
 572:lvgl/src/lv_widgets/lv_tabview.c ****     return ext->anim_time;
 1702              		.loc 1 572 30 is_stmt 0 discriminator 2 view .LVU452
 1703 0016 2046     		mov	r0, r4
 1704 0018 FFF7FEFF 		bl	lv_obj_get_ext_attr
 1705              	.LVL229:
 573:lvgl/src/lv_widgets/lv_tabview.c **** #else
 1706              		.loc 1 573 5 is_stmt 1 discriminator 2 view .LVU453
 578:lvgl/src/lv_widgets/lv_tabview.c **** 
 1707              		.loc 1 578 1 is_stmt 0 discriminator 2 view .LVU454
 1708 001c 008B     		ldrh	r0, [r0, #24]
 1709              	.LVL230:
 578:lvgl/src/lv_widgets/lv_tabview.c **** 
 1710              		.loc 1 578 1 discriminator 2 view .LVU455
ARM GAS  D:\Temp\ccnA29ZW.s 			page 61


 1711 001e 10BD     		pop	{r4, pc}
 1712              	.LVL231:
 1713              	.L104:
 578:lvgl/src/lv_widgets/lv_tabview.c **** 
 1714              		.loc 1 578 1 discriminator 2 view .LVU456
 1715              		.align	2
 1716              	.L103:
 1717 0020 00000000 		.word	.LC0
 1718              		.cfi_endproc
 1719              	.LFE500:
 1721              		.section	.text.lv_tabview_set_tab_act,"ax",%progbits
 1722              		.align	1
 1723              		.global	lv_tabview_set_tab_act
 1724              		.syntax unified
 1725              		.thumb
 1726              		.thumb_func
 1727              		.fpu fpv4-sp-d16
 1729              	lv_tabview_set_tab_act:
 1730              	.LVL232:
 1731              	.LFB493:
 311:lvgl/src/lv_widgets/lv_tabview.c ****     LV_ASSERT_OBJ(tabview, LV_OBJX_NAME);
 1732              		.loc 1 311 1 is_stmt 1 view -0
 1733              		.cfi_startproc
 1734              		@ args = 0, pretend = 0, frame = 72
 1735              		@ frame_needed = 0, uses_anonymous_args = 0
 311:lvgl/src/lv_widgets/lv_tabview.c ****     LV_ASSERT_OBJ(tabview, LV_OBJX_NAME);
 1736              		.loc 1 311 1 is_stmt 0 view .LVU458
 1737 0000 2DE9F047 		push	{r4, r5, r6, r7, r8, r9, r10, lr}
 1738              	.LCFI18:
 1739              		.cfi_def_cfa_offset 32
 1740              		.cfi_offset 4, -32
 1741              		.cfi_offset 5, -28
 1742              		.cfi_offset 6, -24
 1743              		.cfi_offset 7, -20
 1744              		.cfi_offset 8, -16
 1745              		.cfi_offset 9, -12
 1746              		.cfi_offset 10, -8
 1747              		.cfi_offset 14, -4
 1748 0004 92B0     		sub	sp, sp, #72
 1749              	.LCFI19:
 1750              		.cfi_def_cfa_offset 104
 1751 0006 0646     		mov	r6, r0
 1752 0008 0F46     		mov	r7, r1
 1753 000a 9046     		mov	r8, r2
 312:lvgl/src/lv_widgets/lv_tabview.c **** 
 1754              		.loc 1 312 5 is_stmt 1 view .LVU459
 312:lvgl/src/lv_widgets/lv_tabview.c **** 
 1755              		.loc 1 312 5 view .LVU460
 1756 000c FFF7FEFF 		bl	lv_debug_check_null
 1757              	.LVL233:
 312:lvgl/src/lv_widgets/lv_tabview.c **** 
 1758              		.loc 1 312 5 is_stmt 0 view .LVU461
 1759 0010 28B9     		cbnz	r0, .L106
 312:lvgl/src/lv_widgets/lv_tabview.c **** 
 1760              		.loc 1 312 5 is_stmt 1 discriminator 1 view .LVU462
 312:lvgl/src/lv_widgets/lv_tabview.c **** 
 1761              		.loc 1 312 5 discriminator 1 view .LVU463
ARM GAS  D:\Temp\ccnA29ZW.s 			page 62


 1762 0012 3246     		mov	r2, r6
 1763 0014 0023     		movs	r3, #0
 1764 0016 7648     		ldr	r0, .L132
 1765 0018 FFF7FEFF 		bl	lv_debug_log_error
 1766              	.LVL234:
 1767              	.L107:
 312:lvgl/src/lv_widgets/lv_tabview.c **** 
 1768              		.loc 1 312 5 discriminator 1 view .LVU464
 312:lvgl/src/lv_widgets/lv_tabview.c **** 
 1769              		.loc 1 312 5 discriminator 1 view .LVU465
 1770 001c FEE7     		b	.L107
 1771              	.L106:
 312:lvgl/src/lv_widgets/lv_tabview.c **** 
 1772              		.loc 1 312 41 discriminator 2 view .LVU466
 317:lvgl/src/lv_widgets/lv_tabview.c **** 
 1773              		.loc 1 317 5 discriminator 2 view .LVU467
 317:lvgl/src/lv_widgets/lv_tabview.c **** 
 1774              		.loc 1 317 30 is_stmt 0 discriminator 2 view .LVU468
 1775 001e 3046     		mov	r0, r6
 1776 0020 FFF7FEFF 		bl	lv_obj_get_ext_attr
 1777              	.LVL235:
 1778 0024 0446     		mov	r4, r0
 1779              	.LVL236:
 319:lvgl/src/lv_widgets/lv_tabview.c **** 
 1780              		.loc 1 319 5 is_stmt 1 discriminator 2 view .LVU469
 319:lvgl/src/lv_widgets/lv_tabview.c **** 
 1781              		.loc 1 319 17 is_stmt 0 discriminator 2 view .LVU470
 1782 0026 C38A     		ldrh	r3, [r0, #22]
 319:lvgl/src/lv_widgets/lv_tabview.c **** 
 1783              		.loc 1 319 7 discriminator 2 view .LVU471
 1784 0028 BB42     		cmp	r3, r7
 1785 002a 01D8     		bhi	.L108
 319:lvgl/src/lv_widgets/lv_tabview.c **** 
 1786              		.loc 1 319 28 is_stmt 1 discriminator 1 view .LVU472
 319:lvgl/src/lv_widgets/lv_tabview.c **** 
 1787              		.loc 1 319 31 is_stmt 0 discriminator 1 view .LVU473
 1788 002c 013B     		subs	r3, r3, #1
 1789 002e 9FB2     		uxth	r7, r3
 1790              	.LVL237:
 1791              	.L108:
 321:lvgl/src/lv_widgets/lv_tabview.c **** 
 1792              		.loc 1 321 5 is_stmt 1 view .LVU474
 1793 0030 8022     		movs	r2, #128
 1794 0032 A18A     		ldrh	r1, [r4, #20]
 1795 0034 2068     		ldr	r0, [r4]
 1796              	.LVL238:
 321:lvgl/src/lv_widgets/lv_tabview.c **** 
 1797              		.loc 1 321 5 is_stmt 0 view .LVU475
 1798 0036 FFF7FEFF 		bl	lv_btnmatrix_clear_btn_ctrl
 1799              	.LVL239:
 323:lvgl/src/lv_widgets/lv_tabview.c **** 
 1800              		.loc 1 323 5 is_stmt 1 view .LVU476
 323:lvgl/src/lv_widgets/lv_tabview.c **** 
 1801              		.loc 1 323 18 is_stmt 0 view .LVU477
 1802 003a A782     		strh	r7, [r4, #20]	@ movhi
 325:lvgl/src/lv_widgets/lv_tabview.c ****         id = (ext->tab_cnt - (id + 1));
 1803              		.loc 1 325 5 is_stmt 1 view .LVU478
ARM GAS  D:\Temp\ccnA29ZW.s 			page 63


 325:lvgl/src/lv_widgets/lv_tabview.c ****         id = (ext->tab_cnt - (id + 1));
 1804              		.loc 1 325 8 is_stmt 0 view .LVU479
 1805 003c 3046     		mov	r0, r6
 1806 003e FFF7FEFF 		bl	lv_obj_get_base_dir
 1807              	.LVL240:
 325:lvgl/src/lv_widgets/lv_tabview.c ****         id = (ext->tab_cnt - (id + 1));
 1808              		.loc 1 325 7 view .LVU480
 1809 0042 0128     		cmp	r0, #1
 1810 0044 34D0     		beq	.L131
 1811              	.L109:
 329:lvgl/src/lv_widgets/lv_tabview.c ****     lv_style_int_t scrl_inner = lv_obj_get_style_pad_inner(ext->content, LV_PAGE_PART_SCROLLABLE);
 1812              		.loc 1 329 5 is_stmt 1 view .LVU481
 330:lvgl/src/lv_widgets/lv_tabview.c ****     lv_style_int_t scrl_left = lv_obj_get_style_pad_left(ext->content, LV_PAGE_PART_SCROLLABLE);
 1813              		.loc 1 330 5 view .LVU482
 1814              	.LVL241:
 1815              	.LBB116:
 1816              	.LBI116:
 114:lvgl/src/lv_widgets/../lv_core/lv_obj_style_dec.h **** _LV_OBJ_STYLE_SET_GET_DECLARE(MARGIN_TOP, margin_top, lv_style_int_t, _int, scalar)
 1817              		.loc 2 114 1 view .LVU483
 1818              	.LBB117:
 114:lvgl/src/lv_widgets/../lv_core/lv_obj_style_dec.h **** _LV_OBJ_STYLE_SET_GET_DECLARE(MARGIN_TOP, margin_top, lv_style_int_t, _int, scalar)
 1819              		.loc 2 114 1 view .LVU484
 1820 0046 1422     		movs	r2, #20
 1821 0048 4021     		movs	r1, #64
 1822 004a A068     		ldr	r0, [r4, #8]
 1823 004c FFF7FEFF 		bl	_lv_obj_get_style_int
 1824              	.LVL242:
 114:lvgl/src/lv_widgets/../lv_core/lv_obj_style_dec.h **** _LV_OBJ_STYLE_SET_GET_DECLARE(MARGIN_TOP, margin_top, lv_style_int_t, _int, scalar)
 1825              		.loc 2 114 1 is_stmt 0 view .LVU485
 1826 0050 8246     		mov	r10, r0
 1827              	.LVL243:
 114:lvgl/src/lv_widgets/../lv_core/lv_obj_style_dec.h **** _LV_OBJ_STYLE_SET_GET_DECLARE(MARGIN_TOP, margin_top, lv_style_int_t, _int, scalar)
 1828              		.loc 2 114 1 view .LVU486
 1829              	.LBE117:
 1830              	.LBE116:
 331:lvgl/src/lv_widgets/lv_tabview.c **** 
 1831              		.loc 1 331 5 is_stmt 1 view .LVU487
 1832              	.LBB118:
 1833              	.LBI118:
 112:lvgl/src/lv_widgets/../lv_core/lv_obj_style_dec.h **** _LV_OBJ_STYLE_SET_GET_DECLARE(PAD_RIGHT, pad_right, lv_style_int_t, _int, scalar)
 1834              		.loc 2 112 1 view .LVU488
 1835              	.LBB119:
 112:lvgl/src/lv_widgets/../lv_core/lv_obj_style_dec.h **** _LV_OBJ_STYLE_SET_GET_DECLARE(PAD_RIGHT, pad_right, lv_style_int_t, _int, scalar)
 1836              		.loc 2 112 1 view .LVU489
 1837 0052 1222     		movs	r2, #18
 1838 0054 4021     		movs	r1, #64
 1839 0056 A068     		ldr	r0, [r4, #8]
 1840 0058 FFF7FEFF 		bl	_lv_obj_get_style_int
 1841              	.LVL244:
 112:lvgl/src/lv_widgets/../lv_core/lv_obj_style_dec.h **** _LV_OBJ_STYLE_SET_GET_DECLARE(PAD_RIGHT, pad_right, lv_style_int_t, _int, scalar)
 1842              		.loc 2 112 1 is_stmt 0 view .LVU490
 1843 005c 8146     		mov	r9, r0
 1844              	.LVL245:
 112:lvgl/src/lv_widgets/../lv_core/lv_obj_style_dec.h **** _LV_OBJ_STYLE_SET_GET_DECLARE(PAD_RIGHT, pad_right, lv_style_int_t, _int, scalar)
 1845              		.loc 2 112 1 view .LVU491
 1846              	.LBE119:
 1847              	.LBE118:
ARM GAS  D:\Temp\ccnA29ZW.s 			page 64


 333:lvgl/src/lv_widgets/lv_tabview.c ****         default: /*default case is prevented in lv_tabview_set_btns_pos(), but here for safety*/
 1848              		.loc 1 333 5 is_stmt 1 view .LVU492
 333:lvgl/src/lv_widgets/lv_tabview.c ****         default: /*default case is prevented in lv_tabview_set_btns_pos(), but here for safety*/
 1849              		.loc 1 333 15 is_stmt 0 view .LVU493
 1850 005e A37E     		ldrb	r3, [r4, #26]	@ zero_extendqisi2
 1851 0060 03F00703 		and	r3, r3, #7
 333:lvgl/src/lv_widgets/lv_tabview.c ****         default: /*default case is prevented in lv_tabview_set_btns_pos(), but here for safety*/
 1852              		.loc 1 333 5 view .LVU494
 1853 0064 033B     		subs	r3, r3, #3
 1854 0066 012B     		cmp	r3, #1
 1855 0068 28D9     		bls	.L110
 338:lvgl/src/lv_widgets/lv_tabview.c ****             break;
 1856              		.loc 1 338 13 is_stmt 1 view .LVU495
 338:lvgl/src/lv_widgets/lv_tabview.c ****             break;
 1857              		.loc 1 338 24 is_stmt 0 view .LVU496
 1858 006a 3046     		mov	r0, r6
 1859 006c FFF7FEFF 		bl	lv_obj_get_width
 1860              	.LVL246:
 338:lvgl/src/lv_widgets/lv_tabview.c ****             break;
 1861              		.loc 1 338 55 view .LVU497
 1862 0070 00EB0A05 		add	r5, r0, r10
 1863 0074 15FB07F5 		smulbb	r5, r5, r7
 338:lvgl/src/lv_widgets/lv_tabview.c ****             break;
 1864              		.loc 1 338 73 view .LVU498
 1865 0078 19FA85F5 		uxtah	r5, r9, r5
 1866 007c ADB2     		uxth	r5, r5
 338:lvgl/src/lv_widgets/lv_tabview.c ****             break;
 1867              		.loc 1 338 20 view .LVU499
 1868 007e 6D42     		rsbs	r5, r5, #0
 1869 0080 2DB2     		sxth	r5, r5
 1870              	.LVL247:
 339:lvgl/src/lv_widgets/lv_tabview.c ****         case LV_TABVIEW_TAB_POS_LEFT:
 1871              		.loc 1 339 13 is_stmt 1 view .LVU500
 1872              	.L111:
 346:lvgl/src/lv_widgets/lv_tabview.c ****         lv_obj_set_x(lv_page_get_scrollable(ext->content), cont_x);
 1873              		.loc 1 346 5 view .LVU501
 346:lvgl/src/lv_widgets/lv_tabview.c ****         lv_obj_set_x(lv_page_get_scrollable(ext->content), cont_x);
 1874              		.loc 1 346 7 is_stmt 0 view .LVU502
 1875 0082 B8F1000F 		cmp	r8, #0
 1876 0086 03D0     		beq	.L112
 346:lvgl/src/lv_widgets/lv_tabview.c ****         lv_obj_set_x(lv_page_get_scrollable(ext->content), cont_x);
 1877              		.loc 1 346 31 discriminator 1 view .LVU503
 1878 0088 3046     		mov	r0, r6
 1879 008a FFF7FEFF 		bl	lv_tabview_get_anim_time
 1880              	.LVL248:
 346:lvgl/src/lv_widgets/lv_tabview.c ****         lv_obj_set_x(lv_page_get_scrollable(ext->content), cont_x);
 1881              		.loc 1 346 28 discriminator 1 view .LVU504
 1882 008e 30BB     		cbnz	r0, .L113
 1883              	.L112:
 347:lvgl/src/lv_widgets/lv_tabview.c ****     }
 1884              		.loc 1 347 9 is_stmt 1 view .LVU505
 1885 0090 A068     		ldr	r0, [r4, #8]
 1886 0092 FFF7FEFF 		bl	lv_page_get_scrollable
 1887              	.LVL249:
 1888 0096 2946     		mov	r1, r5
 1889 0098 FFF7FEFF 		bl	lv_obj_set_x
 1890              	.LVL250:
ARM GAS  D:\Temp\ccnA29ZW.s 			page 65


 1891              	.L114:
 362:lvgl/src/lv_widgets/lv_tabview.c ****     lv_coord_t indic_pos = 0; /*silence uninitialized variable warning*/;
 1892              		.loc 1 362 5 view .LVU506
 363:lvgl/src/lv_widgets/lv_tabview.c **** 
 1893              		.loc 1 363 5 view .LVU507
 363:lvgl/src/lv_widgets/lv_tabview.c **** 
 1894              		.loc 1 363 73 view .LVU508
 365:lvgl/src/lv_widgets/lv_tabview.c ****     lv_style_int_t btns_bg_left = 0;
 1895              		.loc 1 365 5 view .LVU509
 366:lvgl/src/lv_widgets/lv_tabview.c ****     lv_style_int_t btns_bg_top = 0;
 1896              		.loc 1 366 5 view .LVU510
 367:lvgl/src/lv_widgets/lv_tabview.c **** 
 1897              		.loc 1 367 5 view .LVU511
 369:lvgl/src/lv_widgets/lv_tabview.c ****         default: /*default case is prevented in lv_tabview_set_btns_pos(), but here for safety*/
 1898              		.loc 1 369 5 view .LVU512
 369:lvgl/src/lv_widgets/lv_tabview.c ****         default: /*default case is prevented in lv_tabview_set_btns_pos(), but here for safety*/
 1899              		.loc 1 369 15 is_stmt 0 view .LVU513
 1900 009c A37E     		ldrb	r3, [r4, #26]	@ zero_extendqisi2
 1901 009e 03F00703 		and	r3, r3, #7
 369:lvgl/src/lv_widgets/lv_tabview.c ****         default: /*default case is prevented in lv_tabview_set_btns_pos(), but here for safety*/
 1902              		.loc 1 369 5 view .LVU514
 1903 00a2 013B     		subs	r3, r3, #1
 1904 00a4 032B     		cmp	r3, #3
 1905 00a6 69D8     		bhi	.L129
 1906 00a8 DFE803F0 		tbb	[pc, r3]
 1907              	.L117:
 1908 00ac 30       		.byte	(.L118-.L117)/2
 1909 00ad 30       		.byte	(.L118-.L117)/2
 1910 00ae 54       		.byte	(.L116-.L117)/2
 1911 00af 54       		.byte	(.L116-.L117)/2
 1912              	.LVL251:
 1913              		.p2align 1
 1914              	.L131:
 326:lvgl/src/lv_widgets/lv_tabview.c ****     }
 1915              		.loc 1 326 9 is_stmt 1 view .LVU515
 326:lvgl/src/lv_widgets/lv_tabview.c ****     }
 1916              		.loc 1 326 18 is_stmt 0 view .LVU516
 1917 00b0 E38A     		ldrh	r3, [r4, #22]
 326:lvgl/src/lv_widgets/lv_tabview.c ****     }
 1918              		.loc 1 326 28 view .LVU517
 1919 00b2 DF1B     		subs	r7, r3, r7
 1920              	.LVL252:
 326:lvgl/src/lv_widgets/lv_tabview.c ****     }
 1921              		.loc 1 326 28 view .LVU518
 1922 00b4 BFB2     		uxth	r7, r7
 326:lvgl/src/lv_widgets/lv_tabview.c ****     }
 1923              		.loc 1 326 12 view .LVU519
 1924 00b6 013F     		subs	r7, r7, #1
 1925 00b8 BFB2     		uxth	r7, r7
 1926              	.LVL253:
 326:lvgl/src/lv_widgets/lv_tabview.c ****     }
 1927              		.loc 1 326 12 view .LVU520
 1928 00ba C4E7     		b	.L109
 1929              	.LVL254:
 1930              	.L110:
 342:lvgl/src/lv_widgets/lv_tabview.c ****             break;
 1931              		.loc 1 342 13 is_stmt 1 view .LVU521
ARM GAS  D:\Temp\ccnA29ZW.s 			page 66


 342:lvgl/src/lv_widgets/lv_tabview.c ****             break;
 1932              		.loc 1 342 25 is_stmt 0 view .LVU522
 1933 00bc 3046     		mov	r0, r6
 1934 00be FFF7FEFF 		bl	lv_obj_get_width
 1935              	.LVL255:
 1936 00c2 0546     		mov	r5, r0
 342:lvgl/src/lv_widgets/lv_tabview.c ****             break;
 1937              		.loc 1 342 53 view .LVU523
 1938 00c4 2068     		ldr	r0, [r4]
 1939 00c6 FFF7FEFF 		bl	lv_obj_get_width
 1940              	.LVL256:
 342:lvgl/src/lv_widgets/lv_tabview.c ****             break;
 1941              		.loc 1 342 51 view .LVU524
 1942 00ca 2D1A     		subs	r5, r5, r0
 342:lvgl/src/lv_widgets/lv_tabview.c ****             break;
 1943              		.loc 1 342 87 view .LVU525
 1944 00cc 5544     		add	r5, r5, r10
 1945 00ce 15FB07F5 		smulbb	r5, r5, r7
 342:lvgl/src/lv_widgets/lv_tabview.c ****             break;
 1946              		.loc 1 342 105 view .LVU526
 1947 00d2 19FA85F5 		uxtah	r5, r9, r5
 1948 00d6 ADB2     		uxth	r5, r5
 342:lvgl/src/lv_widgets/lv_tabview.c ****             break;
 1949              		.loc 1 342 20 view .LVU527
 1950 00d8 6D42     		rsbs	r5, r5, #0
 1951 00da 2DB2     		sxth	r5, r5
 1952              	.LVL257:
 343:lvgl/src/lv_widgets/lv_tabview.c ****     }
 1953              		.loc 1 343 13 is_stmt 1 view .LVU528
 1954 00dc D1E7     		b	.L111
 1955              	.L113:
 1956              	.LBB120:
 351:lvgl/src/lv_widgets/lv_tabview.c ****         lv_anim_init(&a);
 1957              		.loc 1 351 9 view .LVU529
 352:lvgl/src/lv_widgets/lv_tabview.c ****         lv_anim_set_var(&a, lv_page_get_scrollable(ext->content));
 1958              		.loc 1 352 9 view .LVU530
 1959 00de 01A8     		add	r0, sp, #4
 1960 00e0 FFF7FEFF 		bl	lv_anim_init
 1961              	.LVL258:
 353:lvgl/src/lv_widgets/lv_tabview.c ****         lv_anim_set_exec_cb(&a, (lv_anim_exec_xcb_t)lv_obj_set_x);
 1962              		.loc 1 353 9 view .LVU531
 353:lvgl/src/lv_widgets/lv_tabview.c ****         lv_anim_set_exec_cb(&a, (lv_anim_exec_xcb_t)lv_obj_set_x);
 1963              		.loc 1 353 29 is_stmt 0 view .LVU532
 1964 00e4 A068     		ldr	r0, [r4, #8]
 1965 00e6 FFF7FEFF 		bl	lv_page_get_scrollable
 1966              	.LVL259:
 1967              	.LBB121:
 1968              	.LBI121:
 1969              		.file 5 "lvgl/src/lv_widgets/../lv_core/../lv_misc/lv_anim.h"
   1:lvgl/src/lv_widgets/../lv_core/../lv_misc/lv_anim.h **** /**
   2:lvgl/src/lv_widgets/../lv_core/../lv_misc/lv_anim.h ****  * @file anim.h
   3:lvgl/src/lv_widgets/../lv_core/../lv_misc/lv_anim.h ****  *
   4:lvgl/src/lv_widgets/../lv_core/../lv_misc/lv_anim.h ****  */
   5:lvgl/src/lv_widgets/../lv_core/../lv_misc/lv_anim.h **** 
   6:lvgl/src/lv_widgets/../lv_core/../lv_misc/lv_anim.h **** #ifndef ANIM_H
   7:lvgl/src/lv_widgets/../lv_core/../lv_misc/lv_anim.h **** #define ANIM_H
   8:lvgl/src/lv_widgets/../lv_core/../lv_misc/lv_anim.h **** 
ARM GAS  D:\Temp\ccnA29ZW.s 			page 67


   9:lvgl/src/lv_widgets/../lv_core/../lv_misc/lv_anim.h **** #ifdef __cplusplus
  10:lvgl/src/lv_widgets/../lv_core/../lv_misc/lv_anim.h **** extern "C" {
  11:lvgl/src/lv_widgets/../lv_core/../lv_misc/lv_anim.h **** #endif
  12:lvgl/src/lv_widgets/../lv_core/../lv_misc/lv_anim.h **** 
  13:lvgl/src/lv_widgets/../lv_core/../lv_misc/lv_anim.h **** /*********************
  14:lvgl/src/lv_widgets/../lv_core/../lv_misc/lv_anim.h ****  *      INCLUDES
  15:lvgl/src/lv_widgets/../lv_core/../lv_misc/lv_anim.h ****  *********************/
  16:lvgl/src/lv_widgets/../lv_core/../lv_misc/lv_anim.h **** #include "../lv_conf_internal.h"
  17:lvgl/src/lv_widgets/../lv_core/../lv_misc/lv_anim.h **** 
  18:lvgl/src/lv_widgets/../lv_core/../lv_misc/lv_anim.h **** #include <stdint.h>
  19:lvgl/src/lv_widgets/../lv_core/../lv_misc/lv_anim.h **** #include <stdbool.h>
  20:lvgl/src/lv_widgets/../lv_core/../lv_misc/lv_anim.h **** #include <string.h>
  21:lvgl/src/lv_widgets/../lv_core/../lv_misc/lv_anim.h **** #include "lv_mem.h"
  22:lvgl/src/lv_widgets/../lv_core/../lv_misc/lv_anim.h **** 
  23:lvgl/src/lv_widgets/../lv_core/../lv_misc/lv_anim.h **** /*********************
  24:lvgl/src/lv_widgets/../lv_core/../lv_misc/lv_anim.h ****  *      DEFINES
  25:lvgl/src/lv_widgets/../lv_core/../lv_misc/lv_anim.h ****  *********************/
  26:lvgl/src/lv_widgets/../lv_core/../lv_misc/lv_anim.h **** 
  27:lvgl/src/lv_widgets/../lv_core/../lv_misc/lv_anim.h **** /**********************
  28:lvgl/src/lv_widgets/../lv_core/../lv_misc/lv_anim.h ****  *      TYPEDEFS
  29:lvgl/src/lv_widgets/../lv_core/../lv_misc/lv_anim.h ****  **********************/
  30:lvgl/src/lv_widgets/../lv_core/../lv_misc/lv_anim.h **** 
  31:lvgl/src/lv_widgets/../lv_core/../lv_misc/lv_anim.h **** /** Can be used to indicate if animations are enabled or disabled in a case*/
  32:lvgl/src/lv_widgets/../lv_core/../lv_misc/lv_anim.h **** enum {
  33:lvgl/src/lv_widgets/../lv_core/../lv_misc/lv_anim.h ****     LV_ANIM_OFF,
  34:lvgl/src/lv_widgets/../lv_core/../lv_misc/lv_anim.h ****     LV_ANIM_ON,
  35:lvgl/src/lv_widgets/../lv_core/../lv_misc/lv_anim.h **** };
  36:lvgl/src/lv_widgets/../lv_core/../lv_misc/lv_anim.h **** 
  37:lvgl/src/lv_widgets/../lv_core/../lv_misc/lv_anim.h **** typedef uint8_t lv_anim_enable_t;
  38:lvgl/src/lv_widgets/../lv_core/../lv_misc/lv_anim.h **** 
  39:lvgl/src/lv_widgets/../lv_core/../lv_misc/lv_anim.h **** /** Type of the animated value*/
  40:lvgl/src/lv_widgets/../lv_core/../lv_misc/lv_anim.h **** typedef lv_coord_t lv_anim_value_t;
  41:lvgl/src/lv_widgets/../lv_core/../lv_misc/lv_anim.h **** 
  42:lvgl/src/lv_widgets/../lv_core/../lv_misc/lv_anim.h **** #if LV_USE_ANIMATION
  43:lvgl/src/lv_widgets/../lv_core/../lv_misc/lv_anim.h **** 
  44:lvgl/src/lv_widgets/../lv_core/../lv_misc/lv_anim.h **** #define LV_ANIM_REPEAT_INFINITE      0xFFFF
  45:lvgl/src/lv_widgets/../lv_core/../lv_misc/lv_anim.h **** 
  46:lvgl/src/lv_widgets/../lv_core/../lv_misc/lv_anim.h **** struct _lv_anim_t;
  47:lvgl/src/lv_widgets/../lv_core/../lv_misc/lv_anim.h **** struct _lv_anim_path_t;
  48:lvgl/src/lv_widgets/../lv_core/../lv_misc/lv_anim.h **** /** Get the current value during an animation*/
  49:lvgl/src/lv_widgets/../lv_core/../lv_misc/lv_anim.h **** typedef lv_anim_value_t (*lv_anim_path_cb_t)(const struct _lv_anim_path_t *, const struct _lv_anim_
  50:lvgl/src/lv_widgets/../lv_core/../lv_misc/lv_anim.h **** 
  51:lvgl/src/lv_widgets/../lv_core/../lv_misc/lv_anim.h **** typedef struct _lv_anim_path_t {
  52:lvgl/src/lv_widgets/../lv_core/../lv_misc/lv_anim.h ****     lv_anim_path_cb_t cb;
  53:lvgl/src/lv_widgets/../lv_core/../lv_misc/lv_anim.h ****     void * user_data;
  54:lvgl/src/lv_widgets/../lv_core/../lv_misc/lv_anim.h **** } lv_anim_path_t;
  55:lvgl/src/lv_widgets/../lv_core/../lv_misc/lv_anim.h **** 
  56:lvgl/src/lv_widgets/../lv_core/../lv_misc/lv_anim.h **** /** Generic prototype of "animator" functions.
  57:lvgl/src/lv_widgets/../lv_core/../lv_misc/lv_anim.h ****  * First parameter is the variable to animate.
  58:lvgl/src/lv_widgets/../lv_core/../lv_misc/lv_anim.h ****  * Second parameter is the value to set.
  59:lvgl/src/lv_widgets/../lv_core/../lv_misc/lv_anim.h ****  * Compatible with `lv_xxx_set_yyy(obj, value)` functions
  60:lvgl/src/lv_widgets/../lv_core/../lv_misc/lv_anim.h ****  * The `x` in `_xcb_t` means its not a fully generic prototype because
  61:lvgl/src/lv_widgets/../lv_core/../lv_misc/lv_anim.h ****  * it doesn't receive `lv_anim_t *` as its first argument*/
  62:lvgl/src/lv_widgets/../lv_core/../lv_misc/lv_anim.h **** typedef void (*lv_anim_exec_xcb_t)(void *, lv_anim_value_t);
  63:lvgl/src/lv_widgets/../lv_core/../lv_misc/lv_anim.h **** 
  64:lvgl/src/lv_widgets/../lv_core/../lv_misc/lv_anim.h **** /** Same as `lv_anim_exec_xcb_t` but receives `lv_anim_t *` as the first parameter.
  65:lvgl/src/lv_widgets/../lv_core/../lv_misc/lv_anim.h ****  * It's more consistent but less convenient. Might be used by binding generator functions.*/
ARM GAS  D:\Temp\ccnA29ZW.s 			page 68


  66:lvgl/src/lv_widgets/../lv_core/../lv_misc/lv_anim.h **** typedef void (*lv_anim_custom_exec_cb_t)(struct _lv_anim_t *, lv_anim_value_t);
  67:lvgl/src/lv_widgets/../lv_core/../lv_misc/lv_anim.h **** 
  68:lvgl/src/lv_widgets/../lv_core/../lv_misc/lv_anim.h **** /** Callback to call when the animation is ready*/
  69:lvgl/src/lv_widgets/../lv_core/../lv_misc/lv_anim.h **** typedef void (*lv_anim_ready_cb_t)(struct _lv_anim_t *);
  70:lvgl/src/lv_widgets/../lv_core/../lv_misc/lv_anim.h **** 
  71:lvgl/src/lv_widgets/../lv_core/../lv_misc/lv_anim.h **** /** Callback to call when the animation really stars (considering `delay`)*/
  72:lvgl/src/lv_widgets/../lv_core/../lv_misc/lv_anim.h **** typedef void (*lv_anim_start_cb_t)(struct _lv_anim_t *);
  73:lvgl/src/lv_widgets/../lv_core/../lv_misc/lv_anim.h **** 
  74:lvgl/src/lv_widgets/../lv_core/../lv_misc/lv_anim.h **** /** Describes an animation*/
  75:lvgl/src/lv_widgets/../lv_core/../lv_misc/lv_anim.h **** typedef struct _lv_anim_t {
  76:lvgl/src/lv_widgets/../lv_core/../lv_misc/lv_anim.h ****     void * var;                  /**<Variable to animate*/
  77:lvgl/src/lv_widgets/../lv_core/../lv_misc/lv_anim.h ****     lv_anim_exec_xcb_t exec_cb;   /**< Function to execute to animate*/
  78:lvgl/src/lv_widgets/../lv_core/../lv_misc/lv_anim.h ****     lv_anim_start_cb_t start_cb; /**< Call it when the animation is starts (considering `delay`)*/
  79:lvgl/src/lv_widgets/../lv_core/../lv_misc/lv_anim.h ****     lv_anim_ready_cb_t ready_cb; /**< Call it when the animation is ready*/
  80:lvgl/src/lv_widgets/../lv_core/../lv_misc/lv_anim.h ****     lv_anim_path_t path;         /**< Describe the path (curve) of animations*/
  81:lvgl/src/lv_widgets/../lv_core/../lv_misc/lv_anim.h ****     int32_t start;               /**< Start value*/
  82:lvgl/src/lv_widgets/../lv_core/../lv_misc/lv_anim.h ****     int32_t current;             /**< Current value */
  83:lvgl/src/lv_widgets/../lv_core/../lv_misc/lv_anim.h ****     int32_t end;                 /**< End value*/
  84:lvgl/src/lv_widgets/../lv_core/../lv_misc/lv_anim.h ****     int32_t time;               /**< Animation time in ms*/
  85:lvgl/src/lv_widgets/../lv_core/../lv_misc/lv_anim.h ****     int32_t act_time;            /**< Current time in animation. Set to negative to make delay.*/
  86:lvgl/src/lv_widgets/../lv_core/../lv_misc/lv_anim.h ****     uint32_t playback_delay;     /**< Wait before play back*/
  87:lvgl/src/lv_widgets/../lv_core/../lv_misc/lv_anim.h ****     uint32_t playback_time;      /**< Duration of playback animation*/
  88:lvgl/src/lv_widgets/../lv_core/../lv_misc/lv_anim.h ****     uint32_t repeat_delay;       /**< Wait before repeat*/
  89:lvgl/src/lv_widgets/../lv_core/../lv_misc/lv_anim.h ****     uint16_t repeat_cnt;         /**< Repeat count for the animation*/
  90:lvgl/src/lv_widgets/../lv_core/../lv_misc/lv_anim.h ****     uint8_t early_apply  : 1;    /**< 1: Apply start value immediately even is there is `delay` */
  91:lvgl/src/lv_widgets/../lv_core/../lv_misc/lv_anim.h **** #if LV_USE_USER_DATA
  92:lvgl/src/lv_widgets/../lv_core/../lv_misc/lv_anim.h ****     lv_anim_user_data_t user_data; /**< Custom user data*/
  93:lvgl/src/lv_widgets/../lv_core/../lv_misc/lv_anim.h **** #endif
  94:lvgl/src/lv_widgets/../lv_core/../lv_misc/lv_anim.h **** 
  95:lvgl/src/lv_widgets/../lv_core/../lv_misc/lv_anim.h ****     /*Animation system use these - user shouldn't set*/
  96:lvgl/src/lv_widgets/../lv_core/../lv_misc/lv_anim.h ****     uint32_t time_orig;
  97:lvgl/src/lv_widgets/../lv_core/../lv_misc/lv_anim.h ****     uint8_t playback_now : 1; /**< Play back is in progress*/
  98:lvgl/src/lv_widgets/../lv_core/../lv_misc/lv_anim.h ****     uint32_t has_run : 1;     /**< Indicates the animation has run in this round*/
  99:lvgl/src/lv_widgets/../lv_core/../lv_misc/lv_anim.h **** } lv_anim_t;
 100:lvgl/src/lv_widgets/../lv_core/../lv_misc/lv_anim.h **** 
 101:lvgl/src/lv_widgets/../lv_core/../lv_misc/lv_anim.h **** /**********************
 102:lvgl/src/lv_widgets/../lv_core/../lv_misc/lv_anim.h ****  * GLOBAL PROTOTYPES
 103:lvgl/src/lv_widgets/../lv_core/../lv_misc/lv_anim.h ****  **********************/
 104:lvgl/src/lv_widgets/../lv_core/../lv_misc/lv_anim.h **** 
 105:lvgl/src/lv_widgets/../lv_core/../lv_misc/lv_anim.h **** /**
 106:lvgl/src/lv_widgets/../lv_core/../lv_misc/lv_anim.h ****  * Init. the animation module
 107:lvgl/src/lv_widgets/../lv_core/../lv_misc/lv_anim.h ****  */
 108:lvgl/src/lv_widgets/../lv_core/../lv_misc/lv_anim.h **** void _lv_anim_core_init(void);
 109:lvgl/src/lv_widgets/../lv_core/../lv_misc/lv_anim.h **** 
 110:lvgl/src/lv_widgets/../lv_core/../lv_misc/lv_anim.h **** /**
 111:lvgl/src/lv_widgets/../lv_core/../lv_misc/lv_anim.h ****  * Initialize an animation variable.
 112:lvgl/src/lv_widgets/../lv_core/../lv_misc/lv_anim.h ****  * E.g.:
 113:lvgl/src/lv_widgets/../lv_core/../lv_misc/lv_anim.h ****  * lv_anim_t a;
 114:lvgl/src/lv_widgets/../lv_core/../lv_misc/lv_anim.h ****  * lv_anim_init(&a);
 115:lvgl/src/lv_widgets/../lv_core/../lv_misc/lv_anim.h ****  * lv_anim_set_...(&a);
 116:lvgl/src/lv_widgets/../lv_core/../lv_misc/lv_anim.h ****  * @param a pointer to an `lv_anim_t` variable to initialize
 117:lvgl/src/lv_widgets/../lv_core/../lv_misc/lv_anim.h ****  */
 118:lvgl/src/lv_widgets/../lv_core/../lv_misc/lv_anim.h **** void lv_anim_init(lv_anim_t * a);
 119:lvgl/src/lv_widgets/../lv_core/../lv_misc/lv_anim.h **** 
 120:lvgl/src/lv_widgets/../lv_core/../lv_misc/lv_anim.h **** /**
 121:lvgl/src/lv_widgets/../lv_core/../lv_misc/lv_anim.h ****  * Set a variable to animate
 122:lvgl/src/lv_widgets/../lv_core/../lv_misc/lv_anim.h ****  * @param a pointer to an initialized `lv_anim_t` variable
ARM GAS  D:\Temp\ccnA29ZW.s 			page 69


 123:lvgl/src/lv_widgets/../lv_core/../lv_misc/lv_anim.h ****  * @param var pointer to a variable to animate
 124:lvgl/src/lv_widgets/../lv_core/../lv_misc/lv_anim.h ****  */
 125:lvgl/src/lv_widgets/../lv_core/../lv_misc/lv_anim.h **** static inline void lv_anim_set_var(lv_anim_t * a, void * var)
 1970              		.loc 5 125 20 is_stmt 1 view .LVU533
 1971              	.LBB122:
 126:lvgl/src/lv_widgets/../lv_core/../lv_misc/lv_anim.h **** {
 127:lvgl/src/lv_widgets/../lv_core/../lv_misc/lv_anim.h ****     a->var     = var;
 1972              		.loc 5 127 5 view .LVU534
 1973              		.loc 5 127 16 is_stmt 0 view .LVU535
 1974 00ea 0190     		str	r0, [sp, #4]
 1975              	.LVL260:
 1976              		.loc 5 127 16 view .LVU536
 1977              	.LBE122:
 1978              	.LBE121:
 354:lvgl/src/lv_widgets/lv_tabview.c ****         lv_anim_set_values(&a, lv_obj_get_x(lv_page_get_scrollable(ext->content)), cont_x);
 1979              		.loc 1 354 9 is_stmt 1 view .LVU537
 1980              	.LBB123:
 1981              	.LBI123:
 128:lvgl/src/lv_widgets/../lv_core/../lv_misc/lv_anim.h **** }
 129:lvgl/src/lv_widgets/../lv_core/../lv_misc/lv_anim.h **** 
 130:lvgl/src/lv_widgets/../lv_core/../lv_misc/lv_anim.h **** /**
 131:lvgl/src/lv_widgets/../lv_core/../lv_misc/lv_anim.h ****  * Set a function to animate `var`
 132:lvgl/src/lv_widgets/../lv_core/../lv_misc/lv_anim.h ****  * @param a pointer to an initialized `lv_anim_t` variable
 133:lvgl/src/lv_widgets/../lv_core/../lv_misc/lv_anim.h ****  * @param exec_cb a function to execute during animation
 134:lvgl/src/lv_widgets/../lv_core/../lv_misc/lv_anim.h ****  *                LittelvGL's built-in functions can be used.
 135:lvgl/src/lv_widgets/../lv_core/../lv_misc/lv_anim.h ****  *                E.g. lv_obj_set_x
 136:lvgl/src/lv_widgets/../lv_core/../lv_misc/lv_anim.h ****  */
 137:lvgl/src/lv_widgets/../lv_core/../lv_misc/lv_anim.h **** static inline void lv_anim_set_exec_cb(lv_anim_t * a, lv_anim_exec_xcb_t exec_cb)
 1982              		.loc 5 137 20 view .LVU538
 1983              	.LBB124:
 138:lvgl/src/lv_widgets/../lv_core/../lv_misc/lv_anim.h **** {
 139:lvgl/src/lv_widgets/../lv_core/../lv_misc/lv_anim.h ****     a->exec_cb = exec_cb;
 1984              		.loc 5 139 5 view .LVU539
 1985              		.loc 5 139 16 is_stmt 0 view .LVU540
 1986 00ec 414B     		ldr	r3, .L132+4
 1987 00ee 0293     		str	r3, [sp, #8]
 1988              	.LVL261:
 1989              		.loc 5 139 16 view .LVU541
 1990              	.LBE124:
 1991              	.LBE123:
 355:lvgl/src/lv_widgets/lv_tabview.c ****         lv_anim_set_time(&a, ext->anim_time);
 1992              		.loc 1 355 9 is_stmt 1 view .LVU542
 355:lvgl/src/lv_widgets/lv_tabview.c ****         lv_anim_set_time(&a, ext->anim_time);
 1993              		.loc 1 355 45 is_stmt 0 view .LVU543
 1994 00f0 A068     		ldr	r0, [r4, #8]
 1995 00f2 FFF7FEFF 		bl	lv_page_get_scrollable
 1996              	.LVL262:
 355:lvgl/src/lv_widgets/lv_tabview.c ****         lv_anim_set_time(&a, ext->anim_time);
 1997              		.loc 1 355 9 view .LVU544
 1998 00f6 FFF7FEFF 		bl	lv_obj_get_x
 1999              	.LVL263:
 2000              	.LBB125:
 2001              	.LBI125:
 140:lvgl/src/lv_widgets/../lv_core/../lv_misc/lv_anim.h **** }
 141:lvgl/src/lv_widgets/../lv_core/../lv_misc/lv_anim.h **** 
 142:lvgl/src/lv_widgets/../lv_core/../lv_misc/lv_anim.h **** /**
 143:lvgl/src/lv_widgets/../lv_core/../lv_misc/lv_anim.h ****  * Set the duration of an animation
ARM GAS  D:\Temp\ccnA29ZW.s 			page 70


 144:lvgl/src/lv_widgets/../lv_core/../lv_misc/lv_anim.h ****  * @param a pointer to an initialized `lv_anim_t` variable
 145:lvgl/src/lv_widgets/../lv_core/../lv_misc/lv_anim.h ****  * @param duration duration of the animation in milliseconds
 146:lvgl/src/lv_widgets/../lv_core/../lv_misc/lv_anim.h ****  */
 147:lvgl/src/lv_widgets/../lv_core/../lv_misc/lv_anim.h **** static inline void lv_anim_set_time(lv_anim_t * a, uint32_t duration)
 148:lvgl/src/lv_widgets/../lv_core/../lv_misc/lv_anim.h **** {
 149:lvgl/src/lv_widgets/../lv_core/../lv_misc/lv_anim.h ****     a->time     = duration;
 150:lvgl/src/lv_widgets/../lv_core/../lv_misc/lv_anim.h **** }
 151:lvgl/src/lv_widgets/../lv_core/../lv_misc/lv_anim.h **** 
 152:lvgl/src/lv_widgets/../lv_core/../lv_misc/lv_anim.h **** /**
 153:lvgl/src/lv_widgets/../lv_core/../lv_misc/lv_anim.h ****  * Set a delay before starting the animation
 154:lvgl/src/lv_widgets/../lv_core/../lv_misc/lv_anim.h ****  * @param a pointer to an initialized `lv_anim_t` variable
 155:lvgl/src/lv_widgets/../lv_core/../lv_misc/lv_anim.h ****  * @param delay delay before the animation in milliseconds
 156:lvgl/src/lv_widgets/../lv_core/../lv_misc/lv_anim.h ****  */
 157:lvgl/src/lv_widgets/../lv_core/../lv_misc/lv_anim.h **** static inline void lv_anim_set_delay(lv_anim_t * a, uint32_t delay)
 158:lvgl/src/lv_widgets/../lv_core/../lv_misc/lv_anim.h **** {
 159:lvgl/src/lv_widgets/../lv_core/../lv_misc/lv_anim.h ****     a->act_time = -(int32_t)(delay);
 160:lvgl/src/lv_widgets/../lv_core/../lv_misc/lv_anim.h **** }
 161:lvgl/src/lv_widgets/../lv_core/../lv_misc/lv_anim.h **** 
 162:lvgl/src/lv_widgets/../lv_core/../lv_misc/lv_anim.h **** /**
 163:lvgl/src/lv_widgets/../lv_core/../lv_misc/lv_anim.h ****  * Set the start and end values of an animation
 164:lvgl/src/lv_widgets/../lv_core/../lv_misc/lv_anim.h ****  * @param a pointer to an initialized `lv_anim_t` variable
 165:lvgl/src/lv_widgets/../lv_core/../lv_misc/lv_anim.h ****  * @param start the start value
 166:lvgl/src/lv_widgets/../lv_core/../lv_misc/lv_anim.h ****  * @param end the end value
 167:lvgl/src/lv_widgets/../lv_core/../lv_misc/lv_anim.h ****  */
 168:lvgl/src/lv_widgets/../lv_core/../lv_misc/lv_anim.h **** static inline void lv_anim_set_values(lv_anim_t * a, lv_anim_value_t start, lv_anim_value_t end)
 2002              		.loc 5 168 20 is_stmt 1 view .LVU545
 2003              	.LBB126:
 169:lvgl/src/lv_widgets/../lv_core/../lv_misc/lv_anim.h **** {
 170:lvgl/src/lv_widgets/../lv_core/../lv_misc/lv_anim.h ****     a->start = start;
 2004              		.loc 5 170 5 view .LVU546
 2005              		.loc 5 170 14 is_stmt 0 view .LVU547
 2006 00fa 0790     		str	r0, [sp, #28]
 171:lvgl/src/lv_widgets/../lv_core/../lv_misc/lv_anim.h ****     a->current = start;
 2007              		.loc 5 171 5 is_stmt 1 view .LVU548
 2008              		.loc 5 171 16 is_stmt 0 view .LVU549
 2009 00fc 0890     		str	r0, [sp, #32]
 172:lvgl/src/lv_widgets/../lv_core/../lv_misc/lv_anim.h ****     a->end   = end;
 2010              		.loc 5 172 5 is_stmt 1 view .LVU550
 2011              		.loc 5 172 14 is_stmt 0 view .LVU551
 2012 00fe 0995     		str	r5, [sp, #36]
 2013              	.LVL264:
 2014              		.loc 5 172 14 view .LVU552
 2015              	.LBE126:
 2016              	.LBE125:
 356:lvgl/src/lv_widgets/lv_tabview.c ****         lv_anim_start(&a);
 2017              		.loc 1 356 9 is_stmt 1 view .LVU553
 356:lvgl/src/lv_widgets/lv_tabview.c ****         lv_anim_start(&a);
 2018              		.loc 1 356 33 is_stmt 0 view .LVU554
 2019 0100 238B     		ldrh	r3, [r4, #24]
 2020              	.LVL265:
 2021              	.LBB127:
 2022              	.LBI127:
 147:lvgl/src/lv_widgets/../lv_core/../lv_misc/lv_anim.h **** {
 2023              		.loc 5 147 20 is_stmt 1 view .LVU555
 2024              	.LBB128:
 149:lvgl/src/lv_widgets/../lv_core/../lv_misc/lv_anim.h **** }
 2025              		.loc 5 149 5 view .LVU556
ARM GAS  D:\Temp\ccnA29ZW.s 			page 71


 149:lvgl/src/lv_widgets/../lv_core/../lv_misc/lv_anim.h **** }
 2026              		.loc 5 149 17 is_stmt 0 view .LVU557
 2027 0102 0A93     		str	r3, [sp, #40]
 2028              	.LVL266:
 149:lvgl/src/lv_widgets/../lv_core/../lv_misc/lv_anim.h **** }
 2029              		.loc 5 149 17 view .LVU558
 2030              	.LBE128:
 2031              	.LBE127:
 357:lvgl/src/lv_widgets/lv_tabview.c ****     }
 2032              		.loc 1 357 9 is_stmt 1 view .LVU559
 2033 0104 01A8     		add	r0, sp, #4
 2034 0106 FFF7FEFF 		bl	lv_anim_start
 2035              	.LVL267:
 2036 010a C7E7     		b	.L114
 2037              	.LVL268:
 2038              	.L118:
 357:lvgl/src/lv_widgets/lv_tabview.c ****     }
 2039              		.loc 1 357 9 is_stmt 0 view .LVU560
 2040              	.LBE120:
 375:lvgl/src/lv_widgets/lv_tabview.c ****             btns_bg_left = lv_obj_get_style_pad_left(tabview, LV_TABVIEW_PART_TAB_BG);
 2041              		.loc 1 375 13 is_stmt 1 view .LVU561
 2042              	.LBB129:
 2043              	.LBI129:
 114:lvgl/src/lv_widgets/../lv_core/lv_obj_style_dec.h **** _LV_OBJ_STYLE_SET_GET_DECLARE(MARGIN_TOP, margin_top, lv_style_int_t, _int, scalar)
 2044              		.loc 2 114 1 view .LVU562
 2045              	.LBB130:
 114:lvgl/src/lv_widgets/../lv_core/lv_obj_style_dec.h **** _LV_OBJ_STYLE_SET_GET_DECLARE(MARGIN_TOP, margin_top, lv_style_int_t, _int, scalar)
 2046              		.loc 2 114 1 view .LVU563
 2047 010c 1422     		movs	r2, #20
 2048 010e 4121     		movs	r1, #65
 2049 0110 3046     		mov	r0, r6
 2050 0112 FFF7FEFF 		bl	_lv_obj_get_style_int
 2051              	.LVL269:
 2052 0116 0546     		mov	r5, r0
 2053              	.LVL270:
 114:lvgl/src/lv_widgets/../lv_core/lv_obj_style_dec.h **** _LV_OBJ_STYLE_SET_GET_DECLARE(MARGIN_TOP, margin_top, lv_style_int_t, _int, scalar)
 2054              		.loc 2 114 1 is_stmt 0 view .LVU564
 2055              	.LBE130:
 2056              	.LBE129:
 376:lvgl/src/lv_widgets/lv_tabview.c ****             indic_size = lv_obj_get_width(ext->indic);
 2057              		.loc 1 376 13 is_stmt 1 view .LVU565
 2058              	.LBB131:
 2059              	.LBI131:
 112:lvgl/src/lv_widgets/../lv_core/lv_obj_style_dec.h **** _LV_OBJ_STYLE_SET_GET_DECLARE(PAD_RIGHT, pad_right, lv_style_int_t, _int, scalar)
 2060              		.loc 2 112 1 view .LVU566
 2061              	.LBB132:
 112:lvgl/src/lv_widgets/../lv_core/lv_obj_style_dec.h **** _LV_OBJ_STYLE_SET_GET_DECLARE(PAD_RIGHT, pad_right, lv_style_int_t, _int, scalar)
 2062              		.loc 2 112 1 view .LVU567
 2063 0118 1222     		movs	r2, #18
 2064 011a 4121     		movs	r1, #65
 2065 011c 3046     		mov	r0, r6
 2066 011e FFF7FEFF 		bl	_lv_obj_get_style_int
 2067              	.LVL271:
 2068 0122 0646     		mov	r6, r0
 2069              	.LVL272:
 112:lvgl/src/lv_widgets/../lv_core/lv_obj_style_dec.h **** _LV_OBJ_STYLE_SET_GET_DECLARE(PAD_RIGHT, pad_right, lv_style_int_t, _int, scalar)
 2070              		.loc 2 112 1 is_stmt 0 view .LVU568
ARM GAS  D:\Temp\ccnA29ZW.s 			page 72


 2071              	.LBE132:
 2072              	.LBE131:
 377:lvgl/src/lv_widgets/lv_tabview.c ****             indic_pos  = indic_size * id + btns_bg_inner * id + btns_bg_left;
 2073              		.loc 1 377 13 is_stmt 1 view .LVU569
 377:lvgl/src/lv_widgets/lv_tabview.c ****             indic_pos  = indic_size * id + btns_bg_inner * id + btns_bg_left;
 2074              		.loc 1 377 26 is_stmt 0 view .LVU570
 2075 0124 6068     		ldr	r0, [r4, #4]
 2076 0126 FFF7FEFF 		bl	lv_obj_get_width
 2077              	.LVL273:
 378:lvgl/src/lv_widgets/lv_tabview.c ****             break;
 2078              		.loc 1 378 13 is_stmt 1 view .LVU571
 378:lvgl/src/lv_widgets/lv_tabview.c ****             break;
 2079              		.loc 1 378 42 is_stmt 0 view .LVU572
 2080 012a 0544     		add	r5, r5, r0
 2081              	.LVL274:
 378:lvgl/src/lv_widgets/lv_tabview.c ****             break;
 2082              		.loc 1 378 42 view .LVU573
 2083 012c 15FB07F5 		smulbb	r5, r5, r7
 378:lvgl/src/lv_widgets/lv_tabview.c ****             break;
 2084              		.loc 1 378 63 view .LVU574
 2085 0130 16FA85F5 		uxtah	r5, r6, r5
 378:lvgl/src/lv_widgets/lv_tabview.c ****             break;
 2086              		.loc 1 378 24 view .LVU575
 2087 0134 2DB2     		sxth	r5, r5
 2088              	.LVL275:
 379:lvgl/src/lv_widgets/lv_tabview.c ****         case LV_TABVIEW_TAB_POS_LEFT:
 2089              		.loc 1 379 13 is_stmt 1 view .LVU576
 2090              	.L115:
 390:lvgl/src/lv_widgets/lv_tabview.c **** #endif
 2091              		.loc 1 390 5 view .LVU577
 390:lvgl/src/lv_widgets/lv_tabview.c **** #endif
 2092              		.loc 1 390 7 is_stmt 0 view .LVU578
 2093 0136 B8F1000F 		cmp	r8, #0
 2094 013a 01D0     		beq	.L119
 390:lvgl/src/lv_widgets/lv_tabview.c **** #endif
 2095              		.loc 1 390 34 discriminator 1 view .LVU579
 2096 013c 238B     		ldrh	r3, [r4, #24]
 390:lvgl/src/lv_widgets/lv_tabview.c **** #endif
 2097              		.loc 1 390 28 discriminator 1 view .LVU580
 2098 013e 83BB     		cbnz	r3, .L120
 2099              	.L119:
 393:lvgl/src/lv_widgets/lv_tabview.c ****             default: /*default case is prevented in lv_tabview_set_btns_pos(), but here for safety*
 2100              		.loc 1 393 9 is_stmt 1 view .LVU581
 393:lvgl/src/lv_widgets/lv_tabview.c ****             default: /*default case is prevented in lv_tabview_set_btns_pos(), but here for safety*
 2101              		.loc 1 393 19 is_stmt 0 view .LVU582
 2102 0140 A37E     		ldrb	r3, [r4, #26]	@ zero_extendqisi2
 2103 0142 03F00703 		and	r3, r3, #7
 393:lvgl/src/lv_widgets/lv_tabview.c ****             default: /*default case is prevented in lv_tabview_set_btns_pos(), but here for safety*
 2104              		.loc 1 393 9 view .LVU583
 2105 0146 013B     		subs	r3, r3, #1
 2106 0148 032B     		cmp	r3, #3
 2107 014a 1DD8     		bhi	.L121
 2108 014c DFE803F0 		tbb	[pc, r3]
 2109              	.L123:
 2110 0150 18       		.byte	(.L124-.L123)/2
 2111 0151 18       		.byte	(.L124-.L123)/2
 2112 0152 24       		.byte	(.L122-.L123)/2
ARM GAS  D:\Temp\ccnA29ZW.s 			page 73


 2113 0153 24       		.byte	(.L122-.L123)/2
 2114              	.LVL276:
 2115              		.p2align 1
 2116              	.L116:
 382:lvgl/src/lv_widgets/lv_tabview.c ****             btns_bg_top = lv_obj_get_style_pad_top(tabview, LV_TABVIEW_PART_TAB_BG);
 2117              		.loc 1 382 13 is_stmt 1 view .LVU584
 2118              	.LBB133:
 2119              	.LBI133:
 114:lvgl/src/lv_widgets/../lv_core/lv_obj_style_dec.h **** _LV_OBJ_STYLE_SET_GET_DECLARE(MARGIN_TOP, margin_top, lv_style_int_t, _int, scalar)
 2120              		.loc 2 114 1 view .LVU585
 2121              	.LBB134:
 114:lvgl/src/lv_widgets/../lv_core/lv_obj_style_dec.h **** _LV_OBJ_STYLE_SET_GET_DECLARE(MARGIN_TOP, margin_top, lv_style_int_t, _int, scalar)
 2122              		.loc 2 114 1 view .LVU586
 2123 0154 1422     		movs	r2, #20
 2124 0156 4121     		movs	r1, #65
 2125 0158 3046     		mov	r0, r6
 2126 015a FFF7FEFF 		bl	_lv_obj_get_style_int
 2127              	.LVL277:
 2128 015e 0546     		mov	r5, r0
 2129              	.LVL278:
 114:lvgl/src/lv_widgets/../lv_core/lv_obj_style_dec.h **** _LV_OBJ_STYLE_SET_GET_DECLARE(MARGIN_TOP, margin_top, lv_style_int_t, _int, scalar)
 2130              		.loc 2 114 1 is_stmt 0 view .LVU587
 2131              	.LBE134:
 2132              	.LBE133:
 383:lvgl/src/lv_widgets/lv_tabview.c ****             indic_size = lv_obj_get_height(ext->indic);
 2133              		.loc 1 383 13 is_stmt 1 view .LVU588
 2134              	.LBB135:
 2135              	.LBI135:
 110:lvgl/src/lv_widgets/../lv_core/lv_obj_style_dec.h **** _LV_OBJ_STYLE_SET_GET_DECLARE(PAD_BOTTOM, pad_bottom, lv_style_int_t, _int, scalar)
 2136              		.loc 2 110 1 view .LVU589
 2137              	.LBB136:
 110:lvgl/src/lv_widgets/../lv_core/lv_obj_style_dec.h **** _LV_OBJ_STYLE_SET_GET_DECLARE(PAD_BOTTOM, pad_bottom, lv_style_int_t, _int, scalar)
 2138              		.loc 2 110 1 view .LVU590
 2139 0160 1022     		movs	r2, #16
 2140 0162 4121     		movs	r1, #65
 2141 0164 3046     		mov	r0, r6
 2142 0166 FFF7FEFF 		bl	_lv_obj_get_style_int
 2143              	.LVL279:
 2144 016a 0646     		mov	r6, r0
 2145              	.LVL280:
 110:lvgl/src/lv_widgets/../lv_core/lv_obj_style_dec.h **** _LV_OBJ_STYLE_SET_GET_DECLARE(PAD_BOTTOM, pad_bottom, lv_style_int_t, _int, scalar)
 2146              		.loc 2 110 1 is_stmt 0 view .LVU591
 2147              	.LBE136:
 2148              	.LBE135:
 384:lvgl/src/lv_widgets/lv_tabview.c ****             indic_pos  = btns_bg_top + id * (indic_size + btns_bg_inner);
 2149              		.loc 1 384 13 is_stmt 1 view .LVU592
 384:lvgl/src/lv_widgets/lv_tabview.c ****             indic_pos  = btns_bg_top + id * (indic_size + btns_bg_inner);
 2150              		.loc 1 384 26 is_stmt 0 view .LVU593
 2151 016c 6068     		ldr	r0, [r4, #4]
 2152 016e FFF7FEFF 		bl	lv_obj_get_height
 2153              	.LVL281:
 385:lvgl/src/lv_widgets/lv_tabview.c ****             break;
 2154              		.loc 1 385 13 is_stmt 1 view .LVU594
 385:lvgl/src/lv_widgets/lv_tabview.c ****             break;
 2155              		.loc 1 385 57 is_stmt 0 view .LVU595
 2156 0172 0544     		add	r5, r5, r0
 2157              	.LVL282:
ARM GAS  D:\Temp\ccnA29ZW.s 			page 74


 385:lvgl/src/lv_widgets/lv_tabview.c ****             break;
 2158              		.loc 1 385 38 view .LVU596
 2159 0174 15FB0765 		smlabb	r5, r5, r7, r6
 385:lvgl/src/lv_widgets/lv_tabview.c ****             break;
 2160              		.loc 1 385 24 view .LVU597
 2161 0178 2DB2     		sxth	r5, r5
 2162              	.LVL283:
 386:lvgl/src/lv_widgets/lv_tabview.c ****     }
 2163              		.loc 1 386 13 is_stmt 1 view .LVU598
 2164 017a DCE7     		b	.L115
 2165              	.LVL284:
 2166              	.L129:
 363:lvgl/src/lv_widgets/lv_tabview.c **** 
 2167              		.loc 1 363 16 is_stmt 0 view .LVU599
 2168 017c 0025     		movs	r5, #0
 2169              	.LVL285:
 363:lvgl/src/lv_widgets/lv_tabview.c **** 
 2170              		.loc 1 363 16 view .LVU600
 2171 017e DAE7     		b	.L115
 2172              	.LVL286:
 2173              	.L124:
 399:lvgl/src/lv_widgets/lv_tabview.c ****                 break;
 2174              		.loc 1 399 17 is_stmt 1 view .LVU601
 2175 0180 2946     		mov	r1, r5
 2176 0182 6068     		ldr	r0, [r4, #4]
 2177 0184 FFF7FEFF 		bl	lv_obj_set_x
 2178              	.LVL287:
 400:lvgl/src/lv_widgets/lv_tabview.c ****             case LV_TABVIEW_TAB_POS_LEFT:
 2179              		.loc 1 400 17 view .LVU602
 2180              	.L121:
 434:lvgl/src/lv_widgets/lv_tabview.c **** }
 2181              		.loc 1 434 5 view .LVU603
 2182 0188 8022     		movs	r2, #128
 2183 018a A18A     		ldrh	r1, [r4, #20]
 2184 018c 2068     		ldr	r0, [r4]
 2185 018e FFF7FEFF 		bl	lv_btnmatrix_set_btn_ctrl
 2186              	.LVL288:
 435:lvgl/src/lv_widgets/lv_tabview.c **** 
 2187              		.loc 1 435 1 is_stmt 0 view .LVU604
 2188 0192 12B0     		add	sp, sp, #72
 2189              	.LCFI20:
 2190              		.cfi_remember_state
 2191              		.cfi_def_cfa_offset 32
 2192              		@ sp needed
 2193 0194 BDE8F087 		pop	{r4, r5, r6, r7, r8, r9, r10, pc}
 2194              	.LVL289:
 2195              	.L122:
 2196              	.LCFI21:
 2197              		.cfi_restore_state
 403:lvgl/src/lv_widgets/lv_tabview.c ****                 break;
 2198              		.loc 1 403 17 is_stmt 1 view .LVU605
 2199 0198 2946     		mov	r1, r5
 2200 019a 6068     		ldr	r0, [r4, #4]
 2201 019c FFF7FEFF 		bl	lv_obj_set_y
 2202              	.LVL290:
 404:lvgl/src/lv_widgets/lv_tabview.c ****         }
 2203              		.loc 1 404 17 view .LVU606
ARM GAS  D:\Temp\ccnA29ZW.s 			page 75


 2204 01a0 F2E7     		b	.L121
 2205              	.L120:
 2206              	.LBB137:
 409:lvgl/src/lv_widgets/lv_tabview.c ****         lv_anim_init(&a);
 2207              		.loc 1 409 9 view .LVU607
 410:lvgl/src/lv_widgets/lv_tabview.c ****         lv_anim_set_var(&a, ext->indic);
 2208              		.loc 1 410 9 view .LVU608
 2209 01a2 01A8     		add	r0, sp, #4
 2210 01a4 FFF7FEFF 		bl	lv_anim_init
 2211              	.LVL291:
 411:lvgl/src/lv_widgets/lv_tabview.c ****         lv_anim_set_time(&a, ext->anim_time);
 2212              		.loc 1 411 9 view .LVU609
 411:lvgl/src/lv_widgets/lv_tabview.c ****         lv_anim_set_time(&a, ext->anim_time);
 2213              		.loc 1 411 32 is_stmt 0 view .LVU610
 2214 01a8 6368     		ldr	r3, [r4, #4]
 2215              	.LVL292:
 2216              	.LBB138:
 2217              	.LBI138:
 125:lvgl/src/lv_widgets/../lv_core/../lv_misc/lv_anim.h **** {
 2218              		.loc 5 125 20 is_stmt 1 view .LVU611
 2219              	.LBB139:
 127:lvgl/src/lv_widgets/../lv_core/../lv_misc/lv_anim.h **** }
 2220              		.loc 5 127 5 view .LVU612
 127:lvgl/src/lv_widgets/../lv_core/../lv_misc/lv_anim.h **** }
 2221              		.loc 5 127 16 is_stmt 0 view .LVU613
 2222 01aa 0193     		str	r3, [sp, #4]
 2223              	.LVL293:
 127:lvgl/src/lv_widgets/../lv_core/../lv_misc/lv_anim.h **** }
 2224              		.loc 5 127 16 view .LVU614
 2225              	.LBE139:
 2226              	.LBE138:
 412:lvgl/src/lv_widgets/lv_tabview.c **** 
 2227              		.loc 1 412 9 is_stmt 1 view .LVU615
 412:lvgl/src/lv_widgets/lv_tabview.c **** 
 2228              		.loc 1 412 33 is_stmt 0 view .LVU616
 2229 01ac 238B     		ldrh	r3, [r4, #24]
 2230              	.LVL294:
 2231              	.LBB140:
 2232              	.LBI140:
 147:lvgl/src/lv_widgets/../lv_core/../lv_misc/lv_anim.h **** {
 2233              		.loc 5 147 20 is_stmt 1 view .LVU617
 2234              	.LBB141:
 149:lvgl/src/lv_widgets/../lv_core/../lv_misc/lv_anim.h **** }
 2235              		.loc 5 149 5 view .LVU618
 149:lvgl/src/lv_widgets/../lv_core/../lv_misc/lv_anim.h **** }
 2236              		.loc 5 149 17 is_stmt 0 view .LVU619
 2237 01ae 0A93     		str	r3, [sp, #40]
 2238              	.LVL295:
 149:lvgl/src/lv_widgets/../lv_core/../lv_misc/lv_anim.h **** }
 2239              		.loc 5 149 17 view .LVU620
 2240              	.LBE141:
 2241              	.LBE140:
 414:lvgl/src/lv_widgets/lv_tabview.c ****             default: /*default case is prevented in lv_tabview_set_btns_pos(), but here for safety*
 2242              		.loc 1 414 9 is_stmt 1 view .LVU621
 414:lvgl/src/lv_widgets/lv_tabview.c ****             default: /*default case is prevented in lv_tabview_set_btns_pos(), but here for safety*
 2243              		.loc 1 414 19 is_stmt 0 view .LVU622
 2244 01b0 A37E     		ldrb	r3, [r4, #26]	@ zero_extendqisi2
ARM GAS  D:\Temp\ccnA29ZW.s 			page 76


 2245 01b2 03F00703 		and	r3, r3, #7
 414:lvgl/src/lv_widgets/lv_tabview.c ****             default: /*default case is prevented in lv_tabview_set_btns_pos(), but here for safety*
 2246              		.loc 1 414 9 view .LVU623
 2247 01b6 013B     		subs	r3, r3, #1
 2248 01b8 032B     		cmp	r3, #3
 2249 01ba 0BD8     		bhi	.L125
 2250 01bc DFE803F0 		tbb	[pc, r3]
 2251              	.L127:
 2252 01c0 02       		.byte	(.L128-.L127)/2
 2253 01c1 02       		.byte	(.L128-.L127)/2
 2254 01c2 0E       		.byte	(.L126-.L127)/2
 2255 01c3 0E       		.byte	(.L126-.L127)/2
 2256              		.p2align 1
 2257              	.L128:
 420:lvgl/src/lv_widgets/lv_tabview.c ****                 lv_anim_set_values(&a, lv_obj_get_x(ext->indic), indic_pos);
 2258              		.loc 1 420 17 is_stmt 1 view .LVU624
 2259              	.LVL296:
 2260              	.LBB142:
 2261              	.LBI142:
 137:lvgl/src/lv_widgets/../lv_core/../lv_misc/lv_anim.h **** {
 2262              		.loc 5 137 20 view .LVU625
 2263              	.LBB143:
 139:lvgl/src/lv_widgets/../lv_core/../lv_misc/lv_anim.h **** }
 2264              		.loc 5 139 5 view .LVU626
 139:lvgl/src/lv_widgets/../lv_core/../lv_misc/lv_anim.h **** }
 2265              		.loc 5 139 16 is_stmt 0 view .LVU627
 2266 01c4 0B4B     		ldr	r3, .L132+4
 2267 01c6 0293     		str	r3, [sp, #8]
 2268              	.LVL297:
 139:lvgl/src/lv_widgets/../lv_core/../lv_misc/lv_anim.h **** }
 2269              		.loc 5 139 16 view .LVU628
 2270              	.LBE143:
 2271              	.LBE142:
 421:lvgl/src/lv_widgets/lv_tabview.c ****                 break;
 2272              		.loc 1 421 17 is_stmt 1 view .LVU629
 2273 01c8 6068     		ldr	r0, [r4, #4]
 2274 01ca FFF7FEFF 		bl	lv_obj_get_x
 2275              	.LVL298:
 2276              	.LBB144:
 2277              	.LBI144:
 168:lvgl/src/lv_widgets/../lv_core/../lv_misc/lv_anim.h **** {
 2278              		.loc 5 168 20 view .LVU630
 2279              	.LBB145:
 170:lvgl/src/lv_widgets/../lv_core/../lv_misc/lv_anim.h ****     a->current = start;
 2280              		.loc 5 170 5 view .LVU631
 170:lvgl/src/lv_widgets/../lv_core/../lv_misc/lv_anim.h ****     a->current = start;
 2281              		.loc 5 170 14 is_stmt 0 view .LVU632
 2282 01ce 0790     		str	r0, [sp, #28]
 171:lvgl/src/lv_widgets/../lv_core/../lv_misc/lv_anim.h ****     a->end   = end;
 2283              		.loc 5 171 5 is_stmt 1 view .LVU633
 171:lvgl/src/lv_widgets/../lv_core/../lv_misc/lv_anim.h ****     a->end   = end;
 2284              		.loc 5 171 16 is_stmt 0 view .LVU634
 2285 01d0 0890     		str	r0, [sp, #32]
 2286              		.loc 5 172 5 is_stmt 1 view .LVU635
 2287              		.loc 5 172 14 is_stmt 0 view .LVU636
 2288 01d2 0995     		str	r5, [sp, #36]
 2289              	.LVL299:
ARM GAS  D:\Temp\ccnA29ZW.s 			page 77


 2290              	.L125:
 2291              		.loc 5 172 14 view .LVU637
 2292              	.LBE145:
 2293              	.LBE144:
 430:lvgl/src/lv_widgets/lv_tabview.c ****     }
 2294              		.loc 1 430 9 is_stmt 1 view .LVU638
 2295 01d4 01A8     		add	r0, sp, #4
 2296 01d6 FFF7FEFF 		bl	lv_anim_start
 2297              	.LVL300:
 2298 01da D5E7     		b	.L121
 2299              	.L126:
 425:lvgl/src/lv_widgets/lv_tabview.c ****                 lv_anim_set_values(&a, lv_obj_get_y(ext->indic), indic_pos);
 2300              		.loc 1 425 17 view .LVU639
 2301              	.LVL301:
 2302              	.LBB146:
 2303              	.LBI146:
 137:lvgl/src/lv_widgets/../lv_core/../lv_misc/lv_anim.h **** {
 2304              		.loc 5 137 20 view .LVU640
 2305              	.LBB147:
 139:lvgl/src/lv_widgets/../lv_core/../lv_misc/lv_anim.h **** }
 2306              		.loc 5 139 5 view .LVU641
 139:lvgl/src/lv_widgets/../lv_core/../lv_misc/lv_anim.h **** }
 2307              		.loc 5 139 16 is_stmt 0 view .LVU642
 2308 01dc 064B     		ldr	r3, .L132+8
 2309 01de 0293     		str	r3, [sp, #8]
 2310              	.LVL302:
 139:lvgl/src/lv_widgets/../lv_core/../lv_misc/lv_anim.h **** }
 2311              		.loc 5 139 16 view .LVU643
 2312              	.LBE147:
 2313              	.LBE146:
 426:lvgl/src/lv_widgets/lv_tabview.c ****                 break;
 2314              		.loc 1 426 17 is_stmt 1 view .LVU644
 2315 01e0 6068     		ldr	r0, [r4, #4]
 2316 01e2 FFF7FEFF 		bl	lv_obj_get_y
 2317              	.LVL303:
 2318              	.LBB148:
 2319              	.LBI148:
 168:lvgl/src/lv_widgets/../lv_core/../lv_misc/lv_anim.h **** {
 2320              		.loc 5 168 20 view .LVU645
 2321              	.LBB149:
 170:lvgl/src/lv_widgets/../lv_core/../lv_misc/lv_anim.h ****     a->current = start;
 2322              		.loc 5 170 5 view .LVU646
 170:lvgl/src/lv_widgets/../lv_core/../lv_misc/lv_anim.h ****     a->current = start;
 2323              		.loc 5 170 14 is_stmt 0 view .LVU647
 2324 01e6 0790     		str	r0, [sp, #28]
 171:lvgl/src/lv_widgets/../lv_core/../lv_misc/lv_anim.h ****     a->end   = end;
 2325              		.loc 5 171 5 is_stmt 1 view .LVU648
 171:lvgl/src/lv_widgets/../lv_core/../lv_misc/lv_anim.h ****     a->end   = end;
 2326              		.loc 5 171 16 is_stmt 0 view .LVU649
 2327 01e8 0890     		str	r0, [sp, #32]
 2328              		.loc 5 172 5 is_stmt 1 view .LVU650
 2329              		.loc 5 172 14 is_stmt 0 view .LVU651
 2330 01ea 0995     		str	r5, [sp, #36]
 2331 01ec F2E7     		b	.L125
 2332              	.L133:
 2333 01ee 00BF     		.align	2
 2334              	.L132:
ARM GAS  D:\Temp\ccnA29ZW.s 			page 78


 2335 01f0 00000000 		.word	.LC0
 2336 01f4 00000000 		.word	lv_obj_set_x
 2337 01f8 00000000 		.word	lv_obj_set_y
 2338              	.LBE149:
 2339              	.LBE148:
 2340              	.LBE137:
 2341              		.cfi_endproc
 2342              	.LFE493:
 2344              		.section	.text.tab_btnm_event_cb,"ax",%progbits
 2345              		.align	1
 2346              		.syntax unified
 2347              		.thumb
 2348              		.thumb_func
 2349              		.fpu fpv4-sp-d16
 2351              	tab_btnm_event_cb:
 2352              	.LVL304:
 2353              	.LFB505:
 819:lvgl/src/lv_widgets/lv_tabview.c ****     if(event != LV_EVENT_CLICKED) return;
 2354              		.loc 1 819 1 is_stmt 1 view -0
 2355              		.cfi_startproc
 2356              		@ args = 0, pretend = 0, frame = 8
 2357              		@ frame_needed = 0, uses_anonymous_args = 0
 820:lvgl/src/lv_widgets/lv_tabview.c **** 
 2358              		.loc 1 820 5 view .LVU653
 820:lvgl/src/lv_widgets/lv_tabview.c **** 
 2359              		.loc 1 820 7 is_stmt 0 view .LVU654
 2360 0000 0629     		cmp	r1, #6
 2361 0002 00D0     		beq	.L144
 2362 0004 7047     		bx	lr
 2363              	.L144:
 819:lvgl/src/lv_widgets/lv_tabview.c ****     if(event != LV_EVENT_CLICKED) return;
 2364              		.loc 1 819 1 view .LVU655
 2365 0006 70B5     		push	{r4, r5, r6, lr}
 2366              	.LCFI22:
 2367              		.cfi_def_cfa_offset 16
 2368              		.cfi_offset 4, -16
 2369              		.cfi_offset 5, -12
 2370              		.cfi_offset 6, -8
 2371              		.cfi_offset 14, -4
 2372 0008 82B0     		sub	sp, sp, #8
 2373              	.LCFI23:
 2374              		.cfi_def_cfa_offset 24
 2375 000a 0446     		mov	r4, r0
 822:lvgl/src/lv_widgets/lv_tabview.c ****     if(btn_id == LV_BTNMATRIX_BTN_NONE) return;
 2376              		.loc 1 822 5 is_stmt 1 view .LVU656
 822:lvgl/src/lv_widgets/lv_tabview.c ****     if(btn_id == LV_BTNMATRIX_BTN_NONE) return;
 2377              		.loc 1 822 23 is_stmt 0 view .LVU657
 2378 000c FFF7FEFF 		bl	lv_btnmatrix_get_active_btn
 2379              	.LVL305:
 822:lvgl/src/lv_widgets/lv_tabview.c ****     if(btn_id == LV_BTNMATRIX_BTN_NONE) return;
 2380              		.loc 1 822 23 view .LVU658
 2381 0010 0546     		mov	r5, r0
 2382              	.LVL306:
 823:lvgl/src/lv_widgets/lv_tabview.c **** 
 2383              		.loc 1 823 5 is_stmt 1 view .LVU659
 823:lvgl/src/lv_widgets/lv_tabview.c **** 
 2384              		.loc 1 823 7 is_stmt 0 view .LVU660
ARM GAS  D:\Temp\ccnA29ZW.s 			page 79


 2385 0012 4FF6FF73 		movw	r3, #65535
 2386 0016 9842     		cmp	r0, r3
 2387 0018 05D0     		beq	.L134
 825:lvgl/src/lv_widgets/lv_tabview.c **** 
 2388              		.loc 1 825 5 is_stmt 1 view .LVU661
 825:lvgl/src/lv_widgets/lv_tabview.c **** 
 2389              		.loc 1 825 8 is_stmt 0 view .LVU662
 2390 001a 2022     		movs	r2, #32
 2391 001c 0146     		mov	r1, r0
 2392 001e 2046     		mov	r0, r4
 2393              	.LVL307:
 825:lvgl/src/lv_widgets/lv_tabview.c **** 
 2394              		.loc 1 825 8 view .LVU663
 2395 0020 FFF7FEFF 		bl	lv_btnmatrix_get_btn_ctrl
 2396              	.LVL308:
 825:lvgl/src/lv_widgets/lv_tabview.c **** 
 2397              		.loc 1 825 7 view .LVU664
 2398 0024 08B1     		cbz	r0, .L145
 2399              	.LVL309:
 2400              	.L134:
 846:lvgl/src/lv_widgets/lv_tabview.c **** 
 2401              		.loc 1 846 1 view .LVU665
 2402 0026 02B0     		add	sp, sp, #8
 2403              	.LCFI24:
 2404              		.cfi_remember_state
 2405              		.cfi_def_cfa_offset 16
 2406              		@ sp needed
 2407 0028 70BD     		pop	{r4, r5, r6, pc}
 2408              	.LVL310:
 2409              	.L145:
 2410              	.LCFI25:
 2411              		.cfi_restore_state
 827:lvgl/src/lv_widgets/lv_tabview.c ****     lv_btnmatrix_set_btn_ctrl(tab_btnm, btn_id, LV_BTNMATRIX_CTRL_CHECK_STATE);
 2412              		.loc 1 827 5 is_stmt 1 view .LVU666
 2413 002a 8021     		movs	r1, #128
 2414 002c 2046     		mov	r0, r4
 2415 002e FFF7FEFF 		bl	lv_btnmatrix_clear_btn_ctrl_all
 2416              	.LVL311:
 828:lvgl/src/lv_widgets/lv_tabview.c **** 
 2417              		.loc 1 828 5 view .LVU667
 2418 0032 8022     		movs	r2, #128
 2419 0034 2946     		mov	r1, r5
 2420 0036 2046     		mov	r0, r4
 2421 0038 FFF7FEFF 		bl	lv_btnmatrix_set_btn_ctrl
 2422              	.LVL312:
 830:lvgl/src/lv_widgets/lv_tabview.c **** 
 2423              		.loc 1 830 5 view .LVU668
 830:lvgl/src/lv_widgets/lv_tabview.c **** 
 2424              		.loc 1 830 26 is_stmt 0 view .LVU669
 2425 003c 2046     		mov	r0, r4
 2426 003e FFF7FEFF 		bl	lv_obj_get_parent
 2427              	.LVL313:
 2428 0042 0446     		mov	r4, r0
 2429              	.LVL314:
 832:lvgl/src/lv_widgets/lv_tabview.c ****     lv_tabview_set_tab_act(tabview, btn_id, LV_ANIM_ON);
 2430              		.loc 1 832 5 is_stmt 1 view .LVU670
 832:lvgl/src/lv_widgets/lv_tabview.c ****     lv_tabview_set_tab_act(tabview, btn_id, LV_ANIM_ON);
ARM GAS  D:\Temp\ccnA29ZW.s 			page 80


 2431              		.loc 1 832 24 is_stmt 0 view .LVU671
 2432 0044 FFF7FEFF 		bl	lv_tabview_get_tab_act
 2433              	.LVL315:
 832:lvgl/src/lv_widgets/lv_tabview.c ****     lv_tabview_set_tab_act(tabview, btn_id, LV_ANIM_ON);
 2434              		.loc 1 832 24 view .LVU672
 2435 0048 0646     		mov	r6, r0
 2436              	.LVL316:
 833:lvgl/src/lv_widgets/lv_tabview.c ****     uint32_t id_new = lv_tabview_get_tab_act(tabview);
 2437              		.loc 1 833 5 is_stmt 1 view .LVU673
 2438 004a 0122     		movs	r2, #1
 2439 004c 2946     		mov	r1, r5
 2440 004e 2046     		mov	r0, r4
 2441              	.LVL317:
 833:lvgl/src/lv_widgets/lv_tabview.c ****     uint32_t id_new = lv_tabview_get_tab_act(tabview);
 2442              		.loc 1 833 5 is_stmt 0 view .LVU674
 2443 0050 FFF7FEFF 		bl	lv_tabview_set_tab_act
 2444              	.LVL318:
 834:lvgl/src/lv_widgets/lv_tabview.c **** 
 2445              		.loc 1 834 5 is_stmt 1 view .LVU675
 834:lvgl/src/lv_widgets/lv_tabview.c **** 
 2446              		.loc 1 834 23 is_stmt 0 view .LVU676
 2447 0054 2046     		mov	r0, r4
 2448 0056 FFF7FEFF 		bl	lv_tabview_get_tab_act
 2449              	.LVL319:
 834:lvgl/src/lv_widgets/lv_tabview.c **** 
 2450              		.loc 1 834 14 view .LVU677
 2451 005a 0190     		str	r0, [sp, #4]
 836:lvgl/src/lv_widgets/lv_tabview.c ****     if(id_prev != id_new) res = lv_event_send(tabview, LV_EVENT_VALUE_CHANGED, &id_new);
 2452              		.loc 1 836 5 is_stmt 1 view .LVU678
 2453              	.LVL320:
 837:lvgl/src/lv_widgets/lv_tabview.c **** 
 2454              		.loc 1 837 5 view .LVU679
 837:lvgl/src/lv_widgets/lv_tabview.c **** 
 2455              		.loc 1 837 7 is_stmt 0 view .LVU680
 2456 005c B042     		cmp	r0, r6
 2457 005e 0CD1     		bne	.L146
 2458              	.LVL321:
 2459              	.L136:
 840:lvgl/src/lv_widgets/lv_tabview.c ****         lv_group_set_editing(lv_obj_get_group(tabview), false);
 2460              		.loc 1 840 5 is_stmt 1 view .LVU681
 840:lvgl/src/lv_widgets/lv_tabview.c ****         lv_group_set_editing(lv_obj_get_group(tabview), false);
 2461              		.loc 1 840 26 is_stmt 0 view .LVU682
 2462 0060 FFF7FEFF 		bl	lv_indev_get_act
 2463              	.LVL322:
 840:lvgl/src/lv_widgets/lv_tabview.c ****         lv_group_set_editing(lv_obj_get_group(tabview), false);
 2464              		.loc 1 840 8 view .LVU683
 2465 0064 FFF7FEFF 		bl	lv_indev_get_type
 2466              	.LVL323:
 840:lvgl/src/lv_widgets/lv_tabview.c ****         lv_group_set_editing(lv_obj_get_group(tabview), false);
 2467              		.loc 1 840 7 view .LVU684
 2468 0068 0428     		cmp	r0, #4
 2469 006a DCD1     		bne	.L134
 841:lvgl/src/lv_widgets/lv_tabview.c ****     }
 2470              		.loc 1 841 9 is_stmt 1 view .LVU685
 841:lvgl/src/lv_widgets/lv_tabview.c ****     }
 2471              		.loc 1 841 30 is_stmt 0 view .LVU686
 2472 006c 2046     		mov	r0, r4
ARM GAS  D:\Temp\ccnA29ZW.s 			page 81


 2473 006e FFF7FEFF 		bl	lv_obj_get_group
 2474              	.LVL324:
 841:lvgl/src/lv_widgets/lv_tabview.c ****     }
 2475              		.loc 1 841 9 view .LVU687
 2476 0072 0021     		movs	r1, #0
 2477 0074 FFF7FEFF 		bl	lv_group_set_editing
 2478              	.LVL325:
 845:lvgl/src/lv_widgets/lv_tabview.c **** }
 2479              		.loc 1 845 5 is_stmt 1 view .LVU688
 2480 0078 D5E7     		b	.L134
 2481              	.LVL326:
 2482              	.L146:
 837:lvgl/src/lv_widgets/lv_tabview.c **** 
 2483              		.loc 1 837 27 discriminator 1 view .LVU689
 837:lvgl/src/lv_widgets/lv_tabview.c **** 
 2484              		.loc 1 837 33 is_stmt 0 discriminator 1 view .LVU690
 2485 007a 01AA     		add	r2, sp, #4
 2486 007c 1021     		movs	r1, #16
 2487 007e 2046     		mov	r0, r4
 2488 0080 FFF7FEFF 		bl	lv_event_send
 2489              	.LVL327:
 837:lvgl/src/lv_widgets/lv_tabview.c **** 
 2490              		.loc 1 837 33 discriminator 1 view .LVU691
 2491 0084 ECE7     		b	.L136
 2492              		.cfi_endproc
 2493              	.LFE505:
 2495              		.section	.text.tabview_scrl_signal,"ax",%progbits
 2496              		.align	1
 2497              		.syntax unified
 2498              		.thumb
 2499              		.thumb_func
 2500              		.fpu fpv4-sp-d16
 2502              	tabview_scrl_signal:
 2503              	.LVL328:
 2504              	.LFB503:
 718:lvgl/src/lv_widgets/lv_tabview.c ****     lv_res_t res;
 2505              		.loc 1 718 1 is_stmt 1 view -0
 2506              		.cfi_startproc
 2507              		@ args = 0, pretend = 0, frame = 16
 2508              		@ frame_needed = 0, uses_anonymous_args = 0
 718:lvgl/src/lv_widgets/lv_tabview.c ****     lv_res_t res;
 2509              		.loc 1 718 1 is_stmt 0 view .LVU693
 2510 0000 2DE9F047 		push	{r4, r5, r6, r7, r8, r9, r10, lr}
 2511              	.LCFI26:
 2512              		.cfi_def_cfa_offset 32
 2513              		.cfi_offset 4, -32
 2514              		.cfi_offset 5, -28
 2515              		.cfi_offset 6, -24
 2516              		.cfi_offset 7, -20
 2517              		.cfi_offset 8, -16
 2518              		.cfi_offset 9, -12
 2519              		.cfi_offset 10, -8
 2520              		.cfi_offset 14, -4
 2521 0004 84B0     		sub	sp, sp, #16
 2522              	.LCFI27:
 2523              		.cfi_def_cfa_offset 48
 2524 0006 0646     		mov	r6, r0
ARM GAS  D:\Temp\ccnA29ZW.s 			page 82


 2525 0008 0D46     		mov	r5, r1
 2526 000a 1746     		mov	r7, r2
 719:lvgl/src/lv_widgets/lv_tabview.c **** 
 2527              		.loc 1 719 5 is_stmt 1 view .LVU694
 722:lvgl/src/lv_widgets/lv_tabview.c ****     if(res != LV_RES_OK) return res;
 2528              		.loc 1 722 5 view .LVU695
 722:lvgl/src/lv_widgets/lv_tabview.c ****     if(res != LV_RES_OK) return res;
 2529              		.loc 1 722 11 is_stmt 0 view .LVU696
 2530 000c 4D4B     		ldr	r3, .L166
 2531 000e 1B68     		ldr	r3, [r3]
 2532 0010 9847     		blx	r3
 2533              	.LVL329:
 722:lvgl/src/lv_widgets/lv_tabview.c ****     if(res != LV_RES_OK) return res;
 2534              		.loc 1 722 11 view .LVU697
 2535 0012 0446     		mov	r4, r0
 2536              	.LVL330:
 723:lvgl/src/lv_widgets/lv_tabview.c ****     if(sign == LV_SIGNAL_GET_TYPE) return lv_obj_handle_get_type_signal(param, "");
 2537              		.loc 1 723 5 is_stmt 1 view .LVU698
 723:lvgl/src/lv_widgets/lv_tabview.c ****     if(sign == LV_SIGNAL_GET_TYPE) return lv_obj_handle_get_type_signal(param, "");
 2538              		.loc 1 723 7 is_stmt 0 view .LVU699
 2539 0014 0128     		cmp	r0, #1
 2540 0016 09D1     		bne	.L148
 724:lvgl/src/lv_widgets/lv_tabview.c **** 
 2541              		.loc 1 724 5 is_stmt 1 view .LVU700
 724:lvgl/src/lv_widgets/lv_tabview.c **** 
 2542              		.loc 1 724 7 is_stmt 0 view .LVU701
 2543 0018 072D     		cmp	r5, #7
 2544 001a 0BD0     		beq	.L162
 726:lvgl/src/lv_widgets/lv_tabview.c ****     lv_obj_t * tabview = lv_obj_get_parent(cont);
 2545              		.loc 1 726 5 is_stmt 1 view .LVU702
 726:lvgl/src/lv_widgets/lv_tabview.c ****     lv_obj_t * tabview = lv_obj_get_parent(cont);
 2546              		.loc 1 726 26 is_stmt 0 view .LVU703
 2547 001c 3046     		mov	r0, r6
 2548              	.LVL331:
 726:lvgl/src/lv_widgets/lv_tabview.c ****     lv_obj_t * tabview = lv_obj_get_parent(cont);
 2549              		.loc 1 726 26 view .LVU704
 2550 001e FFF7FEFF 		bl	lv_obj_get_parent
 2551              	.LVL332:
 727:lvgl/src/lv_widgets/lv_tabview.c **** 
 2552              		.loc 1 727 5 is_stmt 1 view .LVU705
 727:lvgl/src/lv_widgets/lv_tabview.c **** 
 2553              		.loc 1 727 26 is_stmt 0 view .LVU706
 2554 0022 FFF7FEFF 		bl	lv_obj_get_parent
 2555              	.LVL333:
 727:lvgl/src/lv_widgets/lv_tabview.c **** 
 2556              		.loc 1 727 26 view .LVU707
 2557 0026 0646     		mov	r6, r0
 2558              	.LVL334:
 729:lvgl/src/lv_widgets/lv_tabview.c ****         lv_tabview_ext_t * ext = lv_obj_get_ext_attr(tabview);
 2559              		.loc 1 729 5 is_stmt 1 view .LVU708
 729:lvgl/src/lv_widgets/lv_tabview.c ****         lv_tabview_ext_t * ext = lv_obj_get_ext_attr(tabview);
 2560              		.loc 1 729 7 is_stmt 0 view .LVU709
 2561 0028 122D     		cmp	r5, #18
 2562 002a 09D0     		beq	.L163
 2563              	.LVL335:
 2564              	.L148:
 775:lvgl/src/lv_widgets/lv_tabview.c **** 
ARM GAS  D:\Temp\ccnA29ZW.s 			page 83


 2565              		.loc 1 775 1 view .LVU710
 2566 002c 2046     		mov	r0, r4
 2567 002e 04B0     		add	sp, sp, #16
 2568              	.LCFI28:
 2569              		.cfi_remember_state
 2570              		.cfi_def_cfa_offset 32
 2571              		@ sp needed
 2572 0030 BDE8F087 		pop	{r4, r5, r6, r7, r8, r9, r10, pc}
 2573              	.LVL336:
 2574              	.L162:
 2575              	.LCFI29:
 2576              		.cfi_restore_state
 724:lvgl/src/lv_widgets/lv_tabview.c **** 
 2577              		.loc 1 724 36 is_stmt 1 discriminator 1 view .LVU711
 724:lvgl/src/lv_widgets/lv_tabview.c **** 
 2578              		.loc 1 724 43 is_stmt 0 discriminator 1 view .LVU712
 2579 0034 4449     		ldr	r1, .L166+4
 2580 0036 3846     		mov	r0, r7
 2581              	.LVL337:
 724:lvgl/src/lv_widgets/lv_tabview.c **** 
 2582              		.loc 1 724 43 discriminator 1 view .LVU713
 2583 0038 FFF7FEFF 		bl	lv_obj_handle_get_type_signal
 2584              	.LVL338:
 2585 003c 0446     		mov	r4, r0
 2586 003e F5E7     		b	.L148
 2587              	.LVL339:
 2588              	.L163:
 2589              	.LBB150:
 730:lvgl/src/lv_widgets/lv_tabview.c **** 
 2590              		.loc 1 730 9 is_stmt 1 view .LVU714
 730:lvgl/src/lv_widgets/lv_tabview.c **** 
 2591              		.loc 1 730 34 is_stmt 0 view .LVU715
 2592 0040 FFF7FEFF 		bl	lv_obj_get_ext_attr
 2593              	.LVL340:
 730:lvgl/src/lv_widgets/lv_tabview.c **** 
 2594              		.loc 1 730 34 view .LVU716
 2595 0044 0746     		mov	r7, r0
 2596              	.LVL341:
 732:lvgl/src/lv_widgets/lv_tabview.c ****         lv_point_t point_act;
 2597              		.loc 1 732 9 is_stmt 1 view .LVU717
 732:lvgl/src/lv_widgets/lv_tabview.c ****         lv_point_t point_act;
 2598              		.loc 1 732 30 is_stmt 0 view .LVU718
 2599 0046 FFF7FEFF 		bl	lv_indev_get_act
 2600              	.LVL342:
 732:lvgl/src/lv_widgets/lv_tabview.c ****         lv_point_t point_act;
 2601              		.loc 1 732 30 view .LVU719
 2602 004a 0446     		mov	r4, r0
 2603              	.LVL343:
 733:lvgl/src/lv_widgets/lv_tabview.c ****         lv_indev_get_point(indev, &point_act);
 2604              		.loc 1 733 9 is_stmt 1 view .LVU720
 734:lvgl/src/lv_widgets/lv_tabview.c ****         lv_point_t vect;
 2605              		.loc 1 734 9 view .LVU721
 2606 004c 01A9     		add	r1, sp, #4
 2607 004e FFF7FEFF 		bl	lv_indev_get_point
 2608              	.LVL344:
 735:lvgl/src/lv_widgets/lv_tabview.c ****         lv_indev_get_vect(indev, &vect);
 2609              		.loc 1 735 9 view .LVU722
ARM GAS  D:\Temp\ccnA29ZW.s 			page 84


 736:lvgl/src/lv_widgets/lv_tabview.c ****         lv_coord_t x_predict = 0;
 2610              		.loc 1 736 9 view .LVU723
 2611 0052 02A9     		add	r1, sp, #8
 2612 0054 2046     		mov	r0, r4
 2613 0056 FFF7FEFF 		bl	lv_indev_get_vect
 2614              	.LVL345:
 737:lvgl/src/lv_widgets/lv_tabview.c **** 
 2615              		.loc 1 737 9 view .LVU724
 739:lvgl/src/lv_widgets/lv_tabview.c ****             x_predict += vect.x;
 2616              		.loc 1 739 9 view .LVU725
 737:lvgl/src/lv_widgets/lv_tabview.c **** 
 2617              		.loc 1 737 20 is_stmt 0 view .LVU726
 2618 005a 0025     		movs	r5, #0
 2619              	.LVL346:
 2620              	.L150:
 739:lvgl/src/lv_widgets/lv_tabview.c ****             x_predict += vect.x;
 2621              		.loc 1 739 19 view .LVU727
 2622 005c BDF90820 		ldrsh	r2, [sp, #8]
 739:lvgl/src/lv_widgets/lv_tabview.c ****             x_predict += vect.x;
 2623              		.loc 1 739 14 view .LVU728
 2624 0060 72B1     		cbz	r2, .L164
 740:lvgl/src/lv_widgets/lv_tabview.c ****             vect.x = vect.x * (100 - LV_INDEV_DEF_DRAG_THROW) / 100;
 2625              		.loc 1 740 13 is_stmt 1 view .LVU729
 740:lvgl/src/lv_widgets/lv_tabview.c ****             vect.x = vect.x * (100 - LV_INDEV_DEF_DRAG_THROW) / 100;
 2626              		.loc 1 740 23 is_stmt 0 view .LVU730
 2627 0062 15FA82F5 		uxtah	r5, r5, r2
 2628              	.LVL347:
 740:lvgl/src/lv_widgets/lv_tabview.c ****             vect.x = vect.x * (100 - LV_INDEV_DEF_DRAG_THROW) / 100;
 2629              		.loc 1 740 23 view .LVU731
 2630 0066 2DB2     		sxth	r5, r5
 2631              	.LVL348:
 741:lvgl/src/lv_widgets/lv_tabview.c ****         }
 2632              		.loc 1 741 13 is_stmt 1 view .LVU732
 741:lvgl/src/lv_widgets/lv_tabview.c ****         }
 2633              		.loc 1 741 29 is_stmt 0 view .LVU733
 2634 0068 5A23     		movs	r3, #90
 2635 006a 03FB02F3 		mul	r3, r3, r2
 741:lvgl/src/lv_widgets/lv_tabview.c ****         }
 2636              		.loc 1 741 63 view .LVU734
 2637 006e 374A     		ldr	r2, .L166+8
 2638 0070 82FB0312 		smull	r1, r2, r2, r3
 2639 0074 DB17     		asrs	r3, r3, #31
 2640 0076 C3EB6213 		rsb	r3, r3, r2, asr #5
 741:lvgl/src/lv_widgets/lv_tabview.c ****         }
 2641              		.loc 1 741 20 view .LVU735
 2642 007a ADF80830 		strh	r3, [sp, #8]	@ movhi
 2643 007e EDE7     		b	.L150
 2644              	.L164:
 744:lvgl/src/lv_widgets/lv_tabview.c ****         if(res != LV_RES_OK) return res;
 2645              		.loc 1 744 9 is_stmt 1 view .LVU736
 744:lvgl/src/lv_widgets/lv_tabview.c ****         if(res != LV_RES_OK) return res;
 2646              		.loc 1 744 15 is_stmt 0 view .LVU737
 2647 0080 2046     		mov	r0, r4
 2648 0082 FFF7FEFF 		bl	lv_indev_finish_drag
 2649              	.LVL349:
 2650 0086 0446     		mov	r4, r0
 2651              	.LVL350:
ARM GAS  D:\Temp\ccnA29ZW.s 			page 85


 745:lvgl/src/lv_widgets/lv_tabview.c ****         lv_obj_t * tab_page = lv_tabview_get_tab(tabview, ext->tab_cur);
 2652              		.loc 1 745 9 is_stmt 1 view .LVU738
 745:lvgl/src/lv_widgets/lv_tabview.c ****         lv_obj_t * tab_page = lv_tabview_get_tab(tabview, ext->tab_cur);
 2653              		.loc 1 745 11 is_stmt 0 view .LVU739
 2654 0088 0128     		cmp	r0, #1
 2655 008a CFD1     		bne	.L148
 746:lvgl/src/lv_widgets/lv_tabview.c ****         if(tab_page == NULL) return LV_RES_OK;
 2656              		.loc 1 746 9 is_stmt 1 view .LVU740
 746:lvgl/src/lv_widgets/lv_tabview.c ****         if(tab_page == NULL) return LV_RES_OK;
 2657              		.loc 1 746 31 is_stmt 0 view .LVU741
 2658 008c B98A     		ldrh	r1, [r7, #20]
 2659 008e 3046     		mov	r0, r6
 2660              	.LVL351:
 746:lvgl/src/lv_widgets/lv_tabview.c ****         if(tab_page == NULL) return LV_RES_OK;
 2661              		.loc 1 746 31 view .LVU742
 2662 0090 FFF7FEFF 		bl	lv_tabview_get_tab
 2663              	.LVL352:
 747:lvgl/src/lv_widgets/lv_tabview.c ****         lv_coord_t page_x1  = tab_page->coords.x1 - tabview->coords.x1 + x_predict;
 2664              		.loc 1 747 9 is_stmt 1 view .LVU743
 747:lvgl/src/lv_widgets/lv_tabview.c ****         lv_coord_t page_x1  = tab_page->coords.x1 - tabview->coords.x1 + x_predict;
 2665              		.loc 1 747 11 is_stmt 0 view .LVU744
 2666 0094 0028     		cmp	r0, #0
 2667 0096 C9D0     		beq	.L148
 748:lvgl/src/lv_widgets/lv_tabview.c ****         lv_coord_t page_x2  = page_x1 + lv_obj_get_width(tabview);
 2668              		.loc 1 748 9 is_stmt 1 view .LVU745
 748:lvgl/src/lv_widgets/lv_tabview.c ****         lv_coord_t page_x2  = page_x1 + lv_obj_get_width(tabview);
 2669              		.loc 1 748 47 is_stmt 0 view .LVU746
 2670 0098 038A     		ldrh	r3, [r0, #16]
 748:lvgl/src/lv_widgets/lv_tabview.c ****         lv_coord_t page_x2  = page_x1 + lv_obj_get_width(tabview);
 2671              		.loc 1 748 68 view .LVU747
 2672 009a 328A     		ldrh	r2, [r6, #16]
 748:lvgl/src/lv_widgets/lv_tabview.c ****         lv_coord_t page_x2  = page_x1 + lv_obj_get_width(tabview);
 2673              		.loc 1 748 51 view .LVU748
 2674 009c 9B1A     		subs	r3, r3, r2
 748:lvgl/src/lv_widgets/lv_tabview.c ****         lv_coord_t page_x2  = page_x1 + lv_obj_get_width(tabview);
 2675              		.loc 1 748 72 view .LVU749
 2676 009e 15FA83F5 		uxtah	r5, r5, r3
 2677              	.LVL353:
 748:lvgl/src/lv_widgets/lv_tabview.c ****         lv_coord_t page_x2  = page_x1 + lv_obj_get_width(tabview);
 2678              		.loc 1 748 72 view .LVU750
 2679 00a2 ADB2     		uxth	r5, r5
 748:lvgl/src/lv_widgets/lv_tabview.c ****         lv_coord_t page_x2  = page_x1 + lv_obj_get_width(tabview);
 2680              		.loc 1 748 20 view .LVU751
 2681 00a4 0FFA85F9 		sxth	r9, r5
 2682              	.LVL354:
 749:lvgl/src/lv_widgets/lv_tabview.c ****         lv_coord_t threshold = lv_obj_get_width(tabview) / 2;
 2683              		.loc 1 749 9 is_stmt 1 view .LVU752
 749:lvgl/src/lv_widgets/lv_tabview.c ****         lv_coord_t threshold = lv_obj_get_width(tabview) / 2;
 2684              		.loc 1 749 41 is_stmt 0 view .LVU753
 2685 00a8 3046     		mov	r0, r6
 2686              	.LVL355:
 749:lvgl/src/lv_widgets/lv_tabview.c ****         lv_coord_t threshold = lv_obj_get_width(tabview) / 2;
 2687              		.loc 1 749 41 view .LVU754
 2688 00aa FFF7FEFF 		bl	lv_obj_get_width
 2689              	.LVL356:
 749:lvgl/src/lv_widgets/lv_tabview.c ****         lv_coord_t threshold = lv_obj_get_width(tabview) / 2;
 2690              		.loc 1 749 39 view .LVU755
ARM GAS  D:\Temp\ccnA29ZW.s 			page 86


 2691 00ae 15FA80F5 		uxtah	r5, r5, r0
 749:lvgl/src/lv_widgets/lv_tabview.c ****         lv_coord_t threshold = lv_obj_get_width(tabview) / 2;
 2692              		.loc 1 749 20 view .LVU756
 2693 00b2 2DB2     		sxth	r5, r5
 2694              	.LVL357:
 750:lvgl/src/lv_widgets/lv_tabview.c **** 
 2695              		.loc 1 750 9 is_stmt 1 view .LVU757
 750:lvgl/src/lv_widgets/lv_tabview.c **** 
 2696              		.loc 1 750 32 is_stmt 0 view .LVU758
 2697 00b4 3046     		mov	r0, r6
 2698 00b6 FFF7FEFF 		bl	lv_obj_get_width
 2699              	.LVL358:
 750:lvgl/src/lv_widgets/lv_tabview.c **** 
 2700              		.loc 1 750 20 view .LVU759
 2701 00ba 00EBD070 		add	r0, r0, r0, lsr #31
 2702 00be 40F34F0A 		sbfx	r10, r0, #1, #16
 2703              	.LVL359:
 752:lvgl/src/lv_widgets/lv_tabview.c ****         int16_t tab_cur = ext->tab_cur;
 2704              		.loc 1 752 9 is_stmt 1 view .LVU760
 752:lvgl/src/lv_widgets/lv_tabview.c ****         int16_t tab_cur = ext->tab_cur;
 2705              		.loc 1 752 34 is_stmt 0 view .LVU761
 2706 00c2 3046     		mov	r0, r6
 2707 00c4 FFF7FEFF 		bl	lv_obj_get_base_dir
 2708              	.LVL360:
 753:lvgl/src/lv_widgets/lv_tabview.c ****         if(page_x1 > threshold) {
 2709              		.loc 1 753 9 is_stmt 1 view .LVU762
 753:lvgl/src/lv_widgets/lv_tabview.c ****         if(page_x1 > threshold) {
 2710              		.loc 1 753 30 is_stmt 0 view .LVU763
 2711 00c8 BB8A     		ldrh	r3, [r7, #20]
 753:lvgl/src/lv_widgets/lv_tabview.c ****         if(page_x1 > threshold) {
 2712              		.loc 1 753 17 view .LVU764
 2713 00ca 0FFA83F8 		sxth	r8, r3
 2714              	.LVL361:
 754:lvgl/src/lv_widgets/lv_tabview.c ****             if(base_dir != LV_BIDI_DIR_RTL) tab_cur--;
 2715              		.loc 1 754 9 is_stmt 1 view .LVU765
 754:lvgl/src/lv_widgets/lv_tabview.c ****             if(base_dir != LV_BIDI_DIR_RTL) tab_cur--;
 2716              		.loc 1 754 11 is_stmt 0 view .LVU766
 2717 00ce D145     		cmp	r9, r10
 2718 00d0 28DD     		ble	.L153
 755:lvgl/src/lv_widgets/lv_tabview.c ****             else tab_cur ++;
 2719              		.loc 1 755 13 is_stmt 1 view .LVU767
 755:lvgl/src/lv_widgets/lv_tabview.c ****             else tab_cur ++;
 2720              		.loc 1 755 15 is_stmt 0 view .LVU768
 2721 00d2 0128     		cmp	r0, #1
 2722 00d4 22D0     		beq	.L154
 755:lvgl/src/lv_widgets/lv_tabview.c ****             else tab_cur ++;
 2723              		.loc 1 755 45 is_stmt 1 discriminator 1 view .LVU769
 755:lvgl/src/lv_widgets/lv_tabview.c ****             else tab_cur ++;
 2724              		.loc 1 755 52 is_stmt 0 discriminator 1 view .LVU770
 2725 00d6 013B     		subs	r3, r3, #1
 2726 00d8 0FFA83F8 		sxth	r8, r3
 2727              	.LVL362:
 2728              	.L155:
 763:lvgl/src/lv_widgets/lv_tabview.c ****         if(tab_cur < 0) tab_cur = 0;
 2729              		.loc 1 763 9 is_stmt 1 view .LVU771
 763:lvgl/src/lv_widgets/lv_tabview.c ****         if(tab_cur < 0) tab_cur = 0;
 2730              		.loc 1 763 25 is_stmt 0 view .LVU772
ARM GAS  D:\Temp\ccnA29ZW.s 			page 87


 2731 00dc FB8A     		ldrh	r3, [r7, #22]
 763:lvgl/src/lv_widgets/lv_tabview.c ****         if(tab_cur < 0) tab_cur = 0;
 2732              		.loc 1 763 11 view .LVU773
 2733 00de 4345     		cmp	r3, r8
 2734 00e0 02DC     		bgt	.L157
 763:lvgl/src/lv_widgets/lv_tabview.c ****         if(tab_cur < 0) tab_cur = 0;
 2735              		.loc 1 763 40 is_stmt 1 discriminator 1 view .LVU774
 763:lvgl/src/lv_widgets/lv_tabview.c ****         if(tab_cur < 0) tab_cur = 0;
 2736              		.loc 1 763 63 is_stmt 0 discriminator 1 view .LVU775
 2737 00e2 013B     		subs	r3, r3, #1
 763:lvgl/src/lv_widgets/lv_tabview.c ****         if(tab_cur < 0) tab_cur = 0;
 2738              		.loc 1 763 48 discriminator 1 view .LVU776
 2739 00e4 0FFA83F8 		sxth	r8, r3
 2740              	.LVL363:
 2741              	.L157:
 764:lvgl/src/lv_widgets/lv_tabview.c **** 
 2742              		.loc 1 764 9 is_stmt 1 view .LVU777
 764:lvgl/src/lv_widgets/lv_tabview.c **** 
 2743              		.loc 1 764 11 is_stmt 0 view .LVU778
 2744 00e8 B8F1000F 		cmp	r8, #0
 2745 00ec 26DB     		blt	.L165
 2746              	.LVL364:
 2747              	.L158:
 766:lvgl/src/lv_widgets/lv_tabview.c ****         lv_tabview_set_tab_act(tabview, tab_cur, LV_ANIM_ON);
 2748              		.loc 1 766 9 is_stmt 1 view .LVU779
 766:lvgl/src/lv_widgets/lv_tabview.c ****         lv_tabview_set_tab_act(tabview, tab_cur, LV_ANIM_ON);
 2749              		.loc 1 766 28 is_stmt 0 view .LVU780
 2750 00ee 3046     		mov	r0, r6
 2751              	.LVL365:
 766:lvgl/src/lv_widgets/lv_tabview.c ****         lv_tabview_set_tab_act(tabview, tab_cur, LV_ANIM_ON);
 2752              		.loc 1 766 28 view .LVU781
 2753 00f0 FFF7FEFF 		bl	lv_tabview_get_tab_act
 2754              	.LVL366:
 766:lvgl/src/lv_widgets/lv_tabview.c ****         lv_tabview_set_tab_act(tabview, tab_cur, LV_ANIM_ON);
 2755              		.loc 1 766 18 view .LVU782
 2756 00f4 0390     		str	r0, [sp, #12]
 767:lvgl/src/lv_widgets/lv_tabview.c ****         uint32_t id_new = lv_tabview_get_tab_act(tabview);
 2757              		.loc 1 767 9 is_stmt 1 view .LVU783
 2758 00f6 0122     		movs	r2, #1
 2759 00f8 1FFA88F1 		uxth	r1, r8
 2760 00fc 3046     		mov	r0, r6
 2761 00fe FFF7FEFF 		bl	lv_tabview_set_tab_act
 2762              	.LVL367:
 768:lvgl/src/lv_widgets/lv_tabview.c **** 
 2763              		.loc 1 768 9 view .LVU784
 768:lvgl/src/lv_widgets/lv_tabview.c **** 
 2764              		.loc 1 768 27 is_stmt 0 view .LVU785
 2765 0102 3046     		mov	r0, r6
 2766 0104 FFF7FEFF 		bl	lv_tabview_get_tab_act
 2767              	.LVL368:
 770:lvgl/src/lv_widgets/lv_tabview.c ****         if(res != LV_RES_OK) return res;
 2768              		.loc 1 770 9 is_stmt 1 view .LVU786
 770:lvgl/src/lv_widgets/lv_tabview.c ****         if(res != LV_RES_OK) return res;
 2769              		.loc 1 770 20 is_stmt 0 view .LVU787
 2770 0108 039B     		ldr	r3, [sp, #12]
 770:lvgl/src/lv_widgets/lv_tabview.c ****         if(res != LV_RES_OK) return res;
 2771              		.loc 1 770 11 view .LVU788
ARM GAS  D:\Temp\ccnA29ZW.s 			page 88


 2772 010a 8342     		cmp	r3, r0
 2773 010c 8ED0     		beq	.L148
 770:lvgl/src/lv_widgets/lv_tabview.c ****         if(res != LV_RES_OK) return res;
 2774              		.loc 1 770 31 is_stmt 1 discriminator 1 view .LVU789
 770:lvgl/src/lv_widgets/lv_tabview.c ****         if(res != LV_RES_OK) return res;
 2775              		.loc 1 770 37 is_stmt 0 discriminator 1 view .LVU790
 2776 010e 03AA     		add	r2, sp, #12
 2777 0110 1021     		movs	r1, #16
 2778 0112 3046     		mov	r0, r6
 2779              	.LVL369:
 770:lvgl/src/lv_widgets/lv_tabview.c ****         if(res != LV_RES_OK) return res;
 2780              		.loc 1 770 37 discriminator 1 view .LVU791
 2781 0114 FFF7FEFF 		bl	lv_event_send
 2782              	.LVL370:
 2783 0118 0446     		mov	r4, r0
 2784              	.LVL371:
 771:lvgl/src/lv_widgets/lv_tabview.c **** 
 2785              		.loc 1 771 9 is_stmt 1 discriminator 1 view .LVU792
 2786 011a 87E7     		b	.L148
 2787              	.LVL372:
 2788              	.L154:
 756:lvgl/src/lv_widgets/lv_tabview.c ****         }
 2789              		.loc 1 756 18 view .LVU793
 756:lvgl/src/lv_widgets/lv_tabview.c ****         }
 2790              		.loc 1 756 26 is_stmt 0 view .LVU794
 2791 011c 0133     		adds	r3, r3, #1
 2792 011e 0FFA83F8 		sxth	r8, r3
 2793              	.LVL373:
 756:lvgl/src/lv_widgets/lv_tabview.c ****         }
 2794              		.loc 1 756 26 view .LVU795
 2795 0122 DBE7     		b	.L155
 2796              	.L153:
 758:lvgl/src/lv_widgets/lv_tabview.c ****             if(base_dir != LV_BIDI_DIR_RTL) tab_cur++;
 2797              		.loc 1 758 14 is_stmt 1 view .LVU796
 758:lvgl/src/lv_widgets/lv_tabview.c ****             if(base_dir != LV_BIDI_DIR_RTL) tab_cur++;
 2798              		.loc 1 758 16 is_stmt 0 view .LVU797
 2799 0124 5545     		cmp	r5, r10
 2800 0126 D9DA     		bge	.L155
 759:lvgl/src/lv_widgets/lv_tabview.c ****             else tab_cur --;
 2801              		.loc 1 759 13 is_stmt 1 view .LVU798
 759:lvgl/src/lv_widgets/lv_tabview.c ****             else tab_cur --;
 2802              		.loc 1 759 15 is_stmt 0 view .LVU799
 2803 0128 0128     		cmp	r0, #1
 2804 012a 03D0     		beq	.L156
 759:lvgl/src/lv_widgets/lv_tabview.c ****             else tab_cur --;
 2805              		.loc 1 759 45 is_stmt 1 discriminator 1 view .LVU800
 759:lvgl/src/lv_widgets/lv_tabview.c ****             else tab_cur --;
 2806              		.loc 1 759 52 is_stmt 0 discriminator 1 view .LVU801
 2807 012c 0133     		adds	r3, r3, #1
 2808 012e 0FFA83F8 		sxth	r8, r3
 2809              	.LVL374:
 759:lvgl/src/lv_widgets/lv_tabview.c ****             else tab_cur --;
 2810              		.loc 1 759 52 discriminator 1 view .LVU802
 2811 0132 D3E7     		b	.L155
 2812              	.L156:
 760:lvgl/src/lv_widgets/lv_tabview.c ****         }
 2813              		.loc 1 760 18 is_stmt 1 view .LVU803
ARM GAS  D:\Temp\ccnA29ZW.s 			page 89


 760:lvgl/src/lv_widgets/lv_tabview.c ****         }
 2814              		.loc 1 760 26 is_stmt 0 view .LVU804
 2815 0134 013B     		subs	r3, r3, #1
 2816 0136 0FFA83F8 		sxth	r8, r3
 2817              	.LVL375:
 760:lvgl/src/lv_widgets/lv_tabview.c ****         }
 2818              		.loc 1 760 26 view .LVU805
 2819 013a CFE7     		b	.L155
 2820              	.L165:
 764:lvgl/src/lv_widgets/lv_tabview.c **** 
 2821              		.loc 1 764 33 view .LVU806
 2822 013c 4FF00008 		mov	r8, #0
 2823              	.LVL376:
 764:lvgl/src/lv_widgets/lv_tabview.c **** 
 2824              		.loc 1 764 33 view .LVU807
 2825 0140 D5E7     		b	.L158
 2826              	.L167:
 2827 0142 00BF     		.align	2
 2828              	.L166:
 2829 0144 00000000 		.word	.LANCHOR1
 2830 0148 00000000 		.word	.LC2
 2831 014c 1F85EB51 		.word	1374389535
 2832              	.LBE150:
 2833              		.cfi_endproc
 2834              	.LFE503:
 2836              		.section	.text.tabview_realign,"ax",%progbits
 2837              		.align	1
 2838              		.syntax unified
 2839              		.thumb
 2840              		.thumb_func
 2841              		.fpu fpv4-sp-d16
 2843              	tabview_realign:
 2844              	.LVL377:
 2845              	.LFB506:
 853:lvgl/src/lv_widgets/lv_tabview.c ****     lv_tabview_ext_t * ext = lv_obj_get_ext_attr(tabview);
 2846              		.loc 1 853 1 is_stmt 1 view -0
 2847              		.cfi_startproc
 2848              		@ args = 0, pretend = 0, frame = 0
 2849              		@ frame_needed = 0, uses_anonymous_args = 0
 853:lvgl/src/lv_widgets/lv_tabview.c ****     lv_tabview_ext_t * ext = lv_obj_get_ext_attr(tabview);
 2850              		.loc 1 853 1 is_stmt 0 view .LVU809
 2851 0000 38B5     		push	{r3, r4, r5, lr}
 2852              	.LCFI30:
 2853              		.cfi_def_cfa_offset 16
 2854              		.cfi_offset 3, -16
 2855              		.cfi_offset 4, -12
 2856              		.cfi_offset 5, -8
 2857              		.cfi_offset 14, -4
 2858 0002 0446     		mov	r4, r0
 854:lvgl/src/lv_widgets/lv_tabview.c **** 
 2859              		.loc 1 854 5 is_stmt 1 view .LVU810
 854:lvgl/src/lv_widgets/lv_tabview.c **** 
 2860              		.loc 1 854 30 is_stmt 0 view .LVU811
 2861 0004 FFF7FEFF 		bl	lv_obj_get_ext_attr
 2862              	.LVL378:
 854:lvgl/src/lv_widgets/lv_tabview.c **** 
 2863              		.loc 1 854 30 view .LVU812
ARM GAS  D:\Temp\ccnA29ZW.s 			page 90


 2864 0008 0546     		mov	r5, r0
 2865              	.LVL379:
 856:lvgl/src/lv_widgets/lv_tabview.c ****     refr_content_size(tabview);
 2866              		.loc 1 856 5 is_stmt 1 view .LVU813
 2867 000a 2046     		mov	r0, r4
 2868              	.LVL380:
 856:lvgl/src/lv_widgets/lv_tabview.c ****     refr_content_size(tabview);
 2869              		.loc 1 856 5 is_stmt 0 view .LVU814
 2870 000c FFF7FEFF 		bl	refr_btns_size
 2871              	.LVL381:
 857:lvgl/src/lv_widgets/lv_tabview.c ****     refr_indic_size(tabview);
 2872              		.loc 1 857 5 is_stmt 1 view .LVU815
 2873 0010 2046     		mov	r0, r4
 2874 0012 FFF7FEFF 		bl	refr_content_size
 2875              	.LVL382:
 858:lvgl/src/lv_widgets/lv_tabview.c **** 
 2876              		.loc 1 858 5 view .LVU816
 2877 0016 2046     		mov	r0, r4
 2878 0018 FFF7FEFF 		bl	refr_indic_size
 2879              	.LVL383:
 860:lvgl/src/lv_widgets/lv_tabview.c **** 
 2880              		.loc 1 860 5 view .LVU817
 2881 001c 2046     		mov	r0, r4
 2882 001e FFF7FEFF 		bl	refr_align
 2883              	.LVL384:
 862:lvgl/src/lv_widgets/lv_tabview.c **** }
 2884              		.loc 1 862 5 view .LVU818
 2885 0022 0022     		movs	r2, #0
 2886 0024 A98A     		ldrh	r1, [r5, #20]
 2887 0026 2046     		mov	r0, r4
 2888 0028 FFF7FEFF 		bl	lv_tabview_set_tab_act
 2889              	.LVL385:
 863:lvgl/src/lv_widgets/lv_tabview.c **** 
 2890              		.loc 1 863 1 is_stmt 0 view .LVU819
 2891 002c 38BD     		pop	{r3, r4, r5, pc}
 863:lvgl/src/lv_widgets/lv_tabview.c **** 
 2892              		.loc 1 863 1 view .LVU820
 2893              		.cfi_endproc
 2894              	.LFE506:
 2896              		.section	.text.lv_tabview_signal,"ax",%progbits
 2897              		.align	1
 2898              		.syntax unified
 2899              		.thumb
 2900              		.thumb_func
 2901              		.fpu fpv4-sp-d16
 2903              	lv_tabview_signal:
 2904              	.LVL386:
 2905              	.LFB502:
 604:lvgl/src/lv_widgets/lv_tabview.c ****     lv_res_t res;
 2906              		.loc 1 604 1 is_stmt 1 view -0
 2907              		.cfi_startproc
 2908              		@ args = 0, pretend = 0, frame = 0
 2909              		@ frame_needed = 0, uses_anonymous_args = 0
 604:lvgl/src/lv_widgets/lv_tabview.c ****     lv_res_t res;
 2910              		.loc 1 604 1 is_stmt 0 view .LVU822
 2911 0000 2DE9F843 		push	{r3, r4, r5, r6, r7, r8, r9, lr}
 2912              	.LCFI31:
ARM GAS  D:\Temp\ccnA29ZW.s 			page 91


 2913              		.cfi_def_cfa_offset 32
 2914              		.cfi_offset 3, -32
 2915              		.cfi_offset 4, -28
 2916              		.cfi_offset 5, -24
 2917              		.cfi_offset 6, -20
 2918              		.cfi_offset 7, -16
 2919              		.cfi_offset 8, -12
 2920              		.cfi_offset 9, -8
 2921              		.cfi_offset 14, -4
 2922 0004 8146     		mov	r9, r0
 2923 0006 0D46     		mov	r5, r1
 2924 0008 1746     		mov	r7, r2
 605:lvgl/src/lv_widgets/lv_tabview.c ****     if(sign == LV_SIGNAL_GET_STYLE) {
 2925              		.loc 1 605 5 is_stmt 1 view .LVU823
 606:lvgl/src/lv_widgets/lv_tabview.c ****         lv_get_style_info_t * info = param;
 2926              		.loc 1 606 5 view .LVU824
 606:lvgl/src/lv_widgets/lv_tabview.c ****         lv_get_style_info_t * info = param;
 2927              		.loc 1 606 7 is_stmt 0 view .LVU825
 2928 000a 0829     		cmp	r1, #8
 2929 000c 1BD0     		beq	.L198
 612:lvgl/src/lv_widgets/lv_tabview.c ****         lv_tabview_ext_t * ext = lv_obj_get_ext_attr(tabview);
 2930              		.loc 1 612 10 is_stmt 1 view .LVU826
 612:lvgl/src/lv_widgets/lv_tabview.c ****         lv_tabview_ext_t * ext = lv_obj_get_ext_attr(tabview);
 2931              		.loc 1 612 12 is_stmt 0 view .LVU827
 2932 000e 0929     		cmp	r1, #9
 2933 0010 28D0     		beq	.L199
 624:lvgl/src/lv_widgets/lv_tabview.c ****     if(res != LV_RES_OK) return res;
 2934              		.loc 1 624 5 is_stmt 1 view .LVU828
 624:lvgl/src/lv_widgets/lv_tabview.c ****     if(res != LV_RES_OK) return res;
 2935              		.loc 1 624 11 is_stmt 0 view .LVU829
 2936 0012 7F4B     		ldr	r3, .L212
 2937 0014 1B68     		ldr	r3, [r3]
 2938 0016 9847     		blx	r3
 2939              	.LVL387:
 624:lvgl/src/lv_widgets/lv_tabview.c ****     if(res != LV_RES_OK) return res;
 2940              		.loc 1 624 11 view .LVU830
 2941 0018 0646     		mov	r6, r0
 2942              	.LVL388:
 625:lvgl/src/lv_widgets/lv_tabview.c ****     if(sign == LV_SIGNAL_GET_TYPE) return lv_obj_handle_get_type_signal(param, LV_OBJX_NAME);
 2943              		.loc 1 625 5 is_stmt 1 view .LVU831
 625:lvgl/src/lv_widgets/lv_tabview.c ****     if(sign == LV_SIGNAL_GET_TYPE) return lv_obj_handle_get_type_signal(param, LV_OBJX_NAME);
 2944              		.loc 1 625 7 is_stmt 0 view .LVU832
 2945 001a 0128     		cmp	r0, #1
 2946 001c 76D1     		bne	.L172
 626:lvgl/src/lv_widgets/lv_tabview.c **** 
 2947              		.loc 1 626 5 is_stmt 1 view .LVU833
 626:lvgl/src/lv_widgets/lv_tabview.c **** 
 2948              		.loc 1 626 7 is_stmt 0 view .LVU834
 2949 001e 072D     		cmp	r5, #7
 2950 0020 45D0     		beq	.L200
 628:lvgl/src/lv_widgets/lv_tabview.c ****     if(sign == LV_SIGNAL_CLEANUP) {
 2951              		.loc 1 628 5 is_stmt 1 view .LVU835
 628:lvgl/src/lv_widgets/lv_tabview.c ****     if(sign == LV_SIGNAL_CLEANUP) {
 2952              		.loc 1 628 30 is_stmt 0 view .LVU836
 2953 0022 4846     		mov	r0, r9
 2954              	.LVL389:
 628:lvgl/src/lv_widgets/lv_tabview.c ****     if(sign == LV_SIGNAL_CLEANUP) {
ARM GAS  D:\Temp\ccnA29ZW.s 			page 92


 2955              		.loc 1 628 30 view .LVU837
 2956 0024 FFF7FEFF 		bl	lv_obj_get_ext_attr
 2957              	.LVL390:
 2958 0028 8046     		mov	r8, r0
 2959              	.LVL391:
 629:lvgl/src/lv_widgets/lv_tabview.c ****         uint8_t i;
 2960              		.loc 1 629 5 is_stmt 1 view .LVU838
 629:lvgl/src/lv_widgets/lv_tabview.c ****         uint8_t i;
 2961              		.loc 1 629 7 is_stmt 0 view .LVU839
 2962 002a 002D     		cmp	r5, #0
 2963 002c 71D0     		beq	.L195
 638:lvgl/src/lv_widgets/lv_tabview.c ****         /*Be sure the buttons are updated because correct button size is required in `tabview_reali
 2964              		.loc 1 638 10 is_stmt 1 view .LVU840
 638:lvgl/src/lv_widgets/lv_tabview.c ****         /*Be sure the buttons are updated because correct button size is required in `tabview_reali
 2965              		.loc 1 638 12 is_stmt 0 view .LVU841
 2966 002e 042D     		cmp	r5, #4
 2967 0030 71D0     		beq	.L201
 644:lvgl/src/lv_widgets/lv_tabview.c ****         if(ext->content != NULL && (lv_obj_get_width(tabview) != lv_area_get_width(param) ||
 2968              		.loc 1 644 10 is_stmt 1 view .LVU842
 644:lvgl/src/lv_widgets/lv_tabview.c ****         if(ext->content != NULL && (lv_obj_get_width(tabview) != lv_area_get_width(param) ||
 2969              		.loc 1 644 12 is_stmt 0 view .LVU843
 2970 0032 022D     		cmp	r5, #2
 2971 0034 78D0     		beq	.L202
 650:lvgl/src/lv_widgets/lv_tabview.c **** #if LV_USE_GROUP
 2972              		.loc 1 650 10 is_stmt 1 view .LVU844
 650:lvgl/src/lv_widgets/lv_tabview.c **** #if LV_USE_GROUP
 2973              		.loc 1 650 12 is_stmt 0 view .LVU845
 2974 0036 0E2D     		cmp	r5, #14
 2975 0038 00F09480 		beq	.L203
 662:lvgl/src/lv_widgets/lv_tabview.c **** #if LV_USE_GROUP
 2976              		.loc 1 662 10 is_stmt 1 view .LVU846
 662:lvgl/src/lv_widgets/lv_tabview.c **** #if LV_USE_GROUP
 2977              		.loc 1 662 12 is_stmt 0 view .LVU847
 2978 003c 192D     		cmp	r5, #25
 2979 003e 52D1     		bne	.L183
 2980              	.LBB151:
 664:lvgl/src/lv_widgets/lv_tabview.c ****         *editable       = true;
 2981              		.loc 1 664 9 is_stmt 1 view .LVU848
 2982              	.LVL392:
 665:lvgl/src/lv_widgets/lv_tabview.c **** #endif
 2983              		.loc 1 665 9 view .LVU849
 665:lvgl/src/lv_widgets/lv_tabview.c **** #endif
 2984              		.loc 1 665 25 is_stmt 0 view .LVU850
 2985 0040 0123     		movs	r3, #1
 2986 0042 3B70     		strb	r3, [r7]
 2987 0044 4FE0     		b	.L183
 2988              	.LVL393:
 2989              	.L198:
 665:lvgl/src/lv_widgets/lv_tabview.c **** #endif
 2990              		.loc 1 665 25 view .LVU851
 2991              	.LBE151:
 2992              	.LBB152:
 607:lvgl/src/lv_widgets/lv_tabview.c ****         info->result = lv_tabview_get_style(tabview, info->part);
 2993              		.loc 1 607 9 is_stmt 1 view .LVU852
 608:lvgl/src/lv_widgets/lv_tabview.c ****         if(info->result != NULL) return LV_RES_OK;
 2994              		.loc 1 608 9 view .LVU853
 608:lvgl/src/lv_widgets/lv_tabview.c ****         if(info->result != NULL) return LV_RES_OK;
ARM GAS  D:\Temp\ccnA29ZW.s 			page 93


 2995              		.loc 1 608 24 is_stmt 0 view .LVU854
 2996 0046 1178     		ldrb	r1, [r2]	@ zero_extendqisi2
 2997              	.LVL394:
 608:lvgl/src/lv_widgets/lv_tabview.c ****         if(info->result != NULL) return LV_RES_OK;
 2998              		.loc 1 608 24 view .LVU855
 2999 0048 FFF7FEFF 		bl	lv_tabview_get_style
 3000              	.LVL395:
 608:lvgl/src/lv_widgets/lv_tabview.c ****         if(info->result != NULL) return LV_RES_OK;
 3001              		.loc 1 608 22 view .LVU856
 3002 004c 7860     		str	r0, [r7, #4]
 609:lvgl/src/lv_widgets/lv_tabview.c ****         else return ancestor_signal(tabview, sign, param);
 3003              		.loc 1 609 9 is_stmt 1 view .LVU857
 609:lvgl/src/lv_widgets/lv_tabview.c ****         else return ancestor_signal(tabview, sign, param);
 3004              		.loc 1 609 11 is_stmt 0 view .LVU858
 3005 004e 08B1     		cbz	r0, .L204
 609:lvgl/src/lv_widgets/lv_tabview.c ****         else return ancestor_signal(tabview, sign, param);
 3006              		.loc 1 609 41 view .LVU859
 3007 0050 0126     		movs	r6, #1
 3008 0052 5BE0     		b	.L172
 3009              	.L204:
 610:lvgl/src/lv_widgets/lv_tabview.c ****     }
 3010              		.loc 1 610 14 is_stmt 1 view .LVU860
 610:lvgl/src/lv_widgets/lv_tabview.c ****     }
 3011              		.loc 1 610 21 is_stmt 0 view .LVU861
 3012 0054 6E4B     		ldr	r3, .L212
 3013 0056 1B68     		ldr	r3, [r3]
 3014 0058 3A46     		mov	r2, r7
 3015 005a 2946     		mov	r1, r5
 3016 005c 4846     		mov	r0, r9
 3017 005e 9847     		blx	r3
 3018              	.LVL396:
 3019 0060 0646     		mov	r6, r0
 3020 0062 53E0     		b	.L172
 3021              	.LVL397:
 3022              	.L199:
 610:lvgl/src/lv_widgets/lv_tabview.c ****     }
 3023              		.loc 1 610 21 view .LVU862
 3024              	.LBE152:
 3025              	.LBB153:
 613:lvgl/src/lv_widgets/lv_tabview.c ****         lv_get_state_info_t * info = param;
 3026              		.loc 1 613 9 is_stmt 1 view .LVU863
 613:lvgl/src/lv_widgets/lv_tabview.c ****         lv_get_state_info_t * info = param;
 3027              		.loc 1 613 34 is_stmt 0 view .LVU864
 3028 0064 FFF7FEFF 		bl	lv_obj_get_ext_attr
 3029              	.LVL398:
 614:lvgl/src/lv_widgets/lv_tabview.c ****         if(info->part == LV_TABVIEW_PART_TAB_BG) info->result = lv_obj_get_state(ext->btns, LV_BTNM
 3030              		.loc 1 614 9 is_stmt 1 view .LVU865
 615:lvgl/src/lv_widgets/lv_tabview.c ****         else if(info->part == LV_TABVIEW_PART_TAB_BTN) info->result = lv_obj_get_state(ext->btns, L
 3031              		.loc 1 615 9 view .LVU866
 615:lvgl/src/lv_widgets/lv_tabview.c ****         else if(info->part == LV_TABVIEW_PART_TAB_BTN) info->result = lv_obj_get_state(ext->btns, L
 3032              		.loc 1 615 16 is_stmt 0 view .LVU867
 3033 0068 3B78     		ldrb	r3, [r7]	@ zero_extendqisi2
 615:lvgl/src/lv_widgets/lv_tabview.c ****         else if(info->part == LV_TABVIEW_PART_TAB_BTN) info->result = lv_obj_get_state(ext->btns, L
 3034              		.loc 1 615 11 view .LVU868
 3035 006a 412B     		cmp	r3, #65
 3036 006c 07D0     		beq	.L205
 616:lvgl/src/lv_widgets/lv_tabview.c ****         else if(info->part == LV_TABVIEW_PART_INDIC) info->result = lv_obj_get_state(ext->indic, LV
ARM GAS  D:\Temp\ccnA29ZW.s 			page 94


 3037              		.loc 1 616 14 is_stmt 1 view .LVU869
 616:lvgl/src/lv_widgets/lv_tabview.c ****         else if(info->part == LV_TABVIEW_PART_INDIC) info->result = lv_obj_get_state(ext->indic, LV
 3038              		.loc 1 616 16 is_stmt 0 view .LVU870
 3039 006e 422B     		cmp	r3, #66
 3040 0070 0BD0     		beq	.L206
 617:lvgl/src/lv_widgets/lv_tabview.c ****         else if(info->part == LV_TABVIEW_PART_BG_SCROLLABLE) info->result = lv_obj_get_state(ext->c
 3041              		.loc 1 617 14 is_stmt 1 view .LVU871
 617:lvgl/src/lv_widgets/lv_tabview.c ****         else if(info->part == LV_TABVIEW_PART_BG_SCROLLABLE) info->result = lv_obj_get_state(ext->c
 3042              		.loc 1 617 16 is_stmt 0 view .LVU872
 3043 0072 432B     		cmp	r3, #67
 3044 0074 0FD0     		beq	.L207
 618:lvgl/src/lv_widgets/lv_tabview.c ****                                                                                                  LV
 3045              		.loc 1 618 14 is_stmt 1 view .LVU873
 618:lvgl/src/lv_widgets/lv_tabview.c ****                                                                                                  LV
 3046              		.loc 1 618 16 is_stmt 0 view .LVU874
 3047 0076 402B     		cmp	r3, #64
 3048 0078 13D0     		beq	.L208
 3049              	.LVL399:
 3050              	.L175:
 620:lvgl/src/lv_widgets/lv_tabview.c ****     }
 3051              		.loc 1 620 9 is_stmt 1 view .LVU875
 620:lvgl/src/lv_widgets/lv_tabview.c ****     }
 3052              		.loc 1 620 16 is_stmt 0 view .LVU876
 3053 007a 0126     		movs	r6, #1
 3054 007c 46E0     		b	.L172
 3055              	.LVL400:
 3056              	.L205:
 615:lvgl/src/lv_widgets/lv_tabview.c ****         else if(info->part == LV_TABVIEW_PART_TAB_BTN) info->result = lv_obj_get_state(ext->btns, L
 3057              		.loc 1 615 50 is_stmt 1 discriminator 1 view .LVU877
 615:lvgl/src/lv_widgets/lv_tabview.c ****         else if(info->part == LV_TABVIEW_PART_TAB_BTN) info->result = lv_obj_get_state(ext->btns, L
 3058              		.loc 1 615 65 is_stmt 0 discriminator 1 view .LVU878
 3059 007e 0021     		movs	r1, #0
 3060 0080 0068     		ldr	r0, [r0]
 3061              	.LVL401:
 615:lvgl/src/lv_widgets/lv_tabview.c ****         else if(info->part == LV_TABVIEW_PART_TAB_BTN) info->result = lv_obj_get_state(ext->btns, L
 3062              		.loc 1 615 65 discriminator 1 view .LVU879
 3063 0082 FFF7FEFF 		bl	lv_obj_get_state
 3064              	.LVL402:
 615:lvgl/src/lv_widgets/lv_tabview.c ****         else if(info->part == LV_TABVIEW_PART_TAB_BTN) info->result = lv_obj_get_state(ext->btns, L
 3065              		.loc 1 615 63 discriminator 1 view .LVU880
 3066 0086 7870     		strb	r0, [r7, #1]
 3067 0088 F7E7     		b	.L175
 3068              	.LVL403:
 3069              	.L206:
 616:lvgl/src/lv_widgets/lv_tabview.c ****         else if(info->part == LV_TABVIEW_PART_INDIC) info->result = lv_obj_get_state(ext->indic, LV
 3070              		.loc 1 616 56 is_stmt 1 discriminator 1 view .LVU881
 616:lvgl/src/lv_widgets/lv_tabview.c ****         else if(info->part == LV_TABVIEW_PART_INDIC) info->result = lv_obj_get_state(ext->indic, LV
 3071              		.loc 1 616 71 is_stmt 0 discriminator 1 view .LVU882
 3072 008a 0121     		movs	r1, #1
 3073 008c 0068     		ldr	r0, [r0]
 3074              	.LVL404:
 616:lvgl/src/lv_widgets/lv_tabview.c ****         else if(info->part == LV_TABVIEW_PART_INDIC) info->result = lv_obj_get_state(ext->indic, LV
 3075              		.loc 1 616 71 discriminator 1 view .LVU883
 3076 008e FFF7FEFF 		bl	lv_obj_get_state
 3077              	.LVL405:
 616:lvgl/src/lv_widgets/lv_tabview.c ****         else if(info->part == LV_TABVIEW_PART_INDIC) info->result = lv_obj_get_state(ext->indic, LV
 3078              		.loc 1 616 69 discriminator 1 view .LVU884
ARM GAS  D:\Temp\ccnA29ZW.s 			page 95


 3079 0092 7870     		strb	r0, [r7, #1]
 3080 0094 F1E7     		b	.L175
 3081              	.LVL406:
 3082              	.L207:
 617:lvgl/src/lv_widgets/lv_tabview.c ****         else if(info->part == LV_TABVIEW_PART_BG_SCROLLABLE) info->result = lv_obj_get_state(ext->c
 3083              		.loc 1 617 54 is_stmt 1 discriminator 1 view .LVU885
 617:lvgl/src/lv_widgets/lv_tabview.c ****         else if(info->part == LV_TABVIEW_PART_BG_SCROLLABLE) info->result = lv_obj_get_state(ext->c
 3084              		.loc 1 617 69 is_stmt 0 discriminator 1 view .LVU886
 3085 0096 0021     		movs	r1, #0
 3086 0098 4068     		ldr	r0, [r0, #4]
 3087              	.LVL407:
 617:lvgl/src/lv_widgets/lv_tabview.c ****         else if(info->part == LV_TABVIEW_PART_BG_SCROLLABLE) info->result = lv_obj_get_state(ext->c
 3088              		.loc 1 617 69 discriminator 1 view .LVU887
 3089 009a FFF7FEFF 		bl	lv_obj_get_state
 3090              	.LVL408:
 617:lvgl/src/lv_widgets/lv_tabview.c ****         else if(info->part == LV_TABVIEW_PART_BG_SCROLLABLE) info->result = lv_obj_get_state(ext->c
 3091              		.loc 1 617 67 discriminator 1 view .LVU888
 3092 009e 7870     		strb	r0, [r7, #1]
 3093 00a0 EBE7     		b	.L175
 3094              	.LVL409:
 3095              	.L208:
 618:lvgl/src/lv_widgets/lv_tabview.c ****                                                                                                  LV
 3096              		.loc 1 618 62 is_stmt 1 discriminator 1 view .LVU889
 618:lvgl/src/lv_widgets/lv_tabview.c ****                                                                                                  LV
 3097              		.loc 1 618 77 is_stmt 0 discriminator 1 view .LVU890
 3098 00a2 4021     		movs	r1, #64
 3099 00a4 8068     		ldr	r0, [r0, #8]
 3100              	.LVL410:
 618:lvgl/src/lv_widgets/lv_tabview.c ****                                                                                                  LV
 3101              		.loc 1 618 77 discriminator 1 view .LVU891
 3102 00a6 FFF7FEFF 		bl	lv_obj_get_state
 3103              	.LVL411:
 618:lvgl/src/lv_widgets/lv_tabview.c ****                                                                                                  LV
 3104              		.loc 1 618 75 discriminator 1 view .LVU892
 3105 00aa 7870     		strb	r0, [r7, #1]
 3106 00ac E5E7     		b	.L175
 3107              	.LVL412:
 3108              	.L200:
 618:lvgl/src/lv_widgets/lv_tabview.c ****                                                                                                  LV
 3109              		.loc 1 618 75 discriminator 1 view .LVU893
 3110              	.LBE153:
 626:lvgl/src/lv_widgets/lv_tabview.c **** 
 3111              		.loc 1 626 36 is_stmt 1 discriminator 1 view .LVU894
 626:lvgl/src/lv_widgets/lv_tabview.c **** 
 3112              		.loc 1 626 43 is_stmt 0 discriminator 1 view .LVU895
 3113 00ae 5949     		ldr	r1, .L212+4
 3114 00b0 3846     		mov	r0, r7
 3115              	.LVL413:
 626:lvgl/src/lv_widgets/lv_tabview.c **** 
 3116              		.loc 1 626 43 discriminator 1 view .LVU896
 3117 00b2 FFF7FEFF 		bl	lv_obj_handle_get_type_signal
 3118              	.LVL414:
 3119 00b6 0646     		mov	r6, r0
 3120 00b8 28E0     		b	.L172
 3121              	.LVL415:
 3122              	.L182:
 3123              	.LBB154:
ARM GAS  D:\Temp\ccnA29ZW.s 			page 96


 631:lvgl/src/lv_widgets/lv_tabview.c **** 
 3124              		.loc 1 631 93 is_stmt 1 discriminator 4 view .LVU897
 3125 00ba FFF7FEFF 		bl	lv_mem_free
 3126              	.LVL416:
 631:lvgl/src/lv_widgets/lv_tabview.c **** 
 3127              		.loc 1 631 89 is_stmt 0 discriminator 4 view .LVU898
 3128 00be 0134     		adds	r4, r4, #1
 3129              	.LVL417:
 631:lvgl/src/lv_widgets/lv_tabview.c **** 
 3130              		.loc 1 631 89 discriminator 4 view .LVU899
 3131 00c0 E4B2     		uxtb	r4, r4
 3132              	.LVL418:
 3133              	.L179:
 631:lvgl/src/lv_widgets/lv_tabview.c **** 
 3134              		.loc 1 631 23 discriminator 1 view .LVU900
 3135 00c2 D8F80C20 		ldr	r2, [r8, #12]
 631:lvgl/src/lv_widgets/lv_tabview.c **** 
 3136              		.loc 1 631 37 discriminator 1 view .LVU901
 3137 00c6 52F82400 		ldr	r0, [r2, r4, lsl #2]
 631:lvgl/src/lv_widgets/lv_tabview.c **** 
 3138              		.loc 1 631 40 discriminator 1 view .LVU902
 3139 00ca 0378     		ldrb	r3, [r0]	@ zero_extendqisi2
 631:lvgl/src/lv_widgets/lv_tabview.c **** 
 3140              		.loc 1 631 9 discriminator 1 view .LVU903
 3141 00cc 0BB1     		cbz	r3, .L181
 631:lvgl/src/lv_widgets/lv_tabview.c **** 
 3142              		.loc 1 631 52 discriminator 3 view .LVU904
 3143 00ce 0A2B     		cmp	r3, #10
 3144 00d0 F3D1     		bne	.L182
 3145              	.L181:
 633:lvgl/src/lv_widgets/lv_tabview.c ****         ext->tab_name_ptr = NULL;
 3146              		.loc 1 633 9 is_stmt 1 view .LVU905
 3147 00d2 1046     		mov	r0, r2
 3148 00d4 FFF7FEFF 		bl	lv_mem_free
 3149              	.LVL419:
 634:lvgl/src/lv_widgets/lv_tabview.c ****         ext->btns         = NULL; /*These objects were children so they are already invalid*/
 3150              		.loc 1 634 9 view .LVU906
 634:lvgl/src/lv_widgets/lv_tabview.c ****         ext->btns         = NULL; /*These objects were children so they are already invalid*/
 3151              		.loc 1 634 27 is_stmt 0 view .LVU907
 3152 00d8 0023     		movs	r3, #0
 3153 00da C8F80C30 		str	r3, [r8, #12]
 635:lvgl/src/lv_widgets/lv_tabview.c ****         ext->content      = NULL;
 3154              		.loc 1 635 9 is_stmt 1 view .LVU908
 635:lvgl/src/lv_widgets/lv_tabview.c ****         ext->content      = NULL;
 3155              		.loc 1 635 27 is_stmt 0 view .LVU909
 3156 00de C8F80030 		str	r3, [r8]
 636:lvgl/src/lv_widgets/lv_tabview.c ****     }
 3157              		.loc 1 636 9 is_stmt 1 view .LVU910
 636:lvgl/src/lv_widgets/lv_tabview.c ****     }
 3158              		.loc 1 636 27 is_stmt 0 view .LVU911
 3159 00e2 C8F80830 		str	r3, [r8, #8]
 3160              	.LVL420:
 3161              	.L183:
 636:lvgl/src/lv_widgets/lv_tabview.c ****     }
 3162              		.loc 1 636 27 view .LVU912
 3163              	.LBE154:
 669:lvgl/src/lv_widgets/lv_tabview.c **** #if LV_USE_GROUP
ARM GAS  D:\Temp\ccnA29ZW.s 			page 97


 3164              		.loc 1 669 5 is_stmt 1 view .LVU913
 669:lvgl/src/lv_widgets/lv_tabview.c **** #if LV_USE_GROUP
 3165              		.loc 1 669 61 is_stmt 0 view .LVU914
 3166 00e6 A5F11604 		sub	r4, r5, #22
 3167 00ea E4B2     		uxtb	r4, r4
 669:lvgl/src/lv_widgets/lv_tabview.c **** #if LV_USE_GROUP
 3168              		.loc 1 669 7 view .LVU915
 3169 00ec 022C     		cmp	r4, #2
 3170 00ee 03D9     		bls	.L189
 671:lvgl/src/lv_widgets/lv_tabview.c **** #endif
 3171              		.loc 1 671 34 view .LVU916
 3172 00f0 0B2D     		cmp	r5, #11
 3173 00f2 01D0     		beq	.L189
 673:lvgl/src/lv_widgets/lv_tabview.c **** 
 3174              		.loc 1 673 34 view .LVU917
 3175 00f4 0E2D     		cmp	r5, #14
 3176 00f6 09D1     		bne	.L172
 3177              	.L189:
 677:lvgl/src/lv_widgets/lv_tabview.c **** 
 3178              		.loc 1 677 9 is_stmt 1 view .LVU918
 677:lvgl/src/lv_widgets/lv_tabview.c **** 
 3179              		.loc 1 677 12 is_stmt 0 view .LVU919
 3180 00f8 D8F80000 		ldr	r0, [r8]
 677:lvgl/src/lv_widgets/lv_tabview.c **** 
 3181              		.loc 1 677 18 view .LVU920
 3182 00fc C369     		ldr	r3, [r0, #28]
 677:lvgl/src/lv_widgets/lv_tabview.c **** 
 3183              		.loc 1 677 9 view .LVU921
 3184 00fe 3A46     		mov	r2, r7
 3185 0100 2946     		mov	r1, r5
 3186 0102 9847     		blx	r3
 3187              	.LVL421:
 680:lvgl/src/lv_widgets/lv_tabview.c ****             lv_btnmatrix_set_focused_btn(ext->btns, ext->tab_cur);
 3188              		.loc 1 680 9 is_stmt 1 view .LVU922
 680:lvgl/src/lv_widgets/lv_tabview.c ****             lv_btnmatrix_set_focused_btn(ext->btns, ext->tab_cur);
 3189              		.loc 1 680 11 is_stmt 0 view .LVU923
 3190 0104 162D     		cmp	r5, #22
 3191 0106 46D0     		beq	.L209
 3192              	.L190:
 684:lvgl/src/lv_widgets/lv_tabview.c ****             lv_state_t state = lv_obj_get_state(tabview, LV_TABVIEW_PART_BG);
 3193              		.loc 1 684 9 is_stmt 1 view .LVU924
 684:lvgl/src/lv_widgets/lv_tabview.c ****             lv_state_t state = lv_obj_get_state(tabview, LV_TABVIEW_PART_BG);
 3194              		.loc 1 684 11 is_stmt 0 view .LVU925
 3195 0108 012C     		cmp	r4, #1
 3196 010a 4BD9     		bls	.L210
 3197              	.LVL422:
 3198              	.L172:
 708:lvgl/src/lv_widgets/lv_tabview.c **** 
 3199              		.loc 1 708 1 view .LVU926
 3200 010c 3046     		mov	r0, r6
 3201 010e BDE8F883 		pop	{r3, r4, r5, r6, r7, r8, r9, pc}
 3202              	.LVL423:
 3203              	.L195:
 3204              	.LBB155:
 631:lvgl/src/lv_widgets/lv_tabview.c **** 
 3205              		.loc 1 631 15 view .LVU927
 3206 0112 0024     		movs	r4, #0
ARM GAS  D:\Temp\ccnA29ZW.s 			page 98


 3207 0114 D5E7     		b	.L179
 3208              	.L201:
 3209              	.LBE155:
 640:lvgl/src/lv_widgets/lv_tabview.c **** 
 3210              		.loc 1 640 9 is_stmt 1 view .LVU928
 3211 0116 0022     		movs	r2, #0
 3212 0118 0421     		movs	r1, #4
 3213 011a 0068     		ldr	r0, [r0]
 3214              	.LVL424:
 640:lvgl/src/lv_widgets/lv_tabview.c **** 
 3215              		.loc 1 640 9 is_stmt 0 view .LVU929
 3216 011c FFF7FEFF 		bl	lv_signal_send
 3217              	.LVL425:
 642:lvgl/src/lv_widgets/lv_tabview.c ****     }
 3218              		.loc 1 642 9 is_stmt 1 view .LVU930
 3219 0120 4846     		mov	r0, r9
 3220 0122 FFF7FEFF 		bl	tabview_realign
 3221              	.LVL426:
 3222 0126 DEE7     		b	.L183
 3223              	.LVL427:
 3224              	.L202:
 645:lvgl/src/lv_widgets/lv_tabview.c ****                                     lv_obj_get_height(tabview) != lv_area_get_height(param))) {
 3225              		.loc 1 645 9 view .LVU931
 645:lvgl/src/lv_widgets/lv_tabview.c ****                                     lv_obj_get_height(tabview) != lv_area_get_height(param))) {
 3226              		.loc 1 645 15 is_stmt 0 view .LVU932
 3227 0128 8368     		ldr	r3, [r0, #8]
 645:lvgl/src/lv_widgets/lv_tabview.c ****                                     lv_obj_get_height(tabview) != lv_area_get_height(param))) {
 3228              		.loc 1 645 11 view .LVU933
 3229 012a 002B     		cmp	r3, #0
 3230 012c DBD0     		beq	.L183
 645:lvgl/src/lv_widgets/lv_tabview.c ****                                     lv_obj_get_height(tabview) != lv_area_get_height(param))) {
 3231              		.loc 1 645 37 discriminator 1 view .LVU934
 3232 012e 4846     		mov	r0, r9
 3233              	.LVL428:
 645:lvgl/src/lv_widgets/lv_tabview.c ****                                     lv_obj_get_height(tabview) != lv_area_get_height(param))) {
 3234              		.loc 1 645 37 discriminator 1 view .LVU935
 3235 0130 FFF7FEFF 		bl	lv_obj_get_width
 3236              	.LVL429:
 3237              	.LBB156:
 3238              	.LBI156:
 107:d:\_project\stm32\f407\hack_rf_new\lvgl\src\lv_misc\lv_area.h **** {
 3239              		.loc 4 107 26 is_stmt 1 discriminator 1 view .LVU936
 3240              	.LBB157:
 109:d:\_project\stm32\f407\hack_rf_new\lvgl\src\lv_misc\lv_area.h **** }
 3241              		.loc 4 109 5 discriminator 1 view .LVU937
 109:d:\_project\stm32\f407\hack_rf_new\lvgl\src\lv_misc\lv_area.h **** }
 3242              		.loc 4 109 31 is_stmt 0 discriminator 1 view .LVU938
 3243 0134 BB88     		ldrh	r3, [r7, #4]
 109:d:\_project\stm32\f407\hack_rf_new\lvgl\src\lv_misc\lv_area.h **** }
 3244              		.loc 4 109 44 discriminator 1 view .LVU939
 3245 0136 3A88     		ldrh	r2, [r7]
 109:d:\_project\stm32\f407\hack_rf_new\lvgl\src\lv_misc\lv_area.h **** }
 3246              		.loc 4 109 36 discriminator 1 view .LVU940
 3247 0138 9B1A     		subs	r3, r3, r2
 3248 013a 9BB2     		uxth	r3, r3
 109:d:\_project\stm32\f407\hack_rf_new\lvgl\src\lv_misc\lv_area.h **** }
 3249              		.loc 4 109 49 discriminator 1 view .LVU941
ARM GAS  D:\Temp\ccnA29ZW.s 			page 99


 3250 013c 0133     		adds	r3, r3, #1
 109:d:\_project\stm32\f407\hack_rf_new\lvgl\src\lv_misc\lv_area.h **** }
 3251              		.loc 4 109 12 discriminator 1 view .LVU942
 3252 013e 1BB2     		sxth	r3, r3
 3253              	.LVL430:
 109:d:\_project\stm32\f407\hack_rf_new\lvgl\src\lv_misc\lv_area.h **** }
 3254              		.loc 4 109 12 discriminator 1 view .LVU943
 3255              	.LBE157:
 3256              	.LBE156:
 645:lvgl/src/lv_widgets/lv_tabview.c ****                                     lv_obj_get_height(tabview) != lv_area_get_height(param))) {
 3257              		.loc 1 645 33 discriminator 1 view .LVU944
 3258 0140 9842     		cmp	r0, r3
 3259 0142 03D0     		beq	.L211
 3260              	.L186:
 647:lvgl/src/lv_widgets/lv_tabview.c ****         }
 3261              		.loc 1 647 13 is_stmt 1 view .LVU945
 3262 0144 4846     		mov	r0, r9
 3263 0146 FFF7FEFF 		bl	tabview_realign
 3264              	.LVL431:
 3265 014a CCE7     		b	.L183
 3266              	.L211:
 646:lvgl/src/lv_widgets/lv_tabview.c ****             tabview_realign(tabview);
 3267              		.loc 1 646 37 is_stmt 0 discriminator 2 view .LVU946
 3268 014c 4846     		mov	r0, r9
 3269 014e FFF7FEFF 		bl	lv_obj_get_height
 3270              	.LVL432:
 3271              	.LBB158:
 3272              	.LBI158:
 117:d:\_project\stm32\f407\hack_rf_new\lvgl\src\lv_misc\lv_area.h **** {
 3273              		.loc 4 117 26 is_stmt 1 discriminator 2 view .LVU947
 3274              	.LBB159:
 3275              		.loc 4 119 5 discriminator 2 view .LVU948
 3276              		.loc 4 119 31 is_stmt 0 discriminator 2 view .LVU949
 3277 0152 FB88     		ldrh	r3, [r7, #6]
 3278              		.loc 4 119 44 discriminator 2 view .LVU950
 3279 0154 7A88     		ldrh	r2, [r7, #2]
 3280              		.loc 4 119 36 discriminator 2 view .LVU951
 3281 0156 9B1A     		subs	r3, r3, r2
 3282 0158 9BB2     		uxth	r3, r3
 3283              		.loc 4 119 49 discriminator 2 view .LVU952
 3284 015a 0133     		adds	r3, r3, #1
 3285              		.loc 4 119 12 discriminator 2 view .LVU953
 3286 015c 1BB2     		sxth	r3, r3
 3287              	.LVL433:
 3288              		.loc 4 119 12 discriminator 2 view .LVU954
 3289              	.LBE159:
 3290              	.LBE158:
 645:lvgl/src/lv_widgets/lv_tabview.c ****                                     lv_obj_get_height(tabview) != lv_area_get_height(param))) {
 3291              		.loc 1 645 91 discriminator 2 view .LVU955
 3292 015e 9842     		cmp	r0, r3
 3293 0160 F0D1     		bne	.L186
 3294 0162 C0E7     		b	.L183
 3295              	.LVL434:
 3296              	.L203:
 3297              	.LBB160:
 654:lvgl/src/lv_widgets/lv_tabview.c ****         lv_indev_type_t indev_type = lv_indev_get_type(indev);
 3298              		.loc 1 654 9 is_stmt 1 view .LVU956
ARM GAS  D:\Temp\ccnA29ZW.s 			page 100


 654:lvgl/src/lv_widgets/lv_tabview.c ****         lv_indev_type_t indev_type = lv_indev_get_type(indev);
 3299              		.loc 1 654 38 is_stmt 0 view .LVU957
 3300 0164 FFF7FEFF 		bl	lv_indev_get_act
 3301              	.LVL435:
 655:lvgl/src/lv_widgets/lv_tabview.c ****         if(indev_type == LV_INDEV_TYPE_KEYPAD ||
 3302              		.loc 1 655 9 is_stmt 1 view .LVU958
 655:lvgl/src/lv_widgets/lv_tabview.c ****         if(indev_type == LV_INDEV_TYPE_KEYPAD ||
 3303              		.loc 1 655 38 is_stmt 0 view .LVU959
 3304 0168 FFF7FEFF 		bl	lv_indev_get_type
 3305              	.LVL436:
 656:lvgl/src/lv_widgets/lv_tabview.c ****            (indev_type == LV_INDEV_TYPE_ENCODER && lv_group_get_editing(lv_obj_get_group(tabview)))
 3306              		.loc 1 656 9 is_stmt 1 view .LVU960
 656:lvgl/src/lv_widgets/lv_tabview.c ****            (indev_type == LV_INDEV_TYPE_ENCODER && lv_group_get_editing(lv_obj_get_group(tabview)))
 3307              		.loc 1 656 11 is_stmt 0 view .LVU961
 3308 016c 0228     		cmp	r0, #2
 3309 016e 08D0     		beq	.L188
 656:lvgl/src/lv_widgets/lv_tabview.c ****            (indev_type == LV_INDEV_TYPE_ENCODER && lv_group_get_editing(lv_obj_get_group(tabview)))
 3310              		.loc 1 656 47 discriminator 1 view .LVU962
 3311 0170 0428     		cmp	r0, #4
 3312 0172 B8D1     		bne	.L183
 657:lvgl/src/lv_widgets/lv_tabview.c ****             lv_event_send(ext->btns, LV_EVENT_CLICKED, lv_event_get_data());
 3313              		.loc 1 657 73 view .LVU963
 3314 0174 4846     		mov	r0, r9
 3315              	.LVL437:
 657:lvgl/src/lv_widgets/lv_tabview.c ****             lv_event_send(ext->btns, LV_EVENT_CLICKED, lv_event_get_data());
 3316              		.loc 1 657 73 view .LVU964
 3317 0176 FFF7FEFF 		bl	lv_obj_get_group
 3318              	.LVL438:
 657:lvgl/src/lv_widgets/lv_tabview.c ****             lv_event_send(ext->btns, LV_EVENT_CLICKED, lv_event_get_data());
 3319              		.loc 1 657 52 view .LVU965
 3320 017a FFF7FEFF 		bl	lv_group_get_editing
 3321              	.LVL439:
 657:lvgl/src/lv_widgets/lv_tabview.c ****             lv_event_send(ext->btns, LV_EVENT_CLICKED, lv_event_get_data());
 3322              		.loc 1 657 49 view .LVU966
 3323 017e 0028     		cmp	r0, #0
 3324 0180 B1D0     		beq	.L183
 3325              	.L188:
 658:lvgl/src/lv_widgets/lv_tabview.c ****         }
 3326              		.loc 1 658 13 is_stmt 1 view .LVU967
 3327 0182 D8F80040 		ldr	r4, [r8]
 3328 0186 FFF7FEFF 		bl	lv_event_get_data
 3329              	.LVL440:
 3330 018a 0246     		mov	r2, r0
 3331 018c 0621     		movs	r1, #6
 3332 018e 2046     		mov	r0, r4
 3333 0190 FFF7FEFF 		bl	lv_event_send
 3334              	.LVL441:
 3335 0194 A7E7     		b	.L183
 3336              	.L209:
 658:lvgl/src/lv_widgets/lv_tabview.c ****         }
 3337              		.loc 1 658 13 is_stmt 0 view .LVU968
 3338              	.LBE160:
 681:lvgl/src/lv_widgets/lv_tabview.c ****         }
 3339              		.loc 1 681 13 is_stmt 1 view .LVU969
 3340 0196 B8F81410 		ldrh	r1, [r8, #20]
 3341 019a D8F80000 		ldr	r0, [r8]
 3342 019e FFF7FEFF 		bl	lv_btnmatrix_set_focused_btn
ARM GAS  D:\Temp\ccnA29ZW.s 			page 101


 3343              	.LVL442:
 3344 01a2 B1E7     		b	.L190
 3345              	.L210:
 3346              	.LBB161:
 685:lvgl/src/lv_widgets/lv_tabview.c ****             if(state & LV_STATE_FOCUSED) {
 3347              		.loc 1 685 13 view .LVU970
 685:lvgl/src/lv_widgets/lv_tabview.c ****             if(state & LV_STATE_FOCUSED) {
 3348              		.loc 1 685 32 is_stmt 0 view .LVU971
 3349 01a4 0021     		movs	r1, #0
 3350 01a6 4846     		mov	r0, r9
 3351 01a8 FFF7FEFF 		bl	lv_obj_get_state
 3352              	.LVL443:
 3353 01ac 0446     		mov	r4, r0
 3354              	.LVL444:
 686:lvgl/src/lv_widgets/lv_tabview.c ****                 lv_obj_set_state(ext->btns, LV_STATE_FOCUSED);
 3355              		.loc 1 686 13 is_stmt 1 view .LVU972
 686:lvgl/src/lv_widgets/lv_tabview.c ****                 lv_obj_set_state(ext->btns, LV_STATE_FOCUSED);
 3356              		.loc 1 686 15 is_stmt 0 view .LVU973
 3357 01ae 10F0020F 		tst	r0, #2
 3358 01b2 17D0     		beq	.L191
 687:lvgl/src/lv_widgets/lv_tabview.c ****                 lv_obj_set_state(ext->indic, LV_STATE_FOCUSED);
 3359              		.loc 1 687 17 is_stmt 1 view .LVU974
 3360 01b4 0221     		movs	r1, #2
 3361 01b6 D8F80000 		ldr	r0, [r8]
 3362              	.LVL445:
 687:lvgl/src/lv_widgets/lv_tabview.c ****                 lv_obj_set_state(ext->indic, LV_STATE_FOCUSED);
 3363              		.loc 1 687 17 is_stmt 0 view .LVU975
 3364 01ba FFF7FEFF 		bl	lv_obj_set_state
 3365              	.LVL446:
 688:lvgl/src/lv_widgets/lv_tabview.c ****             }
 3366              		.loc 1 688 17 is_stmt 1 view .LVU976
 3367 01be 0221     		movs	r1, #2
 3368 01c0 D8F80400 		ldr	r0, [r8, #4]
 3369 01c4 FFF7FEFF 		bl	lv_obj_set_state
 3370              	.LVL447:
 3371              	.L192:
 695:lvgl/src/lv_widgets/lv_tabview.c ****                 lv_obj_set_state(ext->btns, LV_STATE_EDITED);
 3372              		.loc 1 695 13 view .LVU977
 695:lvgl/src/lv_widgets/lv_tabview.c ****                 lv_obj_set_state(ext->btns, LV_STATE_EDITED);
 3373              		.loc 1 695 15 is_stmt 0 view .LVU978
 3374 01c8 14F0040F 		tst	r4, #4
 3375 01cc 15D0     		beq	.L193
 696:lvgl/src/lv_widgets/lv_tabview.c ****                 lv_obj_set_state(ext->indic, LV_STATE_EDITED);
 3376              		.loc 1 696 17 is_stmt 1 view .LVU979
 3377 01ce 0421     		movs	r1, #4
 3378 01d0 D8F80000 		ldr	r0, [r8]
 3379 01d4 FFF7FEFF 		bl	lv_obj_set_state
 3380              	.LVL448:
 697:lvgl/src/lv_widgets/lv_tabview.c ****             }
 3381              		.loc 1 697 17 view .LVU980
 3382 01d8 0421     		movs	r1, #4
 3383 01da D8F80400 		ldr	r0, [r8, #4]
 3384 01de FFF7FEFF 		bl	lv_obj_set_state
 3385              	.LVL449:
 3386 01e2 93E7     		b	.L172
 3387              	.LVL450:
 3388              	.L191:
ARM GAS  D:\Temp\ccnA29ZW.s 			page 102


 691:lvgl/src/lv_widgets/lv_tabview.c ****                 lv_obj_clear_state(ext->indic, LV_STATE_FOCUSED);
 3389              		.loc 1 691 17 view .LVU981
 3390 01e4 0221     		movs	r1, #2
 3391 01e6 D8F80000 		ldr	r0, [r8]
 3392              	.LVL451:
 691:lvgl/src/lv_widgets/lv_tabview.c ****                 lv_obj_clear_state(ext->indic, LV_STATE_FOCUSED);
 3393              		.loc 1 691 17 is_stmt 0 view .LVU982
 3394 01ea FFF7FEFF 		bl	lv_obj_clear_state
 3395              	.LVL452:
 692:lvgl/src/lv_widgets/lv_tabview.c **** 
 3396              		.loc 1 692 17 is_stmt 1 view .LVU983
 3397 01ee 0221     		movs	r1, #2
 3398 01f0 D8F80400 		ldr	r0, [r8, #4]
 3399 01f4 FFF7FEFF 		bl	lv_obj_clear_state
 3400              	.LVL453:
 3401 01f8 E6E7     		b	.L192
 3402              	.L193:
 700:lvgl/src/lv_widgets/lv_tabview.c ****                 lv_obj_clear_state(ext->indic, LV_STATE_EDITED);
 3403              		.loc 1 700 17 view .LVU984
 3404 01fa 0421     		movs	r1, #4
 3405 01fc D8F80000 		ldr	r0, [r8]
 3406 0200 FFF7FEFF 		bl	lv_obj_clear_state
 3407              	.LVL454:
 701:lvgl/src/lv_widgets/lv_tabview.c **** 
 3408              		.loc 1 701 17 view .LVU985
 3409 0204 0421     		movs	r1, #4
 3410 0206 D8F80400 		ldr	r0, [r8, #4]
 3411 020a FFF7FEFF 		bl	lv_obj_clear_state
 3412              	.LVL455:
 3413 020e 7DE7     		b	.L172
 3414              	.L213:
 3415              		.align	2
 3416              	.L212:
 3417 0210 00000000 		.word	.LANCHOR2
 3418 0214 00000000 		.word	.LC3
 3419              	.LBE161:
 3420              		.cfi_endproc
 3421              	.LFE502:
 3423              		.section	.text.lv_tabview_set_btns_pos,"ax",%progbits
 3424              		.align	1
 3425              		.global	lv_tabview_set_btns_pos
 3426              		.syntax unified
 3427              		.thumb
 3428              		.thumb_func
 3429              		.fpu fpv4-sp-d16
 3431              	lv_tabview_set_btns_pos:
 3432              	.LVL456:
 3433              	.LFB496:
 490:lvgl/src/lv_widgets/lv_tabview.c ****     if(btns_pos != LV_TABVIEW_TAB_POS_NONE &&
 3434              		.loc 1 490 1 view -0
 3435              		.cfi_startproc
 3436              		@ args = 0, pretend = 0, frame = 0
 3437              		@ frame_needed = 0, uses_anonymous_args = 0
 491:lvgl/src/lv_widgets/lv_tabview.c ****        btns_pos != LV_TABVIEW_TAB_POS_TOP &&
 3438              		.loc 1 491 5 view .LVU987
 491:lvgl/src/lv_widgets/lv_tabview.c ****        btns_pos != LV_TABVIEW_TAB_POS_TOP &&
 3439              		.loc 1 491 7 is_stmt 0 view .LVU988
ARM GAS  D:\Temp\ccnA29ZW.s 			page 103


 3440 0000 0429     		cmp	r1, #4
 3441 0002 00D9     		bls	.L222
 3442 0004 7047     		bx	lr
 3443              	.L222:
 490:lvgl/src/lv_widgets/lv_tabview.c ****     if(btns_pos != LV_TABVIEW_TAB_POS_NONE &&
 3444              		.loc 1 490 1 view .LVU989
 3445 0006 38B5     		push	{r3, r4, r5, lr}
 3446              	.LCFI32:
 3447              		.cfi_def_cfa_offset 16
 3448              		.cfi_offset 3, -16
 3449              		.cfi_offset 4, -12
 3450              		.cfi_offset 5, -8
 3451              		.cfi_offset 14, -4
 3452 0008 0D46     		mov	r5, r1
 3453 000a 0446     		mov	r4, r0
 499:lvgl/src/lv_widgets/lv_tabview.c **** 
 3454              		.loc 1 499 5 is_stmt 1 view .LVU990
 499:lvgl/src/lv_widgets/lv_tabview.c **** 
 3455              		.loc 1 499 5 view .LVU991
 3456 000c FFF7FEFF 		bl	lv_debug_check_null
 3457              	.LVL457:
 499:lvgl/src/lv_widgets/lv_tabview.c **** 
 3458              		.loc 1 499 5 is_stmt 0 view .LVU992
 3459 0010 28B9     		cbnz	r0, .L216
 499:lvgl/src/lv_widgets/lv_tabview.c **** 
 3460              		.loc 1 499 5 is_stmt 1 discriminator 1 view .LVU993
 499:lvgl/src/lv_widgets/lv_tabview.c **** 
 3461              		.loc 1 499 5 discriminator 1 view .LVU994
 3462 0012 2246     		mov	r2, r4
 3463 0014 0023     		movs	r3, #0
 3464 0016 0748     		ldr	r0, .L223
 3465 0018 FFF7FEFF 		bl	lv_debug_log_error
 3466              	.LVL458:
 3467              	.L217:
 499:lvgl/src/lv_widgets/lv_tabview.c **** 
 3468              		.loc 1 499 5 discriminator 1 view .LVU995
 499:lvgl/src/lv_widgets/lv_tabview.c **** 
 3469              		.loc 1 499 5 discriminator 1 view .LVU996
 3470 001c FEE7     		b	.L217
 3471              	.L216:
 499:lvgl/src/lv_widgets/lv_tabview.c **** 
 3472              		.loc 1 499 41 discriminator 2 view .LVU997
 501:lvgl/src/lv_widgets/lv_tabview.c **** 
 3473              		.loc 1 501 5 discriminator 2 view .LVU998
 501:lvgl/src/lv_widgets/lv_tabview.c **** 
 3474              		.loc 1 501 30 is_stmt 0 discriminator 2 view .LVU999
 3475 001e 2046     		mov	r0, r4
 3476 0020 FFF7FEFF 		bl	lv_obj_get_ext_attr
 3477              	.LVL459:
 503:lvgl/src/lv_widgets/lv_tabview.c ****     tabview_realign(tabview);
 3478              		.loc 1 503 5 is_stmt 1 discriminator 2 view .LVU1000
 503:lvgl/src/lv_widgets/lv_tabview.c ****     tabview_realign(tabview);
 3479              		.loc 1 503 19 is_stmt 0 discriminator 2 view .LVU1001
 3480 0024 837E     		ldrb	r3, [r0, #26]	@ zero_extendqisi2
 3481 0026 65F30203 		bfi	r3, r5, #0, #3
 3482 002a 8376     		strb	r3, [r0, #26]
 504:lvgl/src/lv_widgets/lv_tabview.c **** }
ARM GAS  D:\Temp\ccnA29ZW.s 			page 104


 3483              		.loc 1 504 5 is_stmt 1 discriminator 2 view .LVU1002
 3484 002c 2046     		mov	r0, r4
 3485              	.LVL460:
 504:lvgl/src/lv_widgets/lv_tabview.c **** }
 3486              		.loc 1 504 5 is_stmt 0 discriminator 2 view .LVU1003
 3487 002e FFF7FEFF 		bl	tabview_realign
 3488              	.LVL461:
 505:lvgl/src/lv_widgets/lv_tabview.c **** 
 3489              		.loc 1 505 1 discriminator 2 view .LVU1004
 3490 0032 38BD     		pop	{r3, r4, r5, pc}
 3491              	.LVL462:
 3492              	.L224:
 505:lvgl/src/lv_widgets/lv_tabview.c **** 
 3493              		.loc 1 505 1 discriminator 2 view .LVU1005
 3494              		.align	2
 3495              	.L223:
 3496 0034 00000000 		.word	.LC0
 3497              		.cfi_endproc
 3498              	.LFE496:
 3500              		.section	.text.lv_tabview_add_tab,"ax",%progbits
 3501              		.align	1
 3502              		.global	lv_tabview_add_tab
 3503              		.syntax unified
 3504              		.thumb
 3505              		.thumb_func
 3506              		.fpu fpv4-sp-d16
 3508              	lv_tabview_add_tab:
 3509              	.LVL463:
 3510              	.LFB491:
 208:lvgl/src/lv_widgets/lv_tabview.c ****     LV_ASSERT_OBJ(tabview, LV_OBJX_NAME);
 3511              		.loc 1 208 1 is_stmt 1 view -0
 3512              		.cfi_startproc
 3513              		@ args = 0, pretend = 0, frame = 0
 3514              		@ frame_needed = 0, uses_anonymous_args = 0
 208:lvgl/src/lv_widgets/lv_tabview.c ****     LV_ASSERT_OBJ(tabview, LV_OBJX_NAME);
 3515              		.loc 1 208 1 is_stmt 0 view .LVU1007
 3516 0000 2DE9F041 		push	{r4, r5, r6, r7, r8, lr}
 3517              	.LCFI33:
 3518              		.cfi_def_cfa_offset 24
 3519              		.cfi_offset 4, -24
 3520              		.cfi_offset 5, -20
 3521              		.cfi_offset 6, -16
 3522              		.cfi_offset 7, -12
 3523              		.cfi_offset 8, -8
 3524              		.cfi_offset 14, -4
 3525 0004 82B0     		sub	sp, sp, #8
 3526              	.LCFI34:
 3527              		.cfi_def_cfa_offset 32
 3528 0006 0746     		mov	r7, r0
 3529 0008 8846     		mov	r8, r1
 209:lvgl/src/lv_widgets/lv_tabview.c ****     LV_ASSERT_STR(name);
 3530              		.loc 1 209 5 is_stmt 1 view .LVU1008
 209:lvgl/src/lv_widgets/lv_tabview.c ****     LV_ASSERT_STR(name);
 3531              		.loc 1 209 5 view .LVU1009
 3532 000a FFF7FEFF 		bl	lv_debug_check_null
 3533              	.LVL464:
 209:lvgl/src/lv_widgets/lv_tabview.c ****     LV_ASSERT_STR(name);
ARM GAS  D:\Temp\ccnA29ZW.s 			page 105


 3534              		.loc 1 209 5 is_stmt 0 view .LVU1010
 3535 000e 28B9     		cbnz	r0, .L226
 209:lvgl/src/lv_widgets/lv_tabview.c ****     LV_ASSERT_STR(name);
 3536              		.loc 1 209 5 is_stmt 1 discriminator 1 view .LVU1011
 209:lvgl/src/lv_widgets/lv_tabview.c ****     LV_ASSERT_STR(name);
 3537              		.loc 1 209 5 discriminator 1 view .LVU1012
 3538 0010 3A46     		mov	r2, r7
 3539 0012 0023     		movs	r3, #0
 3540 0014 6848     		ldr	r0, .L252
 3541 0016 FFF7FEFF 		bl	lv_debug_log_error
 3542              	.LVL465:
 3543              	.L227:
 209:lvgl/src/lv_widgets/lv_tabview.c ****     LV_ASSERT_STR(name);
 3544              		.loc 1 209 5 discriminator 1 view .LVU1013
 209:lvgl/src/lv_widgets/lv_tabview.c ****     LV_ASSERT_STR(name);
 3545              		.loc 1 209 5 discriminator 1 view .LVU1014
 3546 001a FEE7     		b	.L227
 3547              	.L226:
 209:lvgl/src/lv_widgets/lv_tabview.c ****     LV_ASSERT_STR(name);
 3548              		.loc 1 209 41 discriminator 2 view .LVU1015
 210:lvgl/src/lv_widgets/lv_tabview.c **** 
 3549              		.loc 1 210 5 discriminator 2 view .LVU1016
 210:lvgl/src/lv_widgets/lv_tabview.c **** 
 3550              		.loc 1 210 5 discriminator 2 view .LVU1017
 3551 001c 4046     		mov	r0, r8
 3552 001e FFF7FEFF 		bl	lv_debug_check_null
 3553              	.LVL466:
 3554 0022 28B9     		cbnz	r0, .L228
 210:lvgl/src/lv_widgets/lv_tabview.c **** 
 3555              		.loc 1 210 5 discriminator 1 view .LVU1018
 210:lvgl/src/lv_widgets/lv_tabview.c **** 
 3556              		.loc 1 210 5 discriminator 1 view .LVU1019
 3557 0024 4246     		mov	r2, r8
 3558 0026 0023     		movs	r3, #0
 3559 0028 6348     		ldr	r0, .L252
 3560 002a FFF7FEFF 		bl	lv_debug_log_error
 3561              	.LVL467:
 3562              	.L229:
 210:lvgl/src/lv_widgets/lv_tabview.c **** 
 3563              		.loc 1 210 5 discriminator 2 view .LVU1020
 210:lvgl/src/lv_widgets/lv_tabview.c **** 
 3564              		.loc 1 210 5 discriminator 2 view .LVU1021
 3565 002e FEE7     		b	.L229
 3566              	.L228:
 210:lvgl/src/lv_widgets/lv_tabview.c **** 
 3567              		.loc 1 210 24 discriminator 2 view .LVU1022
 212:lvgl/src/lv_widgets/lv_tabview.c **** 
 3568              		.loc 1 212 5 discriminator 2 view .LVU1023
 212:lvgl/src/lv_widgets/lv_tabview.c **** 
 3569              		.loc 1 212 30 is_stmt 0 discriminator 2 view .LVU1024
 3570 0030 3846     		mov	r0, r7
 3571 0032 FFF7FEFF 		bl	lv_obj_get_ext_attr
 3572              	.LVL468:
 3573 0036 0446     		mov	r4, r0
 3574              	.LVL469:
 215:lvgl/src/lv_widgets/lv_tabview.c ****     lv_obj_set_size(h, lv_obj_get_width(tabview), lv_obj_get_height(ext->content));
 3575              		.loc 1 215 5 is_stmt 1 discriminator 2 view .LVU1025
ARM GAS  D:\Temp\ccnA29ZW.s 			page 106


 215:lvgl/src/lv_widgets/lv_tabview.c ****     lv_obj_set_size(h, lv_obj_get_width(tabview), lv_obj_get_height(ext->content));
 3576              		.loc 1 215 20 is_stmt 0 discriminator 2 view .LVU1026
 3577 0038 0021     		movs	r1, #0
 3578 003a 8068     		ldr	r0, [r0, #8]
 3579              	.LVL470:
 215:lvgl/src/lv_widgets/lv_tabview.c ****     lv_obj_set_size(h, lv_obj_get_width(tabview), lv_obj_get_height(ext->content));
 3580              		.loc 1 215 20 discriminator 2 view .LVU1027
 3581 003c FFF7FEFF 		bl	lv_page_create
 3582              	.LVL471:
 3583 0040 0546     		mov	r5, r0
 3584              	.LVL472:
 216:lvgl/src/lv_widgets/lv_tabview.c ****     lv_page_set_scrollbar_mode(h, LV_SCROLLBAR_MODE_AUTO);
 3585              		.loc 1 216 5 is_stmt 1 discriminator 2 view .LVU1028
 3586 0042 3846     		mov	r0, r7
 3587              	.LVL473:
 216:lvgl/src/lv_widgets/lv_tabview.c ****     lv_page_set_scrollbar_mode(h, LV_SCROLLBAR_MODE_AUTO);
 3588              		.loc 1 216 5 is_stmt 0 discriminator 2 view .LVU1029
 3589 0044 FFF7FEFF 		bl	lv_obj_get_width
 3590              	.LVL474:
 3591 0048 0646     		mov	r6, r0
 3592 004a A068     		ldr	r0, [r4, #8]
 3593 004c FFF7FEFF 		bl	lv_obj_get_height
 3594              	.LVL475:
 3595 0050 0246     		mov	r2, r0
 3596 0052 3146     		mov	r1, r6
 3597 0054 2846     		mov	r0, r5
 3598 0056 FFF7FEFF 		bl	lv_obj_set_size
 3599              	.LVL476:
 217:lvgl/src/lv_widgets/lv_tabview.c ****     lv_page_set_scroll_propagation(h, true);
 3600              		.loc 1 217 5 is_stmt 1 discriminator 2 view .LVU1030
 3601 005a 0321     		movs	r1, #3
 3602 005c 2846     		mov	r0, r5
 3603 005e FFF7FEFF 		bl	lv_page_set_scrollbar_mode
 3604              	.LVL477:
 218:lvgl/src/lv_widgets/lv_tabview.c ****     lv_page_set_scrollable_fit4(h, LV_FIT_NONE, LV_FIT_MAX, LV_FIT_NONE, LV_FIT_MAX);
 3605              		.loc 1 218 5 discriminator 2 view .LVU1031
 3606 0062 0121     		movs	r1, #1
 3607 0064 2846     		mov	r0, r5
 3608 0066 FFF7FEFF 		bl	lv_page_set_scroll_propagation
 3609              	.LVL478:
 219:lvgl/src/lv_widgets/lv_tabview.c ****     lv_theme_apply(h, LV_THEME_TABVIEW_PAGE);
 3610              		.loc 1 219 5 discriminator 2 view .LVU1032
 3611              	.LBB162:
 3612              	.LBI162:
 3613              		.file 6 "lvgl/src/lv_widgets/../lv_widgets/lv_page.h"
   1:lvgl/src/lv_widgets/../lv_widgets/lv_page.h **** /**
   2:lvgl/src/lv_widgets/../lv_widgets/lv_page.h ****  * @file lv_page.h
   3:lvgl/src/lv_widgets/../lv_widgets/lv_page.h ****  *
   4:lvgl/src/lv_widgets/../lv_widgets/lv_page.h ****  */
   5:lvgl/src/lv_widgets/../lv_widgets/lv_page.h **** 
   6:lvgl/src/lv_widgets/../lv_widgets/lv_page.h **** #ifndef LV_PAGE_H
   7:lvgl/src/lv_widgets/../lv_widgets/lv_page.h **** #define LV_PAGE_H
   8:lvgl/src/lv_widgets/../lv_widgets/lv_page.h **** 
   9:lvgl/src/lv_widgets/../lv_widgets/lv_page.h **** #ifdef __cplusplus
  10:lvgl/src/lv_widgets/../lv_widgets/lv_page.h **** extern "C" {
  11:lvgl/src/lv_widgets/../lv_widgets/lv_page.h **** #endif
  12:lvgl/src/lv_widgets/../lv_widgets/lv_page.h **** 
ARM GAS  D:\Temp\ccnA29ZW.s 			page 107


  13:lvgl/src/lv_widgets/../lv_widgets/lv_page.h **** /*********************
  14:lvgl/src/lv_widgets/../lv_widgets/lv_page.h ****  *      INCLUDES
  15:lvgl/src/lv_widgets/../lv_widgets/lv_page.h ****  *********************/
  16:lvgl/src/lv_widgets/../lv_widgets/lv_page.h **** #include "../lv_conf_internal.h"
  17:lvgl/src/lv_widgets/../lv_widgets/lv_page.h **** 
  18:lvgl/src/lv_widgets/../lv_widgets/lv_page.h **** #if LV_USE_PAGE != 0
  19:lvgl/src/lv_widgets/../lv_widgets/lv_page.h **** 
  20:lvgl/src/lv_widgets/../lv_widgets/lv_page.h **** /*Testing of dependencies*/
  21:lvgl/src/lv_widgets/../lv_widgets/lv_page.h **** #if LV_USE_CONT == 0
  22:lvgl/src/lv_widgets/../lv_widgets/lv_page.h **** #error "lv_page: lv_cont is required. Enable it in lv_conf.h (LV_USE_CONT 1)"
  23:lvgl/src/lv_widgets/../lv_widgets/lv_page.h **** #endif
  24:lvgl/src/lv_widgets/../lv_widgets/lv_page.h **** 
  25:lvgl/src/lv_widgets/../lv_widgets/lv_page.h **** #include "lv_cont.h"
  26:lvgl/src/lv_widgets/../lv_widgets/lv_page.h **** #include "../lv_core/lv_indev.h"
  27:lvgl/src/lv_widgets/../lv_widgets/lv_page.h **** #include "../lv_misc/lv_anim.h"
  28:lvgl/src/lv_widgets/../lv_widgets/lv_page.h **** 
  29:lvgl/src/lv_widgets/../lv_widgets/lv_page.h **** /*********************
  30:lvgl/src/lv_widgets/../lv_widgets/lv_page.h ****  *      DEFINES
  31:lvgl/src/lv_widgets/../lv_widgets/lv_page.h ****  *********************/
  32:lvgl/src/lv_widgets/../lv_widgets/lv_page.h **** 
  33:lvgl/src/lv_widgets/../lv_widgets/lv_page.h **** /**********************
  34:lvgl/src/lv_widgets/../lv_widgets/lv_page.h ****  *      TYPEDEFS
  35:lvgl/src/lv_widgets/../lv_widgets/lv_page.h ****  **********************/
  36:lvgl/src/lv_widgets/../lv_widgets/lv_page.h **** 
  37:lvgl/src/lv_widgets/../lv_widgets/lv_page.h **** /** Scrollbar modes: shows when should the scrollbars be visible*/
  38:lvgl/src/lv_widgets/../lv_widgets/lv_page.h **** enum {
  39:lvgl/src/lv_widgets/../lv_widgets/lv_page.h ****     LV_SCROLLBAR_MODE_OFF    = 0x0, /**< Never show scroll bars*/
  40:lvgl/src/lv_widgets/../lv_widgets/lv_page.h ****     LV_SCROLLBAR_MODE_ON     = 0x1, /**< Always show scroll bars*/
  41:lvgl/src/lv_widgets/../lv_widgets/lv_page.h ****     LV_SCROLLBAR_MODE_DRAG   = 0x2, /**< Show scroll bars when page is being dragged*/
  42:lvgl/src/lv_widgets/../lv_widgets/lv_page.h ****     LV_SCROLLBAR_MODE_AUTO   = 0x3, /**< Show scroll bars when the scrollable container is large en
  43:lvgl/src/lv_widgets/../lv_widgets/lv_page.h ****     LV_SCROLLBAR_MODE_HIDE   = 0x4, /**< Hide the scroll bar temporally*/
  44:lvgl/src/lv_widgets/../lv_widgets/lv_page.h ****     LV_SCROLLBAR_MODE_UNHIDE = 0x8, /**< Unhide the previously hidden scroll bar. Recover original 
  45:lvgl/src/lv_widgets/../lv_widgets/lv_page.h **** };
  46:lvgl/src/lv_widgets/../lv_widgets/lv_page.h **** typedef uint8_t lv_scrollbar_mode_t;
  47:lvgl/src/lv_widgets/../lv_widgets/lv_page.h **** 
  48:lvgl/src/lv_widgets/../lv_widgets/lv_page.h **** /** Edges: describes the four edges of the page*/
  49:lvgl/src/lv_widgets/../lv_widgets/lv_page.h **** enum { LV_PAGE_EDGE_LEFT = 0x1, LV_PAGE_EDGE_TOP = 0x2, LV_PAGE_EDGE_RIGHT = 0x4, LV_PAGE_EDGE_BOTT
  50:lvgl/src/lv_widgets/../lv_widgets/lv_page.h **** typedef uint8_t lv_page_edge_t;
  51:lvgl/src/lv_widgets/../lv_widgets/lv_page.h **** 
  52:lvgl/src/lv_widgets/../lv_widgets/lv_page.h **** /*Data of page*/
  53:lvgl/src/lv_widgets/../lv_widgets/lv_page.h **** typedef struct {
  54:lvgl/src/lv_widgets/../lv_widgets/lv_page.h ****     lv_cont_ext_t bg; /*Ext. of ancestor*/
  55:lvgl/src/lv_widgets/../lv_widgets/lv_page.h ****     /*New data for this type */
  56:lvgl/src/lv_widgets/../lv_widgets/lv_page.h ****     lv_obj_t * scrl; /*The scrollable object on the background*/
  57:lvgl/src/lv_widgets/../lv_widgets/lv_page.h ****     struct {
  58:lvgl/src/lv_widgets/../lv_widgets/lv_page.h ****         lv_style_list_t style; /*Style of scrollbars*/
  59:lvgl/src/lv_widgets/../lv_widgets/lv_page.h ****         lv_area_t hor_area;       /*Horizontal scrollbar area relative to the page. (Handled by the
  60:lvgl/src/lv_widgets/../lv_widgets/lv_page.h ****         lv_area_t ver_area;       /*Vertical scrollbar area relative to the page (Handled by the li
  61:lvgl/src/lv_widgets/../lv_widgets/lv_page.h ****         uint8_t hor_draw : 1;     /*1: horizontal scrollbar is visible now (Handled by the library)
  62:lvgl/src/lv_widgets/../lv_widgets/lv_page.h ****         uint8_t ver_draw : 1;     /*1: vertical scrollbar is visible now (Handled by the library)*/
  63:lvgl/src/lv_widgets/../lv_widgets/lv_page.h ****         lv_scrollbar_mode_t mode : 3;    /*Scrollbar visibility from 'lv_scrollbar_mode_t'*/
  64:lvgl/src/lv_widgets/../lv_widgets/lv_page.h ****     } scrlbar;
  65:lvgl/src/lv_widgets/../lv_widgets/lv_page.h **** #if LV_USE_ANIMATION
  66:lvgl/src/lv_widgets/../lv_widgets/lv_page.h ****     struct {
  67:lvgl/src/lv_widgets/../lv_widgets/lv_page.h ****         lv_anim_value_t state;    /*Store the current size of the edge flash effect*/
  68:lvgl/src/lv_widgets/../lv_widgets/lv_page.h ****         lv_style_list_t style; /*Style of edge flash effect (usually homogeneous circle)*/
  69:lvgl/src/lv_widgets/../lv_widgets/lv_page.h ****         uint8_t enabled : 1;      /*1: Show a flash animation on the edge*/
ARM GAS  D:\Temp\ccnA29ZW.s 			page 108


  70:lvgl/src/lv_widgets/../lv_widgets/lv_page.h ****         uint8_t top_ip : 1;       /*Used internally to show that top most position is reached (flas
  71:lvgl/src/lv_widgets/../lv_widgets/lv_page.h ****                                      Progress)*/
  72:lvgl/src/lv_widgets/../lv_widgets/lv_page.h ****         uint8_t bottom_ip : 1;    /*Used internally to show that bottom most position is reached (f
  73:lvgl/src/lv_widgets/../lv_widgets/lv_page.h ****                                      is In Progress)*/
  74:lvgl/src/lv_widgets/../lv_widgets/lv_page.h ****         uint8_t right_ip : 1;     /*Used internally to show that right most position is reached (fl
  75:lvgl/src/lv_widgets/../lv_widgets/lv_page.h ****                                      is In Progress)*/
  76:lvgl/src/lv_widgets/../lv_widgets/lv_page.h ****         uint8_t left_ip : 1;      /*Used internally to show that left most position is reached (fla
  77:lvgl/src/lv_widgets/../lv_widgets/lv_page.h ****                                      In Progress)*/
  78:lvgl/src/lv_widgets/../lv_widgets/lv_page.h ****     } edge_flash;
  79:lvgl/src/lv_widgets/../lv_widgets/lv_page.h **** 
  80:lvgl/src/lv_widgets/../lv_widgets/lv_page.h ****     uint16_t anim_time; /*Scroll animation time*/
  81:lvgl/src/lv_widgets/../lv_widgets/lv_page.h **** #endif
  82:lvgl/src/lv_widgets/../lv_widgets/lv_page.h ****     lv_obj_t * scroll_prop_obj;          /*Pointer to child page from where the scroll is being pro
  83:lvgl/src/lv_widgets/../lv_widgets/lv_page.h ****     uint8_t scroll_prop : 1;   /*The direction of the scroll propagation*/
  84:lvgl/src/lv_widgets/../lv_widgets/lv_page.h **** } lv_page_ext_t;
  85:lvgl/src/lv_widgets/../lv_widgets/lv_page.h **** 
  86:lvgl/src/lv_widgets/../lv_widgets/lv_page.h **** enum {
  87:lvgl/src/lv_widgets/../lv_widgets/lv_page.h ****     LV_PAGE_PART_BG = LV_CONT_PART_MAIN,
  88:lvgl/src/lv_widgets/../lv_widgets/lv_page.h ****     LV_PAGE_PART_SCROLLBAR = _LV_OBJ_PART_VIRTUAL_LAST,
  89:lvgl/src/lv_widgets/../lv_widgets/lv_page.h ****     LV_PAGE_PART_EDGE_FLASH,
  90:lvgl/src/lv_widgets/../lv_widgets/lv_page.h ****     _LV_PAGE_PART_VIRTUAL_LAST,
  91:lvgl/src/lv_widgets/../lv_widgets/lv_page.h **** 
  92:lvgl/src/lv_widgets/../lv_widgets/lv_page.h ****     LV_PAGE_PART_SCROLLABLE = _LV_OBJ_PART_REAL_LAST,
  93:lvgl/src/lv_widgets/../lv_widgets/lv_page.h ****     _LV_PAGE_PART_REAL_LAST,
  94:lvgl/src/lv_widgets/../lv_widgets/lv_page.h **** };
  95:lvgl/src/lv_widgets/../lv_widgets/lv_page.h **** typedef uint8_t lv_part_style_t;
  96:lvgl/src/lv_widgets/../lv_widgets/lv_page.h **** 
  97:lvgl/src/lv_widgets/../lv_widgets/lv_page.h **** /**********************
  98:lvgl/src/lv_widgets/../lv_widgets/lv_page.h ****  * GLOBAL PROTOTYPES
  99:lvgl/src/lv_widgets/../lv_widgets/lv_page.h ****  **********************/
 100:lvgl/src/lv_widgets/../lv_widgets/lv_page.h **** 
 101:lvgl/src/lv_widgets/../lv_widgets/lv_page.h **** /**
 102:lvgl/src/lv_widgets/../lv_widgets/lv_page.h ****  * Create a page objects
 103:lvgl/src/lv_widgets/../lv_widgets/lv_page.h ****  * @param par pointer to an object, it will be the parent of the new page
 104:lvgl/src/lv_widgets/../lv_widgets/lv_page.h ****  * @param copy pointer to a page object, if not NULL then the new object will be copied from it
 105:lvgl/src/lv_widgets/../lv_widgets/lv_page.h ****  * @return pointer to the created page
 106:lvgl/src/lv_widgets/../lv_widgets/lv_page.h ****  */
 107:lvgl/src/lv_widgets/../lv_widgets/lv_page.h **** lv_obj_t * lv_page_create(lv_obj_t * par, const lv_obj_t * copy);
 108:lvgl/src/lv_widgets/../lv_widgets/lv_page.h **** 
 109:lvgl/src/lv_widgets/../lv_widgets/lv_page.h **** /**
 110:lvgl/src/lv_widgets/../lv_widgets/lv_page.h ****  * Delete all children of the scrl object, without deleting scrl child.
 111:lvgl/src/lv_widgets/../lv_widgets/lv_page.h ****  * @param page pointer to an object
 112:lvgl/src/lv_widgets/../lv_widgets/lv_page.h ****  */
 113:lvgl/src/lv_widgets/../lv_widgets/lv_page.h **** void lv_page_clean(lv_obj_t * page);
 114:lvgl/src/lv_widgets/../lv_widgets/lv_page.h **** 
 115:lvgl/src/lv_widgets/../lv_widgets/lv_page.h **** /**
 116:lvgl/src/lv_widgets/../lv_widgets/lv_page.h ****  * Get the scrollable object of a page
 117:lvgl/src/lv_widgets/../lv_widgets/lv_page.h ****  * @param page pointer to a page object
 118:lvgl/src/lv_widgets/../lv_widgets/lv_page.h ****  * @return pointer to a container which is the scrollable part of the page
 119:lvgl/src/lv_widgets/../lv_widgets/lv_page.h ****  */
 120:lvgl/src/lv_widgets/../lv_widgets/lv_page.h **** lv_obj_t * lv_page_get_scrollable(const lv_obj_t * page);
 121:lvgl/src/lv_widgets/../lv_widgets/lv_page.h **** 
 122:lvgl/src/lv_widgets/../lv_widgets/lv_page.h **** /**
 123:lvgl/src/lv_widgets/../lv_widgets/lv_page.h ****  * Get the animation time
 124:lvgl/src/lv_widgets/../lv_widgets/lv_page.h ****  * @param page pointer to a page object
 125:lvgl/src/lv_widgets/../lv_widgets/lv_page.h ****  * @return the animation time in milliseconds
 126:lvgl/src/lv_widgets/../lv_widgets/lv_page.h ****  */
ARM GAS  D:\Temp\ccnA29ZW.s 			page 109


 127:lvgl/src/lv_widgets/../lv_widgets/lv_page.h **** uint16_t lv_page_get_anim_time(const lv_obj_t * page);
 128:lvgl/src/lv_widgets/../lv_widgets/lv_page.h **** 
 129:lvgl/src/lv_widgets/../lv_widgets/lv_page.h **** /*=====================
 130:lvgl/src/lv_widgets/../lv_widgets/lv_page.h ****  * Setter functions
 131:lvgl/src/lv_widgets/../lv_widgets/lv_page.h ****  *====================*/
 132:lvgl/src/lv_widgets/../lv_widgets/lv_page.h **** 
 133:lvgl/src/lv_widgets/../lv_widgets/lv_page.h **** /**
 134:lvgl/src/lv_widgets/../lv_widgets/lv_page.h ****  * Set the scroll bar mode on a page
 135:lvgl/src/lv_widgets/../lv_widgets/lv_page.h ****  * @param page pointer to a page object
 136:lvgl/src/lv_widgets/../lv_widgets/lv_page.h ****  * @param sb_mode the new mode from 'lv_page_sb.mode_t' enum
 137:lvgl/src/lv_widgets/../lv_widgets/lv_page.h ****  */
 138:lvgl/src/lv_widgets/../lv_widgets/lv_page.h **** void lv_page_set_scrollbar_mode(lv_obj_t * page, lv_scrollbar_mode_t sb_mode);
 139:lvgl/src/lv_widgets/../lv_widgets/lv_page.h **** 
 140:lvgl/src/lv_widgets/../lv_widgets/lv_page.h **** /**
 141:lvgl/src/lv_widgets/../lv_widgets/lv_page.h ****  * Set the animation time for the page
 142:lvgl/src/lv_widgets/../lv_widgets/lv_page.h ****  * @param page pointer to a page object
 143:lvgl/src/lv_widgets/../lv_widgets/lv_page.h ****  * @param anim_time animation time in milliseconds
 144:lvgl/src/lv_widgets/../lv_widgets/lv_page.h ****  */
 145:lvgl/src/lv_widgets/../lv_widgets/lv_page.h **** void lv_page_set_anim_time(lv_obj_t * page, uint16_t anim_time);
 146:lvgl/src/lv_widgets/../lv_widgets/lv_page.h **** 
 147:lvgl/src/lv_widgets/../lv_widgets/lv_page.h **** /**
 148:lvgl/src/lv_widgets/../lv_widgets/lv_page.h ****  * Enable the scroll propagation feature. If enabled then the page will move its parent if there is
 149:lvgl/src/lv_widgets/../lv_widgets/lv_page.h ****  * no more space to scroll.
 150:lvgl/src/lv_widgets/../lv_widgets/lv_page.h ****  * The page needs to have a page-like parent (e.g. `lv_page`, `lv_tabview` tab, `lv_win` content ar
 151:lvgl/src/lv_widgets/../lv_widgets/lv_page.h ****  * If enabled drag direction will be changed `LV_DRAG_DIR_ONE` automatically to allow scrolling onl
 152:lvgl/src/lv_widgets/../lv_widgets/lv_page.h ****  * @param page pointer to a Page
 153:lvgl/src/lv_widgets/../lv_widgets/lv_page.h ****  * @param en true or false to enable/disable scroll propagation
 154:lvgl/src/lv_widgets/../lv_widgets/lv_page.h ****  */
 155:lvgl/src/lv_widgets/../lv_widgets/lv_page.h **** void lv_page_set_scroll_propagation(lv_obj_t * page, bool en);
 156:lvgl/src/lv_widgets/../lv_widgets/lv_page.h **** 
 157:lvgl/src/lv_widgets/../lv_widgets/lv_page.h **** /**
 158:lvgl/src/lv_widgets/../lv_widgets/lv_page.h ****  * Enable the edge flash effect. (Show an arc when the an edge is reached)
 159:lvgl/src/lv_widgets/../lv_widgets/lv_page.h ****  * @param page pointer to a Page
 160:lvgl/src/lv_widgets/../lv_widgets/lv_page.h ****  * @param en true or false to enable/disable end flash
 161:lvgl/src/lv_widgets/../lv_widgets/lv_page.h ****  */
 162:lvgl/src/lv_widgets/../lv_widgets/lv_page.h **** void lv_page_set_edge_flash(lv_obj_t * page, bool en);
 163:lvgl/src/lv_widgets/../lv_widgets/lv_page.h **** 
 164:lvgl/src/lv_widgets/../lv_widgets/lv_page.h **** /**
 165:lvgl/src/lv_widgets/../lv_widgets/lv_page.h ****  * Set the fit policy in all 4 directions separately.
 166:lvgl/src/lv_widgets/../lv_widgets/lv_page.h ****  * It tell how to change the page size automatically.
 167:lvgl/src/lv_widgets/../lv_widgets/lv_page.h ****  * @param page pointer to a page object
 168:lvgl/src/lv_widgets/../lv_widgets/lv_page.h ****  * @param left left fit policy from `lv_fit_t`
 169:lvgl/src/lv_widgets/../lv_widgets/lv_page.h ****  * @param right right fit policy from `lv_fit_t`
 170:lvgl/src/lv_widgets/../lv_widgets/lv_page.h ****  * @param top bottom fit policy from `lv_fit_t`
 171:lvgl/src/lv_widgets/../lv_widgets/lv_page.h ****  * @param bottom bottom fit policy from `lv_fit_t`
 172:lvgl/src/lv_widgets/../lv_widgets/lv_page.h ****  */
 173:lvgl/src/lv_widgets/../lv_widgets/lv_page.h **** static inline void lv_page_set_scrollable_fit4(lv_obj_t * page, lv_fit_t left, lv_fit_t right, lv_f
 3614              		.loc 6 173 20 discriminator 2 view .LVU1033
 3615              	.LBB163:
 174:lvgl/src/lv_widgets/../lv_widgets/lv_page.h ****                                                lv_fit_t bottom)
 175:lvgl/src/lv_widgets/../lv_widgets/lv_page.h **** {
 176:lvgl/src/lv_widgets/../lv_widgets/lv_page.h ****     lv_cont_set_fit4(lv_page_get_scrollable(page), left, right, top, bottom);
 3616              		.loc 6 176 5 discriminator 2 view .LVU1034
 3617 006a 2846     		mov	r0, r5
 3618 006c FFF7FEFF 		bl	lv_page_get_scrollable
 3619              	.LVL479:
 3620 0070 0322     		movs	r2, #3
ARM GAS  D:\Temp\ccnA29ZW.s 			page 110


 3621 0072 0092     		str	r2, [sp]
 3622 0074 0023     		movs	r3, #0
 3623 0076 1946     		mov	r1, r3
 3624 0078 FFF7FEFF 		bl	lv_cont_set_fit4
 3625              	.LVL480:
 3626              		.loc 6 176 5 is_stmt 0 discriminator 2 view .LVU1035
 3627              	.LBE163:
 3628              	.LBE162:
 220:lvgl/src/lv_widgets/lv_tabview.c **** 
 3629              		.loc 1 220 5 is_stmt 1 discriminator 2 view .LVU1036
 3630 007c 2421     		movs	r1, #36
 3631 007e 2846     		mov	r0, r5
 3632 0080 FFF7FEFF 		bl	lv_theme_apply
 3633              	.LVL481:
 222:lvgl/src/lv_widgets/lv_tabview.c **** 
 3634              		.loc 1 222 5 discriminator 2 view .LVU1037
 222:lvgl/src/lv_widgets/lv_tabview.c **** 
 3635              		.loc 1 222 20 is_stmt 0 discriminator 2 view .LVU1038
 3636 0084 4D4B     		ldr	r3, .L252+4
 3637 0086 1B68     		ldr	r3, [r3]
 222:lvgl/src/lv_widgets/lv_tabview.c **** 
 3638              		.loc 1 222 7 discriminator 2 view .LVU1039
 3639 0088 002B     		cmp	r3, #0
 3640 008a 50D0     		beq	.L246
 3641              	.L230:
 225:lvgl/src/lv_widgets/lv_tabview.c ****     name_dm = lv_mem_alloc(strlen(name) + 1); /*+1 for the closing '\0' */
 3642              		.loc 1 225 5 is_stmt 1 view .LVU1040
 226:lvgl/src/lv_widgets/lv_tabview.c ****     LV_ASSERT_MEM(name_dm);
 3643              		.loc 1 226 5 view .LVU1041
 226:lvgl/src/lv_widgets/lv_tabview.c ****     LV_ASSERT_MEM(name_dm);
 3644              		.loc 1 226 28 is_stmt 0 view .LVU1042
 3645 008c 4046     		mov	r0, r8
 3646 008e FFF7FEFF 		bl	strlen
 3647              	.LVL482:
 226:lvgl/src/lv_widgets/lv_tabview.c ****     LV_ASSERT_MEM(name_dm);
 3648              		.loc 1 226 15 view .LVU1043
 3649 0092 0130     		adds	r0, r0, #1
 3650 0094 FFF7FEFF 		bl	lv_mem_alloc
 3651              	.LVL483:
 3652 0098 0646     		mov	r6, r0
 3653              	.LVL484:
 227:lvgl/src/lv_widgets/lv_tabview.c ****     if(name_dm == NULL) return NULL;
 3654              		.loc 1 227 5 is_stmt 1 view .LVU1044
 227:lvgl/src/lv_widgets/lv_tabview.c ****     if(name_dm == NULL) return NULL;
 3655              		.loc 1 227 5 view .LVU1045
 3656 009a FFF7FEFF 		bl	lv_debug_check_null
 3657              	.LVL485:
 227:lvgl/src/lv_widgets/lv_tabview.c ****     if(name_dm == NULL) return NULL;
 3658              		.loc 1 227 5 is_stmt 0 view .LVU1046
 3659 009e 0028     		cmp	r0, #0
 3660 00a0 4BD0     		beq	.L247
 227:lvgl/src/lv_widgets/lv_tabview.c ****     if(name_dm == NULL) return NULL;
 3661              		.loc 1 227 27 is_stmt 1 discriminator 2 view .LVU1047
 228:lvgl/src/lv_widgets/lv_tabview.c ****     strcpy(name_dm, name);
 3662              		.loc 1 228 5 discriminator 2 view .LVU1048
 228:lvgl/src/lv_widgets/lv_tabview.c ****     strcpy(name_dm, name);
 3663              		.loc 1 228 7 is_stmt 0 discriminator 2 view .LVU1049
ARM GAS  D:\Temp\ccnA29ZW.s 			page 111


 3664 00a2 002E     		cmp	r6, #0
 3665 00a4 00F08280 		beq	.L242
 229:lvgl/src/lv_widgets/lv_tabview.c **** 
 3666              		.loc 1 229 5 is_stmt 1 view .LVU1050
 3667 00a8 4146     		mov	r1, r8
 3668 00aa 3046     		mov	r0, r6
 3669 00ac FFF7FEFF 		bl	strcpy
 3670              	.LVL486:
 231:lvgl/src/lv_widgets/lv_tabview.c **** 
 3671              		.loc 1 231 5 view .LVU1051
 231:lvgl/src/lv_widgets/lv_tabview.c **** 
 3672              		.loc 1 231 8 is_stmt 0 view .LVU1052
 3673 00b0 E18A     		ldrh	r1, [r4, #22]
 231:lvgl/src/lv_widgets/lv_tabview.c **** 
 3674              		.loc 1 231 17 view .LVU1053
 3675 00b2 0131     		adds	r1, r1, #1
 3676 00b4 89B2     		uxth	r1, r1
 3677 00b6 E182     		strh	r1, [r4, #22]	@ movhi
 237:lvgl/src/lv_widgets/lv_tabview.c ****         default: /*default case is prevented in lv_tabview_set_btns_pos(), but here for safety*/
 3678              		.loc 1 237 5 is_stmt 1 view .LVU1054
 237:lvgl/src/lv_widgets/lv_tabview.c ****         default: /*default case is prevented in lv_tabview_set_btns_pos(), but here for safety*/
 3679              		.loc 1 237 15 is_stmt 0 view .LVU1055
 3680 00b8 A37E     		ldrb	r3, [r4, #26]	@ zero_extendqisi2
 3681 00ba 03F00703 		and	r3, r3, #7
 237:lvgl/src/lv_widgets/lv_tabview.c ****         default: /*default case is prevented in lv_tabview_set_btns_pos(), but here for safety*/
 3682              		.loc 1 237 5 view .LVU1056
 3683 00be 033B     		subs	r3, r3, #3
 3684 00c0 012B     		cmp	r3, #1
 3685 00c2 46D9     		bls	.L234
 242:lvgl/src/lv_widgets/lv_tabview.c **** 
 3686              		.loc 1 242 13 is_stmt 1 view .LVU1057
 242:lvgl/src/lv_widgets/lv_tabview.c **** 
 3687              		.loc 1 242 98 is_stmt 0 view .LVU1058
 3688 00c4 0131     		adds	r1, r1, #1
 242:lvgl/src/lv_widgets/lv_tabview.c **** 
 3689              		.loc 1 242 33 view .LVU1059
 3690 00c6 8900     		lsls	r1, r1, #2
 3691 00c8 E068     		ldr	r0, [r4, #12]
 3692 00ca FFF7FEFF 		bl	lv_mem_realloc
 3693              	.LVL487:
 242:lvgl/src/lv_widgets/lv_tabview.c **** 
 3694              		.loc 1 242 31 view .LVU1060
 3695 00ce E060     		str	r0, [r4, #12]
 244:lvgl/src/lv_widgets/lv_tabview.c ****             if(ext->tab_name_ptr == NULL) return NULL;
 3696              		.loc 1 244 13 is_stmt 1 view .LVU1061
 244:lvgl/src/lv_widgets/lv_tabview.c ****             if(ext->tab_name_ptr == NULL) return NULL;
 3697              		.loc 1 244 13 view .LVU1062
 3698 00d0 FFF7FEFF 		bl	lv_debug_check_null
 3699              	.LVL488:
 3700 00d4 0028     		cmp	r0, #0
 3701 00d6 36D0     		beq	.L248
 244:lvgl/src/lv_widgets/lv_tabview.c ****             if(ext->tab_name_ptr == NULL) return NULL;
 3702              		.loc 1 244 45 discriminator 2 view .LVU1063
 245:lvgl/src/lv_widgets/lv_tabview.c **** 
 3703              		.loc 1 245 13 discriminator 2 view .LVU1064
 245:lvgl/src/lv_widgets/lv_tabview.c **** 
 3704              		.loc 1 245 19 is_stmt 0 discriminator 2 view .LVU1065
ARM GAS  D:\Temp\ccnA29ZW.s 			page 112


 3705 00d8 E268     		ldr	r2, [r4, #12]
 245:lvgl/src/lv_widgets/lv_tabview.c **** 
 3706              		.loc 1 245 15 discriminator 2 view .LVU1066
 3707 00da 002A     		cmp	r2, #0
 3708 00dc 68D0     		beq	.L243
 247:lvgl/src/lv_widgets/lv_tabview.c ****             ext->tab_name_ptr[ext->tab_cnt]     = "";
 3709              		.loc 1 247 13 is_stmt 1 view .LVU1067
 247:lvgl/src/lv_widgets/lv_tabview.c ****             ext->tab_name_ptr[ext->tab_cnt]     = "";
 3710              		.loc 1 247 34 is_stmt 0 view .LVU1068
 3711 00de E38A     		ldrh	r3, [r4, #22]
 247:lvgl/src/lv_widgets/lv_tabview.c ****             ext->tab_name_ptr[ext->tab_cnt]     = "";
 3712              		.loc 1 247 30 view .LVU1069
 3713 00e0 03F18043 		add	r3, r3, #1073741824
 3714 00e4 013B     		subs	r3, r3, #1
 247:lvgl/src/lv_widgets/lv_tabview.c ****             ext->tab_name_ptr[ext->tab_cnt]     = "";
 3715              		.loc 1 247 49 view .LVU1070
 3716 00e6 42F82360 		str	r6, [r2, r3, lsl #2]
 248:lvgl/src/lv_widgets/lv_tabview.c **** 
 3717              		.loc 1 248 13 is_stmt 1 view .LVU1071
 248:lvgl/src/lv_widgets/lv_tabview.c **** 
 3718              		.loc 1 248 16 is_stmt 0 view .LVU1072
 3719 00ea E368     		ldr	r3, [r4, #12]
 248:lvgl/src/lv_widgets/lv_tabview.c **** 
 3720              		.loc 1 248 34 view .LVU1073
 3721 00ec E28A     		ldrh	r2, [r4, #22]
 248:lvgl/src/lv_widgets/lv_tabview.c **** 
 3722              		.loc 1 248 49 view .LVU1074
 3723 00ee 3449     		ldr	r1, .L252+8
 3724 00f0 43F82210 		str	r1, [r3, r2, lsl #2]
 250:lvgl/src/lv_widgets/lv_tabview.c ****         case LV_TABVIEW_TAB_POS_LEFT:
 3725              		.loc 1 250 13 is_stmt 1 view .LVU1075
 3726              	.L237:
 272:lvgl/src/lv_widgets/lv_tabview.c ****     btnm_ext->map_p          = NULL;
 3727              		.loc 1 272 5 view .LVU1076
 272:lvgl/src/lv_widgets/lv_tabview.c ****     btnm_ext->map_p          = NULL;
 3728              		.loc 1 272 37 is_stmt 0 view .LVU1077
 3729 00f4 2068     		ldr	r0, [r4]
 3730 00f6 FFF7FEFF 		bl	lv_obj_get_ext_attr
 3731              	.LVL489:
 273:lvgl/src/lv_widgets/lv_tabview.c **** 
 3732              		.loc 1 273 5 is_stmt 1 view .LVU1078
 273:lvgl/src/lv_widgets/lv_tabview.c **** 
 3733              		.loc 1 273 30 is_stmt 0 view .LVU1079
 3734 00fa 0023     		movs	r3, #0
 3735 00fc 0360     		str	r3, [r0]
 275:lvgl/src/lv_widgets/lv_tabview.c ****     lv_btnmatrix_set_btn_ctrl(ext->btns, ext->tab_cur, LV_BTNMATRIX_CTRL_NO_REPEAT);
 3736              		.loc 1 275 5 is_stmt 1 view .LVU1080
 3737 00fe E168     		ldr	r1, [r4, #12]
 3738 0100 2068     		ldr	r0, [r4]
 3739              	.LVL490:
 275:lvgl/src/lv_widgets/lv_tabview.c ****     lv_btnmatrix_set_btn_ctrl(ext->btns, ext->tab_cur, LV_BTNMATRIX_CTRL_NO_REPEAT);
 3740              		.loc 1 275 5 is_stmt 0 view .LVU1081
 3741 0102 FFF7FEFF 		bl	lv_btnmatrix_set_map
 3742              	.LVL491:
 276:lvgl/src/lv_widgets/lv_tabview.c **** 
 3743              		.loc 1 276 5 is_stmt 1 view .LVU1082
 3744 0106 1022     		movs	r2, #16
ARM GAS  D:\Temp\ccnA29ZW.s 			page 113


 3745 0108 A18A     		ldrh	r1, [r4, #20]
 3746 010a 2068     		ldr	r0, [r4]
 3747 010c FFF7FEFF 		bl	lv_btnmatrix_set_btn_ctrl
 3748              	.LVL492:
 279:lvgl/src/lv_widgets/lv_tabview.c **** 
 3749              		.loc 1 279 5 view .LVU1083
 279:lvgl/src/lv_widgets/lv_tabview.c **** 
 3750              		.loc 1 279 11 is_stmt 0 view .LVU1084
 3751 0110 E38A     		ldrh	r3, [r4, #22]
 279:lvgl/src/lv_widgets/lv_tabview.c **** 
 3752              		.loc 1 279 7 view .LVU1085
 3753 0112 012B     		cmp	r3, #1
 3754 0114 47D0     		beq	.L249
 3755              	.L241:
 281:lvgl/src/lv_widgets/lv_tabview.c **** 
 3756              		.loc 1 281 5 is_stmt 1 view .LVU1086
 3757 0116 3846     		mov	r0, r7
 3758 0118 FFF7FEFF 		bl	tabview_realign
 3759              	.LVL493:
 283:lvgl/src/lv_widgets/lv_tabview.c **** 
 3760              		.loc 1 283 5 view .LVU1087
 3761 011c 0022     		movs	r2, #0
 3762 011e A18A     		ldrh	r1, [r4, #20]
 3763 0120 3846     		mov	r0, r7
 3764 0122 FFF7FEFF 		bl	lv_tabview_set_tab_act
 3765              	.LVL494:
 285:lvgl/src/lv_widgets/lv_tabview.c **** }
 3766              		.loc 1 285 5 view .LVU1088
 3767              	.L225:
 286:lvgl/src/lv_widgets/lv_tabview.c **** 
 3768              		.loc 1 286 1 is_stmt 0 view .LVU1089
 3769 0126 2846     		mov	r0, r5
 3770 0128 02B0     		add	sp, sp, #8
 3771              	.LCFI35:
 3772              		.cfi_remember_state
 3773              		.cfi_def_cfa_offset 24
 3774              		@ sp needed
 3775 012a BDE8F081 		pop	{r4, r5, r6, r7, r8, pc}
 3776              	.LVL495:
 3777              	.L246:
 3778              	.LCFI36:
 3779              		.cfi_restore_state
 222:lvgl/src/lv_widgets/lv_tabview.c **** 
 3780              		.loc 1 222 29 is_stmt 1 discriminator 1 view .LVU1090
 222:lvgl/src/lv_widgets/lv_tabview.c **** 
 3781              		.loc 1 222 43 is_stmt 0 discriminator 1 view .LVU1091
 3782 012e 2846     		mov	r0, r5
 3783 0130 FFF7FEFF 		bl	lv_obj_get_signal_cb
 3784              	.LVL496:
 222:lvgl/src/lv_widgets/lv_tabview.c **** 
 3785              		.loc 1 222 41 discriminator 1 view .LVU1092
 3786 0134 214B     		ldr	r3, .L252+4
 3787 0136 1860     		str	r0, [r3]
 3788 0138 A8E7     		b	.L230
 3789              	.LVL497:
 3790              	.L247:
 227:lvgl/src/lv_widgets/lv_tabview.c ****     if(name_dm == NULL) return NULL;
ARM GAS  D:\Temp\ccnA29ZW.s 			page 114


 3791              		.loc 1 227 5 is_stmt 1 discriminator 1 view .LVU1093
 227:lvgl/src/lv_widgets/lv_tabview.c ****     if(name_dm == NULL) return NULL;
 3792              		.loc 1 227 5 discriminator 1 view .LVU1094
 3793 013a 3246     		mov	r2, r6
 3794 013c 0023     		movs	r3, #0
 3795 013e 2148     		ldr	r0, .L252+12
 3796 0140 FFF7FEFF 		bl	lv_debug_log_error
 3797              	.LVL498:
 3798              	.L232:
 227:lvgl/src/lv_widgets/lv_tabview.c ****     if(name_dm == NULL) return NULL;
 3799              		.loc 1 227 5 discriminator 3 view .LVU1095
 227:lvgl/src/lv_widgets/lv_tabview.c ****     if(name_dm == NULL) return NULL;
 3800              		.loc 1 227 5 discriminator 3 view .LVU1096
 3801 0144 FEE7     		b	.L232
 3802              	.L248:
 244:lvgl/src/lv_widgets/lv_tabview.c ****             if(ext->tab_name_ptr == NULL) return NULL;
 3803              		.loc 1 244 13 discriminator 1 view .LVU1097
 244:lvgl/src/lv_widgets/lv_tabview.c ****             if(ext->tab_name_ptr == NULL) return NULL;
 3804              		.loc 1 244 13 discriminator 1 view .LVU1098
 3805 0146 E268     		ldr	r2, [r4, #12]
 3806 0148 0023     		movs	r3, #0
 3807 014a 1E48     		ldr	r0, .L252+12
 3808 014c FFF7FEFF 		bl	lv_debug_log_error
 3809              	.LVL499:
 3810              	.L236:
 244:lvgl/src/lv_widgets/lv_tabview.c ****             if(ext->tab_name_ptr == NULL) return NULL;
 3811              		.loc 1 244 13 discriminator 4 view .LVU1099
 244:lvgl/src/lv_widgets/lv_tabview.c ****             if(ext->tab_name_ptr == NULL) return NULL;
 3812              		.loc 1 244 13 discriminator 4 view .LVU1100
 3813 0150 FEE7     		b	.L236
 3814              	.L234:
 253:lvgl/src/lv_widgets/lv_tabview.c **** 
 3815              		.loc 1 253 13 view .LVU1101
 253:lvgl/src/lv_widgets/lv_tabview.c **** 
 3816              		.loc 1 253 33 is_stmt 0 view .LVU1102
 3817 0152 C900     		lsls	r1, r1, #3
 3818 0154 E068     		ldr	r0, [r4, #12]
 3819 0156 FFF7FEFF 		bl	lv_mem_realloc
 3820              	.LVL500:
 253:lvgl/src/lv_widgets/lv_tabview.c **** 
 3821              		.loc 1 253 31 view .LVU1103
 3822 015a E060     		str	r0, [r4, #12]
 255:lvgl/src/lv_widgets/lv_tabview.c ****             if(ext->tab_name_ptr == NULL) return NULL;
 3823              		.loc 1 255 13 is_stmt 1 view .LVU1104
 255:lvgl/src/lv_widgets/lv_tabview.c ****             if(ext->tab_name_ptr == NULL) return NULL;
 3824              		.loc 1 255 13 view .LVU1105
 3825 015c FFF7FEFF 		bl	lv_debug_check_null
 3826              	.LVL501:
 3827 0160 B0B1     		cbz	r0, .L250
 255:lvgl/src/lv_widgets/lv_tabview.c ****             if(ext->tab_name_ptr == NULL) return NULL;
 3828              		.loc 1 255 45 discriminator 2 view .LVU1106
 256:lvgl/src/lv_widgets/lv_tabview.c **** 
 3829              		.loc 1 256 13 discriminator 2 view .LVU1107
 256:lvgl/src/lv_widgets/lv_tabview.c **** 
 3830              		.loc 1 256 19 is_stmt 0 discriminator 2 view .LVU1108
 3831 0162 E268     		ldr	r2, [r4, #12]
 256:lvgl/src/lv_widgets/lv_tabview.c **** 
ARM GAS  D:\Temp\ccnA29ZW.s 			page 115


 3832              		.loc 1 256 15 discriminator 2 view .LVU1109
 3833 0164 32B3     		cbz	r2, .L244
 258:lvgl/src/lv_widgets/lv_tabview.c ****                 ext->tab_name_ptr[0] = name_dm;
 3834              		.loc 1 258 13 is_stmt 1 view .LVU1110
 258:lvgl/src/lv_widgets/lv_tabview.c ****                 ext->tab_name_ptr[0] = name_dm;
 3835              		.loc 1 258 19 is_stmt 0 view .LVU1111
 3836 0166 E38A     		ldrh	r3, [r4, #22]
 258:lvgl/src/lv_widgets/lv_tabview.c ****                 ext->tab_name_ptr[0] = name_dm;
 3837              		.loc 1 258 15 view .LVU1112
 3838 0168 012B     		cmp	r3, #1
 3839 016a 17D0     		beq	.L251
 263:lvgl/src/lv_widgets/lv_tabview.c ****                 ext->tab_name_ptr[ext->tab_cnt * 2 - 2] = name_dm;
 3840              		.loc 1 263 17 is_stmt 1 view .LVU1113
 263:lvgl/src/lv_widgets/lv_tabview.c ****                 ext->tab_name_ptr[ext->tab_cnt * 2 - 2] = name_dm;
 3841              		.loc 1 263 34 is_stmt 0 view .LVU1114
 3842 016c DB00     		lsls	r3, r3, #3
 3843 016e 0C3B     		subs	r3, r3, #12
 263:lvgl/src/lv_widgets/lv_tabview.c ****                 ext->tab_name_ptr[ext->tab_cnt * 2 - 2] = name_dm;
 3844              		.loc 1 263 57 view .LVU1115
 3845 0170 1549     		ldr	r1, .L252+16
 3846 0172 D150     		str	r1, [r2, r3]
 264:lvgl/src/lv_widgets/lv_tabview.c ****                 ext->tab_name_ptr[ext->tab_cnt * 2 - 1] = "";
 3847              		.loc 1 264 17 is_stmt 1 view .LVU1116
 264:lvgl/src/lv_widgets/lv_tabview.c ****                 ext->tab_name_ptr[ext->tab_cnt * 2 - 1] = "";
 3848              		.loc 1 264 20 is_stmt 0 view .LVU1117
 3849 0174 E268     		ldr	r2, [r4, #12]
 264:lvgl/src/lv_widgets/lv_tabview.c ****                 ext->tab_name_ptr[ext->tab_cnt * 2 - 1] = "";
 3850              		.loc 1 264 38 view .LVU1118
 3851 0176 E38A     		ldrh	r3, [r4, #22]
 264:lvgl/src/lv_widgets/lv_tabview.c ****                 ext->tab_name_ptr[ext->tab_cnt * 2 - 1] = "";
 3852              		.loc 1 264 34 view .LVU1119
 3853 0178 03F10053 		add	r3, r3, #536870912
 3854 017c 013B     		subs	r3, r3, #1
 264:lvgl/src/lv_widgets/lv_tabview.c ****                 ext->tab_name_ptr[ext->tab_cnt * 2 - 1] = "";
 3855              		.loc 1 264 57 view .LVU1120
 3856 017e 42F83360 		str	r6, [r2, r3, lsl #3]
 265:lvgl/src/lv_widgets/lv_tabview.c ****             }
 3857              		.loc 1 265 17 is_stmt 1 view .LVU1121
 265:lvgl/src/lv_widgets/lv_tabview.c ****             }
 3858              		.loc 1 265 20 is_stmt 0 view .LVU1122
 3859 0182 E268     		ldr	r2, [r4, #12]
 265:lvgl/src/lv_widgets/lv_tabview.c ****             }
 3860              		.loc 1 265 38 view .LVU1123
 3861 0184 E38A     		ldrh	r3, [r4, #22]
 265:lvgl/src/lv_widgets/lv_tabview.c ****             }
 3862              		.loc 1 265 34 view .LVU1124
 3863 0186 DB00     		lsls	r3, r3, #3
 3864 0188 043B     		subs	r3, r3, #4
 265:lvgl/src/lv_widgets/lv_tabview.c ****             }
 3865              		.loc 1 265 57 view .LVU1125
 3866 018a 0D49     		ldr	r1, .L252+8
 3867 018c D150     		str	r1, [r2, r3]
 3868 018e B1E7     		b	.L237
 3869              	.L250:
 255:lvgl/src/lv_widgets/lv_tabview.c ****             if(ext->tab_name_ptr == NULL) return NULL;
 3870              		.loc 1 255 13 is_stmt 1 discriminator 1 view .LVU1126
 255:lvgl/src/lv_widgets/lv_tabview.c ****             if(ext->tab_name_ptr == NULL) return NULL;
ARM GAS  D:\Temp\ccnA29ZW.s 			page 116


 3871              		.loc 1 255 13 discriminator 1 view .LVU1127
 3872 0190 E268     		ldr	r2, [r4, #12]
 3873 0192 0023     		movs	r3, #0
 3874 0194 0B48     		ldr	r0, .L252+12
 3875 0196 FFF7FEFF 		bl	lv_debug_log_error
 3876              	.LVL502:
 3877              	.L239:
 255:lvgl/src/lv_widgets/lv_tabview.c ****             if(ext->tab_name_ptr == NULL) return NULL;
 3878              		.loc 1 255 13 discriminator 5 view .LVU1128
 255:lvgl/src/lv_widgets/lv_tabview.c ****             if(ext->tab_name_ptr == NULL) return NULL;
 3879              		.loc 1 255 13 discriminator 5 view .LVU1129
 3880 019a FEE7     		b	.L239
 3881              	.L251:
 259:lvgl/src/lv_widgets/lv_tabview.c ****                 ext->tab_name_ptr[1] = "";
 3882              		.loc 1 259 17 view .LVU1130
 259:lvgl/src/lv_widgets/lv_tabview.c ****                 ext->tab_name_ptr[1] = "";
 3883              		.loc 1 259 38 is_stmt 0 view .LVU1131
 3884 019c 1660     		str	r6, [r2]
 260:lvgl/src/lv_widgets/lv_tabview.c ****             }
 3885              		.loc 1 260 17 is_stmt 1 view .LVU1132
 260:lvgl/src/lv_widgets/lv_tabview.c ****             }
 3886              		.loc 1 260 20 is_stmt 0 view .LVU1133
 3887 019e E368     		ldr	r3, [r4, #12]
 260:lvgl/src/lv_widgets/lv_tabview.c ****             }
 3888              		.loc 1 260 38 view .LVU1134
 3889 01a0 074A     		ldr	r2, .L252+8
 3890 01a2 5A60     		str	r2, [r3, #4]
 3891 01a4 A6E7     		b	.L237
 3892              	.L249:
 279:lvgl/src/lv_widgets/lv_tabview.c **** 
 3893              		.loc 1 279 28 is_stmt 1 discriminator 1 view .LVU1135
 279:lvgl/src/lv_widgets/lv_tabview.c **** 
 3894              		.loc 1 279 41 is_stmt 0 discriminator 1 view .LVU1136
 3895 01a6 0023     		movs	r3, #0
 3896 01a8 A382     		strh	r3, [r4, #20]	@ movhi
 3897 01aa B4E7     		b	.L241
 3898              	.L242:
 228:lvgl/src/lv_widgets/lv_tabview.c ****     strcpy(name_dm, name);
 3899              		.loc 1 228 32 view .LVU1137
 3900 01ac 0025     		movs	r5, #0
 3901              	.LVL503:
 228:lvgl/src/lv_widgets/lv_tabview.c ****     strcpy(name_dm, name);
 3902              		.loc 1 228 32 view .LVU1138
 3903 01ae BAE7     		b	.L225
 3904              	.LVL504:
 3905              	.L243:
 245:lvgl/src/lv_widgets/lv_tabview.c **** 
 3906              		.loc 1 245 50 view .LVU1139
 3907 01b0 0025     		movs	r5, #0
 3908              	.LVL505:
 245:lvgl/src/lv_widgets/lv_tabview.c **** 
 3909              		.loc 1 245 50 view .LVU1140
 3910 01b2 B8E7     		b	.L225
 3911              	.LVL506:
 3912              	.L244:
 256:lvgl/src/lv_widgets/lv_tabview.c **** 
 3913              		.loc 1 256 50 view .LVU1141
ARM GAS  D:\Temp\ccnA29ZW.s 			page 117


 3914 01b4 0025     		movs	r5, #0
 3915              	.LVL507:
 256:lvgl/src/lv_widgets/lv_tabview.c **** 
 3916              		.loc 1 256 50 view .LVU1142
 3917 01b6 B6E7     		b	.L225
 3918              	.L253:
 3919              		.align	2
 3920              	.L252:
 3921 01b8 00000000 		.word	.LC0
 3922 01bc 00000000 		.word	.LANCHOR0
 3923 01c0 00000000 		.word	.LC2
 3924 01c4 00000000 		.word	.LC1
 3925 01c8 00000000 		.word	.LC4
 3926              		.cfi_endproc
 3927              	.LFE491:
 3929              		.section	.text.lv_tabview_create,"ax",%progbits
 3930              		.align	1
 3931              		.global	lv_tabview_create
 3932              		.syntax unified
 3933              		.thumb
 3934              		.thumb_func
 3935              		.fpu fpv4-sp-d16
 3937              	lv_tabview_create:
 3938              	.LVL508:
 3939              	.LFB490:
  73:lvgl/src/lv_widgets/lv_tabview.c ****     LV_LOG_TRACE("tab view create started");
 3940              		.loc 1 73 1 is_stmt 1 view -0
 3941              		.cfi_startproc
 3942              		@ args = 0, pretend = 0, frame = 0
 3943              		@ frame_needed = 0, uses_anonymous_args = 0
  73:lvgl/src/lv_widgets/lv_tabview.c ****     LV_LOG_TRACE("tab view create started");
 3944              		.loc 1 73 1 is_stmt 0 view .LVU1144
 3945 0000 2DE9F047 		push	{r4, r5, r6, r7, r8, r9, r10, lr}
 3946              	.LCFI37:
 3947              		.cfi_def_cfa_offset 32
 3948              		.cfi_offset 4, -32
 3949              		.cfi_offset 5, -28
 3950              		.cfi_offset 6, -24
 3951              		.cfi_offset 7, -20
 3952              		.cfi_offset 8, -16
 3953              		.cfi_offset 9, -12
 3954              		.cfi_offset 10, -8
 3955              		.cfi_offset 14, -4
 3956 0004 82B0     		sub	sp, sp, #8
 3957              	.LCFI38:
 3958              		.cfi_def_cfa_offset 40
 3959 0006 0746     		mov	r7, r0
 3960 0008 0E46     		mov	r6, r1
  74:lvgl/src/lv_widgets/lv_tabview.c **** 
 3961              		.loc 1 74 44 is_stmt 1 view .LVU1145
  77:lvgl/src/lv_widgets/lv_tabview.c ****     LV_ASSERT_MEM(tabview);
 3962              		.loc 1 77 5 view .LVU1146
  77:lvgl/src/lv_widgets/lv_tabview.c ****     LV_ASSERT_MEM(tabview);
 3963              		.loc 1 77 26 is_stmt 0 view .LVU1147
 3964 000a FFF7FEFF 		bl	lv_obj_create
 3965              	.LVL509:
  77:lvgl/src/lv_widgets/lv_tabview.c ****     LV_ASSERT_MEM(tabview);
ARM GAS  D:\Temp\ccnA29ZW.s 			page 118


 3966              		.loc 1 77 26 view .LVU1148
 3967 000e 0546     		mov	r5, r0
 3968              	.LVL510:
  78:lvgl/src/lv_widgets/lv_tabview.c ****     if(tabview == NULL) return NULL;
 3969              		.loc 1 78 5 is_stmt 1 view .LVU1149
  78:lvgl/src/lv_widgets/lv_tabview.c ****     if(tabview == NULL) return NULL;
 3970              		.loc 1 78 5 view .LVU1150
 3971 0010 FFF7FEFF 		bl	lv_debug_check_null
 3972              	.LVL511:
  78:lvgl/src/lv_widgets/lv_tabview.c ****     if(tabview == NULL) return NULL;
 3973              		.loc 1 78 5 is_stmt 0 view .LVU1151
 3974 0014 0028     		cmp	r0, #0
 3975 0016 7AD0     		beq	.L276
  78:lvgl/src/lv_widgets/lv_tabview.c ****     if(tabview == NULL) return NULL;
 3976              		.loc 1 78 27 is_stmt 1 discriminator 2 view .LVU1152
  79:lvgl/src/lv_widgets/lv_tabview.c ****     if(ancestor_signal == NULL) ancestor_signal = lv_obj_get_signal_cb(tabview);
 3977              		.loc 1 79 5 discriminator 2 view .LVU1153
  79:lvgl/src/lv_widgets/lv_tabview.c ****     if(ancestor_signal == NULL) ancestor_signal = lv_obj_get_signal_cb(tabview);
 3978              		.loc 1 79 7 is_stmt 0 discriminator 2 view .LVU1154
 3979 0018 002D     		cmp	r5, #0
 3980 001a 00F04981 		beq	.L254
  80:lvgl/src/lv_widgets/lv_tabview.c **** 
 3981              		.loc 1 80 5 is_stmt 1 view .LVU1155
  80:lvgl/src/lv_widgets/lv_tabview.c **** 
 3982              		.loc 1 80 24 is_stmt 0 view .LVU1156
 3983 001e A84B     		ldr	r3, .L284
 3984 0020 1B68     		ldr	r3, [r3]
  80:lvgl/src/lv_widgets/lv_tabview.c **** 
 3985              		.loc 1 80 7 view .LVU1157
 3986 0022 002B     		cmp	r3, #0
 3987 0024 79D0     		beq	.L277
 3988              	.L258:
  83:lvgl/src/lv_widgets/lv_tabview.c ****     LV_ASSERT_MEM(ext);
 3989              		.loc 1 83 5 is_stmt 1 view .LVU1158
  83:lvgl/src/lv_widgets/lv_tabview.c ****     LV_ASSERT_MEM(ext);
 3990              		.loc 1 83 30 is_stmt 0 view .LVU1159
 3991 0026 1C21     		movs	r1, #28
 3992 0028 2846     		mov	r0, r5
 3993 002a FFF7FEFF 		bl	lv_obj_allocate_ext_attr
 3994              	.LVL512:
 3995 002e 0446     		mov	r4, r0
 3996              	.LVL513:
  84:lvgl/src/lv_widgets/lv_tabview.c ****     if(ext == NULL) {
 3997              		.loc 1 84 5 is_stmt 1 view .LVU1160
  84:lvgl/src/lv_widgets/lv_tabview.c ****     if(ext == NULL) {
 3998              		.loc 1 84 5 view .LVU1161
 3999 0030 FFF7FEFF 		bl	lv_debug_check_null
 4000              	.LVL514:
  84:lvgl/src/lv_widgets/lv_tabview.c ****     if(ext == NULL) {
 4001              		.loc 1 84 5 is_stmt 0 view .LVU1162
 4002 0034 0028     		cmp	r0, #0
 4003 0036 76D0     		beq	.L278
  84:lvgl/src/lv_widgets/lv_tabview.c ****     if(ext == NULL) {
 4004              		.loc 1 84 23 is_stmt 1 discriminator 2 view .LVU1163
  85:lvgl/src/lv_widgets/lv_tabview.c ****         lv_obj_del(tabview);
 4005              		.loc 1 85 5 discriminator 2 view .LVU1164
  85:lvgl/src/lv_widgets/lv_tabview.c ****         lv_obj_del(tabview);
ARM GAS  D:\Temp\ccnA29ZW.s 			page 119


 4006              		.loc 1 85 7 is_stmt 0 discriminator 2 view .LVU1165
 4007 0038 002C     		cmp	r4, #0
 4008 003a 7AD0     		beq	.L279
  91:lvgl/src/lv_widgets/lv_tabview.c ****     ext->tab_cnt      = 0;
 4009              		.loc 1 91 5 is_stmt 1 view .LVU1166
  91:lvgl/src/lv_widgets/lv_tabview.c ****     ext->tab_cnt      = 0;
 4010              		.loc 1 91 23 is_stmt 0 view .LVU1167
 4011 003c 0023     		movs	r3, #0
 4012 003e A382     		strh	r3, [r4, #20]	@ movhi
  92:lvgl/src/lv_widgets/lv_tabview.c ****     ext->point_last.x = 0;
 4013              		.loc 1 92 5 is_stmt 1 view .LVU1168
  92:lvgl/src/lv_widgets/lv_tabview.c ****     ext->point_last.x = 0;
 4014              		.loc 1 92 23 is_stmt 0 view .LVU1169
 4015 0040 E382     		strh	r3, [r4, #22]	@ movhi
  93:lvgl/src/lv_widgets/lv_tabview.c ****     ext->point_last.y = 0;
 4016              		.loc 1 93 5 is_stmt 1 view .LVU1170
  93:lvgl/src/lv_widgets/lv_tabview.c ****     ext->point_last.y = 0;
 4017              		.loc 1 93 23 is_stmt 0 view .LVU1171
 4018 0042 2382     		strh	r3, [r4, #16]	@ movhi
  94:lvgl/src/lv_widgets/lv_tabview.c ****     ext->content      = NULL;
 4019              		.loc 1 94 5 is_stmt 1 view .LVU1172
  94:lvgl/src/lv_widgets/lv_tabview.c ****     ext->content      = NULL;
 4020              		.loc 1 94 23 is_stmt 0 view .LVU1173
 4021 0044 6382     		strh	r3, [r4, #18]	@ movhi
  95:lvgl/src/lv_widgets/lv_tabview.c ****     ext->indic        = NULL;
 4022              		.loc 1 95 5 is_stmt 1 view .LVU1174
  95:lvgl/src/lv_widgets/lv_tabview.c ****     ext->indic        = NULL;
 4023              		.loc 1 95 23 is_stmt 0 view .LVU1175
 4024 0046 A360     		str	r3, [r4, #8]
  96:lvgl/src/lv_widgets/lv_tabview.c ****     ext->btns         = NULL;
 4025              		.loc 1 96 5 is_stmt 1 view .LVU1176
  96:lvgl/src/lv_widgets/lv_tabview.c ****     ext->btns         = NULL;
 4026              		.loc 1 96 23 is_stmt 0 view .LVU1177
 4027 0048 6360     		str	r3, [r4, #4]
  97:lvgl/src/lv_widgets/lv_tabview.c ****     ext->btns_pos     = LV_TABVIEW_TAB_POS_TOP;
 4028              		.loc 1 97 5 is_stmt 1 view .LVU1178
  97:lvgl/src/lv_widgets/lv_tabview.c ****     ext->btns_pos     = LV_TABVIEW_TAB_POS_TOP;
 4029              		.loc 1 97 23 is_stmt 0 view .LVU1179
 4030 004a 2360     		str	r3, [r4]
  98:lvgl/src/lv_widgets/lv_tabview.c **** #if LV_USE_ANIMATION
 4031              		.loc 1 98 5 is_stmt 1 view .LVU1180
  98:lvgl/src/lv_widgets/lv_tabview.c **** #if LV_USE_ANIMATION
 4032              		.loc 1 98 23 is_stmt 0 view .LVU1181
 4033 004c A37E     		ldrb	r3, [r4, #26]	@ zero_extendqisi2
 4034 004e 0122     		movs	r2, #1
 4035 0050 62F30203 		bfi	r3, r2, #0, #3
 4036 0054 A376     		strb	r3, [r4, #26]
 100:lvgl/src/lv_widgets/lv_tabview.c **** #endif
 4037              		.loc 1 100 5 is_stmt 1 view .LVU1182
 100:lvgl/src/lv_widgets/lv_tabview.c **** #endif
 4038              		.loc 1 100 20 is_stmt 0 view .LVU1183
 4039 0056 4FF49673 		mov	r3, #300
 4040 005a 2383     		strh	r3, [r4, #24]	@ movhi
 104:lvgl/src/lv_widgets/lv_tabview.c ****     /*Init the new tab tab*/
 4041              		.loc 1 104 5 is_stmt 1 view .LVU1184
 4042 005c 9949     		ldr	r1, .L284+4
 4043 005e 2846     		mov	r0, r5
ARM GAS  D:\Temp\ccnA29ZW.s 			page 120


 4044 0060 FFF7FEFF 		bl	lv_obj_set_signal_cb
 4045              	.LVL515:
 106:lvgl/src/lv_widgets/lv_tabview.c ****         ext->tab_name_ptr = lv_mem_alloc(sizeof(char *));
 4046              		.loc 1 106 5 view .LVU1185
 106:lvgl/src/lv_widgets/lv_tabview.c ****         ext->tab_name_ptr = lv_mem_alloc(sizeof(char *));
 4047              		.loc 1 106 7 is_stmt 0 view .LVU1186
 4048 0064 002E     		cmp	r6, #0
 4049 0066 69D0     		beq	.L280
 4050              	.LBB173:
 152:lvgl/src/lv_widgets/lv_tabview.c ****         ext->point_last.x           = 0;
 4051              		.loc 1 152 9 is_stmt 1 view .LVU1187
 152:lvgl/src/lv_widgets/lv_tabview.c ****         ext->point_last.x           = 0;
 4052              		.loc 1 152 39 is_stmt 0 view .LVU1188
 4053 0068 3046     		mov	r0, r6
 4054 006a FFF7FEFF 		bl	lv_obj_get_ext_attr
 4055              	.LVL516:
 4056 006e 0746     		mov	r7, r0
 4057              	.LVL517:
 153:lvgl/src/lv_widgets/lv_tabview.c ****         ext->point_last.y           = 0;
 4058              		.loc 1 153 9 is_stmt 1 view .LVU1189
 153:lvgl/src/lv_widgets/lv_tabview.c ****         ext->point_last.y           = 0;
 4059              		.loc 1 153 37 is_stmt 0 view .LVU1190
 4060 0070 0023     		movs	r3, #0
 4061 0072 2382     		strh	r3, [r4, #16]	@ movhi
 154:lvgl/src/lv_widgets/lv_tabview.c ****         ext->btns                   = lv_btnmatrix_create(tabview, copy_ext->btns);
 4062              		.loc 1 154 9 is_stmt 1 view .LVU1191
 154:lvgl/src/lv_widgets/lv_tabview.c ****         ext->btns                   = lv_btnmatrix_create(tabview, copy_ext->btns);
 4063              		.loc 1 154 37 is_stmt 0 view .LVU1192
 4064 0074 6382     		strh	r3, [r4, #18]	@ movhi
 155:lvgl/src/lv_widgets/lv_tabview.c ****         ext->indic                  = lv_obj_create(ext->btns, copy_ext->indic);
 4065              		.loc 1 155 9 is_stmt 1 view .LVU1193
 155:lvgl/src/lv_widgets/lv_tabview.c ****         ext->indic                  = lv_obj_create(ext->btns, copy_ext->indic);
 4066              		.loc 1 155 39 is_stmt 0 view .LVU1194
 4067 0076 0168     		ldr	r1, [r0]
 4068 0078 2846     		mov	r0, r5
 4069              	.LVL518:
 155:lvgl/src/lv_widgets/lv_tabview.c ****         ext->indic                  = lv_obj_create(ext->btns, copy_ext->indic);
 4070              		.loc 1 155 39 view .LVU1195
 4071 007a FFF7FEFF 		bl	lv_btnmatrix_create
 4072              	.LVL519:
 155:lvgl/src/lv_widgets/lv_tabview.c ****         ext->indic                  = lv_obj_create(ext->btns, copy_ext->indic);
 4073              		.loc 1 155 37 view .LVU1196
 4074 007e 2060     		str	r0, [r4]
 156:lvgl/src/lv_widgets/lv_tabview.c ****         ext->content                = lv_page_create(tabview, copy_ext->content);
 4075              		.loc 1 156 9 is_stmt 1 view .LVU1197
 156:lvgl/src/lv_widgets/lv_tabview.c ****         ext->content                = lv_page_create(tabview, copy_ext->content);
 4076              		.loc 1 156 39 is_stmt 0 view .LVU1198
 4077 0080 7968     		ldr	r1, [r7, #4]
 4078 0082 FFF7FEFF 		bl	lv_obj_create
 4079              	.LVL520:
 156:lvgl/src/lv_widgets/lv_tabview.c ****         ext->content                = lv_page_create(tabview, copy_ext->content);
 4080              		.loc 1 156 37 view .LVU1199
 4081 0086 6060     		str	r0, [r4, #4]
 157:lvgl/src/lv_widgets/lv_tabview.c **** #if LV_USE_ANIMATION
 4082              		.loc 1 157 9 is_stmt 1 view .LVU1200
 157:lvgl/src/lv_widgets/lv_tabview.c **** #if LV_USE_ANIMATION
 4083              		.loc 1 157 39 is_stmt 0 view .LVU1201
ARM GAS  D:\Temp\ccnA29ZW.s 			page 121


 4084 0088 B968     		ldr	r1, [r7, #8]
 4085 008a 2846     		mov	r0, r5
 4086 008c FFF7FEFF 		bl	lv_page_create
 4087              	.LVL521:
 157:lvgl/src/lv_widgets/lv_tabview.c **** #if LV_USE_ANIMATION
 4088              		.loc 1 157 37 view .LVU1202
 4089 0090 A060     		str	r0, [r4, #8]
 159:lvgl/src/lv_widgets/lv_tabview.c **** #endif
 4090              		.loc 1 159 9 is_stmt 1 view .LVU1203
 159:lvgl/src/lv_widgets/lv_tabview.c **** #endif
 4091              		.loc 1 159 34 is_stmt 0 view .LVU1204
 4092 0092 3B8B     		ldrh	r3, [r7, #24]
 159:lvgl/src/lv_widgets/lv_tabview.c **** #endif
 4093              		.loc 1 159 24 view .LVU1205
 4094 0094 2383     		strh	r3, [r4, #24]	@ movhi
 162:lvgl/src/lv_widgets/lv_tabview.c ****         LV_ASSERT_MEM(ext->tab_name_ptr);
 4095              		.loc 1 162 9 is_stmt 1 view .LVU1206
 162:lvgl/src/lv_widgets/lv_tabview.c ****         LV_ASSERT_MEM(ext->tab_name_ptr);
 4096              		.loc 1 162 29 is_stmt 0 view .LVU1207
 4097 0096 0420     		movs	r0, #4
 4098 0098 FFF7FEFF 		bl	lv_mem_alloc
 4099              	.LVL522:
 162:lvgl/src/lv_widgets/lv_tabview.c ****         LV_ASSERT_MEM(ext->tab_name_ptr);
 4100              		.loc 1 162 27 view .LVU1208
 4101 009c E060     		str	r0, [r4, #12]
 163:lvgl/src/lv_widgets/lv_tabview.c ****         if(ext->tab_name_ptr == NULL) return NULL;
 4102              		.loc 1 163 9 is_stmt 1 view .LVU1209
 163:lvgl/src/lv_widgets/lv_tabview.c ****         if(ext->tab_name_ptr == NULL) return NULL;
 4103              		.loc 1 163 9 view .LVU1210
 4104 009e FFF7FEFF 		bl	lv_debug_check_null
 4105              	.LVL523:
 4106 00a2 0028     		cmp	r0, #0
 4107 00a4 00F0C680 		beq	.L281
 163:lvgl/src/lv_widgets/lv_tabview.c ****         if(ext->tab_name_ptr == NULL) return NULL;
 4108              		.loc 1 163 41 discriminator 2 view .LVU1211
 164:lvgl/src/lv_widgets/lv_tabview.c ****         ext->tab_name_ptr[0] = "";
 4109              		.loc 1 164 9 discriminator 2 view .LVU1212
 164:lvgl/src/lv_widgets/lv_tabview.c ****         ext->tab_name_ptr[0] = "";
 4110              		.loc 1 164 15 is_stmt 0 discriminator 2 view .LVU1213
 4111 00a8 E368     		ldr	r3, [r4, #12]
 164:lvgl/src/lv_widgets/lv_tabview.c ****         ext->tab_name_ptr[0] = "";
 4112              		.loc 1 164 11 discriminator 2 view .LVU1214
 4113 00aa 002B     		cmp	r3, #0
 4114 00ac 00F00681 		beq	.L274
 165:lvgl/src/lv_widgets/lv_tabview.c ****         lv_btnmatrix_set_map(ext->btns, ext->tab_name_ptr);
 4115              		.loc 1 165 9 is_stmt 1 view .LVU1215
 165:lvgl/src/lv_widgets/lv_tabview.c ****         lv_btnmatrix_set_map(ext->btns, ext->tab_name_ptr);
 4116              		.loc 1 165 30 is_stmt 0 view .LVU1216
 4117 00b0 854A     		ldr	r2, .L284+8
 4118 00b2 1A60     		str	r2, [r3]
 166:lvgl/src/lv_widgets/lv_tabview.c **** 
 4119              		.loc 1 166 9 is_stmt 1 view .LVU1217
 4120 00b4 E168     		ldr	r1, [r4, #12]
 4121 00b6 2068     		ldr	r0, [r4]
 4122 00b8 FFF7FEFF 		bl	lv_btnmatrix_set_map
 4123              	.LVL524:
 168:lvgl/src/lv_widgets/lv_tabview.c ****                                                                                                    
ARM GAS  D:\Temp\ccnA29ZW.s 			page 122


 4124              		.loc 1 168 9 view .LVU1218
 4125 00bc 4021     		movs	r1, #64
 4126 00be 2846     		mov	r0, r5
 4127 00c0 FFF7FEFF 		bl	lv_obj_get_style_list
 4128              	.LVL525:
 4129 00c4 0446     		mov	r4, r0
 4130              	.LVL526:
 168:lvgl/src/lv_widgets/lv_tabview.c ****                                                                                                    
 4131              		.loc 1 168 91 is_stmt 0 view .LVU1219
 4132 00c6 4021     		movs	r1, #64
 4133 00c8 3046     		mov	r0, r6
 4134 00ca FFF7FEFF 		bl	lv_obj_get_style_list
 4135              	.LVL527:
 168:lvgl/src/lv_widgets/lv_tabview.c ****                                                                                                    
 4136              		.loc 1 168 9 view .LVU1220
 4137 00ce 0146     		mov	r1, r0
 4138 00d0 2046     		mov	r0, r4
 4139 00d2 FFF7FEFF 		bl	lv_style_list_copy
 4140              	.LVL528:
 170:lvgl/src/lv_widgets/lv_tabview.c ****                                                                                                    
 4141              		.loc 1 170 9 is_stmt 1 view .LVU1221
 4142 00d6 4121     		movs	r1, #65
 4143 00d8 2846     		mov	r0, r5
 4144 00da FFF7FEFF 		bl	lv_obj_get_style_list
 4145              	.LVL529:
 4146 00de 0446     		mov	r4, r0
 170:lvgl/src/lv_widgets/lv_tabview.c ****                                                                                                    
 4147              		.loc 1 170 84 is_stmt 0 view .LVU1222
 4148 00e0 4121     		movs	r1, #65
 4149 00e2 3046     		mov	r0, r6
 4150 00e4 FFF7FEFF 		bl	lv_obj_get_style_list
 4151              	.LVL530:
 170:lvgl/src/lv_widgets/lv_tabview.c ****                                                                                                    
 4152              		.loc 1 170 9 view .LVU1223
 4153 00e8 0146     		mov	r1, r0
 4154 00ea 2046     		mov	r0, r4
 4155 00ec FFF7FEFF 		bl	lv_style_list_copy
 4156              	.LVL531:
 172:lvgl/src/lv_widgets/lv_tabview.c ****                                                                                                    
 4157              		.loc 1 172 9 is_stmt 1 view .LVU1224
 4158 00f0 4221     		movs	r1, #66
 4159 00f2 2846     		mov	r0, r5
 4160 00f4 FFF7FEFF 		bl	lv_obj_get_style_list
 4161              	.LVL532:
 4162 00f8 0446     		mov	r4, r0
 172:lvgl/src/lv_widgets/lv_tabview.c ****                                                                                                    
 4163              		.loc 1 172 85 is_stmt 0 view .LVU1225
 4164 00fa 4221     		movs	r1, #66
 4165 00fc 3046     		mov	r0, r6
 4166 00fe FFF7FEFF 		bl	lv_obj_get_style_list
 4167              	.LVL533:
 172:lvgl/src/lv_widgets/lv_tabview.c ****                                                                                                    
 4168              		.loc 1 172 9 view .LVU1226
 4169 0102 0146     		mov	r1, r0
 4170 0104 2046     		mov	r0, r4
 4171 0106 FFF7FEFF 		bl	lv_style_list_copy
 4172              	.LVL534:
ARM GAS  D:\Temp\ccnA29ZW.s 			page 123


 175:lvgl/src/lv_widgets/lv_tabview.c ****         for(i = 0; i < copy_ext->tab_cnt; i++) {
 4173              		.loc 1 175 9 is_stmt 1 view .LVU1227
 176:lvgl/src/lv_widgets/lv_tabview.c ****             lv_obj_t * new_tab = lv_tabview_add_tab(tabview, copy_ext->tab_name_ptr[i]);
 4174              		.loc 1 176 9 view .LVU1228
 176:lvgl/src/lv_widgets/lv_tabview.c ****             lv_obj_t * new_tab = lv_tabview_add_tab(tabview, copy_ext->tab_name_ptr[i]);
 4175              		.loc 1 176 15 is_stmt 0 view .LVU1229
 4176 010a 0024     		movs	r4, #0
 176:lvgl/src/lv_widgets/lv_tabview.c ****             lv_obj_t * new_tab = lv_tabview_add_tab(tabview, copy_ext->tab_name_ptr[i]);
 4177              		.loc 1 176 9 view .LVU1230
 4178 010c C5E0     		b	.L271
 4179              	.LVL535:
 4180              	.L276:
 176:lvgl/src/lv_widgets/lv_tabview.c ****             lv_obj_t * new_tab = lv_tabview_add_tab(tabview, copy_ext->tab_name_ptr[i]);
 4181              		.loc 1 176 9 view .LVU1231
 4182              	.LBE173:
  78:lvgl/src/lv_widgets/lv_tabview.c ****     if(tabview == NULL) return NULL;
 4183              		.loc 1 78 5 is_stmt 1 discriminator 1 view .LVU1232
  78:lvgl/src/lv_widgets/lv_tabview.c ****     if(tabview == NULL) return NULL;
 4184              		.loc 1 78 5 discriminator 1 view .LVU1233
 4185 010e 2A46     		mov	r2, r5
 4186 0110 0023     		movs	r3, #0
 4187 0112 6E48     		ldr	r0, .L284+12
 4188 0114 FFF7FEFF 		bl	lv_debug_log_error
 4189              	.LVL536:
 4190              	.L256:
  78:lvgl/src/lv_widgets/lv_tabview.c ****     if(tabview == NULL) return NULL;
 4191              		.loc 1 78 5 discriminator 1 view .LVU1234
  78:lvgl/src/lv_widgets/lv_tabview.c ****     if(tabview == NULL) return NULL;
 4192              		.loc 1 78 5 discriminator 1 view .LVU1235
 4193 0118 FEE7     		b	.L256
 4194              	.L277:
  80:lvgl/src/lv_widgets/lv_tabview.c **** 
 4195              		.loc 1 80 33 discriminator 1 view .LVU1236
  80:lvgl/src/lv_widgets/lv_tabview.c **** 
 4196              		.loc 1 80 51 is_stmt 0 discriminator 1 view .LVU1237
 4197 011a 2846     		mov	r0, r5
 4198 011c FFF7FEFF 		bl	lv_obj_get_signal_cb
 4199              	.LVL537:
  80:lvgl/src/lv_widgets/lv_tabview.c **** 
 4200              		.loc 1 80 49 discriminator 1 view .LVU1238
 4201 0120 674B     		ldr	r3, .L284
 4202 0122 1860     		str	r0, [r3]
 4203 0124 7FE7     		b	.L258
 4204              	.LVL538:
 4205              	.L278:
  84:lvgl/src/lv_widgets/lv_tabview.c ****     if(ext == NULL) {
 4206              		.loc 1 84 5 is_stmt 1 discriminator 1 view .LVU1239
  84:lvgl/src/lv_widgets/lv_tabview.c ****     if(ext == NULL) {
 4207              		.loc 1 84 5 discriminator 1 view .LVU1240
 4208 0126 2246     		mov	r2, r4
 4209 0128 0023     		movs	r3, #0
 4210 012a 6848     		ldr	r0, .L284+12
 4211 012c FFF7FEFF 		bl	lv_debug_log_error
 4212              	.LVL539:
 4213              	.L260:
  84:lvgl/src/lv_widgets/lv_tabview.c ****     if(ext == NULL) {
 4214              		.loc 1 84 5 discriminator 2 view .LVU1241
ARM GAS  D:\Temp\ccnA29ZW.s 			page 124


  84:lvgl/src/lv_widgets/lv_tabview.c ****     if(ext == NULL) {
 4215              		.loc 1 84 5 discriminator 2 view .LVU1242
 4216 0130 FEE7     		b	.L260
 4217              	.L279:
  86:lvgl/src/lv_widgets/lv_tabview.c ****         return NULL;
 4218              		.loc 1 86 9 view .LVU1243
 4219 0132 2846     		mov	r0, r5
 4220 0134 FFF7FEFF 		bl	lv_obj_del
 4221              	.LVL540:
  87:lvgl/src/lv_widgets/lv_tabview.c ****     }
 4222              		.loc 1 87 9 view .LVU1244
  87:lvgl/src/lv_widgets/lv_tabview.c ****     }
 4223              		.loc 1 87 16 is_stmt 0 view .LVU1245
 4224 0138 0025     		movs	r5, #0
 4225              	.LVL541:
  87:lvgl/src/lv_widgets/lv_tabview.c ****     }
 4226              		.loc 1 87 16 view .LVU1246
 4227 013a B9E0     		b	.L254
 4228              	.LVL542:
 4229              	.L280:
 4230              	.LBB175:
 107:lvgl/src/lv_widgets/lv_tabview.c ****         LV_ASSERT_MEM(ext->tab_name_ptr);
 4231              		.loc 1 107 9 is_stmt 1 view .LVU1247
 107:lvgl/src/lv_widgets/lv_tabview.c ****         LV_ASSERT_MEM(ext->tab_name_ptr);
 4232              		.loc 1 107 29 is_stmt 0 view .LVU1248
 4233 013c 0420     		movs	r0, #4
 4234 013e FFF7FEFF 		bl	lv_mem_alloc
 4235              	.LVL543:
 107:lvgl/src/lv_widgets/lv_tabview.c ****         LV_ASSERT_MEM(ext->tab_name_ptr);
 4236              		.loc 1 107 27 view .LVU1249
 4237 0142 E060     		str	r0, [r4, #12]
 108:lvgl/src/lv_widgets/lv_tabview.c ****         if(ext->tab_name_ptr == NULL) return NULL;
 4238              		.loc 1 108 9 is_stmt 1 view .LVU1250
 108:lvgl/src/lv_widgets/lv_tabview.c ****         if(ext->tab_name_ptr == NULL) return NULL;
 4239              		.loc 1 108 9 view .LVU1251
 4240 0144 FFF7FEFF 		bl	lv_debug_check_null
 4241              	.LVL544:
 4242 0148 0028     		cmp	r0, #0
 4243 014a 5DD0     		beq	.L282
 108:lvgl/src/lv_widgets/lv_tabview.c ****         if(ext->tab_name_ptr == NULL) return NULL;
 4244              		.loc 1 108 41 discriminator 2 view .LVU1252
 109:lvgl/src/lv_widgets/lv_tabview.c ****         ext->tab_name_ptr[0] = "";
 4245              		.loc 1 109 9 discriminator 2 view .LVU1253
 109:lvgl/src/lv_widgets/lv_tabview.c ****         ext->tab_name_ptr[0] = "";
 4246              		.loc 1 109 15 is_stmt 0 discriminator 2 view .LVU1254
 4247 014c E368     		ldr	r3, [r4, #12]
 109:lvgl/src/lv_widgets/lv_tabview.c ****         ext->tab_name_ptr[0] = "";
 4248              		.loc 1 109 11 discriminator 2 view .LVU1255
 4249 014e 002B     		cmp	r3, #0
 4250 0150 00F0B280 		beq	.L273
 110:lvgl/src/lv_widgets/lv_tabview.c **** 
 4251              		.loc 1 110 9 is_stmt 1 view .LVU1256
 110:lvgl/src/lv_widgets/lv_tabview.c **** 
 4252              		.loc 1 110 30 is_stmt 0 view .LVU1257
 4253 0154 5C4A     		ldr	r2, .L284+8
 4254 0156 1A60     		str	r2, [r3]
 115:lvgl/src/lv_widgets/lv_tabview.c ****         lv_coord_t h;
ARM GAS  D:\Temp\ccnA29ZW.s 			page 125


 4255              		.loc 1 115 9 is_stmt 1 view .LVU1258
 116:lvgl/src/lv_widgets/lv_tabview.c ****         if(par) {
 4256              		.loc 1 116 9 view .LVU1259
 117:lvgl/src/lv_widgets/lv_tabview.c ****             w = lv_obj_get_width_fit(lv_obj_get_parent(tabview));
 4257              		.loc 1 117 9 view .LVU1260
 117:lvgl/src/lv_widgets/lv_tabview.c ****             w = lv_obj_get_width_fit(lv_obj_get_parent(tabview));
 4258              		.loc 1 117 11 is_stmt 0 view .LVU1261
 4259 0158 002F     		cmp	r7, #0
 4260 015a 5BD0     		beq	.L265
 118:lvgl/src/lv_widgets/lv_tabview.c ****             h = lv_obj_get_height_fit(lv_obj_get_parent(tabview));
 4261              		.loc 1 118 13 is_stmt 1 view .LVU1262
 118:lvgl/src/lv_widgets/lv_tabview.c ****             h = lv_obj_get_height_fit(lv_obj_get_parent(tabview));
 4262              		.loc 1 118 38 is_stmt 0 view .LVU1263
 4263 015c 2846     		mov	r0, r5
 4264 015e FFF7FEFF 		bl	lv_obj_get_parent
 4265              	.LVL545:
 118:lvgl/src/lv_widgets/lv_tabview.c ****             h = lv_obj_get_height_fit(lv_obj_get_parent(tabview));
 4266              		.loc 1 118 17 view .LVU1264
 4267 0162 FFF7FEFF 		bl	lv_obj_get_width_fit
 4268              	.LVL546:
 4269 0166 0646     		mov	r6, r0
 4270              	.LVL547:
 119:lvgl/src/lv_widgets/lv_tabview.c ****         }
 4271              		.loc 1 119 13 is_stmt 1 view .LVU1265
 119:lvgl/src/lv_widgets/lv_tabview.c ****         }
 4272              		.loc 1 119 39 is_stmt 0 view .LVU1266
 4273 0168 2846     		mov	r0, r5
 4274 016a FFF7FEFF 		bl	lv_obj_get_parent
 4275              	.LVL548:
 119:lvgl/src/lv_widgets/lv_tabview.c ****         }
 4276              		.loc 1 119 17 view .LVU1267
 4277 016e FFF7FEFF 		bl	lv_obj_get_height_fit
 4278              	.LVL549:
 4279              	.L266:
 126:lvgl/src/lv_widgets/lv_tabview.c **** 
 4280              		.loc 1 126 9 is_stmt 1 view .LVU1268
 4281 0172 0246     		mov	r2, r0
 4282 0174 3146     		mov	r1, r6
 4283 0176 2846     		mov	r0, r5
 4284              	.LVL550:
 126:lvgl/src/lv_widgets/lv_tabview.c **** 
 4285              		.loc 1 126 9 is_stmt 0 view .LVU1269
 4286 0178 FFF7FEFF 		bl	lv_obj_set_size
 4287              	.LVL551:
 128:lvgl/src/lv_widgets/lv_tabview.c ****         ext->btns    = lv_btnmatrix_create(tabview, NULL);
 4288              		.loc 1 128 9 is_stmt 1 view .LVU1270
 128:lvgl/src/lv_widgets/lv_tabview.c ****         ext->btns    = lv_btnmatrix_create(tabview, NULL);
 4289              		.loc 1 128 24 is_stmt 0 view .LVU1271
 4290 017c 0021     		movs	r1, #0
 4291 017e 2846     		mov	r0, r5
 4292 0180 FFF7FEFF 		bl	lv_page_create
 4293              	.LVL552:
 128:lvgl/src/lv_widgets/lv_tabview.c ****         ext->btns    = lv_btnmatrix_create(tabview, NULL);
 4294              		.loc 1 128 22 view .LVU1272
 4295 0184 A060     		str	r0, [r4, #8]
 129:lvgl/src/lv_widgets/lv_tabview.c ****         ext->indic   = lv_obj_create(ext->btns, NULL);
 4296              		.loc 1 129 9 is_stmt 1 view .LVU1273
ARM GAS  D:\Temp\ccnA29ZW.s 			page 126


 129:lvgl/src/lv_widgets/lv_tabview.c ****         ext->indic   = lv_obj_create(ext->btns, NULL);
 4297              		.loc 1 129 24 is_stmt 0 view .LVU1274
 4298 0186 0021     		movs	r1, #0
 4299 0188 2846     		mov	r0, r5
 4300 018a FFF7FEFF 		bl	lv_btnmatrix_create
 4301              	.LVL553:
 129:lvgl/src/lv_widgets/lv_tabview.c ****         ext->indic   = lv_obj_create(ext->btns, NULL);
 4302              		.loc 1 129 22 view .LVU1275
 4303 018e 2060     		str	r0, [r4]
 130:lvgl/src/lv_widgets/lv_tabview.c **** 
 4304              		.loc 1 130 9 is_stmt 1 view .LVU1276
 130:lvgl/src/lv_widgets/lv_tabview.c **** 
 4305              		.loc 1 130 24 is_stmt 0 view .LVU1277
 4306 0190 0021     		movs	r1, #0
 4307 0192 FFF7FEFF 		bl	lv_obj_create
 4308              	.LVL554:
 130:lvgl/src/lv_widgets/lv_tabview.c **** 
 4309              		.loc 1 130 22 view .LVU1278
 4310 0196 6060     		str	r0, [r4, #4]
 132:lvgl/src/lv_widgets/lv_tabview.c ****         lv_obj_set_signal_cb(lv_page_get_scrollable(ext->content), tabview_scrl_signal);
 4311              		.loc 1 132 9 is_stmt 1 view .LVU1279
 132:lvgl/src/lv_widgets/lv_tabview.c ****         lv_obj_set_signal_cb(lv_page_get_scrollable(ext->content), tabview_scrl_signal);
 4312              		.loc 1 132 33 is_stmt 0 view .LVU1280
 4313 0198 4D4B     		ldr	r3, .L284+16
 4314 019a 1B68     		ldr	r3, [r3]
 132:lvgl/src/lv_widgets/lv_tabview.c ****         lv_obj_set_signal_cb(lv_page_get_scrollable(ext->content), tabview_scrl_signal);
 4315              		.loc 1 132 11 view .LVU1281
 4316 019c 002B     		cmp	r3, #0
 4317 019e 41D0     		beq	.L283
 4318              	.L267:
 133:lvgl/src/lv_widgets/lv_tabview.c **** 
 4319              		.loc 1 133 9 is_stmt 1 view .LVU1282
 4320 01a0 A068     		ldr	r0, [r4, #8]
 4321 01a2 FFF7FEFF 		bl	lv_page_get_scrollable
 4322              	.LVL555:
 4323 01a6 4B49     		ldr	r1, .L284+20
 4324 01a8 FFF7FEFF 		bl	lv_obj_set_signal_cb
 4325              	.LVL556:
 135:lvgl/src/lv_widgets/lv_tabview.c ****         lv_obj_set_event_cb(ext->btns, tab_btnm_event_cb);
 4326              		.loc 1 135 9 view .LVU1283
 4327 01ac 4A49     		ldr	r1, .L284+24
 4328 01ae 2068     		ldr	r0, [r4]
 4329 01b0 FFF7FEFF 		bl	lv_btnmatrix_set_map
 4330              	.LVL557:
 136:lvgl/src/lv_widgets/lv_tabview.c **** 
 4331              		.loc 1 136 9 view .LVU1284
 4332 01b4 4949     		ldr	r1, .L284+28
 4333 01b6 2068     		ldr	r0, [r4]
 4334 01b8 FFF7FEFF 		bl	lv_obj_set_event_cb
 4335              	.LVL558:
 138:lvgl/src/lv_widgets/lv_tabview.c ****         lv_obj_set_drag_dir(lv_page_get_scrollable(ext->content), LV_DRAG_DIR_ONE);
 4336              		.loc 1 138 9 view .LVU1285
 4337 01bc 0021     		movs	r1, #0
 4338 01be 6068     		ldr	r0, [r4, #4]
 4339 01c0 FFF7FEFF 		bl	lv_obj_set_click
 4340              	.LVL559:
 139:lvgl/src/lv_widgets/lv_tabview.c **** 
ARM GAS  D:\Temp\ccnA29ZW.s 			page 127


 4341              		.loc 1 139 9 view .LVU1286
 4342 01c4 A068     		ldr	r0, [r4, #8]
 4343 01c6 FFF7FEFF 		bl	lv_page_get_scrollable
 4344              	.LVL560:
 4345 01ca 0421     		movs	r1, #4
 4346 01cc FFF7FEFF 		bl	lv_obj_set_drag_dir
 4347              	.LVL561:
 141:lvgl/src/lv_widgets/lv_tabview.c ****         lv_page_set_scrl_layout(ext->content, LV_LAYOUT_ROW_TOP);
 4348              		.loc 1 141 9 view .LVU1287
 4349              	.LBB176:
 4350              	.LBI176:
 177:lvgl/src/lv_widgets/../lv_widgets/lv_page.h **** }
 178:lvgl/src/lv_widgets/../lv_widgets/lv_page.h **** 
 179:lvgl/src/lv_widgets/../lv_widgets/lv_page.h **** /**
 180:lvgl/src/lv_widgets/../lv_widgets/lv_page.h ****  * Set the fit policy horizontally and vertically separately.
 181:lvgl/src/lv_widgets/../lv_widgets/lv_page.h ****  * It tell how to change the page size automatically.
 182:lvgl/src/lv_widgets/../lv_widgets/lv_page.h ****  * @param page pointer to a page object
 183:lvgl/src/lv_widgets/../lv_widgets/lv_page.h ****  * @param hot horizontal fit policy from `lv_fit_t`
 184:lvgl/src/lv_widgets/../lv_widgets/lv_page.h ****  * @param ver vertical fit policy from `lv_fit_t`
 185:lvgl/src/lv_widgets/../lv_widgets/lv_page.h ****  */
 186:lvgl/src/lv_widgets/../lv_widgets/lv_page.h **** static inline void lv_page_set_scrollable_fit2(lv_obj_t * page, lv_fit_t hor, lv_fit_t ver)
 4351              		.loc 6 186 20 view .LVU1288
 4352              	.LBB177:
 187:lvgl/src/lv_widgets/../lv_widgets/lv_page.h **** {
 188:lvgl/src/lv_widgets/../lv_widgets/lv_page.h ****     lv_cont_set_fit2(lv_page_get_scrollable(page), hor, ver);
 4353              		.loc 6 188 5 view .LVU1289
 4354 01d0 A068     		ldr	r0, [r4, #8]
 4355 01d2 FFF7FEFF 		bl	lv_page_get_scrollable
 4356              	.LVL562:
 4357              	.LBB178:
 4358              	.LBI178:
 4359              		.file 7 "lvgl/src/lv_widgets/../lv_widgets/lv_cont.h"
   1:lvgl/src/lv_widgets/../lv_widgets/lv_cont.h **** /**
   2:lvgl/src/lv_widgets/../lv_widgets/lv_cont.h ****  * @file lv_cont.h
   3:lvgl/src/lv_widgets/../lv_widgets/lv_cont.h ****  *
   4:lvgl/src/lv_widgets/../lv_widgets/lv_cont.h ****  */
   5:lvgl/src/lv_widgets/../lv_widgets/lv_cont.h **** 
   6:lvgl/src/lv_widgets/../lv_widgets/lv_cont.h **** #ifndef LV_CONT_H
   7:lvgl/src/lv_widgets/../lv_widgets/lv_cont.h **** #define LV_CONT_H
   8:lvgl/src/lv_widgets/../lv_widgets/lv_cont.h **** 
   9:lvgl/src/lv_widgets/../lv_widgets/lv_cont.h **** #ifdef __cplusplus
  10:lvgl/src/lv_widgets/../lv_widgets/lv_cont.h **** extern "C" {
  11:lvgl/src/lv_widgets/../lv_widgets/lv_cont.h **** #endif
  12:lvgl/src/lv_widgets/../lv_widgets/lv_cont.h **** 
  13:lvgl/src/lv_widgets/../lv_widgets/lv_cont.h **** /*********************
  14:lvgl/src/lv_widgets/../lv_widgets/lv_cont.h ****  *      INCLUDES
  15:lvgl/src/lv_widgets/../lv_widgets/lv_cont.h ****  *********************/
  16:lvgl/src/lv_widgets/../lv_widgets/lv_cont.h **** #include "../lv_conf_internal.h"
  17:lvgl/src/lv_widgets/../lv_widgets/lv_cont.h **** 
  18:lvgl/src/lv_widgets/../lv_widgets/lv_cont.h **** #if LV_USE_CONT != 0
  19:lvgl/src/lv_widgets/../lv_widgets/lv_cont.h **** 
  20:lvgl/src/lv_widgets/../lv_widgets/lv_cont.h **** #include "../lv_core/lv_obj.h"
  21:lvgl/src/lv_widgets/../lv_widgets/lv_cont.h **** 
  22:lvgl/src/lv_widgets/../lv_widgets/lv_cont.h **** /*********************
  23:lvgl/src/lv_widgets/../lv_widgets/lv_cont.h ****  *      DEFINES
  24:lvgl/src/lv_widgets/../lv_widgets/lv_cont.h ****  *********************/
  25:lvgl/src/lv_widgets/../lv_widgets/lv_cont.h **** 
ARM GAS  D:\Temp\ccnA29ZW.s 			page 128


  26:lvgl/src/lv_widgets/../lv_widgets/lv_cont.h **** /**********************
  27:lvgl/src/lv_widgets/../lv_widgets/lv_cont.h ****  *      TYPEDEFS
  28:lvgl/src/lv_widgets/../lv_widgets/lv_cont.h ****  **********************/
  29:lvgl/src/lv_widgets/../lv_widgets/lv_cont.h **** 
  30:lvgl/src/lv_widgets/../lv_widgets/lv_cont.h **** /** Container layout options*/
  31:lvgl/src/lv_widgets/../lv_widgets/lv_cont.h **** enum {
  32:lvgl/src/lv_widgets/../lv_widgets/lv_cont.h ****     LV_LAYOUT_OFF = 0, /**< No layout */
  33:lvgl/src/lv_widgets/../lv_widgets/lv_cont.h ****     LV_LAYOUT_CENTER, /**< Center objects */
  34:lvgl/src/lv_widgets/../lv_widgets/lv_cont.h **** 
  35:lvgl/src/lv_widgets/../lv_widgets/lv_cont.h ****     /**
  36:lvgl/src/lv_widgets/../lv_widgets/lv_cont.h ****      * COLUMN:
  37:lvgl/src/lv_widgets/../lv_widgets/lv_cont.h ****      * - Place the object below each other
  38:lvgl/src/lv_widgets/../lv_widgets/lv_cont.h ****      * - Keep `pad_top` space on the top
  39:lvgl/src/lv_widgets/../lv_widgets/lv_cont.h ****      * - Keep `pad_inner` space between the objects
  40:lvgl/src/lv_widgets/../lv_widgets/lv_cont.h ****      */
  41:lvgl/src/lv_widgets/../lv_widgets/lv_cont.h ****     LV_LAYOUT_COLUMN_LEFT,      /**< Column left align*/
  42:lvgl/src/lv_widgets/../lv_widgets/lv_cont.h ****     LV_LAYOUT_COLUMN_MID,       /**< Column middle align*/
  43:lvgl/src/lv_widgets/../lv_widgets/lv_cont.h ****     LV_LAYOUT_COLUMN_RIGHT,     /**< Column right align*/
  44:lvgl/src/lv_widgets/../lv_widgets/lv_cont.h **** 
  45:lvgl/src/lv_widgets/../lv_widgets/lv_cont.h ****     /**
  46:lvgl/src/lv_widgets/../lv_widgets/lv_cont.h ****      * ROW:
  47:lvgl/src/lv_widgets/../lv_widgets/lv_cont.h ****      * - Place the object next to each other
  48:lvgl/src/lv_widgets/../lv_widgets/lv_cont.h ****      * - Keep `pad_left` space on the left
  49:lvgl/src/lv_widgets/../lv_widgets/lv_cont.h ****      * - Keep `pad_inner` space between the objects
  50:lvgl/src/lv_widgets/../lv_widgets/lv_cont.h ****      * - If the object which applies the layout has `base_dir == LV_BIDI_DIR_RTL`
  51:lvgl/src/lv_widgets/../lv_widgets/lv_cont.h ****      *   the row will start from the right applying `pad.right` space
  52:lvgl/src/lv_widgets/../lv_widgets/lv_cont.h ****      */
  53:lvgl/src/lv_widgets/../lv_widgets/lv_cont.h ****     LV_LAYOUT_ROW_TOP,          /**< Row top align*/
  54:lvgl/src/lv_widgets/../lv_widgets/lv_cont.h ****     LV_LAYOUT_ROW_MID,          /**< Row middle align*/
  55:lvgl/src/lv_widgets/../lv_widgets/lv_cont.h ****     LV_LAYOUT_ROW_BOTTOM,       /**< Row bottom align*/
  56:lvgl/src/lv_widgets/../lv_widgets/lv_cont.h **** 
  57:lvgl/src/lv_widgets/../lv_widgets/lv_cont.h ****     /**
  58:lvgl/src/lv_widgets/../lv_widgets/lv_cont.h ****      * PRETTY:
  59:lvgl/src/lv_widgets/../lv_widgets/lv_cont.h ****      * - Place the object next to each other
  60:lvgl/src/lv_widgets/../lv_widgets/lv_cont.h ****      * - If there is no more space start a new row
  61:lvgl/src/lv_widgets/../lv_widgets/lv_cont.h ****      * - Respect `pad_left` and `pad_right` when determining the available space in a row
  62:lvgl/src/lv_widgets/../lv_widgets/lv_cont.h ****      * - Keep `pad_inner` space between the objects in the same row
  63:lvgl/src/lv_widgets/../lv_widgets/lv_cont.h ****      * - Keep `pad_inner` space between the objects in rows
  64:lvgl/src/lv_widgets/../lv_widgets/lv_cont.h ****      * - Divide the remaining horizontal space equally
  65:lvgl/src/lv_widgets/../lv_widgets/lv_cont.h ****      */
  66:lvgl/src/lv_widgets/../lv_widgets/lv_cont.h ****     LV_LAYOUT_PRETTY_TOP,       /**< Row top align*/
  67:lvgl/src/lv_widgets/../lv_widgets/lv_cont.h ****     LV_LAYOUT_PRETTY_MID,       /**< Row middle align*/
  68:lvgl/src/lv_widgets/../lv_widgets/lv_cont.h ****     LV_LAYOUT_PRETTY_BOTTOM,    /**< Row bottom align*/
  69:lvgl/src/lv_widgets/../lv_widgets/lv_cont.h **** 
  70:lvgl/src/lv_widgets/../lv_widgets/lv_cont.h ****     /**
  71:lvgl/src/lv_widgets/../lv_widgets/lv_cont.h ****      * GRID
  72:lvgl/src/lv_widgets/../lv_widgets/lv_cont.h ****      * - Place the object next to each other
  73:lvgl/src/lv_widgets/../lv_widgets/lv_cont.h ****      * - If there is no more space start a new row
  74:lvgl/src/lv_widgets/../lv_widgets/lv_cont.h ****      * - Respect `pad_left` and `pad_right` when determining the available space in a row
  75:lvgl/src/lv_widgets/../lv_widgets/lv_cont.h ****      * - Keep `pad_inner` space between the objects in the same row
  76:lvgl/src/lv_widgets/../lv_widgets/lv_cont.h ****      * - Keep `pad_inner` space between the objects in rows
  77:lvgl/src/lv_widgets/../lv_widgets/lv_cont.h ****      * - Unlike `PRETTY`, `GRID` always keep `pad_inner` space horizontally between objects
  78:lvgl/src/lv_widgets/../lv_widgets/lv_cont.h ****      *   so it doesn't divide the remaining horizontal space equally
  79:lvgl/src/lv_widgets/../lv_widgets/lv_cont.h ****      */
  80:lvgl/src/lv_widgets/../lv_widgets/lv_cont.h ****     LV_LAYOUT_GRID,   /**< Align same-sized object into a grid*/
  81:lvgl/src/lv_widgets/../lv_widgets/lv_cont.h **** 
  82:lvgl/src/lv_widgets/../lv_widgets/lv_cont.h ****     _LV_LAYOUT_LAST
ARM GAS  D:\Temp\ccnA29ZW.s 			page 129


  83:lvgl/src/lv_widgets/../lv_widgets/lv_cont.h **** };
  84:lvgl/src/lv_widgets/../lv_widgets/lv_cont.h **** typedef uint8_t lv_layout_t;
  85:lvgl/src/lv_widgets/../lv_widgets/lv_cont.h **** 
  86:lvgl/src/lv_widgets/../lv_widgets/lv_cont.h **** /**
  87:lvgl/src/lv_widgets/../lv_widgets/lv_cont.h ****  * How to resize the container around the children.
  88:lvgl/src/lv_widgets/../lv_widgets/lv_cont.h ****  */
  89:lvgl/src/lv_widgets/../lv_widgets/lv_cont.h **** enum {
  90:lvgl/src/lv_widgets/../lv_widgets/lv_cont.h ****     LV_FIT_NONE,  /**< Do not change the size automatically*/
  91:lvgl/src/lv_widgets/../lv_widgets/lv_cont.h ****     LV_FIT_TIGHT, /**< Shrink wrap around the children */
  92:lvgl/src/lv_widgets/../lv_widgets/lv_cont.h ****     LV_FIT_PARENT, /**< Align the size to the parent's edge*/
  93:lvgl/src/lv_widgets/../lv_widgets/lv_cont.h ****     LV_FIT_MAX,  /**< Align the size to the parent's edge first but if there is an object out of it
  94:lvgl/src/lv_widgets/../lv_widgets/lv_cont.h ****                      then get larger */
  95:lvgl/src/lv_widgets/../lv_widgets/lv_cont.h ****     _LV_FIT_LAST
  96:lvgl/src/lv_widgets/../lv_widgets/lv_cont.h **** };
  97:lvgl/src/lv_widgets/../lv_widgets/lv_cont.h **** typedef uint8_t lv_fit_t;
  98:lvgl/src/lv_widgets/../lv_widgets/lv_cont.h **** 
  99:lvgl/src/lv_widgets/../lv_widgets/lv_cont.h **** typedef struct {
 100:lvgl/src/lv_widgets/../lv_widgets/lv_cont.h ****     /*Inherited from 'base_obj' so no inherited ext. */ /*Ext. of ancestor*/
 101:lvgl/src/lv_widgets/../lv_widgets/lv_cont.h ****     /*New data for this type */
 102:lvgl/src/lv_widgets/../lv_widgets/lv_cont.h ****     lv_layout_t layout : 4;     /*A layout from 'lv_layout_t' enum*/
 103:lvgl/src/lv_widgets/../lv_widgets/lv_cont.h ****     lv_fit_t fit_left : 2;   /*A fit type from `lv_fit_t` enum */
 104:lvgl/src/lv_widgets/../lv_widgets/lv_cont.h ****     lv_fit_t fit_right : 2;  /*A fit type from `lv_fit_t` enum */
 105:lvgl/src/lv_widgets/../lv_widgets/lv_cont.h ****     lv_fit_t fit_top : 2;    /*A fit type from `lv_fit_t` enum */
 106:lvgl/src/lv_widgets/../lv_widgets/lv_cont.h ****     lv_fit_t fit_bottom : 2; /*A fit type from `lv_fit_t` enum */
 107:lvgl/src/lv_widgets/../lv_widgets/lv_cont.h **** } lv_cont_ext_t;
 108:lvgl/src/lv_widgets/../lv_widgets/lv_cont.h **** 
 109:lvgl/src/lv_widgets/../lv_widgets/lv_cont.h **** /*Part of the container*/
 110:lvgl/src/lv_widgets/../lv_widgets/lv_cont.h **** enum {
 111:lvgl/src/lv_widgets/../lv_widgets/lv_cont.h ****     LV_CONT_PART_MAIN = LV_OBJ_PART_MAIN,
 112:lvgl/src/lv_widgets/../lv_widgets/lv_cont.h ****     _LV_CONT_PART_VIRTUAL_LAST = _LV_OBJ_PART_VIRTUAL_LAST,
 113:lvgl/src/lv_widgets/../lv_widgets/lv_cont.h ****     _LV_CONT_PART_REAL_LAST = _LV_OBJ_PART_REAL_LAST,
 114:lvgl/src/lv_widgets/../lv_widgets/lv_cont.h **** };
 115:lvgl/src/lv_widgets/../lv_widgets/lv_cont.h **** 
 116:lvgl/src/lv_widgets/../lv_widgets/lv_cont.h **** /**********************
 117:lvgl/src/lv_widgets/../lv_widgets/lv_cont.h ****  * GLOBAL PROTOTYPES
 118:lvgl/src/lv_widgets/../lv_widgets/lv_cont.h ****  **********************/
 119:lvgl/src/lv_widgets/../lv_widgets/lv_cont.h **** 
 120:lvgl/src/lv_widgets/../lv_widgets/lv_cont.h **** /**
 121:lvgl/src/lv_widgets/../lv_widgets/lv_cont.h ****  * Create a container objects
 122:lvgl/src/lv_widgets/../lv_widgets/lv_cont.h ****  * @param par pointer to an object, it will be the parent of the new container
 123:lvgl/src/lv_widgets/../lv_widgets/lv_cont.h ****  * @param copy pointer to a container object, if not NULL then the new object will be copied from i
 124:lvgl/src/lv_widgets/../lv_widgets/lv_cont.h ****  * @return pointer to the created container
 125:lvgl/src/lv_widgets/../lv_widgets/lv_cont.h ****  */
 126:lvgl/src/lv_widgets/../lv_widgets/lv_cont.h **** lv_obj_t * lv_cont_create(lv_obj_t * par, const lv_obj_t * copy);
 127:lvgl/src/lv_widgets/../lv_widgets/lv_cont.h **** 
 128:lvgl/src/lv_widgets/../lv_widgets/lv_cont.h **** /*=====================
 129:lvgl/src/lv_widgets/../lv_widgets/lv_cont.h ****  * Setter functions
 130:lvgl/src/lv_widgets/../lv_widgets/lv_cont.h ****  *====================*/
 131:lvgl/src/lv_widgets/../lv_widgets/lv_cont.h **** 
 132:lvgl/src/lv_widgets/../lv_widgets/lv_cont.h **** /**
 133:lvgl/src/lv_widgets/../lv_widgets/lv_cont.h ****  * Set a layout on a container
 134:lvgl/src/lv_widgets/../lv_widgets/lv_cont.h ****  * @param cont pointer to a container object
 135:lvgl/src/lv_widgets/../lv_widgets/lv_cont.h ****  * @param layout a layout from 'lv_cont_layout_t'
 136:lvgl/src/lv_widgets/../lv_widgets/lv_cont.h ****  */
 137:lvgl/src/lv_widgets/../lv_widgets/lv_cont.h **** void lv_cont_set_layout(lv_obj_t * cont, lv_layout_t layout);
 138:lvgl/src/lv_widgets/../lv_widgets/lv_cont.h **** 
 139:lvgl/src/lv_widgets/../lv_widgets/lv_cont.h **** /**
ARM GAS  D:\Temp\ccnA29ZW.s 			page 130


 140:lvgl/src/lv_widgets/../lv_widgets/lv_cont.h ****  * Set the fit policy in all 4 directions separately.
 141:lvgl/src/lv_widgets/../lv_widgets/lv_cont.h ****  * It tell how to change the container's size automatically.
 142:lvgl/src/lv_widgets/../lv_widgets/lv_cont.h ****  * @param cont pointer to a container object
 143:lvgl/src/lv_widgets/../lv_widgets/lv_cont.h ****  * @param left left fit policy from `lv_fit_t`
 144:lvgl/src/lv_widgets/../lv_widgets/lv_cont.h ****  * @param right right fit policy from `lv_fit_t`
 145:lvgl/src/lv_widgets/../lv_widgets/lv_cont.h ****  * @param top top fit policy from `lv_fit_t`
 146:lvgl/src/lv_widgets/../lv_widgets/lv_cont.h ****  * @param bottom bottom fit policy from `lv_fit_t`
 147:lvgl/src/lv_widgets/../lv_widgets/lv_cont.h ****  */
 148:lvgl/src/lv_widgets/../lv_widgets/lv_cont.h **** void lv_cont_set_fit4(lv_obj_t * cont, lv_fit_t left, lv_fit_t right, lv_fit_t top, lv_fit_t bottom
 149:lvgl/src/lv_widgets/../lv_widgets/lv_cont.h **** 
 150:lvgl/src/lv_widgets/../lv_widgets/lv_cont.h **** /**
 151:lvgl/src/lv_widgets/../lv_widgets/lv_cont.h ****  * Set the fit policy horizontally and vertically separately.
 152:lvgl/src/lv_widgets/../lv_widgets/lv_cont.h ****  * It tells how to change the container's size automatically.
 153:lvgl/src/lv_widgets/../lv_widgets/lv_cont.h ****  * @param cont pointer to a container object
 154:lvgl/src/lv_widgets/../lv_widgets/lv_cont.h ****  * @param hor horizontal fit policy from `lv_fit_t`
 155:lvgl/src/lv_widgets/../lv_widgets/lv_cont.h ****  * @param ver vertical fit policy from `lv_fit_t`
 156:lvgl/src/lv_widgets/../lv_widgets/lv_cont.h ****  */
 157:lvgl/src/lv_widgets/../lv_widgets/lv_cont.h **** static inline void lv_cont_set_fit2(lv_obj_t * cont, lv_fit_t hor, lv_fit_t ver)
 4360              		.loc 7 157 20 view .LVU1290
 4361              	.LBB179:
 158:lvgl/src/lv_widgets/../lv_widgets/lv_cont.h **** {
 159:lvgl/src/lv_widgets/../lv_widgets/lv_cont.h ****     lv_cont_set_fit4(cont, hor, hor, ver, ver);
 4362              		.loc 7 159 5 view .LVU1291
 4363 01d6 0223     		movs	r3, #2
 4364 01d8 0093     		str	r3, [sp]
 4365 01da 0122     		movs	r2, #1
 4366 01dc 1146     		mov	r1, r2
 4367 01de FFF7FEFF 		bl	lv_cont_set_fit4
 4368              	.LVL563:
 4369              		.loc 7 159 5 is_stmt 0 view .LVU1292
 4370              	.LBE179:
 4371              	.LBE178:
 4372              	.LBE177:
 4373              	.LBE176:
 142:lvgl/src/lv_widgets/lv_tabview.c ****         lv_page_set_scrollbar_mode(ext->content, LV_SCROLLBAR_MODE_OFF);
 4374              		.loc 1 142 9 is_stmt 1 view .LVU1293
 4375              	.LBB180:
 4376              	.LBI180:
 189:lvgl/src/lv_widgets/../lv_widgets/lv_page.h **** }
 190:lvgl/src/lv_widgets/../lv_widgets/lv_page.h **** 
 191:lvgl/src/lv_widgets/../lv_widgets/lv_page.h **** /**
 192:lvgl/src/lv_widgets/../lv_widgets/lv_page.h ****  * Set the fit policy in all 4 direction at once.
 193:lvgl/src/lv_widgets/../lv_widgets/lv_page.h ****  * It tell how to change the page size automatically.
 194:lvgl/src/lv_widgets/../lv_widgets/lv_page.h ****  * @param page pointer to a button object
 195:lvgl/src/lv_widgets/../lv_widgets/lv_page.h ****  * @param fit fit policy from `lv_fit_t`
 196:lvgl/src/lv_widgets/../lv_widgets/lv_page.h ****  */
 197:lvgl/src/lv_widgets/../lv_widgets/lv_page.h **** static inline void lv_page_set_scrollable_fit(lv_obj_t * page, lv_fit_t fit)
 198:lvgl/src/lv_widgets/../lv_widgets/lv_page.h **** {
 199:lvgl/src/lv_widgets/../lv_widgets/lv_page.h ****     lv_cont_set_fit(lv_page_get_scrollable(page), fit);
 200:lvgl/src/lv_widgets/../lv_widgets/lv_page.h **** }
 201:lvgl/src/lv_widgets/../lv_widgets/lv_page.h **** 
 202:lvgl/src/lv_widgets/../lv_widgets/lv_page.h **** /**
 203:lvgl/src/lv_widgets/../lv_widgets/lv_page.h ****  * Set width of the scrollable part of a page
 204:lvgl/src/lv_widgets/../lv_widgets/lv_page.h ****  * @param page pointer to a page object
 205:lvgl/src/lv_widgets/../lv_widgets/lv_page.h ****  * @param w the new width of the scrollable (it ha no effect is horizontal fit is enabled)
 206:lvgl/src/lv_widgets/../lv_widgets/lv_page.h ****  */
 207:lvgl/src/lv_widgets/../lv_widgets/lv_page.h **** static inline void lv_page_set_scrl_width(lv_obj_t * page, lv_coord_t w)
ARM GAS  D:\Temp\ccnA29ZW.s 			page 131


 208:lvgl/src/lv_widgets/../lv_widgets/lv_page.h **** {
 209:lvgl/src/lv_widgets/../lv_widgets/lv_page.h ****     lv_obj_set_width(lv_page_get_scrollable(page), w);
 210:lvgl/src/lv_widgets/../lv_widgets/lv_page.h **** }
 211:lvgl/src/lv_widgets/../lv_widgets/lv_page.h **** 
 212:lvgl/src/lv_widgets/../lv_widgets/lv_page.h **** /**
 213:lvgl/src/lv_widgets/../lv_widgets/lv_page.h ****  * Set height of the scrollable part of a page
 214:lvgl/src/lv_widgets/../lv_widgets/lv_page.h ****  * @param page pointer to a page object
 215:lvgl/src/lv_widgets/../lv_widgets/lv_page.h ****  * @param h the new height of the scrollable (it ha no effect is vertical fit is enabled)
 216:lvgl/src/lv_widgets/../lv_widgets/lv_page.h ****  */
 217:lvgl/src/lv_widgets/../lv_widgets/lv_page.h **** static inline void lv_page_set_scrl_height(lv_obj_t * page, lv_coord_t h)
 218:lvgl/src/lv_widgets/../lv_widgets/lv_page.h **** {
 219:lvgl/src/lv_widgets/../lv_widgets/lv_page.h ****     lv_obj_set_height(lv_page_get_scrollable(page), h);
 220:lvgl/src/lv_widgets/../lv_widgets/lv_page.h **** }
 221:lvgl/src/lv_widgets/../lv_widgets/lv_page.h **** 
 222:lvgl/src/lv_widgets/../lv_widgets/lv_page.h **** /**
 223:lvgl/src/lv_widgets/../lv_widgets/lv_page.h ****  * Set the layout of the scrollable part of the page
 224:lvgl/src/lv_widgets/../lv_widgets/lv_page.h ****  * @param page pointer to a page object
 225:lvgl/src/lv_widgets/../lv_widgets/lv_page.h ****  * @param layout a layout from 'lv_cont_layout_t'
 226:lvgl/src/lv_widgets/../lv_widgets/lv_page.h ****  */
 227:lvgl/src/lv_widgets/../lv_widgets/lv_page.h **** static inline void lv_page_set_scrl_layout(lv_obj_t * page, lv_layout_t layout)
 4377              		.loc 6 227 20 view .LVU1294
 4378              	.LBB181:
 228:lvgl/src/lv_widgets/../lv_widgets/lv_page.h **** {
 229:lvgl/src/lv_widgets/../lv_widgets/lv_page.h ****     lv_cont_set_layout(lv_page_get_scrollable(page), layout);
 4379              		.loc 6 229 5 view .LVU1295
 4380 01e2 A068     		ldr	r0, [r4, #8]
 4381 01e4 FFF7FEFF 		bl	lv_page_get_scrollable
 4382              	.LVL564:
 4383              		.loc 6 229 5 is_stmt 0 view .LVU1296
 4384 01e8 0521     		movs	r1, #5
 4385 01ea FFF7FEFF 		bl	lv_cont_set_layout
 4386              	.LVL565:
 4387              		.loc 6 229 5 view .LVU1297
 4388              	.LBE181:
 4389              	.LBE180:
 143:lvgl/src/lv_widgets/lv_tabview.c **** 
 4390              		.loc 1 143 9 is_stmt 1 view .LVU1298
 4391 01ee 0021     		movs	r1, #0
 4392 01f0 A068     		ldr	r0, [r4, #8]
 4393 01f2 FFF7FEFF 		bl	lv_page_set_scrollbar_mode
 4394              	.LVL566:
 145:lvgl/src/lv_widgets/lv_tabview.c **** 
 4395              		.loc 1 145 9 view .LVU1299
 4396 01f6 0021     		movs	r1, #0
 4397 01f8 A068     		ldr	r0, [r4, #8]
 4398 01fa FFF7FEFF 		bl	lv_obj_clean_style_list
 4399              	.LVL567:
 147:lvgl/src/lv_widgets/lv_tabview.c **** 
 4400              		.loc 1 147 9 view .LVU1300
 4401 01fe 2321     		movs	r1, #35
 4402 0200 2846     		mov	r0, r5
 4403 0202 FFF7FEFF 		bl	lv_theme_apply
 4404              	.LVL568:
 4405              	.LBE175:
 4406 0206 50E0     		b	.L268
 4407              	.LVL569:
 4408              	.L282:
ARM GAS  D:\Temp\ccnA29ZW.s 			page 132


 4409              	.LBB182:
 108:lvgl/src/lv_widgets/lv_tabview.c ****         if(ext->tab_name_ptr == NULL) return NULL;
 4410              		.loc 1 108 9 discriminator 1 view .LVU1301
 108:lvgl/src/lv_widgets/lv_tabview.c ****         if(ext->tab_name_ptr == NULL) return NULL;
 4411              		.loc 1 108 9 discriminator 1 view .LVU1302
 4412 0208 E268     		ldr	r2, [r4, #12]
 4413 020a 0023     		movs	r3, #0
 4414 020c 2F48     		ldr	r0, .L284+12
 4415 020e FFF7FEFF 		bl	lv_debug_log_error
 4416              	.LVL570:
 4417              	.L264:
 108:lvgl/src/lv_widgets/lv_tabview.c ****         if(ext->tab_name_ptr == NULL) return NULL;
 4418              		.loc 1 108 9 discriminator 3 view .LVU1303
 108:lvgl/src/lv_widgets/lv_tabview.c ****         if(ext->tab_name_ptr == NULL) return NULL;
 4419              		.loc 1 108 9 discriminator 3 view .LVU1304
 4420 0212 FEE7     		b	.L264
 4421              	.L265:
 122:lvgl/src/lv_widgets/lv_tabview.c ****             h = lv_disp_get_ver_res(NULL);
 4422              		.loc 1 122 13 view .LVU1305
 122:lvgl/src/lv_widgets/lv_tabview.c ****             h = lv_disp_get_ver_res(NULL);
 4423              		.loc 1 122 17 is_stmt 0 view .LVU1306
 4424 0214 0020     		movs	r0, #0
 4425 0216 FFF7FEFF 		bl	lv_disp_get_hor_res
 4426              	.LVL571:
 4427 021a 0646     		mov	r6, r0
 4428              	.LVL572:
 123:lvgl/src/lv_widgets/lv_tabview.c ****         }
 4429              		.loc 1 123 13 is_stmt 1 view .LVU1307
 123:lvgl/src/lv_widgets/lv_tabview.c ****         }
 4430              		.loc 1 123 17 is_stmt 0 view .LVU1308
 4431 021c 0020     		movs	r0, #0
 4432 021e FFF7FEFF 		bl	lv_disp_get_ver_res
 4433              	.LVL573:
 123:lvgl/src/lv_widgets/lv_tabview.c ****         }
 4434              		.loc 1 123 17 view .LVU1309
 4435 0222 A6E7     		b	.L266
 4436              	.LVL574:
 4437              	.L283:
 132:lvgl/src/lv_widgets/lv_tabview.c ****         lv_obj_set_signal_cb(lv_page_get_scrollable(ext->content), tabview_scrl_signal);
 4438              		.loc 1 132 42 is_stmt 1 discriminator 1 view .LVU1310
 132:lvgl/src/lv_widgets/lv_tabview.c ****         lv_obj_set_signal_cb(lv_page_get_scrollable(ext->content), tabview_scrl_signal);
 4439              		.loc 1 132 86 is_stmt 0 discriminator 1 view .LVU1311
 4440 0224 A068     		ldr	r0, [r4, #8]
 4441 0226 FFF7FEFF 		bl	lv_page_get_scrollable
 4442              	.LVL575:
 132:lvgl/src/lv_widgets/lv_tabview.c ****         lv_obj_set_signal_cb(lv_page_get_scrollable(ext->content), tabview_scrl_signal);
 4443              		.loc 1 132 65 discriminator 1 view .LVU1312
 4444 022a FFF7FEFF 		bl	lv_obj_get_signal_cb
 4445              	.LVL576:
 132:lvgl/src/lv_widgets/lv_tabview.c ****         lv_obj_set_signal_cb(lv_page_get_scrollable(ext->content), tabview_scrl_signal);
 4446              		.loc 1 132 63 discriminator 1 view .LVU1313
 4447 022e 284B     		ldr	r3, .L284+16
 4448 0230 1860     		str	r0, [r3]
 4449 0232 B5E7     		b	.L267
 4450              	.LVL577:
 4451              	.L281:
 132:lvgl/src/lv_widgets/lv_tabview.c ****         lv_obj_set_signal_cb(lv_page_get_scrollable(ext->content), tabview_scrl_signal);
ARM GAS  D:\Temp\ccnA29ZW.s 			page 133


 4452              		.loc 1 132 63 discriminator 1 view .LVU1314
 4453              	.LBE182:
 4454              	.LBB183:
 163:lvgl/src/lv_widgets/lv_tabview.c ****         if(ext->tab_name_ptr == NULL) return NULL;
 4455              		.loc 1 163 9 is_stmt 1 discriminator 1 view .LVU1315
 163:lvgl/src/lv_widgets/lv_tabview.c ****         if(ext->tab_name_ptr == NULL) return NULL;
 4456              		.loc 1 163 9 discriminator 1 view .LVU1316
 4457 0234 E268     		ldr	r2, [r4, #12]
 4458 0236 0023     		movs	r3, #0
 4459 0238 2448     		ldr	r0, .L284+12
 4460 023a FFF7FEFF 		bl	lv_debug_log_error
 4461              	.LVL578:
 4462              	.L270:
 163:lvgl/src/lv_widgets/lv_tabview.c ****         if(ext->tab_name_ptr == NULL) return NULL;
 4463              		.loc 1 163 9 discriminator 4 view .LVU1317
 163:lvgl/src/lv_widgets/lv_tabview.c ****         if(ext->tab_name_ptr == NULL) return NULL;
 4464              		.loc 1 163 9 discriminator 4 view .LVU1318
 4465 023e FEE7     		b	.L270
 4466              	.LVL579:
 4467              	.L272:
 4468              	.LBB174:
 177:lvgl/src/lv_widgets/lv_tabview.c ****             lv_obj_t * copy_tab = lv_tabview_get_tab(copy, i);
 4469              		.loc 1 177 13 discriminator 3 view .LVU1319
 177:lvgl/src/lv_widgets/lv_tabview.c ****             lv_obj_t * copy_tab = lv_tabview_get_tab(copy, i);
 4470              		.loc 1 177 70 is_stmt 0 discriminator 3 view .LVU1320
 4471 0240 FB68     		ldr	r3, [r7, #12]
 177:lvgl/src/lv_widgets/lv_tabview.c ****             lv_obj_t * copy_tab = lv_tabview_get_tab(copy, i);
 4472              		.loc 1 177 34 discriminator 3 view .LVU1321
 4473 0242 53F82410 		ldr	r1, [r3, r4, lsl #2]
 4474 0246 2846     		mov	r0, r5
 4475 0248 FFF7FEFF 		bl	lv_tabview_add_tab
 4476              	.LVL580:
 4477 024c 8046     		mov	r8, r0
 4478              	.LVL581:
 178:lvgl/src/lv_widgets/lv_tabview.c ****             lv_style_list_copy(lv_obj_get_style_list(new_tab, LV_PAGE_PART_SCROLLABLE), lv_obj_get_
 4479              		.loc 1 178 13 is_stmt 1 discriminator 3 view .LVU1322
 178:lvgl/src/lv_widgets/lv_tabview.c ****             lv_style_list_copy(lv_obj_get_style_list(new_tab, LV_PAGE_PART_SCROLLABLE), lv_obj_get_
 4480              		.loc 1 178 35 is_stmt 0 discriminator 3 view .LVU1323
 4481 024e 2146     		mov	r1, r4
 4482 0250 3046     		mov	r0, r6
 4483              	.LVL582:
 178:lvgl/src/lv_widgets/lv_tabview.c ****             lv_style_list_copy(lv_obj_get_style_list(new_tab, LV_PAGE_PART_SCROLLABLE), lv_obj_get_
 4484              		.loc 1 178 35 discriminator 3 view .LVU1324
 4485 0252 FFF7FEFF 		bl	lv_tabview_get_tab
 4486              	.LVL583:
 4487 0256 8146     		mov	r9, r0
 4488              	.LVL584:
 179:lvgl/src/lv_widgets/lv_tabview.c ****                                                                                                    
 4489              		.loc 1 179 13 is_stmt 1 discriminator 3 view .LVU1325
 4490 0258 4021     		movs	r1, #64
 4491 025a 4046     		mov	r0, r8
 4492              	.LVL585:
 179:lvgl/src/lv_widgets/lv_tabview.c ****                                                                                                    
 4493              		.loc 1 179 13 is_stmt 0 discriminator 3 view .LVU1326
 4494 025c FFF7FEFF 		bl	lv_obj_get_style_list
 4495              	.LVL586:
 4496 0260 8246     		mov	r10, r0
ARM GAS  D:\Temp\ccnA29ZW.s 			page 134


 179:lvgl/src/lv_widgets/lv_tabview.c ****                                                                                                    
 4497              		.loc 1 179 89 discriminator 3 view .LVU1327
 4498 0262 4021     		movs	r1, #64
 4499 0264 4846     		mov	r0, r9
 4500 0266 FFF7FEFF 		bl	lv_obj_get_style_list
 4501              	.LVL587:
 179:lvgl/src/lv_widgets/lv_tabview.c ****                                                                                                    
 4502              		.loc 1 179 13 discriminator 3 view .LVU1328
 4503 026a 0146     		mov	r1, r0
 4504 026c 5046     		mov	r0, r10
 4505 026e FFF7FEFF 		bl	lv_style_list_copy
 4506              	.LVL588:
 181:lvgl/src/lv_widgets/lv_tabview.c ****                                                                                                    
 4507              		.loc 1 181 13 is_stmt 1 discriminator 3 view .LVU1329
 4508 0272 0121     		movs	r1, #1
 4509 0274 4046     		mov	r0, r8
 4510 0276 FFF7FEFF 		bl	lv_obj_get_style_list
 4511              	.LVL589:
 4512 027a 8246     		mov	r10, r0
 181:lvgl/src/lv_widgets/lv_tabview.c ****                                                                                                    
 4513              		.loc 1 181 88 is_stmt 0 discriminator 3 view .LVU1330
 4514 027c 0121     		movs	r1, #1
 4515 027e 4846     		mov	r0, r9
 4516 0280 FFF7FEFF 		bl	lv_obj_get_style_list
 4517              	.LVL590:
 181:lvgl/src/lv_widgets/lv_tabview.c ****                                                                                                    
 4518              		.loc 1 181 13 discriminator 3 view .LVU1331
 4519 0284 0146     		mov	r1, r0
 4520 0286 5046     		mov	r0, r10
 4521 0288 FFF7FEFF 		bl	lv_style_list_copy
 4522              	.LVL591:
 183:lvgl/src/lv_widgets/lv_tabview.c ****         }
 4523              		.loc 1 183 13 is_stmt 1 discriminator 3 view .LVU1332
 4524 028c FF22     		movs	r2, #255
 4525 028e 1146     		mov	r1, r2
 4526 0290 4046     		mov	r0, r8
 4527 0292 FFF7FEFF 		bl	lv_obj_refresh_style
 4528              	.LVL592:
 4529              	.LBE174:
 176:lvgl/src/lv_widgets/lv_tabview.c ****             lv_obj_t * new_tab = lv_tabview_add_tab(tabview, copy_ext->tab_name_ptr[i]);
 4530              		.loc 1 176 44 is_stmt 0 discriminator 3 view .LVU1333
 4531 0296 0134     		adds	r4, r4, #1
 4532              	.LVL593:
 176:lvgl/src/lv_widgets/lv_tabview.c ****             lv_obj_t * new_tab = lv_tabview_add_tab(tabview, copy_ext->tab_name_ptr[i]);
 4533              		.loc 1 176 44 discriminator 3 view .LVU1334
 4534 0298 A4B2     		uxth	r4, r4
 4535              	.LVL594:
 4536              	.L271:
 176:lvgl/src/lv_widgets/lv_tabview.c ****             lv_obj_t * new_tab = lv_tabview_add_tab(tabview, copy_ext->tab_name_ptr[i]);
 4537              		.loc 1 176 32 discriminator 1 view .LVU1335
 4538 029a FB8A     		ldrh	r3, [r7, #22]
 176:lvgl/src/lv_widgets/lv_tabview.c ****             lv_obj_t * new_tab = lv_tabview_add_tab(tabview, copy_ext->tab_name_ptr[i]);
 4539              		.loc 1 176 9 discriminator 1 view .LVU1336
 4540 029c A342     		cmp	r3, r4
 4541 029e CFD8     		bhi	.L272
 187:lvgl/src/lv_widgets/lv_tabview.c ****     }
 4542              		.loc 1 187 9 is_stmt 1 view .LVU1337
ARM GAS  D:\Temp\ccnA29ZW.s 			page 135


 4543 02a0 FF22     		movs	r2, #255
 4544 02a2 1146     		mov	r1, r2
 4545 02a4 2846     		mov	r0, r5
 4546 02a6 FFF7FEFF 		bl	lv_obj_refresh_style
 4547              	.LVL595:
 4548              	.L268:
 187:lvgl/src/lv_widgets/lv_tabview.c ****     }
 4549              		.loc 1 187 9 is_stmt 0 view .LVU1338
 4550              	.LBE183:
 190:lvgl/src/lv_widgets/lv_tabview.c **** 
 4551              		.loc 1 190 5 is_stmt 1 view .LVU1339
 4552 02aa 2846     		mov	r0, r5
 4553 02ac FFF7FEFF 		bl	tabview_realign
 4554              	.LVL596:
 192:lvgl/src/lv_widgets/lv_tabview.c **** 
 4555              		.loc 1 192 36 view .LVU1340
 194:lvgl/src/lv_widgets/lv_tabview.c **** }
 4556              		.loc 1 194 5 view .LVU1341
 4557              	.L254:
 195:lvgl/src/lv_widgets/lv_tabview.c **** 
 4558              		.loc 1 195 1 is_stmt 0 view .LVU1342
 4559 02b0 2846     		mov	r0, r5
 4560 02b2 02B0     		add	sp, sp, #8
 4561              	.LCFI39:
 4562              		.cfi_remember_state
 4563              		.cfi_def_cfa_offset 32
 4564              		@ sp needed
 4565 02b4 BDE8F087 		pop	{r4, r5, r6, r7, r8, r9, r10, pc}
 4566              	.LVL597:
 4567              	.L273:
 4568              	.LCFI40:
 4569              		.cfi_restore_state
 4570              	.LBB184:
 109:lvgl/src/lv_widgets/lv_tabview.c ****         ext->tab_name_ptr[0] = "";
 4571              		.loc 1 109 46 view .LVU1343
 4572 02b8 0025     		movs	r5, #0
 4573              	.LVL598:
 109:lvgl/src/lv_widgets/lv_tabview.c ****         ext->tab_name_ptr[0] = "";
 4574              		.loc 1 109 46 view .LVU1344
 4575 02ba F9E7     		b	.L254
 4576              	.LVL599:
 4577              	.L274:
 109:lvgl/src/lv_widgets/lv_tabview.c ****         ext->tab_name_ptr[0] = "";
 4578              		.loc 1 109 46 view .LVU1345
 4579              	.LBE184:
 4580              	.LBB185:
 164:lvgl/src/lv_widgets/lv_tabview.c ****         ext->tab_name_ptr[0] = "";
 4581              		.loc 1 164 46 view .LVU1346
 4582 02bc 0025     		movs	r5, #0
 4583              	.LVL600:
 164:lvgl/src/lv_widgets/lv_tabview.c ****         ext->tab_name_ptr[0] = "";
 4584              		.loc 1 164 46 view .LVU1347
 4585 02be F7E7     		b	.L254
 4586              	.L285:
 4587              		.align	2
 4588              	.L284:
 4589 02c0 00000000 		.word	.LANCHOR2
ARM GAS  D:\Temp\ccnA29ZW.s 			page 136


 4590 02c4 00000000 		.word	lv_tabview_signal
 4591 02c8 00000000 		.word	.LC2
 4592 02cc 00000000 		.word	.LC1
 4593 02d0 00000000 		.word	.LANCHOR1
 4594 02d4 00000000 		.word	tabview_scrl_signal
 4595 02d8 00000000 		.word	.LANCHOR3
 4596 02dc 00000000 		.word	tab_btnm_event_cb
 4597              	.LBE185:
 4598              		.cfi_endproc
 4599              	.LFE490:
 4601              		.section	.text.lv_tabview_get_btns_pos,"ax",%progbits
 4602              		.align	1
 4603              		.global	lv_tabview_get_btns_pos
 4604              		.syntax unified
 4605              		.thumb
 4606              		.thumb_func
 4607              		.fpu fpv4-sp-d16
 4609              	lv_tabview_get_btns_pos:
 4610              	.LVL601:
 4611              	.LFB501:
 585:lvgl/src/lv_widgets/lv_tabview.c ****     LV_ASSERT_OBJ(tabview, LV_OBJX_NAME);
 4612              		.loc 1 585 1 is_stmt 1 view -0
 4613              		.cfi_startproc
 4614              		@ args = 0, pretend = 0, frame = 0
 4615              		@ frame_needed = 0, uses_anonymous_args = 0
 585:lvgl/src/lv_widgets/lv_tabview.c ****     LV_ASSERT_OBJ(tabview, LV_OBJX_NAME);
 4616              		.loc 1 585 1 is_stmt 0 view .LVU1349
 4617 0000 10B5     		push	{r4, lr}
 4618              	.LCFI41:
 4619              		.cfi_def_cfa_offset 8
 4620              		.cfi_offset 4, -8
 4621              		.cfi_offset 14, -4
 4622 0002 0446     		mov	r4, r0
 586:lvgl/src/lv_widgets/lv_tabview.c **** 
 4623              		.loc 1 586 5 is_stmt 1 view .LVU1350
 586:lvgl/src/lv_widgets/lv_tabview.c **** 
 4624              		.loc 1 586 5 view .LVU1351
 4625 0004 FFF7FEFF 		bl	lv_debug_check_null
 4626              	.LVL602:
 586:lvgl/src/lv_widgets/lv_tabview.c **** 
 4627              		.loc 1 586 5 is_stmt 0 view .LVU1352
 4628 0008 28B9     		cbnz	r0, .L287
 586:lvgl/src/lv_widgets/lv_tabview.c **** 
 4629              		.loc 1 586 5 is_stmt 1 discriminator 1 view .LVU1353
 586:lvgl/src/lv_widgets/lv_tabview.c **** 
 4630              		.loc 1 586 5 discriminator 1 view .LVU1354
 4631 000a 2246     		mov	r2, r4
 4632 000c 0023     		movs	r3, #0
 4633 000e 0548     		ldr	r0, .L290
 4634 0010 FFF7FEFF 		bl	lv_debug_log_error
 4635              	.LVL603:
 4636              	.L288:
 586:lvgl/src/lv_widgets/lv_tabview.c **** 
 4637              		.loc 1 586 5 discriminator 1 view .LVU1355
 586:lvgl/src/lv_widgets/lv_tabview.c **** 
 4638              		.loc 1 586 5 discriminator 1 view .LVU1356
 4639 0014 FEE7     		b	.L288
ARM GAS  D:\Temp\ccnA29ZW.s 			page 137


 4640              	.L287:
 586:lvgl/src/lv_widgets/lv_tabview.c **** 
 4641              		.loc 1 586 41 discriminator 2 view .LVU1357
 588:lvgl/src/lv_widgets/lv_tabview.c ****     return ext->btns_pos;
 4642              		.loc 1 588 5 discriminator 2 view .LVU1358
 588:lvgl/src/lv_widgets/lv_tabview.c ****     return ext->btns_pos;
 4643              		.loc 1 588 30 is_stmt 0 discriminator 2 view .LVU1359
 4644 0016 2046     		mov	r0, r4
 4645 0018 FFF7FEFF 		bl	lv_obj_get_ext_attr
 4646              	.LVL604:
 589:lvgl/src/lv_widgets/lv_tabview.c **** }
 4647              		.loc 1 589 5 is_stmt 1 discriminator 2 view .LVU1360
 589:lvgl/src/lv_widgets/lv_tabview.c **** }
 4648              		.loc 1 589 15 is_stmt 0 discriminator 2 view .LVU1361
 4649 001c 807E     		ldrb	r0, [r0, #26]	@ zero_extendqisi2
 4650              	.LVL605:
 590:lvgl/src/lv_widgets/lv_tabview.c **** 
 4651              		.loc 1 590 1 discriminator 2 view .LVU1362
 4652 001e 00F00700 		and	r0, r0, #7
 4653 0022 10BD     		pop	{r4, pc}
 4654              	.LVL606:
 4655              	.L291:
 590:lvgl/src/lv_widgets/lv_tabview.c **** 
 4656              		.loc 1 590 1 discriminator 2 view .LVU1363
 4657              		.align	2
 4658              	.L290:
 4659 0024 00000000 		.word	.LC0
 4660              		.cfi_endproc
 4661              	.LFE501:
 4663              		.section	.bss.ancestor_scrl_signal,"aw",%nobits
 4664              		.align	2
 4665              		.set	.LANCHOR1,. + 0
 4668              	ancestor_scrl_signal:
 4669 0000 00000000 		.space	4
 4670              		.section	.bss.ancestor_signal,"aw",%nobits
 4671              		.align	2
 4672              		.set	.LANCHOR2,. + 0
 4675              	ancestor_signal:
 4676 0000 00000000 		.space	4
 4677              		.section	.bss.page_signal,"aw",%nobits
 4678              		.align	2
 4679              		.set	.LANCHOR0,. + 0
 4682              	page_signal:
 4683 0000 00000000 		.space	4
 4684              		.section	.data.tab_def,"aw"
 4685              		.align	2
 4686              		.set	.LANCHOR3,. + 0
 4689              	tab_def:
 4690 0000 00000000 		.word	.LC2
 4691              		.section	.rodata.lv_tabview_add_tab.str1.4,"aMS",%progbits,1
 4692              		.align	2
 4693              	.LC4:
 4694 0000 0A00     		.ascii	"\012\000"
 4695              		.section	.rodata.lv_tabview_get_style.str1.4,"aMS",%progbits,1
 4696              		.align	2
 4697              	.LC0:
 4698 0000 4E554C4C 		.ascii	"NULL pointer\000"
ARM GAS  D:\Temp\ccnA29ZW.s 			page 138


 4698      20706F69 
 4698      6E746572 
 4698      00
 4699              		.section	.rodata.lv_tabview_set_tab_name.str1.4,"aMS",%progbits,1
 4700              		.align	2
 4701              	.LC1:
 4702 0000 4F757420 		.ascii	"Out of memory\000"
 4702      6F66206D 
 4702      656D6F72 
 4702      7900
 4703              		.section	.rodata.lv_tabview_signal.str1.4,"aMS",%progbits,1
 4704              		.align	2
 4705              	.LC3:
 4706 0000 6C765F74 		.ascii	"lv_tabview\000"
 4706      61627669 
 4706      657700
 4707              		.section	.rodata.tabview_scrl_signal.str1.4,"aMS",%progbits,1
 4708              		.align	2
 4709              	.LC2:
 4710 0000 00       		.ascii	"\000"
 4711              		.text
 4712              	.Letext0:
 4713              		.file 8 "c:\\stm32\\gnu mcu eclipse\\arm embedded gcc\\8.2.1-1.4-20190214-0604\\arm-none-eabi\\inc
 4714              		.file 9 "c:\\stm32\\gnu mcu eclipse\\arm embedded gcc\\8.2.1-1.4-20190214-0604\\arm-none-eabi\\inc
 4715              		.file 10 "Drivers/CMSIS/Include/core_cm4.h"
 4716              		.file 11 "Drivers/CMSIS/Device/ST/STM32F4xx/Include/system_stm32f4xx.h"
 4717              		.file 12 "Drivers/STM32F4xx_HAL_Driver/Inc/stm32f4xx_hal.h"
 4718              		.file 13 "lvgl/lv_conf.h"
 4719              		.file 14 "c:\\stm32\\gnu mcu eclipse\\arm embedded gcc\\8.2.1-1.4-20190214-0604\\arm-none-eabi\\in
 4720              		.file 15 "c:\\stm32\\gnu mcu eclipse\\arm embedded gcc\\8.2.1-1.4-20190214-0604\\arm-none-eabi\\in
 4721              		.file 16 "c:\\stm32\\gnu mcu eclipse\\arm embedded gcc\\8.2.1-1.4-20190214-0604\\lib\\gcc\\arm-non
 4722              		.file 17 "c:\\stm32\\gnu mcu eclipse\\arm embedded gcc\\8.2.1-1.4-20190214-0604\\arm-none-eabi\\in
 4723              		.file 18 "d:\\_project\\stm32\\f407\\hack_rf_new\\lvgl\\src\\lv_misc\\lv_types.h"
 4724              		.file 19 "d:\\_project\\stm32\\f407\\hack_rf_new\\lvgl\\src\\lv_misc\\lv_mem.h"
 4725              		.file 20 "lvgl/src/lv_widgets/../lv_core/../lv_misc/lv_color.h"
 4726              		.file 21 "lvgl/src/lv_widgets/../lv_core/lv_style.h"
 4727              		.file 22 "lvgl/src/lv_widgets/../lv_core/../lv_hal/../lv_misc/lv_ll.h"
 4728              		.file 23 "lvgl/src/lv_widgets/../lv_core/../lv_hal/../lv_misc/lv_task.h"
 4729              		.file 24 "lvgl/src/lv_widgets/../lv_core/../lv_hal/lv_hal_disp.h"
 4730              		.file 25 "lvgl/src/lv_widgets/../lv_core/lv_obj.h"
 4731              		.file 26 "lvgl/src/lv_widgets/../lv_core/../lv_hal/lv_hal_indev.h"
 4732              		.file 27 "d:\\_project\\stm32\\f407\\hack_rf_new\\lvgl\\src\\lv_core\\lv_group.h"
 4733              		.file 28 "d:\\_project\\stm32\\f407\\hack_rf_new\\lvgl\\src\\lv_misc\\lv_bidi.h"
 4734              		.file 29 "d:\\_project\\stm32\\f407\\hack_rf_new\\lvgl\\src\\lv_misc\\lv_txt.h"
 4735              		.file 30 "lvgl/src/lv_widgets/../lv_core/../lv_draw/lv_draw_label.h"
 4736              		.file 31 "lvgl/src/lv_widgets/lv_tabview.h"
 4737              		.file 32 "lvgl/src/lv_widgets/lv_btnmatrix.h"
 4738              		.file 33 "lvgl/src/lv_widgets/../lv_themes/lv_theme.h"
 4739              		.file 34 "lvgl/src/lv_widgets/../lv_widgets/../lv_core/lv_indev.h"
 4740              		.file 35 "lvgl/src/lv_widgets/../lv_core/../lv_misc/lv_debug.h"
 4741              		.file 36 "c:\\stm32\\gnu mcu eclipse\\arm embedded gcc\\8.2.1-1.4-20190214-0604\\arm-none-eabi\\in
ARM GAS  D:\Temp\ccnA29ZW.s 			page 139


DEFINED SYMBOLS
                            *ABS*:0000000000000000 lv_tabview.c
  D:\Temp\ccnA29ZW.s:18     .text.lv_tabview_get_style:0000000000000000 $t
  D:\Temp\ccnA29ZW.s:25     .text.lv_tabview_get_style:0000000000000000 lv_tabview_get_style
  D:\Temp\ccnA29ZW.s:155    .text.lv_tabview_get_style:0000000000000068 $d
  D:\Temp\ccnA29ZW.s:160    .text.refr_btns_size:0000000000000000 $t
  D:\Temp\ccnA29ZW.s:166    .text.refr_btns_size:0000000000000000 refr_btns_size
  D:\Temp\ccnA29ZW.s:356    .text.refr_btns_size:000000000000008c $d
  D:\Temp\ccnA29ZW.s:360    .text.refr_btns_size:0000000000000090 $t
  D:\Temp\ccnA29ZW.s:486    .text.refr_content_size:0000000000000000 $t
  D:\Temp\ccnA29ZW.s:492    .text.refr_content_size:0000000000000000 refr_content_size
  D:\Temp\ccnA29ZW.s:529    .text.refr_content_size:000000000000001c $d
  D:\Temp\ccnA29ZW.s:533    .text.refr_content_size:0000000000000020 $t
  D:\Temp\ccnA29ZW.s:720    .text.refr_content_size:00000000000000d0 $d
  D:\Temp\ccnA29ZW.s:725    .text.refr_indic_size:0000000000000000 $t
  D:\Temp\ccnA29ZW.s:731    .text.refr_indic_size:0000000000000000 refr_indic_size
  D:\Temp\ccnA29ZW.s:795    .text.refr_indic_size:000000000000002e $d
  D:\Temp\ccnA29ZW.s:799    .text.refr_indic_size:0000000000000032 $t
  D:\Temp\ccnA29ZW.s:939    .text.refr_align:0000000000000000 $t
  D:\Temp\ccnA29ZW.s:945    .text.refr_align:0000000000000000 refr_align
  D:\Temp\ccnA29ZW.s:982    .text.refr_align:000000000000001c $d
  D:\Temp\ccnA29ZW.s:986    .text.refr_align:0000000000000020 $t
  D:\Temp\ccnA29ZW.s:1154   .text.lv_tabview_clean_tab:0000000000000000 $t
  D:\Temp\ccnA29ZW.s:1161   .text.lv_tabview_clean_tab:0000000000000000 lv_tabview_clean_tab
  D:\Temp\ccnA29ZW.s:1209   .text.lv_tabview_clean_tab:0000000000000024 $d
  D:\Temp\ccnA29ZW.s:1214   .text.lv_tabview_set_tab_name:0000000000000000 $t
  D:\Temp\ccnA29ZW.s:1221   .text.lv_tabview_set_tab_name:0000000000000000 lv_tabview_set_tab_name
  D:\Temp\ccnA29ZW.s:1335   .text.lv_tabview_set_tab_name:0000000000000068 $d
  D:\Temp\ccnA29ZW.s:1341   .text.lv_tabview_set_anim_time:0000000000000000 $t
  D:\Temp\ccnA29ZW.s:1348   .text.lv_tabview_set_anim_time:0000000000000000 lv_tabview_set_anim_time
  D:\Temp\ccnA29ZW.s:1399   .text.lv_tabview_set_anim_time:0000000000000024 $d
  D:\Temp\ccnA29ZW.s:1404   .text.lv_tabview_get_tab_act:0000000000000000 $t
  D:\Temp\ccnA29ZW.s:1411   .text.lv_tabview_get_tab_act:0000000000000000 lv_tabview_get_tab_act
  D:\Temp\ccnA29ZW.s:1460   .text.lv_tabview_get_tab_act:0000000000000020 $d
  D:\Temp\ccnA29ZW.s:1465   .text.lv_tabview_get_tab_count:0000000000000000 $t
  D:\Temp\ccnA29ZW.s:1472   .text.lv_tabview_get_tab_count:0000000000000000 lv_tabview_get_tab_count
  D:\Temp\ccnA29ZW.s:1521   .text.lv_tabview_get_tab_count:0000000000000020 $d
  D:\Temp\ccnA29ZW.s:1526   .text.lv_tabview_get_tab:0000000000000000 $t
  D:\Temp\ccnA29ZW.s:1533   .text.lv_tabview_get_tab:0000000000000000 lv_tabview_get_tab
  D:\Temp\ccnA29ZW.s:1655   .text.lv_tabview_get_tab:0000000000000060 $d
  D:\Temp\ccnA29ZW.s:1661   .text.lv_tabview_get_anim_time:0000000000000000 $t
  D:\Temp\ccnA29ZW.s:1668   .text.lv_tabview_get_anim_time:0000000000000000 lv_tabview_get_anim_time
  D:\Temp\ccnA29ZW.s:1717   .text.lv_tabview_get_anim_time:0000000000000020 $d
  D:\Temp\ccnA29ZW.s:1722   .text.lv_tabview_set_tab_act:0000000000000000 $t
  D:\Temp\ccnA29ZW.s:1729   .text.lv_tabview_set_tab_act:0000000000000000 lv_tabview_set_tab_act
  D:\Temp\ccnA29ZW.s:1908   .text.lv_tabview_set_tab_act:00000000000000ac $d
  D:\Temp\ccnA29ZW.s:1913   .text.lv_tabview_set_tab_act:00000000000000b0 $t
  D:\Temp\ccnA29ZW.s:2110   .text.lv_tabview_set_tab_act:0000000000000150 $d
  D:\Temp\ccnA29ZW.s:2115   .text.lv_tabview_set_tab_act:0000000000000154 $t
  D:\Temp\ccnA29ZW.s:2252   .text.lv_tabview_set_tab_act:00000000000001c0 $d
  D:\Temp\ccnA29ZW.s:2256   .text.lv_tabview_set_tab_act:00000000000001c4 $t
  D:\Temp\ccnA29ZW.s:2335   .text.lv_tabview_set_tab_act:00000000000001f0 $d
  D:\Temp\ccnA29ZW.s:2345   .text.tab_btnm_event_cb:0000000000000000 $t
  D:\Temp\ccnA29ZW.s:2351   .text.tab_btnm_event_cb:0000000000000000 tab_btnm_event_cb
  D:\Temp\ccnA29ZW.s:2496   .text.tabview_scrl_signal:0000000000000000 $t
  D:\Temp\ccnA29ZW.s:2502   .text.tabview_scrl_signal:0000000000000000 tabview_scrl_signal
  D:\Temp\ccnA29ZW.s:2829   .text.tabview_scrl_signal:0000000000000144 $d
ARM GAS  D:\Temp\ccnA29ZW.s 			page 140


  D:\Temp\ccnA29ZW.s:2837   .text.tabview_realign:0000000000000000 $t
  D:\Temp\ccnA29ZW.s:2843   .text.tabview_realign:0000000000000000 tabview_realign
  D:\Temp\ccnA29ZW.s:2897   .text.lv_tabview_signal:0000000000000000 $t
  D:\Temp\ccnA29ZW.s:2903   .text.lv_tabview_signal:0000000000000000 lv_tabview_signal
  D:\Temp\ccnA29ZW.s:3417   .text.lv_tabview_signal:0000000000000210 $d
  D:\Temp\ccnA29ZW.s:3424   .text.lv_tabview_set_btns_pos:0000000000000000 $t
  D:\Temp\ccnA29ZW.s:3431   .text.lv_tabview_set_btns_pos:0000000000000000 lv_tabview_set_btns_pos
  D:\Temp\ccnA29ZW.s:3496   .text.lv_tabview_set_btns_pos:0000000000000034 $d
  D:\Temp\ccnA29ZW.s:3501   .text.lv_tabview_add_tab:0000000000000000 $t
  D:\Temp\ccnA29ZW.s:3508   .text.lv_tabview_add_tab:0000000000000000 lv_tabview_add_tab
  D:\Temp\ccnA29ZW.s:3921   .text.lv_tabview_add_tab:00000000000001b8 $d
  D:\Temp\ccnA29ZW.s:3930   .text.lv_tabview_create:0000000000000000 $t
  D:\Temp\ccnA29ZW.s:3937   .text.lv_tabview_create:0000000000000000 lv_tabview_create
  D:\Temp\ccnA29ZW.s:4589   .text.lv_tabview_create:00000000000002c0 $d
  D:\Temp\ccnA29ZW.s:4602   .text.lv_tabview_get_btns_pos:0000000000000000 $t
  D:\Temp\ccnA29ZW.s:4609   .text.lv_tabview_get_btns_pos:0000000000000000 lv_tabview_get_btns_pos
  D:\Temp\ccnA29ZW.s:4659   .text.lv_tabview_get_btns_pos:0000000000000024 $d
  D:\Temp\ccnA29ZW.s:4664   .bss.ancestor_scrl_signal:0000000000000000 $d
  D:\Temp\ccnA29ZW.s:4668   .bss.ancestor_scrl_signal:0000000000000000 ancestor_scrl_signal
  D:\Temp\ccnA29ZW.s:4671   .bss.ancestor_signal:0000000000000000 $d
  D:\Temp\ccnA29ZW.s:4675   .bss.ancestor_signal:0000000000000000 ancestor_signal
  D:\Temp\ccnA29ZW.s:4678   .bss.page_signal:0000000000000000 $d
  D:\Temp\ccnA29ZW.s:4682   .bss.page_signal:0000000000000000 page_signal
  D:\Temp\ccnA29ZW.s:4685   .data.tab_def:0000000000000000 $d
  D:\Temp\ccnA29ZW.s:4689   .data.tab_def:0000000000000000 tab_def
  D:\Temp\ccnA29ZW.s:4692   .rodata.lv_tabview_add_tab.str1.4:0000000000000000 $d
  D:\Temp\ccnA29ZW.s:4696   .rodata.lv_tabview_get_style.str1.4:0000000000000000 $d
  D:\Temp\ccnA29ZW.s:4700   .rodata.lv_tabview_set_tab_name.str1.4:0000000000000000 $d
  D:\Temp\ccnA29ZW.s:4704   .rodata.lv_tabview_signal.str1.4:0000000000000000 $d
  D:\Temp\ccnA29ZW.s:4708   .rodata.tabview_scrl_signal.str1.4:0000000000000000 $d

UNDEFINED SYMBOLS
lv_debug_check_null
lv_debug_log_error
lv_obj_get_ext_attr
lv_obj_get_style_list
_lv_obj_get_style_int
_lv_obj_get_style_ptr
lv_obj_set_hidden
lv_obj_get_width
lv_obj_set_size
lv_font_get_glyph_width
lv_obj_get_height
lv_page_get_scrollable
lv_obj_get_child
lv_obj_get_signal_cb
lv_obj_set_width
lv_obj_set_height
lv_obj_align
lv_obj_clean
strlen
lv_mem_realloc
strcpy
lv_obj_invalidate
lv_obj_get_child_back
lv_btnmatrix_clear_btn_ctrl
lv_obj_get_base_dir
ARM GAS  D:\Temp\ccnA29ZW.s 			page 141


lv_obj_set_x
lv_anim_init
lv_obj_get_x
lv_anim_start
lv_btnmatrix_set_btn_ctrl
lv_obj_set_y
lv_obj_get_y
lv_btnmatrix_get_active_btn
lv_btnmatrix_get_btn_ctrl
lv_btnmatrix_clear_btn_ctrl_all
lv_obj_get_parent
lv_indev_get_act
lv_indev_get_type
lv_obj_get_group
lv_group_set_editing
lv_event_send
lv_obj_handle_get_type_signal
lv_indev_get_point
lv_indev_get_vect
lv_indev_finish_drag
lv_obj_get_state
lv_mem_free
lv_signal_send
lv_group_get_editing
lv_event_get_data
lv_btnmatrix_set_focused_btn
lv_obj_set_state
lv_obj_clear_state
lv_page_create
lv_page_set_scrollbar_mode
lv_page_set_scroll_propagation
lv_cont_set_fit4
lv_theme_apply
lv_mem_alloc
lv_btnmatrix_set_map
lv_obj_create
lv_obj_allocate_ext_attr
lv_obj_set_signal_cb
lv_btnmatrix_create
lv_style_list_copy
lv_obj_del
lv_obj_get_width_fit
lv_obj_get_height_fit
lv_obj_set_event_cb
lv_obj_set_click
lv_obj_set_drag_dir
lv_cont_set_layout
lv_obj_clean_style_list
lv_disp_get_hor_res
lv_disp_get_ver_res
lv_obj_refresh_style
