ARM GAS  D:\Temp\ccu84qpn.s 			page 1


   1              		.cpu cortex-m4
   2              		.eabi_attribute 27, 1
   3              		.eabi_attribute 28, 1
   4              		.eabi_attribute 20, 1
   5              		.eabi_attribute 21, 1
   6              		.eabi_attribute 23, 3
   7              		.eabi_attribute 24, 1
   8              		.eabi_attribute 25, 1
   9              		.eabi_attribute 26, 1
  10              		.eabi_attribute 30, 1
  11              		.eabi_attribute 34, 1
  12              		.eabi_attribute 18, 4
  13              		.file	"main.c"
  14              		.text
  15              	.Ltext0:
  16              		.cfi_sections	.debug_frame
  17              		.section	.text.MX_GPIO_Init,"ax",%progbits
  18              		.align	1
  19              		.arch armv7e-m
  20              		.syntax unified
  21              		.thumb
  22              		.thumb_func
  23              		.fpu fpv4-sp-d16
  25              	MX_GPIO_Init:
  26              	.LFB570:
  27              		.file 1 "Src/main.c"
   1:Src/main.c    **** /* USER CODE BEGIN Header */
   2:Src/main.c    **** /**
   3:Src/main.c    ****   ******************************************************************************
   4:Src/main.c    ****   * @file           : main.c
   5:Src/main.c    ****   * @brief          : Main program body
   6:Src/main.c    ****   ******************************************************************************
   7:Src/main.c    ****   * @attention
   8:Src/main.c    ****   *
   9:Src/main.c    ****   * <h2><center>&copy; Copyright (c) 2021 STMicroelectronics.
  10:Src/main.c    ****   * All rights reserved.</center></h2>
  11:Src/main.c    ****   *
  12:Src/main.c    ****   * This software component is licensed by ST under Ultimate Liberty license
  13:Src/main.c    ****   * SLA0044, the "License"; You may not use this file except in compliance with
  14:Src/main.c    ****   * the License. You may obtain a copy of the License at:
  15:Src/main.c    ****   *                             www.st.com/SLA0044
  16:Src/main.c    ****   *
  17:Src/main.c    ****   ******************************************************************************
  18:Src/main.c    ****   */
  19:Src/main.c    **** /* USER CODE END Header */
  20:Src/main.c    **** 
  21:Src/main.c    **** /* Includes ------------------------------------------------------------------*/
  22:Src/main.c    **** #include "main.h"
  23:Src/main.c    **** #include "usb_device.h"
  24:Src/main.c    **** 
  25:Src/main.c    **** /* Private includes ----------------------------------------------------------*/
  26:Src/main.c    **** /* USER CODE BEGIN Includes */
  27:Src/main.c    **** #include "ILI9341_STM32_Driver.h"
  28:Src/main.c    **** #include "ILI9341_GFX.h"
  29:Src/main.c    **** #include <stdbool.h>
  30:Src/main.c    **** #include "../lvgl/lvgl.h"
  31:Src/main.c    **** #include "../lv_examples/lv_examples.h"
ARM GAS  D:\Temp\ccu84qpn.s 			page 2


  32:Src/main.c    **** #include "touchpad.h"
  33:Src/main.c    **** #include "XPT2046_lv.h"
  34:Src/main.c    **** /* USER CODE END Includes */
  35:Src/main.c    **** 
  36:Src/main.c    **** /* Private typedef -----------------------------------------------------------*/
  37:Src/main.c    **** /* USER CODE BEGIN PTD */
  38:Src/main.c    **** 
  39:Src/main.c    **** /* USER CODE END PTD */
  40:Src/main.c    **** 
  41:Src/main.c    **** /* Private define ------------------------------------------------------------*/
  42:Src/main.c    **** /* USER CODE BEGIN PD */
  43:Src/main.c    **** /* USER CODE END PD */
  44:Src/main.c    **** 
  45:Src/main.c    **** /* Private macro -------------------------------------------------------------*/
  46:Src/main.c    **** /* USER CODE BEGIN PM */
  47:Src/main.c    **** 
  48:Src/main.c    **** /* USER CODE END PM */
  49:Src/main.c    **** 
  50:Src/main.c    **** /* Private variables ---------------------------------------------------------*/
  51:Src/main.c    **** RNG_HandleTypeDef hrng;
  52:Src/main.c    **** 
  53:Src/main.c    **** SD_HandleTypeDef hsd;
  54:Src/main.c    **** 
  55:Src/main.c    **** SPI_HandleTypeDef hspi2;
  56:Src/main.c    **** SPI_HandleTypeDef hspi3;
  57:Src/main.c    **** 
  58:Src/main.c    **** SRAM_HandleTypeDef hsram1;
  59:Src/main.c    **** 
  60:Src/main.c    **** /* USER CODE BEGIN PV */
  61:Src/main.c    **** DMA_HandleTypeDef hdma_memtomem_dma2_stream0;
  62:Src/main.c    **** /*
  63:Src/main.c    ****   extern int16_t last_x;
  64:Src/main.c    ****   extern int16_t last_y;
  65:Src/main.c    ****   extern uint8_t last_state;
  66:Src/main.c    ****   */
  67:Src/main.c    ****   extern uint8_t isTouched;
  68:Src/main.c    ****   uint16_t x = 0, y = 0;
  69:Src/main.c    **** /* USER CODE END PV */
  70:Src/main.c    **** 
  71:Src/main.c    **** /* Private function prototypes -----------------------------------------------*/
  72:Src/main.c    **** void SystemClock_Config(void);
  73:Src/main.c    **** static void MX_GPIO_Init(void);
  74:Src/main.c    **** static void MX_FSMC_Init(void);
  75:Src/main.c    **** static void MX_RNG_Init(void);
  76:Src/main.c    **** static void MX_SDIO_SD_Init(void);
  77:Src/main.c    **** static void MX_SPI2_Init(void);
  78:Src/main.c    **** static void MX_SPI3_Init(void);
  79:Src/main.c    **** /* USER CODE BEGIN PFP */
  80:Src/main.c    **** 
  81:Src/main.c    **** /* USER CODE END PFP */
  82:Src/main.c    **** 
  83:Src/main.c    **** /* Private user code ---------------------------------------------------------*/
  84:Src/main.c    **** /* USER CODE BEGIN 0 */
  85:Src/main.c    **** 
  86:Src/main.c    **** /* USER CODE END 0 */
  87:Src/main.c    **** 
  88:Src/main.c    **** /**
ARM GAS  D:\Temp\ccu84qpn.s 			page 3


  89:Src/main.c    ****   * @brief  The application entry point.
  90:Src/main.c    ****   * @retval int
  91:Src/main.c    ****   */
  92:Src/main.c    **** int main(void)
  93:Src/main.c    **** {
  94:Src/main.c    ****   /* USER CODE BEGIN 1 */
  95:Src/main.c    **** 
  96:Src/main.c    ****   /* USER CODE END 1 */
  97:Src/main.c    **** 
  98:Src/main.c    ****   /* MCU Configuration--------------------------------------------------------*/
  99:Src/main.c    **** 
 100:Src/main.c    ****   /* Reset of all peripherals, Initializes the Flash interface and the Systick. */
 101:Src/main.c    ****   HAL_Init();
 102:Src/main.c    **** 
 103:Src/main.c    ****   /* USER CODE BEGIN Init */
 104:Src/main.c    **** 
 105:Src/main.c    ****   /* USER CODE END Init */
 106:Src/main.c    **** 
 107:Src/main.c    ****   /* Configure the system clock */
 108:Src/main.c    ****   SystemClock_Config();
 109:Src/main.c    **** 
 110:Src/main.c    ****   /* USER CODE BEGIN SysInit */
 111:Src/main.c    **** 
 112:Src/main.c    ****   /* USER CODE END SysInit */
 113:Src/main.c    **** 
 114:Src/main.c    ****   /* Initialize all configured peripherals */
 115:Src/main.c    ****   MX_GPIO_Init();
 116:Src/main.c    ****   MX_FSMC_Init();
 117:Src/main.c    ****   MX_RNG_Init();
 118:Src/main.c    ****   MX_SDIO_SD_Init();
 119:Src/main.c    ****   MX_SPI2_Init();
 120:Src/main.c    ****   MX_USB_DEVICE_Init();
 121:Src/main.c    ****   MX_SPI3_Init();
 122:Src/main.c    ****   /* USER CODE BEGIN 2 */
 123:Src/main.c    ****     
 124:Src/main.c    ****   lv_init();
 125:Src/main.c    ****   ILI9341_Init();
 126:Src/main.c    ****   lv_touchpad_init();
 127:Src/main.c    ****   HAL_Delay(100);
 128:Src/main.c    ****   //lv_demo_benchmark();
 129:Src/main.c    ****    lv_demo_widgets();
 130:Src/main.c    ****   /* USER CODE END 2 */
 131:Src/main.c    **** 
 132:Src/main.c    ****   /* Infinite loop */
 133:Src/main.c    ****   /* USER CODE BEGIN WHILE */
 134:Src/main.c    ****   while (1)
 135:Src/main.c    ****   {
 136:Src/main.c    **** //lcd_random_circles();
 137:Src/main.c    **** //lcd_random_lines();
 138:Src/main.c    **** //lcd_random_points();
 139:Src/main.c    **** //lcd_fill_rand_colors();
 140:Src/main.c    **** //lcd_random_rectangles();
 141:Src/main.c    **** //ILI9341_Draw_Filled_Circle(last_x - 2, 240 - last_y - 2, 4, RED);
 142:Src/main.c    **** lv_task_handler();
 143:Src/main.c    **** HAL_Delay(5);
 144:Src/main.c    ****     /* USER CODE END WHILE */
 145:Src/main.c    **** 
ARM GAS  D:\Temp\ccu84qpn.s 			page 4


 146:Src/main.c    ****     /* USER CODE BEGIN 3 */
 147:Src/main.c    **** 
 148:Src/main.c    ****   }
 149:Src/main.c    ****   /* USER CODE END 3 */
 150:Src/main.c    **** }
 151:Src/main.c    **** 
 152:Src/main.c    **** /**
 153:Src/main.c    ****   * @brief System Clock Configuration
 154:Src/main.c    ****   * @retval None
 155:Src/main.c    ****   */
 156:Src/main.c    **** void SystemClock_Config(void)
 157:Src/main.c    **** {
 158:Src/main.c    ****   RCC_OscInitTypeDef RCC_OscInitStruct = {0};
 159:Src/main.c    ****   RCC_ClkInitTypeDef RCC_ClkInitStruct = {0};
 160:Src/main.c    **** 
 161:Src/main.c    ****   /** Configure the main internal regulator output voltage 
 162:Src/main.c    ****   */
 163:Src/main.c    ****   __HAL_RCC_PWR_CLK_ENABLE();
 164:Src/main.c    ****   __HAL_PWR_VOLTAGESCALING_CONFIG(PWR_REGULATOR_VOLTAGE_SCALE1);
 165:Src/main.c    ****   /** Initializes the CPU, AHB and APB busses clocks 
 166:Src/main.c    ****   */
 167:Src/main.c    ****   RCC_OscInitStruct.OscillatorType = RCC_OSCILLATORTYPE_HSE;
 168:Src/main.c    ****   RCC_OscInitStruct.HSEState = RCC_HSE_ON;
 169:Src/main.c    ****   RCC_OscInitStruct.PLL.PLLState = RCC_PLL_ON;
 170:Src/main.c    ****   RCC_OscInitStruct.PLL.PLLSource = RCC_PLLSOURCE_HSE;
 171:Src/main.c    ****   RCC_OscInitStruct.PLL.PLLM = 4;
 172:Src/main.c    ****   RCC_OscInitStruct.PLL.PLLN = 168;
 173:Src/main.c    ****   RCC_OscInitStruct.PLL.PLLP = RCC_PLLP_DIV2;
 174:Src/main.c    ****   RCC_OscInitStruct.PLL.PLLQ = 7;
 175:Src/main.c    ****   if (HAL_RCC_OscConfig(&RCC_OscInitStruct) != HAL_OK)
 176:Src/main.c    ****   {
 177:Src/main.c    ****     Error_Handler();
 178:Src/main.c    ****   }
 179:Src/main.c    ****   /** Initializes the CPU, AHB and APB busses clocks 
 180:Src/main.c    ****   */
 181:Src/main.c    ****   RCC_ClkInitStruct.ClockType = RCC_CLOCKTYPE_HCLK|RCC_CLOCKTYPE_SYSCLK
 182:Src/main.c    ****                               |RCC_CLOCKTYPE_PCLK1|RCC_CLOCKTYPE_PCLK2;
 183:Src/main.c    ****   RCC_ClkInitStruct.SYSCLKSource = RCC_SYSCLKSOURCE_PLLCLK;
 184:Src/main.c    ****   RCC_ClkInitStruct.AHBCLKDivider = RCC_SYSCLK_DIV1;
 185:Src/main.c    ****   RCC_ClkInitStruct.APB1CLKDivider = RCC_HCLK_DIV4;
 186:Src/main.c    ****   RCC_ClkInitStruct.APB2CLKDivider = RCC_HCLK_DIV2;
 187:Src/main.c    **** 
 188:Src/main.c    ****   if (HAL_RCC_ClockConfig(&RCC_ClkInitStruct, FLASH_LATENCY_5) != HAL_OK)
 189:Src/main.c    ****   {
 190:Src/main.c    ****     Error_Handler();
 191:Src/main.c    ****   }
 192:Src/main.c    **** }
 193:Src/main.c    **** 
 194:Src/main.c    **** /**
 195:Src/main.c    ****   * @brief RNG Initialization Function
 196:Src/main.c    ****   * @param None
 197:Src/main.c    ****   * @retval None
 198:Src/main.c    ****   */
 199:Src/main.c    **** static void MX_RNG_Init(void)
 200:Src/main.c    **** {
 201:Src/main.c    **** 
 202:Src/main.c    ****   /* USER CODE BEGIN RNG_Init 0 */
ARM GAS  D:\Temp\ccu84qpn.s 			page 5


 203:Src/main.c    **** 
 204:Src/main.c    ****   /* USER CODE END RNG_Init 0 */
 205:Src/main.c    **** 
 206:Src/main.c    ****   /* USER CODE BEGIN RNG_Init 1 */
 207:Src/main.c    **** 
 208:Src/main.c    ****   /* USER CODE END RNG_Init 1 */
 209:Src/main.c    ****   hrng.Instance = RNG;
 210:Src/main.c    ****   if (HAL_RNG_Init(&hrng) != HAL_OK)
 211:Src/main.c    ****   {
 212:Src/main.c    ****     Error_Handler();
 213:Src/main.c    ****   }
 214:Src/main.c    ****   /* USER CODE BEGIN RNG_Init 2 */
 215:Src/main.c    **** 
 216:Src/main.c    ****   /* USER CODE END RNG_Init 2 */
 217:Src/main.c    **** 
 218:Src/main.c    **** }
 219:Src/main.c    **** 
 220:Src/main.c    **** /**
 221:Src/main.c    ****   * @brief SDIO Initialization Function
 222:Src/main.c    ****   * @param None
 223:Src/main.c    ****   * @retval None
 224:Src/main.c    ****   */
 225:Src/main.c    **** static void MX_SDIO_SD_Init(void)
 226:Src/main.c    **** {
 227:Src/main.c    **** 
 228:Src/main.c    ****   /* USER CODE BEGIN SDIO_Init 0 */
 229:Src/main.c    **** 
 230:Src/main.c    ****   /* USER CODE END SDIO_Init 0 */
 231:Src/main.c    **** 
 232:Src/main.c    ****   /* USER CODE BEGIN SDIO_Init 1 */
 233:Src/main.c    **** 
 234:Src/main.c    ****   /* USER CODE END SDIO_Init 1 */
 235:Src/main.c    ****   hsd.Instance = SDIO;
 236:Src/main.c    ****   hsd.Init.ClockEdge = SDIO_CLOCK_EDGE_RISING;
 237:Src/main.c    ****   hsd.Init.ClockBypass = SDIO_CLOCK_BYPASS_DISABLE;
 238:Src/main.c    ****   hsd.Init.ClockPowerSave = SDIO_CLOCK_POWER_SAVE_DISABLE;
 239:Src/main.c    ****   hsd.Init.BusWide = SDIO_BUS_WIDE_1B;
 240:Src/main.c    ****   hsd.Init.HardwareFlowControl = SDIO_HARDWARE_FLOW_CONTROL_ENABLE;
 241:Src/main.c    ****   hsd.Init.ClockDiv = 0;
 242:Src/main.c    ****   if (HAL_SD_Init(&hsd) != HAL_OK)
 243:Src/main.c    ****   {
 244:Src/main.c    ****     Error_Handler();
 245:Src/main.c    ****   }
 246:Src/main.c    ****   if (HAL_SD_ConfigWideBusOperation(&hsd, SDIO_BUS_WIDE_4B) != HAL_OK)
 247:Src/main.c    ****   {
 248:Src/main.c    ****     Error_Handler();
 249:Src/main.c    ****   }
 250:Src/main.c    ****   /* USER CODE BEGIN SDIO_Init 2 */
 251:Src/main.c    **** 
 252:Src/main.c    ****   /* USER CODE END SDIO_Init 2 */
 253:Src/main.c    **** 
 254:Src/main.c    **** }
 255:Src/main.c    **** 
 256:Src/main.c    **** /**
 257:Src/main.c    ****   * @brief SPI2 Initialization Function
 258:Src/main.c    ****   * @param None
 259:Src/main.c    ****   * @retval None
ARM GAS  D:\Temp\ccu84qpn.s 			page 6


 260:Src/main.c    ****   */
 261:Src/main.c    **** static void MX_SPI2_Init(void)
 262:Src/main.c    **** {
 263:Src/main.c    **** 
 264:Src/main.c    ****   /* USER CODE BEGIN SPI2_Init 0 */
 265:Src/main.c    **** 
 266:Src/main.c    ****   /* USER CODE END SPI2_Init 0 */
 267:Src/main.c    **** 
 268:Src/main.c    ****   /* USER CODE BEGIN SPI2_Init 1 */
 269:Src/main.c    **** 
 270:Src/main.c    ****   /* USER CODE END SPI2_Init 1 */
 271:Src/main.c    ****   /* SPI2 parameter configuration*/
 272:Src/main.c    ****   hspi2.Instance = SPI2;
 273:Src/main.c    ****   hspi2.Init.Mode = SPI_MODE_MASTER;
 274:Src/main.c    ****   hspi2.Init.Direction = SPI_DIRECTION_2LINES;
 275:Src/main.c    ****   hspi2.Init.DataSize = SPI_DATASIZE_8BIT;
 276:Src/main.c    ****   hspi2.Init.CLKPolarity = SPI_POLARITY_LOW;
 277:Src/main.c    ****   hspi2.Init.CLKPhase = SPI_PHASE_1EDGE;
 278:Src/main.c    ****   hspi2.Init.NSS = SPI_NSS_SOFT;
 279:Src/main.c    ****   hspi2.Init.BaudRatePrescaler = SPI_BAUDRATEPRESCALER_32;
 280:Src/main.c    ****   hspi2.Init.FirstBit = SPI_FIRSTBIT_MSB;
 281:Src/main.c    ****   hspi2.Init.TIMode = SPI_TIMODE_DISABLE;
 282:Src/main.c    ****   hspi2.Init.CRCCalculation = SPI_CRCCALCULATION_DISABLE;
 283:Src/main.c    ****   hspi2.Init.CRCPolynomial = 10;
 284:Src/main.c    ****   if (HAL_SPI_Init(&hspi2) != HAL_OK)
 285:Src/main.c    ****   {
 286:Src/main.c    ****     Error_Handler();
 287:Src/main.c    ****   }
 288:Src/main.c    ****   /* USER CODE BEGIN SPI2_Init 2 */
 289:Src/main.c    **** 
 290:Src/main.c    ****   /* USER CODE END SPI2_Init 2 */
 291:Src/main.c    **** 
 292:Src/main.c    **** }
 293:Src/main.c    **** 
 294:Src/main.c    **** /**
 295:Src/main.c    ****   * @brief SPI3 Initialization Function
 296:Src/main.c    ****   * @param None
 297:Src/main.c    ****   * @retval None
 298:Src/main.c    ****   */
 299:Src/main.c    **** static void MX_SPI3_Init(void)
 300:Src/main.c    **** {
 301:Src/main.c    **** 
 302:Src/main.c    ****   /* USER CODE BEGIN SPI3_Init 0 */
 303:Src/main.c    **** 
 304:Src/main.c    ****   /* USER CODE END SPI3_Init 0 */
 305:Src/main.c    **** 
 306:Src/main.c    ****   /* USER CODE BEGIN SPI3_Init 1 */
 307:Src/main.c    **** 
 308:Src/main.c    ****   /* USER CODE END SPI3_Init 1 */
 309:Src/main.c    ****   /* SPI3 parameter configuration*/
 310:Src/main.c    ****   hspi3.Instance = SPI3;
 311:Src/main.c    ****   hspi3.Init.Mode = SPI_MODE_MASTER;
 312:Src/main.c    ****   hspi3.Init.Direction = SPI_DIRECTION_2LINES;
 313:Src/main.c    ****   hspi3.Init.DataSize = SPI_DATASIZE_8BIT;
 314:Src/main.c    ****   hspi3.Init.CLKPolarity = SPI_POLARITY_LOW;
 315:Src/main.c    ****   hspi3.Init.CLKPhase = SPI_PHASE_1EDGE;
 316:Src/main.c    ****   hspi3.Init.NSS = SPI_NSS_SOFT;
ARM GAS  D:\Temp\ccu84qpn.s 			page 7


 317:Src/main.c    ****   hspi3.Init.BaudRatePrescaler = SPI_BAUDRATEPRESCALER_2;
 318:Src/main.c    ****   hspi3.Init.FirstBit = SPI_FIRSTBIT_MSB;
 319:Src/main.c    ****   hspi3.Init.TIMode = SPI_TIMODE_DISABLE;
 320:Src/main.c    ****   hspi3.Init.CRCCalculation = SPI_CRCCALCULATION_DISABLE;
 321:Src/main.c    ****   hspi3.Init.CRCPolynomial = 10;
 322:Src/main.c    ****   if (HAL_SPI_Init(&hspi3) != HAL_OK)
 323:Src/main.c    ****   {
 324:Src/main.c    ****     Error_Handler();
 325:Src/main.c    ****   }
 326:Src/main.c    ****   /* USER CODE BEGIN SPI3_Init 2 */
 327:Src/main.c    **** 
 328:Src/main.c    ****   /* USER CODE END SPI3_Init 2 */
 329:Src/main.c    **** 
 330:Src/main.c    **** }
 331:Src/main.c    **** 
 332:Src/main.c    **** /**
 333:Src/main.c    ****   * @brief GPIO Initialization Function
 334:Src/main.c    ****   * @param None
 335:Src/main.c    ****   * @retval None
 336:Src/main.c    ****   */
 337:Src/main.c    **** static void MX_GPIO_Init(void)
 338:Src/main.c    **** {
  28              		.loc 1 338 1 view -0
  29              		.cfi_startproc
  30              		@ args = 0, pretend = 0, frame = 48
  31              		@ frame_needed = 0, uses_anonymous_args = 0
  32 0000 2DE9F041 		push	{r4, r5, r6, r7, r8, lr}
  33              	.LCFI0:
  34              		.cfi_def_cfa_offset 24
  35              		.cfi_offset 4, -24
  36              		.cfi_offset 5, -20
  37              		.cfi_offset 6, -16
  38              		.cfi_offset 7, -12
  39              		.cfi_offset 8, -8
  40              		.cfi_offset 14, -4
  41 0004 8CB0     		sub	sp, sp, #48
  42              	.LCFI1:
  43              		.cfi_def_cfa_offset 72
 339:Src/main.c    ****   GPIO_InitTypeDef GPIO_InitStruct = {0};
  44              		.loc 1 339 3 view .LVU1
  45              		.loc 1 339 20 is_stmt 0 view .LVU2
  46 0006 0024     		movs	r4, #0
  47 0008 0794     		str	r4, [sp, #28]
  48 000a 0894     		str	r4, [sp, #32]
  49 000c 0994     		str	r4, [sp, #36]
  50 000e 0A94     		str	r4, [sp, #40]
  51 0010 0B94     		str	r4, [sp, #44]
 340:Src/main.c    **** 
 341:Src/main.c    ****   /* GPIO Ports Clock Enable */
 342:Src/main.c    ****   __HAL_RCC_GPIOE_CLK_ENABLE();
  52              		.loc 1 342 3 is_stmt 1 view .LVU3
  53              	.LBB2:
  54              		.loc 1 342 3 view .LVU4
  55 0012 0194     		str	r4, [sp, #4]
  56              		.loc 1 342 3 view .LVU5
  57 0014 564B     		ldr	r3, .L3
  58 0016 1A6B     		ldr	r2, [r3, #48]
ARM GAS  D:\Temp\ccu84qpn.s 			page 8


  59 0018 42F01002 		orr	r2, r2, #16
  60 001c 1A63     		str	r2, [r3, #48]
  61              		.loc 1 342 3 view .LVU6
  62 001e 1A6B     		ldr	r2, [r3, #48]
  63 0020 02F01002 		and	r2, r2, #16
  64 0024 0192     		str	r2, [sp, #4]
  65              		.loc 1 342 3 view .LVU7
  66 0026 019A     		ldr	r2, [sp, #4]
  67              	.LBE2:
 343:Src/main.c    ****   __HAL_RCC_GPIOC_CLK_ENABLE();
  68              		.loc 1 343 3 view .LVU8
  69              	.LBB3:
  70              		.loc 1 343 3 view .LVU9
  71 0028 0294     		str	r4, [sp, #8]
  72              		.loc 1 343 3 view .LVU10
  73 002a 1A6B     		ldr	r2, [r3, #48]
  74 002c 42F00402 		orr	r2, r2, #4
  75 0030 1A63     		str	r2, [r3, #48]
  76              		.loc 1 343 3 view .LVU11
  77 0032 1A6B     		ldr	r2, [r3, #48]
  78 0034 02F00402 		and	r2, r2, #4
  79 0038 0292     		str	r2, [sp, #8]
  80              		.loc 1 343 3 view .LVU12
  81 003a 029A     		ldr	r2, [sp, #8]
  82              	.LBE3:
 344:Src/main.c    ****   __HAL_RCC_GPIOH_CLK_ENABLE();
  83              		.loc 1 344 3 view .LVU13
  84              	.LBB4:
  85              		.loc 1 344 3 view .LVU14
  86 003c 0394     		str	r4, [sp, #12]
  87              		.loc 1 344 3 view .LVU15
  88 003e 1A6B     		ldr	r2, [r3, #48]
  89 0040 42F08002 		orr	r2, r2, #128
  90 0044 1A63     		str	r2, [r3, #48]
  91              		.loc 1 344 3 view .LVU16
  92 0046 1A6B     		ldr	r2, [r3, #48]
  93 0048 02F08002 		and	r2, r2, #128
  94 004c 0392     		str	r2, [sp, #12]
  95              		.loc 1 344 3 view .LVU17
  96 004e 039A     		ldr	r2, [sp, #12]
  97              	.LBE4:
 345:Src/main.c    ****   __HAL_RCC_GPIOA_CLK_ENABLE();
  98              		.loc 1 345 3 view .LVU18
  99              	.LBB5:
 100              		.loc 1 345 3 view .LVU19
 101 0050 0494     		str	r4, [sp, #16]
 102              		.loc 1 345 3 view .LVU20
 103 0052 1A6B     		ldr	r2, [r3, #48]
 104 0054 42F00102 		orr	r2, r2, #1
 105 0058 1A63     		str	r2, [r3, #48]
 106              		.loc 1 345 3 view .LVU21
 107 005a 1A6B     		ldr	r2, [r3, #48]
 108 005c 02F00102 		and	r2, r2, #1
 109 0060 0492     		str	r2, [sp, #16]
 110              		.loc 1 345 3 view .LVU22
 111 0062 049A     		ldr	r2, [sp, #16]
 112              	.LBE5:
ARM GAS  D:\Temp\ccu84qpn.s 			page 9


 346:Src/main.c    ****   __HAL_RCC_GPIOB_CLK_ENABLE();
 113              		.loc 1 346 3 view .LVU23
 114              	.LBB6:
 115              		.loc 1 346 3 view .LVU24
 116 0064 0594     		str	r4, [sp, #20]
 117              		.loc 1 346 3 view .LVU25
 118 0066 1A6B     		ldr	r2, [r3, #48]
 119 0068 42F00202 		orr	r2, r2, #2
 120 006c 1A63     		str	r2, [r3, #48]
 121              		.loc 1 346 3 view .LVU26
 122 006e 1A6B     		ldr	r2, [r3, #48]
 123 0070 02F00202 		and	r2, r2, #2
 124 0074 0592     		str	r2, [sp, #20]
 125              		.loc 1 346 3 view .LVU27
 126 0076 059A     		ldr	r2, [sp, #20]
 127              	.LBE6:
 347:Src/main.c    ****   __HAL_RCC_GPIOD_CLK_ENABLE();
 128              		.loc 1 347 3 view .LVU28
 129              	.LBB7:
 130              		.loc 1 347 3 view .LVU29
 131 0078 0694     		str	r4, [sp, #24]
 132              		.loc 1 347 3 view .LVU30
 133 007a 1A6B     		ldr	r2, [r3, #48]
 134 007c 42F00802 		orr	r2, r2, #8
 135 0080 1A63     		str	r2, [r3, #48]
 136              		.loc 1 347 3 view .LVU31
 137 0082 1B6B     		ldr	r3, [r3, #48]
 138 0084 03F00803 		and	r3, r3, #8
 139 0088 0693     		str	r3, [sp, #24]
 140              		.loc 1 347 3 view .LVU32
 141 008a 069B     		ldr	r3, [sp, #24]
 142              	.LBE7:
 348:Src/main.c    **** 
 349:Src/main.c    ****   /*Configure GPIO pin Output Level */
 350:Src/main.c    ****   HAL_GPIO_WritePin(GPIOA, LED1_Pin|LED2_Pin, GPIO_PIN_SET);
 143              		.loc 1 350 3 view .LVU33
 144 008c 394F     		ldr	r7, .L3+4
 145 008e 0122     		movs	r2, #1
 146 0090 C021     		movs	r1, #192
 147 0092 3846     		mov	r0, r7
 148 0094 FFF7FEFF 		bl	HAL_GPIO_WritePin
 149              	.LVL0:
 351:Src/main.c    **** 
 352:Src/main.c    ****   /*Configure GPIO pin Output Level */
 353:Src/main.c    ****   HAL_GPIO_WritePin(GPIOB, FLASH_CS_Pin|GPIO_PIN_1|RF_CE_Pin|RF_CS_Pin, GPIO_PIN_RESET);
 150              		.loc 1 353 3 view .LVU34
 151 0098 374E     		ldr	r6, .L3+8
 152 009a 2246     		mov	r2, r4
 153 009c C321     		movs	r1, #195
 154 009e 3046     		mov	r0, r6
 155 00a0 FFF7FEFF 		bl	HAL_GPIO_WritePin
 156              	.LVL1:
 354:Src/main.c    **** 
 355:Src/main.c    ****   /*Configure GPIO pin Output Level */
 356:Src/main.c    ****   HAL_GPIO_WritePin(TS_CS_GPIO_Port, TS_CS_Pin, GPIO_PIN_SET);
 157              		.loc 1 356 3 view .LVU35
 158 00a4 0122     		movs	r2, #1
ARM GAS  D:\Temp\ccu84qpn.s 			page 10


 159 00a6 4FF48051 		mov	r1, #4096
 160 00aa 3046     		mov	r0, r6
 161 00ac FFF7FEFF 		bl	HAL_GPIO_WritePin
 162              	.LVL2:
 357:Src/main.c    **** 
 358:Src/main.c    ****   /*Configure GPIO pins : BUTTON1_Pin BUTTON0_Pin */
 359:Src/main.c    ****   GPIO_InitStruct.Pin = BUTTON1_Pin|BUTTON0_Pin;
 163              		.loc 1 359 3 view .LVU36
 164              		.loc 1 359 23 is_stmt 0 view .LVU37
 165 00b0 1823     		movs	r3, #24
 166 00b2 0793     		str	r3, [sp, #28]
 360:Src/main.c    ****   GPIO_InitStruct.Mode = GPIO_MODE_IT_RISING;
 167              		.loc 1 360 3 is_stmt 1 view .LVU38
 168              		.loc 1 360 24 is_stmt 0 view .LVU39
 169 00b4 DFF8D080 		ldr	r8, .L3+24
 170 00b8 CDF82080 		str	r8, [sp, #32]
 361:Src/main.c    ****   GPIO_InitStruct.Pull = GPIO_PULLUP;
 171              		.loc 1 361 3 is_stmt 1 view .LVU40
 172              		.loc 1 361 24 is_stmt 0 view .LVU41
 173 00bc 0125     		movs	r5, #1
 174 00be 0995     		str	r5, [sp, #36]
 362:Src/main.c    ****   HAL_GPIO_Init(GPIOE, &GPIO_InitStruct);
 175              		.loc 1 362 3 is_stmt 1 view .LVU42
 176 00c0 07A9     		add	r1, sp, #28
 177 00c2 2E48     		ldr	r0, .L3+12
 178 00c4 FFF7FEFF 		bl	HAL_GPIO_Init
 179              	.LVL3:
 363:Src/main.c    **** 
 364:Src/main.c    ****   /*Configure GPIO pins : LED1_Pin LED2_Pin */
 365:Src/main.c    ****   GPIO_InitStruct.Pin = LED1_Pin|LED2_Pin;
 180              		.loc 1 365 3 view .LVU43
 181              		.loc 1 365 23 is_stmt 0 view .LVU44
 182 00c8 C023     		movs	r3, #192
 183 00ca 0793     		str	r3, [sp, #28]
 366:Src/main.c    ****   GPIO_InitStruct.Mode = GPIO_MODE_OUTPUT_PP;
 184              		.loc 1 366 3 is_stmt 1 view .LVU45
 185              		.loc 1 366 24 is_stmt 0 view .LVU46
 186 00cc 0895     		str	r5, [sp, #32]
 367:Src/main.c    ****   GPIO_InitStruct.Pull = GPIO_NOPULL;
 187              		.loc 1 367 3 is_stmt 1 view .LVU47
 188              		.loc 1 367 24 is_stmt 0 view .LVU48
 189 00ce 0994     		str	r4, [sp, #36]
 368:Src/main.c    ****   GPIO_InitStruct.Speed = GPIO_SPEED_FREQ_LOW;
 190              		.loc 1 368 3 is_stmt 1 view .LVU49
 191              		.loc 1 368 25 is_stmt 0 view .LVU50
 192 00d0 0A94     		str	r4, [sp, #40]
 369:Src/main.c    ****   HAL_GPIO_Init(GPIOA, &GPIO_InitStruct);
 193              		.loc 1 369 3 is_stmt 1 view .LVU51
 194 00d2 07A9     		add	r1, sp, #28
 195 00d4 3846     		mov	r0, r7
 196 00d6 FFF7FEFF 		bl	HAL_GPIO_Init
 197              	.LVL4:
 370:Src/main.c    **** 
 371:Src/main.c    ****   /*Configure GPIO pin : TS_IRQ_Pin */
 372:Src/main.c    ****   GPIO_InitStruct.Pin = TS_IRQ_Pin;
 198              		.loc 1 372 3 view .LVU52
 199              		.loc 1 372 23 is_stmt 0 view .LVU53
ARM GAS  D:\Temp\ccu84qpn.s 			page 11


 200 00da 2023     		movs	r3, #32
 201 00dc 0793     		str	r3, [sp, #28]
 373:Src/main.c    ****   GPIO_InitStruct.Mode = GPIO_MODE_IT_FALLING;
 202              		.loc 1 373 3 is_stmt 1 view .LVU54
 203              		.loc 1 373 24 is_stmt 0 view .LVU55
 204 00de 284B     		ldr	r3, .L3+16
 205 00e0 0893     		str	r3, [sp, #32]
 374:Src/main.c    ****   GPIO_InitStruct.Pull = GPIO_PULLUP;
 206              		.loc 1 374 3 is_stmt 1 view .LVU56
 207              		.loc 1 374 24 is_stmt 0 view .LVU57
 208 00e2 0995     		str	r5, [sp, #36]
 375:Src/main.c    ****   HAL_GPIO_Init(TS_IRQ_GPIO_Port, &GPIO_InitStruct);
 209              		.loc 1 375 3 is_stmt 1 view .LVU58
 210 00e4 07A9     		add	r1, sp, #28
 211 00e6 2748     		ldr	r0, .L3+20
 212 00e8 FFF7FEFF 		bl	HAL_GPIO_Init
 213              	.LVL5:
 376:Src/main.c    **** 
 377:Src/main.c    ****   /*Configure GPIO pins : FLASH_CS_Pin RF_CE_Pin RF_CS_Pin */
 378:Src/main.c    ****   GPIO_InitStruct.Pin = FLASH_CS_Pin|RF_CE_Pin|RF_CS_Pin;
 214              		.loc 1 378 3 view .LVU59
 215              		.loc 1 378 23 is_stmt 0 view .LVU60
 216 00ec C123     		movs	r3, #193
 217 00ee 0793     		str	r3, [sp, #28]
 379:Src/main.c    ****   GPIO_InitStruct.Mode = GPIO_MODE_OUTPUT_PP;
 218              		.loc 1 379 3 is_stmt 1 view .LVU61
 219              		.loc 1 379 24 is_stmt 0 view .LVU62
 220 00f0 0895     		str	r5, [sp, #32]
 380:Src/main.c    ****   GPIO_InitStruct.Pull = GPIO_NOPULL;
 221              		.loc 1 380 3 is_stmt 1 view .LVU63
 222              		.loc 1 380 24 is_stmt 0 view .LVU64
 223 00f2 0994     		str	r4, [sp, #36]
 381:Src/main.c    ****   GPIO_InitStruct.Speed = GPIO_SPEED_FREQ_HIGH;
 224              		.loc 1 381 3 is_stmt 1 view .LVU65
 225              		.loc 1 381 25 is_stmt 0 view .LVU66
 226 00f4 0227     		movs	r7, #2
 227 00f6 0A97     		str	r7, [sp, #40]
 382:Src/main.c    ****   HAL_GPIO_Init(GPIOB, &GPIO_InitStruct);
 228              		.loc 1 382 3 is_stmt 1 view .LVU67
 229 00f8 07A9     		add	r1, sp, #28
 230 00fa 3046     		mov	r0, r6
 231 00fc FFF7FEFF 		bl	HAL_GPIO_Init
 232              	.LVL6:
 383:Src/main.c    **** 
 384:Src/main.c    ****   /*Configure GPIO pin : PB1 */
 385:Src/main.c    ****   GPIO_InitStruct.Pin = GPIO_PIN_1;
 233              		.loc 1 385 3 view .LVU68
 234              		.loc 1 385 23 is_stmt 0 view .LVU69
 235 0100 0797     		str	r7, [sp, #28]
 386:Src/main.c    ****   GPIO_InitStruct.Mode = GPIO_MODE_OUTPUT_PP;
 236              		.loc 1 386 3 is_stmt 1 view .LVU70
 237              		.loc 1 386 24 is_stmt 0 view .LVU71
 238 0102 0895     		str	r5, [sp, #32]
 387:Src/main.c    ****   GPIO_InitStruct.Pull = GPIO_NOPULL;
 239              		.loc 1 387 3 is_stmt 1 view .LVU72
 240              		.loc 1 387 24 is_stmt 0 view .LVU73
 241 0104 0994     		str	r4, [sp, #36]
ARM GAS  D:\Temp\ccu84qpn.s 			page 12


 388:Src/main.c    ****   GPIO_InitStruct.Speed = GPIO_SPEED_FREQ_LOW;
 242              		.loc 1 388 3 is_stmt 1 view .LVU74
 243              		.loc 1 388 25 is_stmt 0 view .LVU75
 244 0106 0A94     		str	r4, [sp, #40]
 389:Src/main.c    ****   HAL_GPIO_Init(GPIOB, &GPIO_InitStruct);
 245              		.loc 1 389 3 is_stmt 1 view .LVU76
 246 0108 07A9     		add	r1, sp, #28
 247 010a 3046     		mov	r0, r6
 248 010c FFF7FEFF 		bl	HAL_GPIO_Init
 249              	.LVL7:
 390:Src/main.c    **** 
 391:Src/main.c    ****   /*Configure GPIO pin : TS_CS_Pin */
 392:Src/main.c    ****   GPIO_InitStruct.Pin = TS_CS_Pin;
 250              		.loc 1 392 3 view .LVU77
 251              		.loc 1 392 23 is_stmt 0 view .LVU78
 252 0110 4FF48053 		mov	r3, #4096
 253 0114 0793     		str	r3, [sp, #28]
 393:Src/main.c    ****   GPIO_InitStruct.Mode = GPIO_MODE_OUTPUT_PP;
 254              		.loc 1 393 3 is_stmt 1 view .LVU79
 255              		.loc 1 393 24 is_stmt 0 view .LVU80
 256 0116 0895     		str	r5, [sp, #32]
 394:Src/main.c    ****   GPIO_InitStruct.Pull = GPIO_PULLUP;
 257              		.loc 1 394 3 is_stmt 1 view .LVU81
 258              		.loc 1 394 24 is_stmt 0 view .LVU82
 259 0118 0995     		str	r5, [sp, #36]
 395:Src/main.c    ****   GPIO_InitStruct.Speed = GPIO_SPEED_FREQ_HIGH;
 260              		.loc 1 395 3 is_stmt 1 view .LVU83
 261              		.loc 1 395 25 is_stmt 0 view .LVU84
 262 011a 0A97     		str	r7, [sp, #40]
 396:Src/main.c    ****   HAL_GPIO_Init(TS_CS_GPIO_Port, &GPIO_InitStruct);
 263              		.loc 1 396 3 is_stmt 1 view .LVU85
 264 011c 07A9     		add	r1, sp, #28
 265 011e 3046     		mov	r0, r6
 266 0120 FFF7FEFF 		bl	HAL_GPIO_Init
 267              	.LVL8:
 397:Src/main.c    **** 
 398:Src/main.c    ****   /*Configure GPIO pin : PB8 */
 399:Src/main.c    ****   GPIO_InitStruct.Pin = GPIO_PIN_8;
 268              		.loc 1 399 3 view .LVU86
 269              		.loc 1 399 23 is_stmt 0 view .LVU87
 270 0124 4FF48073 		mov	r3, #256
 271 0128 0793     		str	r3, [sp, #28]
 400:Src/main.c    ****   GPIO_InitStruct.Mode = GPIO_MODE_IT_RISING;
 272              		.loc 1 400 3 is_stmt 1 view .LVU88
 273              		.loc 1 400 24 is_stmt 0 view .LVU89
 274 012a CDF82080 		str	r8, [sp, #32]
 401:Src/main.c    ****   GPIO_InitStruct.Pull = GPIO_PULLUP;
 275              		.loc 1 401 3 is_stmt 1 view .LVU90
 276              		.loc 1 401 24 is_stmt 0 view .LVU91
 277 012e 0995     		str	r5, [sp, #36]
 402:Src/main.c    ****   HAL_GPIO_Init(GPIOB, &GPIO_InitStruct);
 278              		.loc 1 402 3 is_stmt 1 view .LVU92
 279 0130 07A9     		add	r1, sp, #28
 280 0132 3046     		mov	r0, r6
 281 0134 FFF7FEFF 		bl	HAL_GPIO_Init
 282              	.LVL9:
 403:Src/main.c    **** 
ARM GAS  D:\Temp\ccu84qpn.s 			page 13


 404:Src/main.c    ****   /* EXTI interrupt init*/
 405:Src/main.c    ****   HAL_NVIC_SetPriority(EXTI3_IRQn, 0, 0);
 283              		.loc 1 405 3 view .LVU93
 284 0138 2246     		mov	r2, r4
 285 013a 2146     		mov	r1, r4
 286 013c 0920     		movs	r0, #9
 287 013e FFF7FEFF 		bl	HAL_NVIC_SetPriority
 288              	.LVL10:
 406:Src/main.c    ****   HAL_NVIC_EnableIRQ(EXTI3_IRQn);
 289              		.loc 1 406 3 view .LVU94
 290 0142 0920     		movs	r0, #9
 291 0144 FFF7FEFF 		bl	HAL_NVIC_EnableIRQ
 292              	.LVL11:
 407:Src/main.c    **** 
 408:Src/main.c    ****   HAL_NVIC_SetPriority(EXTI4_IRQn, 0, 0);
 293              		.loc 1 408 3 view .LVU95
 294 0148 2246     		mov	r2, r4
 295 014a 2146     		mov	r1, r4
 296 014c 0A20     		movs	r0, #10
 297 014e FFF7FEFF 		bl	HAL_NVIC_SetPriority
 298              	.LVL12:
 409:Src/main.c    ****   HAL_NVIC_EnableIRQ(EXTI4_IRQn);
 299              		.loc 1 409 3 view .LVU96
 300 0152 0A20     		movs	r0, #10
 301 0154 FFF7FEFF 		bl	HAL_NVIC_EnableIRQ
 302              	.LVL13:
 410:Src/main.c    **** 
 411:Src/main.c    ****   HAL_NVIC_SetPriority(EXTI9_5_IRQn, 15, 15);
 303              		.loc 1 411 3 view .LVU97
 304 0158 0F22     		movs	r2, #15
 305 015a 1146     		mov	r1, r2
 306 015c 1720     		movs	r0, #23
 307 015e FFF7FEFF 		bl	HAL_NVIC_SetPriority
 308              	.LVL14:
 412:Src/main.c    ****   HAL_NVIC_EnableIRQ(EXTI9_5_IRQn);
 309              		.loc 1 412 3 view .LVU98
 310 0162 1720     		movs	r0, #23
 311 0164 FFF7FEFF 		bl	HAL_NVIC_EnableIRQ
 312              	.LVL15:
 413:Src/main.c    **** 
 414:Src/main.c    **** }
 313              		.loc 1 414 1 is_stmt 0 view .LVU99
 314 0168 0CB0     		add	sp, sp, #48
 315              	.LCFI2:
 316              		.cfi_def_cfa_offset 24
 317              		@ sp needed
 318 016a BDE8F081 		pop	{r4, r5, r6, r7, r8, pc}
 319              	.L4:
 320 016e 00BF     		.align	2
 321              	.L3:
 322 0170 00380240 		.word	1073887232
 323 0174 00000240 		.word	1073872896
 324 0178 00040240 		.word	1073873920
 325 017c 00100240 		.word	1073876992
 326 0180 00002110 		.word	270598144
 327 0184 00080240 		.word	1073874944
 328 0188 00001110 		.word	269549568
ARM GAS  D:\Temp\ccu84qpn.s 			page 14


 329              		.cfi_endproc
 330              	.LFE570:
 332              		.section	.text.MX_FSMC_Init,"ax",%progbits
 333              		.align	1
 334              		.syntax unified
 335              		.thumb
 336              		.thumb_func
 337              		.fpu fpv4-sp-d16
 339              	MX_FSMC_Init:
 340              	.LFB571:
 415:Src/main.c    **** 
 416:Src/main.c    **** /* FSMC initialization function */
 417:Src/main.c    **** static void MX_FSMC_Init(void)
 418:Src/main.c    **** {
 341              		.loc 1 418 1 is_stmt 1 view -0
 342              		.cfi_startproc
 343              		@ args = 0, pretend = 0, frame = 32
 344              		@ frame_needed = 0, uses_anonymous_args = 0
 345 0000 00B5     		push	{lr}
 346              	.LCFI3:
 347              		.cfi_def_cfa_offset 4
 348              		.cfi_offset 14, -4
 349 0002 89B0     		sub	sp, sp, #36
 350              	.LCFI4:
 351              		.cfi_def_cfa_offset 40
 419:Src/main.c    **** 
 420:Src/main.c    ****   /* USER CODE BEGIN FSMC_Init 0 */
 421:Src/main.c    **** 
 422:Src/main.c    ****   /* USER CODE END FSMC_Init 0 */
 423:Src/main.c    **** 
 424:Src/main.c    ****   FSMC_NORSRAM_TimingTypeDef Timing = {0};
 352              		.loc 1 424 3 view .LVU101
 353              		.loc 1 424 30 is_stmt 0 view .LVU102
 354 0004 0022     		movs	r2, #0
 355 0006 0792     		str	r2, [sp, #28]
 425:Src/main.c    **** 
 426:Src/main.c    ****   /* USER CODE BEGIN FSMC_Init 1 */
 427:Src/main.c    **** 
 428:Src/main.c    ****   /* USER CODE END FSMC_Init 1 */
 429:Src/main.c    **** 
 430:Src/main.c    ****   /** Perform the SRAM1 memory initialization sequence
 431:Src/main.c    ****   */
 432:Src/main.c    ****   hsram1.Instance = FSMC_NORSRAM_DEVICE;
 356              		.loc 1 432 3 is_stmt 1 view .LVU103
 357              		.loc 1 432 19 is_stmt 0 view .LVU104
 358 0008 1348     		ldr	r0, .L7
 359 000a 4FF02043 		mov	r3, #-1610612736
 360 000e 0360     		str	r3, [r0]
 433:Src/main.c    ****   hsram1.Extended = FSMC_NORSRAM_EXTENDED_DEVICE;
 361              		.loc 1 433 3 is_stmt 1 view .LVU105
 362              		.loc 1 433 19 is_stmt 0 view .LVU106
 363 0010 03F58273 		add	r3, r3, #260
 364 0014 4360     		str	r3, [r0, #4]
 434:Src/main.c    ****   /* hsram1.Init */
 435:Src/main.c    ****   hsram1.Init.NSBank = FSMC_NORSRAM_BANK1;
 365              		.loc 1 435 3 is_stmt 1 view .LVU107
 366              		.loc 1 435 22 is_stmt 0 view .LVU108
ARM GAS  D:\Temp\ccu84qpn.s 			page 15


 367 0016 8260     		str	r2, [r0, #8]
 436:Src/main.c    ****   hsram1.Init.DataAddressMux = FSMC_DATA_ADDRESS_MUX_DISABLE;
 368              		.loc 1 436 3 is_stmt 1 view .LVU109
 369              		.loc 1 436 30 is_stmt 0 view .LVU110
 370 0018 C260     		str	r2, [r0, #12]
 437:Src/main.c    ****   hsram1.Init.MemoryType = FSMC_MEMORY_TYPE_SRAM;
 371              		.loc 1 437 3 is_stmt 1 view .LVU111
 372              		.loc 1 437 26 is_stmt 0 view .LVU112
 373 001a 0261     		str	r2, [r0, #16]
 438:Src/main.c    ****   hsram1.Init.MemoryDataWidth = FSMC_NORSRAM_MEM_BUS_WIDTH_16;
 374              		.loc 1 438 3 is_stmt 1 view .LVU113
 375              		.loc 1 438 31 is_stmt 0 view .LVU114
 376 001c 1023     		movs	r3, #16
 377 001e 4361     		str	r3, [r0, #20]
 439:Src/main.c    ****   hsram1.Init.BurstAccessMode = FSMC_BURST_ACCESS_MODE_DISABLE;
 378              		.loc 1 439 3 is_stmt 1 view .LVU115
 379              		.loc 1 439 31 is_stmt 0 view .LVU116
 380 0020 8261     		str	r2, [r0, #24]
 440:Src/main.c    ****   hsram1.Init.WaitSignalPolarity = FSMC_WAIT_SIGNAL_POLARITY_LOW;
 381              		.loc 1 440 3 is_stmt 1 view .LVU117
 382              		.loc 1 440 34 is_stmt 0 view .LVU118
 383 0022 C261     		str	r2, [r0, #28]
 441:Src/main.c    ****   hsram1.Init.WrapMode = FSMC_WRAP_MODE_DISABLE;
 384              		.loc 1 441 3 is_stmt 1 view .LVU119
 385              		.loc 1 441 24 is_stmt 0 view .LVU120
 386 0024 0262     		str	r2, [r0, #32]
 442:Src/main.c    ****   hsram1.Init.WaitSignalActive = FSMC_WAIT_TIMING_BEFORE_WS;
 387              		.loc 1 442 3 is_stmt 1 view .LVU121
 388              		.loc 1 442 32 is_stmt 0 view .LVU122
 389 0026 4262     		str	r2, [r0, #36]
 443:Src/main.c    ****   hsram1.Init.WriteOperation = FSMC_WRITE_OPERATION_ENABLE;
 390              		.loc 1 443 3 is_stmt 1 view .LVU123
 391              		.loc 1 443 30 is_stmt 0 view .LVU124
 392 0028 4FF48053 		mov	r3, #4096
 393 002c 8362     		str	r3, [r0, #40]
 444:Src/main.c    ****   hsram1.Init.WaitSignal = FSMC_WAIT_SIGNAL_DISABLE;
 394              		.loc 1 444 3 is_stmt 1 view .LVU125
 395              		.loc 1 444 26 is_stmt 0 view .LVU126
 396 002e C262     		str	r2, [r0, #44]
 445:Src/main.c    ****   hsram1.Init.ExtendedMode = FSMC_EXTENDED_MODE_DISABLE;
 397              		.loc 1 445 3 is_stmt 1 view .LVU127
 398              		.loc 1 445 28 is_stmt 0 view .LVU128
 399 0030 0263     		str	r2, [r0, #48]
 446:Src/main.c    ****   hsram1.Init.AsynchronousWait = FSMC_ASYNCHRONOUS_WAIT_DISABLE;
 400              		.loc 1 446 3 is_stmt 1 view .LVU129
 401              		.loc 1 446 32 is_stmt 0 view .LVU130
 402 0032 4263     		str	r2, [r0, #52]
 447:Src/main.c    ****   hsram1.Init.WriteBurst = FSMC_WRITE_BURST_DISABLE;
 403              		.loc 1 447 3 is_stmt 1 view .LVU131
 404              		.loc 1 447 26 is_stmt 0 view .LVU132
 405 0034 8263     		str	r2, [r0, #56]
 448:Src/main.c    ****   hsram1.Init.PageSize = FSMC_PAGE_SIZE_NONE;
 406              		.loc 1 448 3 is_stmt 1 view .LVU133
 407              		.loc 1 448 24 is_stmt 0 view .LVU134
 408 0036 4264     		str	r2, [r0, #68]
 449:Src/main.c    ****   /* Timing */
 450:Src/main.c    ****   Timing.AddressSetupTime = 1;
ARM GAS  D:\Temp\ccu84qpn.s 			page 16


 409              		.loc 1 450 3 is_stmt 1 view .LVU135
 410              		.loc 1 450 27 is_stmt 0 view .LVU136
 411 0038 0123     		movs	r3, #1
 412 003a 0193     		str	r3, [sp, #4]
 451:Src/main.c    ****   Timing.AddressHoldTime = 1;
 413              		.loc 1 451 3 is_stmt 1 view .LVU137
 414              		.loc 1 451 26 is_stmt 0 view .LVU138
 415 003c 0293     		str	r3, [sp, #8]
 452:Src/main.c    ****   Timing.DataSetupTime = 1;
 416              		.loc 1 452 3 is_stmt 1 view .LVU139
 417              		.loc 1 452 24 is_stmt 0 view .LVU140
 418 003e 0393     		str	r3, [sp, #12]
 453:Src/main.c    ****   Timing.BusTurnAroundDuration = 5;
 419              		.loc 1 453 3 is_stmt 1 view .LVU141
 420              		.loc 1 453 32 is_stmt 0 view .LVU142
 421 0040 0523     		movs	r3, #5
 422 0042 0493     		str	r3, [sp, #16]
 454:Src/main.c    ****   Timing.CLKDivision = 5;
 423              		.loc 1 454 3 is_stmt 1 view .LVU143
 424              		.loc 1 454 22 is_stmt 0 view .LVU144
 425 0044 0593     		str	r3, [sp, #20]
 455:Src/main.c    ****   Timing.DataLatency = 2;
 426              		.loc 1 455 3 is_stmt 1 view .LVU145
 427              		.loc 1 455 22 is_stmt 0 view .LVU146
 428 0046 0223     		movs	r3, #2
 429 0048 0693     		str	r3, [sp, #24]
 456:Src/main.c    **** 
 457:Src/main.c    ****   Timing.AccessMode = FSMC_ACCESS_MODE_A;
 430              		.loc 1 457 3 is_stmt 1 view .LVU147
 458:Src/main.c    ****   /* ExtTiming */
 459:Src/main.c    **** 
 460:Src/main.c    ****   if (HAL_SRAM_Init(&hsram1, &Timing, NULL) != HAL_OK)
 431              		.loc 1 460 3 view .LVU148
 432              		.loc 1 460 7 is_stmt 0 view .LVU149
 433 004a 01A9     		add	r1, sp, #4
 434 004c FFF7FEFF 		bl	HAL_SRAM_Init
 435              	.LVL16:
 461:Src/main.c    ****   {
 462:Src/main.c    ****     Error_Handler( );
 463:Src/main.c    ****   }
 464:Src/main.c    **** 
 465:Src/main.c    ****   /* USER CODE BEGIN FSMC_Init 2 */
 466:Src/main.c    **** 
 467:Src/main.c    ****   /* USER CODE END FSMC_Init 2 */
 468:Src/main.c    **** }
 436              		.loc 1 468 1 view .LVU150
 437 0050 09B0     		add	sp, sp, #36
 438              	.LCFI5:
 439              		.cfi_def_cfa_offset 4
 440              		@ sp needed
 441 0052 5DF804FB 		ldr	pc, [sp], #4
 442              	.L8:
 443 0056 00BF     		.align	2
 444              	.L7:
 445 0058 00000000 		.word	hsram1
 446              		.cfi_endproc
 447              	.LFE571:
ARM GAS  D:\Temp\ccu84qpn.s 			page 17


 449              		.section	.text.MX_RNG_Init,"ax",%progbits
 450              		.align	1
 451              		.syntax unified
 452              		.thumb
 453              		.thumb_func
 454              		.fpu fpv4-sp-d16
 456              	MX_RNG_Init:
 457              	.LFB566:
 200:Src/main.c    **** 
 458              		.loc 1 200 1 is_stmt 1 view -0
 459              		.cfi_startproc
 460              		@ args = 0, pretend = 0, frame = 0
 461              		@ frame_needed = 0, uses_anonymous_args = 0
 462 0000 08B5     		push	{r3, lr}
 463              	.LCFI6:
 464              		.cfi_def_cfa_offset 8
 465              		.cfi_offset 3, -8
 466              		.cfi_offset 14, -4
 209:Src/main.c    ****   if (HAL_RNG_Init(&hrng) != HAL_OK)
 467              		.loc 1 209 3 view .LVU152
 209:Src/main.c    ****   if (HAL_RNG_Init(&hrng) != HAL_OK)
 468              		.loc 1 209 17 is_stmt 0 view .LVU153
 469 0002 0348     		ldr	r0, .L11
 470 0004 034B     		ldr	r3, .L11+4
 471 0006 0360     		str	r3, [r0]
 210:Src/main.c    ****   {
 472              		.loc 1 210 3 is_stmt 1 view .LVU154
 210:Src/main.c    ****   {
 473              		.loc 1 210 7 is_stmt 0 view .LVU155
 474 0008 FFF7FEFF 		bl	HAL_RNG_Init
 475              	.LVL17:
 218:Src/main.c    **** 
 476              		.loc 1 218 1 view .LVU156
 477 000c 08BD     		pop	{r3, pc}
 478              	.L12:
 479 000e 00BF     		.align	2
 480              	.L11:
 481 0010 00000000 		.word	hrng
 482 0014 00080650 		.word	1342572544
 483              		.cfi_endproc
 484              	.LFE566:
 486              		.section	.text.MX_SDIO_SD_Init,"ax",%progbits
 487              		.align	1
 488              		.syntax unified
 489              		.thumb
 490              		.thumb_func
 491              		.fpu fpv4-sp-d16
 493              	MX_SDIO_SD_Init:
 494              	.LFB567:
 226:Src/main.c    **** 
 495              		.loc 1 226 1 is_stmt 1 view -0
 496              		.cfi_startproc
 497              		@ args = 0, pretend = 0, frame = 0
 498              		@ frame_needed = 0, uses_anonymous_args = 0
 499 0000 10B5     		push	{r4, lr}
 500              	.LCFI7:
 501              		.cfi_def_cfa_offset 8
ARM GAS  D:\Temp\ccu84qpn.s 			page 18


 502              		.cfi_offset 4, -8
 503              		.cfi_offset 14, -4
 235:Src/main.c    ****   hsd.Init.ClockEdge = SDIO_CLOCK_EDGE_RISING;
 504              		.loc 1 235 3 view .LVU158
 235:Src/main.c    ****   hsd.Init.ClockEdge = SDIO_CLOCK_EDGE_RISING;
 505              		.loc 1 235 16 is_stmt 0 view .LVU159
 506 0002 0A4C     		ldr	r4, .L15
 507 0004 0A4B     		ldr	r3, .L15+4
 508 0006 2360     		str	r3, [r4]
 236:Src/main.c    ****   hsd.Init.ClockBypass = SDIO_CLOCK_BYPASS_DISABLE;
 509              		.loc 1 236 3 is_stmt 1 view .LVU160
 236:Src/main.c    ****   hsd.Init.ClockBypass = SDIO_CLOCK_BYPASS_DISABLE;
 510              		.loc 1 236 22 is_stmt 0 view .LVU161
 511 0008 0023     		movs	r3, #0
 512 000a 6360     		str	r3, [r4, #4]
 237:Src/main.c    ****   hsd.Init.ClockPowerSave = SDIO_CLOCK_POWER_SAVE_DISABLE;
 513              		.loc 1 237 3 is_stmt 1 view .LVU162
 237:Src/main.c    ****   hsd.Init.ClockPowerSave = SDIO_CLOCK_POWER_SAVE_DISABLE;
 514              		.loc 1 237 24 is_stmt 0 view .LVU163
 515 000c A360     		str	r3, [r4, #8]
 238:Src/main.c    ****   hsd.Init.BusWide = SDIO_BUS_WIDE_1B;
 516              		.loc 1 238 3 is_stmt 1 view .LVU164
 238:Src/main.c    ****   hsd.Init.BusWide = SDIO_BUS_WIDE_1B;
 517              		.loc 1 238 27 is_stmt 0 view .LVU165
 518 000e E360     		str	r3, [r4, #12]
 239:Src/main.c    ****   hsd.Init.HardwareFlowControl = SDIO_HARDWARE_FLOW_CONTROL_ENABLE;
 519              		.loc 1 239 3 is_stmt 1 view .LVU166
 239:Src/main.c    ****   hsd.Init.HardwareFlowControl = SDIO_HARDWARE_FLOW_CONTROL_ENABLE;
 520              		.loc 1 239 20 is_stmt 0 view .LVU167
 521 0010 2361     		str	r3, [r4, #16]
 240:Src/main.c    ****   hsd.Init.ClockDiv = 0;
 522              		.loc 1 240 3 is_stmt 1 view .LVU168
 240:Src/main.c    ****   hsd.Init.ClockDiv = 0;
 523              		.loc 1 240 32 is_stmt 0 view .LVU169
 524 0012 4FF48042 		mov	r2, #16384
 525 0016 6261     		str	r2, [r4, #20]
 241:Src/main.c    ****   if (HAL_SD_Init(&hsd) != HAL_OK)
 526              		.loc 1 241 3 is_stmt 1 view .LVU170
 241:Src/main.c    ****   if (HAL_SD_Init(&hsd) != HAL_OK)
 527              		.loc 1 241 21 is_stmt 0 view .LVU171
 528 0018 A361     		str	r3, [r4, #24]
 242:Src/main.c    ****   {
 529              		.loc 1 242 3 is_stmt 1 view .LVU172
 242:Src/main.c    ****   {
 530              		.loc 1 242 7 is_stmt 0 view .LVU173
 531 001a 2046     		mov	r0, r4
 532 001c FFF7FEFF 		bl	HAL_SD_Init
 533              	.LVL18:
 246:Src/main.c    ****   {
 534              		.loc 1 246 3 is_stmt 1 view .LVU174
 246:Src/main.c    ****   {
 535              		.loc 1 246 7 is_stmt 0 view .LVU175
 536 0020 4FF40061 		mov	r1, #2048
 537 0024 2046     		mov	r0, r4
 538 0026 FFF7FEFF 		bl	HAL_SD_ConfigWideBusOperation
 539              	.LVL19:
 254:Src/main.c    **** 
ARM GAS  D:\Temp\ccu84qpn.s 			page 19


 540              		.loc 1 254 1 view .LVU176
 541 002a 10BD     		pop	{r4, pc}
 542              	.L16:
 543              		.align	2
 544              	.L15:
 545 002c 00000000 		.word	hsd
 546 0030 002C0140 		.word	1073818624
 547              		.cfi_endproc
 548              	.LFE567:
 550              		.section	.text.MX_SPI2_Init,"ax",%progbits
 551              		.align	1
 552              		.syntax unified
 553              		.thumb
 554              		.thumb_func
 555              		.fpu fpv4-sp-d16
 557              	MX_SPI2_Init:
 558              	.LFB568:
 262:Src/main.c    **** 
 559              		.loc 1 262 1 is_stmt 1 view -0
 560              		.cfi_startproc
 561              		@ args = 0, pretend = 0, frame = 0
 562              		@ frame_needed = 0, uses_anonymous_args = 0
 563 0000 08B5     		push	{r3, lr}
 564              	.LCFI8:
 565              		.cfi_def_cfa_offset 8
 566              		.cfi_offset 3, -8
 567              		.cfi_offset 14, -4
 272:Src/main.c    ****   hspi2.Init.Mode = SPI_MODE_MASTER;
 568              		.loc 1 272 3 view .LVU178
 272:Src/main.c    ****   hspi2.Init.Mode = SPI_MODE_MASTER;
 569              		.loc 1 272 18 is_stmt 0 view .LVU179
 570 0002 0C48     		ldr	r0, .L19
 571 0004 0C4B     		ldr	r3, .L19+4
 572 0006 0360     		str	r3, [r0]
 273:Src/main.c    ****   hspi2.Init.Direction = SPI_DIRECTION_2LINES;
 573              		.loc 1 273 3 is_stmt 1 view .LVU180
 273:Src/main.c    ****   hspi2.Init.Direction = SPI_DIRECTION_2LINES;
 574              		.loc 1 273 19 is_stmt 0 view .LVU181
 575 0008 4FF48273 		mov	r3, #260
 576 000c 4360     		str	r3, [r0, #4]
 274:Src/main.c    ****   hspi2.Init.DataSize = SPI_DATASIZE_8BIT;
 577              		.loc 1 274 3 is_stmt 1 view .LVU182
 274:Src/main.c    ****   hspi2.Init.DataSize = SPI_DATASIZE_8BIT;
 578              		.loc 1 274 24 is_stmt 0 view .LVU183
 579 000e 0023     		movs	r3, #0
 580 0010 8360     		str	r3, [r0, #8]
 275:Src/main.c    ****   hspi2.Init.CLKPolarity = SPI_POLARITY_LOW;
 581              		.loc 1 275 3 is_stmt 1 view .LVU184
 275:Src/main.c    ****   hspi2.Init.CLKPolarity = SPI_POLARITY_LOW;
 582              		.loc 1 275 23 is_stmt 0 view .LVU185
 583 0012 C360     		str	r3, [r0, #12]
 276:Src/main.c    ****   hspi2.Init.CLKPhase = SPI_PHASE_1EDGE;
 584              		.loc 1 276 3 is_stmt 1 view .LVU186
 276:Src/main.c    ****   hspi2.Init.CLKPhase = SPI_PHASE_1EDGE;
 585              		.loc 1 276 26 is_stmt 0 view .LVU187
 586 0014 0361     		str	r3, [r0, #16]
 277:Src/main.c    ****   hspi2.Init.NSS = SPI_NSS_SOFT;
ARM GAS  D:\Temp\ccu84qpn.s 			page 20


 587              		.loc 1 277 3 is_stmt 1 view .LVU188
 277:Src/main.c    ****   hspi2.Init.NSS = SPI_NSS_SOFT;
 588              		.loc 1 277 23 is_stmt 0 view .LVU189
 589 0016 4361     		str	r3, [r0, #20]
 278:Src/main.c    ****   hspi2.Init.BaudRatePrescaler = SPI_BAUDRATEPRESCALER_32;
 590              		.loc 1 278 3 is_stmt 1 view .LVU190
 278:Src/main.c    ****   hspi2.Init.BaudRatePrescaler = SPI_BAUDRATEPRESCALER_32;
 591              		.loc 1 278 18 is_stmt 0 view .LVU191
 592 0018 4FF40072 		mov	r2, #512
 593 001c 8261     		str	r2, [r0, #24]
 279:Src/main.c    ****   hspi2.Init.FirstBit = SPI_FIRSTBIT_MSB;
 594              		.loc 1 279 3 is_stmt 1 view .LVU192
 279:Src/main.c    ****   hspi2.Init.FirstBit = SPI_FIRSTBIT_MSB;
 595              		.loc 1 279 32 is_stmt 0 view .LVU193
 596 001e 2022     		movs	r2, #32
 597 0020 C261     		str	r2, [r0, #28]
 280:Src/main.c    ****   hspi2.Init.TIMode = SPI_TIMODE_DISABLE;
 598              		.loc 1 280 3 is_stmt 1 view .LVU194
 280:Src/main.c    ****   hspi2.Init.TIMode = SPI_TIMODE_DISABLE;
 599              		.loc 1 280 23 is_stmt 0 view .LVU195
 600 0022 0362     		str	r3, [r0, #32]
 281:Src/main.c    ****   hspi2.Init.CRCCalculation = SPI_CRCCALCULATION_DISABLE;
 601              		.loc 1 281 3 is_stmt 1 view .LVU196
 281:Src/main.c    ****   hspi2.Init.CRCCalculation = SPI_CRCCALCULATION_DISABLE;
 602              		.loc 1 281 21 is_stmt 0 view .LVU197
 603 0024 4362     		str	r3, [r0, #36]
 282:Src/main.c    ****   hspi2.Init.CRCPolynomial = 10;
 604              		.loc 1 282 3 is_stmt 1 view .LVU198
 282:Src/main.c    ****   hspi2.Init.CRCPolynomial = 10;
 605              		.loc 1 282 29 is_stmt 0 view .LVU199
 606 0026 8362     		str	r3, [r0, #40]
 283:Src/main.c    ****   if (HAL_SPI_Init(&hspi2) != HAL_OK)
 607              		.loc 1 283 3 is_stmt 1 view .LVU200
 283:Src/main.c    ****   if (HAL_SPI_Init(&hspi2) != HAL_OK)
 608              		.loc 1 283 28 is_stmt 0 view .LVU201
 609 0028 0A23     		movs	r3, #10
 610 002a C362     		str	r3, [r0, #44]
 284:Src/main.c    ****   {
 611              		.loc 1 284 3 is_stmt 1 view .LVU202
 284:Src/main.c    ****   {
 612              		.loc 1 284 7 is_stmt 0 view .LVU203
 613 002c FFF7FEFF 		bl	HAL_SPI_Init
 614              	.LVL20:
 292:Src/main.c    **** 
 615              		.loc 1 292 1 view .LVU204
 616 0030 08BD     		pop	{r3, pc}
 617              	.L20:
 618 0032 00BF     		.align	2
 619              	.L19:
 620 0034 00000000 		.word	hspi2
 621 0038 00380040 		.word	1073756160
 622              		.cfi_endproc
 623              	.LFE568:
 625              		.section	.text.MX_SPI3_Init,"ax",%progbits
 626              		.align	1
 627              		.syntax unified
 628              		.thumb
ARM GAS  D:\Temp\ccu84qpn.s 			page 21


 629              		.thumb_func
 630              		.fpu fpv4-sp-d16
 632              	MX_SPI3_Init:
 633              	.LFB569:
 300:Src/main.c    **** 
 634              		.loc 1 300 1 is_stmt 1 view -0
 635              		.cfi_startproc
 636              		@ args = 0, pretend = 0, frame = 0
 637              		@ frame_needed = 0, uses_anonymous_args = 0
 638 0000 08B5     		push	{r3, lr}
 639              	.LCFI9:
 640              		.cfi_def_cfa_offset 8
 641              		.cfi_offset 3, -8
 642              		.cfi_offset 14, -4
 310:Src/main.c    ****   hspi3.Init.Mode = SPI_MODE_MASTER;
 643              		.loc 1 310 3 view .LVU206
 310:Src/main.c    ****   hspi3.Init.Mode = SPI_MODE_MASTER;
 644              		.loc 1 310 18 is_stmt 0 view .LVU207
 645 0002 0B48     		ldr	r0, .L23
 646 0004 0B4B     		ldr	r3, .L23+4
 647 0006 0360     		str	r3, [r0]
 311:Src/main.c    ****   hspi3.Init.Direction = SPI_DIRECTION_2LINES;
 648              		.loc 1 311 3 is_stmt 1 view .LVU208
 311:Src/main.c    ****   hspi3.Init.Direction = SPI_DIRECTION_2LINES;
 649              		.loc 1 311 19 is_stmt 0 view .LVU209
 650 0008 4FF48273 		mov	r3, #260
 651 000c 4360     		str	r3, [r0, #4]
 312:Src/main.c    ****   hspi3.Init.DataSize = SPI_DATASIZE_8BIT;
 652              		.loc 1 312 3 is_stmt 1 view .LVU210
 312:Src/main.c    ****   hspi3.Init.DataSize = SPI_DATASIZE_8BIT;
 653              		.loc 1 312 24 is_stmt 0 view .LVU211
 654 000e 0023     		movs	r3, #0
 655 0010 8360     		str	r3, [r0, #8]
 313:Src/main.c    ****   hspi3.Init.CLKPolarity = SPI_POLARITY_LOW;
 656              		.loc 1 313 3 is_stmt 1 view .LVU212
 313:Src/main.c    ****   hspi3.Init.CLKPolarity = SPI_POLARITY_LOW;
 657              		.loc 1 313 23 is_stmt 0 view .LVU213
 658 0012 C360     		str	r3, [r0, #12]
 314:Src/main.c    ****   hspi3.Init.CLKPhase = SPI_PHASE_1EDGE;
 659              		.loc 1 314 3 is_stmt 1 view .LVU214
 314:Src/main.c    ****   hspi3.Init.CLKPhase = SPI_PHASE_1EDGE;
 660              		.loc 1 314 26 is_stmt 0 view .LVU215
 661 0014 0361     		str	r3, [r0, #16]
 315:Src/main.c    ****   hspi3.Init.NSS = SPI_NSS_SOFT;
 662              		.loc 1 315 3 is_stmt 1 view .LVU216
 315:Src/main.c    ****   hspi3.Init.NSS = SPI_NSS_SOFT;
 663              		.loc 1 315 23 is_stmt 0 view .LVU217
 664 0016 4361     		str	r3, [r0, #20]
 316:Src/main.c    ****   hspi3.Init.BaudRatePrescaler = SPI_BAUDRATEPRESCALER_2;
 665              		.loc 1 316 3 is_stmt 1 view .LVU218
 316:Src/main.c    ****   hspi3.Init.BaudRatePrescaler = SPI_BAUDRATEPRESCALER_2;
 666              		.loc 1 316 18 is_stmt 0 view .LVU219
 667 0018 4FF40072 		mov	r2, #512
 668 001c 8261     		str	r2, [r0, #24]
 317:Src/main.c    ****   hspi3.Init.FirstBit = SPI_FIRSTBIT_MSB;
 669              		.loc 1 317 3 is_stmt 1 view .LVU220
 317:Src/main.c    ****   hspi3.Init.FirstBit = SPI_FIRSTBIT_MSB;
ARM GAS  D:\Temp\ccu84qpn.s 			page 22


 670              		.loc 1 317 32 is_stmt 0 view .LVU221
 671 001e C361     		str	r3, [r0, #28]
 318:Src/main.c    ****   hspi3.Init.TIMode = SPI_TIMODE_DISABLE;
 672              		.loc 1 318 3 is_stmt 1 view .LVU222
 318:Src/main.c    ****   hspi3.Init.TIMode = SPI_TIMODE_DISABLE;
 673              		.loc 1 318 23 is_stmt 0 view .LVU223
 674 0020 0362     		str	r3, [r0, #32]
 319:Src/main.c    ****   hspi3.Init.CRCCalculation = SPI_CRCCALCULATION_DISABLE;
 675              		.loc 1 319 3 is_stmt 1 view .LVU224
 319:Src/main.c    ****   hspi3.Init.CRCCalculation = SPI_CRCCALCULATION_DISABLE;
 676              		.loc 1 319 21 is_stmt 0 view .LVU225
 677 0022 4362     		str	r3, [r0, #36]
 320:Src/main.c    ****   hspi3.Init.CRCPolynomial = 10;
 678              		.loc 1 320 3 is_stmt 1 view .LVU226
 320:Src/main.c    ****   hspi3.Init.CRCPolynomial = 10;
 679              		.loc 1 320 29 is_stmt 0 view .LVU227
 680 0024 8362     		str	r3, [r0, #40]
 321:Src/main.c    ****   if (HAL_SPI_Init(&hspi3) != HAL_OK)
 681              		.loc 1 321 3 is_stmt 1 view .LVU228
 321:Src/main.c    ****   if (HAL_SPI_Init(&hspi3) != HAL_OK)
 682              		.loc 1 321 28 is_stmt 0 view .LVU229
 683 0026 0A23     		movs	r3, #10
 684 0028 C362     		str	r3, [r0, #44]
 322:Src/main.c    ****   {
 685              		.loc 1 322 3 is_stmt 1 view .LVU230
 322:Src/main.c    ****   {
 686              		.loc 1 322 7 is_stmt 0 view .LVU231
 687 002a FFF7FEFF 		bl	HAL_SPI_Init
 688              	.LVL21:
 330:Src/main.c    **** 
 689              		.loc 1 330 1 view .LVU232
 690 002e 08BD     		pop	{r3, pc}
 691              	.L24:
 692              		.align	2
 693              	.L23:
 694 0030 00000000 		.word	hspi3
 695 0034 003C0040 		.word	1073757184
 696              		.cfi_endproc
 697              	.LFE569:
 699              		.section	.text.SystemClock_Config,"ax",%progbits
 700              		.align	1
 701              		.global	SystemClock_Config
 702              		.syntax unified
 703              		.thumb
 704              		.thumb_func
 705              		.fpu fpv4-sp-d16
 707              	SystemClock_Config:
 708              	.LFB565:
 157:Src/main.c    ****   RCC_OscInitTypeDef RCC_OscInitStruct = {0};
 709              		.loc 1 157 1 is_stmt 1 view -0
 710              		.cfi_startproc
 711              		@ args = 0, pretend = 0, frame = 80
 712              		@ frame_needed = 0, uses_anonymous_args = 0
 713 0000 30B5     		push	{r4, r5, lr}
 714              	.LCFI10:
 715              		.cfi_def_cfa_offset 12
 716              		.cfi_offset 4, -12
ARM GAS  D:\Temp\ccu84qpn.s 			page 23


 717              		.cfi_offset 5, -8
 718              		.cfi_offset 14, -4
 719 0002 95B0     		sub	sp, sp, #84
 720              	.LCFI11:
 721              		.cfi_def_cfa_offset 96
 158:Src/main.c    ****   RCC_ClkInitTypeDef RCC_ClkInitStruct = {0};
 722              		.loc 1 158 3 view .LVU234
 158:Src/main.c    ****   RCC_ClkInitTypeDef RCC_ClkInitStruct = {0};
 723              		.loc 1 158 22 is_stmt 0 view .LVU235
 724 0004 3022     		movs	r2, #48
 725 0006 0021     		movs	r1, #0
 726 0008 08A8     		add	r0, sp, #32
 727 000a FFF7FEFF 		bl	memset
 728              	.LVL22:
 159:Src/main.c    **** 
 729              		.loc 1 159 3 is_stmt 1 view .LVU236
 159:Src/main.c    **** 
 730              		.loc 1 159 22 is_stmt 0 view .LVU237
 731 000e 0024     		movs	r4, #0
 732 0010 0394     		str	r4, [sp, #12]
 733 0012 0494     		str	r4, [sp, #16]
 734 0014 0594     		str	r4, [sp, #20]
 735 0016 0694     		str	r4, [sp, #24]
 736 0018 0794     		str	r4, [sp, #28]
 163:Src/main.c    ****   __HAL_PWR_VOLTAGESCALING_CONFIG(PWR_REGULATOR_VOLTAGE_SCALE1);
 737              		.loc 1 163 3 is_stmt 1 view .LVU238
 738              	.LBB8:
 163:Src/main.c    ****   __HAL_PWR_VOLTAGESCALING_CONFIG(PWR_REGULATOR_VOLTAGE_SCALE1);
 739              		.loc 1 163 3 view .LVU239
 740 001a 0194     		str	r4, [sp, #4]
 163:Src/main.c    ****   __HAL_PWR_VOLTAGESCALING_CONFIG(PWR_REGULATOR_VOLTAGE_SCALE1);
 741              		.loc 1 163 3 view .LVU240
 742 001c 1C4B     		ldr	r3, .L27
 743 001e 1A6C     		ldr	r2, [r3, #64]
 744 0020 42F08052 		orr	r2, r2, #268435456
 745 0024 1A64     		str	r2, [r3, #64]
 163:Src/main.c    ****   __HAL_PWR_VOLTAGESCALING_CONFIG(PWR_REGULATOR_VOLTAGE_SCALE1);
 746              		.loc 1 163 3 view .LVU241
 747 0026 1B6C     		ldr	r3, [r3, #64]
 748 0028 03F08053 		and	r3, r3, #268435456
 749 002c 0193     		str	r3, [sp, #4]
 163:Src/main.c    ****   __HAL_PWR_VOLTAGESCALING_CONFIG(PWR_REGULATOR_VOLTAGE_SCALE1);
 750              		.loc 1 163 3 view .LVU242
 751 002e 019B     		ldr	r3, [sp, #4]
 752              	.LBE8:
 164:Src/main.c    ****   /** Initializes the CPU, AHB and APB busses clocks 
 753              		.loc 1 164 3 view .LVU243
 754              	.LBB9:
 164:Src/main.c    ****   /** Initializes the CPU, AHB and APB busses clocks 
 755              		.loc 1 164 3 view .LVU244
 756 0030 0294     		str	r4, [sp, #8]
 164:Src/main.c    ****   /** Initializes the CPU, AHB and APB busses clocks 
 757              		.loc 1 164 3 view .LVU245
 758 0032 184B     		ldr	r3, .L27+4
 759 0034 1A68     		ldr	r2, [r3]
 760 0036 42F48042 		orr	r2, r2, #16384
 761 003a 1A60     		str	r2, [r3]
ARM GAS  D:\Temp\ccu84qpn.s 			page 24


 164:Src/main.c    ****   /** Initializes the CPU, AHB and APB busses clocks 
 762              		.loc 1 164 3 view .LVU246
 763 003c 1B68     		ldr	r3, [r3]
 764 003e 03F48043 		and	r3, r3, #16384
 765 0042 0293     		str	r3, [sp, #8]
 164:Src/main.c    ****   /** Initializes the CPU, AHB and APB busses clocks 
 766              		.loc 1 164 3 view .LVU247
 767 0044 029B     		ldr	r3, [sp, #8]
 768              	.LBE9:
 167:Src/main.c    ****   RCC_OscInitStruct.HSEState = RCC_HSE_ON;
 769              		.loc 1 167 3 view .LVU248
 167:Src/main.c    ****   RCC_OscInitStruct.HSEState = RCC_HSE_ON;
 770              		.loc 1 167 36 is_stmt 0 view .LVU249
 771 0046 0123     		movs	r3, #1
 772 0048 0893     		str	r3, [sp, #32]
 168:Src/main.c    ****   RCC_OscInitStruct.PLL.PLLState = RCC_PLL_ON;
 773              		.loc 1 168 3 is_stmt 1 view .LVU250
 168:Src/main.c    ****   RCC_OscInitStruct.PLL.PLLState = RCC_PLL_ON;
 774              		.loc 1 168 30 is_stmt 0 view .LVU251
 775 004a 4FF48033 		mov	r3, #65536
 776 004e 0993     		str	r3, [sp, #36]
 169:Src/main.c    ****   RCC_OscInitStruct.PLL.PLLSource = RCC_PLLSOURCE_HSE;
 777              		.loc 1 169 3 is_stmt 1 view .LVU252
 169:Src/main.c    ****   RCC_OscInitStruct.PLL.PLLSource = RCC_PLLSOURCE_HSE;
 778              		.loc 1 169 34 is_stmt 0 view .LVU253
 779 0050 0225     		movs	r5, #2
 780 0052 0E95     		str	r5, [sp, #56]
 170:Src/main.c    ****   RCC_OscInitStruct.PLL.PLLM = 4;
 781              		.loc 1 170 3 is_stmt 1 view .LVU254
 170:Src/main.c    ****   RCC_OscInitStruct.PLL.PLLM = 4;
 782              		.loc 1 170 35 is_stmt 0 view .LVU255
 783 0054 4FF48003 		mov	r3, #4194304
 784 0058 0F93     		str	r3, [sp, #60]
 171:Src/main.c    ****   RCC_OscInitStruct.PLL.PLLN = 168;
 785              		.loc 1 171 3 is_stmt 1 view .LVU256
 171:Src/main.c    ****   RCC_OscInitStruct.PLL.PLLN = 168;
 786              		.loc 1 171 30 is_stmt 0 view .LVU257
 787 005a 0423     		movs	r3, #4
 788 005c 1093     		str	r3, [sp, #64]
 172:Src/main.c    ****   RCC_OscInitStruct.PLL.PLLP = RCC_PLLP_DIV2;
 789              		.loc 1 172 3 is_stmt 1 view .LVU258
 172:Src/main.c    ****   RCC_OscInitStruct.PLL.PLLP = RCC_PLLP_DIV2;
 790              		.loc 1 172 30 is_stmt 0 view .LVU259
 791 005e A823     		movs	r3, #168
 792 0060 1193     		str	r3, [sp, #68]
 173:Src/main.c    ****   RCC_OscInitStruct.PLL.PLLQ = 7;
 793              		.loc 1 173 3 is_stmt 1 view .LVU260
 173:Src/main.c    ****   RCC_OscInitStruct.PLL.PLLQ = 7;
 794              		.loc 1 173 30 is_stmt 0 view .LVU261
 795 0062 1295     		str	r5, [sp, #72]
 174:Src/main.c    ****   if (HAL_RCC_OscConfig(&RCC_OscInitStruct) != HAL_OK)
 796              		.loc 1 174 3 is_stmt 1 view .LVU262
 174:Src/main.c    ****   if (HAL_RCC_OscConfig(&RCC_OscInitStruct) != HAL_OK)
 797              		.loc 1 174 30 is_stmt 0 view .LVU263
 798 0064 0723     		movs	r3, #7
 799 0066 1393     		str	r3, [sp, #76]
 175:Src/main.c    ****   {
ARM GAS  D:\Temp\ccu84qpn.s 			page 25


 800              		.loc 1 175 3 is_stmt 1 view .LVU264
 175:Src/main.c    ****   {
 801              		.loc 1 175 7 is_stmt 0 view .LVU265
 802 0068 08A8     		add	r0, sp, #32
 803 006a FFF7FEFF 		bl	HAL_RCC_OscConfig
 804              	.LVL23:
 181:Src/main.c    ****                               |RCC_CLOCKTYPE_PCLK1|RCC_CLOCKTYPE_PCLK2;
 805              		.loc 1 181 3 is_stmt 1 view .LVU266
 181:Src/main.c    ****                               |RCC_CLOCKTYPE_PCLK1|RCC_CLOCKTYPE_PCLK2;
 806              		.loc 1 181 31 is_stmt 0 view .LVU267
 807 006e 0F23     		movs	r3, #15
 808 0070 0393     		str	r3, [sp, #12]
 183:Src/main.c    ****   RCC_ClkInitStruct.AHBCLKDivider = RCC_SYSCLK_DIV1;
 809              		.loc 1 183 3 is_stmt 1 view .LVU268
 183:Src/main.c    ****   RCC_ClkInitStruct.AHBCLKDivider = RCC_SYSCLK_DIV1;
 810              		.loc 1 183 34 is_stmt 0 view .LVU269
 811 0072 0495     		str	r5, [sp, #16]
 184:Src/main.c    ****   RCC_ClkInitStruct.APB1CLKDivider = RCC_HCLK_DIV4;
 812              		.loc 1 184 3 is_stmt 1 view .LVU270
 184:Src/main.c    ****   RCC_ClkInitStruct.APB1CLKDivider = RCC_HCLK_DIV4;
 813              		.loc 1 184 35 is_stmt 0 view .LVU271
 814 0074 0594     		str	r4, [sp, #20]
 185:Src/main.c    ****   RCC_ClkInitStruct.APB2CLKDivider = RCC_HCLK_DIV2;
 815              		.loc 1 185 3 is_stmt 1 view .LVU272
 185:Src/main.c    ****   RCC_ClkInitStruct.APB2CLKDivider = RCC_HCLK_DIV2;
 816              		.loc 1 185 36 is_stmt 0 view .LVU273
 817 0076 4FF4A053 		mov	r3, #5120
 818 007a 0693     		str	r3, [sp, #24]
 186:Src/main.c    **** 
 819              		.loc 1 186 3 is_stmt 1 view .LVU274
 186:Src/main.c    **** 
 820              		.loc 1 186 36 is_stmt 0 view .LVU275
 821 007c 4FF48053 		mov	r3, #4096
 822 0080 0793     		str	r3, [sp, #28]
 188:Src/main.c    ****   {
 823              		.loc 1 188 3 is_stmt 1 view .LVU276
 188:Src/main.c    ****   {
 824              		.loc 1 188 7 is_stmt 0 view .LVU277
 825 0082 0521     		movs	r1, #5
 826 0084 03A8     		add	r0, sp, #12
 827 0086 FFF7FEFF 		bl	HAL_RCC_ClockConfig
 828              	.LVL24:
 192:Src/main.c    **** 
 829              		.loc 1 192 1 view .LVU278
 830 008a 15B0     		add	sp, sp, #84
 831              	.LCFI12:
 832              		.cfi_def_cfa_offset 12
 833              		@ sp needed
 834 008c 30BD     		pop	{r4, r5, pc}
 835              	.L28:
 836 008e 00BF     		.align	2
 837              	.L27:
 838 0090 00380240 		.word	1073887232
 839 0094 00700040 		.word	1073770496
 840              		.cfi_endproc
 841              	.LFE565:
 843              		.section	.text.main,"ax",%progbits
ARM GAS  D:\Temp\ccu84qpn.s 			page 26


 844              		.align	1
 845              		.global	main
 846              		.syntax unified
 847              		.thumb
 848              		.thumb_func
 849              		.fpu fpv4-sp-d16
 851              	main:
 852              	.LFB564:
  93:Src/main.c    ****   /* USER CODE BEGIN 1 */
 853              		.loc 1 93 1 is_stmt 1 view -0
 854              		.cfi_startproc
 855              		@ Volatile: function does not return.
 856              		@ args = 0, pretend = 0, frame = 0
 857              		@ frame_needed = 0, uses_anonymous_args = 0
 858 0000 08B5     		push	{r3, lr}
 859              	.LCFI13:
 860              		.cfi_def_cfa_offset 8
 861              		.cfi_offset 3, -8
 862              		.cfi_offset 14, -4
 101:Src/main.c    **** 
 863              		.loc 1 101 3 view .LVU280
 864 0002 FFF7FEFF 		bl	HAL_Init
 865              	.LVL25:
 108:Src/main.c    **** 
 866              		.loc 1 108 3 view .LVU281
 867 0006 FFF7FEFF 		bl	SystemClock_Config
 868              	.LVL26:
 115:Src/main.c    ****   MX_FSMC_Init();
 869              		.loc 1 115 3 view .LVU282
 870 000a FFF7FEFF 		bl	MX_GPIO_Init
 871              	.LVL27:
 116:Src/main.c    ****   MX_RNG_Init();
 872              		.loc 1 116 3 view .LVU283
 873 000e FFF7FEFF 		bl	MX_FSMC_Init
 874              	.LVL28:
 117:Src/main.c    ****   MX_SDIO_SD_Init();
 875              		.loc 1 117 3 view .LVU284
 876 0012 FFF7FEFF 		bl	MX_RNG_Init
 877              	.LVL29:
 118:Src/main.c    ****   MX_SPI2_Init();
 878              		.loc 1 118 3 view .LVU285
 879 0016 FFF7FEFF 		bl	MX_SDIO_SD_Init
 880              	.LVL30:
 119:Src/main.c    ****   MX_USB_DEVICE_Init();
 881              		.loc 1 119 3 view .LVU286
 882 001a FFF7FEFF 		bl	MX_SPI2_Init
 883              	.LVL31:
 120:Src/main.c    ****   MX_SPI3_Init();
 884              		.loc 1 120 3 view .LVU287
 885 001e FFF7FEFF 		bl	MX_USB_DEVICE_Init
 886              	.LVL32:
 121:Src/main.c    ****   /* USER CODE BEGIN 2 */
 887              		.loc 1 121 3 view .LVU288
 888 0022 FFF7FEFF 		bl	MX_SPI3_Init
 889              	.LVL33:
 124:Src/main.c    ****   ILI9341_Init();
 890              		.loc 1 124 3 view .LVU289
ARM GAS  D:\Temp\ccu84qpn.s 			page 27


 891 0026 FFF7FEFF 		bl	lv_init
 892              	.LVL34:
 125:Src/main.c    ****   lv_touchpad_init();
 893              		.loc 1 125 3 view .LVU290
 894 002a FFF7FEFF 		bl	ILI9341_Init
 895              	.LVL35:
 126:Src/main.c    ****   HAL_Delay(100);
 896              		.loc 1 126 3 view .LVU291
 897 002e FFF7FEFF 		bl	lv_touchpad_init
 898              	.LVL36:
 127:Src/main.c    ****   //lv_demo_benchmark();
 899              		.loc 1 127 3 view .LVU292
 900 0032 6420     		movs	r0, #100
 901 0034 FFF7FEFF 		bl	HAL_Delay
 902              	.LVL37:
 129:Src/main.c    ****   /* USER CODE END 2 */
 903              		.loc 1 129 4 view .LVU293
 904 0038 FFF7FEFF 		bl	lv_demo_widgets
 905              	.LVL38:
 906              	.L30:
 134:Src/main.c    ****   {
 907              		.loc 1 134 3 discriminator 1 view .LVU294
 142:Src/main.c    **** HAL_Delay(5);
 908              		.loc 1 142 1 discriminator 1 view .LVU295
 909 003c FFF7FEFF 		bl	lv_task_handler
 910              	.LVL39:
 143:Src/main.c    ****     /* USER CODE END WHILE */
 911              		.loc 1 143 1 discriminator 1 view .LVU296
 912 0040 0520     		movs	r0, #5
 913 0042 FFF7FEFF 		bl	HAL_Delay
 914              	.LVL40:
 915 0046 F9E7     		b	.L30
 916              		.cfi_endproc
 917              	.LFE564:
 919              		.section	.text.HAL_GPIO_EXTI_Callback,"ax",%progbits
 920              		.align	1
 921              		.global	HAL_GPIO_EXTI_Callback
 922              		.syntax unified
 923              		.thumb
 924              		.thumb_func
 925              		.fpu fpv4-sp-d16
 927              	HAL_GPIO_EXTI_Callback:
 928              	.LVL41:
 929              	.LFB572:
 469:Src/main.c    **** 
 470:Src/main.c    **** /* USER CODE BEGIN 4 */
 471:Src/main.c    **** 
 472:Src/main.c    **** 
 473:Src/main.c    **** void HAL_GPIO_EXTI_Callback(uint16_t GPIO_Pin)
 474:Src/main.c    **** 
 475:Src/main.c    **** {
 930              		.loc 1 475 1 view -0
 931              		.cfi_startproc
 932              		@ args = 0, pretend = 0, frame = 0
 933              		@ frame_needed = 0, uses_anonymous_args = 0
 476:Src/main.c    ****   switch(GPIO_Pin)
 934              		.loc 1 476 3 view .LVU298
ARM GAS  D:\Temp\ccu84qpn.s 			page 28


 935 0000 2028     		cmp	r0, #32
 936 0002 01D0     		beq	.L39
 477:Src/main.c    ****   {
 478:Src/main.c    ****     case TS_IRQ_Pin:
 479:Src/main.c    ****         
 480:Src/main.c    **** 
 481:Src/main.c    ****          if(xpt2046_getXY(&x, &y))
 482:Src/main.c    ****          {
 483:Src/main.c    ****            //lv_task_handler();                   
 484:Src/main.c    ****                   
 485:Src/main.c    ****          }
 486:Src/main.c    ****          lv_task_handler();
 487:Src/main.c    ****       
 488:Src/main.c    ****     
 489:Src/main.c    ****     break;
 490:Src/main.c    **** 
 491:Src/main.c    ****     default:
 492:Src/main.c    ****     __NOP();
 937              		.loc 1 492 5 view .LVU299
 938              		.syntax unified
 939              	@ 492 "Src/main.c" 1
 940 0004 00BF     		nop
 941              	@ 0 "" 2
 942              		.thumb
 943              		.syntax unified
 944 0006 7047     		bx	lr
 945              	.L39:
 475:Src/main.c    ****   switch(GPIO_Pin)
 946              		.loc 1 475 1 is_stmt 0 view .LVU300
 947 0008 08B5     		push	{r3, lr}
 948              	.LCFI14:
 949              		.cfi_def_cfa_offset 8
 950              		.cfi_offset 3, -8
 951              		.cfi_offset 14, -4
 481:Src/main.c    ****          {
 952              		.loc 1 481 10 is_stmt 1 view .LVU301
 481:Src/main.c    ****          {
 953              		.loc 1 481 13 is_stmt 0 view .LVU302
 954 000a 0349     		ldr	r1, .L40
 955 000c 0348     		ldr	r0, .L40+4
 956              	.LVL42:
 481:Src/main.c    ****          {
 957              		.loc 1 481 13 view .LVU303
 958 000e FFF7FEFF 		bl	xpt2046_getXY
 959              	.LVL43:
 485:Src/main.c    ****          lv_task_handler();
 960              		.loc 1 485 10 is_stmt 1 view .LVU304
 486:Src/main.c    ****       
 961              		.loc 1 486 10 view .LVU305
 962 0012 FFF7FEFF 		bl	lv_task_handler
 963              	.LVL44:
 489:Src/main.c    **** 
 964              		.loc 1 489 5 view .LVU306
 493:Src/main.c    **** 
 494:Src/main.c    ****   }
 495:Src/main.c    **** 
 496:Src/main.c    **** 
ARM GAS  D:\Temp\ccu84qpn.s 			page 29


 497:Src/main.c    **** }
 965              		.loc 1 497 1 is_stmt 0 view .LVU307
 966 0016 08BD     		pop	{r3, pc}
 967              	.L41:
 968              		.align	2
 969              	.L40:
 970 0018 00000000 		.word	.LANCHOR0
 971 001c 00000000 		.word	.LANCHOR1
 972              		.cfi_endproc
 973              	.LFE572:
 975              		.section	.text.Error_Handler,"ax",%progbits
 976              		.align	1
 977              		.global	Error_Handler
 978              		.syntax unified
 979              		.thumb
 980              		.thumb_func
 981              		.fpu fpv4-sp-d16
 983              	Error_Handler:
 984              	.LFB573:
 498:Src/main.c    **** /* USER CODE END 4 */
 499:Src/main.c    **** 
 500:Src/main.c    **** /**
 501:Src/main.c    ****   * @brief  This function is executed in case of error occurrence.
 502:Src/main.c    ****   * @retval None
 503:Src/main.c    ****   */
 504:Src/main.c    **** void Error_Handler(void)
 505:Src/main.c    **** {
 985              		.loc 1 505 1 is_stmt 1 view -0
 986              		.cfi_startproc
 987              		@ args = 0, pretend = 0, frame = 0
 988              		@ frame_needed = 0, uses_anonymous_args = 0
 989              		@ link register save eliminated.
 506:Src/main.c    ****   /* USER CODE BEGIN Error_Handler_Debug */
 507:Src/main.c    ****   /* User can add his own implementation to report the HAL error return state */
 508:Src/main.c    **** 
 509:Src/main.c    ****   /* USER CODE END Error_Handler_Debug */
 510:Src/main.c    **** }
 990              		.loc 1 510 1 view .LVU309
 991 0000 7047     		bx	lr
 992              		.cfi_endproc
 993              	.LFE573:
 995              		.global	y
 996              		.global	x
 997              		.comm	hdma_memtomem_dma2_stream0,96,4
 998              		.comm	hsram1,80,4
 999              		.comm	hspi3,88,4
 1000              		.comm	hspi2,88,4
 1001              		.comm	hsd,132,4
 1002              		.comm	hrng,16,4
 1003              		.section	.bss.x,"aw",%nobits
 1004              		.align	1
 1005              		.set	.LANCHOR1,. + 0
 1008              	x:
 1009 0000 0000     		.space	2
 1010              		.section	.bss.y,"aw",%nobits
 1011              		.align	1
 1012              		.set	.LANCHOR0,. + 0
ARM GAS  D:\Temp\ccu84qpn.s 			page 30


 1015              	y:
 1016 0000 0000     		.space	2
 1017              		.text
 1018              	.Letext0:
 1019              		.file 2 "c:\\stm32\\gnu mcu eclipse\\arm embedded gcc\\8.2.1-1.4-20190214-0604\\arm-none-eabi\\inc
 1020              		.file 3 "c:\\stm32\\gnu mcu eclipse\\arm embedded gcc\\8.2.1-1.4-20190214-0604\\arm-none-eabi\\inc
 1021              		.file 4 "Drivers/CMSIS/Include/core_cm4.h"
 1022              		.file 5 "Drivers/CMSIS/Device/ST/STM32F4xx/Include/system_stm32f4xx.h"
 1023              		.file 6 "Drivers/CMSIS/Device/ST/STM32F4xx/Include/stm32f407xx.h"
 1024              		.file 7 "Drivers/STM32F4xx_HAL_Driver/Inc/stm32f4xx_hal_def.h"
 1025              		.file 8 "Drivers/STM32F4xx_HAL_Driver/Inc/stm32f4xx_hal_rcc_ex.h"
 1026              		.file 9 "Drivers/STM32F4xx_HAL_Driver/Inc/stm32f4xx_hal_rcc.h"
 1027              		.file 10 "Drivers/STM32F4xx_HAL_Driver/Inc/stm32f4xx_hal_gpio.h"
 1028              		.file 11 "Drivers/STM32F4xx_HAL_Driver/Inc/stm32f4xx_hal_dma.h"
 1029              		.file 12 "Drivers/STM32F4xx_HAL_Driver/Inc/stm32f4xx_ll_fsmc.h"
 1030              		.file 13 "Drivers/STM32F4xx_HAL_Driver/Inc/stm32f4xx_hal_sram.h"
 1031              		.file 14 "Drivers/STM32F4xx_HAL_Driver/Inc/stm32f4xx_hal_rng.h"
 1032              		.file 15 "Drivers/STM32F4xx_HAL_Driver/Inc/stm32f4xx_ll_sdmmc.h"
 1033              		.file 16 "Drivers/STM32F4xx_HAL_Driver/Inc/stm32f4xx_hal_sd.h"
 1034              		.file 17 "Drivers/STM32F4xx_HAL_Driver/Inc/stm32f4xx_hal_spi.h"
 1035              		.file 18 "Drivers/STM32F4xx_HAL_Driver/Inc/stm32f4xx_hal.h"
 1036              		.file 19 "c:\\stm32\\gnu mcu eclipse\\arm embedded gcc\\8.2.1-1.4-20190214-0604\\arm-none-eabi\\in
 1037              		.file 20 "c:\\stm32\\gnu mcu eclipse\\arm embedded gcc\\8.2.1-1.4-20190214-0604\\arm-none-eabi\\in
 1038              		.file 21 "c:\\stm32\\gnu mcu eclipse\\arm embedded gcc\\8.2.1-1.4-20190214-0604\\lib\\gcc\\arm-non
 1039              		.file 22 "c:\\stm32\\gnu mcu eclipse\\arm embedded gcc\\8.2.1-1.4-20190214-0604\\arm-none-eabi\\in
 1040              		.file 23 "c:\\stm32\\gnu mcu eclipse\\arm embedded gcc\\8.2.1-1.4-20190214-0604\\arm-none-eabi\\in
 1041              		.file 24 "Drivers/LCD/ILI9341/ILI9341_GFX.h"
 1042              		.file 25 "lvgl/lv_conf.h"
 1043              		.file 26 "Src/../lvgl/src/lv_misc/lv_mem.h"
 1044              		.file 27 "Src/../lvgl/src/lv_core/../lv_font/lv_font.h"
 1045              		.file 28 "Src/../lvgl/src/lv_core/../lv_misc/lv_anim.h"
 1046              		.file 29 "Src/../lvgl/src/lv_core/../lv_draw/../lv_misc/lv_txt.h"
 1047              		.file 30 "Src/../lvgl/src/lv_core/../lv_draw/lv_draw_label.h"
 1048              		.file 31 "Src/../lvgl/src/lv_core/lv_obj.h"
 1049              		.file 32 "Src/../lvgl/src/lv_widgets/lv_cont.h"
 1050              		.file 33 "Src/../lvgl/src/lv_widgets/lv_btn.h"
 1051              		.file 34 "Src/../lvgl/src/lv_widgets/lv_page.h"
 1052              		.file 35 "Src/../lvgl/src/lv_widgets/lv_chart.h"
 1053              		.file 36 "Src/../lvgl/src/lv_widgets/lv_bar.h"
 1054              		.file 37 "Src/../lvgl/src/lv_widgets/lv_textarea.h"
 1055              		.file 38 "Src/../lvgl/src/lv_widgets/lv_linemeter.h"
 1056              		.file 39 "Src/../lvgl/src/lv_widgets/lv_arc.h"
 1057              		.file 40 "Drivers/TS/Inc/XPT2046_lv.h"
 1058              		.file 41 "Src/../lvgl/src/lv_misc/lv_task.h"
 1059              		.file 42 "Drivers/STM32F4xx_HAL_Driver/Inc/stm32f4xx_hal_cortex.h"
 1060              		.file 43 "Inc/usb_device.h"
 1061              		.file 44 "Drivers/LCD/ILI9341/ILI9341_STM32_Driver.h"
 1062              		.file 45 "Drivers/TS/Inc/touchpad.h"
 1063              		.file 46 "Src/../lv_examples/src/lv_demo_widgets/lv_demo_widgets.h"
 1064              		.file 47 "<built-in>"
ARM GAS  D:\Temp\ccu84qpn.s 			page 31

