ARM GAS  D:\Temp\cclqlYRL.s 			page 1


   1              		.cpu cortex-m4
   2              		.eabi_attribute 27, 1
   3              		.eabi_attribute 28, 1
   4              		.eabi_attribute 20, 1
   5              		.eabi_attribute 21, 1
   6              		.eabi_attribute 23, 3
   7              		.eabi_attribute 24, 1
   8              		.eabi_attribute 25, 1
   9              		.eabi_attribute 26, 1
  10              		.eabi_attribute 30, 1
  11              		.eabi_attribute 34, 1
  12              		.eabi_attribute 18, 4
  13              		.file	"usbd_msc_scsi.c"
  14              		.text
  15              	.Ltext0:
  16              		.cfi_sections	.debug_frame
  17              		.section	.text.SCSI_AllowPreventRemovable,"ax",%progbits
  18              		.align	1
  19              		.arch armv7e-m
  20              		.syntax unified
  21              		.thumb
  22              		.thumb_func
  23              		.fpu fpv4-sp-d16
  25              	SCSI_AllowPreventRemovable:
  26              	.LVL0:
  27              	.LFB145:
  28              		.file 1 "Middlewares/ST/STM32_USB_Device_Library/Class/MSC/Src/usbd_msc_scsi.c"
   1:Middlewares/ST/STM32_USB_Device_Library/Class/MSC/Src/usbd_msc_scsi.c **** /**
   2:Middlewares/ST/STM32_USB_Device_Library/Class/MSC/Src/usbd_msc_scsi.c ****   ******************************************************************************
   3:Middlewares/ST/STM32_USB_Device_Library/Class/MSC/Src/usbd_msc_scsi.c ****   * @file    usbd_msc_scsi.c
   4:Middlewares/ST/STM32_USB_Device_Library/Class/MSC/Src/usbd_msc_scsi.c ****   * @author  MCD Application Team
   5:Middlewares/ST/STM32_USB_Device_Library/Class/MSC/Src/usbd_msc_scsi.c ****   * @brief   This file provides all the USBD SCSI layer functions.
   6:Middlewares/ST/STM32_USB_Device_Library/Class/MSC/Src/usbd_msc_scsi.c ****   ******************************************************************************
   7:Middlewares/ST/STM32_USB_Device_Library/Class/MSC/Src/usbd_msc_scsi.c ****   * @attention
   8:Middlewares/ST/STM32_USB_Device_Library/Class/MSC/Src/usbd_msc_scsi.c ****   *
   9:Middlewares/ST/STM32_USB_Device_Library/Class/MSC/Src/usbd_msc_scsi.c ****   * <h2><center>&copy; Copyright (c) 2015 STMicroelectronics.
  10:Middlewares/ST/STM32_USB_Device_Library/Class/MSC/Src/usbd_msc_scsi.c ****   * All rights reserved.</center></h2>
  11:Middlewares/ST/STM32_USB_Device_Library/Class/MSC/Src/usbd_msc_scsi.c ****   *
  12:Middlewares/ST/STM32_USB_Device_Library/Class/MSC/Src/usbd_msc_scsi.c ****   * This software component is licensed by ST under Ultimate Liberty license
  13:Middlewares/ST/STM32_USB_Device_Library/Class/MSC/Src/usbd_msc_scsi.c ****   * SLA0044, the "License"; You may not use this file except in compliance with
  14:Middlewares/ST/STM32_USB_Device_Library/Class/MSC/Src/usbd_msc_scsi.c ****   * the License. You may obtain a copy of the License at:
  15:Middlewares/ST/STM32_USB_Device_Library/Class/MSC/Src/usbd_msc_scsi.c ****   *                      www.st.com/SLA0044
  16:Middlewares/ST/STM32_USB_Device_Library/Class/MSC/Src/usbd_msc_scsi.c ****   *
  17:Middlewares/ST/STM32_USB_Device_Library/Class/MSC/Src/usbd_msc_scsi.c ****   ******************************************************************************
  18:Middlewares/ST/STM32_USB_Device_Library/Class/MSC/Src/usbd_msc_scsi.c ****   */
  19:Middlewares/ST/STM32_USB_Device_Library/Class/MSC/Src/usbd_msc_scsi.c **** 
  20:Middlewares/ST/STM32_USB_Device_Library/Class/MSC/Src/usbd_msc_scsi.c **** /* BSPDependencies
  21:Middlewares/ST/STM32_USB_Device_Library/Class/MSC/Src/usbd_msc_scsi.c **** - "stm32xxxxx_{eval}{discovery}{nucleo_144}.c"
  22:Middlewares/ST/STM32_USB_Device_Library/Class/MSC/Src/usbd_msc_scsi.c **** - "stm32xxxxx_{eval}{discovery}_io.c"
  23:Middlewares/ST/STM32_USB_Device_Library/Class/MSC/Src/usbd_msc_scsi.c **** - "stm32xxxxx_{eval}{discovery}{adafruit}_sd.c"
  24:Middlewares/ST/STM32_USB_Device_Library/Class/MSC/Src/usbd_msc_scsi.c **** EndBSPDependencies */
  25:Middlewares/ST/STM32_USB_Device_Library/Class/MSC/Src/usbd_msc_scsi.c **** 
  26:Middlewares/ST/STM32_USB_Device_Library/Class/MSC/Src/usbd_msc_scsi.c **** /* Includes ------------------------------------------------------------------*/
  27:Middlewares/ST/STM32_USB_Device_Library/Class/MSC/Src/usbd_msc_scsi.c **** #include "usbd_msc_bot.h"
  28:Middlewares/ST/STM32_USB_Device_Library/Class/MSC/Src/usbd_msc_scsi.c **** #include "usbd_msc_scsi.h"
  29:Middlewares/ST/STM32_USB_Device_Library/Class/MSC/Src/usbd_msc_scsi.c **** #include "usbd_msc.h"
  30:Middlewares/ST/STM32_USB_Device_Library/Class/MSC/Src/usbd_msc_scsi.c **** #include "usbd_msc_data.h"
ARM GAS  D:\Temp\cclqlYRL.s 			page 2


  31:Middlewares/ST/STM32_USB_Device_Library/Class/MSC/Src/usbd_msc_scsi.c **** 
  32:Middlewares/ST/STM32_USB_Device_Library/Class/MSC/Src/usbd_msc_scsi.c **** 
  33:Middlewares/ST/STM32_USB_Device_Library/Class/MSC/Src/usbd_msc_scsi.c **** /** @addtogroup STM32_USB_DEVICE_LIBRARY
  34:Middlewares/ST/STM32_USB_Device_Library/Class/MSC/Src/usbd_msc_scsi.c ****   * @{
  35:Middlewares/ST/STM32_USB_Device_Library/Class/MSC/Src/usbd_msc_scsi.c ****   */
  36:Middlewares/ST/STM32_USB_Device_Library/Class/MSC/Src/usbd_msc_scsi.c **** 
  37:Middlewares/ST/STM32_USB_Device_Library/Class/MSC/Src/usbd_msc_scsi.c **** 
  38:Middlewares/ST/STM32_USB_Device_Library/Class/MSC/Src/usbd_msc_scsi.c **** /** @defgroup MSC_SCSI
  39:Middlewares/ST/STM32_USB_Device_Library/Class/MSC/Src/usbd_msc_scsi.c ****   * @brief Mass storage SCSI layer module
  40:Middlewares/ST/STM32_USB_Device_Library/Class/MSC/Src/usbd_msc_scsi.c ****   * @{
  41:Middlewares/ST/STM32_USB_Device_Library/Class/MSC/Src/usbd_msc_scsi.c ****   */
  42:Middlewares/ST/STM32_USB_Device_Library/Class/MSC/Src/usbd_msc_scsi.c **** 
  43:Middlewares/ST/STM32_USB_Device_Library/Class/MSC/Src/usbd_msc_scsi.c **** /** @defgroup MSC_SCSI_Private_TypesDefinitions
  44:Middlewares/ST/STM32_USB_Device_Library/Class/MSC/Src/usbd_msc_scsi.c ****   * @{
  45:Middlewares/ST/STM32_USB_Device_Library/Class/MSC/Src/usbd_msc_scsi.c ****   */
  46:Middlewares/ST/STM32_USB_Device_Library/Class/MSC/Src/usbd_msc_scsi.c **** /**
  47:Middlewares/ST/STM32_USB_Device_Library/Class/MSC/Src/usbd_msc_scsi.c ****   * @}
  48:Middlewares/ST/STM32_USB_Device_Library/Class/MSC/Src/usbd_msc_scsi.c ****   */
  49:Middlewares/ST/STM32_USB_Device_Library/Class/MSC/Src/usbd_msc_scsi.c **** 
  50:Middlewares/ST/STM32_USB_Device_Library/Class/MSC/Src/usbd_msc_scsi.c **** 
  51:Middlewares/ST/STM32_USB_Device_Library/Class/MSC/Src/usbd_msc_scsi.c **** /** @defgroup MSC_SCSI_Private_Defines
  52:Middlewares/ST/STM32_USB_Device_Library/Class/MSC/Src/usbd_msc_scsi.c ****   * @{
  53:Middlewares/ST/STM32_USB_Device_Library/Class/MSC/Src/usbd_msc_scsi.c ****   */
  54:Middlewares/ST/STM32_USB_Device_Library/Class/MSC/Src/usbd_msc_scsi.c **** 
  55:Middlewares/ST/STM32_USB_Device_Library/Class/MSC/Src/usbd_msc_scsi.c **** /**
  56:Middlewares/ST/STM32_USB_Device_Library/Class/MSC/Src/usbd_msc_scsi.c ****   * @}
  57:Middlewares/ST/STM32_USB_Device_Library/Class/MSC/Src/usbd_msc_scsi.c ****   */
  58:Middlewares/ST/STM32_USB_Device_Library/Class/MSC/Src/usbd_msc_scsi.c **** 
  59:Middlewares/ST/STM32_USB_Device_Library/Class/MSC/Src/usbd_msc_scsi.c **** 
  60:Middlewares/ST/STM32_USB_Device_Library/Class/MSC/Src/usbd_msc_scsi.c **** /** @defgroup MSC_SCSI_Private_Macros
  61:Middlewares/ST/STM32_USB_Device_Library/Class/MSC/Src/usbd_msc_scsi.c ****   * @{
  62:Middlewares/ST/STM32_USB_Device_Library/Class/MSC/Src/usbd_msc_scsi.c ****   */
  63:Middlewares/ST/STM32_USB_Device_Library/Class/MSC/Src/usbd_msc_scsi.c **** /**
  64:Middlewares/ST/STM32_USB_Device_Library/Class/MSC/Src/usbd_msc_scsi.c ****   * @}
  65:Middlewares/ST/STM32_USB_Device_Library/Class/MSC/Src/usbd_msc_scsi.c ****   */
  66:Middlewares/ST/STM32_USB_Device_Library/Class/MSC/Src/usbd_msc_scsi.c **** 
  67:Middlewares/ST/STM32_USB_Device_Library/Class/MSC/Src/usbd_msc_scsi.c **** 
  68:Middlewares/ST/STM32_USB_Device_Library/Class/MSC/Src/usbd_msc_scsi.c **** /** @defgroup MSC_SCSI_Private_Variables
  69:Middlewares/ST/STM32_USB_Device_Library/Class/MSC/Src/usbd_msc_scsi.c ****   * @{
  70:Middlewares/ST/STM32_USB_Device_Library/Class/MSC/Src/usbd_msc_scsi.c ****   */
  71:Middlewares/ST/STM32_USB_Device_Library/Class/MSC/Src/usbd_msc_scsi.c **** 
  72:Middlewares/ST/STM32_USB_Device_Library/Class/MSC/Src/usbd_msc_scsi.c **** /**
  73:Middlewares/ST/STM32_USB_Device_Library/Class/MSC/Src/usbd_msc_scsi.c ****   * @}
  74:Middlewares/ST/STM32_USB_Device_Library/Class/MSC/Src/usbd_msc_scsi.c ****   */
  75:Middlewares/ST/STM32_USB_Device_Library/Class/MSC/Src/usbd_msc_scsi.c **** 
  76:Middlewares/ST/STM32_USB_Device_Library/Class/MSC/Src/usbd_msc_scsi.c **** 
  77:Middlewares/ST/STM32_USB_Device_Library/Class/MSC/Src/usbd_msc_scsi.c **** /** @defgroup MSC_SCSI_Private_FunctionPrototypes
  78:Middlewares/ST/STM32_USB_Device_Library/Class/MSC/Src/usbd_msc_scsi.c ****   * @{
  79:Middlewares/ST/STM32_USB_Device_Library/Class/MSC/Src/usbd_msc_scsi.c ****   */
  80:Middlewares/ST/STM32_USB_Device_Library/Class/MSC/Src/usbd_msc_scsi.c **** static int8_t SCSI_TestUnitReady(USBD_HandleTypeDef *pdev, uint8_t lun, uint8_t *params);
  81:Middlewares/ST/STM32_USB_Device_Library/Class/MSC/Src/usbd_msc_scsi.c **** static int8_t SCSI_Inquiry(USBD_HandleTypeDef *pdev, uint8_t lun, uint8_t *params);
  82:Middlewares/ST/STM32_USB_Device_Library/Class/MSC/Src/usbd_msc_scsi.c **** static int8_t SCSI_ReadFormatCapacity(USBD_HandleTypeDef *pdev, uint8_t lun, uint8_t *params);
  83:Middlewares/ST/STM32_USB_Device_Library/Class/MSC/Src/usbd_msc_scsi.c **** static int8_t SCSI_ReadCapacity10(USBD_HandleTypeDef *pdev, uint8_t lun, uint8_t *params);
  84:Middlewares/ST/STM32_USB_Device_Library/Class/MSC/Src/usbd_msc_scsi.c **** static int8_t SCSI_ReadCapacity16(USBD_HandleTypeDef *pdev, uint8_t lun, uint8_t *params);
  85:Middlewares/ST/STM32_USB_Device_Library/Class/MSC/Src/usbd_msc_scsi.c **** static int8_t SCSI_RequestSense(USBD_HandleTypeDef *pdev, uint8_t lun, uint8_t *params);
  86:Middlewares/ST/STM32_USB_Device_Library/Class/MSC/Src/usbd_msc_scsi.c **** static int8_t SCSI_StartStopUnit(USBD_HandleTypeDef *pdev, uint8_t lun, uint8_t *params);
  87:Middlewares/ST/STM32_USB_Device_Library/Class/MSC/Src/usbd_msc_scsi.c **** static int8_t SCSI_AllowPreventRemovable(USBD_HandleTypeDef *pdev, uint8_t lun, uint8_t *params);
ARM GAS  D:\Temp\cclqlYRL.s 			page 3


  88:Middlewares/ST/STM32_USB_Device_Library/Class/MSC/Src/usbd_msc_scsi.c **** static int8_t SCSI_ModeSense6(USBD_HandleTypeDef *pdev, uint8_t lun, uint8_t *params);
  89:Middlewares/ST/STM32_USB_Device_Library/Class/MSC/Src/usbd_msc_scsi.c **** static int8_t SCSI_ModeSense10(USBD_HandleTypeDef *pdev, uint8_t lun, uint8_t *params);
  90:Middlewares/ST/STM32_USB_Device_Library/Class/MSC/Src/usbd_msc_scsi.c **** static int8_t SCSI_Write10(USBD_HandleTypeDef *pdev, uint8_t lun, uint8_t *params);
  91:Middlewares/ST/STM32_USB_Device_Library/Class/MSC/Src/usbd_msc_scsi.c **** static int8_t SCSI_Write12(USBD_HandleTypeDef *pdev, uint8_t lun, uint8_t *params);
  92:Middlewares/ST/STM32_USB_Device_Library/Class/MSC/Src/usbd_msc_scsi.c **** static int8_t SCSI_Read10(USBD_HandleTypeDef *pdev, uint8_t lun, uint8_t *params);
  93:Middlewares/ST/STM32_USB_Device_Library/Class/MSC/Src/usbd_msc_scsi.c **** static int8_t SCSI_Read12(USBD_HandleTypeDef *pdev, uint8_t lun, uint8_t *params);
  94:Middlewares/ST/STM32_USB_Device_Library/Class/MSC/Src/usbd_msc_scsi.c **** static int8_t SCSI_Verify10(USBD_HandleTypeDef *pdev, uint8_t lun, uint8_t *params);
  95:Middlewares/ST/STM32_USB_Device_Library/Class/MSC/Src/usbd_msc_scsi.c **** static int8_t SCSI_CheckAddressRange(USBD_HandleTypeDef *pdev, uint8_t lun,
  96:Middlewares/ST/STM32_USB_Device_Library/Class/MSC/Src/usbd_msc_scsi.c ****                                      uint32_t blk_offset, uint32_t blk_nbr);
  97:Middlewares/ST/STM32_USB_Device_Library/Class/MSC/Src/usbd_msc_scsi.c **** 
  98:Middlewares/ST/STM32_USB_Device_Library/Class/MSC/Src/usbd_msc_scsi.c **** static int8_t SCSI_ProcessRead(USBD_HandleTypeDef *pdev, uint8_t lun);
  99:Middlewares/ST/STM32_USB_Device_Library/Class/MSC/Src/usbd_msc_scsi.c **** static int8_t SCSI_ProcessWrite(USBD_HandleTypeDef *pdev, uint8_t lun);
 100:Middlewares/ST/STM32_USB_Device_Library/Class/MSC/Src/usbd_msc_scsi.c **** 
 101:Middlewares/ST/STM32_USB_Device_Library/Class/MSC/Src/usbd_msc_scsi.c **** static int8_t SCSI_UpdateBotData(USBD_MSC_BOT_HandleTypeDef *hmsc,
 102:Middlewares/ST/STM32_USB_Device_Library/Class/MSC/Src/usbd_msc_scsi.c ****                                  uint8_t *pBuff, uint16_t length);
 103:Middlewares/ST/STM32_USB_Device_Library/Class/MSC/Src/usbd_msc_scsi.c **** /**
 104:Middlewares/ST/STM32_USB_Device_Library/Class/MSC/Src/usbd_msc_scsi.c ****   * @}
 105:Middlewares/ST/STM32_USB_Device_Library/Class/MSC/Src/usbd_msc_scsi.c ****   */
 106:Middlewares/ST/STM32_USB_Device_Library/Class/MSC/Src/usbd_msc_scsi.c **** 
 107:Middlewares/ST/STM32_USB_Device_Library/Class/MSC/Src/usbd_msc_scsi.c **** 
 108:Middlewares/ST/STM32_USB_Device_Library/Class/MSC/Src/usbd_msc_scsi.c **** /** @defgroup MSC_SCSI_Private_Functions
 109:Middlewares/ST/STM32_USB_Device_Library/Class/MSC/Src/usbd_msc_scsi.c ****   * @{
 110:Middlewares/ST/STM32_USB_Device_Library/Class/MSC/Src/usbd_msc_scsi.c ****   */
 111:Middlewares/ST/STM32_USB_Device_Library/Class/MSC/Src/usbd_msc_scsi.c **** 
 112:Middlewares/ST/STM32_USB_Device_Library/Class/MSC/Src/usbd_msc_scsi.c **** 
 113:Middlewares/ST/STM32_USB_Device_Library/Class/MSC/Src/usbd_msc_scsi.c **** /**
 114:Middlewares/ST/STM32_USB_Device_Library/Class/MSC/Src/usbd_msc_scsi.c **** * @brief  SCSI_ProcessCmd
 115:Middlewares/ST/STM32_USB_Device_Library/Class/MSC/Src/usbd_msc_scsi.c **** *         Process SCSI commands
 116:Middlewares/ST/STM32_USB_Device_Library/Class/MSC/Src/usbd_msc_scsi.c **** * @param  pdev: device instance
 117:Middlewares/ST/STM32_USB_Device_Library/Class/MSC/Src/usbd_msc_scsi.c **** * @param  lun: Logical unit number
 118:Middlewares/ST/STM32_USB_Device_Library/Class/MSC/Src/usbd_msc_scsi.c **** * @param  params: Command parameters
 119:Middlewares/ST/STM32_USB_Device_Library/Class/MSC/Src/usbd_msc_scsi.c **** * @retval status
 120:Middlewares/ST/STM32_USB_Device_Library/Class/MSC/Src/usbd_msc_scsi.c **** */
 121:Middlewares/ST/STM32_USB_Device_Library/Class/MSC/Src/usbd_msc_scsi.c **** int8_t SCSI_ProcessCmd(USBD_HandleTypeDef *pdev, uint8_t lun, uint8_t *cmd)
 122:Middlewares/ST/STM32_USB_Device_Library/Class/MSC/Src/usbd_msc_scsi.c **** {
 123:Middlewares/ST/STM32_USB_Device_Library/Class/MSC/Src/usbd_msc_scsi.c ****   int8_t ret;
 124:Middlewares/ST/STM32_USB_Device_Library/Class/MSC/Src/usbd_msc_scsi.c ****   USBD_MSC_BOT_HandleTypeDef *hmsc = (USBD_MSC_BOT_HandleTypeDef *)pdev->pClassData;
 125:Middlewares/ST/STM32_USB_Device_Library/Class/MSC/Src/usbd_msc_scsi.c **** 
 126:Middlewares/ST/STM32_USB_Device_Library/Class/MSC/Src/usbd_msc_scsi.c ****   switch (cmd[0])
 127:Middlewares/ST/STM32_USB_Device_Library/Class/MSC/Src/usbd_msc_scsi.c ****   {
 128:Middlewares/ST/STM32_USB_Device_Library/Class/MSC/Src/usbd_msc_scsi.c ****   case SCSI_TEST_UNIT_READY:
 129:Middlewares/ST/STM32_USB_Device_Library/Class/MSC/Src/usbd_msc_scsi.c ****     ret = SCSI_TestUnitReady(pdev, lun, cmd);
 130:Middlewares/ST/STM32_USB_Device_Library/Class/MSC/Src/usbd_msc_scsi.c ****     break;
 131:Middlewares/ST/STM32_USB_Device_Library/Class/MSC/Src/usbd_msc_scsi.c **** 
 132:Middlewares/ST/STM32_USB_Device_Library/Class/MSC/Src/usbd_msc_scsi.c ****   case SCSI_REQUEST_SENSE:
 133:Middlewares/ST/STM32_USB_Device_Library/Class/MSC/Src/usbd_msc_scsi.c ****     ret = SCSI_RequestSense(pdev, lun, cmd);
 134:Middlewares/ST/STM32_USB_Device_Library/Class/MSC/Src/usbd_msc_scsi.c ****     break;
 135:Middlewares/ST/STM32_USB_Device_Library/Class/MSC/Src/usbd_msc_scsi.c **** 
 136:Middlewares/ST/STM32_USB_Device_Library/Class/MSC/Src/usbd_msc_scsi.c ****   case SCSI_INQUIRY:
 137:Middlewares/ST/STM32_USB_Device_Library/Class/MSC/Src/usbd_msc_scsi.c ****     ret = SCSI_Inquiry(pdev, lun, cmd);
 138:Middlewares/ST/STM32_USB_Device_Library/Class/MSC/Src/usbd_msc_scsi.c ****     break;
 139:Middlewares/ST/STM32_USB_Device_Library/Class/MSC/Src/usbd_msc_scsi.c **** 
 140:Middlewares/ST/STM32_USB_Device_Library/Class/MSC/Src/usbd_msc_scsi.c ****   case SCSI_START_STOP_UNIT:
 141:Middlewares/ST/STM32_USB_Device_Library/Class/MSC/Src/usbd_msc_scsi.c ****     ret = SCSI_StartStopUnit(pdev, lun, cmd);
 142:Middlewares/ST/STM32_USB_Device_Library/Class/MSC/Src/usbd_msc_scsi.c ****     break;
 143:Middlewares/ST/STM32_USB_Device_Library/Class/MSC/Src/usbd_msc_scsi.c **** 
 144:Middlewares/ST/STM32_USB_Device_Library/Class/MSC/Src/usbd_msc_scsi.c ****   case SCSI_ALLOW_MEDIUM_REMOVAL:
ARM GAS  D:\Temp\cclqlYRL.s 			page 4


 145:Middlewares/ST/STM32_USB_Device_Library/Class/MSC/Src/usbd_msc_scsi.c ****     ret = SCSI_AllowPreventRemovable(pdev, lun, cmd);
 146:Middlewares/ST/STM32_USB_Device_Library/Class/MSC/Src/usbd_msc_scsi.c ****     break;
 147:Middlewares/ST/STM32_USB_Device_Library/Class/MSC/Src/usbd_msc_scsi.c **** 
 148:Middlewares/ST/STM32_USB_Device_Library/Class/MSC/Src/usbd_msc_scsi.c ****   case SCSI_MODE_SENSE6:
 149:Middlewares/ST/STM32_USB_Device_Library/Class/MSC/Src/usbd_msc_scsi.c ****     ret = SCSI_ModeSense6(pdev, lun, cmd);
 150:Middlewares/ST/STM32_USB_Device_Library/Class/MSC/Src/usbd_msc_scsi.c ****     break;
 151:Middlewares/ST/STM32_USB_Device_Library/Class/MSC/Src/usbd_msc_scsi.c **** 
 152:Middlewares/ST/STM32_USB_Device_Library/Class/MSC/Src/usbd_msc_scsi.c ****   case SCSI_MODE_SENSE10:
 153:Middlewares/ST/STM32_USB_Device_Library/Class/MSC/Src/usbd_msc_scsi.c ****     ret = SCSI_ModeSense10(pdev, lun, cmd);
 154:Middlewares/ST/STM32_USB_Device_Library/Class/MSC/Src/usbd_msc_scsi.c ****     break;
 155:Middlewares/ST/STM32_USB_Device_Library/Class/MSC/Src/usbd_msc_scsi.c **** 
 156:Middlewares/ST/STM32_USB_Device_Library/Class/MSC/Src/usbd_msc_scsi.c ****   case SCSI_READ_FORMAT_CAPACITIES:
 157:Middlewares/ST/STM32_USB_Device_Library/Class/MSC/Src/usbd_msc_scsi.c ****     ret = SCSI_ReadFormatCapacity(pdev, lun, cmd);
 158:Middlewares/ST/STM32_USB_Device_Library/Class/MSC/Src/usbd_msc_scsi.c ****     break;
 159:Middlewares/ST/STM32_USB_Device_Library/Class/MSC/Src/usbd_msc_scsi.c **** 
 160:Middlewares/ST/STM32_USB_Device_Library/Class/MSC/Src/usbd_msc_scsi.c ****   case SCSI_READ_CAPACITY10:
 161:Middlewares/ST/STM32_USB_Device_Library/Class/MSC/Src/usbd_msc_scsi.c ****     ret = SCSI_ReadCapacity10(pdev, lun, cmd);
 162:Middlewares/ST/STM32_USB_Device_Library/Class/MSC/Src/usbd_msc_scsi.c ****     break;
 163:Middlewares/ST/STM32_USB_Device_Library/Class/MSC/Src/usbd_msc_scsi.c **** 
 164:Middlewares/ST/STM32_USB_Device_Library/Class/MSC/Src/usbd_msc_scsi.c ****   case SCSI_READ_CAPACITY16:
 165:Middlewares/ST/STM32_USB_Device_Library/Class/MSC/Src/usbd_msc_scsi.c ****     ret = SCSI_ReadCapacity16(pdev, lun, cmd);
 166:Middlewares/ST/STM32_USB_Device_Library/Class/MSC/Src/usbd_msc_scsi.c ****     break;
 167:Middlewares/ST/STM32_USB_Device_Library/Class/MSC/Src/usbd_msc_scsi.c **** 
 168:Middlewares/ST/STM32_USB_Device_Library/Class/MSC/Src/usbd_msc_scsi.c ****   case SCSI_READ10:
 169:Middlewares/ST/STM32_USB_Device_Library/Class/MSC/Src/usbd_msc_scsi.c ****     ret = SCSI_Read10(pdev, lun, cmd);
 170:Middlewares/ST/STM32_USB_Device_Library/Class/MSC/Src/usbd_msc_scsi.c ****     break;
 171:Middlewares/ST/STM32_USB_Device_Library/Class/MSC/Src/usbd_msc_scsi.c **** 
 172:Middlewares/ST/STM32_USB_Device_Library/Class/MSC/Src/usbd_msc_scsi.c ****   case SCSI_READ12:
 173:Middlewares/ST/STM32_USB_Device_Library/Class/MSC/Src/usbd_msc_scsi.c ****     ret = SCSI_Read12(pdev, lun, cmd);
 174:Middlewares/ST/STM32_USB_Device_Library/Class/MSC/Src/usbd_msc_scsi.c ****     break;
 175:Middlewares/ST/STM32_USB_Device_Library/Class/MSC/Src/usbd_msc_scsi.c **** 
 176:Middlewares/ST/STM32_USB_Device_Library/Class/MSC/Src/usbd_msc_scsi.c ****   case SCSI_WRITE10:
 177:Middlewares/ST/STM32_USB_Device_Library/Class/MSC/Src/usbd_msc_scsi.c ****     ret = SCSI_Write10(pdev, lun, cmd);
 178:Middlewares/ST/STM32_USB_Device_Library/Class/MSC/Src/usbd_msc_scsi.c ****     break;
 179:Middlewares/ST/STM32_USB_Device_Library/Class/MSC/Src/usbd_msc_scsi.c **** 
 180:Middlewares/ST/STM32_USB_Device_Library/Class/MSC/Src/usbd_msc_scsi.c ****   case SCSI_WRITE12:
 181:Middlewares/ST/STM32_USB_Device_Library/Class/MSC/Src/usbd_msc_scsi.c ****     ret = SCSI_Write12(pdev, lun, cmd);
 182:Middlewares/ST/STM32_USB_Device_Library/Class/MSC/Src/usbd_msc_scsi.c ****     break;
 183:Middlewares/ST/STM32_USB_Device_Library/Class/MSC/Src/usbd_msc_scsi.c **** 
 184:Middlewares/ST/STM32_USB_Device_Library/Class/MSC/Src/usbd_msc_scsi.c ****   case SCSI_VERIFY10:
 185:Middlewares/ST/STM32_USB_Device_Library/Class/MSC/Src/usbd_msc_scsi.c ****     ret = SCSI_Verify10(pdev, lun, cmd);
 186:Middlewares/ST/STM32_USB_Device_Library/Class/MSC/Src/usbd_msc_scsi.c ****     break;
 187:Middlewares/ST/STM32_USB_Device_Library/Class/MSC/Src/usbd_msc_scsi.c **** 
 188:Middlewares/ST/STM32_USB_Device_Library/Class/MSC/Src/usbd_msc_scsi.c ****   default:
 189:Middlewares/ST/STM32_USB_Device_Library/Class/MSC/Src/usbd_msc_scsi.c ****     SCSI_SenseCode(pdev, lun, ILLEGAL_REQUEST, INVALID_CDB);
 190:Middlewares/ST/STM32_USB_Device_Library/Class/MSC/Src/usbd_msc_scsi.c ****     hmsc->bot_status = USBD_BOT_STATUS_ERROR;
 191:Middlewares/ST/STM32_USB_Device_Library/Class/MSC/Src/usbd_msc_scsi.c ****     ret = -1;
 192:Middlewares/ST/STM32_USB_Device_Library/Class/MSC/Src/usbd_msc_scsi.c ****     break;
 193:Middlewares/ST/STM32_USB_Device_Library/Class/MSC/Src/usbd_msc_scsi.c ****   }
 194:Middlewares/ST/STM32_USB_Device_Library/Class/MSC/Src/usbd_msc_scsi.c **** 
 195:Middlewares/ST/STM32_USB_Device_Library/Class/MSC/Src/usbd_msc_scsi.c ****   return ret;
 196:Middlewares/ST/STM32_USB_Device_Library/Class/MSC/Src/usbd_msc_scsi.c **** }
 197:Middlewares/ST/STM32_USB_Device_Library/Class/MSC/Src/usbd_msc_scsi.c **** 
 198:Middlewares/ST/STM32_USB_Device_Library/Class/MSC/Src/usbd_msc_scsi.c **** 
 199:Middlewares/ST/STM32_USB_Device_Library/Class/MSC/Src/usbd_msc_scsi.c **** /**
 200:Middlewares/ST/STM32_USB_Device_Library/Class/MSC/Src/usbd_msc_scsi.c **** * @brief  SCSI_TestUnitReady
 201:Middlewares/ST/STM32_USB_Device_Library/Class/MSC/Src/usbd_msc_scsi.c **** *         Process SCSI Test Unit Ready Command
ARM GAS  D:\Temp\cclqlYRL.s 			page 5


 202:Middlewares/ST/STM32_USB_Device_Library/Class/MSC/Src/usbd_msc_scsi.c **** * @param  lun: Logical unit number
 203:Middlewares/ST/STM32_USB_Device_Library/Class/MSC/Src/usbd_msc_scsi.c **** * @param  params: Command parameters
 204:Middlewares/ST/STM32_USB_Device_Library/Class/MSC/Src/usbd_msc_scsi.c **** * @retval status
 205:Middlewares/ST/STM32_USB_Device_Library/Class/MSC/Src/usbd_msc_scsi.c **** */
 206:Middlewares/ST/STM32_USB_Device_Library/Class/MSC/Src/usbd_msc_scsi.c **** static int8_t SCSI_TestUnitReady(USBD_HandleTypeDef *pdev, uint8_t lun, uint8_t *params)
 207:Middlewares/ST/STM32_USB_Device_Library/Class/MSC/Src/usbd_msc_scsi.c **** {
 208:Middlewares/ST/STM32_USB_Device_Library/Class/MSC/Src/usbd_msc_scsi.c ****   UNUSED(params);
 209:Middlewares/ST/STM32_USB_Device_Library/Class/MSC/Src/usbd_msc_scsi.c ****   USBD_MSC_BOT_HandleTypeDef *hmsc = (USBD_MSC_BOT_HandleTypeDef *)pdev->pClassData;
 210:Middlewares/ST/STM32_USB_Device_Library/Class/MSC/Src/usbd_msc_scsi.c **** 
 211:Middlewares/ST/STM32_USB_Device_Library/Class/MSC/Src/usbd_msc_scsi.c ****   /* case 9 : Hi > D0 */
 212:Middlewares/ST/STM32_USB_Device_Library/Class/MSC/Src/usbd_msc_scsi.c ****   if (hmsc->cbw.dDataLength != 0U)
 213:Middlewares/ST/STM32_USB_Device_Library/Class/MSC/Src/usbd_msc_scsi.c ****   {
 214:Middlewares/ST/STM32_USB_Device_Library/Class/MSC/Src/usbd_msc_scsi.c ****     SCSI_SenseCode(pdev, hmsc->cbw.bLUN, ILLEGAL_REQUEST, INVALID_CDB);
 215:Middlewares/ST/STM32_USB_Device_Library/Class/MSC/Src/usbd_msc_scsi.c **** 
 216:Middlewares/ST/STM32_USB_Device_Library/Class/MSC/Src/usbd_msc_scsi.c ****     return -1;
 217:Middlewares/ST/STM32_USB_Device_Library/Class/MSC/Src/usbd_msc_scsi.c ****   }
 218:Middlewares/ST/STM32_USB_Device_Library/Class/MSC/Src/usbd_msc_scsi.c **** 
 219:Middlewares/ST/STM32_USB_Device_Library/Class/MSC/Src/usbd_msc_scsi.c ****   if (hmsc->scsi_medium_state == SCSI_MEDIUM_EJECTED)
 220:Middlewares/ST/STM32_USB_Device_Library/Class/MSC/Src/usbd_msc_scsi.c ****   {
 221:Middlewares/ST/STM32_USB_Device_Library/Class/MSC/Src/usbd_msc_scsi.c ****     SCSI_SenseCode(pdev, lun, NOT_READY, MEDIUM_NOT_PRESENT);
 222:Middlewares/ST/STM32_USB_Device_Library/Class/MSC/Src/usbd_msc_scsi.c ****     hmsc->bot_state = USBD_BOT_NO_DATA;
 223:Middlewares/ST/STM32_USB_Device_Library/Class/MSC/Src/usbd_msc_scsi.c ****     return -1;
 224:Middlewares/ST/STM32_USB_Device_Library/Class/MSC/Src/usbd_msc_scsi.c ****   }
 225:Middlewares/ST/STM32_USB_Device_Library/Class/MSC/Src/usbd_msc_scsi.c **** 
 226:Middlewares/ST/STM32_USB_Device_Library/Class/MSC/Src/usbd_msc_scsi.c ****   if (((USBD_StorageTypeDef *)pdev->pUserData)->IsReady(lun) != 0)
 227:Middlewares/ST/STM32_USB_Device_Library/Class/MSC/Src/usbd_msc_scsi.c ****   {
 228:Middlewares/ST/STM32_USB_Device_Library/Class/MSC/Src/usbd_msc_scsi.c ****     SCSI_SenseCode(pdev, lun, NOT_READY, MEDIUM_NOT_PRESENT);
 229:Middlewares/ST/STM32_USB_Device_Library/Class/MSC/Src/usbd_msc_scsi.c ****     hmsc->bot_state = USBD_BOT_NO_DATA;
 230:Middlewares/ST/STM32_USB_Device_Library/Class/MSC/Src/usbd_msc_scsi.c **** 
 231:Middlewares/ST/STM32_USB_Device_Library/Class/MSC/Src/usbd_msc_scsi.c ****     return -1;
 232:Middlewares/ST/STM32_USB_Device_Library/Class/MSC/Src/usbd_msc_scsi.c ****   }
 233:Middlewares/ST/STM32_USB_Device_Library/Class/MSC/Src/usbd_msc_scsi.c ****   hmsc->bot_data_length = 0U;
 234:Middlewares/ST/STM32_USB_Device_Library/Class/MSC/Src/usbd_msc_scsi.c **** 
 235:Middlewares/ST/STM32_USB_Device_Library/Class/MSC/Src/usbd_msc_scsi.c ****   return 0;
 236:Middlewares/ST/STM32_USB_Device_Library/Class/MSC/Src/usbd_msc_scsi.c **** }
 237:Middlewares/ST/STM32_USB_Device_Library/Class/MSC/Src/usbd_msc_scsi.c **** 
 238:Middlewares/ST/STM32_USB_Device_Library/Class/MSC/Src/usbd_msc_scsi.c **** 
 239:Middlewares/ST/STM32_USB_Device_Library/Class/MSC/Src/usbd_msc_scsi.c **** /**
 240:Middlewares/ST/STM32_USB_Device_Library/Class/MSC/Src/usbd_msc_scsi.c **** * @brief  SCSI_Inquiry
 241:Middlewares/ST/STM32_USB_Device_Library/Class/MSC/Src/usbd_msc_scsi.c **** *         Process Inquiry command
 242:Middlewares/ST/STM32_USB_Device_Library/Class/MSC/Src/usbd_msc_scsi.c **** * @param  lun: Logical unit number
 243:Middlewares/ST/STM32_USB_Device_Library/Class/MSC/Src/usbd_msc_scsi.c **** * @param  params: Command parameters
 244:Middlewares/ST/STM32_USB_Device_Library/Class/MSC/Src/usbd_msc_scsi.c **** * @retval status
 245:Middlewares/ST/STM32_USB_Device_Library/Class/MSC/Src/usbd_msc_scsi.c **** */
 246:Middlewares/ST/STM32_USB_Device_Library/Class/MSC/Src/usbd_msc_scsi.c **** static int8_t SCSI_Inquiry(USBD_HandleTypeDef *pdev, uint8_t lun, uint8_t *params)
 247:Middlewares/ST/STM32_USB_Device_Library/Class/MSC/Src/usbd_msc_scsi.c **** {
 248:Middlewares/ST/STM32_USB_Device_Library/Class/MSC/Src/usbd_msc_scsi.c ****   uint8_t *pPage;
 249:Middlewares/ST/STM32_USB_Device_Library/Class/MSC/Src/usbd_msc_scsi.c ****   uint16_t len;
 250:Middlewares/ST/STM32_USB_Device_Library/Class/MSC/Src/usbd_msc_scsi.c ****   USBD_MSC_BOT_HandleTypeDef *hmsc = (USBD_MSC_BOT_HandleTypeDef *)pdev->pClassData;
 251:Middlewares/ST/STM32_USB_Device_Library/Class/MSC/Src/usbd_msc_scsi.c **** 
 252:Middlewares/ST/STM32_USB_Device_Library/Class/MSC/Src/usbd_msc_scsi.c ****   if (hmsc->cbw.dDataLength == 0U)
 253:Middlewares/ST/STM32_USB_Device_Library/Class/MSC/Src/usbd_msc_scsi.c ****   {
 254:Middlewares/ST/STM32_USB_Device_Library/Class/MSC/Src/usbd_msc_scsi.c ****     SCSI_SenseCode(pdev, hmsc->cbw.bLUN, ILLEGAL_REQUEST, INVALID_CDB);
 255:Middlewares/ST/STM32_USB_Device_Library/Class/MSC/Src/usbd_msc_scsi.c ****     return -1;
 256:Middlewares/ST/STM32_USB_Device_Library/Class/MSC/Src/usbd_msc_scsi.c ****   }
 257:Middlewares/ST/STM32_USB_Device_Library/Class/MSC/Src/usbd_msc_scsi.c **** 
 258:Middlewares/ST/STM32_USB_Device_Library/Class/MSC/Src/usbd_msc_scsi.c ****   if ((params[1] & 0x01U) != 0U) /* Evpd is set */
ARM GAS  D:\Temp\cclqlYRL.s 			page 6


 259:Middlewares/ST/STM32_USB_Device_Library/Class/MSC/Src/usbd_msc_scsi.c ****   {
 260:Middlewares/ST/STM32_USB_Device_Library/Class/MSC/Src/usbd_msc_scsi.c ****     if (params[2] == 0U) /* Request for Supported Vital Product Data Pages*/
 261:Middlewares/ST/STM32_USB_Device_Library/Class/MSC/Src/usbd_msc_scsi.c ****     {
 262:Middlewares/ST/STM32_USB_Device_Library/Class/MSC/Src/usbd_msc_scsi.c ****       (void)SCSI_UpdateBotData(hmsc, MSC_Page00_Inquiry_Data, LENGTH_INQUIRY_PAGE00);
 263:Middlewares/ST/STM32_USB_Device_Library/Class/MSC/Src/usbd_msc_scsi.c ****     }
 264:Middlewares/ST/STM32_USB_Device_Library/Class/MSC/Src/usbd_msc_scsi.c ****     else if (params[2] == 0x80U) /* Request for VPD page 0x80 Unit Serial Number */
 265:Middlewares/ST/STM32_USB_Device_Library/Class/MSC/Src/usbd_msc_scsi.c ****     {
 266:Middlewares/ST/STM32_USB_Device_Library/Class/MSC/Src/usbd_msc_scsi.c ****       (void)SCSI_UpdateBotData(hmsc, MSC_Page80_Inquiry_Data, LENGTH_INQUIRY_PAGE80);
 267:Middlewares/ST/STM32_USB_Device_Library/Class/MSC/Src/usbd_msc_scsi.c ****     }
 268:Middlewares/ST/STM32_USB_Device_Library/Class/MSC/Src/usbd_msc_scsi.c ****     else /* Request Not supported */
 269:Middlewares/ST/STM32_USB_Device_Library/Class/MSC/Src/usbd_msc_scsi.c ****     {
 270:Middlewares/ST/STM32_USB_Device_Library/Class/MSC/Src/usbd_msc_scsi.c ****       SCSI_SenseCode(pdev, hmsc->cbw.bLUN, ILLEGAL_REQUEST,
 271:Middlewares/ST/STM32_USB_Device_Library/Class/MSC/Src/usbd_msc_scsi.c ****                      INVALID_FIELED_IN_COMMAND);
 272:Middlewares/ST/STM32_USB_Device_Library/Class/MSC/Src/usbd_msc_scsi.c **** 
 273:Middlewares/ST/STM32_USB_Device_Library/Class/MSC/Src/usbd_msc_scsi.c ****       return -1;
 274:Middlewares/ST/STM32_USB_Device_Library/Class/MSC/Src/usbd_msc_scsi.c ****     }
 275:Middlewares/ST/STM32_USB_Device_Library/Class/MSC/Src/usbd_msc_scsi.c ****   }
 276:Middlewares/ST/STM32_USB_Device_Library/Class/MSC/Src/usbd_msc_scsi.c ****   else
 277:Middlewares/ST/STM32_USB_Device_Library/Class/MSC/Src/usbd_msc_scsi.c ****   {
 278:Middlewares/ST/STM32_USB_Device_Library/Class/MSC/Src/usbd_msc_scsi.c ****     pPage = (uint8_t *)&((USBD_StorageTypeDef *)pdev->pUserData)->pInquiry[lun * STANDARD_INQUIRY_D
 279:Middlewares/ST/STM32_USB_Device_Library/Class/MSC/Src/usbd_msc_scsi.c ****     len = (uint16_t)pPage[4] + 5U;
 280:Middlewares/ST/STM32_USB_Device_Library/Class/MSC/Src/usbd_msc_scsi.c **** 
 281:Middlewares/ST/STM32_USB_Device_Library/Class/MSC/Src/usbd_msc_scsi.c ****     if (params[4] <= len)
 282:Middlewares/ST/STM32_USB_Device_Library/Class/MSC/Src/usbd_msc_scsi.c ****     {
 283:Middlewares/ST/STM32_USB_Device_Library/Class/MSC/Src/usbd_msc_scsi.c ****       len = params[4];
 284:Middlewares/ST/STM32_USB_Device_Library/Class/MSC/Src/usbd_msc_scsi.c ****     }
 285:Middlewares/ST/STM32_USB_Device_Library/Class/MSC/Src/usbd_msc_scsi.c **** 
 286:Middlewares/ST/STM32_USB_Device_Library/Class/MSC/Src/usbd_msc_scsi.c ****     (void)SCSI_UpdateBotData(hmsc, pPage, len);
 287:Middlewares/ST/STM32_USB_Device_Library/Class/MSC/Src/usbd_msc_scsi.c ****   }
 288:Middlewares/ST/STM32_USB_Device_Library/Class/MSC/Src/usbd_msc_scsi.c **** 
 289:Middlewares/ST/STM32_USB_Device_Library/Class/MSC/Src/usbd_msc_scsi.c ****   return 0;
 290:Middlewares/ST/STM32_USB_Device_Library/Class/MSC/Src/usbd_msc_scsi.c **** }
 291:Middlewares/ST/STM32_USB_Device_Library/Class/MSC/Src/usbd_msc_scsi.c **** 
 292:Middlewares/ST/STM32_USB_Device_Library/Class/MSC/Src/usbd_msc_scsi.c **** 
 293:Middlewares/ST/STM32_USB_Device_Library/Class/MSC/Src/usbd_msc_scsi.c **** /**
 294:Middlewares/ST/STM32_USB_Device_Library/Class/MSC/Src/usbd_msc_scsi.c **** * @brief  SCSI_ReadCapacity10
 295:Middlewares/ST/STM32_USB_Device_Library/Class/MSC/Src/usbd_msc_scsi.c **** *         Process Read Capacity 10 command
 296:Middlewares/ST/STM32_USB_Device_Library/Class/MSC/Src/usbd_msc_scsi.c **** * @param  lun: Logical unit number
 297:Middlewares/ST/STM32_USB_Device_Library/Class/MSC/Src/usbd_msc_scsi.c **** * @param  params: Command parameters
 298:Middlewares/ST/STM32_USB_Device_Library/Class/MSC/Src/usbd_msc_scsi.c **** * @retval status
 299:Middlewares/ST/STM32_USB_Device_Library/Class/MSC/Src/usbd_msc_scsi.c **** */
 300:Middlewares/ST/STM32_USB_Device_Library/Class/MSC/Src/usbd_msc_scsi.c **** static int8_t SCSI_ReadCapacity10(USBD_HandleTypeDef *pdev, uint8_t lun, uint8_t *params)
 301:Middlewares/ST/STM32_USB_Device_Library/Class/MSC/Src/usbd_msc_scsi.c **** {
 302:Middlewares/ST/STM32_USB_Device_Library/Class/MSC/Src/usbd_msc_scsi.c ****   UNUSED(params);
 303:Middlewares/ST/STM32_USB_Device_Library/Class/MSC/Src/usbd_msc_scsi.c ****   int8_t ret;
 304:Middlewares/ST/STM32_USB_Device_Library/Class/MSC/Src/usbd_msc_scsi.c ****   USBD_MSC_BOT_HandleTypeDef *hmsc = (USBD_MSC_BOT_HandleTypeDef *)pdev->pClassData;
 305:Middlewares/ST/STM32_USB_Device_Library/Class/MSC/Src/usbd_msc_scsi.c **** 
 306:Middlewares/ST/STM32_USB_Device_Library/Class/MSC/Src/usbd_msc_scsi.c ****   ret = ((USBD_StorageTypeDef *)pdev->pUserData)->GetCapacity(lun, &hmsc->scsi_blk_nbr, &hmsc->scsi
 307:Middlewares/ST/STM32_USB_Device_Library/Class/MSC/Src/usbd_msc_scsi.c **** 
 308:Middlewares/ST/STM32_USB_Device_Library/Class/MSC/Src/usbd_msc_scsi.c ****   if ((ret != 0) || (hmsc->scsi_medium_state == SCSI_MEDIUM_EJECTED))
 309:Middlewares/ST/STM32_USB_Device_Library/Class/MSC/Src/usbd_msc_scsi.c ****   {
 310:Middlewares/ST/STM32_USB_Device_Library/Class/MSC/Src/usbd_msc_scsi.c ****     SCSI_SenseCode(pdev, lun, NOT_READY, MEDIUM_NOT_PRESENT);
 311:Middlewares/ST/STM32_USB_Device_Library/Class/MSC/Src/usbd_msc_scsi.c ****     return -1;
 312:Middlewares/ST/STM32_USB_Device_Library/Class/MSC/Src/usbd_msc_scsi.c ****   }
 313:Middlewares/ST/STM32_USB_Device_Library/Class/MSC/Src/usbd_msc_scsi.c **** 
 314:Middlewares/ST/STM32_USB_Device_Library/Class/MSC/Src/usbd_msc_scsi.c ****   hmsc->bot_data[0] = (uint8_t)((hmsc->scsi_blk_nbr - 1U) >> 24);
 315:Middlewares/ST/STM32_USB_Device_Library/Class/MSC/Src/usbd_msc_scsi.c ****   hmsc->bot_data[1] = (uint8_t)((hmsc->scsi_blk_nbr - 1U) >> 16);
ARM GAS  D:\Temp\cclqlYRL.s 			page 7


 316:Middlewares/ST/STM32_USB_Device_Library/Class/MSC/Src/usbd_msc_scsi.c ****   hmsc->bot_data[2] = (uint8_t)((hmsc->scsi_blk_nbr - 1U) >>  8);
 317:Middlewares/ST/STM32_USB_Device_Library/Class/MSC/Src/usbd_msc_scsi.c ****   hmsc->bot_data[3] = (uint8_t)(hmsc->scsi_blk_nbr - 1U);
 318:Middlewares/ST/STM32_USB_Device_Library/Class/MSC/Src/usbd_msc_scsi.c **** 
 319:Middlewares/ST/STM32_USB_Device_Library/Class/MSC/Src/usbd_msc_scsi.c ****   hmsc->bot_data[4] = (uint8_t)(hmsc->scsi_blk_size >>  24);
 320:Middlewares/ST/STM32_USB_Device_Library/Class/MSC/Src/usbd_msc_scsi.c ****   hmsc->bot_data[5] = (uint8_t)(hmsc->scsi_blk_size >>  16);
 321:Middlewares/ST/STM32_USB_Device_Library/Class/MSC/Src/usbd_msc_scsi.c ****   hmsc->bot_data[6] = (uint8_t)(hmsc->scsi_blk_size >>  8);
 322:Middlewares/ST/STM32_USB_Device_Library/Class/MSC/Src/usbd_msc_scsi.c ****   hmsc->bot_data[7] = (uint8_t)(hmsc->scsi_blk_size);
 323:Middlewares/ST/STM32_USB_Device_Library/Class/MSC/Src/usbd_msc_scsi.c **** 
 324:Middlewares/ST/STM32_USB_Device_Library/Class/MSC/Src/usbd_msc_scsi.c ****   hmsc->bot_data_length = 8U;
 325:Middlewares/ST/STM32_USB_Device_Library/Class/MSC/Src/usbd_msc_scsi.c **** 
 326:Middlewares/ST/STM32_USB_Device_Library/Class/MSC/Src/usbd_msc_scsi.c ****   return 0;
 327:Middlewares/ST/STM32_USB_Device_Library/Class/MSC/Src/usbd_msc_scsi.c **** 
 328:Middlewares/ST/STM32_USB_Device_Library/Class/MSC/Src/usbd_msc_scsi.c **** }
 329:Middlewares/ST/STM32_USB_Device_Library/Class/MSC/Src/usbd_msc_scsi.c **** 
 330:Middlewares/ST/STM32_USB_Device_Library/Class/MSC/Src/usbd_msc_scsi.c **** 
 331:Middlewares/ST/STM32_USB_Device_Library/Class/MSC/Src/usbd_msc_scsi.c **** /**
 332:Middlewares/ST/STM32_USB_Device_Library/Class/MSC/Src/usbd_msc_scsi.c **** * @brief  SCSI_ReadCapacity16
 333:Middlewares/ST/STM32_USB_Device_Library/Class/MSC/Src/usbd_msc_scsi.c **** *         Process Read Capacity 16 command
 334:Middlewares/ST/STM32_USB_Device_Library/Class/MSC/Src/usbd_msc_scsi.c **** * @param  lun: Logical unit number
 335:Middlewares/ST/STM32_USB_Device_Library/Class/MSC/Src/usbd_msc_scsi.c **** * @param  params: Command parameters
 336:Middlewares/ST/STM32_USB_Device_Library/Class/MSC/Src/usbd_msc_scsi.c **** * @retval status
 337:Middlewares/ST/STM32_USB_Device_Library/Class/MSC/Src/usbd_msc_scsi.c **** */
 338:Middlewares/ST/STM32_USB_Device_Library/Class/MSC/Src/usbd_msc_scsi.c **** static int8_t SCSI_ReadCapacity16(USBD_HandleTypeDef *pdev, uint8_t lun, uint8_t *params)
 339:Middlewares/ST/STM32_USB_Device_Library/Class/MSC/Src/usbd_msc_scsi.c **** {
 340:Middlewares/ST/STM32_USB_Device_Library/Class/MSC/Src/usbd_msc_scsi.c ****   UNUSED(params);
 341:Middlewares/ST/STM32_USB_Device_Library/Class/MSC/Src/usbd_msc_scsi.c ****   uint8_t idx;
 342:Middlewares/ST/STM32_USB_Device_Library/Class/MSC/Src/usbd_msc_scsi.c ****   int8_t ret;
 343:Middlewares/ST/STM32_USB_Device_Library/Class/MSC/Src/usbd_msc_scsi.c ****   USBD_MSC_BOT_HandleTypeDef *hmsc = (USBD_MSC_BOT_HandleTypeDef *)pdev->pClassData;
 344:Middlewares/ST/STM32_USB_Device_Library/Class/MSC/Src/usbd_msc_scsi.c **** 
 345:Middlewares/ST/STM32_USB_Device_Library/Class/MSC/Src/usbd_msc_scsi.c ****   ret = ((USBD_StorageTypeDef *)pdev->pUserData)->GetCapacity(lun, &hmsc->scsi_blk_nbr, &hmsc->scsi
 346:Middlewares/ST/STM32_USB_Device_Library/Class/MSC/Src/usbd_msc_scsi.c **** 
 347:Middlewares/ST/STM32_USB_Device_Library/Class/MSC/Src/usbd_msc_scsi.c ****   if ((ret != 0) || (hmsc->scsi_medium_state == SCSI_MEDIUM_EJECTED))
 348:Middlewares/ST/STM32_USB_Device_Library/Class/MSC/Src/usbd_msc_scsi.c ****   {
 349:Middlewares/ST/STM32_USB_Device_Library/Class/MSC/Src/usbd_msc_scsi.c ****     SCSI_SenseCode(pdev, lun, NOT_READY, MEDIUM_NOT_PRESENT);
 350:Middlewares/ST/STM32_USB_Device_Library/Class/MSC/Src/usbd_msc_scsi.c ****     return -1;
 351:Middlewares/ST/STM32_USB_Device_Library/Class/MSC/Src/usbd_msc_scsi.c ****   }
 352:Middlewares/ST/STM32_USB_Device_Library/Class/MSC/Src/usbd_msc_scsi.c **** 
 353:Middlewares/ST/STM32_USB_Device_Library/Class/MSC/Src/usbd_msc_scsi.c ****   hmsc->bot_data_length = ((uint32_t)params[10] << 24) |
 354:Middlewares/ST/STM32_USB_Device_Library/Class/MSC/Src/usbd_msc_scsi.c ****                           ((uint32_t)params[11] << 16) |
 355:Middlewares/ST/STM32_USB_Device_Library/Class/MSC/Src/usbd_msc_scsi.c ****                           ((uint32_t)params[12] <<  8) |
 356:Middlewares/ST/STM32_USB_Device_Library/Class/MSC/Src/usbd_msc_scsi.c ****                            (uint32_t)params[13];
 357:Middlewares/ST/STM32_USB_Device_Library/Class/MSC/Src/usbd_msc_scsi.c **** 
 358:Middlewares/ST/STM32_USB_Device_Library/Class/MSC/Src/usbd_msc_scsi.c ****   for (idx = 0U; idx < hmsc->bot_data_length; idx++)
 359:Middlewares/ST/STM32_USB_Device_Library/Class/MSC/Src/usbd_msc_scsi.c ****   {
 360:Middlewares/ST/STM32_USB_Device_Library/Class/MSC/Src/usbd_msc_scsi.c ****     hmsc->bot_data[idx] = 0U;
 361:Middlewares/ST/STM32_USB_Device_Library/Class/MSC/Src/usbd_msc_scsi.c ****   }
 362:Middlewares/ST/STM32_USB_Device_Library/Class/MSC/Src/usbd_msc_scsi.c **** 
 363:Middlewares/ST/STM32_USB_Device_Library/Class/MSC/Src/usbd_msc_scsi.c ****   hmsc->bot_data[4] = (uint8_t)((hmsc->scsi_blk_nbr - 1U) >> 24);
 364:Middlewares/ST/STM32_USB_Device_Library/Class/MSC/Src/usbd_msc_scsi.c ****   hmsc->bot_data[5] = (uint8_t)((hmsc->scsi_blk_nbr - 1U) >> 16);
 365:Middlewares/ST/STM32_USB_Device_Library/Class/MSC/Src/usbd_msc_scsi.c ****   hmsc->bot_data[6] = (uint8_t)((hmsc->scsi_blk_nbr - 1U) >>  8);
 366:Middlewares/ST/STM32_USB_Device_Library/Class/MSC/Src/usbd_msc_scsi.c ****   hmsc->bot_data[7] = (uint8_t)(hmsc->scsi_blk_nbr - 1U);
 367:Middlewares/ST/STM32_USB_Device_Library/Class/MSC/Src/usbd_msc_scsi.c **** 
 368:Middlewares/ST/STM32_USB_Device_Library/Class/MSC/Src/usbd_msc_scsi.c ****   hmsc->bot_data[8] = (uint8_t)(hmsc->scsi_blk_size >>  24);
 369:Middlewares/ST/STM32_USB_Device_Library/Class/MSC/Src/usbd_msc_scsi.c ****   hmsc->bot_data[9] = (uint8_t)(hmsc->scsi_blk_size >>  16);
 370:Middlewares/ST/STM32_USB_Device_Library/Class/MSC/Src/usbd_msc_scsi.c ****   hmsc->bot_data[10] = (uint8_t)(hmsc->scsi_blk_size >>  8);
 371:Middlewares/ST/STM32_USB_Device_Library/Class/MSC/Src/usbd_msc_scsi.c ****   hmsc->bot_data[11] = (uint8_t)(hmsc->scsi_blk_size);
 372:Middlewares/ST/STM32_USB_Device_Library/Class/MSC/Src/usbd_msc_scsi.c **** 
ARM GAS  D:\Temp\cclqlYRL.s 			page 8


 373:Middlewares/ST/STM32_USB_Device_Library/Class/MSC/Src/usbd_msc_scsi.c ****   hmsc->bot_data_length = ((uint32_t)params[10] << 24) |
 374:Middlewares/ST/STM32_USB_Device_Library/Class/MSC/Src/usbd_msc_scsi.c ****                           ((uint32_t)params[11] << 16) |
 375:Middlewares/ST/STM32_USB_Device_Library/Class/MSC/Src/usbd_msc_scsi.c ****                           ((uint32_t)params[12] <<  8) |
 376:Middlewares/ST/STM32_USB_Device_Library/Class/MSC/Src/usbd_msc_scsi.c ****                            (uint32_t)params[13];
 377:Middlewares/ST/STM32_USB_Device_Library/Class/MSC/Src/usbd_msc_scsi.c **** 
 378:Middlewares/ST/STM32_USB_Device_Library/Class/MSC/Src/usbd_msc_scsi.c ****   return 0;
 379:Middlewares/ST/STM32_USB_Device_Library/Class/MSC/Src/usbd_msc_scsi.c **** }
 380:Middlewares/ST/STM32_USB_Device_Library/Class/MSC/Src/usbd_msc_scsi.c **** 
 381:Middlewares/ST/STM32_USB_Device_Library/Class/MSC/Src/usbd_msc_scsi.c **** 
 382:Middlewares/ST/STM32_USB_Device_Library/Class/MSC/Src/usbd_msc_scsi.c **** /**
 383:Middlewares/ST/STM32_USB_Device_Library/Class/MSC/Src/usbd_msc_scsi.c **** * @brief  SCSI_ReadFormatCapacity
 384:Middlewares/ST/STM32_USB_Device_Library/Class/MSC/Src/usbd_msc_scsi.c **** *         Process Read Format Capacity command
 385:Middlewares/ST/STM32_USB_Device_Library/Class/MSC/Src/usbd_msc_scsi.c **** * @param  lun: Logical unit number
 386:Middlewares/ST/STM32_USB_Device_Library/Class/MSC/Src/usbd_msc_scsi.c **** * @param  params: Command parameters
 387:Middlewares/ST/STM32_USB_Device_Library/Class/MSC/Src/usbd_msc_scsi.c **** * @retval status
 388:Middlewares/ST/STM32_USB_Device_Library/Class/MSC/Src/usbd_msc_scsi.c **** */
 389:Middlewares/ST/STM32_USB_Device_Library/Class/MSC/Src/usbd_msc_scsi.c **** static int8_t SCSI_ReadFormatCapacity(USBD_HandleTypeDef *pdev, uint8_t lun, uint8_t *params)
 390:Middlewares/ST/STM32_USB_Device_Library/Class/MSC/Src/usbd_msc_scsi.c **** {
 391:Middlewares/ST/STM32_USB_Device_Library/Class/MSC/Src/usbd_msc_scsi.c ****   UNUSED(params);
 392:Middlewares/ST/STM32_USB_Device_Library/Class/MSC/Src/usbd_msc_scsi.c ****   uint16_t blk_size;
 393:Middlewares/ST/STM32_USB_Device_Library/Class/MSC/Src/usbd_msc_scsi.c ****   uint32_t blk_nbr;
 394:Middlewares/ST/STM32_USB_Device_Library/Class/MSC/Src/usbd_msc_scsi.c ****   uint16_t i;
 395:Middlewares/ST/STM32_USB_Device_Library/Class/MSC/Src/usbd_msc_scsi.c ****   int8_t ret;
 396:Middlewares/ST/STM32_USB_Device_Library/Class/MSC/Src/usbd_msc_scsi.c ****   USBD_MSC_BOT_HandleTypeDef *hmsc = (USBD_MSC_BOT_HandleTypeDef *)pdev->pClassData;
 397:Middlewares/ST/STM32_USB_Device_Library/Class/MSC/Src/usbd_msc_scsi.c **** 
 398:Middlewares/ST/STM32_USB_Device_Library/Class/MSC/Src/usbd_msc_scsi.c ****   ret = ((USBD_StorageTypeDef *)pdev->pUserData)->GetCapacity(lun, &blk_nbr, &blk_size);
 399:Middlewares/ST/STM32_USB_Device_Library/Class/MSC/Src/usbd_msc_scsi.c **** 
 400:Middlewares/ST/STM32_USB_Device_Library/Class/MSC/Src/usbd_msc_scsi.c ****   if ((ret != 0) || (hmsc->scsi_medium_state == SCSI_MEDIUM_EJECTED))
 401:Middlewares/ST/STM32_USB_Device_Library/Class/MSC/Src/usbd_msc_scsi.c ****   {
 402:Middlewares/ST/STM32_USB_Device_Library/Class/MSC/Src/usbd_msc_scsi.c ****     SCSI_SenseCode(pdev, lun, NOT_READY, MEDIUM_NOT_PRESENT);
 403:Middlewares/ST/STM32_USB_Device_Library/Class/MSC/Src/usbd_msc_scsi.c ****     return -1;
 404:Middlewares/ST/STM32_USB_Device_Library/Class/MSC/Src/usbd_msc_scsi.c ****   }
 405:Middlewares/ST/STM32_USB_Device_Library/Class/MSC/Src/usbd_msc_scsi.c **** 
 406:Middlewares/ST/STM32_USB_Device_Library/Class/MSC/Src/usbd_msc_scsi.c ****   for (i = 0U; i < 12U ; i++)
 407:Middlewares/ST/STM32_USB_Device_Library/Class/MSC/Src/usbd_msc_scsi.c ****   {
 408:Middlewares/ST/STM32_USB_Device_Library/Class/MSC/Src/usbd_msc_scsi.c ****     hmsc->bot_data[i] = 0U;
 409:Middlewares/ST/STM32_USB_Device_Library/Class/MSC/Src/usbd_msc_scsi.c ****   }
 410:Middlewares/ST/STM32_USB_Device_Library/Class/MSC/Src/usbd_msc_scsi.c **** 
 411:Middlewares/ST/STM32_USB_Device_Library/Class/MSC/Src/usbd_msc_scsi.c ****   hmsc->bot_data[3] = 0x08U;
 412:Middlewares/ST/STM32_USB_Device_Library/Class/MSC/Src/usbd_msc_scsi.c ****   hmsc->bot_data[4] = (uint8_t)((blk_nbr - 1U) >> 24);
 413:Middlewares/ST/STM32_USB_Device_Library/Class/MSC/Src/usbd_msc_scsi.c ****   hmsc->bot_data[5] = (uint8_t)((blk_nbr - 1U) >> 16);
 414:Middlewares/ST/STM32_USB_Device_Library/Class/MSC/Src/usbd_msc_scsi.c ****   hmsc->bot_data[6] = (uint8_t)((blk_nbr - 1U) >>  8);
 415:Middlewares/ST/STM32_USB_Device_Library/Class/MSC/Src/usbd_msc_scsi.c ****   hmsc->bot_data[7] = (uint8_t)(blk_nbr - 1U);
 416:Middlewares/ST/STM32_USB_Device_Library/Class/MSC/Src/usbd_msc_scsi.c **** 
 417:Middlewares/ST/STM32_USB_Device_Library/Class/MSC/Src/usbd_msc_scsi.c ****   hmsc->bot_data[8] = 0x02U;
 418:Middlewares/ST/STM32_USB_Device_Library/Class/MSC/Src/usbd_msc_scsi.c ****   hmsc->bot_data[9] = (uint8_t)(blk_size >>  16);
 419:Middlewares/ST/STM32_USB_Device_Library/Class/MSC/Src/usbd_msc_scsi.c ****   hmsc->bot_data[10] = (uint8_t)(blk_size >>  8);
 420:Middlewares/ST/STM32_USB_Device_Library/Class/MSC/Src/usbd_msc_scsi.c ****   hmsc->bot_data[11] = (uint8_t)(blk_size);
 421:Middlewares/ST/STM32_USB_Device_Library/Class/MSC/Src/usbd_msc_scsi.c **** 
 422:Middlewares/ST/STM32_USB_Device_Library/Class/MSC/Src/usbd_msc_scsi.c ****   hmsc->bot_data_length = 12U;
 423:Middlewares/ST/STM32_USB_Device_Library/Class/MSC/Src/usbd_msc_scsi.c **** 
 424:Middlewares/ST/STM32_USB_Device_Library/Class/MSC/Src/usbd_msc_scsi.c ****   return 0;
 425:Middlewares/ST/STM32_USB_Device_Library/Class/MSC/Src/usbd_msc_scsi.c **** }
 426:Middlewares/ST/STM32_USB_Device_Library/Class/MSC/Src/usbd_msc_scsi.c **** 
 427:Middlewares/ST/STM32_USB_Device_Library/Class/MSC/Src/usbd_msc_scsi.c **** 
 428:Middlewares/ST/STM32_USB_Device_Library/Class/MSC/Src/usbd_msc_scsi.c **** /**
 429:Middlewares/ST/STM32_USB_Device_Library/Class/MSC/Src/usbd_msc_scsi.c **** * @brief  SCSI_ModeSense6
ARM GAS  D:\Temp\cclqlYRL.s 			page 9


 430:Middlewares/ST/STM32_USB_Device_Library/Class/MSC/Src/usbd_msc_scsi.c **** *         Process Mode Sense6 command
 431:Middlewares/ST/STM32_USB_Device_Library/Class/MSC/Src/usbd_msc_scsi.c **** * @param  lun: Logical unit number
 432:Middlewares/ST/STM32_USB_Device_Library/Class/MSC/Src/usbd_msc_scsi.c **** * @param  params: Command parameters
 433:Middlewares/ST/STM32_USB_Device_Library/Class/MSC/Src/usbd_msc_scsi.c **** * @retval status
 434:Middlewares/ST/STM32_USB_Device_Library/Class/MSC/Src/usbd_msc_scsi.c **** */
 435:Middlewares/ST/STM32_USB_Device_Library/Class/MSC/Src/usbd_msc_scsi.c **** static int8_t SCSI_ModeSense6(USBD_HandleTypeDef *pdev, uint8_t lun, uint8_t *params)
 436:Middlewares/ST/STM32_USB_Device_Library/Class/MSC/Src/usbd_msc_scsi.c **** {
 437:Middlewares/ST/STM32_USB_Device_Library/Class/MSC/Src/usbd_msc_scsi.c ****   UNUSED(lun);
 438:Middlewares/ST/STM32_USB_Device_Library/Class/MSC/Src/usbd_msc_scsi.c ****   USBD_MSC_BOT_HandleTypeDef *hmsc = (USBD_MSC_BOT_HandleTypeDef *)pdev->pClassData;
 439:Middlewares/ST/STM32_USB_Device_Library/Class/MSC/Src/usbd_msc_scsi.c ****   uint16_t len = MODE_SENSE6_LEN;
 440:Middlewares/ST/STM32_USB_Device_Library/Class/MSC/Src/usbd_msc_scsi.c **** 
 441:Middlewares/ST/STM32_USB_Device_Library/Class/MSC/Src/usbd_msc_scsi.c ****   if (params[4] <= len)
 442:Middlewares/ST/STM32_USB_Device_Library/Class/MSC/Src/usbd_msc_scsi.c ****   {
 443:Middlewares/ST/STM32_USB_Device_Library/Class/MSC/Src/usbd_msc_scsi.c ****     len = params[4];
 444:Middlewares/ST/STM32_USB_Device_Library/Class/MSC/Src/usbd_msc_scsi.c ****   }
 445:Middlewares/ST/STM32_USB_Device_Library/Class/MSC/Src/usbd_msc_scsi.c **** 
 446:Middlewares/ST/STM32_USB_Device_Library/Class/MSC/Src/usbd_msc_scsi.c ****   (void)SCSI_UpdateBotData(hmsc, MSC_Mode_Sense6_data, len);
 447:Middlewares/ST/STM32_USB_Device_Library/Class/MSC/Src/usbd_msc_scsi.c **** 
 448:Middlewares/ST/STM32_USB_Device_Library/Class/MSC/Src/usbd_msc_scsi.c ****   return 0;
 449:Middlewares/ST/STM32_USB_Device_Library/Class/MSC/Src/usbd_msc_scsi.c **** }
 450:Middlewares/ST/STM32_USB_Device_Library/Class/MSC/Src/usbd_msc_scsi.c **** 
 451:Middlewares/ST/STM32_USB_Device_Library/Class/MSC/Src/usbd_msc_scsi.c **** 
 452:Middlewares/ST/STM32_USB_Device_Library/Class/MSC/Src/usbd_msc_scsi.c **** /**
 453:Middlewares/ST/STM32_USB_Device_Library/Class/MSC/Src/usbd_msc_scsi.c **** * @brief  SCSI_ModeSense10
 454:Middlewares/ST/STM32_USB_Device_Library/Class/MSC/Src/usbd_msc_scsi.c **** *         Process Mode Sense10 command
 455:Middlewares/ST/STM32_USB_Device_Library/Class/MSC/Src/usbd_msc_scsi.c **** * @param  lun: Logical unit number
 456:Middlewares/ST/STM32_USB_Device_Library/Class/MSC/Src/usbd_msc_scsi.c **** * @param  params: Command parameters
 457:Middlewares/ST/STM32_USB_Device_Library/Class/MSC/Src/usbd_msc_scsi.c **** * @retval status
 458:Middlewares/ST/STM32_USB_Device_Library/Class/MSC/Src/usbd_msc_scsi.c **** */
 459:Middlewares/ST/STM32_USB_Device_Library/Class/MSC/Src/usbd_msc_scsi.c **** static int8_t SCSI_ModeSense10(USBD_HandleTypeDef *pdev, uint8_t lun, uint8_t *params)
 460:Middlewares/ST/STM32_USB_Device_Library/Class/MSC/Src/usbd_msc_scsi.c **** {
 461:Middlewares/ST/STM32_USB_Device_Library/Class/MSC/Src/usbd_msc_scsi.c ****   UNUSED(lun);
 462:Middlewares/ST/STM32_USB_Device_Library/Class/MSC/Src/usbd_msc_scsi.c ****   USBD_MSC_BOT_HandleTypeDef *hmsc = (USBD_MSC_BOT_HandleTypeDef *)pdev->pClassData;
 463:Middlewares/ST/STM32_USB_Device_Library/Class/MSC/Src/usbd_msc_scsi.c ****   uint16_t len = MODE_SENSE10_LEN;
 464:Middlewares/ST/STM32_USB_Device_Library/Class/MSC/Src/usbd_msc_scsi.c **** 
 465:Middlewares/ST/STM32_USB_Device_Library/Class/MSC/Src/usbd_msc_scsi.c ****   if (params[8] <= len)
 466:Middlewares/ST/STM32_USB_Device_Library/Class/MSC/Src/usbd_msc_scsi.c ****   {
 467:Middlewares/ST/STM32_USB_Device_Library/Class/MSC/Src/usbd_msc_scsi.c ****     len = params[8];
 468:Middlewares/ST/STM32_USB_Device_Library/Class/MSC/Src/usbd_msc_scsi.c ****   }
 469:Middlewares/ST/STM32_USB_Device_Library/Class/MSC/Src/usbd_msc_scsi.c **** 
 470:Middlewares/ST/STM32_USB_Device_Library/Class/MSC/Src/usbd_msc_scsi.c ****   (void)SCSI_UpdateBotData(hmsc, MSC_Mode_Sense10_data, len);
 471:Middlewares/ST/STM32_USB_Device_Library/Class/MSC/Src/usbd_msc_scsi.c **** 
 472:Middlewares/ST/STM32_USB_Device_Library/Class/MSC/Src/usbd_msc_scsi.c ****   return 0;
 473:Middlewares/ST/STM32_USB_Device_Library/Class/MSC/Src/usbd_msc_scsi.c **** }
 474:Middlewares/ST/STM32_USB_Device_Library/Class/MSC/Src/usbd_msc_scsi.c **** 
 475:Middlewares/ST/STM32_USB_Device_Library/Class/MSC/Src/usbd_msc_scsi.c **** 
 476:Middlewares/ST/STM32_USB_Device_Library/Class/MSC/Src/usbd_msc_scsi.c **** /**
 477:Middlewares/ST/STM32_USB_Device_Library/Class/MSC/Src/usbd_msc_scsi.c **** * @brief  SCSI_RequestSense
 478:Middlewares/ST/STM32_USB_Device_Library/Class/MSC/Src/usbd_msc_scsi.c **** *         Process Request Sense command
 479:Middlewares/ST/STM32_USB_Device_Library/Class/MSC/Src/usbd_msc_scsi.c **** * @param  lun: Logical unit number
 480:Middlewares/ST/STM32_USB_Device_Library/Class/MSC/Src/usbd_msc_scsi.c **** * @param  params: Command parameters
 481:Middlewares/ST/STM32_USB_Device_Library/Class/MSC/Src/usbd_msc_scsi.c **** * @retval status
 482:Middlewares/ST/STM32_USB_Device_Library/Class/MSC/Src/usbd_msc_scsi.c **** */
 483:Middlewares/ST/STM32_USB_Device_Library/Class/MSC/Src/usbd_msc_scsi.c **** static int8_t SCSI_RequestSense(USBD_HandleTypeDef *pdev, uint8_t lun, uint8_t *params)
 484:Middlewares/ST/STM32_USB_Device_Library/Class/MSC/Src/usbd_msc_scsi.c **** {
 485:Middlewares/ST/STM32_USB_Device_Library/Class/MSC/Src/usbd_msc_scsi.c ****   UNUSED(lun);
 486:Middlewares/ST/STM32_USB_Device_Library/Class/MSC/Src/usbd_msc_scsi.c ****   uint8_t i;
ARM GAS  D:\Temp\cclqlYRL.s 			page 10


 487:Middlewares/ST/STM32_USB_Device_Library/Class/MSC/Src/usbd_msc_scsi.c ****   USBD_MSC_BOT_HandleTypeDef *hmsc = (USBD_MSC_BOT_HandleTypeDef *)pdev->pClassData;
 488:Middlewares/ST/STM32_USB_Device_Library/Class/MSC/Src/usbd_msc_scsi.c **** 
 489:Middlewares/ST/STM32_USB_Device_Library/Class/MSC/Src/usbd_msc_scsi.c ****   if (hmsc->cbw.dDataLength == 0U)
 490:Middlewares/ST/STM32_USB_Device_Library/Class/MSC/Src/usbd_msc_scsi.c ****   {
 491:Middlewares/ST/STM32_USB_Device_Library/Class/MSC/Src/usbd_msc_scsi.c ****     SCSI_SenseCode(pdev, hmsc->cbw.bLUN, ILLEGAL_REQUEST, INVALID_CDB);
 492:Middlewares/ST/STM32_USB_Device_Library/Class/MSC/Src/usbd_msc_scsi.c ****     return -1;
 493:Middlewares/ST/STM32_USB_Device_Library/Class/MSC/Src/usbd_msc_scsi.c ****   }
 494:Middlewares/ST/STM32_USB_Device_Library/Class/MSC/Src/usbd_msc_scsi.c **** 
 495:Middlewares/ST/STM32_USB_Device_Library/Class/MSC/Src/usbd_msc_scsi.c ****   for (i = 0U; i < REQUEST_SENSE_DATA_LEN; i++)
 496:Middlewares/ST/STM32_USB_Device_Library/Class/MSC/Src/usbd_msc_scsi.c ****   {
 497:Middlewares/ST/STM32_USB_Device_Library/Class/MSC/Src/usbd_msc_scsi.c ****     hmsc->bot_data[i] = 0U;
 498:Middlewares/ST/STM32_USB_Device_Library/Class/MSC/Src/usbd_msc_scsi.c ****   }
 499:Middlewares/ST/STM32_USB_Device_Library/Class/MSC/Src/usbd_msc_scsi.c **** 
 500:Middlewares/ST/STM32_USB_Device_Library/Class/MSC/Src/usbd_msc_scsi.c ****   hmsc->bot_data[0] = 0x70U;
 501:Middlewares/ST/STM32_USB_Device_Library/Class/MSC/Src/usbd_msc_scsi.c ****   hmsc->bot_data[7] = REQUEST_SENSE_DATA_LEN - 6U;
 502:Middlewares/ST/STM32_USB_Device_Library/Class/MSC/Src/usbd_msc_scsi.c **** 
 503:Middlewares/ST/STM32_USB_Device_Library/Class/MSC/Src/usbd_msc_scsi.c ****   if ((hmsc->scsi_sense_head != hmsc->scsi_sense_tail))
 504:Middlewares/ST/STM32_USB_Device_Library/Class/MSC/Src/usbd_msc_scsi.c ****   {
 505:Middlewares/ST/STM32_USB_Device_Library/Class/MSC/Src/usbd_msc_scsi.c ****     hmsc->bot_data[2] = (uint8_t)hmsc->scsi_sense[hmsc->scsi_sense_head].Skey;
 506:Middlewares/ST/STM32_USB_Device_Library/Class/MSC/Src/usbd_msc_scsi.c ****     hmsc->bot_data[12] = (uint8_t)hmsc->scsi_sense[hmsc->scsi_sense_head].w.b.ASC;
 507:Middlewares/ST/STM32_USB_Device_Library/Class/MSC/Src/usbd_msc_scsi.c ****     hmsc->bot_data[13] = (uint8_t)hmsc->scsi_sense[hmsc->scsi_sense_head].w.b.ASCQ;
 508:Middlewares/ST/STM32_USB_Device_Library/Class/MSC/Src/usbd_msc_scsi.c ****     hmsc->scsi_sense_head++;
 509:Middlewares/ST/STM32_USB_Device_Library/Class/MSC/Src/usbd_msc_scsi.c **** 
 510:Middlewares/ST/STM32_USB_Device_Library/Class/MSC/Src/usbd_msc_scsi.c ****     if (hmsc->scsi_sense_head == SENSE_LIST_DEEPTH)
 511:Middlewares/ST/STM32_USB_Device_Library/Class/MSC/Src/usbd_msc_scsi.c ****     {
 512:Middlewares/ST/STM32_USB_Device_Library/Class/MSC/Src/usbd_msc_scsi.c ****       hmsc->scsi_sense_head = 0U;
 513:Middlewares/ST/STM32_USB_Device_Library/Class/MSC/Src/usbd_msc_scsi.c ****     }
 514:Middlewares/ST/STM32_USB_Device_Library/Class/MSC/Src/usbd_msc_scsi.c ****   }
 515:Middlewares/ST/STM32_USB_Device_Library/Class/MSC/Src/usbd_msc_scsi.c **** 
 516:Middlewares/ST/STM32_USB_Device_Library/Class/MSC/Src/usbd_msc_scsi.c ****   hmsc->bot_data_length = REQUEST_SENSE_DATA_LEN;
 517:Middlewares/ST/STM32_USB_Device_Library/Class/MSC/Src/usbd_msc_scsi.c **** 
 518:Middlewares/ST/STM32_USB_Device_Library/Class/MSC/Src/usbd_msc_scsi.c ****   if (params[4] <= REQUEST_SENSE_DATA_LEN)
 519:Middlewares/ST/STM32_USB_Device_Library/Class/MSC/Src/usbd_msc_scsi.c ****   {
 520:Middlewares/ST/STM32_USB_Device_Library/Class/MSC/Src/usbd_msc_scsi.c ****     hmsc->bot_data_length = params[4];
 521:Middlewares/ST/STM32_USB_Device_Library/Class/MSC/Src/usbd_msc_scsi.c ****   }
 522:Middlewares/ST/STM32_USB_Device_Library/Class/MSC/Src/usbd_msc_scsi.c **** 
 523:Middlewares/ST/STM32_USB_Device_Library/Class/MSC/Src/usbd_msc_scsi.c ****   return 0;
 524:Middlewares/ST/STM32_USB_Device_Library/Class/MSC/Src/usbd_msc_scsi.c **** }
 525:Middlewares/ST/STM32_USB_Device_Library/Class/MSC/Src/usbd_msc_scsi.c **** 
 526:Middlewares/ST/STM32_USB_Device_Library/Class/MSC/Src/usbd_msc_scsi.c **** 
 527:Middlewares/ST/STM32_USB_Device_Library/Class/MSC/Src/usbd_msc_scsi.c **** /**
 528:Middlewares/ST/STM32_USB_Device_Library/Class/MSC/Src/usbd_msc_scsi.c **** * @brief  SCSI_SenseCode
 529:Middlewares/ST/STM32_USB_Device_Library/Class/MSC/Src/usbd_msc_scsi.c **** *         Load the last error code in the error list
 530:Middlewares/ST/STM32_USB_Device_Library/Class/MSC/Src/usbd_msc_scsi.c **** * @param  lun: Logical unit number
 531:Middlewares/ST/STM32_USB_Device_Library/Class/MSC/Src/usbd_msc_scsi.c **** * @param  sKey: Sense Key
 532:Middlewares/ST/STM32_USB_Device_Library/Class/MSC/Src/usbd_msc_scsi.c **** * @param  ASC: Additional Sense Code
 533:Middlewares/ST/STM32_USB_Device_Library/Class/MSC/Src/usbd_msc_scsi.c **** * @retval none
 534:Middlewares/ST/STM32_USB_Device_Library/Class/MSC/Src/usbd_msc_scsi.c **** 
 535:Middlewares/ST/STM32_USB_Device_Library/Class/MSC/Src/usbd_msc_scsi.c **** */
 536:Middlewares/ST/STM32_USB_Device_Library/Class/MSC/Src/usbd_msc_scsi.c **** void SCSI_SenseCode(USBD_HandleTypeDef *pdev, uint8_t lun, uint8_t sKey, uint8_t ASC)
 537:Middlewares/ST/STM32_USB_Device_Library/Class/MSC/Src/usbd_msc_scsi.c **** {
 538:Middlewares/ST/STM32_USB_Device_Library/Class/MSC/Src/usbd_msc_scsi.c ****   UNUSED(lun);
 539:Middlewares/ST/STM32_USB_Device_Library/Class/MSC/Src/usbd_msc_scsi.c ****   USBD_MSC_BOT_HandleTypeDef *hmsc = (USBD_MSC_BOT_HandleTypeDef *)pdev->pClassData;
 540:Middlewares/ST/STM32_USB_Device_Library/Class/MSC/Src/usbd_msc_scsi.c **** 
 541:Middlewares/ST/STM32_USB_Device_Library/Class/MSC/Src/usbd_msc_scsi.c ****   hmsc->scsi_sense[hmsc->scsi_sense_tail].Skey = sKey;
 542:Middlewares/ST/STM32_USB_Device_Library/Class/MSC/Src/usbd_msc_scsi.c ****   hmsc->scsi_sense[hmsc->scsi_sense_tail].w.b.ASC = ASC;
 543:Middlewares/ST/STM32_USB_Device_Library/Class/MSC/Src/usbd_msc_scsi.c ****   hmsc->scsi_sense[hmsc->scsi_sense_tail].w.b.ASCQ = 0U;
ARM GAS  D:\Temp\cclqlYRL.s 			page 11


 544:Middlewares/ST/STM32_USB_Device_Library/Class/MSC/Src/usbd_msc_scsi.c ****   hmsc->scsi_sense_tail++;
 545:Middlewares/ST/STM32_USB_Device_Library/Class/MSC/Src/usbd_msc_scsi.c **** 
 546:Middlewares/ST/STM32_USB_Device_Library/Class/MSC/Src/usbd_msc_scsi.c ****   if (hmsc->scsi_sense_tail == SENSE_LIST_DEEPTH)
 547:Middlewares/ST/STM32_USB_Device_Library/Class/MSC/Src/usbd_msc_scsi.c ****   {
 548:Middlewares/ST/STM32_USB_Device_Library/Class/MSC/Src/usbd_msc_scsi.c ****     hmsc->scsi_sense_tail = 0U;
 549:Middlewares/ST/STM32_USB_Device_Library/Class/MSC/Src/usbd_msc_scsi.c ****   }
 550:Middlewares/ST/STM32_USB_Device_Library/Class/MSC/Src/usbd_msc_scsi.c **** }
 551:Middlewares/ST/STM32_USB_Device_Library/Class/MSC/Src/usbd_msc_scsi.c **** 
 552:Middlewares/ST/STM32_USB_Device_Library/Class/MSC/Src/usbd_msc_scsi.c **** 
 553:Middlewares/ST/STM32_USB_Device_Library/Class/MSC/Src/usbd_msc_scsi.c **** /**
 554:Middlewares/ST/STM32_USB_Device_Library/Class/MSC/Src/usbd_msc_scsi.c **** * @brief  SCSI_StartStopUnit
 555:Middlewares/ST/STM32_USB_Device_Library/Class/MSC/Src/usbd_msc_scsi.c **** *         Process Start Stop Unit command
 556:Middlewares/ST/STM32_USB_Device_Library/Class/MSC/Src/usbd_msc_scsi.c **** * @param  lun: Logical unit number
 557:Middlewares/ST/STM32_USB_Device_Library/Class/MSC/Src/usbd_msc_scsi.c **** * @param  params: Command parameters
 558:Middlewares/ST/STM32_USB_Device_Library/Class/MSC/Src/usbd_msc_scsi.c **** * @retval status
 559:Middlewares/ST/STM32_USB_Device_Library/Class/MSC/Src/usbd_msc_scsi.c **** */
 560:Middlewares/ST/STM32_USB_Device_Library/Class/MSC/Src/usbd_msc_scsi.c **** static int8_t SCSI_StartStopUnit(USBD_HandleTypeDef *pdev, uint8_t lun, uint8_t *params)
 561:Middlewares/ST/STM32_USB_Device_Library/Class/MSC/Src/usbd_msc_scsi.c **** {
 562:Middlewares/ST/STM32_USB_Device_Library/Class/MSC/Src/usbd_msc_scsi.c ****   UNUSED(lun);
 563:Middlewares/ST/STM32_USB_Device_Library/Class/MSC/Src/usbd_msc_scsi.c ****   USBD_MSC_BOT_HandleTypeDef *hmsc = (USBD_MSC_BOT_HandleTypeDef *)pdev->pClassData;
 564:Middlewares/ST/STM32_USB_Device_Library/Class/MSC/Src/usbd_msc_scsi.c **** 
 565:Middlewares/ST/STM32_USB_Device_Library/Class/MSC/Src/usbd_msc_scsi.c ****   if ((hmsc->scsi_medium_state == SCSI_MEDIUM_LOCKED) && ((params[4] & 0x3U) == 2U))
 566:Middlewares/ST/STM32_USB_Device_Library/Class/MSC/Src/usbd_msc_scsi.c ****   {
 567:Middlewares/ST/STM32_USB_Device_Library/Class/MSC/Src/usbd_msc_scsi.c ****     SCSI_SenseCode(pdev, lun, ILLEGAL_REQUEST, INVALID_FIELED_IN_COMMAND);
 568:Middlewares/ST/STM32_USB_Device_Library/Class/MSC/Src/usbd_msc_scsi.c **** 
 569:Middlewares/ST/STM32_USB_Device_Library/Class/MSC/Src/usbd_msc_scsi.c ****     return -1;
 570:Middlewares/ST/STM32_USB_Device_Library/Class/MSC/Src/usbd_msc_scsi.c ****   }
 571:Middlewares/ST/STM32_USB_Device_Library/Class/MSC/Src/usbd_msc_scsi.c **** 
 572:Middlewares/ST/STM32_USB_Device_Library/Class/MSC/Src/usbd_msc_scsi.c ****   if ((params[4] & 0x3U) == 0x1U) /* START=1 */
 573:Middlewares/ST/STM32_USB_Device_Library/Class/MSC/Src/usbd_msc_scsi.c ****   {
 574:Middlewares/ST/STM32_USB_Device_Library/Class/MSC/Src/usbd_msc_scsi.c ****     hmsc->scsi_medium_state = SCSI_MEDIUM_UNLOCKED;
 575:Middlewares/ST/STM32_USB_Device_Library/Class/MSC/Src/usbd_msc_scsi.c ****   }
 576:Middlewares/ST/STM32_USB_Device_Library/Class/MSC/Src/usbd_msc_scsi.c ****   else if ((params[4] & 0x3U) == 0x2U) /* START=0 and LOEJ Load Eject=1 */
 577:Middlewares/ST/STM32_USB_Device_Library/Class/MSC/Src/usbd_msc_scsi.c ****   {
 578:Middlewares/ST/STM32_USB_Device_Library/Class/MSC/Src/usbd_msc_scsi.c ****     hmsc->scsi_medium_state = SCSI_MEDIUM_EJECTED;
 579:Middlewares/ST/STM32_USB_Device_Library/Class/MSC/Src/usbd_msc_scsi.c ****   }
 580:Middlewares/ST/STM32_USB_Device_Library/Class/MSC/Src/usbd_msc_scsi.c ****   else if ((params[4] & 0x3U) == 0x3U) /* START=1 and LOEJ Load Eject=1 */
 581:Middlewares/ST/STM32_USB_Device_Library/Class/MSC/Src/usbd_msc_scsi.c ****   {
 582:Middlewares/ST/STM32_USB_Device_Library/Class/MSC/Src/usbd_msc_scsi.c ****     hmsc->scsi_medium_state = SCSI_MEDIUM_UNLOCKED;
 583:Middlewares/ST/STM32_USB_Device_Library/Class/MSC/Src/usbd_msc_scsi.c ****   }
 584:Middlewares/ST/STM32_USB_Device_Library/Class/MSC/Src/usbd_msc_scsi.c ****   else
 585:Middlewares/ST/STM32_USB_Device_Library/Class/MSC/Src/usbd_msc_scsi.c ****   {
 586:Middlewares/ST/STM32_USB_Device_Library/Class/MSC/Src/usbd_msc_scsi.c ****     /* .. */
 587:Middlewares/ST/STM32_USB_Device_Library/Class/MSC/Src/usbd_msc_scsi.c ****   }
 588:Middlewares/ST/STM32_USB_Device_Library/Class/MSC/Src/usbd_msc_scsi.c ****   hmsc->bot_data_length = 0U;
 589:Middlewares/ST/STM32_USB_Device_Library/Class/MSC/Src/usbd_msc_scsi.c **** 
 590:Middlewares/ST/STM32_USB_Device_Library/Class/MSC/Src/usbd_msc_scsi.c ****   return 0;
 591:Middlewares/ST/STM32_USB_Device_Library/Class/MSC/Src/usbd_msc_scsi.c **** }
 592:Middlewares/ST/STM32_USB_Device_Library/Class/MSC/Src/usbd_msc_scsi.c **** 
 593:Middlewares/ST/STM32_USB_Device_Library/Class/MSC/Src/usbd_msc_scsi.c **** 
 594:Middlewares/ST/STM32_USB_Device_Library/Class/MSC/Src/usbd_msc_scsi.c **** /**
 595:Middlewares/ST/STM32_USB_Device_Library/Class/MSC/Src/usbd_msc_scsi.c **** * @brief  SCSI_AllowPreventRemovable
 596:Middlewares/ST/STM32_USB_Device_Library/Class/MSC/Src/usbd_msc_scsi.c **** *         Process Allow Prevent Removable medium command
 597:Middlewares/ST/STM32_USB_Device_Library/Class/MSC/Src/usbd_msc_scsi.c **** * @param  lun: Logical unit number
 598:Middlewares/ST/STM32_USB_Device_Library/Class/MSC/Src/usbd_msc_scsi.c **** * @param  params: Command parameters
 599:Middlewares/ST/STM32_USB_Device_Library/Class/MSC/Src/usbd_msc_scsi.c **** * @retval status
 600:Middlewares/ST/STM32_USB_Device_Library/Class/MSC/Src/usbd_msc_scsi.c **** */
ARM GAS  D:\Temp\cclqlYRL.s 			page 12


 601:Middlewares/ST/STM32_USB_Device_Library/Class/MSC/Src/usbd_msc_scsi.c **** static int8_t SCSI_AllowPreventRemovable(USBD_HandleTypeDef *pdev, uint8_t lun, uint8_t *params)
 602:Middlewares/ST/STM32_USB_Device_Library/Class/MSC/Src/usbd_msc_scsi.c **** {
  29              		.loc 1 602 1 view -0
  30              		.cfi_startproc
  31              		@ args = 0, pretend = 0, frame = 0
  32              		@ frame_needed = 0, uses_anonymous_args = 0
  33              		@ link register save eliminated.
 603:Middlewares/ST/STM32_USB_Device_Library/Class/MSC/Src/usbd_msc_scsi.c ****   UNUSED(lun);
  34              		.loc 1 603 3 view .LVU1
 604:Middlewares/ST/STM32_USB_Device_Library/Class/MSC/Src/usbd_msc_scsi.c ****   USBD_MSC_BOT_HandleTypeDef *hmsc = (USBD_MSC_BOT_HandleTypeDef *)pdev->pClassData;
  35              		.loc 1 604 3 view .LVU2
  36              		.loc 1 604 31 is_stmt 0 view .LVU3
  37 0000 D0F8BC32 		ldr	r3, [r0, #700]
  38              	.LVL1:
 605:Middlewares/ST/STM32_USB_Device_Library/Class/MSC/Src/usbd_msc_scsi.c **** 
 606:Middlewares/ST/STM32_USB_Device_Library/Class/MSC/Src/usbd_msc_scsi.c ****   if (params[4] == 0U)
  39              		.loc 1 606 3 is_stmt 1 view .LVU4
  40              		.loc 1 606 13 is_stmt 0 view .LVU5
  41 0004 1279     		ldrb	r2, [r2, #4]	@ zero_extendqisi2
  42              	.LVL2:
  43              		.loc 1 606 6 view .LVU6
  44 0006 22B9     		cbnz	r2, .L2
 607:Middlewares/ST/STM32_USB_Device_Library/Class/MSC/Src/usbd_msc_scsi.c ****   {
 608:Middlewares/ST/STM32_USB_Device_Library/Class/MSC/Src/usbd_msc_scsi.c ****     hmsc->scsi_medium_state = SCSI_MEDIUM_UNLOCKED;
  45              		.loc 1 608 5 is_stmt 1 view .LVU7
  46              		.loc 1 608 29 is_stmt 0 view .LVU8
  47 0008 83F86222 		strb	r2, [r3, #610]
  48              	.L3:
 609:Middlewares/ST/STM32_USB_Device_Library/Class/MSC/Src/usbd_msc_scsi.c ****   }
 610:Middlewares/ST/STM32_USB_Device_Library/Class/MSC/Src/usbd_msc_scsi.c ****   else
 611:Middlewares/ST/STM32_USB_Device_Library/Class/MSC/Src/usbd_msc_scsi.c ****   {
 612:Middlewares/ST/STM32_USB_Device_Library/Class/MSC/Src/usbd_msc_scsi.c ****     hmsc->scsi_medium_state = SCSI_MEDIUM_LOCKED;
 613:Middlewares/ST/STM32_USB_Device_Library/Class/MSC/Src/usbd_msc_scsi.c ****   }
 614:Middlewares/ST/STM32_USB_Device_Library/Class/MSC/Src/usbd_msc_scsi.c **** 
 615:Middlewares/ST/STM32_USB_Device_Library/Class/MSC/Src/usbd_msc_scsi.c ****   hmsc->bot_data_length = 0U;
  49              		.loc 1 615 3 is_stmt 1 view .LVU9
  50              		.loc 1 615 25 is_stmt 0 view .LVU10
  51 000c 0020     		movs	r0, #0
  52              	.LVL3:
  53              		.loc 1 615 25 view .LVU11
  54 000e D860     		str	r0, [r3, #12]
 616:Middlewares/ST/STM32_USB_Device_Library/Class/MSC/Src/usbd_msc_scsi.c **** 
 617:Middlewares/ST/STM32_USB_Device_Library/Class/MSC/Src/usbd_msc_scsi.c ****   return 0;
  55              		.loc 1 617 3 is_stmt 1 view .LVU12
 618:Middlewares/ST/STM32_USB_Device_Library/Class/MSC/Src/usbd_msc_scsi.c **** }
  56              		.loc 1 618 1 is_stmt 0 view .LVU13
  57 0010 7047     		bx	lr
  58              	.LVL4:
  59              	.L2:
 612:Middlewares/ST/STM32_USB_Device_Library/Class/MSC/Src/usbd_msc_scsi.c ****   }
  60              		.loc 1 612 5 is_stmt 1 view .LVU14
 612:Middlewares/ST/STM32_USB_Device_Library/Class/MSC/Src/usbd_msc_scsi.c ****   }
  61              		.loc 1 612 29 is_stmt 0 view .LVU15
  62 0012 0122     		movs	r2, #1
  63 0014 83F86222 		strb	r2, [r3, #610]
  64 0018 F8E7     		b	.L3
  65              		.cfi_endproc
ARM GAS  D:\Temp\cclqlYRL.s 			page 13


  66              	.LFE145:
  68              		.section	.text.SCSI_UpdateBotData,"ax",%progbits
  69              		.align	1
  70              		.syntax unified
  71              		.thumb
  72              		.thumb_func
  73              		.fpu fpv4-sp-d16
  75              	SCSI_UpdateBotData:
  76              	.LVL5:
  77              	.LFB154:
 619:Middlewares/ST/STM32_USB_Device_Library/Class/MSC/Src/usbd_msc_scsi.c **** 
 620:Middlewares/ST/STM32_USB_Device_Library/Class/MSC/Src/usbd_msc_scsi.c **** 
 621:Middlewares/ST/STM32_USB_Device_Library/Class/MSC/Src/usbd_msc_scsi.c **** /**
 622:Middlewares/ST/STM32_USB_Device_Library/Class/MSC/Src/usbd_msc_scsi.c **** * @brief  SCSI_Read10
 623:Middlewares/ST/STM32_USB_Device_Library/Class/MSC/Src/usbd_msc_scsi.c **** *         Process Read10 command
 624:Middlewares/ST/STM32_USB_Device_Library/Class/MSC/Src/usbd_msc_scsi.c **** * @param  lun: Logical unit number
 625:Middlewares/ST/STM32_USB_Device_Library/Class/MSC/Src/usbd_msc_scsi.c **** * @param  params: Command parameters
 626:Middlewares/ST/STM32_USB_Device_Library/Class/MSC/Src/usbd_msc_scsi.c **** * @retval status
 627:Middlewares/ST/STM32_USB_Device_Library/Class/MSC/Src/usbd_msc_scsi.c **** */
 628:Middlewares/ST/STM32_USB_Device_Library/Class/MSC/Src/usbd_msc_scsi.c **** static int8_t SCSI_Read10(USBD_HandleTypeDef *pdev, uint8_t lun, uint8_t *params)
 629:Middlewares/ST/STM32_USB_Device_Library/Class/MSC/Src/usbd_msc_scsi.c **** {
 630:Middlewares/ST/STM32_USB_Device_Library/Class/MSC/Src/usbd_msc_scsi.c ****   USBD_MSC_BOT_HandleTypeDef *hmsc = (USBD_MSC_BOT_HandleTypeDef *)pdev->pClassData;
 631:Middlewares/ST/STM32_USB_Device_Library/Class/MSC/Src/usbd_msc_scsi.c **** 
 632:Middlewares/ST/STM32_USB_Device_Library/Class/MSC/Src/usbd_msc_scsi.c ****   if (hmsc->bot_state == USBD_BOT_IDLE) /* Idle */
 633:Middlewares/ST/STM32_USB_Device_Library/Class/MSC/Src/usbd_msc_scsi.c ****   {
 634:Middlewares/ST/STM32_USB_Device_Library/Class/MSC/Src/usbd_msc_scsi.c ****     /* case 10 : Ho <> Di */
 635:Middlewares/ST/STM32_USB_Device_Library/Class/MSC/Src/usbd_msc_scsi.c ****     if ((hmsc->cbw.bmFlags & 0x80U) != 0x80U)
 636:Middlewares/ST/STM32_USB_Device_Library/Class/MSC/Src/usbd_msc_scsi.c ****     {
 637:Middlewares/ST/STM32_USB_Device_Library/Class/MSC/Src/usbd_msc_scsi.c ****       SCSI_SenseCode(pdev, hmsc->cbw.bLUN, ILLEGAL_REQUEST, INVALID_CDB);
 638:Middlewares/ST/STM32_USB_Device_Library/Class/MSC/Src/usbd_msc_scsi.c ****       return -1;
 639:Middlewares/ST/STM32_USB_Device_Library/Class/MSC/Src/usbd_msc_scsi.c ****     }
 640:Middlewares/ST/STM32_USB_Device_Library/Class/MSC/Src/usbd_msc_scsi.c **** 
 641:Middlewares/ST/STM32_USB_Device_Library/Class/MSC/Src/usbd_msc_scsi.c ****     if (hmsc->scsi_medium_state == SCSI_MEDIUM_EJECTED)
 642:Middlewares/ST/STM32_USB_Device_Library/Class/MSC/Src/usbd_msc_scsi.c ****     {
 643:Middlewares/ST/STM32_USB_Device_Library/Class/MSC/Src/usbd_msc_scsi.c ****       SCSI_SenseCode(pdev, lun, NOT_READY, MEDIUM_NOT_PRESENT);
 644:Middlewares/ST/STM32_USB_Device_Library/Class/MSC/Src/usbd_msc_scsi.c **** 
 645:Middlewares/ST/STM32_USB_Device_Library/Class/MSC/Src/usbd_msc_scsi.c ****       return -1;
 646:Middlewares/ST/STM32_USB_Device_Library/Class/MSC/Src/usbd_msc_scsi.c ****     }
 647:Middlewares/ST/STM32_USB_Device_Library/Class/MSC/Src/usbd_msc_scsi.c **** 
 648:Middlewares/ST/STM32_USB_Device_Library/Class/MSC/Src/usbd_msc_scsi.c ****     if (((USBD_StorageTypeDef *)pdev->pUserData)->IsReady(lun) != 0)
 649:Middlewares/ST/STM32_USB_Device_Library/Class/MSC/Src/usbd_msc_scsi.c ****     {
 650:Middlewares/ST/STM32_USB_Device_Library/Class/MSC/Src/usbd_msc_scsi.c ****       SCSI_SenseCode(pdev, lun, NOT_READY, MEDIUM_NOT_PRESENT);
 651:Middlewares/ST/STM32_USB_Device_Library/Class/MSC/Src/usbd_msc_scsi.c ****       return -1;
 652:Middlewares/ST/STM32_USB_Device_Library/Class/MSC/Src/usbd_msc_scsi.c ****     }
 653:Middlewares/ST/STM32_USB_Device_Library/Class/MSC/Src/usbd_msc_scsi.c **** 
 654:Middlewares/ST/STM32_USB_Device_Library/Class/MSC/Src/usbd_msc_scsi.c ****     hmsc->scsi_blk_addr = ((uint32_t)params[2] << 24) |
 655:Middlewares/ST/STM32_USB_Device_Library/Class/MSC/Src/usbd_msc_scsi.c ****                           ((uint32_t)params[3] << 16) |
 656:Middlewares/ST/STM32_USB_Device_Library/Class/MSC/Src/usbd_msc_scsi.c ****                           ((uint32_t)params[4] <<  8) |
 657:Middlewares/ST/STM32_USB_Device_Library/Class/MSC/Src/usbd_msc_scsi.c ****                           (uint32_t)params[5];
 658:Middlewares/ST/STM32_USB_Device_Library/Class/MSC/Src/usbd_msc_scsi.c **** 
 659:Middlewares/ST/STM32_USB_Device_Library/Class/MSC/Src/usbd_msc_scsi.c ****     hmsc->scsi_blk_len = ((uint32_t)params[7] <<  8) | (uint32_t)params[8];
 660:Middlewares/ST/STM32_USB_Device_Library/Class/MSC/Src/usbd_msc_scsi.c **** 
 661:Middlewares/ST/STM32_USB_Device_Library/Class/MSC/Src/usbd_msc_scsi.c ****     if (SCSI_CheckAddressRange(pdev, lun, hmsc->scsi_blk_addr,
 662:Middlewares/ST/STM32_USB_Device_Library/Class/MSC/Src/usbd_msc_scsi.c ****                                hmsc->scsi_blk_len) < 0)
 663:Middlewares/ST/STM32_USB_Device_Library/Class/MSC/Src/usbd_msc_scsi.c ****     {
 664:Middlewares/ST/STM32_USB_Device_Library/Class/MSC/Src/usbd_msc_scsi.c ****       return -1; /* error */
 665:Middlewares/ST/STM32_USB_Device_Library/Class/MSC/Src/usbd_msc_scsi.c ****     }
ARM GAS  D:\Temp\cclqlYRL.s 			page 14


 666:Middlewares/ST/STM32_USB_Device_Library/Class/MSC/Src/usbd_msc_scsi.c **** 
 667:Middlewares/ST/STM32_USB_Device_Library/Class/MSC/Src/usbd_msc_scsi.c ****     /* cases 4,5 : Hi <> Dn */
 668:Middlewares/ST/STM32_USB_Device_Library/Class/MSC/Src/usbd_msc_scsi.c ****     if (hmsc->cbw.dDataLength != (hmsc->scsi_blk_len * hmsc->scsi_blk_size))
 669:Middlewares/ST/STM32_USB_Device_Library/Class/MSC/Src/usbd_msc_scsi.c ****     {
 670:Middlewares/ST/STM32_USB_Device_Library/Class/MSC/Src/usbd_msc_scsi.c ****       SCSI_SenseCode(pdev, hmsc->cbw.bLUN, ILLEGAL_REQUEST, INVALID_CDB);
 671:Middlewares/ST/STM32_USB_Device_Library/Class/MSC/Src/usbd_msc_scsi.c ****       return -1;
 672:Middlewares/ST/STM32_USB_Device_Library/Class/MSC/Src/usbd_msc_scsi.c ****     }
 673:Middlewares/ST/STM32_USB_Device_Library/Class/MSC/Src/usbd_msc_scsi.c **** 
 674:Middlewares/ST/STM32_USB_Device_Library/Class/MSC/Src/usbd_msc_scsi.c ****     hmsc->bot_state = USBD_BOT_DATA_IN;
 675:Middlewares/ST/STM32_USB_Device_Library/Class/MSC/Src/usbd_msc_scsi.c ****   }
 676:Middlewares/ST/STM32_USB_Device_Library/Class/MSC/Src/usbd_msc_scsi.c ****   hmsc->bot_data_length = MSC_MEDIA_PACKET;
 677:Middlewares/ST/STM32_USB_Device_Library/Class/MSC/Src/usbd_msc_scsi.c **** 
 678:Middlewares/ST/STM32_USB_Device_Library/Class/MSC/Src/usbd_msc_scsi.c ****   return SCSI_ProcessRead(pdev, lun);
 679:Middlewares/ST/STM32_USB_Device_Library/Class/MSC/Src/usbd_msc_scsi.c **** }
 680:Middlewares/ST/STM32_USB_Device_Library/Class/MSC/Src/usbd_msc_scsi.c **** 
 681:Middlewares/ST/STM32_USB_Device_Library/Class/MSC/Src/usbd_msc_scsi.c **** 
 682:Middlewares/ST/STM32_USB_Device_Library/Class/MSC/Src/usbd_msc_scsi.c **** /**
 683:Middlewares/ST/STM32_USB_Device_Library/Class/MSC/Src/usbd_msc_scsi.c **** * @brief  SCSI_Read12
 684:Middlewares/ST/STM32_USB_Device_Library/Class/MSC/Src/usbd_msc_scsi.c **** *         Process Read12 command
 685:Middlewares/ST/STM32_USB_Device_Library/Class/MSC/Src/usbd_msc_scsi.c **** * @param  lun: Logical unit number
 686:Middlewares/ST/STM32_USB_Device_Library/Class/MSC/Src/usbd_msc_scsi.c **** * @param  params: Command parameters
 687:Middlewares/ST/STM32_USB_Device_Library/Class/MSC/Src/usbd_msc_scsi.c **** * @retval status
 688:Middlewares/ST/STM32_USB_Device_Library/Class/MSC/Src/usbd_msc_scsi.c **** */
 689:Middlewares/ST/STM32_USB_Device_Library/Class/MSC/Src/usbd_msc_scsi.c **** static int8_t SCSI_Read12(USBD_HandleTypeDef *pdev, uint8_t lun, uint8_t *params)
 690:Middlewares/ST/STM32_USB_Device_Library/Class/MSC/Src/usbd_msc_scsi.c **** {
 691:Middlewares/ST/STM32_USB_Device_Library/Class/MSC/Src/usbd_msc_scsi.c ****   USBD_MSC_BOT_HandleTypeDef *hmsc = (USBD_MSC_BOT_HandleTypeDef *)pdev->pClassData;
 692:Middlewares/ST/STM32_USB_Device_Library/Class/MSC/Src/usbd_msc_scsi.c **** 
 693:Middlewares/ST/STM32_USB_Device_Library/Class/MSC/Src/usbd_msc_scsi.c ****   if (hmsc->bot_state == USBD_BOT_IDLE) /* Idle */
 694:Middlewares/ST/STM32_USB_Device_Library/Class/MSC/Src/usbd_msc_scsi.c ****   {
 695:Middlewares/ST/STM32_USB_Device_Library/Class/MSC/Src/usbd_msc_scsi.c ****     /* case 10 : Ho <> Di */
 696:Middlewares/ST/STM32_USB_Device_Library/Class/MSC/Src/usbd_msc_scsi.c ****     if ((hmsc->cbw.bmFlags & 0x80U) != 0x80U)
 697:Middlewares/ST/STM32_USB_Device_Library/Class/MSC/Src/usbd_msc_scsi.c ****     {
 698:Middlewares/ST/STM32_USB_Device_Library/Class/MSC/Src/usbd_msc_scsi.c ****       SCSI_SenseCode(pdev, hmsc->cbw.bLUN, ILLEGAL_REQUEST, INVALID_CDB);
 699:Middlewares/ST/STM32_USB_Device_Library/Class/MSC/Src/usbd_msc_scsi.c ****       return -1;
 700:Middlewares/ST/STM32_USB_Device_Library/Class/MSC/Src/usbd_msc_scsi.c ****     }
 701:Middlewares/ST/STM32_USB_Device_Library/Class/MSC/Src/usbd_msc_scsi.c **** 
 702:Middlewares/ST/STM32_USB_Device_Library/Class/MSC/Src/usbd_msc_scsi.c ****     if (hmsc->scsi_medium_state == SCSI_MEDIUM_EJECTED)
 703:Middlewares/ST/STM32_USB_Device_Library/Class/MSC/Src/usbd_msc_scsi.c ****     {
 704:Middlewares/ST/STM32_USB_Device_Library/Class/MSC/Src/usbd_msc_scsi.c ****       SCSI_SenseCode(pdev, lun, NOT_READY, MEDIUM_NOT_PRESENT);
 705:Middlewares/ST/STM32_USB_Device_Library/Class/MSC/Src/usbd_msc_scsi.c ****       return -1;
 706:Middlewares/ST/STM32_USB_Device_Library/Class/MSC/Src/usbd_msc_scsi.c ****     }
 707:Middlewares/ST/STM32_USB_Device_Library/Class/MSC/Src/usbd_msc_scsi.c **** 
 708:Middlewares/ST/STM32_USB_Device_Library/Class/MSC/Src/usbd_msc_scsi.c ****     if (((USBD_StorageTypeDef *)pdev->pUserData)->IsReady(lun) != 0)
 709:Middlewares/ST/STM32_USB_Device_Library/Class/MSC/Src/usbd_msc_scsi.c ****     {
 710:Middlewares/ST/STM32_USB_Device_Library/Class/MSC/Src/usbd_msc_scsi.c ****       SCSI_SenseCode(pdev, lun, NOT_READY, MEDIUM_NOT_PRESENT);
 711:Middlewares/ST/STM32_USB_Device_Library/Class/MSC/Src/usbd_msc_scsi.c ****       return -1;
 712:Middlewares/ST/STM32_USB_Device_Library/Class/MSC/Src/usbd_msc_scsi.c ****     }
 713:Middlewares/ST/STM32_USB_Device_Library/Class/MSC/Src/usbd_msc_scsi.c **** 
 714:Middlewares/ST/STM32_USB_Device_Library/Class/MSC/Src/usbd_msc_scsi.c ****     hmsc->scsi_blk_addr = ((uint32_t)params[2] << 24) |
 715:Middlewares/ST/STM32_USB_Device_Library/Class/MSC/Src/usbd_msc_scsi.c ****                           ((uint32_t)params[3] << 16) |
 716:Middlewares/ST/STM32_USB_Device_Library/Class/MSC/Src/usbd_msc_scsi.c ****                           ((uint32_t)params[4] <<  8) |
 717:Middlewares/ST/STM32_USB_Device_Library/Class/MSC/Src/usbd_msc_scsi.c ****                           (uint32_t)params[5];
 718:Middlewares/ST/STM32_USB_Device_Library/Class/MSC/Src/usbd_msc_scsi.c **** 
 719:Middlewares/ST/STM32_USB_Device_Library/Class/MSC/Src/usbd_msc_scsi.c ****     hmsc->scsi_blk_len = ((uint32_t)params[6] << 24) |
 720:Middlewares/ST/STM32_USB_Device_Library/Class/MSC/Src/usbd_msc_scsi.c ****                          ((uint32_t)params[7] << 16) |
 721:Middlewares/ST/STM32_USB_Device_Library/Class/MSC/Src/usbd_msc_scsi.c ****                          ((uint32_t)params[8] << 8) |
 722:Middlewares/ST/STM32_USB_Device_Library/Class/MSC/Src/usbd_msc_scsi.c ****                          (uint32_t)params[9];
ARM GAS  D:\Temp\cclqlYRL.s 			page 15


 723:Middlewares/ST/STM32_USB_Device_Library/Class/MSC/Src/usbd_msc_scsi.c **** 
 724:Middlewares/ST/STM32_USB_Device_Library/Class/MSC/Src/usbd_msc_scsi.c ****     if (SCSI_CheckAddressRange(pdev, lun, hmsc->scsi_blk_addr,
 725:Middlewares/ST/STM32_USB_Device_Library/Class/MSC/Src/usbd_msc_scsi.c ****                                hmsc->scsi_blk_len) < 0)
 726:Middlewares/ST/STM32_USB_Device_Library/Class/MSC/Src/usbd_msc_scsi.c ****     {
 727:Middlewares/ST/STM32_USB_Device_Library/Class/MSC/Src/usbd_msc_scsi.c ****       return -1; /* error */
 728:Middlewares/ST/STM32_USB_Device_Library/Class/MSC/Src/usbd_msc_scsi.c ****     }
 729:Middlewares/ST/STM32_USB_Device_Library/Class/MSC/Src/usbd_msc_scsi.c **** 
 730:Middlewares/ST/STM32_USB_Device_Library/Class/MSC/Src/usbd_msc_scsi.c ****     /* cases 4,5 : Hi <> Dn */
 731:Middlewares/ST/STM32_USB_Device_Library/Class/MSC/Src/usbd_msc_scsi.c ****     if (hmsc->cbw.dDataLength != (hmsc->scsi_blk_len * hmsc->scsi_blk_size))
 732:Middlewares/ST/STM32_USB_Device_Library/Class/MSC/Src/usbd_msc_scsi.c ****     {
 733:Middlewares/ST/STM32_USB_Device_Library/Class/MSC/Src/usbd_msc_scsi.c ****       SCSI_SenseCode(pdev, hmsc->cbw.bLUN, ILLEGAL_REQUEST, INVALID_CDB);
 734:Middlewares/ST/STM32_USB_Device_Library/Class/MSC/Src/usbd_msc_scsi.c ****       return -1;
 735:Middlewares/ST/STM32_USB_Device_Library/Class/MSC/Src/usbd_msc_scsi.c ****     }
 736:Middlewares/ST/STM32_USB_Device_Library/Class/MSC/Src/usbd_msc_scsi.c **** 
 737:Middlewares/ST/STM32_USB_Device_Library/Class/MSC/Src/usbd_msc_scsi.c ****     hmsc->bot_state = USBD_BOT_DATA_IN;
 738:Middlewares/ST/STM32_USB_Device_Library/Class/MSC/Src/usbd_msc_scsi.c ****   }
 739:Middlewares/ST/STM32_USB_Device_Library/Class/MSC/Src/usbd_msc_scsi.c ****   hmsc->bot_data_length = MSC_MEDIA_PACKET;
 740:Middlewares/ST/STM32_USB_Device_Library/Class/MSC/Src/usbd_msc_scsi.c **** 
 741:Middlewares/ST/STM32_USB_Device_Library/Class/MSC/Src/usbd_msc_scsi.c ****   return SCSI_ProcessRead(pdev, lun);
 742:Middlewares/ST/STM32_USB_Device_Library/Class/MSC/Src/usbd_msc_scsi.c **** }
 743:Middlewares/ST/STM32_USB_Device_Library/Class/MSC/Src/usbd_msc_scsi.c **** 
 744:Middlewares/ST/STM32_USB_Device_Library/Class/MSC/Src/usbd_msc_scsi.c **** 
 745:Middlewares/ST/STM32_USB_Device_Library/Class/MSC/Src/usbd_msc_scsi.c **** /**
 746:Middlewares/ST/STM32_USB_Device_Library/Class/MSC/Src/usbd_msc_scsi.c **** * @brief  SCSI_Write10
 747:Middlewares/ST/STM32_USB_Device_Library/Class/MSC/Src/usbd_msc_scsi.c **** *         Process Write10 command
 748:Middlewares/ST/STM32_USB_Device_Library/Class/MSC/Src/usbd_msc_scsi.c **** * @param  lun: Logical unit number
 749:Middlewares/ST/STM32_USB_Device_Library/Class/MSC/Src/usbd_msc_scsi.c **** * @param  params: Command parameters
 750:Middlewares/ST/STM32_USB_Device_Library/Class/MSC/Src/usbd_msc_scsi.c **** * @retval status
 751:Middlewares/ST/STM32_USB_Device_Library/Class/MSC/Src/usbd_msc_scsi.c **** */
 752:Middlewares/ST/STM32_USB_Device_Library/Class/MSC/Src/usbd_msc_scsi.c **** static int8_t SCSI_Write10(USBD_HandleTypeDef *pdev, uint8_t lun, uint8_t *params)
 753:Middlewares/ST/STM32_USB_Device_Library/Class/MSC/Src/usbd_msc_scsi.c **** {
 754:Middlewares/ST/STM32_USB_Device_Library/Class/MSC/Src/usbd_msc_scsi.c ****   USBD_MSC_BOT_HandleTypeDef *hmsc = (USBD_MSC_BOT_HandleTypeDef *)pdev->pClassData;
 755:Middlewares/ST/STM32_USB_Device_Library/Class/MSC/Src/usbd_msc_scsi.c ****   uint32_t len;
 756:Middlewares/ST/STM32_USB_Device_Library/Class/MSC/Src/usbd_msc_scsi.c **** 
 757:Middlewares/ST/STM32_USB_Device_Library/Class/MSC/Src/usbd_msc_scsi.c ****   if (hmsc->bot_state == USBD_BOT_IDLE) /* Idle */
 758:Middlewares/ST/STM32_USB_Device_Library/Class/MSC/Src/usbd_msc_scsi.c ****   {
 759:Middlewares/ST/STM32_USB_Device_Library/Class/MSC/Src/usbd_msc_scsi.c ****     if (hmsc->cbw.dDataLength == 0U)
 760:Middlewares/ST/STM32_USB_Device_Library/Class/MSC/Src/usbd_msc_scsi.c ****     {
 761:Middlewares/ST/STM32_USB_Device_Library/Class/MSC/Src/usbd_msc_scsi.c ****       SCSI_SenseCode(pdev, hmsc->cbw.bLUN, ILLEGAL_REQUEST, INVALID_CDB);
 762:Middlewares/ST/STM32_USB_Device_Library/Class/MSC/Src/usbd_msc_scsi.c ****       return -1;
 763:Middlewares/ST/STM32_USB_Device_Library/Class/MSC/Src/usbd_msc_scsi.c ****     }
 764:Middlewares/ST/STM32_USB_Device_Library/Class/MSC/Src/usbd_msc_scsi.c **** 
 765:Middlewares/ST/STM32_USB_Device_Library/Class/MSC/Src/usbd_msc_scsi.c ****     /* case 8 : Hi <> Do */
 766:Middlewares/ST/STM32_USB_Device_Library/Class/MSC/Src/usbd_msc_scsi.c ****     if ((hmsc->cbw.bmFlags & 0x80U) == 0x80U)
 767:Middlewares/ST/STM32_USB_Device_Library/Class/MSC/Src/usbd_msc_scsi.c ****     {
 768:Middlewares/ST/STM32_USB_Device_Library/Class/MSC/Src/usbd_msc_scsi.c ****       SCSI_SenseCode(pdev, hmsc->cbw.bLUN, ILLEGAL_REQUEST, INVALID_CDB);
 769:Middlewares/ST/STM32_USB_Device_Library/Class/MSC/Src/usbd_msc_scsi.c ****       return -1;
 770:Middlewares/ST/STM32_USB_Device_Library/Class/MSC/Src/usbd_msc_scsi.c ****     }
 771:Middlewares/ST/STM32_USB_Device_Library/Class/MSC/Src/usbd_msc_scsi.c **** 
 772:Middlewares/ST/STM32_USB_Device_Library/Class/MSC/Src/usbd_msc_scsi.c ****     /* Check whether Media is ready */
 773:Middlewares/ST/STM32_USB_Device_Library/Class/MSC/Src/usbd_msc_scsi.c ****     if (((USBD_StorageTypeDef *)pdev->pUserData)->IsReady(lun) != 0)
 774:Middlewares/ST/STM32_USB_Device_Library/Class/MSC/Src/usbd_msc_scsi.c ****     {
 775:Middlewares/ST/STM32_USB_Device_Library/Class/MSC/Src/usbd_msc_scsi.c ****       SCSI_SenseCode(pdev, lun, NOT_READY, MEDIUM_NOT_PRESENT);
 776:Middlewares/ST/STM32_USB_Device_Library/Class/MSC/Src/usbd_msc_scsi.c ****       return -1;
 777:Middlewares/ST/STM32_USB_Device_Library/Class/MSC/Src/usbd_msc_scsi.c ****     }
 778:Middlewares/ST/STM32_USB_Device_Library/Class/MSC/Src/usbd_msc_scsi.c **** 
 779:Middlewares/ST/STM32_USB_Device_Library/Class/MSC/Src/usbd_msc_scsi.c ****     /* Check If media is write-protected */
ARM GAS  D:\Temp\cclqlYRL.s 			page 16


 780:Middlewares/ST/STM32_USB_Device_Library/Class/MSC/Src/usbd_msc_scsi.c ****     if (((USBD_StorageTypeDef *)pdev->pUserData)->IsWriteProtected(lun) != 0)
 781:Middlewares/ST/STM32_USB_Device_Library/Class/MSC/Src/usbd_msc_scsi.c ****     {
 782:Middlewares/ST/STM32_USB_Device_Library/Class/MSC/Src/usbd_msc_scsi.c ****       SCSI_SenseCode(pdev, lun, NOT_READY, WRITE_PROTECTED);
 783:Middlewares/ST/STM32_USB_Device_Library/Class/MSC/Src/usbd_msc_scsi.c ****       return -1;
 784:Middlewares/ST/STM32_USB_Device_Library/Class/MSC/Src/usbd_msc_scsi.c ****     }
 785:Middlewares/ST/STM32_USB_Device_Library/Class/MSC/Src/usbd_msc_scsi.c **** 
 786:Middlewares/ST/STM32_USB_Device_Library/Class/MSC/Src/usbd_msc_scsi.c ****     hmsc->scsi_blk_addr = ((uint32_t)params[2] << 24) |
 787:Middlewares/ST/STM32_USB_Device_Library/Class/MSC/Src/usbd_msc_scsi.c ****                           ((uint32_t)params[3] << 16) |
 788:Middlewares/ST/STM32_USB_Device_Library/Class/MSC/Src/usbd_msc_scsi.c ****                           ((uint32_t)params[4] << 8) |
 789:Middlewares/ST/STM32_USB_Device_Library/Class/MSC/Src/usbd_msc_scsi.c ****                           (uint32_t)params[5];
 790:Middlewares/ST/STM32_USB_Device_Library/Class/MSC/Src/usbd_msc_scsi.c **** 
 791:Middlewares/ST/STM32_USB_Device_Library/Class/MSC/Src/usbd_msc_scsi.c ****     hmsc->scsi_blk_len = ((uint32_t)params[7] << 8) |
 792:Middlewares/ST/STM32_USB_Device_Library/Class/MSC/Src/usbd_msc_scsi.c ****                          (uint32_t)params[8];
 793:Middlewares/ST/STM32_USB_Device_Library/Class/MSC/Src/usbd_msc_scsi.c **** 
 794:Middlewares/ST/STM32_USB_Device_Library/Class/MSC/Src/usbd_msc_scsi.c ****     /* check if LBA address is in the right range */
 795:Middlewares/ST/STM32_USB_Device_Library/Class/MSC/Src/usbd_msc_scsi.c ****     if (SCSI_CheckAddressRange(pdev, lun, hmsc->scsi_blk_addr,
 796:Middlewares/ST/STM32_USB_Device_Library/Class/MSC/Src/usbd_msc_scsi.c ****                                hmsc->scsi_blk_len) < 0)
 797:Middlewares/ST/STM32_USB_Device_Library/Class/MSC/Src/usbd_msc_scsi.c ****     {
 798:Middlewares/ST/STM32_USB_Device_Library/Class/MSC/Src/usbd_msc_scsi.c ****       return -1; /* error */
 799:Middlewares/ST/STM32_USB_Device_Library/Class/MSC/Src/usbd_msc_scsi.c ****     }
 800:Middlewares/ST/STM32_USB_Device_Library/Class/MSC/Src/usbd_msc_scsi.c **** 
 801:Middlewares/ST/STM32_USB_Device_Library/Class/MSC/Src/usbd_msc_scsi.c ****     len = hmsc->scsi_blk_len * hmsc->scsi_blk_size;
 802:Middlewares/ST/STM32_USB_Device_Library/Class/MSC/Src/usbd_msc_scsi.c **** 
 803:Middlewares/ST/STM32_USB_Device_Library/Class/MSC/Src/usbd_msc_scsi.c ****     /* cases 3,11,13 : Hn,Ho <> D0 */
 804:Middlewares/ST/STM32_USB_Device_Library/Class/MSC/Src/usbd_msc_scsi.c ****     if (hmsc->cbw.dDataLength != len)
 805:Middlewares/ST/STM32_USB_Device_Library/Class/MSC/Src/usbd_msc_scsi.c ****     {
 806:Middlewares/ST/STM32_USB_Device_Library/Class/MSC/Src/usbd_msc_scsi.c ****       SCSI_SenseCode(pdev, hmsc->cbw.bLUN, ILLEGAL_REQUEST, INVALID_CDB);
 807:Middlewares/ST/STM32_USB_Device_Library/Class/MSC/Src/usbd_msc_scsi.c ****       return -1;
 808:Middlewares/ST/STM32_USB_Device_Library/Class/MSC/Src/usbd_msc_scsi.c ****     }
 809:Middlewares/ST/STM32_USB_Device_Library/Class/MSC/Src/usbd_msc_scsi.c **** 
 810:Middlewares/ST/STM32_USB_Device_Library/Class/MSC/Src/usbd_msc_scsi.c ****     len = MIN(len, MSC_MEDIA_PACKET);
 811:Middlewares/ST/STM32_USB_Device_Library/Class/MSC/Src/usbd_msc_scsi.c **** 
 812:Middlewares/ST/STM32_USB_Device_Library/Class/MSC/Src/usbd_msc_scsi.c ****     /* Prepare EP to receive first data packet */
 813:Middlewares/ST/STM32_USB_Device_Library/Class/MSC/Src/usbd_msc_scsi.c ****     hmsc->bot_state = USBD_BOT_DATA_OUT;
 814:Middlewares/ST/STM32_USB_Device_Library/Class/MSC/Src/usbd_msc_scsi.c ****     (void)USBD_LL_PrepareReceive(pdev, MSC_EPOUT_ADDR, hmsc->bot_data, len);
 815:Middlewares/ST/STM32_USB_Device_Library/Class/MSC/Src/usbd_msc_scsi.c ****   }
 816:Middlewares/ST/STM32_USB_Device_Library/Class/MSC/Src/usbd_msc_scsi.c ****   else /* Write Process ongoing */
 817:Middlewares/ST/STM32_USB_Device_Library/Class/MSC/Src/usbd_msc_scsi.c ****   {
 818:Middlewares/ST/STM32_USB_Device_Library/Class/MSC/Src/usbd_msc_scsi.c ****     return SCSI_ProcessWrite(pdev, lun);
 819:Middlewares/ST/STM32_USB_Device_Library/Class/MSC/Src/usbd_msc_scsi.c ****   }
 820:Middlewares/ST/STM32_USB_Device_Library/Class/MSC/Src/usbd_msc_scsi.c **** 
 821:Middlewares/ST/STM32_USB_Device_Library/Class/MSC/Src/usbd_msc_scsi.c ****   return 0;
 822:Middlewares/ST/STM32_USB_Device_Library/Class/MSC/Src/usbd_msc_scsi.c **** }
 823:Middlewares/ST/STM32_USB_Device_Library/Class/MSC/Src/usbd_msc_scsi.c **** 
 824:Middlewares/ST/STM32_USB_Device_Library/Class/MSC/Src/usbd_msc_scsi.c **** 
 825:Middlewares/ST/STM32_USB_Device_Library/Class/MSC/Src/usbd_msc_scsi.c **** /**
 826:Middlewares/ST/STM32_USB_Device_Library/Class/MSC/Src/usbd_msc_scsi.c **** * @brief  SCSI_Write12
 827:Middlewares/ST/STM32_USB_Device_Library/Class/MSC/Src/usbd_msc_scsi.c **** *         Process Write12 command
 828:Middlewares/ST/STM32_USB_Device_Library/Class/MSC/Src/usbd_msc_scsi.c **** * @param  lun: Logical unit number
 829:Middlewares/ST/STM32_USB_Device_Library/Class/MSC/Src/usbd_msc_scsi.c **** * @param  params: Command parameters
 830:Middlewares/ST/STM32_USB_Device_Library/Class/MSC/Src/usbd_msc_scsi.c **** * @retval status
 831:Middlewares/ST/STM32_USB_Device_Library/Class/MSC/Src/usbd_msc_scsi.c **** */
 832:Middlewares/ST/STM32_USB_Device_Library/Class/MSC/Src/usbd_msc_scsi.c **** static int8_t SCSI_Write12(USBD_HandleTypeDef *pdev, uint8_t lun, uint8_t *params)
 833:Middlewares/ST/STM32_USB_Device_Library/Class/MSC/Src/usbd_msc_scsi.c **** {
 834:Middlewares/ST/STM32_USB_Device_Library/Class/MSC/Src/usbd_msc_scsi.c ****   USBD_MSC_BOT_HandleTypeDef *hmsc = (USBD_MSC_BOT_HandleTypeDef *)pdev->pClassData;
 835:Middlewares/ST/STM32_USB_Device_Library/Class/MSC/Src/usbd_msc_scsi.c ****   uint32_t len;
 836:Middlewares/ST/STM32_USB_Device_Library/Class/MSC/Src/usbd_msc_scsi.c **** 
ARM GAS  D:\Temp\cclqlYRL.s 			page 17


 837:Middlewares/ST/STM32_USB_Device_Library/Class/MSC/Src/usbd_msc_scsi.c ****   if (hmsc->bot_state == USBD_BOT_IDLE) /* Idle */
 838:Middlewares/ST/STM32_USB_Device_Library/Class/MSC/Src/usbd_msc_scsi.c ****   {
 839:Middlewares/ST/STM32_USB_Device_Library/Class/MSC/Src/usbd_msc_scsi.c ****     if (hmsc->cbw.dDataLength == 0U)
 840:Middlewares/ST/STM32_USB_Device_Library/Class/MSC/Src/usbd_msc_scsi.c ****     {
 841:Middlewares/ST/STM32_USB_Device_Library/Class/MSC/Src/usbd_msc_scsi.c ****       SCSI_SenseCode(pdev, hmsc->cbw.bLUN, ILLEGAL_REQUEST, INVALID_CDB);
 842:Middlewares/ST/STM32_USB_Device_Library/Class/MSC/Src/usbd_msc_scsi.c ****       return -1;
 843:Middlewares/ST/STM32_USB_Device_Library/Class/MSC/Src/usbd_msc_scsi.c ****     }
 844:Middlewares/ST/STM32_USB_Device_Library/Class/MSC/Src/usbd_msc_scsi.c **** 
 845:Middlewares/ST/STM32_USB_Device_Library/Class/MSC/Src/usbd_msc_scsi.c ****     /* case 8 : Hi <> Do */
 846:Middlewares/ST/STM32_USB_Device_Library/Class/MSC/Src/usbd_msc_scsi.c ****     if ((hmsc->cbw.bmFlags & 0x80U) == 0x80U)
 847:Middlewares/ST/STM32_USB_Device_Library/Class/MSC/Src/usbd_msc_scsi.c ****     {
 848:Middlewares/ST/STM32_USB_Device_Library/Class/MSC/Src/usbd_msc_scsi.c ****       SCSI_SenseCode(pdev, hmsc->cbw.bLUN, ILLEGAL_REQUEST, INVALID_CDB);
 849:Middlewares/ST/STM32_USB_Device_Library/Class/MSC/Src/usbd_msc_scsi.c ****       return -1;
 850:Middlewares/ST/STM32_USB_Device_Library/Class/MSC/Src/usbd_msc_scsi.c ****     }
 851:Middlewares/ST/STM32_USB_Device_Library/Class/MSC/Src/usbd_msc_scsi.c **** 
 852:Middlewares/ST/STM32_USB_Device_Library/Class/MSC/Src/usbd_msc_scsi.c ****     /* Check whether Media is ready */
 853:Middlewares/ST/STM32_USB_Device_Library/Class/MSC/Src/usbd_msc_scsi.c ****     if (((USBD_StorageTypeDef *)pdev->pUserData)->IsReady(lun) != 0)
 854:Middlewares/ST/STM32_USB_Device_Library/Class/MSC/Src/usbd_msc_scsi.c ****     {
 855:Middlewares/ST/STM32_USB_Device_Library/Class/MSC/Src/usbd_msc_scsi.c ****       SCSI_SenseCode(pdev, lun, NOT_READY, MEDIUM_NOT_PRESENT);
 856:Middlewares/ST/STM32_USB_Device_Library/Class/MSC/Src/usbd_msc_scsi.c ****       hmsc->bot_state = USBD_BOT_NO_DATA;
 857:Middlewares/ST/STM32_USB_Device_Library/Class/MSC/Src/usbd_msc_scsi.c ****       return -1;
 858:Middlewares/ST/STM32_USB_Device_Library/Class/MSC/Src/usbd_msc_scsi.c ****     }
 859:Middlewares/ST/STM32_USB_Device_Library/Class/MSC/Src/usbd_msc_scsi.c **** 
 860:Middlewares/ST/STM32_USB_Device_Library/Class/MSC/Src/usbd_msc_scsi.c ****     /* Check If media is write-protected */
 861:Middlewares/ST/STM32_USB_Device_Library/Class/MSC/Src/usbd_msc_scsi.c ****     if (((USBD_StorageTypeDef *)pdev->pUserData)->IsWriteProtected(lun) != 0)
 862:Middlewares/ST/STM32_USB_Device_Library/Class/MSC/Src/usbd_msc_scsi.c ****     {
 863:Middlewares/ST/STM32_USB_Device_Library/Class/MSC/Src/usbd_msc_scsi.c ****       SCSI_SenseCode(pdev, lun, NOT_READY, WRITE_PROTECTED);
 864:Middlewares/ST/STM32_USB_Device_Library/Class/MSC/Src/usbd_msc_scsi.c ****       hmsc->bot_state = USBD_BOT_NO_DATA;
 865:Middlewares/ST/STM32_USB_Device_Library/Class/MSC/Src/usbd_msc_scsi.c ****       return -1;
 866:Middlewares/ST/STM32_USB_Device_Library/Class/MSC/Src/usbd_msc_scsi.c ****     }
 867:Middlewares/ST/STM32_USB_Device_Library/Class/MSC/Src/usbd_msc_scsi.c **** 
 868:Middlewares/ST/STM32_USB_Device_Library/Class/MSC/Src/usbd_msc_scsi.c ****     hmsc->scsi_blk_addr = ((uint32_t)params[2] << 24) |
 869:Middlewares/ST/STM32_USB_Device_Library/Class/MSC/Src/usbd_msc_scsi.c ****                           ((uint32_t)params[3] << 16) |
 870:Middlewares/ST/STM32_USB_Device_Library/Class/MSC/Src/usbd_msc_scsi.c ****                           ((uint32_t)params[4] << 8) |
 871:Middlewares/ST/STM32_USB_Device_Library/Class/MSC/Src/usbd_msc_scsi.c ****                           (uint32_t)params[5];
 872:Middlewares/ST/STM32_USB_Device_Library/Class/MSC/Src/usbd_msc_scsi.c **** 
 873:Middlewares/ST/STM32_USB_Device_Library/Class/MSC/Src/usbd_msc_scsi.c ****     hmsc->scsi_blk_len = ((uint32_t)params[6] << 24) |
 874:Middlewares/ST/STM32_USB_Device_Library/Class/MSC/Src/usbd_msc_scsi.c ****                          ((uint32_t)params[7] << 16) |
 875:Middlewares/ST/STM32_USB_Device_Library/Class/MSC/Src/usbd_msc_scsi.c ****                          ((uint32_t)params[8] << 8) |
 876:Middlewares/ST/STM32_USB_Device_Library/Class/MSC/Src/usbd_msc_scsi.c ****                          (uint32_t)params[9];
 877:Middlewares/ST/STM32_USB_Device_Library/Class/MSC/Src/usbd_msc_scsi.c **** 
 878:Middlewares/ST/STM32_USB_Device_Library/Class/MSC/Src/usbd_msc_scsi.c ****     /* check if LBA address is in the right range */
 879:Middlewares/ST/STM32_USB_Device_Library/Class/MSC/Src/usbd_msc_scsi.c ****     if (SCSI_CheckAddressRange(pdev, lun, hmsc->scsi_blk_addr,
 880:Middlewares/ST/STM32_USB_Device_Library/Class/MSC/Src/usbd_msc_scsi.c ****                                hmsc->scsi_blk_len) < 0)
 881:Middlewares/ST/STM32_USB_Device_Library/Class/MSC/Src/usbd_msc_scsi.c ****     {
 882:Middlewares/ST/STM32_USB_Device_Library/Class/MSC/Src/usbd_msc_scsi.c ****       return -1; /* error */
 883:Middlewares/ST/STM32_USB_Device_Library/Class/MSC/Src/usbd_msc_scsi.c ****     }
 884:Middlewares/ST/STM32_USB_Device_Library/Class/MSC/Src/usbd_msc_scsi.c **** 
 885:Middlewares/ST/STM32_USB_Device_Library/Class/MSC/Src/usbd_msc_scsi.c ****     len = hmsc->scsi_blk_len * hmsc->scsi_blk_size;
 886:Middlewares/ST/STM32_USB_Device_Library/Class/MSC/Src/usbd_msc_scsi.c **** 
 887:Middlewares/ST/STM32_USB_Device_Library/Class/MSC/Src/usbd_msc_scsi.c ****     /* cases 3,11,13 : Hn,Ho <> D0 */
 888:Middlewares/ST/STM32_USB_Device_Library/Class/MSC/Src/usbd_msc_scsi.c ****     if (hmsc->cbw.dDataLength != len)
 889:Middlewares/ST/STM32_USB_Device_Library/Class/MSC/Src/usbd_msc_scsi.c ****     {
 890:Middlewares/ST/STM32_USB_Device_Library/Class/MSC/Src/usbd_msc_scsi.c ****       SCSI_SenseCode(pdev, hmsc->cbw.bLUN, ILLEGAL_REQUEST, INVALID_CDB);
 891:Middlewares/ST/STM32_USB_Device_Library/Class/MSC/Src/usbd_msc_scsi.c ****       return -1;
 892:Middlewares/ST/STM32_USB_Device_Library/Class/MSC/Src/usbd_msc_scsi.c ****     }
 893:Middlewares/ST/STM32_USB_Device_Library/Class/MSC/Src/usbd_msc_scsi.c **** 
ARM GAS  D:\Temp\cclqlYRL.s 			page 18


 894:Middlewares/ST/STM32_USB_Device_Library/Class/MSC/Src/usbd_msc_scsi.c ****     len = MIN(len, MSC_MEDIA_PACKET);
 895:Middlewares/ST/STM32_USB_Device_Library/Class/MSC/Src/usbd_msc_scsi.c **** 
 896:Middlewares/ST/STM32_USB_Device_Library/Class/MSC/Src/usbd_msc_scsi.c ****     /* Prepare EP to receive first data packet */
 897:Middlewares/ST/STM32_USB_Device_Library/Class/MSC/Src/usbd_msc_scsi.c ****     hmsc->bot_state = USBD_BOT_DATA_OUT;
 898:Middlewares/ST/STM32_USB_Device_Library/Class/MSC/Src/usbd_msc_scsi.c ****     (void)USBD_LL_PrepareReceive(pdev, MSC_EPOUT_ADDR, hmsc->bot_data, len);
 899:Middlewares/ST/STM32_USB_Device_Library/Class/MSC/Src/usbd_msc_scsi.c ****   }
 900:Middlewares/ST/STM32_USB_Device_Library/Class/MSC/Src/usbd_msc_scsi.c ****   else /* Write Process ongoing */
 901:Middlewares/ST/STM32_USB_Device_Library/Class/MSC/Src/usbd_msc_scsi.c ****   {
 902:Middlewares/ST/STM32_USB_Device_Library/Class/MSC/Src/usbd_msc_scsi.c ****     return SCSI_ProcessWrite(pdev, lun);
 903:Middlewares/ST/STM32_USB_Device_Library/Class/MSC/Src/usbd_msc_scsi.c ****   }
 904:Middlewares/ST/STM32_USB_Device_Library/Class/MSC/Src/usbd_msc_scsi.c **** 
 905:Middlewares/ST/STM32_USB_Device_Library/Class/MSC/Src/usbd_msc_scsi.c ****   return 0;
 906:Middlewares/ST/STM32_USB_Device_Library/Class/MSC/Src/usbd_msc_scsi.c **** }
 907:Middlewares/ST/STM32_USB_Device_Library/Class/MSC/Src/usbd_msc_scsi.c **** 
 908:Middlewares/ST/STM32_USB_Device_Library/Class/MSC/Src/usbd_msc_scsi.c **** 
 909:Middlewares/ST/STM32_USB_Device_Library/Class/MSC/Src/usbd_msc_scsi.c **** /**
 910:Middlewares/ST/STM32_USB_Device_Library/Class/MSC/Src/usbd_msc_scsi.c **** * @brief  SCSI_Verify10
 911:Middlewares/ST/STM32_USB_Device_Library/Class/MSC/Src/usbd_msc_scsi.c **** *         Process Verify10 command
 912:Middlewares/ST/STM32_USB_Device_Library/Class/MSC/Src/usbd_msc_scsi.c **** * @param  lun: Logical unit number
 913:Middlewares/ST/STM32_USB_Device_Library/Class/MSC/Src/usbd_msc_scsi.c **** * @param  params: Command parameters
 914:Middlewares/ST/STM32_USB_Device_Library/Class/MSC/Src/usbd_msc_scsi.c **** * @retval status
 915:Middlewares/ST/STM32_USB_Device_Library/Class/MSC/Src/usbd_msc_scsi.c **** */
 916:Middlewares/ST/STM32_USB_Device_Library/Class/MSC/Src/usbd_msc_scsi.c **** static int8_t SCSI_Verify10(USBD_HandleTypeDef *pdev, uint8_t lun, uint8_t *params)
 917:Middlewares/ST/STM32_USB_Device_Library/Class/MSC/Src/usbd_msc_scsi.c **** {
 918:Middlewares/ST/STM32_USB_Device_Library/Class/MSC/Src/usbd_msc_scsi.c ****   USBD_MSC_BOT_HandleTypeDef *hmsc = (USBD_MSC_BOT_HandleTypeDef *)pdev->pClassData;
 919:Middlewares/ST/STM32_USB_Device_Library/Class/MSC/Src/usbd_msc_scsi.c **** 
 920:Middlewares/ST/STM32_USB_Device_Library/Class/MSC/Src/usbd_msc_scsi.c ****   if ((params[1] & 0x02U) == 0x02U)
 921:Middlewares/ST/STM32_USB_Device_Library/Class/MSC/Src/usbd_msc_scsi.c ****   {
 922:Middlewares/ST/STM32_USB_Device_Library/Class/MSC/Src/usbd_msc_scsi.c ****     SCSI_SenseCode(pdev, lun, ILLEGAL_REQUEST, INVALID_FIELED_IN_COMMAND);
 923:Middlewares/ST/STM32_USB_Device_Library/Class/MSC/Src/usbd_msc_scsi.c ****     return -1; /* Error, Verify Mode Not supported*/
 924:Middlewares/ST/STM32_USB_Device_Library/Class/MSC/Src/usbd_msc_scsi.c ****   }
 925:Middlewares/ST/STM32_USB_Device_Library/Class/MSC/Src/usbd_msc_scsi.c **** 
 926:Middlewares/ST/STM32_USB_Device_Library/Class/MSC/Src/usbd_msc_scsi.c ****   if (SCSI_CheckAddressRange(pdev, lun, hmsc->scsi_blk_addr, hmsc->scsi_blk_len) < 0)
 927:Middlewares/ST/STM32_USB_Device_Library/Class/MSC/Src/usbd_msc_scsi.c ****   {
 928:Middlewares/ST/STM32_USB_Device_Library/Class/MSC/Src/usbd_msc_scsi.c ****     return -1; /* error */
 929:Middlewares/ST/STM32_USB_Device_Library/Class/MSC/Src/usbd_msc_scsi.c ****   }
 930:Middlewares/ST/STM32_USB_Device_Library/Class/MSC/Src/usbd_msc_scsi.c **** 
 931:Middlewares/ST/STM32_USB_Device_Library/Class/MSC/Src/usbd_msc_scsi.c ****   hmsc->bot_data_length = 0U;
 932:Middlewares/ST/STM32_USB_Device_Library/Class/MSC/Src/usbd_msc_scsi.c **** 
 933:Middlewares/ST/STM32_USB_Device_Library/Class/MSC/Src/usbd_msc_scsi.c ****   return 0;
 934:Middlewares/ST/STM32_USB_Device_Library/Class/MSC/Src/usbd_msc_scsi.c **** }
 935:Middlewares/ST/STM32_USB_Device_Library/Class/MSC/Src/usbd_msc_scsi.c **** 
 936:Middlewares/ST/STM32_USB_Device_Library/Class/MSC/Src/usbd_msc_scsi.c **** /**
 937:Middlewares/ST/STM32_USB_Device_Library/Class/MSC/Src/usbd_msc_scsi.c **** * @brief  SCSI_CheckAddressRange
 938:Middlewares/ST/STM32_USB_Device_Library/Class/MSC/Src/usbd_msc_scsi.c **** *         Check address range
 939:Middlewares/ST/STM32_USB_Device_Library/Class/MSC/Src/usbd_msc_scsi.c **** * @param  lun: Logical unit number
 940:Middlewares/ST/STM32_USB_Device_Library/Class/MSC/Src/usbd_msc_scsi.c **** * @param  blk_offset: first block address
 941:Middlewares/ST/STM32_USB_Device_Library/Class/MSC/Src/usbd_msc_scsi.c **** * @param  blk_nbr: number of block to be processed
 942:Middlewares/ST/STM32_USB_Device_Library/Class/MSC/Src/usbd_msc_scsi.c **** * @retval status
 943:Middlewares/ST/STM32_USB_Device_Library/Class/MSC/Src/usbd_msc_scsi.c **** */
 944:Middlewares/ST/STM32_USB_Device_Library/Class/MSC/Src/usbd_msc_scsi.c **** static int8_t SCSI_CheckAddressRange(USBD_HandleTypeDef *pdev, uint8_t lun,
 945:Middlewares/ST/STM32_USB_Device_Library/Class/MSC/Src/usbd_msc_scsi.c ****                                      uint32_t blk_offset, uint32_t blk_nbr)
 946:Middlewares/ST/STM32_USB_Device_Library/Class/MSC/Src/usbd_msc_scsi.c **** {
 947:Middlewares/ST/STM32_USB_Device_Library/Class/MSC/Src/usbd_msc_scsi.c ****   USBD_MSC_BOT_HandleTypeDef *hmsc = (USBD_MSC_BOT_HandleTypeDef *)pdev->pClassData;
 948:Middlewares/ST/STM32_USB_Device_Library/Class/MSC/Src/usbd_msc_scsi.c **** 
 949:Middlewares/ST/STM32_USB_Device_Library/Class/MSC/Src/usbd_msc_scsi.c ****   if ((blk_offset + blk_nbr) > hmsc->scsi_blk_nbr)
 950:Middlewares/ST/STM32_USB_Device_Library/Class/MSC/Src/usbd_msc_scsi.c ****   {
ARM GAS  D:\Temp\cclqlYRL.s 			page 19


 951:Middlewares/ST/STM32_USB_Device_Library/Class/MSC/Src/usbd_msc_scsi.c ****     SCSI_SenseCode(pdev, lun, ILLEGAL_REQUEST, ADDRESS_OUT_OF_RANGE);
 952:Middlewares/ST/STM32_USB_Device_Library/Class/MSC/Src/usbd_msc_scsi.c ****     return -1;
 953:Middlewares/ST/STM32_USB_Device_Library/Class/MSC/Src/usbd_msc_scsi.c ****   }
 954:Middlewares/ST/STM32_USB_Device_Library/Class/MSC/Src/usbd_msc_scsi.c **** 
 955:Middlewares/ST/STM32_USB_Device_Library/Class/MSC/Src/usbd_msc_scsi.c ****   return 0;
 956:Middlewares/ST/STM32_USB_Device_Library/Class/MSC/Src/usbd_msc_scsi.c **** }
 957:Middlewares/ST/STM32_USB_Device_Library/Class/MSC/Src/usbd_msc_scsi.c **** 
 958:Middlewares/ST/STM32_USB_Device_Library/Class/MSC/Src/usbd_msc_scsi.c **** /**
 959:Middlewares/ST/STM32_USB_Device_Library/Class/MSC/Src/usbd_msc_scsi.c **** * @brief  SCSI_ProcessRead
 960:Middlewares/ST/STM32_USB_Device_Library/Class/MSC/Src/usbd_msc_scsi.c **** *         Handle Read Process
 961:Middlewares/ST/STM32_USB_Device_Library/Class/MSC/Src/usbd_msc_scsi.c **** * @param  lun: Logical unit number
 962:Middlewares/ST/STM32_USB_Device_Library/Class/MSC/Src/usbd_msc_scsi.c **** * @retval status
 963:Middlewares/ST/STM32_USB_Device_Library/Class/MSC/Src/usbd_msc_scsi.c **** */
 964:Middlewares/ST/STM32_USB_Device_Library/Class/MSC/Src/usbd_msc_scsi.c **** static int8_t SCSI_ProcessRead(USBD_HandleTypeDef *pdev, uint8_t lun)
 965:Middlewares/ST/STM32_USB_Device_Library/Class/MSC/Src/usbd_msc_scsi.c **** {
 966:Middlewares/ST/STM32_USB_Device_Library/Class/MSC/Src/usbd_msc_scsi.c ****   USBD_MSC_BOT_HandleTypeDef *hmsc = (USBD_MSC_BOT_HandleTypeDef *)pdev->pClassData;
 967:Middlewares/ST/STM32_USB_Device_Library/Class/MSC/Src/usbd_msc_scsi.c ****   uint32_t len = hmsc->scsi_blk_len * hmsc->scsi_blk_size;
 968:Middlewares/ST/STM32_USB_Device_Library/Class/MSC/Src/usbd_msc_scsi.c **** 
 969:Middlewares/ST/STM32_USB_Device_Library/Class/MSC/Src/usbd_msc_scsi.c ****   len = MIN(len, MSC_MEDIA_PACKET);
 970:Middlewares/ST/STM32_USB_Device_Library/Class/MSC/Src/usbd_msc_scsi.c **** 
 971:Middlewares/ST/STM32_USB_Device_Library/Class/MSC/Src/usbd_msc_scsi.c ****   if (((USBD_StorageTypeDef *)pdev->pUserData)->Read(lun, hmsc->bot_data,
 972:Middlewares/ST/STM32_USB_Device_Library/Class/MSC/Src/usbd_msc_scsi.c ****                                                      hmsc->scsi_blk_addr,
 973:Middlewares/ST/STM32_USB_Device_Library/Class/MSC/Src/usbd_msc_scsi.c ****                                                      (len / hmsc->scsi_blk_size)) < 0)
 974:Middlewares/ST/STM32_USB_Device_Library/Class/MSC/Src/usbd_msc_scsi.c ****   {
 975:Middlewares/ST/STM32_USB_Device_Library/Class/MSC/Src/usbd_msc_scsi.c ****     SCSI_SenseCode(pdev, lun, HARDWARE_ERROR, UNRECOVERED_READ_ERROR);
 976:Middlewares/ST/STM32_USB_Device_Library/Class/MSC/Src/usbd_msc_scsi.c ****     return -1;
 977:Middlewares/ST/STM32_USB_Device_Library/Class/MSC/Src/usbd_msc_scsi.c ****   }
 978:Middlewares/ST/STM32_USB_Device_Library/Class/MSC/Src/usbd_msc_scsi.c **** 
 979:Middlewares/ST/STM32_USB_Device_Library/Class/MSC/Src/usbd_msc_scsi.c ****   (void)USBD_LL_Transmit(pdev, MSC_EPIN_ADDR, hmsc->bot_data, len);
 980:Middlewares/ST/STM32_USB_Device_Library/Class/MSC/Src/usbd_msc_scsi.c **** 
 981:Middlewares/ST/STM32_USB_Device_Library/Class/MSC/Src/usbd_msc_scsi.c ****   hmsc->scsi_blk_addr += (len / hmsc->scsi_blk_size);
 982:Middlewares/ST/STM32_USB_Device_Library/Class/MSC/Src/usbd_msc_scsi.c ****   hmsc->scsi_blk_len -= (len / hmsc->scsi_blk_size);
 983:Middlewares/ST/STM32_USB_Device_Library/Class/MSC/Src/usbd_msc_scsi.c **** 
 984:Middlewares/ST/STM32_USB_Device_Library/Class/MSC/Src/usbd_msc_scsi.c ****   /* case 6 : Hi = Di */
 985:Middlewares/ST/STM32_USB_Device_Library/Class/MSC/Src/usbd_msc_scsi.c ****   hmsc->csw.dDataResidue -= len;
 986:Middlewares/ST/STM32_USB_Device_Library/Class/MSC/Src/usbd_msc_scsi.c **** 
 987:Middlewares/ST/STM32_USB_Device_Library/Class/MSC/Src/usbd_msc_scsi.c ****   if (hmsc->scsi_blk_len == 0U)
 988:Middlewares/ST/STM32_USB_Device_Library/Class/MSC/Src/usbd_msc_scsi.c ****   {
 989:Middlewares/ST/STM32_USB_Device_Library/Class/MSC/Src/usbd_msc_scsi.c ****     hmsc->bot_state = USBD_BOT_LAST_DATA_IN;
 990:Middlewares/ST/STM32_USB_Device_Library/Class/MSC/Src/usbd_msc_scsi.c ****   }
 991:Middlewares/ST/STM32_USB_Device_Library/Class/MSC/Src/usbd_msc_scsi.c **** 
 992:Middlewares/ST/STM32_USB_Device_Library/Class/MSC/Src/usbd_msc_scsi.c ****   return 0;
 993:Middlewares/ST/STM32_USB_Device_Library/Class/MSC/Src/usbd_msc_scsi.c **** }
 994:Middlewares/ST/STM32_USB_Device_Library/Class/MSC/Src/usbd_msc_scsi.c **** 
 995:Middlewares/ST/STM32_USB_Device_Library/Class/MSC/Src/usbd_msc_scsi.c **** /**
 996:Middlewares/ST/STM32_USB_Device_Library/Class/MSC/Src/usbd_msc_scsi.c **** * @brief  SCSI_ProcessWrite
 997:Middlewares/ST/STM32_USB_Device_Library/Class/MSC/Src/usbd_msc_scsi.c **** *         Handle Write Process
 998:Middlewares/ST/STM32_USB_Device_Library/Class/MSC/Src/usbd_msc_scsi.c **** * @param  lun: Logical unit number
 999:Middlewares/ST/STM32_USB_Device_Library/Class/MSC/Src/usbd_msc_scsi.c **** * @retval status
1000:Middlewares/ST/STM32_USB_Device_Library/Class/MSC/Src/usbd_msc_scsi.c **** */
1001:Middlewares/ST/STM32_USB_Device_Library/Class/MSC/Src/usbd_msc_scsi.c **** static int8_t SCSI_ProcessWrite(USBD_HandleTypeDef *pdev, uint8_t lun)
1002:Middlewares/ST/STM32_USB_Device_Library/Class/MSC/Src/usbd_msc_scsi.c **** {
1003:Middlewares/ST/STM32_USB_Device_Library/Class/MSC/Src/usbd_msc_scsi.c ****   USBD_MSC_BOT_HandleTypeDef *hmsc = (USBD_MSC_BOT_HandleTypeDef *)pdev->pClassData;
1004:Middlewares/ST/STM32_USB_Device_Library/Class/MSC/Src/usbd_msc_scsi.c ****   uint32_t len = hmsc->scsi_blk_len * hmsc->scsi_blk_size;
1005:Middlewares/ST/STM32_USB_Device_Library/Class/MSC/Src/usbd_msc_scsi.c **** 
1006:Middlewares/ST/STM32_USB_Device_Library/Class/MSC/Src/usbd_msc_scsi.c ****   len = MIN(len, MSC_MEDIA_PACKET);
1007:Middlewares/ST/STM32_USB_Device_Library/Class/MSC/Src/usbd_msc_scsi.c **** 
ARM GAS  D:\Temp\cclqlYRL.s 			page 20


1008:Middlewares/ST/STM32_USB_Device_Library/Class/MSC/Src/usbd_msc_scsi.c ****   if (((USBD_StorageTypeDef *)pdev->pUserData)->Write(lun, hmsc->bot_data,
1009:Middlewares/ST/STM32_USB_Device_Library/Class/MSC/Src/usbd_msc_scsi.c ****                                                       hmsc->scsi_blk_addr,
1010:Middlewares/ST/STM32_USB_Device_Library/Class/MSC/Src/usbd_msc_scsi.c ****                                                       (len / hmsc->scsi_blk_size)) < 0)
1011:Middlewares/ST/STM32_USB_Device_Library/Class/MSC/Src/usbd_msc_scsi.c ****   {
1012:Middlewares/ST/STM32_USB_Device_Library/Class/MSC/Src/usbd_msc_scsi.c ****     SCSI_SenseCode(pdev, lun, HARDWARE_ERROR, WRITE_FAULT);
1013:Middlewares/ST/STM32_USB_Device_Library/Class/MSC/Src/usbd_msc_scsi.c ****     return -1;
1014:Middlewares/ST/STM32_USB_Device_Library/Class/MSC/Src/usbd_msc_scsi.c ****   }
1015:Middlewares/ST/STM32_USB_Device_Library/Class/MSC/Src/usbd_msc_scsi.c **** 
1016:Middlewares/ST/STM32_USB_Device_Library/Class/MSC/Src/usbd_msc_scsi.c ****   hmsc->scsi_blk_addr += (len / hmsc->scsi_blk_size);
1017:Middlewares/ST/STM32_USB_Device_Library/Class/MSC/Src/usbd_msc_scsi.c ****   hmsc->scsi_blk_len -= (len / hmsc->scsi_blk_size);
1018:Middlewares/ST/STM32_USB_Device_Library/Class/MSC/Src/usbd_msc_scsi.c **** 
1019:Middlewares/ST/STM32_USB_Device_Library/Class/MSC/Src/usbd_msc_scsi.c ****   /* case 12 : Ho = Do */
1020:Middlewares/ST/STM32_USB_Device_Library/Class/MSC/Src/usbd_msc_scsi.c ****   hmsc->csw.dDataResidue -= len;
1021:Middlewares/ST/STM32_USB_Device_Library/Class/MSC/Src/usbd_msc_scsi.c **** 
1022:Middlewares/ST/STM32_USB_Device_Library/Class/MSC/Src/usbd_msc_scsi.c ****   if (hmsc->scsi_blk_len == 0U)
1023:Middlewares/ST/STM32_USB_Device_Library/Class/MSC/Src/usbd_msc_scsi.c ****   {
1024:Middlewares/ST/STM32_USB_Device_Library/Class/MSC/Src/usbd_msc_scsi.c ****     MSC_BOT_SendCSW(pdev, USBD_CSW_CMD_PASSED);
1025:Middlewares/ST/STM32_USB_Device_Library/Class/MSC/Src/usbd_msc_scsi.c ****   }
1026:Middlewares/ST/STM32_USB_Device_Library/Class/MSC/Src/usbd_msc_scsi.c ****   else
1027:Middlewares/ST/STM32_USB_Device_Library/Class/MSC/Src/usbd_msc_scsi.c ****   {
1028:Middlewares/ST/STM32_USB_Device_Library/Class/MSC/Src/usbd_msc_scsi.c ****     len = MIN((hmsc->scsi_blk_len * hmsc->scsi_blk_size), MSC_MEDIA_PACKET);
1029:Middlewares/ST/STM32_USB_Device_Library/Class/MSC/Src/usbd_msc_scsi.c **** 
1030:Middlewares/ST/STM32_USB_Device_Library/Class/MSC/Src/usbd_msc_scsi.c ****     /* Prepare EP to Receive next packet */
1031:Middlewares/ST/STM32_USB_Device_Library/Class/MSC/Src/usbd_msc_scsi.c ****     (void)USBD_LL_PrepareReceive(pdev, MSC_EPOUT_ADDR, hmsc->bot_data, len);
1032:Middlewares/ST/STM32_USB_Device_Library/Class/MSC/Src/usbd_msc_scsi.c ****   }
1033:Middlewares/ST/STM32_USB_Device_Library/Class/MSC/Src/usbd_msc_scsi.c **** 
1034:Middlewares/ST/STM32_USB_Device_Library/Class/MSC/Src/usbd_msc_scsi.c ****   return 0;
1035:Middlewares/ST/STM32_USB_Device_Library/Class/MSC/Src/usbd_msc_scsi.c **** }
1036:Middlewares/ST/STM32_USB_Device_Library/Class/MSC/Src/usbd_msc_scsi.c **** 
1037:Middlewares/ST/STM32_USB_Device_Library/Class/MSC/Src/usbd_msc_scsi.c **** 
1038:Middlewares/ST/STM32_USB_Device_Library/Class/MSC/Src/usbd_msc_scsi.c **** /**
1039:Middlewares/ST/STM32_USB_Device_Library/Class/MSC/Src/usbd_msc_scsi.c **** * @brief  SCSI_UpdateBotData
1040:Middlewares/ST/STM32_USB_Device_Library/Class/MSC/Src/usbd_msc_scsi.c **** *         fill the requested Data to transmit buffer
1041:Middlewares/ST/STM32_USB_Device_Library/Class/MSC/Src/usbd_msc_scsi.c **** * @param  hmsc handler
1042:Middlewares/ST/STM32_USB_Device_Library/Class/MSC/Src/usbd_msc_scsi.c **** * @param  params: Data buffer
1043:Middlewares/ST/STM32_USB_Device_Library/Class/MSC/Src/usbd_msc_scsi.c **** * @param  length: Data length
1044:Middlewares/ST/STM32_USB_Device_Library/Class/MSC/Src/usbd_msc_scsi.c **** * @retval status
1045:Middlewares/ST/STM32_USB_Device_Library/Class/MSC/Src/usbd_msc_scsi.c **** */
1046:Middlewares/ST/STM32_USB_Device_Library/Class/MSC/Src/usbd_msc_scsi.c **** static int8_t SCSI_UpdateBotData(USBD_MSC_BOT_HandleTypeDef *hmsc,
1047:Middlewares/ST/STM32_USB_Device_Library/Class/MSC/Src/usbd_msc_scsi.c ****                                  uint8_t *pBuff, uint16_t length)
1048:Middlewares/ST/STM32_USB_Device_Library/Class/MSC/Src/usbd_msc_scsi.c **** {
  78              		.loc 1 1048 1 is_stmt 1 view -0
  79              		.cfi_startproc
  80              		@ args = 0, pretend = 0, frame = 0
  81              		@ frame_needed = 0, uses_anonymous_args = 0
  82              		@ link register save eliminated.
1049:Middlewares/ST/STM32_USB_Device_Library/Class/MSC/Src/usbd_msc_scsi.c ****   uint16_t len = length;
  83              		.loc 1 1049 3 view .LVU17
1050:Middlewares/ST/STM32_USB_Device_Library/Class/MSC/Src/usbd_msc_scsi.c **** 
1051:Middlewares/ST/STM32_USB_Device_Library/Class/MSC/Src/usbd_msc_scsi.c ****   hmsc->bot_data_length = len;
  84              		.loc 1 1051 3 view .LVU18
  85              		.loc 1 1051 25 is_stmt 0 view .LVU19
  86 0000 C260     		str	r2, [r0, #12]
1052:Middlewares/ST/STM32_USB_Device_Library/Class/MSC/Src/usbd_msc_scsi.c **** 
1053:Middlewares/ST/STM32_USB_Device_Library/Class/MSC/Src/usbd_msc_scsi.c ****   while (len != 0U)
  87              		.loc 1 1053 3 is_stmt 1 view .LVU20
  88              		.loc 1 1053 9 is_stmt 0 view .LVU21
ARM GAS  D:\Temp\cclqlYRL.s 			page 21


  89 0002 5AB1     		cbz	r2, .L11
1048:Middlewares/ST/STM32_USB_Device_Library/Class/MSC/Src/usbd_msc_scsi.c ****   uint16_t len = length;
  90              		.loc 1 1048 1 view .LVU22
  91 0004 10B4     		push	{r4}
  92              	.LCFI0:
  93              		.cfi_def_cfa_offset 4
  94              		.cfi_offset 4, -4
  95              	.LVL6:
  96              	.L6:
1054:Middlewares/ST/STM32_USB_Device_Library/Class/MSC/Src/usbd_msc_scsi.c ****   {
1055:Middlewares/ST/STM32_USB_Device_Library/Class/MSC/Src/usbd_msc_scsi.c ****     len--;
  97              		.loc 1 1055 5 is_stmt 1 view .LVU23
  98              		.loc 1 1055 8 is_stmt 0 view .LVU24
  99 0006 013A     		subs	r2, r2, #1
 100              	.LVL7:
 101              		.loc 1 1055 8 view .LVU25
 102 0008 92B2     		uxth	r2, r2
 103              	.LVL8:
1056:Middlewares/ST/STM32_USB_Device_Library/Class/MSC/Src/usbd_msc_scsi.c ****     hmsc->bot_data[len] = pBuff[len];
 104              		.loc 1 1056 5 is_stmt 1 view .LVU26
 105              		.loc 1 1056 32 is_stmt 0 view .LVU27
 106 000a 8C5C     		ldrb	r4, [r1, r2]	@ zero_extendqisi2
 107              		.loc 1 1056 25 view .LVU28
 108 000c 8318     		adds	r3, r0, r2
 109 000e 1C74     		strb	r4, [r3, #16]
1053:Middlewares/ST/STM32_USB_Device_Library/Class/MSC/Src/usbd_msc_scsi.c ****   {
 110              		.loc 1 1053 9 view .LVU29
 111 0010 002A     		cmp	r2, #0
 112 0012 F8D1     		bne	.L6
1057:Middlewares/ST/STM32_USB_Device_Library/Class/MSC/Src/usbd_msc_scsi.c ****   }
1058:Middlewares/ST/STM32_USB_Device_Library/Class/MSC/Src/usbd_msc_scsi.c **** 
1059:Middlewares/ST/STM32_USB_Device_Library/Class/MSC/Src/usbd_msc_scsi.c ****   return 0;
 113              		.loc 1 1059 3 is_stmt 1 view .LVU30
1060:Middlewares/ST/STM32_USB_Device_Library/Class/MSC/Src/usbd_msc_scsi.c **** }
 114              		.loc 1 1060 1 is_stmt 0 view .LVU31
 115 0014 0020     		movs	r0, #0
 116              	.LVL9:
 117              		.loc 1 1060 1 view .LVU32
 118 0016 5DF8044B 		ldr	r4, [sp], #4
 119              	.LCFI1:
 120              		.cfi_restore 4
 121              		.cfi_def_cfa_offset 0
 122 001a 7047     		bx	lr
 123              	.LVL10:
 124              	.L11:
1059:Middlewares/ST/STM32_USB_Device_Library/Class/MSC/Src/usbd_msc_scsi.c **** }
 125              		.loc 1 1059 3 is_stmt 1 view .LVU33
 126              		.loc 1 1060 1 is_stmt 0 view .LVU34
 127 001c 0020     		movs	r0, #0
 128              	.LVL11:
 129              		.loc 1 1060 1 view .LVU35
 130 001e 7047     		bx	lr
 131              		.cfi_endproc
 132              	.LFE154:
 134              		.section	.text.SCSI_ModeSense6,"ax",%progbits
 135              		.align	1
 136              		.syntax unified
ARM GAS  D:\Temp\cclqlYRL.s 			page 22


 137              		.thumb
 138              		.thumb_func
 139              		.fpu fpv4-sp-d16
 141              	SCSI_ModeSense6:
 142              	.LVL12:
 143              	.LFB140:
 436:Middlewares/ST/STM32_USB_Device_Library/Class/MSC/Src/usbd_msc_scsi.c ****   UNUSED(lun);
 144              		.loc 1 436 1 is_stmt 1 view -0
 145              		.cfi_startproc
 146              		@ args = 0, pretend = 0, frame = 0
 147              		@ frame_needed = 0, uses_anonymous_args = 0
 436:Middlewares/ST/STM32_USB_Device_Library/Class/MSC/Src/usbd_msc_scsi.c ****   UNUSED(lun);
 148              		.loc 1 436 1 is_stmt 0 view .LVU37
 149 0000 08B5     		push	{r3, lr}
 150              	.LCFI2:
 151              		.cfi_def_cfa_offset 8
 152              		.cfi_offset 3, -8
 153              		.cfi_offset 14, -4
 437:Middlewares/ST/STM32_USB_Device_Library/Class/MSC/Src/usbd_msc_scsi.c ****   USBD_MSC_BOT_HandleTypeDef *hmsc = (USBD_MSC_BOT_HandleTypeDef *)pdev->pClassData;
 154              		.loc 1 437 3 is_stmt 1 view .LVU38
 438:Middlewares/ST/STM32_USB_Device_Library/Class/MSC/Src/usbd_msc_scsi.c ****   uint16_t len = MODE_SENSE6_LEN;
 155              		.loc 1 438 3 view .LVU39
 438:Middlewares/ST/STM32_USB_Device_Library/Class/MSC/Src/usbd_msc_scsi.c ****   uint16_t len = MODE_SENSE6_LEN;
 156              		.loc 1 438 31 is_stmt 0 view .LVU40
 157 0002 D0F8BC02 		ldr	r0, [r0, #700]
 158              	.LVL13:
 439:Middlewares/ST/STM32_USB_Device_Library/Class/MSC/Src/usbd_msc_scsi.c **** 
 159              		.loc 1 439 3 is_stmt 1 view .LVU41
 441:Middlewares/ST/STM32_USB_Device_Library/Class/MSC/Src/usbd_msc_scsi.c ****   {
 160              		.loc 1 441 3 view .LVU42
 441:Middlewares/ST/STM32_USB_Device_Library/Class/MSC/Src/usbd_msc_scsi.c ****   {
 161              		.loc 1 441 13 is_stmt 0 view .LVU43
 162 0006 1379     		ldrb	r3, [r2, #4]	@ zero_extendqisi2
 163 0008 9AB2     		uxth	r2, r3
 164              	.LVL14:
 441:Middlewares/ST/STM32_USB_Device_Library/Class/MSC/Src/usbd_msc_scsi.c ****   {
 165              		.loc 1 441 6 view .LVU44
 166 000a 172B     		cmp	r3, #23
 167 000c 00D9     		bls	.L13
 439:Middlewares/ST/STM32_USB_Device_Library/Class/MSC/Src/usbd_msc_scsi.c **** 
 168              		.loc 1 439 12 view .LVU45
 169 000e 1722     		movs	r2, #23
 170              	.L13:
 171              	.LVL15:
 446:Middlewares/ST/STM32_USB_Device_Library/Class/MSC/Src/usbd_msc_scsi.c **** 
 172              		.loc 1 446 3 is_stmt 1 view .LVU46
 446:Middlewares/ST/STM32_USB_Device_Library/Class/MSC/Src/usbd_msc_scsi.c **** 
 173              		.loc 1 446 9 is_stmt 0 view .LVU47
 174 0010 0249     		ldr	r1, .L15
 175              	.LVL16:
 446:Middlewares/ST/STM32_USB_Device_Library/Class/MSC/Src/usbd_msc_scsi.c **** 
 176              		.loc 1 446 9 view .LVU48
 177 0012 FFF7FEFF 		bl	SCSI_UpdateBotData
 178              	.LVL17:
 448:Middlewares/ST/STM32_USB_Device_Library/Class/MSC/Src/usbd_msc_scsi.c **** }
 179              		.loc 1 448 3 is_stmt 1 view .LVU49
 449:Middlewares/ST/STM32_USB_Device_Library/Class/MSC/Src/usbd_msc_scsi.c **** 
ARM GAS  D:\Temp\cclqlYRL.s 			page 23


 180              		.loc 1 449 1 is_stmt 0 view .LVU50
 181 0016 0020     		movs	r0, #0
 182 0018 08BD     		pop	{r3, pc}
 183              	.L16:
 184 001a 00BF     		.align	2
 185              	.L15:
 186 001c 00000000 		.word	MSC_Mode_Sense6_data
 187              		.cfi_endproc
 188              	.LFE140:
 190              		.section	.text.SCSI_ModeSense10,"ax",%progbits
 191              		.align	1
 192              		.syntax unified
 193              		.thumb
 194              		.thumb_func
 195              		.fpu fpv4-sp-d16
 197              	SCSI_ModeSense10:
 198              	.LVL18:
 199              	.LFB141:
 460:Middlewares/ST/STM32_USB_Device_Library/Class/MSC/Src/usbd_msc_scsi.c ****   UNUSED(lun);
 200              		.loc 1 460 1 is_stmt 1 view -0
 201              		.cfi_startproc
 202              		@ args = 0, pretend = 0, frame = 0
 203              		@ frame_needed = 0, uses_anonymous_args = 0
 460:Middlewares/ST/STM32_USB_Device_Library/Class/MSC/Src/usbd_msc_scsi.c ****   UNUSED(lun);
 204              		.loc 1 460 1 is_stmt 0 view .LVU52
 205 0000 08B5     		push	{r3, lr}
 206              	.LCFI3:
 207              		.cfi_def_cfa_offset 8
 208              		.cfi_offset 3, -8
 209              		.cfi_offset 14, -4
 461:Middlewares/ST/STM32_USB_Device_Library/Class/MSC/Src/usbd_msc_scsi.c ****   USBD_MSC_BOT_HandleTypeDef *hmsc = (USBD_MSC_BOT_HandleTypeDef *)pdev->pClassData;
 210              		.loc 1 461 3 is_stmt 1 view .LVU53
 462:Middlewares/ST/STM32_USB_Device_Library/Class/MSC/Src/usbd_msc_scsi.c ****   uint16_t len = MODE_SENSE10_LEN;
 211              		.loc 1 462 3 view .LVU54
 462:Middlewares/ST/STM32_USB_Device_Library/Class/MSC/Src/usbd_msc_scsi.c ****   uint16_t len = MODE_SENSE10_LEN;
 212              		.loc 1 462 31 is_stmt 0 view .LVU55
 213 0002 D0F8BC02 		ldr	r0, [r0, #700]
 214              	.LVL19:
 463:Middlewares/ST/STM32_USB_Device_Library/Class/MSC/Src/usbd_msc_scsi.c **** 
 215              		.loc 1 463 3 is_stmt 1 view .LVU56
 465:Middlewares/ST/STM32_USB_Device_Library/Class/MSC/Src/usbd_msc_scsi.c ****   {
 216              		.loc 1 465 3 view .LVU57
 465:Middlewares/ST/STM32_USB_Device_Library/Class/MSC/Src/usbd_msc_scsi.c ****   {
 217              		.loc 1 465 13 is_stmt 0 view .LVU58
 218 0006 137A     		ldrb	r3, [r2, #8]	@ zero_extendqisi2
 219 0008 9AB2     		uxth	r2, r3
 220              	.LVL20:
 465:Middlewares/ST/STM32_USB_Device_Library/Class/MSC/Src/usbd_msc_scsi.c ****   {
 221              		.loc 1 465 6 view .LVU59
 222 000a 1B2B     		cmp	r3, #27
 223 000c 00D9     		bls	.L18
 463:Middlewares/ST/STM32_USB_Device_Library/Class/MSC/Src/usbd_msc_scsi.c **** 
 224              		.loc 1 463 12 view .LVU60
 225 000e 1B22     		movs	r2, #27
 226              	.L18:
 227              	.LVL21:
 470:Middlewares/ST/STM32_USB_Device_Library/Class/MSC/Src/usbd_msc_scsi.c **** 
ARM GAS  D:\Temp\cclqlYRL.s 			page 24


 228              		.loc 1 470 3 is_stmt 1 view .LVU61
 470:Middlewares/ST/STM32_USB_Device_Library/Class/MSC/Src/usbd_msc_scsi.c **** 
 229              		.loc 1 470 9 is_stmt 0 view .LVU62
 230 0010 0249     		ldr	r1, .L20
 231              	.LVL22:
 470:Middlewares/ST/STM32_USB_Device_Library/Class/MSC/Src/usbd_msc_scsi.c **** 
 232              		.loc 1 470 9 view .LVU63
 233 0012 FFF7FEFF 		bl	SCSI_UpdateBotData
 234              	.LVL23:
 472:Middlewares/ST/STM32_USB_Device_Library/Class/MSC/Src/usbd_msc_scsi.c **** }
 235              		.loc 1 472 3 is_stmt 1 view .LVU64
 473:Middlewares/ST/STM32_USB_Device_Library/Class/MSC/Src/usbd_msc_scsi.c **** 
 236              		.loc 1 473 1 is_stmt 0 view .LVU65
 237 0016 0020     		movs	r0, #0
 238 0018 08BD     		pop	{r3, pc}
 239              	.L21:
 240 001a 00BF     		.align	2
 241              	.L20:
 242 001c 00000000 		.word	MSC_Mode_Sense10_data
 243              		.cfi_endproc
 244              	.LFE141:
 246              		.section	.text.SCSI_SenseCode,"ax",%progbits
 247              		.align	1
 248              		.global	SCSI_SenseCode
 249              		.syntax unified
 250              		.thumb
 251              		.thumb_func
 252              		.fpu fpv4-sp-d16
 254              	SCSI_SenseCode:
 255              	.LVL24:
 256              	.LFB143:
 537:Middlewares/ST/STM32_USB_Device_Library/Class/MSC/Src/usbd_msc_scsi.c ****   UNUSED(lun);
 257              		.loc 1 537 1 is_stmt 1 view -0
 258              		.cfi_startproc
 259              		@ args = 0, pretend = 0, frame = 0
 260              		@ frame_needed = 0, uses_anonymous_args = 0
 261              		@ link register save eliminated.
 537:Middlewares/ST/STM32_USB_Device_Library/Class/MSC/Src/usbd_msc_scsi.c ****   UNUSED(lun);
 262              		.loc 1 537 1 is_stmt 0 view .LVU67
 263 0000 10B4     		push	{r4}
 264              	.LCFI4:
 265              		.cfi_def_cfa_offset 4
 266              		.cfi_offset 4, -4
 538:Middlewares/ST/STM32_USB_Device_Library/Class/MSC/Src/usbd_msc_scsi.c ****   USBD_MSC_BOT_HandleTypeDef *hmsc = (USBD_MSC_BOT_HandleTypeDef *)pdev->pClassData;
 267              		.loc 1 538 3 is_stmt 1 view .LVU68
 539:Middlewares/ST/STM32_USB_Device_Library/Class/MSC/Src/usbd_msc_scsi.c **** 
 268              		.loc 1 539 3 view .LVU69
 539:Middlewares/ST/STM32_USB_Device_Library/Class/MSC/Src/usbd_msc_scsi.c **** 
 269              		.loc 1 539 31 is_stmt 0 view .LVU70
 270 0002 D0F8BC42 		ldr	r4, [r0, #700]
 271              	.LVL25:
 541:Middlewares/ST/STM32_USB_Device_Library/Class/MSC/Src/usbd_msc_scsi.c ****   hmsc->scsi_sense[hmsc->scsi_sense_tail].w.b.ASC = ASC;
 272              		.loc 1 541 3 is_stmt 1 view .LVU71
 541:Middlewares/ST/STM32_USB_Device_Library/Class/MSC/Src/usbd_msc_scsi.c ****   hmsc->scsi_sense[hmsc->scsi_sense_tail].w.b.ASC = ASC;
 273              		.loc 1 541 24 is_stmt 0 view .LVU72
 274 0006 94F86112 		ldrb	r1, [r4, #609]	@ zero_extendqisi2
 275              	.LVL26:
ARM GAS  D:\Temp\cclqlYRL.s 			page 25


 541:Middlewares/ST/STM32_USB_Device_Library/Class/MSC/Src/usbd_msc_scsi.c ****   hmsc->scsi_sense[hmsc->scsi_sense_tail].w.b.ASC = ASC;
 276              		.loc 1 541 48 view .LVU73
 277 000a 01F14800 		add	r0, r1, #72
 278              	.LVL27:
 541:Middlewares/ST/STM32_USB_Device_Library/Class/MSC/Src/usbd_msc_scsi.c ****   hmsc->scsi_sense[hmsc->scsi_sense_tail].w.b.ASC = ASC;
 279              		.loc 1 541 48 view .LVU74
 280 000e 04F83020 		strb	r2, [r4, r0, lsl #3]
 542:Middlewares/ST/STM32_USB_Device_Library/Class/MSC/Src/usbd_msc_scsi.c ****   hmsc->scsi_sense[hmsc->scsi_sense_tail].w.b.ASCQ = 0U;
 281              		.loc 1 542 3 is_stmt 1 view .LVU75
 542:Middlewares/ST/STM32_USB_Device_Library/Class/MSC/Src/usbd_msc_scsi.c ****   hmsc->scsi_sense[hmsc->scsi_sense_tail].w.b.ASCQ = 0U;
 282              		.loc 1 542 51 is_stmt 0 view .LVU76
 283 0012 04EBC000 		add	r0, r4, r0, lsl #3
 284 0016 0371     		strb	r3, [r0, #4]
 543:Middlewares/ST/STM32_USB_Device_Library/Class/MSC/Src/usbd_msc_scsi.c ****   hmsc->scsi_sense_tail++;
 285              		.loc 1 543 3 is_stmt 1 view .LVU77
 543:Middlewares/ST/STM32_USB_Device_Library/Class/MSC/Src/usbd_msc_scsi.c ****   hmsc->scsi_sense_tail++;
 286              		.loc 1 543 52 is_stmt 0 view .LVU78
 287 0018 0023     		movs	r3, #0
 288              	.LVL28:
 543:Middlewares/ST/STM32_USB_Device_Library/Class/MSC/Src/usbd_msc_scsi.c ****   hmsc->scsi_sense_tail++;
 289              		.loc 1 543 52 view .LVU79
 290 001a 4371     		strb	r3, [r0, #5]
 544:Middlewares/ST/STM32_USB_Device_Library/Class/MSC/Src/usbd_msc_scsi.c **** 
 291              		.loc 1 544 3 is_stmt 1 view .LVU80
 544:Middlewares/ST/STM32_USB_Device_Library/Class/MSC/Src/usbd_msc_scsi.c **** 
 292              		.loc 1 544 24 is_stmt 0 view .LVU81
 293 001c 0131     		adds	r1, r1, #1
 294 001e C9B2     		uxtb	r1, r1
 295 0020 84F86112 		strb	r1, [r4, #609]
 296              	.LVL29:
 546:Middlewares/ST/STM32_USB_Device_Library/Class/MSC/Src/usbd_msc_scsi.c ****   {
 297              		.loc 1 546 3 is_stmt 1 view .LVU82
 546:Middlewares/ST/STM32_USB_Device_Library/Class/MSC/Src/usbd_msc_scsi.c ****   {
 298              		.loc 1 546 6 is_stmt 0 view .LVU83
 299 0024 0429     		cmp	r1, #4
 300 0026 02D0     		beq	.L25
 301              	.L22:
 550:Middlewares/ST/STM32_USB_Device_Library/Class/MSC/Src/usbd_msc_scsi.c **** 
 302              		.loc 1 550 1 view .LVU84
 303 0028 5DF8044B 		ldr	r4, [sp], #4
 304              	.LCFI5:
 305              		.cfi_remember_state
 306              		.cfi_restore 4
 307              		.cfi_def_cfa_offset 0
 308              	.LVL30:
 550:Middlewares/ST/STM32_USB_Device_Library/Class/MSC/Src/usbd_msc_scsi.c **** 
 309              		.loc 1 550 1 view .LVU85
 310 002c 7047     		bx	lr
 311              	.LVL31:
 312              	.L25:
 313              	.LCFI6:
 314              		.cfi_restore_state
 548:Middlewares/ST/STM32_USB_Device_Library/Class/MSC/Src/usbd_msc_scsi.c ****   }
 315              		.loc 1 548 5 is_stmt 1 view .LVU86
 548:Middlewares/ST/STM32_USB_Device_Library/Class/MSC/Src/usbd_msc_scsi.c ****   }
 316              		.loc 1 548 27 is_stmt 0 view .LVU87
 317 002e 84F86132 		strb	r3, [r4, #609]
ARM GAS  D:\Temp\cclqlYRL.s 			page 26


 550:Middlewares/ST/STM32_USB_Device_Library/Class/MSC/Src/usbd_msc_scsi.c **** 
 318              		.loc 1 550 1 view .LVU88
 319 0032 F9E7     		b	.L22
 320              		.cfi_endproc
 321              	.LFE143:
 323              		.section	.text.SCSI_TestUnitReady,"ax",%progbits
 324              		.align	1
 325              		.syntax unified
 326              		.thumb
 327              		.thumb_func
 328              		.fpu fpv4-sp-d16
 330              	SCSI_TestUnitReady:
 331              	.LVL32:
 332              	.LFB135:
 207:Middlewares/ST/STM32_USB_Device_Library/Class/MSC/Src/usbd_msc_scsi.c ****   UNUSED(params);
 333              		.loc 1 207 1 is_stmt 1 view -0
 334              		.cfi_startproc
 335              		@ args = 0, pretend = 0, frame = 0
 336              		@ frame_needed = 0, uses_anonymous_args = 0
 207:Middlewares/ST/STM32_USB_Device_Library/Class/MSC/Src/usbd_msc_scsi.c ****   UNUSED(params);
 337              		.loc 1 207 1 is_stmt 0 view .LVU90
 338 0000 70B5     		push	{r4, r5, r6, lr}
 339              	.LCFI7:
 340              		.cfi_def_cfa_offset 16
 341              		.cfi_offset 4, -16
 342              		.cfi_offset 5, -12
 343              		.cfi_offset 6, -8
 344              		.cfi_offset 14, -4
 345 0002 0546     		mov	r5, r0
 208:Middlewares/ST/STM32_USB_Device_Library/Class/MSC/Src/usbd_msc_scsi.c ****   USBD_MSC_BOT_HandleTypeDef *hmsc = (USBD_MSC_BOT_HandleTypeDef *)pdev->pClassData;
 346              		.loc 1 208 3 is_stmt 1 view .LVU91
 209:Middlewares/ST/STM32_USB_Device_Library/Class/MSC/Src/usbd_msc_scsi.c **** 
 347              		.loc 1 209 3 view .LVU92
 209:Middlewares/ST/STM32_USB_Device_Library/Class/MSC/Src/usbd_msc_scsi.c **** 
 348              		.loc 1 209 31 is_stmt 0 view .LVU93
 349 0004 D0F8BC42 		ldr	r4, [r0, #700]
 350              	.LVL33:
 212:Middlewares/ST/STM32_USB_Device_Library/Class/MSC/Src/usbd_msc_scsi.c ****   {
 351              		.loc 1 212 3 is_stmt 1 view .LVU94
 212:Middlewares/ST/STM32_USB_Device_Library/Class/MSC/Src/usbd_msc_scsi.c ****   {
 352              		.loc 1 212 16 is_stmt 0 view .LVU95
 353 0008 D4F81832 		ldr	r3, [r4, #536]
 212:Middlewares/ST/STM32_USB_Device_Library/Class/MSC/Src/usbd_msc_scsi.c ****   {
 354              		.loc 1 212 6 view .LVU96
 355 000c 7BB9     		cbnz	r3, .L32
 356 000e 0E46     		mov	r6, r1
 219:Middlewares/ST/STM32_USB_Device_Library/Class/MSC/Src/usbd_msc_scsi.c ****   {
 357              		.loc 1 219 3 is_stmt 1 view .LVU97
 219:Middlewares/ST/STM32_USB_Device_Library/Class/MSC/Src/usbd_msc_scsi.c ****   {
 358              		.loc 1 219 11 is_stmt 0 view .LVU98
 359 0010 94F86232 		ldrb	r3, [r4, #610]	@ zero_extendqisi2
 219:Middlewares/ST/STM32_USB_Device_Library/Class/MSC/Src/usbd_msc_scsi.c ****   {
 360              		.loc 1 219 6 view .LVU99
 361 0014 022B     		cmp	r3, #2
 362 0016 13D0     		beq	.L33
 226:Middlewares/ST/STM32_USB_Device_Library/Class/MSC/Src/usbd_msc_scsi.c ****   {
 363              		.loc 1 226 3 is_stmt 1 view .LVU100
ARM GAS  D:\Temp\cclqlYRL.s 			page 27


 226:Middlewares/ST/STM32_USB_Device_Library/Class/MSC/Src/usbd_msc_scsi.c ****   {
 364              		.loc 1 226 35 is_stmt 0 view .LVU101
 365 0018 D0F8C032 		ldr	r3, [r0, #704]
 226:Middlewares/ST/STM32_USB_Device_Library/Class/MSC/Src/usbd_msc_scsi.c ****   {
 366              		.loc 1 226 47 view .LVU102
 367 001c 9B68     		ldr	r3, [r3, #8]
 226:Middlewares/ST/STM32_USB_Device_Library/Class/MSC/Src/usbd_msc_scsi.c ****   {
 368              		.loc 1 226 8 view .LVU103
 369 001e 0846     		mov	r0, r1
 370              	.LVL34:
 226:Middlewares/ST/STM32_USB_Device_Library/Class/MSC/Src/usbd_msc_scsi.c ****   {
 371              		.loc 1 226 8 view .LVU104
 372 0020 9847     		blx	r3
 373              	.LVL35:
 226:Middlewares/ST/STM32_USB_Device_Library/Class/MSC/Src/usbd_msc_scsi.c ****   {
 374              		.loc 1 226 6 view .LVU105
 375 0022 0346     		mov	r3, r0
 376 0024 A8B9     		cbnz	r0, .L34
 233:Middlewares/ST/STM32_USB_Device_Library/Class/MSC/Src/usbd_msc_scsi.c **** 
 377              		.loc 1 233 3 is_stmt 1 view .LVU106
 233:Middlewares/ST/STM32_USB_Device_Library/Class/MSC/Src/usbd_msc_scsi.c **** 
 378              		.loc 1 233 25 is_stmt 0 view .LVU107
 379 0026 0022     		movs	r2, #0
 380 0028 E260     		str	r2, [r4, #12]
 235:Middlewares/ST/STM32_USB_Device_Library/Class/MSC/Src/usbd_msc_scsi.c **** }
 381              		.loc 1 235 3 is_stmt 1 view .LVU108
 382              	.L28:
 236:Middlewares/ST/STM32_USB_Device_Library/Class/MSC/Src/usbd_msc_scsi.c **** 
 383              		.loc 1 236 1 is_stmt 0 view .LVU109
 384 002a 1846     		mov	r0, r3
 385 002c 70BD     		pop	{r4, r5, r6, pc}
 386              	.LVL36:
 387              	.L32:
 214:Middlewares/ST/STM32_USB_Device_Library/Class/MSC/Src/usbd_msc_scsi.c **** 
 388              		.loc 1 214 5 is_stmt 1 view .LVU110
 389 002e 2023     		movs	r3, #32
 390 0030 0522     		movs	r2, #5
 391              	.LVL37:
 214:Middlewares/ST/STM32_USB_Device_Library/Class/MSC/Src/usbd_msc_scsi.c **** 
 392              		.loc 1 214 5 is_stmt 0 view .LVU111
 393 0032 94F81D12 		ldrb	r1, [r4, #541]	@ zero_extendqisi2
 394              	.LVL38:
 214:Middlewares/ST/STM32_USB_Device_Library/Class/MSC/Src/usbd_msc_scsi.c **** 
 395              		.loc 1 214 5 view .LVU112
 396 0036 FFF7FEFF 		bl	SCSI_SenseCode
 397              	.LVL39:
 216:Middlewares/ST/STM32_USB_Device_Library/Class/MSC/Src/usbd_msc_scsi.c ****   }
 398              		.loc 1 216 5 is_stmt 1 view .LVU113
 216:Middlewares/ST/STM32_USB_Device_Library/Class/MSC/Src/usbd_msc_scsi.c ****   }
 399              		.loc 1 216 12 is_stmt 0 view .LVU114
 400 003a 4FF0FF33 		mov	r3, #-1
 401 003e F4E7     		b	.L28
 402              	.LVL40:
 403              	.L33:
 221:Middlewares/ST/STM32_USB_Device_Library/Class/MSC/Src/usbd_msc_scsi.c ****     hmsc->bot_state = USBD_BOT_NO_DATA;
 404              		.loc 1 221 5 is_stmt 1 view .LVU115
 405 0040 3A23     		movs	r3, #58
ARM GAS  D:\Temp\cclqlYRL.s 			page 28


 406 0042 0222     		movs	r2, #2
 407              	.LVL41:
 221:Middlewares/ST/STM32_USB_Device_Library/Class/MSC/Src/usbd_msc_scsi.c ****     hmsc->bot_state = USBD_BOT_NO_DATA;
 408              		.loc 1 221 5 is_stmt 0 view .LVU116
 409 0044 FFF7FEFF 		bl	SCSI_SenseCode
 410              	.LVL42:
 222:Middlewares/ST/STM32_USB_Device_Library/Class/MSC/Src/usbd_msc_scsi.c ****     return -1;
 411              		.loc 1 222 5 is_stmt 1 view .LVU117
 222:Middlewares/ST/STM32_USB_Device_Library/Class/MSC/Src/usbd_msc_scsi.c ****     return -1;
 412              		.loc 1 222 21 is_stmt 0 view .LVU118
 413 0048 0523     		movs	r3, #5
 414 004a 2372     		strb	r3, [r4, #8]
 223:Middlewares/ST/STM32_USB_Device_Library/Class/MSC/Src/usbd_msc_scsi.c ****   }
 415              		.loc 1 223 5 is_stmt 1 view .LVU119
 223:Middlewares/ST/STM32_USB_Device_Library/Class/MSC/Src/usbd_msc_scsi.c ****   }
 416              		.loc 1 223 12 is_stmt 0 view .LVU120
 417 004c 4FF0FF33 		mov	r3, #-1
 418 0050 EBE7     		b	.L28
 419              	.L34:
 228:Middlewares/ST/STM32_USB_Device_Library/Class/MSC/Src/usbd_msc_scsi.c ****     hmsc->bot_state = USBD_BOT_NO_DATA;
 420              		.loc 1 228 5 is_stmt 1 view .LVU121
 421 0052 3A23     		movs	r3, #58
 422 0054 0222     		movs	r2, #2
 423 0056 3146     		mov	r1, r6
 424 0058 2846     		mov	r0, r5
 425 005a FFF7FEFF 		bl	SCSI_SenseCode
 426              	.LVL43:
 229:Middlewares/ST/STM32_USB_Device_Library/Class/MSC/Src/usbd_msc_scsi.c **** 
 427              		.loc 1 229 5 view .LVU122
 229:Middlewares/ST/STM32_USB_Device_Library/Class/MSC/Src/usbd_msc_scsi.c **** 
 428              		.loc 1 229 21 is_stmt 0 view .LVU123
 429 005e 0523     		movs	r3, #5
 430 0060 2372     		strb	r3, [r4, #8]
 231:Middlewares/ST/STM32_USB_Device_Library/Class/MSC/Src/usbd_msc_scsi.c ****   }
 431              		.loc 1 231 5 is_stmt 1 view .LVU124
 231:Middlewares/ST/STM32_USB_Device_Library/Class/MSC/Src/usbd_msc_scsi.c ****   }
 432              		.loc 1 231 12 is_stmt 0 view .LVU125
 433 0062 4FF0FF33 		mov	r3, #-1
 434 0066 E0E7     		b	.L28
 435              		.cfi_endproc
 436              	.LFE135:
 438              		.section	.text.SCSI_RequestSense,"ax",%progbits
 439              		.align	1
 440              		.syntax unified
 441              		.thumb
 442              		.thumb_func
 443              		.fpu fpv4-sp-d16
 445              	SCSI_RequestSense:
 446              	.LVL44:
 447              	.LFB142:
 484:Middlewares/ST/STM32_USB_Device_Library/Class/MSC/Src/usbd_msc_scsi.c ****   UNUSED(lun);
 448              		.loc 1 484 1 is_stmt 1 view -0
 449              		.cfi_startproc
 450              		@ args = 0, pretend = 0, frame = 0
 451              		@ frame_needed = 0, uses_anonymous_args = 0
 484:Middlewares/ST/STM32_USB_Device_Library/Class/MSC/Src/usbd_msc_scsi.c ****   UNUSED(lun);
 452              		.loc 1 484 1 is_stmt 0 view .LVU127
ARM GAS  D:\Temp\cclqlYRL.s 			page 29


 453 0000 10B5     		push	{r4, lr}
 454              	.LCFI8:
 455              		.cfi_def_cfa_offset 8
 456              		.cfi_offset 4, -8
 457              		.cfi_offset 14, -4
 485:Middlewares/ST/STM32_USB_Device_Library/Class/MSC/Src/usbd_msc_scsi.c ****   uint8_t i;
 458              		.loc 1 485 3 is_stmt 1 view .LVU128
 486:Middlewares/ST/STM32_USB_Device_Library/Class/MSC/Src/usbd_msc_scsi.c ****   USBD_MSC_BOT_HandleTypeDef *hmsc = (USBD_MSC_BOT_HandleTypeDef *)pdev->pClassData;
 459              		.loc 1 486 3 view .LVU129
 487:Middlewares/ST/STM32_USB_Device_Library/Class/MSC/Src/usbd_msc_scsi.c **** 
 460              		.loc 1 487 3 view .LVU130
 487:Middlewares/ST/STM32_USB_Device_Library/Class/MSC/Src/usbd_msc_scsi.c **** 
 461              		.loc 1 487 31 is_stmt 0 view .LVU131
 462 0002 D0F8BC42 		ldr	r4, [r0, #700]
 463              	.LVL45:
 489:Middlewares/ST/STM32_USB_Device_Library/Class/MSC/Src/usbd_msc_scsi.c ****   {
 464              		.loc 1 489 3 is_stmt 1 view .LVU132
 489:Middlewares/ST/STM32_USB_Device_Library/Class/MSC/Src/usbd_msc_scsi.c ****   {
 465              		.loc 1 489 16 is_stmt 0 view .LVU133
 466 0006 D4F81832 		ldr	r3, [r4, #536]
 489:Middlewares/ST/STM32_USB_Device_Library/Class/MSC/Src/usbd_msc_scsi.c ****   {
 467              		.loc 1 489 6 view .LVU134
 468 000a 43B1     		cbz	r3, .L43
 495:Middlewares/ST/STM32_USB_Device_Library/Class/MSC/Src/usbd_msc_scsi.c ****   {
 469              		.loc 1 495 10 view .LVU135
 470 000c 0023     		movs	r3, #0
 471              	.LVL46:
 472              	.L36:
 495:Middlewares/ST/STM32_USB_Device_Library/Class/MSC/Src/usbd_msc_scsi.c ****   {
 473              		.loc 1 495 3 discriminator 1 view .LVU136
 474 000e 112B     		cmp	r3, #17
 475 0010 0ED8     		bhi	.L44
 497:Middlewares/ST/STM32_USB_Device_Library/Class/MSC/Src/usbd_msc_scsi.c ****   }
 476              		.loc 1 497 5 is_stmt 1 discriminator 3 view .LVU137
 497:Middlewares/ST/STM32_USB_Device_Library/Class/MSC/Src/usbd_msc_scsi.c ****   }
 477              		.loc 1 497 23 is_stmt 0 discriminator 3 view .LVU138
 478 0012 E118     		adds	r1, r4, r3
 479 0014 0020     		movs	r0, #0
 480 0016 0874     		strb	r0, [r1, #16]
 495:Middlewares/ST/STM32_USB_Device_Library/Class/MSC/Src/usbd_msc_scsi.c ****   {
 481              		.loc 1 495 45 discriminator 3 view .LVU139
 482 0018 0133     		adds	r3, r3, #1
 483              	.LVL47:
 495:Middlewares/ST/STM32_USB_Device_Library/Class/MSC/Src/usbd_msc_scsi.c ****   {
 484              		.loc 1 495 45 discriminator 3 view .LVU140
 485 001a DBB2     		uxtb	r3, r3
 486              	.LVL48:
 495:Middlewares/ST/STM32_USB_Device_Library/Class/MSC/Src/usbd_msc_scsi.c ****   {
 487              		.loc 1 495 45 discriminator 3 view .LVU141
 488 001c F7E7     		b	.L36
 489              	.LVL49:
 490              	.L43:
 491:Middlewares/ST/STM32_USB_Device_Library/Class/MSC/Src/usbd_msc_scsi.c ****     return -1;
 491              		.loc 1 491 5 is_stmt 1 view .LVU142
 492 001e 2023     		movs	r3, #32
 493 0020 0522     		movs	r2, #5
 494              	.LVL50:
ARM GAS  D:\Temp\cclqlYRL.s 			page 30


 491:Middlewares/ST/STM32_USB_Device_Library/Class/MSC/Src/usbd_msc_scsi.c ****     return -1;
 495              		.loc 1 491 5 is_stmt 0 view .LVU143
 496 0022 94F81D12 		ldrb	r1, [r4, #541]	@ zero_extendqisi2
 497              	.LVL51:
 491:Middlewares/ST/STM32_USB_Device_Library/Class/MSC/Src/usbd_msc_scsi.c ****     return -1;
 498              		.loc 1 491 5 view .LVU144
 499 0026 FFF7FEFF 		bl	SCSI_SenseCode
 500              	.LVL52:
 492:Middlewares/ST/STM32_USB_Device_Library/Class/MSC/Src/usbd_msc_scsi.c ****   }
 501              		.loc 1 492 5 is_stmt 1 view .LVU145
 492:Middlewares/ST/STM32_USB_Device_Library/Class/MSC/Src/usbd_msc_scsi.c ****   }
 502              		.loc 1 492 12 is_stmt 0 view .LVU146
 503 002a 4FF0FF30 		mov	r0, #-1
 504 002e 21E0     		b	.L37
 505              	.LVL53:
 506              	.L44:
 500:Middlewares/ST/STM32_USB_Device_Library/Class/MSC/Src/usbd_msc_scsi.c ****   hmsc->bot_data[7] = REQUEST_SENSE_DATA_LEN - 6U;
 507              		.loc 1 500 3 is_stmt 1 view .LVU147
 500:Middlewares/ST/STM32_USB_Device_Library/Class/MSC/Src/usbd_msc_scsi.c ****   hmsc->bot_data[7] = REQUEST_SENSE_DATA_LEN - 6U;
 508              		.loc 1 500 21 is_stmt 0 view .LVU148
 509 0030 7023     		movs	r3, #112
 510              	.LVL54:
 500:Middlewares/ST/STM32_USB_Device_Library/Class/MSC/Src/usbd_msc_scsi.c ****   hmsc->bot_data[7] = REQUEST_SENSE_DATA_LEN - 6U;
 511              		.loc 1 500 21 view .LVU149
 512 0032 2374     		strb	r3, [r4, #16]
 501:Middlewares/ST/STM32_USB_Device_Library/Class/MSC/Src/usbd_msc_scsi.c **** 
 513              		.loc 1 501 3 is_stmt 1 view .LVU150
 501:Middlewares/ST/STM32_USB_Device_Library/Class/MSC/Src/usbd_msc_scsi.c **** 
 514              		.loc 1 501 21 is_stmt 0 view .LVU151
 515 0034 0C23     		movs	r3, #12
 516 0036 E375     		strb	r3, [r4, #23]
 503:Middlewares/ST/STM32_USB_Device_Library/Class/MSC/Src/usbd_msc_scsi.c ****   {
 517              		.loc 1 503 3 is_stmt 1 view .LVU152
 503:Middlewares/ST/STM32_USB_Device_Library/Class/MSC/Src/usbd_msc_scsi.c ****   {
 518              		.loc 1 503 12 is_stmt 0 view .LVU153
 519 0038 94F86032 		ldrb	r3, [r4, #608]	@ zero_extendqisi2
 503:Middlewares/ST/STM32_USB_Device_Library/Class/MSC/Src/usbd_msc_scsi.c ****   {
 520              		.loc 1 503 37 view .LVU154
 521 003c 94F86112 		ldrb	r1, [r4, #609]	@ zero_extendqisi2
 503:Middlewares/ST/STM32_USB_Device_Library/Class/MSC/Src/usbd_msc_scsi.c ****   {
 522              		.loc 1 503 6 view .LVU155
 523 0040 8B42     		cmp	r3, r1
 524 0042 10D0     		beq	.L39
 505:Middlewares/ST/STM32_USB_Device_Library/Class/MSC/Src/usbd_msc_scsi.c ****     hmsc->bot_data[12] = (uint8_t)hmsc->scsi_sense[hmsc->scsi_sense_head].w.b.ASC;
 525              		.loc 1 505 5 is_stmt 1 view .LVU156
 505:Middlewares/ST/STM32_USB_Device_Library/Class/MSC/Src/usbd_msc_scsi.c ****     hmsc->bot_data[12] = (uint8_t)hmsc->scsi_sense[hmsc->scsi_sense_head].w.b.ASC;
 526              		.loc 1 505 73 is_stmt 0 view .LVU157
 527 0044 03F14801 		add	r1, r3, #72
 528 0048 14F83100 		ldrb	r0, [r4, r1, lsl #3]	@ zero_extendqisi2
 505:Middlewares/ST/STM32_USB_Device_Library/Class/MSC/Src/usbd_msc_scsi.c ****     hmsc->bot_data[12] = (uint8_t)hmsc->scsi_sense[hmsc->scsi_sense_head].w.b.ASC;
 529              		.loc 1 505 23 view .LVU158
 530 004c A074     		strb	r0, [r4, #18]
 506:Middlewares/ST/STM32_USB_Device_Library/Class/MSC/Src/usbd_msc_scsi.c ****     hmsc->bot_data[13] = (uint8_t)hmsc->scsi_sense[hmsc->scsi_sense_head].w.b.ASCQ;
 531              		.loc 1 506 5 is_stmt 1 view .LVU159
 506:Middlewares/ST/STM32_USB_Device_Library/Class/MSC/Src/usbd_msc_scsi.c ****     hmsc->bot_data[13] = (uint8_t)hmsc->scsi_sense[hmsc->scsi_sense_head].w.b.ASCQ;
 532              		.loc 1 506 78 is_stmt 0 view .LVU160
 533 004e 04EBC101 		add	r1, r4, r1, lsl #3
ARM GAS  D:\Temp\cclqlYRL.s 			page 31


 534 0052 0879     		ldrb	r0, [r1, #4]	@ zero_extendqisi2
 506:Middlewares/ST/STM32_USB_Device_Library/Class/MSC/Src/usbd_msc_scsi.c ****     hmsc->bot_data[13] = (uint8_t)hmsc->scsi_sense[hmsc->scsi_sense_head].w.b.ASCQ;
 535              		.loc 1 506 24 view .LVU161
 536 0054 2077     		strb	r0, [r4, #28]
 507:Middlewares/ST/STM32_USB_Device_Library/Class/MSC/Src/usbd_msc_scsi.c ****     hmsc->scsi_sense_head++;
 537              		.loc 1 507 5 is_stmt 1 view .LVU162
 507:Middlewares/ST/STM32_USB_Device_Library/Class/MSC/Src/usbd_msc_scsi.c ****     hmsc->scsi_sense_head++;
 538              		.loc 1 507 78 is_stmt 0 view .LVU163
 539 0056 4979     		ldrb	r1, [r1, #5]	@ zero_extendqisi2
 507:Middlewares/ST/STM32_USB_Device_Library/Class/MSC/Src/usbd_msc_scsi.c ****     hmsc->scsi_sense_head++;
 540              		.loc 1 507 24 view .LVU164
 541 0058 6177     		strb	r1, [r4, #29]
 508:Middlewares/ST/STM32_USB_Device_Library/Class/MSC/Src/usbd_msc_scsi.c **** 
 542              		.loc 1 508 5 is_stmt 1 view .LVU165
 508:Middlewares/ST/STM32_USB_Device_Library/Class/MSC/Src/usbd_msc_scsi.c **** 
 543              		.loc 1 508 26 is_stmt 0 view .LVU166
 544 005a 0133     		adds	r3, r3, #1
 545 005c DBB2     		uxtb	r3, r3
 546 005e 84F86032 		strb	r3, [r4, #608]
 510:Middlewares/ST/STM32_USB_Device_Library/Class/MSC/Src/usbd_msc_scsi.c ****     {
 547              		.loc 1 510 5 is_stmt 1 view .LVU167
 510:Middlewares/ST/STM32_USB_Device_Library/Class/MSC/Src/usbd_msc_scsi.c ****     {
 548              		.loc 1 510 8 is_stmt 0 view .LVU168
 549 0062 042B     		cmp	r3, #4
 550 0064 07D0     		beq	.L45
 551              	.L39:
 516:Middlewares/ST/STM32_USB_Device_Library/Class/MSC/Src/usbd_msc_scsi.c **** 
 552              		.loc 1 516 3 is_stmt 1 view .LVU169
 516:Middlewares/ST/STM32_USB_Device_Library/Class/MSC/Src/usbd_msc_scsi.c **** 
 553              		.loc 1 516 25 is_stmt 0 view .LVU170
 554 0066 1223     		movs	r3, #18
 555 0068 E360     		str	r3, [r4, #12]
 518:Middlewares/ST/STM32_USB_Device_Library/Class/MSC/Src/usbd_msc_scsi.c ****   {
 556              		.loc 1 518 3 is_stmt 1 view .LVU171
 518:Middlewares/ST/STM32_USB_Device_Library/Class/MSC/Src/usbd_msc_scsi.c ****   {
 557              		.loc 1 518 13 is_stmt 0 view .LVU172
 558 006a 1379     		ldrb	r3, [r2, #4]	@ zero_extendqisi2
 518:Middlewares/ST/STM32_USB_Device_Library/Class/MSC/Src/usbd_msc_scsi.c ****   {
 559              		.loc 1 518 6 view .LVU173
 560 006c 122B     		cmp	r3, #18
 561 006e 06D8     		bhi	.L41
 520:Middlewares/ST/STM32_USB_Device_Library/Class/MSC/Src/usbd_msc_scsi.c ****   }
 562              		.loc 1 520 5 is_stmt 1 view .LVU174
 520:Middlewares/ST/STM32_USB_Device_Library/Class/MSC/Src/usbd_msc_scsi.c ****   }
 563              		.loc 1 520 27 is_stmt 0 view .LVU175
 564 0070 E360     		str	r3, [r4, #12]
 523:Middlewares/ST/STM32_USB_Device_Library/Class/MSC/Src/usbd_msc_scsi.c **** }
 565              		.loc 1 523 10 view .LVU176
 566 0072 0020     		movs	r0, #0
 567              	.LVL55:
 568              	.L37:
 524:Middlewares/ST/STM32_USB_Device_Library/Class/MSC/Src/usbd_msc_scsi.c **** 
 569              		.loc 1 524 1 view .LVU177
 570 0074 10BD     		pop	{r4, pc}
 571              	.LVL56:
 572              	.L45:
 512:Middlewares/ST/STM32_USB_Device_Library/Class/MSC/Src/usbd_msc_scsi.c ****     }
ARM GAS  D:\Temp\cclqlYRL.s 			page 32


 573              		.loc 1 512 7 is_stmt 1 view .LVU178
 512:Middlewares/ST/STM32_USB_Device_Library/Class/MSC/Src/usbd_msc_scsi.c ****     }
 574              		.loc 1 512 29 is_stmt 0 view .LVU179
 575 0076 0023     		movs	r3, #0
 576 0078 84F86032 		strb	r3, [r4, #608]
 577 007c F3E7     		b	.L39
 578              	.L41:
 523:Middlewares/ST/STM32_USB_Device_Library/Class/MSC/Src/usbd_msc_scsi.c **** }
 579              		.loc 1 523 10 view .LVU180
 580 007e 0020     		movs	r0, #0
 581 0080 F8E7     		b	.L37
 582              		.cfi_endproc
 583              	.LFE142:
 585              		.section	.text.SCSI_Inquiry,"ax",%progbits
 586              		.align	1
 587              		.syntax unified
 588              		.thumb
 589              		.thumb_func
 590              		.fpu fpv4-sp-d16
 592              	SCSI_Inquiry:
 593              	.LVL57:
 594              	.LFB136:
 247:Middlewares/ST/STM32_USB_Device_Library/Class/MSC/Src/usbd_msc_scsi.c ****   uint8_t *pPage;
 595              		.loc 1 247 1 is_stmt 1 view -0
 596              		.cfi_startproc
 597              		@ args = 0, pretend = 0, frame = 0
 598              		@ frame_needed = 0, uses_anonymous_args = 0
 247:Middlewares/ST/STM32_USB_Device_Library/Class/MSC/Src/usbd_msc_scsi.c ****   uint8_t *pPage;
 599              		.loc 1 247 1 is_stmt 0 view .LVU182
 600 0000 10B5     		push	{r4, lr}
 601              	.LCFI9:
 602              		.cfi_def_cfa_offset 8
 603              		.cfi_offset 4, -8
 604              		.cfi_offset 14, -4
 248:Middlewares/ST/STM32_USB_Device_Library/Class/MSC/Src/usbd_msc_scsi.c ****   uint16_t len;
 605              		.loc 1 248 3 is_stmt 1 view .LVU183
 249:Middlewares/ST/STM32_USB_Device_Library/Class/MSC/Src/usbd_msc_scsi.c ****   USBD_MSC_BOT_HandleTypeDef *hmsc = (USBD_MSC_BOT_HandleTypeDef *)pdev->pClassData;
 606              		.loc 1 249 3 view .LVU184
 250:Middlewares/ST/STM32_USB_Device_Library/Class/MSC/Src/usbd_msc_scsi.c **** 
 607              		.loc 1 250 3 view .LVU185
 250:Middlewares/ST/STM32_USB_Device_Library/Class/MSC/Src/usbd_msc_scsi.c **** 
 608              		.loc 1 250 31 is_stmt 0 view .LVU186
 609 0002 D0F8BC42 		ldr	r4, [r0, #700]
 610              	.LVL58:
 252:Middlewares/ST/STM32_USB_Device_Library/Class/MSC/Src/usbd_msc_scsi.c ****   {
 611              		.loc 1 252 3 is_stmt 1 view .LVU187
 252:Middlewares/ST/STM32_USB_Device_Library/Class/MSC/Src/usbd_msc_scsi.c ****   {
 612              		.loc 1 252 16 is_stmt 0 view .LVU188
 613 0006 D4F81832 		ldr	r3, [r4, #536]
 252:Middlewares/ST/STM32_USB_Device_Library/Class/MSC/Src/usbd_msc_scsi.c ****   {
 614              		.loc 1 252 6 view .LVU189
 615 000a 73B1     		cbz	r3, .L54
 258:Middlewares/ST/STM32_USB_Device_Library/Class/MSC/Src/usbd_msc_scsi.c ****   {
 616              		.loc 1 258 3 is_stmt 1 view .LVU190
 258:Middlewares/ST/STM32_USB_Device_Library/Class/MSC/Src/usbd_msc_scsi.c ****   {
 617              		.loc 1 258 14 is_stmt 0 view .LVU191
 618 000c 5378     		ldrb	r3, [r2, #1]	@ zero_extendqisi2
ARM GAS  D:\Temp\cclqlYRL.s 			page 33


 258:Middlewares/ST/STM32_USB_Device_Library/Class/MSC/Src/usbd_msc_scsi.c ****   {
 619              		.loc 1 258 6 view .LVU192
 620 000e 13F0010F 		tst	r3, #1
 621 0012 23D0     		beq	.L49
 260:Middlewares/ST/STM32_USB_Device_Library/Class/MSC/Src/usbd_msc_scsi.c ****     {
 622              		.loc 1 260 5 is_stmt 1 view .LVU193
 260:Middlewares/ST/STM32_USB_Device_Library/Class/MSC/Src/usbd_msc_scsi.c ****     {
 623              		.loc 1 260 15 is_stmt 0 view .LVU194
 624 0014 9378     		ldrb	r3, [r2, #2]	@ zero_extendqisi2
 260:Middlewares/ST/STM32_USB_Device_Library/Class/MSC/Src/usbd_msc_scsi.c ****     {
 625              		.loc 1 260 8 view .LVU195
 626 0016 8BB1     		cbz	r3, .L55
 264:Middlewares/ST/STM32_USB_Device_Library/Class/MSC/Src/usbd_msc_scsi.c ****     {
 627              		.loc 1 264 10 is_stmt 1 view .LVU196
 264:Middlewares/ST/STM32_USB_Device_Library/Class/MSC/Src/usbd_msc_scsi.c ****     {
 628              		.loc 1 264 13 is_stmt 0 view .LVU197
 629 0018 802B     		cmp	r3, #128
 630 001a 16D1     		bne	.L51
 266:Middlewares/ST/STM32_USB_Device_Library/Class/MSC/Src/usbd_msc_scsi.c ****     }
 631              		.loc 1 266 7 is_stmt 1 view .LVU198
 266:Middlewares/ST/STM32_USB_Device_Library/Class/MSC/Src/usbd_msc_scsi.c ****     }
 632              		.loc 1 266 13 is_stmt 0 view .LVU199
 633 001c 0822     		movs	r2, #8
 634              	.LVL59:
 266:Middlewares/ST/STM32_USB_Device_Library/Class/MSC/Src/usbd_msc_scsi.c ****     }
 635              		.loc 1 266 13 view .LVU200
 636 001e 1849     		ldr	r1, .L56
 637              	.LVL60:
 266:Middlewares/ST/STM32_USB_Device_Library/Class/MSC/Src/usbd_msc_scsi.c ****     }
 638              		.loc 1 266 13 view .LVU201
 639 0020 2046     		mov	r0, r4
 640              	.LVL61:
 266:Middlewares/ST/STM32_USB_Device_Library/Class/MSC/Src/usbd_msc_scsi.c ****     }
 641              		.loc 1 266 13 view .LVU202
 642 0022 FFF7FEFF 		bl	SCSI_UpdateBotData
 643              	.LVL62:
 289:Middlewares/ST/STM32_USB_Device_Library/Class/MSC/Src/usbd_msc_scsi.c **** }
 644              		.loc 1 289 10 view .LVU203
 645 0026 0020     		movs	r0, #0
 646 0028 29E0     		b	.L48
 647              	.LVL63:
 648              	.L54:
 254:Middlewares/ST/STM32_USB_Device_Library/Class/MSC/Src/usbd_msc_scsi.c ****     return -1;
 649              		.loc 1 254 5 is_stmt 1 view .LVU204
 650 002a 2023     		movs	r3, #32
 651 002c 0522     		movs	r2, #5
 652              	.LVL64:
 254:Middlewares/ST/STM32_USB_Device_Library/Class/MSC/Src/usbd_msc_scsi.c ****     return -1;
 653              		.loc 1 254 5 is_stmt 0 view .LVU205
 654 002e 94F81D12 		ldrb	r1, [r4, #541]	@ zero_extendqisi2
 655              	.LVL65:
 254:Middlewares/ST/STM32_USB_Device_Library/Class/MSC/Src/usbd_msc_scsi.c ****     return -1;
 656              		.loc 1 254 5 view .LVU206
 657 0032 FFF7FEFF 		bl	SCSI_SenseCode
 658              	.LVL66:
 255:Middlewares/ST/STM32_USB_Device_Library/Class/MSC/Src/usbd_msc_scsi.c ****   }
 659              		.loc 1 255 5 is_stmt 1 view .LVU207
ARM GAS  D:\Temp\cclqlYRL.s 			page 34


 255:Middlewares/ST/STM32_USB_Device_Library/Class/MSC/Src/usbd_msc_scsi.c ****   }
 660              		.loc 1 255 12 is_stmt 0 view .LVU208
 661 0036 4FF0FF30 		mov	r0, #-1
 662 003a 20E0     		b	.L48
 663              	.LVL67:
 664              	.L55:
 262:Middlewares/ST/STM32_USB_Device_Library/Class/MSC/Src/usbd_msc_scsi.c ****     }
 665              		.loc 1 262 7 is_stmt 1 view .LVU209
 262:Middlewares/ST/STM32_USB_Device_Library/Class/MSC/Src/usbd_msc_scsi.c ****     }
 666              		.loc 1 262 13 is_stmt 0 view .LVU210
 667 003c 0622     		movs	r2, #6
 668              	.LVL68:
 262:Middlewares/ST/STM32_USB_Device_Library/Class/MSC/Src/usbd_msc_scsi.c ****     }
 669              		.loc 1 262 13 view .LVU211
 670 003e 1149     		ldr	r1, .L56+4
 671              	.LVL69:
 262:Middlewares/ST/STM32_USB_Device_Library/Class/MSC/Src/usbd_msc_scsi.c ****     }
 672              		.loc 1 262 13 view .LVU212
 673 0040 2046     		mov	r0, r4
 674              	.LVL70:
 262:Middlewares/ST/STM32_USB_Device_Library/Class/MSC/Src/usbd_msc_scsi.c ****     }
 675              		.loc 1 262 13 view .LVU213
 676 0042 FFF7FEFF 		bl	SCSI_UpdateBotData
 677              	.LVL71:
 289:Middlewares/ST/STM32_USB_Device_Library/Class/MSC/Src/usbd_msc_scsi.c **** }
 678              		.loc 1 289 10 view .LVU214
 679 0046 0020     		movs	r0, #0
 680 0048 19E0     		b	.L48
 681              	.LVL72:
 682              	.L51:
 270:Middlewares/ST/STM32_USB_Device_Library/Class/MSC/Src/usbd_msc_scsi.c ****                      INVALID_FIELED_IN_COMMAND);
 683              		.loc 1 270 7 is_stmt 1 view .LVU215
 684 004a 2423     		movs	r3, #36
 685 004c 0522     		movs	r2, #5
 686              	.LVL73:
 270:Middlewares/ST/STM32_USB_Device_Library/Class/MSC/Src/usbd_msc_scsi.c ****                      INVALID_FIELED_IN_COMMAND);
 687              		.loc 1 270 7 is_stmt 0 view .LVU216
 688 004e 94F81D12 		ldrb	r1, [r4, #541]	@ zero_extendqisi2
 689              	.LVL74:
 270:Middlewares/ST/STM32_USB_Device_Library/Class/MSC/Src/usbd_msc_scsi.c ****                      INVALID_FIELED_IN_COMMAND);
 690              		.loc 1 270 7 view .LVU217
 691 0052 FFF7FEFF 		bl	SCSI_SenseCode
 692              	.LVL75:
 273:Middlewares/ST/STM32_USB_Device_Library/Class/MSC/Src/usbd_msc_scsi.c ****     }
 693              		.loc 1 273 7 is_stmt 1 view .LVU218
 273:Middlewares/ST/STM32_USB_Device_Library/Class/MSC/Src/usbd_msc_scsi.c ****     }
 694              		.loc 1 273 14 is_stmt 0 view .LVU219
 695 0056 4FF0FF30 		mov	r0, #-1
 696 005a 10E0     		b	.L48
 697              	.LVL76:
 698              	.L49:
 278:Middlewares/ST/STM32_USB_Device_Library/Class/MSC/Src/usbd_msc_scsi.c ****     len = (uint16_t)pPage[4] + 5U;
 699              		.loc 1 278 5 is_stmt 1 view .LVU220
 278:Middlewares/ST/STM32_USB_Device_Library/Class/MSC/Src/usbd_msc_scsi.c ****     len = (uint16_t)pPage[4] + 5U;
 700              		.loc 1 278 53 is_stmt 0 view .LVU221
 701 005c D0F8C032 		ldr	r3, [r0, #704]
 278:Middlewares/ST/STM32_USB_Device_Library/Class/MSC/Src/usbd_msc_scsi.c ****     len = (uint16_t)pPage[4] + 5U;
ARM GAS  D:\Temp\cclqlYRL.s 			page 35


 702              		.loc 1 278 65 view .LVU222
 703 0060 DB69     		ldr	r3, [r3, #28]
 278:Middlewares/ST/STM32_USB_Device_Library/Class/MSC/Src/usbd_msc_scsi.c ****     len = (uint16_t)pPage[4] + 5U;
 704              		.loc 1 278 80 view .LVU223
 705 0062 01EBC101 		add	r1, r1, r1, lsl #3
 706              	.LVL77:
 278:Middlewares/ST/STM32_USB_Device_Library/Class/MSC/Src/usbd_msc_scsi.c ****     len = (uint16_t)pPage[4] + 5U;
 707              		.loc 1 278 80 view .LVU224
 708 0066 8800     		lsls	r0, r1, #2
 709              	.LVL78:
 278:Middlewares/ST/STM32_USB_Device_Library/Class/MSC/Src/usbd_msc_scsi.c ****     len = (uint16_t)pPage[4] + 5U;
 710              		.loc 1 278 11 view .LVU225
 711 0068 1918     		adds	r1, r3, r0
 712              	.LVL79:
 279:Middlewares/ST/STM32_USB_Device_Library/Class/MSC/Src/usbd_msc_scsi.c **** 
 713              		.loc 1 279 5 is_stmt 1 view .LVU226
 279:Middlewares/ST/STM32_USB_Device_Library/Class/MSC/Src/usbd_msc_scsi.c **** 
 714              		.loc 1 279 26 is_stmt 0 view .LVU227
 715 006a 0B79     		ldrb	r3, [r1, #4]	@ zero_extendqisi2
 279:Middlewares/ST/STM32_USB_Device_Library/Class/MSC/Src/usbd_msc_scsi.c **** 
 716              		.loc 1 279 9 view .LVU228
 717 006c 0533     		adds	r3, r3, #5
 718              	.LVL80:
 281:Middlewares/ST/STM32_USB_Device_Library/Class/MSC/Src/usbd_msc_scsi.c ****     {
 719              		.loc 1 281 5 is_stmt 1 view .LVU229
 281:Middlewares/ST/STM32_USB_Device_Library/Class/MSC/Src/usbd_msc_scsi.c ****     {
 720              		.loc 1 281 15 is_stmt 0 view .LVU230
 721 006e 1279     		ldrb	r2, [r2, #4]	@ zero_extendqisi2
 722              	.LVL81:
 281:Middlewares/ST/STM32_USB_Device_Library/Class/MSC/Src/usbd_msc_scsi.c ****     {
 723              		.loc 1 281 8 view .LVU231
 724 0070 9A42     		cmp	r2, r3
 725 0072 00D9     		bls	.L52
 279:Middlewares/ST/STM32_USB_Device_Library/Class/MSC/Src/usbd_msc_scsi.c **** 
 726              		.loc 1 279 9 view .LVU232
 727 0074 1A46     		mov	r2, r3
 728              	.L52:
 729              	.LVL82:
 286:Middlewares/ST/STM32_USB_Device_Library/Class/MSC/Src/usbd_msc_scsi.c ****   }
 730              		.loc 1 286 5 is_stmt 1 view .LVU233
 286:Middlewares/ST/STM32_USB_Device_Library/Class/MSC/Src/usbd_msc_scsi.c ****   }
 731              		.loc 1 286 11 is_stmt 0 view .LVU234
 732 0076 2046     		mov	r0, r4
 733 0078 FFF7FEFF 		bl	SCSI_UpdateBotData
 734              	.LVL83:
 289:Middlewares/ST/STM32_USB_Device_Library/Class/MSC/Src/usbd_msc_scsi.c **** }
 735              		.loc 1 289 10 view .LVU235
 736 007c 0020     		movs	r0, #0
 737              	.L48:
 290:Middlewares/ST/STM32_USB_Device_Library/Class/MSC/Src/usbd_msc_scsi.c **** 
 738              		.loc 1 290 1 view .LVU236
 739 007e 10BD     		pop	{r4, pc}
 740              	.LVL84:
 741              	.L57:
 290:Middlewares/ST/STM32_USB_Device_Library/Class/MSC/Src/usbd_msc_scsi.c **** 
 742              		.loc 1 290 1 view .LVU237
 743              		.align	2
ARM GAS  D:\Temp\cclqlYRL.s 			page 36


 744              	.L56:
 745 0080 00000000 		.word	MSC_Page80_Inquiry_Data
 746 0084 00000000 		.word	MSC_Page00_Inquiry_Data
 747              		.cfi_endproc
 748              	.LFE136:
 750              		.section	.text.SCSI_StartStopUnit,"ax",%progbits
 751              		.align	1
 752              		.syntax unified
 753              		.thumb
 754              		.thumb_func
 755              		.fpu fpv4-sp-d16
 757              	SCSI_StartStopUnit:
 758              	.LVL85:
 759              	.LFB144:
 561:Middlewares/ST/STM32_USB_Device_Library/Class/MSC/Src/usbd_msc_scsi.c ****   UNUSED(lun);
 760              		.loc 1 561 1 is_stmt 1 view -0
 761              		.cfi_startproc
 762              		@ args = 0, pretend = 0, frame = 0
 763              		@ frame_needed = 0, uses_anonymous_args = 0
 561:Middlewares/ST/STM32_USB_Device_Library/Class/MSC/Src/usbd_msc_scsi.c ****   UNUSED(lun);
 764              		.loc 1 561 1 is_stmt 0 view .LVU239
 765 0000 10B5     		push	{r4, lr}
 766              	.LCFI10:
 767              		.cfi_def_cfa_offset 8
 768              		.cfi_offset 4, -8
 769              		.cfi_offset 14, -4
 562:Middlewares/ST/STM32_USB_Device_Library/Class/MSC/Src/usbd_msc_scsi.c ****   USBD_MSC_BOT_HandleTypeDef *hmsc = (USBD_MSC_BOT_HandleTypeDef *)pdev->pClassData;
 770              		.loc 1 562 3 is_stmt 1 view .LVU240
 563:Middlewares/ST/STM32_USB_Device_Library/Class/MSC/Src/usbd_msc_scsi.c **** 
 771              		.loc 1 563 3 view .LVU241
 563:Middlewares/ST/STM32_USB_Device_Library/Class/MSC/Src/usbd_msc_scsi.c **** 
 772              		.loc 1 563 31 is_stmt 0 view .LVU242
 773 0002 D0F8BC42 		ldr	r4, [r0, #700]
 774              	.LVL86:
 565:Middlewares/ST/STM32_USB_Device_Library/Class/MSC/Src/usbd_msc_scsi.c ****   {
 775              		.loc 1 565 3 is_stmt 1 view .LVU243
 565:Middlewares/ST/STM32_USB_Device_Library/Class/MSC/Src/usbd_msc_scsi.c ****   {
 776              		.loc 1 565 12 is_stmt 0 view .LVU244
 777 0006 94F86232 		ldrb	r3, [r4, #610]	@ zero_extendqisi2
 565:Middlewares/ST/STM32_USB_Device_Library/Class/MSC/Src/usbd_msc_scsi.c ****   {
 778              		.loc 1 565 6 view .LVU245
 779 000a 012B     		cmp	r3, #1
 780 000c 0CD0     		beq	.L65
 781              	.L59:
 572:Middlewares/ST/STM32_USB_Device_Library/Class/MSC/Src/usbd_msc_scsi.c ****   {
 782              		.loc 1 572 3 is_stmt 1 view .LVU246
 572:Middlewares/ST/STM32_USB_Device_Library/Class/MSC/Src/usbd_msc_scsi.c ****   {
 783              		.loc 1 572 14 is_stmt 0 view .LVU247
 784 000e 1379     		ldrb	r3, [r2, #4]	@ zero_extendqisi2
 785 0010 03F00303 		and	r3, r3, #3
 572:Middlewares/ST/STM32_USB_Device_Library/Class/MSC/Src/usbd_msc_scsi.c ****   {
 786              		.loc 1 572 6 view .LVU248
 787 0014 012B     		cmp	r3, #1
 788 0016 13D0     		beq	.L66
 576:Middlewares/ST/STM32_USB_Device_Library/Class/MSC/Src/usbd_msc_scsi.c ****   {
 789              		.loc 1 576 8 is_stmt 1 view .LVU249
 576:Middlewares/ST/STM32_USB_Device_Library/Class/MSC/Src/usbd_msc_scsi.c ****   {
ARM GAS  D:\Temp\cclqlYRL.s 			page 37


 790              		.loc 1 576 11 is_stmt 0 view .LVU250
 791 0018 022B     		cmp	r3, #2
 792 001a 17D0     		beq	.L67
 580:Middlewares/ST/STM32_USB_Device_Library/Class/MSC/Src/usbd_msc_scsi.c ****   {
 793              		.loc 1 580 8 is_stmt 1 view .LVU251
 580:Middlewares/ST/STM32_USB_Device_Library/Class/MSC/Src/usbd_msc_scsi.c ****   {
 794              		.loc 1 580 11 is_stmt 0 view .LVU252
 795 001c 032B     		cmp	r3, #3
 796 001e 12D1     		bne	.L62
 582:Middlewares/ST/STM32_USB_Device_Library/Class/MSC/Src/usbd_msc_scsi.c ****   }
 797              		.loc 1 582 5 is_stmt 1 view .LVU253
 582:Middlewares/ST/STM32_USB_Device_Library/Class/MSC/Src/usbd_msc_scsi.c ****   }
 798              		.loc 1 582 29 is_stmt 0 view .LVU254
 799 0020 0023     		movs	r3, #0
 800 0022 84F86232 		strb	r3, [r4, #610]
 801 0026 0EE0     		b	.L62
 802              	.L65:
 565:Middlewares/ST/STM32_USB_Device_Library/Class/MSC/Src/usbd_msc_scsi.c ****   {
 803              		.loc 1 565 66 discriminator 1 view .LVU255
 804 0028 1379     		ldrb	r3, [r2, #4]	@ zero_extendqisi2
 565:Middlewares/ST/STM32_USB_Device_Library/Class/MSC/Src/usbd_msc_scsi.c ****   {
 805              		.loc 1 565 55 discriminator 1 view .LVU256
 806 002a 03F00303 		and	r3, r3, #3
 807 002e 022B     		cmp	r3, #2
 808 0030 EDD1     		bne	.L59
 567:Middlewares/ST/STM32_USB_Device_Library/Class/MSC/Src/usbd_msc_scsi.c **** 
 809              		.loc 1 567 5 is_stmt 1 view .LVU257
 810 0032 2423     		movs	r3, #36
 811 0034 0522     		movs	r2, #5
 812              	.LVL87:
 567:Middlewares/ST/STM32_USB_Device_Library/Class/MSC/Src/usbd_msc_scsi.c **** 
 813              		.loc 1 567 5 is_stmt 0 view .LVU258
 814 0036 FFF7FEFF 		bl	SCSI_SenseCode
 815              	.LVL88:
 569:Middlewares/ST/STM32_USB_Device_Library/Class/MSC/Src/usbd_msc_scsi.c ****   }
 816              		.loc 1 569 5 is_stmt 1 view .LVU259
 569:Middlewares/ST/STM32_USB_Device_Library/Class/MSC/Src/usbd_msc_scsi.c ****   }
 817              		.loc 1 569 12 is_stmt 0 view .LVU260
 818 003a 4FF0FF30 		mov	r0, #-1
 819 003e 04E0     		b	.L60
 820              	.LVL89:
 821              	.L66:
 574:Middlewares/ST/STM32_USB_Device_Library/Class/MSC/Src/usbd_msc_scsi.c ****   }
 822              		.loc 1 574 5 is_stmt 1 view .LVU261
 574:Middlewares/ST/STM32_USB_Device_Library/Class/MSC/Src/usbd_msc_scsi.c ****   }
 823              		.loc 1 574 29 is_stmt 0 view .LVU262
 824 0040 0023     		movs	r3, #0
 825 0042 84F86232 		strb	r3, [r4, #610]
 826              	.L62:
 587:Middlewares/ST/STM32_USB_Device_Library/Class/MSC/Src/usbd_msc_scsi.c ****   hmsc->bot_data_length = 0U;
 827              		.loc 1 587 3 is_stmt 1 view .LVU263
 588:Middlewares/ST/STM32_USB_Device_Library/Class/MSC/Src/usbd_msc_scsi.c **** 
 828              		.loc 1 588 3 view .LVU264
 588:Middlewares/ST/STM32_USB_Device_Library/Class/MSC/Src/usbd_msc_scsi.c **** 
 829              		.loc 1 588 25 is_stmt 0 view .LVU265
 830 0046 0020     		movs	r0, #0
 831              	.LVL90:
ARM GAS  D:\Temp\cclqlYRL.s 			page 38


 588:Middlewares/ST/STM32_USB_Device_Library/Class/MSC/Src/usbd_msc_scsi.c **** 
 832              		.loc 1 588 25 view .LVU266
 833 0048 E060     		str	r0, [r4, #12]
 590:Middlewares/ST/STM32_USB_Device_Library/Class/MSC/Src/usbd_msc_scsi.c **** }
 834              		.loc 1 590 3 is_stmt 1 view .LVU267
 835              	.LVL91:
 836              	.L60:
 591:Middlewares/ST/STM32_USB_Device_Library/Class/MSC/Src/usbd_msc_scsi.c **** 
 837              		.loc 1 591 1 is_stmt 0 view .LVU268
 838 004a 10BD     		pop	{r4, pc}
 839              	.LVL92:
 840              	.L67:
 578:Middlewares/ST/STM32_USB_Device_Library/Class/MSC/Src/usbd_msc_scsi.c ****   }
 841              		.loc 1 578 5 is_stmt 1 view .LVU269
 578:Middlewares/ST/STM32_USB_Device_Library/Class/MSC/Src/usbd_msc_scsi.c ****   }
 842              		.loc 1 578 29 is_stmt 0 view .LVU270
 843 004c 84F86232 		strb	r3, [r4, #610]
 844 0050 F9E7     		b	.L62
 845              		.cfi_endproc
 846              	.LFE144:
 848              		.section	.text.SCSI_ReadFormatCapacity,"ax",%progbits
 849              		.align	1
 850              		.syntax unified
 851              		.thumb
 852              		.thumb_func
 853              		.fpu fpv4-sp-d16
 855              	SCSI_ReadFormatCapacity:
 856              	.LVL93:
 857              	.LFB139:
 390:Middlewares/ST/STM32_USB_Device_Library/Class/MSC/Src/usbd_msc_scsi.c ****   UNUSED(params);
 858              		.loc 1 390 1 is_stmt 1 view -0
 859              		.cfi_startproc
 860              		@ args = 0, pretend = 0, frame = 8
 861              		@ frame_needed = 0, uses_anonymous_args = 0
 390:Middlewares/ST/STM32_USB_Device_Library/Class/MSC/Src/usbd_msc_scsi.c ****   UNUSED(params);
 862              		.loc 1 390 1 is_stmt 0 view .LVU272
 863 0000 F0B5     		push	{r4, r5, r6, r7, lr}
 864              	.LCFI11:
 865              		.cfi_def_cfa_offset 20
 866              		.cfi_offset 4, -20
 867              		.cfi_offset 5, -16
 868              		.cfi_offset 6, -12
 869              		.cfi_offset 7, -8
 870              		.cfi_offset 14, -4
 871 0002 83B0     		sub	sp, sp, #12
 872              	.LCFI12:
 873              		.cfi_def_cfa_offset 32
 874 0004 0546     		mov	r5, r0
 875 0006 0F46     		mov	r7, r1
 391:Middlewares/ST/STM32_USB_Device_Library/Class/MSC/Src/usbd_msc_scsi.c ****   uint16_t blk_size;
 876              		.loc 1 391 3 is_stmt 1 view .LVU273
 392:Middlewares/ST/STM32_USB_Device_Library/Class/MSC/Src/usbd_msc_scsi.c ****   uint32_t blk_nbr;
 877              		.loc 1 392 3 view .LVU274
 393:Middlewares/ST/STM32_USB_Device_Library/Class/MSC/Src/usbd_msc_scsi.c ****   uint16_t i;
 878              		.loc 1 393 3 view .LVU275
 394:Middlewares/ST/STM32_USB_Device_Library/Class/MSC/Src/usbd_msc_scsi.c ****   int8_t ret;
 879              		.loc 1 394 3 view .LVU276
ARM GAS  D:\Temp\cclqlYRL.s 			page 39


 395:Middlewares/ST/STM32_USB_Device_Library/Class/MSC/Src/usbd_msc_scsi.c ****   USBD_MSC_BOT_HandleTypeDef *hmsc = (USBD_MSC_BOT_HandleTypeDef *)pdev->pClassData;
 880              		.loc 1 395 3 view .LVU277
 396:Middlewares/ST/STM32_USB_Device_Library/Class/MSC/Src/usbd_msc_scsi.c **** 
 881              		.loc 1 396 3 view .LVU278
 396:Middlewares/ST/STM32_USB_Device_Library/Class/MSC/Src/usbd_msc_scsi.c **** 
 882              		.loc 1 396 31 is_stmt 0 view .LVU279
 883 0008 D0F8BC42 		ldr	r4, [r0, #700]
 884              	.LVL94:
 398:Middlewares/ST/STM32_USB_Device_Library/Class/MSC/Src/usbd_msc_scsi.c **** 
 885              		.loc 1 398 3 is_stmt 1 view .LVU280
 398:Middlewares/ST/STM32_USB_Device_Library/Class/MSC/Src/usbd_msc_scsi.c **** 
 886              		.loc 1 398 37 is_stmt 0 view .LVU281
 887 000c D0F8C032 		ldr	r3, [r0, #704]
 398:Middlewares/ST/STM32_USB_Device_Library/Class/MSC/Src/usbd_msc_scsi.c **** 
 888              		.loc 1 398 49 view .LVU282
 889 0010 5B68     		ldr	r3, [r3, #4]
 398:Middlewares/ST/STM32_USB_Device_Library/Class/MSC/Src/usbd_msc_scsi.c **** 
 890              		.loc 1 398 10 view .LVU283
 891 0012 0DF10602 		add	r2, sp, #6
 892              	.LVL95:
 398:Middlewares/ST/STM32_USB_Device_Library/Class/MSC/Src/usbd_msc_scsi.c **** 
 893              		.loc 1 398 10 view .LVU284
 894 0016 6946     		mov	r1, sp
 895              	.LVL96:
 398:Middlewares/ST/STM32_USB_Device_Library/Class/MSC/Src/usbd_msc_scsi.c **** 
 896              		.loc 1 398 10 view .LVU285
 897 0018 3846     		mov	r0, r7
 898              	.LVL97:
 398:Middlewares/ST/STM32_USB_Device_Library/Class/MSC/Src/usbd_msc_scsi.c **** 
 899              		.loc 1 398 10 view .LVU286
 900 001a 9847     		blx	r3
 901              	.LVL98:
 400:Middlewares/ST/STM32_USB_Device_Library/Class/MSC/Src/usbd_msc_scsi.c ****   {
 902              		.loc 1 400 3 is_stmt 1 view .LVU287
 400:Middlewares/ST/STM32_USB_Device_Library/Class/MSC/Src/usbd_msc_scsi.c ****   {
 903              		.loc 1 400 6 is_stmt 0 view .LVU288
 904 001c 68B9     		cbnz	r0, .L69
 905 001e 0646     		mov	r6, r0
 400:Middlewares/ST/STM32_USB_Device_Library/Class/MSC/Src/usbd_msc_scsi.c ****   {
 906              		.loc 1 400 26 discriminator 1 view .LVU289
 907 0020 94F86232 		ldrb	r3, [r4, #610]	@ zero_extendqisi2
 400:Middlewares/ST/STM32_USB_Device_Library/Class/MSC/Src/usbd_msc_scsi.c ****   {
 908              		.loc 1 400 18 discriminator 1 view .LVU290
 909 0024 022B     		cmp	r3, #2
 910 0026 08D0     		beq	.L69
 406:Middlewares/ST/STM32_USB_Device_Library/Class/MSC/Src/usbd_msc_scsi.c ****   {
 911              		.loc 1 406 10 view .LVU291
 912 0028 0023     		movs	r3, #0
 913              	.L70:
 914              	.LVL99:
 406:Middlewares/ST/STM32_USB_Device_Library/Class/MSC/Src/usbd_msc_scsi.c ****   {
 915              		.loc 1 406 3 discriminator 1 view .LVU292
 916 002a 0B2B     		cmp	r3, #11
 917 002c 0ED8     		bhi	.L75
 408:Middlewares/ST/STM32_USB_Device_Library/Class/MSC/Src/usbd_msc_scsi.c ****   }
 918              		.loc 1 408 5 is_stmt 1 discriminator 3 view .LVU293
 408:Middlewares/ST/STM32_USB_Device_Library/Class/MSC/Src/usbd_msc_scsi.c ****   }
ARM GAS  D:\Temp\cclqlYRL.s 			page 40


 919              		.loc 1 408 23 is_stmt 0 discriminator 3 view .LVU294
 920 002e E218     		adds	r2, r4, r3
 921 0030 0021     		movs	r1, #0
 922 0032 1174     		strb	r1, [r2, #16]
 406:Middlewares/ST/STM32_USB_Device_Library/Class/MSC/Src/usbd_msc_scsi.c ****   {
 923              		.loc 1 406 27 discriminator 3 view .LVU295
 924 0034 0133     		adds	r3, r3, #1
 925              	.LVL100:
 406:Middlewares/ST/STM32_USB_Device_Library/Class/MSC/Src/usbd_msc_scsi.c ****   {
 926              		.loc 1 406 27 discriminator 3 view .LVU296
 927 0036 9BB2     		uxth	r3, r3
 928              	.LVL101:
 406:Middlewares/ST/STM32_USB_Device_Library/Class/MSC/Src/usbd_msc_scsi.c ****   {
 929              		.loc 1 406 27 discriminator 3 view .LVU297
 930 0038 F7E7     		b	.L70
 931              	.LVL102:
 932              	.L69:
 402:Middlewares/ST/STM32_USB_Device_Library/Class/MSC/Src/usbd_msc_scsi.c ****     return -1;
 933              		.loc 1 402 5 is_stmt 1 view .LVU298
 934 003a 3A23     		movs	r3, #58
 935 003c 0222     		movs	r2, #2
 936 003e 3946     		mov	r1, r7
 937 0040 2846     		mov	r0, r5
 938              	.LVL103:
 402:Middlewares/ST/STM32_USB_Device_Library/Class/MSC/Src/usbd_msc_scsi.c ****     return -1;
 939              		.loc 1 402 5 is_stmt 0 view .LVU299
 940 0042 FFF7FEFF 		bl	SCSI_SenseCode
 941              	.LVL104:
 403:Middlewares/ST/STM32_USB_Device_Library/Class/MSC/Src/usbd_msc_scsi.c ****   }
 942              		.loc 1 403 5 is_stmt 1 view .LVU300
 403:Middlewares/ST/STM32_USB_Device_Library/Class/MSC/Src/usbd_msc_scsi.c ****   }
 943              		.loc 1 403 12 is_stmt 0 view .LVU301
 944 0046 4FF0FF36 		mov	r6, #-1
 945 004a 18E0     		b	.L71
 946              	.LVL105:
 947              	.L75:
 411:Middlewares/ST/STM32_USB_Device_Library/Class/MSC/Src/usbd_msc_scsi.c ****   hmsc->bot_data[4] = (uint8_t)((blk_nbr - 1U) >> 24);
 948              		.loc 1 411 3 is_stmt 1 view .LVU302
 411:Middlewares/ST/STM32_USB_Device_Library/Class/MSC/Src/usbd_msc_scsi.c ****   hmsc->bot_data[4] = (uint8_t)((blk_nbr - 1U) >> 24);
 949              		.loc 1 411 21 is_stmt 0 view .LVU303
 950 004c 0823     		movs	r3, #8
 951              	.LVL106:
 411:Middlewares/ST/STM32_USB_Device_Library/Class/MSC/Src/usbd_msc_scsi.c ****   hmsc->bot_data[4] = (uint8_t)((blk_nbr - 1U) >> 24);
 952              		.loc 1 411 21 view .LVU304
 953 004e E374     		strb	r3, [r4, #19]
 412:Middlewares/ST/STM32_USB_Device_Library/Class/MSC/Src/usbd_msc_scsi.c ****   hmsc->bot_data[5] = (uint8_t)((blk_nbr - 1U) >> 16);
 954              		.loc 1 412 3 is_stmt 1 view .LVU305
 412:Middlewares/ST/STM32_USB_Device_Library/Class/MSC/Src/usbd_msc_scsi.c ****   hmsc->bot_data[5] = (uint8_t)((blk_nbr - 1U) >> 16);
 955              		.loc 1 412 42 is_stmt 0 view .LVU306
 956 0050 009A     		ldr	r2, [sp]
 957 0052 531E     		subs	r3, r2, #1
 412:Middlewares/ST/STM32_USB_Device_Library/Class/MSC/Src/usbd_msc_scsi.c ****   hmsc->bot_data[5] = (uint8_t)((blk_nbr - 1U) >> 16);
 958              		.loc 1 412 23 view .LVU307
 959 0054 190E     		lsrs	r1, r3, #24
 412:Middlewares/ST/STM32_USB_Device_Library/Class/MSC/Src/usbd_msc_scsi.c ****   hmsc->bot_data[5] = (uint8_t)((blk_nbr - 1U) >> 16);
 960              		.loc 1 412 21 view .LVU308
 961 0056 2175     		strb	r1, [r4, #20]
ARM GAS  D:\Temp\cclqlYRL.s 			page 41


 413:Middlewares/ST/STM32_USB_Device_Library/Class/MSC/Src/usbd_msc_scsi.c ****   hmsc->bot_data[6] = (uint8_t)((blk_nbr - 1U) >>  8);
 962              		.loc 1 413 3 is_stmt 1 view .LVU309
 413:Middlewares/ST/STM32_USB_Device_Library/Class/MSC/Src/usbd_msc_scsi.c ****   hmsc->bot_data[6] = (uint8_t)((blk_nbr - 1U) >>  8);
 963              		.loc 1 413 23 is_stmt 0 view .LVU310
 964 0058 C3F30741 		ubfx	r1, r3, #16, #8
 413:Middlewares/ST/STM32_USB_Device_Library/Class/MSC/Src/usbd_msc_scsi.c ****   hmsc->bot_data[6] = (uint8_t)((blk_nbr - 1U) >>  8);
 965              		.loc 1 413 21 view .LVU311
 966 005c 6175     		strb	r1, [r4, #21]
 414:Middlewares/ST/STM32_USB_Device_Library/Class/MSC/Src/usbd_msc_scsi.c ****   hmsc->bot_data[7] = (uint8_t)(blk_nbr - 1U);
 967              		.loc 1 414 3 is_stmt 1 view .LVU312
 414:Middlewares/ST/STM32_USB_Device_Library/Class/MSC/Src/usbd_msc_scsi.c ****   hmsc->bot_data[7] = (uint8_t)(blk_nbr - 1U);
 968              		.loc 1 414 23 is_stmt 0 view .LVU313
 969 005e C3F30723 		ubfx	r3, r3, #8, #8
 414:Middlewares/ST/STM32_USB_Device_Library/Class/MSC/Src/usbd_msc_scsi.c ****   hmsc->bot_data[7] = (uint8_t)(blk_nbr - 1U);
 970              		.loc 1 414 21 view .LVU314
 971 0062 A375     		strb	r3, [r4, #22]
 415:Middlewares/ST/STM32_USB_Device_Library/Class/MSC/Src/usbd_msc_scsi.c **** 
 972              		.loc 1 415 3 is_stmt 1 view .LVU315
 415:Middlewares/ST/STM32_USB_Device_Library/Class/MSC/Src/usbd_msc_scsi.c **** 
 973              		.loc 1 415 23 is_stmt 0 view .LVU316
 974 0064 013A     		subs	r2, r2, #1
 415:Middlewares/ST/STM32_USB_Device_Library/Class/MSC/Src/usbd_msc_scsi.c **** 
 975              		.loc 1 415 21 view .LVU317
 976 0066 E275     		strb	r2, [r4, #23]
 417:Middlewares/ST/STM32_USB_Device_Library/Class/MSC/Src/usbd_msc_scsi.c ****   hmsc->bot_data[9] = (uint8_t)(blk_size >>  16);
 977              		.loc 1 417 3 is_stmt 1 view .LVU318
 417:Middlewares/ST/STM32_USB_Device_Library/Class/MSC/Src/usbd_msc_scsi.c ****   hmsc->bot_data[9] = (uint8_t)(blk_size >>  16);
 978              		.loc 1 417 21 is_stmt 0 view .LVU319
 979 0068 0223     		movs	r3, #2
 980 006a 2376     		strb	r3, [r4, #24]
 418:Middlewares/ST/STM32_USB_Device_Library/Class/MSC/Src/usbd_msc_scsi.c ****   hmsc->bot_data[10] = (uint8_t)(blk_size >>  8);
 981              		.loc 1 418 3 is_stmt 1 view .LVU320
 418:Middlewares/ST/STM32_USB_Device_Library/Class/MSC/Src/usbd_msc_scsi.c ****   hmsc->bot_data[10] = (uint8_t)(blk_size >>  8);
 982              		.loc 1 418 42 is_stmt 0 view .LVU321
 983 006c BDF80630 		ldrh	r3, [sp, #6]
 418:Middlewares/ST/STM32_USB_Device_Library/Class/MSC/Src/usbd_msc_scsi.c ****   hmsc->bot_data[10] = (uint8_t)(blk_size >>  8);
 984              		.loc 1 418 23 view .LVU322
 985 0070 0022     		movs	r2, #0
 418:Middlewares/ST/STM32_USB_Device_Library/Class/MSC/Src/usbd_msc_scsi.c ****   hmsc->bot_data[10] = (uint8_t)(blk_size >>  8);
 986              		.loc 1 418 21 view .LVU323
 987 0072 6276     		strb	r2, [r4, #25]
 419:Middlewares/ST/STM32_USB_Device_Library/Class/MSC/Src/usbd_msc_scsi.c ****   hmsc->bot_data[11] = (uint8_t)(blk_size);
 988              		.loc 1 419 3 is_stmt 1 view .LVU324
 419:Middlewares/ST/STM32_USB_Device_Library/Class/MSC/Src/usbd_msc_scsi.c ****   hmsc->bot_data[11] = (uint8_t)(blk_size);
 989              		.loc 1 419 24 is_stmt 0 view .LVU325
 990 0074 1A0A     		lsrs	r2, r3, #8
 419:Middlewares/ST/STM32_USB_Device_Library/Class/MSC/Src/usbd_msc_scsi.c ****   hmsc->bot_data[11] = (uint8_t)(blk_size);
 991              		.loc 1 419 22 view .LVU326
 992 0076 A276     		strb	r2, [r4, #26]
 420:Middlewares/ST/STM32_USB_Device_Library/Class/MSC/Src/usbd_msc_scsi.c **** 
 993              		.loc 1 420 3 is_stmt 1 view .LVU327
 420:Middlewares/ST/STM32_USB_Device_Library/Class/MSC/Src/usbd_msc_scsi.c **** 
 994              		.loc 1 420 22 is_stmt 0 view .LVU328
 995 0078 E376     		strb	r3, [r4, #27]
 422:Middlewares/ST/STM32_USB_Device_Library/Class/MSC/Src/usbd_msc_scsi.c **** 
 996              		.loc 1 422 3 is_stmt 1 view .LVU329
 422:Middlewares/ST/STM32_USB_Device_Library/Class/MSC/Src/usbd_msc_scsi.c **** 
ARM GAS  D:\Temp\cclqlYRL.s 			page 42


 997              		.loc 1 422 25 is_stmt 0 view .LVU330
 998 007a 0C23     		movs	r3, #12
 999 007c E360     		str	r3, [r4, #12]
 424:Middlewares/ST/STM32_USB_Device_Library/Class/MSC/Src/usbd_msc_scsi.c **** }
 1000              		.loc 1 424 3 is_stmt 1 view .LVU331
 1001              	.LVL107:
 1002              	.L71:
 425:Middlewares/ST/STM32_USB_Device_Library/Class/MSC/Src/usbd_msc_scsi.c **** 
 1003              		.loc 1 425 1 is_stmt 0 view .LVU332
 1004 007e 3046     		mov	r0, r6
 1005 0080 03B0     		add	sp, sp, #12
 1006              	.LCFI13:
 1007              		.cfi_def_cfa_offset 20
 1008              		@ sp needed
 1009 0082 F0BD     		pop	{r4, r5, r6, r7, pc}
 425:Middlewares/ST/STM32_USB_Device_Library/Class/MSC/Src/usbd_msc_scsi.c **** 
 1010              		.loc 1 425 1 view .LVU333
 1011              		.cfi_endproc
 1012              	.LFE139:
 1014              		.section	.text.SCSI_ReadCapacity10,"ax",%progbits
 1015              		.align	1
 1016              		.syntax unified
 1017              		.thumb
 1018              		.thumb_func
 1019              		.fpu fpv4-sp-d16
 1021              	SCSI_ReadCapacity10:
 1022              	.LVL108:
 1023              	.LFB137:
 301:Middlewares/ST/STM32_USB_Device_Library/Class/MSC/Src/usbd_msc_scsi.c ****   UNUSED(params);
 1024              		.loc 1 301 1 is_stmt 1 view -0
 1025              		.cfi_startproc
 1026              		@ args = 0, pretend = 0, frame = 0
 1027              		@ frame_needed = 0, uses_anonymous_args = 0
 301:Middlewares/ST/STM32_USB_Device_Library/Class/MSC/Src/usbd_msc_scsi.c ****   UNUSED(params);
 1028              		.loc 1 301 1 is_stmt 0 view .LVU335
 1029 0000 70B5     		push	{r4, r5, r6, lr}
 1030              	.LCFI14:
 1031              		.cfi_def_cfa_offset 16
 1032              		.cfi_offset 4, -16
 1033              		.cfi_offset 5, -12
 1034              		.cfi_offset 6, -8
 1035              		.cfi_offset 14, -4
 1036 0002 0546     		mov	r5, r0
 1037 0004 0E46     		mov	r6, r1
 302:Middlewares/ST/STM32_USB_Device_Library/Class/MSC/Src/usbd_msc_scsi.c ****   int8_t ret;
 1038              		.loc 1 302 3 is_stmt 1 view .LVU336
 303:Middlewares/ST/STM32_USB_Device_Library/Class/MSC/Src/usbd_msc_scsi.c ****   USBD_MSC_BOT_HandleTypeDef *hmsc = (USBD_MSC_BOT_HandleTypeDef *)pdev->pClassData;
 1039              		.loc 1 303 3 view .LVU337
 304:Middlewares/ST/STM32_USB_Device_Library/Class/MSC/Src/usbd_msc_scsi.c **** 
 1040              		.loc 1 304 3 view .LVU338
 304:Middlewares/ST/STM32_USB_Device_Library/Class/MSC/Src/usbd_msc_scsi.c **** 
 1041              		.loc 1 304 31 is_stmt 0 view .LVU339
 1042 0006 D0F8BC42 		ldr	r4, [r0, #700]
 1043              	.LVL109:
 306:Middlewares/ST/STM32_USB_Device_Library/Class/MSC/Src/usbd_msc_scsi.c **** 
 1044              		.loc 1 306 3 is_stmt 1 view .LVU340
 306:Middlewares/ST/STM32_USB_Device_Library/Class/MSC/Src/usbd_msc_scsi.c **** 
ARM GAS  D:\Temp\cclqlYRL.s 			page 43


 1045              		.loc 1 306 37 is_stmt 0 view .LVU341
 1046 000a D0F8C032 		ldr	r3, [r0, #704]
 306:Middlewares/ST/STM32_USB_Device_Library/Class/MSC/Src/usbd_msc_scsi.c **** 
 1047              		.loc 1 306 49 view .LVU342
 1048 000e 5B68     		ldr	r3, [r3, #4]
 306:Middlewares/ST/STM32_USB_Device_Library/Class/MSC/Src/usbd_msc_scsi.c **** 
 1049              		.loc 1 306 10 view .LVU343
 1050 0010 04F51972 		add	r2, r4, #612
 1051              	.LVL110:
 306:Middlewares/ST/STM32_USB_Device_Library/Class/MSC/Src/usbd_msc_scsi.c **** 
 1052              		.loc 1 306 10 view .LVU344
 1053 0014 04F51A71 		add	r1, r4, #616
 1054              	.LVL111:
 306:Middlewares/ST/STM32_USB_Device_Library/Class/MSC/Src/usbd_msc_scsi.c **** 
 1055              		.loc 1 306 10 view .LVU345
 1056 0018 3046     		mov	r0, r6
 1057              	.LVL112:
 306:Middlewares/ST/STM32_USB_Device_Library/Class/MSC/Src/usbd_msc_scsi.c **** 
 1058              		.loc 1 306 10 view .LVU346
 1059 001a 9847     		blx	r3
 1060              	.LVL113:
 308:Middlewares/ST/STM32_USB_Device_Library/Class/MSC/Src/usbd_msc_scsi.c ****   {
 1061              		.loc 1 308 3 is_stmt 1 view .LVU347
 308:Middlewares/ST/STM32_USB_Device_Library/Class/MSC/Src/usbd_msc_scsi.c ****   {
 1062              		.loc 1 308 6 is_stmt 0 view .LVU348
 1063 001c E8B9     		cbnz	r0, .L77
 1064 001e 0146     		mov	r1, r0
 308:Middlewares/ST/STM32_USB_Device_Library/Class/MSC/Src/usbd_msc_scsi.c ****   {
 1065              		.loc 1 308 26 discriminator 1 view .LVU349
 1066 0020 94F86232 		ldrb	r3, [r4, #610]	@ zero_extendqisi2
 308:Middlewares/ST/STM32_USB_Device_Library/Class/MSC/Src/usbd_msc_scsi.c ****   {
 1067              		.loc 1 308 18 discriminator 1 view .LVU350
 1068 0024 022B     		cmp	r3, #2
 1069 0026 18D0     		beq	.L77
 314:Middlewares/ST/STM32_USB_Device_Library/Class/MSC/Src/usbd_msc_scsi.c ****   hmsc->bot_data[1] = (uint8_t)((hmsc->scsi_blk_nbr - 1U) >> 16);
 1070              		.loc 1 314 3 is_stmt 1 view .LVU351
 314:Middlewares/ST/STM32_USB_Device_Library/Class/MSC/Src/usbd_msc_scsi.c ****   hmsc->bot_data[1] = (uint8_t)((hmsc->scsi_blk_nbr - 1U) >> 16);
 1071              		.loc 1 314 38 is_stmt 0 view .LVU352
 1072 0028 D4F86822 		ldr	r2, [r4, #616]
 314:Middlewares/ST/STM32_USB_Device_Library/Class/MSC/Src/usbd_msc_scsi.c ****   hmsc->bot_data[1] = (uint8_t)((hmsc->scsi_blk_nbr - 1U) >> 16);
 1073              		.loc 1 314 53 view .LVU353
 1074 002c 531E     		subs	r3, r2, #1
 314:Middlewares/ST/STM32_USB_Device_Library/Class/MSC/Src/usbd_msc_scsi.c ****   hmsc->bot_data[1] = (uint8_t)((hmsc->scsi_blk_nbr - 1U) >> 16);
 1075              		.loc 1 314 23 view .LVU354
 1076 002e 180E     		lsrs	r0, r3, #24
 1077              	.LVL114:
 314:Middlewares/ST/STM32_USB_Device_Library/Class/MSC/Src/usbd_msc_scsi.c ****   hmsc->bot_data[1] = (uint8_t)((hmsc->scsi_blk_nbr - 1U) >> 16);
 1078              		.loc 1 314 21 view .LVU355
 1079 0030 2074     		strb	r0, [r4, #16]
 315:Middlewares/ST/STM32_USB_Device_Library/Class/MSC/Src/usbd_msc_scsi.c ****   hmsc->bot_data[2] = (uint8_t)((hmsc->scsi_blk_nbr - 1U) >>  8);
 1080              		.loc 1 315 3 is_stmt 1 view .LVU356
 315:Middlewares/ST/STM32_USB_Device_Library/Class/MSC/Src/usbd_msc_scsi.c ****   hmsc->bot_data[2] = (uint8_t)((hmsc->scsi_blk_nbr - 1U) >>  8);
 1081              		.loc 1 315 23 is_stmt 0 view .LVU357
 1082 0032 C3F30740 		ubfx	r0, r3, #16, #8
 315:Middlewares/ST/STM32_USB_Device_Library/Class/MSC/Src/usbd_msc_scsi.c ****   hmsc->bot_data[2] = (uint8_t)((hmsc->scsi_blk_nbr - 1U) >>  8);
 1083              		.loc 1 315 21 view .LVU358
 1084 0036 6074     		strb	r0, [r4, #17]
ARM GAS  D:\Temp\cclqlYRL.s 			page 44


 316:Middlewares/ST/STM32_USB_Device_Library/Class/MSC/Src/usbd_msc_scsi.c ****   hmsc->bot_data[3] = (uint8_t)(hmsc->scsi_blk_nbr - 1U);
 1085              		.loc 1 316 3 is_stmt 1 view .LVU359
 316:Middlewares/ST/STM32_USB_Device_Library/Class/MSC/Src/usbd_msc_scsi.c ****   hmsc->bot_data[3] = (uint8_t)(hmsc->scsi_blk_nbr - 1U);
 1086              		.loc 1 316 23 is_stmt 0 view .LVU360
 1087 0038 C3F30723 		ubfx	r3, r3, #8, #8
 316:Middlewares/ST/STM32_USB_Device_Library/Class/MSC/Src/usbd_msc_scsi.c ****   hmsc->bot_data[3] = (uint8_t)(hmsc->scsi_blk_nbr - 1U);
 1088              		.loc 1 316 21 view .LVU361
 1089 003c A374     		strb	r3, [r4, #18]
 317:Middlewares/ST/STM32_USB_Device_Library/Class/MSC/Src/usbd_msc_scsi.c **** 
 1090              		.loc 1 317 3 is_stmt 1 view .LVU362
 317:Middlewares/ST/STM32_USB_Device_Library/Class/MSC/Src/usbd_msc_scsi.c **** 
 1091              		.loc 1 317 23 is_stmt 0 view .LVU363
 1092 003e 013A     		subs	r2, r2, #1
 317:Middlewares/ST/STM32_USB_Device_Library/Class/MSC/Src/usbd_msc_scsi.c **** 
 1093              		.loc 1 317 21 view .LVU364
 1094 0040 E274     		strb	r2, [r4, #19]
 319:Middlewares/ST/STM32_USB_Device_Library/Class/MSC/Src/usbd_msc_scsi.c ****   hmsc->bot_data[5] = (uint8_t)(hmsc->scsi_blk_size >>  16);
 1095              		.loc 1 319 3 is_stmt 1 view .LVU365
 319:Middlewares/ST/STM32_USB_Device_Library/Class/MSC/Src/usbd_msc_scsi.c ****   hmsc->bot_data[5] = (uint8_t)(hmsc->scsi_blk_size >>  16);
 1096              		.loc 1 319 37 is_stmt 0 view .LVU366
 1097 0042 B4F86432 		ldrh	r3, [r4, #612]
 319:Middlewares/ST/STM32_USB_Device_Library/Class/MSC/Src/usbd_msc_scsi.c ****   hmsc->bot_data[5] = (uint8_t)(hmsc->scsi_blk_size >>  16);
 1098              		.loc 1 319 23 view .LVU367
 1099 0046 0022     		movs	r2, #0
 319:Middlewares/ST/STM32_USB_Device_Library/Class/MSC/Src/usbd_msc_scsi.c ****   hmsc->bot_data[5] = (uint8_t)(hmsc->scsi_blk_size >>  16);
 1100              		.loc 1 319 21 view .LVU368
 1101 0048 2275     		strb	r2, [r4, #20]
 320:Middlewares/ST/STM32_USB_Device_Library/Class/MSC/Src/usbd_msc_scsi.c ****   hmsc->bot_data[6] = (uint8_t)(hmsc->scsi_blk_size >>  8);
 1102              		.loc 1 320 3 is_stmt 1 view .LVU369
 320:Middlewares/ST/STM32_USB_Device_Library/Class/MSC/Src/usbd_msc_scsi.c ****   hmsc->bot_data[6] = (uint8_t)(hmsc->scsi_blk_size >>  8);
 1103              		.loc 1 320 21 is_stmt 0 view .LVU370
 1104 004a 6275     		strb	r2, [r4, #21]
 321:Middlewares/ST/STM32_USB_Device_Library/Class/MSC/Src/usbd_msc_scsi.c ****   hmsc->bot_data[7] = (uint8_t)(hmsc->scsi_blk_size);
 1105              		.loc 1 321 3 is_stmt 1 view .LVU371
 321:Middlewares/ST/STM32_USB_Device_Library/Class/MSC/Src/usbd_msc_scsi.c ****   hmsc->bot_data[7] = (uint8_t)(hmsc->scsi_blk_size);
 1106              		.loc 1 321 23 is_stmt 0 view .LVU372
 1107 004c 1A0A     		lsrs	r2, r3, #8
 321:Middlewares/ST/STM32_USB_Device_Library/Class/MSC/Src/usbd_msc_scsi.c ****   hmsc->bot_data[7] = (uint8_t)(hmsc->scsi_blk_size);
 1108              		.loc 1 321 21 view .LVU373
 1109 004e A275     		strb	r2, [r4, #22]
 322:Middlewares/ST/STM32_USB_Device_Library/Class/MSC/Src/usbd_msc_scsi.c **** 
 1110              		.loc 1 322 3 is_stmt 1 view .LVU374
 322:Middlewares/ST/STM32_USB_Device_Library/Class/MSC/Src/usbd_msc_scsi.c **** 
 1111              		.loc 1 322 21 is_stmt 0 view .LVU375
 1112 0050 E375     		strb	r3, [r4, #23]
 324:Middlewares/ST/STM32_USB_Device_Library/Class/MSC/Src/usbd_msc_scsi.c **** 
 1113              		.loc 1 324 3 is_stmt 1 view .LVU376
 324:Middlewares/ST/STM32_USB_Device_Library/Class/MSC/Src/usbd_msc_scsi.c **** 
 1114              		.loc 1 324 25 is_stmt 0 view .LVU377
 1115 0052 0823     		movs	r3, #8
 1116 0054 E360     		str	r3, [r4, #12]
 326:Middlewares/ST/STM32_USB_Device_Library/Class/MSC/Src/usbd_msc_scsi.c **** 
 1117              		.loc 1 326 3 is_stmt 1 view .LVU378
 1118              	.L79:
 328:Middlewares/ST/STM32_USB_Device_Library/Class/MSC/Src/usbd_msc_scsi.c **** 
 1119              		.loc 1 328 1 is_stmt 0 view .LVU379
 1120 0056 0846     		mov	r0, r1
ARM GAS  D:\Temp\cclqlYRL.s 			page 45


 1121 0058 70BD     		pop	{r4, r5, r6, pc}
 1122              	.LVL115:
 1123              	.L77:
 310:Middlewares/ST/STM32_USB_Device_Library/Class/MSC/Src/usbd_msc_scsi.c ****     return -1;
 1124              		.loc 1 310 5 is_stmt 1 view .LVU380
 1125 005a 3A23     		movs	r3, #58
 1126 005c 0222     		movs	r2, #2
 1127 005e 3146     		mov	r1, r6
 1128 0060 2846     		mov	r0, r5
 1129              	.LVL116:
 310:Middlewares/ST/STM32_USB_Device_Library/Class/MSC/Src/usbd_msc_scsi.c ****     return -1;
 1130              		.loc 1 310 5 is_stmt 0 view .LVU381
 1131 0062 FFF7FEFF 		bl	SCSI_SenseCode
 1132              	.LVL117:
 311:Middlewares/ST/STM32_USB_Device_Library/Class/MSC/Src/usbd_msc_scsi.c ****   }
 1133              		.loc 1 311 5 is_stmt 1 view .LVU382
 311:Middlewares/ST/STM32_USB_Device_Library/Class/MSC/Src/usbd_msc_scsi.c ****   }
 1134              		.loc 1 311 12 is_stmt 0 view .LVU383
 1135 0066 4FF0FF31 		mov	r1, #-1
 1136 006a F4E7     		b	.L79
 1137              		.cfi_endproc
 1138              	.LFE137:
 1140              		.section	.text.SCSI_ReadCapacity16,"ax",%progbits
 1141              		.align	1
 1142              		.syntax unified
 1143              		.thumb
 1144              		.thumb_func
 1145              		.fpu fpv4-sp-d16
 1147              	SCSI_ReadCapacity16:
 1148              	.LVL118:
 1149              	.LFB138:
 339:Middlewares/ST/STM32_USB_Device_Library/Class/MSC/Src/usbd_msc_scsi.c ****   UNUSED(params);
 1150              		.loc 1 339 1 is_stmt 1 view -0
 1151              		.cfi_startproc
 1152              		@ args = 0, pretend = 0, frame = 0
 1153              		@ frame_needed = 0, uses_anonymous_args = 0
 339:Middlewares/ST/STM32_USB_Device_Library/Class/MSC/Src/usbd_msc_scsi.c ****   UNUSED(params);
 1154              		.loc 1 339 1 is_stmt 0 view .LVU385
 1155 0000 2DE9F041 		push	{r4, r5, r6, r7, r8, lr}
 1156              	.LCFI15:
 1157              		.cfi_def_cfa_offset 24
 1158              		.cfi_offset 4, -24
 1159              		.cfi_offset 5, -20
 1160              		.cfi_offset 6, -16
 1161              		.cfi_offset 7, -12
 1162              		.cfi_offset 8, -8
 1163              		.cfi_offset 14, -4
 1164 0004 0746     		mov	r7, r0
 1165 0006 8846     		mov	r8, r1
 1166 0008 1546     		mov	r5, r2
 340:Middlewares/ST/STM32_USB_Device_Library/Class/MSC/Src/usbd_msc_scsi.c ****   uint8_t idx;
 1167              		.loc 1 340 3 is_stmt 1 view .LVU386
 341:Middlewares/ST/STM32_USB_Device_Library/Class/MSC/Src/usbd_msc_scsi.c ****   int8_t ret;
 1168              		.loc 1 341 3 view .LVU387
 342:Middlewares/ST/STM32_USB_Device_Library/Class/MSC/Src/usbd_msc_scsi.c ****   USBD_MSC_BOT_HandleTypeDef *hmsc = (USBD_MSC_BOT_HandleTypeDef *)pdev->pClassData;
 1169              		.loc 1 342 3 view .LVU388
 343:Middlewares/ST/STM32_USB_Device_Library/Class/MSC/Src/usbd_msc_scsi.c **** 
ARM GAS  D:\Temp\cclqlYRL.s 			page 46


 1170              		.loc 1 343 3 view .LVU389
 343:Middlewares/ST/STM32_USB_Device_Library/Class/MSC/Src/usbd_msc_scsi.c **** 
 1171              		.loc 1 343 31 is_stmt 0 view .LVU390
 1172 000a D0F8BC42 		ldr	r4, [r0, #700]
 1173              	.LVL119:
 345:Middlewares/ST/STM32_USB_Device_Library/Class/MSC/Src/usbd_msc_scsi.c **** 
 1174              		.loc 1 345 3 is_stmt 1 view .LVU391
 345:Middlewares/ST/STM32_USB_Device_Library/Class/MSC/Src/usbd_msc_scsi.c **** 
 1175              		.loc 1 345 37 is_stmt 0 view .LVU392
 1176 000e D0F8C032 		ldr	r3, [r0, #704]
 345:Middlewares/ST/STM32_USB_Device_Library/Class/MSC/Src/usbd_msc_scsi.c **** 
 1177              		.loc 1 345 49 view .LVU393
 1178 0012 5B68     		ldr	r3, [r3, #4]
 345:Middlewares/ST/STM32_USB_Device_Library/Class/MSC/Src/usbd_msc_scsi.c **** 
 1179              		.loc 1 345 10 view .LVU394
 1180 0014 04F51972 		add	r2, r4, #612
 1181              	.LVL120:
 345:Middlewares/ST/STM32_USB_Device_Library/Class/MSC/Src/usbd_msc_scsi.c **** 
 1182              		.loc 1 345 10 view .LVU395
 1183 0018 04F51A71 		add	r1, r4, #616
 1184              	.LVL121:
 345:Middlewares/ST/STM32_USB_Device_Library/Class/MSC/Src/usbd_msc_scsi.c **** 
 1185              		.loc 1 345 10 view .LVU396
 1186 001c 4046     		mov	r0, r8
 1187              	.LVL122:
 345:Middlewares/ST/STM32_USB_Device_Library/Class/MSC/Src/usbd_msc_scsi.c **** 
 1188              		.loc 1 345 10 view .LVU397
 1189 001e 9847     		blx	r3
 1190              	.LVL123:
 347:Middlewares/ST/STM32_USB_Device_Library/Class/MSC/Src/usbd_msc_scsi.c ****   {
 1191              		.loc 1 347 3 is_stmt 1 view .LVU398
 347:Middlewares/ST/STM32_USB_Device_Library/Class/MSC/Src/usbd_msc_scsi.c ****   {
 1192              		.loc 1 347 6 is_stmt 0 view .LVU399
 1193 0020 C0B9     		cbnz	r0, .L82
 1194 0022 0646     		mov	r6, r0
 347:Middlewares/ST/STM32_USB_Device_Library/Class/MSC/Src/usbd_msc_scsi.c ****   {
 1195              		.loc 1 347 26 discriminator 1 view .LVU400
 1196 0024 94F86232 		ldrb	r3, [r4, #610]	@ zero_extendqisi2
 347:Middlewares/ST/STM32_USB_Device_Library/Class/MSC/Src/usbd_msc_scsi.c ****   {
 1197              		.loc 1 347 18 discriminator 1 view .LVU401
 1198 0028 022B     		cmp	r3, #2
 1199 002a 13D0     		beq	.L82
 353:Middlewares/ST/STM32_USB_Device_Library/Class/MSC/Src/usbd_msc_scsi.c ****                           ((uint32_t)params[11] << 16) |
 1200              		.loc 1 353 3 is_stmt 1 view .LVU402
 353:Middlewares/ST/STM32_USB_Device_Library/Class/MSC/Src/usbd_msc_scsi.c ****                           ((uint32_t)params[11] << 16) |
 1201              		.loc 1 353 44 is_stmt 0 view .LVU403
 1202 002c AB7A     		ldrb	r3, [r5, #10]	@ zero_extendqisi2
 354:Middlewares/ST/STM32_USB_Device_Library/Class/MSC/Src/usbd_msc_scsi.c ****                           ((uint32_t)params[12] <<  8) |
 1203              		.loc 1 354 44 view .LVU404
 1204 002e EA7A     		ldrb	r2, [r5, #11]	@ zero_extendqisi2
 354:Middlewares/ST/STM32_USB_Device_Library/Class/MSC/Src/usbd_msc_scsi.c ****                           ((uint32_t)params[12] <<  8) |
 1205              		.loc 1 354 49 view .LVU405
 1206 0030 1204     		lsls	r2, r2, #16
 353:Middlewares/ST/STM32_USB_Device_Library/Class/MSC/Src/usbd_msc_scsi.c ****                           ((uint32_t)params[11] << 16) |
 1207              		.loc 1 353 56 view .LVU406
 1208 0032 42EA0362 		orr	r2, r2, r3, lsl #24
 355:Middlewares/ST/STM32_USB_Device_Library/Class/MSC/Src/usbd_msc_scsi.c ****                            (uint32_t)params[13];
ARM GAS  D:\Temp\cclqlYRL.s 			page 47


 1209              		.loc 1 355 44 view .LVU407
 1210 0036 2B7B     		ldrb	r3, [r5, #12]	@ zero_extendqisi2
 354:Middlewares/ST/STM32_USB_Device_Library/Class/MSC/Src/usbd_msc_scsi.c ****                           ((uint32_t)params[12] <<  8) |
 1211              		.loc 1 354 56 view .LVU408
 1212 0038 42EA0322 		orr	r2, r2, r3, lsl #8
 356:Middlewares/ST/STM32_USB_Device_Library/Class/MSC/Src/usbd_msc_scsi.c **** 
 1213              		.loc 1 356 44 view .LVU409
 1214 003c 6B7B     		ldrb	r3, [r5, #13]	@ zero_extendqisi2
 355:Middlewares/ST/STM32_USB_Device_Library/Class/MSC/Src/usbd_msc_scsi.c ****                            (uint32_t)params[13];
 1215              		.loc 1 355 56 view .LVU410
 1216 003e 1A43     		orrs	r2, r2, r3
 353:Middlewares/ST/STM32_USB_Device_Library/Class/MSC/Src/usbd_msc_scsi.c ****                           ((uint32_t)params[11] << 16) |
 1217              		.loc 1 353 25 view .LVU411
 1218 0040 E260     		str	r2, [r4, #12]
 358:Middlewares/ST/STM32_USB_Device_Library/Class/MSC/Src/usbd_msc_scsi.c ****   {
 1219              		.loc 1 358 3 is_stmt 1 view .LVU412
 1220              	.LVL124:
 358:Middlewares/ST/STM32_USB_Device_Library/Class/MSC/Src/usbd_msc_scsi.c ****   {
 1221              		.loc 1 358 12 is_stmt 0 view .LVU413
 1222 0042 0023     		movs	r3, #0
 1223              	.LVL125:
 1224              	.L85:
 358:Middlewares/ST/STM32_USB_Device_Library/Class/MSC/Src/usbd_msc_scsi.c ****   {
 1225              		.loc 1 358 3 discriminator 1 view .LVU414
 1226 0044 9A42     		cmp	r2, r3
 1227 0046 0ED9     		bls	.L88
 360:Middlewares/ST/STM32_USB_Device_Library/Class/MSC/Src/usbd_msc_scsi.c ****   }
 1228              		.loc 1 360 5 is_stmt 1 discriminator 3 view .LVU415
 360:Middlewares/ST/STM32_USB_Device_Library/Class/MSC/Src/usbd_msc_scsi.c ****   }
 1229              		.loc 1 360 25 is_stmt 0 discriminator 3 view .LVU416
 1230 0048 E118     		adds	r1, r4, r3
 1231 004a 0020     		movs	r0, #0
 1232 004c 0874     		strb	r0, [r1, #16]
 358:Middlewares/ST/STM32_USB_Device_Library/Class/MSC/Src/usbd_msc_scsi.c ****   {
 1233              		.loc 1 358 50 discriminator 3 view .LVU417
 1234 004e 0133     		adds	r3, r3, #1
 1235              	.LVL126:
 358:Middlewares/ST/STM32_USB_Device_Library/Class/MSC/Src/usbd_msc_scsi.c ****   {
 1236              		.loc 1 358 50 discriminator 3 view .LVU418
 1237 0050 DBB2     		uxtb	r3, r3
 1238              	.LVL127:
 358:Middlewares/ST/STM32_USB_Device_Library/Class/MSC/Src/usbd_msc_scsi.c ****   {
 1239              		.loc 1 358 50 discriminator 3 view .LVU419
 1240 0052 F7E7     		b	.L85
 1241              	.LVL128:
 1242              	.L82:
 349:Middlewares/ST/STM32_USB_Device_Library/Class/MSC/Src/usbd_msc_scsi.c ****     return -1;
 1243              		.loc 1 349 5 is_stmt 1 view .LVU420
 1244 0054 3A23     		movs	r3, #58
 1245 0056 0222     		movs	r2, #2
 1246 0058 4146     		mov	r1, r8
 1247 005a 3846     		mov	r0, r7
 1248              	.LVL129:
 349:Middlewares/ST/STM32_USB_Device_Library/Class/MSC/Src/usbd_msc_scsi.c ****     return -1;
 1249              		.loc 1 349 5 is_stmt 0 view .LVU421
 1250 005c FFF7FEFF 		bl	SCSI_SenseCode
 1251              	.LVL130:
ARM GAS  D:\Temp\cclqlYRL.s 			page 48


 350:Middlewares/ST/STM32_USB_Device_Library/Class/MSC/Src/usbd_msc_scsi.c ****   }
 1252              		.loc 1 350 5 is_stmt 1 view .LVU422
 350:Middlewares/ST/STM32_USB_Device_Library/Class/MSC/Src/usbd_msc_scsi.c ****   }
 1253              		.loc 1 350 12 is_stmt 0 view .LVU423
 1254 0060 4FF0FF36 		mov	r6, #-1
 1255 0064 1FE0     		b	.L84
 1256              	.LVL131:
 1257              	.L88:
 363:Middlewares/ST/STM32_USB_Device_Library/Class/MSC/Src/usbd_msc_scsi.c ****   hmsc->bot_data[5] = (uint8_t)((hmsc->scsi_blk_nbr - 1U) >> 16);
 1258              		.loc 1 363 3 is_stmt 1 view .LVU424
 363:Middlewares/ST/STM32_USB_Device_Library/Class/MSC/Src/usbd_msc_scsi.c ****   hmsc->bot_data[5] = (uint8_t)((hmsc->scsi_blk_nbr - 1U) >> 16);
 1259              		.loc 1 363 38 is_stmt 0 view .LVU425
 1260 0066 D4F86822 		ldr	r2, [r4, #616]
 363:Middlewares/ST/STM32_USB_Device_Library/Class/MSC/Src/usbd_msc_scsi.c ****   hmsc->bot_data[5] = (uint8_t)((hmsc->scsi_blk_nbr - 1U) >> 16);
 1261              		.loc 1 363 53 view .LVU426
 1262 006a 531E     		subs	r3, r2, #1
 1263              	.LVL132:
 363:Middlewares/ST/STM32_USB_Device_Library/Class/MSC/Src/usbd_msc_scsi.c ****   hmsc->bot_data[5] = (uint8_t)((hmsc->scsi_blk_nbr - 1U) >> 16);
 1264              		.loc 1 363 23 view .LVU427
 1265 006c 190E     		lsrs	r1, r3, #24
 363:Middlewares/ST/STM32_USB_Device_Library/Class/MSC/Src/usbd_msc_scsi.c ****   hmsc->bot_data[5] = (uint8_t)((hmsc->scsi_blk_nbr - 1U) >> 16);
 1266              		.loc 1 363 21 view .LVU428
 1267 006e 2175     		strb	r1, [r4, #20]
 364:Middlewares/ST/STM32_USB_Device_Library/Class/MSC/Src/usbd_msc_scsi.c ****   hmsc->bot_data[6] = (uint8_t)((hmsc->scsi_blk_nbr - 1U) >>  8);
 1268              		.loc 1 364 3 is_stmt 1 view .LVU429
 364:Middlewares/ST/STM32_USB_Device_Library/Class/MSC/Src/usbd_msc_scsi.c ****   hmsc->bot_data[6] = (uint8_t)((hmsc->scsi_blk_nbr - 1U) >>  8);
 1269              		.loc 1 364 23 is_stmt 0 view .LVU430
 1270 0070 C3F30741 		ubfx	r1, r3, #16, #8
 364:Middlewares/ST/STM32_USB_Device_Library/Class/MSC/Src/usbd_msc_scsi.c ****   hmsc->bot_data[6] = (uint8_t)((hmsc->scsi_blk_nbr - 1U) >>  8);
 1271              		.loc 1 364 21 view .LVU431
 1272 0074 6175     		strb	r1, [r4, #21]
 365:Middlewares/ST/STM32_USB_Device_Library/Class/MSC/Src/usbd_msc_scsi.c ****   hmsc->bot_data[7] = (uint8_t)(hmsc->scsi_blk_nbr - 1U);
 1273              		.loc 1 365 3 is_stmt 1 view .LVU432
 365:Middlewares/ST/STM32_USB_Device_Library/Class/MSC/Src/usbd_msc_scsi.c ****   hmsc->bot_data[7] = (uint8_t)(hmsc->scsi_blk_nbr - 1U);
 1274              		.loc 1 365 23 is_stmt 0 view .LVU433
 1275 0076 C3F30723 		ubfx	r3, r3, #8, #8
 365:Middlewares/ST/STM32_USB_Device_Library/Class/MSC/Src/usbd_msc_scsi.c ****   hmsc->bot_data[7] = (uint8_t)(hmsc->scsi_blk_nbr - 1U);
 1276              		.loc 1 365 21 view .LVU434
 1277 007a A375     		strb	r3, [r4, #22]
 366:Middlewares/ST/STM32_USB_Device_Library/Class/MSC/Src/usbd_msc_scsi.c **** 
 1278              		.loc 1 366 3 is_stmt 1 view .LVU435
 366:Middlewares/ST/STM32_USB_Device_Library/Class/MSC/Src/usbd_msc_scsi.c **** 
 1279              		.loc 1 366 23 is_stmt 0 view .LVU436
 1280 007c 013A     		subs	r2, r2, #1
 366:Middlewares/ST/STM32_USB_Device_Library/Class/MSC/Src/usbd_msc_scsi.c **** 
 1281              		.loc 1 366 21 view .LVU437
 1282 007e E275     		strb	r2, [r4, #23]
 368:Middlewares/ST/STM32_USB_Device_Library/Class/MSC/Src/usbd_msc_scsi.c ****   hmsc->bot_data[9] = (uint8_t)(hmsc->scsi_blk_size >>  16);
 1283              		.loc 1 368 3 is_stmt 1 view .LVU438
 368:Middlewares/ST/STM32_USB_Device_Library/Class/MSC/Src/usbd_msc_scsi.c ****   hmsc->bot_data[9] = (uint8_t)(hmsc->scsi_blk_size >>  16);
 1284              		.loc 1 368 37 is_stmt 0 view .LVU439
 1285 0080 B4F86432 		ldrh	r3, [r4, #612]
 368:Middlewares/ST/STM32_USB_Device_Library/Class/MSC/Src/usbd_msc_scsi.c ****   hmsc->bot_data[9] = (uint8_t)(hmsc->scsi_blk_size >>  16);
 1286              		.loc 1 368 23 view .LVU440
 1287 0084 0022     		movs	r2, #0
 368:Middlewares/ST/STM32_USB_Device_Library/Class/MSC/Src/usbd_msc_scsi.c ****   hmsc->bot_data[9] = (uint8_t)(hmsc->scsi_blk_size >>  16);
 1288              		.loc 1 368 21 view .LVU441
ARM GAS  D:\Temp\cclqlYRL.s 			page 49


 1289 0086 2276     		strb	r2, [r4, #24]
 369:Middlewares/ST/STM32_USB_Device_Library/Class/MSC/Src/usbd_msc_scsi.c ****   hmsc->bot_data[10] = (uint8_t)(hmsc->scsi_blk_size >>  8);
 1290              		.loc 1 369 3 is_stmt 1 view .LVU442
 369:Middlewares/ST/STM32_USB_Device_Library/Class/MSC/Src/usbd_msc_scsi.c ****   hmsc->bot_data[10] = (uint8_t)(hmsc->scsi_blk_size >>  8);
 1291              		.loc 1 369 21 is_stmt 0 view .LVU443
 1292 0088 6276     		strb	r2, [r4, #25]
 370:Middlewares/ST/STM32_USB_Device_Library/Class/MSC/Src/usbd_msc_scsi.c ****   hmsc->bot_data[11] = (uint8_t)(hmsc->scsi_blk_size);
 1293              		.loc 1 370 3 is_stmt 1 view .LVU444
 370:Middlewares/ST/STM32_USB_Device_Library/Class/MSC/Src/usbd_msc_scsi.c ****   hmsc->bot_data[11] = (uint8_t)(hmsc->scsi_blk_size);
 1294              		.loc 1 370 24 is_stmt 0 view .LVU445
 1295 008a 1A0A     		lsrs	r2, r3, #8
 370:Middlewares/ST/STM32_USB_Device_Library/Class/MSC/Src/usbd_msc_scsi.c ****   hmsc->bot_data[11] = (uint8_t)(hmsc->scsi_blk_size);
 1296              		.loc 1 370 22 view .LVU446
 1297 008c A276     		strb	r2, [r4, #26]
 371:Middlewares/ST/STM32_USB_Device_Library/Class/MSC/Src/usbd_msc_scsi.c **** 
 1298              		.loc 1 371 3 is_stmt 1 view .LVU447
 371:Middlewares/ST/STM32_USB_Device_Library/Class/MSC/Src/usbd_msc_scsi.c **** 
 1299              		.loc 1 371 22 is_stmt 0 view .LVU448
 1300 008e E376     		strb	r3, [r4, #27]
 373:Middlewares/ST/STM32_USB_Device_Library/Class/MSC/Src/usbd_msc_scsi.c ****                           ((uint32_t)params[11] << 16) |
 1301              		.loc 1 373 3 is_stmt 1 view .LVU449
 373:Middlewares/ST/STM32_USB_Device_Library/Class/MSC/Src/usbd_msc_scsi.c ****                           ((uint32_t)params[11] << 16) |
 1302              		.loc 1 373 44 is_stmt 0 view .LVU450
 1303 0090 AA7A     		ldrb	r2, [r5, #10]	@ zero_extendqisi2
 374:Middlewares/ST/STM32_USB_Device_Library/Class/MSC/Src/usbd_msc_scsi.c ****                           ((uint32_t)params[12] <<  8) |
 1304              		.loc 1 374 44 view .LVU451
 1305 0092 EB7A     		ldrb	r3, [r5, #11]	@ zero_extendqisi2
 374:Middlewares/ST/STM32_USB_Device_Library/Class/MSC/Src/usbd_msc_scsi.c ****                           ((uint32_t)params[12] <<  8) |
 1306              		.loc 1 374 49 view .LVU452
 1307 0094 1B04     		lsls	r3, r3, #16
 373:Middlewares/ST/STM32_USB_Device_Library/Class/MSC/Src/usbd_msc_scsi.c ****                           ((uint32_t)params[11] << 16) |
 1308              		.loc 1 373 56 view .LVU453
 1309 0096 43EA0263 		orr	r3, r3, r2, lsl #24
 375:Middlewares/ST/STM32_USB_Device_Library/Class/MSC/Src/usbd_msc_scsi.c ****                            (uint32_t)params[13];
 1310              		.loc 1 375 44 view .LVU454
 1311 009a 2A7B     		ldrb	r2, [r5, #12]	@ zero_extendqisi2
 374:Middlewares/ST/STM32_USB_Device_Library/Class/MSC/Src/usbd_msc_scsi.c ****                           ((uint32_t)params[12] <<  8) |
 1312              		.loc 1 374 56 view .LVU455
 1313 009c 43EA0223 		orr	r3, r3, r2, lsl #8
 376:Middlewares/ST/STM32_USB_Device_Library/Class/MSC/Src/usbd_msc_scsi.c **** 
 1314              		.loc 1 376 44 view .LVU456
 1315 00a0 6A7B     		ldrb	r2, [r5, #13]	@ zero_extendqisi2
 375:Middlewares/ST/STM32_USB_Device_Library/Class/MSC/Src/usbd_msc_scsi.c ****                            (uint32_t)params[13];
 1316              		.loc 1 375 56 view .LVU457
 1317 00a2 1343     		orrs	r3, r3, r2
 373:Middlewares/ST/STM32_USB_Device_Library/Class/MSC/Src/usbd_msc_scsi.c ****                           ((uint32_t)params[11] << 16) |
 1318              		.loc 1 373 25 view .LVU458
 1319 00a4 E360     		str	r3, [r4, #12]
 378:Middlewares/ST/STM32_USB_Device_Library/Class/MSC/Src/usbd_msc_scsi.c **** }
 1320              		.loc 1 378 3 is_stmt 1 view .LVU459
 1321              	.L84:
 379:Middlewares/ST/STM32_USB_Device_Library/Class/MSC/Src/usbd_msc_scsi.c **** 
 1322              		.loc 1 379 1 is_stmt 0 view .LVU460
 1323 00a6 3046     		mov	r0, r6
 1324 00a8 BDE8F081 		pop	{r4, r5, r6, r7, r8, pc}
 379:Middlewares/ST/STM32_USB_Device_Library/Class/MSC/Src/usbd_msc_scsi.c **** 
 1325              		.loc 1 379 1 view .LVU461
ARM GAS  D:\Temp\cclqlYRL.s 			page 50


 1326              		.cfi_endproc
 1327              	.LFE138:
 1329              		.section	.text.SCSI_CheckAddressRange,"ax",%progbits
 1330              		.align	1
 1331              		.syntax unified
 1332              		.thumb
 1333              		.thumb_func
 1334              		.fpu fpv4-sp-d16
 1336              	SCSI_CheckAddressRange:
 1337              	.LVL133:
 1338              	.LFB151:
 946:Middlewares/ST/STM32_USB_Device_Library/Class/MSC/Src/usbd_msc_scsi.c ****   USBD_MSC_BOT_HandleTypeDef *hmsc = (USBD_MSC_BOT_HandleTypeDef *)pdev->pClassData;
 1339              		.loc 1 946 1 is_stmt 1 view -0
 1340              		.cfi_startproc
 1341              		@ args = 0, pretend = 0, frame = 0
 1342              		@ frame_needed = 0, uses_anonymous_args = 0
 946:Middlewares/ST/STM32_USB_Device_Library/Class/MSC/Src/usbd_msc_scsi.c ****   USBD_MSC_BOT_HandleTypeDef *hmsc = (USBD_MSC_BOT_HandleTypeDef *)pdev->pClassData;
 1343              		.loc 1 946 1 is_stmt 0 view .LVU463
 1344 0000 10B5     		push	{r4, lr}
 1345              	.LCFI16:
 1346              		.cfi_def_cfa_offset 8
 1347              		.cfi_offset 4, -8
 1348              		.cfi_offset 14, -4
 947:Middlewares/ST/STM32_USB_Device_Library/Class/MSC/Src/usbd_msc_scsi.c **** 
 1349              		.loc 1 947 3 is_stmt 1 view .LVU464
 947:Middlewares/ST/STM32_USB_Device_Library/Class/MSC/Src/usbd_msc_scsi.c **** 
 1350              		.loc 1 947 31 is_stmt 0 view .LVU465
 1351 0002 D0F8BC42 		ldr	r4, [r0, #700]
 1352              	.LVL134:
 949:Middlewares/ST/STM32_USB_Device_Library/Class/MSC/Src/usbd_msc_scsi.c ****   {
 1353              		.loc 1 949 3 is_stmt 1 view .LVU466
 949:Middlewares/ST/STM32_USB_Device_Library/Class/MSC/Src/usbd_msc_scsi.c ****   {
 1354              		.loc 1 949 19 is_stmt 0 view .LVU467
 1355 0006 1344     		add	r3, r3, r2
 1356              	.LVL135:
 949:Middlewares/ST/STM32_USB_Device_Library/Class/MSC/Src/usbd_msc_scsi.c ****   {
 1357              		.loc 1 949 36 view .LVU468
 1358 0008 D4F86842 		ldr	r4, [r4, #616]
 1359              	.LVL136:
 949:Middlewares/ST/STM32_USB_Device_Library/Class/MSC/Src/usbd_msc_scsi.c ****   {
 1360              		.loc 1 949 6 view .LVU469
 1361 000c A342     		cmp	r3, r4
 1362 000e 01D8     		bhi	.L93
 955:Middlewares/ST/STM32_USB_Device_Library/Class/MSC/Src/usbd_msc_scsi.c **** }
 1363              		.loc 1 955 10 view .LVU470
 1364 0010 0020     		movs	r0, #0
 1365              	.LVL137:
 1366              	.L90:
 956:Middlewares/ST/STM32_USB_Device_Library/Class/MSC/Src/usbd_msc_scsi.c **** 
 1367              		.loc 1 956 1 view .LVU471
 1368 0012 10BD     		pop	{r4, pc}
 1369              	.LVL138:
 1370              	.L93:
 951:Middlewares/ST/STM32_USB_Device_Library/Class/MSC/Src/usbd_msc_scsi.c ****     return -1;
 1371              		.loc 1 951 5 is_stmt 1 view .LVU472
 1372 0014 2123     		movs	r3, #33
 1373 0016 0522     		movs	r2, #5
ARM GAS  D:\Temp\cclqlYRL.s 			page 51


 1374              	.LVL139:
 951:Middlewares/ST/STM32_USB_Device_Library/Class/MSC/Src/usbd_msc_scsi.c ****     return -1;
 1375              		.loc 1 951 5 is_stmt 0 view .LVU473
 1376 0018 FFF7FEFF 		bl	SCSI_SenseCode
 1377              	.LVL140:
 952:Middlewares/ST/STM32_USB_Device_Library/Class/MSC/Src/usbd_msc_scsi.c ****   }
 1378              		.loc 1 952 5 is_stmt 1 view .LVU474
 952:Middlewares/ST/STM32_USB_Device_Library/Class/MSC/Src/usbd_msc_scsi.c ****   }
 1379              		.loc 1 952 12 is_stmt 0 view .LVU475
 1380 001c 4FF0FF30 		mov	r0, #-1
 1381 0020 F7E7     		b	.L90
 1382              		.cfi_endproc
 1383              	.LFE151:
 1385              		.section	.text.SCSI_ProcessRead,"ax",%progbits
 1386              		.align	1
 1387              		.syntax unified
 1388              		.thumb
 1389              		.thumb_func
 1390              		.fpu fpv4-sp-d16
 1392              	SCSI_ProcessRead:
 1393              	.LVL141:
 1394              	.LFB152:
 965:Middlewares/ST/STM32_USB_Device_Library/Class/MSC/Src/usbd_msc_scsi.c ****   USBD_MSC_BOT_HandleTypeDef *hmsc = (USBD_MSC_BOT_HandleTypeDef *)pdev->pClassData;
 1395              		.loc 1 965 1 is_stmt 1 view -0
 1396              		.cfi_startproc
 1397              		@ args = 0, pretend = 0, frame = 0
 1398              		@ frame_needed = 0, uses_anonymous_args = 0
 965:Middlewares/ST/STM32_USB_Device_Library/Class/MSC/Src/usbd_msc_scsi.c ****   USBD_MSC_BOT_HandleTypeDef *hmsc = (USBD_MSC_BOT_HandleTypeDef *)pdev->pClassData;
 1399              		.loc 1 965 1 is_stmt 0 view .LVU477
 1400 0000 2DE9F843 		push	{r3, r4, r5, r6, r7, r8, r9, lr}
 1401              	.LCFI17:
 1402              		.cfi_def_cfa_offset 32
 1403              		.cfi_offset 3, -32
 1404              		.cfi_offset 4, -28
 1405              		.cfi_offset 5, -24
 1406              		.cfi_offset 6, -20
 1407              		.cfi_offset 7, -16
 1408              		.cfi_offset 8, -12
 1409              		.cfi_offset 9, -8
 1410              		.cfi_offset 14, -4
 1411 0004 0646     		mov	r6, r0
 1412 0006 8946     		mov	r9, r1
 966:Middlewares/ST/STM32_USB_Device_Library/Class/MSC/Src/usbd_msc_scsi.c ****   uint32_t len = hmsc->scsi_blk_len * hmsc->scsi_blk_size;
 1413              		.loc 1 966 3 is_stmt 1 view .LVU478
 966:Middlewares/ST/STM32_USB_Device_Library/Class/MSC/Src/usbd_msc_scsi.c ****   uint32_t len = hmsc->scsi_blk_len * hmsc->scsi_blk_size;
 1414              		.loc 1 966 31 is_stmt 0 view .LVU479
 1415 0008 D0F8BC42 		ldr	r4, [r0, #700]
 1416              	.LVL142:
 967:Middlewares/ST/STM32_USB_Device_Library/Class/MSC/Src/usbd_msc_scsi.c **** 
 1417              		.loc 1 967 3 is_stmt 1 view .LVU480
 967:Middlewares/ST/STM32_USB_Device_Library/Class/MSC/Src/usbd_msc_scsi.c **** 
 1418              		.loc 1 967 22 is_stmt 0 view .LVU481
 1419 000c D4F87052 		ldr	r5, [r4, #624]
 967:Middlewares/ST/STM32_USB_Device_Library/Class/MSC/Src/usbd_msc_scsi.c **** 
 1420              		.loc 1 967 43 view .LVU482
 1421 0010 B4F86432 		ldrh	r3, [r4, #612]
 967:Middlewares/ST/STM32_USB_Device_Library/Class/MSC/Src/usbd_msc_scsi.c **** 
ARM GAS  D:\Temp\cclqlYRL.s 			page 52


 1422              		.loc 1 967 12 view .LVU483
 1423 0014 03FB05F5 		mul	r5, r3, r5
 1424              	.LVL143:
 969:Middlewares/ST/STM32_USB_Device_Library/Class/MSC/Src/usbd_msc_scsi.c **** 
 1425              		.loc 1 969 3 is_stmt 1 view .LVU484
 969:Middlewares/ST/STM32_USB_Device_Library/Class/MSC/Src/usbd_msc_scsi.c **** 
 1426              		.loc 1 969 7 is_stmt 0 view .LVU485
 1427 0018 B5F5007F 		cmp	r5, #512
 1428 001c 28BF     		it	cs
 1429 001e 4FF40075 		movcs	r5, #512
 1430              	.LVL144:
 971:Middlewares/ST/STM32_USB_Device_Library/Class/MSC/Src/usbd_msc_scsi.c ****                                                      hmsc->scsi_blk_addr,
 1431              		.loc 1 971 3 is_stmt 1 view .LVU486
 971:Middlewares/ST/STM32_USB_Device_Library/Class/MSC/Src/usbd_msc_scsi.c ****                                                      hmsc->scsi_blk_addr,
 1432              		.loc 1 971 35 is_stmt 0 view .LVU487
 1433 0022 D0F8C022 		ldr	r2, [r0, #704]
 971:Middlewares/ST/STM32_USB_Device_Library/Class/MSC/Src/usbd_msc_scsi.c ****                                                      hmsc->scsi_blk_addr,
 1434              		.loc 1 971 47 view .LVU488
 1435 0026 1769     		ldr	r7, [r2, #16]
 971:Middlewares/ST/STM32_USB_Device_Library/Class/MSC/Src/usbd_msc_scsi.c ****                                                      hmsc->scsi_blk_addr,
 1436              		.loc 1 971 63 view .LVU489
 1437 0028 04F11008 		add	r8, r4, #16
 973:Middlewares/ST/STM32_USB_Device_Library/Class/MSC/Src/usbd_msc_scsi.c ****   {
 1438              		.loc 1 973 59 view .LVU490
 1439 002c B5FBF3F3 		udiv	r3, r5, r3
 971:Middlewares/ST/STM32_USB_Device_Library/Class/MSC/Src/usbd_msc_scsi.c ****                                                      hmsc->scsi_blk_addr,
 1440              		.loc 1 971 8 view .LVU491
 1441 0030 9BB2     		uxth	r3, r3
 1442 0032 D4F86C22 		ldr	r2, [r4, #620]
 1443 0036 4146     		mov	r1, r8
 1444              	.LVL145:
 971:Middlewares/ST/STM32_USB_Device_Library/Class/MSC/Src/usbd_msc_scsi.c ****                                                      hmsc->scsi_blk_addr,
 1445              		.loc 1 971 8 view .LVU492
 1446 0038 4846     		mov	r0, r9
 1447              	.LVL146:
 971:Middlewares/ST/STM32_USB_Device_Library/Class/MSC/Src/usbd_msc_scsi.c ****                                                      hmsc->scsi_blk_addr,
 1448              		.loc 1 971 8 view .LVU493
 1449 003a B847     		blx	r7
 1450              	.LVL147:
 971:Middlewares/ST/STM32_USB_Device_Library/Class/MSC/Src/usbd_msc_scsi.c ****                                                      hmsc->scsi_blk_addr,
 1451              		.loc 1 971 6 view .LVU494
 1452 003c 0028     		cmp	r0, #0
 1453 003e 1DDB     		blt	.L99
 979:Middlewares/ST/STM32_USB_Device_Library/Class/MSC/Src/usbd_msc_scsi.c **** 
 1454              		.loc 1 979 3 is_stmt 1 view .LVU495
 979:Middlewares/ST/STM32_USB_Device_Library/Class/MSC/Src/usbd_msc_scsi.c **** 
 1455              		.loc 1 979 9 is_stmt 0 view .LVU496
 1456 0040 2B46     		mov	r3, r5
 1457 0042 4246     		mov	r2, r8
 1458 0044 8121     		movs	r1, #129
 1459 0046 3046     		mov	r0, r6
 1460 0048 FFF7FEFF 		bl	USBD_LL_Transmit
 1461              	.LVL148:
 981:Middlewares/ST/STM32_USB_Device_Library/Class/MSC/Src/usbd_msc_scsi.c ****   hmsc->scsi_blk_len -= (len / hmsc->scsi_blk_size);
 1462              		.loc 1 981 3 is_stmt 1 view .LVU497
 981:Middlewares/ST/STM32_USB_Device_Library/Class/MSC/Src/usbd_msc_scsi.c ****   hmsc->scsi_blk_len -= (len / hmsc->scsi_blk_size);
 1463              		.loc 1 981 37 is_stmt 0 view .LVU498
ARM GAS  D:\Temp\cclqlYRL.s 			page 53


 1464 004c B4F86432 		ldrh	r3, [r4, #612]
 981:Middlewares/ST/STM32_USB_Device_Library/Class/MSC/Src/usbd_msc_scsi.c ****   hmsc->scsi_blk_len -= (len / hmsc->scsi_blk_size);
 1465              		.loc 1 981 31 view .LVU499
 1466 0050 B5FBF3F2 		udiv	r2, r5, r3
 981:Middlewares/ST/STM32_USB_Device_Library/Class/MSC/Src/usbd_msc_scsi.c ****   hmsc->scsi_blk_len -= (len / hmsc->scsi_blk_size);
 1467              		.loc 1 981 23 view .LVU500
 1468 0054 D4F86C32 		ldr	r3, [r4, #620]
 1469 0058 1344     		add	r3, r3, r2
 1470 005a C4F86C32 		str	r3, [r4, #620]
 982:Middlewares/ST/STM32_USB_Device_Library/Class/MSC/Src/usbd_msc_scsi.c **** 
 1471              		.loc 1 982 3 is_stmt 1 view .LVU501
 982:Middlewares/ST/STM32_USB_Device_Library/Class/MSC/Src/usbd_msc_scsi.c **** 
 1472              		.loc 1 982 22 is_stmt 0 view .LVU502
 1473 005e D4F87032 		ldr	r3, [r4, #624]
 1474 0062 9B1A     		subs	r3, r3, r2
 1475 0064 C4F87032 		str	r3, [r4, #624]
 985:Middlewares/ST/STM32_USB_Device_Library/Class/MSC/Src/usbd_msc_scsi.c **** 
 1476              		.loc 1 985 3 is_stmt 1 view .LVU503
 985:Middlewares/ST/STM32_USB_Device_Library/Class/MSC/Src/usbd_msc_scsi.c **** 
 1477              		.loc 1 985 26 is_stmt 0 view .LVU504
 1478 0068 D4F83822 		ldr	r2, [r4, #568]
 1479 006c 551B     		subs	r5, r2, r5
 1480              	.LVL149:
 985:Middlewares/ST/STM32_USB_Device_Library/Class/MSC/Src/usbd_msc_scsi.c **** 
 1481              		.loc 1 985 26 view .LVU505
 1482 006e C4F83852 		str	r5, [r4, #568]
 987:Middlewares/ST/STM32_USB_Device_Library/Class/MSC/Src/usbd_msc_scsi.c ****   {
 1483              		.loc 1 987 3 is_stmt 1 view .LVU506
 987:Middlewares/ST/STM32_USB_Device_Library/Class/MSC/Src/usbd_msc_scsi.c ****   {
 1484              		.loc 1 987 6 is_stmt 0 view .LVU507
 1485 0072 63B9     		cbnz	r3, .L97
 989:Middlewares/ST/STM32_USB_Device_Library/Class/MSC/Src/usbd_msc_scsi.c ****   }
 1486              		.loc 1 989 5 is_stmt 1 view .LVU508
 989:Middlewares/ST/STM32_USB_Device_Library/Class/MSC/Src/usbd_msc_scsi.c ****   }
 1487              		.loc 1 989 21 is_stmt 0 view .LVU509
 1488 0074 0323     		movs	r3, #3
 1489 0076 2372     		strb	r3, [r4, #8]
 992:Middlewares/ST/STM32_USB_Device_Library/Class/MSC/Src/usbd_msc_scsi.c **** }
 1490              		.loc 1 992 10 view .LVU510
 1491 0078 0020     		movs	r0, #0
 1492 007a 09E0     		b	.L96
 1493              	.LVL150:
 1494              	.L99:
 975:Middlewares/ST/STM32_USB_Device_Library/Class/MSC/Src/usbd_msc_scsi.c ****     return -1;
 1495              		.loc 1 975 5 is_stmt 1 view .LVU511
 1496 007c 1123     		movs	r3, #17
 1497 007e 0422     		movs	r2, #4
 1498 0080 4946     		mov	r1, r9
 1499 0082 3046     		mov	r0, r6
 1500 0084 FFF7FEFF 		bl	SCSI_SenseCode
 1501              	.LVL151:
 976:Middlewares/ST/STM32_USB_Device_Library/Class/MSC/Src/usbd_msc_scsi.c ****   }
 1502              		.loc 1 976 5 view .LVU512
 976:Middlewares/ST/STM32_USB_Device_Library/Class/MSC/Src/usbd_msc_scsi.c ****   }
 1503              		.loc 1 976 12 is_stmt 0 view .LVU513
 1504 0088 4FF0FF30 		mov	r0, #-1
 1505 008c 00E0     		b	.L96
ARM GAS  D:\Temp\cclqlYRL.s 			page 54


 1506              	.LVL152:
 1507              	.L97:
 992:Middlewares/ST/STM32_USB_Device_Library/Class/MSC/Src/usbd_msc_scsi.c **** }
 1508              		.loc 1 992 10 view .LVU514
 1509 008e 0020     		movs	r0, #0
 1510              	.L96:
 993:Middlewares/ST/STM32_USB_Device_Library/Class/MSC/Src/usbd_msc_scsi.c **** 
 1511              		.loc 1 993 1 view .LVU515
 1512 0090 BDE8F883 		pop	{r3, r4, r5, r6, r7, r8, r9, pc}
 993:Middlewares/ST/STM32_USB_Device_Library/Class/MSC/Src/usbd_msc_scsi.c **** 
 1513              		.loc 1 993 1 view .LVU516
 1514              		.cfi_endproc
 1515              	.LFE152:
 1517              		.section	.text.SCSI_Read10,"ax",%progbits
 1518              		.align	1
 1519              		.syntax unified
 1520              		.thumb
 1521              		.thumb_func
 1522              		.fpu fpv4-sp-d16
 1524              	SCSI_Read10:
 1525              	.LVL153:
 1526              	.LFB146:
 629:Middlewares/ST/STM32_USB_Device_Library/Class/MSC/Src/usbd_msc_scsi.c ****   USBD_MSC_BOT_HandleTypeDef *hmsc = (USBD_MSC_BOT_HandleTypeDef *)pdev->pClassData;
 1527              		.loc 1 629 1 is_stmt 1 view -0
 1528              		.cfi_startproc
 1529              		@ args = 0, pretend = 0, frame = 0
 1530              		@ frame_needed = 0, uses_anonymous_args = 0
 629:Middlewares/ST/STM32_USB_Device_Library/Class/MSC/Src/usbd_msc_scsi.c ****   USBD_MSC_BOT_HandleTypeDef *hmsc = (USBD_MSC_BOT_HandleTypeDef *)pdev->pClassData;
 1531              		.loc 1 629 1 is_stmt 0 view .LVU518
 1532 0000 F8B5     		push	{r3, r4, r5, r6, r7, lr}
 1533              	.LCFI18:
 1534              		.cfi_def_cfa_offset 24
 1535              		.cfi_offset 3, -24
 1536              		.cfi_offset 4, -20
 1537              		.cfi_offset 5, -16
 1538              		.cfi_offset 6, -12
 1539              		.cfi_offset 7, -8
 1540              		.cfi_offset 14, -4
 1541 0002 0646     		mov	r6, r0
 1542 0004 0F46     		mov	r7, r1
 630:Middlewares/ST/STM32_USB_Device_Library/Class/MSC/Src/usbd_msc_scsi.c **** 
 1543              		.loc 1 630 3 is_stmt 1 view .LVU519
 630:Middlewares/ST/STM32_USB_Device_Library/Class/MSC/Src/usbd_msc_scsi.c **** 
 1544              		.loc 1 630 31 is_stmt 0 view .LVU520
 1545 0006 D0F8BC42 		ldr	r4, [r0, #700]
 1546              	.LVL154:
 632:Middlewares/ST/STM32_USB_Device_Library/Class/MSC/Src/usbd_msc_scsi.c ****   {
 1547              		.loc 1 632 3 is_stmt 1 view .LVU521
 632:Middlewares/ST/STM32_USB_Device_Library/Class/MSC/Src/usbd_msc_scsi.c ****   {
 1548              		.loc 1 632 11 is_stmt 0 view .LVU522
 1549 000a 237A     		ldrb	r3, [r4, #8]	@ zero_extendqisi2
 632:Middlewares/ST/STM32_USB_Device_Library/Class/MSC/Src/usbd_msc_scsi.c ****   {
 1550              		.loc 1 632 6 view .LVU523
 1551 000c 9BBB     		cbnz	r3, .L101
 1552 000e 1546     		mov	r5, r2
 635:Middlewares/ST/STM32_USB_Device_Library/Class/MSC/Src/usbd_msc_scsi.c ****     {
 1553              		.loc 1 635 5 is_stmt 1 view .LVU524
ARM GAS  D:\Temp\cclqlYRL.s 			page 55


 635:Middlewares/ST/STM32_USB_Device_Library/Class/MSC/Src/usbd_msc_scsi.c ****     {
 1554              		.loc 1 635 37 is_stmt 0 view .LVU525
 1555 0010 94F91C32 		ldrsb	r3, [r4, #540]
 635:Middlewares/ST/STM32_USB_Device_Library/Class/MSC/Src/usbd_msc_scsi.c ****     {
 1556              		.loc 1 635 8 view .LVU526
 1557 0014 002B     		cmp	r3, #0
 1558 0016 36DA     		bge	.L109
 641:Middlewares/ST/STM32_USB_Device_Library/Class/MSC/Src/usbd_msc_scsi.c ****     {
 1559              		.loc 1 641 5 is_stmt 1 view .LVU527
 641:Middlewares/ST/STM32_USB_Device_Library/Class/MSC/Src/usbd_msc_scsi.c ****     {
 1560              		.loc 1 641 13 is_stmt 0 view .LVU528
 1561 0018 94F86232 		ldrb	r3, [r4, #610]	@ zero_extendqisi2
 641:Middlewares/ST/STM32_USB_Device_Library/Class/MSC/Src/usbd_msc_scsi.c ****     {
 1562              		.loc 1 641 8 view .LVU529
 1563 001c 022B     		cmp	r3, #2
 1564 001e 3BD0     		beq	.L110
 648:Middlewares/ST/STM32_USB_Device_Library/Class/MSC/Src/usbd_msc_scsi.c ****     {
 1565              		.loc 1 648 5 is_stmt 1 view .LVU530
 648:Middlewares/ST/STM32_USB_Device_Library/Class/MSC/Src/usbd_msc_scsi.c ****     {
 1566              		.loc 1 648 37 is_stmt 0 view .LVU531
 1567 0020 D0F8C032 		ldr	r3, [r0, #704]
 648:Middlewares/ST/STM32_USB_Device_Library/Class/MSC/Src/usbd_msc_scsi.c ****     {
 1568              		.loc 1 648 49 view .LVU532
 1569 0024 9B68     		ldr	r3, [r3, #8]
 648:Middlewares/ST/STM32_USB_Device_Library/Class/MSC/Src/usbd_msc_scsi.c ****     {
 1570              		.loc 1 648 10 view .LVU533
 1571 0026 0846     		mov	r0, r1
 1572              	.LVL155:
 648:Middlewares/ST/STM32_USB_Device_Library/Class/MSC/Src/usbd_msc_scsi.c ****     {
 1573              		.loc 1 648 10 view .LVU534
 1574 0028 9847     		blx	r3
 1575              	.LVL156:
 648:Middlewares/ST/STM32_USB_Device_Library/Class/MSC/Src/usbd_msc_scsi.c ****     {
 1576              		.loc 1 648 8 view .LVU535
 1577 002a 0028     		cmp	r0, #0
 1578 002c 3BD1     		bne	.L111
 654:Middlewares/ST/STM32_USB_Device_Library/Class/MSC/Src/usbd_msc_scsi.c ****                           ((uint32_t)params[3] << 16) |
 1579              		.loc 1 654 5 is_stmt 1 view .LVU536
 654:Middlewares/ST/STM32_USB_Device_Library/Class/MSC/Src/usbd_msc_scsi.c ****                           ((uint32_t)params[3] << 16) |
 1580              		.loc 1 654 44 is_stmt 0 view .LVU537
 1581 002e AB78     		ldrb	r3, [r5, #2]	@ zero_extendqisi2
 655:Middlewares/ST/STM32_USB_Device_Library/Class/MSC/Src/usbd_msc_scsi.c ****                           ((uint32_t)params[4] <<  8) |
 1582              		.loc 1 655 44 view .LVU538
 1583 0030 EA78     		ldrb	r2, [r5, #3]	@ zero_extendqisi2
 655:Middlewares/ST/STM32_USB_Device_Library/Class/MSC/Src/usbd_msc_scsi.c ****                           ((uint32_t)params[4] <<  8) |
 1584              		.loc 1 655 48 view .LVU539
 1585 0032 1204     		lsls	r2, r2, #16
 654:Middlewares/ST/STM32_USB_Device_Library/Class/MSC/Src/usbd_msc_scsi.c ****                           ((uint32_t)params[3] << 16) |
 1586              		.loc 1 654 55 view .LVU540
 1587 0034 42EA0362 		orr	r2, r2, r3, lsl #24
 656:Middlewares/ST/STM32_USB_Device_Library/Class/MSC/Src/usbd_msc_scsi.c ****                           (uint32_t)params[5];
 1588              		.loc 1 656 44 view .LVU541
 1589 0038 2B79     		ldrb	r3, [r5, #4]	@ zero_extendqisi2
 655:Middlewares/ST/STM32_USB_Device_Library/Class/MSC/Src/usbd_msc_scsi.c ****                           ((uint32_t)params[4] <<  8) |
 1590              		.loc 1 655 55 view .LVU542
 1591 003a 42EA0322 		orr	r2, r2, r3, lsl #8
 657:Middlewares/ST/STM32_USB_Device_Library/Class/MSC/Src/usbd_msc_scsi.c **** 
ARM GAS  D:\Temp\cclqlYRL.s 			page 56


 1592              		.loc 1 657 43 view .LVU543
 1593 003e 6B79     		ldrb	r3, [r5, #5]	@ zero_extendqisi2
 656:Middlewares/ST/STM32_USB_Device_Library/Class/MSC/Src/usbd_msc_scsi.c ****                           (uint32_t)params[5];
 1594              		.loc 1 656 55 view .LVU544
 1595 0040 1A43     		orrs	r2, r2, r3
 654:Middlewares/ST/STM32_USB_Device_Library/Class/MSC/Src/usbd_msc_scsi.c ****                           ((uint32_t)params[3] << 16) |
 1596              		.loc 1 654 25 view .LVU545
 1597 0042 C4F86C22 		str	r2, [r4, #620]
 659:Middlewares/ST/STM32_USB_Device_Library/Class/MSC/Src/usbd_msc_scsi.c **** 
 1598              		.loc 1 659 5 is_stmt 1 view .LVU546
 659:Middlewares/ST/STM32_USB_Device_Library/Class/MSC/Src/usbd_msc_scsi.c **** 
 1599              		.loc 1 659 43 is_stmt 0 view .LVU547
 1600 0046 E979     		ldrb	r1, [r5, #7]	@ zero_extendqisi2
 659:Middlewares/ST/STM32_USB_Device_Library/Class/MSC/Src/usbd_msc_scsi.c **** 
 1601              		.loc 1 659 72 view .LVU548
 1602 0048 2B7A     		ldrb	r3, [r5, #8]	@ zero_extendqisi2
 659:Middlewares/ST/STM32_USB_Device_Library/Class/MSC/Src/usbd_msc_scsi.c **** 
 1603              		.loc 1 659 54 view .LVU549
 1604 004a 43EA0123 		orr	r3, r3, r1, lsl #8
 659:Middlewares/ST/STM32_USB_Device_Library/Class/MSC/Src/usbd_msc_scsi.c **** 
 1605              		.loc 1 659 24 view .LVU550
 1606 004e C4F87032 		str	r3, [r4, #624]
 661:Middlewares/ST/STM32_USB_Device_Library/Class/MSC/Src/usbd_msc_scsi.c ****                                hmsc->scsi_blk_len) < 0)
 1607              		.loc 1 661 5 is_stmt 1 view .LVU551
 661:Middlewares/ST/STM32_USB_Device_Library/Class/MSC/Src/usbd_msc_scsi.c ****                                hmsc->scsi_blk_len) < 0)
 1608              		.loc 1 661 9 is_stmt 0 view .LVU552
 1609 0052 3946     		mov	r1, r7
 1610 0054 3046     		mov	r0, r6
 1611 0056 FFF7FEFF 		bl	SCSI_CheckAddressRange
 1612              	.LVL157:
 661:Middlewares/ST/STM32_USB_Device_Library/Class/MSC/Src/usbd_msc_scsi.c ****                                hmsc->scsi_blk_len) < 0)
 1613              		.loc 1 661 8 view .LVU553
 1614 005a 0028     		cmp	r0, #0
 1615 005c 36DB     		blt	.L107
 668:Middlewares/ST/STM32_USB_Device_Library/Class/MSC/Src/usbd_msc_scsi.c ****     {
 1616              		.loc 1 668 5 is_stmt 1 view .LVU554
 668:Middlewares/ST/STM32_USB_Device_Library/Class/MSC/Src/usbd_msc_scsi.c ****     {
 1617              		.loc 1 668 18 is_stmt 0 view .LVU555
 1618 005e D4F81822 		ldr	r2, [r4, #536]
 668:Middlewares/ST/STM32_USB_Device_Library/Class/MSC/Src/usbd_msc_scsi.c ****     {
 1619              		.loc 1 668 39 view .LVU556
 1620 0062 D4F87012 		ldr	r1, [r4, #624]
 668:Middlewares/ST/STM32_USB_Device_Library/Class/MSC/Src/usbd_msc_scsi.c ****     {
 1621              		.loc 1 668 60 view .LVU557
 1622 0066 B4F86432 		ldrh	r3, [r4, #612]
 668:Middlewares/ST/STM32_USB_Device_Library/Class/MSC/Src/usbd_msc_scsi.c ****     {
 1623              		.loc 1 668 54 view .LVU558
 1624 006a 03FB01F3 		mul	r3, r3, r1
 668:Middlewares/ST/STM32_USB_Device_Library/Class/MSC/Src/usbd_msc_scsi.c ****     {
 1625              		.loc 1 668 8 view .LVU559
 1626 006e 9A42     		cmp	r2, r3
 1627 0070 22D1     		bne	.L112
 674:Middlewares/ST/STM32_USB_Device_Library/Class/MSC/Src/usbd_msc_scsi.c ****   }
 1628              		.loc 1 674 5 is_stmt 1 view .LVU560
 674:Middlewares/ST/STM32_USB_Device_Library/Class/MSC/Src/usbd_msc_scsi.c ****   }
 1629              		.loc 1 674 21 is_stmt 0 view .LVU561
 1630 0072 0223     		movs	r3, #2
ARM GAS  D:\Temp\cclqlYRL.s 			page 57


 1631 0074 2372     		strb	r3, [r4, #8]
 1632              	.LVL158:
 1633              	.L101:
 676:Middlewares/ST/STM32_USB_Device_Library/Class/MSC/Src/usbd_msc_scsi.c **** 
 1634              		.loc 1 676 3 is_stmt 1 view .LVU562
 676:Middlewares/ST/STM32_USB_Device_Library/Class/MSC/Src/usbd_msc_scsi.c **** 
 1635              		.loc 1 676 25 is_stmt 0 view .LVU563
 1636 0076 4FF40073 		mov	r3, #512
 1637 007a E360     		str	r3, [r4, #12]
 678:Middlewares/ST/STM32_USB_Device_Library/Class/MSC/Src/usbd_msc_scsi.c **** }
 1638              		.loc 1 678 3 is_stmt 1 view .LVU564
 678:Middlewares/ST/STM32_USB_Device_Library/Class/MSC/Src/usbd_msc_scsi.c **** }
 1639              		.loc 1 678 10 is_stmt 0 view .LVU565
 1640 007c 3946     		mov	r1, r7
 1641 007e 3046     		mov	r0, r6
 1642 0080 FFF7FEFF 		bl	SCSI_ProcessRead
 1643              	.LVL159:
 1644              	.L103:
 679:Middlewares/ST/STM32_USB_Device_Library/Class/MSC/Src/usbd_msc_scsi.c **** 
 1645              		.loc 1 679 1 view .LVU566
 1646 0084 F8BD     		pop	{r3, r4, r5, r6, r7, pc}
 1647              	.LVL160:
 1648              	.L109:
 637:Middlewares/ST/STM32_USB_Device_Library/Class/MSC/Src/usbd_msc_scsi.c ****       return -1;
 1649              		.loc 1 637 7 is_stmt 1 view .LVU567
 1650 0086 2023     		movs	r3, #32
 1651 0088 0522     		movs	r2, #5
 1652              	.LVL161:
 637:Middlewares/ST/STM32_USB_Device_Library/Class/MSC/Src/usbd_msc_scsi.c ****       return -1;
 1653              		.loc 1 637 7 is_stmt 0 view .LVU568
 1654 008a 94F81D12 		ldrb	r1, [r4, #541]	@ zero_extendqisi2
 1655              	.LVL162:
 637:Middlewares/ST/STM32_USB_Device_Library/Class/MSC/Src/usbd_msc_scsi.c ****       return -1;
 1656              		.loc 1 637 7 view .LVU569
 1657 008e FFF7FEFF 		bl	SCSI_SenseCode
 1658              	.LVL163:
 638:Middlewares/ST/STM32_USB_Device_Library/Class/MSC/Src/usbd_msc_scsi.c ****     }
 1659              		.loc 1 638 7 is_stmt 1 view .LVU570
 638:Middlewares/ST/STM32_USB_Device_Library/Class/MSC/Src/usbd_msc_scsi.c ****     }
 1660              		.loc 1 638 14 is_stmt 0 view .LVU571
 1661 0092 4FF0FF30 		mov	r0, #-1
 1662 0096 F5E7     		b	.L103
 1663              	.LVL164:
 1664              	.L110:
 643:Middlewares/ST/STM32_USB_Device_Library/Class/MSC/Src/usbd_msc_scsi.c **** 
 1665              		.loc 1 643 7 is_stmt 1 view .LVU572
 1666 0098 3A23     		movs	r3, #58
 1667 009a 0222     		movs	r2, #2
 1668              	.LVL165:
 643:Middlewares/ST/STM32_USB_Device_Library/Class/MSC/Src/usbd_msc_scsi.c **** 
 1669              		.loc 1 643 7 is_stmt 0 view .LVU573
 1670 009c FFF7FEFF 		bl	SCSI_SenseCode
 1671              	.LVL166:
 645:Middlewares/ST/STM32_USB_Device_Library/Class/MSC/Src/usbd_msc_scsi.c ****     }
 1672              		.loc 1 645 7 is_stmt 1 view .LVU574
 645:Middlewares/ST/STM32_USB_Device_Library/Class/MSC/Src/usbd_msc_scsi.c ****     }
 1673              		.loc 1 645 14 is_stmt 0 view .LVU575
ARM GAS  D:\Temp\cclqlYRL.s 			page 58


 1674 00a0 4FF0FF30 		mov	r0, #-1
 1675 00a4 EEE7     		b	.L103
 1676              	.L111:
 650:Middlewares/ST/STM32_USB_Device_Library/Class/MSC/Src/usbd_msc_scsi.c ****       return -1;
 1677              		.loc 1 650 7 is_stmt 1 view .LVU576
 1678 00a6 3A23     		movs	r3, #58
 1679 00a8 0222     		movs	r2, #2
 1680 00aa 3946     		mov	r1, r7
 1681 00ac 3046     		mov	r0, r6
 1682 00ae FFF7FEFF 		bl	SCSI_SenseCode
 1683              	.LVL167:
 651:Middlewares/ST/STM32_USB_Device_Library/Class/MSC/Src/usbd_msc_scsi.c ****     }
 1684              		.loc 1 651 7 view .LVU577
 651:Middlewares/ST/STM32_USB_Device_Library/Class/MSC/Src/usbd_msc_scsi.c ****     }
 1685              		.loc 1 651 14 is_stmt 0 view .LVU578
 1686 00b2 4FF0FF30 		mov	r0, #-1
 1687 00b6 E5E7     		b	.L103
 1688              	.L112:
 670:Middlewares/ST/STM32_USB_Device_Library/Class/MSC/Src/usbd_msc_scsi.c ****       return -1;
 1689              		.loc 1 670 7 is_stmt 1 view .LVU579
 1690 00b8 2023     		movs	r3, #32
 1691 00ba 0522     		movs	r2, #5
 1692 00bc 94F81D12 		ldrb	r1, [r4, #541]	@ zero_extendqisi2
 1693 00c0 3046     		mov	r0, r6
 1694 00c2 FFF7FEFF 		bl	SCSI_SenseCode
 1695              	.LVL168:
 671:Middlewares/ST/STM32_USB_Device_Library/Class/MSC/Src/usbd_msc_scsi.c ****     }
 1696              		.loc 1 671 7 view .LVU580
 671:Middlewares/ST/STM32_USB_Device_Library/Class/MSC/Src/usbd_msc_scsi.c ****     }
 1697              		.loc 1 671 14 is_stmt 0 view .LVU581
 1698 00c6 4FF0FF30 		mov	r0, #-1
 1699 00ca DBE7     		b	.L103
 1700              	.L107:
 664:Middlewares/ST/STM32_USB_Device_Library/Class/MSC/Src/usbd_msc_scsi.c ****     }
 1701              		.loc 1 664 14 view .LVU582
 1702 00cc 4FF0FF30 		mov	r0, #-1
 1703 00d0 D8E7     		b	.L103
 1704              		.cfi_endproc
 1705              	.LFE146:
 1707              		.section	.text.SCSI_Read12,"ax",%progbits
 1708              		.align	1
 1709              		.syntax unified
 1710              		.thumb
 1711              		.thumb_func
 1712              		.fpu fpv4-sp-d16
 1714              	SCSI_Read12:
 1715              	.LVL169:
 1716              	.LFB147:
 690:Middlewares/ST/STM32_USB_Device_Library/Class/MSC/Src/usbd_msc_scsi.c ****   USBD_MSC_BOT_HandleTypeDef *hmsc = (USBD_MSC_BOT_HandleTypeDef *)pdev->pClassData;
 1717              		.loc 1 690 1 is_stmt 1 view -0
 1718              		.cfi_startproc
 1719              		@ args = 0, pretend = 0, frame = 0
 1720              		@ frame_needed = 0, uses_anonymous_args = 0
 690:Middlewares/ST/STM32_USB_Device_Library/Class/MSC/Src/usbd_msc_scsi.c ****   USBD_MSC_BOT_HandleTypeDef *hmsc = (USBD_MSC_BOT_HandleTypeDef *)pdev->pClassData;
 1721              		.loc 1 690 1 is_stmt 0 view .LVU584
 1722 0000 F8B5     		push	{r3, r4, r5, r6, r7, lr}
 1723              	.LCFI19:
ARM GAS  D:\Temp\cclqlYRL.s 			page 59


 1724              		.cfi_def_cfa_offset 24
 1725              		.cfi_offset 3, -24
 1726              		.cfi_offset 4, -20
 1727              		.cfi_offset 5, -16
 1728              		.cfi_offset 6, -12
 1729              		.cfi_offset 7, -8
 1730              		.cfi_offset 14, -4
 1731 0002 0646     		mov	r6, r0
 1732 0004 0F46     		mov	r7, r1
 691:Middlewares/ST/STM32_USB_Device_Library/Class/MSC/Src/usbd_msc_scsi.c **** 
 1733              		.loc 1 691 3 is_stmt 1 view .LVU585
 691:Middlewares/ST/STM32_USB_Device_Library/Class/MSC/Src/usbd_msc_scsi.c **** 
 1734              		.loc 1 691 31 is_stmt 0 view .LVU586
 1735 0006 D0F8BC42 		ldr	r4, [r0, #700]
 1736              	.LVL170:
 693:Middlewares/ST/STM32_USB_Device_Library/Class/MSC/Src/usbd_msc_scsi.c ****   {
 1737              		.loc 1 693 3 is_stmt 1 view .LVU587
 693:Middlewares/ST/STM32_USB_Device_Library/Class/MSC/Src/usbd_msc_scsi.c ****   {
 1738              		.loc 1 693 11 is_stmt 0 view .LVU588
 1739 000a 237A     		ldrb	r3, [r4, #8]	@ zero_extendqisi2
 693:Middlewares/ST/STM32_USB_Device_Library/Class/MSC/Src/usbd_msc_scsi.c ****   {
 1740              		.loc 1 693 6 view .LVU589
 1741 000c 002B     		cmp	r3, #0
 1742 000e 39D1     		bne	.L114
 1743 0010 1546     		mov	r5, r2
 696:Middlewares/ST/STM32_USB_Device_Library/Class/MSC/Src/usbd_msc_scsi.c ****     {
 1744              		.loc 1 696 5 is_stmt 1 view .LVU590
 696:Middlewares/ST/STM32_USB_Device_Library/Class/MSC/Src/usbd_msc_scsi.c ****     {
 1745              		.loc 1 696 37 is_stmt 0 view .LVU591
 1746 0012 94F91C32 		ldrsb	r3, [r4, #540]
 696:Middlewares/ST/STM32_USB_Device_Library/Class/MSC/Src/usbd_msc_scsi.c ****     {
 1747              		.loc 1 696 8 view .LVU592
 1748 0016 002B     		cmp	r3, #0
 1749 0018 3CDA     		bge	.L122
 702:Middlewares/ST/STM32_USB_Device_Library/Class/MSC/Src/usbd_msc_scsi.c ****     {
 1750              		.loc 1 702 5 is_stmt 1 view .LVU593
 702:Middlewares/ST/STM32_USB_Device_Library/Class/MSC/Src/usbd_msc_scsi.c ****     {
 1751              		.loc 1 702 13 is_stmt 0 view .LVU594
 1752 001a 94F86232 		ldrb	r3, [r4, #610]	@ zero_extendqisi2
 702:Middlewares/ST/STM32_USB_Device_Library/Class/MSC/Src/usbd_msc_scsi.c ****     {
 1753              		.loc 1 702 8 view .LVU595
 1754 001e 022B     		cmp	r3, #2
 1755 0020 41D0     		beq	.L123
 708:Middlewares/ST/STM32_USB_Device_Library/Class/MSC/Src/usbd_msc_scsi.c ****     {
 1756              		.loc 1 708 5 is_stmt 1 view .LVU596
 708:Middlewares/ST/STM32_USB_Device_Library/Class/MSC/Src/usbd_msc_scsi.c ****     {
 1757              		.loc 1 708 37 is_stmt 0 view .LVU597
 1758 0022 D0F8C032 		ldr	r3, [r0, #704]
 708:Middlewares/ST/STM32_USB_Device_Library/Class/MSC/Src/usbd_msc_scsi.c ****     {
 1759              		.loc 1 708 49 view .LVU598
 1760 0026 9B68     		ldr	r3, [r3, #8]
 708:Middlewares/ST/STM32_USB_Device_Library/Class/MSC/Src/usbd_msc_scsi.c ****     {
 1761              		.loc 1 708 10 view .LVU599
 1762 0028 0846     		mov	r0, r1
 1763              	.LVL171:
 708:Middlewares/ST/STM32_USB_Device_Library/Class/MSC/Src/usbd_msc_scsi.c ****     {
 1764              		.loc 1 708 10 view .LVU600
ARM GAS  D:\Temp\cclqlYRL.s 			page 60


 1765 002a 9847     		blx	r3
 1766              	.LVL172:
 708:Middlewares/ST/STM32_USB_Device_Library/Class/MSC/Src/usbd_msc_scsi.c ****     {
 1767              		.loc 1 708 8 view .LVU601
 1768 002c 0028     		cmp	r0, #0
 1769 002e 41D1     		bne	.L124
 714:Middlewares/ST/STM32_USB_Device_Library/Class/MSC/Src/usbd_msc_scsi.c ****                           ((uint32_t)params[3] << 16) |
 1770              		.loc 1 714 5 is_stmt 1 view .LVU602
 714:Middlewares/ST/STM32_USB_Device_Library/Class/MSC/Src/usbd_msc_scsi.c ****                           ((uint32_t)params[3] << 16) |
 1771              		.loc 1 714 44 is_stmt 0 view .LVU603
 1772 0030 AB78     		ldrb	r3, [r5, #2]	@ zero_extendqisi2
 715:Middlewares/ST/STM32_USB_Device_Library/Class/MSC/Src/usbd_msc_scsi.c ****                           ((uint32_t)params[4] <<  8) |
 1773              		.loc 1 715 44 view .LVU604
 1774 0032 EA78     		ldrb	r2, [r5, #3]	@ zero_extendqisi2
 715:Middlewares/ST/STM32_USB_Device_Library/Class/MSC/Src/usbd_msc_scsi.c ****                           ((uint32_t)params[4] <<  8) |
 1775              		.loc 1 715 48 view .LVU605
 1776 0034 1204     		lsls	r2, r2, #16
 714:Middlewares/ST/STM32_USB_Device_Library/Class/MSC/Src/usbd_msc_scsi.c ****                           ((uint32_t)params[3] << 16) |
 1777              		.loc 1 714 55 view .LVU606
 1778 0036 42EA0362 		orr	r2, r2, r3, lsl #24
 716:Middlewares/ST/STM32_USB_Device_Library/Class/MSC/Src/usbd_msc_scsi.c ****                           (uint32_t)params[5];
 1779              		.loc 1 716 44 view .LVU607
 1780 003a 2B79     		ldrb	r3, [r5, #4]	@ zero_extendqisi2
 715:Middlewares/ST/STM32_USB_Device_Library/Class/MSC/Src/usbd_msc_scsi.c ****                           ((uint32_t)params[4] <<  8) |
 1781              		.loc 1 715 55 view .LVU608
 1782 003c 42EA0322 		orr	r2, r2, r3, lsl #8
 717:Middlewares/ST/STM32_USB_Device_Library/Class/MSC/Src/usbd_msc_scsi.c **** 
 1783              		.loc 1 717 43 view .LVU609
 1784 0040 6B79     		ldrb	r3, [r5, #5]	@ zero_extendqisi2
 716:Middlewares/ST/STM32_USB_Device_Library/Class/MSC/Src/usbd_msc_scsi.c ****                           (uint32_t)params[5];
 1785              		.loc 1 716 55 view .LVU610
 1786 0042 1A43     		orrs	r2, r2, r3
 714:Middlewares/ST/STM32_USB_Device_Library/Class/MSC/Src/usbd_msc_scsi.c ****                           ((uint32_t)params[3] << 16) |
 1787              		.loc 1 714 25 view .LVU611
 1788 0044 C4F86C22 		str	r2, [r4, #620]
 719:Middlewares/ST/STM32_USB_Device_Library/Class/MSC/Src/usbd_msc_scsi.c ****                          ((uint32_t)params[7] << 16) |
 1789              		.loc 1 719 5 is_stmt 1 view .LVU612
 719:Middlewares/ST/STM32_USB_Device_Library/Class/MSC/Src/usbd_msc_scsi.c ****                          ((uint32_t)params[7] << 16) |
 1790              		.loc 1 719 43 is_stmt 0 view .LVU613
 1791 0048 A979     		ldrb	r1, [r5, #6]	@ zero_extendqisi2
 720:Middlewares/ST/STM32_USB_Device_Library/Class/MSC/Src/usbd_msc_scsi.c ****                          ((uint32_t)params[8] << 8) |
 1792              		.loc 1 720 43 view .LVU614
 1793 004a EB79     		ldrb	r3, [r5, #7]	@ zero_extendqisi2
 720:Middlewares/ST/STM32_USB_Device_Library/Class/MSC/Src/usbd_msc_scsi.c ****                          ((uint32_t)params[8] << 8) |
 1794              		.loc 1 720 47 view .LVU615
 1795 004c 1B04     		lsls	r3, r3, #16
 719:Middlewares/ST/STM32_USB_Device_Library/Class/MSC/Src/usbd_msc_scsi.c ****                          ((uint32_t)params[7] << 16) |
 1796              		.loc 1 719 54 view .LVU616
 1797 004e 43EA0163 		orr	r3, r3, r1, lsl #24
 721:Middlewares/ST/STM32_USB_Device_Library/Class/MSC/Src/usbd_msc_scsi.c ****                          (uint32_t)params[9];
 1798              		.loc 1 721 43 view .LVU617
 1799 0052 297A     		ldrb	r1, [r5, #8]	@ zero_extendqisi2
 720:Middlewares/ST/STM32_USB_Device_Library/Class/MSC/Src/usbd_msc_scsi.c ****                          ((uint32_t)params[8] << 8) |
 1800              		.loc 1 720 54 view .LVU618
 1801 0054 43EA0123 		orr	r3, r3, r1, lsl #8
 722:Middlewares/ST/STM32_USB_Device_Library/Class/MSC/Src/usbd_msc_scsi.c **** 
 1802              		.loc 1 722 42 view .LVU619
ARM GAS  D:\Temp\cclqlYRL.s 			page 61


 1803 0058 697A     		ldrb	r1, [r5, #9]	@ zero_extendqisi2
 721:Middlewares/ST/STM32_USB_Device_Library/Class/MSC/Src/usbd_msc_scsi.c ****                          (uint32_t)params[9];
 1804              		.loc 1 721 53 view .LVU620
 1805 005a 0B43     		orrs	r3, r3, r1
 719:Middlewares/ST/STM32_USB_Device_Library/Class/MSC/Src/usbd_msc_scsi.c ****                          ((uint32_t)params[7] << 16) |
 1806              		.loc 1 719 24 view .LVU621
 1807 005c C4F87032 		str	r3, [r4, #624]
 724:Middlewares/ST/STM32_USB_Device_Library/Class/MSC/Src/usbd_msc_scsi.c ****                                hmsc->scsi_blk_len) < 0)
 1808              		.loc 1 724 5 is_stmt 1 view .LVU622
 724:Middlewares/ST/STM32_USB_Device_Library/Class/MSC/Src/usbd_msc_scsi.c ****                                hmsc->scsi_blk_len) < 0)
 1809              		.loc 1 724 9 is_stmt 0 view .LVU623
 1810 0060 3946     		mov	r1, r7
 1811 0062 3046     		mov	r0, r6
 1812 0064 FFF7FEFF 		bl	SCSI_CheckAddressRange
 1813              	.LVL173:
 724:Middlewares/ST/STM32_USB_Device_Library/Class/MSC/Src/usbd_msc_scsi.c ****                                hmsc->scsi_blk_len) < 0)
 1814              		.loc 1 724 8 view .LVU624
 1815 0068 0028     		cmp	r0, #0
 1816 006a 36DB     		blt	.L120
 731:Middlewares/ST/STM32_USB_Device_Library/Class/MSC/Src/usbd_msc_scsi.c ****     {
 1817              		.loc 1 731 5 is_stmt 1 view .LVU625
 731:Middlewares/ST/STM32_USB_Device_Library/Class/MSC/Src/usbd_msc_scsi.c ****     {
 1818              		.loc 1 731 18 is_stmt 0 view .LVU626
 1819 006c D4F81822 		ldr	r2, [r4, #536]
 731:Middlewares/ST/STM32_USB_Device_Library/Class/MSC/Src/usbd_msc_scsi.c ****     {
 1820              		.loc 1 731 39 view .LVU627
 1821 0070 D4F87012 		ldr	r1, [r4, #624]
 731:Middlewares/ST/STM32_USB_Device_Library/Class/MSC/Src/usbd_msc_scsi.c ****     {
 1822              		.loc 1 731 60 view .LVU628
 1823 0074 B4F86432 		ldrh	r3, [r4, #612]
 731:Middlewares/ST/STM32_USB_Device_Library/Class/MSC/Src/usbd_msc_scsi.c ****     {
 1824              		.loc 1 731 54 view .LVU629
 1825 0078 03FB01F3 		mul	r3, r3, r1
 731:Middlewares/ST/STM32_USB_Device_Library/Class/MSC/Src/usbd_msc_scsi.c ****     {
 1826              		.loc 1 731 8 view .LVU630
 1827 007c 9A42     		cmp	r2, r3
 1828 007e 22D1     		bne	.L125
 737:Middlewares/ST/STM32_USB_Device_Library/Class/MSC/Src/usbd_msc_scsi.c ****   }
 1829              		.loc 1 737 5 is_stmt 1 view .LVU631
 737:Middlewares/ST/STM32_USB_Device_Library/Class/MSC/Src/usbd_msc_scsi.c ****   }
 1830              		.loc 1 737 21 is_stmt 0 view .LVU632
 1831 0080 0223     		movs	r3, #2
 1832 0082 2372     		strb	r3, [r4, #8]
 1833              	.LVL174:
 1834              	.L114:
 739:Middlewares/ST/STM32_USB_Device_Library/Class/MSC/Src/usbd_msc_scsi.c **** 
 1835              		.loc 1 739 3 is_stmt 1 view .LVU633
 739:Middlewares/ST/STM32_USB_Device_Library/Class/MSC/Src/usbd_msc_scsi.c **** 
 1836              		.loc 1 739 25 is_stmt 0 view .LVU634
 1837 0084 4FF40073 		mov	r3, #512
 1838 0088 E360     		str	r3, [r4, #12]
 741:Middlewares/ST/STM32_USB_Device_Library/Class/MSC/Src/usbd_msc_scsi.c **** }
 1839              		.loc 1 741 3 is_stmt 1 view .LVU635
 741:Middlewares/ST/STM32_USB_Device_Library/Class/MSC/Src/usbd_msc_scsi.c **** }
 1840              		.loc 1 741 10 is_stmt 0 view .LVU636
 1841 008a 3946     		mov	r1, r7
 1842 008c 3046     		mov	r0, r6
ARM GAS  D:\Temp\cclqlYRL.s 			page 62


 1843 008e FFF7FEFF 		bl	SCSI_ProcessRead
 1844              	.LVL175:
 1845              	.L116:
 742:Middlewares/ST/STM32_USB_Device_Library/Class/MSC/Src/usbd_msc_scsi.c **** 
 1846              		.loc 1 742 1 view .LVU637
 1847 0092 F8BD     		pop	{r3, r4, r5, r6, r7, pc}
 1848              	.LVL176:
 1849              	.L122:
 698:Middlewares/ST/STM32_USB_Device_Library/Class/MSC/Src/usbd_msc_scsi.c ****       return -1;
 1850              		.loc 1 698 7 is_stmt 1 view .LVU638
 1851 0094 2023     		movs	r3, #32
 1852 0096 0522     		movs	r2, #5
 1853              	.LVL177:
 698:Middlewares/ST/STM32_USB_Device_Library/Class/MSC/Src/usbd_msc_scsi.c ****       return -1;
 1854              		.loc 1 698 7 is_stmt 0 view .LVU639
 1855 0098 94F81D12 		ldrb	r1, [r4, #541]	@ zero_extendqisi2
 1856              	.LVL178:
 698:Middlewares/ST/STM32_USB_Device_Library/Class/MSC/Src/usbd_msc_scsi.c ****       return -1;
 1857              		.loc 1 698 7 view .LVU640
 1858 009c FFF7FEFF 		bl	SCSI_SenseCode
 1859              	.LVL179:
 699:Middlewares/ST/STM32_USB_Device_Library/Class/MSC/Src/usbd_msc_scsi.c ****     }
 1860              		.loc 1 699 7 is_stmt 1 view .LVU641
 699:Middlewares/ST/STM32_USB_Device_Library/Class/MSC/Src/usbd_msc_scsi.c ****     }
 1861              		.loc 1 699 14 is_stmt 0 view .LVU642
 1862 00a0 4FF0FF30 		mov	r0, #-1
 1863 00a4 F5E7     		b	.L116
 1864              	.LVL180:
 1865              	.L123:
 704:Middlewares/ST/STM32_USB_Device_Library/Class/MSC/Src/usbd_msc_scsi.c ****       return -1;
 1866              		.loc 1 704 7 is_stmt 1 view .LVU643
 1867 00a6 3A23     		movs	r3, #58
 1868 00a8 0222     		movs	r2, #2
 1869              	.LVL181:
 704:Middlewares/ST/STM32_USB_Device_Library/Class/MSC/Src/usbd_msc_scsi.c ****       return -1;
 1870              		.loc 1 704 7 is_stmt 0 view .LVU644
 1871 00aa FFF7FEFF 		bl	SCSI_SenseCode
 1872              	.LVL182:
 705:Middlewares/ST/STM32_USB_Device_Library/Class/MSC/Src/usbd_msc_scsi.c ****     }
 1873              		.loc 1 705 7 is_stmt 1 view .LVU645
 705:Middlewares/ST/STM32_USB_Device_Library/Class/MSC/Src/usbd_msc_scsi.c ****     }
 1874              		.loc 1 705 14 is_stmt 0 view .LVU646
 1875 00ae 4FF0FF30 		mov	r0, #-1
 1876 00b2 EEE7     		b	.L116
 1877              	.L124:
 710:Middlewares/ST/STM32_USB_Device_Library/Class/MSC/Src/usbd_msc_scsi.c ****       return -1;
 1878              		.loc 1 710 7 is_stmt 1 view .LVU647
 1879 00b4 3A23     		movs	r3, #58
 1880 00b6 0222     		movs	r2, #2
 1881 00b8 3946     		mov	r1, r7
 1882 00ba 3046     		mov	r0, r6
 1883 00bc FFF7FEFF 		bl	SCSI_SenseCode
 1884              	.LVL183:
 711:Middlewares/ST/STM32_USB_Device_Library/Class/MSC/Src/usbd_msc_scsi.c ****     }
 1885              		.loc 1 711 7 view .LVU648
 711:Middlewares/ST/STM32_USB_Device_Library/Class/MSC/Src/usbd_msc_scsi.c ****     }
 1886              		.loc 1 711 14 is_stmt 0 view .LVU649
ARM GAS  D:\Temp\cclqlYRL.s 			page 63


 1887 00c0 4FF0FF30 		mov	r0, #-1
 1888 00c4 E5E7     		b	.L116
 1889              	.L125:
 733:Middlewares/ST/STM32_USB_Device_Library/Class/MSC/Src/usbd_msc_scsi.c ****       return -1;
 1890              		.loc 1 733 7 is_stmt 1 view .LVU650
 1891 00c6 2023     		movs	r3, #32
 1892 00c8 0522     		movs	r2, #5
 1893 00ca 94F81D12 		ldrb	r1, [r4, #541]	@ zero_extendqisi2
 1894 00ce 3046     		mov	r0, r6
 1895 00d0 FFF7FEFF 		bl	SCSI_SenseCode
 1896              	.LVL184:
 734:Middlewares/ST/STM32_USB_Device_Library/Class/MSC/Src/usbd_msc_scsi.c ****     }
 1897              		.loc 1 734 7 view .LVU651
 734:Middlewares/ST/STM32_USB_Device_Library/Class/MSC/Src/usbd_msc_scsi.c ****     }
 1898              		.loc 1 734 14 is_stmt 0 view .LVU652
 1899 00d4 4FF0FF30 		mov	r0, #-1
 1900 00d8 DBE7     		b	.L116
 1901              	.L120:
 727:Middlewares/ST/STM32_USB_Device_Library/Class/MSC/Src/usbd_msc_scsi.c ****     }
 1902              		.loc 1 727 14 view .LVU653
 1903 00da 4FF0FF30 		mov	r0, #-1
 1904 00de D8E7     		b	.L116
 1905              		.cfi_endproc
 1906              	.LFE147:
 1908              		.section	.text.SCSI_ProcessWrite,"ax",%progbits
 1909              		.align	1
 1910              		.syntax unified
 1911              		.thumb
 1912              		.thumb_func
 1913              		.fpu fpv4-sp-d16
 1915              	SCSI_ProcessWrite:
 1916              	.LVL185:
 1917              	.LFB153:
1002:Middlewares/ST/STM32_USB_Device_Library/Class/MSC/Src/usbd_msc_scsi.c ****   USBD_MSC_BOT_HandleTypeDef *hmsc = (USBD_MSC_BOT_HandleTypeDef *)pdev->pClassData;
 1918              		.loc 1 1002 1 is_stmt 1 view -0
 1919              		.cfi_startproc
 1920              		@ args = 0, pretend = 0, frame = 0
 1921              		@ frame_needed = 0, uses_anonymous_args = 0
1002:Middlewares/ST/STM32_USB_Device_Library/Class/MSC/Src/usbd_msc_scsi.c ****   USBD_MSC_BOT_HandleTypeDef *hmsc = (USBD_MSC_BOT_HandleTypeDef *)pdev->pClassData;
 1922              		.loc 1 1002 1 is_stmt 0 view .LVU655
 1923 0000 2DE9F843 		push	{r3, r4, r5, r6, r7, r8, r9, lr}
 1924              	.LCFI20:
 1925              		.cfi_def_cfa_offset 32
 1926              		.cfi_offset 3, -32
 1927              		.cfi_offset 4, -28
 1928              		.cfi_offset 5, -24
 1929              		.cfi_offset 6, -20
 1930              		.cfi_offset 7, -16
 1931              		.cfi_offset 8, -12
 1932              		.cfi_offset 9, -8
 1933              		.cfi_offset 14, -4
 1934 0004 0646     		mov	r6, r0
 1935 0006 8846     		mov	r8, r1
1003:Middlewares/ST/STM32_USB_Device_Library/Class/MSC/Src/usbd_msc_scsi.c ****   uint32_t len = hmsc->scsi_blk_len * hmsc->scsi_blk_size;
 1936              		.loc 1 1003 3 is_stmt 1 view .LVU656
1003:Middlewares/ST/STM32_USB_Device_Library/Class/MSC/Src/usbd_msc_scsi.c ****   uint32_t len = hmsc->scsi_blk_len * hmsc->scsi_blk_size;
 1937              		.loc 1 1003 31 is_stmt 0 view .LVU657
ARM GAS  D:\Temp\cclqlYRL.s 			page 64


 1938 0008 D0F8BC42 		ldr	r4, [r0, #700]
 1939              	.LVL186:
1004:Middlewares/ST/STM32_USB_Device_Library/Class/MSC/Src/usbd_msc_scsi.c **** 
 1940              		.loc 1 1004 3 is_stmt 1 view .LVU658
1004:Middlewares/ST/STM32_USB_Device_Library/Class/MSC/Src/usbd_msc_scsi.c **** 
 1941              		.loc 1 1004 22 is_stmt 0 view .LVU659
 1942 000c D4F87052 		ldr	r5, [r4, #624]
1004:Middlewares/ST/STM32_USB_Device_Library/Class/MSC/Src/usbd_msc_scsi.c **** 
 1943              		.loc 1 1004 43 view .LVU660
 1944 0010 B4F86432 		ldrh	r3, [r4, #612]
1004:Middlewares/ST/STM32_USB_Device_Library/Class/MSC/Src/usbd_msc_scsi.c **** 
 1945              		.loc 1 1004 12 view .LVU661
 1946 0014 03FB05F5 		mul	r5, r3, r5
 1947              	.LVL187:
1006:Middlewares/ST/STM32_USB_Device_Library/Class/MSC/Src/usbd_msc_scsi.c **** 
 1948              		.loc 1 1006 3 is_stmt 1 view .LVU662
1006:Middlewares/ST/STM32_USB_Device_Library/Class/MSC/Src/usbd_msc_scsi.c **** 
 1949              		.loc 1 1006 7 is_stmt 0 view .LVU663
 1950 0018 B5F5007F 		cmp	r5, #512
 1951 001c 28BF     		it	cs
 1952 001e 4FF40075 		movcs	r5, #512
 1953              	.LVL188:
1008:Middlewares/ST/STM32_USB_Device_Library/Class/MSC/Src/usbd_msc_scsi.c ****                                                       hmsc->scsi_blk_addr,
 1954              		.loc 1 1008 3 is_stmt 1 view .LVU664
1008:Middlewares/ST/STM32_USB_Device_Library/Class/MSC/Src/usbd_msc_scsi.c ****                                                       hmsc->scsi_blk_addr,
 1955              		.loc 1 1008 35 is_stmt 0 view .LVU665
 1956 0022 D0F8C022 		ldr	r2, [r0, #704]
1008:Middlewares/ST/STM32_USB_Device_Library/Class/MSC/Src/usbd_msc_scsi.c ****                                                       hmsc->scsi_blk_addr,
 1957              		.loc 1 1008 47 view .LVU666
 1958 0026 D2F81490 		ldr	r9, [r2, #20]
1008:Middlewares/ST/STM32_USB_Device_Library/Class/MSC/Src/usbd_msc_scsi.c ****                                                       hmsc->scsi_blk_addr,
 1959              		.loc 1 1008 64 view .LVU667
 1960 002a 04F11007 		add	r7, r4, #16
1010:Middlewares/ST/STM32_USB_Device_Library/Class/MSC/Src/usbd_msc_scsi.c ****   {
 1961              		.loc 1 1010 60 view .LVU668
 1962 002e B5FBF3F3 		udiv	r3, r5, r3
1008:Middlewares/ST/STM32_USB_Device_Library/Class/MSC/Src/usbd_msc_scsi.c ****                                                       hmsc->scsi_blk_addr,
 1963              		.loc 1 1008 8 view .LVU669
 1964 0032 9BB2     		uxth	r3, r3
 1965 0034 D4F86C22 		ldr	r2, [r4, #620]
 1966 0038 3946     		mov	r1, r7
 1967              	.LVL189:
1008:Middlewares/ST/STM32_USB_Device_Library/Class/MSC/Src/usbd_msc_scsi.c ****                                                       hmsc->scsi_blk_addr,
 1968              		.loc 1 1008 8 view .LVU670
 1969 003a 4046     		mov	r0, r8
 1970              	.LVL190:
1008:Middlewares/ST/STM32_USB_Device_Library/Class/MSC/Src/usbd_msc_scsi.c ****                                                       hmsc->scsi_blk_addr,
 1971              		.loc 1 1008 8 view .LVU671
 1972 003c C847     		blx	r9
 1973              	.LVL191:
1008:Middlewares/ST/STM32_USB_Device_Library/Class/MSC/Src/usbd_msc_scsi.c ****                                                       hmsc->scsi_blk_addr,
 1974              		.loc 1 1008 6 view .LVU672
 1975 003e 0028     		cmp	r0, #0
 1976 0040 1ADB     		blt	.L131
1016:Middlewares/ST/STM32_USB_Device_Library/Class/MSC/Src/usbd_msc_scsi.c ****   hmsc->scsi_blk_len -= (len / hmsc->scsi_blk_size);
 1977              		.loc 1 1016 3 is_stmt 1 view .LVU673
1016:Middlewares/ST/STM32_USB_Device_Library/Class/MSC/Src/usbd_msc_scsi.c ****   hmsc->scsi_blk_len -= (len / hmsc->scsi_blk_size);
ARM GAS  D:\Temp\cclqlYRL.s 			page 65


 1978              		.loc 1 1016 37 is_stmt 0 view .LVU674
 1979 0042 B4F86402 		ldrh	r0, [r4, #612]
1016:Middlewares/ST/STM32_USB_Device_Library/Class/MSC/Src/usbd_msc_scsi.c ****   hmsc->scsi_blk_len -= (len / hmsc->scsi_blk_size);
 1980              		.loc 1 1016 31 view .LVU675
 1981 0046 B5FBF0F1 		udiv	r1, r5, r0
1016:Middlewares/ST/STM32_USB_Device_Library/Class/MSC/Src/usbd_msc_scsi.c ****   hmsc->scsi_blk_len -= (len / hmsc->scsi_blk_size);
 1982              		.loc 1 1016 23 view .LVU676
 1983 004a D4F86C22 		ldr	r2, [r4, #620]
 1984 004e 0A44     		add	r2, r2, r1
 1985 0050 C4F86C22 		str	r2, [r4, #620]
1017:Middlewares/ST/STM32_USB_Device_Library/Class/MSC/Src/usbd_msc_scsi.c **** 
 1986              		.loc 1 1017 3 is_stmt 1 view .LVU677
1017:Middlewares/ST/STM32_USB_Device_Library/Class/MSC/Src/usbd_msc_scsi.c **** 
 1987              		.loc 1 1017 22 is_stmt 0 view .LVU678
 1988 0054 D4F87032 		ldr	r3, [r4, #624]
 1989 0058 5B1A     		subs	r3, r3, r1
 1990 005a C4F87032 		str	r3, [r4, #624]
1020:Middlewares/ST/STM32_USB_Device_Library/Class/MSC/Src/usbd_msc_scsi.c **** 
 1991              		.loc 1 1020 3 is_stmt 1 view .LVU679
1020:Middlewares/ST/STM32_USB_Device_Library/Class/MSC/Src/usbd_msc_scsi.c **** 
 1992              		.loc 1 1020 26 is_stmt 0 view .LVU680
 1993 005e D4F83822 		ldr	r2, [r4, #568]
 1994 0062 551B     		subs	r5, r2, r5
 1995              	.LVL192:
1020:Middlewares/ST/STM32_USB_Device_Library/Class/MSC/Src/usbd_msc_scsi.c **** 
 1996              		.loc 1 1020 26 view .LVU681
 1997 0064 C4F83852 		str	r5, [r4, #568]
1022:Middlewares/ST/STM32_USB_Device_Library/Class/MSC/Src/usbd_msc_scsi.c ****   {
 1998              		.loc 1 1022 3 is_stmt 1 view .LVU682
1022:Middlewares/ST/STM32_USB_Device_Library/Class/MSC/Src/usbd_msc_scsi.c ****   {
 1999              		.loc 1 1022 6 is_stmt 0 view .LVU683
 2000 0068 7BB9     		cbnz	r3, .L129
1024:Middlewares/ST/STM32_USB_Device_Library/Class/MSC/Src/usbd_msc_scsi.c ****   }
 2001              		.loc 1 1024 5 is_stmt 1 view .LVU684
 2002 006a 0021     		movs	r1, #0
 2003 006c 3046     		mov	r0, r6
 2004 006e FFF7FEFF 		bl	MSC_BOT_SendCSW
 2005              	.LVL193:
1034:Middlewares/ST/STM32_USB_Device_Library/Class/MSC/Src/usbd_msc_scsi.c **** }
 2006              		.loc 1 1034 10 is_stmt 0 view .LVU685
 2007 0072 0020     		movs	r0, #0
 2008              	.L128:
1035:Middlewares/ST/STM32_USB_Device_Library/Class/MSC/Src/usbd_msc_scsi.c **** 
 2009              		.loc 1 1035 1 view .LVU686
 2010 0074 BDE8F883 		pop	{r3, r4, r5, r6, r7, r8, r9, pc}
 2011              	.LVL194:
 2012              	.L131:
1012:Middlewares/ST/STM32_USB_Device_Library/Class/MSC/Src/usbd_msc_scsi.c ****     return -1;
 2013              		.loc 1 1012 5 is_stmt 1 view .LVU687
 2014 0078 0323     		movs	r3, #3
 2015 007a 0422     		movs	r2, #4
 2016 007c 4146     		mov	r1, r8
 2017 007e 3046     		mov	r0, r6
 2018 0080 FFF7FEFF 		bl	SCSI_SenseCode
 2019              	.LVL195:
1013:Middlewares/ST/STM32_USB_Device_Library/Class/MSC/Src/usbd_msc_scsi.c ****   }
 2020              		.loc 1 1013 5 view .LVU688
ARM GAS  D:\Temp\cclqlYRL.s 			page 66


1013:Middlewares/ST/STM32_USB_Device_Library/Class/MSC/Src/usbd_msc_scsi.c ****   }
 2021              		.loc 1 1013 12 is_stmt 0 view .LVU689
 2022 0084 4FF0FF30 		mov	r0, #-1
 2023 0088 F4E7     		b	.L128
 2024              	.LVL196:
 2025              	.L129:
1028:Middlewares/ST/STM32_USB_Device_Library/Class/MSC/Src/usbd_msc_scsi.c **** 
 2026              		.loc 1 1028 5 is_stmt 1 view .LVU690
1028:Middlewares/ST/STM32_USB_Device_Library/Class/MSC/Src/usbd_msc_scsi.c **** 
 2027              		.loc 1 1028 11 is_stmt 0 view .LVU691
 2028 008a 03FB00F3 		mul	r3, r3, r0
 2029              	.LVL197:
1031:Middlewares/ST/STM32_USB_Device_Library/Class/MSC/Src/usbd_msc_scsi.c ****   }
 2030              		.loc 1 1031 5 is_stmt 1 view .LVU692
1031:Middlewares/ST/STM32_USB_Device_Library/Class/MSC/Src/usbd_msc_scsi.c ****   }
 2031              		.loc 1 1031 11 is_stmt 0 view .LVU693
 2032 008e B3F5007F 		cmp	r3, #512
 2033 0092 28BF     		it	cs
 2034 0094 4FF40073 		movcs	r3, #512
 2035              	.LVL198:
1031:Middlewares/ST/STM32_USB_Device_Library/Class/MSC/Src/usbd_msc_scsi.c ****   }
 2036              		.loc 1 1031 11 view .LVU694
 2037 0098 3A46     		mov	r2, r7
 2038 009a 0121     		movs	r1, #1
 2039 009c 3046     		mov	r0, r6
 2040              	.LVL199:
1031:Middlewares/ST/STM32_USB_Device_Library/Class/MSC/Src/usbd_msc_scsi.c ****   }
 2041              		.loc 1 1031 11 view .LVU695
 2042 009e FFF7FEFF 		bl	USBD_LL_PrepareReceive
 2043              	.LVL200:
1034:Middlewares/ST/STM32_USB_Device_Library/Class/MSC/Src/usbd_msc_scsi.c **** }
 2044              		.loc 1 1034 10 view .LVU696
 2045 00a2 0020     		movs	r0, #0
 2046 00a4 E6E7     		b	.L128
 2047              		.cfi_endproc
 2048              	.LFE153:
 2050              		.section	.text.SCSI_Write10,"ax",%progbits
 2051              		.align	1
 2052              		.syntax unified
 2053              		.thumb
 2054              		.thumb_func
 2055              		.fpu fpv4-sp-d16
 2057              	SCSI_Write10:
 2058              	.LVL201:
 2059              	.LFB148:
 753:Middlewares/ST/STM32_USB_Device_Library/Class/MSC/Src/usbd_msc_scsi.c ****   USBD_MSC_BOT_HandleTypeDef *hmsc = (USBD_MSC_BOT_HandleTypeDef *)pdev->pClassData;
 2060              		.loc 1 753 1 is_stmt 1 view -0
 2061              		.cfi_startproc
 2062              		@ args = 0, pretend = 0, frame = 0
 2063              		@ frame_needed = 0, uses_anonymous_args = 0
 753:Middlewares/ST/STM32_USB_Device_Library/Class/MSC/Src/usbd_msc_scsi.c ****   USBD_MSC_BOT_HandleTypeDef *hmsc = (USBD_MSC_BOT_HandleTypeDef *)pdev->pClassData;
 2064              		.loc 1 753 1 is_stmt 0 view .LVU698
 2065 0000 2DE9F041 		push	{r4, r5, r6, r7, r8, lr}
 2066              	.LCFI21:
 2067              		.cfi_def_cfa_offset 24
 2068              		.cfi_offset 4, -24
 2069              		.cfi_offset 5, -20
ARM GAS  D:\Temp\cclqlYRL.s 			page 67


 2070              		.cfi_offset 6, -16
 2071              		.cfi_offset 7, -12
 2072              		.cfi_offset 8, -8
 2073              		.cfi_offset 14, -4
 2074 0004 0646     		mov	r6, r0
 2075 0006 0F46     		mov	r7, r1
 754:Middlewares/ST/STM32_USB_Device_Library/Class/MSC/Src/usbd_msc_scsi.c ****   uint32_t len;
 2076              		.loc 1 754 3 is_stmt 1 view .LVU699
 754:Middlewares/ST/STM32_USB_Device_Library/Class/MSC/Src/usbd_msc_scsi.c ****   uint32_t len;
 2077              		.loc 1 754 31 is_stmt 0 view .LVU700
 2078 0008 D0F8BC42 		ldr	r4, [r0, #700]
 2079              	.LVL202:
 755:Middlewares/ST/STM32_USB_Device_Library/Class/MSC/Src/usbd_msc_scsi.c **** 
 2080              		.loc 1 755 3 is_stmt 1 view .LVU701
 757:Middlewares/ST/STM32_USB_Device_Library/Class/MSC/Src/usbd_msc_scsi.c ****   {
 2081              		.loc 1 757 3 view .LVU702
 757:Middlewares/ST/STM32_USB_Device_Library/Class/MSC/Src/usbd_msc_scsi.c ****   {
 2082              		.loc 1 757 11 is_stmt 0 view .LVU703
 2083 000c 237A     		ldrb	r3, [r4, #8]	@ zero_extendqisi2
 757:Middlewares/ST/STM32_USB_Device_Library/Class/MSC/Src/usbd_msc_scsi.c ****   {
 2084              		.loc 1 757 6 view .LVU704
 2085 000e 002B     		cmp	r3, #0
 2086 0010 76D1     		bne	.L133
 2087 0012 1546     		mov	r5, r2
 759:Middlewares/ST/STM32_USB_Device_Library/Class/MSC/Src/usbd_msc_scsi.c ****     {
 2088              		.loc 1 759 5 is_stmt 1 view .LVU705
 759:Middlewares/ST/STM32_USB_Device_Library/Class/MSC/Src/usbd_msc_scsi.c ****     {
 2089              		.loc 1 759 18 is_stmt 0 view .LVU706
 2090 0014 D4F81832 		ldr	r3, [r4, #536]
 759:Middlewares/ST/STM32_USB_Device_Library/Class/MSC/Src/usbd_msc_scsi.c ****     {
 2091              		.loc 1 759 8 view .LVU707
 2092 0018 002B     		cmp	r3, #0
 2093 001a 43D0     		beq	.L142
 766:Middlewares/ST/STM32_USB_Device_Library/Class/MSC/Src/usbd_msc_scsi.c ****     {
 2094              		.loc 1 766 5 is_stmt 1 view .LVU708
 766:Middlewares/ST/STM32_USB_Device_Library/Class/MSC/Src/usbd_msc_scsi.c ****     {
 2095              		.loc 1 766 37 is_stmt 0 view .LVU709
 2096 001c 94F91C32 		ldrsb	r3, [r4, #540]
 766:Middlewares/ST/STM32_USB_Device_Library/Class/MSC/Src/usbd_msc_scsi.c ****     {
 2097              		.loc 1 766 8 view .LVU710
 2098 0020 002B     		cmp	r3, #0
 2099 0022 48DB     		blt	.L143
 773:Middlewares/ST/STM32_USB_Device_Library/Class/MSC/Src/usbd_msc_scsi.c ****     {
 2100              		.loc 1 773 5 is_stmt 1 view .LVU711
 773:Middlewares/ST/STM32_USB_Device_Library/Class/MSC/Src/usbd_msc_scsi.c ****     {
 2101              		.loc 1 773 37 is_stmt 0 view .LVU712
 2102 0024 D0F8C032 		ldr	r3, [r0, #704]
 773:Middlewares/ST/STM32_USB_Device_Library/Class/MSC/Src/usbd_msc_scsi.c ****     {
 2103              		.loc 1 773 49 view .LVU713
 2104 0028 9B68     		ldr	r3, [r3, #8]
 773:Middlewares/ST/STM32_USB_Device_Library/Class/MSC/Src/usbd_msc_scsi.c ****     {
 2105              		.loc 1 773 10 view .LVU714
 2106 002a 0846     		mov	r0, r1
 2107              	.LVL203:
 773:Middlewares/ST/STM32_USB_Device_Library/Class/MSC/Src/usbd_msc_scsi.c ****     {
 2108              		.loc 1 773 10 view .LVU715
 2109 002c 9847     		blx	r3
ARM GAS  D:\Temp\cclqlYRL.s 			page 68


 2110              	.LVL204:
 773:Middlewares/ST/STM32_USB_Device_Library/Class/MSC/Src/usbd_msc_scsi.c ****     {
 2111              		.loc 1 773 8 view .LVU716
 2112 002e 0028     		cmp	r0, #0
 2113 0030 4AD1     		bne	.L144
 780:Middlewares/ST/STM32_USB_Device_Library/Class/MSC/Src/usbd_msc_scsi.c ****     {
 2114              		.loc 1 780 5 is_stmt 1 view .LVU717
 780:Middlewares/ST/STM32_USB_Device_Library/Class/MSC/Src/usbd_msc_scsi.c ****     {
 2115              		.loc 1 780 37 is_stmt 0 view .LVU718
 2116 0032 D6F8C032 		ldr	r3, [r6, #704]
 780:Middlewares/ST/STM32_USB_Device_Library/Class/MSC/Src/usbd_msc_scsi.c ****     {
 2117              		.loc 1 780 49 view .LVU719
 2118 0036 DB68     		ldr	r3, [r3, #12]
 780:Middlewares/ST/STM32_USB_Device_Library/Class/MSC/Src/usbd_msc_scsi.c ****     {
 2119              		.loc 1 780 10 view .LVU720
 2120 0038 3846     		mov	r0, r7
 2121 003a 9847     		blx	r3
 2122              	.LVL205:
 780:Middlewares/ST/STM32_USB_Device_Library/Class/MSC/Src/usbd_msc_scsi.c ****     {
 2123              		.loc 1 780 8 view .LVU721
 2124 003c 8046     		mov	r8, r0
 2125 003e 0028     		cmp	r0, #0
 2126 0040 4BD1     		bne	.L145
 786:Middlewares/ST/STM32_USB_Device_Library/Class/MSC/Src/usbd_msc_scsi.c ****                           ((uint32_t)params[3] << 16) |
 2127              		.loc 1 786 5 is_stmt 1 view .LVU722
 786:Middlewares/ST/STM32_USB_Device_Library/Class/MSC/Src/usbd_msc_scsi.c ****                           ((uint32_t)params[3] << 16) |
 2128              		.loc 1 786 44 is_stmt 0 view .LVU723
 2129 0042 AB78     		ldrb	r3, [r5, #2]	@ zero_extendqisi2
 787:Middlewares/ST/STM32_USB_Device_Library/Class/MSC/Src/usbd_msc_scsi.c ****                           ((uint32_t)params[4] << 8) |
 2130              		.loc 1 787 44 view .LVU724
 2131 0044 EA78     		ldrb	r2, [r5, #3]	@ zero_extendqisi2
 787:Middlewares/ST/STM32_USB_Device_Library/Class/MSC/Src/usbd_msc_scsi.c ****                           ((uint32_t)params[4] << 8) |
 2132              		.loc 1 787 48 view .LVU725
 2133 0046 1204     		lsls	r2, r2, #16
 786:Middlewares/ST/STM32_USB_Device_Library/Class/MSC/Src/usbd_msc_scsi.c ****                           ((uint32_t)params[3] << 16) |
 2134              		.loc 1 786 55 view .LVU726
 2135 0048 42EA0362 		orr	r2, r2, r3, lsl #24
 788:Middlewares/ST/STM32_USB_Device_Library/Class/MSC/Src/usbd_msc_scsi.c ****                           (uint32_t)params[5];
 2136              		.loc 1 788 44 view .LVU727
 2137 004c 2B79     		ldrb	r3, [r5, #4]	@ zero_extendqisi2
 787:Middlewares/ST/STM32_USB_Device_Library/Class/MSC/Src/usbd_msc_scsi.c ****                           ((uint32_t)params[4] << 8) |
 2138              		.loc 1 787 55 view .LVU728
 2139 004e 42EA0322 		orr	r2, r2, r3, lsl #8
 789:Middlewares/ST/STM32_USB_Device_Library/Class/MSC/Src/usbd_msc_scsi.c **** 
 2140              		.loc 1 789 43 view .LVU729
 2141 0052 6B79     		ldrb	r3, [r5, #5]	@ zero_extendqisi2
 788:Middlewares/ST/STM32_USB_Device_Library/Class/MSC/Src/usbd_msc_scsi.c ****                           (uint32_t)params[5];
 2142              		.loc 1 788 54 view .LVU730
 2143 0054 1A43     		orrs	r2, r2, r3
 786:Middlewares/ST/STM32_USB_Device_Library/Class/MSC/Src/usbd_msc_scsi.c ****                           ((uint32_t)params[3] << 16) |
 2144              		.loc 1 786 25 view .LVU731
 2145 0056 C4F86C22 		str	r2, [r4, #620]
 791:Middlewares/ST/STM32_USB_Device_Library/Class/MSC/Src/usbd_msc_scsi.c ****                          (uint32_t)params[8];
 2146              		.loc 1 791 5 is_stmt 1 view .LVU732
 791:Middlewares/ST/STM32_USB_Device_Library/Class/MSC/Src/usbd_msc_scsi.c ****                          (uint32_t)params[8];
 2147              		.loc 1 791 43 is_stmt 0 view .LVU733
 2148 005a E979     		ldrb	r1, [r5, #7]	@ zero_extendqisi2
ARM GAS  D:\Temp\cclqlYRL.s 			page 69


 792:Middlewares/ST/STM32_USB_Device_Library/Class/MSC/Src/usbd_msc_scsi.c **** 
 2149              		.loc 1 792 42 view .LVU734
 2150 005c 2B7A     		ldrb	r3, [r5, #8]	@ zero_extendqisi2
 791:Middlewares/ST/STM32_USB_Device_Library/Class/MSC/Src/usbd_msc_scsi.c ****                          (uint32_t)params[8];
 2151              		.loc 1 791 53 view .LVU735
 2152 005e 43EA0123 		orr	r3, r3, r1, lsl #8
 791:Middlewares/ST/STM32_USB_Device_Library/Class/MSC/Src/usbd_msc_scsi.c ****                          (uint32_t)params[8];
 2153              		.loc 1 791 24 view .LVU736
 2154 0062 C4F87032 		str	r3, [r4, #624]
 795:Middlewares/ST/STM32_USB_Device_Library/Class/MSC/Src/usbd_msc_scsi.c ****                                hmsc->scsi_blk_len) < 0)
 2155              		.loc 1 795 5 is_stmt 1 view .LVU737
 795:Middlewares/ST/STM32_USB_Device_Library/Class/MSC/Src/usbd_msc_scsi.c ****                                hmsc->scsi_blk_len) < 0)
 2156              		.loc 1 795 9 is_stmt 0 view .LVU738
 2157 0066 3946     		mov	r1, r7
 2158 0068 3046     		mov	r0, r6
 2159 006a FFF7FEFF 		bl	SCSI_CheckAddressRange
 2160              	.LVL206:
 795:Middlewares/ST/STM32_USB_Device_Library/Class/MSC/Src/usbd_msc_scsi.c ****                                hmsc->scsi_blk_len) < 0)
 2161              		.loc 1 795 8 view .LVU739
 2162 006e 0028     		cmp	r0, #0
 2163 0070 4ADB     		blt	.L140
 801:Middlewares/ST/STM32_USB_Device_Library/Class/MSC/Src/usbd_msc_scsi.c **** 
 2164              		.loc 1 801 5 is_stmt 1 view .LVU740
 801:Middlewares/ST/STM32_USB_Device_Library/Class/MSC/Src/usbd_msc_scsi.c **** 
 2165              		.loc 1 801 15 is_stmt 0 view .LVU741
 2166 0072 D4F87022 		ldr	r2, [r4, #624]
 801:Middlewares/ST/STM32_USB_Device_Library/Class/MSC/Src/usbd_msc_scsi.c **** 
 2167              		.loc 1 801 36 view .LVU742
 2168 0076 B4F86432 		ldrh	r3, [r4, #612]
 801:Middlewares/ST/STM32_USB_Device_Library/Class/MSC/Src/usbd_msc_scsi.c **** 
 2169              		.loc 1 801 9 view .LVU743
 2170 007a 03FB02F3 		mul	r3, r3, r2
 2171              	.LVL207:
 804:Middlewares/ST/STM32_USB_Device_Library/Class/MSC/Src/usbd_msc_scsi.c ****     {
 2172              		.loc 1 804 5 is_stmt 1 view .LVU744
 804:Middlewares/ST/STM32_USB_Device_Library/Class/MSC/Src/usbd_msc_scsi.c ****     {
 2173              		.loc 1 804 18 is_stmt 0 view .LVU745
 2174 007e D4F81822 		ldr	r2, [r4, #536]
 804:Middlewares/ST/STM32_USB_Device_Library/Class/MSC/Src/usbd_msc_scsi.c ****     {
 2175              		.loc 1 804 8 view .LVU746
 2176 0082 9A42     		cmp	r2, r3
 2177 0084 32D1     		bne	.L146
 810:Middlewares/ST/STM32_USB_Device_Library/Class/MSC/Src/usbd_msc_scsi.c **** 
 2178              		.loc 1 810 5 is_stmt 1 view .LVU747
 2179              	.LVL208:
 813:Middlewares/ST/STM32_USB_Device_Library/Class/MSC/Src/usbd_msc_scsi.c ****     (void)USBD_LL_PrepareReceive(pdev, MSC_EPOUT_ADDR, hmsc->bot_data, len);
 2180              		.loc 1 813 5 view .LVU748
 813:Middlewares/ST/STM32_USB_Device_Library/Class/MSC/Src/usbd_msc_scsi.c ****     (void)USBD_LL_PrepareReceive(pdev, MSC_EPOUT_ADDR, hmsc->bot_data, len);
 2181              		.loc 1 813 21 is_stmt 0 view .LVU749
 2182 0086 0121     		movs	r1, #1
 2183 0088 2172     		strb	r1, [r4, #8]
 814:Middlewares/ST/STM32_USB_Device_Library/Class/MSC/Src/usbd_msc_scsi.c ****   }
 2184              		.loc 1 814 5 is_stmt 1 view .LVU750
 814:Middlewares/ST/STM32_USB_Device_Library/Class/MSC/Src/usbd_msc_scsi.c ****   }
 2185              		.loc 1 814 11 is_stmt 0 view .LVU751
 2186 008a B3F5007F 		cmp	r3, #512
 2187 008e 28BF     		it	cs
ARM GAS  D:\Temp\cclqlYRL.s 			page 70


 2188 0090 4FF40073 		movcs	r3, #512
 2189              	.LVL209:
 814:Middlewares/ST/STM32_USB_Device_Library/Class/MSC/Src/usbd_msc_scsi.c ****   }
 2190              		.loc 1 814 11 view .LVU752
 2191 0094 04F11002 		add	r2, r4, #16
 2192 0098 3046     		mov	r0, r6
 2193 009a FFF7FEFF 		bl	USBD_LL_PrepareReceive
 2194              	.LVL210:
 821:Middlewares/ST/STM32_USB_Device_Library/Class/MSC/Src/usbd_msc_scsi.c **** }
 2195              		.loc 1 821 3 is_stmt 1 view .LVU753
 2196              	.L135:
 822:Middlewares/ST/STM32_USB_Device_Library/Class/MSC/Src/usbd_msc_scsi.c **** 
 2197              		.loc 1 822 1 is_stmt 0 view .LVU754
 2198 009e 4046     		mov	r0, r8
 2199 00a0 BDE8F081 		pop	{r4, r5, r6, r7, r8, pc}
 2200              	.LVL211:
 2201              	.L142:
 761:Middlewares/ST/STM32_USB_Device_Library/Class/MSC/Src/usbd_msc_scsi.c ****       return -1;
 2202              		.loc 1 761 7 is_stmt 1 view .LVU755
 2203 00a4 2023     		movs	r3, #32
 2204 00a6 0522     		movs	r2, #5
 2205              	.LVL212:
 761:Middlewares/ST/STM32_USB_Device_Library/Class/MSC/Src/usbd_msc_scsi.c ****       return -1;
 2206              		.loc 1 761 7 is_stmt 0 view .LVU756
 2207 00a8 94F81D12 		ldrb	r1, [r4, #541]	@ zero_extendqisi2
 2208              	.LVL213:
 761:Middlewares/ST/STM32_USB_Device_Library/Class/MSC/Src/usbd_msc_scsi.c ****       return -1;
 2209              		.loc 1 761 7 view .LVU757
 2210 00ac FFF7FEFF 		bl	SCSI_SenseCode
 2211              	.LVL214:
 762:Middlewares/ST/STM32_USB_Device_Library/Class/MSC/Src/usbd_msc_scsi.c ****     }
 2212              		.loc 1 762 7 is_stmt 1 view .LVU758
 762:Middlewares/ST/STM32_USB_Device_Library/Class/MSC/Src/usbd_msc_scsi.c ****     }
 2213              		.loc 1 762 14 is_stmt 0 view .LVU759
 2214 00b0 4FF0FF38 		mov	r8, #-1
 2215 00b4 F3E7     		b	.L135
 2216              	.LVL215:
 2217              	.L143:
 768:Middlewares/ST/STM32_USB_Device_Library/Class/MSC/Src/usbd_msc_scsi.c ****       return -1;
 2218              		.loc 1 768 7 is_stmt 1 view .LVU760
 2219 00b6 2023     		movs	r3, #32
 2220 00b8 0522     		movs	r2, #5
 2221              	.LVL216:
 768:Middlewares/ST/STM32_USB_Device_Library/Class/MSC/Src/usbd_msc_scsi.c ****       return -1;
 2222              		.loc 1 768 7 is_stmt 0 view .LVU761
 2223 00ba 94F81D12 		ldrb	r1, [r4, #541]	@ zero_extendqisi2
 2224              	.LVL217:
 768:Middlewares/ST/STM32_USB_Device_Library/Class/MSC/Src/usbd_msc_scsi.c ****       return -1;
 2225              		.loc 1 768 7 view .LVU762
 2226 00be FFF7FEFF 		bl	SCSI_SenseCode
 2227              	.LVL218:
 769:Middlewares/ST/STM32_USB_Device_Library/Class/MSC/Src/usbd_msc_scsi.c ****     }
 2228              		.loc 1 769 7 is_stmt 1 view .LVU763
 769:Middlewares/ST/STM32_USB_Device_Library/Class/MSC/Src/usbd_msc_scsi.c ****     }
 2229              		.loc 1 769 14 is_stmt 0 view .LVU764
 2230 00c2 4FF0FF38 		mov	r8, #-1
 2231 00c6 EAE7     		b	.L135
ARM GAS  D:\Temp\cclqlYRL.s 			page 71


 2232              	.L144:
 775:Middlewares/ST/STM32_USB_Device_Library/Class/MSC/Src/usbd_msc_scsi.c ****       return -1;
 2233              		.loc 1 775 7 is_stmt 1 view .LVU765
 2234 00c8 3A23     		movs	r3, #58
 2235 00ca 0222     		movs	r2, #2
 2236 00cc 3946     		mov	r1, r7
 2237 00ce 3046     		mov	r0, r6
 2238 00d0 FFF7FEFF 		bl	SCSI_SenseCode
 2239              	.LVL219:
 776:Middlewares/ST/STM32_USB_Device_Library/Class/MSC/Src/usbd_msc_scsi.c ****     }
 2240              		.loc 1 776 7 view .LVU766
 776:Middlewares/ST/STM32_USB_Device_Library/Class/MSC/Src/usbd_msc_scsi.c ****     }
 2241              		.loc 1 776 14 is_stmt 0 view .LVU767
 2242 00d4 4FF0FF38 		mov	r8, #-1
 2243 00d8 E1E7     		b	.L135
 2244              	.L145:
 782:Middlewares/ST/STM32_USB_Device_Library/Class/MSC/Src/usbd_msc_scsi.c ****       return -1;
 2245              		.loc 1 782 7 is_stmt 1 view .LVU768
 2246 00da 2723     		movs	r3, #39
 2247 00dc 0222     		movs	r2, #2
 2248 00de 3946     		mov	r1, r7
 2249 00e0 3046     		mov	r0, r6
 2250 00e2 FFF7FEFF 		bl	SCSI_SenseCode
 2251              	.LVL220:
 783:Middlewares/ST/STM32_USB_Device_Library/Class/MSC/Src/usbd_msc_scsi.c ****     }
 2252              		.loc 1 783 7 view .LVU769
 783:Middlewares/ST/STM32_USB_Device_Library/Class/MSC/Src/usbd_msc_scsi.c ****     }
 2253              		.loc 1 783 14 is_stmt 0 view .LVU770
 2254 00e6 4FF0FF38 		mov	r8, #-1
 2255 00ea D8E7     		b	.L135
 2256              	.LVL221:
 2257              	.L146:
 806:Middlewares/ST/STM32_USB_Device_Library/Class/MSC/Src/usbd_msc_scsi.c ****       return -1;
 2258              		.loc 1 806 7 is_stmt 1 view .LVU771
 2259 00ec 2023     		movs	r3, #32
 2260              	.LVL222:
 806:Middlewares/ST/STM32_USB_Device_Library/Class/MSC/Src/usbd_msc_scsi.c ****       return -1;
 2261              		.loc 1 806 7 is_stmt 0 view .LVU772
 2262 00ee 0522     		movs	r2, #5
 2263 00f0 94F81D12 		ldrb	r1, [r4, #541]	@ zero_extendqisi2
 2264 00f4 3046     		mov	r0, r6
 2265 00f6 FFF7FEFF 		bl	SCSI_SenseCode
 2266              	.LVL223:
 807:Middlewares/ST/STM32_USB_Device_Library/Class/MSC/Src/usbd_msc_scsi.c ****     }
 2267              		.loc 1 807 7 is_stmt 1 view .LVU773
 807:Middlewares/ST/STM32_USB_Device_Library/Class/MSC/Src/usbd_msc_scsi.c ****     }
 2268              		.loc 1 807 14 is_stmt 0 view .LVU774
 2269 00fa 4FF0FF38 		mov	r8, #-1
 2270 00fe CEE7     		b	.L135
 2271              	.LVL224:
 2272              	.L133:
 818:Middlewares/ST/STM32_USB_Device_Library/Class/MSC/Src/usbd_msc_scsi.c ****   }
 2273              		.loc 1 818 5 is_stmt 1 view .LVU775
 818:Middlewares/ST/STM32_USB_Device_Library/Class/MSC/Src/usbd_msc_scsi.c ****   }
 2274              		.loc 1 818 12 is_stmt 0 view .LVU776
 2275 0100 FFF7FEFF 		bl	SCSI_ProcessWrite
 2276              	.LVL225:
ARM GAS  D:\Temp\cclqlYRL.s 			page 72


 818:Middlewares/ST/STM32_USB_Device_Library/Class/MSC/Src/usbd_msc_scsi.c ****   }
 2277              		.loc 1 818 12 view .LVU777
 2278 0104 8046     		mov	r8, r0
 2279 0106 CAE7     		b	.L135
 2280              	.LVL226:
 2281              	.L140:
 798:Middlewares/ST/STM32_USB_Device_Library/Class/MSC/Src/usbd_msc_scsi.c ****     }
 2282              		.loc 1 798 14 view .LVU778
 2283 0108 4FF0FF38 		mov	r8, #-1
 2284 010c C7E7     		b	.L135
 2285              		.cfi_endproc
 2286              	.LFE148:
 2288              		.section	.text.SCSI_Write12,"ax",%progbits
 2289              		.align	1
 2290              		.syntax unified
 2291              		.thumb
 2292              		.thumb_func
 2293              		.fpu fpv4-sp-d16
 2295              	SCSI_Write12:
 2296              	.LVL227:
 2297              	.LFB149:
 833:Middlewares/ST/STM32_USB_Device_Library/Class/MSC/Src/usbd_msc_scsi.c ****   USBD_MSC_BOT_HandleTypeDef *hmsc = (USBD_MSC_BOT_HandleTypeDef *)pdev->pClassData;
 2298              		.loc 1 833 1 is_stmt 1 view -0
 2299              		.cfi_startproc
 2300              		@ args = 0, pretend = 0, frame = 0
 2301              		@ frame_needed = 0, uses_anonymous_args = 0
 833:Middlewares/ST/STM32_USB_Device_Library/Class/MSC/Src/usbd_msc_scsi.c ****   USBD_MSC_BOT_HandleTypeDef *hmsc = (USBD_MSC_BOT_HandleTypeDef *)pdev->pClassData;
 2302              		.loc 1 833 1 is_stmt 0 view .LVU780
 2303 0000 2DE9F041 		push	{r4, r5, r6, r7, r8, lr}
 2304              	.LCFI22:
 2305              		.cfi_def_cfa_offset 24
 2306              		.cfi_offset 4, -24
 2307              		.cfi_offset 5, -20
 2308              		.cfi_offset 6, -16
 2309              		.cfi_offset 7, -12
 2310              		.cfi_offset 8, -8
 2311              		.cfi_offset 14, -4
 2312 0004 0546     		mov	r5, r0
 2313 0006 0E46     		mov	r6, r1
 834:Middlewares/ST/STM32_USB_Device_Library/Class/MSC/Src/usbd_msc_scsi.c ****   uint32_t len;
 2314              		.loc 1 834 3 is_stmt 1 view .LVU781
 834:Middlewares/ST/STM32_USB_Device_Library/Class/MSC/Src/usbd_msc_scsi.c ****   uint32_t len;
 2315              		.loc 1 834 31 is_stmt 0 view .LVU782
 2316 0008 D0F8BC42 		ldr	r4, [r0, #700]
 2317              	.LVL228:
 835:Middlewares/ST/STM32_USB_Device_Library/Class/MSC/Src/usbd_msc_scsi.c **** 
 2318              		.loc 1 835 3 is_stmt 1 view .LVU783
 837:Middlewares/ST/STM32_USB_Device_Library/Class/MSC/Src/usbd_msc_scsi.c ****   {
 2319              		.loc 1 837 3 view .LVU784
 837:Middlewares/ST/STM32_USB_Device_Library/Class/MSC/Src/usbd_msc_scsi.c ****   {
 2320              		.loc 1 837 11 is_stmt 0 view .LVU785
 2321 000c 237A     		ldrb	r3, [r4, #8]	@ zero_extendqisi2
 837:Middlewares/ST/STM32_USB_Device_Library/Class/MSC/Src/usbd_msc_scsi.c ****   {
 2322              		.loc 1 837 6 view .LVU786
 2323 000e 002B     		cmp	r3, #0
 2324 0010 40F08980 		bne	.L148
 2325 0014 9046     		mov	r8, r2
ARM GAS  D:\Temp\cclqlYRL.s 			page 73


 839:Middlewares/ST/STM32_USB_Device_Library/Class/MSC/Src/usbd_msc_scsi.c ****     {
 2326              		.loc 1 839 5 is_stmt 1 view .LVU787
 839:Middlewares/ST/STM32_USB_Device_Library/Class/MSC/Src/usbd_msc_scsi.c ****     {
 2327              		.loc 1 839 18 is_stmt 0 view .LVU788
 2328 0016 D4F81832 		ldr	r3, [r4, #536]
 839:Middlewares/ST/STM32_USB_Device_Library/Class/MSC/Src/usbd_msc_scsi.c ****     {
 2329              		.loc 1 839 8 view .LVU789
 2330 001a 002B     		cmp	r3, #0
 2331 001c 51D0     		beq	.L157
 846:Middlewares/ST/STM32_USB_Device_Library/Class/MSC/Src/usbd_msc_scsi.c ****     {
 2332              		.loc 1 846 5 is_stmt 1 view .LVU790
 846:Middlewares/ST/STM32_USB_Device_Library/Class/MSC/Src/usbd_msc_scsi.c ****     {
 2333              		.loc 1 846 37 is_stmt 0 view .LVU791
 2334 001e 94F91C32 		ldrsb	r3, [r4, #540]
 846:Middlewares/ST/STM32_USB_Device_Library/Class/MSC/Src/usbd_msc_scsi.c ****     {
 2335              		.loc 1 846 8 view .LVU792
 2336 0022 002B     		cmp	r3, #0
 2337 0024 56DB     		blt	.L158
 853:Middlewares/ST/STM32_USB_Device_Library/Class/MSC/Src/usbd_msc_scsi.c ****     {
 2338              		.loc 1 853 5 is_stmt 1 view .LVU793
 853:Middlewares/ST/STM32_USB_Device_Library/Class/MSC/Src/usbd_msc_scsi.c ****     {
 2339              		.loc 1 853 37 is_stmt 0 view .LVU794
 2340 0026 D0F8C032 		ldr	r3, [r0, #704]
 853:Middlewares/ST/STM32_USB_Device_Library/Class/MSC/Src/usbd_msc_scsi.c ****     {
 2341              		.loc 1 853 49 view .LVU795
 2342 002a 9B68     		ldr	r3, [r3, #8]
 853:Middlewares/ST/STM32_USB_Device_Library/Class/MSC/Src/usbd_msc_scsi.c ****     {
 2343              		.loc 1 853 10 view .LVU796
 2344 002c 0846     		mov	r0, r1
 2345              	.LVL229:
 853:Middlewares/ST/STM32_USB_Device_Library/Class/MSC/Src/usbd_msc_scsi.c ****     {
 2346              		.loc 1 853 10 view .LVU797
 2347 002e 9847     		blx	r3
 2348              	.LVL230:
 853:Middlewares/ST/STM32_USB_Device_Library/Class/MSC/Src/usbd_msc_scsi.c ****     {
 2349              		.loc 1 853 8 view .LVU798
 2350 0030 0028     		cmp	r0, #0
 2351 0032 58D1     		bne	.L159
 861:Middlewares/ST/STM32_USB_Device_Library/Class/MSC/Src/usbd_msc_scsi.c ****     {
 2352              		.loc 1 861 5 is_stmt 1 view .LVU799
 861:Middlewares/ST/STM32_USB_Device_Library/Class/MSC/Src/usbd_msc_scsi.c ****     {
 2353              		.loc 1 861 37 is_stmt 0 view .LVU800
 2354 0034 D5F8C032 		ldr	r3, [r5, #704]
 861:Middlewares/ST/STM32_USB_Device_Library/Class/MSC/Src/usbd_msc_scsi.c ****     {
 2355              		.loc 1 861 49 view .LVU801
 2356 0038 DB68     		ldr	r3, [r3, #12]
 861:Middlewares/ST/STM32_USB_Device_Library/Class/MSC/Src/usbd_msc_scsi.c ****     {
 2357              		.loc 1 861 10 view .LVU802
 2358 003a 3046     		mov	r0, r6
 2359 003c 9847     		blx	r3
 2360              	.LVL231:
 861:Middlewares/ST/STM32_USB_Device_Library/Class/MSC/Src/usbd_msc_scsi.c ****     {
 2361              		.loc 1 861 8 view .LVU803
 2362 003e 0746     		mov	r7, r0
 2363 0040 0028     		cmp	r0, #0
 2364 0042 5BD1     		bne	.L160
 868:Middlewares/ST/STM32_USB_Device_Library/Class/MSC/Src/usbd_msc_scsi.c ****                           ((uint32_t)params[3] << 16) |
ARM GAS  D:\Temp\cclqlYRL.s 			page 74


 2365              		.loc 1 868 5 is_stmt 1 view .LVU804
 868:Middlewares/ST/STM32_USB_Device_Library/Class/MSC/Src/usbd_msc_scsi.c ****                           ((uint32_t)params[3] << 16) |
 2366              		.loc 1 868 44 is_stmt 0 view .LVU805
 2367 0044 98F80230 		ldrb	r3, [r8, #2]	@ zero_extendqisi2
 869:Middlewares/ST/STM32_USB_Device_Library/Class/MSC/Src/usbd_msc_scsi.c ****                           ((uint32_t)params[4] << 8) |
 2368              		.loc 1 869 44 view .LVU806
 2369 0048 98F80320 		ldrb	r2, [r8, #3]	@ zero_extendqisi2
 869:Middlewares/ST/STM32_USB_Device_Library/Class/MSC/Src/usbd_msc_scsi.c ****                           ((uint32_t)params[4] << 8) |
 2370              		.loc 1 869 48 view .LVU807
 2371 004c 1204     		lsls	r2, r2, #16
 868:Middlewares/ST/STM32_USB_Device_Library/Class/MSC/Src/usbd_msc_scsi.c ****                           ((uint32_t)params[3] << 16) |
 2372              		.loc 1 868 55 view .LVU808
 2373 004e 42EA0362 		orr	r2, r2, r3, lsl #24
 870:Middlewares/ST/STM32_USB_Device_Library/Class/MSC/Src/usbd_msc_scsi.c ****                           (uint32_t)params[5];
 2374              		.loc 1 870 44 view .LVU809
 2375 0052 98F80430 		ldrb	r3, [r8, #4]	@ zero_extendqisi2
 869:Middlewares/ST/STM32_USB_Device_Library/Class/MSC/Src/usbd_msc_scsi.c ****                           ((uint32_t)params[4] << 8) |
 2376              		.loc 1 869 55 view .LVU810
 2377 0056 42EA0322 		orr	r2, r2, r3, lsl #8
 871:Middlewares/ST/STM32_USB_Device_Library/Class/MSC/Src/usbd_msc_scsi.c **** 
 2378              		.loc 1 871 43 view .LVU811
 2379 005a 98F80530 		ldrb	r3, [r8, #5]	@ zero_extendqisi2
 870:Middlewares/ST/STM32_USB_Device_Library/Class/MSC/Src/usbd_msc_scsi.c ****                           (uint32_t)params[5];
 2380              		.loc 1 870 54 view .LVU812
 2381 005e 1A43     		orrs	r2, r2, r3
 868:Middlewares/ST/STM32_USB_Device_Library/Class/MSC/Src/usbd_msc_scsi.c ****                           ((uint32_t)params[3] << 16) |
 2382              		.loc 1 868 25 view .LVU813
 2383 0060 C4F86C22 		str	r2, [r4, #620]
 873:Middlewares/ST/STM32_USB_Device_Library/Class/MSC/Src/usbd_msc_scsi.c ****                          ((uint32_t)params[7] << 16) |
 2384              		.loc 1 873 5 is_stmt 1 view .LVU814
 873:Middlewares/ST/STM32_USB_Device_Library/Class/MSC/Src/usbd_msc_scsi.c ****                          ((uint32_t)params[7] << 16) |
 2385              		.loc 1 873 43 is_stmt 0 view .LVU815
 2386 0064 98F80610 		ldrb	r1, [r8, #6]	@ zero_extendqisi2
 874:Middlewares/ST/STM32_USB_Device_Library/Class/MSC/Src/usbd_msc_scsi.c ****                          ((uint32_t)params[8] << 8) |
 2387              		.loc 1 874 43 view .LVU816
 2388 0068 98F80730 		ldrb	r3, [r8, #7]	@ zero_extendqisi2
 874:Middlewares/ST/STM32_USB_Device_Library/Class/MSC/Src/usbd_msc_scsi.c ****                          ((uint32_t)params[8] << 8) |
 2389              		.loc 1 874 47 view .LVU817
 2390 006c 1B04     		lsls	r3, r3, #16
 873:Middlewares/ST/STM32_USB_Device_Library/Class/MSC/Src/usbd_msc_scsi.c ****                          ((uint32_t)params[7] << 16) |
 2391              		.loc 1 873 54 view .LVU818
 2392 006e 43EA0163 		orr	r3, r3, r1, lsl #24
 875:Middlewares/ST/STM32_USB_Device_Library/Class/MSC/Src/usbd_msc_scsi.c ****                          (uint32_t)params[9];
 2393              		.loc 1 875 43 view .LVU819
 2394 0072 98F80810 		ldrb	r1, [r8, #8]	@ zero_extendqisi2
 874:Middlewares/ST/STM32_USB_Device_Library/Class/MSC/Src/usbd_msc_scsi.c ****                          ((uint32_t)params[8] << 8) |
 2395              		.loc 1 874 54 view .LVU820
 2396 0076 43EA0123 		orr	r3, r3, r1, lsl #8
 876:Middlewares/ST/STM32_USB_Device_Library/Class/MSC/Src/usbd_msc_scsi.c **** 
 2397              		.loc 1 876 42 view .LVU821
 2398 007a 98F80910 		ldrb	r1, [r8, #9]	@ zero_extendqisi2
 875:Middlewares/ST/STM32_USB_Device_Library/Class/MSC/Src/usbd_msc_scsi.c ****                          (uint32_t)params[9];
 2399              		.loc 1 875 53 view .LVU822
 2400 007e 0B43     		orrs	r3, r3, r1
 873:Middlewares/ST/STM32_USB_Device_Library/Class/MSC/Src/usbd_msc_scsi.c ****                          ((uint32_t)params[7] << 16) |
 2401              		.loc 1 873 24 view .LVU823
 2402 0080 C4F87032 		str	r3, [r4, #624]
ARM GAS  D:\Temp\cclqlYRL.s 			page 75


 879:Middlewares/ST/STM32_USB_Device_Library/Class/MSC/Src/usbd_msc_scsi.c ****                                hmsc->scsi_blk_len) < 0)
 2403              		.loc 1 879 5 is_stmt 1 view .LVU824
 879:Middlewares/ST/STM32_USB_Device_Library/Class/MSC/Src/usbd_msc_scsi.c ****                                hmsc->scsi_blk_len) < 0)
 2404              		.loc 1 879 9 is_stmt 0 view .LVU825
 2405 0084 3146     		mov	r1, r6
 2406 0086 2846     		mov	r0, r5
 2407 0088 FFF7FEFF 		bl	SCSI_CheckAddressRange
 2408              	.LVL232:
 879:Middlewares/ST/STM32_USB_Device_Library/Class/MSC/Src/usbd_msc_scsi.c ****                                hmsc->scsi_blk_len) < 0)
 2409              		.loc 1 879 8 view .LVU826
 2410 008c 0028     		cmp	r0, #0
 2411 008e 4EDB     		blt	.L155
 885:Middlewares/ST/STM32_USB_Device_Library/Class/MSC/Src/usbd_msc_scsi.c **** 
 2412              		.loc 1 885 5 is_stmt 1 view .LVU827
 885:Middlewares/ST/STM32_USB_Device_Library/Class/MSC/Src/usbd_msc_scsi.c **** 
 2413              		.loc 1 885 15 is_stmt 0 view .LVU828
 2414 0090 D4F87022 		ldr	r2, [r4, #624]
 885:Middlewares/ST/STM32_USB_Device_Library/Class/MSC/Src/usbd_msc_scsi.c **** 
 2415              		.loc 1 885 36 view .LVU829
 2416 0094 B4F86432 		ldrh	r3, [r4, #612]
 885:Middlewares/ST/STM32_USB_Device_Library/Class/MSC/Src/usbd_msc_scsi.c **** 
 2417              		.loc 1 885 9 view .LVU830
 2418 0098 03FB02F3 		mul	r3, r3, r2
 2419              	.LVL233:
 888:Middlewares/ST/STM32_USB_Device_Library/Class/MSC/Src/usbd_msc_scsi.c ****     {
 2420              		.loc 1 888 5 is_stmt 1 view .LVU831
 888:Middlewares/ST/STM32_USB_Device_Library/Class/MSC/Src/usbd_msc_scsi.c ****     {
 2421              		.loc 1 888 18 is_stmt 0 view .LVU832
 2422 009c D4F81822 		ldr	r2, [r4, #536]
 888:Middlewares/ST/STM32_USB_Device_Library/Class/MSC/Src/usbd_msc_scsi.c ****     {
 2423              		.loc 1 888 8 view .LVU833
 2424 00a0 9A42     		cmp	r2, r3
 2425 00a2 36D1     		bne	.L161
 894:Middlewares/ST/STM32_USB_Device_Library/Class/MSC/Src/usbd_msc_scsi.c **** 
 2426              		.loc 1 894 5 is_stmt 1 view .LVU834
 2427              	.LVL234:
 897:Middlewares/ST/STM32_USB_Device_Library/Class/MSC/Src/usbd_msc_scsi.c ****     (void)USBD_LL_PrepareReceive(pdev, MSC_EPOUT_ADDR, hmsc->bot_data, len);
 2428              		.loc 1 897 5 view .LVU835
 897:Middlewares/ST/STM32_USB_Device_Library/Class/MSC/Src/usbd_msc_scsi.c ****     (void)USBD_LL_PrepareReceive(pdev, MSC_EPOUT_ADDR, hmsc->bot_data, len);
 2429              		.loc 1 897 21 is_stmt 0 view .LVU836
 2430 00a4 0121     		movs	r1, #1
 2431 00a6 2172     		strb	r1, [r4, #8]
 898:Middlewares/ST/STM32_USB_Device_Library/Class/MSC/Src/usbd_msc_scsi.c ****   }
 2432              		.loc 1 898 5 is_stmt 1 view .LVU837
 898:Middlewares/ST/STM32_USB_Device_Library/Class/MSC/Src/usbd_msc_scsi.c ****   }
 2433              		.loc 1 898 11 is_stmt 0 view .LVU838
 2434 00a8 B3F5007F 		cmp	r3, #512
 2435 00ac 28BF     		it	cs
 2436 00ae 4FF40073 		movcs	r3, #512
 2437              	.LVL235:
 898:Middlewares/ST/STM32_USB_Device_Library/Class/MSC/Src/usbd_msc_scsi.c ****   }
 2438              		.loc 1 898 11 view .LVU839
 2439 00b2 04F11002 		add	r2, r4, #16
 2440 00b6 2846     		mov	r0, r5
 2441 00b8 FFF7FEFF 		bl	USBD_LL_PrepareReceive
 2442              	.LVL236:
 905:Middlewares/ST/STM32_USB_Device_Library/Class/MSC/Src/usbd_msc_scsi.c **** }
ARM GAS  D:\Temp\cclqlYRL.s 			page 76


 2443              		.loc 1 905 3 is_stmt 1 view .LVU840
 2444              	.L150:
 906:Middlewares/ST/STM32_USB_Device_Library/Class/MSC/Src/usbd_msc_scsi.c **** 
 2445              		.loc 1 906 1 is_stmt 0 view .LVU841
 2446 00bc 3846     		mov	r0, r7
 2447 00be BDE8F081 		pop	{r4, r5, r6, r7, r8, pc}
 2448              	.LVL237:
 2449              	.L157:
 841:Middlewares/ST/STM32_USB_Device_Library/Class/MSC/Src/usbd_msc_scsi.c ****       return -1;
 2450              		.loc 1 841 7 is_stmt 1 view .LVU842
 2451 00c2 2023     		movs	r3, #32
 2452 00c4 0522     		movs	r2, #5
 2453              	.LVL238:
 841:Middlewares/ST/STM32_USB_Device_Library/Class/MSC/Src/usbd_msc_scsi.c ****       return -1;
 2454              		.loc 1 841 7 is_stmt 0 view .LVU843
 2455 00c6 94F81D12 		ldrb	r1, [r4, #541]	@ zero_extendqisi2
 2456              	.LVL239:
 841:Middlewares/ST/STM32_USB_Device_Library/Class/MSC/Src/usbd_msc_scsi.c ****       return -1;
 2457              		.loc 1 841 7 view .LVU844
 2458 00ca FFF7FEFF 		bl	SCSI_SenseCode
 2459              	.LVL240:
 842:Middlewares/ST/STM32_USB_Device_Library/Class/MSC/Src/usbd_msc_scsi.c ****     }
 2460              		.loc 1 842 7 is_stmt 1 view .LVU845
 842:Middlewares/ST/STM32_USB_Device_Library/Class/MSC/Src/usbd_msc_scsi.c ****     }
 2461              		.loc 1 842 14 is_stmt 0 view .LVU846
 2462 00ce 4FF0FF37 		mov	r7, #-1
 2463 00d2 F3E7     		b	.L150
 2464              	.LVL241:
 2465              	.L158:
 848:Middlewares/ST/STM32_USB_Device_Library/Class/MSC/Src/usbd_msc_scsi.c ****       return -1;
 2466              		.loc 1 848 7 is_stmt 1 view .LVU847
 2467 00d4 2023     		movs	r3, #32
 2468 00d6 0522     		movs	r2, #5
 2469              	.LVL242:
 848:Middlewares/ST/STM32_USB_Device_Library/Class/MSC/Src/usbd_msc_scsi.c ****       return -1;
 2470              		.loc 1 848 7 is_stmt 0 view .LVU848
 2471 00d8 94F81D12 		ldrb	r1, [r4, #541]	@ zero_extendqisi2
 2472              	.LVL243:
 848:Middlewares/ST/STM32_USB_Device_Library/Class/MSC/Src/usbd_msc_scsi.c ****       return -1;
 2473              		.loc 1 848 7 view .LVU849
 2474 00dc FFF7FEFF 		bl	SCSI_SenseCode
 2475              	.LVL244:
 849:Middlewares/ST/STM32_USB_Device_Library/Class/MSC/Src/usbd_msc_scsi.c ****     }
 2476              		.loc 1 849 7 is_stmt 1 view .LVU850
 849:Middlewares/ST/STM32_USB_Device_Library/Class/MSC/Src/usbd_msc_scsi.c ****     }
 2477              		.loc 1 849 14 is_stmt 0 view .LVU851
 2478 00e0 4FF0FF37 		mov	r7, #-1
 2479 00e4 EAE7     		b	.L150
 2480              	.L159:
 855:Middlewares/ST/STM32_USB_Device_Library/Class/MSC/Src/usbd_msc_scsi.c ****       hmsc->bot_state = USBD_BOT_NO_DATA;
 2481              		.loc 1 855 7 is_stmt 1 view .LVU852
 2482 00e6 3A23     		movs	r3, #58
 2483 00e8 0222     		movs	r2, #2
 2484 00ea 3146     		mov	r1, r6
 2485 00ec 2846     		mov	r0, r5
 2486 00ee FFF7FEFF 		bl	SCSI_SenseCode
 2487              	.LVL245:
ARM GAS  D:\Temp\cclqlYRL.s 			page 77


 856:Middlewares/ST/STM32_USB_Device_Library/Class/MSC/Src/usbd_msc_scsi.c ****       return -1;
 2488              		.loc 1 856 7 view .LVU853
 856:Middlewares/ST/STM32_USB_Device_Library/Class/MSC/Src/usbd_msc_scsi.c ****       return -1;
 2489              		.loc 1 856 23 is_stmt 0 view .LVU854
 2490 00f2 0523     		movs	r3, #5
 2491 00f4 2372     		strb	r3, [r4, #8]
 857:Middlewares/ST/STM32_USB_Device_Library/Class/MSC/Src/usbd_msc_scsi.c ****     }
 2492              		.loc 1 857 7 is_stmt 1 view .LVU855
 857:Middlewares/ST/STM32_USB_Device_Library/Class/MSC/Src/usbd_msc_scsi.c ****     }
 2493              		.loc 1 857 14 is_stmt 0 view .LVU856
 2494 00f6 4FF0FF37 		mov	r7, #-1
 2495 00fa DFE7     		b	.L150
 2496              	.L160:
 863:Middlewares/ST/STM32_USB_Device_Library/Class/MSC/Src/usbd_msc_scsi.c ****       hmsc->bot_state = USBD_BOT_NO_DATA;
 2497              		.loc 1 863 7 is_stmt 1 view .LVU857
 2498 00fc 2723     		movs	r3, #39
 2499 00fe 0222     		movs	r2, #2
 2500 0100 3146     		mov	r1, r6
 2501 0102 2846     		mov	r0, r5
 2502 0104 FFF7FEFF 		bl	SCSI_SenseCode
 2503              	.LVL246:
 864:Middlewares/ST/STM32_USB_Device_Library/Class/MSC/Src/usbd_msc_scsi.c ****       return -1;
 2504              		.loc 1 864 7 view .LVU858
 864:Middlewares/ST/STM32_USB_Device_Library/Class/MSC/Src/usbd_msc_scsi.c ****       return -1;
 2505              		.loc 1 864 23 is_stmt 0 view .LVU859
 2506 0108 0523     		movs	r3, #5
 2507 010a 2372     		strb	r3, [r4, #8]
 865:Middlewares/ST/STM32_USB_Device_Library/Class/MSC/Src/usbd_msc_scsi.c ****     }
 2508              		.loc 1 865 7 is_stmt 1 view .LVU860
 865:Middlewares/ST/STM32_USB_Device_Library/Class/MSC/Src/usbd_msc_scsi.c ****     }
 2509              		.loc 1 865 14 is_stmt 0 view .LVU861
 2510 010c 4FF0FF37 		mov	r7, #-1
 2511 0110 D4E7     		b	.L150
 2512              	.LVL247:
 2513              	.L161:
 890:Middlewares/ST/STM32_USB_Device_Library/Class/MSC/Src/usbd_msc_scsi.c ****       return -1;
 2514              		.loc 1 890 7 is_stmt 1 view .LVU862
 2515 0112 2023     		movs	r3, #32
 2516              	.LVL248:
 890:Middlewares/ST/STM32_USB_Device_Library/Class/MSC/Src/usbd_msc_scsi.c ****       return -1;
 2517              		.loc 1 890 7 is_stmt 0 view .LVU863
 2518 0114 0522     		movs	r2, #5
 2519 0116 94F81D12 		ldrb	r1, [r4, #541]	@ zero_extendqisi2
 2520 011a 2846     		mov	r0, r5
 2521 011c FFF7FEFF 		bl	SCSI_SenseCode
 2522              	.LVL249:
 891:Middlewares/ST/STM32_USB_Device_Library/Class/MSC/Src/usbd_msc_scsi.c ****     }
 2523              		.loc 1 891 7 is_stmt 1 view .LVU864
 891:Middlewares/ST/STM32_USB_Device_Library/Class/MSC/Src/usbd_msc_scsi.c ****     }
 2524              		.loc 1 891 14 is_stmt 0 view .LVU865
 2525 0120 4FF0FF37 		mov	r7, #-1
 2526 0124 CAE7     		b	.L150
 2527              	.LVL250:
 2528              	.L148:
 902:Middlewares/ST/STM32_USB_Device_Library/Class/MSC/Src/usbd_msc_scsi.c ****   }
 2529              		.loc 1 902 5 is_stmt 1 view .LVU866
 902:Middlewares/ST/STM32_USB_Device_Library/Class/MSC/Src/usbd_msc_scsi.c ****   }
ARM GAS  D:\Temp\cclqlYRL.s 			page 78


 2530              		.loc 1 902 12 is_stmt 0 view .LVU867
 2531 0126 FFF7FEFF 		bl	SCSI_ProcessWrite
 2532              	.LVL251:
 902:Middlewares/ST/STM32_USB_Device_Library/Class/MSC/Src/usbd_msc_scsi.c ****   }
 2533              		.loc 1 902 12 view .LVU868
 2534 012a 0746     		mov	r7, r0
 2535 012c C6E7     		b	.L150
 2536              	.LVL252:
 2537              	.L155:
 882:Middlewares/ST/STM32_USB_Device_Library/Class/MSC/Src/usbd_msc_scsi.c ****     }
 2538              		.loc 1 882 14 view .LVU869
 2539 012e 4FF0FF37 		mov	r7, #-1
 2540 0132 C3E7     		b	.L150
 2541              		.cfi_endproc
 2542              	.LFE149:
 2544              		.section	.text.SCSI_Verify10,"ax",%progbits
 2545              		.align	1
 2546              		.syntax unified
 2547              		.thumb
 2548              		.thumb_func
 2549              		.fpu fpv4-sp-d16
 2551              	SCSI_Verify10:
 2552              	.LVL253:
 2553              	.LFB150:
 917:Middlewares/ST/STM32_USB_Device_Library/Class/MSC/Src/usbd_msc_scsi.c ****   USBD_MSC_BOT_HandleTypeDef *hmsc = (USBD_MSC_BOT_HandleTypeDef *)pdev->pClassData;
 2554              		.loc 1 917 1 is_stmt 1 view -0
 2555              		.cfi_startproc
 2556              		@ args = 0, pretend = 0, frame = 0
 2557              		@ frame_needed = 0, uses_anonymous_args = 0
 917:Middlewares/ST/STM32_USB_Device_Library/Class/MSC/Src/usbd_msc_scsi.c ****   USBD_MSC_BOT_HandleTypeDef *hmsc = (USBD_MSC_BOT_HandleTypeDef *)pdev->pClassData;
 2558              		.loc 1 917 1 is_stmt 0 view .LVU871
 2559 0000 10B5     		push	{r4, lr}
 2560              	.LCFI23:
 2561              		.cfi_def_cfa_offset 8
 2562              		.cfi_offset 4, -8
 2563              		.cfi_offset 14, -4
 918:Middlewares/ST/STM32_USB_Device_Library/Class/MSC/Src/usbd_msc_scsi.c **** 
 2564              		.loc 1 918 3 is_stmt 1 view .LVU872
 918:Middlewares/ST/STM32_USB_Device_Library/Class/MSC/Src/usbd_msc_scsi.c **** 
 2565              		.loc 1 918 31 is_stmt 0 view .LVU873
 2566 0002 D0F8BC42 		ldr	r4, [r0, #700]
 2567              	.LVL254:
 920:Middlewares/ST/STM32_USB_Device_Library/Class/MSC/Src/usbd_msc_scsi.c ****   {
 2568              		.loc 1 920 3 is_stmt 1 view .LVU874
 920:Middlewares/ST/STM32_USB_Device_Library/Class/MSC/Src/usbd_msc_scsi.c ****   {
 2569              		.loc 1 920 14 is_stmt 0 view .LVU875
 2570 0006 5378     		ldrb	r3, [r2, #1]	@ zero_extendqisi2
 920:Middlewares/ST/STM32_USB_Device_Library/Class/MSC/Src/usbd_msc_scsi.c ****   {
 2571              		.loc 1 920 6 view .LVU876
 2572 0008 13F0020F 		tst	r3, #2
 2573 000c 0AD1     		bne	.L167
 926:Middlewares/ST/STM32_USB_Device_Library/Class/MSC/Src/usbd_msc_scsi.c ****   {
 2574              		.loc 1 926 3 is_stmt 1 view .LVU877
 926:Middlewares/ST/STM32_USB_Device_Library/Class/MSC/Src/usbd_msc_scsi.c ****   {
 2575              		.loc 1 926 7 is_stmt 0 view .LVU878
 2576 000e D4F87032 		ldr	r3, [r4, #624]
 2577 0012 D4F86C22 		ldr	r2, [r4, #620]
ARM GAS  D:\Temp\cclqlYRL.s 			page 79


 2578              	.LVL255:
 926:Middlewares/ST/STM32_USB_Device_Library/Class/MSC/Src/usbd_msc_scsi.c ****   {
 2579              		.loc 1 926 7 view .LVU879
 2580 0016 FFF7FEFF 		bl	SCSI_CheckAddressRange
 2581              	.LVL256:
 926:Middlewares/ST/STM32_USB_Device_Library/Class/MSC/Src/usbd_msc_scsi.c ****   {
 2582              		.loc 1 926 6 view .LVU880
 2583 001a 0028     		cmp	r0, #0
 2584 001c 09DB     		blt	.L165
 931:Middlewares/ST/STM32_USB_Device_Library/Class/MSC/Src/usbd_msc_scsi.c **** 
 2585              		.loc 1 931 3 is_stmt 1 view .LVU881
 931:Middlewares/ST/STM32_USB_Device_Library/Class/MSC/Src/usbd_msc_scsi.c **** 
 2586              		.loc 1 931 25 is_stmt 0 view .LVU882
 2587 001e 0020     		movs	r0, #0
 2588 0020 E060     		str	r0, [r4, #12]
 933:Middlewares/ST/STM32_USB_Device_Library/Class/MSC/Src/usbd_msc_scsi.c **** }
 2589              		.loc 1 933 3 is_stmt 1 view .LVU883
 2590              	.L164:
 934:Middlewares/ST/STM32_USB_Device_Library/Class/MSC/Src/usbd_msc_scsi.c **** 
 2591              		.loc 1 934 1 is_stmt 0 view .LVU884
 2592 0022 10BD     		pop	{r4, pc}
 2593              	.LVL257:
 2594              	.L167:
 922:Middlewares/ST/STM32_USB_Device_Library/Class/MSC/Src/usbd_msc_scsi.c ****     return -1; /* Error, Verify Mode Not supported*/
 2595              		.loc 1 922 5 is_stmt 1 view .LVU885
 2596 0024 2423     		movs	r3, #36
 2597 0026 0522     		movs	r2, #5
 2598              	.LVL258:
 922:Middlewares/ST/STM32_USB_Device_Library/Class/MSC/Src/usbd_msc_scsi.c ****     return -1; /* Error, Verify Mode Not supported*/
 2599              		.loc 1 922 5 is_stmt 0 view .LVU886
 2600 0028 FFF7FEFF 		bl	SCSI_SenseCode
 2601              	.LVL259:
 923:Middlewares/ST/STM32_USB_Device_Library/Class/MSC/Src/usbd_msc_scsi.c ****   }
 2602              		.loc 1 923 5 is_stmt 1 view .LVU887
 923:Middlewares/ST/STM32_USB_Device_Library/Class/MSC/Src/usbd_msc_scsi.c ****   }
 2603              		.loc 1 923 12 is_stmt 0 view .LVU888
 2604 002c 4FF0FF30 		mov	r0, #-1
 2605 0030 F7E7     		b	.L164
 2606              	.L165:
 928:Middlewares/ST/STM32_USB_Device_Library/Class/MSC/Src/usbd_msc_scsi.c ****   }
 2607              		.loc 1 928 12 view .LVU889
 2608 0032 4FF0FF30 		mov	r0, #-1
 2609 0036 F4E7     		b	.L164
 2610              		.cfi_endproc
 2611              	.LFE150:
 2613              		.section	.text.SCSI_ProcessCmd,"ax",%progbits
 2614              		.align	1
 2615              		.global	SCSI_ProcessCmd
 2616              		.syntax unified
 2617              		.thumb
 2618              		.thumb_func
 2619              		.fpu fpv4-sp-d16
 2621              	SCSI_ProcessCmd:
 2622              	.LVL260:
 2623              	.LFB134:
 122:Middlewares/ST/STM32_USB_Device_Library/Class/MSC/Src/usbd_msc_scsi.c ****   int8_t ret;
 2624              		.loc 1 122 1 is_stmt 1 view -0
ARM GAS  D:\Temp\cclqlYRL.s 			page 80


 2625              		.cfi_startproc
 2626              		@ args = 0, pretend = 0, frame = 0
 2627              		@ frame_needed = 0, uses_anonymous_args = 0
 122:Middlewares/ST/STM32_USB_Device_Library/Class/MSC/Src/usbd_msc_scsi.c ****   int8_t ret;
 2628              		.loc 1 122 1 is_stmt 0 view .LVU891
 2629 0000 10B5     		push	{r4, lr}
 2630              	.LCFI24:
 2631              		.cfi_def_cfa_offset 8
 2632              		.cfi_offset 4, -8
 2633              		.cfi_offset 14, -4
 123:Middlewares/ST/STM32_USB_Device_Library/Class/MSC/Src/usbd_msc_scsi.c ****   USBD_MSC_BOT_HandleTypeDef *hmsc = (USBD_MSC_BOT_HandleTypeDef *)pdev->pClassData;
 2634              		.loc 1 123 3 is_stmt 1 view .LVU892
 124:Middlewares/ST/STM32_USB_Device_Library/Class/MSC/Src/usbd_msc_scsi.c **** 
 2635              		.loc 1 124 3 view .LVU893
 124:Middlewares/ST/STM32_USB_Device_Library/Class/MSC/Src/usbd_msc_scsi.c **** 
 2636              		.loc 1 124 31 is_stmt 0 view .LVU894
 2637 0002 D0F8BC42 		ldr	r4, [r0, #700]
 2638              	.LVL261:
 126:Middlewares/ST/STM32_USB_Device_Library/Class/MSC/Src/usbd_msc_scsi.c ****   {
 2639              		.loc 1 126 3 is_stmt 1 view .LVU895
 126:Middlewares/ST/STM32_USB_Device_Library/Class/MSC/Src/usbd_msc_scsi.c ****   {
 2640              		.loc 1 126 14 is_stmt 0 view .LVU896
 2641 0006 1378     		ldrb	r3, [r2]	@ zero_extendqisi2
 126:Middlewares/ST/STM32_USB_Device_Library/Class/MSC/Src/usbd_msc_scsi.c ****   {
 2642              		.loc 1 126 3 view .LVU897
 2643 0008 252B     		cmp	r3, #37
 2644 000a 44D0     		beq	.L169
 2645 000c 19D8     		bhi	.L170
 2646 000e 1A2B     		cmp	r3, #26
 2647 0010 38D0     		beq	.L171
 2648 0012 0DD8     		bhi	.L172
 2649 0014 032B     		cmp	r3, #3
 2650 0016 2CD0     		beq	.L173
 2651 0018 122B     		cmp	r3, #18
 2652 001a 2DD0     		beq	.L174
 2653 001c 33B3     		cbz	r3, .L190
 2654              	.L176:
 189:Middlewares/ST/STM32_USB_Device_Library/Class/MSC/Src/usbd_msc_scsi.c ****     hmsc->bot_status = USBD_BOT_STATUS_ERROR;
 2655              		.loc 1 189 5 is_stmt 1 view .LVU898
 2656 001e 2023     		movs	r3, #32
 2657 0020 0522     		movs	r2, #5
 2658              	.LVL262:
 189:Middlewares/ST/STM32_USB_Device_Library/Class/MSC/Src/usbd_msc_scsi.c ****     hmsc->bot_status = USBD_BOT_STATUS_ERROR;
 2659              		.loc 1 189 5 is_stmt 0 view .LVU899
 2660 0022 FFF7FEFF 		bl	SCSI_SenseCode
 2661              	.LVL263:
 190:Middlewares/ST/STM32_USB_Device_Library/Class/MSC/Src/usbd_msc_scsi.c ****     ret = -1;
 2662              		.loc 1 190 5 is_stmt 1 view .LVU900
 190:Middlewares/ST/STM32_USB_Device_Library/Class/MSC/Src/usbd_msc_scsi.c ****     ret = -1;
 2663              		.loc 1 190 22 is_stmt 0 view .LVU901
 2664 0026 0223     		movs	r3, #2
 2665 0028 6372     		strb	r3, [r4, #9]
 191:Middlewares/ST/STM32_USB_Device_Library/Class/MSC/Src/usbd_msc_scsi.c ****     break;
 2666              		.loc 1 191 5 is_stmt 1 view .LVU902
 2667              	.LVL264:
 192:Middlewares/ST/STM32_USB_Device_Library/Class/MSC/Src/usbd_msc_scsi.c ****   }
 2668              		.loc 1 192 5 view .LVU903
ARM GAS  D:\Temp\cclqlYRL.s 			page 81


 191:Middlewares/ST/STM32_USB_Device_Library/Class/MSC/Src/usbd_msc_scsi.c ****     break;
 2669              		.loc 1 191 9 is_stmt 0 view .LVU904
 2670 002a 4FF0FF30 		mov	r0, #-1
 192:Middlewares/ST/STM32_USB_Device_Library/Class/MSC/Src/usbd_msc_scsi.c ****   }
 2671              		.loc 1 192 5 view .LVU905
 2672 002e 1FE0     		b	.L188
 2673              	.LVL265:
 2674              	.L172:
 126:Middlewares/ST/STM32_USB_Device_Library/Class/MSC/Src/usbd_msc_scsi.c ****   {
 2675              		.loc 1 126 3 view .LVU906
 2676 0030 1E2B     		cmp	r3, #30
 2677 0032 24D0     		beq	.L177
 2678 0034 232B     		cmp	r3, #35
 2679 0036 2BD0     		beq	.L178
 2680 0038 1B2B     		cmp	r3, #27
 2681 003a F0D1     		bne	.L176
 141:Middlewares/ST/STM32_USB_Device_Library/Class/MSC/Src/usbd_msc_scsi.c ****     break;
 2682              		.loc 1 141 5 is_stmt 1 view .LVU907
 141:Middlewares/ST/STM32_USB_Device_Library/Class/MSC/Src/usbd_msc_scsi.c ****     break;
 2683              		.loc 1 141 11 is_stmt 0 view .LVU908
 2684 003c FFF7FEFF 		bl	SCSI_StartStopUnit
 2685              	.LVL266:
 142:Middlewares/ST/STM32_USB_Device_Library/Class/MSC/Src/usbd_msc_scsi.c **** 
 2686              		.loc 1 142 5 is_stmt 1 view .LVU909
 2687 0040 16E0     		b	.L188
 2688              	.LVL267:
 2689              	.L170:
 126:Middlewares/ST/STM32_USB_Device_Library/Class/MSC/Src/usbd_msc_scsi.c ****   {
 2690              		.loc 1 126 3 is_stmt 0 view .LVU910
 2691 0042 5A2B     		cmp	r3, #90
 2692 0044 21D0     		beq	.L180
 2693 0046 08D8     		bhi	.L181
 2694 0048 2A2B     		cmp	r3, #42
 2695 004a 2AD0     		beq	.L182
 2696 004c 2F2B     		cmp	r3, #47
 2697 004e 2ED0     		beq	.L183
 2698 0050 282B     		cmp	r3, #40
 2699 0052 E4D1     		bne	.L176
 169:Middlewares/ST/STM32_USB_Device_Library/Class/MSC/Src/usbd_msc_scsi.c ****     break;
 2700              		.loc 1 169 5 is_stmt 1 view .LVU911
 169:Middlewares/ST/STM32_USB_Device_Library/Class/MSC/Src/usbd_msc_scsi.c ****     break;
 2701              		.loc 1 169 11 is_stmt 0 view .LVU912
 2702 0054 FFF7FEFF 		bl	SCSI_Read10
 2703              	.LVL268:
 170:Middlewares/ST/STM32_USB_Device_Library/Class/MSC/Src/usbd_msc_scsi.c **** 
 2704              		.loc 1 170 5 is_stmt 1 view .LVU913
 2705 0058 0AE0     		b	.L188
 2706              	.LVL269:
 2707              	.L181:
 126:Middlewares/ST/STM32_USB_Device_Library/Class/MSC/Src/usbd_msc_scsi.c ****   {
 2708              		.loc 1 126 3 is_stmt 0 view .LVU914
 2709 005a A82B     		cmp	r3, #168
 2710 005c 1ED0     		beq	.L185
 2711 005e AA2B     		cmp	r3, #170
 2712 0060 22D0     		beq	.L186
 2713 0062 9E2B     		cmp	r3, #158
 2714 0064 DBD1     		bne	.L176
ARM GAS  D:\Temp\cclqlYRL.s 			page 82


 165:Middlewares/ST/STM32_USB_Device_Library/Class/MSC/Src/usbd_msc_scsi.c ****     break;
 2715              		.loc 1 165 5 is_stmt 1 view .LVU915
 165:Middlewares/ST/STM32_USB_Device_Library/Class/MSC/Src/usbd_msc_scsi.c ****     break;
 2716              		.loc 1 165 11 is_stmt 0 view .LVU916
 2717 0066 FFF7FEFF 		bl	SCSI_ReadCapacity16
 2718              	.LVL270:
 166:Middlewares/ST/STM32_USB_Device_Library/Class/MSC/Src/usbd_msc_scsi.c **** 
 2719              		.loc 1 166 5 is_stmt 1 view .LVU917
 2720 006a 01E0     		b	.L188
 2721              	.LVL271:
 2722              	.L190:
 129:Middlewares/ST/STM32_USB_Device_Library/Class/MSC/Src/usbd_msc_scsi.c ****     break;
 2723              		.loc 1 129 5 view .LVU918
 129:Middlewares/ST/STM32_USB_Device_Library/Class/MSC/Src/usbd_msc_scsi.c ****     break;
 2724              		.loc 1 129 11 is_stmt 0 view .LVU919
 2725 006c FFF7FEFF 		bl	SCSI_TestUnitReady
 2726              	.LVL272:
 130:Middlewares/ST/STM32_USB_Device_Library/Class/MSC/Src/usbd_msc_scsi.c **** 
 2727              		.loc 1 130 5 is_stmt 1 view .LVU920
 2728              	.L188:
 195:Middlewares/ST/STM32_USB_Device_Library/Class/MSC/Src/usbd_msc_scsi.c **** }
 2729              		.loc 1 195 3 view .LVU921
 196:Middlewares/ST/STM32_USB_Device_Library/Class/MSC/Src/usbd_msc_scsi.c **** 
 2730              		.loc 1 196 1 is_stmt 0 view .LVU922
 2731 0070 10BD     		pop	{r4, pc}
 2732              	.LVL273:
 2733              	.L173:
 133:Middlewares/ST/STM32_USB_Device_Library/Class/MSC/Src/usbd_msc_scsi.c ****     break;
 2734              		.loc 1 133 5 is_stmt 1 view .LVU923
 133:Middlewares/ST/STM32_USB_Device_Library/Class/MSC/Src/usbd_msc_scsi.c ****     break;
 2735              		.loc 1 133 11 is_stmt 0 view .LVU924
 2736 0072 FFF7FEFF 		bl	SCSI_RequestSense
 2737              	.LVL274:
 134:Middlewares/ST/STM32_USB_Device_Library/Class/MSC/Src/usbd_msc_scsi.c **** 
 2738              		.loc 1 134 5 is_stmt 1 view .LVU925
 2739 0076 FBE7     		b	.L188
 2740              	.LVL275:
 2741              	.L174:
 137:Middlewares/ST/STM32_USB_Device_Library/Class/MSC/Src/usbd_msc_scsi.c ****     break;
 2742              		.loc 1 137 5 view .LVU926
 137:Middlewares/ST/STM32_USB_Device_Library/Class/MSC/Src/usbd_msc_scsi.c ****     break;
 2743              		.loc 1 137 11 is_stmt 0 view .LVU927
 2744 0078 FFF7FEFF 		bl	SCSI_Inquiry
 2745              	.LVL276:
 138:Middlewares/ST/STM32_USB_Device_Library/Class/MSC/Src/usbd_msc_scsi.c **** 
 2746              		.loc 1 138 5 is_stmt 1 view .LVU928
 2747 007c F8E7     		b	.L188
 2748              	.LVL277:
 2749              	.L177:
 145:Middlewares/ST/STM32_USB_Device_Library/Class/MSC/Src/usbd_msc_scsi.c ****     break;
 2750              		.loc 1 145 5 view .LVU929
 145:Middlewares/ST/STM32_USB_Device_Library/Class/MSC/Src/usbd_msc_scsi.c ****     break;
 2751              		.loc 1 145 11 is_stmt 0 view .LVU930
 2752 007e FFF7FEFF 		bl	SCSI_AllowPreventRemovable
 2753              	.LVL278:
 146:Middlewares/ST/STM32_USB_Device_Library/Class/MSC/Src/usbd_msc_scsi.c **** 
 2754              		.loc 1 146 5 is_stmt 1 view .LVU931
ARM GAS  D:\Temp\cclqlYRL.s 			page 83


 2755 0082 F5E7     		b	.L188
 2756              	.LVL279:
 2757              	.L171:
 149:Middlewares/ST/STM32_USB_Device_Library/Class/MSC/Src/usbd_msc_scsi.c ****     break;
 2758              		.loc 1 149 5 view .LVU932
 149:Middlewares/ST/STM32_USB_Device_Library/Class/MSC/Src/usbd_msc_scsi.c ****     break;
 2759              		.loc 1 149 11 is_stmt 0 view .LVU933
 2760 0084 FFF7FEFF 		bl	SCSI_ModeSense6
 2761              	.LVL280:
 150:Middlewares/ST/STM32_USB_Device_Library/Class/MSC/Src/usbd_msc_scsi.c **** 
 2762              		.loc 1 150 5 is_stmt 1 view .LVU934
 2763 0088 F2E7     		b	.L188
 2764              	.LVL281:
 2765              	.L180:
 153:Middlewares/ST/STM32_USB_Device_Library/Class/MSC/Src/usbd_msc_scsi.c ****     break;
 2766              		.loc 1 153 5 view .LVU935
 153:Middlewares/ST/STM32_USB_Device_Library/Class/MSC/Src/usbd_msc_scsi.c ****     break;
 2767              		.loc 1 153 11 is_stmt 0 view .LVU936
 2768 008a FFF7FEFF 		bl	SCSI_ModeSense10
 2769              	.LVL282:
 154:Middlewares/ST/STM32_USB_Device_Library/Class/MSC/Src/usbd_msc_scsi.c **** 
 2770              		.loc 1 154 5 is_stmt 1 view .LVU937
 2771 008e EFE7     		b	.L188
 2772              	.LVL283:
 2773              	.L178:
 157:Middlewares/ST/STM32_USB_Device_Library/Class/MSC/Src/usbd_msc_scsi.c ****     break;
 2774              		.loc 1 157 5 view .LVU938
 157:Middlewares/ST/STM32_USB_Device_Library/Class/MSC/Src/usbd_msc_scsi.c ****     break;
 2775              		.loc 1 157 11 is_stmt 0 view .LVU939
 2776 0090 FFF7FEFF 		bl	SCSI_ReadFormatCapacity
 2777              	.LVL284:
 158:Middlewares/ST/STM32_USB_Device_Library/Class/MSC/Src/usbd_msc_scsi.c **** 
 2778              		.loc 1 158 5 is_stmt 1 view .LVU940
 2779 0094 ECE7     		b	.L188
 2780              	.LVL285:
 2781              	.L169:
 161:Middlewares/ST/STM32_USB_Device_Library/Class/MSC/Src/usbd_msc_scsi.c ****     break;
 2782              		.loc 1 161 5 view .LVU941
 161:Middlewares/ST/STM32_USB_Device_Library/Class/MSC/Src/usbd_msc_scsi.c ****     break;
 2783              		.loc 1 161 11 is_stmt 0 view .LVU942
 2784 0096 FFF7FEFF 		bl	SCSI_ReadCapacity10
 2785              	.LVL286:
 162:Middlewares/ST/STM32_USB_Device_Library/Class/MSC/Src/usbd_msc_scsi.c **** 
 2786              		.loc 1 162 5 is_stmt 1 view .LVU943
 2787 009a E9E7     		b	.L188
 2788              	.LVL287:
 2789              	.L185:
 173:Middlewares/ST/STM32_USB_Device_Library/Class/MSC/Src/usbd_msc_scsi.c ****     break;
 2790              		.loc 1 173 5 view .LVU944
 173:Middlewares/ST/STM32_USB_Device_Library/Class/MSC/Src/usbd_msc_scsi.c ****     break;
 2791              		.loc 1 173 11 is_stmt 0 view .LVU945
 2792 009c FFF7FEFF 		bl	SCSI_Read12
 2793              	.LVL288:
 174:Middlewares/ST/STM32_USB_Device_Library/Class/MSC/Src/usbd_msc_scsi.c **** 
 2794              		.loc 1 174 5 is_stmt 1 view .LVU946
 2795 00a0 E6E7     		b	.L188
 2796              	.LVL289:
ARM GAS  D:\Temp\cclqlYRL.s 			page 84


 2797              	.L182:
 177:Middlewares/ST/STM32_USB_Device_Library/Class/MSC/Src/usbd_msc_scsi.c ****     break;
 2798              		.loc 1 177 5 view .LVU947
 177:Middlewares/ST/STM32_USB_Device_Library/Class/MSC/Src/usbd_msc_scsi.c ****     break;
 2799              		.loc 1 177 11 is_stmt 0 view .LVU948
 2800 00a2 FFF7FEFF 		bl	SCSI_Write10
 2801              	.LVL290:
 178:Middlewares/ST/STM32_USB_Device_Library/Class/MSC/Src/usbd_msc_scsi.c **** 
 2802              		.loc 1 178 5 is_stmt 1 view .LVU949
 2803 00a6 E3E7     		b	.L188
 2804              	.LVL291:
 2805              	.L186:
 181:Middlewares/ST/STM32_USB_Device_Library/Class/MSC/Src/usbd_msc_scsi.c ****     break;
 2806              		.loc 1 181 5 view .LVU950
 181:Middlewares/ST/STM32_USB_Device_Library/Class/MSC/Src/usbd_msc_scsi.c ****     break;
 2807              		.loc 1 181 11 is_stmt 0 view .LVU951
 2808 00a8 FFF7FEFF 		bl	SCSI_Write12
 2809              	.LVL292:
 182:Middlewares/ST/STM32_USB_Device_Library/Class/MSC/Src/usbd_msc_scsi.c **** 
 2810              		.loc 1 182 5 is_stmt 1 view .LVU952
 2811 00ac E0E7     		b	.L188
 2812              	.LVL293:
 2813              	.L183:
 185:Middlewares/ST/STM32_USB_Device_Library/Class/MSC/Src/usbd_msc_scsi.c ****     break;
 2814              		.loc 1 185 5 view .LVU953
 185:Middlewares/ST/STM32_USB_Device_Library/Class/MSC/Src/usbd_msc_scsi.c ****     break;
 2815              		.loc 1 185 11 is_stmt 0 view .LVU954
 2816 00ae FFF7FEFF 		bl	SCSI_Verify10
 2817              	.LVL294:
 186:Middlewares/ST/STM32_USB_Device_Library/Class/MSC/Src/usbd_msc_scsi.c **** 
 2818              		.loc 1 186 5 is_stmt 1 view .LVU955
 2819 00b2 DDE7     		b	.L188
 2820              		.cfi_endproc
 2821              	.LFE134:
 2823              		.text
 2824              	.Letext0:
 2825              		.file 2 "c:\\stm32\\gnu mcu eclipse\\arm embedded gcc\\8.2.1-1.4-20190214-0604\\arm-none-eabi\\inc
 2826              		.file 3 "c:\\stm32\\gnu mcu eclipse\\arm embedded gcc\\8.2.1-1.4-20190214-0604\\arm-none-eabi\\inc
 2827              		.file 4 "c:\\stm32\\gnu mcu eclipse\\arm embedded gcc\\8.2.1-1.4-20190214-0604\\arm-none-eabi\\inc
 2828              		.file 5 "c:\\stm32\\gnu mcu eclipse\\arm embedded gcc\\8.2.1-1.4-20190214-0604\\lib\\gcc\\arm-none
 2829              		.file 6 "c:\\stm32\\gnu mcu eclipse\\arm embedded gcc\\8.2.1-1.4-20190214-0604\\arm-none-eabi\\inc
 2830              		.file 7 "c:\\stm32\\gnu mcu eclipse\\arm embedded gcc\\8.2.1-1.4-20190214-0604\\arm-none-eabi\\inc
 2831              		.file 8 "c:\\stm32\\gnu mcu eclipse\\arm embedded gcc\\8.2.1-1.4-20190214-0604\\arm-none-eabi\\inc
 2832              		.file 9 "Drivers/CMSIS/Include/core_cm4.h"
 2833              		.file 10 "Drivers/CMSIS/Device/ST/STM32F4xx/Include/system_stm32f4xx.h"
 2834              		.file 11 "Drivers/STM32F4xx_HAL_Driver/Inc/stm32f4xx_hal.h"
 2835              		.file 12 "Middlewares/ST/STM32_USB_Device_Library/Core/Inc/usbd_def.h"
 2836              		.file 13 "Middlewares/ST/STM32_USB_Device_Library/Class/MSC/Inc/usbd_msc_bot.h"
 2837              		.file 14 "Middlewares/ST/STM32_USB_Device_Library/Class/MSC/Inc/usbd_msc_scsi.h"
 2838              		.file 15 "Middlewares/ST/STM32_USB_Device_Library/Class/MSC/Inc/usbd_msc.h"
 2839              		.file 16 "Middlewares/ST/STM32_USB_Device_Library/Class/MSC/Inc/usbd_msc_data.h"
 2840              		.file 17 "Middlewares/ST/STM32_USB_Device_Library/Core/Inc/usbd_core.h"
ARM GAS  D:\Temp\cclqlYRL.s 			page 85


DEFINED SYMBOLS
                            *ABS*:0000000000000000 usbd_msc_scsi.c
  D:\Temp\cclqlYRL.s:18     .text.SCSI_AllowPreventRemovable:0000000000000000 $t
  D:\Temp\cclqlYRL.s:25     .text.SCSI_AllowPreventRemovable:0000000000000000 SCSI_AllowPreventRemovable
  D:\Temp\cclqlYRL.s:69     .text.SCSI_UpdateBotData:0000000000000000 $t
  D:\Temp\cclqlYRL.s:75     .text.SCSI_UpdateBotData:0000000000000000 SCSI_UpdateBotData
  D:\Temp\cclqlYRL.s:135    .text.SCSI_ModeSense6:0000000000000000 $t
  D:\Temp\cclqlYRL.s:141    .text.SCSI_ModeSense6:0000000000000000 SCSI_ModeSense6
  D:\Temp\cclqlYRL.s:186    .text.SCSI_ModeSense6:000000000000001c $d
  D:\Temp\cclqlYRL.s:191    .text.SCSI_ModeSense10:0000000000000000 $t
  D:\Temp\cclqlYRL.s:197    .text.SCSI_ModeSense10:0000000000000000 SCSI_ModeSense10
  D:\Temp\cclqlYRL.s:242    .text.SCSI_ModeSense10:000000000000001c $d
  D:\Temp\cclqlYRL.s:247    .text.SCSI_SenseCode:0000000000000000 $t
  D:\Temp\cclqlYRL.s:254    .text.SCSI_SenseCode:0000000000000000 SCSI_SenseCode
  D:\Temp\cclqlYRL.s:324    .text.SCSI_TestUnitReady:0000000000000000 $t
  D:\Temp\cclqlYRL.s:330    .text.SCSI_TestUnitReady:0000000000000000 SCSI_TestUnitReady
  D:\Temp\cclqlYRL.s:439    .text.SCSI_RequestSense:0000000000000000 $t
  D:\Temp\cclqlYRL.s:445    .text.SCSI_RequestSense:0000000000000000 SCSI_RequestSense
  D:\Temp\cclqlYRL.s:586    .text.SCSI_Inquiry:0000000000000000 $t
  D:\Temp\cclqlYRL.s:592    .text.SCSI_Inquiry:0000000000000000 SCSI_Inquiry
  D:\Temp\cclqlYRL.s:745    .text.SCSI_Inquiry:0000000000000080 $d
  D:\Temp\cclqlYRL.s:751    .text.SCSI_StartStopUnit:0000000000000000 $t
  D:\Temp\cclqlYRL.s:757    .text.SCSI_StartStopUnit:0000000000000000 SCSI_StartStopUnit
  D:\Temp\cclqlYRL.s:849    .text.SCSI_ReadFormatCapacity:0000000000000000 $t
  D:\Temp\cclqlYRL.s:855    .text.SCSI_ReadFormatCapacity:0000000000000000 SCSI_ReadFormatCapacity
  D:\Temp\cclqlYRL.s:1015   .text.SCSI_ReadCapacity10:0000000000000000 $t
  D:\Temp\cclqlYRL.s:1021   .text.SCSI_ReadCapacity10:0000000000000000 SCSI_ReadCapacity10
  D:\Temp\cclqlYRL.s:1141   .text.SCSI_ReadCapacity16:0000000000000000 $t
  D:\Temp\cclqlYRL.s:1147   .text.SCSI_ReadCapacity16:0000000000000000 SCSI_ReadCapacity16
  D:\Temp\cclqlYRL.s:1330   .text.SCSI_CheckAddressRange:0000000000000000 $t
  D:\Temp\cclqlYRL.s:1336   .text.SCSI_CheckAddressRange:0000000000000000 SCSI_CheckAddressRange
  D:\Temp\cclqlYRL.s:1386   .text.SCSI_ProcessRead:0000000000000000 $t
  D:\Temp\cclqlYRL.s:1392   .text.SCSI_ProcessRead:0000000000000000 SCSI_ProcessRead
  D:\Temp\cclqlYRL.s:1518   .text.SCSI_Read10:0000000000000000 $t
  D:\Temp\cclqlYRL.s:1524   .text.SCSI_Read10:0000000000000000 SCSI_Read10
  D:\Temp\cclqlYRL.s:1708   .text.SCSI_Read12:0000000000000000 $t
  D:\Temp\cclqlYRL.s:1714   .text.SCSI_Read12:0000000000000000 SCSI_Read12
  D:\Temp\cclqlYRL.s:1909   .text.SCSI_ProcessWrite:0000000000000000 $t
  D:\Temp\cclqlYRL.s:1915   .text.SCSI_ProcessWrite:0000000000000000 SCSI_ProcessWrite
  D:\Temp\cclqlYRL.s:2051   .text.SCSI_Write10:0000000000000000 $t
  D:\Temp\cclqlYRL.s:2057   .text.SCSI_Write10:0000000000000000 SCSI_Write10
  D:\Temp\cclqlYRL.s:2289   .text.SCSI_Write12:0000000000000000 $t
  D:\Temp\cclqlYRL.s:2295   .text.SCSI_Write12:0000000000000000 SCSI_Write12
  D:\Temp\cclqlYRL.s:2545   .text.SCSI_Verify10:0000000000000000 $t
  D:\Temp\cclqlYRL.s:2551   .text.SCSI_Verify10:0000000000000000 SCSI_Verify10
  D:\Temp\cclqlYRL.s:2614   .text.SCSI_ProcessCmd:0000000000000000 $t
  D:\Temp\cclqlYRL.s:2621   .text.SCSI_ProcessCmd:0000000000000000 SCSI_ProcessCmd

UNDEFINED SYMBOLS
MSC_Mode_Sense6_data
MSC_Mode_Sense10_data
MSC_Page80_Inquiry_Data
MSC_Page00_Inquiry_Data
USBD_LL_Transmit
MSC_BOT_SendCSW
USBD_LL_PrepareReceive
